ARM GAS  C:\Users\Phuong\AppData\Local\Temp\ccmYXgep.s 			page 1


   1              		.syntax unified
   2              		.cpu cortex-m0plus
   3              		.fpu softvfp
   4              		.eabi_attribute 20, 1
   5              		.eabi_attribute 21, 1
   6              		.eabi_attribute 23, 3
   7              		.eabi_attribute 24, 1
   8              		.eabi_attribute 25, 1
   9              		.eabi_attribute 26, 1
  10              		.eabi_attribute 30, 1
  11              		.eabi_attribute 34, 0
  12              		.eabi_attribute 18, 4
  13              		.thumb
  14              		.syntax unified
  15              		.file	"dhcp.c"
  16              		.text
  17              	.Ltext0:
  18              		.cfi_sections	.debug_frame
  19              		.section	.text.dhcp_set_state,"ax",%progbits
  20              		.align	2
  21              		.code	16
  22              		.thumb_func
  23              		.type	dhcp_set_state, %function
  24              	dhcp_set_state:
  25              	.LFB76:
  26              		.file 1 "Source\\LwIP\\src\\core\\ipv4\\dhcp.c"
   1:Source\LwIP\src\core\ipv4/dhcp.c **** /**
   2:Source\LwIP\src\core\ipv4/dhcp.c ****  * @file
   3:Source\LwIP\src\core\ipv4/dhcp.c ****  * Dynamic Host Configuration Protocol client
   4:Source\LwIP\src\core\ipv4/dhcp.c ****  *
   5:Source\LwIP\src\core\ipv4/dhcp.c ****  * @defgroup dhcp4 DHCPv4
   6:Source\LwIP\src\core\ipv4/dhcp.c ****  * @ingroup ip4
   7:Source\LwIP\src\core\ipv4/dhcp.c ****  * DHCP (IPv4) related functions
   8:Source\LwIP\src\core\ipv4/dhcp.c ****  * This is a DHCP client for the lwIP TCP/IP stack. It aims to conform
   9:Source\LwIP\src\core\ipv4/dhcp.c ****  * with RFC 2131 and RFC 2132.
  10:Source\LwIP\src\core\ipv4/dhcp.c ****  *
  11:Source\LwIP\src\core\ipv4/dhcp.c ****  * @todo:
  12:Source\LwIP\src\core\ipv4/dhcp.c ****  * - Support for interfaces other than Ethernet (SLIP, PPP, ...)
  13:Source\LwIP\src\core\ipv4/dhcp.c ****  *
  14:Source\LwIP\src\core\ipv4/dhcp.c ****  * Options:
  15:Source\LwIP\src\core\ipv4/dhcp.c ****  * @ref DHCP_COARSE_TIMER_SECS (recommended 60 which is a minute)
  16:Source\LwIP\src\core\ipv4/dhcp.c ****  * @ref DHCP_FINE_TIMER_MSECS (recommended 500 which equals TCP coarse timer)
  17:Source\LwIP\src\core\ipv4/dhcp.c ****  *
  18:Source\LwIP\src\core\ipv4/dhcp.c ****  * dhcp_start() starts a DHCP client instance which
  19:Source\LwIP\src\core\ipv4/dhcp.c ****  * configures the interface by obtaining an IP address lease and maintaining it.
  20:Source\LwIP\src\core\ipv4/dhcp.c ****  *
  21:Source\LwIP\src\core\ipv4/dhcp.c ****  * Use dhcp_release() to end the lease and use dhcp_stop()
  22:Source\LwIP\src\core\ipv4/dhcp.c ****  * to remove the DHCP client.
  23:Source\LwIP\src\core\ipv4/dhcp.c ****  *
  24:Source\LwIP\src\core\ipv4/dhcp.c ****  * @see netifapi_dhcp4
  25:Source\LwIP\src\core\ipv4/dhcp.c ****  */
  26:Source\LwIP\src\core\ipv4/dhcp.c **** 
  27:Source\LwIP\src\core\ipv4/dhcp.c **** /*
  28:Source\LwIP\src\core\ipv4/dhcp.c ****  * Copyright (c) 2001-2004 Leon Woestenberg <leon.woestenberg@gmx.net>
  29:Source\LwIP\src\core\ipv4/dhcp.c ****  * Copyright (c) 2001-2004 Axon Digital Design B.V., The Netherlands.
  30:Source\LwIP\src\core\ipv4/dhcp.c ****  * All rights reserved.
  31:Source\LwIP\src\core\ipv4/dhcp.c ****  *
ARM GAS  C:\Users\Phuong\AppData\Local\Temp\ccmYXgep.s 			page 2


  32:Source\LwIP\src\core\ipv4/dhcp.c ****  * Redistribution and use in source and binary forms, with or without modification,
  33:Source\LwIP\src\core\ipv4/dhcp.c ****  * are permitted provided that the following conditions are met:
  34:Source\LwIP\src\core\ipv4/dhcp.c ****  *
  35:Source\LwIP\src\core\ipv4/dhcp.c ****  * 1. Redistributions of source code must retain the above copyright notice,
  36:Source\LwIP\src\core\ipv4/dhcp.c ****  *    this list of conditions and the following disclaimer.
  37:Source\LwIP\src\core\ipv4/dhcp.c ****  * 2. Redistributions in binary form must reproduce the above copyright notice,
  38:Source\LwIP\src\core\ipv4/dhcp.c ****  *    this list of conditions and the following disclaimer in the documentation
  39:Source\LwIP\src\core\ipv4/dhcp.c ****  *    and/or other materials provided with the distribution.
  40:Source\LwIP\src\core\ipv4/dhcp.c ****  * 3. The name of the author may not be used to endorse or promote products
  41:Source\LwIP\src\core\ipv4/dhcp.c ****  *    derived from this software without specific prior written permission.
  42:Source\LwIP\src\core\ipv4/dhcp.c ****  *
  43:Source\LwIP\src\core\ipv4/dhcp.c ****  * THIS SOFTWARE IS PROVIDED BY THE AUTHOR ``AS IS'' AND ANY EXPRESS OR IMPLIED
  44:Source\LwIP\src\core\ipv4/dhcp.c ****  * WARRANTIES, INCLUDING, BUT NOT LIMITED TO, THE IMPLIED WARRANTIES OF
  45:Source\LwIP\src\core\ipv4/dhcp.c ****  * MERCHANTABILITY AND FITNESS FOR A PARTICULAR PURPOSE ARE DISCLAIMED. IN NO EVENT
  46:Source\LwIP\src\core\ipv4/dhcp.c ****  * SHALL THE AUTHOR BE LIABLE FOR ANY DIRECT, INDIRECT, INCIDENTAL, SPECIAL,
  47:Source\LwIP\src\core\ipv4/dhcp.c ****  * EXEMPLARY, OR CONSEQUENTIAL DAMAGES (INCLUDING, BUT NOT LIMITED TO, PROCUREMENT
  48:Source\LwIP\src\core\ipv4/dhcp.c ****  * OF SUBSTITUTE GOODS OR SERVICES; LOSS OF USE, DATA, OR PROFITS; OR BUSINESS
  49:Source\LwIP\src\core\ipv4/dhcp.c ****  * INTERRUPTION) HOWEVER CAUSED AND ON ANY THEORY OF LIABILITY, WHETHER IN
  50:Source\LwIP\src\core\ipv4/dhcp.c ****  * CONTRACT, STRICT LIABILITY, OR TORT (INCLUDING NEGLIGENCE OR OTHERWISE) ARISING
  51:Source\LwIP\src\core\ipv4/dhcp.c ****  * IN ANY WAY OUT OF THE USE OF THIS SOFTWARE, EVEN IF ADVISED OF THE POSSIBILITY
  52:Source\LwIP\src\core\ipv4/dhcp.c ****  * OF SUCH DAMAGE.
  53:Source\LwIP\src\core\ipv4/dhcp.c ****  *
  54:Source\LwIP\src\core\ipv4/dhcp.c ****  * This file is part of the lwIP TCP/IP stack.
  55:Source\LwIP\src\core\ipv4/dhcp.c ****  * The Swedish Institute of Computer Science and Adam Dunkels
  56:Source\LwIP\src\core\ipv4/dhcp.c ****  * are specifically granted permission to redistribute this
  57:Source\LwIP\src\core\ipv4/dhcp.c ****  * source code.
  58:Source\LwIP\src\core\ipv4/dhcp.c ****  *
  59:Source\LwIP\src\core\ipv4/dhcp.c ****  * Author: Leon Woestenberg <leon.woestenberg@gmx.net>
  60:Source\LwIP\src\core\ipv4/dhcp.c ****  *
  61:Source\LwIP\src\core\ipv4/dhcp.c ****  */
  62:Source\LwIP\src\core\ipv4/dhcp.c **** 
  63:Source\LwIP\src\core\ipv4/dhcp.c **** #include "lwip/opt.h"
  64:Source\LwIP\src\core\ipv4/dhcp.c **** 
  65:Source\LwIP\src\core\ipv4/dhcp.c **** #if LWIP_IPV4 && LWIP_DHCP /* don't build if not configured for use in lwipopts.h */
  66:Source\LwIP\src\core\ipv4/dhcp.c **** 
  67:Source\LwIP\src\core\ipv4/dhcp.c **** #include "lwip/stats.h"
  68:Source\LwIP\src\core\ipv4/dhcp.c **** #include "lwip/mem.h"
  69:Source\LwIP\src\core\ipv4/dhcp.c **** #include "lwip/udp.h"
  70:Source\LwIP\src\core\ipv4/dhcp.c **** #include "lwip/ip_addr.h"
  71:Source\LwIP\src\core\ipv4/dhcp.c **** #include "lwip/netif.h"
  72:Source\LwIP\src\core\ipv4/dhcp.c **** #include "lwip/def.h"
  73:Source\LwIP\src\core\ipv4/dhcp.c **** #include "lwip/dhcp.h"
  74:Source\LwIP\src\core\ipv4/dhcp.c **** #include "lwip/autoip.h"
  75:Source\LwIP\src\core\ipv4/dhcp.c **** #include "lwip/dns.h"
  76:Source\LwIP\src\core\ipv4/dhcp.c **** #include "lwip/etharp.h"
  77:Source\LwIP\src\core\ipv4/dhcp.c **** #include "lwip/prot/dhcp.h"
  78:Source\LwIP\src\core\ipv4/dhcp.c **** 
  79:Source\LwIP\src\core\ipv4/dhcp.c **** #include <string.h>
  80:Source\LwIP\src\core\ipv4/dhcp.c **** 
  81:Source\LwIP\src\core\ipv4/dhcp.c **** /** DHCP_CREATE_RAND_XID: if this is set to 1, the xid is created using
  82:Source\LwIP\src\core\ipv4/dhcp.c ****  * LWIP_RAND() (this overrides DHCP_GLOBAL_XID)
  83:Source\LwIP\src\core\ipv4/dhcp.c ****  */
  84:Source\LwIP\src\core\ipv4/dhcp.c **** #ifndef DHCP_CREATE_RAND_XID
  85:Source\LwIP\src\core\ipv4/dhcp.c **** #define DHCP_CREATE_RAND_XID        1
  86:Source\LwIP\src\core\ipv4/dhcp.c **** #endif
  87:Source\LwIP\src\core\ipv4/dhcp.c **** 
  88:Source\LwIP\src\core\ipv4/dhcp.c **** /** Default for DHCP_GLOBAL_XID is 0xABCD0000
ARM GAS  C:\Users\Phuong\AppData\Local\Temp\ccmYXgep.s 			page 3


  89:Source\LwIP\src\core\ipv4/dhcp.c ****  * This can be changed by defining DHCP_GLOBAL_XID and DHCP_GLOBAL_XID_HEADER, e.g.
  90:Source\LwIP\src\core\ipv4/dhcp.c ****  *  \#define DHCP_GLOBAL_XID_HEADER "stdlib.h"
  91:Source\LwIP\src\core\ipv4/dhcp.c ****  *  \#define DHCP_GLOBAL_XID rand()
  92:Source\LwIP\src\core\ipv4/dhcp.c ****  */
  93:Source\LwIP\src\core\ipv4/dhcp.c **** #ifdef DHCP_GLOBAL_XID_HEADER
  94:Source\LwIP\src\core\ipv4/dhcp.c **** #include DHCP_GLOBAL_XID_HEADER /* include optional starting XID generation prototypes */
  95:Source\LwIP\src\core\ipv4/dhcp.c **** #endif
  96:Source\LwIP\src\core\ipv4/dhcp.c **** 
  97:Source\LwIP\src\core\ipv4/dhcp.c **** /** DHCP_OPTION_MAX_MSG_SIZE is set to the MTU
  98:Source\LwIP\src\core\ipv4/dhcp.c ****  * MTU is checked to be big enough in dhcp_start */
  99:Source\LwIP\src\core\ipv4/dhcp.c **** #define DHCP_MAX_MSG_LEN(netif)        (netif->mtu)
 100:Source\LwIP\src\core\ipv4/dhcp.c **** #define DHCP_MAX_MSG_LEN_MIN_REQUIRED  576
 101:Source\LwIP\src\core\ipv4/dhcp.c **** /** Minimum length for reply before packet is parsed */
 102:Source\LwIP\src\core\ipv4/dhcp.c **** #define DHCP_MIN_REPLY_LEN             44
 103:Source\LwIP\src\core\ipv4/dhcp.c **** 
 104:Source\LwIP\src\core\ipv4/dhcp.c **** #define REBOOT_TRIES                2
 105:Source\LwIP\src\core\ipv4/dhcp.c **** 
 106:Source\LwIP\src\core\ipv4/dhcp.c **** #if LWIP_DNS && LWIP_DHCP_MAX_DNS_SERVERS
 107:Source\LwIP\src\core\ipv4/dhcp.c **** #if DNS_MAX_SERVERS > LWIP_DHCP_MAX_DNS_SERVERS
 108:Source\LwIP\src\core\ipv4/dhcp.c **** #define LWIP_DHCP_PROVIDE_DNS_SERVERS LWIP_DHCP_MAX_DNS_SERVERS
 109:Source\LwIP\src\core\ipv4/dhcp.c **** #else
 110:Source\LwIP\src\core\ipv4/dhcp.c **** #define LWIP_DHCP_PROVIDE_DNS_SERVERS DNS_MAX_SERVERS
 111:Source\LwIP\src\core\ipv4/dhcp.c **** #endif
 112:Source\LwIP\src\core\ipv4/dhcp.c **** #else
 113:Source\LwIP\src\core\ipv4/dhcp.c **** #define LWIP_DHCP_PROVIDE_DNS_SERVERS 0
 114:Source\LwIP\src\core\ipv4/dhcp.c **** #endif
 115:Source\LwIP\src\core\ipv4/dhcp.c **** 
 116:Source\LwIP\src\core\ipv4/dhcp.c **** /** Option handling: options are parsed in dhcp_parse_reply
 117:Source\LwIP\src\core\ipv4/dhcp.c ****  * and saved in an array where other functions can load them from.
 118:Source\LwIP\src\core\ipv4/dhcp.c ****  * This might be moved into the struct dhcp (not necessarily since
 119:Source\LwIP\src\core\ipv4/dhcp.c ****  * lwIP is single-threaded and the array is only used while in recv
 120:Source\LwIP\src\core\ipv4/dhcp.c ****  * callback). */
 121:Source\LwIP\src\core\ipv4/dhcp.c **** enum dhcp_option_idx {
 122:Source\LwIP\src\core\ipv4/dhcp.c ****   DHCP_OPTION_IDX_OVERLOAD = 0,
 123:Source\LwIP\src\core\ipv4/dhcp.c ****   DHCP_OPTION_IDX_MSG_TYPE,
 124:Source\LwIP\src\core\ipv4/dhcp.c ****   DHCP_OPTION_IDX_SERVER_ID,
 125:Source\LwIP\src\core\ipv4/dhcp.c ****   DHCP_OPTION_IDX_LEASE_TIME,
 126:Source\LwIP\src\core\ipv4/dhcp.c ****   DHCP_OPTION_IDX_T1,
 127:Source\LwIP\src\core\ipv4/dhcp.c ****   DHCP_OPTION_IDX_T2,
 128:Source\LwIP\src\core\ipv4/dhcp.c ****   DHCP_OPTION_IDX_SUBNET_MASK,
 129:Source\LwIP\src\core\ipv4/dhcp.c ****   DHCP_OPTION_IDX_ROUTER,
 130:Source\LwIP\src\core\ipv4/dhcp.c **** #if LWIP_DHCP_PROVIDE_DNS_SERVERS
 131:Source\LwIP\src\core\ipv4/dhcp.c ****   DHCP_OPTION_IDX_DNS_SERVER,
 132:Source\LwIP\src\core\ipv4/dhcp.c ****   DHCP_OPTION_IDX_DNS_SERVER_LAST = DHCP_OPTION_IDX_DNS_SERVER + LWIP_DHCP_PROVIDE_DNS_SERVERS - 1,
 133:Source\LwIP\src\core\ipv4/dhcp.c **** #endif /* LWIP_DHCP_PROVIDE_DNS_SERVERS */
 134:Source\LwIP\src\core\ipv4/dhcp.c **** #if LWIP_DHCP_GET_NTP_SRV
 135:Source\LwIP\src\core\ipv4/dhcp.c ****   DHCP_OPTION_IDX_NTP_SERVER,
 136:Source\LwIP\src\core\ipv4/dhcp.c ****   DHCP_OPTION_IDX_NTP_SERVER_LAST = DHCP_OPTION_IDX_NTP_SERVER + LWIP_DHCP_MAX_NTP_SERVERS - 1,
 137:Source\LwIP\src\core\ipv4/dhcp.c **** #endif /* LWIP_DHCP_GET_NTP_SRV */
 138:Source\LwIP\src\core\ipv4/dhcp.c ****   DHCP_OPTION_IDX_MAX
 139:Source\LwIP\src\core\ipv4/dhcp.c **** };
 140:Source\LwIP\src\core\ipv4/dhcp.c **** 
 141:Source\LwIP\src\core\ipv4/dhcp.c **** /** Holds the decoded option values, only valid while in dhcp_recv.
 142:Source\LwIP\src\core\ipv4/dhcp.c ****     @todo: move this into struct dhcp? */
 143:Source\LwIP\src\core\ipv4/dhcp.c **** u32_t dhcp_rx_options_val[DHCP_OPTION_IDX_MAX];
 144:Source\LwIP\src\core\ipv4/dhcp.c **** /** Holds a flag which option was received and is contained in dhcp_rx_options_val,
 145:Source\LwIP\src\core\ipv4/dhcp.c ****     only valid while in dhcp_recv.
ARM GAS  C:\Users\Phuong\AppData\Local\Temp\ccmYXgep.s 			page 4


 146:Source\LwIP\src\core\ipv4/dhcp.c ****     @todo: move this into struct dhcp? */
 147:Source\LwIP\src\core\ipv4/dhcp.c **** u8_t  dhcp_rx_options_given[DHCP_OPTION_IDX_MAX];
 148:Source\LwIP\src\core\ipv4/dhcp.c **** 
 149:Source\LwIP\src\core\ipv4/dhcp.c **** static u8_t dhcp_discover_request_options[] = {
 150:Source\LwIP\src\core\ipv4/dhcp.c ****   DHCP_OPTION_SUBNET_MASK,
 151:Source\LwIP\src\core\ipv4/dhcp.c ****   DHCP_OPTION_ROUTER,
 152:Source\LwIP\src\core\ipv4/dhcp.c ****   DHCP_OPTION_BROADCAST
 153:Source\LwIP\src\core\ipv4/dhcp.c **** #if LWIP_DHCP_PROVIDE_DNS_SERVERS
 154:Source\LwIP\src\core\ipv4/dhcp.c ****   , DHCP_OPTION_DNS_SERVER
 155:Source\LwIP\src\core\ipv4/dhcp.c **** #endif /* LWIP_DHCP_PROVIDE_DNS_SERVERS */
 156:Source\LwIP\src\core\ipv4/dhcp.c **** #if LWIP_DHCP_GET_NTP_SRV
 157:Source\LwIP\src\core\ipv4/dhcp.c ****   , DHCP_OPTION_NTP
 158:Source\LwIP\src\core\ipv4/dhcp.c **** #endif /* LWIP_DHCP_GET_NTP_SRV */
 159:Source\LwIP\src\core\ipv4/dhcp.c ****   };
 160:Source\LwIP\src\core\ipv4/dhcp.c **** 
 161:Source\LwIP\src\core\ipv4/dhcp.c **** #ifdef DHCP_GLOBAL_XID
 162:Source\LwIP\src\core\ipv4/dhcp.c **** static u32_t xid;
 163:Source\LwIP\src\core\ipv4/dhcp.c **** static u8_t xid_initialised;
 164:Source\LwIP\src\core\ipv4/dhcp.c **** #endif /* DHCP_GLOBAL_XID */
 165:Source\LwIP\src\core\ipv4/dhcp.c **** 
 166:Source\LwIP\src\core\ipv4/dhcp.c **** #define dhcp_option_given(dhcp, idx)          (dhcp_rx_options_given[idx] != 0)
 167:Source\LwIP\src\core\ipv4/dhcp.c **** #define dhcp_got_option(dhcp, idx)            (dhcp_rx_options_given[idx] = 1)
 168:Source\LwIP\src\core\ipv4/dhcp.c **** #define dhcp_clear_option(dhcp, idx)          (dhcp_rx_options_given[idx] = 0)
 169:Source\LwIP\src\core\ipv4/dhcp.c **** #define dhcp_clear_all_options(dhcp)          (memset(dhcp_rx_options_given, 0, sizeof(dhcp_rx_opti
 170:Source\LwIP\src\core\ipv4/dhcp.c **** #define dhcp_get_option_value(dhcp, idx)      (dhcp_rx_options_val[idx])
 171:Source\LwIP\src\core\ipv4/dhcp.c **** #define dhcp_set_option_value(dhcp, idx, val) (dhcp_rx_options_val[idx] = (val))
 172:Source\LwIP\src\core\ipv4/dhcp.c **** 
 173:Source\LwIP\src\core\ipv4/dhcp.c **** static struct udp_pcb *dhcp_pcb;
 174:Source\LwIP\src\core\ipv4/dhcp.c **** static u8_t dhcp_pcb_refcount;
 175:Source\LwIP\src\core\ipv4/dhcp.c **** 
 176:Source\LwIP\src\core\ipv4/dhcp.c **** /* DHCP client state machine functions */
 177:Source\LwIP\src\core\ipv4/dhcp.c **** static err_t dhcp_discover(struct netif *netif);
 178:Source\LwIP\src\core\ipv4/dhcp.c **** static err_t dhcp_select(struct netif *netif);
 179:Source\LwIP\src\core\ipv4/dhcp.c **** static void dhcp_bind(struct netif *netif);
 180:Source\LwIP\src\core\ipv4/dhcp.c **** #if DHCP_DOES_ARP_CHECK
 181:Source\LwIP\src\core\ipv4/dhcp.c **** static err_t dhcp_decline(struct netif *netif);
 182:Source\LwIP\src\core\ipv4/dhcp.c **** #endif /* DHCP_DOES_ARP_CHECK */
 183:Source\LwIP\src\core\ipv4/dhcp.c **** static err_t dhcp_rebind(struct netif *netif);
 184:Source\LwIP\src\core\ipv4/dhcp.c **** static err_t dhcp_reboot(struct netif *netif);
 185:Source\LwIP\src\core\ipv4/dhcp.c **** static void dhcp_set_state(struct dhcp *dhcp, u8_t new_state);
 186:Source\LwIP\src\core\ipv4/dhcp.c **** 
 187:Source\LwIP\src\core\ipv4/dhcp.c **** /* receive, unfold, parse and free incoming messages */
 188:Source\LwIP\src\core\ipv4/dhcp.c **** static void dhcp_recv(void *arg, struct udp_pcb *pcb, struct pbuf *p, const ip_addr_t *addr, u16_t 
 189:Source\LwIP\src\core\ipv4/dhcp.c **** 
 190:Source\LwIP\src\core\ipv4/dhcp.c **** /* set the DHCP timers */
 191:Source\LwIP\src\core\ipv4/dhcp.c **** static void dhcp_timeout(struct netif *netif);
 192:Source\LwIP\src\core\ipv4/dhcp.c **** static void dhcp_t1_timeout(struct netif *netif);
 193:Source\LwIP\src\core\ipv4/dhcp.c **** static void dhcp_t2_timeout(struct netif *netif);
 194:Source\LwIP\src\core\ipv4/dhcp.c **** 
 195:Source\LwIP\src\core\ipv4/dhcp.c **** /* build outgoing messages */
 196:Source\LwIP\src\core\ipv4/dhcp.c **** /* create a DHCP message, fill in common headers */
 197:Source\LwIP\src\core\ipv4/dhcp.c **** static err_t dhcp_create_msg(struct netif *netif, struct dhcp *dhcp, u8_t message_type);
 198:Source\LwIP\src\core\ipv4/dhcp.c **** /* free a DHCP request */
 199:Source\LwIP\src\core\ipv4/dhcp.c **** static void dhcp_delete_msg(struct dhcp *dhcp);
 200:Source\LwIP\src\core\ipv4/dhcp.c **** /* add a DHCP option (type, then length in bytes) */
 201:Source\LwIP\src\core\ipv4/dhcp.c **** static void dhcp_option(struct dhcp *dhcp, u8_t option_type, u8_t option_len);
 202:Source\LwIP\src\core\ipv4/dhcp.c **** /* add option values */
ARM GAS  C:\Users\Phuong\AppData\Local\Temp\ccmYXgep.s 			page 5


 203:Source\LwIP\src\core\ipv4/dhcp.c **** static void dhcp_option_byte(struct dhcp *dhcp, u8_t value);
 204:Source\LwIP\src\core\ipv4/dhcp.c **** static void dhcp_option_short(struct dhcp *dhcp, u16_t value);
 205:Source\LwIP\src\core\ipv4/dhcp.c **** static void dhcp_option_long(struct dhcp *dhcp, u32_t value);
 206:Source\LwIP\src\core\ipv4/dhcp.c **** #if LWIP_NETIF_HOSTNAME
 207:Source\LwIP\src\core\ipv4/dhcp.c **** static void dhcp_option_hostname(struct dhcp *dhcp, struct netif *netif);
 208:Source\LwIP\src\core\ipv4/dhcp.c **** #endif /* LWIP_NETIF_HOSTNAME */
 209:Source\LwIP\src\core\ipv4/dhcp.c **** /* always add the DHCP options trailer to end and pad */
 210:Source\LwIP\src\core\ipv4/dhcp.c **** static void dhcp_option_trailer(struct dhcp *dhcp);
 211:Source\LwIP\src\core\ipv4/dhcp.c **** 
 212:Source\LwIP\src\core\ipv4/dhcp.c **** /** Ensure DHCP PCB is allocated and bound */
 213:Source\LwIP\src\core\ipv4/dhcp.c **** static err_t
 214:Source\LwIP\src\core\ipv4/dhcp.c **** dhcp_inc_pcb_refcount(void)
 215:Source\LwIP\src\core\ipv4/dhcp.c **** {
 216:Source\LwIP\src\core\ipv4/dhcp.c ****   if (dhcp_pcb_refcount == 0) {
 217:Source\LwIP\src\core\ipv4/dhcp.c ****     LWIP_ASSERT("dhcp_inc_pcb_refcount(): memory leak", dhcp_pcb == NULL);
 218:Source\LwIP\src\core\ipv4/dhcp.c **** 
 219:Source\LwIP\src\core\ipv4/dhcp.c ****     /* allocate UDP PCB */
 220:Source\LwIP\src\core\ipv4/dhcp.c ****     dhcp_pcb = udp_new();
 221:Source\LwIP\src\core\ipv4/dhcp.c **** 
 222:Source\LwIP\src\core\ipv4/dhcp.c ****     if (dhcp_pcb == NULL) {
 223:Source\LwIP\src\core\ipv4/dhcp.c ****       return ERR_MEM;
 224:Source\LwIP\src\core\ipv4/dhcp.c ****     }
 225:Source\LwIP\src\core\ipv4/dhcp.c **** 
 226:Source\LwIP\src\core\ipv4/dhcp.c ****     ip_set_option(dhcp_pcb, SOF_BROADCAST);
 227:Source\LwIP\src\core\ipv4/dhcp.c **** 
 228:Source\LwIP\src\core\ipv4/dhcp.c ****     /* set up local and remote port for the pcb -> listen on all interfaces on all src/dest IPs */
 229:Source\LwIP\src\core\ipv4/dhcp.c ****     udp_bind(dhcp_pcb, IP4_ADDR_ANY, DHCP_CLIENT_PORT);
 230:Source\LwIP\src\core\ipv4/dhcp.c ****     udp_connect(dhcp_pcb, IP4_ADDR_ANY, DHCP_SERVER_PORT);
 231:Source\LwIP\src\core\ipv4/dhcp.c ****     udp_recv(dhcp_pcb, dhcp_recv, NULL);
 232:Source\LwIP\src\core\ipv4/dhcp.c ****   }
 233:Source\LwIP\src\core\ipv4/dhcp.c **** 
 234:Source\LwIP\src\core\ipv4/dhcp.c ****   dhcp_pcb_refcount++;
 235:Source\LwIP\src\core\ipv4/dhcp.c **** 
 236:Source\LwIP\src\core\ipv4/dhcp.c ****   return ERR_OK;
 237:Source\LwIP\src\core\ipv4/dhcp.c **** }
 238:Source\LwIP\src\core\ipv4/dhcp.c **** 
 239:Source\LwIP\src\core\ipv4/dhcp.c **** /** Free DHCP PCB if the last netif stops using it */
 240:Source\LwIP\src\core\ipv4/dhcp.c **** static void
 241:Source\LwIP\src\core\ipv4/dhcp.c **** dhcp_dec_pcb_refcount(void)
 242:Source\LwIP\src\core\ipv4/dhcp.c **** {
 243:Source\LwIP\src\core\ipv4/dhcp.c ****   LWIP_ASSERT("dhcp_pcb_refcount(): refcount error", (dhcp_pcb_refcount > 0));
 244:Source\LwIP\src\core\ipv4/dhcp.c ****   dhcp_pcb_refcount--;
 245:Source\LwIP\src\core\ipv4/dhcp.c **** 
 246:Source\LwIP\src\core\ipv4/dhcp.c ****   if (dhcp_pcb_refcount == 0) {
 247:Source\LwIP\src\core\ipv4/dhcp.c ****     udp_remove(dhcp_pcb);
 248:Source\LwIP\src\core\ipv4/dhcp.c ****     dhcp_pcb = NULL;
 249:Source\LwIP\src\core\ipv4/dhcp.c ****   }
 250:Source\LwIP\src\core\ipv4/dhcp.c **** }
 251:Source\LwIP\src\core\ipv4/dhcp.c **** 
 252:Source\LwIP\src\core\ipv4/dhcp.c **** /**
 253:Source\LwIP\src\core\ipv4/dhcp.c ****  * Back-off the DHCP client (because of a received NAK response).
 254:Source\LwIP\src\core\ipv4/dhcp.c ****  *
 255:Source\LwIP\src\core\ipv4/dhcp.c ****  * Back-off the DHCP client because of a received NAK. Receiving a
 256:Source\LwIP\src\core\ipv4/dhcp.c ****  * NAK means the client asked for something non-sensible, for
 257:Source\LwIP\src\core\ipv4/dhcp.c ****  * example when it tries to renew a lease obtained on another network.
 258:Source\LwIP\src\core\ipv4/dhcp.c ****  *
 259:Source\LwIP\src\core\ipv4/dhcp.c ****  * We clear any existing set IP address and restart DHCP negotiation
ARM GAS  C:\Users\Phuong\AppData\Local\Temp\ccmYXgep.s 			page 6


 260:Source\LwIP\src\core\ipv4/dhcp.c ****  * afresh (as per RFC2131 3.2.3).
 261:Source\LwIP\src\core\ipv4/dhcp.c ****  *
 262:Source\LwIP\src\core\ipv4/dhcp.c ****  * @param netif the netif under DHCP control
 263:Source\LwIP\src\core\ipv4/dhcp.c ****  */
 264:Source\LwIP\src\core\ipv4/dhcp.c **** static void
 265:Source\LwIP\src\core\ipv4/dhcp.c **** dhcp_handle_nak(struct netif *netif)
 266:Source\LwIP\src\core\ipv4/dhcp.c **** {
 267:Source\LwIP\src\core\ipv4/dhcp.c ****   struct dhcp *dhcp = netif_dhcp_data(netif);
 268:Source\LwIP\src\core\ipv4/dhcp.c **** 
 269:Source\LwIP\src\core\ipv4/dhcp.c ****   LWIP_DEBUGF(DHCP_DEBUG | LWIP_DBG_TRACE, ("dhcp_handle_nak(netif=%p) %c%c%"U16_F"\n",
 270:Source\LwIP\src\core\ipv4/dhcp.c ****     (void*)netif, netif->name[0], netif->name[1], (u16_t)netif->num));
 271:Source\LwIP\src\core\ipv4/dhcp.c ****   /* Change to a defined state - set this before assigning the address
 272:Source\LwIP\src\core\ipv4/dhcp.c ****      to ensure the callback can use dhcp_supplied_address() */
 273:Source\LwIP\src\core\ipv4/dhcp.c ****   dhcp_set_state(dhcp, DHCP_STATE_BACKING_OFF);
 274:Source\LwIP\src\core\ipv4/dhcp.c ****   /* remove IP address from interface (must no longer be used, as per RFC2131) */
 275:Source\LwIP\src\core\ipv4/dhcp.c ****   netif_set_addr(netif, IP4_ADDR_ANY4, IP4_ADDR_ANY4, IP4_ADDR_ANY4);
 276:Source\LwIP\src\core\ipv4/dhcp.c ****   /* We can immediately restart discovery */
 277:Source\LwIP\src\core\ipv4/dhcp.c ****   dhcp_discover(netif);
 278:Source\LwIP\src\core\ipv4/dhcp.c **** }
 279:Source\LwIP\src\core\ipv4/dhcp.c **** 
 280:Source\LwIP\src\core\ipv4/dhcp.c **** #if DHCP_DOES_ARP_CHECK
 281:Source\LwIP\src\core\ipv4/dhcp.c **** /**
 282:Source\LwIP\src\core\ipv4/dhcp.c ****  * Checks if the offered IP address is already in use.
 283:Source\LwIP\src\core\ipv4/dhcp.c ****  *
 284:Source\LwIP\src\core\ipv4/dhcp.c ****  * It does so by sending an ARP request for the offered address and
 285:Source\LwIP\src\core\ipv4/dhcp.c ****  * entering CHECKING state. If no ARP reply is received within a small
 286:Source\LwIP\src\core\ipv4/dhcp.c ****  * interval, the address is assumed to be free for use by us.
 287:Source\LwIP\src\core\ipv4/dhcp.c ****  *
 288:Source\LwIP\src\core\ipv4/dhcp.c ****  * @param netif the netif under DHCP control
 289:Source\LwIP\src\core\ipv4/dhcp.c ****  */
 290:Source\LwIP\src\core\ipv4/dhcp.c **** static void
 291:Source\LwIP\src\core\ipv4/dhcp.c **** dhcp_check(struct netif *netif)
 292:Source\LwIP\src\core\ipv4/dhcp.c **** {
 293:Source\LwIP\src\core\ipv4/dhcp.c ****   struct dhcp *dhcp = netif_dhcp_data(netif);
 294:Source\LwIP\src\core\ipv4/dhcp.c ****   err_t result;
 295:Source\LwIP\src\core\ipv4/dhcp.c ****   u16_t msecs;
 296:Source\LwIP\src\core\ipv4/dhcp.c ****   LWIP_DEBUGF(DHCP_DEBUG | LWIP_DBG_TRACE, ("dhcp_check(netif=%p) %c%c\n", (void *)netif, (s16_t)ne
 297:Source\LwIP\src\core\ipv4/dhcp.c ****     (s16_t)netif->name[1]));
 298:Source\LwIP\src\core\ipv4/dhcp.c ****   dhcp_set_state(dhcp, DHCP_STATE_CHECKING);
 299:Source\LwIP\src\core\ipv4/dhcp.c ****   /* create an ARP query for the offered IP address, expecting that no host
 300:Source\LwIP\src\core\ipv4/dhcp.c ****      responds, as the IP address should not be in use. */
 301:Source\LwIP\src\core\ipv4/dhcp.c ****   result = etharp_query(netif, &dhcp->offered_ip_addr, NULL);
 302:Source\LwIP\src\core\ipv4/dhcp.c ****   if (result != ERR_OK) {
 303:Source\LwIP\src\core\ipv4/dhcp.c ****     LWIP_DEBUGF(DHCP_DEBUG | LWIP_DBG_TRACE | LWIP_DBG_LEVEL_WARNING, ("dhcp_check: could not perfo
 304:Source\LwIP\src\core\ipv4/dhcp.c ****   }
 305:Source\LwIP\src\core\ipv4/dhcp.c ****   if (dhcp->tries < 255) {
 306:Source\LwIP\src\core\ipv4/dhcp.c ****     dhcp->tries++;
 307:Source\LwIP\src\core\ipv4/dhcp.c ****   }
 308:Source\LwIP\src\core\ipv4/dhcp.c ****   msecs = 500;
 309:Source\LwIP\src\core\ipv4/dhcp.c ****   dhcp->request_timeout = (msecs + DHCP_FINE_TIMER_MSECS - 1) / DHCP_FINE_TIMER_MSECS;
 310:Source\LwIP\src\core\ipv4/dhcp.c ****   LWIP_DEBUGF(DHCP_DEBUG | LWIP_DBG_TRACE | LWIP_DBG_STATE, ("dhcp_check(): set request timeout %"U
 311:Source\LwIP\src\core\ipv4/dhcp.c **** }
 312:Source\LwIP\src\core\ipv4/dhcp.c **** #endif /* DHCP_DOES_ARP_CHECK */
 313:Source\LwIP\src\core\ipv4/dhcp.c **** 
 314:Source\LwIP\src\core\ipv4/dhcp.c **** /**
 315:Source\LwIP\src\core\ipv4/dhcp.c ****  * Remember the configuration offered by a DHCP server.
 316:Source\LwIP\src\core\ipv4/dhcp.c ****  *
ARM GAS  C:\Users\Phuong\AppData\Local\Temp\ccmYXgep.s 			page 7


 317:Source\LwIP\src\core\ipv4/dhcp.c ****  * @param netif the netif under DHCP control
 318:Source\LwIP\src\core\ipv4/dhcp.c ****  */
 319:Source\LwIP\src\core\ipv4/dhcp.c **** static void
 320:Source\LwIP\src\core\ipv4/dhcp.c **** dhcp_handle_offer(struct netif *netif)
 321:Source\LwIP\src\core\ipv4/dhcp.c **** {
 322:Source\LwIP\src\core\ipv4/dhcp.c ****   struct dhcp *dhcp = netif_dhcp_data(netif);
 323:Source\LwIP\src\core\ipv4/dhcp.c **** 
 324:Source\LwIP\src\core\ipv4/dhcp.c ****   LWIP_DEBUGF(DHCP_DEBUG | LWIP_DBG_TRACE, ("dhcp_handle_offer(netif=%p) %c%c%"U16_F"\n",
 325:Source\LwIP\src\core\ipv4/dhcp.c ****     (void*)netif, netif->name[0], netif->name[1], (u16_t)netif->num));
 326:Source\LwIP\src\core\ipv4/dhcp.c ****   /* obtain the server address */
 327:Source\LwIP\src\core\ipv4/dhcp.c ****   if (dhcp_option_given(dhcp, DHCP_OPTION_IDX_SERVER_ID)) {
 328:Source\LwIP\src\core\ipv4/dhcp.c ****     ip_addr_set_ip4_u32(&dhcp->server_ip_addr, lwip_htonl(dhcp_get_option_value(dhcp, DHCP_OPTION_I
 329:Source\LwIP\src\core\ipv4/dhcp.c ****     LWIP_DEBUGF(DHCP_DEBUG | LWIP_DBG_STATE, ("dhcp_handle_offer(): server 0x%08"X32_F"\n",
 330:Source\LwIP\src\core\ipv4/dhcp.c ****       ip4_addr_get_u32(ip_2_ip4(&dhcp->server_ip_addr))));
 331:Source\LwIP\src\core\ipv4/dhcp.c ****     /* remember offered address */
 332:Source\LwIP\src\core\ipv4/dhcp.c ****     ip4_addr_copy(dhcp->offered_ip_addr, dhcp->msg_in->yiaddr);
 333:Source\LwIP\src\core\ipv4/dhcp.c ****     LWIP_DEBUGF(DHCP_DEBUG | LWIP_DBG_STATE, ("dhcp_handle_offer(): offer for 0x%08"X32_F"\n",
 334:Source\LwIP\src\core\ipv4/dhcp.c ****       ip4_addr_get_u32(&dhcp->offered_ip_addr)));
 335:Source\LwIP\src\core\ipv4/dhcp.c **** 
 336:Source\LwIP\src\core\ipv4/dhcp.c ****     dhcp_select(netif);
 337:Source\LwIP\src\core\ipv4/dhcp.c ****   } else {
 338:Source\LwIP\src\core\ipv4/dhcp.c ****     LWIP_DEBUGF(DHCP_DEBUG | LWIP_DBG_TRACE | LWIP_DBG_LEVEL_SERIOUS,
 339:Source\LwIP\src\core\ipv4/dhcp.c ****       ("dhcp_handle_offer(netif=%p) did not get server ID!\n", (void*)netif));
 340:Source\LwIP\src\core\ipv4/dhcp.c ****   }
 341:Source\LwIP\src\core\ipv4/dhcp.c **** }
 342:Source\LwIP\src\core\ipv4/dhcp.c **** 
 343:Source\LwIP\src\core\ipv4/dhcp.c **** /**
 344:Source\LwIP\src\core\ipv4/dhcp.c ****  * Select a DHCP server offer out of all offers.
 345:Source\LwIP\src\core\ipv4/dhcp.c ****  *
 346:Source\LwIP\src\core\ipv4/dhcp.c ****  * Simply select the first offer received.
 347:Source\LwIP\src\core\ipv4/dhcp.c ****  *
 348:Source\LwIP\src\core\ipv4/dhcp.c ****  * @param netif the netif under DHCP control
 349:Source\LwIP\src\core\ipv4/dhcp.c ****  * @return lwIP specific error (see error.h)
 350:Source\LwIP\src\core\ipv4/dhcp.c ****  */
 351:Source\LwIP\src\core\ipv4/dhcp.c **** static err_t
 352:Source\LwIP\src\core\ipv4/dhcp.c **** dhcp_select(struct netif *netif)
 353:Source\LwIP\src\core\ipv4/dhcp.c **** {
 354:Source\LwIP\src\core\ipv4/dhcp.c ****   struct dhcp *dhcp = netif_dhcp_data(netif);
 355:Source\LwIP\src\core\ipv4/dhcp.c ****   err_t result;
 356:Source\LwIP\src\core\ipv4/dhcp.c ****   u16_t msecs;
 357:Source\LwIP\src\core\ipv4/dhcp.c ****   u8_t i;
 358:Source\LwIP\src\core\ipv4/dhcp.c **** 
 359:Source\LwIP\src\core\ipv4/dhcp.c ****   LWIP_DEBUGF(DHCP_DEBUG | LWIP_DBG_TRACE, ("dhcp_select(netif=%p) %c%c%"U16_F"\n", (void*)netif, n
 360:Source\LwIP\src\core\ipv4/dhcp.c ****   dhcp_set_state(dhcp, DHCP_STATE_REQUESTING);
 361:Source\LwIP\src\core\ipv4/dhcp.c **** 
 362:Source\LwIP\src\core\ipv4/dhcp.c ****   /* create and initialize the DHCP message header */
 363:Source\LwIP\src\core\ipv4/dhcp.c ****   result = dhcp_create_msg(netif, dhcp, DHCP_REQUEST);
 364:Source\LwIP\src\core\ipv4/dhcp.c ****   if (result == ERR_OK) {
 365:Source\LwIP\src\core\ipv4/dhcp.c ****     dhcp_option(dhcp, DHCP_OPTION_MAX_MSG_SIZE, DHCP_OPTION_MAX_MSG_SIZE_LEN);
 366:Source\LwIP\src\core\ipv4/dhcp.c ****     dhcp_option_short(dhcp, DHCP_MAX_MSG_LEN(netif));
 367:Source\LwIP\src\core\ipv4/dhcp.c **** 
 368:Source\LwIP\src\core\ipv4/dhcp.c ****     /* MUST request the offered IP address */
 369:Source\LwIP\src\core\ipv4/dhcp.c ****     dhcp_option(dhcp, DHCP_OPTION_REQUESTED_IP, 4);
 370:Source\LwIP\src\core\ipv4/dhcp.c ****     dhcp_option_long(dhcp, lwip_ntohl(ip4_addr_get_u32(&dhcp->offered_ip_addr)));
 371:Source\LwIP\src\core\ipv4/dhcp.c **** 
 372:Source\LwIP\src\core\ipv4/dhcp.c ****     dhcp_option(dhcp, DHCP_OPTION_SERVER_ID, 4);
 373:Source\LwIP\src\core\ipv4/dhcp.c ****     dhcp_option_long(dhcp, lwip_ntohl(ip4_addr_get_u32(ip_2_ip4(&dhcp->server_ip_addr))));
ARM GAS  C:\Users\Phuong\AppData\Local\Temp\ccmYXgep.s 			page 8


 374:Source\LwIP\src\core\ipv4/dhcp.c **** 
 375:Source\LwIP\src\core\ipv4/dhcp.c ****     dhcp_option(dhcp, DHCP_OPTION_PARAMETER_REQUEST_LIST, LWIP_ARRAYSIZE(dhcp_discover_request_opti
 376:Source\LwIP\src\core\ipv4/dhcp.c ****     for (i = 0; i < LWIP_ARRAYSIZE(dhcp_discover_request_options); i++) {
 377:Source\LwIP\src\core\ipv4/dhcp.c ****       dhcp_option_byte(dhcp, dhcp_discover_request_options[i]);
 378:Source\LwIP\src\core\ipv4/dhcp.c ****     }
 379:Source\LwIP\src\core\ipv4/dhcp.c **** 
 380:Source\LwIP\src\core\ipv4/dhcp.c **** #if LWIP_NETIF_HOSTNAME
 381:Source\LwIP\src\core\ipv4/dhcp.c ****     dhcp_option_hostname(dhcp, netif);
 382:Source\LwIP\src\core\ipv4/dhcp.c **** #endif /* LWIP_NETIF_HOSTNAME */
 383:Source\LwIP\src\core\ipv4/dhcp.c **** 
 384:Source\LwIP\src\core\ipv4/dhcp.c ****     dhcp_option_trailer(dhcp);
 385:Source\LwIP\src\core\ipv4/dhcp.c ****     /* shrink the pbuf to the actual content length */
 386:Source\LwIP\src\core\ipv4/dhcp.c ****     pbuf_realloc(dhcp->p_out, sizeof(struct dhcp_msg) - DHCP_OPTIONS_LEN + dhcp->options_out_len);
 387:Source\LwIP\src\core\ipv4/dhcp.c **** 
 388:Source\LwIP\src\core\ipv4/dhcp.c ****     /* send broadcast to any DHCP server */
 389:Source\LwIP\src\core\ipv4/dhcp.c ****     udp_sendto_if_src(dhcp_pcb, dhcp->p_out, IP_ADDR_BROADCAST, DHCP_SERVER_PORT, netif, IP4_ADDR_A
 390:Source\LwIP\src\core\ipv4/dhcp.c ****     dhcp_delete_msg(dhcp);
 391:Source\LwIP\src\core\ipv4/dhcp.c ****     LWIP_DEBUGF(DHCP_DEBUG | LWIP_DBG_TRACE | LWIP_DBG_STATE, ("dhcp_select: REQUESTING\n"));
 392:Source\LwIP\src\core\ipv4/dhcp.c ****   } else {
 393:Source\LwIP\src\core\ipv4/dhcp.c ****     LWIP_DEBUGF(DHCP_DEBUG | LWIP_DBG_TRACE | LWIP_DBG_LEVEL_WARNING, ("dhcp_select: could not allo
 394:Source\LwIP\src\core\ipv4/dhcp.c ****   }
 395:Source\LwIP\src\core\ipv4/dhcp.c ****   if (dhcp->tries < 255) {
 396:Source\LwIP\src\core\ipv4/dhcp.c ****     dhcp->tries++;
 397:Source\LwIP\src\core\ipv4/dhcp.c ****   }
 398:Source\LwIP\src\core\ipv4/dhcp.c ****   msecs = (dhcp->tries < 6 ? 1 << dhcp->tries : 60) * 1000;
 399:Source\LwIP\src\core\ipv4/dhcp.c ****   dhcp->request_timeout = (msecs + DHCP_FINE_TIMER_MSECS - 1) / DHCP_FINE_TIMER_MSECS;
 400:Source\LwIP\src\core\ipv4/dhcp.c ****   LWIP_DEBUGF(DHCP_DEBUG | LWIP_DBG_STATE, ("dhcp_select(): set request timeout %"U16_F" msecs\n", 
 401:Source\LwIP\src\core\ipv4/dhcp.c ****   return result;
 402:Source\LwIP\src\core\ipv4/dhcp.c **** }
 403:Source\LwIP\src\core\ipv4/dhcp.c **** 
 404:Source\LwIP\src\core\ipv4/dhcp.c **** /**
 405:Source\LwIP\src\core\ipv4/dhcp.c ****  * The DHCP timer that checks for lease renewal/rebind timeouts.
 406:Source\LwIP\src\core\ipv4/dhcp.c ****  * Must be called once a minute (see @ref DHCP_COARSE_TIMER_SECS).
 407:Source\LwIP\src\core\ipv4/dhcp.c ****  */
 408:Source\LwIP\src\core\ipv4/dhcp.c **** void
 409:Source\LwIP\src\core\ipv4/dhcp.c **** dhcp_coarse_tmr(void)
 410:Source\LwIP\src\core\ipv4/dhcp.c **** {
 411:Source\LwIP\src\core\ipv4/dhcp.c ****   struct netif *netif = netif_list;
 412:Source\LwIP\src\core\ipv4/dhcp.c ****   LWIP_DEBUGF(DHCP_DEBUG | LWIP_DBG_TRACE, ("dhcp_coarse_tmr()\n"));
 413:Source\LwIP\src\core\ipv4/dhcp.c ****   /* iterate through all network interfaces */
 414:Source\LwIP\src\core\ipv4/dhcp.c ****   while (netif != NULL) {
 415:Source\LwIP\src\core\ipv4/dhcp.c ****     /* only act on DHCP configured interfaces */
 416:Source\LwIP\src\core\ipv4/dhcp.c ****     struct dhcp *dhcp = netif_dhcp_data(netif);
 417:Source\LwIP\src\core\ipv4/dhcp.c ****     if ((dhcp != NULL) && (dhcp->state != DHCP_STATE_OFF)) {
 418:Source\LwIP\src\core\ipv4/dhcp.c ****       /* compare lease time to expire timeout */
 419:Source\LwIP\src\core\ipv4/dhcp.c ****       if (dhcp->t0_timeout && (++dhcp->lease_used == dhcp->t0_timeout)) {
 420:Source\LwIP\src\core\ipv4/dhcp.c ****         LWIP_DEBUGF(DHCP_DEBUG | LWIP_DBG_TRACE | LWIP_DBG_STATE, ("dhcp_coarse_tmr(): t0 timeout\n
 421:Source\LwIP\src\core\ipv4/dhcp.c ****         /* this clients' lease time has expired */
 422:Source\LwIP\src\core\ipv4/dhcp.c ****         dhcp_release(netif);
 423:Source\LwIP\src\core\ipv4/dhcp.c ****         dhcp_discover(netif);
 424:Source\LwIP\src\core\ipv4/dhcp.c ****       /* timer is active (non zero), and triggers (zeroes) now? */
 425:Source\LwIP\src\core\ipv4/dhcp.c ****       } else if (dhcp->t2_rebind_time && (dhcp->t2_rebind_time-- == 1)) {
 426:Source\LwIP\src\core\ipv4/dhcp.c ****         LWIP_DEBUGF(DHCP_DEBUG | LWIP_DBG_TRACE | LWIP_DBG_STATE, ("dhcp_coarse_tmr(): t2 timeout\n
 427:Source\LwIP\src\core\ipv4/dhcp.c ****         /* this clients' rebind timeout triggered */
 428:Source\LwIP\src\core\ipv4/dhcp.c ****         dhcp_t2_timeout(netif);
 429:Source\LwIP\src\core\ipv4/dhcp.c ****       /* timer is active (non zero), and triggers (zeroes) now */
 430:Source\LwIP\src\core\ipv4/dhcp.c ****       } else if (dhcp->t1_renew_time && (dhcp->t1_renew_time-- == 1)) {
ARM GAS  C:\Users\Phuong\AppData\Local\Temp\ccmYXgep.s 			page 9


 431:Source\LwIP\src\core\ipv4/dhcp.c ****         LWIP_DEBUGF(DHCP_DEBUG | LWIP_DBG_TRACE | LWIP_DBG_STATE, ("dhcp_coarse_tmr(): t1 timeout\n
 432:Source\LwIP\src\core\ipv4/dhcp.c ****         /* this clients' renewal timeout triggered */
 433:Source\LwIP\src\core\ipv4/dhcp.c ****         dhcp_t1_timeout(netif);
 434:Source\LwIP\src\core\ipv4/dhcp.c ****       }
 435:Source\LwIP\src\core\ipv4/dhcp.c ****     }
 436:Source\LwIP\src\core\ipv4/dhcp.c ****     /* proceed to next netif */
 437:Source\LwIP\src\core\ipv4/dhcp.c ****     netif = netif->next;
 438:Source\LwIP\src\core\ipv4/dhcp.c ****   }
 439:Source\LwIP\src\core\ipv4/dhcp.c **** }
 440:Source\LwIP\src\core\ipv4/dhcp.c **** 
 441:Source\LwIP\src\core\ipv4/dhcp.c **** /**
 442:Source\LwIP\src\core\ipv4/dhcp.c ****  * DHCP transaction timeout handling (this function must be called every 500ms,
 443:Source\LwIP\src\core\ipv4/dhcp.c ****  * see @ref DHCP_FINE_TIMER_MSECS).
 444:Source\LwIP\src\core\ipv4/dhcp.c ****  *
 445:Source\LwIP\src\core\ipv4/dhcp.c ****  * A DHCP server is expected to respond within a short period of time.
 446:Source\LwIP\src\core\ipv4/dhcp.c ****  * This timer checks whether an outstanding DHCP request is timed out.
 447:Source\LwIP\src\core\ipv4/dhcp.c ****  */
 448:Source\LwIP\src\core\ipv4/dhcp.c **** void
 449:Source\LwIP\src\core\ipv4/dhcp.c **** dhcp_fine_tmr(void)
 450:Source\LwIP\src\core\ipv4/dhcp.c **** {
 451:Source\LwIP\src\core\ipv4/dhcp.c ****   struct netif *netif = netif_list;
 452:Source\LwIP\src\core\ipv4/dhcp.c ****   /* loop through netif's */
 453:Source\LwIP\src\core\ipv4/dhcp.c ****   while (netif != NULL) {
 454:Source\LwIP\src\core\ipv4/dhcp.c ****     struct dhcp *dhcp = netif_dhcp_data(netif);
 455:Source\LwIP\src\core\ipv4/dhcp.c ****     /* only act on DHCP configured interfaces */
 456:Source\LwIP\src\core\ipv4/dhcp.c ****     if (dhcp != NULL) {
 457:Source\LwIP\src\core\ipv4/dhcp.c ****       /* timer is active (non zero), and is about to trigger now */
 458:Source\LwIP\src\core\ipv4/dhcp.c ****       if (dhcp->request_timeout > 1) {
 459:Source\LwIP\src\core\ipv4/dhcp.c ****         dhcp->request_timeout--;
 460:Source\LwIP\src\core\ipv4/dhcp.c ****       }
 461:Source\LwIP\src\core\ipv4/dhcp.c ****       else if (dhcp->request_timeout == 1) {
 462:Source\LwIP\src\core\ipv4/dhcp.c ****         dhcp->request_timeout--;
 463:Source\LwIP\src\core\ipv4/dhcp.c ****         /* { netif->dhcp->request_timeout == 0 } */
 464:Source\LwIP\src\core\ipv4/dhcp.c ****         LWIP_DEBUGF(DHCP_DEBUG | LWIP_DBG_TRACE | LWIP_DBG_STATE, ("dhcp_fine_tmr(): request timeou
 465:Source\LwIP\src\core\ipv4/dhcp.c ****         /* this client's request timeout triggered */
 466:Source\LwIP\src\core\ipv4/dhcp.c ****         dhcp_timeout(netif);
 467:Source\LwIP\src\core\ipv4/dhcp.c ****       }
 468:Source\LwIP\src\core\ipv4/dhcp.c ****     }
 469:Source\LwIP\src\core\ipv4/dhcp.c ****     /* proceed to next network interface */
 470:Source\LwIP\src\core\ipv4/dhcp.c ****     netif = netif->next;
 471:Source\LwIP\src\core\ipv4/dhcp.c ****   }
 472:Source\LwIP\src\core\ipv4/dhcp.c **** }
 473:Source\LwIP\src\core\ipv4/dhcp.c **** 
 474:Source\LwIP\src\core\ipv4/dhcp.c **** /**
 475:Source\LwIP\src\core\ipv4/dhcp.c ****  * A DHCP negotiation transaction, or ARP request, has timed out.
 476:Source\LwIP\src\core\ipv4/dhcp.c ****  *
 477:Source\LwIP\src\core\ipv4/dhcp.c ****  * The timer that was started with the DHCP or ARP request has
 478:Source\LwIP\src\core\ipv4/dhcp.c ****  * timed out, indicating no response was received in time.
 479:Source\LwIP\src\core\ipv4/dhcp.c ****  *
 480:Source\LwIP\src\core\ipv4/dhcp.c ****  * @param netif the netif under DHCP control
 481:Source\LwIP\src\core\ipv4/dhcp.c ****  */
 482:Source\LwIP\src\core\ipv4/dhcp.c **** static void
 483:Source\LwIP\src\core\ipv4/dhcp.c **** dhcp_timeout(struct netif *netif)
 484:Source\LwIP\src\core\ipv4/dhcp.c **** {
 485:Source\LwIP\src\core\ipv4/dhcp.c ****   struct dhcp *dhcp = netif_dhcp_data(netif);
 486:Source\LwIP\src\core\ipv4/dhcp.c **** 
 487:Source\LwIP\src\core\ipv4/dhcp.c ****   LWIP_DEBUGF(DHCP_DEBUG | LWIP_DBG_TRACE, ("dhcp_timeout()\n"));
ARM GAS  C:\Users\Phuong\AppData\Local\Temp\ccmYXgep.s 			page 10


 488:Source\LwIP\src\core\ipv4/dhcp.c ****   /* back-off period has passed, or server selection timed out */
 489:Source\LwIP\src\core\ipv4/dhcp.c ****   if ((dhcp->state == DHCP_STATE_BACKING_OFF) || (dhcp->state == DHCP_STATE_SELECTING)) {
 490:Source\LwIP\src\core\ipv4/dhcp.c ****     LWIP_DEBUGF(DHCP_DEBUG | LWIP_DBG_TRACE, ("dhcp_timeout(): restarting discovery\n"));
 491:Source\LwIP\src\core\ipv4/dhcp.c ****     dhcp_discover(netif);
 492:Source\LwIP\src\core\ipv4/dhcp.c ****   /* receiving the requested lease timed out */
 493:Source\LwIP\src\core\ipv4/dhcp.c ****   } else if (dhcp->state == DHCP_STATE_REQUESTING) {
 494:Source\LwIP\src\core\ipv4/dhcp.c ****     LWIP_DEBUGF(DHCP_DEBUG | LWIP_DBG_TRACE | LWIP_DBG_STATE, ("dhcp_timeout(): REQUESTING, DHCP re
 495:Source\LwIP\src\core\ipv4/dhcp.c ****     if (dhcp->tries <= 5) {
 496:Source\LwIP\src\core\ipv4/dhcp.c ****       dhcp_select(netif);
 497:Source\LwIP\src\core\ipv4/dhcp.c ****     } else {
 498:Source\LwIP\src\core\ipv4/dhcp.c ****       LWIP_DEBUGF(DHCP_DEBUG | LWIP_DBG_TRACE | LWIP_DBG_STATE, ("dhcp_timeout(): REQUESTING, relea
 499:Source\LwIP\src\core\ipv4/dhcp.c ****       dhcp_release(netif);
 500:Source\LwIP\src\core\ipv4/dhcp.c ****       dhcp_discover(netif);
 501:Source\LwIP\src\core\ipv4/dhcp.c ****     }
 502:Source\LwIP\src\core\ipv4/dhcp.c **** #if DHCP_DOES_ARP_CHECK
 503:Source\LwIP\src\core\ipv4/dhcp.c ****   /* received no ARP reply for the offered address (which is good) */
 504:Source\LwIP\src\core\ipv4/dhcp.c ****   } else if (dhcp->state == DHCP_STATE_CHECKING) {
 505:Source\LwIP\src\core\ipv4/dhcp.c ****     LWIP_DEBUGF(DHCP_DEBUG | LWIP_DBG_TRACE | LWIP_DBG_STATE, ("dhcp_timeout(): CHECKING, ARP reque
 506:Source\LwIP\src\core\ipv4/dhcp.c ****     if (dhcp->tries <= 1) {
 507:Source\LwIP\src\core\ipv4/dhcp.c ****       dhcp_check(netif);
 508:Source\LwIP\src\core\ipv4/dhcp.c ****     /* no ARP replies on the offered address,
 509:Source\LwIP\src\core\ipv4/dhcp.c ****        looks like the IP address is indeed free */
 510:Source\LwIP\src\core\ipv4/dhcp.c ****     } else {
 511:Source\LwIP\src\core\ipv4/dhcp.c ****       /* bind the interface to the offered address */
 512:Source\LwIP\src\core\ipv4/dhcp.c ****       dhcp_bind(netif);
 513:Source\LwIP\src\core\ipv4/dhcp.c ****     }
 514:Source\LwIP\src\core\ipv4/dhcp.c **** #endif /* DHCP_DOES_ARP_CHECK */
 515:Source\LwIP\src\core\ipv4/dhcp.c ****   } else if (dhcp->state == DHCP_STATE_REBOOTING) {
 516:Source\LwIP\src\core\ipv4/dhcp.c ****     if (dhcp->tries < REBOOT_TRIES) {
 517:Source\LwIP\src\core\ipv4/dhcp.c ****       dhcp_reboot(netif);
 518:Source\LwIP\src\core\ipv4/dhcp.c ****     } else {
 519:Source\LwIP\src\core\ipv4/dhcp.c ****       dhcp_discover(netif);
 520:Source\LwIP\src\core\ipv4/dhcp.c ****     }
 521:Source\LwIP\src\core\ipv4/dhcp.c ****   }
 522:Source\LwIP\src\core\ipv4/dhcp.c **** }
 523:Source\LwIP\src\core\ipv4/dhcp.c **** 
 524:Source\LwIP\src\core\ipv4/dhcp.c **** /**
 525:Source\LwIP\src\core\ipv4/dhcp.c ****  * The renewal period has timed out.
 526:Source\LwIP\src\core\ipv4/dhcp.c ****  *
 527:Source\LwIP\src\core\ipv4/dhcp.c ****  * @param netif the netif under DHCP control
 528:Source\LwIP\src\core\ipv4/dhcp.c ****  */
 529:Source\LwIP\src\core\ipv4/dhcp.c **** static void
 530:Source\LwIP\src\core\ipv4/dhcp.c **** dhcp_t1_timeout(struct netif *netif)
 531:Source\LwIP\src\core\ipv4/dhcp.c **** {
 532:Source\LwIP\src\core\ipv4/dhcp.c ****   struct dhcp *dhcp = netif_dhcp_data(netif);
 533:Source\LwIP\src\core\ipv4/dhcp.c **** 
 534:Source\LwIP\src\core\ipv4/dhcp.c ****   LWIP_DEBUGF(DHCP_DEBUG | LWIP_DBG_STATE, ("dhcp_t1_timeout()\n"));
 535:Source\LwIP\src\core\ipv4/dhcp.c ****   if ((dhcp->state == DHCP_STATE_REQUESTING) || (dhcp->state == DHCP_STATE_BOUND) ||
 536:Source\LwIP\src\core\ipv4/dhcp.c ****       (dhcp->state == DHCP_STATE_RENEWING)) {
 537:Source\LwIP\src\core\ipv4/dhcp.c ****     /* just retry to renew - note that the rebind timer (t2) will
 538:Source\LwIP\src\core\ipv4/dhcp.c ****      * eventually time-out if renew tries fail. */
 539:Source\LwIP\src\core\ipv4/dhcp.c ****     LWIP_DEBUGF(DHCP_DEBUG | LWIP_DBG_TRACE | LWIP_DBG_STATE,
 540:Source\LwIP\src\core\ipv4/dhcp.c ****                 ("dhcp_t1_timeout(): must renew\n"));
 541:Source\LwIP\src\core\ipv4/dhcp.c ****     /* This slightly different to RFC2131: DHCPREQUEST will be sent from state
 542:Source\LwIP\src\core\ipv4/dhcp.c ****        DHCP_STATE_RENEWING, not DHCP_STATE_BOUND */
 543:Source\LwIP\src\core\ipv4/dhcp.c ****     dhcp_renew(netif);
 544:Source\LwIP\src\core\ipv4/dhcp.c ****     /* Calculate next timeout */
ARM GAS  C:\Users\Phuong\AppData\Local\Temp\ccmYXgep.s 			page 11


 545:Source\LwIP\src\core\ipv4/dhcp.c ****     if (((dhcp->t2_timeout - dhcp->lease_used) / 2) >= ((60 + DHCP_COARSE_TIMER_SECS / 2) / DHCP_CO
 546:Source\LwIP\src\core\ipv4/dhcp.c ****     {
 547:Source\LwIP\src\core\ipv4/dhcp.c ****        dhcp->t1_renew_time = ((dhcp->t2_timeout - dhcp->lease_used) / 2);
 548:Source\LwIP\src\core\ipv4/dhcp.c ****     }
 549:Source\LwIP\src\core\ipv4/dhcp.c ****   }
 550:Source\LwIP\src\core\ipv4/dhcp.c **** }
 551:Source\LwIP\src\core\ipv4/dhcp.c **** 
 552:Source\LwIP\src\core\ipv4/dhcp.c **** /**
 553:Source\LwIP\src\core\ipv4/dhcp.c ****  * The rebind period has timed out.
 554:Source\LwIP\src\core\ipv4/dhcp.c ****  *
 555:Source\LwIP\src\core\ipv4/dhcp.c ****  * @param netif the netif under DHCP control
 556:Source\LwIP\src\core\ipv4/dhcp.c ****  */
 557:Source\LwIP\src\core\ipv4/dhcp.c **** static void
 558:Source\LwIP\src\core\ipv4/dhcp.c **** dhcp_t2_timeout(struct netif *netif)
 559:Source\LwIP\src\core\ipv4/dhcp.c **** {
 560:Source\LwIP\src\core\ipv4/dhcp.c ****   struct dhcp *dhcp = netif_dhcp_data(netif);
 561:Source\LwIP\src\core\ipv4/dhcp.c **** 
 562:Source\LwIP\src\core\ipv4/dhcp.c ****   LWIP_DEBUGF(DHCP_DEBUG | LWIP_DBG_TRACE | LWIP_DBG_STATE, ("dhcp_t2_timeout()\n"));
 563:Source\LwIP\src\core\ipv4/dhcp.c ****   if ((dhcp->state == DHCP_STATE_REQUESTING) || (dhcp->state == DHCP_STATE_BOUND) ||
 564:Source\LwIP\src\core\ipv4/dhcp.c ****       (dhcp->state == DHCP_STATE_RENEWING) || (dhcp->state == DHCP_STATE_REBINDING)) {
 565:Source\LwIP\src\core\ipv4/dhcp.c ****     /* just retry to rebind */
 566:Source\LwIP\src\core\ipv4/dhcp.c ****     LWIP_DEBUGF(DHCP_DEBUG | LWIP_DBG_TRACE | LWIP_DBG_STATE,
 567:Source\LwIP\src\core\ipv4/dhcp.c ****                 ("dhcp_t2_timeout(): must rebind\n"));
 568:Source\LwIP\src\core\ipv4/dhcp.c ****     /* This slightly different to RFC2131: DHCPREQUEST will be sent from state
 569:Source\LwIP\src\core\ipv4/dhcp.c ****        DHCP_STATE_REBINDING, not DHCP_STATE_BOUND */
 570:Source\LwIP\src\core\ipv4/dhcp.c ****     dhcp_rebind(netif);
 571:Source\LwIP\src\core\ipv4/dhcp.c ****     /* Calculate next timeout */
 572:Source\LwIP\src\core\ipv4/dhcp.c ****     if (((dhcp->t0_timeout - dhcp->lease_used) / 2) >= ((60 + DHCP_COARSE_TIMER_SECS / 2) / DHCP_CO
 573:Source\LwIP\src\core\ipv4/dhcp.c ****     {
 574:Source\LwIP\src\core\ipv4/dhcp.c ****        dhcp->t2_rebind_time = ((dhcp->t0_timeout - dhcp->lease_used) / 2);
 575:Source\LwIP\src\core\ipv4/dhcp.c ****     }
 576:Source\LwIP\src\core\ipv4/dhcp.c ****   }
 577:Source\LwIP\src\core\ipv4/dhcp.c **** }
 578:Source\LwIP\src\core\ipv4/dhcp.c **** 
 579:Source\LwIP\src\core\ipv4/dhcp.c **** /**
 580:Source\LwIP\src\core\ipv4/dhcp.c ****  * Handle a DHCP ACK packet
 581:Source\LwIP\src\core\ipv4/dhcp.c ****  *
 582:Source\LwIP\src\core\ipv4/dhcp.c ****  * @param netif the netif under DHCP control
 583:Source\LwIP\src\core\ipv4/dhcp.c ****  */
 584:Source\LwIP\src\core\ipv4/dhcp.c **** static void
 585:Source\LwIP\src\core\ipv4/dhcp.c **** dhcp_handle_ack(struct netif *netif)
 586:Source\LwIP\src\core\ipv4/dhcp.c **** {
 587:Source\LwIP\src\core\ipv4/dhcp.c ****   struct dhcp *dhcp = netif_dhcp_data(netif);
 588:Source\LwIP\src\core\ipv4/dhcp.c **** 
 589:Source\LwIP\src\core\ipv4/dhcp.c **** #if LWIP_DHCP_PROVIDE_DNS_SERVERS || LWIP_DHCP_GET_NTP_SRV
 590:Source\LwIP\src\core\ipv4/dhcp.c ****   u8_t n;
 591:Source\LwIP\src\core\ipv4/dhcp.c **** #endif /* LWIP_DHCP_PROVIDE_DNS_SERVERS || LWIP_DHCP_GET_NTP_SRV */
 592:Source\LwIP\src\core\ipv4/dhcp.c **** #if LWIP_DHCP_GET_NTP_SRV
 593:Source\LwIP\src\core\ipv4/dhcp.c ****   ip4_addr_t ntp_server_addrs[LWIP_DHCP_MAX_NTP_SERVERS];
 594:Source\LwIP\src\core\ipv4/dhcp.c **** #endif
 595:Source\LwIP\src\core\ipv4/dhcp.c **** 
 596:Source\LwIP\src\core\ipv4/dhcp.c ****   /* clear options we might not get from the ACK */
 597:Source\LwIP\src\core\ipv4/dhcp.c ****   ip4_addr_set_zero(&dhcp->offered_sn_mask);
 598:Source\LwIP\src\core\ipv4/dhcp.c ****   ip4_addr_set_zero(&dhcp->offered_gw_addr);
 599:Source\LwIP\src\core\ipv4/dhcp.c **** #if LWIP_DHCP_BOOTP_FILE
 600:Source\LwIP\src\core\ipv4/dhcp.c ****   ip4_addr_set_zero(&dhcp->offered_si_addr);
 601:Source\LwIP\src\core\ipv4/dhcp.c **** #endif /* LWIP_DHCP_BOOTP_FILE */
ARM GAS  C:\Users\Phuong\AppData\Local\Temp\ccmYXgep.s 			page 12


 602:Source\LwIP\src\core\ipv4/dhcp.c **** 
 603:Source\LwIP\src\core\ipv4/dhcp.c ****   /* lease time given? */
 604:Source\LwIP\src\core\ipv4/dhcp.c ****   if (dhcp_option_given(dhcp, DHCP_OPTION_IDX_LEASE_TIME)) {
 605:Source\LwIP\src\core\ipv4/dhcp.c ****     /* remember offered lease time */
 606:Source\LwIP\src\core\ipv4/dhcp.c ****     dhcp->offered_t0_lease = dhcp_get_option_value(dhcp, DHCP_OPTION_IDX_LEASE_TIME);
 607:Source\LwIP\src\core\ipv4/dhcp.c ****   }
 608:Source\LwIP\src\core\ipv4/dhcp.c ****   /* renewal period given? */
 609:Source\LwIP\src\core\ipv4/dhcp.c ****   if (dhcp_option_given(dhcp, DHCP_OPTION_IDX_T1)) {
 610:Source\LwIP\src\core\ipv4/dhcp.c ****     /* remember given renewal period */
 611:Source\LwIP\src\core\ipv4/dhcp.c ****     dhcp->offered_t1_renew = dhcp_get_option_value(dhcp, DHCP_OPTION_IDX_T1);
 612:Source\LwIP\src\core\ipv4/dhcp.c ****   } else {
 613:Source\LwIP\src\core\ipv4/dhcp.c ****     /* calculate safe periods for renewal */
 614:Source\LwIP\src\core\ipv4/dhcp.c ****     dhcp->offered_t1_renew = dhcp->offered_t0_lease / 2;
 615:Source\LwIP\src\core\ipv4/dhcp.c ****   }
 616:Source\LwIP\src\core\ipv4/dhcp.c **** 
 617:Source\LwIP\src\core\ipv4/dhcp.c ****   /* renewal period given? */
 618:Source\LwIP\src\core\ipv4/dhcp.c ****   if (dhcp_option_given(dhcp, DHCP_OPTION_IDX_T2)) {
 619:Source\LwIP\src\core\ipv4/dhcp.c ****     /* remember given rebind period */
 620:Source\LwIP\src\core\ipv4/dhcp.c ****     dhcp->offered_t2_rebind = dhcp_get_option_value(dhcp, DHCP_OPTION_IDX_T2);
 621:Source\LwIP\src\core\ipv4/dhcp.c ****   } else {
 622:Source\LwIP\src\core\ipv4/dhcp.c ****     /* calculate safe periods for rebinding (offered_t0_lease * 0.875 -> 87.5%)*/
 623:Source\LwIP\src\core\ipv4/dhcp.c ****     dhcp->offered_t2_rebind = (dhcp->offered_t0_lease * 7U) / 8U;
 624:Source\LwIP\src\core\ipv4/dhcp.c ****   }
 625:Source\LwIP\src\core\ipv4/dhcp.c **** 
 626:Source\LwIP\src\core\ipv4/dhcp.c ****   /* (y)our internet address */
 627:Source\LwIP\src\core\ipv4/dhcp.c ****   ip4_addr_copy(dhcp->offered_ip_addr, dhcp->msg_in->yiaddr);
 628:Source\LwIP\src\core\ipv4/dhcp.c **** 
 629:Source\LwIP\src\core\ipv4/dhcp.c **** #if LWIP_DHCP_BOOTP_FILE
 630:Source\LwIP\src\core\ipv4/dhcp.c ****   /* copy boot server address,
 631:Source\LwIP\src\core\ipv4/dhcp.c ****      boot file name copied in dhcp_parse_reply if not overloaded */
 632:Source\LwIP\src\core\ipv4/dhcp.c ****   ip4_addr_copy(dhcp->offered_si_addr, dhcp->msg_in->siaddr);
 633:Source\LwIP\src\core\ipv4/dhcp.c **** #endif /* LWIP_DHCP_BOOTP_FILE */
 634:Source\LwIP\src\core\ipv4/dhcp.c **** 
 635:Source\LwIP\src\core\ipv4/dhcp.c ****   /* subnet mask given? */
 636:Source\LwIP\src\core\ipv4/dhcp.c ****   if (dhcp_option_given(dhcp, DHCP_OPTION_IDX_SUBNET_MASK)) {
 637:Source\LwIP\src\core\ipv4/dhcp.c ****     /* remember given subnet mask */
 638:Source\LwIP\src\core\ipv4/dhcp.c ****     ip4_addr_set_u32(&dhcp->offered_sn_mask, lwip_htonl(dhcp_get_option_value(dhcp, DHCP_OPTION_IDX
 639:Source\LwIP\src\core\ipv4/dhcp.c ****     dhcp->subnet_mask_given = 1;
 640:Source\LwIP\src\core\ipv4/dhcp.c ****   } else {
 641:Source\LwIP\src\core\ipv4/dhcp.c ****     dhcp->subnet_mask_given = 0;
 642:Source\LwIP\src\core\ipv4/dhcp.c ****   }
 643:Source\LwIP\src\core\ipv4/dhcp.c **** 
 644:Source\LwIP\src\core\ipv4/dhcp.c ****   /* gateway router */
 645:Source\LwIP\src\core\ipv4/dhcp.c ****   if (dhcp_option_given(dhcp, DHCP_OPTION_IDX_ROUTER)) {
 646:Source\LwIP\src\core\ipv4/dhcp.c ****     ip4_addr_set_u32(&dhcp->offered_gw_addr, lwip_htonl(dhcp_get_option_value(dhcp, DHCP_OPTION_IDX
 647:Source\LwIP\src\core\ipv4/dhcp.c ****   }
 648:Source\LwIP\src\core\ipv4/dhcp.c **** 
 649:Source\LwIP\src\core\ipv4/dhcp.c **** #if LWIP_DHCP_GET_NTP_SRV
 650:Source\LwIP\src\core\ipv4/dhcp.c ****   /* NTP servers */
 651:Source\LwIP\src\core\ipv4/dhcp.c ****   for (n = 0; (n < LWIP_DHCP_MAX_NTP_SERVERS) && dhcp_option_given(dhcp, DHCP_OPTION_IDX_NTP_SERVER
 652:Source\LwIP\src\core\ipv4/dhcp.c ****     ip4_addr_set_u32(&ntp_server_addrs[n], lwip_htonl(dhcp_get_option_value(dhcp, DHCP_OPTION_IDX_N
 653:Source\LwIP\src\core\ipv4/dhcp.c ****   }
 654:Source\LwIP\src\core\ipv4/dhcp.c ****   dhcp_set_ntp_servers(n, ntp_server_addrs);
 655:Source\LwIP\src\core\ipv4/dhcp.c **** #endif /* LWIP_DHCP_GET_NTP_SRV */
 656:Source\LwIP\src\core\ipv4/dhcp.c **** 
 657:Source\LwIP\src\core\ipv4/dhcp.c **** #if LWIP_DHCP_PROVIDE_DNS_SERVERS
 658:Source\LwIP\src\core\ipv4/dhcp.c ****   /* DNS servers */
ARM GAS  C:\Users\Phuong\AppData\Local\Temp\ccmYXgep.s 			page 13


 659:Source\LwIP\src\core\ipv4/dhcp.c ****   for (n = 0; (n < LWIP_DHCP_PROVIDE_DNS_SERVERS) && dhcp_option_given(dhcp, DHCP_OPTION_IDX_DNS_SE
 660:Source\LwIP\src\core\ipv4/dhcp.c ****     ip_addr_t dns_addr;
 661:Source\LwIP\src\core\ipv4/dhcp.c ****     ip_addr_set_ip4_u32(&dns_addr, lwip_htonl(dhcp_get_option_value(dhcp, DHCP_OPTION_IDX_DNS_SERVE
 662:Source\LwIP\src\core\ipv4/dhcp.c ****     dns_setserver(n, &dns_addr);
 663:Source\LwIP\src\core\ipv4/dhcp.c ****   }
 664:Source\LwIP\src\core\ipv4/dhcp.c **** #endif /* LWIP_DHCP_PROVIDE_DNS_SERVERS */
 665:Source\LwIP\src\core\ipv4/dhcp.c **** }
 666:Source\LwIP\src\core\ipv4/dhcp.c **** 
 667:Source\LwIP\src\core\ipv4/dhcp.c **** /**
 668:Source\LwIP\src\core\ipv4/dhcp.c ****  * @ingroup dhcp4
 669:Source\LwIP\src\core\ipv4/dhcp.c ****  * Set a statically allocated struct dhcp to work with.
 670:Source\LwIP\src\core\ipv4/dhcp.c ****  * Using this prevents dhcp_start to allocate it using mem_malloc.
 671:Source\LwIP\src\core\ipv4/dhcp.c ****  *
 672:Source\LwIP\src\core\ipv4/dhcp.c ****  * @param netif the netif for which to set the struct dhcp
 673:Source\LwIP\src\core\ipv4/dhcp.c ****  * @param dhcp (uninitialised) dhcp struct allocated by the application
 674:Source\LwIP\src\core\ipv4/dhcp.c ****  */
 675:Source\LwIP\src\core\ipv4/dhcp.c **** void
 676:Source\LwIP\src\core\ipv4/dhcp.c **** dhcp_set_struct(struct netif *netif, struct dhcp *dhcp)
 677:Source\LwIP\src\core\ipv4/dhcp.c **** {
 678:Source\LwIP\src\core\ipv4/dhcp.c ****   LWIP_ASSERT("netif != NULL", netif != NULL);
 679:Source\LwIP\src\core\ipv4/dhcp.c ****   LWIP_ASSERT("dhcp != NULL", dhcp != NULL);
 680:Source\LwIP\src\core\ipv4/dhcp.c ****   LWIP_ASSERT("netif already has a struct dhcp set", netif_dhcp_data(netif) == NULL);
 681:Source\LwIP\src\core\ipv4/dhcp.c **** 
 682:Source\LwIP\src\core\ipv4/dhcp.c ****   /* clear data structure */
 683:Source\LwIP\src\core\ipv4/dhcp.c ****   memset(dhcp, 0, sizeof(struct dhcp));
 684:Source\LwIP\src\core\ipv4/dhcp.c ****   /* dhcp_set_state(&dhcp, DHCP_STATE_OFF); */
 685:Source\LwIP\src\core\ipv4/dhcp.c ****   netif_set_client_data(netif, LWIP_NETIF_CLIENT_DATA_INDEX_DHCP, dhcp);
 686:Source\LwIP\src\core\ipv4/dhcp.c **** }
 687:Source\LwIP\src\core\ipv4/dhcp.c **** 
 688:Source\LwIP\src\core\ipv4/dhcp.c **** /**
 689:Source\LwIP\src\core\ipv4/dhcp.c ****  * @ingroup dhcp4
 690:Source\LwIP\src\core\ipv4/dhcp.c ****  * Removes a struct dhcp from a netif.
 691:Source\LwIP\src\core\ipv4/dhcp.c ****  *
 692:Source\LwIP\src\core\ipv4/dhcp.c ****  * ATTENTION: Only use this when not using dhcp_set_struct() to allocate the
 693:Source\LwIP\src\core\ipv4/dhcp.c ****  *            struct dhcp since the memory is passed back to the heap.
 694:Source\LwIP\src\core\ipv4/dhcp.c ****  *
 695:Source\LwIP\src\core\ipv4/dhcp.c ****  * @param netif the netif from which to remove the struct dhcp
 696:Source\LwIP\src\core\ipv4/dhcp.c ****  */
 697:Source\LwIP\src\core\ipv4/dhcp.c **** void dhcp_cleanup(struct netif *netif)
 698:Source\LwIP\src\core\ipv4/dhcp.c **** {
 699:Source\LwIP\src\core\ipv4/dhcp.c ****   LWIP_ASSERT("netif != NULL", netif != NULL);
 700:Source\LwIP\src\core\ipv4/dhcp.c **** 
 701:Source\LwIP\src\core\ipv4/dhcp.c ****   if (netif_dhcp_data(netif) != NULL) {
 702:Source\LwIP\src\core\ipv4/dhcp.c ****     mem_free(netif_dhcp_data(netif));
 703:Source\LwIP\src\core\ipv4/dhcp.c ****     netif_set_client_data(netif, LWIP_NETIF_CLIENT_DATA_INDEX_DHCP, NULL);
 704:Source\LwIP\src\core\ipv4/dhcp.c ****   }
 705:Source\LwIP\src\core\ipv4/dhcp.c **** }
 706:Source\LwIP\src\core\ipv4/dhcp.c **** 
 707:Source\LwIP\src\core\ipv4/dhcp.c **** /**
 708:Source\LwIP\src\core\ipv4/dhcp.c ****  * @ingroup dhcp4
 709:Source\LwIP\src\core\ipv4/dhcp.c ****  * Start DHCP negotiation for a network interface.
 710:Source\LwIP\src\core\ipv4/dhcp.c ****  *
 711:Source\LwIP\src\core\ipv4/dhcp.c ****  * If no DHCP client instance was attached to this interface,
 712:Source\LwIP\src\core\ipv4/dhcp.c ****  * a new client is created first. If a DHCP client instance
 713:Source\LwIP\src\core\ipv4/dhcp.c ****  * was already present, it restarts negotiation.
 714:Source\LwIP\src\core\ipv4/dhcp.c ****  *
 715:Source\LwIP\src\core\ipv4/dhcp.c ****  * @param netif The lwIP network interface
ARM GAS  C:\Users\Phuong\AppData\Local\Temp\ccmYXgep.s 			page 14


 716:Source\LwIP\src\core\ipv4/dhcp.c ****  * @return lwIP error code
 717:Source\LwIP\src\core\ipv4/dhcp.c ****  * - ERR_OK - No error
 718:Source\LwIP\src\core\ipv4/dhcp.c ****  * - ERR_MEM - Out of memory
 719:Source\LwIP\src\core\ipv4/dhcp.c ****  */
 720:Source\LwIP\src\core\ipv4/dhcp.c **** err_t
 721:Source\LwIP\src\core\ipv4/dhcp.c **** dhcp_start(struct netif *netif)
 722:Source\LwIP\src\core\ipv4/dhcp.c **** {
 723:Source\LwIP\src\core\ipv4/dhcp.c ****   struct dhcp *dhcp;
 724:Source\LwIP\src\core\ipv4/dhcp.c ****   err_t result;
 725:Source\LwIP\src\core\ipv4/dhcp.c **** 
 726:Source\LwIP\src\core\ipv4/dhcp.c ****   LWIP_ERROR("netif != NULL", (netif != NULL), return ERR_ARG;);
 727:Source\LwIP\src\core\ipv4/dhcp.c ****   LWIP_ERROR("netif is not up, old style port?", netif_is_up(netif), return ERR_ARG;);
 728:Source\LwIP\src\core\ipv4/dhcp.c ****   dhcp = netif_dhcp_data(netif);
 729:Source\LwIP\src\core\ipv4/dhcp.c ****   LWIP_DEBUGF(DHCP_DEBUG | LWIP_DBG_TRACE | LWIP_DBG_STATE, ("dhcp_start(netif=%p) %c%c%"U16_F"\n",
 730:Source\LwIP\src\core\ipv4/dhcp.c **** 
 731:Source\LwIP\src\core\ipv4/dhcp.c ****   /* check MTU of the netif */
 732:Source\LwIP\src\core\ipv4/dhcp.c ****   if (netif->mtu < DHCP_MAX_MSG_LEN_MIN_REQUIRED) {
 733:Source\LwIP\src\core\ipv4/dhcp.c ****     LWIP_DEBUGF(DHCP_DEBUG | LWIP_DBG_TRACE, ("dhcp_start(): Cannot use this netif with DHCP: MTU i
 734:Source\LwIP\src\core\ipv4/dhcp.c ****     return ERR_MEM;
 735:Source\LwIP\src\core\ipv4/dhcp.c ****   }
 736:Source\LwIP\src\core\ipv4/dhcp.c **** 
 737:Source\LwIP\src\core\ipv4/dhcp.c ****   /* no DHCP client attached yet? */
 738:Source\LwIP\src\core\ipv4/dhcp.c ****   if (dhcp == NULL) {
 739:Source\LwIP\src\core\ipv4/dhcp.c ****     LWIP_DEBUGF(DHCP_DEBUG | LWIP_DBG_TRACE, ("dhcp_start(): mallocing new DHCP client\n"));
 740:Source\LwIP\src\core\ipv4/dhcp.c ****     dhcp = (struct dhcp *)mem_malloc(sizeof(struct dhcp));
 741:Source\LwIP\src\core\ipv4/dhcp.c ****     if (dhcp == NULL) {
 742:Source\LwIP\src\core\ipv4/dhcp.c ****       LWIP_DEBUGF(DHCP_DEBUG | LWIP_DBG_TRACE, ("dhcp_start(): could not allocate dhcp\n"));
 743:Source\LwIP\src\core\ipv4/dhcp.c ****       return ERR_MEM;
 744:Source\LwIP\src\core\ipv4/dhcp.c ****     }
 745:Source\LwIP\src\core\ipv4/dhcp.c **** 
 746:Source\LwIP\src\core\ipv4/dhcp.c ****     /* store this dhcp client in the netif */
 747:Source\LwIP\src\core\ipv4/dhcp.c ****     netif_set_client_data(netif, LWIP_NETIF_CLIENT_DATA_INDEX_DHCP, dhcp);
 748:Source\LwIP\src\core\ipv4/dhcp.c ****     LWIP_DEBUGF(DHCP_DEBUG | LWIP_DBG_TRACE, ("dhcp_start(): allocated dhcp"));
 749:Source\LwIP\src\core\ipv4/dhcp.c ****   /* already has DHCP client attached */
 750:Source\LwIP\src\core\ipv4/dhcp.c ****   } else {
 751:Source\LwIP\src\core\ipv4/dhcp.c ****     LWIP_DEBUGF(DHCP_DEBUG | LWIP_DBG_TRACE | LWIP_DBG_STATE, ("dhcp_start(): restarting DHCP confi
 752:Source\LwIP\src\core\ipv4/dhcp.c ****     LWIP_ASSERT("pbuf p_out wasn't freed", dhcp->p_out == NULL);
 753:Source\LwIP\src\core\ipv4/dhcp.c ****     LWIP_ASSERT("reply wasn't freed", dhcp->msg_in == NULL );
 754:Source\LwIP\src\core\ipv4/dhcp.c **** 
 755:Source\LwIP\src\core\ipv4/dhcp.c ****     if (dhcp->pcb_allocated != 0) {
 756:Source\LwIP\src\core\ipv4/dhcp.c ****       dhcp_dec_pcb_refcount(); /* free DHCP PCB if not needed any more */
 757:Source\LwIP\src\core\ipv4/dhcp.c ****     }
 758:Source\LwIP\src\core\ipv4/dhcp.c ****     /* dhcp is cleared below, no need to reset flag*/
 759:Source\LwIP\src\core\ipv4/dhcp.c ****   }
 760:Source\LwIP\src\core\ipv4/dhcp.c **** 
 761:Source\LwIP\src\core\ipv4/dhcp.c ****   /* clear data structure */
 762:Source\LwIP\src\core\ipv4/dhcp.c ****   memset(dhcp, 0, sizeof(struct dhcp));
 763:Source\LwIP\src\core\ipv4/dhcp.c ****   /* dhcp_set_state(&dhcp, DHCP_STATE_OFF); */
 764:Source\LwIP\src\core\ipv4/dhcp.c **** 
 765:Source\LwIP\src\core\ipv4/dhcp.c ****   LWIP_DEBUGF(DHCP_DEBUG | LWIP_DBG_TRACE, ("dhcp_start(): starting DHCP configuration\n"));
 766:Source\LwIP\src\core\ipv4/dhcp.c **** 
 767:Source\LwIP\src\core\ipv4/dhcp.c ****   if (dhcp_inc_pcb_refcount() != ERR_OK) { /* ensure DHCP PCB is allocated */
 768:Source\LwIP\src\core\ipv4/dhcp.c ****     return ERR_MEM;
 769:Source\LwIP\src\core\ipv4/dhcp.c ****   }
 770:Source\LwIP\src\core\ipv4/dhcp.c ****   dhcp->pcb_allocated = 1;
 771:Source\LwIP\src\core\ipv4/dhcp.c **** 
 772:Source\LwIP\src\core\ipv4/dhcp.c **** #if LWIP_DHCP_CHECK_LINK_UP
ARM GAS  C:\Users\Phuong\AppData\Local\Temp\ccmYXgep.s 			page 15


 773:Source\LwIP\src\core\ipv4/dhcp.c ****   if (!netif_is_link_up(netif)) {
 774:Source\LwIP\src\core\ipv4/dhcp.c ****     /* set state INIT and wait for dhcp_network_changed() to call dhcp_discover() */
 775:Source\LwIP\src\core\ipv4/dhcp.c ****     dhcp_set_state(dhcp, DHCP_STATE_INIT);
 776:Source\LwIP\src\core\ipv4/dhcp.c ****     return ERR_OK;
 777:Source\LwIP\src\core\ipv4/dhcp.c ****   }
 778:Source\LwIP\src\core\ipv4/dhcp.c **** #endif /* LWIP_DHCP_CHECK_LINK_UP */
 779:Source\LwIP\src\core\ipv4/dhcp.c **** 
 780:Source\LwIP\src\core\ipv4/dhcp.c **** 
 781:Source\LwIP\src\core\ipv4/dhcp.c ****   /* (re)start the DHCP negotiation */
 782:Source\LwIP\src\core\ipv4/dhcp.c ****   result = dhcp_discover(netif);
 783:Source\LwIP\src\core\ipv4/dhcp.c ****   if (result != ERR_OK) {
 784:Source\LwIP\src\core\ipv4/dhcp.c ****     /* free resources allocated above */
 785:Source\LwIP\src\core\ipv4/dhcp.c ****     dhcp_stop(netif);
 786:Source\LwIP\src\core\ipv4/dhcp.c ****     return ERR_MEM;
 787:Source\LwIP\src\core\ipv4/dhcp.c ****   }
 788:Source\LwIP\src\core\ipv4/dhcp.c ****   return result;
 789:Source\LwIP\src\core\ipv4/dhcp.c **** }
 790:Source\LwIP\src\core\ipv4/dhcp.c **** 
 791:Source\LwIP\src\core\ipv4/dhcp.c **** /**
 792:Source\LwIP\src\core\ipv4/dhcp.c ****  * @ingroup dhcp4
 793:Source\LwIP\src\core\ipv4/dhcp.c ****  * Inform a DHCP server of our manual configuration.
 794:Source\LwIP\src\core\ipv4/dhcp.c ****  *
 795:Source\LwIP\src\core\ipv4/dhcp.c ****  * This informs DHCP servers of our fixed IP address configuration
 796:Source\LwIP\src\core\ipv4/dhcp.c ****  * by sending an INFORM message. It does not involve DHCP address
 797:Source\LwIP\src\core\ipv4/dhcp.c ****  * configuration, it is just here to be nice to the network.
 798:Source\LwIP\src\core\ipv4/dhcp.c ****  *
 799:Source\LwIP\src\core\ipv4/dhcp.c ****  * @param netif The lwIP network interface
 800:Source\LwIP\src\core\ipv4/dhcp.c ****  */
 801:Source\LwIP\src\core\ipv4/dhcp.c **** void
 802:Source\LwIP\src\core\ipv4/dhcp.c **** dhcp_inform(struct netif *netif)
 803:Source\LwIP\src\core\ipv4/dhcp.c **** {
 804:Source\LwIP\src\core\ipv4/dhcp.c ****   struct dhcp dhcp;
 805:Source\LwIP\src\core\ipv4/dhcp.c ****   err_t result = ERR_OK;
 806:Source\LwIP\src\core\ipv4/dhcp.c **** 
 807:Source\LwIP\src\core\ipv4/dhcp.c ****   LWIP_ERROR("netif != NULL", (netif != NULL), return;);
 808:Source\LwIP\src\core\ipv4/dhcp.c **** 
 809:Source\LwIP\src\core\ipv4/dhcp.c ****   if (dhcp_inc_pcb_refcount() != ERR_OK) { /* ensure DHCP PCB is allocated */
 810:Source\LwIP\src\core\ipv4/dhcp.c ****     return;
 811:Source\LwIP\src\core\ipv4/dhcp.c ****   }
 812:Source\LwIP\src\core\ipv4/dhcp.c **** 
 813:Source\LwIP\src\core\ipv4/dhcp.c ****   memset(&dhcp, 0, sizeof(struct dhcp));
 814:Source\LwIP\src\core\ipv4/dhcp.c ****   dhcp_set_state(&dhcp, DHCP_STATE_INFORMING);
 815:Source\LwIP\src\core\ipv4/dhcp.c **** 
 816:Source\LwIP\src\core\ipv4/dhcp.c ****   /* create and initialize the DHCP message header */
 817:Source\LwIP\src\core\ipv4/dhcp.c ****   result = dhcp_create_msg(netif, &dhcp, DHCP_INFORM);
 818:Source\LwIP\src\core\ipv4/dhcp.c ****   if (result == ERR_OK) {
 819:Source\LwIP\src\core\ipv4/dhcp.c ****     dhcp_option(&dhcp, DHCP_OPTION_MAX_MSG_SIZE, DHCP_OPTION_MAX_MSG_SIZE_LEN);
 820:Source\LwIP\src\core\ipv4/dhcp.c ****     dhcp_option_short(&dhcp, DHCP_MAX_MSG_LEN(netif));
 821:Source\LwIP\src\core\ipv4/dhcp.c **** 
 822:Source\LwIP\src\core\ipv4/dhcp.c ****     dhcp_option_trailer(&dhcp);
 823:Source\LwIP\src\core\ipv4/dhcp.c **** 
 824:Source\LwIP\src\core\ipv4/dhcp.c ****     pbuf_realloc(dhcp.p_out, sizeof(struct dhcp_msg) - DHCP_OPTIONS_LEN + dhcp.options_out_len);
 825:Source\LwIP\src\core\ipv4/dhcp.c **** 
 826:Source\LwIP\src\core\ipv4/dhcp.c ****     LWIP_DEBUGF(DHCP_DEBUG | LWIP_DBG_TRACE | LWIP_DBG_STATE, ("dhcp_inform: INFORMING\n"));
 827:Source\LwIP\src\core\ipv4/dhcp.c **** 
 828:Source\LwIP\src\core\ipv4/dhcp.c ****     udp_sendto_if(dhcp_pcb, dhcp.p_out, IP_ADDR_BROADCAST, DHCP_SERVER_PORT, netif);
 829:Source\LwIP\src\core\ipv4/dhcp.c **** 
ARM GAS  C:\Users\Phuong\AppData\Local\Temp\ccmYXgep.s 			page 16


 830:Source\LwIP\src\core\ipv4/dhcp.c ****     dhcp_delete_msg(&dhcp);
 831:Source\LwIP\src\core\ipv4/dhcp.c ****   } else {
 832:Source\LwIP\src\core\ipv4/dhcp.c ****     LWIP_DEBUGF(DHCP_DEBUG | LWIP_DBG_TRACE | LWIP_DBG_LEVEL_SERIOUS, ("dhcp_inform: could not allo
 833:Source\LwIP\src\core\ipv4/dhcp.c ****   }
 834:Source\LwIP\src\core\ipv4/dhcp.c **** 
 835:Source\LwIP\src\core\ipv4/dhcp.c ****   dhcp_dec_pcb_refcount(); /* delete DHCP PCB if not needed any more */
 836:Source\LwIP\src\core\ipv4/dhcp.c **** }
 837:Source\LwIP\src\core\ipv4/dhcp.c **** 
 838:Source\LwIP\src\core\ipv4/dhcp.c **** /** Handle a possible change in the network configuration.
 839:Source\LwIP\src\core\ipv4/dhcp.c ****  *
 840:Source\LwIP\src\core\ipv4/dhcp.c ****  * This enters the REBOOTING state to verify that the currently bound
 841:Source\LwIP\src\core\ipv4/dhcp.c ****  * address is still valid.
 842:Source\LwIP\src\core\ipv4/dhcp.c ****  */
 843:Source\LwIP\src\core\ipv4/dhcp.c **** void
 844:Source\LwIP\src\core\ipv4/dhcp.c **** dhcp_network_changed(struct netif *netif)
 845:Source\LwIP\src\core\ipv4/dhcp.c **** {
 846:Source\LwIP\src\core\ipv4/dhcp.c ****   struct dhcp *dhcp = netif_dhcp_data(netif);
 847:Source\LwIP\src\core\ipv4/dhcp.c **** 
 848:Source\LwIP\src\core\ipv4/dhcp.c ****   if (!dhcp)
 849:Source\LwIP\src\core\ipv4/dhcp.c ****     return;
 850:Source\LwIP\src\core\ipv4/dhcp.c ****   switch (dhcp->state) {
 851:Source\LwIP\src\core\ipv4/dhcp.c ****   case DHCP_STATE_REBINDING:
 852:Source\LwIP\src\core\ipv4/dhcp.c ****   case DHCP_STATE_RENEWING:
 853:Source\LwIP\src\core\ipv4/dhcp.c ****   case DHCP_STATE_BOUND:
 854:Source\LwIP\src\core\ipv4/dhcp.c ****   case DHCP_STATE_REBOOTING:
 855:Source\LwIP\src\core\ipv4/dhcp.c ****     dhcp->tries = 0;
 856:Source\LwIP\src\core\ipv4/dhcp.c ****     dhcp_reboot(netif);
 857:Source\LwIP\src\core\ipv4/dhcp.c ****     break;
 858:Source\LwIP\src\core\ipv4/dhcp.c ****   case DHCP_STATE_OFF:
 859:Source\LwIP\src\core\ipv4/dhcp.c ****     /* stay off */
 860:Source\LwIP\src\core\ipv4/dhcp.c ****     break;
 861:Source\LwIP\src\core\ipv4/dhcp.c ****   default:
 862:Source\LwIP\src\core\ipv4/dhcp.c ****     /* INIT/REQUESTING/CHECKING/BACKING_OFF restart with new 'rid' because the
 863:Source\LwIP\src\core\ipv4/dhcp.c ****        state changes, SELECTING: continue with current 'rid' as we stay in the
 864:Source\LwIP\src\core\ipv4/dhcp.c ****        same state */
 865:Source\LwIP\src\core\ipv4/dhcp.c **** #if LWIP_DHCP_AUTOIP_COOP
 866:Source\LwIP\src\core\ipv4/dhcp.c ****     if (dhcp->autoip_coop_state == DHCP_AUTOIP_COOP_STATE_ON) {
 867:Source\LwIP\src\core\ipv4/dhcp.c ****       autoip_stop(netif);
 868:Source\LwIP\src\core\ipv4/dhcp.c ****       dhcp->autoip_coop_state = DHCP_AUTOIP_COOP_STATE_OFF;
 869:Source\LwIP\src\core\ipv4/dhcp.c ****     }
 870:Source\LwIP\src\core\ipv4/dhcp.c **** #endif /* LWIP_DHCP_AUTOIP_COOP */
 871:Source\LwIP\src\core\ipv4/dhcp.c ****     /* ensure we start with short timeouts, even if already discovering */
 872:Source\LwIP\src\core\ipv4/dhcp.c ****     dhcp->tries = 0;
 873:Source\LwIP\src\core\ipv4/dhcp.c ****     dhcp_discover(netif);
 874:Source\LwIP\src\core\ipv4/dhcp.c ****     break;
 875:Source\LwIP\src\core\ipv4/dhcp.c ****   }
 876:Source\LwIP\src\core\ipv4/dhcp.c **** }
 877:Source\LwIP\src\core\ipv4/dhcp.c **** 
 878:Source\LwIP\src\core\ipv4/dhcp.c **** #if DHCP_DOES_ARP_CHECK
 879:Source\LwIP\src\core\ipv4/dhcp.c **** /**
 880:Source\LwIP\src\core\ipv4/dhcp.c ****  * Match an ARP reply with the offered IP address:
 881:Source\LwIP\src\core\ipv4/dhcp.c ****  * check whether the offered IP address is not in use using ARP
 882:Source\LwIP\src\core\ipv4/dhcp.c ****  *
 883:Source\LwIP\src\core\ipv4/dhcp.c ****  * @param netif the network interface on which the reply was received
 884:Source\LwIP\src\core\ipv4/dhcp.c ****  * @param addr The IP address we received a reply from
 885:Source\LwIP\src\core\ipv4/dhcp.c ****  */
 886:Source\LwIP\src\core\ipv4/dhcp.c **** void
ARM GAS  C:\Users\Phuong\AppData\Local\Temp\ccmYXgep.s 			page 17


 887:Source\LwIP\src\core\ipv4/dhcp.c **** dhcp_arp_reply(struct netif *netif, const ip4_addr_t *addr)
 888:Source\LwIP\src\core\ipv4/dhcp.c **** {
 889:Source\LwIP\src\core\ipv4/dhcp.c ****   struct dhcp *dhcp;
 890:Source\LwIP\src\core\ipv4/dhcp.c **** 
 891:Source\LwIP\src\core\ipv4/dhcp.c ****   LWIP_ERROR("netif != NULL", (netif != NULL), return;);
 892:Source\LwIP\src\core\ipv4/dhcp.c ****   dhcp = netif_dhcp_data(netif);
 893:Source\LwIP\src\core\ipv4/dhcp.c ****   LWIP_DEBUGF(DHCP_DEBUG | LWIP_DBG_TRACE, ("dhcp_arp_reply()\n"));
 894:Source\LwIP\src\core\ipv4/dhcp.c ****   /* is a DHCP client doing an ARP check? */
 895:Source\LwIP\src\core\ipv4/dhcp.c ****   if ((dhcp != NULL) && (dhcp->state == DHCP_STATE_CHECKING)) {
 896:Source\LwIP\src\core\ipv4/dhcp.c ****     LWIP_DEBUGF(DHCP_DEBUG | LWIP_DBG_TRACE | LWIP_DBG_STATE, ("dhcp_arp_reply(): CHECKING, arp rep
 897:Source\LwIP\src\core\ipv4/dhcp.c ****       ip4_addr_get_u32(addr)));
 898:Source\LwIP\src\core\ipv4/dhcp.c ****     /* did a host respond with the address we
 899:Source\LwIP\src\core\ipv4/dhcp.c ****        were offered by the DHCP server? */
 900:Source\LwIP\src\core\ipv4/dhcp.c ****     if (ip4_addr_cmp(addr, &dhcp->offered_ip_addr)) {
 901:Source\LwIP\src\core\ipv4/dhcp.c ****       /* we will not accept the offered address */
 902:Source\LwIP\src\core\ipv4/dhcp.c ****       LWIP_DEBUGF(DHCP_DEBUG | LWIP_DBG_TRACE | LWIP_DBG_STATE | LWIP_DBG_LEVEL_WARNING,
 903:Source\LwIP\src\core\ipv4/dhcp.c ****         ("dhcp_arp_reply(): arp reply matched with offered address, declining\n"));
 904:Source\LwIP\src\core\ipv4/dhcp.c ****       dhcp_decline(netif);
 905:Source\LwIP\src\core\ipv4/dhcp.c ****     }
 906:Source\LwIP\src\core\ipv4/dhcp.c ****   }
 907:Source\LwIP\src\core\ipv4/dhcp.c **** }
 908:Source\LwIP\src\core\ipv4/dhcp.c **** 
 909:Source\LwIP\src\core\ipv4/dhcp.c **** /**
 910:Source\LwIP\src\core\ipv4/dhcp.c ****  * Decline an offered lease.
 911:Source\LwIP\src\core\ipv4/dhcp.c ****  *
 912:Source\LwIP\src\core\ipv4/dhcp.c ****  * Tell the DHCP server we do not accept the offered address.
 913:Source\LwIP\src\core\ipv4/dhcp.c ****  * One reason to decline the lease is when we find out the address
 914:Source\LwIP\src\core\ipv4/dhcp.c ****  * is already in use by another host (through ARP).
 915:Source\LwIP\src\core\ipv4/dhcp.c ****  *
 916:Source\LwIP\src\core\ipv4/dhcp.c ****  * @param netif the netif under DHCP control
 917:Source\LwIP\src\core\ipv4/dhcp.c ****  */
 918:Source\LwIP\src\core\ipv4/dhcp.c **** static err_t
 919:Source\LwIP\src\core\ipv4/dhcp.c **** dhcp_decline(struct netif *netif)
 920:Source\LwIP\src\core\ipv4/dhcp.c **** {
 921:Source\LwIP\src\core\ipv4/dhcp.c ****   struct dhcp *dhcp = netif_dhcp_data(netif);
 922:Source\LwIP\src\core\ipv4/dhcp.c ****   err_t result = ERR_OK;
 923:Source\LwIP\src\core\ipv4/dhcp.c ****   u16_t msecs;
 924:Source\LwIP\src\core\ipv4/dhcp.c ****   LWIP_DEBUGF(DHCP_DEBUG | LWIP_DBG_TRACE, ("dhcp_decline()\n"));
 925:Source\LwIP\src\core\ipv4/dhcp.c ****   dhcp_set_state(dhcp, DHCP_STATE_BACKING_OFF);
 926:Source\LwIP\src\core\ipv4/dhcp.c ****   /* create and initialize the DHCP message header */
 927:Source\LwIP\src\core\ipv4/dhcp.c ****   result = dhcp_create_msg(netif, dhcp, DHCP_DECLINE);
 928:Source\LwIP\src\core\ipv4/dhcp.c ****   if (result == ERR_OK) {
 929:Source\LwIP\src\core\ipv4/dhcp.c ****     dhcp_option(dhcp, DHCP_OPTION_REQUESTED_IP, 4);
 930:Source\LwIP\src\core\ipv4/dhcp.c ****     dhcp_option_long(dhcp, lwip_ntohl(ip4_addr_get_u32(&dhcp->offered_ip_addr)));
 931:Source\LwIP\src\core\ipv4/dhcp.c **** 
 932:Source\LwIP\src\core\ipv4/dhcp.c ****     dhcp_option_trailer(dhcp);
 933:Source\LwIP\src\core\ipv4/dhcp.c ****     /* resize pbuf to reflect true size of options */
 934:Source\LwIP\src\core\ipv4/dhcp.c ****     pbuf_realloc(dhcp->p_out, sizeof(struct dhcp_msg) - DHCP_OPTIONS_LEN + dhcp->options_out_len);
 935:Source\LwIP\src\core\ipv4/dhcp.c **** 
 936:Source\LwIP\src\core\ipv4/dhcp.c ****     /* per section 4.4.4, broadcast DECLINE messages */
 937:Source\LwIP\src\core\ipv4/dhcp.c ****     udp_sendto_if_src(dhcp_pcb, dhcp->p_out, IP_ADDR_BROADCAST, DHCP_SERVER_PORT, netif, IP4_ADDR_A
 938:Source\LwIP\src\core\ipv4/dhcp.c ****     dhcp_delete_msg(dhcp);
 939:Source\LwIP\src\core\ipv4/dhcp.c ****     LWIP_DEBUGF(DHCP_DEBUG | LWIP_DBG_TRACE | LWIP_DBG_STATE, ("dhcp_decline: BACKING OFF\n"));
 940:Source\LwIP\src\core\ipv4/dhcp.c ****   } else {
 941:Source\LwIP\src\core\ipv4/dhcp.c ****     LWIP_DEBUGF(DHCP_DEBUG | LWIP_DBG_TRACE | LWIP_DBG_LEVEL_SERIOUS,
 942:Source\LwIP\src\core\ipv4/dhcp.c ****       ("dhcp_decline: could not allocate DHCP request\n"));
 943:Source\LwIP\src\core\ipv4/dhcp.c ****   }
ARM GAS  C:\Users\Phuong\AppData\Local\Temp\ccmYXgep.s 			page 18


 944:Source\LwIP\src\core\ipv4/dhcp.c ****   if (dhcp->tries < 255) {
 945:Source\LwIP\src\core\ipv4/dhcp.c ****     dhcp->tries++;
 946:Source\LwIP\src\core\ipv4/dhcp.c ****   }
 947:Source\LwIP\src\core\ipv4/dhcp.c ****   msecs = 10*1000;
 948:Source\LwIP\src\core\ipv4/dhcp.c ****   dhcp->request_timeout = (msecs + DHCP_FINE_TIMER_MSECS - 1) / DHCP_FINE_TIMER_MSECS;
 949:Source\LwIP\src\core\ipv4/dhcp.c ****   LWIP_DEBUGF(DHCP_DEBUG | LWIP_DBG_TRACE, ("dhcp_decline(): set request timeout %"U16_F" msecs\n",
 950:Source\LwIP\src\core\ipv4/dhcp.c ****   return result;
 951:Source\LwIP\src\core\ipv4/dhcp.c **** }
 952:Source\LwIP\src\core\ipv4/dhcp.c **** #endif /* DHCP_DOES_ARP_CHECK */
 953:Source\LwIP\src\core\ipv4/dhcp.c **** 
 954:Source\LwIP\src\core\ipv4/dhcp.c **** 
 955:Source\LwIP\src\core\ipv4/dhcp.c **** /**
 956:Source\LwIP\src\core\ipv4/dhcp.c ****  * Start the DHCP process, discover a DHCP server.
 957:Source\LwIP\src\core\ipv4/dhcp.c ****  *
 958:Source\LwIP\src\core\ipv4/dhcp.c ****  * @param netif the netif under DHCP control
 959:Source\LwIP\src\core\ipv4/dhcp.c ****  */
 960:Source\LwIP\src\core\ipv4/dhcp.c **** static err_t
 961:Source\LwIP\src\core\ipv4/dhcp.c **** dhcp_discover(struct netif *netif)
 962:Source\LwIP\src\core\ipv4/dhcp.c **** {
 963:Source\LwIP\src\core\ipv4/dhcp.c ****   struct dhcp *dhcp = netif_dhcp_data(netif);
 964:Source\LwIP\src\core\ipv4/dhcp.c ****   err_t result = ERR_OK;
 965:Source\LwIP\src\core\ipv4/dhcp.c ****   u16_t msecs;
 966:Source\LwIP\src\core\ipv4/dhcp.c ****   u8_t i;
 967:Source\LwIP\src\core\ipv4/dhcp.c ****   LWIP_DEBUGF(DHCP_DEBUG | LWIP_DBG_TRACE, ("dhcp_discover()\n"));
 968:Source\LwIP\src\core\ipv4/dhcp.c ****   ip4_addr_set_any(&dhcp->offered_ip_addr);
 969:Source\LwIP\src\core\ipv4/dhcp.c ****   dhcp_set_state(dhcp, DHCP_STATE_SELECTING);
 970:Source\LwIP\src\core\ipv4/dhcp.c ****   /* create and initialize the DHCP message header */
 971:Source\LwIP\src\core\ipv4/dhcp.c ****   result = dhcp_create_msg(netif, dhcp, DHCP_DISCOVER);
 972:Source\LwIP\src\core\ipv4/dhcp.c ****   if (result == ERR_OK) {
 973:Source\LwIP\src\core\ipv4/dhcp.c ****     LWIP_DEBUGF(DHCP_DEBUG | LWIP_DBG_TRACE, ("dhcp_discover: making request\n"));
 974:Source\LwIP\src\core\ipv4/dhcp.c **** 
 975:Source\LwIP\src\core\ipv4/dhcp.c ****     dhcp_option(dhcp, DHCP_OPTION_MAX_MSG_SIZE, DHCP_OPTION_MAX_MSG_SIZE_LEN);
 976:Source\LwIP\src\core\ipv4/dhcp.c ****     dhcp_option_short(dhcp, DHCP_MAX_MSG_LEN(netif));
 977:Source\LwIP\src\core\ipv4/dhcp.c **** 
 978:Source\LwIP\src\core\ipv4/dhcp.c ****     dhcp_option(dhcp, DHCP_OPTION_PARAMETER_REQUEST_LIST, LWIP_ARRAYSIZE(dhcp_discover_request_opti
 979:Source\LwIP\src\core\ipv4/dhcp.c ****     for (i = 0; i < LWIP_ARRAYSIZE(dhcp_discover_request_options); i++) {
 980:Source\LwIP\src\core\ipv4/dhcp.c ****       dhcp_option_byte(dhcp, dhcp_discover_request_options[i]);
 981:Source\LwIP\src\core\ipv4/dhcp.c ****     }
 982:Source\LwIP\src\core\ipv4/dhcp.c ****     dhcp_option_trailer(dhcp);
 983:Source\LwIP\src\core\ipv4/dhcp.c **** 
 984:Source\LwIP\src\core\ipv4/dhcp.c ****     LWIP_DEBUGF(DHCP_DEBUG | LWIP_DBG_TRACE, ("dhcp_discover: realloc()ing\n"));
 985:Source\LwIP\src\core\ipv4/dhcp.c ****     pbuf_realloc(dhcp->p_out, sizeof(struct dhcp_msg) - DHCP_OPTIONS_LEN + dhcp->options_out_len);
 986:Source\LwIP\src\core\ipv4/dhcp.c **** 
 987:Source\LwIP\src\core\ipv4/dhcp.c ****     LWIP_DEBUGF(DHCP_DEBUG | LWIP_DBG_TRACE, ("dhcp_discover: sendto(DISCOVER, IP_ADDR_BROADCAST, D
 988:Source\LwIP\src\core\ipv4/dhcp.c ****     udp_sendto_if_src(dhcp_pcb, dhcp->p_out, IP_ADDR_BROADCAST, DHCP_SERVER_PORT, netif, IP4_ADDR_A
 989:Source\LwIP\src\core\ipv4/dhcp.c ****     LWIP_DEBUGF(DHCP_DEBUG | LWIP_DBG_TRACE, ("dhcp_discover: deleting()ing\n"));
 990:Source\LwIP\src\core\ipv4/dhcp.c ****     dhcp_delete_msg(dhcp);
 991:Source\LwIP\src\core\ipv4/dhcp.c ****     LWIP_DEBUGF(DHCP_DEBUG | LWIP_DBG_TRACE | LWIP_DBG_STATE, ("dhcp_discover: SELECTING\n"));
 992:Source\LwIP\src\core\ipv4/dhcp.c ****   } else {
 993:Source\LwIP\src\core\ipv4/dhcp.c ****     LWIP_DEBUGF(DHCP_DEBUG | LWIP_DBG_TRACE | LWIP_DBG_LEVEL_SERIOUS, ("dhcp_discover: could not al
 994:Source\LwIP\src\core\ipv4/dhcp.c ****   }
 995:Source\LwIP\src\core\ipv4/dhcp.c ****   if (dhcp->tries < 255) {
 996:Source\LwIP\src\core\ipv4/dhcp.c ****     dhcp->tries++;
 997:Source\LwIP\src\core\ipv4/dhcp.c ****   }
 998:Source\LwIP\src\core\ipv4/dhcp.c **** #if LWIP_DHCP_AUTOIP_COOP
 999:Source\LwIP\src\core\ipv4/dhcp.c ****   if (dhcp->tries >= LWIP_DHCP_AUTOIP_COOP_TRIES && dhcp->autoip_coop_state == DHCP_AUTOIP_COOP_STA
1000:Source\LwIP\src\core\ipv4/dhcp.c ****     dhcp->autoip_coop_state = DHCP_AUTOIP_COOP_STATE_ON;
ARM GAS  C:\Users\Phuong\AppData\Local\Temp\ccmYXgep.s 			page 19


1001:Source\LwIP\src\core\ipv4/dhcp.c ****     autoip_start(netif);
1002:Source\LwIP\src\core\ipv4/dhcp.c ****   }
1003:Source\LwIP\src\core\ipv4/dhcp.c **** #endif /* LWIP_DHCP_AUTOIP_COOP */
1004:Source\LwIP\src\core\ipv4/dhcp.c ****   msecs = (dhcp->tries < 6 ? 1 << dhcp->tries : 60) * 1000;
1005:Source\LwIP\src\core\ipv4/dhcp.c ****   dhcp->request_timeout = (msecs + DHCP_FINE_TIMER_MSECS - 1) / DHCP_FINE_TIMER_MSECS;
1006:Source\LwIP\src\core\ipv4/dhcp.c ****   LWIP_DEBUGF(DHCP_DEBUG | LWIP_DBG_TRACE | LWIP_DBG_STATE, ("dhcp_discover(): set request timeout 
1007:Source\LwIP\src\core\ipv4/dhcp.c ****   return result;
1008:Source\LwIP\src\core\ipv4/dhcp.c **** }
1009:Source\LwIP\src\core\ipv4/dhcp.c **** 
1010:Source\LwIP\src\core\ipv4/dhcp.c **** 
1011:Source\LwIP\src\core\ipv4/dhcp.c **** /**
1012:Source\LwIP\src\core\ipv4/dhcp.c ****  * Bind the interface to the offered IP address.
1013:Source\LwIP\src\core\ipv4/dhcp.c ****  *
1014:Source\LwIP\src\core\ipv4/dhcp.c ****  * @param netif network interface to bind to the offered address
1015:Source\LwIP\src\core\ipv4/dhcp.c ****  */
1016:Source\LwIP\src\core\ipv4/dhcp.c **** static void
1017:Source\LwIP\src\core\ipv4/dhcp.c **** dhcp_bind(struct netif *netif)
1018:Source\LwIP\src\core\ipv4/dhcp.c **** {
1019:Source\LwIP\src\core\ipv4/dhcp.c ****   u32_t timeout;
1020:Source\LwIP\src\core\ipv4/dhcp.c ****   struct dhcp *dhcp;
1021:Source\LwIP\src\core\ipv4/dhcp.c ****   ip4_addr_t sn_mask, gw_addr;
1022:Source\LwIP\src\core\ipv4/dhcp.c ****   LWIP_ERROR("dhcp_bind: netif != NULL", (netif != NULL), return;);
1023:Source\LwIP\src\core\ipv4/dhcp.c ****   dhcp = netif_dhcp_data(netif);
1024:Source\LwIP\src\core\ipv4/dhcp.c ****   LWIP_ERROR("dhcp_bind: dhcp != NULL", (dhcp != NULL), return;);
1025:Source\LwIP\src\core\ipv4/dhcp.c ****   LWIP_DEBUGF(DHCP_DEBUG | LWIP_DBG_TRACE, ("dhcp_bind(netif=%p) %c%c%"U16_F"\n", (void*)netif, net
1026:Source\LwIP\src\core\ipv4/dhcp.c **** 
1027:Source\LwIP\src\core\ipv4/dhcp.c ****   /* reset time used of lease */
1028:Source\LwIP\src\core\ipv4/dhcp.c ****   dhcp->lease_used = 0;
1029:Source\LwIP\src\core\ipv4/dhcp.c **** 
1030:Source\LwIP\src\core\ipv4/dhcp.c ****   if (dhcp->offered_t0_lease != 0xffffffffUL) {
1031:Source\LwIP\src\core\ipv4/dhcp.c ****      /* set renewal period timer */
1032:Source\LwIP\src\core\ipv4/dhcp.c ****      LWIP_DEBUGF(DHCP_DEBUG | LWIP_DBG_TRACE, ("dhcp_bind(): t0 renewal timer %"U32_F" secs\n", dhc
1033:Source\LwIP\src\core\ipv4/dhcp.c ****      timeout = (dhcp->offered_t0_lease + DHCP_COARSE_TIMER_SECS / 2) / DHCP_COARSE_TIMER_SECS;
1034:Source\LwIP\src\core\ipv4/dhcp.c ****      if (timeout > 0xffff) {
1035:Source\LwIP\src\core\ipv4/dhcp.c ****        timeout = 0xffff;
1036:Source\LwIP\src\core\ipv4/dhcp.c ****      }
1037:Source\LwIP\src\core\ipv4/dhcp.c ****      dhcp->t0_timeout = (u16_t)timeout;
1038:Source\LwIP\src\core\ipv4/dhcp.c ****      if (dhcp->t0_timeout == 0) {
1039:Source\LwIP\src\core\ipv4/dhcp.c ****        dhcp->t0_timeout = 1;
1040:Source\LwIP\src\core\ipv4/dhcp.c ****      }
1041:Source\LwIP\src\core\ipv4/dhcp.c ****      LWIP_DEBUGF(DHCP_DEBUG | LWIP_DBG_TRACE | LWIP_DBG_STATE, ("dhcp_bind(): set request timeout %
1042:Source\LwIP\src\core\ipv4/dhcp.c ****   }
1043:Source\LwIP\src\core\ipv4/dhcp.c **** 
1044:Source\LwIP\src\core\ipv4/dhcp.c ****   /* temporary DHCP lease? */
1045:Source\LwIP\src\core\ipv4/dhcp.c ****   if (dhcp->offered_t1_renew != 0xffffffffUL) {
1046:Source\LwIP\src\core\ipv4/dhcp.c ****     /* set renewal period timer */
1047:Source\LwIP\src\core\ipv4/dhcp.c ****     LWIP_DEBUGF(DHCP_DEBUG | LWIP_DBG_TRACE, ("dhcp_bind(): t1 renewal timer %"U32_F" secs\n", dhcp
1048:Source\LwIP\src\core\ipv4/dhcp.c ****     timeout = (dhcp->offered_t1_renew + DHCP_COARSE_TIMER_SECS / 2) / DHCP_COARSE_TIMER_SECS;
1049:Source\LwIP\src\core\ipv4/dhcp.c ****     if (timeout > 0xffff) {
1050:Source\LwIP\src\core\ipv4/dhcp.c ****       timeout = 0xffff;
1051:Source\LwIP\src\core\ipv4/dhcp.c ****     }
1052:Source\LwIP\src\core\ipv4/dhcp.c ****     dhcp->t1_timeout = (u16_t)timeout;
1053:Source\LwIP\src\core\ipv4/dhcp.c ****     if (dhcp->t1_timeout == 0) {
1054:Source\LwIP\src\core\ipv4/dhcp.c ****       dhcp->t1_timeout = 1;
1055:Source\LwIP\src\core\ipv4/dhcp.c ****     }
1056:Source\LwIP\src\core\ipv4/dhcp.c ****     LWIP_DEBUGF(DHCP_DEBUG | LWIP_DBG_TRACE | LWIP_DBG_STATE, ("dhcp_bind(): set request timeout %"
1057:Source\LwIP\src\core\ipv4/dhcp.c ****     dhcp->t1_renew_time = dhcp->t1_timeout;
ARM GAS  C:\Users\Phuong\AppData\Local\Temp\ccmYXgep.s 			page 20


1058:Source\LwIP\src\core\ipv4/dhcp.c ****   }
1059:Source\LwIP\src\core\ipv4/dhcp.c ****   /* set renewal period timer */
1060:Source\LwIP\src\core\ipv4/dhcp.c ****   if (dhcp->offered_t2_rebind != 0xffffffffUL) {
1061:Source\LwIP\src\core\ipv4/dhcp.c ****     LWIP_DEBUGF(DHCP_DEBUG | LWIP_DBG_TRACE, ("dhcp_bind(): t2 rebind timer %"U32_F" secs\n", dhcp-
1062:Source\LwIP\src\core\ipv4/dhcp.c ****     timeout = (dhcp->offered_t2_rebind + DHCP_COARSE_TIMER_SECS / 2) / DHCP_COARSE_TIMER_SECS;
1063:Source\LwIP\src\core\ipv4/dhcp.c ****     if (timeout > 0xffff) {
1064:Source\LwIP\src\core\ipv4/dhcp.c ****       timeout = 0xffff;
1065:Source\LwIP\src\core\ipv4/dhcp.c ****     }
1066:Source\LwIP\src\core\ipv4/dhcp.c ****     dhcp->t2_timeout = (u16_t)timeout;
1067:Source\LwIP\src\core\ipv4/dhcp.c ****     if (dhcp->t2_timeout == 0) {
1068:Source\LwIP\src\core\ipv4/dhcp.c ****       dhcp->t2_timeout = 1;
1069:Source\LwIP\src\core\ipv4/dhcp.c ****     }
1070:Source\LwIP\src\core\ipv4/dhcp.c ****     LWIP_DEBUGF(DHCP_DEBUG | LWIP_DBG_TRACE | LWIP_DBG_STATE, ("dhcp_bind(): set request timeout %"
1071:Source\LwIP\src\core\ipv4/dhcp.c ****     dhcp->t2_rebind_time = dhcp->t2_timeout;
1072:Source\LwIP\src\core\ipv4/dhcp.c ****   }
1073:Source\LwIP\src\core\ipv4/dhcp.c **** 
1074:Source\LwIP\src\core\ipv4/dhcp.c ****   /* If we have sub 1 minute lease, t2 and t1 will kick in at the same time. */
1075:Source\LwIP\src\core\ipv4/dhcp.c ****   if ((dhcp->t1_timeout >= dhcp->t2_timeout) && (dhcp->t2_timeout > 0)) {
1076:Source\LwIP\src\core\ipv4/dhcp.c ****     dhcp->t1_timeout = 0;
1077:Source\LwIP\src\core\ipv4/dhcp.c ****   }
1078:Source\LwIP\src\core\ipv4/dhcp.c **** 
1079:Source\LwIP\src\core\ipv4/dhcp.c ****   if (dhcp->subnet_mask_given) {
1080:Source\LwIP\src\core\ipv4/dhcp.c ****     /* copy offered network mask */
1081:Source\LwIP\src\core\ipv4/dhcp.c ****     ip4_addr_copy(sn_mask, dhcp->offered_sn_mask);
1082:Source\LwIP\src\core\ipv4/dhcp.c ****   } else {
1083:Source\LwIP\src\core\ipv4/dhcp.c ****     /* subnet mask not given, choose a safe subnet mask given the network class */
1084:Source\LwIP\src\core\ipv4/dhcp.c ****     u8_t first_octet = ip4_addr1(&dhcp->offered_ip_addr);
1085:Source\LwIP\src\core\ipv4/dhcp.c ****     if (first_octet <= 127) {
1086:Source\LwIP\src\core\ipv4/dhcp.c ****       ip4_addr_set_u32(&sn_mask, PP_HTONL(0xff000000UL));
1087:Source\LwIP\src\core\ipv4/dhcp.c ****     } else if (first_octet >= 192) {
1088:Source\LwIP\src\core\ipv4/dhcp.c ****       ip4_addr_set_u32(&sn_mask, PP_HTONL(0xffffff00UL));
1089:Source\LwIP\src\core\ipv4/dhcp.c ****     } else {
1090:Source\LwIP\src\core\ipv4/dhcp.c ****       ip4_addr_set_u32(&sn_mask, PP_HTONL(0xffff0000UL));
1091:Source\LwIP\src\core\ipv4/dhcp.c ****     }
1092:Source\LwIP\src\core\ipv4/dhcp.c ****   }
1093:Source\LwIP\src\core\ipv4/dhcp.c **** 
1094:Source\LwIP\src\core\ipv4/dhcp.c ****   ip4_addr_copy(gw_addr, dhcp->offered_gw_addr);
1095:Source\LwIP\src\core\ipv4/dhcp.c ****   /* gateway address not given? */
1096:Source\LwIP\src\core\ipv4/dhcp.c ****   if (ip4_addr_isany_val(gw_addr)) {
1097:Source\LwIP\src\core\ipv4/dhcp.c ****     /* copy network address */
1098:Source\LwIP\src\core\ipv4/dhcp.c ****     ip4_addr_get_network(&gw_addr, &dhcp->offered_ip_addr, &sn_mask);
1099:Source\LwIP\src\core\ipv4/dhcp.c ****     /* use first host address on network as gateway */
1100:Source\LwIP\src\core\ipv4/dhcp.c ****     ip4_addr_set_u32(&gw_addr, ip4_addr_get_u32(&gw_addr) | PP_HTONL(0x00000001UL));
1101:Source\LwIP\src\core\ipv4/dhcp.c ****   }
1102:Source\LwIP\src\core\ipv4/dhcp.c **** 
1103:Source\LwIP\src\core\ipv4/dhcp.c **** #if LWIP_DHCP_AUTOIP_COOP
1104:Source\LwIP\src\core\ipv4/dhcp.c ****   if (dhcp->autoip_coop_state == DHCP_AUTOIP_COOP_STATE_ON) {
1105:Source\LwIP\src\core\ipv4/dhcp.c ****     autoip_stop(netif);
1106:Source\LwIP\src\core\ipv4/dhcp.c ****     dhcp->autoip_coop_state = DHCP_AUTOIP_COOP_STATE_OFF;
1107:Source\LwIP\src\core\ipv4/dhcp.c ****   }
1108:Source\LwIP\src\core\ipv4/dhcp.c **** #endif /* LWIP_DHCP_AUTOIP_COOP */
1109:Source\LwIP\src\core\ipv4/dhcp.c **** 
1110:Source\LwIP\src\core\ipv4/dhcp.c ****   LWIP_DEBUGF(DHCP_DEBUG | LWIP_DBG_STATE, ("dhcp_bind(): IP: 0x%08"X32_F" SN: 0x%08"X32_F" GW: 0x%
1111:Source\LwIP\src\core\ipv4/dhcp.c ****     ip4_addr_get_u32(&dhcp->offered_ip_addr), ip4_addr_get_u32(&sn_mask), ip4_addr_get_u32(&gw_addr
1112:Source\LwIP\src\core\ipv4/dhcp.c ****   /* netif is now bound to DHCP leased address - set this before assigning the address
1113:Source\LwIP\src\core\ipv4/dhcp.c ****      to ensure the callback can use dhcp_supplied_address() */
1114:Source\LwIP\src\core\ipv4/dhcp.c ****   dhcp_set_state(dhcp, DHCP_STATE_BOUND);
ARM GAS  C:\Users\Phuong\AppData\Local\Temp\ccmYXgep.s 			page 21


1115:Source\LwIP\src\core\ipv4/dhcp.c **** 
1116:Source\LwIP\src\core\ipv4/dhcp.c ****   netif_set_addr(netif, &dhcp->offered_ip_addr, &sn_mask, &gw_addr);
1117:Source\LwIP\src\core\ipv4/dhcp.c ****   /* interface is used by routing now that an address is set */
1118:Source\LwIP\src\core\ipv4/dhcp.c **** }
1119:Source\LwIP\src\core\ipv4/dhcp.c **** 
1120:Source\LwIP\src\core\ipv4/dhcp.c **** /**
1121:Source\LwIP\src\core\ipv4/dhcp.c ****  * @ingroup dhcp4
1122:Source\LwIP\src\core\ipv4/dhcp.c ****  * Renew an existing DHCP lease at the involved DHCP server.
1123:Source\LwIP\src\core\ipv4/dhcp.c ****  *
1124:Source\LwIP\src\core\ipv4/dhcp.c ****  * @param netif network interface which must renew its lease
1125:Source\LwIP\src\core\ipv4/dhcp.c ****  */
1126:Source\LwIP\src\core\ipv4/dhcp.c **** err_t
1127:Source\LwIP\src\core\ipv4/dhcp.c **** dhcp_renew(struct netif *netif)
1128:Source\LwIP\src\core\ipv4/dhcp.c **** {
1129:Source\LwIP\src\core\ipv4/dhcp.c ****   struct dhcp *dhcp = netif_dhcp_data(netif);
1130:Source\LwIP\src\core\ipv4/dhcp.c ****   err_t result;
1131:Source\LwIP\src\core\ipv4/dhcp.c ****   u16_t msecs;
1132:Source\LwIP\src\core\ipv4/dhcp.c ****   u8_t i;
1133:Source\LwIP\src\core\ipv4/dhcp.c ****   LWIP_DEBUGF(DHCP_DEBUG | LWIP_DBG_TRACE, ("dhcp_renew()\n"));
1134:Source\LwIP\src\core\ipv4/dhcp.c ****   dhcp_set_state(dhcp, DHCP_STATE_RENEWING);
1135:Source\LwIP\src\core\ipv4/dhcp.c **** 
1136:Source\LwIP\src\core\ipv4/dhcp.c ****   /* create and initialize the DHCP message header */
1137:Source\LwIP\src\core\ipv4/dhcp.c ****   result = dhcp_create_msg(netif, dhcp, DHCP_REQUEST);
1138:Source\LwIP\src\core\ipv4/dhcp.c ****   if (result == ERR_OK) {
1139:Source\LwIP\src\core\ipv4/dhcp.c ****     dhcp_option(dhcp, DHCP_OPTION_MAX_MSG_SIZE, DHCP_OPTION_MAX_MSG_SIZE_LEN);
1140:Source\LwIP\src\core\ipv4/dhcp.c ****     dhcp_option_short(dhcp, DHCP_MAX_MSG_LEN(netif));
1141:Source\LwIP\src\core\ipv4/dhcp.c **** 
1142:Source\LwIP\src\core\ipv4/dhcp.c ****     dhcp_option(dhcp, DHCP_OPTION_PARAMETER_REQUEST_LIST, LWIP_ARRAYSIZE(dhcp_discover_request_opti
1143:Source\LwIP\src\core\ipv4/dhcp.c ****     for (i = 0; i < LWIP_ARRAYSIZE(dhcp_discover_request_options); i++) {
1144:Source\LwIP\src\core\ipv4/dhcp.c ****       dhcp_option_byte(dhcp, dhcp_discover_request_options[i]);
1145:Source\LwIP\src\core\ipv4/dhcp.c ****     }
1146:Source\LwIP\src\core\ipv4/dhcp.c **** 
1147:Source\LwIP\src\core\ipv4/dhcp.c **** #if LWIP_NETIF_HOSTNAME
1148:Source\LwIP\src\core\ipv4/dhcp.c ****     dhcp_option_hostname(dhcp, netif);
1149:Source\LwIP\src\core\ipv4/dhcp.c **** #endif /* LWIP_NETIF_HOSTNAME */
1150:Source\LwIP\src\core\ipv4/dhcp.c **** 
1151:Source\LwIP\src\core\ipv4/dhcp.c ****     /* append DHCP message trailer */
1152:Source\LwIP\src\core\ipv4/dhcp.c ****     dhcp_option_trailer(dhcp);
1153:Source\LwIP\src\core\ipv4/dhcp.c **** 
1154:Source\LwIP\src\core\ipv4/dhcp.c ****     pbuf_realloc(dhcp->p_out, sizeof(struct dhcp_msg) - DHCP_OPTIONS_LEN + dhcp->options_out_len);
1155:Source\LwIP\src\core\ipv4/dhcp.c **** 
1156:Source\LwIP\src\core\ipv4/dhcp.c ****     udp_sendto_if(dhcp_pcb, dhcp->p_out, &dhcp->server_ip_addr, DHCP_SERVER_PORT, netif);
1157:Source\LwIP\src\core\ipv4/dhcp.c ****     dhcp_delete_msg(dhcp);
1158:Source\LwIP\src\core\ipv4/dhcp.c **** 
1159:Source\LwIP\src\core\ipv4/dhcp.c ****     LWIP_DEBUGF(DHCP_DEBUG | LWIP_DBG_TRACE | LWIP_DBG_STATE, ("dhcp_renew: RENEWING\n"));
1160:Source\LwIP\src\core\ipv4/dhcp.c ****   } else {
1161:Source\LwIP\src\core\ipv4/dhcp.c ****     LWIP_DEBUGF(DHCP_DEBUG | LWIP_DBG_TRACE | LWIP_DBG_LEVEL_SERIOUS, ("dhcp_renew: could not alloc
1162:Source\LwIP\src\core\ipv4/dhcp.c ****   }
1163:Source\LwIP\src\core\ipv4/dhcp.c ****   if (dhcp->tries < 255) {
1164:Source\LwIP\src\core\ipv4/dhcp.c ****     dhcp->tries++;
1165:Source\LwIP\src\core\ipv4/dhcp.c ****   }
1166:Source\LwIP\src\core\ipv4/dhcp.c ****   /* back-off on retries, but to a maximum of 20 seconds */
1167:Source\LwIP\src\core\ipv4/dhcp.c ****   msecs = dhcp->tries < 10 ? dhcp->tries * 2000 : 20 * 1000;
1168:Source\LwIP\src\core\ipv4/dhcp.c ****   dhcp->request_timeout = (msecs + DHCP_FINE_TIMER_MSECS - 1) / DHCP_FINE_TIMER_MSECS;
1169:Source\LwIP\src\core\ipv4/dhcp.c ****   LWIP_DEBUGF(DHCP_DEBUG | LWIP_DBG_TRACE | LWIP_DBG_STATE, ("dhcp_renew(): set request timeout %"U
1170:Source\LwIP\src\core\ipv4/dhcp.c ****   return result;
1171:Source\LwIP\src\core\ipv4/dhcp.c **** }
ARM GAS  C:\Users\Phuong\AppData\Local\Temp\ccmYXgep.s 			page 22


1172:Source\LwIP\src\core\ipv4/dhcp.c **** 
1173:Source\LwIP\src\core\ipv4/dhcp.c **** /**
1174:Source\LwIP\src\core\ipv4/dhcp.c ****  * Rebind with a DHCP server for an existing DHCP lease.
1175:Source\LwIP\src\core\ipv4/dhcp.c ****  *
1176:Source\LwIP\src\core\ipv4/dhcp.c ****  * @param netif network interface which must rebind with a DHCP server
1177:Source\LwIP\src\core\ipv4/dhcp.c ****  */
1178:Source\LwIP\src\core\ipv4/dhcp.c **** static err_t
1179:Source\LwIP\src\core\ipv4/dhcp.c **** dhcp_rebind(struct netif *netif)
1180:Source\LwIP\src\core\ipv4/dhcp.c **** {
1181:Source\LwIP\src\core\ipv4/dhcp.c ****   struct dhcp *dhcp = netif_dhcp_data(netif);
1182:Source\LwIP\src\core\ipv4/dhcp.c ****   err_t result;
1183:Source\LwIP\src\core\ipv4/dhcp.c ****   u16_t msecs;
1184:Source\LwIP\src\core\ipv4/dhcp.c ****   u8_t i;
1185:Source\LwIP\src\core\ipv4/dhcp.c ****   LWIP_DEBUGF(DHCP_DEBUG | LWIP_DBG_TRACE | LWIP_DBG_STATE, ("dhcp_rebind()\n"));
1186:Source\LwIP\src\core\ipv4/dhcp.c ****   dhcp_set_state(dhcp, DHCP_STATE_REBINDING);
1187:Source\LwIP\src\core\ipv4/dhcp.c **** 
1188:Source\LwIP\src\core\ipv4/dhcp.c ****   /* create and initialize the DHCP message header */
1189:Source\LwIP\src\core\ipv4/dhcp.c ****   result = dhcp_create_msg(netif, dhcp, DHCP_REQUEST);
1190:Source\LwIP\src\core\ipv4/dhcp.c ****   if (result == ERR_OK) {
1191:Source\LwIP\src\core\ipv4/dhcp.c ****     dhcp_option(dhcp, DHCP_OPTION_MAX_MSG_SIZE, DHCP_OPTION_MAX_MSG_SIZE_LEN);
1192:Source\LwIP\src\core\ipv4/dhcp.c ****     dhcp_option_short(dhcp, DHCP_MAX_MSG_LEN(netif));
1193:Source\LwIP\src\core\ipv4/dhcp.c **** 
1194:Source\LwIP\src\core\ipv4/dhcp.c ****     dhcp_option(dhcp, DHCP_OPTION_PARAMETER_REQUEST_LIST, LWIP_ARRAYSIZE(dhcp_discover_request_opti
1195:Source\LwIP\src\core\ipv4/dhcp.c ****     for (i = 0; i < LWIP_ARRAYSIZE(dhcp_discover_request_options); i++) {
1196:Source\LwIP\src\core\ipv4/dhcp.c ****       dhcp_option_byte(dhcp, dhcp_discover_request_options[i]);
1197:Source\LwIP\src\core\ipv4/dhcp.c ****     }
1198:Source\LwIP\src\core\ipv4/dhcp.c **** 
1199:Source\LwIP\src\core\ipv4/dhcp.c **** #if LWIP_NETIF_HOSTNAME
1200:Source\LwIP\src\core\ipv4/dhcp.c ****     dhcp_option_hostname(dhcp, netif);
1201:Source\LwIP\src\core\ipv4/dhcp.c **** #endif /* LWIP_NETIF_HOSTNAME */
1202:Source\LwIP\src\core\ipv4/dhcp.c **** 
1203:Source\LwIP\src\core\ipv4/dhcp.c ****     dhcp_option_trailer(dhcp);
1204:Source\LwIP\src\core\ipv4/dhcp.c **** 
1205:Source\LwIP\src\core\ipv4/dhcp.c ****     pbuf_realloc(dhcp->p_out, sizeof(struct dhcp_msg) - DHCP_OPTIONS_LEN + dhcp->options_out_len);
1206:Source\LwIP\src\core\ipv4/dhcp.c **** 
1207:Source\LwIP\src\core\ipv4/dhcp.c ****     /* broadcast to server */
1208:Source\LwIP\src\core\ipv4/dhcp.c ****     udp_sendto_if(dhcp_pcb, dhcp->p_out, IP_ADDR_BROADCAST, DHCP_SERVER_PORT, netif);
1209:Source\LwIP\src\core\ipv4/dhcp.c ****     dhcp_delete_msg(dhcp);
1210:Source\LwIP\src\core\ipv4/dhcp.c ****     LWIP_DEBUGF(DHCP_DEBUG | LWIP_DBG_TRACE | LWIP_DBG_STATE, ("dhcp_rebind: REBINDING\n"));
1211:Source\LwIP\src\core\ipv4/dhcp.c ****   } else {
1212:Source\LwIP\src\core\ipv4/dhcp.c ****     LWIP_DEBUGF(DHCP_DEBUG | LWIP_DBG_TRACE | LWIP_DBG_LEVEL_SERIOUS, ("dhcp_rebind: could not allo
1213:Source\LwIP\src\core\ipv4/dhcp.c ****   }
1214:Source\LwIP\src\core\ipv4/dhcp.c ****   if (dhcp->tries < 255) {
1215:Source\LwIP\src\core\ipv4/dhcp.c ****     dhcp->tries++;
1216:Source\LwIP\src\core\ipv4/dhcp.c ****   }
1217:Source\LwIP\src\core\ipv4/dhcp.c ****   msecs = dhcp->tries < 10 ? dhcp->tries * 1000 : 10 * 1000;
1218:Source\LwIP\src\core\ipv4/dhcp.c ****   dhcp->request_timeout = (msecs + DHCP_FINE_TIMER_MSECS - 1) / DHCP_FINE_TIMER_MSECS;
1219:Source\LwIP\src\core\ipv4/dhcp.c ****   LWIP_DEBUGF(DHCP_DEBUG | LWIP_DBG_TRACE | LWIP_DBG_STATE, ("dhcp_rebind(): set request timeout %"
1220:Source\LwIP\src\core\ipv4/dhcp.c ****   return result;
1221:Source\LwIP\src\core\ipv4/dhcp.c **** }
1222:Source\LwIP\src\core\ipv4/dhcp.c **** 
1223:Source\LwIP\src\core\ipv4/dhcp.c **** /**
1224:Source\LwIP\src\core\ipv4/dhcp.c ****  * Enter REBOOTING state to verify an existing lease
1225:Source\LwIP\src\core\ipv4/dhcp.c ****  *
1226:Source\LwIP\src\core\ipv4/dhcp.c ****  * @param netif network interface which must reboot
1227:Source\LwIP\src\core\ipv4/dhcp.c ****  */
1228:Source\LwIP\src\core\ipv4/dhcp.c **** static err_t
ARM GAS  C:\Users\Phuong\AppData\Local\Temp\ccmYXgep.s 			page 23


1229:Source\LwIP\src\core\ipv4/dhcp.c **** dhcp_reboot(struct netif *netif)
1230:Source\LwIP\src\core\ipv4/dhcp.c **** {
1231:Source\LwIP\src\core\ipv4/dhcp.c ****   struct dhcp *dhcp = netif_dhcp_data(netif);
1232:Source\LwIP\src\core\ipv4/dhcp.c ****   err_t result;
1233:Source\LwIP\src\core\ipv4/dhcp.c ****   u16_t msecs;
1234:Source\LwIP\src\core\ipv4/dhcp.c ****   u8_t i;
1235:Source\LwIP\src\core\ipv4/dhcp.c ****   LWIP_DEBUGF(DHCP_DEBUG | LWIP_DBG_TRACE | LWIP_DBG_STATE, ("dhcp_reboot()\n"));
1236:Source\LwIP\src\core\ipv4/dhcp.c ****   dhcp_set_state(dhcp, DHCP_STATE_REBOOTING);
1237:Source\LwIP\src\core\ipv4/dhcp.c **** 
1238:Source\LwIP\src\core\ipv4/dhcp.c ****   /* create and initialize the DHCP message header */
1239:Source\LwIP\src\core\ipv4/dhcp.c ****   result = dhcp_create_msg(netif, dhcp, DHCP_REQUEST);
1240:Source\LwIP\src\core\ipv4/dhcp.c ****   if (result == ERR_OK) {
1241:Source\LwIP\src\core\ipv4/dhcp.c ****     dhcp_option(dhcp, DHCP_OPTION_MAX_MSG_SIZE, DHCP_OPTION_MAX_MSG_SIZE_LEN);
1242:Source\LwIP\src\core\ipv4/dhcp.c ****     dhcp_option_short(dhcp, DHCP_MAX_MSG_LEN_MIN_REQUIRED);
1243:Source\LwIP\src\core\ipv4/dhcp.c **** 
1244:Source\LwIP\src\core\ipv4/dhcp.c ****     dhcp_option(dhcp, DHCP_OPTION_REQUESTED_IP, 4);
1245:Source\LwIP\src\core\ipv4/dhcp.c ****     dhcp_option_long(dhcp, lwip_ntohl(ip4_addr_get_u32(&dhcp->offered_ip_addr)));
1246:Source\LwIP\src\core\ipv4/dhcp.c **** 
1247:Source\LwIP\src\core\ipv4/dhcp.c ****     dhcp_option(dhcp, DHCP_OPTION_PARAMETER_REQUEST_LIST, LWIP_ARRAYSIZE(dhcp_discover_request_opti
1248:Source\LwIP\src\core\ipv4/dhcp.c ****     for (i = 0; i < LWIP_ARRAYSIZE(dhcp_discover_request_options); i++) {
1249:Source\LwIP\src\core\ipv4/dhcp.c ****       dhcp_option_byte(dhcp, dhcp_discover_request_options[i]);
1250:Source\LwIP\src\core\ipv4/dhcp.c ****     }
1251:Source\LwIP\src\core\ipv4/dhcp.c **** 
1252:Source\LwIP\src\core\ipv4/dhcp.c ****     dhcp_option_trailer(dhcp);
1253:Source\LwIP\src\core\ipv4/dhcp.c **** 
1254:Source\LwIP\src\core\ipv4/dhcp.c ****     pbuf_realloc(dhcp->p_out, sizeof(struct dhcp_msg) - DHCP_OPTIONS_LEN + dhcp->options_out_len);
1255:Source\LwIP\src\core\ipv4/dhcp.c **** 
1256:Source\LwIP\src\core\ipv4/dhcp.c ****     /* broadcast to server */
1257:Source\LwIP\src\core\ipv4/dhcp.c ****     udp_sendto_if(dhcp_pcb, dhcp->p_out, IP_ADDR_BROADCAST, DHCP_SERVER_PORT, netif);
1258:Source\LwIP\src\core\ipv4/dhcp.c ****     dhcp_delete_msg(dhcp);
1259:Source\LwIP\src\core\ipv4/dhcp.c ****     LWIP_DEBUGF(DHCP_DEBUG | LWIP_DBG_TRACE | LWIP_DBG_STATE, ("dhcp_reboot: REBOOTING\n"));
1260:Source\LwIP\src\core\ipv4/dhcp.c ****   } else {
1261:Source\LwIP\src\core\ipv4/dhcp.c ****     LWIP_DEBUGF(DHCP_DEBUG | LWIP_DBG_TRACE | LWIP_DBG_LEVEL_SERIOUS, ("dhcp_reboot: could not allo
1262:Source\LwIP\src\core\ipv4/dhcp.c ****   }
1263:Source\LwIP\src\core\ipv4/dhcp.c ****   if (dhcp->tries < 255) {
1264:Source\LwIP\src\core\ipv4/dhcp.c ****     dhcp->tries++;
1265:Source\LwIP\src\core\ipv4/dhcp.c ****   }
1266:Source\LwIP\src\core\ipv4/dhcp.c ****   msecs = dhcp->tries < 10 ? dhcp->tries * 1000 : 10 * 1000;
1267:Source\LwIP\src\core\ipv4/dhcp.c ****   dhcp->request_timeout = (msecs + DHCP_FINE_TIMER_MSECS - 1) / DHCP_FINE_TIMER_MSECS;
1268:Source\LwIP\src\core\ipv4/dhcp.c ****   LWIP_DEBUGF(DHCP_DEBUG | LWIP_DBG_TRACE | LWIP_DBG_STATE, ("dhcp_reboot(): set request timeout %"
1269:Source\LwIP\src\core\ipv4/dhcp.c ****   return result;
1270:Source\LwIP\src\core\ipv4/dhcp.c **** }
1271:Source\LwIP\src\core\ipv4/dhcp.c **** 
1272:Source\LwIP\src\core\ipv4/dhcp.c **** 
1273:Source\LwIP\src\core\ipv4/dhcp.c **** /**
1274:Source\LwIP\src\core\ipv4/dhcp.c ****  * @ingroup dhcp4
1275:Source\LwIP\src\core\ipv4/dhcp.c ****  * Release a DHCP lease (usually called before @ref dhcp_stop).
1276:Source\LwIP\src\core\ipv4/dhcp.c ****  *
1277:Source\LwIP\src\core\ipv4/dhcp.c ****  * @param netif network interface which must release its lease
1278:Source\LwIP\src\core\ipv4/dhcp.c ****  */
1279:Source\LwIP\src\core\ipv4/dhcp.c **** err_t
1280:Source\LwIP\src\core\ipv4/dhcp.c **** dhcp_release(struct netif *netif)
1281:Source\LwIP\src\core\ipv4/dhcp.c **** {
1282:Source\LwIP\src\core\ipv4/dhcp.c ****   struct dhcp *dhcp = netif_dhcp_data(netif);
1283:Source\LwIP\src\core\ipv4/dhcp.c ****   err_t result;
1284:Source\LwIP\src\core\ipv4/dhcp.c ****   ip_addr_t server_ip_addr;
1285:Source\LwIP\src\core\ipv4/dhcp.c ****   u8_t is_dhcp_supplied_address;
ARM GAS  C:\Users\Phuong\AppData\Local\Temp\ccmYXgep.s 			page 24


1286:Source\LwIP\src\core\ipv4/dhcp.c **** 
1287:Source\LwIP\src\core\ipv4/dhcp.c ****   LWIP_DEBUGF(DHCP_DEBUG | LWIP_DBG_TRACE, ("dhcp_release()\n"));
1288:Source\LwIP\src\core\ipv4/dhcp.c ****   if (dhcp == NULL) {
1289:Source\LwIP\src\core\ipv4/dhcp.c ****     return ERR_ARG;
1290:Source\LwIP\src\core\ipv4/dhcp.c ****   }
1291:Source\LwIP\src\core\ipv4/dhcp.c ****   ip_addr_copy(server_ip_addr, dhcp->server_ip_addr);
1292:Source\LwIP\src\core\ipv4/dhcp.c **** 
1293:Source\LwIP\src\core\ipv4/dhcp.c ****   is_dhcp_supplied_address = dhcp_supplied_address(netif);
1294:Source\LwIP\src\core\ipv4/dhcp.c **** 
1295:Source\LwIP\src\core\ipv4/dhcp.c ****   /* idle DHCP client */
1296:Source\LwIP\src\core\ipv4/dhcp.c ****   dhcp_set_state(dhcp, DHCP_STATE_OFF);
1297:Source\LwIP\src\core\ipv4/dhcp.c ****   /* clean old DHCP offer */
1298:Source\LwIP\src\core\ipv4/dhcp.c ****   ip_addr_set_zero_ip4(&dhcp->server_ip_addr);
1299:Source\LwIP\src\core\ipv4/dhcp.c ****   ip4_addr_set_zero(&dhcp->offered_ip_addr);
1300:Source\LwIP\src\core\ipv4/dhcp.c ****   ip4_addr_set_zero(&dhcp->offered_sn_mask);
1301:Source\LwIP\src\core\ipv4/dhcp.c ****   ip4_addr_set_zero(&dhcp->offered_gw_addr);
1302:Source\LwIP\src\core\ipv4/dhcp.c **** #if LWIP_DHCP_BOOTP_FILE
1303:Source\LwIP\src\core\ipv4/dhcp.c ****   ip4_addr_set_zero(&dhcp->offered_si_addr);
1304:Source\LwIP\src\core\ipv4/dhcp.c **** #endif /* LWIP_DHCP_BOOTP_FILE */
1305:Source\LwIP\src\core\ipv4/dhcp.c ****   dhcp->offered_t0_lease = dhcp->offered_t1_renew = dhcp->offered_t2_rebind = 0;
1306:Source\LwIP\src\core\ipv4/dhcp.c ****   dhcp->t1_renew_time = dhcp->t2_rebind_time = dhcp->lease_used = dhcp->t0_timeout = 0;
1307:Source\LwIP\src\core\ipv4/dhcp.c **** 
1308:Source\LwIP\src\core\ipv4/dhcp.c ****   if (!is_dhcp_supplied_address) {
1309:Source\LwIP\src\core\ipv4/dhcp.c ****     /* don't issue release message when address is not dhcp-assigned */
1310:Source\LwIP\src\core\ipv4/dhcp.c ****     return ERR_OK;
1311:Source\LwIP\src\core\ipv4/dhcp.c ****   }
1312:Source\LwIP\src\core\ipv4/dhcp.c **** 
1313:Source\LwIP\src\core\ipv4/dhcp.c ****   /* create and initialize the DHCP message header */
1314:Source\LwIP\src\core\ipv4/dhcp.c ****   result = dhcp_create_msg(netif, dhcp, DHCP_RELEASE);
1315:Source\LwIP\src\core\ipv4/dhcp.c ****   if (result == ERR_OK) {
1316:Source\LwIP\src\core\ipv4/dhcp.c ****     dhcp_option(dhcp, DHCP_OPTION_SERVER_ID, 4);
1317:Source\LwIP\src\core\ipv4/dhcp.c ****     dhcp_option_long(dhcp, lwip_ntohl(ip4_addr_get_u32(ip_2_ip4(&server_ip_addr))));
1318:Source\LwIP\src\core\ipv4/dhcp.c **** 
1319:Source\LwIP\src\core\ipv4/dhcp.c ****     dhcp_option_trailer(dhcp);
1320:Source\LwIP\src\core\ipv4/dhcp.c **** 
1321:Source\LwIP\src\core\ipv4/dhcp.c ****     pbuf_realloc(dhcp->p_out, sizeof(struct dhcp_msg) - DHCP_OPTIONS_LEN + dhcp->options_out_len);
1322:Source\LwIP\src\core\ipv4/dhcp.c **** 
1323:Source\LwIP\src\core\ipv4/dhcp.c ****     udp_sendto_if(dhcp_pcb, dhcp->p_out, &server_ip_addr, DHCP_SERVER_PORT, netif);
1324:Source\LwIP\src\core\ipv4/dhcp.c ****     dhcp_delete_msg(dhcp);
1325:Source\LwIP\src\core\ipv4/dhcp.c ****     LWIP_DEBUGF(DHCP_DEBUG | LWIP_DBG_TRACE | LWIP_DBG_STATE, ("dhcp_release: RELEASED, DHCP_STATE_
1326:Source\LwIP\src\core\ipv4/dhcp.c ****   } else {
1327:Source\LwIP\src\core\ipv4/dhcp.c ****     /* sending release failed, but that's not a problem since the correct behaviour of dhcp does no
1328:Source\LwIP\src\core\ipv4/dhcp.c ****     LWIP_DEBUGF(DHCP_DEBUG | LWIP_DBG_TRACE | LWIP_DBG_LEVEL_SERIOUS, ("dhcp_release: could not all
1329:Source\LwIP\src\core\ipv4/dhcp.c ****   }
1330:Source\LwIP\src\core\ipv4/dhcp.c ****   /* remove IP address from interface (prevents routing from selecting this interface) */
1331:Source\LwIP\src\core\ipv4/dhcp.c ****   netif_set_addr(netif, IP4_ADDR_ANY4, IP4_ADDR_ANY4, IP4_ADDR_ANY4);
1332:Source\LwIP\src\core\ipv4/dhcp.c **** 
1333:Source\LwIP\src\core\ipv4/dhcp.c ****   return result;
1334:Source\LwIP\src\core\ipv4/dhcp.c **** }
1335:Source\LwIP\src\core\ipv4/dhcp.c **** 
1336:Source\LwIP\src\core\ipv4/dhcp.c **** /**
1337:Source\LwIP\src\core\ipv4/dhcp.c ****  * @ingroup dhcp4
1338:Source\LwIP\src\core\ipv4/dhcp.c ****  * Remove the DHCP client from the interface.
1339:Source\LwIP\src\core\ipv4/dhcp.c ****  *
1340:Source\LwIP\src\core\ipv4/dhcp.c ****  * @param netif The network interface to stop DHCP on
1341:Source\LwIP\src\core\ipv4/dhcp.c ****  */
1342:Source\LwIP\src\core\ipv4/dhcp.c **** void
ARM GAS  C:\Users\Phuong\AppData\Local\Temp\ccmYXgep.s 			page 25


1343:Source\LwIP\src\core\ipv4/dhcp.c **** dhcp_stop(struct netif *netif)
1344:Source\LwIP\src\core\ipv4/dhcp.c **** {
1345:Source\LwIP\src\core\ipv4/dhcp.c ****   struct dhcp *dhcp;
1346:Source\LwIP\src\core\ipv4/dhcp.c ****   LWIP_ERROR("dhcp_stop: netif != NULL", (netif != NULL), return;);
1347:Source\LwIP\src\core\ipv4/dhcp.c ****   dhcp = netif_dhcp_data(netif);
1348:Source\LwIP\src\core\ipv4/dhcp.c **** 
1349:Source\LwIP\src\core\ipv4/dhcp.c ****   LWIP_DEBUGF(DHCP_DEBUG | LWIP_DBG_TRACE, ("dhcp_stop()\n"));
1350:Source\LwIP\src\core\ipv4/dhcp.c ****   /* netif is DHCP configured? */
1351:Source\LwIP\src\core\ipv4/dhcp.c ****   if (dhcp != NULL) {
1352:Source\LwIP\src\core\ipv4/dhcp.c **** #if LWIP_DHCP_AUTOIP_COOP
1353:Source\LwIP\src\core\ipv4/dhcp.c ****     if (dhcp->autoip_coop_state == DHCP_AUTOIP_COOP_STATE_ON) {
1354:Source\LwIP\src\core\ipv4/dhcp.c ****       autoip_stop(netif);
1355:Source\LwIP\src\core\ipv4/dhcp.c ****       dhcp->autoip_coop_state = DHCP_AUTOIP_COOP_STATE_OFF;
1356:Source\LwIP\src\core\ipv4/dhcp.c ****     }
1357:Source\LwIP\src\core\ipv4/dhcp.c **** #endif /* LWIP_DHCP_AUTOIP_COOP */
1358:Source\LwIP\src\core\ipv4/dhcp.c **** 
1359:Source\LwIP\src\core\ipv4/dhcp.c ****     LWIP_ASSERT("reply wasn't freed", dhcp->msg_in == NULL);
1360:Source\LwIP\src\core\ipv4/dhcp.c ****     dhcp_set_state(dhcp, DHCP_STATE_OFF);
1361:Source\LwIP\src\core\ipv4/dhcp.c **** 
1362:Source\LwIP\src\core\ipv4/dhcp.c ****     if (dhcp->pcb_allocated != 0) {
1363:Source\LwIP\src\core\ipv4/dhcp.c ****       dhcp_dec_pcb_refcount(); /* free DHCP PCB if not needed any more */
1364:Source\LwIP\src\core\ipv4/dhcp.c ****       dhcp->pcb_allocated = 0;
1365:Source\LwIP\src\core\ipv4/dhcp.c ****     }
1366:Source\LwIP\src\core\ipv4/dhcp.c ****   }
1367:Source\LwIP\src\core\ipv4/dhcp.c **** }
1368:Source\LwIP\src\core\ipv4/dhcp.c **** 
1369:Source\LwIP\src\core\ipv4/dhcp.c **** /*
1370:Source\LwIP\src\core\ipv4/dhcp.c ****  * Set the DHCP state of a DHCP client.
1371:Source\LwIP\src\core\ipv4/dhcp.c ****  *
1372:Source\LwIP\src\core\ipv4/dhcp.c ****  * If the state changed, reset the number of tries.
1373:Source\LwIP\src\core\ipv4/dhcp.c ****  */
1374:Source\LwIP\src\core\ipv4/dhcp.c **** static void
1375:Source\LwIP\src\core\ipv4/dhcp.c **** dhcp_set_state(struct dhcp *dhcp, u8_t new_state)
1376:Source\LwIP\src\core\ipv4/dhcp.c **** {
  27              		.loc 1 1376 0
  28              		.cfi_startproc
  29              		@ args = 0, pretend = 0, frame = 0
  30              		@ frame_needed = 0, uses_anonymous_args = 0
  31              		@ link register save eliminated.
  32              	.LVL0:
1377:Source\LwIP\src\core\ipv4/dhcp.c ****   if (new_state != dhcp->state) {
  33              		.loc 1 1377 0
  34 0000 437A     		ldrb	r3, [r0, #9]
  35 0002 8B42     		cmp	r3, r1
  36 0004 03D0     		beq	.L1
1378:Source\LwIP\src\core\ipv4/dhcp.c ****     dhcp->state = new_state;
  37              		.loc 1 1378 0
  38 0006 4172     		strb	r1, [r0, #9]
1379:Source\LwIP\src\core\ipv4/dhcp.c ****     dhcp->tries = 0;
  39              		.loc 1 1379 0
  40 0008 0023     		movs	r3, #0
  41 000a 8372     		strb	r3, [r0, #10]
1380:Source\LwIP\src\core\ipv4/dhcp.c ****     dhcp->request_timeout = 0;
  42              		.loc 1 1380 0
  43 000c C382     		strh	r3, [r0, #22]
  44              	.L1:
1381:Source\LwIP\src\core\ipv4/dhcp.c ****   }
ARM GAS  C:\Users\Phuong\AppData\Local\Temp\ccmYXgep.s 			page 26


1382:Source\LwIP\src\core\ipv4/dhcp.c **** }
  45              		.loc 1 1382 0
  46              		@ sp needed
  47 000e 7047     		bx	lr
  48              		.cfi_endproc
  49              	.LFE76:
  50              		.size	dhcp_set_state, .-dhcp_set_state
  51              		.section	.text.dhcp_option,"ax",%progbits
  52              		.align	2
  53              		.code	16
  54              		.thumb_func
  55              		.type	dhcp_option, %function
  56              	dhcp_option:
  57              	.LFB77:
1383:Source\LwIP\src\core\ipv4/dhcp.c **** 
1384:Source\LwIP\src\core\ipv4/dhcp.c **** /*
1385:Source\LwIP\src\core\ipv4/dhcp.c ****  * Concatenate an option type and length field to the outgoing
1386:Source\LwIP\src\core\ipv4/dhcp.c ****  * DHCP message.
1387:Source\LwIP\src\core\ipv4/dhcp.c ****  *
1388:Source\LwIP\src\core\ipv4/dhcp.c ****  */
1389:Source\LwIP\src\core\ipv4/dhcp.c **** static void
1390:Source\LwIP\src\core\ipv4/dhcp.c **** dhcp_option(struct dhcp *dhcp, u8_t option_type, u8_t option_len)
1391:Source\LwIP\src\core\ipv4/dhcp.c **** {
  58              		.loc 1 1391 0
  59              		.cfi_startproc
  60              		@ args = 0, pretend = 0, frame = 0
  61              		@ frame_needed = 0, uses_anonymous_args = 0
  62              	.LVL1:
  63 0000 10B5     		push	{r4, lr}
  64              		.cfi_def_cfa_offset 8
  65              		.cfi_offset 4, -8
  66              		.cfi_offset 14, -4
1392:Source\LwIP\src\core\ipv4/dhcp.c ****   LWIP_ASSERT("dhcp_option: dhcp->options_out_len + 2 + option_len <= DHCP_OPTIONS_LEN", dhcp->opti
  67              		.loc 1 1392 0
  68 0002 838A     		ldrh	r3, [r0, #20]
1393:Source\LwIP\src\core\ipv4/dhcp.c ****   dhcp->msg_out->options[dhcp->options_out_len++] = option_type;
  69              		.loc 1 1393 0
  70 0004 5C1C     		adds	r4, r3, #1
  71 0006 8482     		strh	r4, [r0, #20]
  72 0008 0469     		ldr	r4, [r0, #16]
  73 000a A446     		mov	ip, r4
  74 000c 6344     		add	r3, r3, ip
  75 000e F033     		adds	r3, r3, #240
  76 0010 1970     		strb	r1, [r3]
1394:Source\LwIP\src\core\ipv4/dhcp.c ****   dhcp->msg_out->options[dhcp->options_out_len++] = option_len;
  77              		.loc 1 1394 0
  78 0012 0169     		ldr	r1, [r0, #16]
  79              	.LVL2:
  80 0014 838A     		ldrh	r3, [r0, #20]
  81              	.LVL3:
  82 0016 5C1C     		adds	r4, r3, #1
  83 0018 8482     		strh	r4, [r0, #20]
  84 001a CB18     		adds	r3, r1, r3
  85 001c F033     		adds	r3, r3, #240
  86 001e 1A70     		strb	r2, [r3]
1395:Source\LwIP\src\core\ipv4/dhcp.c **** }
  87              		.loc 1 1395 0
ARM GAS  C:\Users\Phuong\AppData\Local\Temp\ccmYXgep.s 			page 27


  88              		@ sp needed
  89 0020 10BD     		pop	{r4, pc}
  90              		.cfi_endproc
  91              	.LFE77:
  92              		.size	dhcp_option, .-dhcp_option
  93 0022 C046     		.section	.text.dhcp_option_byte,"ax",%progbits
  94              		.align	2
  95              		.code	16
  96              		.thumb_func
  97              		.type	dhcp_option_byte, %function
  98              	dhcp_option_byte:
  99              	.LFB78:
1396:Source\LwIP\src\core\ipv4/dhcp.c **** /*
1397:Source\LwIP\src\core\ipv4/dhcp.c ****  * Concatenate a single byte to the outgoing DHCP message.
1398:Source\LwIP\src\core\ipv4/dhcp.c ****  *
1399:Source\LwIP\src\core\ipv4/dhcp.c ****  */
1400:Source\LwIP\src\core\ipv4/dhcp.c **** static void
1401:Source\LwIP\src\core\ipv4/dhcp.c **** dhcp_option_byte(struct dhcp *dhcp, u8_t value)
1402:Source\LwIP\src\core\ipv4/dhcp.c **** {
 100              		.loc 1 1402 0
 101              		.cfi_startproc
 102              		@ args = 0, pretend = 0, frame = 0
 103              		@ frame_needed = 0, uses_anonymous_args = 0
 104              	.LVL4:
 105 0000 10B5     		push	{r4, lr}
 106              		.cfi_def_cfa_offset 8
 107              		.cfi_offset 4, -8
 108              		.cfi_offset 14, -4
1403:Source\LwIP\src\core\ipv4/dhcp.c ****   LWIP_ASSERT("dhcp_option_byte: dhcp->options_out_len < DHCP_OPTIONS_LEN", dhcp->options_out_len <
1404:Source\LwIP\src\core\ipv4/dhcp.c ****   dhcp->msg_out->options[dhcp->options_out_len++] = value;
 109              		.loc 1 1404 0
 110 0002 0269     		ldr	r2, [r0, #16]
 111 0004 838A     		ldrh	r3, [r0, #20]
 112 0006 5C1C     		adds	r4, r3, #1
 113 0008 8482     		strh	r4, [r0, #20]
 114 000a D318     		adds	r3, r2, r3
 115 000c F033     		adds	r3, r3, #240
 116 000e 1970     		strb	r1, [r3]
1405:Source\LwIP\src\core\ipv4/dhcp.c **** }
 117              		.loc 1 1405 0
 118              		@ sp needed
 119 0010 10BD     		pop	{r4, pc}
 120              		.cfi_endproc
 121              	.LFE78:
 122              		.size	dhcp_option_byte, .-dhcp_option_byte
 123 0012 C046     		.section	.text.dhcp_option_short,"ax",%progbits
 124              		.align	2
 125              		.code	16
 126              		.thumb_func
 127              		.type	dhcp_option_short, %function
 128              	dhcp_option_short:
 129              	.LFB79:
1406:Source\LwIP\src\core\ipv4/dhcp.c **** 
1407:Source\LwIP\src\core\ipv4/dhcp.c **** static void
1408:Source\LwIP\src\core\ipv4/dhcp.c **** dhcp_option_short(struct dhcp *dhcp, u16_t value)
1409:Source\LwIP\src\core\ipv4/dhcp.c **** {
 130              		.loc 1 1409 0
ARM GAS  C:\Users\Phuong\AppData\Local\Temp\ccmYXgep.s 			page 28


 131              		.cfi_startproc
 132              		@ args = 0, pretend = 0, frame = 0
 133              		@ frame_needed = 0, uses_anonymous_args = 0
 134              	.LVL5:
 135 0000 10B5     		push	{r4, lr}
 136              		.cfi_def_cfa_offset 8
 137              		.cfi_offset 4, -8
 138              		.cfi_offset 14, -4
1410:Source\LwIP\src\core\ipv4/dhcp.c ****   LWIP_ASSERT("dhcp_option_short: dhcp->options_out_len + 2 <= DHCP_OPTIONS_LEN", dhcp->options_out
 139              		.loc 1 1410 0
 140 0002 838A     		ldrh	r3, [r0, #20]
1411:Source\LwIP\src\core\ipv4/dhcp.c ****   dhcp->msg_out->options[dhcp->options_out_len++] = (u8_t)((value & 0xff00U) >> 8);
 141              		.loc 1 1411 0
 142 0004 5A1C     		adds	r2, r3, #1
 143 0006 8282     		strh	r2, [r0, #20]
 144 0008 0A0A     		lsrs	r2, r1, #8
 145 000a 0469     		ldr	r4, [r0, #16]
 146 000c A446     		mov	ip, r4
 147 000e 6344     		add	r3, r3, ip
 148 0010 F033     		adds	r3, r3, #240
 149 0012 1A70     		strb	r2, [r3]
1412:Source\LwIP\src\core\ipv4/dhcp.c ****   dhcp->msg_out->options[dhcp->options_out_len++] = (u8_t) (value & 0x00ffU);
 150              		.loc 1 1412 0
 151 0014 0269     		ldr	r2, [r0, #16]
 152 0016 838A     		ldrh	r3, [r0, #20]
 153 0018 5C1C     		adds	r4, r3, #1
 154 001a 8482     		strh	r4, [r0, #20]
 155 001c D318     		adds	r3, r2, r3
 156 001e F033     		adds	r3, r3, #240
 157 0020 1970     		strb	r1, [r3]
1413:Source\LwIP\src\core\ipv4/dhcp.c **** }
 158              		.loc 1 1413 0
 159              		@ sp needed
 160 0022 10BD     		pop	{r4, pc}
 161              		.cfi_endproc
 162              	.LFE79:
 163              		.size	dhcp_option_short, .-dhcp_option_short
 164              		.section	.text.dhcp_option_long,"ax",%progbits
 165              		.align	2
 166              		.code	16
 167              		.thumb_func
 168              		.type	dhcp_option_long, %function
 169              	dhcp_option_long:
 170              	.LFB80:
1414:Source\LwIP\src\core\ipv4/dhcp.c **** 
1415:Source\LwIP\src\core\ipv4/dhcp.c **** static void
1416:Source\LwIP\src\core\ipv4/dhcp.c **** dhcp_option_long(struct dhcp *dhcp, u32_t value)
1417:Source\LwIP\src\core\ipv4/dhcp.c **** {
 171              		.loc 1 1417 0
 172              		.cfi_startproc
 173              		@ args = 0, pretend = 0, frame = 0
 174              		@ frame_needed = 0, uses_anonymous_args = 0
 175              	.LVL6:
 176 0000 10B5     		push	{r4, lr}
 177              		.cfi_def_cfa_offset 8
 178              		.cfi_offset 4, -8
 179              		.cfi_offset 14, -4
ARM GAS  C:\Users\Phuong\AppData\Local\Temp\ccmYXgep.s 			page 29


1418:Source\LwIP\src\core\ipv4/dhcp.c ****   LWIP_ASSERT("dhcp_option_long: dhcp->options_out_len + 4 <= DHCP_OPTIONS_LEN", dhcp->options_out_
 180              		.loc 1 1418 0
 181 0002 838A     		ldrh	r3, [r0, #20]
1419:Source\LwIP\src\core\ipv4/dhcp.c ****   dhcp->msg_out->options[dhcp->options_out_len++] = (u8_t)((value & 0xff000000UL) >> 24);
 182              		.loc 1 1419 0
 183 0004 5A1C     		adds	r2, r3, #1
 184 0006 8282     		strh	r2, [r0, #20]
 185 0008 0A0E     		lsrs	r2, r1, #24
 186 000a 0469     		ldr	r4, [r0, #16]
 187 000c A446     		mov	ip, r4
 188 000e 6344     		add	r3, r3, ip
 189 0010 F033     		adds	r3, r3, #240
 190 0012 1A70     		strb	r2, [r3]
1420:Source\LwIP\src\core\ipv4/dhcp.c ****   dhcp->msg_out->options[dhcp->options_out_len++] = (u8_t)((value & 0x00ff0000UL) >> 16);
 191              		.loc 1 1420 0
 192 0014 838A     		ldrh	r3, [r0, #20]
 193 0016 5A1C     		adds	r2, r3, #1
 194 0018 8282     		strh	r2, [r0, #20]
 195 001a 0A0C     		lsrs	r2, r1, #16
 196 001c 0469     		ldr	r4, [r0, #16]
 197 001e A446     		mov	ip, r4
 198 0020 6344     		add	r3, r3, ip
 199 0022 F033     		adds	r3, r3, #240
 200 0024 1A70     		strb	r2, [r3]
1421:Source\LwIP\src\core\ipv4/dhcp.c ****   dhcp->msg_out->options[dhcp->options_out_len++] = (u8_t)((value & 0x0000ff00UL) >> 8);
 201              		.loc 1 1421 0
 202 0026 838A     		ldrh	r3, [r0, #20]
 203 0028 5A1C     		adds	r2, r3, #1
 204 002a 8282     		strh	r2, [r0, #20]
 205 002c 0A0A     		lsrs	r2, r1, #8
 206 002e 0469     		ldr	r4, [r0, #16]
 207 0030 A446     		mov	ip, r4
 208 0032 6344     		add	r3, r3, ip
 209 0034 F033     		adds	r3, r3, #240
 210 0036 1A70     		strb	r2, [r3]
1422:Source\LwIP\src\core\ipv4/dhcp.c ****   dhcp->msg_out->options[dhcp->options_out_len++] = (u8_t)((value & 0x000000ffUL));
 211              		.loc 1 1422 0
 212 0038 0269     		ldr	r2, [r0, #16]
 213 003a 838A     		ldrh	r3, [r0, #20]
 214 003c 5C1C     		adds	r4, r3, #1
 215 003e 8482     		strh	r4, [r0, #20]
 216 0040 D318     		adds	r3, r2, r3
 217 0042 F033     		adds	r3, r3, #240
 218 0044 1970     		strb	r1, [r3]
1423:Source\LwIP\src\core\ipv4/dhcp.c **** }
 219              		.loc 1 1423 0
 220              		@ sp needed
 221 0046 10BD     		pop	{r4, pc}
 222              		.cfi_endproc
 223              	.LFE80:
 224              		.size	dhcp_option_long, .-dhcp_option_long
 225              		.section	.text.dhcp_option_trailer,"ax",%progbits
 226              		.align	2
 227              		.code	16
 228              		.thumb_func
 229              		.type	dhcp_option_trailer, %function
 230              	dhcp_option_trailer:
ARM GAS  C:\Users\Phuong\AppData\Local\Temp\ccmYXgep.s 			page 30


 231              	.LFB86:
1424:Source\LwIP\src\core\ipv4/dhcp.c **** 
1425:Source\LwIP\src\core\ipv4/dhcp.c **** #if LWIP_NETIF_HOSTNAME
1426:Source\LwIP\src\core\ipv4/dhcp.c **** static void
1427:Source\LwIP\src\core\ipv4/dhcp.c **** dhcp_option_hostname(struct dhcp *dhcp, struct netif *netif)
1428:Source\LwIP\src\core\ipv4/dhcp.c **** {
1429:Source\LwIP\src\core\ipv4/dhcp.c ****   if (netif->hostname != NULL) {
1430:Source\LwIP\src\core\ipv4/dhcp.c ****     size_t namelen = strlen(netif->hostname);
1431:Source\LwIP\src\core\ipv4/dhcp.c ****     if (namelen > 0) {
1432:Source\LwIP\src\core\ipv4/dhcp.c ****       size_t len;
1433:Source\LwIP\src\core\ipv4/dhcp.c ****       const char *p = netif->hostname;
1434:Source\LwIP\src\core\ipv4/dhcp.c ****       /* Shrink len to available bytes (need 2 bytes for OPTION_HOSTNAME
1435:Source\LwIP\src\core\ipv4/dhcp.c ****          and 1 byte for trailer) */
1436:Source\LwIP\src\core\ipv4/dhcp.c ****       size_t available = DHCP_OPTIONS_LEN - dhcp->options_out_len - 3;
1437:Source\LwIP\src\core\ipv4/dhcp.c ****       LWIP_ASSERT("DHCP: hostname is too long!", namelen <= available);
1438:Source\LwIP\src\core\ipv4/dhcp.c ****       len = LWIP_MIN(namelen, available);
1439:Source\LwIP\src\core\ipv4/dhcp.c ****       LWIP_ASSERT("DHCP: hostname is too long!", len <= 0xFF);
1440:Source\LwIP\src\core\ipv4/dhcp.c ****       dhcp_option(dhcp, DHCP_OPTION_HOSTNAME, (u8_t)len);
1441:Source\LwIP\src\core\ipv4/dhcp.c ****       while (len--) {
1442:Source\LwIP\src\core\ipv4/dhcp.c ****         dhcp_option_byte(dhcp, *p++);
1443:Source\LwIP\src\core\ipv4/dhcp.c ****       }
1444:Source\LwIP\src\core\ipv4/dhcp.c ****     }
1445:Source\LwIP\src\core\ipv4/dhcp.c ****   }
1446:Source\LwIP\src\core\ipv4/dhcp.c **** }
1447:Source\LwIP\src\core\ipv4/dhcp.c **** #endif /* LWIP_NETIF_HOSTNAME */
1448:Source\LwIP\src\core\ipv4/dhcp.c **** 
1449:Source\LwIP\src\core\ipv4/dhcp.c **** /**
1450:Source\LwIP\src\core\ipv4/dhcp.c ****  * Extract the DHCP message and the DHCP options.
1451:Source\LwIP\src\core\ipv4/dhcp.c ****  *
1452:Source\LwIP\src\core\ipv4/dhcp.c ****  * Extract the DHCP message and the DHCP options, each into a contiguous
1453:Source\LwIP\src\core\ipv4/dhcp.c ****  * piece of memory. As a DHCP message is variable sized by its options,
1454:Source\LwIP\src\core\ipv4/dhcp.c ****  * and also allows overriding some fields for options, the easy approach
1455:Source\LwIP\src\core\ipv4/dhcp.c ****  * is to first unfold the options into a contiguous piece of memory, and
1456:Source\LwIP\src\core\ipv4/dhcp.c ****  * use that further on.
1457:Source\LwIP\src\core\ipv4/dhcp.c ****  *
1458:Source\LwIP\src\core\ipv4/dhcp.c ****  */
1459:Source\LwIP\src\core\ipv4/dhcp.c **** static err_t
1460:Source\LwIP\src\core\ipv4/dhcp.c **** dhcp_parse_reply(struct dhcp *dhcp, struct pbuf *p)
1461:Source\LwIP\src\core\ipv4/dhcp.c **** {
1462:Source\LwIP\src\core\ipv4/dhcp.c ****   u8_t *options;
1463:Source\LwIP\src\core\ipv4/dhcp.c ****   u16_t offset;
1464:Source\LwIP\src\core\ipv4/dhcp.c ****   u16_t offset_max;
1465:Source\LwIP\src\core\ipv4/dhcp.c ****   u16_t options_idx;
1466:Source\LwIP\src\core\ipv4/dhcp.c ****   u16_t options_idx_max;
1467:Source\LwIP\src\core\ipv4/dhcp.c ****   struct pbuf *q;
1468:Source\LwIP\src\core\ipv4/dhcp.c ****   int parse_file_as_options = 0;
1469:Source\LwIP\src\core\ipv4/dhcp.c ****   int parse_sname_as_options = 0;
1470:Source\LwIP\src\core\ipv4/dhcp.c **** 
1471:Source\LwIP\src\core\ipv4/dhcp.c ****   /* clear received options */
1472:Source\LwIP\src\core\ipv4/dhcp.c ****   dhcp_clear_all_options(dhcp);
1473:Source\LwIP\src\core\ipv4/dhcp.c ****   /* check that beginning of dhcp_msg (up to and including chaddr) is in first pbuf */
1474:Source\LwIP\src\core\ipv4/dhcp.c ****   if (p->len < DHCP_SNAME_OFS) {
1475:Source\LwIP\src\core\ipv4/dhcp.c ****     return ERR_BUF;
1476:Source\LwIP\src\core\ipv4/dhcp.c ****   }
1477:Source\LwIP\src\core\ipv4/dhcp.c ****   dhcp->msg_in = (struct dhcp_msg *)p->payload;
1478:Source\LwIP\src\core\ipv4/dhcp.c **** #if LWIP_DHCP_BOOTP_FILE
1479:Source\LwIP\src\core\ipv4/dhcp.c ****   /* clear boot file name */
ARM GAS  C:\Users\Phuong\AppData\Local\Temp\ccmYXgep.s 			page 31


1480:Source\LwIP\src\core\ipv4/dhcp.c ****   dhcp->boot_file_name[0] = 0;
1481:Source\LwIP\src\core\ipv4/dhcp.c **** #endif /* LWIP_DHCP_BOOTP_FILE */
1482:Source\LwIP\src\core\ipv4/dhcp.c **** 
1483:Source\LwIP\src\core\ipv4/dhcp.c ****   /* parse options */
1484:Source\LwIP\src\core\ipv4/dhcp.c **** 
1485:Source\LwIP\src\core\ipv4/dhcp.c ****   /* start with options field */
1486:Source\LwIP\src\core\ipv4/dhcp.c ****   options_idx = DHCP_OPTIONS_OFS;
1487:Source\LwIP\src\core\ipv4/dhcp.c ****   /* parse options to the end of the received packet */
1488:Source\LwIP\src\core\ipv4/dhcp.c ****   options_idx_max = p->tot_len;
1489:Source\LwIP\src\core\ipv4/dhcp.c **** again:
1490:Source\LwIP\src\core\ipv4/dhcp.c ****   q = p;
1491:Source\LwIP\src\core\ipv4/dhcp.c ****   while ((q != NULL) && (options_idx >= q->len)) {
1492:Source\LwIP\src\core\ipv4/dhcp.c ****     options_idx -= q->len;
1493:Source\LwIP\src\core\ipv4/dhcp.c ****     options_idx_max -= q->len;
1494:Source\LwIP\src\core\ipv4/dhcp.c ****     q = q->next;
1495:Source\LwIP\src\core\ipv4/dhcp.c ****   }
1496:Source\LwIP\src\core\ipv4/dhcp.c ****   if (q == NULL) {
1497:Source\LwIP\src\core\ipv4/dhcp.c ****     return ERR_BUF;
1498:Source\LwIP\src\core\ipv4/dhcp.c ****   }
1499:Source\LwIP\src\core\ipv4/dhcp.c ****   offset = options_idx;
1500:Source\LwIP\src\core\ipv4/dhcp.c ****   offset_max = options_idx_max;
1501:Source\LwIP\src\core\ipv4/dhcp.c ****   options = (u8_t*)q->payload;
1502:Source\LwIP\src\core\ipv4/dhcp.c ****   /* at least 1 byte to read and no end marker, then at least 3 bytes to read? */
1503:Source\LwIP\src\core\ipv4/dhcp.c ****   while ((q != NULL) && (offset < offset_max) && (options[offset] != DHCP_OPTION_END)) {
1504:Source\LwIP\src\core\ipv4/dhcp.c ****     u8_t op = options[offset];
1505:Source\LwIP\src\core\ipv4/dhcp.c ****     u8_t len;
1506:Source\LwIP\src\core\ipv4/dhcp.c ****     u8_t decode_len = 0;
1507:Source\LwIP\src\core\ipv4/dhcp.c ****     int decode_idx = -1;
1508:Source\LwIP\src\core\ipv4/dhcp.c ****     u16_t val_offset = offset + 2;
1509:Source\LwIP\src\core\ipv4/dhcp.c ****     /* len byte might be in the next pbuf */
1510:Source\LwIP\src\core\ipv4/dhcp.c ****     if ((offset + 1) < q->len) {
1511:Source\LwIP\src\core\ipv4/dhcp.c ****       len = options[offset + 1];
1512:Source\LwIP\src\core\ipv4/dhcp.c ****     } else {
1513:Source\LwIP\src\core\ipv4/dhcp.c ****       len = (q->next != NULL ? ((u8_t*)q->next->payload)[0] : 0);
1514:Source\LwIP\src\core\ipv4/dhcp.c ****     }
1515:Source\LwIP\src\core\ipv4/dhcp.c ****     /* LWIP_DEBUGF(DHCP_DEBUG, ("msg_offset=%"U16_F", q->len=%"U16_F, msg_offset, q->len)); */
1516:Source\LwIP\src\core\ipv4/dhcp.c ****     decode_len = len;
1517:Source\LwIP\src\core\ipv4/dhcp.c ****     switch(op) {
1518:Source\LwIP\src\core\ipv4/dhcp.c ****       /* case(DHCP_OPTION_END): handled above */
1519:Source\LwIP\src\core\ipv4/dhcp.c ****       case(DHCP_OPTION_PAD):
1520:Source\LwIP\src\core\ipv4/dhcp.c ****         /* special option: no len encoded */
1521:Source\LwIP\src\core\ipv4/dhcp.c ****         decode_len = len = 0;
1522:Source\LwIP\src\core\ipv4/dhcp.c ****         /* will be increased below */
1523:Source\LwIP\src\core\ipv4/dhcp.c ****         offset--;
1524:Source\LwIP\src\core\ipv4/dhcp.c ****         break;
1525:Source\LwIP\src\core\ipv4/dhcp.c ****       case(DHCP_OPTION_SUBNET_MASK):
1526:Source\LwIP\src\core\ipv4/dhcp.c ****         LWIP_ERROR("len == 4", len == 4, return ERR_VAL;);
1527:Source\LwIP\src\core\ipv4/dhcp.c ****         decode_idx = DHCP_OPTION_IDX_SUBNET_MASK;
1528:Source\LwIP\src\core\ipv4/dhcp.c ****         break;
1529:Source\LwIP\src\core\ipv4/dhcp.c ****       case(DHCP_OPTION_ROUTER):
1530:Source\LwIP\src\core\ipv4/dhcp.c ****         decode_len = 4; /* only copy the first given router */
1531:Source\LwIP\src\core\ipv4/dhcp.c ****         LWIP_ERROR("len >= decode_len", len >= decode_len, return ERR_VAL;);
1532:Source\LwIP\src\core\ipv4/dhcp.c ****         decode_idx = DHCP_OPTION_IDX_ROUTER;
1533:Source\LwIP\src\core\ipv4/dhcp.c ****         break;
1534:Source\LwIP\src\core\ipv4/dhcp.c **** #if LWIP_DHCP_PROVIDE_DNS_SERVERS
1535:Source\LwIP\src\core\ipv4/dhcp.c ****       case(DHCP_OPTION_DNS_SERVER):
1536:Source\LwIP\src\core\ipv4/dhcp.c ****         /* special case: there might be more than one server */
ARM GAS  C:\Users\Phuong\AppData\Local\Temp\ccmYXgep.s 			page 32


1537:Source\LwIP\src\core\ipv4/dhcp.c ****         LWIP_ERROR("len %% 4 == 0", len % 4 == 0, return ERR_VAL;);
1538:Source\LwIP\src\core\ipv4/dhcp.c ****         /* limit number of DNS servers */
1539:Source\LwIP\src\core\ipv4/dhcp.c ****         decode_len = LWIP_MIN(len, 4 * DNS_MAX_SERVERS);
1540:Source\LwIP\src\core\ipv4/dhcp.c ****         LWIP_ERROR("len >= decode_len", len >= decode_len, return ERR_VAL;);
1541:Source\LwIP\src\core\ipv4/dhcp.c ****         decode_idx = DHCP_OPTION_IDX_DNS_SERVER;
1542:Source\LwIP\src\core\ipv4/dhcp.c ****         break;
1543:Source\LwIP\src\core\ipv4/dhcp.c **** #endif /* LWIP_DHCP_PROVIDE_DNS_SERVERS */
1544:Source\LwIP\src\core\ipv4/dhcp.c ****       case(DHCP_OPTION_LEASE_TIME):
1545:Source\LwIP\src\core\ipv4/dhcp.c ****         LWIP_ERROR("len == 4", len == 4, return ERR_VAL;);
1546:Source\LwIP\src\core\ipv4/dhcp.c ****         decode_idx = DHCP_OPTION_IDX_LEASE_TIME;
1547:Source\LwIP\src\core\ipv4/dhcp.c ****         break;
1548:Source\LwIP\src\core\ipv4/dhcp.c **** #if LWIP_DHCP_GET_NTP_SRV
1549:Source\LwIP\src\core\ipv4/dhcp.c ****       case(DHCP_OPTION_NTP):
1550:Source\LwIP\src\core\ipv4/dhcp.c ****         /* special case: there might be more than one server */
1551:Source\LwIP\src\core\ipv4/dhcp.c ****         LWIP_ERROR("len %% 4 == 0", len % 4 == 0, return ERR_VAL;);
1552:Source\LwIP\src\core\ipv4/dhcp.c ****         /* limit number of NTP servers */
1553:Source\LwIP\src\core\ipv4/dhcp.c ****         decode_len = LWIP_MIN(len, 4 * LWIP_DHCP_MAX_NTP_SERVERS);
1554:Source\LwIP\src\core\ipv4/dhcp.c ****         LWIP_ERROR("len >= decode_len", len >= decode_len, return ERR_VAL;);
1555:Source\LwIP\src\core\ipv4/dhcp.c ****         decode_idx = DHCP_OPTION_IDX_NTP_SERVER;
1556:Source\LwIP\src\core\ipv4/dhcp.c ****         break;
1557:Source\LwIP\src\core\ipv4/dhcp.c **** #endif /* LWIP_DHCP_GET_NTP_SRV*/
1558:Source\LwIP\src\core\ipv4/dhcp.c ****       case(DHCP_OPTION_OVERLOAD):
1559:Source\LwIP\src\core\ipv4/dhcp.c ****         LWIP_ERROR("len == 1", len == 1, return ERR_VAL;);
1560:Source\LwIP\src\core\ipv4/dhcp.c ****         /* decode overload only in options, not in file/sname: invalid packet */
1561:Source\LwIP\src\core\ipv4/dhcp.c ****         LWIP_ERROR("overload in file/sname", options_idx == DHCP_OPTIONS_OFS, return ERR_VAL;);
1562:Source\LwIP\src\core\ipv4/dhcp.c ****         decode_idx = DHCP_OPTION_IDX_OVERLOAD;
1563:Source\LwIP\src\core\ipv4/dhcp.c ****         break;
1564:Source\LwIP\src\core\ipv4/dhcp.c ****       case(DHCP_OPTION_MESSAGE_TYPE):
1565:Source\LwIP\src\core\ipv4/dhcp.c ****         LWIP_ERROR("len == 1", len == 1, return ERR_VAL;);
1566:Source\LwIP\src\core\ipv4/dhcp.c ****         decode_idx = DHCP_OPTION_IDX_MSG_TYPE;
1567:Source\LwIP\src\core\ipv4/dhcp.c ****         break;
1568:Source\LwIP\src\core\ipv4/dhcp.c ****       case(DHCP_OPTION_SERVER_ID):
1569:Source\LwIP\src\core\ipv4/dhcp.c ****         LWIP_ERROR("len == 4", len == 4, return ERR_VAL;);
1570:Source\LwIP\src\core\ipv4/dhcp.c ****         decode_idx = DHCP_OPTION_IDX_SERVER_ID;
1571:Source\LwIP\src\core\ipv4/dhcp.c ****         break;
1572:Source\LwIP\src\core\ipv4/dhcp.c ****       case(DHCP_OPTION_T1):
1573:Source\LwIP\src\core\ipv4/dhcp.c ****         LWIP_ERROR("len == 4", len == 4, return ERR_VAL;);
1574:Source\LwIP\src\core\ipv4/dhcp.c ****         decode_idx = DHCP_OPTION_IDX_T1;
1575:Source\LwIP\src\core\ipv4/dhcp.c ****         break;
1576:Source\LwIP\src\core\ipv4/dhcp.c ****       case(DHCP_OPTION_T2):
1577:Source\LwIP\src\core\ipv4/dhcp.c ****         LWIP_ERROR("len == 4", len == 4, return ERR_VAL;);
1578:Source\LwIP\src\core\ipv4/dhcp.c ****         decode_idx = DHCP_OPTION_IDX_T2;
1579:Source\LwIP\src\core\ipv4/dhcp.c ****         break;
1580:Source\LwIP\src\core\ipv4/dhcp.c ****       default:
1581:Source\LwIP\src\core\ipv4/dhcp.c ****         decode_len = 0;
1582:Source\LwIP\src\core\ipv4/dhcp.c ****         LWIP_DEBUGF(DHCP_DEBUG, ("skipping option %"U16_F" in options\n", (u16_t)op));
1583:Source\LwIP\src\core\ipv4/dhcp.c ****         break;
1584:Source\LwIP\src\core\ipv4/dhcp.c ****     }
1585:Source\LwIP\src\core\ipv4/dhcp.c ****     offset += len + 2;
1586:Source\LwIP\src\core\ipv4/dhcp.c ****     if (decode_len > 0) {
1587:Source\LwIP\src\core\ipv4/dhcp.c ****       u32_t value = 0;
1588:Source\LwIP\src\core\ipv4/dhcp.c ****       u16_t copy_len;
1589:Source\LwIP\src\core\ipv4/dhcp.c **** decode_next:
1590:Source\LwIP\src\core\ipv4/dhcp.c ****       LWIP_ASSERT("check decode_idx", decode_idx >= 0 && decode_idx < DHCP_OPTION_IDX_MAX);
1591:Source\LwIP\src\core\ipv4/dhcp.c ****       if (!dhcp_option_given(dhcp, decode_idx)) {
1592:Source\LwIP\src\core\ipv4/dhcp.c ****         copy_len = LWIP_MIN(decode_len, 4);
1593:Source\LwIP\src\core\ipv4/dhcp.c ****         if (pbuf_copy_partial(q, &value, copy_len, val_offset) != copy_len) {
ARM GAS  C:\Users\Phuong\AppData\Local\Temp\ccmYXgep.s 			page 33


1594:Source\LwIP\src\core\ipv4/dhcp.c ****           return ERR_BUF;
1595:Source\LwIP\src\core\ipv4/dhcp.c ****         }
1596:Source\LwIP\src\core\ipv4/dhcp.c ****         if (decode_len > 4) {
1597:Source\LwIP\src\core\ipv4/dhcp.c ****           /* decode more than one u32_t */
1598:Source\LwIP\src\core\ipv4/dhcp.c ****           LWIP_ERROR("decode_len %% 4 == 0", decode_len % 4 == 0, return ERR_VAL;);
1599:Source\LwIP\src\core\ipv4/dhcp.c ****           dhcp_got_option(dhcp, decode_idx);
1600:Source\LwIP\src\core\ipv4/dhcp.c ****           dhcp_set_option_value(dhcp, decode_idx, lwip_htonl(value));
1601:Source\LwIP\src\core\ipv4/dhcp.c ****           decode_len -= 4;
1602:Source\LwIP\src\core\ipv4/dhcp.c ****           val_offset += 4;
1603:Source\LwIP\src\core\ipv4/dhcp.c ****           decode_idx++;
1604:Source\LwIP\src\core\ipv4/dhcp.c ****           goto decode_next;
1605:Source\LwIP\src\core\ipv4/dhcp.c ****         } else if (decode_len == 4) {
1606:Source\LwIP\src\core\ipv4/dhcp.c ****           value = lwip_ntohl(value);
1607:Source\LwIP\src\core\ipv4/dhcp.c ****         } else {
1608:Source\LwIP\src\core\ipv4/dhcp.c ****           LWIP_ERROR("invalid decode_len", decode_len == 1, return ERR_VAL;);
1609:Source\LwIP\src\core\ipv4/dhcp.c ****           value = ((u8_t*)&value)[0];
1610:Source\LwIP\src\core\ipv4/dhcp.c ****         }
1611:Source\LwIP\src\core\ipv4/dhcp.c ****         dhcp_got_option(dhcp, decode_idx);
1612:Source\LwIP\src\core\ipv4/dhcp.c ****         dhcp_set_option_value(dhcp, decode_idx, value);
1613:Source\LwIP\src\core\ipv4/dhcp.c ****       }
1614:Source\LwIP\src\core\ipv4/dhcp.c ****     }
1615:Source\LwIP\src\core\ipv4/dhcp.c ****     if (offset >= q->len) {
1616:Source\LwIP\src\core\ipv4/dhcp.c ****       offset -= q->len;
1617:Source\LwIP\src\core\ipv4/dhcp.c ****       offset_max -= q->len;
1618:Source\LwIP\src\core\ipv4/dhcp.c ****       if ((offset < offset_max) && offset_max) {
1619:Source\LwIP\src\core\ipv4/dhcp.c ****         q = q->next;
1620:Source\LwIP\src\core\ipv4/dhcp.c ****         LWIP_ERROR("next pbuf was null", q != NULL, return ERR_VAL;);
1621:Source\LwIP\src\core\ipv4/dhcp.c ****         options = (u8_t*)q->payload;
1622:Source\LwIP\src\core\ipv4/dhcp.c ****       } else {
1623:Source\LwIP\src\core\ipv4/dhcp.c ****         /* We've run out of bytes, probably no end marker. Don't proceed. */
1624:Source\LwIP\src\core\ipv4/dhcp.c ****         break;
1625:Source\LwIP\src\core\ipv4/dhcp.c ****       }
1626:Source\LwIP\src\core\ipv4/dhcp.c ****     }
1627:Source\LwIP\src\core\ipv4/dhcp.c ****   }
1628:Source\LwIP\src\core\ipv4/dhcp.c ****   /* is this an overloaded message? */
1629:Source\LwIP\src\core\ipv4/dhcp.c ****   if (dhcp_option_given(dhcp, DHCP_OPTION_IDX_OVERLOAD)) {
1630:Source\LwIP\src\core\ipv4/dhcp.c ****     u32_t overload = dhcp_get_option_value(dhcp, DHCP_OPTION_IDX_OVERLOAD);
1631:Source\LwIP\src\core\ipv4/dhcp.c ****     dhcp_clear_option(dhcp, DHCP_OPTION_IDX_OVERLOAD);
1632:Source\LwIP\src\core\ipv4/dhcp.c ****     if (overload == DHCP_OVERLOAD_FILE) {
1633:Source\LwIP\src\core\ipv4/dhcp.c ****       parse_file_as_options = 1;
1634:Source\LwIP\src\core\ipv4/dhcp.c ****       LWIP_DEBUGF(DHCP_DEBUG | LWIP_DBG_TRACE, ("overloaded file field\n"));
1635:Source\LwIP\src\core\ipv4/dhcp.c ****     } else if (overload == DHCP_OVERLOAD_SNAME) {
1636:Source\LwIP\src\core\ipv4/dhcp.c ****       parse_sname_as_options = 1;
1637:Source\LwIP\src\core\ipv4/dhcp.c ****       LWIP_DEBUGF(DHCP_DEBUG | LWIP_DBG_TRACE, ("overloaded sname field\n"));
1638:Source\LwIP\src\core\ipv4/dhcp.c ****     } else if (overload == DHCP_OVERLOAD_SNAME_FILE) {
1639:Source\LwIP\src\core\ipv4/dhcp.c ****       parse_sname_as_options = 1;
1640:Source\LwIP\src\core\ipv4/dhcp.c ****       parse_file_as_options = 1;
1641:Source\LwIP\src\core\ipv4/dhcp.c ****       LWIP_DEBUGF(DHCP_DEBUG | LWIP_DBG_TRACE, ("overloaded sname and file field\n"));
1642:Source\LwIP\src\core\ipv4/dhcp.c ****     } else {
1643:Source\LwIP\src\core\ipv4/dhcp.c ****       LWIP_DEBUGF(DHCP_DEBUG | LWIP_DBG_TRACE, ("invalid overload option: %d\n", (int)overload));
1644:Source\LwIP\src\core\ipv4/dhcp.c ****     }
1645:Source\LwIP\src\core\ipv4/dhcp.c **** #if LWIP_DHCP_BOOTP_FILE
1646:Source\LwIP\src\core\ipv4/dhcp.c ****     if (!parse_file_as_options) {
1647:Source\LwIP\src\core\ipv4/dhcp.c ****       /* only do this for ACK messages */
1648:Source\LwIP\src\core\ipv4/dhcp.c ****       if (dhcp_option_given(dhcp, DHCP_OPTION_IDX_MSG_TYPE) &&
1649:Source\LwIP\src\core\ipv4/dhcp.c ****         (dhcp_get_option_value(dhcp, DHCP_OPTION_IDX_MSG_TYPE) == DHCP_ACK))
1650:Source\LwIP\src\core\ipv4/dhcp.c ****       /* copy bootp file name, don't care for sname (server hostname) */
ARM GAS  C:\Users\Phuong\AppData\Local\Temp\ccmYXgep.s 			page 34


1651:Source\LwIP\src\core\ipv4/dhcp.c ****       if (pbuf_copy_partial(p, dhcp->boot_file_name, DHCP_FILE_LEN-1, DHCP_FILE_OFS) != (DHCP_FILE_
1652:Source\LwIP\src\core\ipv4/dhcp.c ****         return ERR_BUF;
1653:Source\LwIP\src\core\ipv4/dhcp.c ****       }
1654:Source\LwIP\src\core\ipv4/dhcp.c ****       /* make sure the string is really NULL-terminated */
1655:Source\LwIP\src\core\ipv4/dhcp.c ****       dhcp->boot_file_name[DHCP_FILE_LEN-1] = 0;
1656:Source\LwIP\src\core\ipv4/dhcp.c ****     }
1657:Source\LwIP\src\core\ipv4/dhcp.c **** #endif /* LWIP_DHCP_BOOTP_FILE */
1658:Source\LwIP\src\core\ipv4/dhcp.c ****   }
1659:Source\LwIP\src\core\ipv4/dhcp.c ****   if (parse_file_as_options) {
1660:Source\LwIP\src\core\ipv4/dhcp.c ****     /* if both are overloaded, parse file first and then sname (RFC 2131 ch. 4.1) */
1661:Source\LwIP\src\core\ipv4/dhcp.c ****     parse_file_as_options = 0;
1662:Source\LwIP\src\core\ipv4/dhcp.c ****     options_idx = DHCP_FILE_OFS;
1663:Source\LwIP\src\core\ipv4/dhcp.c ****     options_idx_max = DHCP_FILE_OFS + DHCP_FILE_LEN;
1664:Source\LwIP\src\core\ipv4/dhcp.c ****     goto again;
1665:Source\LwIP\src\core\ipv4/dhcp.c ****   } else if (parse_sname_as_options) {
1666:Source\LwIP\src\core\ipv4/dhcp.c ****     parse_sname_as_options = 0;
1667:Source\LwIP\src\core\ipv4/dhcp.c ****     options_idx = DHCP_SNAME_OFS;
1668:Source\LwIP\src\core\ipv4/dhcp.c ****     options_idx_max = DHCP_SNAME_OFS + DHCP_SNAME_LEN;
1669:Source\LwIP\src\core\ipv4/dhcp.c ****     goto again;
1670:Source\LwIP\src\core\ipv4/dhcp.c ****   }
1671:Source\LwIP\src\core\ipv4/dhcp.c ****   return ERR_OK;
1672:Source\LwIP\src\core\ipv4/dhcp.c **** }
1673:Source\LwIP\src\core\ipv4/dhcp.c **** 
1674:Source\LwIP\src\core\ipv4/dhcp.c **** /**
1675:Source\LwIP\src\core\ipv4/dhcp.c ****  * If an incoming DHCP message is in response to us, then trigger the state machine
1676:Source\LwIP\src\core\ipv4/dhcp.c ****  */
1677:Source\LwIP\src\core\ipv4/dhcp.c **** static void
1678:Source\LwIP\src\core\ipv4/dhcp.c **** dhcp_recv(void *arg, struct udp_pcb *pcb, struct pbuf *p, const ip_addr_t *addr, u16_t port)
1679:Source\LwIP\src\core\ipv4/dhcp.c **** {
1680:Source\LwIP\src\core\ipv4/dhcp.c ****   struct netif *netif = ip_current_input_netif();
1681:Source\LwIP\src\core\ipv4/dhcp.c ****   struct dhcp *dhcp = netif_dhcp_data(netif);
1682:Source\LwIP\src\core\ipv4/dhcp.c ****   struct dhcp_msg *reply_msg = (struct dhcp_msg *)p->payload;
1683:Source\LwIP\src\core\ipv4/dhcp.c ****   u8_t msg_type;
1684:Source\LwIP\src\core\ipv4/dhcp.c ****   u8_t i;
1685:Source\LwIP\src\core\ipv4/dhcp.c **** 
1686:Source\LwIP\src\core\ipv4/dhcp.c ****   LWIP_UNUSED_ARG(arg);
1687:Source\LwIP\src\core\ipv4/dhcp.c **** 
1688:Source\LwIP\src\core\ipv4/dhcp.c ****   /* Caught DHCP message from netif that does not have DHCP enabled? -> not interested */
1689:Source\LwIP\src\core\ipv4/dhcp.c ****   if ((dhcp == NULL) || (dhcp->pcb_allocated == 0)) {
1690:Source\LwIP\src\core\ipv4/dhcp.c ****     goto free_pbuf_and_return;
1691:Source\LwIP\src\core\ipv4/dhcp.c ****   }
1692:Source\LwIP\src\core\ipv4/dhcp.c **** 
1693:Source\LwIP\src\core\ipv4/dhcp.c ****   LWIP_ASSERT("invalid server address type", IP_IS_V4(addr));
1694:Source\LwIP\src\core\ipv4/dhcp.c **** 
1695:Source\LwIP\src\core\ipv4/dhcp.c ****   LWIP_DEBUGF(DHCP_DEBUG | LWIP_DBG_TRACE, ("dhcp_recv(pbuf = %p) from DHCP server %"U16_F".%"U16_F
1696:Source\LwIP\src\core\ipv4/dhcp.c ****     ip4_addr1_16(ip_2_ip4(addr)), ip4_addr2_16(ip_2_ip4(addr)), ip4_addr3_16(ip_2_ip4(addr)), ip4_a
1697:Source\LwIP\src\core\ipv4/dhcp.c ****   LWIP_DEBUGF(DHCP_DEBUG | LWIP_DBG_TRACE, ("pbuf->len = %"U16_F"\n", p->len));
1698:Source\LwIP\src\core\ipv4/dhcp.c ****   LWIP_DEBUGF(DHCP_DEBUG | LWIP_DBG_TRACE, ("pbuf->tot_len = %"U16_F"\n", p->tot_len));
1699:Source\LwIP\src\core\ipv4/dhcp.c ****   /* prevent warnings about unused arguments */
1700:Source\LwIP\src\core\ipv4/dhcp.c ****   LWIP_UNUSED_ARG(pcb);
1701:Source\LwIP\src\core\ipv4/dhcp.c ****   LWIP_UNUSED_ARG(addr);
1702:Source\LwIP\src\core\ipv4/dhcp.c ****   LWIP_UNUSED_ARG(port);
1703:Source\LwIP\src\core\ipv4/dhcp.c **** 
1704:Source\LwIP\src\core\ipv4/dhcp.c ****   LWIP_ASSERT("reply wasn't freed", dhcp->msg_in == NULL);
1705:Source\LwIP\src\core\ipv4/dhcp.c **** 
1706:Source\LwIP\src\core\ipv4/dhcp.c ****   if (p->len < DHCP_MIN_REPLY_LEN) {
1707:Source\LwIP\src\core\ipv4/dhcp.c ****     LWIP_DEBUGF(DHCP_DEBUG | LWIP_DBG_TRACE | LWIP_DBG_LEVEL_WARNING, ("DHCP reply message or pbuf 
ARM GAS  C:\Users\Phuong\AppData\Local\Temp\ccmYXgep.s 			page 35


1708:Source\LwIP\src\core\ipv4/dhcp.c ****     goto free_pbuf_and_return;
1709:Source\LwIP\src\core\ipv4/dhcp.c ****   }
1710:Source\LwIP\src\core\ipv4/dhcp.c **** 
1711:Source\LwIP\src\core\ipv4/dhcp.c ****   if (reply_msg->op != DHCP_BOOTREPLY) {
1712:Source\LwIP\src\core\ipv4/dhcp.c ****     LWIP_DEBUGF(DHCP_DEBUG | LWIP_DBG_TRACE | LWIP_DBG_LEVEL_WARNING, ("not a DHCP reply message, b
1713:Source\LwIP\src\core\ipv4/dhcp.c ****     goto free_pbuf_and_return;
1714:Source\LwIP\src\core\ipv4/dhcp.c ****   }
1715:Source\LwIP\src\core\ipv4/dhcp.c ****   /* iterate through hardware address and match against DHCP message */
1716:Source\LwIP\src\core\ipv4/dhcp.c ****   for (i = 0; i < netif->hwaddr_len && i < NETIF_MAX_HWADDR_LEN && i < DHCP_CHADDR_LEN; i++) {
1717:Source\LwIP\src\core\ipv4/dhcp.c ****     if (netif->hwaddr[i] != reply_msg->chaddr[i]) {
1718:Source\LwIP\src\core\ipv4/dhcp.c ****       LWIP_DEBUGF(DHCP_DEBUG | LWIP_DBG_TRACE | LWIP_DBG_LEVEL_WARNING,
1719:Source\LwIP\src\core\ipv4/dhcp.c ****         ("netif->hwaddr[%"U16_F"]==%02"X16_F" != reply_msg->chaddr[%"U16_F"]==%02"X16_F"\n",
1720:Source\LwIP\src\core\ipv4/dhcp.c ****         (u16_t)i, (u16_t)netif->hwaddr[i], (u16_t)i, (u16_t)reply_msg->chaddr[i]));
1721:Source\LwIP\src\core\ipv4/dhcp.c ****       goto free_pbuf_and_return;
1722:Source\LwIP\src\core\ipv4/dhcp.c ****     }
1723:Source\LwIP\src\core\ipv4/dhcp.c ****   }
1724:Source\LwIP\src\core\ipv4/dhcp.c ****   /* match transaction ID against what we expected */
1725:Source\LwIP\src\core\ipv4/dhcp.c ****   if (lwip_ntohl(reply_msg->xid) != dhcp->xid) {
1726:Source\LwIP\src\core\ipv4/dhcp.c ****     LWIP_DEBUGF(DHCP_DEBUG | LWIP_DBG_TRACE | LWIP_DBG_LEVEL_WARNING,
1727:Source\LwIP\src\core\ipv4/dhcp.c ****       ("transaction id mismatch reply_msg->xid(%"X32_F")!=dhcp->xid(%"X32_F")\n",lwip_ntohl(reply_m
1728:Source\LwIP\src\core\ipv4/dhcp.c ****     goto free_pbuf_and_return;
1729:Source\LwIP\src\core\ipv4/dhcp.c ****   }
1730:Source\LwIP\src\core\ipv4/dhcp.c ****   /* option fields could be unfold? */
1731:Source\LwIP\src\core\ipv4/dhcp.c ****   if (dhcp_parse_reply(dhcp, p) != ERR_OK) {
1732:Source\LwIP\src\core\ipv4/dhcp.c ****     LWIP_DEBUGF(DHCP_DEBUG | LWIP_DBG_TRACE | LWIP_DBG_LEVEL_SERIOUS,
1733:Source\LwIP\src\core\ipv4/dhcp.c ****       ("problem unfolding DHCP message - too short on memory?\n"));
1734:Source\LwIP\src\core\ipv4/dhcp.c ****     goto free_pbuf_and_return;
1735:Source\LwIP\src\core\ipv4/dhcp.c ****   }
1736:Source\LwIP\src\core\ipv4/dhcp.c **** 
1737:Source\LwIP\src\core\ipv4/dhcp.c ****   LWIP_DEBUGF(DHCP_DEBUG | LWIP_DBG_TRACE, ("searching DHCP_OPTION_MESSAGE_TYPE\n"));
1738:Source\LwIP\src\core\ipv4/dhcp.c ****   /* obtain pointer to DHCP message type */
1739:Source\LwIP\src\core\ipv4/dhcp.c ****   if (!dhcp_option_given(dhcp, DHCP_OPTION_IDX_MSG_TYPE)) {
1740:Source\LwIP\src\core\ipv4/dhcp.c ****     LWIP_DEBUGF(DHCP_DEBUG | LWIP_DBG_TRACE | LWIP_DBG_LEVEL_WARNING, ("DHCP_OPTION_MESSAGE_TYPE op
1741:Source\LwIP\src\core\ipv4/dhcp.c ****     goto free_pbuf_and_return;
1742:Source\LwIP\src\core\ipv4/dhcp.c ****   }
1743:Source\LwIP\src\core\ipv4/dhcp.c **** 
1744:Source\LwIP\src\core\ipv4/dhcp.c ****   /* read DHCP message type */
1745:Source\LwIP\src\core\ipv4/dhcp.c ****   msg_type = (u8_t)dhcp_get_option_value(dhcp, DHCP_OPTION_IDX_MSG_TYPE);
1746:Source\LwIP\src\core\ipv4/dhcp.c ****   /* message type is DHCP ACK? */
1747:Source\LwIP\src\core\ipv4/dhcp.c ****   if (msg_type == DHCP_ACK) {
1748:Source\LwIP\src\core\ipv4/dhcp.c ****     LWIP_DEBUGF(DHCP_DEBUG | LWIP_DBG_TRACE, ("DHCP_ACK received\n"));
1749:Source\LwIP\src\core\ipv4/dhcp.c ****     /* in requesting state? */
1750:Source\LwIP\src\core\ipv4/dhcp.c ****     if (dhcp->state == DHCP_STATE_REQUESTING) {
1751:Source\LwIP\src\core\ipv4/dhcp.c ****       dhcp_handle_ack(netif);
1752:Source\LwIP\src\core\ipv4/dhcp.c **** #if DHCP_DOES_ARP_CHECK
1753:Source\LwIP\src\core\ipv4/dhcp.c ****       if ((netif->flags & NETIF_FLAG_ETHARP) != 0) {
1754:Source\LwIP\src\core\ipv4/dhcp.c ****         /* check if the acknowledged lease address is already in use */
1755:Source\LwIP\src\core\ipv4/dhcp.c ****         dhcp_check(netif);
1756:Source\LwIP\src\core\ipv4/dhcp.c ****       } else {
1757:Source\LwIP\src\core\ipv4/dhcp.c ****         /* bind interface to the acknowledged lease address */
1758:Source\LwIP\src\core\ipv4/dhcp.c ****         dhcp_bind(netif);
1759:Source\LwIP\src\core\ipv4/dhcp.c ****       }
1760:Source\LwIP\src\core\ipv4/dhcp.c **** #else
1761:Source\LwIP\src\core\ipv4/dhcp.c ****       /* bind interface to the acknowledged lease address */
1762:Source\LwIP\src\core\ipv4/dhcp.c ****       dhcp_bind(netif);
1763:Source\LwIP\src\core\ipv4/dhcp.c **** #endif
1764:Source\LwIP\src\core\ipv4/dhcp.c ****     }
ARM GAS  C:\Users\Phuong\AppData\Local\Temp\ccmYXgep.s 			page 36


1765:Source\LwIP\src\core\ipv4/dhcp.c ****     /* already bound to the given lease address? */
1766:Source\LwIP\src\core\ipv4/dhcp.c ****     else if ((dhcp->state == DHCP_STATE_REBOOTING) || (dhcp->state == DHCP_STATE_REBINDING) ||
1767:Source\LwIP\src\core\ipv4/dhcp.c ****              (dhcp->state == DHCP_STATE_RENEWING)) {
1768:Source\LwIP\src\core\ipv4/dhcp.c ****       dhcp_handle_ack(netif);
1769:Source\LwIP\src\core\ipv4/dhcp.c ****       dhcp_bind(netif);
1770:Source\LwIP\src\core\ipv4/dhcp.c ****     }
1771:Source\LwIP\src\core\ipv4/dhcp.c ****   }
1772:Source\LwIP\src\core\ipv4/dhcp.c ****   /* received a DHCP_NAK in appropriate state? */
1773:Source\LwIP\src\core\ipv4/dhcp.c ****   else if ((msg_type == DHCP_NAK) &&
1774:Source\LwIP\src\core\ipv4/dhcp.c ****     ((dhcp->state == DHCP_STATE_REBOOTING) || (dhcp->state == DHCP_STATE_REQUESTING) ||
1775:Source\LwIP\src\core\ipv4/dhcp.c ****      (dhcp->state == DHCP_STATE_REBINDING) || (dhcp->state == DHCP_STATE_RENEWING  ))) {
1776:Source\LwIP\src\core\ipv4/dhcp.c ****     LWIP_DEBUGF(DHCP_DEBUG | LWIP_DBG_TRACE, ("DHCP_NAK received\n"));
1777:Source\LwIP\src\core\ipv4/dhcp.c ****     dhcp_handle_nak(netif);
1778:Source\LwIP\src\core\ipv4/dhcp.c ****   }
1779:Source\LwIP\src\core\ipv4/dhcp.c ****   /* received a DHCP_OFFER in DHCP_STATE_SELECTING state? */
1780:Source\LwIP\src\core\ipv4/dhcp.c ****   else if ((msg_type == DHCP_OFFER) && (dhcp->state == DHCP_STATE_SELECTING)) {
1781:Source\LwIP\src\core\ipv4/dhcp.c ****     LWIP_DEBUGF(DHCP_DEBUG | LWIP_DBG_TRACE, ("DHCP_OFFER received in DHCP_STATE_SELECTING state\n"
1782:Source\LwIP\src\core\ipv4/dhcp.c ****     dhcp->request_timeout = 0;
1783:Source\LwIP\src\core\ipv4/dhcp.c ****     /* remember offered lease */
1784:Source\LwIP\src\core\ipv4/dhcp.c ****     dhcp_handle_offer(netif);
1785:Source\LwIP\src\core\ipv4/dhcp.c ****   }
1786:Source\LwIP\src\core\ipv4/dhcp.c **** 
1787:Source\LwIP\src\core\ipv4/dhcp.c **** free_pbuf_and_return:
1788:Source\LwIP\src\core\ipv4/dhcp.c ****   if (dhcp != NULL) {
1789:Source\LwIP\src\core\ipv4/dhcp.c ****     dhcp->msg_in = NULL;
1790:Source\LwIP\src\core\ipv4/dhcp.c ****   }
1791:Source\LwIP\src\core\ipv4/dhcp.c ****   pbuf_free(p);
1792:Source\LwIP\src\core\ipv4/dhcp.c **** }
1793:Source\LwIP\src\core\ipv4/dhcp.c **** 
1794:Source\LwIP\src\core\ipv4/dhcp.c **** /**
1795:Source\LwIP\src\core\ipv4/dhcp.c ****  * Create a DHCP request, fill in common headers
1796:Source\LwIP\src\core\ipv4/dhcp.c ****  *
1797:Source\LwIP\src\core\ipv4/dhcp.c ****  * @param netif the netif under DHCP control
1798:Source\LwIP\src\core\ipv4/dhcp.c ****  * @param dhcp dhcp control struct
1799:Source\LwIP\src\core\ipv4/dhcp.c ****  * @param message_type message type of the request
1800:Source\LwIP\src\core\ipv4/dhcp.c ****  */
1801:Source\LwIP\src\core\ipv4/dhcp.c **** static err_t
1802:Source\LwIP\src\core\ipv4/dhcp.c **** dhcp_create_msg(struct netif *netif, struct dhcp *dhcp, u8_t message_type)
1803:Source\LwIP\src\core\ipv4/dhcp.c **** {
1804:Source\LwIP\src\core\ipv4/dhcp.c ****   u16_t i;
1805:Source\LwIP\src\core\ipv4/dhcp.c **** #ifndef DHCP_GLOBAL_XID
1806:Source\LwIP\src\core\ipv4/dhcp.c ****   /** default global transaction identifier starting value (easy to match
1807:Source\LwIP\src\core\ipv4/dhcp.c ****    *  with a packet analyser). We simply increment for each new request.
1808:Source\LwIP\src\core\ipv4/dhcp.c ****    *  Predefine DHCP_GLOBAL_XID to a better value or a function call to generate one
1809:Source\LwIP\src\core\ipv4/dhcp.c ****    *  at runtime, any supporting function prototypes can be defined in DHCP_GLOBAL_XID_HEADER */
1810:Source\LwIP\src\core\ipv4/dhcp.c **** #if DHCP_CREATE_RAND_XID && defined(LWIP_RAND)
1811:Source\LwIP\src\core\ipv4/dhcp.c ****   static u32_t xid;
1812:Source\LwIP\src\core\ipv4/dhcp.c **** #else /* DHCP_CREATE_RAND_XID && defined(LWIP_RAND) */
1813:Source\LwIP\src\core\ipv4/dhcp.c ****   static u32_t xid = 0xABCD0000;
1814:Source\LwIP\src\core\ipv4/dhcp.c **** #endif /* DHCP_CREATE_RAND_XID && defined(LWIP_RAND) */
1815:Source\LwIP\src\core\ipv4/dhcp.c **** #else
1816:Source\LwIP\src\core\ipv4/dhcp.c ****   if (!xid_initialised) {
1817:Source\LwIP\src\core\ipv4/dhcp.c ****     xid = DHCP_GLOBAL_XID;
1818:Source\LwIP\src\core\ipv4/dhcp.c ****     xid_initialised = !xid_initialised;
1819:Source\LwIP\src\core\ipv4/dhcp.c ****   }
1820:Source\LwIP\src\core\ipv4/dhcp.c **** #endif
1821:Source\LwIP\src\core\ipv4/dhcp.c ****   LWIP_ERROR("dhcp_create_msg: netif != NULL", (netif != NULL), return ERR_ARG;);
ARM GAS  C:\Users\Phuong\AppData\Local\Temp\ccmYXgep.s 			page 37


1822:Source\LwIP\src\core\ipv4/dhcp.c ****   LWIP_ERROR("dhcp_create_msg: dhcp != NULL", (dhcp != NULL), return ERR_VAL;);
1823:Source\LwIP\src\core\ipv4/dhcp.c ****   LWIP_ASSERT("dhcp_create_msg: dhcp->p_out == NULL", dhcp->p_out == NULL);
1824:Source\LwIP\src\core\ipv4/dhcp.c ****   LWIP_ASSERT("dhcp_create_msg: dhcp->msg_out == NULL", dhcp->msg_out == NULL);
1825:Source\LwIP\src\core\ipv4/dhcp.c ****   dhcp->p_out = pbuf_alloc(PBUF_TRANSPORT, sizeof(struct dhcp_msg), PBUF_RAM);
1826:Source\LwIP\src\core\ipv4/dhcp.c ****   if (dhcp->p_out == NULL) {
1827:Source\LwIP\src\core\ipv4/dhcp.c ****     LWIP_DEBUGF(DHCP_DEBUG | LWIP_DBG_TRACE | LWIP_DBG_LEVEL_SERIOUS,
1828:Source\LwIP\src\core\ipv4/dhcp.c ****       ("dhcp_create_msg(): could not allocate pbuf\n"));
1829:Source\LwIP\src\core\ipv4/dhcp.c ****     return ERR_MEM;
1830:Source\LwIP\src\core\ipv4/dhcp.c ****   }
1831:Source\LwIP\src\core\ipv4/dhcp.c ****   LWIP_ASSERT("dhcp_create_msg: check that first pbuf can hold struct dhcp_msg",
1832:Source\LwIP\src\core\ipv4/dhcp.c ****            (dhcp->p_out->len >= sizeof(struct dhcp_msg)));
1833:Source\LwIP\src\core\ipv4/dhcp.c **** 
1834:Source\LwIP\src\core\ipv4/dhcp.c ****   /* DHCP_REQUEST should reuse 'xid' from DHCPOFFER */
1835:Source\LwIP\src\core\ipv4/dhcp.c ****   if ((message_type != DHCP_REQUEST) || (dhcp->state == DHCP_STATE_REBOOTING)) {
1836:Source\LwIP\src\core\ipv4/dhcp.c ****     /* reuse transaction identifier in retransmissions */
1837:Source\LwIP\src\core\ipv4/dhcp.c ****     if (dhcp->tries == 0) {
1838:Source\LwIP\src\core\ipv4/dhcp.c **** #if DHCP_CREATE_RAND_XID && defined(LWIP_RAND)
1839:Source\LwIP\src\core\ipv4/dhcp.c ****       xid = LWIP_RAND();
1840:Source\LwIP\src\core\ipv4/dhcp.c **** #else /* DHCP_CREATE_RAND_XID && defined(LWIP_RAND) */
1841:Source\LwIP\src\core\ipv4/dhcp.c ****       xid++;
1842:Source\LwIP\src\core\ipv4/dhcp.c **** #endif /* DHCP_CREATE_RAND_XID && defined(LWIP_RAND) */
1843:Source\LwIP\src\core\ipv4/dhcp.c ****     }
1844:Source\LwIP\src\core\ipv4/dhcp.c ****     dhcp->xid = xid;
1845:Source\LwIP\src\core\ipv4/dhcp.c ****   }
1846:Source\LwIP\src\core\ipv4/dhcp.c ****   LWIP_DEBUGF(DHCP_DEBUG | LWIP_DBG_TRACE,
1847:Source\LwIP\src\core\ipv4/dhcp.c ****               ("transaction id xid(%"X32_F")\n", xid));
1848:Source\LwIP\src\core\ipv4/dhcp.c **** 
1849:Source\LwIP\src\core\ipv4/dhcp.c ****   dhcp->msg_out = (struct dhcp_msg *)dhcp->p_out->payload;
1850:Source\LwIP\src\core\ipv4/dhcp.c **** 
1851:Source\LwIP\src\core\ipv4/dhcp.c ****   dhcp->msg_out->op = DHCP_BOOTREQUEST;
1852:Source\LwIP\src\core\ipv4/dhcp.c ****   /* @todo: make link layer independent */
1853:Source\LwIP\src\core\ipv4/dhcp.c ****   dhcp->msg_out->htype = DHCP_HTYPE_ETH;
1854:Source\LwIP\src\core\ipv4/dhcp.c ****   dhcp->msg_out->hlen = netif->hwaddr_len;
1855:Source\LwIP\src\core\ipv4/dhcp.c ****   dhcp->msg_out->hops = 0;
1856:Source\LwIP\src\core\ipv4/dhcp.c ****   dhcp->msg_out->xid = lwip_htonl(dhcp->xid);
1857:Source\LwIP\src\core\ipv4/dhcp.c ****   dhcp->msg_out->secs = 0;
1858:Source\LwIP\src\core\ipv4/dhcp.c ****   /* we don't need the broadcast flag since we can receive unicast traffic
1859:Source\LwIP\src\core\ipv4/dhcp.c ****      before being fully configured! */
1860:Source\LwIP\src\core\ipv4/dhcp.c ****   dhcp->msg_out->flags = 0;
1861:Source\LwIP\src\core\ipv4/dhcp.c ****   ip4_addr_set_zero(&dhcp->msg_out->ciaddr);
1862:Source\LwIP\src\core\ipv4/dhcp.c ****   /* set ciaddr to netif->ip_addr based on message_type and state */
1863:Source\LwIP\src\core\ipv4/dhcp.c ****   if ((message_type == DHCP_INFORM) || (message_type == DHCP_DECLINE) || (message_type == DHCP_RELE
1864:Source\LwIP\src\core\ipv4/dhcp.c ****       ((message_type == DHCP_REQUEST) && /* DHCP_STATE_BOUND not used for sending! */
1865:Source\LwIP\src\core\ipv4/dhcp.c ****        ((dhcp->state== DHCP_STATE_RENEWING) || dhcp->state== DHCP_STATE_REBINDING))) {
1866:Source\LwIP\src\core\ipv4/dhcp.c ****     ip4_addr_copy(dhcp->msg_out->ciaddr, *netif_ip4_addr(netif));
1867:Source\LwIP\src\core\ipv4/dhcp.c ****   }
1868:Source\LwIP\src\core\ipv4/dhcp.c ****   ip4_addr_set_zero(&dhcp->msg_out->yiaddr);
1869:Source\LwIP\src\core\ipv4/dhcp.c ****   ip4_addr_set_zero(&dhcp->msg_out->siaddr);
1870:Source\LwIP\src\core\ipv4/dhcp.c ****   ip4_addr_set_zero(&dhcp->msg_out->giaddr);
1871:Source\LwIP\src\core\ipv4/dhcp.c ****   for (i = 0; i < DHCP_CHADDR_LEN; i++) {
1872:Source\LwIP\src\core\ipv4/dhcp.c ****     /* copy netif hardware address, pad with zeroes */
1873:Source\LwIP\src\core\ipv4/dhcp.c ****     dhcp->msg_out->chaddr[i] = (i < netif->hwaddr_len && i < NETIF_MAX_HWADDR_LEN) ? netif->hwaddr[
1874:Source\LwIP\src\core\ipv4/dhcp.c ****   }
1875:Source\LwIP\src\core\ipv4/dhcp.c ****   for (i = 0; i < DHCP_SNAME_LEN; i++) {
1876:Source\LwIP\src\core\ipv4/dhcp.c ****     dhcp->msg_out->sname[i] = 0;
1877:Source\LwIP\src\core\ipv4/dhcp.c ****   }
1878:Source\LwIP\src\core\ipv4/dhcp.c ****   for (i = 0; i < DHCP_FILE_LEN; i++) {
ARM GAS  C:\Users\Phuong\AppData\Local\Temp\ccmYXgep.s 			page 38


1879:Source\LwIP\src\core\ipv4/dhcp.c ****     dhcp->msg_out->file[i] = 0;
1880:Source\LwIP\src\core\ipv4/dhcp.c ****   }
1881:Source\LwIP\src\core\ipv4/dhcp.c ****   dhcp->msg_out->cookie = PP_HTONL(DHCP_MAGIC_COOKIE);
1882:Source\LwIP\src\core\ipv4/dhcp.c ****   dhcp->options_out_len = 0;
1883:Source\LwIP\src\core\ipv4/dhcp.c ****   /* fill options field with an incrementing array (for debugging purposes) */
1884:Source\LwIP\src\core\ipv4/dhcp.c ****   for (i = 0; i < DHCP_OPTIONS_LEN; i++) {
1885:Source\LwIP\src\core\ipv4/dhcp.c ****     dhcp->msg_out->options[i] = (u8_t)i; /* for debugging only, no matter if truncated */
1886:Source\LwIP\src\core\ipv4/dhcp.c ****   }
1887:Source\LwIP\src\core\ipv4/dhcp.c ****   /* Add option MESSAGE_TYPE */
1888:Source\LwIP\src\core\ipv4/dhcp.c ****   dhcp_option(dhcp, DHCP_OPTION_MESSAGE_TYPE, DHCP_OPTION_MESSAGE_TYPE_LEN);
1889:Source\LwIP\src\core\ipv4/dhcp.c ****   dhcp_option_byte(dhcp, message_type);
1890:Source\LwIP\src\core\ipv4/dhcp.c ****   return ERR_OK;
1891:Source\LwIP\src\core\ipv4/dhcp.c **** }
1892:Source\LwIP\src\core\ipv4/dhcp.c **** 
1893:Source\LwIP\src\core\ipv4/dhcp.c **** /**
1894:Source\LwIP\src\core\ipv4/dhcp.c ****  * Free previously allocated memory used to send a DHCP request.
1895:Source\LwIP\src\core\ipv4/dhcp.c ****  *
1896:Source\LwIP\src\core\ipv4/dhcp.c ****  * @param dhcp the dhcp struct to free the request from
1897:Source\LwIP\src\core\ipv4/dhcp.c ****  */
1898:Source\LwIP\src\core\ipv4/dhcp.c **** static void
1899:Source\LwIP\src\core\ipv4/dhcp.c **** dhcp_delete_msg(struct dhcp *dhcp)
1900:Source\LwIP\src\core\ipv4/dhcp.c **** {
1901:Source\LwIP\src\core\ipv4/dhcp.c ****   LWIP_ERROR("dhcp_delete_msg: dhcp != NULL", (dhcp != NULL), return;);
1902:Source\LwIP\src\core\ipv4/dhcp.c ****   LWIP_ASSERT("dhcp_delete_msg: dhcp->p_out != NULL", dhcp->p_out != NULL);
1903:Source\LwIP\src\core\ipv4/dhcp.c ****   LWIP_ASSERT("dhcp_delete_msg: dhcp->msg_out != NULL", dhcp->msg_out != NULL);
1904:Source\LwIP\src\core\ipv4/dhcp.c ****   if (dhcp->p_out != NULL) {
1905:Source\LwIP\src\core\ipv4/dhcp.c ****     pbuf_free(dhcp->p_out);
1906:Source\LwIP\src\core\ipv4/dhcp.c ****   }
1907:Source\LwIP\src\core\ipv4/dhcp.c ****   dhcp->p_out = NULL;
1908:Source\LwIP\src\core\ipv4/dhcp.c ****   dhcp->msg_out = NULL;
1909:Source\LwIP\src\core\ipv4/dhcp.c **** }
1910:Source\LwIP\src\core\ipv4/dhcp.c **** 
1911:Source\LwIP\src\core\ipv4/dhcp.c **** /**
1912:Source\LwIP\src\core\ipv4/dhcp.c ****  * Add a DHCP message trailer
1913:Source\LwIP\src\core\ipv4/dhcp.c ****  *
1914:Source\LwIP\src\core\ipv4/dhcp.c ****  * Adds the END option to the DHCP message, and if
1915:Source\LwIP\src\core\ipv4/dhcp.c ****  * necessary, up to three padding bytes.
1916:Source\LwIP\src\core\ipv4/dhcp.c ****  *
1917:Source\LwIP\src\core\ipv4/dhcp.c ****  * @param dhcp DHCP state structure
1918:Source\LwIP\src\core\ipv4/dhcp.c ****  */
1919:Source\LwIP\src\core\ipv4/dhcp.c **** static void
1920:Source\LwIP\src\core\ipv4/dhcp.c **** dhcp_option_trailer(struct dhcp *dhcp)
1921:Source\LwIP\src\core\ipv4/dhcp.c **** {
 232              		.loc 1 1921 0
 233              		.cfi_startproc
 234              		@ args = 0, pretend = 0, frame = 0
 235              		@ frame_needed = 0, uses_anonymous_args = 0
 236              		@ link register save eliminated.
 237              	.LVL7:
1922:Source\LwIP\src\core\ipv4/dhcp.c ****   LWIP_ERROR("dhcp_option_trailer: dhcp != NULL", (dhcp != NULL), return;);
 238              		.loc 1 1922 0
 239 0000 0028     		cmp	r0, #0
 240 0002 18D0     		beq	.L7
1923:Source\LwIP\src\core\ipv4/dhcp.c ****   LWIP_ASSERT("dhcp_option_trailer: dhcp->msg_out != NULL\n", dhcp->msg_out != NULL);
1924:Source\LwIP\src\core\ipv4/dhcp.c ****   LWIP_ASSERT("dhcp_option_trailer: dhcp->options_out_len < DHCP_OPTIONS_LEN\n", dhcp->options_out_
1925:Source\LwIP\src\core\ipv4/dhcp.c ****   dhcp->msg_out->options[dhcp->options_out_len++] = DHCP_OPTION_END;
 241              		.loc 1 1925 0
ARM GAS  C:\Users\Phuong\AppData\Local\Temp\ccmYXgep.s 			page 39


 242 0004 838A     		ldrh	r3, [r0, #20]
 243 0006 5A1C     		adds	r2, r3, #1
 244 0008 8282     		strh	r2, [r0, #20]
 245 000a 0269     		ldr	r2, [r0, #16]
 246 000c 9446     		mov	ip, r2
 247 000e 6344     		add	r3, r3, ip
 248 0010 F033     		adds	r3, r3, #240
 249 0012 FF22     		movs	r2, #255
 250 0014 1A70     		strb	r2, [r3]
1926:Source\LwIP\src\core\ipv4/dhcp.c ****   /* packet is too small, or not 4 byte aligned? */
1927:Source\LwIP\src\core\ipv4/dhcp.c ****   while (((dhcp->options_out_len < DHCP_MIN_OPTIONS_LEN) || (dhcp->options_out_len & 3)) &&
 251              		.loc 1 1927 0
 252 0016 07E0     		b	.L9
 253              	.L11:
1928:Source\LwIP\src\core\ipv4/dhcp.c ****          (dhcp->options_out_len < DHCP_OPTIONS_LEN)) {
1929:Source\LwIP\src\core\ipv4/dhcp.c ****     /* add a fill/padding byte */
1930:Source\LwIP\src\core\ipv4/dhcp.c ****     dhcp->msg_out->options[dhcp->options_out_len++] = 0;
 254              		.loc 1 1930 0
 255 0018 5A1C     		adds	r2, r3, #1
 256 001a 8282     		strh	r2, [r0, #20]
 257 001c 0269     		ldr	r2, [r0, #16]
 258 001e 9446     		mov	ip, r2
 259 0020 6344     		add	r3, r3, ip
 260 0022 F033     		adds	r3, r3, #240
 261 0024 0022     		movs	r2, #0
 262 0026 1A70     		strb	r2, [r3]
 263              	.L9:
1927:Source\LwIP\src\core\ipv4/dhcp.c ****          (dhcp->options_out_len < DHCP_OPTIONS_LEN)) {
 264              		.loc 1 1927 0
 265 0028 838A     		ldrh	r3, [r0, #20]
 266 002a 432B     		cmp	r3, #67
 267 002c 01D9     		bls	.L10
1927:Source\LwIP\src\core\ipv4/dhcp.c ****          (dhcp->options_out_len < DHCP_OPTIONS_LEN)) {
 268              		.loc 1 1927 0 is_stmt 0 discriminator 2
 269 002e 9A07     		lsls	r2, r3, #30
 270 0030 01D0     		beq	.L7
 271              	.L10:
1927:Source\LwIP\src\core\ipv4/dhcp.c ****          (dhcp->options_out_len < DHCP_OPTIONS_LEN)) {
 272              		.loc 1 1927 0 discriminator 3
 273 0032 432B     		cmp	r3, #67
 274 0034 F0D9     		bls	.L11
 275              	.L7:
1931:Source\LwIP\src\core\ipv4/dhcp.c ****   }
1932:Source\LwIP\src\core\ipv4/dhcp.c **** }
 276              		.loc 1 1932 0 is_stmt 1
 277              		@ sp needed
 278 0036 7047     		bx	lr
 279              		.cfi_endproc
 280              	.LFE86:
 281              		.size	dhcp_option_trailer, .-dhcp_option_trailer
 282              		.section	.text.dhcp_create_msg,"ax",%progbits
 283              		.align	2
 284              		.code	16
 285              		.thumb_func
 286              		.type	dhcp_create_msg, %function
 287              	dhcp_create_msg:
 288              	.LFB84:
ARM GAS  C:\Users\Phuong\AppData\Local\Temp\ccmYXgep.s 			page 40


1803:Source\LwIP\src\core\ipv4/dhcp.c ****   u16_t i;
 289              		.loc 1 1803 0
 290              		.cfi_startproc
 291              		@ args = 0, pretend = 0, frame = 0
 292              		@ frame_needed = 0, uses_anonymous_args = 0
 293              	.LVL8:
 294 0000 F8B5     		push	{r3, r4, r5, r6, r7, lr}
 295              		.cfi_def_cfa_offset 24
 296              		.cfi_offset 3, -24
 297              		.cfi_offset 4, -20
 298              		.cfi_offset 5, -16
 299              		.cfi_offset 6, -12
 300              		.cfi_offset 7, -8
 301              		.cfi_offset 14, -4
 302 0002 0600     		movs	r6, r0
 303 0004 0C00     		movs	r4, r1
 304 0006 1500     		movs	r5, r2
1821:Source\LwIP\src\core\ipv4/dhcp.c ****   LWIP_ERROR("dhcp_create_msg: dhcp != NULL", (dhcp != NULL), return ERR_VAL;);
 305              		.loc 1 1821 0
 306 0008 0028     		cmp	r0, #0
 307 000a 00D1     		bne	.LCB250
 308 000c B5E0     		b	.L28	@long jump
 309              	.LCB250:
1822:Source\LwIP\src\core\ipv4/dhcp.c ****   LWIP_ASSERT("dhcp_create_msg: dhcp->p_out == NULL", dhcp->p_out == NULL);
 310              		.loc 1 1822 0
 311 000e 0029     		cmp	r1, #0
 312 0010 00D1     		bne	.LCB252
 313 0012 B5E0     		b	.L29	@long jump
 314              	.LCB252:
1825:Source\LwIP\src\core\ipv4/dhcp.c ****   if (dhcp->p_out == NULL) {
 315              		.loc 1 1825 0
 316 0014 0022     		movs	r2, #0
 317              	.LVL9:
 318 0016 9A21     		movs	r1, #154
 319              	.LVL10:
 320 0018 4900     		lsls	r1, r1, #1
 321 001a 0020     		movs	r0, #0
 322              	.LVL11:
 323 001c FFF7FEFF 		bl	pbuf_alloc
 324              	.LVL12:
 325 0020 E060     		str	r0, [r4, #12]
1826:Source\LwIP\src\core\ipv4/dhcp.c ****     LWIP_DEBUGF(DHCP_DEBUG | LWIP_DBG_TRACE | LWIP_DBG_LEVEL_SERIOUS,
 326              		.loc 1 1826 0
 327 0022 0028     		cmp	r0, #0
 328 0024 00D1     		bne	.LCB264
 329 0026 AEE0     		b	.L30	@long jump
 330              	.LCB264:
1835:Source\LwIP\src\core\ipv4/dhcp.c ****     /* reuse transaction identifier in retransmissions */
 331              		.loc 1 1835 0
 332 0028 032D     		cmp	r5, #3
 333 002a 02D1     		bne	.L14
1835:Source\LwIP\src\core\ipv4/dhcp.c ****     /* reuse transaction identifier in retransmissions */
 334              		.loc 1 1835 0 is_stmt 0 discriminator 1
 335 002c 637A     		ldrb	r3, [r4, #9]
 336 002e 032B     		cmp	r3, #3
 337 0030 09D1     		bne	.L15
 338              	.L14:
ARM GAS  C:\Users\Phuong\AppData\Local\Temp\ccmYXgep.s 			page 41


1837:Source\LwIP\src\core\ipv4/dhcp.c **** #if DHCP_CREATE_RAND_XID && defined(LWIP_RAND)
 339              		.loc 1 1837 0 is_stmt 1
 340 0032 A37A     		ldrb	r3, [r4, #10]
 341 0034 002B     		cmp	r3, #0
 342 0036 03D1     		bne	.L16
1839:Source\LwIP\src\core\ipv4/dhcp.c **** #else /* DHCP_CREATE_RAND_XID && defined(LWIP_RAND) */
 343              		.loc 1 1839 0
 344 0038 FFF7FEFF 		bl	sys_rand16
 345              	.LVL13:
 346 003c 534B     		ldr	r3, .L33
 347 003e 1860     		str	r0, [r3]
 348              	.L16:
1844:Source\LwIP\src\core\ipv4/dhcp.c ****   }
 349              		.loc 1 1844 0
 350 0040 524B     		ldr	r3, .L33
 351 0042 1B68     		ldr	r3, [r3]
 352 0044 2360     		str	r3, [r4]
 353              	.L15:
1849:Source\LwIP\src\core\ipv4/dhcp.c **** 
 354              		.loc 1 1849 0
 355 0046 E368     		ldr	r3, [r4, #12]
 356 0048 5A68     		ldr	r2, [r3, #4]
 357 004a 2261     		str	r2, [r4, #16]
1851:Source\LwIP\src\core\ipv4/dhcp.c ****   /* @todo: make link layer independent */
 358              		.loc 1 1851 0
 359 004c 0123     		movs	r3, #1
 360 004e 1370     		strb	r3, [r2]
1853:Source\LwIP\src\core\ipv4/dhcp.c ****   dhcp->msg_out->hlen = netif->hwaddr_len;
 361              		.loc 1 1853 0
 362 0050 2269     		ldr	r2, [r4, #16]
 363 0052 5370     		strb	r3, [r2, #1]
1854:Source\LwIP\src\core\ipv4/dhcp.c ****   dhcp->msg_out->hops = 0;
 364              		.loc 1 1854 0
 365 0054 3533     		adds	r3, r3, #53
 366 0056 F35C     		ldrb	r3, [r6, r3]
 367 0058 2269     		ldr	r2, [r4, #16]
 368 005a 9370     		strb	r3, [r2, #2]
1855:Source\LwIP\src\core\ipv4/dhcp.c ****   dhcp->msg_out->xid = lwip_htonl(dhcp->xid);
 369              		.loc 1 1855 0
 370 005c 0023     		movs	r3, #0
 371 005e 2269     		ldr	r2, [r4, #16]
 372 0060 D370     		strb	r3, [r2, #3]
1856:Source\LwIP\src\core\ipv4/dhcp.c ****   dhcp->msg_out->secs = 0;
 373              		.loc 1 1856 0
 374 0062 2769     		ldr	r7, [r4, #16]
 375 0064 2068     		ldr	r0, [r4]
 376 0066 FFF7FEFF 		bl	lwip_htonl
 377              	.LVL14:
 378 006a 3871     		strb	r0, [r7, #4]
 379 006c 030A     		lsrs	r3, r0, #8
 380 006e 7B71     		strb	r3, [r7, #5]
 381 0070 030C     		lsrs	r3, r0, #16
 382 0072 BB71     		strb	r3, [r7, #6]
 383 0074 000E     		lsrs	r0, r0, #24
 384 0076 F871     		strb	r0, [r7, #7]
1857:Source\LwIP\src\core\ipv4/dhcp.c ****   /* we don't need the broadcast flag since we can receive unicast traffic
 385              		.loc 1 1857 0
ARM GAS  C:\Users\Phuong\AppData\Local\Temp\ccmYXgep.s 			page 42


 386 0078 2369     		ldr	r3, [r4, #16]
 387 007a 0022     		movs	r2, #0
 388 007c 1A72     		strb	r2, [r3, #8]
 389 007e 5A72     		strb	r2, [r3, #9]
1860:Source\LwIP\src\core\ipv4/dhcp.c ****   ip4_addr_set_zero(&dhcp->msg_out->ciaddr);
 390              		.loc 1 1860 0
 391 0080 2369     		ldr	r3, [r4, #16]
 392 0082 9A72     		strb	r2, [r3, #10]
 393 0084 DA72     		strb	r2, [r3, #11]
1861:Source\LwIP\src\core\ipv4/dhcp.c ****   /* set ciaddr to netif->ip_addr based on message_type and state */
 394              		.loc 1 1861 0
 395 0086 2369     		ldr	r3, [r4, #16]
 396 0088 1A73     		strb	r2, [r3, #12]
 397 008a 5A73     		strb	r2, [r3, #13]
 398 008c 9A73     		strb	r2, [r3, #14]
 399 008e DA73     		strb	r2, [r3, #15]
1863:Source\LwIP\src\core\ipv4/dhcp.c ****       ((message_type == DHCP_REQUEST) && /* DHCP_STATE_BOUND not used for sending! */
 400              		.loc 1 1863 0
 401 0090 082D     		cmp	r5, #8
 402 0092 0AD0     		beq	.L17
1863:Source\LwIP\src\core\ipv4/dhcp.c ****       ((message_type == DHCP_REQUEST) && /* DHCP_STATE_BOUND not used for sending! */
 403              		.loc 1 1863 0 is_stmt 0 discriminator 1
 404 0094 042D     		cmp	r5, #4
 405 0096 08D0     		beq	.L17
1863:Source\LwIP\src\core\ipv4/dhcp.c ****       ((message_type == DHCP_REQUEST) && /* DHCP_STATE_BOUND not used for sending! */
 406              		.loc 1 1863 0 discriminator 2
 407 0098 072D     		cmp	r5, #7
 408 009a 06D0     		beq	.L17
1863:Source\LwIP\src\core\ipv4/dhcp.c ****       ((message_type == DHCP_REQUEST) && /* DHCP_STATE_BOUND not used for sending! */
 409              		.loc 1 1863 0 discriminator 3
 410 009c 032D     		cmp	r5, #3
 411 009e 0DD1     		bne	.L18
1865:Source\LwIP\src\core\ipv4/dhcp.c ****     ip4_addr_copy(dhcp->msg_out->ciaddr, *netif_ip4_addr(netif));
 412              		.loc 1 1865 0 is_stmt 1
 413 00a0 637A     		ldrb	r3, [r4, #9]
 414 00a2 043B     		subs	r3, r3, #4
 415 00a4 DBB2     		uxtb	r3, r3
1864:Source\LwIP\src\core\ipv4/dhcp.c ****        ((dhcp->state== DHCP_STATE_RENEWING) || dhcp->state== DHCP_STATE_REBINDING))) {
 416              		.loc 1 1864 0
 417 00a6 012B     		cmp	r3, #1
 418 00a8 08D8     		bhi	.L18
 419              	.L17:
1866:Source\LwIP\src\core\ipv4/dhcp.c ****   }
 420              		.loc 1 1866 0
 421 00aa 2269     		ldr	r2, [r4, #16]
 422 00ac 7368     		ldr	r3, [r6, #4]
 423 00ae 1373     		strb	r3, [r2, #12]
 424 00b0 190A     		lsrs	r1, r3, #8
 425 00b2 5173     		strb	r1, [r2, #13]
 426 00b4 190C     		lsrs	r1, r3, #16
 427 00b6 9173     		strb	r1, [r2, #14]
 428 00b8 1B0E     		lsrs	r3, r3, #24
 429 00ba D373     		strb	r3, [r2, #15]
 430              	.L18:
1868:Source\LwIP\src\core\ipv4/dhcp.c ****   ip4_addr_set_zero(&dhcp->msg_out->siaddr);
 431              		.loc 1 1868 0
 432 00bc 2369     		ldr	r3, [r4, #16]
ARM GAS  C:\Users\Phuong\AppData\Local\Temp\ccmYXgep.s 			page 43


 433 00be 0022     		movs	r2, #0
 434 00c0 1A74     		strb	r2, [r3, #16]
 435 00c2 5A74     		strb	r2, [r3, #17]
 436 00c4 9A74     		strb	r2, [r3, #18]
 437 00c6 DA74     		strb	r2, [r3, #19]
1869:Source\LwIP\src\core\ipv4/dhcp.c ****   ip4_addr_set_zero(&dhcp->msg_out->giaddr);
 438              		.loc 1 1869 0
 439 00c8 2369     		ldr	r3, [r4, #16]
 440 00ca 1A75     		strb	r2, [r3, #20]
 441 00cc 5A75     		strb	r2, [r3, #21]
 442 00ce 9A75     		strb	r2, [r3, #22]
 443 00d0 DA75     		strb	r2, [r3, #23]
1870:Source\LwIP\src\core\ipv4/dhcp.c ****   for (i = 0; i < DHCP_CHADDR_LEN; i++) {
 444              		.loc 1 1870 0
 445 00d2 2369     		ldr	r3, [r4, #16]
 446 00d4 1A76     		strb	r2, [r3, #24]
 447 00d6 5A76     		strb	r2, [r3, #25]
 448 00d8 9A76     		strb	r2, [r3, #26]
 449 00da DA76     		strb	r2, [r3, #27]
 450              	.LVL15:
1871:Source\LwIP\src\core\ipv4/dhcp.c ****     /* copy netif hardware address, pad with zeroes */
 451              		.loc 1 1871 0
 452 00dc 0023     		movs	r3, #0
 453 00de 12E0     		b	.L19
 454              	.LVL16:
 455              	.L21:
1873:Source\LwIP\src\core\ipv4/dhcp.c ****   }
 456              		.loc 1 1873 0
 457 00e0 2069     		ldr	r0, [r4, #16]
 458 00e2 1A00     		movs	r2, r3
 459 00e4 3621     		movs	r1, #54
 460 00e6 715C     		ldrb	r1, [r6, r1]
 461 00e8 8B42     		cmp	r3, r1
 462 00ea 05D2     		bcs	.L31
1873:Source\LwIP\src\core\ipv4/dhcp.c ****   }
 463              		.loc 1 1873 0 is_stmt 0 discriminator 1
 464 00ec 052B     		cmp	r3, #5
 465 00ee 05D8     		bhi	.L32
1873:Source\LwIP\src\core\ipv4/dhcp.c ****   }
 466              		.loc 1 1873 0 discriminator 3
 467 00f0 F118     		adds	r1, r6, r3
 468 00f2 3731     		adds	r1, r1, #55
 469 00f4 0978     		ldrb	r1, [r1]
 470 00f6 02E0     		b	.L20
 471              	.L31:
1873:Source\LwIP\src\core\ipv4/dhcp.c ****   }
 472              		.loc 1 1873 0
 473 00f8 0021     		movs	r1, #0
 474 00fa 00E0     		b	.L20
 475              	.L32:
 476 00fc 0021     		movs	r1, #0
 477              	.L20:
1873:Source\LwIP\src\core\ipv4/dhcp.c ****   }
 478              		.loc 1 1873 0 discriminator 6
 479 00fe 8218     		adds	r2, r0, r2
 480 0100 1177     		strb	r1, [r2, #28]
1871:Source\LwIP\src\core\ipv4/dhcp.c ****     /* copy netif hardware address, pad with zeroes */
ARM GAS  C:\Users\Phuong\AppData\Local\Temp\ccmYXgep.s 			page 44


 481              		.loc 1 1871 0 is_stmt 1 discriminator 6
 482 0102 0133     		adds	r3, r3, #1
 483              	.LVL17:
 484 0104 9BB2     		uxth	r3, r3
 485              	.LVL18:
 486              	.L19:
1871:Source\LwIP\src\core\ipv4/dhcp.c ****     /* copy netif hardware address, pad with zeroes */
 487              		.loc 1 1871 0 is_stmt 0 discriminator 2
 488 0106 0F2B     		cmp	r3, #15
 489 0108 EAD9     		bls	.L21
 490 010a 0023     		movs	r3, #0
 491              	.LVL19:
 492 010c 06E0     		b	.L22
 493              	.LVL20:
 494              	.L23:
1876:Source\LwIP\src\core\ipv4/dhcp.c ****   }
 495              		.loc 1 1876 0 is_stmt 1 discriminator 3
 496 010e 2269     		ldr	r2, [r4, #16]
 497 0110 D218     		adds	r2, r2, r3
 498 0112 2C32     		adds	r2, r2, #44
 499 0114 0021     		movs	r1, #0
 500 0116 1170     		strb	r1, [r2]
1875:Source\LwIP\src\core\ipv4/dhcp.c ****     dhcp->msg_out->sname[i] = 0;
 501              		.loc 1 1875 0 discriminator 3
 502 0118 0133     		adds	r3, r3, #1
 503              	.LVL21:
 504 011a 9BB2     		uxth	r3, r3
 505              	.LVL22:
 506              	.L22:
1875:Source\LwIP\src\core\ipv4/dhcp.c ****     dhcp->msg_out->sname[i] = 0;
 507              		.loc 1 1875 0 is_stmt 0 discriminator 1
 508 011c 3F2B     		cmp	r3, #63
 509 011e F6D9     		bls	.L23
 510 0120 0023     		movs	r3, #0
 511              	.LVL23:
 512 0122 06E0     		b	.L24
 513              	.LVL24:
 514              	.L25:
1879:Source\LwIP\src\core\ipv4/dhcp.c ****   }
 515              		.loc 1 1879 0 is_stmt 1 discriminator 3
 516 0124 2269     		ldr	r2, [r4, #16]
 517 0126 D218     		adds	r2, r2, r3
 518 0128 6C32     		adds	r2, r2, #108
 519 012a 0021     		movs	r1, #0
 520 012c 1170     		strb	r1, [r2]
1878:Source\LwIP\src\core\ipv4/dhcp.c ****     dhcp->msg_out->file[i] = 0;
 521              		.loc 1 1878 0 discriminator 3
 522 012e 0133     		adds	r3, r3, #1
 523              	.LVL25:
 524 0130 9BB2     		uxth	r3, r3
 525              	.LVL26:
 526              	.L24:
1878:Source\LwIP\src\core\ipv4/dhcp.c ****     dhcp->msg_out->file[i] = 0;
 527              		.loc 1 1878 0 is_stmt 0 discriminator 1
 528 0132 7F2B     		cmp	r3, #127
 529 0134 F6D9     		bls	.L25
1881:Source\LwIP\src\core\ipv4/dhcp.c ****   dhcp->options_out_len = 0;
ARM GAS  C:\Users\Phuong\AppData\Local\Temp\ccmYXgep.s 			page 45


 530              		.loc 1 1881 0 is_stmt 1
 531 0136 2369     		ldr	r3, [r4, #16]
 532              	.LVL27:
 533 0138 6321     		movs	r1, #99
 534 013a EC22     		movs	r2, #236
 535 013c 9954     		strb	r1, [r3, r2]
 536 013e EC33     		adds	r3, r3, #236
 537 0140 6B3A     		subs	r2, r2, #107
 538 0142 FF3A     		subs	r2, r2, #255
 539 0144 5A70     		strb	r2, [r3, #1]
 540 0146 D132     		adds	r2, r2, #209
 541 0148 9A70     		strb	r2, [r3, #2]
 542 014a 6322     		movs	r2, #99
 543 014c DA70     		strb	r2, [r3, #3]
1882:Source\LwIP\src\core\ipv4/dhcp.c ****   /* fill options field with an incrementing array (for debugging purposes) */
 544              		.loc 1 1882 0
 545 014e 0023     		movs	r3, #0
 546 0150 A382     		strh	r3, [r4, #20]
 547              	.LVL28:
1884:Source\LwIP\src\core\ipv4/dhcp.c ****     dhcp->msg_out->options[i] = (u8_t)i; /* for debugging only, no matter if truncated */
 548              		.loc 1 1884 0
 549 0152 05E0     		b	.L26
 550              	.LVL29:
 551              	.L27:
1885:Source\LwIP\src\core\ipv4/dhcp.c ****   }
 552              		.loc 1 1885 0 discriminator 3
 553 0154 2269     		ldr	r2, [r4, #16]
 554 0156 D218     		adds	r2, r2, r3
 555 0158 F032     		adds	r2, r2, #240
 556 015a 1370     		strb	r3, [r2]
1884:Source\LwIP\src\core\ipv4/dhcp.c ****     dhcp->msg_out->options[i] = (u8_t)i; /* for debugging only, no matter if truncated */
 557              		.loc 1 1884 0 discriminator 3
 558 015c 0133     		adds	r3, r3, #1
 559              	.LVL30:
 560 015e 9BB2     		uxth	r3, r3
 561              	.LVL31:
 562              	.L26:
1884:Source\LwIP\src\core\ipv4/dhcp.c ****     dhcp->msg_out->options[i] = (u8_t)i; /* for debugging only, no matter if truncated */
 563              		.loc 1 1884 0 is_stmt 0 discriminator 1
 564 0160 432B     		cmp	r3, #67
 565 0162 F7D9     		bls	.L27
1888:Source\LwIP\src\core\ipv4/dhcp.c ****   dhcp_option_byte(dhcp, message_type);
 566              		.loc 1 1888 0 is_stmt 1
 567 0164 0122     		movs	r2, #1
 568 0166 3521     		movs	r1, #53
 569 0168 2000     		movs	r0, r4
 570 016a FFF7FEFF 		bl	dhcp_option
 571              	.LVL32:
1889:Source\LwIP\src\core\ipv4/dhcp.c ****   return ERR_OK;
 572              		.loc 1 1889 0
 573 016e 2900     		movs	r1, r5
 574 0170 2000     		movs	r0, r4
 575 0172 FFF7FEFF 		bl	dhcp_option_byte
 576              	.LVL33:
1890:Source\LwIP\src\core\ipv4/dhcp.c **** }
 577              		.loc 1 1890 0
 578 0176 0020     		movs	r0, #0
ARM GAS  C:\Users\Phuong\AppData\Local\Temp\ccmYXgep.s 			page 46


 579 0178 07E0     		b	.L13
 580              	.LVL34:
 581              	.L28:
1821:Source\LwIP\src\core\ipv4/dhcp.c ****   LWIP_ERROR("dhcp_create_msg: dhcp != NULL", (dhcp != NULL), return ERR_VAL;);
 582              		.loc 1 1821 0
 583 017a 1020     		movs	r0, #16
 584              	.LVL35:
 585 017c 4042     		rsbs	r0, r0, #0
 586 017e 04E0     		b	.L13
 587              	.LVL36:
 588              	.L29:
1822:Source\LwIP\src\core\ipv4/dhcp.c ****   LWIP_ASSERT("dhcp_create_msg: dhcp->p_out == NULL", dhcp->p_out == NULL);
 589              		.loc 1 1822 0
 590 0180 0620     		movs	r0, #6
 591              	.LVL37:
 592 0182 4042     		rsbs	r0, r0, #0
 593 0184 01E0     		b	.L13
 594              	.LVL38:
 595              	.L30:
1829:Source\LwIP\src\core\ipv4/dhcp.c ****   }
 596              		.loc 1 1829 0
 597 0186 0120     		movs	r0, #1
 598 0188 4042     		rsbs	r0, r0, #0
 599              	.L13:
1891:Source\LwIP\src\core\ipv4/dhcp.c **** 
 600              		.loc 1 1891 0
 601              		@ sp needed
 602              	.LVL39:
 603              	.LVL40:
 604 018a F8BD     		pop	{r3, r4, r5, r6, r7, pc}
 605              	.L34:
 606              		.align	2
 607              	.L33:
 608 018c 00000000 		.word	.LANCHOR0
 609              		.cfi_endproc
 610              	.LFE84:
 611              		.size	dhcp_create_msg, .-dhcp_create_msg
 612              		.section	.text.dhcp_delete_msg,"ax",%progbits
 613              		.align	2
 614              		.code	16
 615              		.thumb_func
 616              		.type	dhcp_delete_msg, %function
 617              	dhcp_delete_msg:
 618              	.LFB85:
1900:Source\LwIP\src\core\ipv4/dhcp.c ****   LWIP_ERROR("dhcp_delete_msg: dhcp != NULL", (dhcp != NULL), return;);
 619              		.loc 1 1900 0
 620              		.cfi_startproc
 621              		@ args = 0, pretend = 0, frame = 0
 622              		@ frame_needed = 0, uses_anonymous_args = 0
 623              	.LVL41:
 624 0000 10B5     		push	{r4, lr}
 625              		.cfi_def_cfa_offset 8
 626              		.cfi_offset 4, -8
 627              		.cfi_offset 14, -4
 628 0002 041E     		subs	r4, r0, #0
1901:Source\LwIP\src\core\ipv4/dhcp.c ****   LWIP_ASSERT("dhcp_delete_msg: dhcp->p_out != NULL", dhcp->p_out != NULL);
 629              		.loc 1 1901 0
ARM GAS  C:\Users\Phuong\AppData\Local\Temp\ccmYXgep.s 			page 47


 630 0004 07D0     		beq	.L35
1904:Source\LwIP\src\core\ipv4/dhcp.c ****     pbuf_free(dhcp->p_out);
 631              		.loc 1 1904 0
 632 0006 C068     		ldr	r0, [r0, #12]
 633              	.LVL42:
 634 0008 0028     		cmp	r0, #0
 635 000a 01D0     		beq	.L37
1905:Source\LwIP\src\core\ipv4/dhcp.c ****   }
 636              		.loc 1 1905 0
 637 000c FFF7FEFF 		bl	pbuf_free
 638              	.LVL43:
 639              	.L37:
1907:Source\LwIP\src\core\ipv4/dhcp.c ****   dhcp->msg_out = NULL;
 640              		.loc 1 1907 0
 641 0010 0023     		movs	r3, #0
 642 0012 E360     		str	r3, [r4, #12]
1908:Source\LwIP\src\core\ipv4/dhcp.c **** }
 643              		.loc 1 1908 0
 644 0014 2361     		str	r3, [r4, #16]
 645              	.L35:
1909:Source\LwIP\src\core\ipv4/dhcp.c **** 
 646              		.loc 1 1909 0
 647              		@ sp needed
 648              	.LVL44:
 649 0016 10BD     		pop	{r4, pc}
 650              		.cfi_endproc
 651              	.LFE85:
 652              		.size	dhcp_delete_msg, .-dhcp_delete_msg
 653              		.global	__aeabi_idiv
 654              		.section	.text.dhcp_discover,"ax",%progbits
 655              		.align	2
 656              		.code	16
 657              		.thumb_func
 658              		.type	dhcp_discover, %function
 659              	dhcp_discover:
 660              	.LFB69:
 962:Source\LwIP\src\core\ipv4/dhcp.c ****   struct dhcp *dhcp = netif_dhcp_data(netif);
 661              		.loc 1 962 0
 662              		.cfi_startproc
 663              		@ args = 0, pretend = 0, frame = 0
 664              		@ frame_needed = 0, uses_anonymous_args = 0
 665              	.LVL45:
 666 0000 F0B5     		push	{r4, r5, r6, r7, lr}
 667              		.cfi_def_cfa_offset 20
 668              		.cfi_offset 4, -20
 669              		.cfi_offset 5, -16
 670              		.cfi_offset 6, -12
 671              		.cfi_offset 7, -8
 672              		.cfi_offset 14, -4
 673 0002 83B0     		sub	sp, sp, #12
 674              		.cfi_def_cfa_offset 32
 675 0004 0700     		movs	r7, r0
 963:Source\LwIP\src\core\ipv4/dhcp.c ****   err_t result = ERR_OK;
 676              		.loc 1 963 0
 677 0006 446A     		ldr	r4, [r0, #36]
 678              	.LVL46:
 968:Source\LwIP\src\core\ipv4/dhcp.c ****   dhcp_set_state(dhcp, DHCP_STATE_SELECTING);
ARM GAS  C:\Users\Phuong\AppData\Local\Temp\ccmYXgep.s 			page 48


 679              		.loc 1 968 0
 680 0008 0023     		movs	r3, #0
 681 000a A362     		str	r3, [r4, #40]
 969:Source\LwIP\src\core\ipv4/dhcp.c ****   /* create and initialize the DHCP message header */
 682              		.loc 1 969 0
 683 000c 0621     		movs	r1, #6
 684 000e 2000     		movs	r0, r4
 685              	.LVL47:
 686 0010 FFF7FEFF 		bl	dhcp_set_state
 687              	.LVL48:
 971:Source\LwIP\src\core\ipv4/dhcp.c ****   if (result == ERR_OK) {
 688              		.loc 1 971 0
 689 0014 0122     		movs	r2, #1
 690 0016 2100     		movs	r1, r4
 691 0018 3800     		movs	r0, r7
 692 001a FFF7FEFF 		bl	dhcp_create_msg
 693              	.LVL49:
 694 001e 061E     		subs	r6, r0, #0
 695              	.LVL50:
 972:Source\LwIP\src\core\ipv4/dhcp.c ****     LWIP_DEBUGF(DHCP_DEBUG | LWIP_DBG_TRACE, ("dhcp_discover: making request\n"));
 696              		.loc 1 972 0
 697 0020 2ED1     		bne	.L39
 975:Source\LwIP\src\core\ipv4/dhcp.c ****     dhcp_option_short(dhcp, DHCP_MAX_MSG_LEN(netif));
 698              		.loc 1 975 0
 699 0022 0222     		movs	r2, #2
 700 0024 3921     		movs	r1, #57
 701 0026 2000     		movs	r0, r4
 702              	.LVL51:
 703 0028 FFF7FEFF 		bl	dhcp_option
 704              	.LVL52:
 976:Source\LwIP\src\core\ipv4/dhcp.c **** 
 705              		.loc 1 976 0
 706 002c B98E     		ldrh	r1, [r7, #52]
 707 002e 2000     		movs	r0, r4
 708 0030 FFF7FEFF 		bl	dhcp_option_short
 709              	.LVL53:
 978:Source\LwIP\src\core\ipv4/dhcp.c ****     for (i = 0; i < LWIP_ARRAYSIZE(dhcp_discover_request_options); i++) {
 710              		.loc 1 978 0
 711 0034 0422     		movs	r2, #4
 712 0036 3721     		movs	r1, #55
 713 0038 2000     		movs	r0, r4
 714 003a FFF7FEFF 		bl	dhcp_option
 715              	.LVL54:
 979:Source\LwIP\src\core\ipv4/dhcp.c ****       dhcp_option_byte(dhcp, dhcp_discover_request_options[i]);
 716              		.loc 1 979 0
 717 003e 0025     		movs	r5, #0
 718 0040 06E0     		b	.L40
 719              	.LVL55:
 720              	.L41:
 980:Source\LwIP\src\core\ipv4/dhcp.c ****     }
 721              		.loc 1 980 0 discriminator 3
 722 0042 1B4B     		ldr	r3, .L45
 723 0044 595D     		ldrb	r1, [r3, r5]
 724 0046 2000     		movs	r0, r4
 725 0048 FFF7FEFF 		bl	dhcp_option_byte
 726              	.LVL56:
 979:Source\LwIP\src\core\ipv4/dhcp.c ****       dhcp_option_byte(dhcp, dhcp_discover_request_options[i]);
ARM GAS  C:\Users\Phuong\AppData\Local\Temp\ccmYXgep.s 			page 49


 727              		.loc 1 979 0 discriminator 3
 728 004c 0135     		adds	r5, r5, #1
 729              	.LVL57:
 730 004e EDB2     		uxtb	r5, r5
 731              	.LVL58:
 732              	.L40:
 979:Source\LwIP\src\core\ipv4/dhcp.c ****       dhcp_option_byte(dhcp, dhcp_discover_request_options[i]);
 733              		.loc 1 979 0 is_stmt 0 discriminator 1
 734 0050 032D     		cmp	r5, #3
 735 0052 F6D9     		bls	.L41
 982:Source\LwIP\src\core\ipv4/dhcp.c **** 
 736              		.loc 1 982 0 is_stmt 1
 737 0054 2000     		movs	r0, r4
 738 0056 FFF7FEFF 		bl	dhcp_option_trailer
 739              	.LVL59:
 985:Source\LwIP\src\core\ipv4/dhcp.c **** 
 740              		.loc 1 985 0
 741 005a A18A     		ldrh	r1, [r4, #20]
 742 005c F031     		adds	r1, r1, #240
 743 005e 89B2     		uxth	r1, r1
 744 0060 E068     		ldr	r0, [r4, #12]
 745 0062 FFF7FEFF 		bl	pbuf_realloc
 746              	.LVL60:
 988:Source\LwIP\src\core\ipv4/dhcp.c ****     LWIP_DEBUGF(DHCP_DEBUG | LWIP_DBG_TRACE, ("dhcp_discover: deleting()ing\n"));
 747              		.loc 1 988 0
 748 0066 E168     		ldr	r1, [r4, #12]
 749 0068 124B     		ldr	r3, .L45+4
 750 006a 5868     		ldr	r0, [r3, #4]
 751 006c 124B     		ldr	r3, .L45+8
 752 006e 0193     		str	r3, [sp, #4]
 753 0070 0097     		str	r7, [sp]
 754 0072 4323     		movs	r3, #67
 755 0074 114A     		ldr	r2, .L45+12
 756 0076 FFF7FEFF 		bl	udp_sendto_if_src
 757              	.LVL61:
 990:Source\LwIP\src\core\ipv4/dhcp.c ****     LWIP_DEBUGF(DHCP_DEBUG | LWIP_DBG_TRACE | LWIP_DBG_STATE, ("dhcp_discover: SELECTING\n"));
 758              		.loc 1 990 0
 759 007a 2000     		movs	r0, r4
 760 007c FFF7FEFF 		bl	dhcp_delete_msg
 761              	.LVL62:
 762              	.L39:
 995:Source\LwIP\src\core\ipv4/dhcp.c ****     dhcp->tries++;
 763              		.loc 1 995 0
 764 0080 A37A     		ldrb	r3, [r4, #10]
 765 0082 FF2B     		cmp	r3, #255
 766 0084 01D0     		beq	.L42
 996:Source\LwIP\src\core\ipv4/dhcp.c ****   }
 767              		.loc 1 996 0
 768 0086 0133     		adds	r3, r3, #1
 769 0088 A372     		strb	r3, [r4, #10]
 770              	.L42:
1004:Source\LwIP\src\core\ipv4/dhcp.c ****   dhcp->request_timeout = (msecs + DHCP_FINE_TIMER_MSECS - 1) / DHCP_FINE_TIMER_MSECS;
 771              		.loc 1 1004 0
 772 008a A37A     		ldrb	r3, [r4, #10]
 773 008c 052B     		cmp	r3, #5
 774 008e 04D8     		bhi	.L44
1004:Source\LwIP\src\core\ipv4/dhcp.c ****   dhcp->request_timeout = (msecs + DHCP_FINE_TIMER_MSECS - 1) / DHCP_FINE_TIMER_MSECS;
ARM GAS  C:\Users\Phuong\AppData\Local\Temp\ccmYXgep.s 			page 50


 775              		.loc 1 1004 0 is_stmt 0 discriminator 1
 776 0090 FA20     		movs	r0, #250
 777 0092 8000     		lsls	r0, r0, #2
 778 0094 9840     		lsls	r0, r0, r3
 779 0096 80B2     		uxth	r0, r0
 780 0098 00E0     		b	.L43
 781              	.L44:
1004:Source\LwIP\src\core\ipv4/dhcp.c ****   dhcp->request_timeout = (msecs + DHCP_FINE_TIMER_MSECS - 1) / DHCP_FINE_TIMER_MSECS;
 782              		.loc 1 1004 0
 783 009a 0948     		ldr	r0, .L45+16
 784              	.L43:
 785              	.LVL63:
1005:Source\LwIP\src\core\ipv4/dhcp.c ****   LWIP_DEBUGF(DHCP_DEBUG | LWIP_DBG_TRACE | LWIP_DBG_STATE, ("dhcp_discover(): set request timeout 
 786              		.loc 1 1005 0 is_stmt 1 discriminator 4
 787 009c F430     		adds	r0, r0, #244
 788              	.LVL64:
 789 009e FF30     		adds	r0, r0, #255
 790 00a0 FA21     		movs	r1, #250
 791 00a2 4900     		lsls	r1, r1, #1
 792 00a4 FFF7FEFF 		bl	__aeabi_idiv
 793              	.LVL65:
 794 00a8 E082     		strh	r0, [r4, #22]
1008:Source\LwIP\src\core\ipv4/dhcp.c **** 
 795              		.loc 1 1008 0 discriminator 4
 796 00aa 3000     		movs	r0, r6
 797 00ac 03B0     		add	sp, sp, #12
 798              		@ sp needed
 799              	.LVL66:
 800              	.LVL67:
 801 00ae F0BD     		pop	{r4, r5, r6, r7, pc}
 802              	.L46:
 803              		.align	2
 804              	.L45:
 805 00b0 F0000000 		.word	.LANCHOR1
 806 00b4 00000000 		.word	.LANCHOR0
 807 00b8 00000000 		.word	ip_addr_any
 808 00bc 00000000 		.word	ip_addr_broadcast
 809 00c0 60EA0000 		.word	60000
 810              		.cfi_endproc
 811              	.LFE69:
 812              		.size	dhcp_discover, .-dhcp_discover
 813              		.section	.text.dhcp_reboot,"ax",%progbits
 814              		.align	2
 815              		.code	16
 816              		.thumb_func
 817              		.type	dhcp_reboot, %function
 818              	dhcp_reboot:
 819              	.LFB73:
1230:Source\LwIP\src\core\ipv4/dhcp.c ****   struct dhcp *dhcp = netif_dhcp_data(netif);
 820              		.loc 1 1230 0
 821              		.cfi_startproc
 822              		@ args = 0, pretend = 0, frame = 0
 823              		@ frame_needed = 0, uses_anonymous_args = 0
 824              	.LVL68:
 825 0000 F0B5     		push	{r4, r5, r6, r7, lr}
 826              		.cfi_def_cfa_offset 20
 827              		.cfi_offset 4, -20
ARM GAS  C:\Users\Phuong\AppData\Local\Temp\ccmYXgep.s 			page 51


 828              		.cfi_offset 5, -16
 829              		.cfi_offset 6, -12
 830              		.cfi_offset 7, -8
 831              		.cfi_offset 14, -4
 832 0002 83B0     		sub	sp, sp, #12
 833              		.cfi_def_cfa_offset 32
 834 0004 0700     		movs	r7, r0
1231:Source\LwIP\src\core\ipv4/dhcp.c ****   err_t result;
 835              		.loc 1 1231 0
 836 0006 446A     		ldr	r4, [r0, #36]
 837              	.LVL69:
1236:Source\LwIP\src\core\ipv4/dhcp.c **** 
 838              		.loc 1 1236 0
 839 0008 0321     		movs	r1, #3
 840 000a 2000     		movs	r0, r4
 841              	.LVL70:
 842 000c FFF7FEFF 		bl	dhcp_set_state
 843              	.LVL71:
1239:Source\LwIP\src\core\ipv4/dhcp.c ****   if (result == ERR_OK) {
 844              		.loc 1 1239 0
 845 0010 0322     		movs	r2, #3
 846 0012 2100     		movs	r1, r4
 847 0014 3800     		movs	r0, r7
 848 0016 FFF7FEFF 		bl	dhcp_create_msg
 849              	.LVL72:
 850 001a 061E     		subs	r6, r0, #0
 851              	.LVL73:
1240:Source\LwIP\src\core\ipv4/dhcp.c ****     dhcp_option(dhcp, DHCP_OPTION_MAX_MSG_SIZE, DHCP_OPTION_MAX_MSG_SIZE_LEN);
 852              		.loc 1 1240 0
 853 001c 39D1     		bne	.L48
1241:Source\LwIP\src\core\ipv4/dhcp.c ****     dhcp_option_short(dhcp, DHCP_MAX_MSG_LEN_MIN_REQUIRED);
 854              		.loc 1 1241 0
 855 001e 0222     		movs	r2, #2
 856 0020 3921     		movs	r1, #57
 857 0022 2000     		movs	r0, r4
 858              	.LVL74:
 859 0024 FFF7FEFF 		bl	dhcp_option
 860              	.LVL75:
1242:Source\LwIP\src\core\ipv4/dhcp.c **** 
 861              		.loc 1 1242 0
 862 0028 9021     		movs	r1, #144
 863 002a 8900     		lsls	r1, r1, #2
 864 002c 2000     		movs	r0, r4
 865 002e FFF7FEFF 		bl	dhcp_option_short
 866              	.LVL76:
1244:Source\LwIP\src\core\ipv4/dhcp.c ****     dhcp_option_long(dhcp, lwip_ntohl(ip4_addr_get_u32(&dhcp->offered_ip_addr)));
 867              		.loc 1 1244 0
 868 0032 0422     		movs	r2, #4
 869 0034 3221     		movs	r1, #50
 870 0036 2000     		movs	r0, r4
 871 0038 FFF7FEFF 		bl	dhcp_option
 872              	.LVL77:
1245:Source\LwIP\src\core\ipv4/dhcp.c **** 
 873              		.loc 1 1245 0
 874 003c A06A     		ldr	r0, [r4, #40]
 875 003e FFF7FEFF 		bl	lwip_htonl
 876              	.LVL78:
ARM GAS  C:\Users\Phuong\AppData\Local\Temp\ccmYXgep.s 			page 52


 877 0042 0100     		movs	r1, r0
 878 0044 2000     		movs	r0, r4
 879 0046 FFF7FEFF 		bl	dhcp_option_long
 880              	.LVL79:
1247:Source\LwIP\src\core\ipv4/dhcp.c ****     for (i = 0; i < LWIP_ARRAYSIZE(dhcp_discover_request_options); i++) {
 881              		.loc 1 1247 0
 882 004a 0422     		movs	r2, #4
 883 004c 3721     		movs	r1, #55
 884 004e 2000     		movs	r0, r4
 885 0050 FFF7FEFF 		bl	dhcp_option
 886              	.LVL80:
1248:Source\LwIP\src\core\ipv4/dhcp.c ****       dhcp_option_byte(dhcp, dhcp_discover_request_options[i]);
 887              		.loc 1 1248 0
 888 0054 0025     		movs	r5, #0
 889 0056 06E0     		b	.L49
 890              	.LVL81:
 891              	.L50:
1249:Source\LwIP\src\core\ipv4/dhcp.c ****     }
 892              		.loc 1 1249 0 discriminator 3
 893 0058 1A4B     		ldr	r3, .L54
 894 005a 595D     		ldrb	r1, [r3, r5]
 895 005c 2000     		movs	r0, r4
 896 005e FFF7FEFF 		bl	dhcp_option_byte
 897              	.LVL82:
1248:Source\LwIP\src\core\ipv4/dhcp.c ****       dhcp_option_byte(dhcp, dhcp_discover_request_options[i]);
 898              		.loc 1 1248 0 discriminator 3
 899 0062 0135     		adds	r5, r5, #1
 900              	.LVL83:
 901 0064 EDB2     		uxtb	r5, r5
 902              	.LVL84:
 903              	.L49:
1248:Source\LwIP\src\core\ipv4/dhcp.c ****       dhcp_option_byte(dhcp, dhcp_discover_request_options[i]);
 904              		.loc 1 1248 0 is_stmt 0 discriminator 1
 905 0066 032D     		cmp	r5, #3
 906 0068 F6D9     		bls	.L50
1252:Source\LwIP\src\core\ipv4/dhcp.c **** 
 907              		.loc 1 1252 0 is_stmt 1
 908 006a 2000     		movs	r0, r4
 909 006c FFF7FEFF 		bl	dhcp_option_trailer
 910              	.LVL85:
1254:Source\LwIP\src\core\ipv4/dhcp.c **** 
 911              		.loc 1 1254 0
 912 0070 A18A     		ldrh	r1, [r4, #20]
 913 0072 F031     		adds	r1, r1, #240
 914 0074 89B2     		uxth	r1, r1
 915 0076 E068     		ldr	r0, [r4, #12]
 916 0078 FFF7FEFF 		bl	pbuf_realloc
 917              	.LVL86:
1257:Source\LwIP\src\core\ipv4/dhcp.c ****     dhcp_delete_msg(dhcp);
 918              		.loc 1 1257 0
 919 007c E168     		ldr	r1, [r4, #12]
 920 007e 124B     		ldr	r3, .L54+4
 921 0080 5868     		ldr	r0, [r3, #4]
 922 0082 0097     		str	r7, [sp]
 923 0084 4323     		movs	r3, #67
 924 0086 114A     		ldr	r2, .L54+8
 925 0088 FFF7FEFF 		bl	udp_sendto_if
ARM GAS  C:\Users\Phuong\AppData\Local\Temp\ccmYXgep.s 			page 53


 926              	.LVL87:
1258:Source\LwIP\src\core\ipv4/dhcp.c ****     LWIP_DEBUGF(DHCP_DEBUG | LWIP_DBG_TRACE | LWIP_DBG_STATE, ("dhcp_reboot: REBOOTING\n"));
 927              		.loc 1 1258 0
 928 008c 2000     		movs	r0, r4
 929 008e FFF7FEFF 		bl	dhcp_delete_msg
 930              	.LVL88:
 931              	.L48:
1263:Source\LwIP\src\core\ipv4/dhcp.c ****     dhcp->tries++;
 932              		.loc 1 1263 0
 933 0092 A37A     		ldrb	r3, [r4, #10]
 934 0094 FF2B     		cmp	r3, #255
 935 0096 01D0     		beq	.L51
1264:Source\LwIP\src\core\ipv4/dhcp.c ****   }
 936              		.loc 1 1264 0
 937 0098 0133     		adds	r3, r3, #1
 938 009a A372     		strb	r3, [r4, #10]
 939              	.L51:
1266:Source\LwIP\src\core\ipv4/dhcp.c ****   dhcp->request_timeout = (msecs + DHCP_FINE_TIMER_MSECS - 1) / DHCP_FINE_TIMER_MSECS;
 940              		.loc 1 1266 0
 941 009c A07A     		ldrb	r0, [r4, #10]
 942 009e 0928     		cmp	r0, #9
 943 00a0 04D8     		bhi	.L53
1266:Source\LwIP\src\core\ipv4/dhcp.c ****   dhcp->request_timeout = (msecs + DHCP_FINE_TIMER_MSECS - 1) / DHCP_FINE_TIMER_MSECS;
 944              		.loc 1 1266 0 is_stmt 0 discriminator 1
 945 00a2 FA23     		movs	r3, #250
 946 00a4 9B00     		lsls	r3, r3, #2
 947 00a6 5843     		muls	r0, r3
 948 00a8 80B2     		uxth	r0, r0
 949 00aa 00E0     		b	.L52
 950              	.L53:
1266:Source\LwIP\src\core\ipv4/dhcp.c ****   dhcp->request_timeout = (msecs + DHCP_FINE_TIMER_MSECS - 1) / DHCP_FINE_TIMER_MSECS;
 951              		.loc 1 1266 0
 952 00ac 0848     		ldr	r0, .L54+12
 953              	.L52:
 954              	.LVL89:
1267:Source\LwIP\src\core\ipv4/dhcp.c ****   LWIP_DEBUGF(DHCP_DEBUG | LWIP_DBG_TRACE | LWIP_DBG_STATE, ("dhcp_reboot(): set request timeout %"
 955              		.loc 1 1267 0 is_stmt 1 discriminator 4
 956 00ae F430     		adds	r0, r0, #244
 957              	.LVL90:
 958 00b0 FF30     		adds	r0, r0, #255
 959 00b2 FA21     		movs	r1, #250
 960 00b4 4900     		lsls	r1, r1, #1
 961 00b6 FFF7FEFF 		bl	__aeabi_idiv
 962              	.LVL91:
 963 00ba E082     		strh	r0, [r4, #22]
1270:Source\LwIP\src\core\ipv4/dhcp.c **** 
 964              		.loc 1 1270 0 discriminator 4
 965 00bc 3000     		movs	r0, r6
 966 00be 03B0     		add	sp, sp, #12
 967              		@ sp needed
 968              	.LVL92:
 969              	.LVL93:
 970 00c0 F0BD     		pop	{r4, r5, r6, r7, pc}
 971              	.L55:
 972 00c2 C046     		.align	2
 973              	.L54:
 974 00c4 F0000000 		.word	.LANCHOR1
ARM GAS  C:\Users\Phuong\AppData\Local\Temp\ccmYXgep.s 			page 54


 975 00c8 00000000 		.word	.LANCHOR0
 976 00cc 00000000 		.word	ip_addr_broadcast
 977 00d0 10270000 		.word	10000
 978              		.cfi_endproc
 979              	.LFE73:
 980              		.size	dhcp_reboot, .-dhcp_reboot
 981              		.section	.text.dhcp_option_hostname,"ax",%progbits
 982              		.align	2
 983              		.code	16
 984              		.thumb_func
 985              		.type	dhcp_option_hostname, %function
 986              	dhcp_option_hostname:
 987              	.LFB81:
1428:Source\LwIP\src\core\ipv4/dhcp.c ****   if (netif->hostname != NULL) {
 988              		.loc 1 1428 0
 989              		.cfi_startproc
 990              		@ args = 0, pretend = 0, frame = 8
 991              		@ frame_needed = 0, uses_anonymous_args = 0
 992              	.LVL94:
 993 0000 F0B5     		push	{r4, r5, r6, r7, lr}
 994              		.cfi_def_cfa_offset 20
 995              		.cfi_offset 4, -20
 996              		.cfi_offset 5, -16
 997              		.cfi_offset 6, -12
 998              		.cfi_offset 7, -8
 999              		.cfi_offset 14, -4
 1000 0002 83B0     		sub	sp, sp, #12
 1001              		.cfi_def_cfa_offset 32
 1002 0004 0190     		str	r0, [sp, #4]
1429:Source\LwIP\src\core\ipv4/dhcp.c ****     size_t namelen = strlen(netif->hostname);
 1003              		.loc 1 1429 0
 1004 0006 0D6B     		ldr	r5, [r1, #48]
 1005 0008 002D     		cmp	r5, #0
 1006 000a 1CD0     		beq	.L56
 1007              	.LBB2:
1430:Source\LwIP\src\core\ipv4/dhcp.c ****     if (namelen > 0) {
 1008              		.loc 1 1430 0
 1009 000c 2800     		movs	r0, r5
 1010              	.LVL95:
 1011 000e FFF7FEFF 		bl	strlen
 1012              	.LVL96:
1431:Source\LwIP\src\core\ipv4/dhcp.c ****       size_t len;
 1013              		.loc 1 1431 0
 1014 0012 0028     		cmp	r0, #0
 1015 0014 17D0     		beq	.L56
 1016              	.LVL97:
 1017              	.LBB3:
1436:Source\LwIP\src\core\ipv4/dhcp.c ****       LWIP_ASSERT("DHCP: hostname is too long!", namelen <= available);
 1018              		.loc 1 1436 0
 1019 0016 019B     		ldr	r3, [sp, #4]
 1020 0018 9A8A     		ldrh	r2, [r3, #20]
 1021 001a 4123     		movs	r3, #65
 1022 001c 9B1A     		subs	r3, r3, r2
 1023              	.LVL98:
1438:Source\LwIP\src\core\ipv4/dhcp.c ****       LWIP_ASSERT("DHCP: hostname is too long!", len <= 0xFF);
 1024              		.loc 1 1438 0
 1025 001e 0400     		movs	r4, r0
ARM GAS  C:\Users\Phuong\AppData\Local\Temp\ccmYXgep.s 			page 55


 1026 0020 9842     		cmp	r0, r3
 1027 0022 00D9     		bls	.L58
 1028 0024 1C00     		movs	r4, r3
 1029              	.L58:
 1030              	.LVL99:
1440:Source\LwIP\src\core\ipv4/dhcp.c ****       while (len--) {
 1031              		.loc 1 1440 0
 1032 0026 E2B2     		uxtb	r2, r4
 1033 0028 0C21     		movs	r1, #12
 1034 002a 0198     		ldr	r0, [sp, #4]
 1035              	.LVL100:
 1036 002c FFF7FEFF 		bl	dhcp_option
 1037              	.LVL101:
1441:Source\LwIP\src\core\ipv4/dhcp.c ****         dhcp_option_byte(dhcp, *p++);
 1038              		.loc 1 1441 0
 1039 0030 06E0     		b	.L59
 1040              	.LVL102:
 1041              	.L60:
1442:Source\LwIP\src\core\ipv4/dhcp.c ****       }
 1042              		.loc 1 1442 0
 1043 0032 6E1C     		adds	r6, r5, #1
 1044              	.LVL103:
 1045 0034 2978     		ldrb	r1, [r5]
 1046 0036 0198     		ldr	r0, [sp, #4]
 1047 0038 FFF7FEFF 		bl	dhcp_option_byte
 1048              	.LVL104:
1441:Source\LwIP\src\core\ipv4/dhcp.c ****         dhcp_option_byte(dhcp, *p++);
 1049              		.loc 1 1441 0
 1050 003c 3C00     		movs	r4, r7
1442:Source\LwIP\src\core\ipv4/dhcp.c ****       }
 1051              		.loc 1 1442 0
 1052 003e 3500     		movs	r5, r6
 1053              	.LVL105:
 1054              	.L59:
1441:Source\LwIP\src\core\ipv4/dhcp.c ****         dhcp_option_byte(dhcp, *p++);
 1055              		.loc 1 1441 0
 1056 0040 671E     		subs	r7, r4, #1
 1057              	.LVL106:
 1058 0042 002C     		cmp	r4, #0
 1059 0044 F5D1     		bne	.L60
 1060              	.LVL107:
 1061              	.L56:
 1062              	.LBE3:
 1063              	.LBE2:
1446:Source\LwIP\src\core\ipv4/dhcp.c **** #endif /* LWIP_NETIF_HOSTNAME */
 1064              		.loc 1 1446 0
 1065 0046 03B0     		add	sp, sp, #12
 1066              		@ sp needed
 1067 0048 F0BD     		pop	{r4, r5, r6, r7, pc}
 1068              		.cfi_endproc
 1069              	.LFE81:
 1070              		.size	dhcp_option_hostname, .-dhcp_option_hostname
 1071 004a C046     		.section	.text.dhcp_rebind,"ax",%progbits
 1072              		.align	2
 1073              		.code	16
 1074              		.thumb_func
 1075              		.type	dhcp_rebind, %function
ARM GAS  C:\Users\Phuong\AppData\Local\Temp\ccmYXgep.s 			page 56


 1076              	dhcp_rebind:
 1077              	.LFB72:
1180:Source\LwIP\src\core\ipv4/dhcp.c ****   struct dhcp *dhcp = netif_dhcp_data(netif);
 1078              		.loc 1 1180 0
 1079              		.cfi_startproc
 1080              		@ args = 0, pretend = 0, frame = 0
 1081              		@ frame_needed = 0, uses_anonymous_args = 0
 1082              	.LVL108:
 1083 0000 F0B5     		push	{r4, r5, r6, r7, lr}
 1084              		.cfi_def_cfa_offset 20
 1085              		.cfi_offset 4, -20
 1086              		.cfi_offset 5, -16
 1087              		.cfi_offset 6, -12
 1088              		.cfi_offset 7, -8
 1089              		.cfi_offset 14, -4
 1090 0002 83B0     		sub	sp, sp, #12
 1091              		.cfi_def_cfa_offset 32
 1092 0004 0700     		movs	r7, r0
1181:Source\LwIP\src\core\ipv4/dhcp.c ****   err_t result;
 1093              		.loc 1 1181 0
 1094 0006 446A     		ldr	r4, [r0, #36]
 1095              	.LVL109:
1186:Source\LwIP\src\core\ipv4/dhcp.c **** 
 1096              		.loc 1 1186 0
 1097 0008 0421     		movs	r1, #4
 1098 000a 2000     		movs	r0, r4
 1099              	.LVL110:
 1100 000c FFF7FEFF 		bl	dhcp_set_state
 1101              	.LVL111:
1189:Source\LwIP\src\core\ipv4/dhcp.c ****   if (result == ERR_OK) {
 1102              		.loc 1 1189 0
 1103 0010 0322     		movs	r2, #3
 1104 0012 2100     		movs	r1, r4
 1105 0014 3800     		movs	r0, r7
 1106 0016 FFF7FEFF 		bl	dhcp_create_msg
 1107              	.LVL112:
 1108 001a 061E     		subs	r6, r0, #0
 1109              	.LVL113:
1190:Source\LwIP\src\core\ipv4/dhcp.c ****     dhcp_option(dhcp, DHCP_OPTION_MAX_MSG_SIZE, DHCP_OPTION_MAX_MSG_SIZE_LEN);
 1110              		.loc 1 1190 0
 1111 001c 30D1     		bne	.L62
1191:Source\LwIP\src\core\ipv4/dhcp.c ****     dhcp_option_short(dhcp, DHCP_MAX_MSG_LEN(netif));
 1112              		.loc 1 1191 0
 1113 001e 0222     		movs	r2, #2
 1114 0020 3921     		movs	r1, #57
 1115 0022 2000     		movs	r0, r4
 1116              	.LVL114:
 1117 0024 FFF7FEFF 		bl	dhcp_option
 1118              	.LVL115:
1192:Source\LwIP\src\core\ipv4/dhcp.c **** 
 1119              		.loc 1 1192 0
 1120 0028 B98E     		ldrh	r1, [r7, #52]
 1121 002a 2000     		movs	r0, r4
 1122 002c FFF7FEFF 		bl	dhcp_option_short
 1123              	.LVL116:
1194:Source\LwIP\src\core\ipv4/dhcp.c ****     for (i = 0; i < LWIP_ARRAYSIZE(dhcp_discover_request_options); i++) {
 1124              		.loc 1 1194 0
ARM GAS  C:\Users\Phuong\AppData\Local\Temp\ccmYXgep.s 			page 57


 1125 0030 0422     		movs	r2, #4
 1126 0032 3721     		movs	r1, #55
 1127 0034 2000     		movs	r0, r4
 1128 0036 FFF7FEFF 		bl	dhcp_option
 1129              	.LVL117:
1195:Source\LwIP\src\core\ipv4/dhcp.c ****       dhcp_option_byte(dhcp, dhcp_discover_request_options[i]);
 1130              		.loc 1 1195 0
 1131 003a 0025     		movs	r5, #0
 1132 003c 06E0     		b	.L63
 1133              	.LVL118:
 1134              	.L64:
1196:Source\LwIP\src\core\ipv4/dhcp.c ****     }
 1135              		.loc 1 1196 0 discriminator 3
 1136 003e 1C4B     		ldr	r3, .L68
 1137 0040 595D     		ldrb	r1, [r3, r5]
 1138 0042 2000     		movs	r0, r4
 1139 0044 FFF7FEFF 		bl	dhcp_option_byte
 1140              	.LVL119:
1195:Source\LwIP\src\core\ipv4/dhcp.c ****       dhcp_option_byte(dhcp, dhcp_discover_request_options[i]);
 1141              		.loc 1 1195 0 discriminator 3
 1142 0048 0135     		adds	r5, r5, #1
 1143              	.LVL120:
 1144 004a EDB2     		uxtb	r5, r5
 1145              	.LVL121:
 1146              	.L63:
1195:Source\LwIP\src\core\ipv4/dhcp.c ****       dhcp_option_byte(dhcp, dhcp_discover_request_options[i]);
 1147              		.loc 1 1195 0 is_stmt 0 discriminator 1
 1148 004c 032D     		cmp	r5, #3
 1149 004e F6D9     		bls	.L64
1200:Source\LwIP\src\core\ipv4/dhcp.c **** #endif /* LWIP_NETIF_HOSTNAME */
 1150              		.loc 1 1200 0 is_stmt 1
 1151 0050 3900     		movs	r1, r7
 1152 0052 2000     		movs	r0, r4
 1153 0054 FFF7FEFF 		bl	dhcp_option_hostname
 1154              	.LVL122:
1203:Source\LwIP\src\core\ipv4/dhcp.c **** 
 1155              		.loc 1 1203 0
 1156 0058 2000     		movs	r0, r4
 1157 005a FFF7FEFF 		bl	dhcp_option_trailer
 1158              	.LVL123:
1205:Source\LwIP\src\core\ipv4/dhcp.c **** 
 1159              		.loc 1 1205 0
 1160 005e A18A     		ldrh	r1, [r4, #20]
 1161 0060 F031     		adds	r1, r1, #240
 1162 0062 89B2     		uxth	r1, r1
 1163 0064 E068     		ldr	r0, [r4, #12]
 1164 0066 FFF7FEFF 		bl	pbuf_realloc
 1165              	.LVL124:
1208:Source\LwIP\src\core\ipv4/dhcp.c ****     dhcp_delete_msg(dhcp);
 1166              		.loc 1 1208 0
 1167 006a E168     		ldr	r1, [r4, #12]
 1168 006c 114B     		ldr	r3, .L68+4
 1169 006e 5868     		ldr	r0, [r3, #4]
 1170 0070 0097     		str	r7, [sp]
 1171 0072 4323     		movs	r3, #67
 1172 0074 104A     		ldr	r2, .L68+8
 1173 0076 FFF7FEFF 		bl	udp_sendto_if
ARM GAS  C:\Users\Phuong\AppData\Local\Temp\ccmYXgep.s 			page 58


 1174              	.LVL125:
1209:Source\LwIP\src\core\ipv4/dhcp.c ****     LWIP_DEBUGF(DHCP_DEBUG | LWIP_DBG_TRACE | LWIP_DBG_STATE, ("dhcp_rebind: REBINDING\n"));
 1175              		.loc 1 1209 0
 1176 007a 2000     		movs	r0, r4
 1177 007c FFF7FEFF 		bl	dhcp_delete_msg
 1178              	.LVL126:
 1179              	.L62:
1214:Source\LwIP\src\core\ipv4/dhcp.c ****     dhcp->tries++;
 1180              		.loc 1 1214 0
 1181 0080 A37A     		ldrb	r3, [r4, #10]
 1182 0082 FF2B     		cmp	r3, #255
 1183 0084 01D0     		beq	.L65
1215:Source\LwIP\src\core\ipv4/dhcp.c ****   }
 1184              		.loc 1 1215 0
 1185 0086 0133     		adds	r3, r3, #1
 1186 0088 A372     		strb	r3, [r4, #10]
 1187              	.L65:
1217:Source\LwIP\src\core\ipv4/dhcp.c ****   dhcp->request_timeout = (msecs + DHCP_FINE_TIMER_MSECS - 1) / DHCP_FINE_TIMER_MSECS;
 1188              		.loc 1 1217 0
 1189 008a A07A     		ldrb	r0, [r4, #10]
 1190 008c 0928     		cmp	r0, #9
 1191 008e 04D8     		bhi	.L67
1217:Source\LwIP\src\core\ipv4/dhcp.c ****   dhcp->request_timeout = (msecs + DHCP_FINE_TIMER_MSECS - 1) / DHCP_FINE_TIMER_MSECS;
 1192              		.loc 1 1217 0 is_stmt 0 discriminator 1
 1193 0090 FA23     		movs	r3, #250
 1194 0092 9B00     		lsls	r3, r3, #2
 1195 0094 5843     		muls	r0, r3
 1196 0096 80B2     		uxth	r0, r0
 1197 0098 00E0     		b	.L66
 1198              	.L67:
1217:Source\LwIP\src\core\ipv4/dhcp.c ****   dhcp->request_timeout = (msecs + DHCP_FINE_TIMER_MSECS - 1) / DHCP_FINE_TIMER_MSECS;
 1199              		.loc 1 1217 0
 1200 009a 0848     		ldr	r0, .L68+12
 1201              	.L66:
 1202              	.LVL127:
1218:Source\LwIP\src\core\ipv4/dhcp.c ****   LWIP_DEBUGF(DHCP_DEBUG | LWIP_DBG_TRACE | LWIP_DBG_STATE, ("dhcp_rebind(): set request timeout %"
 1203              		.loc 1 1218 0 is_stmt 1 discriminator 4
 1204 009c F430     		adds	r0, r0, #244
 1205              	.LVL128:
 1206 009e FF30     		adds	r0, r0, #255
 1207 00a0 FA21     		movs	r1, #250
 1208 00a2 4900     		lsls	r1, r1, #1
 1209 00a4 FFF7FEFF 		bl	__aeabi_idiv
 1210              	.LVL129:
 1211 00a8 E082     		strh	r0, [r4, #22]
1221:Source\LwIP\src\core\ipv4/dhcp.c **** 
 1212              		.loc 1 1221 0 discriminator 4
 1213 00aa 3000     		movs	r0, r6
 1214 00ac 03B0     		add	sp, sp, #12
 1215              		@ sp needed
 1216              	.LVL130:
 1217              	.LVL131:
 1218 00ae F0BD     		pop	{r4, r5, r6, r7, pc}
 1219              	.L69:
 1220              		.align	2
 1221              	.L68:
 1222 00b0 F0000000 		.word	.LANCHOR1
ARM GAS  C:\Users\Phuong\AppData\Local\Temp\ccmYXgep.s 			page 59


 1223 00b4 00000000 		.word	.LANCHOR0
 1224 00b8 00000000 		.word	ip_addr_broadcast
 1225 00bc 10270000 		.word	10000
 1226              		.cfi_endproc
 1227              	.LFE72:
 1228              		.size	dhcp_rebind, .-dhcp_rebind
 1229              		.section	.text.dhcp_t2_timeout,"ax",%progbits
 1230              		.align	2
 1231              		.code	16
 1232              		.thumb_func
 1233              		.type	dhcp_t2_timeout, %function
 1234              	dhcp_t2_timeout:
 1235              	.LFB62:
 559:Source\LwIP\src\core\ipv4/dhcp.c ****   struct dhcp *dhcp = netif_dhcp_data(netif);
 1236              		.loc 1 559 0
 1237              		.cfi_startproc
 1238              		@ args = 0, pretend = 0, frame = 0
 1239              		@ frame_needed = 0, uses_anonymous_args = 0
 1240              	.LVL132:
 1241 0000 10B5     		push	{r4, lr}
 1242              		.cfi_def_cfa_offset 8
 1243              		.cfi_offset 4, -8
 1244              		.cfi_offset 14, -4
 560:Source\LwIP\src\core\ipv4/dhcp.c **** 
 1245              		.loc 1 560 0
 1246 0002 446A     		ldr	r4, [r0, #36]
 1247              	.LVL133:
 563:Source\LwIP\src\core\ipv4/dhcp.c ****       (dhcp->state == DHCP_STATE_RENEWING) || (dhcp->state == DHCP_STATE_REBINDING)) {
 1248              		.loc 1 563 0
 1249 0004 637A     		ldrb	r3, [r4, #9]
 1250 0006 012B     		cmp	r3, #1
 1251 0008 05D0     		beq	.L71
 563:Source\LwIP\src\core\ipv4/dhcp.c ****       (dhcp->state == DHCP_STATE_RENEWING) || (dhcp->state == DHCP_STATE_REBINDING)) {
 1252              		.loc 1 563 0 is_stmt 0 discriminator 1
 1253 000a 0A2B     		cmp	r3, #10
 1254 000c 03D0     		beq	.L71
 563:Source\LwIP\src\core\ipv4/dhcp.c ****       (dhcp->state == DHCP_STATE_RENEWING) || (dhcp->state == DHCP_STATE_REBINDING)) {
 1255              		.loc 1 563 0 discriminator 2
 1256 000e 052B     		cmp	r3, #5
 1257 0010 01D0     		beq	.L71
 564:Source\LwIP\src\core\ipv4/dhcp.c ****     /* just retry to rebind */
 1258              		.loc 1 564 0 is_stmt 1
 1259 0012 042B     		cmp	r3, #4
 1260 0014 0AD1     		bne	.L70
 1261              	.L71:
 570:Source\LwIP\src\core\ipv4/dhcp.c ****     /* Calculate next timeout */
 1262              		.loc 1 570 0
 1263 0016 FFF7FEFF 		bl	dhcp_rebind
 1264              	.LVL134:
 572:Source\LwIP\src\core\ipv4/dhcp.c ****     {
 1265              		.loc 1 572 0
 1266 001a 638C     		ldrh	r3, [r4, #34]
 1267 001c 228C     		ldrh	r2, [r4, #32]
 1268 001e 9B1A     		subs	r3, r3, r2
 1269 0020 012B     		cmp	r3, #1
 1270 0022 03DD     		ble	.L70
 574:Source\LwIP\src\core\ipv4/dhcp.c ****     }
ARM GAS  C:\Users\Phuong\AppData\Local\Temp\ccmYXgep.s 			page 60


 1271              		.loc 1 574 0
 1272 0024 DA0F     		lsrs	r2, r3, #31
 1273 0026 D318     		adds	r3, r2, r3
 1274 0028 5B10     		asrs	r3, r3, #1
 1275 002a E383     		strh	r3, [r4, #30]
 1276              	.L70:
 577:Source\LwIP\src\core\ipv4/dhcp.c **** 
 1277              		.loc 1 577 0
 1278              		@ sp needed
 1279              	.LVL135:
 1280 002c 10BD     		pop	{r4, pc}
 1281              		.cfi_endproc
 1282              	.LFE62:
 1283              		.size	dhcp_t2_timeout, .-dhcp_t2_timeout
 1284 002e C046     		.section	.text.dhcp_select,"ax",%progbits
 1285              		.align	2
 1286              		.code	16
 1287              		.thumb_func
 1288              		.type	dhcp_select, %function
 1289              	dhcp_select:
 1290              	.LFB57:
 353:Source\LwIP\src\core\ipv4/dhcp.c ****   struct dhcp *dhcp = netif_dhcp_data(netif);
 1291              		.loc 1 353 0
 1292              		.cfi_startproc
 1293              		@ args = 0, pretend = 0, frame = 0
 1294              		@ frame_needed = 0, uses_anonymous_args = 0
 1295              	.LVL136:
 1296 0000 F0B5     		push	{r4, r5, r6, r7, lr}
 1297              		.cfi_def_cfa_offset 20
 1298              		.cfi_offset 4, -20
 1299              		.cfi_offset 5, -16
 1300              		.cfi_offset 6, -12
 1301              		.cfi_offset 7, -8
 1302              		.cfi_offset 14, -4
 1303 0002 83B0     		sub	sp, sp, #12
 1304              		.cfi_def_cfa_offset 32
 1305 0004 0700     		movs	r7, r0
 354:Source\LwIP\src\core\ipv4/dhcp.c ****   err_t result;
 1306              		.loc 1 354 0
 1307 0006 446A     		ldr	r4, [r0, #36]
 1308              	.LVL137:
 360:Source\LwIP\src\core\ipv4/dhcp.c **** 
 1309              		.loc 1 360 0
 1310 0008 0121     		movs	r1, #1
 1311 000a 2000     		movs	r0, r4
 1312              	.LVL138:
 1313 000c FFF7FEFF 		bl	dhcp_set_state
 1314              	.LVL139:
 363:Source\LwIP\src\core\ipv4/dhcp.c ****   if (result == ERR_OK) {
 1315              		.loc 1 363 0
 1316 0010 0322     		movs	r2, #3
 1317 0012 2100     		movs	r1, r4
 1318 0014 3800     		movs	r0, r7
 1319 0016 FFF7FEFF 		bl	dhcp_create_msg
 1320              	.LVL140:
 1321 001a 061E     		subs	r6, r0, #0
 1322              	.LVL141:
ARM GAS  C:\Users\Phuong\AppData\Local\Temp\ccmYXgep.s 			page 61


 364:Source\LwIP\src\core\ipv4/dhcp.c ****     dhcp_option(dhcp, DHCP_OPTION_MAX_MSG_SIZE, DHCP_OPTION_MAX_MSG_SIZE_LEN);
 1323              		.loc 1 364 0
 1324 001c 4AD1     		bne	.L74
 365:Source\LwIP\src\core\ipv4/dhcp.c ****     dhcp_option_short(dhcp, DHCP_MAX_MSG_LEN(netif));
 1325              		.loc 1 365 0
 1326 001e 0222     		movs	r2, #2
 1327 0020 3921     		movs	r1, #57
 1328 0022 2000     		movs	r0, r4
 1329              	.LVL142:
 1330 0024 FFF7FEFF 		bl	dhcp_option
 1331              	.LVL143:
 366:Source\LwIP\src\core\ipv4/dhcp.c **** 
 1332              		.loc 1 366 0
 1333 0028 B98E     		ldrh	r1, [r7, #52]
 1334 002a 2000     		movs	r0, r4
 1335 002c FFF7FEFF 		bl	dhcp_option_short
 1336              	.LVL144:
 369:Source\LwIP\src\core\ipv4/dhcp.c ****     dhcp_option_long(dhcp, lwip_ntohl(ip4_addr_get_u32(&dhcp->offered_ip_addr)));
 1337              		.loc 1 369 0
 1338 0030 0422     		movs	r2, #4
 1339 0032 3221     		movs	r1, #50
 1340 0034 2000     		movs	r0, r4
 1341 0036 FFF7FEFF 		bl	dhcp_option
 1342              	.LVL145:
 370:Source\LwIP\src\core\ipv4/dhcp.c **** 
 1343              		.loc 1 370 0
 1344 003a A06A     		ldr	r0, [r4, #40]
 1345 003c FFF7FEFF 		bl	lwip_htonl
 1346              	.LVL146:
 1347 0040 0100     		movs	r1, r0
 1348 0042 2000     		movs	r0, r4
 1349 0044 FFF7FEFF 		bl	dhcp_option_long
 1350              	.LVL147:
 372:Source\LwIP\src\core\ipv4/dhcp.c ****     dhcp_option_long(dhcp, lwip_ntohl(ip4_addr_get_u32(ip_2_ip4(&dhcp->server_ip_addr))));
 1351              		.loc 1 372 0
 1352 0048 0422     		movs	r2, #4
 1353 004a 3621     		movs	r1, #54
 1354 004c 2000     		movs	r0, r4
 1355 004e FFF7FEFF 		bl	dhcp_option
 1356              	.LVL148:
 373:Source\LwIP\src\core\ipv4/dhcp.c **** 
 1357              		.loc 1 373 0
 1358 0052 606A     		ldr	r0, [r4, #36]
 1359 0054 FFF7FEFF 		bl	lwip_htonl
 1360              	.LVL149:
 1361 0058 0100     		movs	r1, r0
 1362 005a 2000     		movs	r0, r4
 1363 005c FFF7FEFF 		bl	dhcp_option_long
 1364              	.LVL150:
 375:Source\LwIP\src\core\ipv4/dhcp.c ****     for (i = 0; i < LWIP_ARRAYSIZE(dhcp_discover_request_options); i++) {
 1365              		.loc 1 375 0
 1366 0060 0422     		movs	r2, #4
 1367 0062 3721     		movs	r1, #55
 1368 0064 2000     		movs	r0, r4
 1369 0066 FFF7FEFF 		bl	dhcp_option
 1370              	.LVL151:
 376:Source\LwIP\src\core\ipv4/dhcp.c ****       dhcp_option_byte(dhcp, dhcp_discover_request_options[i]);
ARM GAS  C:\Users\Phuong\AppData\Local\Temp\ccmYXgep.s 			page 62


 1371              		.loc 1 376 0
 1372 006a 0025     		movs	r5, #0
 1373 006c 06E0     		b	.L75
 1374              	.LVL152:
 1375              	.L76:
 377:Source\LwIP\src\core\ipv4/dhcp.c ****     }
 1376              		.loc 1 377 0 discriminator 3
 1377 006e 1D4B     		ldr	r3, .L80
 1378 0070 595D     		ldrb	r1, [r3, r5]
 1379 0072 2000     		movs	r0, r4
 1380 0074 FFF7FEFF 		bl	dhcp_option_byte
 1381              	.LVL153:
 376:Source\LwIP\src\core\ipv4/dhcp.c ****       dhcp_option_byte(dhcp, dhcp_discover_request_options[i]);
 1382              		.loc 1 376 0 discriminator 3
 1383 0078 0135     		adds	r5, r5, #1
 1384              	.LVL154:
 1385 007a EDB2     		uxtb	r5, r5
 1386              	.LVL155:
 1387              	.L75:
 376:Source\LwIP\src\core\ipv4/dhcp.c ****       dhcp_option_byte(dhcp, dhcp_discover_request_options[i]);
 1388              		.loc 1 376 0 is_stmt 0 discriminator 1
 1389 007c 032D     		cmp	r5, #3
 1390 007e F6D9     		bls	.L76
 381:Source\LwIP\src\core\ipv4/dhcp.c **** #endif /* LWIP_NETIF_HOSTNAME */
 1391              		.loc 1 381 0 is_stmt 1
 1392 0080 3900     		movs	r1, r7
 1393 0082 2000     		movs	r0, r4
 1394 0084 FFF7FEFF 		bl	dhcp_option_hostname
 1395              	.LVL156:
 384:Source\LwIP\src\core\ipv4/dhcp.c ****     /* shrink the pbuf to the actual content length */
 1396              		.loc 1 384 0
 1397 0088 2000     		movs	r0, r4
 1398 008a FFF7FEFF 		bl	dhcp_option_trailer
 1399              	.LVL157:
 386:Source\LwIP\src\core\ipv4/dhcp.c **** 
 1400              		.loc 1 386 0
 1401 008e A18A     		ldrh	r1, [r4, #20]
 1402 0090 F031     		adds	r1, r1, #240
 1403 0092 89B2     		uxth	r1, r1
 1404 0094 E068     		ldr	r0, [r4, #12]
 1405 0096 FFF7FEFF 		bl	pbuf_realloc
 1406              	.LVL158:
 389:Source\LwIP\src\core\ipv4/dhcp.c ****     dhcp_delete_msg(dhcp);
 1407              		.loc 1 389 0
 1408 009a E168     		ldr	r1, [r4, #12]
 1409 009c 124B     		ldr	r3, .L80+4
 1410 009e 5868     		ldr	r0, [r3, #4]
 1411 00a0 124B     		ldr	r3, .L80+8
 1412 00a2 0193     		str	r3, [sp, #4]
 1413 00a4 0097     		str	r7, [sp]
 1414 00a6 4323     		movs	r3, #67
 1415 00a8 114A     		ldr	r2, .L80+12
 1416 00aa FFF7FEFF 		bl	udp_sendto_if_src
 1417              	.LVL159:
 390:Source\LwIP\src\core\ipv4/dhcp.c ****     LWIP_DEBUGF(DHCP_DEBUG | LWIP_DBG_TRACE | LWIP_DBG_STATE, ("dhcp_select: REQUESTING\n"));
 1418              		.loc 1 390 0
 1419 00ae 2000     		movs	r0, r4
ARM GAS  C:\Users\Phuong\AppData\Local\Temp\ccmYXgep.s 			page 63


 1420 00b0 FFF7FEFF 		bl	dhcp_delete_msg
 1421              	.LVL160:
 1422              	.L74:
 395:Source\LwIP\src\core\ipv4/dhcp.c ****     dhcp->tries++;
 1423              		.loc 1 395 0
 1424 00b4 A37A     		ldrb	r3, [r4, #10]
 1425 00b6 FF2B     		cmp	r3, #255
 1426 00b8 01D0     		beq	.L77
 396:Source\LwIP\src\core\ipv4/dhcp.c ****   }
 1427              		.loc 1 396 0
 1428 00ba 0133     		adds	r3, r3, #1
 1429 00bc A372     		strb	r3, [r4, #10]
 1430              	.L77:
 398:Source\LwIP\src\core\ipv4/dhcp.c ****   dhcp->request_timeout = (msecs + DHCP_FINE_TIMER_MSECS - 1) / DHCP_FINE_TIMER_MSECS;
 1431              		.loc 1 398 0
 1432 00be A37A     		ldrb	r3, [r4, #10]
 1433 00c0 052B     		cmp	r3, #5
 1434 00c2 04D8     		bhi	.L79
 398:Source\LwIP\src\core\ipv4/dhcp.c ****   dhcp->request_timeout = (msecs + DHCP_FINE_TIMER_MSECS - 1) / DHCP_FINE_TIMER_MSECS;
 1435              		.loc 1 398 0 is_stmt 0 discriminator 1
 1436 00c4 FA20     		movs	r0, #250
 1437 00c6 8000     		lsls	r0, r0, #2
 1438 00c8 9840     		lsls	r0, r0, r3
 1439 00ca 80B2     		uxth	r0, r0
 1440 00cc 00E0     		b	.L78
 1441              	.L79:
 398:Source\LwIP\src\core\ipv4/dhcp.c ****   dhcp->request_timeout = (msecs + DHCP_FINE_TIMER_MSECS - 1) / DHCP_FINE_TIMER_MSECS;
 1442              		.loc 1 398 0
 1443 00ce 0948     		ldr	r0, .L80+16
 1444              	.L78:
 1445              	.LVL161:
 399:Source\LwIP\src\core\ipv4/dhcp.c ****   LWIP_DEBUGF(DHCP_DEBUG | LWIP_DBG_STATE, ("dhcp_select(): set request timeout %"U16_F" msecs\n", 
 1446              		.loc 1 399 0 is_stmt 1 discriminator 4
 1447 00d0 F430     		adds	r0, r0, #244
 1448              	.LVL162:
 1449 00d2 FF30     		adds	r0, r0, #255
 1450 00d4 FA21     		movs	r1, #250
 1451 00d6 4900     		lsls	r1, r1, #1
 1452 00d8 FFF7FEFF 		bl	__aeabi_idiv
 1453              	.LVL163:
 1454 00dc E082     		strh	r0, [r4, #22]
 402:Source\LwIP\src\core\ipv4/dhcp.c **** 
 1455              		.loc 1 402 0 discriminator 4
 1456 00de 3000     		movs	r0, r6
 1457 00e0 03B0     		add	sp, sp, #12
 1458              		@ sp needed
 1459              	.LVL164:
 1460              	.LVL165:
 1461 00e2 F0BD     		pop	{r4, r5, r6, r7, pc}
 1462              	.L81:
 1463              		.align	2
 1464              	.L80:
 1465 00e4 F0000000 		.word	.LANCHOR1
 1466 00e8 00000000 		.word	.LANCHOR0
 1467 00ec 00000000 		.word	ip_addr_any
 1468 00f0 00000000 		.word	ip_addr_broadcast
 1469 00f4 60EA0000 		.word	60000
ARM GAS  C:\Users\Phuong\AppData\Local\Temp\ccmYXgep.s 			page 64


 1470              		.cfi_endproc
 1471              	.LFE57:
 1472              		.size	dhcp_select, .-dhcp_select
 1473              		.section	.text.dhcp_handle_offer,"ax",%progbits
 1474              		.align	2
 1475              		.code	16
 1476              		.thumb_func
 1477              		.type	dhcp_handle_offer, %function
 1478              	dhcp_handle_offer:
 1479              	.LFB56:
 321:Source\LwIP\src\core\ipv4/dhcp.c ****   struct dhcp *dhcp = netif_dhcp_data(netif);
 1480              		.loc 1 321 0
 1481              		.cfi_startproc
 1482              		@ args = 0, pretend = 0, frame = 0
 1483              		@ frame_needed = 0, uses_anonymous_args = 0
 1484              	.LVL166:
 1485 0000 70B5     		push	{r4, r5, r6, lr}
 1486              		.cfi_def_cfa_offset 16
 1487              		.cfi_offset 4, -16
 1488              		.cfi_offset 5, -12
 1489              		.cfi_offset 6, -8
 1490              		.cfi_offset 14, -4
 1491 0002 0600     		movs	r6, r0
 322:Source\LwIP\src\core\ipv4/dhcp.c **** 
 1492              		.loc 1 322 0
 1493 0004 456A     		ldr	r5, [r0, #36]
 1494              	.LVL167:
 327:Source\LwIP\src\core\ipv4/dhcp.c ****     ip_addr_set_ip4_u32(&dhcp->server_ip_addr, lwip_htonl(dhcp_get_option_value(dhcp, DHCP_OPTION_I
 1495              		.loc 1 327 0
 1496 0006 0D4B     		ldr	r3, .L84
 1497 0008 9B78     		ldrb	r3, [r3, #2]
 1498 000a 002B     		cmp	r3, #0
 1499 000c 14D0     		beq	.L82
 328:Source\LwIP\src\core\ipv4/dhcp.c ****     LWIP_DEBUGF(DHCP_DEBUG | LWIP_DBG_STATE, ("dhcp_handle_offer(): server 0x%08"X32_F"\n",
 1500              		.loc 1 328 0
 1501 000e 0C4B     		ldr	r3, .L84+4
 1502 0010 9868     		ldr	r0, [r3, #8]
 1503              	.LVL168:
 1504 0012 FFF7FEFF 		bl	lwip_htonl
 1505              	.LVL169:
 1506 0016 6862     		str	r0, [r5, #36]
 332:Source\LwIP\src\core\ipv4/dhcp.c ****     LWIP_DEBUGF(DHCP_DEBUG | LWIP_DBG_STATE, ("dhcp_handle_offer(): offer for 0x%08"X32_F"\n",
 1507              		.loc 1 332 0
 1508 0018 6C68     		ldr	r4, [r5, #4]
 1509 001a 207C     		ldrb	r0, [r4, #16]
 1510 001c 627C     		ldrb	r2, [r4, #17]
 1511 001e 1202     		lsls	r2, r2, #8
 1512 0020 0243     		orrs	r2, r0
 1513 0022 A37C     		ldrb	r3, [r4, #18]
 1514 0024 1B04     		lsls	r3, r3, #16
 1515 0026 1343     		orrs	r3, r2
 1516 0028 1A00     		movs	r2, r3
 1517 002a E37C     		ldrb	r3, [r4, #19]
 1518 002c 1B06     		lsls	r3, r3, #24
 1519 002e 1343     		orrs	r3, r2
 1520 0030 AB62     		str	r3, [r5, #40]
 336:Source\LwIP\src\core\ipv4/dhcp.c ****   } else {
ARM GAS  C:\Users\Phuong\AppData\Local\Temp\ccmYXgep.s 			page 65


 1521              		.loc 1 336 0
 1522 0032 3000     		movs	r0, r6
 1523 0034 FFF7FEFF 		bl	dhcp_select
 1524              	.LVL170:
 1525              	.L82:
 341:Source\LwIP\src\core\ipv4/dhcp.c **** 
 1526              		.loc 1 341 0
 1527              		@ sp needed
 1528              	.LVL171:
 1529              	.LVL172:
 1530 0038 70BD     		pop	{r4, r5, r6, pc}
 1531              	.L85:
 1532 003a C046     		.align	2
 1533              	.L84:
 1534 003c 00000000 		.word	dhcp_rx_options_given
 1535 0040 00000000 		.word	dhcp_rx_options_val
 1536              		.cfi_endproc
 1537              	.LFE56:
 1538              		.size	dhcp_handle_offer, .-dhcp_handle_offer
 1539              		.section	.text.dhcp_dec_pcb_refcount,"ax",%progbits
 1540              		.align	2
 1541              		.code	16
 1542              		.thumb_func
 1543              		.type	dhcp_dec_pcb_refcount, %function
 1544              	dhcp_dec_pcb_refcount:
 1545              	.LFB54:
 242:Source\LwIP\src\core\ipv4/dhcp.c ****   LWIP_ASSERT("dhcp_pcb_refcount(): refcount error", (dhcp_pcb_refcount > 0));
 1546              		.loc 1 242 0
 1547              		.cfi_startproc
 1548              		@ args = 0, pretend = 0, frame = 0
 1549              		@ frame_needed = 0, uses_anonymous_args = 0
 1550 0000 10B5     		push	{r4, lr}
 1551              		.cfi_def_cfa_offset 8
 1552              		.cfi_offset 4, -8
 1553              		.cfi_offset 14, -4
 244:Source\LwIP\src\core\ipv4/dhcp.c **** 
 1554              		.loc 1 244 0
 1555 0002 074A     		ldr	r2, .L88
 1556 0004 137A     		ldrb	r3, [r2, #8]
 1557 0006 013B     		subs	r3, r3, #1
 1558 0008 DBB2     		uxtb	r3, r3
 1559 000a 1372     		strb	r3, [r2, #8]
 246:Source\LwIP\src\core\ipv4/dhcp.c ****     udp_remove(dhcp_pcb);
 1560              		.loc 1 246 0
 1561 000c 002B     		cmp	r3, #0
 1562 000e 05D1     		bne	.L86
 247:Source\LwIP\src\core\ipv4/dhcp.c ****     dhcp_pcb = NULL;
 1563              		.loc 1 247 0
 1564 0010 1400     		movs	r4, r2
 1565 0012 5068     		ldr	r0, [r2, #4]
 1566 0014 FFF7FEFF 		bl	udp_remove
 1567              	.LVL173:
 248:Source\LwIP\src\core\ipv4/dhcp.c ****   }
 1568              		.loc 1 248 0
 1569 0018 0023     		movs	r3, #0
 1570 001a 6360     		str	r3, [r4, #4]
 1571              	.L86:
ARM GAS  C:\Users\Phuong\AppData\Local\Temp\ccmYXgep.s 			page 66


 250:Source\LwIP\src\core\ipv4/dhcp.c **** 
 1572              		.loc 1 250 0
 1573              		@ sp needed
 1574 001c 10BD     		pop	{r4, pc}
 1575              	.L89:
 1576 001e C046     		.align	2
 1577              	.L88:
 1578 0020 00000000 		.word	.LANCHOR0
 1579              		.cfi_endproc
 1580              	.LFE54:
 1581              		.size	dhcp_dec_pcb_refcount, .-dhcp_dec_pcb_refcount
 1582              		.section	.text.dhcp_inc_pcb_refcount,"ax",%progbits
 1583              		.align	2
 1584              		.code	16
 1585              		.thumb_func
 1586              		.type	dhcp_inc_pcb_refcount, %function
 1587              	dhcp_inc_pcb_refcount:
 1588              	.LFB53:
 215:Source\LwIP\src\core\ipv4/dhcp.c ****   if (dhcp_pcb_refcount == 0) {
 1589              		.loc 1 215 0
 1590              		.cfi_startproc
 1591              		@ args = 0, pretend = 0, frame = 0
 1592              		@ frame_needed = 0, uses_anonymous_args = 0
 1593 0000 70B5     		push	{r4, r5, r6, lr}
 1594              		.cfi_def_cfa_offset 16
 1595              		.cfi_offset 4, -16
 1596              		.cfi_offset 5, -12
 1597              		.cfi_offset 6, -8
 1598              		.cfi_offset 14, -4
 216:Source\LwIP\src\core\ipv4/dhcp.c ****     LWIP_ASSERT("dhcp_inc_pcb_refcount(): memory leak", dhcp_pcb == NULL);
 1599              		.loc 1 216 0
 1600 0002 134B     		ldr	r3, .L94
 1601 0004 1B7A     		ldrb	r3, [r3, #8]
 1602 0006 002B     		cmp	r3, #0
 1603 0008 19D1     		bne	.L91
 220:Source\LwIP\src\core\ipv4/dhcp.c **** 
 1604              		.loc 1 220 0
 1605 000a FFF7FEFF 		bl	udp_new
 1606              	.LVL174:
 1607 000e 104B     		ldr	r3, .L94
 1608 0010 5860     		str	r0, [r3, #4]
 222:Source\LwIP\src\core\ipv4/dhcp.c ****       return ERR_MEM;
 1609              		.loc 1 222 0
 1610 0012 0028     		cmp	r0, #0
 1611 0014 19D0     		beq	.L93
 226:Source\LwIP\src\core\ipv4/dhcp.c **** 
 1612              		.loc 1 226 0
 1613 0016 027A     		ldrb	r2, [r0, #8]
 1614 0018 2023     		movs	r3, #32
 1615 001a 1343     		orrs	r3, r2
 1616 001c 0372     		strb	r3, [r0, #8]
 229:Source\LwIP\src\core\ipv4/dhcp.c ****     udp_connect(dhcp_pcb, IP4_ADDR_ANY, DHCP_SERVER_PORT);
 1617              		.loc 1 229 0
 1618 001e 0D4D     		ldr	r5, .L94+4
 1619 0020 4422     		movs	r2, #68
 1620 0022 2900     		movs	r1, r5
 1621 0024 FFF7FEFF 		bl	udp_bind
ARM GAS  C:\Users\Phuong\AppData\Local\Temp\ccmYXgep.s 			page 67


 1622              	.LVL175:
 230:Source\LwIP\src\core\ipv4/dhcp.c ****     udp_recv(dhcp_pcb, dhcp_recv, NULL);
 1623              		.loc 1 230 0
 1624 0028 094C     		ldr	r4, .L94
 1625 002a 4322     		movs	r2, #67
 1626 002c 2900     		movs	r1, r5
 1627 002e 6068     		ldr	r0, [r4, #4]
 1628 0030 FFF7FEFF 		bl	udp_connect
 1629              	.LVL176:
 231:Source\LwIP\src\core\ipv4/dhcp.c ****   }
 1630              		.loc 1 231 0
 1631 0034 6068     		ldr	r0, [r4, #4]
 1632 0036 0022     		movs	r2, #0
 1633 0038 0749     		ldr	r1, .L94+8
 1634 003a FFF7FEFF 		bl	udp_recv
 1635              	.LVL177:
 1636              	.L91:
 234:Source\LwIP\src\core\ipv4/dhcp.c **** 
 1637              		.loc 1 234 0
 1638 003e 044A     		ldr	r2, .L94
 1639 0040 137A     		ldrb	r3, [r2, #8]
 1640 0042 0133     		adds	r3, r3, #1
 1641 0044 1372     		strb	r3, [r2, #8]
 236:Source\LwIP\src\core\ipv4/dhcp.c **** }
 1642              		.loc 1 236 0
 1643 0046 0020     		movs	r0, #0
 1644 0048 01E0     		b	.L92
 1645              	.L93:
 223:Source\LwIP\src\core\ipv4/dhcp.c ****     }
 1646              		.loc 1 223 0
 1647 004a 0120     		movs	r0, #1
 1648 004c 4042     		rsbs	r0, r0, #0
 1649              	.L92:
 237:Source\LwIP\src\core\ipv4/dhcp.c **** 
 1650              		.loc 1 237 0
 1651              		@ sp needed
 1652 004e 70BD     		pop	{r4, r5, r6, pc}
 1653              	.L95:
 1654              		.align	2
 1655              	.L94:
 1656 0050 00000000 		.word	.LANCHOR0
 1657 0054 00000000 		.word	ip_addr_any
 1658 0058 00000000 		.word	dhcp_recv
 1659              		.cfi_endproc
 1660              	.LFE53:
 1661              		.size	dhcp_inc_pcb_refcount, .-dhcp_inc_pcb_refcount
 1662              		.section	.text.dhcp_parse_reply,"ax",%progbits
 1663              		.align	2
 1664              		.code	16
 1665              		.thumb_func
 1666              		.type	dhcp_parse_reply, %function
 1667              	dhcp_parse_reply:
 1668              	.LFB82:
1461:Source\LwIP\src\core\ipv4/dhcp.c ****   u8_t *options;
 1669              		.loc 1 1461 0
 1670              		.cfi_startproc
 1671              		@ args = 0, pretend = 0, frame = 24
ARM GAS  C:\Users\Phuong\AppData\Local\Temp\ccmYXgep.s 			page 68


 1672              		@ frame_needed = 0, uses_anonymous_args = 0
 1673              	.LVL178:
 1674 0000 F0B5     		push	{r4, r5, r6, r7, lr}
 1675              		.cfi_def_cfa_offset 20
 1676              		.cfi_offset 4, -20
 1677              		.cfi_offset 5, -16
 1678              		.cfi_offset 6, -12
 1679              		.cfi_offset 7, -8
 1680              		.cfi_offset 14, -4
 1681 0002 5F46     		mov	r7, fp
 1682 0004 5646     		mov	r6, r10
 1683 0006 4D46     		mov	r5, r9
 1684 0008 4446     		mov	r4, r8
 1685 000a F0B4     		push	{r4, r5, r6, r7}
 1686              		.cfi_def_cfa_offset 36
 1687              		.cfi_offset 8, -36
 1688              		.cfi_offset 9, -32
 1689              		.cfi_offset 10, -28
 1690              		.cfi_offset 11, -24
 1691 000c 87B0     		sub	sp, sp, #28
 1692              		.cfi_def_cfa_offset 64
 1693 000e 0400     		movs	r4, r0
 1694 0010 0D00     		movs	r5, r1
 1695 0012 0191     		str	r1, [sp, #4]
 1696              	.LVL179:
1472:Source\LwIP\src\core\ipv4/dhcp.c ****   /* check that beginning of dhcp_msg (up to and including chaddr) is in first pbuf */
 1697              		.loc 1 1472 0
 1698 0014 0A22     		movs	r2, #10
 1699 0016 0021     		movs	r1, #0
 1700              	.LVL180:
 1701 0018 AC48     		ldr	r0, .L157
 1702              	.LVL181:
 1703 001a FFF7FEFF 		bl	memset
 1704              	.LVL182:
1474:Source\LwIP\src\core\ipv4/dhcp.c ****     return ERR_BUF;
 1705              		.loc 1 1474 0
 1706 001e 6B89     		ldrh	r3, [r5, #10]
 1707 0020 2B2B     		cmp	r3, #43
 1708 0022 00D8     		bhi	.LCB1600
 1709 0024 22E1     		b	.L131	@long jump
 1710              	.LCB1600:
1477:Source\LwIP\src\core\ipv4/dhcp.c **** #if LWIP_DHCP_BOOTP_FILE
 1711              		.loc 1 1477 0
 1712 0026 6A68     		ldr	r2, [r5, #4]
 1713 0028 0092     		str	r2, [sp]
 1714 002a 6260     		str	r2, [r4, #4]
 1715              	.LVL183:
1488:Source\LwIP\src\core\ipv4/dhcp.c **** again:
 1716              		.loc 1 1488 0
 1717 002c 2B89     		ldrh	r3, [r5, #8]
 1718 002e 9B46     		mov	fp, r3
 1719              	.LVL184:
1469:Source\LwIP\src\core\ipv4/dhcp.c **** 
 1720              		.loc 1 1469 0
 1721 0030 0023     		movs	r3, #0
 1722 0032 0393     		str	r3, [sp, #12]
1468:Source\LwIP\src\core\ipv4/dhcp.c ****   int parse_sname_as_options = 0;
ARM GAS  C:\Users\Phuong\AppData\Local\Temp\ccmYXgep.s 			page 69


 1723              		.loc 1 1468 0
 1724 0034 0293     		str	r3, [sp, #8]
1486:Source\LwIP\src\core\ipv4/dhcp.c ****   /* parse options to the end of the received packet */
 1725              		.loc 1 1486 0
 1726 0036 F033     		adds	r3, r3, #240
 1727 0038 9946     		mov	r9, r3
 1728 003a 5D46     		mov	r5, fp
 1729              	.LVL185:
 1730 003c 0AE0     		b	.L98
 1731              	.LVL186:
 1732              	.L154:
1661:Source\LwIP\src\core\ipv4/dhcp.c ****     options_idx = DHCP_FILE_OFS;
 1733              		.loc 1 1661 0
 1734 003e 0023     		movs	r3, #0
 1735              	.LVL187:
 1736 0040 0293     		str	r3, [sp, #8]
 1737              	.LVL188:
1663:Source\LwIP\src\core\ipv4/dhcp.c ****     goto again;
 1738              		.loc 1 1663 0
 1739 0042 EC25     		movs	r5, #236
 1740              	.LVL189:
1662:Source\LwIP\src\core\ipv4/dhcp.c ****     options_idx_max = DHCP_FILE_OFS + DHCP_FILE_LEN;
 1741              		.loc 1 1662 0
 1742 0044 6C33     		adds	r3, r3, #108
 1743 0046 9946     		mov	r9, r3
 1744 0048 04E0     		b	.L98
 1745              	.LVL190:
 1746              	.L155:
1666:Source\LwIP\src\core\ipv4/dhcp.c ****     options_idx = DHCP_SNAME_OFS;
 1747              		.loc 1 1666 0
 1748 004a 0023     		movs	r3, #0
 1749              	.LVL191:
 1750 004c 0393     		str	r3, [sp, #12]
 1751              	.LVL192:
1668:Source\LwIP\src\core\ipv4/dhcp.c ****     goto again;
 1752              		.loc 1 1668 0
 1753 004e 6C25     		movs	r5, #108
 1754              	.LVL193:
1667:Source\LwIP\src\core\ipv4/dhcp.c ****     options_idx_max = DHCP_SNAME_OFS + DHCP_SNAME_LEN;
 1755              		.loc 1 1667 0
 1756 0050 2C33     		adds	r3, r3, #44
 1757 0052 9946     		mov	r9, r3
 1758              	.L99:
 1759              	.LVL194:
 1760              	.L98:
1490:Source\LwIP\src\core\ipv4/dhcp.c ****   while ((q != NULL) && (options_idx >= q->len)) {
 1761              		.loc 1 1490 0
 1762 0054 019B     		ldr	r3, [sp, #4]
 1763 0056 9846     		mov	r8, r3
 1764 0058 4B46     		mov	r3, r9
 1765 005a 4246     		mov	r2, r8
1491:Source\LwIP\src\core\ipv4/dhcp.c ****     options_idx -= q->len;
 1766              		.loc 1 1491 0
 1767 005c 04E0     		b	.L100
 1768              	.LVL195:
 1769              	.L102:
1492:Source\LwIP\src\core\ipv4/dhcp.c ****     options_idx_max -= q->len;
ARM GAS  C:\Users\Phuong\AppData\Local\Temp\ccmYXgep.s 			page 70


 1770              		.loc 1 1492 0
 1771 005e 5B1A     		subs	r3, r3, r1
 1772              	.LVL196:
 1773 0060 9BB2     		uxth	r3, r3
 1774              	.LVL197:
1493:Source\LwIP\src\core\ipv4/dhcp.c ****     q = q->next;
 1775              		.loc 1 1493 0
 1776 0062 6D1A     		subs	r5, r5, r1
 1777              	.LVL198:
 1778 0064 ADB2     		uxth	r5, r5
 1779              	.LVL199:
1494:Source\LwIP\src\core\ipv4/dhcp.c ****   }
 1780              		.loc 1 1494 0
 1781 0066 1268     		ldr	r2, [r2]
 1782              	.LVL200:
 1783              	.L100:
1491:Source\LwIP\src\core\ipv4/dhcp.c ****     options_idx -= q->len;
 1784              		.loc 1 1491 0
 1785 0068 002A     		cmp	r2, #0
 1786 006a 02D0     		beq	.L101
1491:Source\LwIP\src\core\ipv4/dhcp.c ****     options_idx -= q->len;
 1787              		.loc 1 1491 0 is_stmt 0 discriminator 1
 1788 006c 5189     		ldrh	r1, [r2, #10]
 1789 006e 8B42     		cmp	r3, r1
 1790 0070 F5D2     		bcs	.L102
 1791              	.L101:
 1792 0072 9946     		mov	r9, r3
1496:Source\LwIP\src\core\ipv4/dhcp.c ****     return ERR_BUF;
 1793              		.loc 1 1496 0 is_stmt 1
 1794 0074 002A     		cmp	r2, #0
 1795 0076 00D1     		bne	.LCB1705
 1796 0078 FBE0     		b	.L132	@long jump
 1797              	.LCB1705:
 1798              	.LVL201:
1501:Source\LwIP\src\core\ipv4/dhcp.c ****   /* at least 1 byte to read and no end marker, then at least 3 bytes to read? */
 1799              		.loc 1 1501 0
 1800 007a 5368     		ldr	r3, [r2, #4]
 1801              	.LVL202:
 1802 007c 0093     		str	r3, [sp]
 1803              	.LVL203:
1499:Source\LwIP\src\core\ipv4/dhcp.c ****   offset_max = options_idx_max;
 1804              		.loc 1 1499 0
 1805 007e CA46     		mov	r10, r9
 1806 0080 A846     		mov	r8, r5
 1807 0082 1500     		movs	r5, r2
 1808              	.LVL204:
1503:Source\LwIP\src\core\ipv4/dhcp.c ****     u8_t op = options[offset];
 1809              		.loc 1 1503 0
 1810 0084 C5E0     		b	.L103
 1811              	.LVL205:
 1812              	.L129:
 1813              	.LBB4:
1508:Source\LwIP\src\core\ipv4/dhcp.c ****     /* len byte might be in the next pbuf */
 1814              		.loc 1 1508 0
 1815 0086 5346     		mov	r3, r10
 1816              	.LVL206:
 1817 0088 9E1C     		adds	r6, r3, #2
ARM GAS  C:\Users\Phuong\AppData\Local\Temp\ccmYXgep.s 			page 71


 1818 008a B6B2     		uxth	r6, r6
 1819              	.LVL207:
1510:Source\LwIP\src\core\ipv4/dhcp.c ****       len = options[offset + 1];
 1820              		.loc 1 1510 0
 1821 008c 0133     		adds	r3, r3, #1
 1822 008e 6889     		ldrh	r0, [r5, #10]
 1823 0090 8342     		cmp	r3, r0
 1824 0092 03DA     		bge	.L104
1511:Source\LwIP\src\core\ipv4/dhcp.c ****     } else {
 1825              		.loc 1 1511 0
 1826 0094 0131     		adds	r1, r1, #1
 1827 0096 009B     		ldr	r3, [sp]
 1828 0098 5B5C     		ldrb	r3, [r3, r1]
 1829              	.LVL208:
 1830 009a 06E0     		b	.L105
 1831              	.LVL209:
 1832              	.L104:
1513:Source\LwIP\src\core\ipv4/dhcp.c ****     }
 1833              		.loc 1 1513 0
 1834 009c 2B68     		ldr	r3, [r5]
 1835 009e 002B     		cmp	r3, #0
 1836 00a0 02D0     		beq	.L133
1513:Source\LwIP\src\core\ipv4/dhcp.c ****     }
 1837              		.loc 1 1513 0 is_stmt 0 discriminator 1
 1838 00a2 5B68     		ldr	r3, [r3, #4]
 1839 00a4 1B78     		ldrb	r3, [r3]
 1840 00a6 00E0     		b	.L105
 1841              	.L133:
1513:Source\LwIP\src\core\ipv4/dhcp.c ****     }
 1842              		.loc 1 1513 0
 1843 00a8 0023     		movs	r3, #0
 1844              	.L105:
 1845              	.LVL210:
1517:Source\LwIP\src\core\ipv4/dhcp.c ****       /* case(DHCP_OPTION_END): handled above */
 1846              		.loc 1 1517 0 is_stmt 1
 1847 00aa 3B2A     		cmp	r2, #59
 1848 00ac 4DD8     		bhi	.L134
 1849 00ae 9200     		lsls	r2, r2, #2
 1850              	.LVL211:
 1851 00b0 8749     		ldr	r1, .L157+4
 1852 00b2 8A58     		ldr	r2, [r1, r2]
 1853 00b4 9746     		mov	pc, r2
 1854              		.section	.rodata
 1855              		.align	2
 1856              	.L108:
 1857 0000 B6000000 		.word	.L107
 1858 0004 C8000000 		.word	.L109
 1859 0008 4A010000 		.word	.L134
 1860 000c D4000000 		.word	.L110
 1861 0010 4A010000 		.word	.L134
 1862 0014 4A010000 		.word	.L134
 1863 0018 E0000000 		.word	.L111
 1864 001c 4A010000 		.word	.L134
 1865 0020 4A010000 		.word	.L134
 1866 0024 4A010000 		.word	.L134
 1867 0028 4A010000 		.word	.L134
 1868 002c 4A010000 		.word	.L134
ARM GAS  C:\Users\Phuong\AppData\Local\Temp\ccmYXgep.s 			page 72


 1869 0030 4A010000 		.word	.L134
 1870 0034 4A010000 		.word	.L134
 1871 0038 4A010000 		.word	.L134
 1872 003c 4A010000 		.word	.L134
 1873 0040 4A010000 		.word	.L134
 1874 0044 4A010000 		.word	.L134
 1875 0048 4A010000 		.word	.L134
 1876 004c 4A010000 		.word	.L134
 1877 0050 4A010000 		.word	.L134
 1878 0054 4A010000 		.word	.L134
 1879 0058 4A010000 		.word	.L134
 1880 005c 4A010000 		.word	.L134
 1881 0060 4A010000 		.word	.L134
 1882 0064 4A010000 		.word	.L134
 1883 0068 4A010000 		.word	.L134
 1884 006c 4A010000 		.word	.L134
 1885 0070 4A010000 		.word	.L134
 1886 0074 4A010000 		.word	.L134
 1887 0078 4A010000 		.word	.L134
 1888 007c 4A010000 		.word	.L134
 1889 0080 4A010000 		.word	.L134
 1890 0084 4A010000 		.word	.L134
 1891 0088 4A010000 		.word	.L134
 1892 008c 4A010000 		.word	.L134
 1893 0090 4A010000 		.word	.L134
 1894 0094 4A010000 		.word	.L134
 1895 0098 4A010000 		.word	.L134
 1896 009c 4A010000 		.word	.L134
 1897 00a0 4A010000 		.word	.L134
 1898 00a4 4A010000 		.word	.L134
 1899 00a8 4A010000 		.word	.L134
 1900 00ac 4A010000 		.word	.L134
 1901 00b0 4A010000 		.word	.L134
 1902 00b4 4A010000 		.word	.L134
 1903 00b8 4A010000 		.word	.L134
 1904 00bc 4A010000 		.word	.L134
 1905 00c0 4A010000 		.word	.L134
 1906 00c4 4A010000 		.word	.L134
 1907 00c8 4A010000 		.word	.L134
 1908 00cc FA000000 		.word	.L112
 1909 00d0 06010000 		.word	.L113
 1910 00d4 1A010000 		.word	.L114
 1911 00d8 26010000 		.word	.L115
 1912 00dc 4A010000 		.word	.L134
 1913 00e0 4A010000 		.word	.L134
 1914 00e4 4A010000 		.word	.L134
 1915 00e8 32010000 		.word	.L116
 1916 00ec 3E010000 		.word	.L117
 1917              		.section	.text.dhcp_parse_reply
 1918              	.L107:
 1919              	.LVL212:
1523:Source\LwIP\src\core\ipv4/dhcp.c ****         break;
 1920              		.loc 1 1523 0
 1921 00b6 5346     		mov	r3, r10
 1922 00b8 013B     		subs	r3, r3, #1
 1923 00ba 9BB2     		uxth	r3, r3
 1924 00bc 9A46     		mov	r10, r3
ARM GAS  C:\Users\Phuong\AppData\Local\Temp\ccmYXgep.s 			page 73


 1925              	.LVL213:
1507:Source\LwIP\src\core\ipv4/dhcp.c ****     u16_t val_offset = offset + 2;
 1926              		.loc 1 1507 0
 1927 00be 0127     		movs	r7, #1
 1928 00c0 7F42     		rsbs	r7, r7, #0
1521:Source\LwIP\src\core\ipv4/dhcp.c ****         /* will be increased below */
 1929              		.loc 1 1521 0
 1930 00c2 0024     		movs	r4, #0
 1931 00c4 0023     		movs	r3, #0
1524:Source\LwIP\src\core\ipv4/dhcp.c ****       case(DHCP_OPTION_SUBNET_MASK):
 1932              		.loc 1 1524 0
 1933 00c6 43E0     		b	.L106
 1934              	.LVL214:
 1935              	.L109:
1526:Source\LwIP\src\core\ipv4/dhcp.c ****         decode_idx = DHCP_OPTION_IDX_SUBNET_MASK;
 1936              		.loc 1 1526 0
 1937 00c8 042B     		cmp	r3, #4
 1938 00ca 00D0     		beq	.LCB1800
 1939 00cc D4E0     		b	.L135	@long jump
 1940              	.LCB1800:
1516:Source\LwIP\src\core\ipv4/dhcp.c ****     switch(op) {
 1941              		.loc 1 1516 0
 1942 00ce 1C00     		movs	r4, r3
1527:Source\LwIP\src\core\ipv4/dhcp.c ****         break;
 1943              		.loc 1 1527 0
 1944 00d0 0627     		movs	r7, #6
 1945 00d2 3DE0     		b	.L106
 1946              	.L110:
 1947              	.LVL215:
1531:Source\LwIP\src\core\ipv4/dhcp.c ****         decode_idx = DHCP_OPTION_IDX_ROUTER;
 1948              		.loc 1 1531 0
 1949 00d4 032B     		cmp	r3, #3
 1950 00d6 00D8     		bhi	.LCB1809
 1951 00d8 D1E0     		b	.L136	@long jump
 1952              	.LCB1809:
1532:Source\LwIP\src\core\ipv4/dhcp.c ****         break;
 1953              		.loc 1 1532 0
 1954 00da 0727     		movs	r7, #7
1530:Source\LwIP\src\core\ipv4/dhcp.c ****         LWIP_ERROR("len >= decode_len", len >= decode_len, return ERR_VAL;);
 1955              		.loc 1 1530 0
 1956 00dc 0424     		movs	r4, #4
 1957 00de 37E0     		b	.L106
 1958              	.LVL216:
 1959              	.L111:
1537:Source\LwIP\src\core\ipv4/dhcp.c ****         /* limit number of DNS servers */
 1960              		.loc 1 1537 0
 1961 00e0 9A07     		lsls	r2, r3, #30
 1962 00e2 00D0     		beq	.LCB1821
 1963 00e4 CEE0     		b	.L137	@long jump
 1964              	.LCB1821:
1539:Source\LwIP\src\core\ipv4/dhcp.c ****         LWIP_ERROR("len >= decode_len", len >= decode_len, return ERR_VAL;);
 1965              		.loc 1 1539 0
 1966 00e6 1C1C     		adds	r4, r3, #0
 1967 00e8 082B     		cmp	r3, #8
 1968 00ea 00D9     		bls	.L118
 1969 00ec 0824     		movs	r4, #8
 1970              	.L118:
ARM GAS  C:\Users\Phuong\AppData\Local\Temp\ccmYXgep.s 			page 74


 1971 00ee E4B2     		uxtb	r4, r4
 1972              	.LVL217:
1540:Source\LwIP\src\core\ipv4/dhcp.c ****         decode_idx = DHCP_OPTION_IDX_DNS_SERVER;
 1973              		.loc 1 1540 0
 1974 00f0 A342     		cmp	r3, r4
 1975 00f2 00D2     		bcs	.LCB1834
 1976 00f4 C9E0     		b	.L138	@long jump
 1977              	.LCB1834:
1541:Source\LwIP\src\core\ipv4/dhcp.c ****         break;
 1978              		.loc 1 1541 0
 1979 00f6 0827     		movs	r7, #8
 1980 00f8 2AE0     		b	.L106
 1981              	.LVL218:
 1982              	.L112:
1545:Source\LwIP\src\core\ipv4/dhcp.c ****         decode_idx = DHCP_OPTION_IDX_LEASE_TIME;
 1983              		.loc 1 1545 0
 1984 00fa 042B     		cmp	r3, #4
 1985 00fc 00D0     		beq	.LCB1843
 1986 00fe C7E0     		b	.L139	@long jump
 1987              	.LCB1843:
1516:Source\LwIP\src\core\ipv4/dhcp.c ****     switch(op) {
 1988              		.loc 1 1516 0
 1989 0100 1C00     		movs	r4, r3
1546:Source\LwIP\src\core\ipv4/dhcp.c ****         break;
 1990              		.loc 1 1546 0
 1991 0102 0327     		movs	r7, #3
 1992 0104 24E0     		b	.L106
 1993              	.L113:
1559:Source\LwIP\src\core\ipv4/dhcp.c ****         /* decode overload only in options, not in file/sname: invalid packet */
 1994              		.loc 1 1559 0
 1995 0106 012B     		cmp	r3, #1
 1996 0108 00D0     		beq	.LCB1851
 1997 010a C4E0     		b	.L140	@long jump
 1998              	.LCB1851:
1561:Source\LwIP\src\core\ipv4/dhcp.c ****         decode_idx = DHCP_OPTION_IDX_OVERLOAD;
 1999              		.loc 1 1561 0
 2000 010c 4A46     		mov	r2, r9
 2001 010e F02A     		cmp	r2, #240
 2002 0110 00D0     		beq	.LCB1854
 2003 0112 C3E0     		b	.L141	@long jump
 2004              	.LCB1854:
1516:Source\LwIP\src\core\ipv4/dhcp.c ****     switch(op) {
 2005              		.loc 1 1516 0
 2006 0114 1C00     		movs	r4, r3
1562:Source\LwIP\src\core\ipv4/dhcp.c ****         break;
 2007              		.loc 1 1562 0
 2008 0116 0027     		movs	r7, #0
 2009 0118 1AE0     		b	.L106
 2010              	.L114:
1565:Source\LwIP\src\core\ipv4/dhcp.c ****         decode_idx = DHCP_OPTION_IDX_MSG_TYPE;
 2011              		.loc 1 1565 0
 2012 011a 012B     		cmp	r3, #1
 2013 011c 00D0     		beq	.LCB1862
 2014 011e C0E0     		b	.L142	@long jump
 2015              	.LCB1862:
1516:Source\LwIP\src\core\ipv4/dhcp.c ****     switch(op) {
 2016              		.loc 1 1516 0
ARM GAS  C:\Users\Phuong\AppData\Local\Temp\ccmYXgep.s 			page 75


 2017 0120 1C00     		movs	r4, r3
1566:Source\LwIP\src\core\ipv4/dhcp.c ****         break;
 2018              		.loc 1 1566 0
 2019 0122 0127     		movs	r7, #1
 2020 0124 14E0     		b	.L106
 2021              	.L115:
1569:Source\LwIP\src\core\ipv4/dhcp.c ****         decode_idx = DHCP_OPTION_IDX_SERVER_ID;
 2022              		.loc 1 1569 0
 2023 0126 042B     		cmp	r3, #4
 2024 0128 00D0     		beq	.LCB1870
 2025 012a BDE0     		b	.L143	@long jump
 2026              	.LCB1870:
1516:Source\LwIP\src\core\ipv4/dhcp.c ****     switch(op) {
 2027              		.loc 1 1516 0
 2028 012c 1C00     		movs	r4, r3
1570:Source\LwIP\src\core\ipv4/dhcp.c ****         break;
 2029              		.loc 1 1570 0
 2030 012e 0227     		movs	r7, #2
 2031 0130 0EE0     		b	.L106
 2032              	.L116:
1573:Source\LwIP\src\core\ipv4/dhcp.c ****         decode_idx = DHCP_OPTION_IDX_T1;
 2033              		.loc 1 1573 0
 2034 0132 042B     		cmp	r3, #4
 2035 0134 00D0     		beq	.LCB1878
 2036 0136 BAE0     		b	.L144	@long jump
 2037              	.LCB1878:
1516:Source\LwIP\src\core\ipv4/dhcp.c ****     switch(op) {
 2038              		.loc 1 1516 0
 2039 0138 1C00     		movs	r4, r3
1574:Source\LwIP\src\core\ipv4/dhcp.c ****         break;
 2040              		.loc 1 1574 0
 2041 013a 0427     		movs	r7, #4
 2042 013c 08E0     		b	.L106
 2043              	.L117:
1577:Source\LwIP\src\core\ipv4/dhcp.c ****         decode_idx = DHCP_OPTION_IDX_T2;
 2044              		.loc 1 1577 0
 2045 013e 042B     		cmp	r3, #4
 2046 0140 00D0     		beq	.LCB1886
 2047 0142 B7E0     		b	.L145	@long jump
 2048              	.LCB1886:
1516:Source\LwIP\src\core\ipv4/dhcp.c ****     switch(op) {
 2049              		.loc 1 1516 0
 2050 0144 1C00     		movs	r4, r3
1578:Source\LwIP\src\core\ipv4/dhcp.c ****         break;
 2051              		.loc 1 1578 0
 2052 0146 0527     		movs	r7, #5
 2053 0148 02E0     		b	.L106
 2054              	.L134:
1507:Source\LwIP\src\core\ipv4/dhcp.c ****     u16_t val_offset = offset + 2;
 2055              		.loc 1 1507 0
 2056 014a 0127     		movs	r7, #1
 2057 014c 7F42     		rsbs	r7, r7, #0
1581:Source\LwIP\src\core\ipv4/dhcp.c ****         LWIP_DEBUGF(DHCP_DEBUG, ("skipping option %"U16_F" in options\n", (u16_t)op));
 2058              		.loc 1 1581 0
 2059 014e 0024     		movs	r4, #0
 2060              	.LVL219:
 2061              	.L106:
ARM GAS  C:\Users\Phuong\AppData\Local\Temp\ccmYXgep.s 			page 76


1585:Source\LwIP\src\core\ipv4/dhcp.c ****     if (decode_len > 0) {
 2062              		.loc 1 1585 0
 2063 0150 5344     		add	r3, r3, r10
 2064              	.LVL220:
 2065 0152 9BB2     		uxth	r3, r3
 2066 0154 0233     		adds	r3, r3, #2
 2067 0156 9BB2     		uxth	r3, r3
 2068 0158 9A46     		mov	r10, r3
 2069              	.LVL221:
1586:Source\LwIP\src\core\ipv4/dhcp.c ****       u32_t value = 0;
 2070              		.loc 1 1586 0
 2071 015a 002C     		cmp	r4, #0
 2072 015c 45D0     		beq	.L119
 2073              	.LBB5:
1587:Source\LwIP\src\core\ipv4/dhcp.c ****       u16_t copy_len;
 2074              		.loc 1 1587 0
 2075 015e 0023     		movs	r3, #0
 2076 0160 0593     		str	r3, [sp, #20]
 2077 0162 AB46     		mov	fp, r5
 2078              	.LVL222:
 2079              	.L120:
1591:Source\LwIP\src\core\ipv4/dhcp.c ****         copy_len = LWIP_MIN(decode_len, 4);
 2080              		.loc 1 1591 0
 2081 0164 594B     		ldr	r3, .L157
 2082 0166 DB5D     		ldrb	r3, [r3, r7]
 2083 0168 002B     		cmp	r3, #0
 2084 016a 3DD1     		bne	.L156
1592:Source\LwIP\src\core\ipv4/dhcp.c ****         if (pbuf_copy_partial(q, &value, copy_len, val_offset) != copy_len) {
 2085              		.loc 1 1592 0
 2086 016c 032C     		cmp	r4, #3
 2087 016e 01D8     		bhi	.L146
1592:Source\LwIP\src\core\ipv4/dhcp.c ****         if (pbuf_copy_partial(q, &value, copy_len, val_offset) != copy_len) {
 2088              		.loc 1 1592 0 is_stmt 0 discriminator 1
 2089 0170 A5B2     		uxth	r5, r4
 2090 0172 00E0     		b	.L122
 2091              	.L146:
1592:Source\LwIP\src\core\ipv4/dhcp.c ****         if (pbuf_copy_partial(q, &value, copy_len, val_offset) != copy_len) {
 2092              		.loc 1 1592 0
 2093 0174 0425     		movs	r5, #4
 2094              	.L122:
 2095              	.LVL223:
1593:Source\LwIP\src\core\ipv4/dhcp.c ****           return ERR_BUF;
 2096              		.loc 1 1593 0 is_stmt 1 discriminator 4
 2097 0176 3300     		movs	r3, r6
 2098 0178 2A00     		movs	r2, r5
 2099 017a 05A9     		add	r1, sp, #20
 2100 017c 5846     		mov	r0, fp
 2101 017e FFF7FEFF 		bl	pbuf_copy_partial
 2102              	.LVL224:
 2103 0182 8542     		cmp	r5, r0
 2104 0184 27D1     		bne	.L147
1596:Source\LwIP\src\core\ipv4/dhcp.c ****           /* decode more than one u32_t */
 2105              		.loc 1 1596 0
 2106 0186 042C     		cmp	r4, #4
 2107 0188 10D9     		bls	.L124
1598:Source\LwIP\src\core\ipv4/dhcp.c ****           dhcp_got_option(dhcp, decode_idx);
 2108              		.loc 1 1598 0
ARM GAS  C:\Users\Phuong\AppData\Local\Temp\ccmYXgep.s 			page 77


 2109 018a A307     		lsls	r3, r4, #30
 2110 018c 26D1     		bne	.L148
1599:Source\LwIP\src\core\ipv4/dhcp.c ****           dhcp_set_option_value(dhcp, decode_idx, lwip_htonl(value));
 2111              		.loc 1 1599 0
 2112 018e 0122     		movs	r2, #1
 2113 0190 4E4B     		ldr	r3, .L157
 2114 0192 DA55     		strb	r2, [r3, r7]
1600:Source\LwIP\src\core\ipv4/dhcp.c ****           decode_len -= 4;
 2115              		.loc 1 1600 0
 2116 0194 0598     		ldr	r0, [sp, #20]
 2117 0196 FFF7FEFF 		bl	lwip_htonl
 2118              	.LVL225:
 2119 019a BA00     		lsls	r2, r7, #2
 2120 019c 4D4B     		ldr	r3, .L157+8
 2121 019e D050     		str	r0, [r2, r3]
1601:Source\LwIP\src\core\ipv4/dhcp.c ****           val_offset += 4;
 2122              		.loc 1 1601 0
 2123 01a0 043C     		subs	r4, r4, #4
 2124              	.LVL226:
 2125 01a2 E4B2     		uxtb	r4, r4
 2126              	.LVL227:
1602:Source\LwIP\src\core\ipv4/dhcp.c ****           decode_idx++;
 2127              		.loc 1 1602 0
 2128 01a4 0436     		adds	r6, r6, #4
 2129              	.LVL228:
 2130 01a6 B6B2     		uxth	r6, r6
 2131              	.LVL229:
1603:Source\LwIP\src\core\ipv4/dhcp.c ****           goto decode_next;
 2132              		.loc 1 1603 0
 2133 01a8 0137     		adds	r7, r7, #1
 2134              	.LVL230:
1604:Source\LwIP\src\core\ipv4/dhcp.c ****         } else if (decode_len == 4) {
 2135              		.loc 1 1604 0
 2136 01aa DBE7     		b	.L120
 2137              	.L124:
 2138 01ac 5D46     		mov	r5, fp
 2139              	.LVL231:
1605:Source\LwIP\src\core\ipv4/dhcp.c ****           value = lwip_ntohl(value);
 2140              		.loc 1 1605 0
 2141 01ae 042C     		cmp	r4, #4
 2142 01b0 04D1     		bne	.L125
 2143              	.LVL232:
1606:Source\LwIP\src\core\ipv4/dhcp.c ****         } else {
 2144              		.loc 1 1606 0
 2145 01b2 0598     		ldr	r0, [sp, #20]
 2146 01b4 FFF7FEFF 		bl	lwip_htonl
 2147              	.LVL233:
 2148 01b8 0590     		str	r0, [sp, #20]
 2149 01ba 04E0     		b	.L126
 2150              	.L125:
1608:Source\LwIP\src\core\ipv4/dhcp.c ****           value = ((u8_t*)&value)[0];
 2151              		.loc 1 1608 0
 2152 01bc 012C     		cmp	r4, #1
 2153 01be 10D1     		bne	.L149
1609:Source\LwIP\src\core\ipv4/dhcp.c ****         }
 2154              		.loc 1 1609 0
 2155 01c0 05AB     		add	r3, sp, #20
ARM GAS  C:\Users\Phuong\AppData\Local\Temp\ccmYXgep.s 			page 78


 2156 01c2 1B78     		ldrb	r3, [r3]
 2157 01c4 0593     		str	r3, [sp, #20]
 2158              	.L126:
1611:Source\LwIP\src\core\ipv4/dhcp.c ****         dhcp_set_option_value(dhcp, decode_idx, value);
 2159              		.loc 1 1611 0
 2160 01c6 0122     		movs	r2, #1
 2161 01c8 404B     		ldr	r3, .L157
 2162 01ca DA55     		strb	r2, [r3, r7]
1612:Source\LwIP\src\core\ipv4/dhcp.c ****       }
 2163              		.loc 1 1612 0
 2164 01cc BF00     		lsls	r7, r7, #2
 2165              	.LVL234:
 2166 01ce 414B     		ldr	r3, .L157+8
 2167 01d0 059A     		ldr	r2, [sp, #20]
 2168 01d2 FA50     		str	r2, [r7, r3]
 2169 01d4 09E0     		b	.L119
 2170              	.LVL235:
 2171              	.L147:
1594:Source\LwIP\src\core\ipv4/dhcp.c ****         }
 2172              		.loc 1 1594 0
 2173 01d6 0220     		movs	r0, #2
 2174 01d8 4042     		rsbs	r0, r0, #0
 2175 01da 70E0     		b	.L97
 2176              	.L148:
1598:Source\LwIP\src\core\ipv4/dhcp.c ****           dhcp_got_option(dhcp, decode_idx);
 2177              		.loc 1 1598 0
 2178 01dc 0620     		movs	r0, #6
 2179 01de 4042     		rsbs	r0, r0, #0
 2180 01e0 6DE0     		b	.L97
 2181              	.LVL236:
 2182              	.L149:
1608:Source\LwIP\src\core\ipv4/dhcp.c ****           value = ((u8_t*)&value)[0];
 2183              		.loc 1 1608 0
 2184 01e2 0620     		movs	r0, #6
 2185 01e4 4042     		rsbs	r0, r0, #0
 2186 01e6 6AE0     		b	.L97
 2187              	.LVL237:
 2188              	.L156:
 2189 01e8 5D46     		mov	r5, fp
 2190              	.LVL238:
 2191              	.L119:
 2192              	.LBE5:
1615:Source\LwIP\src\core\ipv4/dhcp.c ****       offset -= q->len;
 2193              		.loc 1 1615 0
 2194 01ea 6B89     		ldrh	r3, [r5, #10]
 2195 01ec 9A45     		cmp	r10, r3
 2196 01ee 10D3     		bcc	.L103
1616:Source\LwIP\src\core\ipv4/dhcp.c ****       offset_max -= q->len;
 2197              		.loc 1 1616 0
 2198 01f0 5246     		mov	r2, r10
 2199 01f2 D21A     		subs	r2, r2, r3
 2200 01f4 92B2     		uxth	r2, r2
 2201 01f6 9246     		mov	r10, r2
 2202              	.LVL239:
1617:Source\LwIP\src\core\ipv4/dhcp.c ****       if ((offset < offset_max) && offset_max) {
 2203              		.loc 1 1617 0
 2204 01f8 4246     		mov	r2, r8
ARM GAS  C:\Users\Phuong\AppData\Local\Temp\ccmYXgep.s 			page 79


 2205 01fa D31A     		subs	r3, r2, r3
 2206 01fc 9BB2     		uxth	r3, r3
 2207 01fe 9846     		mov	r8, r3
 2208              	.LVL240:
1618:Source\LwIP\src\core\ipv4/dhcp.c ****         q = q->next;
 2209              		.loc 1 1618 0
 2210 0200 9A45     		cmp	r10, r3
 2211 0202 10D2     		bcs	.L128
1618:Source\LwIP\src\core\ipv4/dhcp.c ****         q = q->next;
 2212              		.loc 1 1618 0 is_stmt 0 discriminator 1
 2213 0204 002B     		cmp	r3, #0
 2214 0206 0ED0     		beq	.L128
1619:Source\LwIP\src\core\ipv4/dhcp.c ****         LWIP_ERROR("next pbuf was null", q != NULL, return ERR_VAL;);
 2215              		.loc 1 1619 0 is_stmt 1
 2216 0208 2D68     		ldr	r5, [r5]
 2217              	.LVL241:
1620:Source\LwIP\src\core\ipv4/dhcp.c ****         options = (u8_t*)q->payload;
 2218              		.loc 1 1620 0
 2219 020a 002D     		cmp	r5, #0
 2220 020c 55D0     		beq	.L150
1621:Source\LwIP\src\core\ipv4/dhcp.c ****       } else {
 2221              		.loc 1 1621 0
 2222 020e 6B68     		ldr	r3, [r5, #4]
 2223              	.LVL242:
 2224 0210 0093     		str	r3, [sp]
 2225              	.LVL243:
 2226              	.L103:
 2227              	.LBE4:
1503:Source\LwIP\src\core\ipv4/dhcp.c ****     u8_t op = options[offset];
 2228              		.loc 1 1503 0
 2229 0212 002D     		cmp	r5, #0
 2230 0214 07D0     		beq	.L128
1503:Source\LwIP\src\core\ipv4/dhcp.c ****     u8_t op = options[offset];
 2231              		.loc 1 1503 0 is_stmt 0 discriminator 1
 2232 0216 C245     		cmp	r10, r8
 2233 0218 05D2     		bcs	.L128
1503:Source\LwIP\src\core\ipv4/dhcp.c ****     u8_t op = options[offset];
 2234              		.loc 1 1503 0 discriminator 2
 2235 021a 5146     		mov	r1, r10
 2236 021c 009B     		ldr	r3, [sp]
 2237 021e 5A5C     		ldrb	r2, [r3, r1]
 2238 0220 FF2A     		cmp	r2, #255
 2239 0222 00D0     		beq	.LCB2107
 2240 0224 2FE7     		b	.L129	@long jump
 2241              	.LCB2107:
 2242              	.LVL244:
 2243              	.L128:
1629:Source\LwIP\src\core\ipv4/dhcp.c ****     u32_t overload = dhcp_get_option_value(dhcp, DHCP_OPTION_IDX_OVERLOAD);
 2244              		.loc 1 1629 0 is_stmt 1
 2245 0226 294B     		ldr	r3, .L157
 2246 0228 1B78     		ldrb	r3, [r3]
 2247 022a 002B     		cmp	r3, #0
 2248 022c 14D0     		beq	.L130
 2249              	.LBB6:
1630:Source\LwIP\src\core\ipv4/dhcp.c ****     dhcp_clear_option(dhcp, DHCP_OPTION_IDX_OVERLOAD);
 2250              		.loc 1 1630 0
 2251 022e 294B     		ldr	r3, .L157+8
ARM GAS  C:\Users\Phuong\AppData\Local\Temp\ccmYXgep.s 			page 80


 2252 0230 1B68     		ldr	r3, [r3]
 2253              	.LVL245:
1631:Source\LwIP\src\core\ipv4/dhcp.c ****     if (overload == DHCP_OVERLOAD_FILE) {
 2254              		.loc 1 1631 0
 2255 0232 0021     		movs	r1, #0
 2256 0234 254A     		ldr	r2, .L157
 2257 0236 1170     		strb	r1, [r2]
1632:Source\LwIP\src\core\ipv4/dhcp.c ****       parse_file_as_options = 1;
 2258              		.loc 1 1632 0
 2259 0238 012B     		cmp	r3, #1
 2260 023a 04D0     		beq	.L151
1635:Source\LwIP\src\core\ipv4/dhcp.c ****       parse_sname_as_options = 1;
 2261              		.loc 1 1635 0
 2262 023c 022B     		cmp	r3, #2
 2263 023e 05D0     		beq	.L152
1638:Source\LwIP\src\core\ipv4/dhcp.c ****       parse_sname_as_options = 1;
 2264              		.loc 1 1638 0
 2265 0240 032B     		cmp	r3, #3
 2266 0242 09D1     		bne	.L130
 2267 0244 05E0     		b	.L153
 2268              	.L151:
1633:Source\LwIP\src\core\ipv4/dhcp.c ****       LWIP_DEBUGF(DHCP_DEBUG | LWIP_DBG_TRACE, ("overloaded file field\n"));
 2269              		.loc 1 1633 0
 2270 0246 0123     		movs	r3, #1
 2271              	.LVL246:
 2272 0248 0293     		str	r3, [sp, #8]
 2273              	.LVL247:
 2274 024a 05E0     		b	.L130
 2275              	.LVL248:
 2276              	.L152:
1636:Source\LwIP\src\core\ipv4/dhcp.c ****       LWIP_DEBUGF(DHCP_DEBUG | LWIP_DBG_TRACE, ("overloaded sname field\n"));
 2277              		.loc 1 1636 0
 2278 024c 0123     		movs	r3, #1
 2279              	.LVL249:
 2280 024e 0393     		str	r3, [sp, #12]
 2281              	.LVL250:
 2282 0250 02E0     		b	.L130
 2283              	.LVL251:
 2284              	.L153:
1639:Source\LwIP\src\core\ipv4/dhcp.c ****       parse_file_as_options = 1;
 2285              		.loc 1 1639 0
 2286 0252 0123     		movs	r3, #1
 2287              	.LVL252:
 2288 0254 0393     		str	r3, [sp, #12]
 2289              	.LVL253:
1640:Source\LwIP\src\core\ipv4/dhcp.c ****       LWIP_DEBUGF(DHCP_DEBUG | LWIP_DBG_TRACE, ("overloaded sname and file field\n"));
 2290              		.loc 1 1640 0
 2291 0256 0293     		str	r3, [sp, #8]
 2292              	.LVL254:
 2293              	.L130:
 2294              	.LBE6:
1659:Source\LwIP\src\core\ipv4/dhcp.c ****     /* if both are overloaded, parse file first and then sname (RFC 2131 ch. 4.1) */
 2295              		.loc 1 1659 0
 2296 0258 029B     		ldr	r3, [sp, #8]
 2297 025a 002B     		cmp	r3, #0
 2298 025c 00D0     		beq	.LCB2168
 2299 025e EEE6     		b	.L154	@long jump
ARM GAS  C:\Users\Phuong\AppData\Local\Temp\ccmYXgep.s 			page 81


 2300              	.LCB2168:
1665:Source\LwIP\src\core\ipv4/dhcp.c ****     parse_sname_as_options = 0;
 2301              		.loc 1 1665 0
 2302 0260 039B     		ldr	r3, [sp, #12]
 2303 0262 002B     		cmp	r3, #0
 2304 0264 00D0     		beq	.LCB2171
 2305 0266 F0E6     		b	.L155	@long jump
 2306              	.LCB2171:
1671:Source\LwIP\src\core\ipv4/dhcp.c **** }
 2307              		.loc 1 1671 0
 2308 0268 0020     		movs	r0, #0
 2309 026a 28E0     		b	.L97
 2310              	.LVL255:
 2311              	.L131:
1475:Source\LwIP\src\core\ipv4/dhcp.c ****   }
 2312              		.loc 1 1475 0
 2313 026c 0220     		movs	r0, #2
 2314 026e 4042     		rsbs	r0, r0, #0
 2315 0270 25E0     		b	.L97
 2316              	.LVL256:
 2317              	.L132:
1497:Source\LwIP\src\core\ipv4/dhcp.c ****   }
 2318              		.loc 1 1497 0
 2319 0272 0220     		movs	r0, #2
 2320 0274 4042     		rsbs	r0, r0, #0
 2321 0276 22E0     		b	.L97
 2322              	.LVL257:
 2323              	.L135:
 2324              	.LBB7:
1526:Source\LwIP\src\core\ipv4/dhcp.c ****         decode_idx = DHCP_OPTION_IDX_SUBNET_MASK;
 2325              		.loc 1 1526 0
 2326 0278 0620     		movs	r0, #6
 2327 027a 4042     		rsbs	r0, r0, #0
 2328 027c 1FE0     		b	.L97
 2329              	.LVL258:
 2330              	.L136:
1531:Source\LwIP\src\core\ipv4/dhcp.c ****         decode_idx = DHCP_OPTION_IDX_ROUTER;
 2331              		.loc 1 1531 0
 2332 027e 0620     		movs	r0, #6
 2333 0280 4042     		rsbs	r0, r0, #0
 2334 0282 1CE0     		b	.L97
 2335              	.LVL259:
 2336              	.L137:
1537:Source\LwIP\src\core\ipv4/dhcp.c ****         /* limit number of DNS servers */
 2337              		.loc 1 1537 0
 2338 0284 0620     		movs	r0, #6
 2339 0286 4042     		rsbs	r0, r0, #0
 2340 0288 19E0     		b	.L97
 2341              	.LVL260:
 2342              	.L138:
1540:Source\LwIP\src\core\ipv4/dhcp.c ****         decode_idx = DHCP_OPTION_IDX_DNS_SERVER;
 2343              		.loc 1 1540 0
 2344 028a 0620     		movs	r0, #6
 2345 028c 4042     		rsbs	r0, r0, #0
 2346 028e 16E0     		b	.L97
 2347              	.LVL261:
 2348              	.L139:
ARM GAS  C:\Users\Phuong\AppData\Local\Temp\ccmYXgep.s 			page 82


1545:Source\LwIP\src\core\ipv4/dhcp.c ****         decode_idx = DHCP_OPTION_IDX_LEASE_TIME;
 2349              		.loc 1 1545 0
 2350 0290 0620     		movs	r0, #6
 2351 0292 4042     		rsbs	r0, r0, #0
 2352 0294 13E0     		b	.L97
 2353              	.L140:
1559:Source\LwIP\src\core\ipv4/dhcp.c ****         /* decode overload only in options, not in file/sname: invalid packet */
 2354              		.loc 1 1559 0
 2355 0296 0620     		movs	r0, #6
 2356 0298 4042     		rsbs	r0, r0, #0
 2357 029a 10E0     		b	.L97
 2358              	.L141:
1561:Source\LwIP\src\core\ipv4/dhcp.c ****         decode_idx = DHCP_OPTION_IDX_OVERLOAD;
 2359              		.loc 1 1561 0
 2360 029c 0620     		movs	r0, #6
 2361 029e 4042     		rsbs	r0, r0, #0
 2362 02a0 0DE0     		b	.L97
 2363              	.L142:
1565:Source\LwIP\src\core\ipv4/dhcp.c ****         decode_idx = DHCP_OPTION_IDX_MSG_TYPE;
 2364              		.loc 1 1565 0
 2365 02a2 0620     		movs	r0, #6
 2366 02a4 4042     		rsbs	r0, r0, #0
 2367 02a6 0AE0     		b	.L97
 2368              	.L143:
1569:Source\LwIP\src\core\ipv4/dhcp.c ****         decode_idx = DHCP_OPTION_IDX_SERVER_ID;
 2369              		.loc 1 1569 0
 2370 02a8 0620     		movs	r0, #6
 2371 02aa 4042     		rsbs	r0, r0, #0
 2372 02ac 07E0     		b	.L97
 2373              	.L144:
1573:Source\LwIP\src\core\ipv4/dhcp.c ****         decode_idx = DHCP_OPTION_IDX_T1;
 2374              		.loc 1 1573 0
 2375 02ae 0620     		movs	r0, #6
 2376 02b0 4042     		rsbs	r0, r0, #0
 2377 02b2 04E0     		b	.L97
 2378              	.L145:
1577:Source\LwIP\src\core\ipv4/dhcp.c ****         decode_idx = DHCP_OPTION_IDX_T2;
 2379              		.loc 1 1577 0
 2380 02b4 0620     		movs	r0, #6
 2381 02b6 4042     		rsbs	r0, r0, #0
 2382 02b8 01E0     		b	.L97
 2383              	.LVL262:
 2384              	.L150:
1620:Source\LwIP\src\core\ipv4/dhcp.c ****         options = (u8_t*)q->payload;
 2385              		.loc 1 1620 0
 2386 02ba 0620     		movs	r0, #6
 2387 02bc 4042     		rsbs	r0, r0, #0
 2388              	.LVL263:
 2389              	.L97:
 2390              	.LBE7:
1672:Source\LwIP\src\core\ipv4/dhcp.c **** 
 2391              		.loc 1 1672 0
 2392 02be 07B0     		add	sp, sp, #28
 2393              		@ sp needed
 2394 02c0 3CBC     		pop	{r2, r3, r4, r5}
 2395 02c2 9046     		mov	r8, r2
 2396 02c4 9946     		mov	r9, r3
ARM GAS  C:\Users\Phuong\AppData\Local\Temp\ccmYXgep.s 			page 83


 2397 02c6 A246     		mov	r10, r4
 2398 02c8 AB46     		mov	fp, r5
 2399 02ca F0BD     		pop	{r4, r5, r6, r7, pc}
 2400              	.L158:
 2401              		.align	2
 2402              	.L157:
 2403 02cc 00000000 		.word	dhcp_rx_options_given
 2404 02d0 00000000 		.word	.L108
 2405 02d4 00000000 		.word	dhcp_rx_options_val
 2406              		.cfi_endproc
 2407              	.LFE82:
 2408              		.size	dhcp_parse_reply, .-dhcp_parse_reply
 2409              		.section	.text.dhcp_handle_ack,"ax",%progbits
 2410              		.align	2
 2411              		.code	16
 2412              		.thumb_func
 2413              		.type	dhcp_handle_ack, %function
 2414              	dhcp_handle_ack:
 2415              	.LFB63:
 586:Source\LwIP\src\core\ipv4/dhcp.c ****   struct dhcp *dhcp = netif_dhcp_data(netif);
 2416              		.loc 1 586 0
 2417              		.cfi_startproc
 2418              		@ args = 0, pretend = 0, frame = 8
 2419              		@ frame_needed = 0, uses_anonymous_args = 0
 2420              	.LVL264:
 2421 0000 30B5     		push	{r4, r5, lr}
 2422              		.cfi_def_cfa_offset 12
 2423              		.cfi_offset 4, -12
 2424              		.cfi_offset 5, -8
 2425              		.cfi_offset 14, -4
 2426 0002 83B0     		sub	sp, sp, #12
 2427              		.cfi_def_cfa_offset 24
 587:Source\LwIP\src\core\ipv4/dhcp.c **** 
 2428              		.loc 1 587 0
 2429 0004 446A     		ldr	r4, [r0, #36]
 2430              	.LVL265:
 597:Source\LwIP\src\core\ipv4/dhcp.c ****   ip4_addr_set_zero(&dhcp->offered_gw_addr);
 2431              		.loc 1 597 0
 2432 0006 0023     		movs	r3, #0
 2433 0008 E362     		str	r3, [r4, #44]
 598:Source\LwIP\src\core\ipv4/dhcp.c **** #if LWIP_DHCP_BOOTP_FILE
 2434              		.loc 1 598 0
 2435 000a 2363     		str	r3, [r4, #48]
 604:Source\LwIP\src\core\ipv4/dhcp.c ****     /* remember offered lease time */
 2436              		.loc 1 604 0
 2437 000c 2D4B     		ldr	r3, .L171
 2438 000e DB78     		ldrb	r3, [r3, #3]
 2439 0010 002B     		cmp	r3, #0
 2440 0012 02D0     		beq	.L160
 606:Source\LwIP\src\core\ipv4/dhcp.c ****   }
 2441              		.loc 1 606 0
 2442 0014 2C4B     		ldr	r3, .L171+4
 2443 0016 DB68     		ldr	r3, [r3, #12]
 2444 0018 6363     		str	r3, [r4, #52]
 2445              	.L160:
 609:Source\LwIP\src\core\ipv4/dhcp.c ****     /* remember given renewal period */
 2446              		.loc 1 609 0
ARM GAS  C:\Users\Phuong\AppData\Local\Temp\ccmYXgep.s 			page 84


 2447 001a 2A4B     		ldr	r3, .L171
 2448 001c 1B79     		ldrb	r3, [r3, #4]
 2449 001e 002B     		cmp	r3, #0
 2450 0020 03D0     		beq	.L161
 611:Source\LwIP\src\core\ipv4/dhcp.c ****   } else {
 2451              		.loc 1 611 0
 2452 0022 294B     		ldr	r3, .L171+4
 2453 0024 1B69     		ldr	r3, [r3, #16]
 2454 0026 A363     		str	r3, [r4, #56]
 2455 0028 02E0     		b	.L162
 2456              	.L161:
 614:Source\LwIP\src\core\ipv4/dhcp.c ****   }
 2457              		.loc 1 614 0
 2458 002a 636B     		ldr	r3, [r4, #52]
 2459 002c 5B08     		lsrs	r3, r3, #1
 2460 002e A363     		str	r3, [r4, #56]
 2461              	.L162:
 618:Source\LwIP\src\core\ipv4/dhcp.c ****     /* remember given rebind period */
 2462              		.loc 1 618 0
 2463 0030 244B     		ldr	r3, .L171
 2464 0032 5B79     		ldrb	r3, [r3, #5]
 2465 0034 002B     		cmp	r3, #0
 2466 0036 03D0     		beq	.L163
 620:Source\LwIP\src\core\ipv4/dhcp.c ****   } else {
 2467              		.loc 1 620 0
 2468 0038 234B     		ldr	r3, .L171+4
 2469 003a 5B69     		ldr	r3, [r3, #20]
 2470 003c E363     		str	r3, [r4, #60]
 2471 003e 04E0     		b	.L164
 2472              	.L163:
 623:Source\LwIP\src\core\ipv4/dhcp.c ****   }
 2473              		.loc 1 623 0
 2474 0040 0723     		movs	r3, #7
 2475 0042 626B     		ldr	r2, [r4, #52]
 2476 0044 5343     		muls	r3, r2
 2477 0046 DB08     		lsrs	r3, r3, #3
 2478 0048 E363     		str	r3, [r4, #60]
 2479              	.L164:
 627:Source\LwIP\src\core\ipv4/dhcp.c **** 
 2480              		.loc 1 627 0
 2481 004a 6568     		ldr	r5, [r4, #4]
 2482 004c 287C     		ldrb	r0, [r5, #16]
 2483              	.LVL266:
 2484 004e 6A7C     		ldrb	r2, [r5, #17]
 2485 0050 1202     		lsls	r2, r2, #8
 2486 0052 0243     		orrs	r2, r0
 2487 0054 AB7C     		ldrb	r3, [r5, #18]
 2488 0056 1B04     		lsls	r3, r3, #16
 2489 0058 1343     		orrs	r3, r2
 2490 005a 1A00     		movs	r2, r3
 2491 005c EB7C     		ldrb	r3, [r5, #19]
 2492 005e 1B06     		lsls	r3, r3, #24
 2493 0060 1343     		orrs	r3, r2
 2494 0062 A362     		str	r3, [r4, #40]
 636:Source\LwIP\src\core\ipv4/dhcp.c ****     /* remember given subnet mask */
 2495              		.loc 1 636 0
 2496 0064 174B     		ldr	r3, .L171
ARM GAS  C:\Users\Phuong\AppData\Local\Temp\ccmYXgep.s 			page 85


 2497 0066 9B79     		ldrb	r3, [r3, #6]
 2498 0068 002B     		cmp	r3, #0
 2499 006a 07D0     		beq	.L165
 638:Source\LwIP\src\core\ipv4/dhcp.c ****     dhcp->subnet_mask_given = 1;
 2500              		.loc 1 638 0
 2501 006c 164B     		ldr	r3, .L171+4
 2502 006e 9869     		ldr	r0, [r3, #24]
 2503 0070 FFF7FEFF 		bl	lwip_htonl
 2504              	.LVL267:
 2505 0074 E062     		str	r0, [r4, #44]
 639:Source\LwIP\src\core\ipv4/dhcp.c ****   } else {
 2506              		.loc 1 639 0
 2507 0076 0123     		movs	r3, #1
 2508 0078 E372     		strb	r3, [r4, #11]
 2509 007a 01E0     		b	.L166
 2510              	.L165:
 641:Source\LwIP\src\core\ipv4/dhcp.c ****   }
 2511              		.loc 1 641 0
 2512 007c 0023     		movs	r3, #0
 2513 007e E372     		strb	r3, [r4, #11]
 2514              	.L166:
 645:Source\LwIP\src\core\ipv4/dhcp.c ****     ip4_addr_set_u32(&dhcp->offered_gw_addr, lwip_htonl(dhcp_get_option_value(dhcp, DHCP_OPTION_IDX
 2515              		.loc 1 645 0
 2516 0080 104B     		ldr	r3, .L171
 2517 0082 DB79     		ldrb	r3, [r3, #7]
 2518 0084 002B     		cmp	r3, #0
 2519 0086 04D0     		beq	.L167
 646:Source\LwIP\src\core\ipv4/dhcp.c ****   }
 2520              		.loc 1 646 0
 2521 0088 0F4B     		ldr	r3, .L171+4
 2522 008a D869     		ldr	r0, [r3, #28]
 2523 008c FFF7FEFF 		bl	lwip_htonl
 2524              	.LVL268:
 2525 0090 2063     		str	r0, [r4, #48]
 2526              	.L167:
 586:Source\LwIP\src\core\ipv4/dhcp.c ****   struct dhcp *dhcp = netif_dhcp_data(netif);
 2527              		.loc 1 586 0 discriminator 1
 2528 0092 0024     		movs	r4, #0
 2529              	.LVL269:
 2530 0094 0BE0     		b	.L168
 2531              	.LVL270:
 2532              	.L170:
 2533              	.LBB8:
 661:Source\LwIP\src\core\ipv4/dhcp.c ****     dns_setserver(n, &dns_addr);
 2534              		.loc 1 661 0 discriminator 4
 2535 0096 9B00     		lsls	r3, r3, #2
 2536 0098 0B4A     		ldr	r2, .L171+4
 2537 009a 9858     		ldr	r0, [r3, r2]
 2538 009c FFF7FEFF 		bl	lwip_htonl
 2539              	.LVL271:
 2540 00a0 0190     		str	r0, [sp, #4]
 662:Source\LwIP\src\core\ipv4/dhcp.c ****   }
 2541              		.loc 1 662 0 discriminator 4
 2542 00a2 01A9     		add	r1, sp, #4
 2543 00a4 2000     		movs	r0, r4
 2544 00a6 FFF7FEFF 		bl	dns_setserver
 2545              	.LVL272:
ARM GAS  C:\Users\Phuong\AppData\Local\Temp\ccmYXgep.s 			page 86


 2546              	.LBE8:
 659:Source\LwIP\src\core\ipv4/dhcp.c ****     ip_addr_t dns_addr;
 2547              		.loc 1 659 0 discriminator 4
 2548 00aa 0134     		adds	r4, r4, #1
 2549              	.LVL273:
 2550 00ac E4B2     		uxtb	r4, r4
 2551              	.LVL274:
 2552              	.L168:
 659:Source\LwIP\src\core\ipv4/dhcp.c ****     ip_addr_t dns_addr;
 2553              		.loc 1 659 0 is_stmt 0 discriminator 1
 2554 00ae 012C     		cmp	r4, #1
 2555 00b0 05D8     		bhi	.L159
 659:Source\LwIP\src\core\ipv4/dhcp.c ****     ip_addr_t dns_addr;
 2556              		.loc 1 659 0 discriminator 3
 2557 00b2 2300     		movs	r3, r4
 2558 00b4 0833     		adds	r3, r3, #8
 2559 00b6 034A     		ldr	r2, .L171
 2560 00b8 D25C     		ldrb	r2, [r2, r3]
 2561 00ba 002A     		cmp	r2, #0
 2562 00bc EBD1     		bne	.L170
 2563              	.L159:
 665:Source\LwIP\src\core\ipv4/dhcp.c **** 
 2564              		.loc 1 665 0 is_stmt 1
 2565 00be 03B0     		add	sp, sp, #12
 2566              		@ sp needed
 2567              	.LVL275:
 2568 00c0 30BD     		pop	{r4, r5, pc}
 2569              	.L172:
 2570 00c2 C046     		.align	2
 2571              	.L171:
 2572 00c4 00000000 		.word	dhcp_rx_options_given
 2573 00c8 00000000 		.word	dhcp_rx_options_val
 2574              		.cfi_endproc
 2575              	.LFE63:
 2576              		.size	dhcp_handle_ack, .-dhcp_handle_ack
 2577              		.global	__aeabi_uidiv
 2578              		.section	.text.dhcp_bind,"ax",%progbits
 2579              		.align	2
 2580              		.code	16
 2581              		.thumb_func
 2582              		.type	dhcp_bind, %function
 2583              	dhcp_bind:
 2584              	.LFB70:
1018:Source\LwIP\src\core\ipv4/dhcp.c ****   u32_t timeout;
 2585              		.loc 1 1018 0
 2586              		.cfi_startproc
 2587              		@ args = 0, pretend = 0, frame = 8
 2588              		@ frame_needed = 0, uses_anonymous_args = 0
 2589              	.LVL276:
 2590 0000 30B5     		push	{r4, r5, lr}
 2591              		.cfi_def_cfa_offset 12
 2592              		.cfi_offset 4, -12
 2593              		.cfi_offset 5, -8
 2594              		.cfi_offset 14, -4
 2595 0002 83B0     		sub	sp, sp, #12
 2596              		.cfi_def_cfa_offset 24
 2597 0004 051E     		subs	r5, r0, #0
ARM GAS  C:\Users\Phuong\AppData\Local\Temp\ccmYXgep.s 			page 87


1022:Source\LwIP\src\core\ipv4/dhcp.c ****   dhcp = netif_dhcp_data(netif);
 2598              		.loc 1 1022 0
 2599 0006 6ED0     		beq	.L173
1023:Source\LwIP\src\core\ipv4/dhcp.c ****   LWIP_ERROR("dhcp_bind: dhcp != NULL", (dhcp != NULL), return;);
 2600              		.loc 1 1023 0
 2601 0008 446A     		ldr	r4, [r0, #36]
 2602              	.LVL277:
1024:Source\LwIP\src\core\ipv4/dhcp.c ****   LWIP_DEBUGF(DHCP_DEBUG | LWIP_DBG_TRACE, ("dhcp_bind(netif=%p) %c%c%"U16_F"\n", (void*)netif, net
 2603              		.loc 1 1024 0
 2604 000a 002C     		cmp	r4, #0
 2605 000c 6BD0     		beq	.L173
1028:Source\LwIP\src\core\ipv4/dhcp.c **** 
 2606              		.loc 1 1028 0
 2607 000e 0023     		movs	r3, #0
 2608 0010 2384     		strh	r3, [r4, #32]
1030:Source\LwIP\src\core\ipv4/dhcp.c ****      /* set renewal period timer */
 2609              		.loc 1 1030 0
 2610 0012 606B     		ldr	r0, [r4, #52]
 2611              	.LVL278:
 2612 0014 431C     		adds	r3, r0, #1
 2613 0016 0DD0     		beq	.L175
1033:Source\LwIP\src\core\ipv4/dhcp.c ****      if (timeout > 0xffff) {
 2614              		.loc 1 1033 0
 2615 0018 1E30     		adds	r0, r0, #30
 2616 001a 3C21     		movs	r1, #60
 2617 001c FFF7FEFF 		bl	__aeabi_uidiv
 2618              	.LVL279:
1034:Source\LwIP\src\core\ipv4/dhcp.c ****        timeout = 0xffff;
 2619              		.loc 1 1034 0
 2620 0020 324B     		ldr	r3, .L193
 2621 0022 9842     		cmp	r0, r3
 2622 0024 00D9     		bls	.L176
1035:Source\LwIP\src\core\ipv4/dhcp.c ****      }
 2623              		.loc 1 1035 0
 2624 0026 1800     		movs	r0, r3
 2625              	.LVL280:
 2626              	.L176:
1037:Source\LwIP\src\core\ipv4/dhcp.c ****      if (dhcp->t0_timeout == 0) {
 2627              		.loc 1 1037 0
 2628 0028 80B2     		uxth	r0, r0
 2629              	.LVL281:
 2630 002a 6084     		strh	r0, [r4, #34]
1038:Source\LwIP\src\core\ipv4/dhcp.c ****        dhcp->t0_timeout = 1;
 2631              		.loc 1 1038 0
 2632 002c 0028     		cmp	r0, #0
 2633 002e 01D1     		bne	.L175
1039:Source\LwIP\src\core\ipv4/dhcp.c ****      }
 2634              		.loc 1 1039 0
 2635 0030 0123     		movs	r3, #1
 2636 0032 6384     		strh	r3, [r4, #34]
 2637              	.L175:
1045:Source\LwIP\src\core\ipv4/dhcp.c ****     /* set renewal period timer */
 2638              		.loc 1 1045 0
 2639 0034 A06B     		ldr	r0, [r4, #56]
 2640 0036 431C     		adds	r3, r0, #1
 2641 0038 0FD0     		beq	.L177
1048:Source\LwIP\src\core\ipv4/dhcp.c ****     if (timeout > 0xffff) {
ARM GAS  C:\Users\Phuong\AppData\Local\Temp\ccmYXgep.s 			page 88


 2642              		.loc 1 1048 0
 2643 003a 1E30     		adds	r0, r0, #30
 2644 003c 3C21     		movs	r1, #60
 2645 003e FFF7FEFF 		bl	__aeabi_uidiv
 2646              	.LVL282:
1049:Source\LwIP\src\core\ipv4/dhcp.c ****       timeout = 0xffff;
 2647              		.loc 1 1049 0
 2648 0042 2A4B     		ldr	r3, .L193
 2649 0044 9842     		cmp	r0, r3
 2650 0046 00D9     		bls	.L178
1050:Source\LwIP\src\core\ipv4/dhcp.c ****     }
 2651              		.loc 1 1050 0
 2652 0048 1800     		movs	r0, r3
 2653              	.LVL283:
 2654              	.L178:
1052:Source\LwIP\src\core\ipv4/dhcp.c ****     if (dhcp->t1_timeout == 0) {
 2655              		.loc 1 1052 0
 2656 004a 80B2     		uxth	r0, r0
 2657              	.LVL284:
 2658 004c 2083     		strh	r0, [r4, #24]
1053:Source\LwIP\src\core\ipv4/dhcp.c ****       dhcp->t1_timeout = 1;
 2659              		.loc 1 1053 0
 2660 004e 0028     		cmp	r0, #0
 2661 0050 01D1     		bne	.L179
1054:Source\LwIP\src\core\ipv4/dhcp.c ****     }
 2662              		.loc 1 1054 0
 2663 0052 0123     		movs	r3, #1
 2664 0054 2383     		strh	r3, [r4, #24]
 2665              	.L179:
1057:Source\LwIP\src\core\ipv4/dhcp.c ****   }
 2666              		.loc 1 1057 0
 2667 0056 238B     		ldrh	r3, [r4, #24]
 2668 0058 A383     		strh	r3, [r4, #28]
 2669              	.L177:
1060:Source\LwIP\src\core\ipv4/dhcp.c ****     LWIP_DEBUGF(DHCP_DEBUG | LWIP_DBG_TRACE, ("dhcp_bind(): t2 rebind timer %"U32_F" secs\n", dhcp-
 2670              		.loc 1 1060 0
 2671 005a E06B     		ldr	r0, [r4, #60]
 2672 005c 431C     		adds	r3, r0, #1
 2673 005e 0FD0     		beq	.L180
1062:Source\LwIP\src\core\ipv4/dhcp.c ****     if (timeout > 0xffff) {
 2674              		.loc 1 1062 0
 2675 0060 1E30     		adds	r0, r0, #30
 2676 0062 3C21     		movs	r1, #60
 2677 0064 FFF7FEFF 		bl	__aeabi_uidiv
 2678              	.LVL285:
1063:Source\LwIP\src\core\ipv4/dhcp.c ****       timeout = 0xffff;
 2679              		.loc 1 1063 0
 2680 0068 204B     		ldr	r3, .L193
 2681 006a 9842     		cmp	r0, r3
 2682 006c 00D9     		bls	.L181
1064:Source\LwIP\src\core\ipv4/dhcp.c ****     }
 2683              		.loc 1 1064 0
 2684 006e 1800     		movs	r0, r3
 2685              	.LVL286:
 2686              	.L181:
1066:Source\LwIP\src\core\ipv4/dhcp.c ****     if (dhcp->t2_timeout == 0) {
 2687              		.loc 1 1066 0
ARM GAS  C:\Users\Phuong\AppData\Local\Temp\ccmYXgep.s 			page 89


 2688 0070 80B2     		uxth	r0, r0
 2689              	.LVL287:
 2690 0072 6083     		strh	r0, [r4, #26]
1067:Source\LwIP\src\core\ipv4/dhcp.c ****       dhcp->t2_timeout = 1;
 2691              		.loc 1 1067 0
 2692 0074 0028     		cmp	r0, #0
 2693 0076 01D1     		bne	.L182
1068:Source\LwIP\src\core\ipv4/dhcp.c ****     }
 2694              		.loc 1 1068 0
 2695 0078 0123     		movs	r3, #1
 2696 007a 6383     		strh	r3, [r4, #26]
 2697              	.L182:
1071:Source\LwIP\src\core\ipv4/dhcp.c ****   }
 2698              		.loc 1 1071 0
 2699 007c 638B     		ldrh	r3, [r4, #26]
 2700 007e E383     		strh	r3, [r4, #30]
 2701              	.L180:
1075:Source\LwIP\src\core\ipv4/dhcp.c ****     dhcp->t1_timeout = 0;
 2702              		.loc 1 1075 0
 2703 0080 228B     		ldrh	r2, [r4, #24]
 2704 0082 638B     		ldrh	r3, [r4, #26]
 2705 0084 9A42     		cmp	r2, r3
 2706 0086 03D3     		bcc	.L183
1075:Source\LwIP\src\core\ipv4/dhcp.c ****     dhcp->t1_timeout = 0;
 2707              		.loc 1 1075 0 is_stmt 0 discriminator 1
 2708 0088 002B     		cmp	r3, #0
 2709 008a 01D0     		beq	.L183
1076:Source\LwIP\src\core\ipv4/dhcp.c ****   }
 2710              		.loc 1 1076 0 is_stmt 1
 2711 008c 0023     		movs	r3, #0
 2712 008e 2383     		strh	r3, [r4, #24]
 2713              	.L183:
1079:Source\LwIP\src\core\ipv4/dhcp.c ****     /* copy offered network mask */
 2714              		.loc 1 1079 0
 2715 0090 E37A     		ldrb	r3, [r4, #11]
 2716 0092 002B     		cmp	r3, #0
 2717 0094 02D0     		beq	.L184
1081:Source\LwIP\src\core\ipv4/dhcp.c ****   } else {
 2718              		.loc 1 1081 0
 2719 0096 E36A     		ldr	r3, [r4, #44]
 2720 0098 0193     		str	r3, [sp, #4]
 2721 009a 0EE0     		b	.L185
 2722              	.L184:
 2723              	.LBB9:
1084:Source\LwIP\src\core\ipv4/dhcp.c ****     if (first_octet <= 127) {
 2724              		.loc 1 1084 0
 2725 009c 2823     		movs	r3, #40
 2726 009e E35C     		ldrb	r3, [r4, r3]
 2727              	.LVL288:
1085:Source\LwIP\src\core\ipv4/dhcp.c ****       ip4_addr_set_u32(&sn_mask, PP_HTONL(0xff000000UL));
 2728              		.loc 1 1085 0
 2729 00a0 5AB2     		sxtb	r2, r3
 2730 00a2 002A     		cmp	r2, #0
 2731 00a4 02DB     		blt	.L186
1086:Source\LwIP\src\core\ipv4/dhcp.c ****     } else if (first_octet >= 192) {
 2732              		.loc 1 1086 0
 2733 00a6 FF23     		movs	r3, #255
ARM GAS  C:\Users\Phuong\AppData\Local\Temp\ccmYXgep.s 			page 90


 2734              	.LVL289:
 2735 00a8 0193     		str	r3, [sp, #4]
 2736 00aa 06E0     		b	.L185
 2737              	.LVL290:
 2738              	.L186:
1087:Source\LwIP\src\core\ipv4/dhcp.c ****       ip4_addr_set_u32(&sn_mask, PP_HTONL(0xffffff00UL));
 2739              		.loc 1 1087 0
 2740 00ac BF2B     		cmp	r3, #191
 2741 00ae 02D9     		bls	.L187
1088:Source\LwIP\src\core\ipv4/dhcp.c ****     } else {
 2742              		.loc 1 1088 0
 2743 00b0 0F4B     		ldr	r3, .L193+4
 2744              	.LVL291:
 2745 00b2 0193     		str	r3, [sp, #4]
 2746 00b4 01E0     		b	.L185
 2747              	.LVL292:
 2748              	.L187:
1090:Source\LwIP\src\core\ipv4/dhcp.c ****     }
 2749              		.loc 1 1090 0
 2750 00b6 0D4B     		ldr	r3, .L193
 2751              	.LVL293:
 2752 00b8 0193     		str	r3, [sp, #4]
 2753              	.LVL294:
 2754              	.L185:
 2755              	.LBE9:
1094:Source\LwIP\src\core\ipv4/dhcp.c ****   /* gateway address not given? */
 2756              		.loc 1 1094 0
 2757 00ba 236B     		ldr	r3, [r4, #48]
 2758 00bc 0093     		str	r3, [sp]
1096:Source\LwIP\src\core\ipv4/dhcp.c ****     /* copy network address */
 2759              		.loc 1 1096 0
 2760 00be 002B     		cmp	r3, #0
 2761 00c0 06D1     		bne	.L188
1098:Source\LwIP\src\core\ipv4/dhcp.c ****     /* use first host address on network as gateway */
 2762              		.loc 1 1098 0
 2763 00c2 019B     		ldr	r3, [sp, #4]
 2764 00c4 A26A     		ldr	r2, [r4, #40]
 2765 00c6 1340     		ands	r3, r2
1100:Source\LwIP\src\core\ipv4/dhcp.c ****   }
 2766              		.loc 1 1100 0
 2767 00c8 8022     		movs	r2, #128
 2768 00ca 5204     		lsls	r2, r2, #17
 2769 00cc 1343     		orrs	r3, r2
 2770 00ce 0093     		str	r3, [sp]
 2771              	.L188:
1114:Source\LwIP\src\core\ipv4/dhcp.c **** 
 2772              		.loc 1 1114 0
 2773 00d0 0A21     		movs	r1, #10
 2774 00d2 2000     		movs	r0, r4
 2775 00d4 FFF7FEFF 		bl	dhcp_set_state
 2776              	.LVL295:
1116:Source\LwIP\src\core\ipv4/dhcp.c ****   /* interface is used by routing now that an address is set */
 2777              		.loc 1 1116 0
 2778 00d8 2100     		movs	r1, r4
 2779 00da 2831     		adds	r1, r1, #40
 2780 00dc 6B46     		mov	r3, sp
 2781 00de 01AA     		add	r2, sp, #4
ARM GAS  C:\Users\Phuong\AppData\Local\Temp\ccmYXgep.s 			page 91


 2782 00e0 2800     		movs	r0, r5
 2783 00e2 FFF7FEFF 		bl	netif_set_addr
 2784              	.LVL296:
 2785              	.L173:
1118:Source\LwIP\src\core\ipv4/dhcp.c **** 
 2786              		.loc 1 1118 0
 2787 00e6 03B0     		add	sp, sp, #12
 2788              		@ sp needed
 2789              	.LVL297:
 2790 00e8 30BD     		pop	{r4, r5, pc}
 2791              	.L194:
 2792 00ea C046     		.align	2
 2793              	.L193:
 2794 00ec FFFF0000 		.word	65535
 2795 00f0 FFFFFF00 		.word	16777215
 2796              		.cfi_endproc
 2797              	.LFE70:
 2798              		.size	dhcp_bind, .-dhcp_bind
 2799              		.section	.text.dhcp_handle_nak,"ax",%progbits
 2800              		.align	2
 2801              		.code	16
 2802              		.thumb_func
 2803              		.type	dhcp_handle_nak, %function
 2804              	dhcp_handle_nak:
 2805              	.LFB55:
 266:Source\LwIP\src\core\ipv4/dhcp.c ****   struct dhcp *dhcp = netif_dhcp_data(netif);
 2806              		.loc 1 266 0
 2807              		.cfi_startproc
 2808              		@ args = 0, pretend = 0, frame = 0
 2809              		@ frame_needed = 0, uses_anonymous_args = 0
 2810              	.LVL298:
 2811 0000 10B5     		push	{r4, lr}
 2812              		.cfi_def_cfa_offset 8
 2813              		.cfi_offset 4, -8
 2814              		.cfi_offset 14, -4
 2815 0002 0400     		movs	r4, r0
 2816              	.LVL299:
 273:Source\LwIP\src\core\ipv4/dhcp.c ****   /* remove IP address from interface (must no longer be used, as per RFC2131) */
 2817              		.loc 1 273 0
 2818 0004 0C21     		movs	r1, #12
 2819 0006 406A     		ldr	r0, [r0, #36]
 2820              	.LVL300:
 2821 0008 FFF7FEFF 		bl	dhcp_set_state
 2822              	.LVL301:
 275:Source\LwIP\src\core\ipv4/dhcp.c ****   /* We can immediately restart discovery */
 2823              		.loc 1 275 0
 2824 000c 0449     		ldr	r1, .L196
 2825 000e 0B00     		movs	r3, r1
 2826 0010 0A00     		movs	r2, r1
 2827 0012 2000     		movs	r0, r4
 2828 0014 FFF7FEFF 		bl	netif_set_addr
 2829              	.LVL302:
 277:Source\LwIP\src\core\ipv4/dhcp.c **** }
 2830              		.loc 1 277 0
 2831 0018 2000     		movs	r0, r4
 2832 001a FFF7FEFF 		bl	dhcp_discover
 2833              	.LVL303:
ARM GAS  C:\Users\Phuong\AppData\Local\Temp\ccmYXgep.s 			page 92


 278:Source\LwIP\src\core\ipv4/dhcp.c **** 
 2834              		.loc 1 278 0
 2835              		@ sp needed
 2836              	.LVL304:
 2837 001e 10BD     		pop	{r4, pc}
 2838              	.L197:
 2839              		.align	2
 2840              	.L196:
 2841 0020 00000000 		.word	ip_addr_any
 2842              		.cfi_endproc
 2843              	.LFE55:
 2844              		.size	dhcp_handle_nak, .-dhcp_handle_nak
 2845              		.section	.text.dhcp_recv,"ax",%progbits
 2846              		.align	2
 2847              		.code	16
 2848              		.thumb_func
 2849              		.type	dhcp_recv, %function
 2850              	dhcp_recv:
 2851              	.LFB83:
1679:Source\LwIP\src\core\ipv4/dhcp.c ****   struct netif *netif = ip_current_input_netif();
 2852              		.loc 1 1679 0
 2853              		.cfi_startproc
 2854              		@ args = 4, pretend = 0, frame = 0
 2855              		@ frame_needed = 0, uses_anonymous_args = 0
 2856              	.LVL305:
 2857 0000 F8B5     		push	{r3, r4, r5, r6, r7, lr}
 2858              		.cfi_def_cfa_offset 24
 2859              		.cfi_offset 3, -24
 2860              		.cfi_offset 4, -20
 2861              		.cfi_offset 5, -16
 2862              		.cfi_offset 6, -12
 2863              		.cfi_offset 7, -8
 2864              		.cfi_offset 14, -4
 2865 0002 1500     		movs	r5, r2
1680:Source\LwIP\src\core\ipv4/dhcp.c ****   struct dhcp *dhcp = netif_dhcp_data(netif);
 2866              		.loc 1 1680 0
 2867 0004 3B4B     		ldr	r3, .L208
 2868              	.LVL306:
 2869 0006 5E68     		ldr	r6, [r3, #4]
 2870              	.LVL307:
1681:Source\LwIP\src\core\ipv4/dhcp.c ****   struct dhcp_msg *reply_msg = (struct dhcp_msg *)p->payload;
 2871              		.loc 1 1681 0
 2872 0008 746A     		ldr	r4, [r6, #36]
 2873              	.LVL308:
1682:Source\LwIP\src\core\ipv4/dhcp.c ****   u8_t msg_type;
 2874              		.loc 1 1682 0
 2875 000a 5268     		ldr	r2, [r2, #4]
 2876              	.LVL309:
1689:Source\LwIP\src\core\ipv4/dhcp.c ****     goto free_pbuf_and_return;
 2877              		.loc 1 1689 0
 2878 000c 002C     		cmp	r4, #0
 2879 000e 68D0     		beq	.L199
1689:Source\LwIP\src\core\ipv4/dhcp.c ****     goto free_pbuf_and_return;
 2880              		.loc 1 1689 0 is_stmt 0 discriminator 1
 2881 0010 237A     		ldrb	r3, [r4, #8]
 2882 0012 002B     		cmp	r3, #0
 2883 0014 65D0     		beq	.L199
ARM GAS  C:\Users\Phuong\AppData\Local\Temp\ccmYXgep.s 			page 93


1706:Source\LwIP\src\core\ipv4/dhcp.c ****     LWIP_DEBUGF(DHCP_DEBUG | LWIP_DBG_TRACE | LWIP_DBG_LEVEL_WARNING, ("DHCP reply message or pbuf 
 2884              		.loc 1 1706 0 is_stmt 1
 2885 0016 6B89     		ldrh	r3, [r5, #10]
 2886 0018 2B2B     		cmp	r3, #43
 2887 001a 62D9     		bls	.L199
1711:Source\LwIP\src\core\ipv4/dhcp.c ****     LWIP_DEBUGF(DHCP_DEBUG | LWIP_DBG_TRACE | LWIP_DBG_LEVEL_WARNING, ("not a DHCP reply message, b
 2888              		.loc 1 1711 0
 2889 001c 1378     		ldrb	r3, [r2]
 2890 001e 022B     		cmp	r3, #2
 2891 0020 5FD1     		bne	.L199
 2892 0022 0023     		movs	r3, #0
 2893 0024 08E0     		b	.L200
 2894              	.LVL310:
 2895              	.L202:
1717:Source\LwIP\src\core\ipv4/dhcp.c ****       LWIP_DEBUGF(DHCP_DEBUG | LWIP_DBG_TRACE | LWIP_DBG_LEVEL_WARNING,
 2896              		.loc 1 1717 0
 2897 0026 F118     		adds	r1, r6, r3
 2898 0028 3731     		adds	r1, r1, #55
 2899 002a 0878     		ldrb	r0, [r1]
 2900 002c D118     		adds	r1, r2, r3
 2901 002e 097F     		ldrb	r1, [r1, #28]
 2902 0030 8842     		cmp	r0, r1
 2903 0032 56D1     		bne	.L199
1716:Source\LwIP\src\core\ipv4/dhcp.c ****     if (netif->hwaddr[i] != reply_msg->chaddr[i]) {
 2904              		.loc 1 1716 0 discriminator 2
 2905 0034 0133     		adds	r3, r3, #1
 2906              	.LVL311:
 2907 0036 DBB2     		uxtb	r3, r3
 2908              	.LVL312:
 2909              	.L200:
1716:Source\LwIP\src\core\ipv4/dhcp.c ****     if (netif->hwaddr[i] != reply_msg->chaddr[i]) {
 2910              		.loc 1 1716 0 is_stmt 0 discriminator 1
 2911 0038 3621     		movs	r1, #54
 2912 003a 715C     		ldrb	r1, [r6, r1]
 2913 003c 8B42     		cmp	r3, r1
 2914 003e 03D2     		bcs	.L201
1716:Source\LwIP\src\core\ipv4/dhcp.c ****     if (netif->hwaddr[i] != reply_msg->chaddr[i]) {
 2915              		.loc 1 1716 0 discriminator 3
 2916 0040 052B     		cmp	r3, #5
 2917 0042 01D8     		bhi	.L201
1716:Source\LwIP\src\core\ipv4/dhcp.c ****     if (netif->hwaddr[i] != reply_msg->chaddr[i]) {
 2918              		.loc 1 1716 0 discriminator 4
 2919 0044 0F2B     		cmp	r3, #15
 2920 0046 EED9     		bls	.L202
 2921              	.L201:
1725:Source\LwIP\src\core\ipv4/dhcp.c ****     LWIP_DEBUGF(DHCP_DEBUG | LWIP_DBG_TRACE | LWIP_DBG_LEVEL_WARNING,
 2922              		.loc 1 1725 0 is_stmt 1
 2923 0048 1779     		ldrb	r7, [r2, #4]
 2924 004a 5379     		ldrb	r3, [r2, #5]
 2925              	.LVL313:
 2926 004c 1B02     		lsls	r3, r3, #8
 2927 004e 3B43     		orrs	r3, r7
 2928 0050 1900     		movs	r1, r3
 2929 0052 9079     		ldrb	r0, [r2, #6]
 2930 0054 0004     		lsls	r0, r0, #16
 2931 0056 0300     		movs	r3, r0
 2932 0058 0B43     		orrs	r3, r1
ARM GAS  C:\Users\Phuong\AppData\Local\Temp\ccmYXgep.s 			page 94


 2933 005a D079     		ldrb	r0, [r2, #7]
 2934 005c 0006     		lsls	r0, r0, #24
 2935 005e 1843     		orrs	r0, r3
 2936 0060 FFF7FEFF 		bl	lwip_htonl
 2937              	.LVL314:
 2938 0064 2368     		ldr	r3, [r4]
 2939 0066 9842     		cmp	r0, r3
 2940 0068 3BD1     		bne	.L199
1731:Source\LwIP\src\core\ipv4/dhcp.c ****     LWIP_DEBUGF(DHCP_DEBUG | LWIP_DBG_TRACE | LWIP_DBG_LEVEL_SERIOUS,
 2941              		.loc 1 1731 0
 2942 006a 2900     		movs	r1, r5
 2943 006c 2000     		movs	r0, r4
 2944 006e FFF7FEFF 		bl	dhcp_parse_reply
 2945              	.LVL315:
 2946 0072 0028     		cmp	r0, #0
 2947 0074 35D1     		bne	.L199
1739:Source\LwIP\src\core\ipv4/dhcp.c ****     LWIP_DEBUGF(DHCP_DEBUG | LWIP_DBG_TRACE | LWIP_DBG_LEVEL_WARNING, ("DHCP_OPTION_MESSAGE_TYPE op
 2948              		.loc 1 1739 0
 2949 0076 204B     		ldr	r3, .L208+4
 2950 0078 5B78     		ldrb	r3, [r3, #1]
 2951 007a 002B     		cmp	r3, #0
 2952 007c 31D0     		beq	.L199
1745:Source\LwIP\src\core\ipv4/dhcp.c ****   /* message type is DHCP ACK? */
 2953              		.loc 1 1745 0
 2954 007e 1F4B     		ldr	r3, .L208+8
 2955 0080 1A79     		ldrb	r2, [r3, #4]
 2956              	.LVL316:
1747:Source\LwIP\src\core\ipv4/dhcp.c ****     LWIP_DEBUGF(DHCP_DEBUG | LWIP_DBG_TRACE, ("DHCP_ACK received\n"));
 2957              		.loc 1 1747 0
 2958 0082 052A     		cmp	r2, #5
 2959 0084 14D1     		bne	.L203
1750:Source\LwIP\src\core\ipv4/dhcp.c ****       dhcp_handle_ack(netif);
 2960              		.loc 1 1750 0
 2961 0086 637A     		ldrb	r3, [r4, #9]
 2962 0088 012B     		cmp	r3, #1
 2963 008a 06D1     		bne	.L204
1751:Source\LwIP\src\core\ipv4/dhcp.c **** #if DHCP_DOES_ARP_CHECK
 2964              		.loc 1 1751 0
 2965 008c 3000     		movs	r0, r6
 2966 008e FFF7FEFF 		bl	dhcp_handle_ack
 2967              	.LVL317:
1762:Source\LwIP\src\core\ipv4/dhcp.c **** #endif
 2968              		.loc 1 1762 0
 2969 0092 3000     		movs	r0, r6
 2970 0094 FFF7FEFF 		bl	dhcp_bind
 2971              	.LVL318:
 2972 0098 23E0     		b	.L199
 2973              	.LVL319:
 2974              	.L204:
1766:Source\LwIP\src\core\ipv4/dhcp.c ****              (dhcp->state == DHCP_STATE_RENEWING)) {
 2975              		.loc 1 1766 0
 2976 009a 033B     		subs	r3, r3, #3
 2977 009c DBB2     		uxtb	r3, r3
 2978 009e 022B     		cmp	r3, #2
 2979 00a0 1FD8     		bhi	.L199
1768:Source\LwIP\src\core\ipv4/dhcp.c ****       dhcp_bind(netif);
 2980              		.loc 1 1768 0
ARM GAS  C:\Users\Phuong\AppData\Local\Temp\ccmYXgep.s 			page 95


 2981 00a2 3000     		movs	r0, r6
 2982 00a4 FFF7FEFF 		bl	dhcp_handle_ack
 2983              	.LVL320:
1769:Source\LwIP\src\core\ipv4/dhcp.c ****     }
 2984              		.loc 1 1769 0
 2985 00a8 3000     		movs	r0, r6
 2986 00aa FFF7FEFF 		bl	dhcp_bind
 2987              	.LVL321:
 2988 00ae 18E0     		b	.L199
 2989              	.LVL322:
 2990              	.L203:
1773:Source\LwIP\src\core\ipv4/dhcp.c ****     ((dhcp->state == DHCP_STATE_REBOOTING) || (dhcp->state == DHCP_STATE_REQUESTING) ||
 2991              		.loc 1 1773 0
 2992 00b0 062A     		cmp	r2, #6
 2993 00b2 0CD1     		bne	.L205
1774:Source\LwIP\src\core\ipv4/dhcp.c ****      (dhcp->state == DHCP_STATE_REBINDING) || (dhcp->state == DHCP_STATE_RENEWING  ))) {
 2994              		.loc 1 1774 0 discriminator 1
 2995 00b4 637A     		ldrb	r3, [r4, #9]
1773:Source\LwIP\src\core\ipv4/dhcp.c ****     ((dhcp->state == DHCP_STATE_REBOOTING) || (dhcp->state == DHCP_STATE_REQUESTING) ||
 2996              		.loc 1 1773 0 discriminator 1
 2997 00b6 032B     		cmp	r3, #3
 2998 00b8 05D0     		beq	.L206
1774:Source\LwIP\src\core\ipv4/dhcp.c ****      (dhcp->state == DHCP_STATE_REBINDING) || (dhcp->state == DHCP_STATE_RENEWING  ))) {
 2999              		.loc 1 1774 0
 3000 00ba 012B     		cmp	r3, #1
 3001 00bc 03D0     		beq	.L206
1774:Source\LwIP\src\core\ipv4/dhcp.c ****      (dhcp->state == DHCP_STATE_REBINDING) || (dhcp->state == DHCP_STATE_RENEWING  ))) {
 3002              		.loc 1 1774 0 is_stmt 0 discriminator 1
 3003 00be 042B     		cmp	r3, #4
 3004 00c0 01D0     		beq	.L206
1775:Source\LwIP\src\core\ipv4/dhcp.c ****     LWIP_DEBUGF(DHCP_DEBUG | LWIP_DBG_TRACE, ("DHCP_NAK received\n"));
 3005              		.loc 1 1775 0 is_stmt 1
 3006 00c2 052B     		cmp	r3, #5
 3007 00c4 03D1     		bne	.L205
 3008              	.L206:
1777:Source\LwIP\src\core\ipv4/dhcp.c ****   }
 3009              		.loc 1 1777 0
 3010 00c6 3000     		movs	r0, r6
 3011 00c8 FFF7FEFF 		bl	dhcp_handle_nak
 3012              	.LVL323:
 3013 00cc 09E0     		b	.L199
 3014              	.LVL324:
 3015              	.L205:
1780:Source\LwIP\src\core\ipv4/dhcp.c ****     LWIP_DEBUGF(DHCP_DEBUG | LWIP_DBG_TRACE, ("DHCP_OFFER received in DHCP_STATE_SELECTING state\n"
 3016              		.loc 1 1780 0
 3017 00ce 022A     		cmp	r2, #2
 3018 00d0 07D1     		bne	.L199
1780:Source\LwIP\src\core\ipv4/dhcp.c ****     LWIP_DEBUGF(DHCP_DEBUG | LWIP_DBG_TRACE, ("DHCP_OFFER received in DHCP_STATE_SELECTING state\n"
 3019              		.loc 1 1780 0 is_stmt 0 discriminator 1
 3020 00d2 637A     		ldrb	r3, [r4, #9]
 3021 00d4 062B     		cmp	r3, #6
 3022 00d6 04D1     		bne	.L199
1782:Source\LwIP\src\core\ipv4/dhcp.c ****     /* remember offered lease */
 3023              		.loc 1 1782 0 is_stmt 1
 3024 00d8 0023     		movs	r3, #0
 3025 00da E382     		strh	r3, [r4, #22]
1784:Source\LwIP\src\core\ipv4/dhcp.c ****   }
ARM GAS  C:\Users\Phuong\AppData\Local\Temp\ccmYXgep.s 			page 96


 3026              		.loc 1 1784 0
 3027 00dc 3000     		movs	r0, r6
 3028 00de FFF7FEFF 		bl	dhcp_handle_offer
 3029              	.LVL325:
 3030              	.L199:
1788:Source\LwIP\src\core\ipv4/dhcp.c ****     dhcp->msg_in = NULL;
 3031              		.loc 1 1788 0
 3032 00e2 002C     		cmp	r4, #0
 3033 00e4 01D0     		beq	.L207
1789:Source\LwIP\src\core\ipv4/dhcp.c ****   }
 3034              		.loc 1 1789 0
 3035 00e6 0023     		movs	r3, #0
 3036 00e8 6360     		str	r3, [r4, #4]
 3037              	.L207:
1791:Source\LwIP\src\core\ipv4/dhcp.c **** }
 3038              		.loc 1 1791 0
 3039 00ea 2800     		movs	r0, r5
 3040 00ec FFF7FEFF 		bl	pbuf_free
 3041              	.LVL326:
1792:Source\LwIP\src\core\ipv4/dhcp.c **** 
 3042              		.loc 1 1792 0
 3043              		@ sp needed
 3044              	.LVL327:
 3045              	.LVL328:
 3046              	.LVL329:
 3047 00f0 F8BD     		pop	{r3, r4, r5, r6, r7, pc}
 3048              	.L209:
 3049 00f2 C046     		.align	2
 3050              	.L208:
 3051 00f4 00000000 		.word	ip_data
 3052 00f8 00000000 		.word	dhcp_rx_options_given
 3053 00fc 00000000 		.word	dhcp_rx_options_val
 3054              		.cfi_endproc
 3055              	.LFE83:
 3056              		.size	dhcp_recv, .-dhcp_recv
 3057              		.section	.text.dhcp_set_struct,"ax",%progbits
 3058              		.align	2
 3059              		.global	dhcp_set_struct
 3060              		.code	16
 3061              		.thumb_func
 3062              		.type	dhcp_set_struct, %function
 3063              	dhcp_set_struct:
 3064              	.LFB64:
 677:Source\LwIP\src\core\ipv4/dhcp.c ****   LWIP_ASSERT("netif != NULL", netif != NULL);
 3065              		.loc 1 677 0
 3066              		.cfi_startproc
 3067              		@ args = 0, pretend = 0, frame = 0
 3068              		@ frame_needed = 0, uses_anonymous_args = 0
 3069              	.LVL330:
 3070 0000 70B5     		push	{r4, r5, r6, lr}
 3071              		.cfi_def_cfa_offset 16
 3072              		.cfi_offset 4, -16
 3073              		.cfi_offset 5, -12
 3074              		.cfi_offset 6, -8
 3075              		.cfi_offset 14, -4
 3076 0002 0500     		movs	r5, r0
 3077 0004 0C00     		movs	r4, r1
ARM GAS  C:\Users\Phuong\AppData\Local\Temp\ccmYXgep.s 			page 97


 683:Source\LwIP\src\core\ipv4/dhcp.c ****   /* dhcp_set_state(&dhcp, DHCP_STATE_OFF); */
 3078              		.loc 1 683 0
 3079 0006 4022     		movs	r2, #64
 3080 0008 0021     		movs	r1, #0
 3081              	.LVL331:
 3082 000a 2000     		movs	r0, r4
 3083              	.LVL332:
 3084 000c FFF7FEFF 		bl	memset
 3085              	.LVL333:
 685:Source\LwIP\src\core\ipv4/dhcp.c **** }
 3086              		.loc 1 685 0
 3087 0010 6C62     		str	r4, [r5, #36]
 686:Source\LwIP\src\core\ipv4/dhcp.c **** 
 3088              		.loc 1 686 0
 3089              		@ sp needed
 3090              	.LVL334:
 3091              	.LVL335:
 3092 0012 70BD     		pop	{r4, r5, r6, pc}
 3093              		.cfi_endproc
 3094              	.LFE64:
 3095              		.size	dhcp_set_struct, .-dhcp_set_struct
 3096              		.section	.text.dhcp_cleanup,"ax",%progbits
 3097              		.align	2
 3098              		.global	dhcp_cleanup
 3099              		.code	16
 3100              		.thumb_func
 3101              		.type	dhcp_cleanup, %function
 3102              	dhcp_cleanup:
 3103              	.LFB65:
 698:Source\LwIP\src\core\ipv4/dhcp.c ****   LWIP_ASSERT("netif != NULL", netif != NULL);
 3104              		.loc 1 698 0
 3105              		.cfi_startproc
 3106              		@ args = 0, pretend = 0, frame = 0
 3107              		@ frame_needed = 0, uses_anonymous_args = 0
 3108              	.LVL336:
 3109 0000 10B5     		push	{r4, lr}
 3110              		.cfi_def_cfa_offset 8
 3111              		.cfi_offset 4, -8
 3112              		.cfi_offset 14, -4
 3113 0002 0400     		movs	r4, r0
 701:Source\LwIP\src\core\ipv4/dhcp.c ****     mem_free(netif_dhcp_data(netif));
 3114              		.loc 1 701 0
 3115 0004 406A     		ldr	r0, [r0, #36]
 3116              	.LVL337:
 3117 0006 0028     		cmp	r0, #0
 3118 0008 03D0     		beq	.L211
 702:Source\LwIP\src\core\ipv4/dhcp.c ****     netif_set_client_data(netif, LWIP_NETIF_CLIENT_DATA_INDEX_DHCP, NULL);
 3119              		.loc 1 702 0
 3120 000a FFF7FEFF 		bl	mem_free
 3121              	.LVL338:
 703:Source\LwIP\src\core\ipv4/dhcp.c ****   }
 3122              		.loc 1 703 0
 3123 000e 0023     		movs	r3, #0
 3124 0010 6362     		str	r3, [r4, #36]
 3125              	.L211:
 705:Source\LwIP\src\core\ipv4/dhcp.c **** 
 3126              		.loc 1 705 0
ARM GAS  C:\Users\Phuong\AppData\Local\Temp\ccmYXgep.s 			page 98


 3127              		@ sp needed
 3128              	.LVL339:
 3129 0012 10BD     		pop	{r4, pc}
 3130              		.cfi_endproc
 3131              	.LFE65:
 3132              		.size	dhcp_cleanup, .-dhcp_cleanup
 3133              		.section	.text.dhcp_inform,"ax",%progbits
 3134              		.align	2
 3135              		.global	dhcp_inform
 3136              		.code	16
 3137              		.thumb_func
 3138              		.type	dhcp_inform, %function
 3139              	dhcp_inform:
 3140              	.LFB67:
 803:Source\LwIP\src\core\ipv4/dhcp.c ****   struct dhcp dhcp;
 3141              		.loc 1 803 0
 3142              		.cfi_startproc
 3143              		@ args = 0, pretend = 0, frame = 64
 3144              		@ frame_needed = 0, uses_anonymous_args = 0
 3145              	.LVL340:
 3146 0000 30B5     		push	{r4, r5, lr}
 3147              		.cfi_def_cfa_offset 12
 3148              		.cfi_offset 4, -12
 3149              		.cfi_offset 5, -8
 3150              		.cfi_offset 14, -4
 3151 0002 93B0     		sub	sp, sp, #76
 3152              		.cfi_def_cfa_offset 88
 3153 0004 041E     		subs	r4, r0, #0
 3154              	.LVL341:
 807:Source\LwIP\src\core\ipv4/dhcp.c **** 
 3155              		.loc 1 807 0
 3156 0006 33D0     		beq	.L213
 809:Source\LwIP\src\core\ipv4/dhcp.c ****     return;
 3157              		.loc 1 809 0
 3158 0008 FFF7FEFF 		bl	dhcp_inc_pcb_refcount
 3159              	.LVL342:
 3160 000c 0028     		cmp	r0, #0
 3161 000e 2FD1     		bne	.L213
 813:Source\LwIP\src\core\ipv4/dhcp.c ****   dhcp_set_state(&dhcp, DHCP_STATE_INFORMING);
 3162              		.loc 1 813 0
 3163 0010 4022     		movs	r2, #64
 3164 0012 0021     		movs	r1, #0
 3165 0014 02A8     		add	r0, sp, #8
 3166 0016 FFF7FEFF 		bl	memset
 3167              	.LVL343:
 814:Source\LwIP\src\core\ipv4/dhcp.c **** 
 3168              		.loc 1 814 0
 3169 001a 0721     		movs	r1, #7
 3170 001c 02A8     		add	r0, sp, #8
 3171 001e FFF7FEFF 		bl	dhcp_set_state
 3172              	.LVL344:
 817:Source\LwIP\src\core\ipv4/dhcp.c ****   if (result == ERR_OK) {
 3173              		.loc 1 817 0
 3174 0022 0822     		movs	r2, #8
 3175 0024 02A9     		add	r1, sp, #8
 3176 0026 2000     		movs	r0, r4
 3177 0028 FFF7FEFF 		bl	dhcp_create_msg
ARM GAS  C:\Users\Phuong\AppData\Local\Temp\ccmYXgep.s 			page 99


 3178              	.LVL345:
 818:Source\LwIP\src\core\ipv4/dhcp.c ****     dhcp_option(&dhcp, DHCP_OPTION_MAX_MSG_SIZE, DHCP_OPTION_MAX_MSG_SIZE_LEN);
 3179              		.loc 1 818 0
 3180 002c 0028     		cmp	r0, #0
 3181 002e 1DD1     		bne	.L215
 819:Source\LwIP\src\core\ipv4/dhcp.c ****     dhcp_option_short(&dhcp, DHCP_MAX_MSG_LEN(netif));
 3182              		.loc 1 819 0
 3183 0030 02AD     		add	r5, sp, #8
 3184 0032 0222     		movs	r2, #2
 3185 0034 3921     		movs	r1, #57
 3186 0036 2800     		movs	r0, r5
 3187              	.LVL346:
 3188 0038 FFF7FEFF 		bl	dhcp_option
 3189              	.LVL347:
 820:Source\LwIP\src\core\ipv4/dhcp.c **** 
 3190              		.loc 1 820 0
 3191 003c A18E     		ldrh	r1, [r4, #52]
 3192 003e 2800     		movs	r0, r5
 3193 0040 FFF7FEFF 		bl	dhcp_option_short
 3194              	.LVL348:
 822:Source\LwIP\src\core\ipv4/dhcp.c **** 
 3195              		.loc 1 822 0
 3196 0044 2800     		movs	r0, r5
 3197 0046 FFF7FEFF 		bl	dhcp_option_trailer
 3198              	.LVL349:
 824:Source\LwIP\src\core\ipv4/dhcp.c **** 
 3199              		.loc 1 824 0
 3200 004a A98A     		ldrh	r1, [r5, #20]
 3201 004c F031     		adds	r1, r1, #240
 3202 004e 89B2     		uxth	r1, r1
 3203 0050 E868     		ldr	r0, [r5, #12]
 3204 0052 FFF7FEFF 		bl	pbuf_realloc
 3205              	.LVL350:
 828:Source\LwIP\src\core\ipv4/dhcp.c **** 
 3206              		.loc 1 828 0
 3207 0056 074B     		ldr	r3, .L217
 3208 0058 5868     		ldr	r0, [r3, #4]
 3209 005a 0094     		str	r4, [sp]
 3210 005c 4323     		movs	r3, #67
 3211 005e 064A     		ldr	r2, .L217+4
 3212 0060 E968     		ldr	r1, [r5, #12]
 3213 0062 FFF7FEFF 		bl	udp_sendto_if
 3214              	.LVL351:
 830:Source\LwIP\src\core\ipv4/dhcp.c ****   } else {
 3215              		.loc 1 830 0
 3216 0066 2800     		movs	r0, r5
 3217 0068 FFF7FEFF 		bl	dhcp_delete_msg
 3218              	.LVL352:
 3219              	.L215:
 835:Source\LwIP\src\core\ipv4/dhcp.c **** }
 3220              		.loc 1 835 0
 3221 006c FFF7FEFF 		bl	dhcp_dec_pcb_refcount
 3222              	.LVL353:
 3223              	.L213:
 836:Source\LwIP\src\core\ipv4/dhcp.c **** 
 3224              		.loc 1 836 0
 3225 0070 13B0     		add	sp, sp, #76
ARM GAS  C:\Users\Phuong\AppData\Local\Temp\ccmYXgep.s 			page 100


 3226              		@ sp needed
 3227              	.LVL354:
 3228 0072 30BD     		pop	{r4, r5, pc}
 3229              	.L218:
 3230              		.align	2
 3231              	.L217:
 3232 0074 00000000 		.word	.LANCHOR0
 3233 0078 00000000 		.word	ip_addr_broadcast
 3234              		.cfi_endproc
 3235              	.LFE67:
 3236              		.size	dhcp_inform, .-dhcp_inform
 3237              		.section	.text.dhcp_network_changed,"ax",%progbits
 3238              		.align	2
 3239              		.global	dhcp_network_changed
 3240              		.code	16
 3241              		.thumb_func
 3242              		.type	dhcp_network_changed, %function
 3243              	dhcp_network_changed:
 3244              	.LFB68:
 845:Source\LwIP\src\core\ipv4/dhcp.c ****   struct dhcp *dhcp = netif_dhcp_data(netif);
 3245              		.loc 1 845 0
 3246              		.cfi_startproc
 3247              		@ args = 0, pretend = 0, frame = 0
 3248              		@ frame_needed = 0, uses_anonymous_args = 0
 3249              	.LVL355:
 3250 0000 10B5     		push	{r4, lr}
 3251              		.cfi_def_cfa_offset 8
 3252              		.cfi_offset 4, -8
 3253              		.cfi_offset 14, -4
 846:Source\LwIP\src\core\ipv4/dhcp.c **** 
 3254              		.loc 1 846 0
 3255 0002 436A     		ldr	r3, [r0, #36]
 3256              	.LVL356:
 848:Source\LwIP\src\core\ipv4/dhcp.c ****     return;
 3257              		.loc 1 848 0
 3258 0004 002B     		cmp	r3, #0
 3259 0006 12D0     		beq	.L219
 850:Source\LwIP\src\core\ipv4/dhcp.c ****   case DHCP_STATE_REBINDING:
 3260              		.loc 1 850 0
 3261 0008 5A7A     		ldrb	r2, [r3, #9]
 3262 000a 052A     		cmp	r2, #5
 3263 000c 04D8     		bhi	.L222
 3264 000e 032A     		cmp	r2, #3
 3265 0010 04D2     		bcs	.L223
 3266 0012 002A     		cmp	r2, #0
 3267 0014 0BD0     		beq	.L219
 3268 0016 06E0     		b	.L221
 3269              	.L222:
 3270 0018 0A2A     		cmp	r2, #10
 3271 001a 04D1     		bne	.L221
 3272              	.L223:
 855:Source\LwIP\src\core\ipv4/dhcp.c ****     dhcp_reboot(netif);
 3273              		.loc 1 855 0
 3274 001c 0022     		movs	r2, #0
 3275 001e 9A72     		strb	r2, [r3, #10]
 856:Source\LwIP\src\core\ipv4/dhcp.c ****     break;
 3276              		.loc 1 856 0
ARM GAS  C:\Users\Phuong\AppData\Local\Temp\ccmYXgep.s 			page 101


 3277 0020 FFF7FEFF 		bl	dhcp_reboot
 3278              	.LVL357:
 857:Source\LwIP\src\core\ipv4/dhcp.c ****   case DHCP_STATE_OFF:
 3279              		.loc 1 857 0
 3280 0024 03E0     		b	.L219
 3281              	.LVL358:
 3282              	.L221:
 872:Source\LwIP\src\core\ipv4/dhcp.c ****     dhcp_discover(netif);
 3283              		.loc 1 872 0
 3284 0026 0022     		movs	r2, #0
 3285 0028 9A72     		strb	r2, [r3, #10]
 873:Source\LwIP\src\core\ipv4/dhcp.c ****     break;
 3286              		.loc 1 873 0
 3287 002a FFF7FEFF 		bl	dhcp_discover
 3288              	.LVL359:
 3289              	.L219:
 876:Source\LwIP\src\core\ipv4/dhcp.c **** 
 3290              		.loc 1 876 0
 3291              		@ sp needed
 3292 002e 10BD     		pop	{r4, pc}
 3293              		.cfi_endproc
 3294              	.LFE68:
 3295              		.size	dhcp_network_changed, .-dhcp_network_changed
 3296              		.section	.text.dhcp_renew,"ax",%progbits
 3297              		.align	2
 3298              		.global	dhcp_renew
 3299              		.code	16
 3300              		.thumb_func
 3301              		.type	dhcp_renew, %function
 3302              	dhcp_renew:
 3303              	.LFB71:
1128:Source\LwIP\src\core\ipv4/dhcp.c ****   struct dhcp *dhcp = netif_dhcp_data(netif);
 3304              		.loc 1 1128 0
 3305              		.cfi_startproc
 3306              		@ args = 0, pretend = 0, frame = 0
 3307              		@ frame_needed = 0, uses_anonymous_args = 0
 3308              	.LVL360:
 3309 0000 F0B5     		push	{r4, r5, r6, r7, lr}
 3310              		.cfi_def_cfa_offset 20
 3311              		.cfi_offset 4, -20
 3312              		.cfi_offset 5, -16
 3313              		.cfi_offset 6, -12
 3314              		.cfi_offset 7, -8
 3315              		.cfi_offset 14, -4
 3316 0002 83B0     		sub	sp, sp, #12
 3317              		.cfi_def_cfa_offset 32
 3318 0004 0700     		movs	r7, r0
1129:Source\LwIP\src\core\ipv4/dhcp.c ****   err_t result;
 3319              		.loc 1 1129 0
 3320 0006 446A     		ldr	r4, [r0, #36]
 3321              	.LVL361:
1134:Source\LwIP\src\core\ipv4/dhcp.c **** 
 3322              		.loc 1 1134 0
 3323 0008 0521     		movs	r1, #5
 3324 000a 2000     		movs	r0, r4
 3325              	.LVL362:
 3326 000c FFF7FEFF 		bl	dhcp_set_state
ARM GAS  C:\Users\Phuong\AppData\Local\Temp\ccmYXgep.s 			page 102


 3327              	.LVL363:
1137:Source\LwIP\src\core\ipv4/dhcp.c ****   if (result == ERR_OK) {
 3328              		.loc 1 1137 0
 3329 0010 0322     		movs	r2, #3
 3330 0012 2100     		movs	r1, r4
 3331 0014 3800     		movs	r0, r7
 3332 0016 FFF7FEFF 		bl	dhcp_create_msg
 3333              	.LVL364:
 3334 001a 061E     		subs	r6, r0, #0
 3335              	.LVL365:
1138:Source\LwIP\src\core\ipv4/dhcp.c ****     dhcp_option(dhcp, DHCP_OPTION_MAX_MSG_SIZE, DHCP_OPTION_MAX_MSG_SIZE_LEN);
 3336              		.loc 1 1138 0
 3337 001c 31D1     		bne	.L225
1139:Source\LwIP\src\core\ipv4/dhcp.c ****     dhcp_option_short(dhcp, DHCP_MAX_MSG_LEN(netif));
 3338              		.loc 1 1139 0
 3339 001e 0222     		movs	r2, #2
 3340 0020 3921     		movs	r1, #57
 3341 0022 2000     		movs	r0, r4
 3342              	.LVL366:
 3343 0024 FFF7FEFF 		bl	dhcp_option
 3344              	.LVL367:
1140:Source\LwIP\src\core\ipv4/dhcp.c **** 
 3345              		.loc 1 1140 0
 3346 0028 B98E     		ldrh	r1, [r7, #52]
 3347 002a 2000     		movs	r0, r4
 3348 002c FFF7FEFF 		bl	dhcp_option_short
 3349              	.LVL368:
1142:Source\LwIP\src\core\ipv4/dhcp.c ****     for (i = 0; i < LWIP_ARRAYSIZE(dhcp_discover_request_options); i++) {
 3350              		.loc 1 1142 0
 3351 0030 0422     		movs	r2, #4
 3352 0032 3721     		movs	r1, #55
 3353 0034 2000     		movs	r0, r4
 3354 0036 FFF7FEFF 		bl	dhcp_option
 3355              	.LVL369:
1143:Source\LwIP\src\core\ipv4/dhcp.c ****       dhcp_option_byte(dhcp, dhcp_discover_request_options[i]);
 3356              		.loc 1 1143 0
 3357 003a 0025     		movs	r5, #0
 3358 003c 06E0     		b	.L226
 3359              	.LVL370:
 3360              	.L227:
1144:Source\LwIP\src\core\ipv4/dhcp.c ****     }
 3361              		.loc 1 1144 0 discriminator 3
 3362 003e 1D4B     		ldr	r3, .L231
 3363 0040 595D     		ldrb	r1, [r3, r5]
 3364 0042 2000     		movs	r0, r4
 3365 0044 FFF7FEFF 		bl	dhcp_option_byte
 3366              	.LVL371:
1143:Source\LwIP\src\core\ipv4/dhcp.c ****       dhcp_option_byte(dhcp, dhcp_discover_request_options[i]);
 3367              		.loc 1 1143 0 discriminator 3
 3368 0048 0135     		adds	r5, r5, #1
 3369              	.LVL372:
 3370 004a EDB2     		uxtb	r5, r5
 3371              	.LVL373:
 3372              	.L226:
1143:Source\LwIP\src\core\ipv4/dhcp.c ****       dhcp_option_byte(dhcp, dhcp_discover_request_options[i]);
 3373              		.loc 1 1143 0 is_stmt 0 discriminator 1
 3374 004c 032D     		cmp	r5, #3
ARM GAS  C:\Users\Phuong\AppData\Local\Temp\ccmYXgep.s 			page 103


 3375 004e F6D9     		bls	.L227
1148:Source\LwIP\src\core\ipv4/dhcp.c **** #endif /* LWIP_NETIF_HOSTNAME */
 3376              		.loc 1 1148 0 is_stmt 1
 3377 0050 3900     		movs	r1, r7
 3378 0052 2000     		movs	r0, r4
 3379 0054 FFF7FEFF 		bl	dhcp_option_hostname
 3380              	.LVL374:
1152:Source\LwIP\src\core\ipv4/dhcp.c **** 
 3381              		.loc 1 1152 0
 3382 0058 2000     		movs	r0, r4
 3383 005a FFF7FEFF 		bl	dhcp_option_trailer
 3384              	.LVL375:
1154:Source\LwIP\src\core\ipv4/dhcp.c **** 
 3385              		.loc 1 1154 0
 3386 005e A18A     		ldrh	r1, [r4, #20]
 3387 0060 F031     		adds	r1, r1, #240
 3388 0062 89B2     		uxth	r1, r1
 3389 0064 E068     		ldr	r0, [r4, #12]
 3390 0066 FFF7FEFF 		bl	pbuf_realloc
 3391              	.LVL376:
1156:Source\LwIP\src\core\ipv4/dhcp.c ****     dhcp_delete_msg(dhcp);
 3392              		.loc 1 1156 0
 3393 006a 2200     		movs	r2, r4
 3394 006c 2432     		adds	r2, r2, #36
 3395 006e E168     		ldr	r1, [r4, #12]
 3396 0070 114B     		ldr	r3, .L231+4
 3397 0072 5868     		ldr	r0, [r3, #4]
 3398 0074 0097     		str	r7, [sp]
 3399 0076 4323     		movs	r3, #67
 3400 0078 FFF7FEFF 		bl	udp_sendto_if
 3401              	.LVL377:
1157:Source\LwIP\src\core\ipv4/dhcp.c **** 
 3402              		.loc 1 1157 0
 3403 007c 2000     		movs	r0, r4
 3404 007e FFF7FEFF 		bl	dhcp_delete_msg
 3405              	.LVL378:
 3406              	.L225:
1163:Source\LwIP\src\core\ipv4/dhcp.c ****     dhcp->tries++;
 3407              		.loc 1 1163 0
 3408 0082 A37A     		ldrb	r3, [r4, #10]
 3409 0084 FF2B     		cmp	r3, #255
 3410 0086 01D0     		beq	.L228
1164:Source\LwIP\src\core\ipv4/dhcp.c ****   }
 3411              		.loc 1 1164 0
 3412 0088 0133     		adds	r3, r3, #1
 3413 008a A372     		strb	r3, [r4, #10]
 3414              	.L228:
1167:Source\LwIP\src\core\ipv4/dhcp.c ****   dhcp->request_timeout = (msecs + DHCP_FINE_TIMER_MSECS - 1) / DHCP_FINE_TIMER_MSECS;
 3415              		.loc 1 1167 0
 3416 008c A07A     		ldrb	r0, [r4, #10]
 3417 008e 0928     		cmp	r0, #9
 3418 0090 04D8     		bhi	.L230
1167:Source\LwIP\src\core\ipv4/dhcp.c ****   dhcp->request_timeout = (msecs + DHCP_FINE_TIMER_MSECS - 1) / DHCP_FINE_TIMER_MSECS;
 3419              		.loc 1 1167 0 is_stmt 0 discriminator 1
 3420 0092 FA23     		movs	r3, #250
 3421 0094 DB00     		lsls	r3, r3, #3
 3422 0096 5843     		muls	r0, r3
ARM GAS  C:\Users\Phuong\AppData\Local\Temp\ccmYXgep.s 			page 104


 3423 0098 80B2     		uxth	r0, r0
 3424 009a 00E0     		b	.L229
 3425              	.L230:
1167:Source\LwIP\src\core\ipv4/dhcp.c ****   dhcp->request_timeout = (msecs + DHCP_FINE_TIMER_MSECS - 1) / DHCP_FINE_TIMER_MSECS;
 3426              		.loc 1 1167 0
 3427 009c 0748     		ldr	r0, .L231+8
 3428              	.L229:
 3429              	.LVL379:
1168:Source\LwIP\src\core\ipv4/dhcp.c ****   LWIP_DEBUGF(DHCP_DEBUG | LWIP_DBG_TRACE | LWIP_DBG_STATE, ("dhcp_renew(): set request timeout %"U
 3430              		.loc 1 1168 0 is_stmt 1 discriminator 4
 3431 009e F430     		adds	r0, r0, #244
 3432              	.LVL380:
 3433 00a0 FF30     		adds	r0, r0, #255
 3434 00a2 FA21     		movs	r1, #250
 3435 00a4 4900     		lsls	r1, r1, #1
 3436 00a6 FFF7FEFF 		bl	__aeabi_idiv
 3437              	.LVL381:
 3438 00aa E082     		strh	r0, [r4, #22]
1171:Source\LwIP\src\core\ipv4/dhcp.c **** 
 3439              		.loc 1 1171 0 discriminator 4
 3440 00ac 3000     		movs	r0, r6
 3441 00ae 03B0     		add	sp, sp, #12
 3442              		@ sp needed
 3443              	.LVL382:
 3444              	.LVL383:
 3445 00b0 F0BD     		pop	{r4, r5, r6, r7, pc}
 3446              	.L232:
 3447 00b2 C046     		.align	2
 3448              	.L231:
 3449 00b4 F0000000 		.word	.LANCHOR1
 3450 00b8 00000000 		.word	.LANCHOR0
 3451 00bc 204E0000 		.word	20000
 3452              		.cfi_endproc
 3453              	.LFE71:
 3454              		.size	dhcp_renew, .-dhcp_renew
 3455              		.section	.text.dhcp_t1_timeout,"ax",%progbits
 3456              		.align	2
 3457              		.code	16
 3458              		.thumb_func
 3459              		.type	dhcp_t1_timeout, %function
 3460              	dhcp_t1_timeout:
 3461              	.LFB61:
 531:Source\LwIP\src\core\ipv4/dhcp.c ****   struct dhcp *dhcp = netif_dhcp_data(netif);
 3462              		.loc 1 531 0
 3463              		.cfi_startproc
 3464              		@ args = 0, pretend = 0, frame = 0
 3465              		@ frame_needed = 0, uses_anonymous_args = 0
 3466              	.LVL384:
 3467 0000 10B5     		push	{r4, lr}
 3468              		.cfi_def_cfa_offset 8
 3469              		.cfi_offset 4, -8
 3470              		.cfi_offset 14, -4
 532:Source\LwIP\src\core\ipv4/dhcp.c **** 
 3471              		.loc 1 532 0
 3472 0002 446A     		ldr	r4, [r0, #36]
 3473              	.LVL385:
 535:Source\LwIP\src\core\ipv4/dhcp.c ****       (dhcp->state == DHCP_STATE_RENEWING)) {
ARM GAS  C:\Users\Phuong\AppData\Local\Temp\ccmYXgep.s 			page 105


 3474              		.loc 1 535 0
 3475 0004 637A     		ldrb	r3, [r4, #9]
 3476 0006 012B     		cmp	r3, #1
 3477 0008 03D0     		beq	.L234
 535:Source\LwIP\src\core\ipv4/dhcp.c ****       (dhcp->state == DHCP_STATE_RENEWING)) {
 3478              		.loc 1 535 0 is_stmt 0 discriminator 1
 3479 000a 0A2B     		cmp	r3, #10
 3480 000c 01D0     		beq	.L234
 535:Source\LwIP\src\core\ipv4/dhcp.c ****       (dhcp->state == DHCP_STATE_RENEWING)) {
 3481              		.loc 1 535 0 discriminator 2
 3482 000e 052B     		cmp	r3, #5
 3483 0010 0AD1     		bne	.L233
 3484              	.L234:
 543:Source\LwIP\src\core\ipv4/dhcp.c ****     /* Calculate next timeout */
 3485              		.loc 1 543 0 is_stmt 1
 3486 0012 FFF7FEFF 		bl	dhcp_renew
 3487              	.LVL386:
 545:Source\LwIP\src\core\ipv4/dhcp.c ****     {
 3488              		.loc 1 545 0
 3489 0016 638B     		ldrh	r3, [r4, #26]
 3490 0018 228C     		ldrh	r2, [r4, #32]
 3491 001a 9B1A     		subs	r3, r3, r2
 3492 001c 012B     		cmp	r3, #1
 3493 001e 03DD     		ble	.L233
 547:Source\LwIP\src\core\ipv4/dhcp.c ****     }
 3494              		.loc 1 547 0
 3495 0020 DA0F     		lsrs	r2, r3, #31
 3496 0022 D318     		adds	r3, r2, r3
 3497 0024 5B10     		asrs	r3, r3, #1
 3498 0026 A383     		strh	r3, [r4, #28]
 3499              	.L233:
 550:Source\LwIP\src\core\ipv4/dhcp.c **** 
 3500              		.loc 1 550 0
 3501              		@ sp needed
 3502              	.LVL387:
 3503 0028 10BD     		pop	{r4, pc}
 3504              		.cfi_endproc
 3505              	.LFE61:
 3506              		.size	dhcp_t1_timeout, .-dhcp_t1_timeout
 3507 002a C046     		.section	.text.dhcp_stop,"ax",%progbits
 3508              		.align	2
 3509              		.global	dhcp_stop
 3510              		.code	16
 3511              		.thumb_func
 3512              		.type	dhcp_stop, %function
 3513              	dhcp_stop:
 3514              	.LFB75:
1344:Source\LwIP\src\core\ipv4/dhcp.c ****   struct dhcp *dhcp;
 3515              		.loc 1 1344 0
 3516              		.cfi_startproc
 3517              		@ args = 0, pretend = 0, frame = 0
 3518              		@ frame_needed = 0, uses_anonymous_args = 0
 3519              	.LVL388:
 3520 0000 10B5     		push	{r4, lr}
 3521              		.cfi_def_cfa_offset 8
 3522              		.cfi_offset 4, -8
 3523              		.cfi_offset 14, -4
ARM GAS  C:\Users\Phuong\AppData\Local\Temp\ccmYXgep.s 			page 106


1346:Source\LwIP\src\core\ipv4/dhcp.c ****   dhcp = netif_dhcp_data(netif);
 3524              		.loc 1 1346 0
 3525 0002 0028     		cmp	r0, #0
 3526 0004 0DD0     		beq	.L236
1347:Source\LwIP\src\core\ipv4/dhcp.c **** 
 3527              		.loc 1 1347 0
 3528 0006 446A     		ldr	r4, [r0, #36]
 3529              	.LVL389:
1351:Source\LwIP\src\core\ipv4/dhcp.c **** #if LWIP_DHCP_AUTOIP_COOP
 3530              		.loc 1 1351 0
 3531 0008 002C     		cmp	r4, #0
 3532 000a 0AD0     		beq	.L236
1360:Source\LwIP\src\core\ipv4/dhcp.c **** 
 3533              		.loc 1 1360 0
 3534 000c 0021     		movs	r1, #0
 3535 000e 2000     		movs	r0, r4
 3536              	.LVL390:
 3537 0010 FFF7FEFF 		bl	dhcp_set_state
 3538              	.LVL391:
1362:Source\LwIP\src\core\ipv4/dhcp.c ****       dhcp_dec_pcb_refcount(); /* free DHCP PCB if not needed any more */
 3539              		.loc 1 1362 0
 3540 0014 237A     		ldrb	r3, [r4, #8]
 3541 0016 002B     		cmp	r3, #0
 3542 0018 03D0     		beq	.L236
1363:Source\LwIP\src\core\ipv4/dhcp.c ****       dhcp->pcb_allocated = 0;
 3543              		.loc 1 1363 0
 3544 001a FFF7FEFF 		bl	dhcp_dec_pcb_refcount
 3545              	.LVL392:
1364:Source\LwIP\src\core\ipv4/dhcp.c ****     }
 3546              		.loc 1 1364 0
 3547 001e 0023     		movs	r3, #0
 3548 0020 2372     		strb	r3, [r4, #8]
 3549              	.LVL393:
 3550              	.L236:
1367:Source\LwIP\src\core\ipv4/dhcp.c **** 
 3551              		.loc 1 1367 0
 3552              		@ sp needed
 3553 0022 10BD     		pop	{r4, pc}
 3554              		.cfi_endproc
 3555              	.LFE75:
 3556              		.size	dhcp_stop, .-dhcp_stop
 3557              		.section	.text.dhcp_start,"ax",%progbits
 3558              		.align	2
 3559              		.global	dhcp_start
 3560              		.code	16
 3561              		.thumb_func
 3562              		.type	dhcp_start, %function
 3563              	dhcp_start:
 3564              	.LFB66:
 722:Source\LwIP\src\core\ipv4/dhcp.c ****   struct dhcp *dhcp;
 3565              		.loc 1 722 0
 3566              		.cfi_startproc
 3567              		@ args = 0, pretend = 0, frame = 0
 3568              		@ frame_needed = 0, uses_anonymous_args = 0
 3569              	.LVL394:
 3570 0000 70B5     		push	{r4, r5, r6, lr}
 3571              		.cfi_def_cfa_offset 16
ARM GAS  C:\Users\Phuong\AppData\Local\Temp\ccmYXgep.s 			page 107


 3572              		.cfi_offset 4, -16
 3573              		.cfi_offset 5, -12
 3574              		.cfi_offset 6, -8
 3575              		.cfi_offset 14, -4
 3576 0002 041E     		subs	r4, r0, #0
 726:Source\LwIP\src\core\ipv4/dhcp.c ****   LWIP_ERROR("netif is not up, old style port?", netif_is_up(netif), return ERR_ARG;);
 3577              		.loc 1 726 0
 3578 0004 2CD0     		beq	.L242
 727:Source\LwIP\src\core\ipv4/dhcp.c ****   dhcp = netif_dhcp_data(netif);
 3579              		.loc 1 727 0
 3580 0006 3D23     		movs	r3, #61
 3581 0008 C35C     		ldrb	r3, [r0, r3]
 3582 000a DB07     		lsls	r3, r3, #31
 3583 000c 2BD5     		bpl	.L243
 728:Source\LwIP\src\core\ipv4/dhcp.c ****   LWIP_DEBUGF(DHCP_DEBUG | LWIP_DBG_TRACE | LWIP_DBG_STATE, ("dhcp_start(netif=%p) %c%c%"U16_F"\n",
 3584              		.loc 1 728 0
 3585 000e 456A     		ldr	r5, [r0, #36]
 3586              	.LVL395:
 732:Source\LwIP\src\core\ipv4/dhcp.c ****     LWIP_DEBUGF(DHCP_DEBUG | LWIP_DBG_TRACE, ("dhcp_start(): Cannot use this netif with DHCP: MTU i
 3587              		.loc 1 732 0
 3588 0010 828E     		ldrh	r2, [r0, #52]
 3589 0012 1B4B     		ldr	r3, .L248
 3590 0014 9A42     		cmp	r2, r3
 3591 0016 29D9     		bls	.L244
 738:Source\LwIP\src\core\ipv4/dhcp.c ****     LWIP_DEBUGF(DHCP_DEBUG | LWIP_DBG_TRACE, ("dhcp_start(): mallocing new DHCP client\n"));
 3592              		.loc 1 738 0
 3593 0018 002D     		cmp	r5, #0
 3594 001a 06D1     		bne	.L240
 740:Source\LwIP\src\core\ipv4/dhcp.c ****     if (dhcp == NULL) {
 3595              		.loc 1 740 0
 3596 001c 4020     		movs	r0, #64
 3597              	.LVL396:
 3598 001e FFF7FEFF 		bl	mem_malloc
 3599              	.LVL397:
 3600 0022 051E     		subs	r5, r0, #0
 3601              	.LVL398:
 741:Source\LwIP\src\core\ipv4/dhcp.c ****       LWIP_DEBUGF(DHCP_DEBUG | LWIP_DBG_TRACE, ("dhcp_start(): could not allocate dhcp\n"));
 3602              		.loc 1 741 0
 3603 0024 25D0     		beq	.L245
 747:Source\LwIP\src\core\ipv4/dhcp.c ****     LWIP_DEBUGF(DHCP_DEBUG | LWIP_DBG_TRACE, ("dhcp_start(): allocated dhcp"));
 3604              		.loc 1 747 0
 3605 0026 6062     		str	r0, [r4, #36]
 3606 0028 04E0     		b	.L241
 3607              	.LVL399:
 3608              	.L240:
 755:Source\LwIP\src\core\ipv4/dhcp.c ****       dhcp_dec_pcb_refcount(); /* free DHCP PCB if not needed any more */
 3609              		.loc 1 755 0
 3610 002a 2B7A     		ldrb	r3, [r5, #8]
 3611 002c 002B     		cmp	r3, #0
 3612 002e 01D0     		beq	.L241
 756:Source\LwIP\src\core\ipv4/dhcp.c ****     }
 3613              		.loc 1 756 0
 3614 0030 FFF7FEFF 		bl	dhcp_dec_pcb_refcount
 3615              	.LVL400:
 3616              	.L241:
 762:Source\LwIP\src\core\ipv4/dhcp.c ****   /* dhcp_set_state(&dhcp, DHCP_STATE_OFF); */
 3617              		.loc 1 762 0
ARM GAS  C:\Users\Phuong\AppData\Local\Temp\ccmYXgep.s 			page 108


 3618 0034 4022     		movs	r2, #64
 3619 0036 0021     		movs	r1, #0
 3620 0038 2800     		movs	r0, r5
 3621 003a FFF7FEFF 		bl	memset
 3622              	.LVL401:
 767:Source\LwIP\src\core\ipv4/dhcp.c ****     return ERR_MEM;
 3623              		.loc 1 767 0
 3624 003e FFF7FEFF 		bl	dhcp_inc_pcb_refcount
 3625              	.LVL402:
 3626 0042 0028     		cmp	r0, #0
 3627 0044 18D1     		bne	.L246
 770:Source\LwIP\src\core\ipv4/dhcp.c **** 
 3628              		.loc 1 770 0
 3629 0046 0123     		movs	r3, #1
 3630 0048 2B72     		strb	r3, [r5, #8]
 782:Source\LwIP\src\core\ipv4/dhcp.c ****   if (result != ERR_OK) {
 3631              		.loc 1 782 0
 3632 004a 2000     		movs	r0, r4
 3633 004c FFF7FEFF 		bl	dhcp_discover
 3634              	.LVL403:
 783:Source\LwIP\src\core\ipv4/dhcp.c ****     /* free resources allocated above */
 3635              		.loc 1 783 0
 3636 0050 0028     		cmp	r0, #0
 3637 0052 13D0     		beq	.L239
 785:Source\LwIP\src\core\ipv4/dhcp.c ****     return ERR_MEM;
 3638              		.loc 1 785 0
 3639 0054 2000     		movs	r0, r4
 3640              	.LVL404:
 3641 0056 FFF7FEFF 		bl	dhcp_stop
 3642              	.LVL405:
 786:Source\LwIP\src\core\ipv4/dhcp.c ****   }
 3643              		.loc 1 786 0
 3644 005a 0120     		movs	r0, #1
 3645 005c 4042     		rsbs	r0, r0, #0
 3646 005e 0DE0     		b	.L239
 3647              	.LVL406:
 3648              	.L242:
 726:Source\LwIP\src\core\ipv4/dhcp.c ****   LWIP_ERROR("netif is not up, old style port?", netif_is_up(netif), return ERR_ARG;);
 3649              		.loc 1 726 0
 3650 0060 1020     		movs	r0, #16
 3651              	.LVL407:
 3652 0062 4042     		rsbs	r0, r0, #0
 3653 0064 0AE0     		b	.L239
 3654              	.LVL408:
 3655              	.L243:
 727:Source\LwIP\src\core\ipv4/dhcp.c ****   dhcp = netif_dhcp_data(netif);
 3656              		.loc 1 727 0
 3657 0066 1020     		movs	r0, #16
 3658              	.LVL409:
 3659 0068 4042     		rsbs	r0, r0, #0
 3660 006a 07E0     		b	.L239
 3661              	.LVL410:
 3662              	.L244:
 734:Source\LwIP\src\core\ipv4/dhcp.c ****   }
 3663              		.loc 1 734 0
 3664 006c 0120     		movs	r0, #1
 3665              	.LVL411:
ARM GAS  C:\Users\Phuong\AppData\Local\Temp\ccmYXgep.s 			page 109


 3666 006e 4042     		rsbs	r0, r0, #0
 3667 0070 04E0     		b	.L239
 3668              	.LVL412:
 3669              	.L245:
 743:Source\LwIP\src\core\ipv4/dhcp.c ****     }
 3670              		.loc 1 743 0
 3671 0072 0120     		movs	r0, #1
 3672              	.LVL413:
 3673 0074 4042     		rsbs	r0, r0, #0
 3674 0076 01E0     		b	.L239
 3675              	.L246:
 768:Source\LwIP\src\core\ipv4/dhcp.c ****   }
 3676              		.loc 1 768 0
 3677 0078 0120     		movs	r0, #1
 3678 007a 4042     		rsbs	r0, r0, #0
 3679              	.LVL414:
 3680              	.L239:
 789:Source\LwIP\src\core\ipv4/dhcp.c **** 
 3681              		.loc 1 789 0
 3682              		@ sp needed
 3683              	.LVL415:
 3684 007c 70BD     		pop	{r4, r5, r6, pc}
 3685              	.L249:
 3686 007e C046     		.align	2
 3687              	.L248:
 3688 0080 3F020000 		.word	575
 3689              		.cfi_endproc
 3690              	.LFE66:
 3691              		.size	dhcp_start, .-dhcp_start
 3692              		.section	.text.dhcp_supplied_address,"ax",%progbits
 3693              		.align	2
 3694              		.global	dhcp_supplied_address
 3695              		.code	16
 3696              		.thumb_func
 3697              		.type	dhcp_supplied_address, %function
 3698              	dhcp_supplied_address:
 3699              	.LFB87:
1933:Source\LwIP\src\core\ipv4/dhcp.c **** 
1934:Source\LwIP\src\core\ipv4/dhcp.c **** /** check if DHCP supplied netif->ip_addr
1935:Source\LwIP\src\core\ipv4/dhcp.c ****  *
1936:Source\LwIP\src\core\ipv4/dhcp.c ****  * @param netif the netif to check
1937:Source\LwIP\src\core\ipv4/dhcp.c ****  * @return 1 if DHCP supplied netif->ip_addr (states BOUND or RENEWING),
1938:Source\LwIP\src\core\ipv4/dhcp.c ****  *         0 otherwise
1939:Source\LwIP\src\core\ipv4/dhcp.c ****  */
1940:Source\LwIP\src\core\ipv4/dhcp.c **** u8_t
1941:Source\LwIP\src\core\ipv4/dhcp.c **** dhcp_supplied_address(const struct netif *netif)
1942:Source\LwIP\src\core\ipv4/dhcp.c **** {
 3700              		.loc 1 1942 0
 3701              		.cfi_startproc
 3702              		@ args = 0, pretend = 0, frame = 0
 3703              		@ frame_needed = 0, uses_anonymous_args = 0
 3704              		@ link register save eliminated.
 3705              	.LVL416:
1943:Source\LwIP\src\core\ipv4/dhcp.c ****   if ((netif != NULL) && (netif_dhcp_data(netif) != NULL)) {
 3706              		.loc 1 1943 0
 3707 0000 0028     		cmp	r0, #0
 3708 0002 12D0     		beq	.L253
ARM GAS  C:\Users\Phuong\AppData\Local\Temp\ccmYXgep.s 			page 110


 3709              		.loc 1 1943 0 is_stmt 0 discriminator 1
 3710 0004 436A     		ldr	r3, [r0, #36]
 3711 0006 002B     		cmp	r3, #0
 3712 0008 11D0     		beq	.L254
 3713              	.LVL417:
 3714              	.LBB10:
1944:Source\LwIP\src\core\ipv4/dhcp.c ****     struct dhcp* dhcp = netif_dhcp_data(netif);
1945:Source\LwIP\src\core\ipv4/dhcp.c ****     return (dhcp->state == DHCP_STATE_BOUND) || (dhcp->state == DHCP_STATE_RENEWING) ||
 3715              		.loc 1 1945 0 is_stmt 1
 3716 000a 5B7A     		ldrb	r3, [r3, #9]
 3717              	.LVL418:
 3718 000c 0A2B     		cmp	r3, #10
 3719 000e 05D0     		beq	.L255
 3720              		.loc 1 1945 0 is_stmt 0 discriminator 2
 3721 0010 052B     		cmp	r3, #5
 3722 0012 05D0     		beq	.L256
 3723              		.loc 1 1945 0 discriminator 4
 3724 0014 042B     		cmp	r3, #4
 3725 0016 05D1     		bne	.L257
 3726              		.loc 1 1945 0
 3727 0018 0120     		movs	r0, #1
 3728              	.LVL419:
 3729 001a 04E0     		b	.L252
 3730              	.LVL420:
 3731              	.L255:
 3732 001c 0120     		movs	r0, #1
 3733              	.LVL421:
 3734 001e 02E0     		b	.L252
 3735              	.LVL422:
 3736              	.L256:
 3737 0020 0120     		movs	r0, #1
 3738              	.LVL423:
 3739 0022 00E0     		b	.L252
 3740              	.LVL424:
 3741              	.L257:
 3742 0024 0020     		movs	r0, #0
 3743              	.LVL425:
 3744              	.L252:
 3745              		.loc 1 1945 0 discriminator 8
 3746 0026 C0B2     		uxtb	r0, r0
 3747 0028 02E0     		b	.L251
 3748              	.LVL426:
 3749              	.L253:
 3750              	.LBE10:
1946:Source\LwIP\src\core\ipv4/dhcp.c ****            (dhcp->state == DHCP_STATE_REBINDING);
1947:Source\LwIP\src\core\ipv4/dhcp.c ****   }
1948:Source\LwIP\src\core\ipv4/dhcp.c ****   return 0;
 3751              		.loc 1 1948 0 is_stmt 1
 3752 002a 0020     		movs	r0, #0
 3753              	.LVL427:
 3754 002c 00E0     		b	.L251
 3755              	.LVL428:
 3756              	.L254:
 3757 002e 0020     		movs	r0, #0
 3758              	.LVL429:
 3759              	.L251:
1949:Source\LwIP\src\core\ipv4/dhcp.c **** }
ARM GAS  C:\Users\Phuong\AppData\Local\Temp\ccmYXgep.s 			page 111


 3760              		.loc 1 1949 0
 3761              		@ sp needed
 3762 0030 7047     		bx	lr
 3763              		.cfi_endproc
 3764              	.LFE87:
 3765              		.size	dhcp_supplied_address, .-dhcp_supplied_address
 3766 0032 C046     		.section	.text.dhcp_release,"ax",%progbits
 3767              		.align	2
 3768              		.global	dhcp_release
 3769              		.code	16
 3770              		.thumb_func
 3771              		.type	dhcp_release, %function
 3772              	dhcp_release:
 3773              	.LFB74:
1281:Source\LwIP\src\core\ipv4/dhcp.c ****   struct dhcp *dhcp = netif_dhcp_data(netif);
 3774              		.loc 1 1281 0
 3775              		.cfi_startproc
 3776              		@ args = 0, pretend = 0, frame = 8
 3777              		@ frame_needed = 0, uses_anonymous_args = 0
 3778              	.LVL430:
 3779 0000 70B5     		push	{r4, r5, r6, lr}
 3780              		.cfi_def_cfa_offset 16
 3781              		.cfi_offset 4, -16
 3782              		.cfi_offset 5, -12
 3783              		.cfi_offset 6, -8
 3784              		.cfi_offset 14, -4
 3785 0002 84B0     		sub	sp, sp, #16
 3786              		.cfi_def_cfa_offset 32
 3787 0004 0500     		movs	r5, r0
1282:Source\LwIP\src\core\ipv4/dhcp.c ****   err_t result;
 3788              		.loc 1 1282 0
 3789 0006 446A     		ldr	r4, [r0, #36]
 3790              	.LVL431:
1288:Source\LwIP\src\core\ipv4/dhcp.c ****     return ERR_ARG;
 3791              		.loc 1 1288 0
 3792 0008 002C     		cmp	r4, #0
 3793 000a 45D0     		beq	.L261
1291:Source\LwIP\src\core\ipv4/dhcp.c **** 
 3794              		.loc 1 1291 0
 3795 000c 636A     		ldr	r3, [r4, #36]
 3796 000e 0393     		str	r3, [sp, #12]
1293:Source\LwIP\src\core\ipv4/dhcp.c **** 
 3797              		.loc 1 1293 0
 3798 0010 FFF7FEFF 		bl	dhcp_supplied_address
 3799              	.LVL432:
 3800 0014 0600     		movs	r6, r0
 3801              	.LVL433:
1296:Source\LwIP\src\core\ipv4/dhcp.c ****   /* clean old DHCP offer */
 3802              		.loc 1 1296 0
 3803 0016 0021     		movs	r1, #0
 3804 0018 2000     		movs	r0, r4
 3805 001a FFF7FEFF 		bl	dhcp_set_state
 3806              	.LVL434:
1298:Source\LwIP\src\core\ipv4/dhcp.c ****   ip4_addr_set_zero(&dhcp->offered_ip_addr);
 3807              		.loc 1 1298 0
 3808 001e 0023     		movs	r3, #0
 3809 0020 6362     		str	r3, [r4, #36]
ARM GAS  C:\Users\Phuong\AppData\Local\Temp\ccmYXgep.s 			page 112


1299:Source\LwIP\src\core\ipv4/dhcp.c ****   ip4_addr_set_zero(&dhcp->offered_sn_mask);
 3810              		.loc 1 1299 0
 3811 0022 A362     		str	r3, [r4, #40]
1300:Source\LwIP\src\core\ipv4/dhcp.c ****   ip4_addr_set_zero(&dhcp->offered_gw_addr);
 3812              		.loc 1 1300 0
 3813 0024 E362     		str	r3, [r4, #44]
1301:Source\LwIP\src\core\ipv4/dhcp.c **** #if LWIP_DHCP_BOOTP_FILE
 3814              		.loc 1 1301 0
 3815 0026 2363     		str	r3, [r4, #48]
1305:Source\LwIP\src\core\ipv4/dhcp.c ****   dhcp->t1_renew_time = dhcp->t2_rebind_time = dhcp->lease_used = dhcp->t0_timeout = 0;
 3816              		.loc 1 1305 0
 3817 0028 E363     		str	r3, [r4, #60]
 3818 002a A363     		str	r3, [r4, #56]
 3819 002c 6363     		str	r3, [r4, #52]
1306:Source\LwIP\src\core\ipv4/dhcp.c **** 
 3820              		.loc 1 1306 0
 3821 002e 6384     		strh	r3, [r4, #34]
 3822 0030 2384     		strh	r3, [r4, #32]
 3823 0032 E383     		strh	r3, [r4, #30]
 3824 0034 A383     		strh	r3, [r4, #28]
1308:Source\LwIP\src\core\ipv4/dhcp.c ****     /* don't issue release message when address is not dhcp-assigned */
 3825              		.loc 1 1308 0
 3826 0036 002E     		cmp	r6, #0
 3827 0038 31D0     		beq	.L262
1314:Source\LwIP\src\core\ipv4/dhcp.c ****   if (result == ERR_OK) {
 3828              		.loc 1 1314 0
 3829 003a 0722     		movs	r2, #7
 3830 003c 2100     		movs	r1, r4
 3831 003e 2800     		movs	r0, r5
 3832 0040 FFF7FEFF 		bl	dhcp_create_msg
 3833              	.LVL435:
 3834 0044 061E     		subs	r6, r0, #0
 3835              	.LVL436:
1315:Source\LwIP\src\core\ipv4/dhcp.c ****     dhcp_option(dhcp, DHCP_OPTION_SERVER_ID, 4);
 3836              		.loc 1 1315 0
 3837 0046 1FD1     		bne	.L260
1316:Source\LwIP\src\core\ipv4/dhcp.c ****     dhcp_option_long(dhcp, lwip_ntohl(ip4_addr_get_u32(ip_2_ip4(&server_ip_addr))));
 3838              		.loc 1 1316 0
 3839 0048 0422     		movs	r2, #4
 3840 004a 3621     		movs	r1, #54
 3841 004c 2000     		movs	r0, r4
 3842              	.LVL437:
 3843 004e FFF7FEFF 		bl	dhcp_option
 3844              	.LVL438:
1317:Source\LwIP\src\core\ipv4/dhcp.c **** 
 3845              		.loc 1 1317 0
 3846 0052 0398     		ldr	r0, [sp, #12]
 3847 0054 FFF7FEFF 		bl	lwip_htonl
 3848              	.LVL439:
 3849 0058 0100     		movs	r1, r0
 3850 005a 2000     		movs	r0, r4
 3851 005c FFF7FEFF 		bl	dhcp_option_long
 3852              	.LVL440:
1319:Source\LwIP\src\core\ipv4/dhcp.c **** 
 3853              		.loc 1 1319 0
 3854 0060 2000     		movs	r0, r4
 3855 0062 FFF7FEFF 		bl	dhcp_option_trailer
ARM GAS  C:\Users\Phuong\AppData\Local\Temp\ccmYXgep.s 			page 113


 3856              	.LVL441:
1321:Source\LwIP\src\core\ipv4/dhcp.c **** 
 3857              		.loc 1 1321 0
 3858 0066 A18A     		ldrh	r1, [r4, #20]
 3859 0068 F031     		adds	r1, r1, #240
 3860 006a 89B2     		uxth	r1, r1
 3861 006c E068     		ldr	r0, [r4, #12]
 3862 006e FFF7FEFF 		bl	pbuf_realloc
 3863              	.LVL442:
1323:Source\LwIP\src\core\ipv4/dhcp.c ****     dhcp_delete_msg(dhcp);
 3864              		.loc 1 1323 0
 3865 0072 E168     		ldr	r1, [r4, #12]
 3866 0074 0B4B     		ldr	r3, .L263
 3867 0076 5868     		ldr	r0, [r3, #4]
 3868 0078 0095     		str	r5, [sp]
 3869 007a 4323     		movs	r3, #67
 3870 007c 03AA     		add	r2, sp, #12
 3871 007e FFF7FEFF 		bl	udp_sendto_if
 3872              	.LVL443:
1324:Source\LwIP\src\core\ipv4/dhcp.c ****     LWIP_DEBUGF(DHCP_DEBUG | LWIP_DBG_TRACE | LWIP_DBG_STATE, ("dhcp_release: RELEASED, DHCP_STATE_
 3873              		.loc 1 1324 0
 3874 0082 2000     		movs	r0, r4
 3875 0084 FFF7FEFF 		bl	dhcp_delete_msg
 3876              	.LVL444:
 3877              	.L260:
1331:Source\LwIP\src\core\ipv4/dhcp.c **** 
 3878              		.loc 1 1331 0
 3879 0088 0749     		ldr	r1, .L263+4
 3880 008a 0B00     		movs	r3, r1
 3881 008c 0A00     		movs	r2, r1
 3882 008e 2800     		movs	r0, r5
 3883 0090 FFF7FEFF 		bl	netif_set_addr
 3884              	.LVL445:
1333:Source\LwIP\src\core\ipv4/dhcp.c **** }
 3885              		.loc 1 1333 0
 3886 0094 3000     		movs	r0, r6
 3887 0096 03E0     		b	.L259
 3888              	.LVL446:
 3889              	.L261:
1289:Source\LwIP\src\core\ipv4/dhcp.c ****   }
 3890              		.loc 1 1289 0
 3891 0098 1020     		movs	r0, #16
 3892              	.LVL447:
 3893 009a 4042     		rsbs	r0, r0, #0
 3894 009c 00E0     		b	.L259
 3895              	.LVL448:
 3896              	.L262:
1310:Source\LwIP\src\core\ipv4/dhcp.c ****   }
 3897              		.loc 1 1310 0
 3898 009e 0020     		movs	r0, #0
 3899              	.LVL449:
 3900              	.L259:
1334:Source\LwIP\src\core\ipv4/dhcp.c **** 
 3901              		.loc 1 1334 0
 3902 00a0 04B0     		add	sp, sp, #16
 3903              		@ sp needed
 3904              	.LVL450:
ARM GAS  C:\Users\Phuong\AppData\Local\Temp\ccmYXgep.s 			page 114


 3905              	.LVL451:
 3906 00a2 70BD     		pop	{r4, r5, r6, pc}
 3907              	.L264:
 3908              		.align	2
 3909              	.L263:
 3910 00a4 00000000 		.word	.LANCHOR0
 3911 00a8 00000000 		.word	ip_addr_any
 3912              		.cfi_endproc
 3913              	.LFE74:
 3914              		.size	dhcp_release, .-dhcp_release
 3915              		.section	.text.dhcp_coarse_tmr,"ax",%progbits
 3916              		.align	2
 3917              		.global	dhcp_coarse_tmr
 3918              		.code	16
 3919              		.thumb_func
 3920              		.type	dhcp_coarse_tmr, %function
 3921              	dhcp_coarse_tmr:
 3922              	.LFB58:
 410:Source\LwIP\src\core\ipv4/dhcp.c ****   struct netif *netif = netif_list;
 3923              		.loc 1 410 0
 3924              		.cfi_startproc
 3925              		@ args = 0, pretend = 0, frame = 0
 3926              		@ frame_needed = 0, uses_anonymous_args = 0
 3927 0000 10B5     		push	{r4, lr}
 3928              		.cfi_def_cfa_offset 8
 3929              		.cfi_offset 4, -8
 3930              		.cfi_offset 14, -4
 411:Source\LwIP\src\core\ipv4/dhcp.c ****   LWIP_DEBUGF(DHCP_DEBUG | LWIP_DBG_TRACE, ("dhcp_coarse_tmr()\n"));
 3931              		.loc 1 411 0
 3932 0002 194B     		ldr	r3, .L271
 3933 0004 1C68     		ldr	r4, [r3]
 3934              	.LVL452:
 414:Source\LwIP\src\core\ipv4/dhcp.c ****     /* only act on DHCP configured interfaces */
 3935              		.loc 1 414 0
 3936 0006 2BE0     		b	.L266
 3937              	.L270:
 3938              	.LBB11:
 416:Source\LwIP\src\core\ipv4/dhcp.c ****     if ((dhcp != NULL) && (dhcp->state != DHCP_STATE_OFF)) {
 3939              		.loc 1 416 0
 3940 0008 636A     		ldr	r3, [r4, #36]
 3941              	.LVL453:
 417:Source\LwIP\src\core\ipv4/dhcp.c ****       /* compare lease time to expire timeout */
 3942              		.loc 1 417 0
 3943 000a 002B     		cmp	r3, #0
 3944 000c 27D0     		beq	.L267
 417:Source\LwIP\src\core\ipv4/dhcp.c ****       /* compare lease time to expire timeout */
 3945              		.loc 1 417 0 is_stmt 0 discriminator 1
 3946 000e 5A7A     		ldrb	r2, [r3, #9]
 3947 0010 002A     		cmp	r2, #0
 3948 0012 24D0     		beq	.L267
 419:Source\LwIP\src\core\ipv4/dhcp.c ****         LWIP_DEBUGF(DHCP_DEBUG | LWIP_DBG_TRACE | LWIP_DBG_STATE, ("dhcp_coarse_tmr(): t0 timeout\n
 3949              		.loc 1 419 0 is_stmt 1
 3950 0014 598C     		ldrh	r1, [r3, #34]
 3951 0016 0029     		cmp	r1, #0
 3952 0018 0CD0     		beq	.L268
 419:Source\LwIP\src\core\ipv4/dhcp.c ****         LWIP_DEBUGF(DHCP_DEBUG | LWIP_DBG_TRACE | LWIP_DBG_STATE, ("dhcp_coarse_tmr(): t0 timeout\n
 3953              		.loc 1 419 0 is_stmt 0 discriminator 1
ARM GAS  C:\Users\Phuong\AppData\Local\Temp\ccmYXgep.s 			page 115


 3954 001a 1A8C     		ldrh	r2, [r3, #32]
 3955 001c 0132     		adds	r2, r2, #1
 3956 001e 92B2     		uxth	r2, r2
 3957 0020 1A84     		strh	r2, [r3, #32]
 3958 0022 9142     		cmp	r1, r2
 3959 0024 06D1     		bne	.L268
 422:Source\LwIP\src\core\ipv4/dhcp.c ****         dhcp_discover(netif);
 3960              		.loc 1 422 0 is_stmt 1
 3961 0026 2000     		movs	r0, r4
 3962 0028 FFF7FEFF 		bl	dhcp_release
 3963              	.LVL454:
 423:Source\LwIP\src\core\ipv4/dhcp.c ****       /* timer is active (non zero), and triggers (zeroes) now? */
 3964              		.loc 1 423 0
 3965 002c 2000     		movs	r0, r4
 3966 002e FFF7FEFF 		bl	dhcp_discover
 3967              	.LVL455:
 3968 0032 14E0     		b	.L267
 3969              	.LVL456:
 3970              	.L268:
 425:Source\LwIP\src\core\ipv4/dhcp.c ****         LWIP_DEBUGF(DHCP_DEBUG | LWIP_DBG_TRACE | LWIP_DBG_STATE, ("dhcp_coarse_tmr(): t2 timeout\n
 3971              		.loc 1 425 0
 3972 0034 DA8B     		ldrh	r2, [r3, #30]
 3973 0036 002A     		cmp	r2, #0
 3974 0038 07D0     		beq	.L269
 425:Source\LwIP\src\core\ipv4/dhcp.c ****         LWIP_DEBUGF(DHCP_DEBUG | LWIP_DBG_TRACE | LWIP_DBG_STATE, ("dhcp_coarse_tmr(): t2 timeout\n
 3975              		.loc 1 425 0 is_stmt 0 discriminator 1
 3976 003a 511E     		subs	r1, r2, #1
 3977 003c D983     		strh	r1, [r3, #30]
 3978 003e 012A     		cmp	r2, #1
 3979 0040 03D1     		bne	.L269
 428:Source\LwIP\src\core\ipv4/dhcp.c ****       /* timer is active (non zero), and triggers (zeroes) now */
 3980              		.loc 1 428 0 is_stmt 1
 3981 0042 2000     		movs	r0, r4
 3982 0044 FFF7FEFF 		bl	dhcp_t2_timeout
 3983              	.LVL457:
 3984 0048 09E0     		b	.L267
 3985              	.LVL458:
 3986              	.L269:
 430:Source\LwIP\src\core\ipv4/dhcp.c ****         LWIP_DEBUGF(DHCP_DEBUG | LWIP_DBG_TRACE | LWIP_DBG_STATE, ("dhcp_coarse_tmr(): t1 timeout\n
 3987              		.loc 1 430 0
 3988 004a 9A8B     		ldrh	r2, [r3, #28]
 3989 004c 002A     		cmp	r2, #0
 3990 004e 06D0     		beq	.L267
 430:Source\LwIP\src\core\ipv4/dhcp.c ****         LWIP_DEBUGF(DHCP_DEBUG | LWIP_DBG_TRACE | LWIP_DBG_STATE, ("dhcp_coarse_tmr(): t1 timeout\n
 3991              		.loc 1 430 0 is_stmt 0 discriminator 1
 3992 0050 511E     		subs	r1, r2, #1
 3993 0052 9983     		strh	r1, [r3, #28]
 3994 0054 012A     		cmp	r2, #1
 3995 0056 02D1     		bne	.L267
 433:Source\LwIP\src\core\ipv4/dhcp.c ****       }
 3996              		.loc 1 433 0 is_stmt 1
 3997 0058 2000     		movs	r0, r4
 3998 005a FFF7FEFF 		bl	dhcp_t1_timeout
 3999              	.LVL459:
 4000              	.L267:
 437:Source\LwIP\src\core\ipv4/dhcp.c ****   }
 4001              		.loc 1 437 0
ARM GAS  C:\Users\Phuong\AppData\Local\Temp\ccmYXgep.s 			page 116


 4002 005e 2468     		ldr	r4, [r4]
 4003              	.LVL460:
 4004              	.L266:
 4005              	.LBE11:
 414:Source\LwIP\src\core\ipv4/dhcp.c ****     /* only act on DHCP configured interfaces */
 4006              		.loc 1 414 0
 4007 0060 002C     		cmp	r4, #0
 4008 0062 D1D1     		bne	.L270
 439:Source\LwIP\src\core\ipv4/dhcp.c **** 
 4009              		.loc 1 439 0
 4010              		@ sp needed
 4011              	.LVL461:
 4012 0064 10BD     		pop	{r4, pc}
 4013              	.L272:
 4014 0066 C046     		.align	2
 4015              	.L271:
 4016 0068 00000000 		.word	netif_list
 4017              		.cfi_endproc
 4018              	.LFE58:
 4019              		.size	dhcp_coarse_tmr, .-dhcp_coarse_tmr
 4020              		.section	.text.dhcp_timeout,"ax",%progbits
 4021              		.align	2
 4022              		.code	16
 4023              		.thumb_func
 4024              		.type	dhcp_timeout, %function
 4025              	dhcp_timeout:
 4026              	.LFB60:
 484:Source\LwIP\src\core\ipv4/dhcp.c ****   struct dhcp *dhcp = netif_dhcp_data(netif);
 4027              		.loc 1 484 0
 4028              		.cfi_startproc
 4029              		@ args = 0, pretend = 0, frame = 0
 4030              		@ frame_needed = 0, uses_anonymous_args = 0
 4031              	.LVL462:
 4032 0000 10B5     		push	{r4, lr}
 4033              		.cfi_def_cfa_offset 8
 4034              		.cfi_offset 4, -8
 4035              		.cfi_offset 14, -4
 4036 0002 0400     		movs	r4, r0
 485:Source\LwIP\src\core\ipv4/dhcp.c **** 
 4037              		.loc 1 485 0
 4038 0004 426A     		ldr	r2, [r0, #36]
 4039              	.LVL463:
 489:Source\LwIP\src\core\ipv4/dhcp.c ****     LWIP_DEBUGF(DHCP_DEBUG | LWIP_DBG_TRACE, ("dhcp_timeout(): restarting discovery\n"));
 4040              		.loc 1 489 0
 4041 0006 537A     		ldrb	r3, [r2, #9]
 4042 0008 0C2B     		cmp	r3, #12
 4043 000a 01D0     		beq	.L274
 489:Source\LwIP\src\core\ipv4/dhcp.c ****     LWIP_DEBUGF(DHCP_DEBUG | LWIP_DBG_TRACE, ("dhcp_timeout(): restarting discovery\n"));
 4044              		.loc 1 489 0 is_stmt 0 discriminator 1
 4045 000c 062B     		cmp	r3, #6
 4046 000e 03D1     		bne	.L275
 4047              	.L274:
 491:Source\LwIP\src\core\ipv4/dhcp.c ****   /* receiving the requested lease timed out */
 4048              		.loc 1 491 0 is_stmt 1
 4049 0010 2000     		movs	r0, r4
 4050              	.LVL464:
 4051 0012 FFF7FEFF 		bl	dhcp_discover
ARM GAS  C:\Users\Phuong\AppData\Local\Temp\ccmYXgep.s 			page 117


 4052              	.LVL465:
 4053 0016 17E0     		b	.L273
 4054              	.LVL466:
 4055              	.L275:
 493:Source\LwIP\src\core\ipv4/dhcp.c ****     LWIP_DEBUGF(DHCP_DEBUG | LWIP_DBG_TRACE | LWIP_DBG_STATE, ("dhcp_timeout(): REQUESTING, DHCP re
 4056              		.loc 1 493 0
 4057 0018 012B     		cmp	r3, #1
 4058 001a 0BD1     		bne	.L277
 495:Source\LwIP\src\core\ipv4/dhcp.c ****       dhcp_select(netif);
 4059              		.loc 1 495 0
 4060 001c 937A     		ldrb	r3, [r2, #10]
 4061 001e 052B     		cmp	r3, #5
 4062 0020 02D8     		bhi	.L278
 496:Source\LwIP\src\core\ipv4/dhcp.c ****     } else {
 4063              		.loc 1 496 0
 4064 0022 FFF7FEFF 		bl	dhcp_select
 4065              	.LVL467:
 4066 0026 0FE0     		b	.L273
 4067              	.LVL468:
 4068              	.L278:
 499:Source\LwIP\src\core\ipv4/dhcp.c ****       dhcp_discover(netif);
 4069              		.loc 1 499 0
 4070 0028 FFF7FEFF 		bl	dhcp_release
 4071              	.LVL469:
 500:Source\LwIP\src\core\ipv4/dhcp.c ****     }
 4072              		.loc 1 500 0
 4073 002c 2000     		movs	r0, r4
 4074 002e FFF7FEFF 		bl	dhcp_discover
 4075              	.LVL470:
 4076 0032 09E0     		b	.L273
 4077              	.LVL471:
 4078              	.L277:
 515:Source\LwIP\src\core\ipv4/dhcp.c ****     if (dhcp->tries < REBOOT_TRIES) {
 4079              		.loc 1 515 0
 4080 0034 032B     		cmp	r3, #3
 4081 0036 07D1     		bne	.L273
 516:Source\LwIP\src\core\ipv4/dhcp.c ****       dhcp_reboot(netif);
 4082              		.loc 1 516 0
 4083 0038 937A     		ldrb	r3, [r2, #10]
 4084 003a 012B     		cmp	r3, #1
 4085 003c 02D8     		bhi	.L279
 517:Source\LwIP\src\core\ipv4/dhcp.c ****     } else {
 4086              		.loc 1 517 0
 4087 003e FFF7FEFF 		bl	dhcp_reboot
 4088              	.LVL472:
 4089 0042 01E0     		b	.L273
 4090              	.LVL473:
 4091              	.L279:
 519:Source\LwIP\src\core\ipv4/dhcp.c ****     }
 4092              		.loc 1 519 0
 4093 0044 FFF7FEFF 		bl	dhcp_discover
 4094              	.LVL474:
 4095              	.L273:
 522:Source\LwIP\src\core\ipv4/dhcp.c **** 
 4096              		.loc 1 522 0
 4097              		@ sp needed
 4098              	.LVL475:
ARM GAS  C:\Users\Phuong\AppData\Local\Temp\ccmYXgep.s 			page 118


 4099 0048 10BD     		pop	{r4, pc}
 4100              		.cfi_endproc
 4101              	.LFE60:
 4102              		.size	dhcp_timeout, .-dhcp_timeout
 4103 004a C046     		.section	.text.dhcp_fine_tmr,"ax",%progbits
 4104              		.align	2
 4105              		.global	dhcp_fine_tmr
 4106              		.code	16
 4107              		.thumb_func
 4108              		.type	dhcp_fine_tmr, %function
 4109              	dhcp_fine_tmr:
 4110              	.LFB59:
 450:Source\LwIP\src\core\ipv4/dhcp.c ****   struct netif *netif = netif_list;
 4111              		.loc 1 450 0
 4112              		.cfi_startproc
 4113              		@ args = 0, pretend = 0, frame = 0
 4114              		@ frame_needed = 0, uses_anonymous_args = 0
 4115 0000 10B5     		push	{r4, lr}
 4116              		.cfi_def_cfa_offset 8
 4117              		.cfi_offset 4, -8
 4118              		.cfi_offset 14, -4
 451:Source\LwIP\src\core\ipv4/dhcp.c ****   /* loop through netif's */
 4119              		.loc 1 451 0
 4120 0002 0B4B     		ldr	r3, .L285
 4121 0004 1C68     		ldr	r4, [r3]
 4122              	.LVL476:
 453:Source\LwIP\src\core\ipv4/dhcp.c ****     struct dhcp *dhcp = netif_dhcp_data(netif);
 4123              		.loc 1 453 0
 4124 0006 10E0     		b	.L281
 4125              	.L284:
 4126              	.LBB12:
 454:Source\LwIP\src\core\ipv4/dhcp.c ****     /* only act on DHCP configured interfaces */
 4127              		.loc 1 454 0
 4128 0008 626A     		ldr	r2, [r4, #36]
 4129              	.LVL477:
 456:Source\LwIP\src\core\ipv4/dhcp.c ****       /* timer is active (non zero), and is about to trigger now */
 4130              		.loc 1 456 0
 4131 000a 002A     		cmp	r2, #0
 4132 000c 0CD0     		beq	.L282
 458:Source\LwIP\src\core\ipv4/dhcp.c ****         dhcp->request_timeout--;
 4133              		.loc 1 458 0
 4134 000e D38A     		ldrh	r3, [r2, #22]
 4135 0010 012B     		cmp	r3, #1
 4136 0012 02D9     		bls	.L283
 459:Source\LwIP\src\core\ipv4/dhcp.c ****       }
 4137              		.loc 1 459 0
 4138 0014 013B     		subs	r3, r3, #1
 4139 0016 D382     		strh	r3, [r2, #22]
 4140 0018 06E0     		b	.L282
 4141              	.L283:
 461:Source\LwIP\src\core\ipv4/dhcp.c ****         dhcp->request_timeout--;
 4142              		.loc 1 461 0
 4143 001a 012B     		cmp	r3, #1
 4144 001c 04D1     		bne	.L282
 462:Source\LwIP\src\core\ipv4/dhcp.c ****         /* { netif->dhcp->request_timeout == 0 } */
 4145              		.loc 1 462 0
 4146 001e 013B     		subs	r3, r3, #1
ARM GAS  C:\Users\Phuong\AppData\Local\Temp\ccmYXgep.s 			page 119


 4147 0020 D382     		strh	r3, [r2, #22]
 466:Source\LwIP\src\core\ipv4/dhcp.c ****       }
 4148              		.loc 1 466 0
 4149 0022 2000     		movs	r0, r4
 4150 0024 FFF7FEFF 		bl	dhcp_timeout
 4151              	.LVL478:
 4152              	.L282:
 470:Source\LwIP\src\core\ipv4/dhcp.c ****   }
 4153              		.loc 1 470 0
 4154 0028 2468     		ldr	r4, [r4]
 4155              	.LVL479:
 4156              	.L281:
 4157              	.LBE12:
 453:Source\LwIP\src\core\ipv4/dhcp.c ****     struct dhcp *dhcp = netif_dhcp_data(netif);
 4158              		.loc 1 453 0
 4159 002a 002C     		cmp	r4, #0
 4160 002c ECD1     		bne	.L284
 472:Source\LwIP\src\core\ipv4/dhcp.c **** 
 4161              		.loc 1 472 0
 4162              		@ sp needed
 4163              	.LVL480:
 4164 002e 10BD     		pop	{r4, pc}
 4165              	.L286:
 4166              		.align	2
 4167              	.L285:
 4168 0030 00000000 		.word	netif_list
 4169              		.cfi_endproc
 4170              	.LFE59:
 4171              		.size	dhcp_fine_tmr, .-dhcp_fine_tmr
 4172              		.comm	dhcp_rx_options_given,10,4
 4173              		.comm	dhcp_rx_options_val,40,4
 4174              		.section	.rodata
 4175              		.align	2
 4176              		.set	.LANCHOR1,. + 0
 4177              		.type	dhcp_discover_request_options, %object
 4178              		.size	dhcp_discover_request_options, 4
 4179              	dhcp_discover_request_options:
 4180 00f0 01       		.byte	1
 4181 00f1 03       		.byte	3
 4182 00f2 1C       		.byte	28
 4183 00f3 06       		.byte	6
 4184              		.bss
 4185              		.align	2
 4186              		.set	.LANCHOR0,. + 0
 4187              		.type	xid.12733, %object
 4188              		.size	xid.12733, 4
 4189              	xid.12733:
 4190 0000 00000000 		.space	4
 4191              		.type	dhcp_pcb, %object
 4192              		.size	dhcp_pcb, 4
 4193              	dhcp_pcb:
 4194 0004 00000000 		.space	4
 4195              		.type	dhcp_pcb_refcount, %object
 4196              		.size	dhcp_pcb_refcount, 1
 4197              	dhcp_pcb_refcount:
 4198 0008 00       		.space	1
 4199              		.text
ARM GAS  C:\Users\Phuong\AppData\Local\Temp\ccmYXgep.s 			page 120


 4200              	.Letext0:
 4201              		.file 2 "c:\\program files (x86)\\cypress\\psoc creator\\4.2\\psoc creator\\import\\gnu\\arm\\5.4.
 4202              		.file 3 "c:\\program files (x86)\\cypress\\psoc creator\\4.2\\psoc creator\\import\\gnu\\arm\\5.4.
 4203              		.file 4 "c:\\program files (x86)\\cypress\\psoc creator\\4.2\\psoc creator\\import\\gnu\\arm\\5.4.
 4204              		.file 5 ".\\Source\\LwIP\\src\\include/arch/cc.h"
 4205              		.file 6 ".\\Source\\LwIP\\src\\include/lwip/err.h"
 4206              		.file 7 ".\\Source\\LwIP\\src\\include/lwip/memp.h"
 4207              		.file 8 ".\\Source\\LwIP\\src\\include/lwip/pbuf.h"
 4208              		.file 9 ".\\Source\\LwIP\\src\\include/lwip/ip4_addr.h"
 4209              		.file 10 ".\\Source\\LwIP\\src\\include/lwip/ip_addr.h"
 4210              		.file 11 ".\\Source\\LwIP\\src\\include/lwip/netif.h"
 4211              		.file 12 ".\\Source\\LwIP\\src\\include/lwip/prot/ip4.h"
 4212              		.file 13 ".\\Source\\LwIP\\src\\include/lwip/ip.h"
 4213              		.file 14 ".\\Source\\LwIP\\src\\include/lwip/udp.h"
 4214              		.file 15 ".\\Source\\LwIP\\src\\include/lwip/dhcp.h"
 4215              		.file 16 ".\\Source\\LwIP\\src\\include/lwip/prot/dhcp.h"
 4216              		.file 17 ".\\Source\\LwIP\\src\\include/arch/sys_arch.h"
 4217              		.file 18 ".\\Source\\LwIP\\src\\include/lwip/def.h"
 4218              		.file 19 "c:\\program files (x86)\\cypress\\psoc creator\\4.2\\psoc creator\\import\\gnu\\arm\\5.4
 4219              		.file 20 ".\\Source\\LwIP\\src\\include/lwip/dns.h"
 4220              		.file 21 ".\\Source\\LwIP\\src\\include/lwip/mem.h"
 4221              		.section	.debug_info,"",%progbits
 4222              	.Ldebug_info0:
 4223 0000 9F220000 		.4byte	0x229f
 4224 0004 0400     		.2byte	0x4
 4225 0006 00000000 		.4byte	.Ldebug_abbrev0
 4226 000a 04       		.byte	0x4
 4227 000b 01       		.uleb128 0x1
 4228 000c 71030000 		.4byte	.LASF287
 4229 0010 0C       		.byte	0xc
 4230 0011 E30A0000 		.4byte	.LASF288
 4231 0015 3C050000 		.4byte	.LASF289
 4232 0019 18000000 		.4byte	.Ldebug_ranges0+0x18
 4233 001d 00000000 		.4byte	0
 4234 0021 00000000 		.4byte	.Ldebug_line0
 4235 0025 02       		.uleb128 0x2
 4236 0026 01       		.byte	0x1
 4237 0027 06       		.byte	0x6
 4238 0028 DE0E0000 		.4byte	.LASF0
 4239 002c 02       		.uleb128 0x2
 4240 002d 01       		.byte	0x1
 4241 002e 08       		.byte	0x8
 4242 002f 040B0000 		.4byte	.LASF1
 4243 0033 02       		.uleb128 0x2
 4244 0034 02       		.byte	0x2
 4245 0035 05       		.byte	0x5
 4246 0036 C6010000 		.4byte	.LASF2
 4247 003a 02       		.uleb128 0x2
 4248 003b 02       		.byte	0x2
 4249 003c 07       		.byte	0x7
 4250 003d F40E0000 		.4byte	.LASF3
 4251 0041 02       		.uleb128 0x2
 4252 0042 04       		.byte	0x4
 4253 0043 05       		.byte	0x5
 4254 0044 A90B0000 		.4byte	.LASF4
 4255 0048 03       		.uleb128 0x3
 4256 0049 14080000 		.4byte	.LASF9
ARM GAS  C:\Users\Phuong\AppData\Local\Temp\ccmYXgep.s 			page 121


 4257 004d 02       		.byte	0x2
 4258 004e 41       		.byte	0x41
 4259 004f 53000000 		.4byte	0x53
 4260 0053 02       		.uleb128 0x2
 4261 0054 04       		.byte	0x4
 4262 0055 07       		.byte	0x7
 4263 0056 040D0000 		.4byte	.LASF5
 4264 005a 02       		.uleb128 0x2
 4265 005b 08       		.byte	0x8
 4266 005c 05       		.byte	0x5
 4267 005d AA080000 		.4byte	.LASF6
 4268 0061 02       		.uleb128 0x2
 4269 0062 08       		.byte	0x8
 4270 0063 07       		.byte	0x7
 4271 0064 58040000 		.4byte	.LASF7
 4272 0068 04       		.uleb128 0x4
 4273 0069 04       		.byte	0x4
 4274 006a 05       		.byte	0x5
 4275 006b 696E7400 		.ascii	"int\000"
 4276 006f 02       		.uleb128 0x2
 4277 0070 04       		.byte	0x4
 4278 0071 07       		.byte	0x7
 4279 0072 15010000 		.4byte	.LASF8
 4280 0076 03       		.uleb128 0x3
 4281 0077 4A060000 		.4byte	.LASF10
 4282 007b 03       		.byte	0x3
 4283 007c D8       		.byte	0xd8
 4284 007d 6F000000 		.4byte	0x6f
 4285 0081 02       		.uleb128 0x2
 4286 0082 08       		.byte	0x8
 4287 0083 04       		.byte	0x4
 4288 0084 870A0000 		.4byte	.LASF11
 4289 0088 05       		.uleb128 0x5
 4290 0089 04       		.byte	0x4
 4291 008a 02       		.uleb128 0x2
 4292 008b 04       		.byte	0x4
 4293 008c 07       		.byte	0x7
 4294 008d FB0C0000 		.4byte	.LASF12
 4295 0091 02       		.uleb128 0x2
 4296 0092 01       		.byte	0x1
 4297 0093 08       		.byte	0x8
 4298 0094 79070000 		.4byte	.LASF13
 4299 0098 06       		.uleb128 0x6
 4300 0099 04       		.byte	0x4
 4301 009a 9E000000 		.4byte	0x9e
 4302 009e 07       		.uleb128 0x7
 4303 009f 91000000 		.4byte	0x91
 4304 00a3 03       		.uleb128 0x3
 4305 00a4 D7020000 		.4byte	.LASF14
 4306 00a8 04       		.byte	0x4
 4307 00a9 30       		.byte	0x30
 4308 00aa 48000000 		.4byte	0x48
 4309 00ae 02       		.uleb128 0x2
 4310 00af 04       		.byte	0x4
 4311 00b0 04       		.byte	0x4
 4312 00b1 4D0D0000 		.4byte	.LASF15
 4313 00b5 02       		.uleb128 0x2
ARM GAS  C:\Users\Phuong\AppData\Local\Temp\ccmYXgep.s 			page 122


 4314 00b6 08       		.byte	0x8
 4315 00b7 04       		.byte	0x4
 4316 00b8 350F0000 		.4byte	.LASF16
 4317 00bc 08       		.uleb128 0x8
 4318 00bd 88000000 		.4byte	0x88
 4319 00c1 CC000000 		.4byte	0xcc
 4320 00c5 09       		.uleb128 0x9
 4321 00c6 8A000000 		.4byte	0x8a
 4322 00ca 01       		.byte	0x1
 4323 00cb 00       		.byte	0
 4324 00cc 03       		.uleb128 0x3
 4325 00cd 56090000 		.4byte	.LASF17
 4326 00d1 05       		.byte	0x5
 4327 00d2 31       		.byte	0x31
 4328 00d3 2C000000 		.4byte	0x2c
 4329 00d7 03       		.uleb128 0x3
 4330 00d8 E1060000 		.4byte	.LASF18
 4331 00dc 05       		.byte	0x5
 4332 00dd 32       		.byte	0x32
 4333 00de 25000000 		.4byte	0x25
 4334 00e2 03       		.uleb128 0x3
 4335 00e3 B20A0000 		.4byte	.LASF19
 4336 00e7 05       		.byte	0x5
 4337 00e8 33       		.byte	0x33
 4338 00e9 3A000000 		.4byte	0x3a
 4339 00ed 03       		.uleb128 0x3
 4340 00ee 530D0000 		.4byte	.LASF20
 4341 00f2 05       		.byte	0x5
 4342 00f3 34       		.byte	0x34
 4343 00f4 33000000 		.4byte	0x33
 4344 00f8 03       		.uleb128 0x3
 4345 00f9 5E0B0000 		.4byte	.LASF21
 4346 00fd 05       		.byte	0x5
 4347 00fe 35       		.byte	0x35
 4348 00ff 53000000 		.4byte	0x53
 4349 0103 0A       		.uleb128 0xa
 4350 0104 01       		.byte	0x1
 4351 0105 2C000000 		.4byte	0x2c
 4352 0109 07       		.byte	0x7
 4353 010a 34       		.byte	0x34
 4354 010b 76010000 		.4byte	0x176
 4355 010f 0B       		.uleb128 0xb
 4356 0110 E00C0000 		.4byte	.LASF22
 4357 0114 00       		.byte	0
 4358 0115 0B       		.uleb128 0xb
 4359 0116 1A0C0000 		.4byte	.LASF23
 4360 011a 01       		.byte	0x1
 4361 011b 0B       		.uleb128 0xb
 4362 011c 49090000 		.4byte	.LASF24
 4363 0120 02       		.byte	0x2
 4364 0121 0B       		.uleb128 0xb
 4365 0122 46000000 		.4byte	.LASF25
 4366 0126 03       		.byte	0x3
 4367 0127 0B       		.uleb128 0xb
 4368 0128 670D0000 		.4byte	.LASF26
 4369 012c 04       		.byte	0x4
 4370 012d 0B       		.uleb128 0xb
ARM GAS  C:\Users\Phuong\AppData\Local\Temp\ccmYXgep.s 			page 123


 4371 012e F6090000 		.4byte	.LASF27
 4372 0132 05       		.byte	0x5
 4373 0133 0B       		.uleb128 0xb
 4374 0134 96080000 		.4byte	.LASF28
 4375 0138 06       		.byte	0x6
 4376 0139 0B       		.uleb128 0xb
 4377 013a 02070000 		.4byte	.LASF29
 4378 013e 07       		.byte	0x7
 4379 013f 0B       		.uleb128 0xb
 4380 0140 24030000 		.4byte	.LASF30
 4381 0144 08       		.byte	0x8
 4382 0145 0B       		.uleb128 0xb
 4383 0146 F8050000 		.4byte	.LASF31
 4384 014a 09       		.byte	0x9
 4385 014b 0B       		.uleb128 0xb
 4386 014c 24040000 		.4byte	.LASF32
 4387 0150 0A       		.byte	0xa
 4388 0151 0B       		.uleb128 0xb
 4389 0152 F9020000 		.4byte	.LASF33
 4390 0156 0B       		.byte	0xb
 4391 0157 0B       		.uleb128 0xb
 4392 0158 CE0B0000 		.4byte	.LASF34
 4393 015c 0C       		.byte	0xc
 4394 015d 0B       		.uleb128 0xb
 4395 015e 5D0F0000 		.4byte	.LASF35
 4396 0162 0D       		.byte	0xd
 4397 0163 0B       		.uleb128 0xb
 4398 0164 53070000 		.4byte	.LASF36
 4399 0168 0E       		.byte	0xe
 4400 0169 0B       		.uleb128 0xb
 4401 016a 050A0000 		.4byte	.LASF37
 4402 016e 0F       		.byte	0xf
 4403 016f 0B       		.uleb128 0xb
 4404 0170 CE060000 		.4byte	.LASF38
 4405 0174 10       		.byte	0x10
 4406 0175 00       		.byte	0
 4407 0176 06       		.uleb128 0x6
 4408 0177 04       		.byte	0x4
 4409 0178 CC000000 		.4byte	0xcc
 4410 017c 03       		.uleb128 0x3
 4411 017d 34010000 		.4byte	.LASF39
 4412 0181 06       		.byte	0x6
 4413 0182 39       		.byte	0x39
 4414 0183 D7000000 		.4byte	0xd7
 4415 0187 0A       		.uleb128 0xa
 4416 0188 01       		.byte	0x1
 4417 0189 25000000 		.4byte	0x25
 4418 018d 06       		.byte	0x6
 4419 018e 3D       		.byte	0x3d
 4420 018f FA010000 		.4byte	0x1fa
 4421 0193 0B       		.uleb128 0xb
 4422 0194 940E0000 		.4byte	.LASF40
 4423 0198 00       		.byte	0
 4424 0199 0C       		.uleb128 0xc
 4425 019a B00F0000 		.4byte	.LASF41
 4426 019e 7F       		.sleb128 -1
 4427 019f 0C       		.uleb128 0xc
ARM GAS  C:\Users\Phuong\AppData\Local\Temp\ccmYXgep.s 			page 124


 4428 01a0 1D0B0000 		.4byte	.LASF42
 4429 01a4 7E       		.sleb128 -2
 4430 01a5 0C       		.uleb128 0xc
 4431 01a6 1E070000 		.4byte	.LASF43
 4432 01aa 7D       		.sleb128 -3
 4433 01ab 0C       		.uleb128 0xc
 4434 01ac 2D0F0000 		.4byte	.LASF44
 4435 01b0 7C       		.sleb128 -4
 4436 01b1 0C       		.uleb128 0xc
 4437 01b2 4C0C0000 		.4byte	.LASF45
 4438 01b6 7B       		.sleb128 -5
 4439 01b7 0C       		.uleb128 0xc
 4440 01b8 0D050000 		.4byte	.LASF46
 4441 01bc 7A       		.sleb128 -6
 4442 01bd 0C       		.uleb128 0xc
 4443 01be 0F070000 		.4byte	.LASF47
 4444 01c2 79       		.sleb128 -7
 4445 01c3 0C       		.uleb128 0xc
 4446 01c4 F1000000 		.4byte	.LASF48
 4447 01c8 78       		.sleb128 -8
 4448 01c9 0C       		.uleb128 0xc
 4449 01ca 95020000 		.4byte	.LASF49
 4450 01ce 77       		.sleb128 -9
 4451 01cf 0C       		.uleb128 0xc
 4452 01d0 940C0000 		.4byte	.LASF50
 4453 01d4 76       		.sleb128 -10
 4454 01d5 0C       		.uleb128 0xc
 4455 01d6 070F0000 		.4byte	.LASF51
 4456 01da 75       		.sleb128 -11
 4457 01db 0C       		.uleb128 0xc
 4458 01dc E4080000 		.4byte	.LASF52
 4459 01e0 74       		.sleb128 -12
 4460 01e1 0C       		.uleb128 0xc
 4461 01e2 7B000000 		.4byte	.LASF53
 4462 01e6 73       		.sleb128 -13
 4463 01e7 0C       		.uleb128 0xc
 4464 01e8 680E0000 		.4byte	.LASF54
 4465 01ec 72       		.sleb128 -14
 4466 01ed 0C       		.uleb128 0xc
 4467 01ee E8000000 		.4byte	.LASF55
 4468 01f2 71       		.sleb128 -15
 4469 01f3 0C       		.uleb128 0xc
 4470 01f4 E6060000 		.4byte	.LASF56
 4471 01f8 70       		.sleb128 -16
 4472 01f9 00       		.byte	0
 4473 01fa 0A       		.uleb128 0xa
 4474 01fb 01       		.byte	0x1
 4475 01fc 2C000000 		.4byte	0x2c
 4476 0200 08       		.byte	0x8
 4477 0201 48       		.byte	0x48
 4478 0202 25020000 		.4byte	0x225
 4479 0206 0B       		.uleb128 0xb
 4480 0207 86020000 		.4byte	.LASF57
 4481 020b 00       		.byte	0
 4482 020c 0B       		.uleb128 0xb
 4483 020d 64060000 		.4byte	.LASF58
 4484 0211 01       		.byte	0x1
ARM GAS  C:\Users\Phuong\AppData\Local\Temp\ccmYXgep.s 			page 125


 4485 0212 0B       		.uleb128 0xb
 4486 0213 490A0000 		.4byte	.LASF59
 4487 0217 02       		.byte	0x2
 4488 0218 0B       		.uleb128 0xb
 4489 0219 710F0000 		.4byte	.LASF60
 4490 021d 03       		.byte	0x3
 4491 021e 0B       		.uleb128 0xb
 4492 021f D4000000 		.4byte	.LASF61
 4493 0223 04       		.byte	0x4
 4494 0224 00       		.byte	0
 4495 0225 0A       		.uleb128 0xa
 4496 0226 01       		.byte	0x1
 4497 0227 2C000000 		.4byte	0x2c
 4498 022b 08       		.byte	0x8
 4499 022c 65       		.byte	0x65
 4500 022d 4A020000 		.4byte	0x24a
 4501 0231 0B       		.uleb128 0xb
 4502 0232 8A000000 		.4byte	.LASF62
 4503 0236 00       		.byte	0
 4504 0237 0B       		.uleb128 0xb
 4505 0238 8B0F0000 		.4byte	.LASF63
 4506 023c 01       		.byte	0x1
 4507 023d 0B       		.uleb128 0xb
 4508 023e 0D060000 		.4byte	.LASF64
 4509 0242 02       		.byte	0x2
 4510 0243 0B       		.uleb128 0xb
 4511 0244 B0060000 		.4byte	.LASF65
 4512 0248 03       		.byte	0x3
 4513 0249 00       		.byte	0
 4514 024a 0D       		.uleb128 0xd
 4515 024b 900D0000 		.4byte	.LASF71
 4516 024f 10       		.byte	0x10
 4517 0250 08       		.byte	0x8
 4518 0251 8E       		.byte	0x8e
 4519 0252 AB020000 		.4byte	0x2ab
 4520 0256 0E       		.uleb128 0xe
 4521 0257 22010000 		.4byte	.LASF66
 4522 025b 08       		.byte	0x8
 4523 025c 90       		.byte	0x90
 4524 025d AB020000 		.4byte	0x2ab
 4525 0261 00       		.byte	0
 4526 0262 0E       		.uleb128 0xe
 4527 0263 5C060000 		.4byte	.LASF67
 4528 0267 08       		.byte	0x8
 4529 0268 93       		.byte	0x93
 4530 0269 88000000 		.4byte	0x88
 4531 026d 04       		.byte	0x4
 4532 026e 0E       		.uleb128 0xe
 4533 026f 1C060000 		.4byte	.LASF68
 4534 0273 08       		.byte	0x8
 4535 0274 9C       		.byte	0x9c
 4536 0275 E2000000 		.4byte	0xe2
 4537 0279 08       		.byte	0x8
 4538 027a 0F       		.uleb128 0xf
 4539 027b 6C656E00 		.ascii	"len\000"
 4540 027f 08       		.byte	0x8
 4541 0280 9F       		.byte	0x9f
ARM GAS  C:\Users\Phuong\AppData\Local\Temp\ccmYXgep.s 			page 126


 4542 0281 E2000000 		.4byte	0xe2
 4543 0285 0A       		.byte	0xa
 4544 0286 0E       		.uleb128 0xe
 4545 0287 740D0000 		.4byte	.LASF69
 4546 028b 08       		.byte	0x8
 4547 028c A2       		.byte	0xa2
 4548 028d CC000000 		.4byte	0xcc
 4549 0291 0C       		.byte	0xc
 4550 0292 0E       		.uleb128 0xe
 4551 0293 DD000000 		.4byte	.LASF70
 4552 0297 08       		.byte	0x8
 4553 0298 A5       		.byte	0xa5
 4554 0299 CC000000 		.4byte	0xcc
 4555 029d 0D       		.byte	0xd
 4556 029e 0F       		.uleb128 0xf
 4557 029f 72656600 		.ascii	"ref\000"
 4558 02a3 08       		.byte	0x8
 4559 02a4 AC       		.byte	0xac
 4560 02a5 E2000000 		.4byte	0xe2
 4561 02a9 0E       		.byte	0xe
 4562 02aa 00       		.byte	0
 4563 02ab 06       		.uleb128 0x6
 4564 02ac 04       		.byte	0x4
 4565 02ad 4A020000 		.4byte	0x24a
 4566 02b1 0D       		.uleb128 0xd
 4567 02b2 6D0C0000 		.4byte	.LASF72
 4568 02b6 04       		.byte	0x4
 4569 02b7 09       		.byte	0x9
 4570 02b8 33       		.byte	0x33
 4571 02b9 CA020000 		.4byte	0x2ca
 4572 02bd 0E       		.uleb128 0xe
 4573 02be 050E0000 		.4byte	.LASF73
 4574 02c2 09       		.byte	0x9
 4575 02c3 34       		.byte	0x34
 4576 02c4 F8000000 		.4byte	0xf8
 4577 02c8 00       		.byte	0
 4578 02c9 00       		.byte	0
 4579 02ca 03       		.uleb128 0x3
 4580 02cb C0040000 		.4byte	.LASF74
 4581 02cf 09       		.byte	0x9
 4582 02d0 39       		.byte	0x39
 4583 02d1 B1020000 		.4byte	0x2b1
 4584 02d5 03       		.uleb128 0x3
 4585 02d6 4D0F0000 		.4byte	.LASF75
 4586 02da 0A       		.byte	0xa
 4587 02db F4       		.byte	0xf4
 4588 02dc CA020000 		.4byte	0x2ca
 4589 02e0 10       		.uleb128 0x10
 4590 02e1 950D0000 		.4byte	.LASF79
 4591 02e5 01       		.byte	0x1
 4592 02e6 2C000000 		.4byte	0x2c
 4593 02ea 0B       		.byte	0xb
 4594 02eb 6B       		.byte	0x6b
 4595 02ec 03030000 		.4byte	0x303
 4596 02f0 0B       		.uleb128 0xb
 4597 02f1 A00E0000 		.4byte	.LASF76
 4598 02f5 00       		.byte	0
ARM GAS  C:\Users\Phuong\AppData\Local\Temp\ccmYXgep.s 			page 127


 4599 02f6 0B       		.uleb128 0xb
 4600 02f7 93000000 		.4byte	.LASF77
 4601 02fb 01       		.byte	0x1
 4602 02fc 0B       		.uleb128 0xb
 4603 02fd 190E0000 		.4byte	.LASF78
 4604 0301 02       		.byte	0x2
 4605 0302 00       		.byte	0
 4606 0303 10       		.uleb128 0x10
 4607 0304 160D0000 		.4byte	.LASF80
 4608 0308 01       		.byte	0x1
 4609 0309 2C000000 		.4byte	0x2c
 4610 030d 0B       		.byte	0xb
 4611 030e 8F       		.byte	0x8f
 4612 030f 20030000 		.4byte	0x320
 4613 0313 0B       		.uleb128 0xb
 4614 0314 530A0000 		.4byte	.LASF81
 4615 0318 00       		.byte	0
 4616 0319 0B       		.uleb128 0xb
 4617 031a FF070000 		.4byte	.LASF82
 4618 031e 01       		.byte	0x1
 4619 031f 00       		.byte	0
 4620 0320 06       		.uleb128 0x6
 4621 0321 04       		.byte	0x4
 4622 0322 26030000 		.4byte	0x326
 4623 0326 0D       		.uleb128 0xd
 4624 0327 5A000000 		.4byte	.LASF83
 4625 032b 48       		.byte	0x48
 4626 032c 0B       		.byte	0xb
 4627 032d E1       		.byte	0xe1
 4628 032e 22040000 		.4byte	0x422
 4629 0332 0E       		.uleb128 0xe
 4630 0333 22010000 		.4byte	.LASF66
 4631 0337 0B       		.byte	0xb
 4632 0338 E3       		.byte	0xe3
 4633 0339 20030000 		.4byte	0x320
 4634 033d 00       		.byte	0
 4635 033e 0E       		.uleb128 0xe
 4636 033f D20F0000 		.4byte	.LASF84
 4637 0343 0B       		.byte	0xb
 4638 0344 E7       		.byte	0xe7
 4639 0345 D5020000 		.4byte	0x2d5
 4640 0349 04       		.byte	0x4
 4641 034a 0E       		.uleb128 0xe
 4642 034b A2080000 		.4byte	.LASF85
 4643 034f 0B       		.byte	0xb
 4644 0350 E8       		.byte	0xe8
 4645 0351 D5020000 		.4byte	0x2d5
 4646 0355 08       		.byte	0x8
 4647 0356 0F       		.uleb128 0xf
 4648 0357 677700   		.ascii	"gw\000"
 4649 035a 0B       		.byte	0xb
 4650 035b E9       		.byte	0xe9
 4651 035c D5020000 		.4byte	0x2d5
 4652 0360 0C       		.byte	0xc
 4653 0361 0E       		.uleb128 0xe
 4654 0362 6B000000 		.4byte	.LASF86
 4655 0366 0B       		.byte	0xb
ARM GAS  C:\Users\Phuong\AppData\Local\Temp\ccmYXgep.s 			page 128


 4656 0367 F4       		.byte	0xf4
 4657 0368 22040000 		.4byte	0x422
 4658 036c 10       		.byte	0x10
 4659 036d 0E       		.uleb128 0xe
 4660 036e 85060000 		.4byte	.LASF87
 4661 0372 0B       		.byte	0xb
 4662 0373 FA       		.byte	0xfa
 4663 0374 47040000 		.4byte	0x447
 4664 0378 14       		.byte	0x14
 4665 0379 0E       		.uleb128 0xe
 4666 037a FA0D0000 		.4byte	.LASF88
 4667 037e 0B       		.byte	0xb
 4668 037f FF       		.byte	0xff
 4669 0380 7C040000 		.4byte	0x47c
 4670 0384 18       		.byte	0x18
 4671 0385 11       		.uleb128 0x11
 4672 0386 EB080000 		.4byte	.LASF89
 4673 038a 0B       		.byte	0xb
 4674 038b 0A01     		.2byte	0x10a
 4675 038d A1040000 		.4byte	0x4a1
 4676 0391 1C       		.byte	0x1c
 4677 0392 11       		.uleb128 0x11
 4678 0393 0A0E0000 		.4byte	.LASF90
 4679 0397 0B       		.byte	0xb
 4680 0398 1701     		.2byte	0x117
 4681 039a 88000000 		.4byte	0x88
 4682 039e 20       		.byte	0x20
 4683 039f 11       		.uleb128 0x11
 4684 03a0 6D070000 		.4byte	.LASF91
 4685 03a4 0B       		.byte	0xb
 4686 03a5 1901     		.2byte	0x119
 4687 03a7 BC000000 		.4byte	0xbc
 4688 03ab 24       		.byte	0x24
 4689 03ac 11       		.uleb128 0x11
 4690 03ad BF0C0000 		.4byte	.LASF92
 4691 03b1 0B       		.byte	0xb
 4692 03b2 2101     		.2byte	0x121
 4693 03b4 CC000000 		.4byte	0xcc
 4694 03b8 2C       		.byte	0x2c
 4695 03b9 11       		.uleb128 0x11
 4696 03ba FF0B0000 		.4byte	.LASF93
 4697 03be 0B       		.byte	0xb
 4698 03bf 2501     		.2byte	0x125
 4699 03c1 98000000 		.4byte	0x98
 4700 03c5 30       		.byte	0x30
 4701 03c6 12       		.uleb128 0x12
 4702 03c7 6D747500 		.ascii	"mtu\000"
 4703 03cb 0B       		.byte	0xb
 4704 03cc 2B01     		.2byte	0x12b
 4705 03ce E2000000 		.4byte	0xe2
 4706 03d2 34       		.byte	0x34
 4707 03d3 11       		.uleb128 0x11
 4708 03d4 EA040000 		.4byte	.LASF94
 4709 03d8 0B       		.byte	0xb
 4710 03d9 2D01     		.2byte	0x12d
 4711 03db CC000000 		.4byte	0xcc
 4712 03df 36       		.byte	0x36
ARM GAS  C:\Users\Phuong\AppData\Local\Temp\ccmYXgep.s 			page 129


 4713 03e0 11       		.uleb128 0x11
 4714 03e1 51040000 		.4byte	.LASF95
 4715 03e5 0B       		.byte	0xb
 4716 03e6 2F01     		.2byte	0x12f
 4717 03e8 E7040000 		.4byte	0x4e7
 4718 03ec 37       		.byte	0x37
 4719 03ed 11       		.uleb128 0x11
 4720 03ee DD000000 		.4byte	.LASF70
 4721 03f2 0B       		.byte	0xb
 4722 03f3 3101     		.2byte	0x131
 4723 03f5 CC000000 		.4byte	0xcc
 4724 03f9 3D       		.byte	0x3d
 4725 03fa 11       		.uleb128 0x11
 4726 03fb A60C0000 		.4byte	.LASF96
 4727 03ff 0B       		.byte	0xb
 4728 0400 3301     		.2byte	0x133
 4729 0402 F7040000 		.4byte	0x4f7
 4730 0406 3E       		.byte	0x3e
 4731 0407 12       		.uleb128 0x12
 4732 0408 6E756D00 		.ascii	"num\000"
 4733 040c 0B       		.byte	0xb
 4734 040d 3501     		.2byte	0x135
 4735 040f CC000000 		.4byte	0xcc
 4736 0413 40       		.byte	0x40
 4737 0414 11       		.uleb128 0x11
 4738 0415 83070000 		.4byte	.LASF97
 4739 0419 0B       		.byte	0xb
 4740 041a 4301     		.2byte	0x143
 4741 041c BD040000 		.4byte	0x4bd
 4742 0420 44       		.byte	0x44
 4743 0421 00       		.byte	0
 4744 0422 03       		.uleb128 0x3
 4745 0423 B2020000 		.4byte	.LASF98
 4746 0427 0B       		.byte	0xb
 4747 0428 A2       		.byte	0xa2
 4748 0429 2D040000 		.4byte	0x42d
 4749 042d 06       		.uleb128 0x6
 4750 042e 04       		.byte	0x4
 4751 042f 33040000 		.4byte	0x433
 4752 0433 13       		.uleb128 0x13
 4753 0434 7C010000 		.4byte	0x17c
 4754 0438 47040000 		.4byte	0x447
 4755 043c 14       		.uleb128 0x14
 4756 043d AB020000 		.4byte	0x2ab
 4757 0441 14       		.uleb128 0x14
 4758 0442 20030000 		.4byte	0x320
 4759 0446 00       		.byte	0
 4760 0447 03       		.uleb128 0x3
 4761 0448 01020000 		.4byte	.LASF99
 4762 044c 0B       		.byte	0xb
 4763 044d AD       		.byte	0xad
 4764 044e 52040000 		.4byte	0x452
 4765 0452 06       		.uleb128 0x6
 4766 0453 04       		.byte	0x4
 4767 0454 58040000 		.4byte	0x458
 4768 0458 13       		.uleb128 0x13
 4769 0459 7C010000 		.4byte	0x17c
ARM GAS  C:\Users\Phuong\AppData\Local\Temp\ccmYXgep.s 			page 130


 4770 045d 71040000 		.4byte	0x471
 4771 0461 14       		.uleb128 0x14
 4772 0462 20030000 		.4byte	0x320
 4773 0466 14       		.uleb128 0x14
 4774 0467 AB020000 		.4byte	0x2ab
 4775 046b 14       		.uleb128 0x14
 4776 046c 71040000 		.4byte	0x471
 4777 0470 00       		.byte	0
 4778 0471 06       		.uleb128 0x6
 4779 0472 04       		.byte	0x4
 4780 0473 77040000 		.4byte	0x477
 4781 0477 07       		.uleb128 0x7
 4782 0478 CA020000 		.4byte	0x2ca
 4783 047c 03       		.uleb128 0x3
 4784 047d AB0C0000 		.4byte	.LASF100
 4785 0481 0B       		.byte	0xb
 4786 0482 C4       		.byte	0xc4
 4787 0483 87040000 		.4byte	0x487
 4788 0487 06       		.uleb128 0x6
 4789 0488 04       		.byte	0x4
 4790 0489 8D040000 		.4byte	0x48d
 4791 048d 13       		.uleb128 0x13
 4792 048e 7C010000 		.4byte	0x17c
 4793 0492 A1040000 		.4byte	0x4a1
 4794 0496 14       		.uleb128 0x14
 4795 0497 20030000 		.4byte	0x320
 4796 049b 14       		.uleb128 0x14
 4797 049c AB020000 		.4byte	0x2ab
 4798 04a0 00       		.byte	0
 4799 04a1 03       		.uleb128 0x3
 4800 04a2 C70D0000 		.4byte	.LASF101
 4801 04a6 0B       		.byte	0xb
 4802 04a7 C6       		.byte	0xc6
 4803 04a8 AC040000 		.4byte	0x4ac
 4804 04ac 06       		.uleb128 0x6
 4805 04ad 04       		.byte	0x4
 4806 04ae B2040000 		.4byte	0x4b2
 4807 04b2 15       		.uleb128 0x15
 4808 04b3 BD040000 		.4byte	0x4bd
 4809 04b7 14       		.uleb128 0x14
 4810 04b8 20030000 		.4byte	0x320
 4811 04bc 00       		.byte	0
 4812 04bd 03       		.uleb128 0x3
 4813 04be 7B0E0000 		.4byte	.LASF102
 4814 04c2 0B       		.byte	0xb
 4815 04c3 C9       		.byte	0xc9
 4816 04c4 C8040000 		.4byte	0x4c8
 4817 04c8 06       		.uleb128 0x6
 4818 04c9 04       		.byte	0x4
 4819 04ca CE040000 		.4byte	0x4ce
 4820 04ce 13       		.uleb128 0x13
 4821 04cf 7C010000 		.4byte	0x17c
 4822 04d3 E7040000 		.4byte	0x4e7
 4823 04d7 14       		.uleb128 0x14
 4824 04d8 20030000 		.4byte	0x320
 4825 04dc 14       		.uleb128 0x14
 4826 04dd 71040000 		.4byte	0x471
ARM GAS  C:\Users\Phuong\AppData\Local\Temp\ccmYXgep.s 			page 131


 4827 04e1 14       		.uleb128 0x14
 4828 04e2 03030000 		.4byte	0x303
 4829 04e6 00       		.byte	0
 4830 04e7 08       		.uleb128 0x8
 4831 04e8 CC000000 		.4byte	0xcc
 4832 04ec F7040000 		.4byte	0x4f7
 4833 04f0 09       		.uleb128 0x9
 4834 04f1 8A000000 		.4byte	0x8a
 4835 04f5 05       		.byte	0x5
 4836 04f6 00       		.byte	0
 4837 04f7 08       		.uleb128 0x8
 4838 04f8 91000000 		.4byte	0x91
 4839 04fc 07050000 		.4byte	0x507
 4840 0500 09       		.uleb128 0x9
 4841 0501 8A000000 		.4byte	0x8a
 4842 0505 01       		.byte	0x1
 4843 0506 00       		.byte	0
 4844 0507 0D       		.uleb128 0xd
 4845 0508 6A010000 		.4byte	.LASF103
 4846 050c 04       		.byte	0x4
 4847 050d 0C       		.byte	0xc
 4848 050e 35       		.byte	0x35
 4849 050f 20050000 		.4byte	0x520
 4850 0513 0E       		.uleb128 0xe
 4851 0514 050E0000 		.4byte	.LASF73
 4852 0518 0C       		.byte	0xc
 4853 0519 36       		.byte	0x36
 4854 051a F8000000 		.4byte	0xf8
 4855 051e 00       		.byte	0
 4856 051f 00       		.byte	0
 4857 0520 03       		.uleb128 0x3
 4858 0521 C00A0000 		.4byte	.LASF104
 4859 0525 0C       		.byte	0xc
 4860 0526 3D       		.byte	0x3d
 4861 0527 07050000 		.4byte	0x507
 4862 052b 0D       		.uleb128 0xd
 4863 052c 9F0C0000 		.4byte	.LASF105
 4864 0530 14       		.byte	0x14
 4865 0531 0C       		.byte	0xc
 4866 0532 47       		.byte	0x47
 4867 0533 B0050000 		.4byte	0x5b0
 4868 0537 0E       		.uleb128 0xe
 4869 0538 77090000 		.4byte	.LASF106
 4870 053c 0C       		.byte	0xc
 4871 053d 49       		.byte	0x49
 4872 053e CC000000 		.4byte	0xcc
 4873 0542 00       		.byte	0
 4874 0543 0E       		.uleb128 0xe
 4875 0544 F60C0000 		.4byte	.LASF107
 4876 0548 0C       		.byte	0xc
 4877 0549 4B       		.byte	0x4b
 4878 054a CC000000 		.4byte	0xcc
 4879 054e 01       		.byte	0x1
 4880 054f 0E       		.uleb128 0xe
 4881 0550 480F0000 		.4byte	.LASF108
 4882 0554 0C       		.byte	0xc
 4883 0555 4D       		.byte	0x4d
ARM GAS  C:\Users\Phuong\AppData\Local\Temp\ccmYXgep.s 			page 132


 4884 0556 E2000000 		.4byte	0xe2
 4885 055a 02       		.byte	0x2
 4886 055b 0F       		.uleb128 0xf
 4887 055c 5F696400 		.ascii	"_id\000"
 4888 0560 0C       		.byte	0xc
 4889 0561 4F       		.byte	0x4f
 4890 0562 E2000000 		.4byte	0xe2
 4891 0566 04       		.byte	0x4
 4892 0567 0E       		.uleb128 0xe
 4893 0568 05050000 		.4byte	.LASF109
 4894 056c 0C       		.byte	0xc
 4895 056d 51       		.byte	0x51
 4896 056e E2000000 		.4byte	0xe2
 4897 0572 06       		.byte	0x6
 4898 0573 0E       		.uleb128 0xe
 4899 0574 7A010000 		.4byte	.LASF110
 4900 0578 0C       		.byte	0xc
 4901 0579 57       		.byte	0x57
 4902 057a CC000000 		.4byte	0xcc
 4903 057e 08       		.byte	0x8
 4904 057f 0E       		.uleb128 0xe
 4905 0580 54080000 		.4byte	.LASF111
 4906 0584 0C       		.byte	0xc
 4907 0585 59       		.byte	0x59
 4908 0586 CC000000 		.4byte	0xcc
 4909 058a 09       		.byte	0x9
 4910 058b 0E       		.uleb128 0xe
 4911 058c CB040000 		.4byte	.LASF112
 4912 0590 0C       		.byte	0xc
 4913 0591 5B       		.byte	0x5b
 4914 0592 E2000000 		.4byte	0xe2
 4915 0596 0A       		.byte	0xa
 4916 0597 0F       		.uleb128 0xf
 4917 0598 73726300 		.ascii	"src\000"
 4918 059c 0C       		.byte	0xc
 4919 059d 5D       		.byte	0x5d
 4920 059e 20050000 		.4byte	0x520
 4921 05a2 0C       		.byte	0xc
 4922 05a3 0E       		.uleb128 0xe
 4923 05a4 B80F0000 		.4byte	.LASF113
 4924 05a8 0C       		.byte	0xc
 4925 05a9 5E       		.byte	0x5e
 4926 05aa 20050000 		.4byte	0x520
 4927 05ae 10       		.byte	0x10
 4928 05af 00       		.byte	0
 4929 05b0 0D       		.uleb128 0xd
 4930 05b1 48070000 		.4byte	.LASF114
 4931 05b5 18       		.byte	0x18
 4932 05b6 0D       		.byte	0xd
 4933 05b7 69       		.byte	0x69
 4934 05b8 05060000 		.4byte	0x605
 4935 05bc 0E       		.uleb128 0xe
 4936 05bd 250B0000 		.4byte	.LASF115
 4937 05c1 0D       		.byte	0xd
 4938 05c2 6C       		.byte	0x6c
 4939 05c3 20030000 		.4byte	0x320
 4940 05c7 00       		.byte	0
ARM GAS  C:\Users\Phuong\AppData\Local\Temp\ccmYXgep.s 			page 133


 4941 05c8 0E       		.uleb128 0xe
 4942 05c9 B5000000 		.4byte	.LASF116
 4943 05cd 0D       		.byte	0xd
 4944 05ce 6E       		.byte	0x6e
 4945 05cf 20030000 		.4byte	0x320
 4946 05d3 04       		.byte	0x4
 4947 05d4 0E       		.uleb128 0xe
 4948 05d5 DD010000 		.4byte	.LASF117
 4949 05d9 0D       		.byte	0xd
 4950 05da 71       		.byte	0x71
 4951 05db 05060000 		.4byte	0x605
 4952 05df 08       		.byte	0x8
 4953 05e0 0E       		.uleb128 0xe
 4954 05e1 2F0A0000 		.4byte	.LASF118
 4955 05e5 0D       		.byte	0xd
 4956 05e6 78       		.byte	0x78
 4957 05e7 E2000000 		.4byte	0xe2
 4958 05eb 0C       		.byte	0xc
 4959 05ec 0E       		.uleb128 0xe
 4960 05ed AE040000 		.4byte	.LASF119
 4961 05f1 0D       		.byte	0xd
 4962 05f2 7A       		.byte	0x7a
 4963 05f3 D5020000 		.4byte	0x2d5
 4964 05f7 10       		.byte	0x10
 4965 05f8 0E       		.uleb128 0xe
 4966 05f9 100F0000 		.4byte	.LASF120
 4967 05fd 0D       		.byte	0xd
 4968 05fe 7C       		.byte	0x7c
 4969 05ff D5020000 		.4byte	0x2d5
 4970 0603 14       		.byte	0x14
 4971 0604 00       		.byte	0
 4972 0605 06       		.uleb128 0x6
 4973 0606 04       		.byte	0x4
 4974 0607 2B050000 		.4byte	0x52b
 4975 060b 03       		.uleb128 0x3
 4976 060c 520B0000 		.4byte	.LASF121
 4977 0610 0E       		.byte	0xe
 4978 0611 4D       		.byte	0x4d
 4979 0612 16060000 		.4byte	0x616
 4980 0616 06       		.uleb128 0x6
 4981 0617 04       		.byte	0x4
 4982 0618 1C060000 		.4byte	0x61c
 4983 061c 15       		.uleb128 0x15
 4984 061d 3B060000 		.4byte	0x63b
 4985 0621 14       		.uleb128 0x14
 4986 0622 88000000 		.4byte	0x88
 4987 0626 14       		.uleb128 0x14
 4988 0627 3B060000 		.4byte	0x63b
 4989 062b 14       		.uleb128 0x14
 4990 062c AB020000 		.4byte	0x2ab
 4991 0630 14       		.uleb128 0x14
 4992 0631 EA060000 		.4byte	0x6ea
 4993 0635 14       		.uleb128 0x14
 4994 0636 E2000000 		.4byte	0xe2
 4995 063a 00       		.byte	0
 4996 063b 06       		.uleb128 0x6
 4997 063c 04       		.byte	0x4
ARM GAS  C:\Users\Phuong\AppData\Local\Temp\ccmYXgep.s 			page 134


 4998 063d 41060000 		.4byte	0x641
 4999 0641 0D       		.uleb128 0xd
 5000 0642 00000000 		.4byte	.LASF122
 5001 0646 28       		.byte	0x28
 5002 0647 0E       		.byte	0xe
 5003 0648 51       		.byte	0x51
 5004 0649 EA060000 		.4byte	0x6ea
 5005 064d 0E       		.uleb128 0xe
 5006 064e 270C0000 		.4byte	.LASF123
 5007 0652 0E       		.byte	0xe
 5008 0653 53       		.byte	0x53
 5009 0654 D5020000 		.4byte	0x2d5
 5010 0658 00       		.byte	0
 5011 0659 0E       		.uleb128 0xe
 5012 065a 230F0000 		.4byte	.LASF124
 5013 065e 0E       		.byte	0xe
 5014 065f 53       		.byte	0x53
 5015 0660 D5020000 		.4byte	0x2d5
 5016 0664 04       		.byte	0x4
 5017 0665 0E       		.uleb128 0xe
 5018 0666 60000000 		.4byte	.LASF125
 5019 066a 0E       		.byte	0xe
 5020 066b 53       		.byte	0x53
 5021 066c CC000000 		.4byte	0xcc
 5022 0670 08       		.byte	0x8
 5023 0671 0F       		.uleb128 0xf
 5024 0672 746F7300 		.ascii	"tos\000"
 5025 0676 0E       		.byte	0xe
 5026 0677 53       		.byte	0x53
 5027 0678 CC000000 		.4byte	0xcc
 5028 067c 09       		.byte	0x9
 5029 067d 0F       		.uleb128 0xf
 5030 067e 74746C00 		.ascii	"ttl\000"
 5031 0682 0E       		.byte	0xe
 5032 0683 53       		.byte	0x53
 5033 0684 CC000000 		.4byte	0xcc
 5034 0688 0A       		.byte	0xa
 5035 0689 0E       		.uleb128 0xe
 5036 068a 22010000 		.4byte	.LASF66
 5037 068e 0E       		.byte	0xe
 5038 068f 57       		.byte	0x57
 5039 0690 3B060000 		.4byte	0x63b
 5040 0694 0C       		.byte	0xc
 5041 0695 0E       		.uleb128 0xe
 5042 0696 DD000000 		.4byte	.LASF70
 5043 069a 0E       		.byte	0xe
 5044 069b 59       		.byte	0x59
 5045 069c CC000000 		.4byte	0xcc
 5046 06a0 10       		.byte	0x10
 5047 06a1 0E       		.uleb128 0xe
 5048 06a2 66030000 		.4byte	.LASF126
 5049 06a6 0E       		.byte	0xe
 5050 06a7 5B       		.byte	0x5b
 5051 06a8 E2000000 		.4byte	0xe2
 5052 06ac 12       		.byte	0x12
 5053 06ad 0E       		.uleb128 0xe
 5054 06ae B7090000 		.4byte	.LASF127
ARM GAS  C:\Users\Phuong\AppData\Local\Temp\ccmYXgep.s 			page 135


 5055 06b2 0E       		.byte	0xe
 5056 06b3 5B       		.byte	0x5b
 5057 06b4 E2000000 		.4byte	0xe2
 5058 06b8 14       		.byte	0x14
 5059 06b9 0E       		.uleb128 0xe
 5060 06ba 7A0A0000 		.4byte	.LASF128
 5061 06be 0E       		.byte	0xe
 5062 06bf 5F       		.byte	0x5f
 5063 06c0 D5020000 		.4byte	0x2d5
 5064 06c4 18       		.byte	0x18
 5065 06c5 0E       		.uleb128 0xe
 5066 06c6 B4010000 		.4byte	.LASF129
 5067 06ca 0E       		.byte	0xe
 5068 06cb 61       		.byte	0x61
 5069 06cc CC000000 		.4byte	0xcc
 5070 06d0 1C       		.byte	0x1c
 5071 06d1 0E       		.uleb128 0xe
 5072 06d2 9B0E0000 		.4byte	.LASF130
 5073 06d6 0E       		.byte	0xe
 5074 06d7 6A       		.byte	0x6a
 5075 06d8 0B060000 		.4byte	0x60b
 5076 06dc 20       		.byte	0x20
 5077 06dd 0E       		.uleb128 0xe
 5078 06de ED0C0000 		.4byte	.LASF131
 5079 06e2 0E       		.byte	0xe
 5080 06e3 6C       		.byte	0x6c
 5081 06e4 88000000 		.4byte	0x88
 5082 06e8 24       		.byte	0x24
 5083 06e9 00       		.byte	0
 5084 06ea 06       		.uleb128 0x6
 5085 06eb 04       		.byte	0x4
 5086 06ec F0060000 		.4byte	0x6f0
 5087 06f0 07       		.uleb128 0x7
 5088 06f1 D5020000 		.4byte	0x2d5
 5089 06f5 0D       		.uleb128 0xd
 5090 06f6 A3010000 		.4byte	.LASF132
 5091 06fa 40       		.byte	0x40
 5092 06fb 0F       		.byte	0xf
 5093 06fc 43       		.byte	0x43
 5094 06fd 16080000 		.4byte	0x816
 5095 0701 0F       		.uleb128 0xf
 5096 0702 78696400 		.ascii	"xid\000"
 5097 0706 0F       		.byte	0xf
 5098 0707 46       		.byte	0x46
 5099 0708 F8000000 		.4byte	0xf8
 5100 070c 00       		.byte	0
 5101 070d 0E       		.uleb128 0xe
 5102 070e 5B090000 		.4byte	.LASF133
 5103 0712 0F       		.byte	0xf
 5104 0713 48       		.byte	0x48
 5105 0714 E3080000 		.4byte	0x8e3
 5106 0718 04       		.byte	0x4
 5107 0719 0E       		.uleb128 0xe
 5108 071a 9B0B0000 		.4byte	.LASF134
 5109 071e 0F       		.byte	0xf
 5110 071f 4A       		.byte	0x4a
 5111 0720 CC000000 		.4byte	0xcc
ARM GAS  C:\Users\Phuong\AppData\Local\Temp\ccmYXgep.s 			page 136


 5112 0724 08       		.byte	0x8
 5113 0725 0E       		.uleb128 0xe
 5114 0726 0A0E0000 		.4byte	.LASF90
 5115 072a 0F       		.byte	0xf
 5116 072b 4C       		.byte	0x4c
 5117 072c CC000000 		.4byte	0xcc
 5118 0730 09       		.byte	0x9
 5119 0731 0E       		.uleb128 0xe
 5120 0732 F0090000 		.4byte	.LASF135
 5121 0736 0F       		.byte	0xf
 5122 0737 4E       		.byte	0x4e
 5123 0738 CC000000 		.4byte	0xcc
 5124 073c 0A       		.byte	0xa
 5125 073d 0E       		.uleb128 0xe
 5126 073e 080C0000 		.4byte	.LASF136
 5127 0742 0F       		.byte	0xf
 5128 0743 52       		.byte	0x52
 5129 0744 CC000000 		.4byte	0xcc
 5130 0748 0B       		.byte	0xb
 5131 0749 0E       		.uleb128 0xe
 5132 074a 16060000 		.4byte	.LASF137
 5133 074e 0F       		.byte	0xf
 5134 074f 54       		.byte	0x54
 5135 0750 AB020000 		.4byte	0x2ab
 5136 0754 0C       		.byte	0xc
 5137 0755 0E       		.uleb128 0xe
 5138 0756 640B0000 		.4byte	.LASF138
 5139 075a 0F       		.byte	0xf
 5140 075b 55       		.byte	0x55
 5141 075c E3080000 		.4byte	0x8e3
 5142 0760 10       		.byte	0x10
 5143 0761 0E       		.uleb128 0xe
 5144 0762 420B0000 		.4byte	.LASF139
 5145 0766 0F       		.byte	0xf
 5146 0767 56       		.byte	0x56
 5147 0768 E2000000 		.4byte	0xe2
 5148 076c 14       		.byte	0x14
 5149 076d 0E       		.uleb128 0xe
 5150 076e F5040000 		.4byte	.LASF140
 5151 0772 0F       		.byte	0xf
 5152 0773 57       		.byte	0x57
 5153 0774 E2000000 		.4byte	0xe2
 5154 0778 16       		.byte	0x16
 5155 0779 0E       		.uleb128 0xe
 5156 077a 6F0A0000 		.4byte	.LASF141
 5157 077e 0F       		.byte	0xf
 5158 077f 58       		.byte	0x58
 5159 0780 E2000000 		.4byte	0xe2
 5160 0784 18       		.byte	0x18
 5161 0785 0E       		.uleb128 0xe
 5162 0786 C20E0000 		.4byte	.LASF142
 5163 078a 0F       		.byte	0xf
 5164 078b 59       		.byte	0x59
 5165 078c E2000000 		.4byte	0xe2
 5166 0790 1A       		.byte	0x1a
 5167 0791 0E       		.uleb128 0xe
 5168 0792 3A070000 		.4byte	.LASF143
ARM GAS  C:\Users\Phuong\AppData\Local\Temp\ccmYXgep.s 			page 137


 5169 0796 0F       		.byte	0xf
 5170 0797 5A       		.byte	0x5a
 5171 0798 E2000000 		.4byte	0xe2
 5172 079c 1C       		.byte	0x1c
 5173 079d 0E       		.uleb128 0xe
 5174 079e 26090000 		.4byte	.LASF144
 5175 07a2 0F       		.byte	0xf
 5176 07a3 5B       		.byte	0x5b
 5177 07a4 E2000000 		.4byte	0xe2
 5178 07a8 1E       		.byte	0x1e
 5179 07a9 0E       		.uleb128 0xe
 5180 07aa 5F010000 		.4byte	.LASF145
 5181 07ae 0F       		.byte	0xf
 5182 07af 5C       		.byte	0x5c
 5183 07b0 E2000000 		.4byte	0xe2
 5184 07b4 20       		.byte	0x20
 5185 07b5 0E       		.uleb128 0xe
 5186 07b6 8C060000 		.4byte	.LASF146
 5187 07ba 0F       		.byte	0xf
 5188 07bb 5D       		.byte	0x5d
 5189 07bc E2000000 		.4byte	0xe2
 5190 07c0 22       		.byte	0x22
 5191 07c1 0E       		.uleb128 0xe
 5192 07c2 330B0000 		.4byte	.LASF147
 5193 07c6 0F       		.byte	0xf
 5194 07c7 5E       		.byte	0x5e
 5195 07c8 D5020000 		.4byte	0x2d5
 5196 07cc 24       		.byte	0x24
 5197 07cd 0E       		.uleb128 0xe
 5198 07ce 5D070000 		.4byte	.LASF148
 5199 07d2 0F       		.byte	0xf
 5200 07d3 5F       		.byte	0x5f
 5201 07d4 CA020000 		.4byte	0x2ca
 5202 07d8 28       		.byte	0x28
 5203 07d9 0E       		.uleb128 0xe
 5204 07da 76080000 		.4byte	.LASF149
 5205 07de 0F       		.byte	0xf
 5206 07df 60       		.byte	0x60
 5207 07e0 CA020000 		.4byte	0x2ca
 5208 07e4 2C       		.byte	0x2c
 5209 07e5 0E       		.uleb128 0xe
 5210 07e6 7D090000 		.4byte	.LASF150
 5211 07ea 0F       		.byte	0xf
 5212 07eb 61       		.byte	0x61
 5213 07ec CA020000 		.4byte	0x2ca
 5214 07f0 30       		.byte	0x30
 5215 07f1 0E       		.uleb128 0xe
 5216 07f2 A1020000 		.4byte	.LASF151
 5217 07f6 0F       		.byte	0xf
 5218 07f7 63       		.byte	0x63
 5219 07f8 F8000000 		.4byte	0xf8
 5220 07fc 34       		.byte	0x34
 5221 07fd 0E       		.uleb128 0xe
 5222 07fe CD0E0000 		.4byte	.LASF152
 5223 0802 0F       		.byte	0xf
 5224 0803 64       		.byte	0x64
 5225 0804 F8000000 		.4byte	0xf8
ARM GAS  C:\Users\Phuong\AppData\Local\Temp\ccmYXgep.s 			page 138


 5226 0808 38       		.byte	0x38
 5227 0809 0E       		.uleb128 0xe
 5228 080a 5B0C0000 		.4byte	.LASF153
 5229 080e 0F       		.byte	0xf
 5230 080f 65       		.byte	0x65
 5231 0810 F8000000 		.4byte	0xf8
 5232 0814 3C       		.byte	0x3c
 5233 0815 00       		.byte	0
 5234 0816 16       		.uleb128 0x16
 5235 0817 A7060000 		.4byte	.LASF154
 5236 081b 3401     		.2byte	0x134
 5237 081d 10       		.byte	0x10
 5238 081e 41       		.byte	0x41
 5239 081f E3080000 		.4byte	0x8e3
 5240 0823 0F       		.uleb128 0xf
 5241 0824 6F7000   		.ascii	"op\000"
 5242 0827 10       		.byte	0x10
 5243 0828 43       		.byte	0x43
 5244 0829 CC000000 		.4byte	0xcc
 5245 082d 00       		.byte	0
 5246 082e 0E       		.uleb128 0xe
 5247 082f 0F010000 		.4byte	.LASF155
 5248 0833 10       		.byte	0x10
 5249 0834 44       		.byte	0x44
 5250 0835 CC000000 		.4byte	0xcc
 5251 0839 01       		.byte	0x1
 5252 083a 0E       		.uleb128 0xe
 5253 083b 7E070000 		.4byte	.LASF156
 5254 083f 10       		.byte	0x10
 5255 0840 45       		.byte	0x45
 5256 0841 CC000000 		.4byte	0xcc
 5257 0845 02       		.byte	0x2
 5258 0846 0E       		.uleb128 0xe
 5259 0847 E3000000 		.4byte	.LASF157
 5260 084b 10       		.byte	0x10
 5261 084c 46       		.byte	0x46
 5262 084d CC000000 		.4byte	0xcc
 5263 0851 03       		.byte	0x3
 5264 0852 0F       		.uleb128 0xf
 5265 0853 78696400 		.ascii	"xid\000"
 5266 0857 10       		.byte	0x10
 5267 0858 47       		.byte	0x47
 5268 0859 F8000000 		.4byte	0xf8
 5269 085d 04       		.byte	0x4
 5270 085e 0E       		.uleb128 0xe
 5271 085f 71080000 		.4byte	.LASF158
 5272 0863 10       		.byte	0x10
 5273 0864 48       		.byte	0x48
 5274 0865 E2000000 		.4byte	0xe2
 5275 0869 08       		.byte	0x8
 5276 086a 0E       		.uleb128 0xe
 5277 086b DD000000 		.4byte	.LASF70
 5278 086f 10       		.byte	0x10
 5279 0870 49       		.byte	0x49
 5280 0871 E2000000 		.4byte	0xe2
 5281 0875 0A       		.byte	0xa
 5282 0876 0E       		.uleb128 0xe
ARM GAS  C:\Users\Phuong\AppData\Local\Temp\ccmYXgep.s 			page 139


 5283 0877 F0010000 		.4byte	.LASF159
 5284 087b 10       		.byte	0x10
 5285 087c 4A       		.byte	0x4a
 5286 087d 20050000 		.4byte	0x520
 5287 0881 0C       		.byte	0xc
 5288 0882 0E       		.uleb128 0xe
 5289 0883 F8070000 		.4byte	.LASF160
 5290 0887 10       		.byte	0x10
 5291 0888 4B       		.byte	0x4b
 5292 0889 20050000 		.4byte	0x520
 5293 088d 10       		.byte	0x10
 5294 088e 0E       		.uleb128 0xe
 5295 088f 790D0000 		.4byte	.LASF161
 5296 0893 10       		.byte	0x10
 5297 0894 4C       		.byte	0x4c
 5298 0895 20050000 		.4byte	0x520
 5299 0899 14       		.byte	0x14
 5300 089a 0E       		.uleb128 0xe
 5301 089b 4D080000 		.4byte	.LASF162
 5302 089f 10       		.byte	0x10
 5303 08a0 4D       		.byte	0x4d
 5304 08a1 20050000 		.4byte	0x520
 5305 08a5 18       		.byte	0x18
 5306 08a6 0E       		.uleb128 0xe
 5307 08a7 8F080000 		.4byte	.LASF163
 5308 08ab 10       		.byte	0x10
 5309 08ac 4E       		.byte	0x4e
 5310 08ad E9080000 		.4byte	0x8e9
 5311 08b1 1C       		.byte	0x1c
 5312 08b2 0E       		.uleb128 0xe
 5313 08b3 570F0000 		.4byte	.LASF164
 5314 08b7 10       		.byte	0x10
 5315 08b8 4F       		.byte	0x4f
 5316 08b9 F9080000 		.4byte	0x8f9
 5317 08bd 2C       		.byte	0x2c
 5318 08be 0E       		.uleb128 0xe
 5319 08bf 6F040000 		.4byte	.LASF165
 5320 08c3 10       		.byte	0x10
 5321 08c4 50       		.byte	0x50
 5322 08c5 09090000 		.4byte	0x909
 5323 08c9 6C       		.byte	0x6c
 5324 08ca 0E       		.uleb128 0xe
 5325 08cb 46010000 		.4byte	.LASF166
 5326 08cf 10       		.byte	0x10
 5327 08d0 51       		.byte	0x51
 5328 08d1 F8000000 		.4byte	0xf8
 5329 08d5 EC       		.byte	0xec
 5330 08d6 0E       		.uleb128 0xe
 5331 08d7 6C0B0000 		.4byte	.LASF167
 5332 08db 10       		.byte	0x10
 5333 08dc 5C       		.byte	0x5c
 5334 08dd 19090000 		.4byte	0x919
 5335 08e1 F0       		.byte	0xf0
 5336 08e2 00       		.byte	0
 5337 08e3 06       		.uleb128 0x6
 5338 08e4 04       		.byte	0x4
 5339 08e5 16080000 		.4byte	0x816
ARM GAS  C:\Users\Phuong\AppData\Local\Temp\ccmYXgep.s 			page 140


 5340 08e9 08       		.uleb128 0x8
 5341 08ea CC000000 		.4byte	0xcc
 5342 08ee F9080000 		.4byte	0x8f9
 5343 08f2 09       		.uleb128 0x9
 5344 08f3 8A000000 		.4byte	0x8a
 5345 08f7 0F       		.byte	0xf
 5346 08f8 00       		.byte	0
 5347 08f9 08       		.uleb128 0x8
 5348 08fa CC000000 		.4byte	0xcc
 5349 08fe 09090000 		.4byte	0x909
 5350 0902 09       		.uleb128 0x9
 5351 0903 8A000000 		.4byte	0x8a
 5352 0907 3F       		.byte	0x3f
 5353 0908 00       		.byte	0
 5354 0909 08       		.uleb128 0x8
 5355 090a CC000000 		.4byte	0xcc
 5356 090e 19090000 		.4byte	0x919
 5357 0912 09       		.uleb128 0x9
 5358 0913 8A000000 		.4byte	0x8a
 5359 0917 7F       		.byte	0x7f
 5360 0918 00       		.byte	0
 5361 0919 08       		.uleb128 0x8
 5362 091a CC000000 		.4byte	0xcc
 5363 091e 29090000 		.4byte	0x929
 5364 0922 09       		.uleb128 0x9
 5365 0923 8A000000 		.4byte	0x8a
 5366 0927 43       		.byte	0x43
 5367 0928 00       		.byte	0
 5368 0929 0A       		.uleb128 0xa
 5369 092a 01       		.byte	0x1
 5370 092b 2C000000 		.4byte	0x2c
 5371 092f 10       		.byte	0x10
 5372 0930 65       		.byte	0x65
 5373 0931 84090000 		.4byte	0x984
 5374 0935 0B       		.uleb128 0xb
 5375 0936 E9070000 		.4byte	.LASF168
 5376 093a 00       		.byte	0
 5377 093b 0B       		.uleb128 0xb
 5378 093c 8B040000 		.4byte	.LASF169
 5379 0940 01       		.byte	0x1
 5380 0941 0B       		.uleb128 0xb
 5381 0942 E00D0000 		.4byte	.LASF170
 5382 0946 02       		.byte	0x2
 5383 0947 0B       		.uleb128 0xb
 5384 0948 62090000 		.4byte	.LASF171
 5385 094c 03       		.byte	0x3
 5386 094d 0B       		.uleb128 0xb
 5387 094e 31000000 		.4byte	.LASF172
 5388 0952 04       		.byte	0x4
 5389 0953 0B       		.uleb128 0xb
 5390 0954 7F010000 		.4byte	.LASF173
 5391 0958 05       		.byte	0x5
 5392 0959 0B       		.uleb128 0xb
 5393 095a 38080000 		.4byte	.LASF174
 5394 095e 06       		.byte	0x6
 5395 095f 0B       		.uleb128 0xb
 5396 0960 7F0C0000 		.4byte	.LASF175
ARM GAS  C:\Users\Phuong\AppData\Local\Temp\ccmYXgep.s 			page 141


 5397 0964 07       		.byte	0x7
 5398 0965 0B       		.uleb128 0xb
 5399 0966 930A0000 		.4byte	.LASF176
 5400 096a 08       		.byte	0x8
 5401 096b 0B       		.uleb128 0xb
 5402 096c C3070000 		.4byte	.LASF177
 5403 0970 09       		.byte	0x9
 5404 0971 0B       		.uleb128 0xb
 5405 0972 A6090000 		.4byte	.LASF178
 5406 0976 0A       		.byte	0xa
 5407 0977 0B       		.uleb128 0xb
 5408 0978 FB080000 		.4byte	.LASF179
 5409 097c 0B       		.byte	0xb
 5410 097d 0B       		.uleb128 0xb
 5411 097e D3040000 		.4byte	.LASF180
 5412 0982 0C       		.byte	0xc
 5413 0983 00       		.byte	0
 5414 0984 10       		.uleb128 0x10
 5415 0985 93010000 		.4byte	.LASF181
 5416 0989 01       		.byte	0x1
 5417 098a 2C000000 		.4byte	0x2c
 5418 098e 01       		.byte	0x1
 5419 098f 79       		.byte	0x79
 5420 0990 D7090000 		.4byte	0x9d7
 5421 0994 0B       		.uleb128 0xb
 5422 0995 1F080000 		.4byte	.LASF182
 5423 0999 00       		.byte	0
 5424 099a 0B       		.uleb128 0xb
 5425 099b 6C060000 		.4byte	.LASF183
 5426 099f 01       		.byte	0x1
 5427 09a0 0B       		.uleb128 0xb
 5428 09a1 4E0E0000 		.4byte	.LASF184
 5429 09a5 02       		.byte	0x2
 5430 09a6 0B       		.uleb128 0xb
 5431 09a7 4B020000 		.4byte	.LASF185
 5432 09ab 03       		.byte	0x3
 5433 09ac 0B       		.uleb128 0xb
 5434 09ad 24060000 		.4byte	.LASF186
 5435 09b1 04       		.byte	0x4
 5436 09b2 0B       		.uleb128 0xb
 5437 09b3 37060000 		.4byte	.LASF187
 5438 09b7 05       		.byte	0x5
 5439 09b8 0B       		.uleb128 0xb
 5440 09b9 9B070000 		.4byte	.LASF188
 5441 09bd 06       		.byte	0x6
 5442 09be 0B       		.uleb128 0xb
 5443 09bf E1050000 		.4byte	.LASF189
 5444 09c3 07       		.byte	0x7
 5445 09c4 0B       		.uleb128 0xb
 5446 09c5 09030000 		.4byte	.LASF190
 5447 09c9 08       		.byte	0x8
 5448 09ca 0B       		.uleb128 0xb
 5449 09cb 66020000 		.4byte	.LASF191
 5450 09cf 09       		.byte	0x9
 5451 09d0 0B       		.uleb128 0xb
 5452 09d1 3A0E0000 		.4byte	.LASF192
 5453 09d5 0A       		.byte	0xa
ARM GAS  C:\Users\Phuong\AppData\Local\Temp\ccmYXgep.s 			page 142


 5454 09d6 00       		.byte	0
 5455 09d7 17       		.uleb128 0x17
 5456 09d8 3D0C0000 		.4byte	.LASF194
 5457 09dc 01       		.byte	0x1
 5458 09dd 5F05     		.2byte	0x55f
 5459 09df 00000000 		.4byte	.LFB76
 5460 09e3 10000000 		.4byte	.LFE76-.LFB76
 5461 09e7 01       		.uleb128 0x1
 5462 09e8 9C       		.byte	0x9c
 5463 09e9 0A0A0000 		.4byte	0xa0a
 5464 09ed 18       		.uleb128 0x18
 5465 09ee A3010000 		.4byte	.LASF132
 5466 09f2 01       		.byte	0x1
 5467 09f3 5F05     		.2byte	0x55f
 5468 09f5 0A0A0000 		.4byte	0xa0a
 5469 09f9 01       		.uleb128 0x1
 5470 09fa 50       		.byte	0x50
 5471 09fb 18       		.uleb128 0x18
 5472 09fc F7010000 		.4byte	.LASF193
 5473 0a00 01       		.byte	0x1
 5474 0a01 5F05     		.2byte	0x55f
 5475 0a03 CC000000 		.4byte	0xcc
 5476 0a07 01       		.uleb128 0x1
 5477 0a08 51       		.byte	0x51
 5478 0a09 00       		.byte	0
 5479 0a0a 06       		.uleb128 0x6
 5480 0a0b 04       		.byte	0x4
 5481 0a0c F5060000 		.4byte	0x6f5
 5482 0a10 17       		.uleb128 0x17
 5483 0a11 EE060000 		.4byte	.LASF195
 5484 0a15 01       		.byte	0x1
 5485 0a16 6E05     		.2byte	0x56e
 5486 0a18 00000000 		.4byte	.LFB77
 5487 0a1c 22000000 		.4byte	.LFE77-.LFB77
 5488 0a20 01       		.uleb128 0x1
 5489 0a21 9C       		.byte	0x9c
 5490 0a22 530A0000 		.4byte	0xa53
 5491 0a26 18       		.uleb128 0x18
 5492 0a27 A3010000 		.4byte	.LASF132
 5493 0a2b 01       		.byte	0x1
 5494 0a2c 6E05     		.2byte	0x56e
 5495 0a2e 0A0A0000 		.4byte	0xa0a
 5496 0a32 01       		.uleb128 0x1
 5497 0a33 50       		.byte	0x50
 5498 0a34 19       		.uleb128 0x19
 5499 0a35 15050000 		.4byte	.LASF196
 5500 0a39 01       		.byte	0x1
 5501 0a3a 6E05     		.2byte	0x56e
 5502 0a3c CC000000 		.4byte	0xcc
 5503 0a40 00000000 		.4byte	.LLST0
 5504 0a44 18       		.uleb128 0x18
 5505 0a45 240A0000 		.4byte	.LASF197
 5506 0a49 01       		.byte	0x1
 5507 0a4a 6E05     		.2byte	0x56e
 5508 0a4c CC000000 		.4byte	0xcc
 5509 0a50 01       		.uleb128 0x1
 5510 0a51 52       		.byte	0x52
ARM GAS  C:\Users\Phuong\AppData\Local\Temp\ccmYXgep.s 			page 143


 5511 0a52 00       		.byte	0
 5512 0a53 17       		.uleb128 0x17
 5513 0a54 DA0F0000 		.4byte	.LASF198
 5514 0a58 01       		.byte	0x1
 5515 0a59 7905     		.2byte	0x579
 5516 0a5b 00000000 		.4byte	.LFB78
 5517 0a5f 12000000 		.4byte	.LFE78-.LFB78
 5518 0a63 01       		.uleb128 0x1
 5519 0a64 9C       		.byte	0x9c
 5520 0a65 860A0000 		.4byte	0xa86
 5521 0a69 18       		.uleb128 0x18
 5522 0a6a A3010000 		.4byte	.LASF132
 5523 0a6e 01       		.byte	0x1
 5524 0a6f 7905     		.2byte	0x579
 5525 0a71 0A0A0000 		.4byte	0xa0a
 5526 0a75 01       		.uleb128 0x1
 5527 0a76 50       		.byte	0x50
 5528 0a77 18       		.uleb128 0x18
 5529 0a78 36050000 		.4byte	.LASF199
 5530 0a7c 01       		.byte	0x1
 5531 0a7d 7905     		.2byte	0x579
 5532 0a7f CC000000 		.4byte	0xcc
 5533 0a83 01       		.uleb128 0x1
 5534 0a84 51       		.byte	0x51
 5535 0a85 00       		.byte	0
 5536 0a86 17       		.uleb128 0x17
 5537 0a87 94090000 		.4byte	.LASF200
 5538 0a8b 01       		.byte	0x1
 5539 0a8c 8005     		.2byte	0x580
 5540 0a8e 00000000 		.4byte	.LFB79
 5541 0a92 24000000 		.4byte	.LFE79-.LFB79
 5542 0a96 01       		.uleb128 0x1
 5543 0a97 9C       		.byte	0x9c
 5544 0a98 B90A0000 		.4byte	0xab9
 5545 0a9c 18       		.uleb128 0x18
 5546 0a9d A3010000 		.4byte	.LASF132
 5547 0aa1 01       		.byte	0x1
 5548 0aa2 8005     		.2byte	0x580
 5549 0aa4 0A0A0000 		.4byte	0xa0a
 5550 0aa8 01       		.uleb128 0x1
 5551 0aa9 50       		.byte	0x50
 5552 0aaa 18       		.uleb128 0x18
 5553 0aab 36050000 		.4byte	.LASF199
 5554 0aaf 01       		.byte	0x1
 5555 0ab0 8005     		.2byte	0x580
 5556 0ab2 E2000000 		.4byte	0xe2
 5557 0ab6 01       		.uleb128 0x1
 5558 0ab7 51       		.byte	0x51
 5559 0ab8 00       		.byte	0
 5560 0ab9 17       		.uleb128 0x17
 5561 0aba 03040000 		.4byte	.LASF201
 5562 0abe 01       		.byte	0x1
 5563 0abf 8805     		.2byte	0x588
 5564 0ac1 00000000 		.4byte	.LFB80
 5565 0ac5 48000000 		.4byte	.LFE80-.LFB80
 5566 0ac9 01       		.uleb128 0x1
 5567 0aca 9C       		.byte	0x9c
ARM GAS  C:\Users\Phuong\AppData\Local\Temp\ccmYXgep.s 			page 144


 5568 0acb EC0A0000 		.4byte	0xaec
 5569 0acf 18       		.uleb128 0x18
 5570 0ad0 A3010000 		.4byte	.LASF132
 5571 0ad4 01       		.byte	0x1
 5572 0ad5 8805     		.2byte	0x588
 5573 0ad7 0A0A0000 		.4byte	0xa0a
 5574 0adb 01       		.uleb128 0x1
 5575 0adc 50       		.byte	0x50
 5576 0add 18       		.uleb128 0x18
 5577 0ade 36050000 		.4byte	.LASF199
 5578 0ae2 01       		.byte	0x1
 5579 0ae3 8805     		.2byte	0x588
 5580 0ae5 F8000000 		.4byte	0xf8
 5581 0ae9 01       		.uleb128 0x1
 5582 0aea 51       		.byte	0x51
 5583 0aeb 00       		.byte	0
 5584 0aec 17       		.uleb128 0x17
 5585 0aed 35090000 		.4byte	.LASF202
 5586 0af1 01       		.byte	0x1
 5587 0af2 8007     		.2byte	0x780
 5588 0af4 00000000 		.4byte	.LFB86
 5589 0af8 38000000 		.4byte	.LFE86-.LFB86
 5590 0afc 01       		.uleb128 0x1
 5591 0afd 9C       		.byte	0x9c
 5592 0afe 110B0000 		.4byte	0xb11
 5593 0b02 18       		.uleb128 0x18
 5594 0b03 A3010000 		.4byte	.LASF132
 5595 0b07 01       		.byte	0x1
 5596 0b08 8007     		.2byte	0x780
 5597 0b0a 0A0A0000 		.4byte	0xa0a
 5598 0b0e 01       		.uleb128 0x1
 5599 0b0f 50       		.byte	0x50
 5600 0b10 00       		.byte	0
 5601 0b11 1A       		.uleb128 0x1a
 5602 0b12 EF0B0000 		.4byte	.LASF205
 5603 0b16 01       		.byte	0x1
 5604 0b17 0A07     		.2byte	0x70a
 5605 0b19 7C010000 		.4byte	0x17c
 5606 0b1d 00000000 		.4byte	.LFB84
 5607 0b21 90010000 		.4byte	.LFE84-.LFB84
 5608 0b25 01       		.uleb128 0x1
 5609 0b26 9C       		.byte	0x9c
 5610 0b27 E20B0000 		.4byte	0xbe2
 5611 0b2b 19       		.uleb128 0x19
 5612 0b2c 5A000000 		.4byte	.LASF83
 5613 0b30 01       		.byte	0x1
 5614 0b31 0A07     		.2byte	0x70a
 5615 0b33 20030000 		.4byte	0x320
 5616 0b37 2D000000 		.4byte	.LLST1
 5617 0b3b 19       		.uleb128 0x19
 5618 0b3c A3010000 		.4byte	.LASF132
 5619 0b40 01       		.byte	0x1
 5620 0b41 0A07     		.2byte	0x70a
 5621 0b43 0A0A0000 		.4byte	0xa0a
 5622 0b47 85000000 		.4byte	.LLST2
 5623 0b4b 19       		.uleb128 0x19
 5624 0b4c A1040000 		.4byte	.LASF203
ARM GAS  C:\Users\Phuong\AppData\Local\Temp\ccmYXgep.s 			page 145


 5625 0b50 01       		.byte	0x1
 5626 0b51 0A07     		.2byte	0x70a
 5627 0b53 CC000000 		.4byte	0xcc
 5628 0b57 C7000000 		.4byte	.LLST3
 5629 0b5b 1B       		.uleb128 0x1b
 5630 0b5c 6900     		.ascii	"i\000"
 5631 0b5e 01       		.byte	0x1
 5632 0b5f 0C07     		.2byte	0x70c
 5633 0b61 E2000000 		.4byte	0xe2
 5634 0b65 01010000 		.4byte	.LLST4
 5635 0b69 1C       		.uleb128 0x1c
 5636 0b6a 78696400 		.ascii	"xid\000"
 5637 0b6e 01       		.byte	0x1
 5638 0b6f 1307     		.2byte	0x713
 5639 0b71 F8000000 		.4byte	0xf8
 5640 0b75 05       		.uleb128 0x5
 5641 0b76 03       		.byte	0x3
 5642 0b77 00000000 		.4byte	xid.12733
 5643 0b7b 1D       		.uleb128 0x1d
 5644 0b7c 20000000 		.4byte	.LVL12
 5645 0b80 D2210000 		.4byte	0x21d2
 5646 0b84 9A0B0000 		.4byte	0xb9a
 5647 0b88 1E       		.uleb128 0x1e
 5648 0b89 01       		.uleb128 0x1
 5649 0b8a 50       		.byte	0x50
 5650 0b8b 01       		.uleb128 0x1
 5651 0b8c 30       		.byte	0x30
 5652 0b8d 1E       		.uleb128 0x1e
 5653 0b8e 01       		.uleb128 0x1
 5654 0b8f 51       		.byte	0x51
 5655 0b90 03       		.uleb128 0x3
 5656 0b91 0A       		.byte	0xa
 5657 0b92 3401     		.2byte	0x134
 5658 0b94 1E       		.uleb128 0x1e
 5659 0b95 01       		.uleb128 0x1
 5660 0b96 52       		.byte	0x52
 5661 0b97 01       		.uleb128 0x1
 5662 0b98 30       		.byte	0x30
 5663 0b99 00       		.byte	0
 5664 0b9a 1F       		.uleb128 0x1f
 5665 0b9b 3C000000 		.4byte	.LVL13
 5666 0b9f DD210000 		.4byte	0x21dd
 5667 0ba3 1F       		.uleb128 0x1f
 5668 0ba4 6A000000 		.4byte	.LVL14
 5669 0ba8 E8210000 		.4byte	0x21e8
 5670 0bac 1D       		.uleb128 0x1d
 5671 0bad 6E010000 		.4byte	.LVL32
 5672 0bb1 100A0000 		.4byte	0xa10
 5673 0bb5 CB0B0000 		.4byte	0xbcb
 5674 0bb9 1E       		.uleb128 0x1e
 5675 0bba 01       		.uleb128 0x1
 5676 0bbb 50       		.byte	0x50
 5677 0bbc 02       		.uleb128 0x2
 5678 0bbd 74       		.byte	0x74
 5679 0bbe 00       		.sleb128 0
 5680 0bbf 1E       		.uleb128 0x1e
 5681 0bc0 01       		.uleb128 0x1
ARM GAS  C:\Users\Phuong\AppData\Local\Temp\ccmYXgep.s 			page 146


 5682 0bc1 51       		.byte	0x51
 5683 0bc2 02       		.uleb128 0x2
 5684 0bc3 08       		.byte	0x8
 5685 0bc4 35       		.byte	0x35
 5686 0bc5 1E       		.uleb128 0x1e
 5687 0bc6 01       		.uleb128 0x1
 5688 0bc7 52       		.byte	0x52
 5689 0bc8 01       		.uleb128 0x1
 5690 0bc9 31       		.byte	0x31
 5691 0bca 00       		.byte	0
 5692 0bcb 20       		.uleb128 0x20
 5693 0bcc 76010000 		.4byte	.LVL33
 5694 0bd0 530A0000 		.4byte	0xa53
 5695 0bd4 1E       		.uleb128 0x1e
 5696 0bd5 01       		.uleb128 0x1
 5697 0bd6 50       		.byte	0x50
 5698 0bd7 02       		.uleb128 0x2
 5699 0bd8 74       		.byte	0x74
 5700 0bd9 00       		.sleb128 0
 5701 0bda 1E       		.uleb128 0x1e
 5702 0bdb 01       		.uleb128 0x1
 5703 0bdc 51       		.byte	0x51
 5704 0bdd 02       		.uleb128 0x2
 5705 0bde 75       		.byte	0x75
 5706 0bdf 00       		.sleb128 0
 5707 0be0 00       		.byte	0
 5708 0be1 00       		.byte	0
 5709 0be2 17       		.uleb128 0x17
 5710 0be3 800D0000 		.4byte	.LASF204
 5711 0be7 01       		.byte	0x1
 5712 0be8 6B07     		.2byte	0x76b
 5713 0bea 00000000 		.4byte	.LFB85
 5714 0bee 18000000 		.4byte	.LFE85-.LFB85
 5715 0bf2 01       		.uleb128 0x1
 5716 0bf3 9C       		.byte	0x9c
 5717 0bf4 120C0000 		.4byte	0xc12
 5718 0bf8 19       		.uleb128 0x19
 5719 0bf9 A3010000 		.4byte	.LASF132
 5720 0bfd 01       		.byte	0x1
 5721 0bfe 6B07     		.2byte	0x76b
 5722 0c00 0A0A0000 		.4byte	0xa0a
 5723 0c04 79010000 		.4byte	.LLST5
 5724 0c08 1F       		.uleb128 0x1f
 5725 0c09 10000000 		.4byte	.LVL43
 5726 0c0d F3210000 		.4byte	0x21f3
 5727 0c11 00       		.byte	0
 5728 0c12 21       		.uleb128 0x21
 5729 0c13 B8080000 		.4byte	.LASF206
 5730 0c17 01       		.byte	0x1
 5731 0c18 C103     		.2byte	0x3c1
 5732 0c1a 7C010000 		.4byte	0x17c
 5733 0c1e 00000000 		.4byte	.LFB69
 5734 0c22 C4000000 		.4byte	.LFE69-.LFB69
 5735 0c26 01       		.uleb128 0x1
 5736 0c27 9C       		.byte	0x9c
 5737 0c28 6F0D0000 		.4byte	0xd6f
 5738 0c2c 19       		.uleb128 0x19
ARM GAS  C:\Users\Phuong\AppData\Local\Temp\ccmYXgep.s 			page 147


 5739 0c2d 5A000000 		.4byte	.LASF83
 5740 0c31 01       		.byte	0x1
 5741 0c32 C103     		.2byte	0x3c1
 5742 0c34 20030000 		.4byte	0x320
 5743 0c38 A5010000 		.4byte	.LLST6
 5744 0c3c 22       		.uleb128 0x22
 5745 0c3d A3010000 		.4byte	.LASF132
 5746 0c41 01       		.byte	0x1
 5747 0c42 C303     		.2byte	0x3c3
 5748 0c44 0A0A0000 		.4byte	0xa0a
 5749 0c48 D1010000 		.4byte	.LLST7
 5750 0c4c 22       		.uleb128 0x22
 5751 0c4d 4A040000 		.4byte	.LASF207
 5752 0c51 01       		.byte	0x1
 5753 0c52 C403     		.2byte	0x3c4
 5754 0c54 7C010000 		.4byte	0x17c
 5755 0c58 E4010000 		.4byte	.LLST8
 5756 0c5c 22       		.uleb128 0x22
 5757 0c5d AA0F0000 		.4byte	.LASF208
 5758 0c61 01       		.byte	0x1
 5759 0c62 C503     		.2byte	0x3c5
 5760 0c64 E2000000 		.4byte	0xe2
 5761 0c68 03020000 		.4byte	.LLST9
 5762 0c6c 1B       		.uleb128 0x1b
 5763 0c6d 6900     		.ascii	"i\000"
 5764 0c6f 01       		.byte	0x1
 5765 0c70 C603     		.2byte	0x3c6
 5766 0c72 CC000000 		.4byte	0xcc
 5767 0c76 16020000 		.4byte	.LLST10
 5768 0c7a 1D       		.uleb128 0x1d
 5769 0c7b 14000000 		.4byte	.LVL48
 5770 0c7f D7090000 		.4byte	0x9d7
 5771 0c83 930C0000 		.4byte	0xc93
 5772 0c87 1E       		.uleb128 0x1e
 5773 0c88 01       		.uleb128 0x1
 5774 0c89 50       		.byte	0x50
 5775 0c8a 02       		.uleb128 0x2
 5776 0c8b 74       		.byte	0x74
 5777 0c8c 00       		.sleb128 0
 5778 0c8d 1E       		.uleb128 0x1e
 5779 0c8e 01       		.uleb128 0x1
 5780 0c8f 51       		.byte	0x51
 5781 0c90 01       		.uleb128 0x1
 5782 0c91 36       		.byte	0x36
 5783 0c92 00       		.byte	0
 5784 0c93 1D       		.uleb128 0x1d
 5785 0c94 1E000000 		.4byte	.LVL49
 5786 0c98 110B0000 		.4byte	0xb11
 5787 0c9c B20C0000 		.4byte	0xcb2
 5788 0ca0 1E       		.uleb128 0x1e
 5789 0ca1 01       		.uleb128 0x1
 5790 0ca2 50       		.byte	0x50
 5791 0ca3 02       		.uleb128 0x2
 5792 0ca4 77       		.byte	0x77
 5793 0ca5 00       		.sleb128 0
 5794 0ca6 1E       		.uleb128 0x1e
 5795 0ca7 01       		.uleb128 0x1
ARM GAS  C:\Users\Phuong\AppData\Local\Temp\ccmYXgep.s 			page 148


 5796 0ca8 51       		.byte	0x51
 5797 0ca9 02       		.uleb128 0x2
 5798 0caa 74       		.byte	0x74
 5799 0cab 00       		.sleb128 0
 5800 0cac 1E       		.uleb128 0x1e
 5801 0cad 01       		.uleb128 0x1
 5802 0cae 52       		.byte	0x52
 5803 0caf 01       		.uleb128 0x1
 5804 0cb0 31       		.byte	0x31
 5805 0cb1 00       		.byte	0
 5806 0cb2 1D       		.uleb128 0x1d
 5807 0cb3 2C000000 		.4byte	.LVL52
 5808 0cb7 100A0000 		.4byte	0xa10
 5809 0cbb D10C0000 		.4byte	0xcd1
 5810 0cbf 1E       		.uleb128 0x1e
 5811 0cc0 01       		.uleb128 0x1
 5812 0cc1 50       		.byte	0x50
 5813 0cc2 02       		.uleb128 0x2
 5814 0cc3 74       		.byte	0x74
 5815 0cc4 00       		.sleb128 0
 5816 0cc5 1E       		.uleb128 0x1e
 5817 0cc6 01       		.uleb128 0x1
 5818 0cc7 51       		.byte	0x51
 5819 0cc8 02       		.uleb128 0x2
 5820 0cc9 08       		.byte	0x8
 5821 0cca 39       		.byte	0x39
 5822 0ccb 1E       		.uleb128 0x1e
 5823 0ccc 01       		.uleb128 0x1
 5824 0ccd 52       		.byte	0x52
 5825 0cce 01       		.uleb128 0x1
 5826 0ccf 32       		.byte	0x32
 5827 0cd0 00       		.byte	0
 5828 0cd1 1D       		.uleb128 0x1d
 5829 0cd2 34000000 		.4byte	.LVL53
 5830 0cd6 860A0000 		.4byte	0xa86
 5831 0cda E50C0000 		.4byte	0xce5
 5832 0cde 1E       		.uleb128 0x1e
 5833 0cdf 01       		.uleb128 0x1
 5834 0ce0 50       		.byte	0x50
 5835 0ce1 02       		.uleb128 0x2
 5836 0ce2 74       		.byte	0x74
 5837 0ce3 00       		.sleb128 0
 5838 0ce4 00       		.byte	0
 5839 0ce5 1D       		.uleb128 0x1d
 5840 0ce6 3E000000 		.4byte	.LVL54
 5841 0cea 100A0000 		.4byte	0xa10
 5842 0cee 040D0000 		.4byte	0xd04
 5843 0cf2 1E       		.uleb128 0x1e
 5844 0cf3 01       		.uleb128 0x1
 5845 0cf4 50       		.byte	0x50
 5846 0cf5 02       		.uleb128 0x2
 5847 0cf6 74       		.byte	0x74
 5848 0cf7 00       		.sleb128 0
 5849 0cf8 1E       		.uleb128 0x1e
 5850 0cf9 01       		.uleb128 0x1
 5851 0cfa 51       		.byte	0x51
 5852 0cfb 02       		.uleb128 0x2
ARM GAS  C:\Users\Phuong\AppData\Local\Temp\ccmYXgep.s 			page 149


 5853 0cfc 08       		.byte	0x8
 5854 0cfd 37       		.byte	0x37
 5855 0cfe 1E       		.uleb128 0x1e
 5856 0cff 01       		.uleb128 0x1
 5857 0d00 52       		.byte	0x52
 5858 0d01 01       		.uleb128 0x1
 5859 0d02 34       		.byte	0x34
 5860 0d03 00       		.byte	0
 5861 0d04 1D       		.uleb128 0x1d
 5862 0d05 4C000000 		.4byte	.LVL56
 5863 0d09 530A0000 		.4byte	0xa53
 5864 0d0d 260D0000 		.4byte	0xd26
 5865 0d11 1E       		.uleb128 0x1e
 5866 0d12 01       		.uleb128 0x1
 5867 0d13 50       		.byte	0x50
 5868 0d14 02       		.uleb128 0x2
 5869 0d15 74       		.byte	0x74
 5870 0d16 00       		.sleb128 0
 5871 0d17 1E       		.uleb128 0x1e
 5872 0d18 01       		.uleb128 0x1
 5873 0d19 51       		.byte	0x51
 5874 0d1a 0A       		.uleb128 0xa
 5875 0d1b 75       		.byte	0x75
 5876 0d1c 00       		.sleb128 0
 5877 0d1d 03       		.byte	0x3
 5878 0d1e F0000000 		.4byte	.LANCHOR1
 5879 0d22 22       		.byte	0x22
 5880 0d23 94       		.byte	0x94
 5881 0d24 01       		.byte	0x1
 5882 0d25 00       		.byte	0
 5883 0d26 1D       		.uleb128 0x1d
 5884 0d27 5A000000 		.4byte	.LVL59
 5885 0d2b EC0A0000 		.4byte	0xaec
 5886 0d2f 3A0D0000 		.4byte	0xd3a
 5887 0d33 1E       		.uleb128 0x1e
 5888 0d34 01       		.uleb128 0x1
 5889 0d35 50       		.byte	0x50
 5890 0d36 02       		.uleb128 0x2
 5891 0d37 74       		.byte	0x74
 5892 0d38 00       		.sleb128 0
 5893 0d39 00       		.byte	0
 5894 0d3a 1F       		.uleb128 0x1f
 5895 0d3b 66000000 		.4byte	.LVL60
 5896 0d3f FE210000 		.4byte	0x21fe
 5897 0d43 1D       		.uleb128 0x1d
 5898 0d44 7A000000 		.4byte	.LVL61
 5899 0d48 09220000 		.4byte	0x2209
 5900 0d4c 5E0D0000 		.4byte	0xd5e
 5901 0d50 1E       		.uleb128 0x1e
 5902 0d51 01       		.uleb128 0x1
 5903 0d52 53       		.byte	0x53
 5904 0d53 02       		.uleb128 0x2
 5905 0d54 08       		.byte	0x8
 5906 0d55 43       		.byte	0x43
 5907 0d56 1E       		.uleb128 0x1e
 5908 0d57 02       		.uleb128 0x2
 5909 0d58 7D       		.byte	0x7d
ARM GAS  C:\Users\Phuong\AppData\Local\Temp\ccmYXgep.s 			page 150


 5910 0d59 00       		.sleb128 0
 5911 0d5a 02       		.uleb128 0x2
 5912 0d5b 77       		.byte	0x77
 5913 0d5c 00       		.sleb128 0
 5914 0d5d 00       		.byte	0
 5915 0d5e 20       		.uleb128 0x20
 5916 0d5f 80000000 		.4byte	.LVL62
 5917 0d63 E20B0000 		.4byte	0xbe2
 5918 0d67 1E       		.uleb128 0x1e
 5919 0d68 01       		.uleb128 0x1
 5920 0d69 50       		.byte	0x50
 5921 0d6a 02       		.uleb128 0x2
 5922 0d6b 74       		.byte	0x74
 5923 0d6c 00       		.sleb128 0
 5924 0d6d 00       		.byte	0
 5925 0d6e 00       		.byte	0
 5926 0d6f 21       		.uleb128 0x21
 5927 0d70 1C000000 		.4byte	.LASF209
 5928 0d74 01       		.byte	0x1
 5929 0d75 CD04     		.2byte	0x4cd
 5930 0d77 7C010000 		.4byte	0x17c
 5931 0d7b 00000000 		.4byte	.LFB73
 5932 0d7f D4000000 		.4byte	.LFE73-.LFB73
 5933 0d83 01       		.uleb128 0x1
 5934 0d84 9C       		.byte	0x9c
 5935 0d85 0F0F0000 		.4byte	0xf0f
 5936 0d89 19       		.uleb128 0x19
 5937 0d8a 5A000000 		.4byte	.LASF83
 5938 0d8e 01       		.byte	0x1
 5939 0d8f CD04     		.2byte	0x4cd
 5940 0d91 20030000 		.4byte	0x320
 5941 0d95 40020000 		.4byte	.LLST11
 5942 0d99 22       		.uleb128 0x22
 5943 0d9a A3010000 		.4byte	.LASF132
 5944 0d9e 01       		.byte	0x1
 5945 0d9f CF04     		.2byte	0x4cf
 5946 0da1 0A0A0000 		.4byte	0xa0a
 5947 0da5 6C020000 		.4byte	.LLST12
 5948 0da9 22       		.uleb128 0x22
 5949 0daa 4A040000 		.4byte	.LASF207
 5950 0dae 01       		.byte	0x1
 5951 0daf D004     		.2byte	0x4d0
 5952 0db1 7C010000 		.4byte	0x17c
 5953 0db5 7F020000 		.4byte	.LLST13
 5954 0db9 22       		.uleb128 0x22
 5955 0dba AA0F0000 		.4byte	.LASF208
 5956 0dbe 01       		.byte	0x1
 5957 0dbf D104     		.2byte	0x4d1
 5958 0dc1 E2000000 		.4byte	0xe2
 5959 0dc5 92020000 		.4byte	.LLST14
 5960 0dc9 1B       		.uleb128 0x1b
 5961 0dca 6900     		.ascii	"i\000"
 5962 0dcc 01       		.byte	0x1
 5963 0dcd D204     		.2byte	0x4d2
 5964 0dcf CC000000 		.4byte	0xcc
 5965 0dd3 A5020000 		.4byte	.LLST15
 5966 0dd7 1D       		.uleb128 0x1d
ARM GAS  C:\Users\Phuong\AppData\Local\Temp\ccmYXgep.s 			page 151


 5967 0dd8 10000000 		.4byte	.LVL71
 5968 0ddc D7090000 		.4byte	0x9d7
 5969 0de0 F00D0000 		.4byte	0xdf0
 5970 0de4 1E       		.uleb128 0x1e
 5971 0de5 01       		.uleb128 0x1
 5972 0de6 50       		.byte	0x50
 5973 0de7 02       		.uleb128 0x2
 5974 0de8 74       		.byte	0x74
 5975 0de9 00       		.sleb128 0
 5976 0dea 1E       		.uleb128 0x1e
 5977 0deb 01       		.uleb128 0x1
 5978 0dec 51       		.byte	0x51
 5979 0ded 01       		.uleb128 0x1
 5980 0dee 33       		.byte	0x33
 5981 0def 00       		.byte	0
 5982 0df0 1D       		.uleb128 0x1d
 5983 0df1 1A000000 		.4byte	.LVL72
 5984 0df5 110B0000 		.4byte	0xb11
 5985 0df9 0F0E0000 		.4byte	0xe0f
 5986 0dfd 1E       		.uleb128 0x1e
 5987 0dfe 01       		.uleb128 0x1
 5988 0dff 50       		.byte	0x50
 5989 0e00 02       		.uleb128 0x2
 5990 0e01 77       		.byte	0x77
 5991 0e02 00       		.sleb128 0
 5992 0e03 1E       		.uleb128 0x1e
 5993 0e04 01       		.uleb128 0x1
 5994 0e05 51       		.byte	0x51
 5995 0e06 02       		.uleb128 0x2
 5996 0e07 74       		.byte	0x74
 5997 0e08 00       		.sleb128 0
 5998 0e09 1E       		.uleb128 0x1e
 5999 0e0a 01       		.uleb128 0x1
 6000 0e0b 52       		.byte	0x52
 6001 0e0c 01       		.uleb128 0x1
 6002 0e0d 33       		.byte	0x33
 6003 0e0e 00       		.byte	0
 6004 0e0f 1D       		.uleb128 0x1d
 6005 0e10 28000000 		.4byte	.LVL75
 6006 0e14 100A0000 		.4byte	0xa10
 6007 0e18 2E0E0000 		.4byte	0xe2e
 6008 0e1c 1E       		.uleb128 0x1e
 6009 0e1d 01       		.uleb128 0x1
 6010 0e1e 50       		.byte	0x50
 6011 0e1f 02       		.uleb128 0x2
 6012 0e20 74       		.byte	0x74
 6013 0e21 00       		.sleb128 0
 6014 0e22 1E       		.uleb128 0x1e
 6015 0e23 01       		.uleb128 0x1
 6016 0e24 51       		.byte	0x51
 6017 0e25 02       		.uleb128 0x2
 6018 0e26 08       		.byte	0x8
 6019 0e27 39       		.byte	0x39
 6020 0e28 1E       		.uleb128 0x1e
 6021 0e29 01       		.uleb128 0x1
 6022 0e2a 52       		.byte	0x52
 6023 0e2b 01       		.uleb128 0x1
ARM GAS  C:\Users\Phuong\AppData\Local\Temp\ccmYXgep.s 			page 152


 6024 0e2c 32       		.byte	0x32
 6025 0e2d 00       		.byte	0
 6026 0e2e 1D       		.uleb128 0x1d
 6027 0e2f 32000000 		.4byte	.LVL76
 6028 0e33 860A0000 		.4byte	0xa86
 6029 0e37 490E0000 		.4byte	0xe49
 6030 0e3b 1E       		.uleb128 0x1e
 6031 0e3c 01       		.uleb128 0x1
 6032 0e3d 50       		.byte	0x50
 6033 0e3e 02       		.uleb128 0x2
 6034 0e3f 74       		.byte	0x74
 6035 0e40 00       		.sleb128 0
 6036 0e41 1E       		.uleb128 0x1e
 6037 0e42 01       		.uleb128 0x1
 6038 0e43 51       		.byte	0x51
 6039 0e44 03       		.uleb128 0x3
 6040 0e45 0A       		.byte	0xa
 6041 0e46 4002     		.2byte	0x240
 6042 0e48 00       		.byte	0
 6043 0e49 1D       		.uleb128 0x1d
 6044 0e4a 3C000000 		.4byte	.LVL77
 6045 0e4e 100A0000 		.4byte	0xa10
 6046 0e52 680E0000 		.4byte	0xe68
 6047 0e56 1E       		.uleb128 0x1e
 6048 0e57 01       		.uleb128 0x1
 6049 0e58 50       		.byte	0x50
 6050 0e59 02       		.uleb128 0x2
 6051 0e5a 74       		.byte	0x74
 6052 0e5b 00       		.sleb128 0
 6053 0e5c 1E       		.uleb128 0x1e
 6054 0e5d 01       		.uleb128 0x1
 6055 0e5e 51       		.byte	0x51
 6056 0e5f 02       		.uleb128 0x2
 6057 0e60 08       		.byte	0x8
 6058 0e61 32       		.byte	0x32
 6059 0e62 1E       		.uleb128 0x1e
 6060 0e63 01       		.uleb128 0x1
 6061 0e64 52       		.byte	0x52
 6062 0e65 01       		.uleb128 0x1
 6063 0e66 34       		.byte	0x34
 6064 0e67 00       		.byte	0
 6065 0e68 1F       		.uleb128 0x1f
 6066 0e69 42000000 		.4byte	.LVL78
 6067 0e6d E8210000 		.4byte	0x21e8
 6068 0e71 1D       		.uleb128 0x1d
 6069 0e72 4A000000 		.4byte	.LVL79
 6070 0e76 B90A0000 		.4byte	0xab9
 6071 0e7a 850E0000 		.4byte	0xe85
 6072 0e7e 1E       		.uleb128 0x1e
 6073 0e7f 01       		.uleb128 0x1
 6074 0e80 50       		.byte	0x50
 6075 0e81 02       		.uleb128 0x2
 6076 0e82 74       		.byte	0x74
 6077 0e83 00       		.sleb128 0
 6078 0e84 00       		.byte	0
 6079 0e85 1D       		.uleb128 0x1d
 6080 0e86 54000000 		.4byte	.LVL80
ARM GAS  C:\Users\Phuong\AppData\Local\Temp\ccmYXgep.s 			page 153


 6081 0e8a 100A0000 		.4byte	0xa10
 6082 0e8e A40E0000 		.4byte	0xea4
 6083 0e92 1E       		.uleb128 0x1e
 6084 0e93 01       		.uleb128 0x1
 6085 0e94 50       		.byte	0x50
 6086 0e95 02       		.uleb128 0x2
 6087 0e96 74       		.byte	0x74
 6088 0e97 00       		.sleb128 0
 6089 0e98 1E       		.uleb128 0x1e
 6090 0e99 01       		.uleb128 0x1
 6091 0e9a 51       		.byte	0x51
 6092 0e9b 02       		.uleb128 0x2
 6093 0e9c 08       		.byte	0x8
 6094 0e9d 37       		.byte	0x37
 6095 0e9e 1E       		.uleb128 0x1e
 6096 0e9f 01       		.uleb128 0x1
 6097 0ea0 52       		.byte	0x52
 6098 0ea1 01       		.uleb128 0x1
 6099 0ea2 34       		.byte	0x34
 6100 0ea3 00       		.byte	0
 6101 0ea4 1D       		.uleb128 0x1d
 6102 0ea5 62000000 		.4byte	.LVL82
 6103 0ea9 530A0000 		.4byte	0xa53
 6104 0ead C60E0000 		.4byte	0xec6
 6105 0eb1 1E       		.uleb128 0x1e
 6106 0eb2 01       		.uleb128 0x1
 6107 0eb3 50       		.byte	0x50
 6108 0eb4 02       		.uleb128 0x2
 6109 0eb5 74       		.byte	0x74
 6110 0eb6 00       		.sleb128 0
 6111 0eb7 1E       		.uleb128 0x1e
 6112 0eb8 01       		.uleb128 0x1
 6113 0eb9 51       		.byte	0x51
 6114 0eba 0A       		.uleb128 0xa
 6115 0ebb 75       		.byte	0x75
 6116 0ebc 00       		.sleb128 0
 6117 0ebd 03       		.byte	0x3
 6118 0ebe F0000000 		.4byte	.LANCHOR1
 6119 0ec2 22       		.byte	0x22
 6120 0ec3 94       		.byte	0x94
 6121 0ec4 01       		.byte	0x1
 6122 0ec5 00       		.byte	0
 6123 0ec6 1D       		.uleb128 0x1d
 6124 0ec7 70000000 		.4byte	.LVL85
 6125 0ecb EC0A0000 		.4byte	0xaec
 6126 0ecf DA0E0000 		.4byte	0xeda
 6127 0ed3 1E       		.uleb128 0x1e
 6128 0ed4 01       		.uleb128 0x1
 6129 0ed5 50       		.byte	0x50
 6130 0ed6 02       		.uleb128 0x2
 6131 0ed7 74       		.byte	0x74
 6132 0ed8 00       		.sleb128 0
 6133 0ed9 00       		.byte	0
 6134 0eda 1F       		.uleb128 0x1f
 6135 0edb 7C000000 		.4byte	.LVL86
 6136 0edf FE210000 		.4byte	0x21fe
 6137 0ee3 1D       		.uleb128 0x1d
ARM GAS  C:\Users\Phuong\AppData\Local\Temp\ccmYXgep.s 			page 154


 6138 0ee4 8C000000 		.4byte	.LVL87
 6139 0ee8 14220000 		.4byte	0x2214
 6140 0eec FE0E0000 		.4byte	0xefe
 6141 0ef0 1E       		.uleb128 0x1e
 6142 0ef1 01       		.uleb128 0x1
 6143 0ef2 53       		.byte	0x53
 6144 0ef3 02       		.uleb128 0x2
 6145 0ef4 08       		.byte	0x8
 6146 0ef5 43       		.byte	0x43
 6147 0ef6 1E       		.uleb128 0x1e
 6148 0ef7 02       		.uleb128 0x2
 6149 0ef8 7D       		.byte	0x7d
 6150 0ef9 00       		.sleb128 0
 6151 0efa 02       		.uleb128 0x2
 6152 0efb 77       		.byte	0x77
 6153 0efc 00       		.sleb128 0
 6154 0efd 00       		.byte	0
 6155 0efe 20       		.uleb128 0x20
 6156 0eff 92000000 		.4byte	.LVL88
 6157 0f03 E20B0000 		.4byte	0xbe2
 6158 0f07 1E       		.uleb128 0x1e
 6159 0f08 01       		.uleb128 0x1
 6160 0f09 50       		.byte	0x50
 6161 0f0a 02       		.uleb128 0x2
 6162 0f0b 74       		.byte	0x74
 6163 0f0c 00       		.sleb128 0
 6164 0f0d 00       		.byte	0
 6165 0f0e 00       		.byte	0
 6166 0f0f 17       		.uleb128 0x17
 6167 0f10 CF090000 		.4byte	.LASF210
 6168 0f14 01       		.byte	0x1
 6169 0f15 9305     		.2byte	0x593
 6170 0f17 00000000 		.4byte	.LFB81
 6171 0f1b 4A000000 		.4byte	.LFE81-.LFB81
 6172 0f1f 01       		.uleb128 0x1
 6173 0f20 9C       		.byte	0x9c
 6174 0f21 DD0F0000 		.4byte	0xfdd
 6175 0f25 19       		.uleb128 0x19
 6176 0f26 A3010000 		.4byte	.LASF132
 6177 0f2a 01       		.byte	0x1
 6178 0f2b 9305     		.2byte	0x593
 6179 0f2d 0A0A0000 		.4byte	0xa0a
 6180 0f31 CF020000 		.4byte	.LLST16
 6181 0f35 19       		.uleb128 0x19
 6182 0f36 5A000000 		.4byte	.LASF83
 6183 0f3a 01       		.byte	0x1
 6184 0f3b 9305     		.2byte	0x593
 6185 0f3d 20030000 		.4byte	0x320
 6186 0f41 EE020000 		.4byte	.LLST17
 6187 0f45 23       		.uleb128 0x23
 6188 0f46 0C000000 		.4byte	.LBB2
 6189 0f4a 3A000000 		.4byte	.LBE2-.LBB2
 6190 0f4e 22       		.uleb128 0x22
 6191 0f4f 93070000 		.4byte	.LASF211
 6192 0f53 01       		.byte	0x1
 6193 0f54 9605     		.2byte	0x596
 6194 0f56 76000000 		.4byte	0x76
ARM GAS  C:\Users\Phuong\AppData\Local\Temp\ccmYXgep.s 			page 155


 6195 0f5a 0F030000 		.4byte	.LLST18
 6196 0f5e 24       		.uleb128 0x24
 6197 0f5f 16000000 		.4byte	.LBB3
 6198 0f63 30000000 		.4byte	.LBE3-.LBB3
 6199 0f67 CB0F0000 		.4byte	0xfcb
 6200 0f6b 1B       		.uleb128 0x1b
 6201 0f6c 6C656E00 		.ascii	"len\000"
 6202 0f70 01       		.byte	0x1
 6203 0f71 9805     		.2byte	0x598
 6204 0f73 76000000 		.4byte	0x76
 6205 0f77 22030000 		.4byte	.LLST19
 6206 0f7b 1B       		.uleb128 0x1b
 6207 0f7c 7000     		.ascii	"p\000"
 6208 0f7e 01       		.byte	0x1
 6209 0f7f 9905     		.2byte	0x599
 6210 0f81 98000000 		.4byte	0x98
 6211 0f85 56030000 		.4byte	.LLST20
 6212 0f89 22       		.uleb128 0x22
 6213 0f8a C40B0000 		.4byte	.LASF212
 6214 0f8e 01       		.byte	0x1
 6215 0f8f 9C05     		.2byte	0x59c
 6216 0f91 76000000 		.4byte	0x76
 6217 0f95 7F030000 		.4byte	.LLST21
 6218 0f99 1D       		.uleb128 0x1d
 6219 0f9a 30000000 		.4byte	.LVL101
 6220 0f9e 100A0000 		.4byte	0xa10
 6221 0fa2 B90F0000 		.4byte	0xfb9
 6222 0fa6 1E       		.uleb128 0x1e
 6223 0fa7 01       		.uleb128 0x1
 6224 0fa8 50       		.byte	0x50
 6225 0fa9 03       		.uleb128 0x3
 6226 0faa 91       		.byte	0x91
 6227 0fab 64       		.sleb128 -28
 6228 0fac 06       		.byte	0x6
 6229 0fad 1E       		.uleb128 0x1e
 6230 0fae 01       		.uleb128 0x1
 6231 0faf 51       		.byte	0x51
 6232 0fb0 01       		.uleb128 0x1
 6233 0fb1 3C       		.byte	0x3c
 6234 0fb2 1E       		.uleb128 0x1e
 6235 0fb3 01       		.uleb128 0x1
 6236 0fb4 52       		.byte	0x52
 6237 0fb5 02       		.uleb128 0x2
 6238 0fb6 74       		.byte	0x74
 6239 0fb7 00       		.sleb128 0
 6240 0fb8 00       		.byte	0
 6241 0fb9 20       		.uleb128 0x20
 6242 0fba 3C000000 		.4byte	.LVL104
 6243 0fbe 530A0000 		.4byte	0xa53
 6244 0fc2 1E       		.uleb128 0x1e
 6245 0fc3 01       		.uleb128 0x1
 6246 0fc4 50       		.byte	0x50
 6247 0fc5 03       		.uleb128 0x3
 6248 0fc6 91       		.byte	0x91
 6249 0fc7 64       		.sleb128 -28
 6250 0fc8 06       		.byte	0x6
 6251 0fc9 00       		.byte	0
ARM GAS  C:\Users\Phuong\AppData\Local\Temp\ccmYXgep.s 			page 156


 6252 0fca 00       		.byte	0
 6253 0fcb 20       		.uleb128 0x20
 6254 0fcc 12000000 		.4byte	.LVL96
 6255 0fd0 1F220000 		.4byte	0x221f
 6256 0fd4 1E       		.uleb128 0x1e
 6257 0fd5 01       		.uleb128 0x1
 6258 0fd6 50       		.byte	0x50
 6259 0fd7 02       		.uleb128 0x2
 6260 0fd8 75       		.byte	0x75
 6261 0fd9 00       		.sleb128 0
 6262 0fda 00       		.byte	0
 6263 0fdb 00       		.byte	0
 6264 0fdc 00       		.byte	0
 6265 0fdd 21       		.uleb128 0x21
 6266 0fde C3090000 		.4byte	.LASF213
 6267 0fe2 01       		.byte	0x1
 6268 0fe3 9B04     		.2byte	0x49b
 6269 0fe5 7C010000 		.4byte	0x17c
 6270 0fe9 00000000 		.4byte	.LFB72
 6271 0fed C0000000 		.4byte	.LFE72-.LFB72
 6272 0ff1 01       		.uleb128 0x1
 6273 0ff2 9C       		.byte	0x9c
 6274 0ff3 54110000 		.4byte	0x1154
 6275 0ff7 19       		.uleb128 0x19
 6276 0ff8 5A000000 		.4byte	.LASF83
 6277 0ffc 01       		.byte	0x1
 6278 0ffd 9B04     		.2byte	0x49b
 6279 0fff 20030000 		.4byte	0x320
 6280 1003 92030000 		.4byte	.LLST22
 6281 1007 22       		.uleb128 0x22
 6282 1008 A3010000 		.4byte	.LASF132
 6283 100c 01       		.byte	0x1
 6284 100d 9D04     		.2byte	0x49d
 6285 100f 0A0A0000 		.4byte	0xa0a
 6286 1013 BE030000 		.4byte	.LLST23
 6287 1017 22       		.uleb128 0x22
 6288 1018 4A040000 		.4byte	.LASF207
 6289 101c 01       		.byte	0x1
 6290 101d 9E04     		.2byte	0x49e
 6291 101f 7C010000 		.4byte	0x17c
 6292 1023 D1030000 		.4byte	.LLST24
 6293 1027 22       		.uleb128 0x22
 6294 1028 AA0F0000 		.4byte	.LASF208
 6295 102c 01       		.byte	0x1
 6296 102d 9F04     		.2byte	0x49f
 6297 102f E2000000 		.4byte	0xe2
 6298 1033 E4030000 		.4byte	.LLST25
 6299 1037 1B       		.uleb128 0x1b
 6300 1038 6900     		.ascii	"i\000"
 6301 103a 01       		.byte	0x1
 6302 103b A004     		.2byte	0x4a0
 6303 103d CC000000 		.4byte	0xcc
 6304 1041 F7030000 		.4byte	.LLST26
 6305 1045 1D       		.uleb128 0x1d
 6306 1046 10000000 		.4byte	.LVL111
 6307 104a D7090000 		.4byte	0x9d7
 6308 104e 5E100000 		.4byte	0x105e
ARM GAS  C:\Users\Phuong\AppData\Local\Temp\ccmYXgep.s 			page 157


 6309 1052 1E       		.uleb128 0x1e
 6310 1053 01       		.uleb128 0x1
 6311 1054 50       		.byte	0x50
 6312 1055 02       		.uleb128 0x2
 6313 1056 74       		.byte	0x74
 6314 1057 00       		.sleb128 0
 6315 1058 1E       		.uleb128 0x1e
 6316 1059 01       		.uleb128 0x1
 6317 105a 51       		.byte	0x51
 6318 105b 01       		.uleb128 0x1
 6319 105c 34       		.byte	0x34
 6320 105d 00       		.byte	0
 6321 105e 1D       		.uleb128 0x1d
 6322 105f 1A000000 		.4byte	.LVL112
 6323 1063 110B0000 		.4byte	0xb11
 6324 1067 7D100000 		.4byte	0x107d
 6325 106b 1E       		.uleb128 0x1e
 6326 106c 01       		.uleb128 0x1
 6327 106d 50       		.byte	0x50
 6328 106e 02       		.uleb128 0x2
 6329 106f 77       		.byte	0x77
 6330 1070 00       		.sleb128 0
 6331 1071 1E       		.uleb128 0x1e
 6332 1072 01       		.uleb128 0x1
 6333 1073 51       		.byte	0x51
 6334 1074 02       		.uleb128 0x2
 6335 1075 74       		.byte	0x74
 6336 1076 00       		.sleb128 0
 6337 1077 1E       		.uleb128 0x1e
 6338 1078 01       		.uleb128 0x1
 6339 1079 52       		.byte	0x52
 6340 107a 01       		.uleb128 0x1
 6341 107b 33       		.byte	0x33
 6342 107c 00       		.byte	0
 6343 107d 1D       		.uleb128 0x1d
 6344 107e 28000000 		.4byte	.LVL115
 6345 1082 100A0000 		.4byte	0xa10
 6346 1086 9C100000 		.4byte	0x109c
 6347 108a 1E       		.uleb128 0x1e
 6348 108b 01       		.uleb128 0x1
 6349 108c 50       		.byte	0x50
 6350 108d 02       		.uleb128 0x2
 6351 108e 74       		.byte	0x74
 6352 108f 00       		.sleb128 0
 6353 1090 1E       		.uleb128 0x1e
 6354 1091 01       		.uleb128 0x1
 6355 1092 51       		.byte	0x51
 6356 1093 02       		.uleb128 0x2
 6357 1094 08       		.byte	0x8
 6358 1095 39       		.byte	0x39
 6359 1096 1E       		.uleb128 0x1e
 6360 1097 01       		.uleb128 0x1
 6361 1098 52       		.byte	0x52
 6362 1099 01       		.uleb128 0x1
 6363 109a 32       		.byte	0x32
 6364 109b 00       		.byte	0
 6365 109c 1D       		.uleb128 0x1d
ARM GAS  C:\Users\Phuong\AppData\Local\Temp\ccmYXgep.s 			page 158


 6366 109d 30000000 		.4byte	.LVL116
 6367 10a1 860A0000 		.4byte	0xa86
 6368 10a5 B0100000 		.4byte	0x10b0
 6369 10a9 1E       		.uleb128 0x1e
 6370 10aa 01       		.uleb128 0x1
 6371 10ab 50       		.byte	0x50
 6372 10ac 02       		.uleb128 0x2
 6373 10ad 74       		.byte	0x74
 6374 10ae 00       		.sleb128 0
 6375 10af 00       		.byte	0
 6376 10b0 1D       		.uleb128 0x1d
 6377 10b1 3A000000 		.4byte	.LVL117
 6378 10b5 100A0000 		.4byte	0xa10
 6379 10b9 CF100000 		.4byte	0x10cf
 6380 10bd 1E       		.uleb128 0x1e
 6381 10be 01       		.uleb128 0x1
 6382 10bf 50       		.byte	0x50
 6383 10c0 02       		.uleb128 0x2
 6384 10c1 74       		.byte	0x74
 6385 10c2 00       		.sleb128 0
 6386 10c3 1E       		.uleb128 0x1e
 6387 10c4 01       		.uleb128 0x1
 6388 10c5 51       		.byte	0x51
 6389 10c6 02       		.uleb128 0x2
 6390 10c7 08       		.byte	0x8
 6391 10c8 37       		.byte	0x37
 6392 10c9 1E       		.uleb128 0x1e
 6393 10ca 01       		.uleb128 0x1
 6394 10cb 52       		.byte	0x52
 6395 10cc 01       		.uleb128 0x1
 6396 10cd 34       		.byte	0x34
 6397 10ce 00       		.byte	0
 6398 10cf 1D       		.uleb128 0x1d
 6399 10d0 48000000 		.4byte	.LVL119
 6400 10d4 530A0000 		.4byte	0xa53
 6401 10d8 F1100000 		.4byte	0x10f1
 6402 10dc 1E       		.uleb128 0x1e
 6403 10dd 01       		.uleb128 0x1
 6404 10de 50       		.byte	0x50
 6405 10df 02       		.uleb128 0x2
 6406 10e0 74       		.byte	0x74
 6407 10e1 00       		.sleb128 0
 6408 10e2 1E       		.uleb128 0x1e
 6409 10e3 01       		.uleb128 0x1
 6410 10e4 51       		.byte	0x51
 6411 10e5 0A       		.uleb128 0xa
 6412 10e6 75       		.byte	0x75
 6413 10e7 00       		.sleb128 0
 6414 10e8 03       		.byte	0x3
 6415 10e9 F0000000 		.4byte	.LANCHOR1
 6416 10ed 22       		.byte	0x22
 6417 10ee 94       		.byte	0x94
 6418 10ef 01       		.byte	0x1
 6419 10f0 00       		.byte	0
 6420 10f1 1D       		.uleb128 0x1d
 6421 10f2 58000000 		.4byte	.LVL122
 6422 10f6 0F0F0000 		.4byte	0xf0f
ARM GAS  C:\Users\Phuong\AppData\Local\Temp\ccmYXgep.s 			page 159


 6423 10fa 0B110000 		.4byte	0x110b
 6424 10fe 1E       		.uleb128 0x1e
 6425 10ff 01       		.uleb128 0x1
 6426 1100 50       		.byte	0x50
 6427 1101 02       		.uleb128 0x2
 6428 1102 74       		.byte	0x74
 6429 1103 00       		.sleb128 0
 6430 1104 1E       		.uleb128 0x1e
 6431 1105 01       		.uleb128 0x1
 6432 1106 51       		.byte	0x51
 6433 1107 02       		.uleb128 0x2
 6434 1108 77       		.byte	0x77
 6435 1109 00       		.sleb128 0
 6436 110a 00       		.byte	0
 6437 110b 1D       		.uleb128 0x1d
 6438 110c 5E000000 		.4byte	.LVL123
 6439 1110 EC0A0000 		.4byte	0xaec
 6440 1114 1F110000 		.4byte	0x111f
 6441 1118 1E       		.uleb128 0x1e
 6442 1119 01       		.uleb128 0x1
 6443 111a 50       		.byte	0x50
 6444 111b 02       		.uleb128 0x2
 6445 111c 74       		.byte	0x74
 6446 111d 00       		.sleb128 0
 6447 111e 00       		.byte	0
 6448 111f 1F       		.uleb128 0x1f
 6449 1120 6A000000 		.4byte	.LVL124
 6450 1124 FE210000 		.4byte	0x21fe
 6451 1128 1D       		.uleb128 0x1d
 6452 1129 7A000000 		.4byte	.LVL125
 6453 112d 14220000 		.4byte	0x2214
 6454 1131 43110000 		.4byte	0x1143
 6455 1135 1E       		.uleb128 0x1e
 6456 1136 01       		.uleb128 0x1
 6457 1137 53       		.byte	0x53
 6458 1138 02       		.uleb128 0x2
 6459 1139 08       		.byte	0x8
 6460 113a 43       		.byte	0x43
 6461 113b 1E       		.uleb128 0x1e
 6462 113c 02       		.uleb128 0x2
 6463 113d 7D       		.byte	0x7d
 6464 113e 00       		.sleb128 0
 6465 113f 02       		.uleb128 0x2
 6466 1140 77       		.byte	0x77
 6467 1141 00       		.sleb128 0
 6468 1142 00       		.byte	0
 6469 1143 20       		.uleb128 0x20
 6470 1144 80000000 		.4byte	.LVL126
 6471 1148 E20B0000 		.4byte	0xbe2
 6472 114c 1E       		.uleb128 0x1e
 6473 114d 01       		.uleb128 0x1
 6474 114e 50       		.byte	0x50
 6475 114f 02       		.uleb128 0x2
 6476 1150 74       		.byte	0x74
 6477 1151 00       		.sleb128 0
 6478 1152 00       		.byte	0
 6479 1153 00       		.byte	0
ARM GAS  C:\Users\Phuong\AppData\Local\Temp\ccmYXgep.s 			page 160


 6480 1154 17       		.uleb128 0x17
 6481 1155 8B0B0000 		.4byte	.LASF214
 6482 1159 01       		.byte	0x1
 6483 115a 2E02     		.2byte	0x22e
 6484 115c 00000000 		.4byte	.LFB62
 6485 1160 2E000000 		.4byte	.LFE62-.LFB62
 6486 1164 01       		.uleb128 0x1
 6487 1165 9C       		.byte	0x9c
 6488 1166 94110000 		.4byte	0x1194
 6489 116a 19       		.uleb128 0x19
 6490 116b 5A000000 		.4byte	.LASF83
 6491 116f 01       		.byte	0x1
 6492 1170 2E02     		.2byte	0x22e
 6493 1172 20030000 		.4byte	0x320
 6494 1176 21040000 		.4byte	.LLST27
 6495 117a 22       		.uleb128 0x22
 6496 117b A3010000 		.4byte	.LASF132
 6497 117f 01       		.byte	0x1
 6498 1180 3002     		.2byte	0x230
 6499 1182 0A0A0000 		.4byte	0xa0a
 6500 1186 42040000 		.4byte	.LLST28
 6501 118a 1F       		.uleb128 0x1f
 6502 118b 1A000000 		.4byte	.LVL134
 6503 118f DD0F0000 		.4byte	0xfdd
 6504 1193 00       		.byte	0
 6505 1194 21       		.uleb128 0x21
 6506 1195 E4090000 		.4byte	.LASF215
 6507 1199 01       		.byte	0x1
 6508 119a 6001     		.2byte	0x160
 6509 119c 7C010000 		.4byte	0x17c
 6510 11a0 00000000 		.4byte	.LFB57
 6511 11a4 F8000000 		.4byte	.LFE57-.LFB57
 6512 11a8 01       		.uleb128 0x1
 6513 11a9 9C       		.byte	0x9c
 6514 11aa 83130000 		.4byte	0x1383
 6515 11ae 19       		.uleb128 0x19
 6516 11af 5A000000 		.4byte	.LASF83
 6517 11b3 01       		.byte	0x1
 6518 11b4 6001     		.2byte	0x160
 6519 11b6 20030000 		.4byte	0x320
 6520 11ba 55040000 		.4byte	.LLST29
 6521 11be 22       		.uleb128 0x22
 6522 11bf A3010000 		.4byte	.LASF132
 6523 11c3 01       		.byte	0x1
 6524 11c4 6201     		.2byte	0x162
 6525 11c6 0A0A0000 		.4byte	0xa0a
 6526 11ca 81040000 		.4byte	.LLST30
 6527 11ce 22       		.uleb128 0x22
 6528 11cf 4A040000 		.4byte	.LASF207
 6529 11d3 01       		.byte	0x1
 6530 11d4 6301     		.2byte	0x163
 6531 11d6 7C010000 		.4byte	0x17c
 6532 11da 94040000 		.4byte	.LLST31
 6533 11de 22       		.uleb128 0x22
 6534 11df AA0F0000 		.4byte	.LASF208
 6535 11e3 01       		.byte	0x1
 6536 11e4 6401     		.2byte	0x164
ARM GAS  C:\Users\Phuong\AppData\Local\Temp\ccmYXgep.s 			page 161


 6537 11e6 E2000000 		.4byte	0xe2
 6538 11ea A7040000 		.4byte	.LLST32
 6539 11ee 1B       		.uleb128 0x1b
 6540 11ef 6900     		.ascii	"i\000"
 6541 11f1 01       		.byte	0x1
 6542 11f2 6501     		.2byte	0x165
 6543 11f4 CC000000 		.4byte	0xcc
 6544 11f8 BA040000 		.4byte	.LLST33
 6545 11fc 1D       		.uleb128 0x1d
 6546 11fd 10000000 		.4byte	.LVL139
 6547 1201 D7090000 		.4byte	0x9d7
 6548 1205 15120000 		.4byte	0x1215
 6549 1209 1E       		.uleb128 0x1e
 6550 120a 01       		.uleb128 0x1
 6551 120b 50       		.byte	0x50
 6552 120c 02       		.uleb128 0x2
 6553 120d 74       		.byte	0x74
 6554 120e 00       		.sleb128 0
 6555 120f 1E       		.uleb128 0x1e
 6556 1210 01       		.uleb128 0x1
 6557 1211 51       		.byte	0x51
 6558 1212 01       		.uleb128 0x1
 6559 1213 31       		.byte	0x31
 6560 1214 00       		.byte	0
 6561 1215 1D       		.uleb128 0x1d
 6562 1216 1A000000 		.4byte	.LVL140
 6563 121a 110B0000 		.4byte	0xb11
 6564 121e 34120000 		.4byte	0x1234
 6565 1222 1E       		.uleb128 0x1e
 6566 1223 01       		.uleb128 0x1
 6567 1224 50       		.byte	0x50
 6568 1225 02       		.uleb128 0x2
 6569 1226 77       		.byte	0x77
 6570 1227 00       		.sleb128 0
 6571 1228 1E       		.uleb128 0x1e
 6572 1229 01       		.uleb128 0x1
 6573 122a 51       		.byte	0x51
 6574 122b 02       		.uleb128 0x2
 6575 122c 74       		.byte	0x74
 6576 122d 00       		.sleb128 0
 6577 122e 1E       		.uleb128 0x1e
 6578 122f 01       		.uleb128 0x1
 6579 1230 52       		.byte	0x52
 6580 1231 01       		.uleb128 0x1
 6581 1232 33       		.byte	0x33
 6582 1233 00       		.byte	0
 6583 1234 1D       		.uleb128 0x1d
 6584 1235 28000000 		.4byte	.LVL143
 6585 1239 100A0000 		.4byte	0xa10
 6586 123d 53120000 		.4byte	0x1253
 6587 1241 1E       		.uleb128 0x1e
 6588 1242 01       		.uleb128 0x1
 6589 1243 50       		.byte	0x50
 6590 1244 02       		.uleb128 0x2
 6591 1245 74       		.byte	0x74
 6592 1246 00       		.sleb128 0
 6593 1247 1E       		.uleb128 0x1e
ARM GAS  C:\Users\Phuong\AppData\Local\Temp\ccmYXgep.s 			page 162


 6594 1248 01       		.uleb128 0x1
 6595 1249 51       		.byte	0x51
 6596 124a 02       		.uleb128 0x2
 6597 124b 08       		.byte	0x8
 6598 124c 39       		.byte	0x39
 6599 124d 1E       		.uleb128 0x1e
 6600 124e 01       		.uleb128 0x1
 6601 124f 52       		.byte	0x52
 6602 1250 01       		.uleb128 0x1
 6603 1251 32       		.byte	0x32
 6604 1252 00       		.byte	0
 6605 1253 1D       		.uleb128 0x1d
 6606 1254 30000000 		.4byte	.LVL144
 6607 1258 860A0000 		.4byte	0xa86
 6608 125c 67120000 		.4byte	0x1267
 6609 1260 1E       		.uleb128 0x1e
 6610 1261 01       		.uleb128 0x1
 6611 1262 50       		.byte	0x50
 6612 1263 02       		.uleb128 0x2
 6613 1264 74       		.byte	0x74
 6614 1265 00       		.sleb128 0
 6615 1266 00       		.byte	0
 6616 1267 1D       		.uleb128 0x1d
 6617 1268 3A000000 		.4byte	.LVL145
 6618 126c 100A0000 		.4byte	0xa10
 6619 1270 86120000 		.4byte	0x1286
 6620 1274 1E       		.uleb128 0x1e
 6621 1275 01       		.uleb128 0x1
 6622 1276 50       		.byte	0x50
 6623 1277 02       		.uleb128 0x2
 6624 1278 74       		.byte	0x74
 6625 1279 00       		.sleb128 0
 6626 127a 1E       		.uleb128 0x1e
 6627 127b 01       		.uleb128 0x1
 6628 127c 51       		.byte	0x51
 6629 127d 02       		.uleb128 0x2
 6630 127e 08       		.byte	0x8
 6631 127f 32       		.byte	0x32
 6632 1280 1E       		.uleb128 0x1e
 6633 1281 01       		.uleb128 0x1
 6634 1282 52       		.byte	0x52
 6635 1283 01       		.uleb128 0x1
 6636 1284 34       		.byte	0x34
 6637 1285 00       		.byte	0
 6638 1286 1F       		.uleb128 0x1f
 6639 1287 40000000 		.4byte	.LVL146
 6640 128b E8210000 		.4byte	0x21e8
 6641 128f 1D       		.uleb128 0x1d
 6642 1290 48000000 		.4byte	.LVL147
 6643 1294 B90A0000 		.4byte	0xab9
 6644 1298 A3120000 		.4byte	0x12a3
 6645 129c 1E       		.uleb128 0x1e
 6646 129d 01       		.uleb128 0x1
 6647 129e 50       		.byte	0x50
 6648 129f 02       		.uleb128 0x2
 6649 12a0 74       		.byte	0x74
 6650 12a1 00       		.sleb128 0
ARM GAS  C:\Users\Phuong\AppData\Local\Temp\ccmYXgep.s 			page 163


 6651 12a2 00       		.byte	0
 6652 12a3 1D       		.uleb128 0x1d
 6653 12a4 52000000 		.4byte	.LVL148
 6654 12a8 100A0000 		.4byte	0xa10
 6655 12ac C2120000 		.4byte	0x12c2
 6656 12b0 1E       		.uleb128 0x1e
 6657 12b1 01       		.uleb128 0x1
 6658 12b2 50       		.byte	0x50
 6659 12b3 02       		.uleb128 0x2
 6660 12b4 74       		.byte	0x74
 6661 12b5 00       		.sleb128 0
 6662 12b6 1E       		.uleb128 0x1e
 6663 12b7 01       		.uleb128 0x1
 6664 12b8 51       		.byte	0x51
 6665 12b9 02       		.uleb128 0x2
 6666 12ba 08       		.byte	0x8
 6667 12bb 36       		.byte	0x36
 6668 12bc 1E       		.uleb128 0x1e
 6669 12bd 01       		.uleb128 0x1
 6670 12be 52       		.byte	0x52
 6671 12bf 01       		.uleb128 0x1
 6672 12c0 34       		.byte	0x34
 6673 12c1 00       		.byte	0
 6674 12c2 1F       		.uleb128 0x1f
 6675 12c3 58000000 		.4byte	.LVL149
 6676 12c7 E8210000 		.4byte	0x21e8
 6677 12cb 1D       		.uleb128 0x1d
 6678 12cc 60000000 		.4byte	.LVL150
 6679 12d0 B90A0000 		.4byte	0xab9
 6680 12d4 DF120000 		.4byte	0x12df
 6681 12d8 1E       		.uleb128 0x1e
 6682 12d9 01       		.uleb128 0x1
 6683 12da 50       		.byte	0x50
 6684 12db 02       		.uleb128 0x2
 6685 12dc 74       		.byte	0x74
 6686 12dd 00       		.sleb128 0
 6687 12de 00       		.byte	0
 6688 12df 1D       		.uleb128 0x1d
 6689 12e0 6A000000 		.4byte	.LVL151
 6690 12e4 100A0000 		.4byte	0xa10
 6691 12e8 FE120000 		.4byte	0x12fe
 6692 12ec 1E       		.uleb128 0x1e
 6693 12ed 01       		.uleb128 0x1
 6694 12ee 50       		.byte	0x50
 6695 12ef 02       		.uleb128 0x2
 6696 12f0 74       		.byte	0x74
 6697 12f1 00       		.sleb128 0
 6698 12f2 1E       		.uleb128 0x1e
 6699 12f3 01       		.uleb128 0x1
 6700 12f4 51       		.byte	0x51
 6701 12f5 02       		.uleb128 0x2
 6702 12f6 08       		.byte	0x8
 6703 12f7 37       		.byte	0x37
 6704 12f8 1E       		.uleb128 0x1e
 6705 12f9 01       		.uleb128 0x1
 6706 12fa 52       		.byte	0x52
 6707 12fb 01       		.uleb128 0x1
ARM GAS  C:\Users\Phuong\AppData\Local\Temp\ccmYXgep.s 			page 164


 6708 12fc 34       		.byte	0x34
 6709 12fd 00       		.byte	0
 6710 12fe 1D       		.uleb128 0x1d
 6711 12ff 78000000 		.4byte	.LVL153
 6712 1303 530A0000 		.4byte	0xa53
 6713 1307 20130000 		.4byte	0x1320
 6714 130b 1E       		.uleb128 0x1e
 6715 130c 01       		.uleb128 0x1
 6716 130d 50       		.byte	0x50
 6717 130e 02       		.uleb128 0x2
 6718 130f 74       		.byte	0x74
 6719 1310 00       		.sleb128 0
 6720 1311 1E       		.uleb128 0x1e
 6721 1312 01       		.uleb128 0x1
 6722 1313 51       		.byte	0x51
 6723 1314 0A       		.uleb128 0xa
 6724 1315 75       		.byte	0x75
 6725 1316 00       		.sleb128 0
 6726 1317 03       		.byte	0x3
 6727 1318 F0000000 		.4byte	.LANCHOR1
 6728 131c 22       		.byte	0x22
 6729 131d 94       		.byte	0x94
 6730 131e 01       		.byte	0x1
 6731 131f 00       		.byte	0
 6732 1320 1D       		.uleb128 0x1d
 6733 1321 88000000 		.4byte	.LVL156
 6734 1325 0F0F0000 		.4byte	0xf0f
 6735 1329 3A130000 		.4byte	0x133a
 6736 132d 1E       		.uleb128 0x1e
 6737 132e 01       		.uleb128 0x1
 6738 132f 50       		.byte	0x50
 6739 1330 02       		.uleb128 0x2
 6740 1331 74       		.byte	0x74
 6741 1332 00       		.sleb128 0
 6742 1333 1E       		.uleb128 0x1e
 6743 1334 01       		.uleb128 0x1
 6744 1335 51       		.byte	0x51
 6745 1336 02       		.uleb128 0x2
 6746 1337 77       		.byte	0x77
 6747 1338 00       		.sleb128 0
 6748 1339 00       		.byte	0
 6749 133a 1D       		.uleb128 0x1d
 6750 133b 8E000000 		.4byte	.LVL157
 6751 133f EC0A0000 		.4byte	0xaec
 6752 1343 4E130000 		.4byte	0x134e
 6753 1347 1E       		.uleb128 0x1e
 6754 1348 01       		.uleb128 0x1
 6755 1349 50       		.byte	0x50
 6756 134a 02       		.uleb128 0x2
 6757 134b 74       		.byte	0x74
 6758 134c 00       		.sleb128 0
 6759 134d 00       		.byte	0
 6760 134e 1F       		.uleb128 0x1f
 6761 134f 9A000000 		.4byte	.LVL158
 6762 1353 FE210000 		.4byte	0x21fe
 6763 1357 1D       		.uleb128 0x1d
 6764 1358 AE000000 		.4byte	.LVL159
ARM GAS  C:\Users\Phuong\AppData\Local\Temp\ccmYXgep.s 			page 165


 6765 135c 09220000 		.4byte	0x2209
 6766 1360 72130000 		.4byte	0x1372
 6767 1364 1E       		.uleb128 0x1e
 6768 1365 01       		.uleb128 0x1
 6769 1366 53       		.byte	0x53
 6770 1367 02       		.uleb128 0x2
 6771 1368 08       		.byte	0x8
 6772 1369 43       		.byte	0x43
 6773 136a 1E       		.uleb128 0x1e
 6774 136b 02       		.uleb128 0x2
 6775 136c 7D       		.byte	0x7d
 6776 136d 00       		.sleb128 0
 6777 136e 02       		.uleb128 0x2
 6778 136f 77       		.byte	0x77
 6779 1370 00       		.sleb128 0
 6780 1371 00       		.byte	0
 6781 1372 20       		.uleb128 0x20
 6782 1373 B4000000 		.4byte	.LVL160
 6783 1377 E20B0000 		.4byte	0xbe2
 6784 137b 1E       		.uleb128 0x1e
 6785 137c 01       		.uleb128 0x1
 6786 137d 50       		.byte	0x50
 6787 137e 02       		.uleb128 0x2
 6788 137f 74       		.byte	0x74
 6789 1380 00       		.sleb128 0
 6790 1381 00       		.byte	0
 6791 1382 00       		.byte	0
 6792 1383 17       		.uleb128 0x17
 6793 1384 B20B0000 		.4byte	.LASF216
 6794 1388 01       		.byte	0x1
 6795 1389 4001     		.2byte	0x140
 6796 138b 00000000 		.4byte	.LFB56
 6797 138f 44000000 		.4byte	.LFE56-.LFB56
 6798 1393 01       		.uleb128 0x1
 6799 1394 9C       		.byte	0x9c
 6800 1395 D3130000 		.4byte	0x13d3
 6801 1399 19       		.uleb128 0x19
 6802 139a 5A000000 		.4byte	.LASF83
 6803 139e 01       		.byte	0x1
 6804 139f 4001     		.2byte	0x140
 6805 13a1 20030000 		.4byte	0x320
 6806 13a5 E4040000 		.4byte	.LLST34
 6807 13a9 22       		.uleb128 0x22
 6808 13aa A3010000 		.4byte	.LASF132
 6809 13ae 01       		.byte	0x1
 6810 13af 4201     		.2byte	0x142
 6811 13b1 0A0A0000 		.4byte	0xa0a
 6812 13b5 10050000 		.4byte	.LLST35
 6813 13b9 1F       		.uleb128 0x1f
 6814 13ba 16000000 		.4byte	.LVL169
 6815 13be E8210000 		.4byte	0x21e8
 6816 13c2 20       		.uleb128 0x20
 6817 13c3 38000000 		.4byte	.LVL170
 6818 13c7 94110000 		.4byte	0x1194
 6819 13cb 1E       		.uleb128 0x1e
 6820 13cc 01       		.uleb128 0x1
 6821 13cd 50       		.byte	0x50
ARM GAS  C:\Users\Phuong\AppData\Local\Temp\ccmYXgep.s 			page 166


 6822 13ce 02       		.uleb128 0x2
 6823 13cf 76       		.byte	0x76
 6824 13d0 00       		.sleb128 0
 6825 13d1 00       		.byte	0
 6826 13d2 00       		.byte	0
 6827 13d3 25       		.uleb128 0x25
 6828 13d4 10090000 		.4byte	.LASF217
 6829 13d8 01       		.byte	0x1
 6830 13d9 F1       		.byte	0xf1
 6831 13da 00000000 		.4byte	.LFB54
 6832 13de 24000000 		.4byte	.LFE54-.LFB54
 6833 13e2 01       		.uleb128 0x1
 6834 13e3 9C       		.byte	0x9c
 6835 13e4 F2130000 		.4byte	0x13f2
 6836 13e8 1F       		.uleb128 0x1f
 6837 13e9 18000000 		.4byte	.LVL173
 6838 13ed 2A220000 		.4byte	0x222a
 6839 13f1 00       		.byte	0
 6840 13f2 26       		.uleb128 0x26
 6841 13f3 50030000 		.4byte	.LASF218
 6842 13f7 01       		.byte	0x1
 6843 13f8 D6       		.byte	0xd6
 6844 13f9 7C010000 		.4byte	0x17c
 6845 13fd 00000000 		.4byte	.LFB53
 6846 1401 5C000000 		.4byte	.LFE53-.LFB53
 6847 1405 01       		.uleb128 0x1
 6848 1406 9C       		.byte	0x9c
 6849 1407 61140000 		.4byte	0x1461
 6850 140b 1F       		.uleb128 0x1f
 6851 140c 0E000000 		.4byte	.LVL174
 6852 1410 35220000 		.4byte	0x2235
 6853 1414 1D       		.uleb128 0x1d
 6854 1415 28000000 		.4byte	.LVL175
 6855 1419 40220000 		.4byte	0x2240
 6856 141d 2E140000 		.4byte	0x142e
 6857 1421 1E       		.uleb128 0x1e
 6858 1422 01       		.uleb128 0x1
 6859 1423 51       		.byte	0x51
 6860 1424 02       		.uleb128 0x2
 6861 1425 75       		.byte	0x75
 6862 1426 00       		.sleb128 0
 6863 1427 1E       		.uleb128 0x1e
 6864 1428 01       		.uleb128 0x1
 6865 1429 52       		.byte	0x52
 6866 142a 02       		.uleb128 0x2
 6867 142b 08       		.byte	0x8
 6868 142c 44       		.byte	0x44
 6869 142d 00       		.byte	0
 6870 142e 1D       		.uleb128 0x1d
 6871 142f 34000000 		.4byte	.LVL176
 6872 1433 4B220000 		.4byte	0x224b
 6873 1437 48140000 		.4byte	0x1448
 6874 143b 1E       		.uleb128 0x1e
 6875 143c 01       		.uleb128 0x1
 6876 143d 51       		.byte	0x51
 6877 143e 02       		.uleb128 0x2
 6878 143f 75       		.byte	0x75
ARM GAS  C:\Users\Phuong\AppData\Local\Temp\ccmYXgep.s 			page 167


 6879 1440 00       		.sleb128 0
 6880 1441 1E       		.uleb128 0x1e
 6881 1442 01       		.uleb128 0x1
 6882 1443 52       		.byte	0x52
 6883 1444 02       		.uleb128 0x2
 6884 1445 08       		.byte	0x8
 6885 1446 43       		.byte	0x43
 6886 1447 00       		.byte	0
 6887 1448 20       		.uleb128 0x20
 6888 1449 3E000000 		.4byte	.LVL177
 6889 144d 56220000 		.4byte	0x2256
 6890 1451 1E       		.uleb128 0x1e
 6891 1452 01       		.uleb128 0x1
 6892 1453 51       		.byte	0x51
 6893 1454 05       		.uleb128 0x5
 6894 1455 03       		.byte	0x3
 6895 1456 00000000 		.4byte	dhcp_recv
 6896 145a 1E       		.uleb128 0x1e
 6897 145b 01       		.uleb128 0x1
 6898 145c 52       		.byte	0x52
 6899 145d 01       		.uleb128 0x1
 6900 145e 30       		.byte	0x30
 6901 145f 00       		.byte	0
 6902 1460 00       		.byte	0
 6903 1461 1A       		.uleb128 0x1a
 6904 1462 D8070000 		.4byte	.LASF219
 6905 1466 01       		.byte	0x1
 6906 1467 B405     		.2byte	0x5b4
 6907 1469 7C010000 		.4byte	0x17c
 6908 146d 00000000 		.4byte	.LFB82
 6909 1471 D8020000 		.4byte	.LFE82-.LFB82
 6910 1475 01       		.uleb128 0x1
 6911 1476 9C       		.byte	0x9c
 6912 1477 25160000 		.4byte	0x1625
 6913 147b 19       		.uleb128 0x19
 6914 147c A3010000 		.4byte	.LASF132
 6915 1480 01       		.byte	0x1
 6916 1481 B405     		.2byte	0x5b4
 6917 1483 0A0A0000 		.4byte	0xa0a
 6918 1487 23050000 		.4byte	.LLST36
 6919 148b 27       		.uleb128 0x27
 6920 148c 7000     		.ascii	"p\000"
 6921 148e 01       		.byte	0x1
 6922 148f B405     		.2byte	0x5b4
 6923 1491 AB020000 		.4byte	0x2ab
 6924 1495 68050000 		.4byte	.LLST37
 6925 1499 22       		.uleb128 0x22
 6926 149a 6C0B0000 		.4byte	.LASF167
 6927 149e 01       		.byte	0x1
 6928 149f B605     		.2byte	0x5b6
 6929 14a1 76010000 		.4byte	0x176
 6930 14a5 A9050000 		.4byte	.LLST38
 6931 14a9 22       		.uleb128 0x22
 6932 14aa 74040000 		.4byte	.LASF220
 6933 14ae 01       		.byte	0x1
 6934 14af B705     		.2byte	0x5b7
 6935 14b1 E2000000 		.4byte	0xe2
ARM GAS  C:\Users\Phuong\AppData\Local\Temp\ccmYXgep.s 			page 168


 6936 14b5 E0050000 		.4byte	.LLST39
 6937 14b9 22       		.uleb128 0x22
 6938 14ba E0020000 		.4byte	.LASF221
 6939 14be 01       		.byte	0x1
 6940 14bf B805     		.2byte	0x5b8
 6941 14c1 E2000000 		.4byte	0xe2
 6942 14c5 14060000 		.4byte	.LLST40
 6943 14c9 22       		.uleb128 0x22
 6944 14ca 3A010000 		.4byte	.LASF222
 6945 14ce 01       		.byte	0x1
 6946 14cf B905     		.2byte	0x5b9
 6947 14d1 E2000000 		.4byte	0xe2
 6948 14d5 5E060000 		.4byte	.LLST41
 6949 14d9 22       		.uleb128 0x22
 6950 14da DF0B0000 		.4byte	.LASF223
 6951 14de 01       		.byte	0x1
 6952 14df BA05     		.2byte	0x5ba
 6953 14e1 E2000000 		.4byte	0xe2
 6954 14e5 9F060000 		.4byte	.LLST42
 6955 14e9 1B       		.uleb128 0x1b
 6956 14ea 7100     		.ascii	"q\000"
 6957 14ec 01       		.byte	0x1
 6958 14ed BB05     		.2byte	0x5bb
 6959 14ef AB020000 		.4byte	0x2ab
 6960 14f3 D3060000 		.4byte	.LLST43
 6961 14f7 22       		.uleb128 0x22
 6962 14f8 940F0000 		.4byte	.LASF224
 6963 14fc 01       		.byte	0x1
 6964 14fd BC05     		.2byte	0x5bc
 6965 14ff 68000000 		.4byte	0x68
 6966 1503 6B070000 		.4byte	.LLST44
 6967 1507 22       		.uleb128 0x22
 6968 1508 740B0000 		.4byte	.LASF225
 6969 150c 01       		.byte	0x1
 6970 150d BD05     		.2byte	0x5bd
 6971 150f 68000000 		.4byte	0x68
 6972 1513 C6070000 		.4byte	.LLST45
 6973 1517 28       		.uleb128 0x28
 6974 1518 84000000 		.4byte	.LASF226
 6975 151c 01       		.byte	0x1
 6976 151d D105     		.2byte	0x5d1
 6977 151f 54000000 		.4byte	.L99
 6978 1523 28       		.uleb128 0x28
 6979 1524 B7070000 		.4byte	.LASF227
 6980 1528 01       		.byte	0x1
 6981 1529 3506     		.2byte	0x635
 6982 152b 64010000 		.4byte	.L120
 6983 152f 29       		.uleb128 0x29
 6984 1530 00000000 		.4byte	.Ldebug_ranges0+0
 6985 1534 E9150000 		.4byte	0x15e9
 6986 1538 1B       		.uleb128 0x1b
 6987 1539 6F7000   		.ascii	"op\000"
 6988 153c 01       		.byte	0x1
 6989 153d E005     		.2byte	0x5e0
 6990 153f CC000000 		.4byte	0xcc
 6991 1543 39080000 		.4byte	.LLST46
 6992 1547 1B       		.uleb128 0x1b
ARM GAS  C:\Users\Phuong\AppData\Local\Temp\ccmYXgep.s 			page 169


 6993 1548 6C656E00 		.ascii	"len\000"
 6994 154c 01       		.byte	0x1
 6995 154d E105     		.2byte	0x5e1
 6996 154f CC000000 		.4byte	0xcc
 6997 1553 4C080000 		.4byte	.LLST47
 6998 1557 22       		.uleb128 0x22
 6999 1558 66080000 		.4byte	.LASF228
 7000 155c 01       		.byte	0x1
 7001 155d E205     		.2byte	0x5e2
 7002 155f CC000000 		.4byte	0xcc
 7003 1563 8C080000 		.4byte	.LLST48
 7004 1567 22       		.uleb128 0x22
 7005 1568 33040000 		.4byte	.LASF229
 7006 156c 01       		.byte	0x1
 7007 156d E305     		.2byte	0x5e3
 7008 156f 68000000 		.4byte	0x68
 7009 1573 48090000 		.4byte	.LLST49
 7010 1577 22       		.uleb128 0x22
 7011 1578 C9000000 		.4byte	.LASF230
 7012 157c 01       		.byte	0x1
 7013 157d E405     		.2byte	0x5e4
 7014 157f E2000000 		.4byte	0xe2
 7015 1583 80090000 		.4byte	.LLST50
 7016 1587 23       		.uleb128 0x23
 7017 1588 5E010000 		.4byte	.LBB5
 7018 158c 8C000000 		.4byte	.LBE5-.LBB5
 7019 1590 2A       		.uleb128 0x2a
 7020 1591 36050000 		.4byte	.LASF199
 7021 1595 01       		.byte	0x1
 7022 1596 3306     		.2byte	0x633
 7023 1598 F8000000 		.4byte	0xf8
 7024 159c 02       		.uleb128 0x2
 7025 159d 91       		.byte	0x91
 7026 159e 54       		.sleb128 -44
 7027 159f 22       		.uleb128 0x22
 7028 15a0 BA060000 		.4byte	.LASF231
 7029 15a4 01       		.byte	0x1
 7030 15a5 3406     		.2byte	0x634
 7031 15a7 E2000000 		.4byte	0xe2
 7032 15ab A9090000 		.4byte	.LLST51
 7033 15af 1D       		.uleb128 0x1d
 7034 15b0 82010000 		.4byte	.LVL224
 7035 15b4 61220000 		.4byte	0x2261
 7036 15b8 D5150000 		.4byte	0x15d5
 7037 15bc 1E       		.uleb128 0x1e
 7038 15bd 01       		.uleb128 0x1
 7039 15be 50       		.byte	0x50
 7040 15bf 02       		.uleb128 0x2
 7041 15c0 7B       		.byte	0x7b
 7042 15c1 00       		.sleb128 0
 7043 15c2 1E       		.uleb128 0x1e
 7044 15c3 01       		.uleb128 0x1
 7045 15c4 51       		.byte	0x51
 7046 15c5 02       		.uleb128 0x2
 7047 15c6 91       		.byte	0x91
 7048 15c7 54       		.sleb128 -44
 7049 15c8 1E       		.uleb128 0x1e
ARM GAS  C:\Users\Phuong\AppData\Local\Temp\ccmYXgep.s 			page 170


 7050 15c9 01       		.uleb128 0x1
 7051 15ca 52       		.byte	0x52
 7052 15cb 02       		.uleb128 0x2
 7053 15cc 75       		.byte	0x75
 7054 15cd 00       		.sleb128 0
 7055 15ce 1E       		.uleb128 0x1e
 7056 15cf 01       		.uleb128 0x1
 7057 15d0 53       		.byte	0x53
 7058 15d1 02       		.uleb128 0x2
 7059 15d2 76       		.byte	0x76
 7060 15d3 00       		.sleb128 0
 7061 15d4 00       		.byte	0
 7062 15d5 1F       		.uleb128 0x1f
 7063 15d6 9A010000 		.4byte	.LVL225
 7064 15da E8210000 		.4byte	0x21e8
 7065 15de 1F       		.uleb128 0x1f
 7066 15df B8010000 		.4byte	.LVL233
 7067 15e3 E8210000 		.4byte	0x21e8
 7068 15e7 00       		.byte	0
 7069 15e8 00       		.byte	0
 7070 15e9 24       		.uleb128 0x24
 7071 15ea 2E020000 		.4byte	.LBB6
 7072 15ee 2A000000 		.4byte	.LBE6-.LBB6
 7073 15f2 07160000 		.4byte	0x1607
 7074 15f6 22       		.uleb128 0x22
 7075 15f7 760C0000 		.4byte	.LASF232
 7076 15fb 01       		.byte	0x1
 7077 15fc 5E06     		.2byte	0x65e
 7078 15fe F8000000 		.4byte	0xf8
 7079 1602 C7090000 		.4byte	.LLST52
 7080 1606 00       		.byte	0
 7081 1607 20       		.uleb128 0x20
 7082 1608 1E000000 		.4byte	.LVL182
 7083 160c 6C220000 		.4byte	0x226c
 7084 1610 1E       		.uleb128 0x1e
 7085 1611 01       		.uleb128 0x1
 7086 1612 50       		.byte	0x50
 7087 1613 05       		.uleb128 0x5
 7088 1614 03       		.byte	0x3
 7089 1615 00000000 		.4byte	dhcp_rx_options_given
 7090 1619 1E       		.uleb128 0x1e
 7091 161a 01       		.uleb128 0x1
 7092 161b 51       		.byte	0x51
 7093 161c 01       		.uleb128 0x1
 7094 161d 30       		.byte	0x30
 7095 161e 1E       		.uleb128 0x1e
 7096 161f 01       		.uleb128 0x1
 7097 1620 52       		.byte	0x52
 7098 1621 01       		.uleb128 0x1
 7099 1622 3A       		.byte	0x3a
 7100 1623 00       		.byte	0
 7101 1624 00       		.byte	0
 7102 1625 17       		.uleb128 0x17
 7103 1626 14040000 		.4byte	.LASF233
 7104 162a 01       		.byte	0x1
 7105 162b 4902     		.2byte	0x249
 7106 162d 00000000 		.4byte	.LFB63
ARM GAS  C:\Users\Phuong\AppData\Local\Temp\ccmYXgep.s 			page 171


 7107 1631 CC000000 		.4byte	.LFE63-.LFB63
 7108 1635 01       		.uleb128 0x1
 7109 1636 9C       		.byte	0x9c
 7110 1637 B8160000 		.4byte	0x16b8
 7111 163b 19       		.uleb128 0x19
 7112 163c 5A000000 		.4byte	.LASF83
 7113 1640 01       		.byte	0x1
 7114 1641 4902     		.2byte	0x249
 7115 1643 20030000 		.4byte	0x320
 7116 1647 1D0A0000 		.4byte	.LLST53
 7117 164b 22       		.uleb128 0x22
 7118 164c A3010000 		.4byte	.LASF132
 7119 1650 01       		.byte	0x1
 7120 1651 4B02     		.2byte	0x24b
 7121 1653 0A0A0000 		.4byte	0xa0a
 7122 1657 3E0A0000 		.4byte	.LLST54
 7123 165b 1B       		.uleb128 0x1b
 7124 165c 6E00     		.ascii	"n\000"
 7125 165e 01       		.byte	0x1
 7126 165f 4E02     		.2byte	0x24e
 7127 1661 CC000000 		.4byte	0xcc
 7128 1665 510A0000 		.4byte	.LLST55
 7129 1669 24       		.uleb128 0x24
 7130 166a 96000000 		.4byte	.LBB8
 7131 166e 14000000 		.4byte	.LBE8-.LBB8
 7132 1672 A5160000 		.4byte	0x16a5
 7133 1676 2A       		.uleb128 0x2a
 7134 1677 680F0000 		.4byte	.LASF234
 7135 167b 01       		.byte	0x1
 7136 167c 9402     		.2byte	0x294
 7137 167e D5020000 		.4byte	0x2d5
 7138 1682 02       		.uleb128 0x2
 7139 1683 91       		.byte	0x91
 7140 1684 6C       		.sleb128 -20
 7141 1685 1F       		.uleb128 0x1f
 7142 1686 A0000000 		.4byte	.LVL271
 7143 168a E8210000 		.4byte	0x21e8
 7144 168e 20       		.uleb128 0x20
 7145 168f AA000000 		.4byte	.LVL272
 7146 1693 75220000 		.4byte	0x2275
 7147 1697 1E       		.uleb128 0x1e
 7148 1698 01       		.uleb128 0x1
 7149 1699 50       		.byte	0x50
 7150 169a 02       		.uleb128 0x2
 7151 169b 74       		.byte	0x74
 7152 169c 00       		.sleb128 0
 7153 169d 1E       		.uleb128 0x1e
 7154 169e 01       		.uleb128 0x1
 7155 169f 51       		.byte	0x51
 7156 16a0 02       		.uleb128 0x2
 7157 16a1 91       		.byte	0x91
 7158 16a2 6C       		.sleb128 -20
 7159 16a3 00       		.byte	0
 7160 16a4 00       		.byte	0
 7161 16a5 1F       		.uleb128 0x1f
 7162 16a6 74000000 		.4byte	.LVL267
 7163 16aa E8210000 		.4byte	0x21e8
ARM GAS  C:\Users\Phuong\AppData\Local\Temp\ccmYXgep.s 			page 172


 7164 16ae 1F       		.uleb128 0x1f
 7165 16af 90000000 		.4byte	.LVL268
 7166 16b3 E8210000 		.4byte	0x21e8
 7167 16b7 00       		.byte	0
 7168 16b8 2B       		.uleb128 0x2b
 7169 16b9 EA0E0000 		.4byte	.LASF235
 7170 16bd 01       		.byte	0x1
 7171 16be F903     		.2byte	0x3f9
 7172 16c0 00000000 		.4byte	.LFB70
 7173 16c4 F4000000 		.4byte	.LFE70-.LFB70
 7174 16c8 01       		.uleb128 0x1
 7175 16c9 9C       		.byte	0x9c
 7176 16ca 76170000 		.4byte	0x1776
 7177 16ce 19       		.uleb128 0x19
 7178 16cf 5A000000 		.4byte	.LASF83
 7179 16d3 01       		.byte	0x1
 7180 16d4 F903     		.2byte	0x3f9
 7181 16d6 20030000 		.4byte	0x320
 7182 16da 6F0A0000 		.4byte	.LLST56
 7183 16de 22       		.uleb128 0x22
 7184 16df B80A0000 		.4byte	.LASF236
 7185 16e3 01       		.byte	0x1
 7186 16e4 FB03     		.2byte	0x3fb
 7187 16e6 F8000000 		.4byte	0xf8
 7188 16ea 9B0A0000 		.4byte	.LLST57
 7189 16ee 22       		.uleb128 0x22
 7190 16ef A3010000 		.4byte	.LASF132
 7191 16f3 01       		.byte	0x1
 7192 16f4 FC03     		.2byte	0x3fc
 7193 16f6 0A0A0000 		.4byte	0xa0a
 7194 16fa C40A0000 		.4byte	.LLST58
 7195 16fe 2A       		.uleb128 0x2a
 7196 16ff F9000000 		.4byte	.LASF237
 7197 1703 01       		.byte	0x1
 7198 1704 FD03     		.2byte	0x3fd
 7199 1706 CA020000 		.4byte	0x2ca
 7200 170a 02       		.uleb128 0x2
 7201 170b 91       		.byte	0x91
 7202 170c 6C       		.sleb128 -20
 7203 170d 2A       		.uleb128 0x2a
 7204 170e BE010000 		.4byte	.LASF238
 7205 1712 01       		.byte	0x1
 7206 1713 FD03     		.2byte	0x3fd
 7207 1715 CA020000 		.4byte	0x2ca
 7208 1719 02       		.uleb128 0x2
 7209 171a 91       		.byte	0x91
 7210 171b 68       		.sleb128 -24
 7211 171c 24       		.uleb128 0x24
 7212 171d 9C000000 		.4byte	.LBB9
 7213 1721 1E000000 		.4byte	.LBE9-.LBB9
 7214 1725 3A170000 		.4byte	0x173a
 7215 1729 22       		.uleb128 0x22
 7216 172a BB0D0000 		.4byte	.LASF239
 7217 172e 01       		.byte	0x1
 7218 172f 3C04     		.2byte	0x43c
 7219 1731 CC000000 		.4byte	0xcc
 7220 1735 D70A0000 		.4byte	.LLST59
ARM GAS  C:\Users\Phuong\AppData\Local\Temp\ccmYXgep.s 			page 173


 7221 1739 00       		.byte	0
 7222 173a 1D       		.uleb128 0x1d
 7223 173b D8000000 		.4byte	.LVL295
 7224 173f D7090000 		.4byte	0x9d7
 7225 1743 53170000 		.4byte	0x1753
 7226 1747 1E       		.uleb128 0x1e
 7227 1748 01       		.uleb128 0x1
 7228 1749 50       		.byte	0x50
 7229 174a 02       		.uleb128 0x2
 7230 174b 74       		.byte	0x74
 7231 174c 00       		.sleb128 0
 7232 174d 1E       		.uleb128 0x1e
 7233 174e 01       		.uleb128 0x1
 7234 174f 51       		.byte	0x51
 7235 1750 01       		.uleb128 0x1
 7236 1751 3A       		.byte	0x3a
 7237 1752 00       		.byte	0
 7238 1753 20       		.uleb128 0x20
 7239 1754 E6000000 		.4byte	.LVL296
 7240 1758 80220000 		.4byte	0x2280
 7241 175c 1E       		.uleb128 0x1e
 7242 175d 01       		.uleb128 0x1
 7243 175e 50       		.byte	0x50
 7244 175f 02       		.uleb128 0x2
 7245 1760 75       		.byte	0x75
 7246 1761 00       		.sleb128 0
 7247 1762 1E       		.uleb128 0x1e
 7248 1763 01       		.uleb128 0x1
 7249 1764 51       		.byte	0x51
 7250 1765 02       		.uleb128 0x2
 7251 1766 74       		.byte	0x74
 7252 1767 28       		.sleb128 40
 7253 1768 1E       		.uleb128 0x1e
 7254 1769 01       		.uleb128 0x1
 7255 176a 52       		.byte	0x52
 7256 176b 02       		.uleb128 0x2
 7257 176c 91       		.byte	0x91
 7258 176d 6C       		.sleb128 -20
 7259 176e 1E       		.uleb128 0x1e
 7260 176f 01       		.uleb128 0x1
 7261 1770 53       		.byte	0x53
 7262 1771 02       		.uleb128 0x2
 7263 1772 7D       		.byte	0x7d
 7264 1773 00       		.sleb128 0
 7265 1774 00       		.byte	0
 7266 1775 00       		.byte	0
 7267 1776 17       		.uleb128 0x17
 7268 1777 7B040000 		.4byte	.LASF240
 7269 177b 01       		.byte	0x1
 7270 177c 0901     		.2byte	0x109
 7271 177e 00000000 		.4byte	.LFB55
 7272 1782 24000000 		.4byte	.LFE55-.LFB55
 7273 1786 01       		.uleb128 0x1
 7274 1787 9C       		.byte	0x9c
 7275 1788 E4170000 		.4byte	0x17e4
 7276 178c 19       		.uleb128 0x19
 7277 178d 5A000000 		.4byte	.LASF83
ARM GAS  C:\Users\Phuong\AppData\Local\Temp\ccmYXgep.s 			page 174


 7278 1791 01       		.byte	0x1
 7279 1792 0901     		.2byte	0x109
 7280 1794 20030000 		.4byte	0x320
 7281 1798 210B0000 		.4byte	.LLST60
 7282 179c 22       		.uleb128 0x22
 7283 179d A3010000 		.4byte	.LASF132
 7284 17a1 01       		.byte	0x1
 7285 17a2 0B01     		.2byte	0x10b
 7286 17a4 0A0A0000 		.4byte	0xa0a
 7287 17a8 4D0B0000 		.4byte	.LLST61
 7288 17ac 1D       		.uleb128 0x1d
 7289 17ad 0C000000 		.4byte	.LVL301
 7290 17b1 D7090000 		.4byte	0x9d7
 7291 17b5 BF170000 		.4byte	0x17bf
 7292 17b9 1E       		.uleb128 0x1e
 7293 17ba 01       		.uleb128 0x1
 7294 17bb 51       		.byte	0x51
 7295 17bc 01       		.uleb128 0x1
 7296 17bd 3C       		.byte	0x3c
 7297 17be 00       		.byte	0
 7298 17bf 1D       		.uleb128 0x1d
 7299 17c0 18000000 		.4byte	.LVL302
 7300 17c4 80220000 		.4byte	0x2280
 7301 17c8 D3170000 		.4byte	0x17d3
 7302 17cc 1E       		.uleb128 0x1e
 7303 17cd 01       		.uleb128 0x1
 7304 17ce 50       		.byte	0x50
 7305 17cf 02       		.uleb128 0x2
 7306 17d0 74       		.byte	0x74
 7307 17d1 00       		.sleb128 0
 7308 17d2 00       		.byte	0
 7309 17d3 20       		.uleb128 0x20
 7310 17d4 1E000000 		.4byte	.LVL303
 7311 17d8 120C0000 		.4byte	0xc12
 7312 17dc 1E       		.uleb128 0x1e
 7313 17dd 01       		.uleb128 0x1
 7314 17de 50       		.byte	0x50
 7315 17df 02       		.uleb128 0x2
 7316 17e0 74       		.byte	0x74
 7317 17e1 00       		.sleb128 0
 7318 17e2 00       		.byte	0
 7319 17e3 00       		.byte	0
 7320 17e4 17       		.uleb128 0x17
 7321 17e5 F00D0000 		.4byte	.LASF241
 7322 17e9 01       		.byte	0x1
 7323 17ea 8E06     		.2byte	0x68e
 7324 17ec 00000000 		.4byte	.LFB83
 7325 17f0 00010000 		.4byte	.LFE83-.LFB83
 7326 17f4 01       		.uleb128 0x1
 7327 17f5 9C       		.byte	0x9c
 7328 17f6 4D190000 		.4byte	0x194d
 7329 17fa 27       		.uleb128 0x27
 7330 17fb 61726700 		.ascii	"arg\000"
 7331 17ff 01       		.byte	0x1
 7332 1800 8E06     		.2byte	0x68e
 7333 1802 88000000 		.4byte	0x88
 7334 1806 6C0B0000 		.4byte	.LLST62
ARM GAS  C:\Users\Phuong\AppData\Local\Temp\ccmYXgep.s 			page 175


 7335 180a 27       		.uleb128 0x27
 7336 180b 70636200 		.ascii	"pcb\000"
 7337 180f 01       		.byte	0x1
 7338 1810 8E06     		.2byte	0x68e
 7339 1812 3B060000 		.4byte	0x63b
 7340 1816 8D0B0000 		.4byte	.LLST63
 7341 181a 27       		.uleb128 0x27
 7342 181b 7000     		.ascii	"p\000"
 7343 181d 01       		.byte	0x1
 7344 181e 8E06     		.2byte	0x68e
 7345 1820 AB020000 		.4byte	0x2ab
 7346 1824 AE0B0000 		.4byte	.LLST64
 7347 1828 19       		.uleb128 0x19
 7348 1829 050E0000 		.4byte	.LASF73
 7349 182d 01       		.byte	0x1
 7350 182e 8E06     		.2byte	0x68e
 7351 1830 EA060000 		.4byte	0x6ea
 7352 1834 DA0B0000 		.4byte	.LLST65
 7353 1838 18       		.uleb128 0x18
 7354 1839 590D0000 		.4byte	.LASF242
 7355 183d 01       		.byte	0x1
 7356 183e 8E06     		.2byte	0x68e
 7357 1840 E2000000 		.4byte	0xe2
 7358 1844 02       		.uleb128 0x2
 7359 1845 91       		.byte	0x91
 7360 1846 00       		.sleb128 0
 7361 1847 22       		.uleb128 0x22
 7362 1848 5A000000 		.4byte	.LASF83
 7363 184c 01       		.byte	0x1
 7364 184d 9006     		.2byte	0x690
 7365 184f 20030000 		.4byte	0x320
 7366 1853 FB0B0000 		.4byte	.LLST66
 7367 1857 22       		.uleb128 0x22
 7368 1858 A3010000 		.4byte	.LASF132
 7369 185c 01       		.byte	0x1
 7370 185d 9106     		.2byte	0x691
 7371 185f 0A0A0000 		.4byte	0xa0a
 7372 1863 0E0C0000 		.4byte	.LLST67
 7373 1867 22       		.uleb128 0x22
 7374 1868 D7060000 		.4byte	.LASF243
 7375 186c 01       		.byte	0x1
 7376 186d 9206     		.2byte	0x692
 7377 186f E3080000 		.4byte	0x8e3
 7378 1873 210C0000 		.4byte	.LLST68
 7379 1877 22       		.uleb128 0x22
 7380 1878 C80C0000 		.4byte	.LASF244
 7381 187c 01       		.byte	0x1
 7382 187d 9306     		.2byte	0x693
 7383 187f CC000000 		.4byte	0xcc
 7384 1883 340C0000 		.4byte	.LLST69
 7385 1887 1B       		.uleb128 0x1b
 7386 1888 6900     		.ascii	"i\000"
 7387 188a 01       		.byte	0x1
 7388 188b 9406     		.2byte	0x694
 7389 188d CC000000 		.4byte	0xcc
 7390 1891 680C0000 		.4byte	.LLST70
 7391 1895 28       		.uleb128 0x28
ARM GAS  C:\Users\Phuong\AppData\Local\Temp\ccmYXgep.s 			page 176


 7392 1896 21050000 		.4byte	.LASF245
 7393 189a 01       		.byte	0x1
 7394 189b FB06     		.2byte	0x6fb
 7395 189d E2000000 		.4byte	.L199
 7396 18a1 1F       		.uleb128 0x1f
 7397 18a2 64000000 		.4byte	.LVL314
 7398 18a6 E8210000 		.4byte	0x21e8
 7399 18aa 1D       		.uleb128 0x1d
 7400 18ab 72000000 		.4byte	.LVL315
 7401 18af 61140000 		.4byte	0x1461
 7402 18b3 C4180000 		.4byte	0x18c4
 7403 18b7 1E       		.uleb128 0x1e
 7404 18b8 01       		.uleb128 0x1
 7405 18b9 50       		.byte	0x50
 7406 18ba 02       		.uleb128 0x2
 7407 18bb 74       		.byte	0x74
 7408 18bc 00       		.sleb128 0
 7409 18bd 1E       		.uleb128 0x1e
 7410 18be 01       		.uleb128 0x1
 7411 18bf 51       		.byte	0x51
 7412 18c0 02       		.uleb128 0x2
 7413 18c1 75       		.byte	0x75
 7414 18c2 00       		.sleb128 0
 7415 18c3 00       		.byte	0
 7416 18c4 1D       		.uleb128 0x1d
 7417 18c5 92000000 		.4byte	.LVL317
 7418 18c9 25160000 		.4byte	0x1625
 7419 18cd D8180000 		.4byte	0x18d8
 7420 18d1 1E       		.uleb128 0x1e
 7421 18d2 01       		.uleb128 0x1
 7422 18d3 50       		.byte	0x50
 7423 18d4 02       		.uleb128 0x2
 7424 18d5 76       		.byte	0x76
 7425 18d6 00       		.sleb128 0
 7426 18d7 00       		.byte	0
 7427 18d8 1D       		.uleb128 0x1d
 7428 18d9 98000000 		.4byte	.LVL318
 7429 18dd B8160000 		.4byte	0x16b8
 7430 18e1 EC180000 		.4byte	0x18ec
 7431 18e5 1E       		.uleb128 0x1e
 7432 18e6 01       		.uleb128 0x1
 7433 18e7 50       		.byte	0x50
 7434 18e8 02       		.uleb128 0x2
 7435 18e9 76       		.byte	0x76
 7436 18ea 00       		.sleb128 0
 7437 18eb 00       		.byte	0
 7438 18ec 1D       		.uleb128 0x1d
 7439 18ed A8000000 		.4byte	.LVL320
 7440 18f1 25160000 		.4byte	0x1625
 7441 18f5 00190000 		.4byte	0x1900
 7442 18f9 1E       		.uleb128 0x1e
 7443 18fa 01       		.uleb128 0x1
 7444 18fb 50       		.byte	0x50
 7445 18fc 02       		.uleb128 0x2
 7446 18fd 76       		.byte	0x76
 7447 18fe 00       		.sleb128 0
 7448 18ff 00       		.byte	0
ARM GAS  C:\Users\Phuong\AppData\Local\Temp\ccmYXgep.s 			page 177


 7449 1900 1D       		.uleb128 0x1d
 7450 1901 AE000000 		.4byte	.LVL321
 7451 1905 B8160000 		.4byte	0x16b8
 7452 1909 14190000 		.4byte	0x1914
 7453 190d 1E       		.uleb128 0x1e
 7454 190e 01       		.uleb128 0x1
 7455 190f 50       		.byte	0x50
 7456 1910 02       		.uleb128 0x2
 7457 1911 76       		.byte	0x76
 7458 1912 00       		.sleb128 0
 7459 1913 00       		.byte	0
 7460 1914 1D       		.uleb128 0x1d
 7461 1915 CC000000 		.4byte	.LVL323
 7462 1919 76170000 		.4byte	0x1776
 7463 191d 28190000 		.4byte	0x1928
 7464 1921 1E       		.uleb128 0x1e
 7465 1922 01       		.uleb128 0x1
 7466 1923 50       		.byte	0x50
 7467 1924 02       		.uleb128 0x2
 7468 1925 76       		.byte	0x76
 7469 1926 00       		.sleb128 0
 7470 1927 00       		.byte	0
 7471 1928 1D       		.uleb128 0x1d
 7472 1929 E2000000 		.4byte	.LVL325
 7473 192d 83130000 		.4byte	0x1383
 7474 1931 3C190000 		.4byte	0x193c
 7475 1935 1E       		.uleb128 0x1e
 7476 1936 01       		.uleb128 0x1
 7477 1937 50       		.byte	0x50
 7478 1938 02       		.uleb128 0x2
 7479 1939 76       		.byte	0x76
 7480 193a 00       		.sleb128 0
 7481 193b 00       		.byte	0
 7482 193c 20       		.uleb128 0x20
 7483 193d F0000000 		.4byte	.LVL326
 7484 1941 F3210000 		.4byte	0x21f3
 7485 1945 1E       		.uleb128 0x1e
 7486 1946 01       		.uleb128 0x1
 7487 1947 50       		.byte	0x50
 7488 1948 02       		.uleb128 0x2
 7489 1949 75       		.byte	0x75
 7490 194a 00       		.sleb128 0
 7491 194b 00       		.byte	0
 7492 194c 00       		.byte	0
 7493 194d 2C       		.uleb128 0x2c
 7494 194e 97060000 		.4byte	.LASF246
 7495 1952 01       		.byte	0x1
 7496 1953 A402     		.2byte	0x2a4
 7497 1955 00000000 		.4byte	.LFB64
 7498 1959 14000000 		.4byte	.LFE64-.LFB64
 7499 195d 01       		.uleb128 0x1
 7500 195e 9C       		.byte	0x9c
 7501 195f 9F190000 		.4byte	0x199f
 7502 1963 19       		.uleb128 0x19
 7503 1964 5A000000 		.4byte	.LASF83
 7504 1968 01       		.byte	0x1
 7505 1969 A402     		.2byte	0x2a4
ARM GAS  C:\Users\Phuong\AppData\Local\Temp\ccmYXgep.s 			page 178


 7506 196b 20030000 		.4byte	0x320
 7507 196f 860C0000 		.4byte	.LLST71
 7508 1973 19       		.uleb128 0x19
 7509 1974 A3010000 		.4byte	.LASF132
 7510 1978 01       		.byte	0x1
 7511 1979 A402     		.2byte	0x2a4
 7512 197b 0A0A0000 		.4byte	0xa0a
 7513 197f B20C0000 		.4byte	.LLST72
 7514 1983 20       		.uleb128 0x20
 7515 1984 10000000 		.4byte	.LVL333
 7516 1988 6C220000 		.4byte	0x226c
 7517 198c 1E       		.uleb128 0x1e
 7518 198d 01       		.uleb128 0x1
 7519 198e 50       		.byte	0x50
 7520 198f 02       		.uleb128 0x2
 7521 1990 74       		.byte	0x74
 7522 1991 00       		.sleb128 0
 7523 1992 1E       		.uleb128 0x1e
 7524 1993 01       		.uleb128 0x1
 7525 1994 51       		.byte	0x51
 7526 1995 01       		.uleb128 0x1
 7527 1996 30       		.byte	0x30
 7528 1997 1E       		.uleb128 0x1e
 7529 1998 01       		.uleb128 0x1
 7530 1999 52       		.byte	0x52
 7531 199a 02       		.uleb128 0x2
 7532 199b 08       		.byte	0x8
 7533 199c 40       		.byte	0x40
 7534 199d 00       		.byte	0
 7535 199e 00       		.byte	0
 7536 199f 2C       		.uleb128 0x2c
 7537 19a0 D0010000 		.4byte	.LASF247
 7538 19a4 01       		.byte	0x1
 7539 19a5 B902     		.2byte	0x2b9
 7540 19a7 00000000 		.4byte	.LFB65
 7541 19ab 14000000 		.4byte	.LFE65-.LFB65
 7542 19af 01       		.uleb128 0x1
 7543 19b0 9C       		.byte	0x9c
 7544 19b1 CF190000 		.4byte	0x19cf
 7545 19b5 19       		.uleb128 0x19
 7546 19b6 5A000000 		.4byte	.LASF83
 7547 19ba 01       		.byte	0x1
 7548 19bb B902     		.2byte	0x2b9
 7549 19bd 20030000 		.4byte	0x320
 7550 19c1 EB0C0000 		.4byte	.LLST73
 7551 19c5 1F       		.uleb128 0x1f
 7552 19c6 0E000000 		.4byte	.LVL338
 7553 19ca 8C220000 		.4byte	0x228c
 7554 19ce 00       		.byte	0
 7555 19cf 2C       		.uleb128 0x2c
 7556 19d0 3C0F0000 		.4byte	.LASF248
 7557 19d4 01       		.byte	0x1
 7558 19d5 2203     		.2byte	0x322
 7559 19d7 00000000 		.4byte	.LFB67
 7560 19db 7C000000 		.4byte	.LFE67-.LFB67
 7561 19df 01       		.uleb128 0x1
 7562 19e0 9C       		.byte	0x9c
ARM GAS  C:\Users\Phuong\AppData\Local\Temp\ccmYXgep.s 			page 179


 7563 19e1 011B0000 		.4byte	0x1b01
 7564 19e5 19       		.uleb128 0x19
 7565 19e6 5A000000 		.4byte	.LASF83
 7566 19ea 01       		.byte	0x1
 7567 19eb 2203     		.2byte	0x322
 7568 19ed 20030000 		.4byte	0x320
 7569 19f1 170D0000 		.4byte	.LLST74
 7570 19f5 2A       		.uleb128 0x2a
 7571 19f6 A3010000 		.4byte	.LASF132
 7572 19fa 01       		.byte	0x1
 7573 19fb 2403     		.2byte	0x324
 7574 19fd F5060000 		.4byte	0x6f5
 7575 1a01 03       		.uleb128 0x3
 7576 1a02 91       		.byte	0x91
 7577 1a03 B07F     		.sleb128 -80
 7578 1a05 22       		.uleb128 0x22
 7579 1a06 4A040000 		.4byte	.LASF207
 7580 1a0a 01       		.byte	0x1
 7581 1a0b 2503     		.2byte	0x325
 7582 1a0d 7C010000 		.4byte	0x17c
 7583 1a11 430D0000 		.4byte	.LLST75
 7584 1a15 1F       		.uleb128 0x1f
 7585 1a16 0C000000 		.4byte	.LVL342
 7586 1a1a F2130000 		.4byte	0x13f2
 7587 1a1e 1D       		.uleb128 0x1d
 7588 1a1f 1A000000 		.4byte	.LVL343
 7589 1a23 6C220000 		.4byte	0x226c
 7590 1a27 3E1A0000 		.4byte	0x1a3e
 7591 1a2b 1E       		.uleb128 0x1e
 7592 1a2c 01       		.uleb128 0x1
 7593 1a2d 50       		.byte	0x50
 7594 1a2e 03       		.uleb128 0x3
 7595 1a2f 91       		.byte	0x91
 7596 1a30 B07F     		.sleb128 -80
 7597 1a32 1E       		.uleb128 0x1e
 7598 1a33 01       		.uleb128 0x1
 7599 1a34 51       		.byte	0x51
 7600 1a35 01       		.uleb128 0x1
 7601 1a36 30       		.byte	0x30
 7602 1a37 1E       		.uleb128 0x1e
 7603 1a38 01       		.uleb128 0x1
 7604 1a39 52       		.byte	0x52
 7605 1a3a 02       		.uleb128 0x2
 7606 1a3b 08       		.byte	0x8
 7607 1a3c 40       		.byte	0x40
 7608 1a3d 00       		.byte	0
 7609 1a3e 1D       		.uleb128 0x1d
 7610 1a3f 22000000 		.4byte	.LVL344
 7611 1a43 D7090000 		.4byte	0x9d7
 7612 1a47 581A0000 		.4byte	0x1a58
 7613 1a4b 1E       		.uleb128 0x1e
 7614 1a4c 01       		.uleb128 0x1
 7615 1a4d 50       		.byte	0x50
 7616 1a4e 03       		.uleb128 0x3
 7617 1a4f 91       		.byte	0x91
 7618 1a50 B07F     		.sleb128 -80
 7619 1a52 1E       		.uleb128 0x1e
ARM GAS  C:\Users\Phuong\AppData\Local\Temp\ccmYXgep.s 			page 180


 7620 1a53 01       		.uleb128 0x1
 7621 1a54 51       		.byte	0x51
 7622 1a55 01       		.uleb128 0x1
 7623 1a56 37       		.byte	0x37
 7624 1a57 00       		.byte	0
 7625 1a58 1D       		.uleb128 0x1d
 7626 1a59 2C000000 		.4byte	.LVL345
 7627 1a5d 110B0000 		.4byte	0xb11
 7628 1a61 781A0000 		.4byte	0x1a78
 7629 1a65 1E       		.uleb128 0x1e
 7630 1a66 01       		.uleb128 0x1
 7631 1a67 50       		.byte	0x50
 7632 1a68 02       		.uleb128 0x2
 7633 1a69 74       		.byte	0x74
 7634 1a6a 00       		.sleb128 0
 7635 1a6b 1E       		.uleb128 0x1e
 7636 1a6c 01       		.uleb128 0x1
 7637 1a6d 51       		.byte	0x51
 7638 1a6e 03       		.uleb128 0x3
 7639 1a6f 91       		.byte	0x91
 7640 1a70 B07F     		.sleb128 -80
 7641 1a72 1E       		.uleb128 0x1e
 7642 1a73 01       		.uleb128 0x1
 7643 1a74 52       		.byte	0x52
 7644 1a75 01       		.uleb128 0x1
 7645 1a76 38       		.byte	0x38
 7646 1a77 00       		.byte	0
 7647 1a78 1D       		.uleb128 0x1d
 7648 1a79 3C000000 		.4byte	.LVL347
 7649 1a7d 100A0000 		.4byte	0xa10
 7650 1a81 971A0000 		.4byte	0x1a97
 7651 1a85 1E       		.uleb128 0x1e
 7652 1a86 01       		.uleb128 0x1
 7653 1a87 50       		.byte	0x50
 7654 1a88 02       		.uleb128 0x2
 7655 1a89 75       		.byte	0x75
 7656 1a8a 00       		.sleb128 0
 7657 1a8b 1E       		.uleb128 0x1e
 7658 1a8c 01       		.uleb128 0x1
 7659 1a8d 51       		.byte	0x51
 7660 1a8e 02       		.uleb128 0x2
 7661 1a8f 08       		.byte	0x8
 7662 1a90 39       		.byte	0x39
 7663 1a91 1E       		.uleb128 0x1e
 7664 1a92 01       		.uleb128 0x1
 7665 1a93 52       		.byte	0x52
 7666 1a94 01       		.uleb128 0x1
 7667 1a95 32       		.byte	0x32
 7668 1a96 00       		.byte	0
 7669 1a97 1D       		.uleb128 0x1d
 7670 1a98 44000000 		.4byte	.LVL348
 7671 1a9c 860A0000 		.4byte	0xa86
 7672 1aa0 AB1A0000 		.4byte	0x1aab
 7673 1aa4 1E       		.uleb128 0x1e
 7674 1aa5 01       		.uleb128 0x1
 7675 1aa6 50       		.byte	0x50
 7676 1aa7 02       		.uleb128 0x2
ARM GAS  C:\Users\Phuong\AppData\Local\Temp\ccmYXgep.s 			page 181


 7677 1aa8 75       		.byte	0x75
 7678 1aa9 00       		.sleb128 0
 7679 1aaa 00       		.byte	0
 7680 1aab 1D       		.uleb128 0x1d
 7681 1aac 4A000000 		.4byte	.LVL349
 7682 1ab0 EC0A0000 		.4byte	0xaec
 7683 1ab4 BF1A0000 		.4byte	0x1abf
 7684 1ab8 1E       		.uleb128 0x1e
 7685 1ab9 01       		.uleb128 0x1
 7686 1aba 50       		.byte	0x50
 7687 1abb 02       		.uleb128 0x2
 7688 1abc 75       		.byte	0x75
 7689 1abd 00       		.sleb128 0
 7690 1abe 00       		.byte	0
 7691 1abf 1F       		.uleb128 0x1f
 7692 1ac0 56000000 		.4byte	.LVL350
 7693 1ac4 FE210000 		.4byte	0x21fe
 7694 1ac8 1D       		.uleb128 0x1d
 7695 1ac9 66000000 		.4byte	.LVL351
 7696 1acd 14220000 		.4byte	0x2214
 7697 1ad1 E31A0000 		.4byte	0x1ae3
 7698 1ad5 1E       		.uleb128 0x1e
 7699 1ad6 01       		.uleb128 0x1
 7700 1ad7 53       		.byte	0x53
 7701 1ad8 02       		.uleb128 0x2
 7702 1ad9 08       		.byte	0x8
 7703 1ada 43       		.byte	0x43
 7704 1adb 1E       		.uleb128 0x1e
 7705 1adc 02       		.uleb128 0x2
 7706 1add 7D       		.byte	0x7d
 7707 1ade 00       		.sleb128 0
 7708 1adf 02       		.uleb128 0x2
 7709 1ae0 74       		.byte	0x74
 7710 1ae1 00       		.sleb128 0
 7711 1ae2 00       		.byte	0
 7712 1ae3 1D       		.uleb128 0x1d
 7713 1ae4 6C000000 		.4byte	.LVL352
 7714 1ae8 E20B0000 		.4byte	0xbe2
 7715 1aec F71A0000 		.4byte	0x1af7
 7716 1af0 1E       		.uleb128 0x1e
 7717 1af1 01       		.uleb128 0x1
 7718 1af2 50       		.byte	0x50
 7719 1af3 02       		.uleb128 0x2
 7720 1af4 75       		.byte	0x75
 7721 1af5 00       		.sleb128 0
 7722 1af6 00       		.byte	0
 7723 1af7 1F       		.uleb128 0x1f
 7724 1af8 70000000 		.4byte	.LVL353
 7725 1afc D3130000 		.4byte	0x13d3
 7726 1b00 00       		.byte	0
 7727 1b01 2C       		.uleb128 0x2c
 7728 1b02 BD0F0000 		.4byte	.LASF249
 7729 1b06 01       		.byte	0x1
 7730 1b07 4C03     		.2byte	0x34c
 7731 1b09 00000000 		.4byte	.LFB68
 7732 1b0d 30000000 		.4byte	.LFE68-.LFB68
 7733 1b11 01       		.uleb128 0x1
ARM GAS  C:\Users\Phuong\AppData\Local\Temp\ccmYXgep.s 			page 182


 7734 1b12 9C       		.byte	0x9c
 7735 1b13 4A1B0000 		.4byte	0x1b4a
 7736 1b17 19       		.uleb128 0x19
 7737 1b18 5A000000 		.4byte	.LASF83
 7738 1b1c 01       		.byte	0x1
 7739 1b1d 4C03     		.2byte	0x34c
 7740 1b1f 20030000 		.4byte	0x320
 7741 1b23 620D0000 		.4byte	.LLST76
 7742 1b27 22       		.uleb128 0x22
 7743 1b28 A3010000 		.4byte	.LASF132
 7744 1b2c 01       		.byte	0x1
 7745 1b2d 4E03     		.2byte	0x34e
 7746 1b2f 0A0A0000 		.4byte	0xa0a
 7747 1b33 9C0D0000 		.4byte	.LLST77
 7748 1b37 1F       		.uleb128 0x1f
 7749 1b38 24000000 		.4byte	.LVL357
 7750 1b3c 6F0D0000 		.4byte	0xd6f
 7751 1b40 1F       		.uleb128 0x1f
 7752 1b41 2E000000 		.4byte	.LVL359
 7753 1b45 120C0000 		.4byte	0xc12
 7754 1b49 00       		.byte	0
 7755 1b4a 2D       		.uleb128 0x2d
 7756 1b4b D80A0000 		.4byte	.LASF252
 7757 1b4f 01       		.byte	0x1
 7758 1b50 6704     		.2byte	0x467
 7759 1b52 7C010000 		.4byte	0x17c
 7760 1b56 00000000 		.4byte	.LFB71
 7761 1b5a C0000000 		.4byte	.LFE71-.LFB71
 7762 1b5e 01       		.uleb128 0x1
 7763 1b5f 9C       		.byte	0x9c
 7764 1b60 C71C0000 		.4byte	0x1cc7
 7765 1b64 19       		.uleb128 0x19
 7766 1b65 5A000000 		.4byte	.LASF83
 7767 1b69 01       		.byte	0x1
 7768 1b6a 6704     		.2byte	0x467
 7769 1b6c 20030000 		.4byte	0x320
 7770 1b70 BA0D0000 		.4byte	.LLST78
 7771 1b74 22       		.uleb128 0x22
 7772 1b75 A3010000 		.4byte	.LASF132
 7773 1b79 01       		.byte	0x1
 7774 1b7a 6904     		.2byte	0x469
 7775 1b7c 0A0A0000 		.4byte	0xa0a
 7776 1b80 E60D0000 		.4byte	.LLST79
 7777 1b84 22       		.uleb128 0x22
 7778 1b85 4A040000 		.4byte	.LASF207
 7779 1b89 01       		.byte	0x1
 7780 1b8a 6A04     		.2byte	0x46a
 7781 1b8c 7C010000 		.4byte	0x17c
 7782 1b90 F90D0000 		.4byte	.LLST80
 7783 1b94 22       		.uleb128 0x22
 7784 1b95 AA0F0000 		.4byte	.LASF208
 7785 1b99 01       		.byte	0x1
 7786 1b9a 6B04     		.2byte	0x46b
 7787 1b9c E2000000 		.4byte	0xe2
 7788 1ba0 0C0E0000 		.4byte	.LLST81
 7789 1ba4 1B       		.uleb128 0x1b
 7790 1ba5 6900     		.ascii	"i\000"
ARM GAS  C:\Users\Phuong\AppData\Local\Temp\ccmYXgep.s 			page 183


 7791 1ba7 01       		.byte	0x1
 7792 1ba8 6C04     		.2byte	0x46c
 7793 1baa CC000000 		.4byte	0xcc
 7794 1bae 1F0E0000 		.4byte	.LLST82
 7795 1bb2 1D       		.uleb128 0x1d
 7796 1bb3 10000000 		.4byte	.LVL363
 7797 1bb7 D7090000 		.4byte	0x9d7
 7798 1bbb CB1B0000 		.4byte	0x1bcb
 7799 1bbf 1E       		.uleb128 0x1e
 7800 1bc0 01       		.uleb128 0x1
 7801 1bc1 50       		.byte	0x50
 7802 1bc2 02       		.uleb128 0x2
 7803 1bc3 74       		.byte	0x74
 7804 1bc4 00       		.sleb128 0
 7805 1bc5 1E       		.uleb128 0x1e
 7806 1bc6 01       		.uleb128 0x1
 7807 1bc7 51       		.byte	0x51
 7808 1bc8 01       		.uleb128 0x1
 7809 1bc9 35       		.byte	0x35
 7810 1bca 00       		.byte	0
 7811 1bcb 1D       		.uleb128 0x1d
 7812 1bcc 1A000000 		.4byte	.LVL364
 7813 1bd0 110B0000 		.4byte	0xb11
 7814 1bd4 EA1B0000 		.4byte	0x1bea
 7815 1bd8 1E       		.uleb128 0x1e
 7816 1bd9 01       		.uleb128 0x1
 7817 1bda 50       		.byte	0x50
 7818 1bdb 02       		.uleb128 0x2
 7819 1bdc 77       		.byte	0x77
 7820 1bdd 00       		.sleb128 0
 7821 1bde 1E       		.uleb128 0x1e
 7822 1bdf 01       		.uleb128 0x1
 7823 1be0 51       		.byte	0x51
 7824 1be1 02       		.uleb128 0x2
 7825 1be2 74       		.byte	0x74
 7826 1be3 00       		.sleb128 0
 7827 1be4 1E       		.uleb128 0x1e
 7828 1be5 01       		.uleb128 0x1
 7829 1be6 52       		.byte	0x52
 7830 1be7 01       		.uleb128 0x1
 7831 1be8 33       		.byte	0x33
 7832 1be9 00       		.byte	0
 7833 1bea 1D       		.uleb128 0x1d
 7834 1beb 28000000 		.4byte	.LVL367
 7835 1bef 100A0000 		.4byte	0xa10
 7836 1bf3 091C0000 		.4byte	0x1c09
 7837 1bf7 1E       		.uleb128 0x1e
 7838 1bf8 01       		.uleb128 0x1
 7839 1bf9 50       		.byte	0x50
 7840 1bfa 02       		.uleb128 0x2
 7841 1bfb 74       		.byte	0x74
 7842 1bfc 00       		.sleb128 0
 7843 1bfd 1E       		.uleb128 0x1e
 7844 1bfe 01       		.uleb128 0x1
 7845 1bff 51       		.byte	0x51
 7846 1c00 02       		.uleb128 0x2
 7847 1c01 08       		.byte	0x8
ARM GAS  C:\Users\Phuong\AppData\Local\Temp\ccmYXgep.s 			page 184


 7848 1c02 39       		.byte	0x39
 7849 1c03 1E       		.uleb128 0x1e
 7850 1c04 01       		.uleb128 0x1
 7851 1c05 52       		.byte	0x52
 7852 1c06 01       		.uleb128 0x1
 7853 1c07 32       		.byte	0x32
 7854 1c08 00       		.byte	0
 7855 1c09 1D       		.uleb128 0x1d
 7856 1c0a 30000000 		.4byte	.LVL368
 7857 1c0e 860A0000 		.4byte	0xa86
 7858 1c12 1D1C0000 		.4byte	0x1c1d
 7859 1c16 1E       		.uleb128 0x1e
 7860 1c17 01       		.uleb128 0x1
 7861 1c18 50       		.byte	0x50
 7862 1c19 02       		.uleb128 0x2
 7863 1c1a 74       		.byte	0x74
 7864 1c1b 00       		.sleb128 0
 7865 1c1c 00       		.byte	0
 7866 1c1d 1D       		.uleb128 0x1d
 7867 1c1e 3A000000 		.4byte	.LVL369
 7868 1c22 100A0000 		.4byte	0xa10
 7869 1c26 3C1C0000 		.4byte	0x1c3c
 7870 1c2a 1E       		.uleb128 0x1e
 7871 1c2b 01       		.uleb128 0x1
 7872 1c2c 50       		.byte	0x50
 7873 1c2d 02       		.uleb128 0x2
 7874 1c2e 74       		.byte	0x74
 7875 1c2f 00       		.sleb128 0
 7876 1c30 1E       		.uleb128 0x1e
 7877 1c31 01       		.uleb128 0x1
 7878 1c32 51       		.byte	0x51
 7879 1c33 02       		.uleb128 0x2
 7880 1c34 08       		.byte	0x8
 7881 1c35 37       		.byte	0x37
 7882 1c36 1E       		.uleb128 0x1e
 7883 1c37 01       		.uleb128 0x1
 7884 1c38 52       		.byte	0x52
 7885 1c39 01       		.uleb128 0x1
 7886 1c3a 34       		.byte	0x34
 7887 1c3b 00       		.byte	0
 7888 1c3c 1D       		.uleb128 0x1d
 7889 1c3d 48000000 		.4byte	.LVL371
 7890 1c41 530A0000 		.4byte	0xa53
 7891 1c45 5E1C0000 		.4byte	0x1c5e
 7892 1c49 1E       		.uleb128 0x1e
 7893 1c4a 01       		.uleb128 0x1
 7894 1c4b 50       		.byte	0x50
 7895 1c4c 02       		.uleb128 0x2
 7896 1c4d 74       		.byte	0x74
 7897 1c4e 00       		.sleb128 0
 7898 1c4f 1E       		.uleb128 0x1e
 7899 1c50 01       		.uleb128 0x1
 7900 1c51 51       		.byte	0x51
 7901 1c52 0A       		.uleb128 0xa
 7902 1c53 75       		.byte	0x75
 7903 1c54 00       		.sleb128 0
 7904 1c55 03       		.byte	0x3
ARM GAS  C:\Users\Phuong\AppData\Local\Temp\ccmYXgep.s 			page 185


 7905 1c56 F0000000 		.4byte	.LANCHOR1
 7906 1c5a 22       		.byte	0x22
 7907 1c5b 94       		.byte	0x94
 7908 1c5c 01       		.byte	0x1
 7909 1c5d 00       		.byte	0
 7910 1c5e 1D       		.uleb128 0x1d
 7911 1c5f 58000000 		.4byte	.LVL374
 7912 1c63 0F0F0000 		.4byte	0xf0f
 7913 1c67 781C0000 		.4byte	0x1c78
 7914 1c6b 1E       		.uleb128 0x1e
 7915 1c6c 01       		.uleb128 0x1
 7916 1c6d 50       		.byte	0x50
 7917 1c6e 02       		.uleb128 0x2
 7918 1c6f 74       		.byte	0x74
 7919 1c70 00       		.sleb128 0
 7920 1c71 1E       		.uleb128 0x1e
 7921 1c72 01       		.uleb128 0x1
 7922 1c73 51       		.byte	0x51
 7923 1c74 02       		.uleb128 0x2
 7924 1c75 77       		.byte	0x77
 7925 1c76 00       		.sleb128 0
 7926 1c77 00       		.byte	0
 7927 1c78 1D       		.uleb128 0x1d
 7928 1c79 5E000000 		.4byte	.LVL375
 7929 1c7d EC0A0000 		.4byte	0xaec
 7930 1c81 8C1C0000 		.4byte	0x1c8c
 7931 1c85 1E       		.uleb128 0x1e
 7932 1c86 01       		.uleb128 0x1
 7933 1c87 50       		.byte	0x50
 7934 1c88 02       		.uleb128 0x2
 7935 1c89 74       		.byte	0x74
 7936 1c8a 00       		.sleb128 0
 7937 1c8b 00       		.byte	0
 7938 1c8c 1F       		.uleb128 0x1f
 7939 1c8d 6A000000 		.4byte	.LVL376
 7940 1c91 FE210000 		.4byte	0x21fe
 7941 1c95 1D       		.uleb128 0x1d
 7942 1c96 7C000000 		.4byte	.LVL377
 7943 1c9a 14220000 		.4byte	0x2214
 7944 1c9e B61C0000 		.4byte	0x1cb6
 7945 1ca2 1E       		.uleb128 0x1e
 7946 1ca3 01       		.uleb128 0x1
 7947 1ca4 52       		.byte	0x52
 7948 1ca5 02       		.uleb128 0x2
 7949 1ca6 74       		.byte	0x74
 7950 1ca7 24       		.sleb128 36
 7951 1ca8 1E       		.uleb128 0x1e
 7952 1ca9 01       		.uleb128 0x1
 7953 1caa 53       		.byte	0x53
 7954 1cab 02       		.uleb128 0x2
 7955 1cac 08       		.byte	0x8
 7956 1cad 43       		.byte	0x43
 7957 1cae 1E       		.uleb128 0x1e
 7958 1caf 02       		.uleb128 0x2
 7959 1cb0 7D       		.byte	0x7d
 7960 1cb1 00       		.sleb128 0
 7961 1cb2 02       		.uleb128 0x2
ARM GAS  C:\Users\Phuong\AppData\Local\Temp\ccmYXgep.s 			page 186


 7962 1cb3 77       		.byte	0x77
 7963 1cb4 00       		.sleb128 0
 7964 1cb5 00       		.byte	0
 7965 1cb6 20       		.uleb128 0x20
 7966 1cb7 82000000 		.4byte	.LVL378
 7967 1cbb E20B0000 		.4byte	0xbe2
 7968 1cbf 1E       		.uleb128 0x1e
 7969 1cc0 01       		.uleb128 0x1
 7970 1cc1 50       		.byte	0x50
 7971 1cc2 02       		.uleb128 0x2
 7972 1cc3 74       		.byte	0x74
 7973 1cc4 00       		.sleb128 0
 7974 1cc5 00       		.byte	0
 7975 1cc6 00       		.byte	0
 7976 1cc7 17       		.uleb128 0x17
 7977 1cc8 2A070000 		.4byte	.LASF250
 7978 1ccc 01       		.byte	0x1
 7979 1ccd 1202     		.2byte	0x212
 7980 1ccf 00000000 		.4byte	.LFB61
 7981 1cd3 2A000000 		.4byte	.LFE61-.LFB61
 7982 1cd7 01       		.uleb128 0x1
 7983 1cd8 9C       		.byte	0x9c
 7984 1cd9 071D0000 		.4byte	0x1d07
 7985 1cdd 19       		.uleb128 0x19
 7986 1cde 5A000000 		.4byte	.LASF83
 7987 1ce2 01       		.byte	0x1
 7988 1ce3 1202     		.2byte	0x212
 7989 1ce5 20030000 		.4byte	0x320
 7990 1ce9 490E0000 		.4byte	.LLST83
 7991 1ced 22       		.uleb128 0x22
 7992 1cee A3010000 		.4byte	.LASF132
 7993 1cf2 01       		.byte	0x1
 7994 1cf3 1402     		.2byte	0x214
 7995 1cf5 0A0A0000 		.4byte	0xa0a
 7996 1cf9 6A0E0000 		.4byte	.LLST84
 7997 1cfd 1F       		.uleb128 0x1f
 7998 1cfe 16000000 		.4byte	.LVL386
 7999 1d02 4A1B0000 		.4byte	0x1b4a
 8000 1d06 00       		.byte	0
 8001 1d07 2C       		.uleb128 0x2c
 8002 1d08 41020000 		.4byte	.LASF251
 8003 1d0c 01       		.byte	0x1
 8004 1d0d 3F05     		.2byte	0x53f
 8005 1d0f 00000000 		.4byte	.LFB75
 8006 1d13 24000000 		.4byte	.LFE75-.LFB75
 8007 1d17 01       		.uleb128 0x1
 8008 1d18 9C       		.byte	0x9c
 8009 1d19 601D0000 		.4byte	0x1d60
 8010 1d1d 19       		.uleb128 0x19
 8011 1d1e 5A000000 		.4byte	.LASF83
 8012 1d22 01       		.byte	0x1
 8013 1d23 3F05     		.2byte	0x53f
 8014 1d25 20030000 		.4byte	0x320
 8015 1d29 7D0E0000 		.4byte	.LLST85
 8016 1d2d 22       		.uleb128 0x22
 8017 1d2e A3010000 		.4byte	.LASF132
 8018 1d32 01       		.byte	0x1
ARM GAS  C:\Users\Phuong\AppData\Local\Temp\ccmYXgep.s 			page 187


 8019 1d33 4105     		.2byte	0x541
 8020 1d35 0A0A0000 		.4byte	0xa0a
 8021 1d39 9E0E0000 		.4byte	.LLST86
 8022 1d3d 1D       		.uleb128 0x1d
 8023 1d3e 14000000 		.4byte	.LVL391
 8024 1d42 D7090000 		.4byte	0x9d7
 8025 1d46 561D0000 		.4byte	0x1d56
 8026 1d4a 1E       		.uleb128 0x1e
 8027 1d4b 01       		.uleb128 0x1
 8028 1d4c 50       		.byte	0x50
 8029 1d4d 02       		.uleb128 0x2
 8030 1d4e 74       		.byte	0x74
 8031 1d4f 00       		.sleb128 0
 8032 1d50 1E       		.uleb128 0x1e
 8033 1d51 01       		.uleb128 0x1
 8034 1d52 51       		.byte	0x51
 8035 1d53 01       		.uleb128 0x1
 8036 1d54 30       		.byte	0x30
 8037 1d55 00       		.byte	0
 8038 1d56 1F       		.uleb128 0x1f
 8039 1d57 1E000000 		.4byte	.LVL392
 8040 1d5b D3130000 		.4byte	0x13d3
 8041 1d5f 00       		.byte	0
 8042 1d60 2E       		.uleb128 0x2e
 8043 1d61 CD0A0000 		.4byte	.LASF253
 8044 1d65 01       		.byte	0x1
 8045 1d66 D102     		.2byte	0x2d1
 8046 1d68 7C010000 		.4byte	0x17c
 8047 1d6c 00000000 		.4byte	.LFB66
 8048 1d70 84000000 		.4byte	.LFE66-.LFB66
 8049 1d74 01       		.uleb128 0x1
 8050 1d75 9C       		.byte	0x9c
 8051 1d76 141E0000 		.4byte	0x1e14
 8052 1d7a 19       		.uleb128 0x19
 8053 1d7b 5A000000 		.4byte	.LASF83
 8054 1d7f 01       		.byte	0x1
 8055 1d80 D102     		.2byte	0x2d1
 8056 1d82 20030000 		.4byte	0x320
 8057 1d86 B10E0000 		.4byte	.LLST87
 8058 1d8a 22       		.uleb128 0x22
 8059 1d8b A3010000 		.4byte	.LASF132
 8060 1d8f 01       		.byte	0x1
 8061 1d90 D302     		.2byte	0x2d3
 8062 1d92 0A0A0000 		.4byte	0xa0a
 8063 1d96 350F0000 		.4byte	.LLST88
 8064 1d9a 22       		.uleb128 0x22
 8065 1d9b 4A040000 		.4byte	.LASF207
 8066 1d9f 01       		.byte	0x1
 8067 1da0 D402     		.2byte	0x2d4
 8068 1da2 7C010000 		.4byte	0x17c
 8069 1da6 7F0F0000 		.4byte	.LLST89
 8070 1daa 1D       		.uleb128 0x1d
 8071 1dab 22000000 		.4byte	.LVL397
 8072 1daf 97220000 		.4byte	0x2297
 8073 1db3 BE1D0000 		.4byte	0x1dbe
 8074 1db7 1E       		.uleb128 0x1e
 8075 1db8 01       		.uleb128 0x1
ARM GAS  C:\Users\Phuong\AppData\Local\Temp\ccmYXgep.s 			page 188


 8076 1db9 50       		.byte	0x50
 8077 1dba 02       		.uleb128 0x2
 8078 1dbb 08       		.byte	0x8
 8079 1dbc 40       		.byte	0x40
 8080 1dbd 00       		.byte	0
 8081 1dbe 1F       		.uleb128 0x1f
 8082 1dbf 34000000 		.4byte	.LVL400
 8083 1dc3 D3130000 		.4byte	0x13d3
 8084 1dc7 1D       		.uleb128 0x1d
 8085 1dc8 3E000000 		.4byte	.LVL401
 8086 1dcc 6C220000 		.4byte	0x226c
 8087 1dd0 E61D0000 		.4byte	0x1de6
 8088 1dd4 1E       		.uleb128 0x1e
 8089 1dd5 01       		.uleb128 0x1
 8090 1dd6 50       		.byte	0x50
 8091 1dd7 02       		.uleb128 0x2
 8092 1dd8 75       		.byte	0x75
 8093 1dd9 00       		.sleb128 0
 8094 1dda 1E       		.uleb128 0x1e
 8095 1ddb 01       		.uleb128 0x1
 8096 1ddc 51       		.byte	0x51
 8097 1ddd 01       		.uleb128 0x1
 8098 1dde 30       		.byte	0x30
 8099 1ddf 1E       		.uleb128 0x1e
 8100 1de0 01       		.uleb128 0x1
 8101 1de1 52       		.byte	0x52
 8102 1de2 02       		.uleb128 0x2
 8103 1de3 08       		.byte	0x8
 8104 1de4 40       		.byte	0x40
 8105 1de5 00       		.byte	0
 8106 1de6 1F       		.uleb128 0x1f
 8107 1de7 42000000 		.4byte	.LVL402
 8108 1deb F2130000 		.4byte	0x13f2
 8109 1def 1D       		.uleb128 0x1d
 8110 1df0 50000000 		.4byte	.LVL403
 8111 1df4 120C0000 		.4byte	0xc12
 8112 1df8 031E0000 		.4byte	0x1e03
 8113 1dfc 1E       		.uleb128 0x1e
 8114 1dfd 01       		.uleb128 0x1
 8115 1dfe 50       		.byte	0x50
 8116 1dff 02       		.uleb128 0x2
 8117 1e00 74       		.byte	0x74
 8118 1e01 00       		.sleb128 0
 8119 1e02 00       		.byte	0
 8120 1e03 20       		.uleb128 0x20
 8121 1e04 5A000000 		.4byte	.LVL405
 8122 1e08 071D0000 		.4byte	0x1d07
 8123 1e0c 1E       		.uleb128 0x1e
 8124 1e0d 01       		.uleb128 0x1
 8125 1e0e 50       		.byte	0x50
 8126 1e0f 02       		.uleb128 0x2
 8127 1e10 74       		.byte	0x74
 8128 1e11 00       		.sleb128 0
 8129 1e12 00       		.byte	0
 8130 1e13 00       		.byte	0
 8131 1e14 2E       		.uleb128 0x2e
 8132 1e15 19020000 		.4byte	.LASF254
ARM GAS  C:\Users\Phuong\AppData\Local\Temp\ccmYXgep.s 			page 189


 8133 1e19 01       		.byte	0x1
 8134 1e1a 9507     		.2byte	0x795
 8135 1e1c CC000000 		.4byte	0xcc
 8136 1e20 00000000 		.4byte	.LFB87
 8137 1e24 32000000 		.4byte	.LFE87-.LFB87
 8138 1e28 01       		.uleb128 0x1
 8139 1e29 9C       		.byte	0x9c
 8140 1e2a 591E0000 		.4byte	0x1e59
 8141 1e2e 19       		.uleb128 0x19
 8142 1e2f 5A000000 		.4byte	.LASF83
 8143 1e33 01       		.byte	0x1
 8144 1e34 9507     		.2byte	0x795
 8145 1e36 591E0000 		.4byte	0x1e59
 8146 1e3a 920F0000 		.4byte	.LLST90
 8147 1e3e 23       		.uleb128 0x23
 8148 1e3f 0A000000 		.4byte	.LBB10
 8149 1e43 20000000 		.4byte	.LBE10-.LBB10
 8150 1e47 22       		.uleb128 0x22
 8151 1e48 A3010000 		.4byte	.LASF132
 8152 1e4c 01       		.byte	0x1
 8153 1e4d 9807     		.2byte	0x798
 8154 1e4f 0A0A0000 		.4byte	0xa0a
 8155 1e53 30100000 		.4byte	.LLST91
 8156 1e57 00       		.byte	0
 8157 1e58 00       		.byte	0
 8158 1e59 06       		.uleb128 0x6
 8159 1e5a 04       		.byte	0x4
 8160 1e5b 5F1E0000 		.4byte	0x1e5f
 8161 1e5f 07       		.uleb128 0x7
 8162 1e60 26030000 		.4byte	0x326
 8163 1e64 2E       		.uleb128 0x2e
 8164 1e65 400D0000 		.4byte	.LASF255
 8165 1e69 01       		.byte	0x1
 8166 1e6a 0005     		.2byte	0x500
 8167 1e6c 7C010000 		.4byte	0x17c
 8168 1e70 00000000 		.4byte	.LFB74
 8169 1e74 AC000000 		.4byte	.LFE74-.LFB74
 8170 1e78 01       		.uleb128 0x1
 8171 1e79 9C       		.byte	0x9c
 8172 1e7a B81F0000 		.4byte	0x1fb8
 8173 1e7e 19       		.uleb128 0x19
 8174 1e7f 5A000000 		.4byte	.LASF83
 8175 1e83 01       		.byte	0x1
 8176 1e84 0005     		.2byte	0x500
 8177 1e86 20030000 		.4byte	0x320
 8178 1e8a AF100000 		.4byte	.LLST92
 8179 1e8e 22       		.uleb128 0x22
 8180 1e8f A3010000 		.4byte	.LASF132
 8181 1e93 01       		.byte	0x1
 8182 1e94 0205     		.2byte	0x502
 8183 1e96 0A0A0000 		.4byte	0xa0a
 8184 1e9a F1100000 		.4byte	.LLST93
 8185 1e9e 22       		.uleb128 0x22
 8186 1e9f 4A040000 		.4byte	.LASF207
 8187 1ea3 01       		.byte	0x1
 8188 1ea4 0305     		.2byte	0x503
 8189 1ea6 7C010000 		.4byte	0x17c
ARM GAS  C:\Users\Phuong\AppData\Local\Temp\ccmYXgep.s 			page 190


 8190 1eaa 04110000 		.4byte	.LLST94
 8191 1eae 2A       		.uleb128 0x2a
 8192 1eaf 330B0000 		.4byte	.LASF147
 8193 1eb3 01       		.byte	0x1
 8194 1eb4 0405     		.2byte	0x504
 8195 1eb6 D5020000 		.4byte	0x2d5
 8196 1eba 02       		.uleb128 0x2
 8197 1ebb 91       		.byte	0x91
 8198 1ebc 6C       		.sleb128 -20
 8199 1ebd 22       		.uleb128 0x22
 8200 1ebe 37030000 		.4byte	.LASF256
 8201 1ec2 01       		.byte	0x1
 8202 1ec3 0505     		.2byte	0x505
 8203 1ec5 CC000000 		.4byte	0xcc
 8204 1ec9 17110000 		.4byte	.LLST95
 8205 1ecd 1D       		.uleb128 0x1d
 8206 1ece 14000000 		.4byte	.LVL432
 8207 1ed2 141E0000 		.4byte	0x1e14
 8208 1ed6 E11E0000 		.4byte	0x1ee1
 8209 1eda 1E       		.uleb128 0x1e
 8210 1edb 01       		.uleb128 0x1
 8211 1edc 50       		.byte	0x50
 8212 1edd 02       		.uleb128 0x2
 8213 1ede 75       		.byte	0x75
 8214 1edf 00       		.sleb128 0
 8215 1ee0 00       		.byte	0
 8216 1ee1 1D       		.uleb128 0x1d
 8217 1ee2 1E000000 		.4byte	.LVL434
 8218 1ee6 D7090000 		.4byte	0x9d7
 8219 1eea FA1E0000 		.4byte	0x1efa
 8220 1eee 1E       		.uleb128 0x1e
 8221 1eef 01       		.uleb128 0x1
 8222 1ef0 50       		.byte	0x50
 8223 1ef1 02       		.uleb128 0x2
 8224 1ef2 74       		.byte	0x74
 8225 1ef3 00       		.sleb128 0
 8226 1ef4 1E       		.uleb128 0x1e
 8227 1ef5 01       		.uleb128 0x1
 8228 1ef6 51       		.byte	0x51
 8229 1ef7 01       		.uleb128 0x1
 8230 1ef8 30       		.byte	0x30
 8231 1ef9 00       		.byte	0
 8232 1efa 1D       		.uleb128 0x1d
 8233 1efb 44000000 		.4byte	.LVL435
 8234 1eff 110B0000 		.4byte	0xb11
 8235 1f03 191F0000 		.4byte	0x1f19
 8236 1f07 1E       		.uleb128 0x1e
 8237 1f08 01       		.uleb128 0x1
 8238 1f09 50       		.byte	0x50
 8239 1f0a 02       		.uleb128 0x2
 8240 1f0b 75       		.byte	0x75
 8241 1f0c 00       		.sleb128 0
 8242 1f0d 1E       		.uleb128 0x1e
 8243 1f0e 01       		.uleb128 0x1
 8244 1f0f 51       		.byte	0x51
 8245 1f10 02       		.uleb128 0x2
 8246 1f11 74       		.byte	0x74
ARM GAS  C:\Users\Phuong\AppData\Local\Temp\ccmYXgep.s 			page 191


 8247 1f12 00       		.sleb128 0
 8248 1f13 1E       		.uleb128 0x1e
 8249 1f14 01       		.uleb128 0x1
 8250 1f15 52       		.byte	0x52
 8251 1f16 01       		.uleb128 0x1
 8252 1f17 37       		.byte	0x37
 8253 1f18 00       		.byte	0
 8254 1f19 1D       		.uleb128 0x1d
 8255 1f1a 52000000 		.4byte	.LVL438
 8256 1f1e 100A0000 		.4byte	0xa10
 8257 1f22 381F0000 		.4byte	0x1f38
 8258 1f26 1E       		.uleb128 0x1e
 8259 1f27 01       		.uleb128 0x1
 8260 1f28 50       		.byte	0x50
 8261 1f29 02       		.uleb128 0x2
 8262 1f2a 74       		.byte	0x74
 8263 1f2b 00       		.sleb128 0
 8264 1f2c 1E       		.uleb128 0x1e
 8265 1f2d 01       		.uleb128 0x1
 8266 1f2e 51       		.byte	0x51
 8267 1f2f 02       		.uleb128 0x2
 8268 1f30 08       		.byte	0x8
 8269 1f31 36       		.byte	0x36
 8270 1f32 1E       		.uleb128 0x1e
 8271 1f33 01       		.uleb128 0x1
 8272 1f34 52       		.byte	0x52
 8273 1f35 01       		.uleb128 0x1
 8274 1f36 34       		.byte	0x34
 8275 1f37 00       		.byte	0
 8276 1f38 1F       		.uleb128 0x1f
 8277 1f39 58000000 		.4byte	.LVL439
 8278 1f3d E8210000 		.4byte	0x21e8
 8279 1f41 1D       		.uleb128 0x1d
 8280 1f42 60000000 		.4byte	.LVL440
 8281 1f46 B90A0000 		.4byte	0xab9
 8282 1f4a 551F0000 		.4byte	0x1f55
 8283 1f4e 1E       		.uleb128 0x1e
 8284 1f4f 01       		.uleb128 0x1
 8285 1f50 50       		.byte	0x50
 8286 1f51 02       		.uleb128 0x2
 8287 1f52 74       		.byte	0x74
 8288 1f53 00       		.sleb128 0
 8289 1f54 00       		.byte	0
 8290 1f55 1D       		.uleb128 0x1d
 8291 1f56 66000000 		.4byte	.LVL441
 8292 1f5a EC0A0000 		.4byte	0xaec
 8293 1f5e 691F0000 		.4byte	0x1f69
 8294 1f62 1E       		.uleb128 0x1e
 8295 1f63 01       		.uleb128 0x1
 8296 1f64 50       		.byte	0x50
 8297 1f65 02       		.uleb128 0x2
 8298 1f66 74       		.byte	0x74
 8299 1f67 00       		.sleb128 0
 8300 1f68 00       		.byte	0
 8301 1f69 1F       		.uleb128 0x1f
 8302 1f6a 72000000 		.4byte	.LVL442
 8303 1f6e FE210000 		.4byte	0x21fe
ARM GAS  C:\Users\Phuong\AppData\Local\Temp\ccmYXgep.s 			page 192


 8304 1f72 1D       		.uleb128 0x1d
 8305 1f73 82000000 		.4byte	.LVL443
 8306 1f77 14220000 		.4byte	0x2214
 8307 1f7b 931F0000 		.4byte	0x1f93
 8308 1f7f 1E       		.uleb128 0x1e
 8309 1f80 01       		.uleb128 0x1
 8310 1f81 52       		.byte	0x52
 8311 1f82 02       		.uleb128 0x2
 8312 1f83 91       		.byte	0x91
 8313 1f84 6C       		.sleb128 -20
 8314 1f85 1E       		.uleb128 0x1e
 8315 1f86 01       		.uleb128 0x1
 8316 1f87 53       		.byte	0x53
 8317 1f88 02       		.uleb128 0x2
 8318 1f89 08       		.byte	0x8
 8319 1f8a 43       		.byte	0x43
 8320 1f8b 1E       		.uleb128 0x1e
 8321 1f8c 02       		.uleb128 0x2
 8322 1f8d 7D       		.byte	0x7d
 8323 1f8e 00       		.sleb128 0
 8324 1f8f 02       		.uleb128 0x2
 8325 1f90 75       		.byte	0x75
 8326 1f91 00       		.sleb128 0
 8327 1f92 00       		.byte	0
 8328 1f93 1D       		.uleb128 0x1d
 8329 1f94 88000000 		.4byte	.LVL444
 8330 1f98 E20B0000 		.4byte	0xbe2
 8331 1f9c A71F0000 		.4byte	0x1fa7
 8332 1fa0 1E       		.uleb128 0x1e
 8333 1fa1 01       		.uleb128 0x1
 8334 1fa2 50       		.byte	0x50
 8335 1fa3 02       		.uleb128 0x2
 8336 1fa4 74       		.byte	0x74
 8337 1fa5 00       		.sleb128 0
 8338 1fa6 00       		.byte	0
 8339 1fa7 20       		.uleb128 0x20
 8340 1fa8 94000000 		.4byte	.LVL445
 8341 1fac 80220000 		.4byte	0x2280
 8342 1fb0 1E       		.uleb128 0x1e
 8343 1fb1 01       		.uleb128 0x1
 8344 1fb2 50       		.byte	0x50
 8345 1fb3 02       		.uleb128 0x2
 8346 1fb4 75       		.byte	0x75
 8347 1fb5 00       		.sleb128 0
 8348 1fb6 00       		.byte	0
 8349 1fb7 00       		.byte	0
 8350 1fb8 2C       		.uleb128 0x2c
 8351 1fb9 140A0000 		.4byte	.LASF257
 8352 1fbd 01       		.byte	0x1
 8353 1fbe 9901     		.2byte	0x199
 8354 1fc0 00000000 		.4byte	.LFB58
 8355 1fc4 6C000000 		.4byte	.LFE58-.LFB58
 8356 1fc8 01       		.uleb128 0x1
 8357 1fc9 9C       		.byte	0x9c
 8358 1fca 45200000 		.4byte	0x2045
 8359 1fce 22       		.uleb128 0x22
 8360 1fcf 5A000000 		.4byte	.LASF83
ARM GAS  C:\Users\Phuong\AppData\Local\Temp\ccmYXgep.s 			page 193


 8361 1fd3 01       		.byte	0x1
 8362 1fd4 9B01     		.2byte	0x19b
 8363 1fd6 20030000 		.4byte	0x320
 8364 1fda 35110000 		.4byte	.LLST96
 8365 1fde 23       		.uleb128 0x23
 8366 1fdf 08000000 		.4byte	.LBB11
 8367 1fe3 58000000 		.4byte	.LBE11-.LBB11
 8368 1fe7 22       		.uleb128 0x22
 8369 1fe8 A3010000 		.4byte	.LASF132
 8370 1fec 01       		.byte	0x1
 8371 1fed A001     		.2byte	0x1a0
 8372 1fef 0A0A0000 		.4byte	0xa0a
 8373 1ff3 48110000 		.4byte	.LLST97
 8374 1ff7 1D       		.uleb128 0x1d
 8375 1ff8 2C000000 		.4byte	.LVL454
 8376 1ffc 641E0000 		.4byte	0x1e64
 8377 2000 0B200000 		.4byte	0x200b
 8378 2004 1E       		.uleb128 0x1e
 8379 2005 01       		.uleb128 0x1
 8380 2006 50       		.byte	0x50
 8381 2007 02       		.uleb128 0x2
 8382 2008 74       		.byte	0x74
 8383 2009 00       		.sleb128 0
 8384 200a 00       		.byte	0
 8385 200b 1D       		.uleb128 0x1d
 8386 200c 32000000 		.4byte	.LVL455
 8387 2010 120C0000 		.4byte	0xc12
 8388 2014 1F200000 		.4byte	0x201f
 8389 2018 1E       		.uleb128 0x1e
 8390 2019 01       		.uleb128 0x1
 8391 201a 50       		.byte	0x50
 8392 201b 02       		.uleb128 0x2
 8393 201c 74       		.byte	0x74
 8394 201d 00       		.sleb128 0
 8395 201e 00       		.byte	0
 8396 201f 1D       		.uleb128 0x1d
 8397 2020 48000000 		.4byte	.LVL457
 8398 2024 54110000 		.4byte	0x1154
 8399 2028 33200000 		.4byte	0x2033
 8400 202c 1E       		.uleb128 0x1e
 8401 202d 01       		.uleb128 0x1
 8402 202e 50       		.byte	0x50
 8403 202f 02       		.uleb128 0x2
 8404 2030 74       		.byte	0x74
 8405 2031 00       		.sleb128 0
 8406 2032 00       		.byte	0
 8407 2033 20       		.uleb128 0x20
 8408 2034 5E000000 		.4byte	.LVL459
 8409 2038 C71C0000 		.4byte	0x1cc7
 8410 203c 1E       		.uleb128 0x1e
 8411 203d 01       		.uleb128 0x1
 8412 203e 50       		.byte	0x50
 8413 203f 02       		.uleb128 0x2
 8414 2040 74       		.byte	0x74
 8415 2041 00       		.sleb128 0
 8416 2042 00       		.byte	0
 8417 2043 00       		.byte	0
ARM GAS  C:\Users\Phuong\AppData\Local\Temp\ccmYXgep.s 			page 194


 8418 2044 00       		.byte	0
 8419 2045 17       		.uleb128 0x17
 8420 2046 300C0000 		.4byte	.LASF258
 8421 204a 01       		.byte	0x1
 8422 204b E301     		.2byte	0x1e3
 8423 204d 00000000 		.4byte	.LFB60
 8424 2051 4A000000 		.4byte	.LFE60-.LFB60
 8425 2055 01       		.uleb128 0x1
 8426 2056 9C       		.byte	0x9c
 8427 2057 C8200000 		.4byte	0x20c8
 8428 205b 19       		.uleb128 0x19
 8429 205c 5A000000 		.4byte	.LASF83
 8430 2060 01       		.byte	0x1
 8431 2061 E301     		.2byte	0x1e3
 8432 2063 20030000 		.4byte	0x320
 8433 2067 71110000 		.4byte	.LLST98
 8434 206b 22       		.uleb128 0x22
 8435 206c A3010000 		.4byte	.LASF132
 8436 2070 01       		.byte	0x1
 8437 2071 E501     		.2byte	0x1e5
 8438 2073 0A0A0000 		.4byte	0xa0a
 8439 2077 F5110000 		.4byte	.LLST99
 8440 207b 1D       		.uleb128 0x1d
 8441 207c 16000000 		.4byte	.LVL465
 8442 2080 120C0000 		.4byte	0xc12
 8443 2084 8F200000 		.4byte	0x208f
 8444 2088 1E       		.uleb128 0x1e
 8445 2089 01       		.uleb128 0x1
 8446 208a 50       		.byte	0x50
 8447 208b 02       		.uleb128 0x2
 8448 208c 74       		.byte	0x74
 8449 208d 00       		.sleb128 0
 8450 208e 00       		.byte	0
 8451 208f 1F       		.uleb128 0x1f
 8452 2090 26000000 		.4byte	.LVL467
 8453 2094 94110000 		.4byte	0x1194
 8454 2098 1F       		.uleb128 0x1f
 8455 2099 2C000000 		.4byte	.LVL469
 8456 209d 641E0000 		.4byte	0x1e64
 8457 20a1 1D       		.uleb128 0x1d
 8458 20a2 32000000 		.4byte	.LVL470
 8459 20a6 120C0000 		.4byte	0xc12
 8460 20aa B5200000 		.4byte	0x20b5
 8461 20ae 1E       		.uleb128 0x1e
 8462 20af 01       		.uleb128 0x1
 8463 20b0 50       		.byte	0x50
 8464 20b1 02       		.uleb128 0x2
 8465 20b2 74       		.byte	0x74
 8466 20b3 00       		.sleb128 0
 8467 20b4 00       		.byte	0
 8468 20b5 1F       		.uleb128 0x1f
 8469 20b6 42000000 		.4byte	.LVL472
 8470 20ba 6F0D0000 		.4byte	0xd6f
 8471 20be 1F       		.uleb128 0x1f
 8472 20bf 48000000 		.4byte	.LVL474
 8473 20c3 120C0000 		.4byte	0xc12
 8474 20c7 00       		.byte	0
ARM GAS  C:\Users\Phuong\AppData\Local\Temp\ccmYXgep.s 			page 195


 8475 20c8 2C       		.uleb128 0x2c
 8476 20c9 7D0F0000 		.4byte	.LASF259
 8477 20cd 01       		.byte	0x1
 8478 20ce C101     		.2byte	0x1c1
 8479 20d0 00000000 		.4byte	.LFB59
 8480 20d4 34000000 		.4byte	.LFE59-.LFB59
 8481 20d8 01       		.uleb128 0x1
 8482 20d9 9C       		.byte	0x9c
 8483 20da 19210000 		.4byte	0x2119
 8484 20de 22       		.uleb128 0x22
 8485 20df 5A000000 		.4byte	.LASF83
 8486 20e3 01       		.byte	0x1
 8487 20e4 C301     		.2byte	0x1c3
 8488 20e6 20030000 		.4byte	0x320
 8489 20ea 34120000 		.4byte	.LLST100
 8490 20ee 23       		.uleb128 0x23
 8491 20ef 08000000 		.4byte	.LBB12
 8492 20f3 22000000 		.4byte	.LBE12-.LBB12
 8493 20f7 22       		.uleb128 0x22
 8494 20f8 A3010000 		.4byte	.LASF132
 8495 20fc 01       		.byte	0x1
 8496 20fd C601     		.2byte	0x1c6
 8497 20ff 0A0A0000 		.4byte	0xa0a
 8498 2103 47120000 		.4byte	.LLST101
 8499 2107 20       		.uleb128 0x20
 8500 2108 28000000 		.4byte	.LVL478
 8501 210c 45200000 		.4byte	0x2045
 8502 2110 1E       		.uleb128 0x1e
 8503 2111 01       		.uleb128 0x1
 8504 2112 50       		.byte	0x50
 8505 2113 02       		.uleb128 0x2
 8506 2114 74       		.byte	0x74
 8507 2115 00       		.sleb128 0
 8508 2116 00       		.byte	0
 8509 2117 00       		.byte	0
 8510 2118 00       		.byte	0
 8511 2119 08       		.uleb128 0x8
 8512 211a CC000000 		.4byte	0xcc
 8513 211e 29210000 		.4byte	0x2129
 8514 2122 09       		.uleb128 0x9
 8515 2123 8A000000 		.4byte	0x8a
 8516 2127 03       		.byte	0x3
 8517 2128 00       		.byte	0
 8518 2129 2F       		.uleb128 0x2f
 8519 212a C6080000 		.4byte	.LASF260
 8520 212e 01       		.byte	0x1
 8521 212f 95       		.byte	0x95
 8522 2130 3A210000 		.4byte	0x213a
 8523 2134 05       		.uleb128 0x5
 8524 2135 03       		.byte	0x3
 8525 2136 F0000000 		.4byte	dhcp_discover_request_options
 8526 213a 07       		.uleb128 0x7
 8527 213b 19210000 		.4byte	0x2119
 8528 213f 2F       		.uleb128 0x2f
 8529 2140 86080000 		.4byte	.LASF261
 8530 2144 01       		.byte	0x1
 8531 2145 AD       		.byte	0xad
ARM GAS  C:\Users\Phuong\AppData\Local\Temp\ccmYXgep.s 			page 196


 8532 2146 3B060000 		.4byte	0x63b
 8533 214a 05       		.uleb128 0x5
 8534 214b 03       		.byte	0x3
 8535 214c 04000000 		.4byte	dhcp_pcb
 8536 2150 2F       		.uleb128 0x2f
 8537 2151 2E0D0000 		.4byte	.LASF262
 8538 2155 01       		.byte	0x1
 8539 2156 AE       		.byte	0xae
 8540 2157 CC000000 		.4byte	0xcc
 8541 215b 05       		.uleb128 0x5
 8542 215c 03       		.byte	0x3
 8543 215d 08000000 		.4byte	dhcp_pcb_refcount
 8544 2161 30       		.uleb128 0x30
 8545 2162 3E040000 		.4byte	.LASF263
 8546 2166 0A       		.byte	0xa
 8547 2167 5201     		.2byte	0x152
 8548 2169 F0060000 		.4byte	0x6f0
 8549 216d 30       		.uleb128 0x30
 8550 216e 2F020000 		.4byte	.LASF264
 8551 2172 0A       		.byte	0xa
 8552 2173 5301     		.2byte	0x153
 8553 2175 F0060000 		.4byte	0x6f0
 8554 2179 30       		.uleb128 0x30
 8555 217a C3060000 		.4byte	.LASF265
 8556 217e 0B       		.byte	0xb
 8557 217f 6101     		.2byte	0x161
 8558 2181 20030000 		.4byte	0x320
 8559 2185 31       		.uleb128 0x31
 8560 2186 11020000 		.4byte	.LASF266
 8561 218a 0D       		.byte	0xd
 8562 218b 7E       		.byte	0x7e
 8563 218c B0050000 		.4byte	0x5b0
 8564 2190 08       		.uleb128 0x8
 8565 2191 F8000000 		.4byte	0xf8
 8566 2195 A0210000 		.4byte	0x21a0
 8567 2199 09       		.uleb128 0x9
 8568 219a 8A000000 		.4byte	0x8a
 8569 219e 09       		.byte	0x9
 8570 219f 00       		.byte	0
 8571 21a0 32       		.uleb128 0x32
 8572 21a1 08000000 		.4byte	.LASF267
 8573 21a5 01       		.byte	0x1
 8574 21a6 8F       		.byte	0x8f
 8575 21a7 90210000 		.4byte	0x2190
 8576 21ab 05       		.uleb128 0x5
 8577 21ac 03       		.byte	0x3
 8578 21ad 00000000 		.4byte	dhcp_rx_options_val
 8579 21b1 08       		.uleb128 0x8
 8580 21b2 CC000000 		.4byte	0xcc
 8581 21b6 C1210000 		.4byte	0x21c1
 8582 21ba 09       		.uleb128 0x9
 8583 21bb 8A000000 		.4byte	0x8a
 8584 21bf 09       		.byte	0x9
 8585 21c0 00       		.byte	0
 8586 21c1 32       		.uleb128 0x32
 8587 21c2 C1020000 		.4byte	.LASF268
 8588 21c6 01       		.byte	0x1
ARM GAS  C:\Users\Phuong\AppData\Local\Temp\ccmYXgep.s 			page 197


 8589 21c7 93       		.byte	0x93
 8590 21c8 B1210000 		.4byte	0x21b1
 8591 21cc 05       		.uleb128 0x5
 8592 21cd 03       		.byte	0x3
 8593 21ce 00000000 		.4byte	dhcp_rx_options_given
 8594 21d2 33       		.uleb128 0x33
 8595 21d3 5B080000 		.4byte	.LASF269
 8596 21d7 5B080000 		.4byte	.LASF269
 8597 21db 08       		.byte	0x8
 8598 21dc DF       		.byte	0xdf
 8599 21dd 33       		.uleb128 0x33
 8600 21de A70A0000 		.4byte	.LASF270
 8601 21e2 A70A0000 		.4byte	.LASF270
 8602 21e6 11       		.byte	0x11
 8603 21e7 36       		.byte	0x36
 8604 21e8 33       		.uleb128 0x33
 8605 21e9 120B0000 		.4byte	.LASF271
 8606 21ed 120B0000 		.4byte	.LASF271
 8607 21f1 12       		.byte	0x12
 8608 21f2 5A       		.byte	0x5a
 8609 21f3 33       		.uleb128 0x33
 8610 21f4 71000000 		.4byte	.LASF272
 8611 21f8 71000000 		.4byte	.LASF272
 8612 21fc 08       		.byte	0x8
 8613 21fd E9       		.byte	0xe9
 8614 21fe 33       		.uleb128 0x33
 8615 21ff 27010000 		.4byte	.LASF273
 8616 2203 27010000 		.4byte	.LASF273
 8617 2207 08       		.byte	0x8
 8618 2208 E5       		.byte	0xe5
 8619 2209 33       		.uleb128 0x33
 8620 220a EB0F0000 		.4byte	.LASF274
 8621 220e EB0F0000 		.4byte	.LASF274
 8622 2212 0E       		.byte	0xe
 8623 2213 80       		.byte	0x80
 8624 2214 33       		.uleb128 0x33
 8625 2215 EB020000 		.4byte	.LASF275
 8626 2219 EB020000 		.4byte	.LASF275
 8627 221d 0E       		.byte	0xe
 8628 221e 7D       		.byte	0x7d
 8629 221f 33       		.uleb128 0x33
 8630 2220 680A0000 		.4byte	.LASF276
 8631 2224 680A0000 		.4byte	.LASF276
 8632 2228 13       		.byte	0x13
 8633 2229 21       		.byte	0x21
 8634 222a 33       		.uleb128 0x33
 8635 222b 700E0000 		.4byte	.LASF277
 8636 222f 700E0000 		.4byte	.LASF277
 8637 2233 0E       		.byte	0xe
 8638 2234 75       		.byte	0x75
 8639 2235 33       		.uleb128 0x33
 8640 2236 FA060000 		.4byte	.LASF278
 8641 223a FA060000 		.4byte	.LASF278
 8642 223e 0E       		.byte	0xe
 8643 223f 73       		.byte	0x73
 8644 2240 33       		.uleb128 0x33
 8645 2241 100E0000 		.4byte	.LASF279
ARM GAS  C:\Users\Phuong\AppData\Local\Temp\ccmYXgep.s 			page 198


 8646 2245 100E0000 		.4byte	.LASF279
 8647 2249 0E       		.byte	0xe
 8648 224a 76       		.byte	0x76
 8649 224b 33       		.uleb128 0x33
 8650 224c A8010000 		.4byte	.LASF280
 8651 2250 A8010000 		.4byte	.LASF280
 8652 2254 0E       		.byte	0xe
 8653 2255 78       		.byte	0x78
 8654 2256 33       		.uleb128 0x33
 8655 2257 5E0D0000 		.4byte	.LASF281
 8656 225b 5E0D0000 		.4byte	.LASF281
 8657 225f 0E       		.byte	0xe
 8658 2260 7B       		.byte	0x7b
 8659 2261 33       		.uleb128 0x33
 8660 2262 4D010000 		.4byte	.LASF282
 8661 2266 4D010000 		.4byte	.LASF282
 8662 226a 08       		.byte	0x8
 8663 226b EF       		.byte	0xef
 8664 226c 34       		.uleb128 0x34
 8665 226d 8D090000 		.4byte	.LASF290
 8666 2271 8D090000 		.4byte	.LASF290
 8667 2275 33       		.uleb128 0x33
 8668 2276 01010000 		.4byte	.LASF283
 8669 227a 01010000 		.4byte	.LASF283
 8670 227e 14       		.byte	0x14
 8671 227f 6A       		.byte	0x6a
 8672 2280 35       		.uleb128 0x35
 8673 2281 D10C0000 		.4byte	.LASF284
 8674 2285 D10C0000 		.4byte	.LASF284
 8675 2289 0B       		.byte	0xb
 8676 228a 6D01     		.2byte	0x16d
 8677 228c 33       		.uleb128 0x33
 8678 228d 28000000 		.4byte	.LASF285
 8679 2291 28000000 		.4byte	.LASF285
 8680 2295 15       		.byte	0x15
 8681 2296 4C       		.byte	0x4c
 8682 2297 33       		.uleb128 0x33
 8683 2298 51060000 		.4byte	.LASF286
 8684 229c 51060000 		.4byte	.LASF286
 8685 22a0 15       		.byte	0x15
 8686 22a1 4A       		.byte	0x4a
 8687 22a2 00       		.byte	0
 8688              		.section	.debug_abbrev,"",%progbits
 8689              	.Ldebug_abbrev0:
 8690 0000 01       		.uleb128 0x1
 8691 0001 11       		.uleb128 0x11
 8692 0002 01       		.byte	0x1
 8693 0003 25       		.uleb128 0x25
 8694 0004 0E       		.uleb128 0xe
 8695 0005 13       		.uleb128 0x13
 8696 0006 0B       		.uleb128 0xb
 8697 0007 03       		.uleb128 0x3
 8698 0008 0E       		.uleb128 0xe
 8699 0009 1B       		.uleb128 0x1b
 8700 000a 0E       		.uleb128 0xe
 8701 000b 55       		.uleb128 0x55
 8702 000c 17       		.uleb128 0x17
ARM GAS  C:\Users\Phuong\AppData\Local\Temp\ccmYXgep.s 			page 199


 8703 000d 11       		.uleb128 0x11
 8704 000e 01       		.uleb128 0x1
 8705 000f 10       		.uleb128 0x10
 8706 0010 17       		.uleb128 0x17
 8707 0011 00       		.byte	0
 8708 0012 00       		.byte	0
 8709 0013 02       		.uleb128 0x2
 8710 0014 24       		.uleb128 0x24
 8711 0015 00       		.byte	0
 8712 0016 0B       		.uleb128 0xb
 8713 0017 0B       		.uleb128 0xb
 8714 0018 3E       		.uleb128 0x3e
 8715 0019 0B       		.uleb128 0xb
 8716 001a 03       		.uleb128 0x3
 8717 001b 0E       		.uleb128 0xe
 8718 001c 00       		.byte	0
 8719 001d 00       		.byte	0
 8720 001e 03       		.uleb128 0x3
 8721 001f 16       		.uleb128 0x16
 8722 0020 00       		.byte	0
 8723 0021 03       		.uleb128 0x3
 8724 0022 0E       		.uleb128 0xe
 8725 0023 3A       		.uleb128 0x3a
 8726 0024 0B       		.uleb128 0xb
 8727 0025 3B       		.uleb128 0x3b
 8728 0026 0B       		.uleb128 0xb
 8729 0027 49       		.uleb128 0x49
 8730 0028 13       		.uleb128 0x13
 8731 0029 00       		.byte	0
 8732 002a 00       		.byte	0
 8733 002b 04       		.uleb128 0x4
 8734 002c 24       		.uleb128 0x24
 8735 002d 00       		.byte	0
 8736 002e 0B       		.uleb128 0xb
 8737 002f 0B       		.uleb128 0xb
 8738 0030 3E       		.uleb128 0x3e
 8739 0031 0B       		.uleb128 0xb
 8740 0032 03       		.uleb128 0x3
 8741 0033 08       		.uleb128 0x8
 8742 0034 00       		.byte	0
 8743 0035 00       		.byte	0
 8744 0036 05       		.uleb128 0x5
 8745 0037 0F       		.uleb128 0xf
 8746 0038 00       		.byte	0
 8747 0039 0B       		.uleb128 0xb
 8748 003a 0B       		.uleb128 0xb
 8749 003b 00       		.byte	0
 8750 003c 00       		.byte	0
 8751 003d 06       		.uleb128 0x6
 8752 003e 0F       		.uleb128 0xf
 8753 003f 00       		.byte	0
 8754 0040 0B       		.uleb128 0xb
 8755 0041 0B       		.uleb128 0xb
 8756 0042 49       		.uleb128 0x49
 8757 0043 13       		.uleb128 0x13
 8758 0044 00       		.byte	0
 8759 0045 00       		.byte	0
ARM GAS  C:\Users\Phuong\AppData\Local\Temp\ccmYXgep.s 			page 200


 8760 0046 07       		.uleb128 0x7
 8761 0047 26       		.uleb128 0x26
 8762 0048 00       		.byte	0
 8763 0049 49       		.uleb128 0x49
 8764 004a 13       		.uleb128 0x13
 8765 004b 00       		.byte	0
 8766 004c 00       		.byte	0
 8767 004d 08       		.uleb128 0x8
 8768 004e 01       		.uleb128 0x1
 8769 004f 01       		.byte	0x1
 8770 0050 49       		.uleb128 0x49
 8771 0051 13       		.uleb128 0x13
 8772 0052 01       		.uleb128 0x1
 8773 0053 13       		.uleb128 0x13
 8774 0054 00       		.byte	0
 8775 0055 00       		.byte	0
 8776 0056 09       		.uleb128 0x9
 8777 0057 21       		.uleb128 0x21
 8778 0058 00       		.byte	0
 8779 0059 49       		.uleb128 0x49
 8780 005a 13       		.uleb128 0x13
 8781 005b 2F       		.uleb128 0x2f
 8782 005c 0B       		.uleb128 0xb
 8783 005d 00       		.byte	0
 8784 005e 00       		.byte	0
 8785 005f 0A       		.uleb128 0xa
 8786 0060 04       		.uleb128 0x4
 8787 0061 01       		.byte	0x1
 8788 0062 0B       		.uleb128 0xb
 8789 0063 0B       		.uleb128 0xb
 8790 0064 49       		.uleb128 0x49
 8791 0065 13       		.uleb128 0x13
 8792 0066 3A       		.uleb128 0x3a
 8793 0067 0B       		.uleb128 0xb
 8794 0068 3B       		.uleb128 0x3b
 8795 0069 0B       		.uleb128 0xb
 8796 006a 01       		.uleb128 0x1
 8797 006b 13       		.uleb128 0x13
 8798 006c 00       		.byte	0
 8799 006d 00       		.byte	0
 8800 006e 0B       		.uleb128 0xb
 8801 006f 28       		.uleb128 0x28
 8802 0070 00       		.byte	0
 8803 0071 03       		.uleb128 0x3
 8804 0072 0E       		.uleb128 0xe
 8805 0073 1C       		.uleb128 0x1c
 8806 0074 0B       		.uleb128 0xb
 8807 0075 00       		.byte	0
 8808 0076 00       		.byte	0
 8809 0077 0C       		.uleb128 0xc
 8810 0078 28       		.uleb128 0x28
 8811 0079 00       		.byte	0
 8812 007a 03       		.uleb128 0x3
 8813 007b 0E       		.uleb128 0xe
 8814 007c 1C       		.uleb128 0x1c
 8815 007d 0D       		.uleb128 0xd
 8816 007e 00       		.byte	0
ARM GAS  C:\Users\Phuong\AppData\Local\Temp\ccmYXgep.s 			page 201


 8817 007f 00       		.byte	0
 8818 0080 0D       		.uleb128 0xd
 8819 0081 13       		.uleb128 0x13
 8820 0082 01       		.byte	0x1
 8821 0083 03       		.uleb128 0x3
 8822 0084 0E       		.uleb128 0xe
 8823 0085 0B       		.uleb128 0xb
 8824 0086 0B       		.uleb128 0xb
 8825 0087 3A       		.uleb128 0x3a
 8826 0088 0B       		.uleb128 0xb
 8827 0089 3B       		.uleb128 0x3b
 8828 008a 0B       		.uleb128 0xb
 8829 008b 01       		.uleb128 0x1
 8830 008c 13       		.uleb128 0x13
 8831 008d 00       		.byte	0
 8832 008e 00       		.byte	0
 8833 008f 0E       		.uleb128 0xe
 8834 0090 0D       		.uleb128 0xd
 8835 0091 00       		.byte	0
 8836 0092 03       		.uleb128 0x3
 8837 0093 0E       		.uleb128 0xe
 8838 0094 3A       		.uleb128 0x3a
 8839 0095 0B       		.uleb128 0xb
 8840 0096 3B       		.uleb128 0x3b
 8841 0097 0B       		.uleb128 0xb
 8842 0098 49       		.uleb128 0x49
 8843 0099 13       		.uleb128 0x13
 8844 009a 38       		.uleb128 0x38
 8845 009b 0B       		.uleb128 0xb
 8846 009c 00       		.byte	0
 8847 009d 00       		.byte	0
 8848 009e 0F       		.uleb128 0xf
 8849 009f 0D       		.uleb128 0xd
 8850 00a0 00       		.byte	0
 8851 00a1 03       		.uleb128 0x3
 8852 00a2 08       		.uleb128 0x8
 8853 00a3 3A       		.uleb128 0x3a
 8854 00a4 0B       		.uleb128 0xb
 8855 00a5 3B       		.uleb128 0x3b
 8856 00a6 0B       		.uleb128 0xb
 8857 00a7 49       		.uleb128 0x49
 8858 00a8 13       		.uleb128 0x13
 8859 00a9 38       		.uleb128 0x38
 8860 00aa 0B       		.uleb128 0xb
 8861 00ab 00       		.byte	0
 8862 00ac 00       		.byte	0
 8863 00ad 10       		.uleb128 0x10
 8864 00ae 04       		.uleb128 0x4
 8865 00af 01       		.byte	0x1
 8866 00b0 03       		.uleb128 0x3
 8867 00b1 0E       		.uleb128 0xe
 8868 00b2 0B       		.uleb128 0xb
 8869 00b3 0B       		.uleb128 0xb
 8870 00b4 49       		.uleb128 0x49
 8871 00b5 13       		.uleb128 0x13
 8872 00b6 3A       		.uleb128 0x3a
 8873 00b7 0B       		.uleb128 0xb
ARM GAS  C:\Users\Phuong\AppData\Local\Temp\ccmYXgep.s 			page 202


 8874 00b8 3B       		.uleb128 0x3b
 8875 00b9 0B       		.uleb128 0xb
 8876 00ba 01       		.uleb128 0x1
 8877 00bb 13       		.uleb128 0x13
 8878 00bc 00       		.byte	0
 8879 00bd 00       		.byte	0
 8880 00be 11       		.uleb128 0x11
 8881 00bf 0D       		.uleb128 0xd
 8882 00c0 00       		.byte	0
 8883 00c1 03       		.uleb128 0x3
 8884 00c2 0E       		.uleb128 0xe
 8885 00c3 3A       		.uleb128 0x3a
 8886 00c4 0B       		.uleb128 0xb
 8887 00c5 3B       		.uleb128 0x3b
 8888 00c6 05       		.uleb128 0x5
 8889 00c7 49       		.uleb128 0x49
 8890 00c8 13       		.uleb128 0x13
 8891 00c9 38       		.uleb128 0x38
 8892 00ca 0B       		.uleb128 0xb
 8893 00cb 00       		.byte	0
 8894 00cc 00       		.byte	0
 8895 00cd 12       		.uleb128 0x12
 8896 00ce 0D       		.uleb128 0xd
 8897 00cf 00       		.byte	0
 8898 00d0 03       		.uleb128 0x3
 8899 00d1 08       		.uleb128 0x8
 8900 00d2 3A       		.uleb128 0x3a
 8901 00d3 0B       		.uleb128 0xb
 8902 00d4 3B       		.uleb128 0x3b
 8903 00d5 05       		.uleb128 0x5
 8904 00d6 49       		.uleb128 0x49
 8905 00d7 13       		.uleb128 0x13
 8906 00d8 38       		.uleb128 0x38
 8907 00d9 0B       		.uleb128 0xb
 8908 00da 00       		.byte	0
 8909 00db 00       		.byte	0
 8910 00dc 13       		.uleb128 0x13
 8911 00dd 15       		.uleb128 0x15
 8912 00de 01       		.byte	0x1
 8913 00df 27       		.uleb128 0x27
 8914 00e0 19       		.uleb128 0x19
 8915 00e1 49       		.uleb128 0x49
 8916 00e2 13       		.uleb128 0x13
 8917 00e3 01       		.uleb128 0x1
 8918 00e4 13       		.uleb128 0x13
 8919 00e5 00       		.byte	0
 8920 00e6 00       		.byte	0
 8921 00e7 14       		.uleb128 0x14
 8922 00e8 05       		.uleb128 0x5
 8923 00e9 00       		.byte	0
 8924 00ea 49       		.uleb128 0x49
 8925 00eb 13       		.uleb128 0x13
 8926 00ec 00       		.byte	0
 8927 00ed 00       		.byte	0
 8928 00ee 15       		.uleb128 0x15
 8929 00ef 15       		.uleb128 0x15
 8930 00f0 01       		.byte	0x1
ARM GAS  C:\Users\Phuong\AppData\Local\Temp\ccmYXgep.s 			page 203


 8931 00f1 27       		.uleb128 0x27
 8932 00f2 19       		.uleb128 0x19
 8933 00f3 01       		.uleb128 0x1
 8934 00f4 13       		.uleb128 0x13
 8935 00f5 00       		.byte	0
 8936 00f6 00       		.byte	0
 8937 00f7 16       		.uleb128 0x16
 8938 00f8 13       		.uleb128 0x13
 8939 00f9 01       		.byte	0x1
 8940 00fa 03       		.uleb128 0x3
 8941 00fb 0E       		.uleb128 0xe
 8942 00fc 0B       		.uleb128 0xb
 8943 00fd 05       		.uleb128 0x5
 8944 00fe 3A       		.uleb128 0x3a
 8945 00ff 0B       		.uleb128 0xb
 8946 0100 3B       		.uleb128 0x3b
 8947 0101 0B       		.uleb128 0xb
 8948 0102 01       		.uleb128 0x1
 8949 0103 13       		.uleb128 0x13
 8950 0104 00       		.byte	0
 8951 0105 00       		.byte	0
 8952 0106 17       		.uleb128 0x17
 8953 0107 2E       		.uleb128 0x2e
 8954 0108 01       		.byte	0x1
 8955 0109 03       		.uleb128 0x3
 8956 010a 0E       		.uleb128 0xe
 8957 010b 3A       		.uleb128 0x3a
 8958 010c 0B       		.uleb128 0xb
 8959 010d 3B       		.uleb128 0x3b
 8960 010e 05       		.uleb128 0x5
 8961 010f 27       		.uleb128 0x27
 8962 0110 19       		.uleb128 0x19
 8963 0111 11       		.uleb128 0x11
 8964 0112 01       		.uleb128 0x1
 8965 0113 12       		.uleb128 0x12
 8966 0114 06       		.uleb128 0x6
 8967 0115 40       		.uleb128 0x40
 8968 0116 18       		.uleb128 0x18
 8969 0117 9742     		.uleb128 0x2117
 8970 0119 19       		.uleb128 0x19
 8971 011a 01       		.uleb128 0x1
 8972 011b 13       		.uleb128 0x13
 8973 011c 00       		.byte	0
 8974 011d 00       		.byte	0
 8975 011e 18       		.uleb128 0x18
 8976 011f 05       		.uleb128 0x5
 8977 0120 00       		.byte	0
 8978 0121 03       		.uleb128 0x3
 8979 0122 0E       		.uleb128 0xe
 8980 0123 3A       		.uleb128 0x3a
 8981 0124 0B       		.uleb128 0xb
 8982 0125 3B       		.uleb128 0x3b
 8983 0126 05       		.uleb128 0x5
 8984 0127 49       		.uleb128 0x49
 8985 0128 13       		.uleb128 0x13
 8986 0129 02       		.uleb128 0x2
 8987 012a 18       		.uleb128 0x18
ARM GAS  C:\Users\Phuong\AppData\Local\Temp\ccmYXgep.s 			page 204


 8988 012b 00       		.byte	0
 8989 012c 00       		.byte	0
 8990 012d 19       		.uleb128 0x19
 8991 012e 05       		.uleb128 0x5
 8992 012f 00       		.byte	0
 8993 0130 03       		.uleb128 0x3
 8994 0131 0E       		.uleb128 0xe
 8995 0132 3A       		.uleb128 0x3a
 8996 0133 0B       		.uleb128 0xb
 8997 0134 3B       		.uleb128 0x3b
 8998 0135 05       		.uleb128 0x5
 8999 0136 49       		.uleb128 0x49
 9000 0137 13       		.uleb128 0x13
 9001 0138 02       		.uleb128 0x2
 9002 0139 17       		.uleb128 0x17
 9003 013a 00       		.byte	0
 9004 013b 00       		.byte	0
 9005 013c 1A       		.uleb128 0x1a
 9006 013d 2E       		.uleb128 0x2e
 9007 013e 01       		.byte	0x1
 9008 013f 03       		.uleb128 0x3
 9009 0140 0E       		.uleb128 0xe
 9010 0141 3A       		.uleb128 0x3a
 9011 0142 0B       		.uleb128 0xb
 9012 0143 3B       		.uleb128 0x3b
 9013 0144 05       		.uleb128 0x5
 9014 0145 27       		.uleb128 0x27
 9015 0146 19       		.uleb128 0x19
 9016 0147 49       		.uleb128 0x49
 9017 0148 13       		.uleb128 0x13
 9018 0149 11       		.uleb128 0x11
 9019 014a 01       		.uleb128 0x1
 9020 014b 12       		.uleb128 0x12
 9021 014c 06       		.uleb128 0x6
 9022 014d 40       		.uleb128 0x40
 9023 014e 18       		.uleb128 0x18
 9024 014f 9742     		.uleb128 0x2117
 9025 0151 19       		.uleb128 0x19
 9026 0152 01       		.uleb128 0x1
 9027 0153 13       		.uleb128 0x13
 9028 0154 00       		.byte	0
 9029 0155 00       		.byte	0
 9030 0156 1B       		.uleb128 0x1b
 9031 0157 34       		.uleb128 0x34
 9032 0158 00       		.byte	0
 9033 0159 03       		.uleb128 0x3
 9034 015a 08       		.uleb128 0x8
 9035 015b 3A       		.uleb128 0x3a
 9036 015c 0B       		.uleb128 0xb
 9037 015d 3B       		.uleb128 0x3b
 9038 015e 05       		.uleb128 0x5
 9039 015f 49       		.uleb128 0x49
 9040 0160 13       		.uleb128 0x13
 9041 0161 02       		.uleb128 0x2
 9042 0162 17       		.uleb128 0x17
 9043 0163 00       		.byte	0
 9044 0164 00       		.byte	0
ARM GAS  C:\Users\Phuong\AppData\Local\Temp\ccmYXgep.s 			page 205


 9045 0165 1C       		.uleb128 0x1c
 9046 0166 34       		.uleb128 0x34
 9047 0167 00       		.byte	0
 9048 0168 03       		.uleb128 0x3
 9049 0169 08       		.uleb128 0x8
 9050 016a 3A       		.uleb128 0x3a
 9051 016b 0B       		.uleb128 0xb
 9052 016c 3B       		.uleb128 0x3b
 9053 016d 05       		.uleb128 0x5
 9054 016e 49       		.uleb128 0x49
 9055 016f 13       		.uleb128 0x13
 9056 0170 02       		.uleb128 0x2
 9057 0171 18       		.uleb128 0x18
 9058 0172 00       		.byte	0
 9059 0173 00       		.byte	0
 9060 0174 1D       		.uleb128 0x1d
 9061 0175 898201   		.uleb128 0x4109
 9062 0178 01       		.byte	0x1
 9063 0179 11       		.uleb128 0x11
 9064 017a 01       		.uleb128 0x1
 9065 017b 31       		.uleb128 0x31
 9066 017c 13       		.uleb128 0x13
 9067 017d 01       		.uleb128 0x1
 9068 017e 13       		.uleb128 0x13
 9069 017f 00       		.byte	0
 9070 0180 00       		.byte	0
 9071 0181 1E       		.uleb128 0x1e
 9072 0182 8A8201   		.uleb128 0x410a
 9073 0185 00       		.byte	0
 9074 0186 02       		.uleb128 0x2
 9075 0187 18       		.uleb128 0x18
 9076 0188 9142     		.uleb128 0x2111
 9077 018a 18       		.uleb128 0x18
 9078 018b 00       		.byte	0
 9079 018c 00       		.byte	0
 9080 018d 1F       		.uleb128 0x1f
 9081 018e 898201   		.uleb128 0x4109
 9082 0191 00       		.byte	0
 9083 0192 11       		.uleb128 0x11
 9084 0193 01       		.uleb128 0x1
 9085 0194 31       		.uleb128 0x31
 9086 0195 13       		.uleb128 0x13
 9087 0196 00       		.byte	0
 9088 0197 00       		.byte	0
 9089 0198 20       		.uleb128 0x20
 9090 0199 898201   		.uleb128 0x4109
 9091 019c 01       		.byte	0x1
 9092 019d 11       		.uleb128 0x11
 9093 019e 01       		.uleb128 0x1
 9094 019f 31       		.uleb128 0x31
 9095 01a0 13       		.uleb128 0x13
 9096 01a1 00       		.byte	0
 9097 01a2 00       		.byte	0
 9098 01a3 21       		.uleb128 0x21
 9099 01a4 2E       		.uleb128 0x2e
 9100 01a5 01       		.byte	0x1
 9101 01a6 03       		.uleb128 0x3
ARM GAS  C:\Users\Phuong\AppData\Local\Temp\ccmYXgep.s 			page 206


 9102 01a7 0E       		.uleb128 0xe
 9103 01a8 3A       		.uleb128 0x3a
 9104 01a9 0B       		.uleb128 0xb
 9105 01aa 3B       		.uleb128 0x3b
 9106 01ab 05       		.uleb128 0x5
 9107 01ac 27       		.uleb128 0x27
 9108 01ad 19       		.uleb128 0x19
 9109 01ae 49       		.uleb128 0x49
 9110 01af 13       		.uleb128 0x13
 9111 01b0 11       		.uleb128 0x11
 9112 01b1 01       		.uleb128 0x1
 9113 01b2 12       		.uleb128 0x12
 9114 01b3 06       		.uleb128 0x6
 9115 01b4 40       		.uleb128 0x40
 9116 01b5 18       		.uleb128 0x18
 9117 01b6 9642     		.uleb128 0x2116
 9118 01b8 19       		.uleb128 0x19
 9119 01b9 01       		.uleb128 0x1
 9120 01ba 13       		.uleb128 0x13
 9121 01bb 00       		.byte	0
 9122 01bc 00       		.byte	0
 9123 01bd 22       		.uleb128 0x22
 9124 01be 34       		.uleb128 0x34
 9125 01bf 00       		.byte	0
 9126 01c0 03       		.uleb128 0x3
 9127 01c1 0E       		.uleb128 0xe
 9128 01c2 3A       		.uleb128 0x3a
 9129 01c3 0B       		.uleb128 0xb
 9130 01c4 3B       		.uleb128 0x3b
 9131 01c5 05       		.uleb128 0x5
 9132 01c6 49       		.uleb128 0x49
 9133 01c7 13       		.uleb128 0x13
 9134 01c8 02       		.uleb128 0x2
 9135 01c9 17       		.uleb128 0x17
 9136 01ca 00       		.byte	0
 9137 01cb 00       		.byte	0
 9138 01cc 23       		.uleb128 0x23
 9139 01cd 0B       		.uleb128 0xb
 9140 01ce 01       		.byte	0x1
 9141 01cf 11       		.uleb128 0x11
 9142 01d0 01       		.uleb128 0x1
 9143 01d1 12       		.uleb128 0x12
 9144 01d2 06       		.uleb128 0x6
 9145 01d3 00       		.byte	0
 9146 01d4 00       		.byte	0
 9147 01d5 24       		.uleb128 0x24
 9148 01d6 0B       		.uleb128 0xb
 9149 01d7 01       		.byte	0x1
 9150 01d8 11       		.uleb128 0x11
 9151 01d9 01       		.uleb128 0x1
 9152 01da 12       		.uleb128 0x12
 9153 01db 06       		.uleb128 0x6
 9154 01dc 01       		.uleb128 0x1
 9155 01dd 13       		.uleb128 0x13
 9156 01de 00       		.byte	0
 9157 01df 00       		.byte	0
 9158 01e0 25       		.uleb128 0x25
ARM GAS  C:\Users\Phuong\AppData\Local\Temp\ccmYXgep.s 			page 207


 9159 01e1 2E       		.uleb128 0x2e
 9160 01e2 01       		.byte	0x1
 9161 01e3 03       		.uleb128 0x3
 9162 01e4 0E       		.uleb128 0xe
 9163 01e5 3A       		.uleb128 0x3a
 9164 01e6 0B       		.uleb128 0xb
 9165 01e7 3B       		.uleb128 0x3b
 9166 01e8 0B       		.uleb128 0xb
 9167 01e9 27       		.uleb128 0x27
 9168 01ea 19       		.uleb128 0x19
 9169 01eb 11       		.uleb128 0x11
 9170 01ec 01       		.uleb128 0x1
 9171 01ed 12       		.uleb128 0x12
 9172 01ee 06       		.uleb128 0x6
 9173 01ef 40       		.uleb128 0x40
 9174 01f0 18       		.uleb128 0x18
 9175 01f1 9742     		.uleb128 0x2117
 9176 01f3 19       		.uleb128 0x19
 9177 01f4 01       		.uleb128 0x1
 9178 01f5 13       		.uleb128 0x13
 9179 01f6 00       		.byte	0
 9180 01f7 00       		.byte	0
 9181 01f8 26       		.uleb128 0x26
 9182 01f9 2E       		.uleb128 0x2e
 9183 01fa 01       		.byte	0x1
 9184 01fb 03       		.uleb128 0x3
 9185 01fc 0E       		.uleb128 0xe
 9186 01fd 3A       		.uleb128 0x3a
 9187 01fe 0B       		.uleb128 0xb
 9188 01ff 3B       		.uleb128 0x3b
 9189 0200 0B       		.uleb128 0xb
 9190 0201 27       		.uleb128 0x27
 9191 0202 19       		.uleb128 0x19
 9192 0203 49       		.uleb128 0x49
 9193 0204 13       		.uleb128 0x13
 9194 0205 11       		.uleb128 0x11
 9195 0206 01       		.uleb128 0x1
 9196 0207 12       		.uleb128 0x12
 9197 0208 06       		.uleb128 0x6
 9198 0209 40       		.uleb128 0x40
 9199 020a 18       		.uleb128 0x18
 9200 020b 9742     		.uleb128 0x2117
 9201 020d 19       		.uleb128 0x19
 9202 020e 01       		.uleb128 0x1
 9203 020f 13       		.uleb128 0x13
 9204 0210 00       		.byte	0
 9205 0211 00       		.byte	0
 9206 0212 27       		.uleb128 0x27
 9207 0213 05       		.uleb128 0x5
 9208 0214 00       		.byte	0
 9209 0215 03       		.uleb128 0x3
 9210 0216 08       		.uleb128 0x8
 9211 0217 3A       		.uleb128 0x3a
 9212 0218 0B       		.uleb128 0xb
 9213 0219 3B       		.uleb128 0x3b
 9214 021a 05       		.uleb128 0x5
 9215 021b 49       		.uleb128 0x49
ARM GAS  C:\Users\Phuong\AppData\Local\Temp\ccmYXgep.s 			page 208


 9216 021c 13       		.uleb128 0x13
 9217 021d 02       		.uleb128 0x2
 9218 021e 17       		.uleb128 0x17
 9219 021f 00       		.byte	0
 9220 0220 00       		.byte	0
 9221 0221 28       		.uleb128 0x28
 9222 0222 0A       		.uleb128 0xa
 9223 0223 00       		.byte	0
 9224 0224 03       		.uleb128 0x3
 9225 0225 0E       		.uleb128 0xe
 9226 0226 3A       		.uleb128 0x3a
 9227 0227 0B       		.uleb128 0xb
 9228 0228 3B       		.uleb128 0x3b
 9229 0229 05       		.uleb128 0x5
 9230 022a 11       		.uleb128 0x11
 9231 022b 01       		.uleb128 0x1
 9232 022c 00       		.byte	0
 9233 022d 00       		.byte	0
 9234 022e 29       		.uleb128 0x29
 9235 022f 0B       		.uleb128 0xb
 9236 0230 01       		.byte	0x1
 9237 0231 55       		.uleb128 0x55
 9238 0232 17       		.uleb128 0x17
 9239 0233 01       		.uleb128 0x1
 9240 0234 13       		.uleb128 0x13
 9241 0235 00       		.byte	0
 9242 0236 00       		.byte	0
 9243 0237 2A       		.uleb128 0x2a
 9244 0238 34       		.uleb128 0x34
 9245 0239 00       		.byte	0
 9246 023a 03       		.uleb128 0x3
 9247 023b 0E       		.uleb128 0xe
 9248 023c 3A       		.uleb128 0x3a
 9249 023d 0B       		.uleb128 0xb
 9250 023e 3B       		.uleb128 0x3b
 9251 023f 05       		.uleb128 0x5
 9252 0240 49       		.uleb128 0x49
 9253 0241 13       		.uleb128 0x13
 9254 0242 02       		.uleb128 0x2
 9255 0243 18       		.uleb128 0x18
 9256 0244 00       		.byte	0
 9257 0245 00       		.byte	0
 9258 0246 2B       		.uleb128 0x2b
 9259 0247 2E       		.uleb128 0x2e
 9260 0248 01       		.byte	0x1
 9261 0249 03       		.uleb128 0x3
 9262 024a 0E       		.uleb128 0xe
 9263 024b 3A       		.uleb128 0x3a
 9264 024c 0B       		.uleb128 0xb
 9265 024d 3B       		.uleb128 0x3b
 9266 024e 05       		.uleb128 0x5
 9267 024f 27       		.uleb128 0x27
 9268 0250 19       		.uleb128 0x19
 9269 0251 11       		.uleb128 0x11
 9270 0252 01       		.uleb128 0x1
 9271 0253 12       		.uleb128 0x12
 9272 0254 06       		.uleb128 0x6
ARM GAS  C:\Users\Phuong\AppData\Local\Temp\ccmYXgep.s 			page 209


 9273 0255 40       		.uleb128 0x40
 9274 0256 18       		.uleb128 0x18
 9275 0257 9642     		.uleb128 0x2116
 9276 0259 19       		.uleb128 0x19
 9277 025a 01       		.uleb128 0x1
 9278 025b 13       		.uleb128 0x13
 9279 025c 00       		.byte	0
 9280 025d 00       		.byte	0
 9281 025e 2C       		.uleb128 0x2c
 9282 025f 2E       		.uleb128 0x2e
 9283 0260 01       		.byte	0x1
 9284 0261 3F       		.uleb128 0x3f
 9285 0262 19       		.uleb128 0x19
 9286 0263 03       		.uleb128 0x3
 9287 0264 0E       		.uleb128 0xe
 9288 0265 3A       		.uleb128 0x3a
 9289 0266 0B       		.uleb128 0xb
 9290 0267 3B       		.uleb128 0x3b
 9291 0268 05       		.uleb128 0x5
 9292 0269 27       		.uleb128 0x27
 9293 026a 19       		.uleb128 0x19
 9294 026b 11       		.uleb128 0x11
 9295 026c 01       		.uleb128 0x1
 9296 026d 12       		.uleb128 0x12
 9297 026e 06       		.uleb128 0x6
 9298 026f 40       		.uleb128 0x40
 9299 0270 18       		.uleb128 0x18
 9300 0271 9742     		.uleb128 0x2117
 9301 0273 19       		.uleb128 0x19
 9302 0274 01       		.uleb128 0x1
 9303 0275 13       		.uleb128 0x13
 9304 0276 00       		.byte	0
 9305 0277 00       		.byte	0
 9306 0278 2D       		.uleb128 0x2d
 9307 0279 2E       		.uleb128 0x2e
 9308 027a 01       		.byte	0x1
 9309 027b 3F       		.uleb128 0x3f
 9310 027c 19       		.uleb128 0x19
 9311 027d 03       		.uleb128 0x3
 9312 027e 0E       		.uleb128 0xe
 9313 027f 3A       		.uleb128 0x3a
 9314 0280 0B       		.uleb128 0xb
 9315 0281 3B       		.uleb128 0x3b
 9316 0282 05       		.uleb128 0x5
 9317 0283 27       		.uleb128 0x27
 9318 0284 19       		.uleb128 0x19
 9319 0285 49       		.uleb128 0x49
 9320 0286 13       		.uleb128 0x13
 9321 0287 11       		.uleb128 0x11
 9322 0288 01       		.uleb128 0x1
 9323 0289 12       		.uleb128 0x12
 9324 028a 06       		.uleb128 0x6
 9325 028b 40       		.uleb128 0x40
 9326 028c 18       		.uleb128 0x18
 9327 028d 9642     		.uleb128 0x2116
 9328 028f 19       		.uleb128 0x19
 9329 0290 01       		.uleb128 0x1
ARM GAS  C:\Users\Phuong\AppData\Local\Temp\ccmYXgep.s 			page 210


 9330 0291 13       		.uleb128 0x13
 9331 0292 00       		.byte	0
 9332 0293 00       		.byte	0
 9333 0294 2E       		.uleb128 0x2e
 9334 0295 2E       		.uleb128 0x2e
 9335 0296 01       		.byte	0x1
 9336 0297 3F       		.uleb128 0x3f
 9337 0298 19       		.uleb128 0x19
 9338 0299 03       		.uleb128 0x3
 9339 029a 0E       		.uleb128 0xe
 9340 029b 3A       		.uleb128 0x3a
 9341 029c 0B       		.uleb128 0xb
 9342 029d 3B       		.uleb128 0x3b
 9343 029e 05       		.uleb128 0x5
 9344 029f 27       		.uleb128 0x27
 9345 02a0 19       		.uleb128 0x19
 9346 02a1 49       		.uleb128 0x49
 9347 02a2 13       		.uleb128 0x13
 9348 02a3 11       		.uleb128 0x11
 9349 02a4 01       		.uleb128 0x1
 9350 02a5 12       		.uleb128 0x12
 9351 02a6 06       		.uleb128 0x6
 9352 02a7 40       		.uleb128 0x40
 9353 02a8 18       		.uleb128 0x18
 9354 02a9 9742     		.uleb128 0x2117
 9355 02ab 19       		.uleb128 0x19
 9356 02ac 01       		.uleb128 0x1
 9357 02ad 13       		.uleb128 0x13
 9358 02ae 00       		.byte	0
 9359 02af 00       		.byte	0
 9360 02b0 2F       		.uleb128 0x2f
 9361 02b1 34       		.uleb128 0x34
 9362 02b2 00       		.byte	0
 9363 02b3 03       		.uleb128 0x3
 9364 02b4 0E       		.uleb128 0xe
 9365 02b5 3A       		.uleb128 0x3a
 9366 02b6 0B       		.uleb128 0xb
 9367 02b7 3B       		.uleb128 0x3b
 9368 02b8 0B       		.uleb128 0xb
 9369 02b9 49       		.uleb128 0x49
 9370 02ba 13       		.uleb128 0x13
 9371 02bb 02       		.uleb128 0x2
 9372 02bc 18       		.uleb128 0x18
 9373 02bd 00       		.byte	0
 9374 02be 00       		.byte	0
 9375 02bf 30       		.uleb128 0x30
 9376 02c0 34       		.uleb128 0x34
 9377 02c1 00       		.byte	0
 9378 02c2 03       		.uleb128 0x3
 9379 02c3 0E       		.uleb128 0xe
 9380 02c4 3A       		.uleb128 0x3a
 9381 02c5 0B       		.uleb128 0xb
 9382 02c6 3B       		.uleb128 0x3b
 9383 02c7 05       		.uleb128 0x5
 9384 02c8 49       		.uleb128 0x49
 9385 02c9 13       		.uleb128 0x13
 9386 02ca 3F       		.uleb128 0x3f
ARM GAS  C:\Users\Phuong\AppData\Local\Temp\ccmYXgep.s 			page 211


 9387 02cb 19       		.uleb128 0x19
 9388 02cc 3C       		.uleb128 0x3c
 9389 02cd 19       		.uleb128 0x19
 9390 02ce 00       		.byte	0
 9391 02cf 00       		.byte	0
 9392 02d0 31       		.uleb128 0x31
 9393 02d1 34       		.uleb128 0x34
 9394 02d2 00       		.byte	0
 9395 02d3 03       		.uleb128 0x3
 9396 02d4 0E       		.uleb128 0xe
 9397 02d5 3A       		.uleb128 0x3a
 9398 02d6 0B       		.uleb128 0xb
 9399 02d7 3B       		.uleb128 0x3b
 9400 02d8 0B       		.uleb128 0xb
 9401 02d9 49       		.uleb128 0x49
 9402 02da 13       		.uleb128 0x13
 9403 02db 3F       		.uleb128 0x3f
 9404 02dc 19       		.uleb128 0x19
 9405 02dd 3C       		.uleb128 0x3c
 9406 02de 19       		.uleb128 0x19
 9407 02df 00       		.byte	0
 9408 02e0 00       		.byte	0
 9409 02e1 32       		.uleb128 0x32
 9410 02e2 34       		.uleb128 0x34
 9411 02e3 00       		.byte	0
 9412 02e4 03       		.uleb128 0x3
 9413 02e5 0E       		.uleb128 0xe
 9414 02e6 3A       		.uleb128 0x3a
 9415 02e7 0B       		.uleb128 0xb
 9416 02e8 3B       		.uleb128 0x3b
 9417 02e9 0B       		.uleb128 0xb
 9418 02ea 49       		.uleb128 0x49
 9419 02eb 13       		.uleb128 0x13
 9420 02ec 3F       		.uleb128 0x3f
 9421 02ed 19       		.uleb128 0x19
 9422 02ee 02       		.uleb128 0x2
 9423 02ef 18       		.uleb128 0x18
 9424 02f0 00       		.byte	0
 9425 02f1 00       		.byte	0
 9426 02f2 33       		.uleb128 0x33
 9427 02f3 2E       		.uleb128 0x2e
 9428 02f4 00       		.byte	0
 9429 02f5 3F       		.uleb128 0x3f
 9430 02f6 19       		.uleb128 0x19
 9431 02f7 3C       		.uleb128 0x3c
 9432 02f8 19       		.uleb128 0x19
 9433 02f9 6E       		.uleb128 0x6e
 9434 02fa 0E       		.uleb128 0xe
 9435 02fb 03       		.uleb128 0x3
 9436 02fc 0E       		.uleb128 0xe
 9437 02fd 3A       		.uleb128 0x3a
 9438 02fe 0B       		.uleb128 0xb
 9439 02ff 3B       		.uleb128 0x3b
 9440 0300 0B       		.uleb128 0xb
 9441 0301 00       		.byte	0
 9442 0302 00       		.byte	0
 9443 0303 34       		.uleb128 0x34
ARM GAS  C:\Users\Phuong\AppData\Local\Temp\ccmYXgep.s 			page 212


 9444 0304 2E       		.uleb128 0x2e
 9445 0305 00       		.byte	0
 9446 0306 3F       		.uleb128 0x3f
 9447 0307 19       		.uleb128 0x19
 9448 0308 3C       		.uleb128 0x3c
 9449 0309 19       		.uleb128 0x19
 9450 030a 6E       		.uleb128 0x6e
 9451 030b 0E       		.uleb128 0xe
 9452 030c 03       		.uleb128 0x3
 9453 030d 0E       		.uleb128 0xe
 9454 030e 00       		.byte	0
 9455 030f 00       		.byte	0
 9456 0310 35       		.uleb128 0x35
 9457 0311 2E       		.uleb128 0x2e
 9458 0312 00       		.byte	0
 9459 0313 3F       		.uleb128 0x3f
 9460 0314 19       		.uleb128 0x19
 9461 0315 3C       		.uleb128 0x3c
 9462 0316 19       		.uleb128 0x19
 9463 0317 6E       		.uleb128 0x6e
 9464 0318 0E       		.uleb128 0xe
 9465 0319 03       		.uleb128 0x3
 9466 031a 0E       		.uleb128 0xe
 9467 031b 3A       		.uleb128 0x3a
 9468 031c 0B       		.uleb128 0xb
 9469 031d 3B       		.uleb128 0x3b
 9470 031e 05       		.uleb128 0x5
 9471 031f 00       		.byte	0
 9472 0320 00       		.byte	0
 9473 0321 00       		.byte	0
 9474              		.section	.debug_loc,"",%progbits
 9475              	.Ldebug_loc0:
 9476              	.LLST0:
 9477 0000 00000000 		.4byte	.LVL1
 9478 0004 14000000 		.4byte	.LVL2
 9479 0008 0100     		.2byte	0x1
 9480 000a 51       		.byte	0x51
 9481 000b 14000000 		.4byte	.LVL2
 9482 000f 16000000 		.4byte	.LVL3
 9483 0013 0200     		.2byte	0x2
 9484 0015 73       		.byte	0x73
 9485 0016 00       		.sleb128 0
 9486 0017 16000000 		.4byte	.LVL3
 9487 001b 22000000 		.4byte	.LFE77
 9488 001f 0400     		.2byte	0x4
 9489 0021 F3       		.byte	0xf3
 9490 0022 01       		.uleb128 0x1
 9491 0023 51       		.byte	0x51
 9492 0024 9F       		.byte	0x9f
 9493 0025 00000000 		.4byte	0
 9494 0029 00000000 		.4byte	0
 9495              	.LLST1:
 9496 002d 00000000 		.4byte	.LVL8
 9497 0031 1C000000 		.4byte	.LVL11
 9498 0035 0100     		.2byte	0x1
 9499 0037 50       		.byte	0x50
 9500 0038 1C000000 		.4byte	.LVL11
ARM GAS  C:\Users\Phuong\AppData\Local\Temp\ccmYXgep.s 			page 213


 9501 003c 7A010000 		.4byte	.LVL34
 9502 0040 0100     		.2byte	0x1
 9503 0042 56       		.byte	0x56
 9504 0043 7A010000 		.4byte	.LVL34
 9505 0047 7C010000 		.4byte	.LVL35
 9506 004b 0100     		.2byte	0x1
 9507 004d 50       		.byte	0x50
 9508 004e 7C010000 		.4byte	.LVL35
 9509 0052 80010000 		.4byte	.LVL36
 9510 0056 0100     		.2byte	0x1
 9511 0058 56       		.byte	0x56
 9512 0059 80010000 		.4byte	.LVL36
 9513 005d 82010000 		.4byte	.LVL37
 9514 0061 0100     		.2byte	0x1
 9515 0063 50       		.byte	0x50
 9516 0064 82010000 		.4byte	.LVL37
 9517 0068 8A010000 		.4byte	.LVL40
 9518 006c 0100     		.2byte	0x1
 9519 006e 56       		.byte	0x56
 9520 006f 8A010000 		.4byte	.LVL40
 9521 0073 90010000 		.4byte	.LFE84
 9522 0077 0400     		.2byte	0x4
 9523 0079 F3       		.byte	0xf3
 9524 007a 01       		.uleb128 0x1
 9525 007b 50       		.byte	0x50
 9526 007c 9F       		.byte	0x9f
 9527 007d 00000000 		.4byte	0
 9528 0081 00000000 		.4byte	0
 9529              	.LLST2:
 9530 0085 00000000 		.4byte	.LVL8
 9531 0089 18000000 		.4byte	.LVL10
 9532 008d 0100     		.2byte	0x1
 9533 008f 51       		.byte	0x51
 9534 0090 18000000 		.4byte	.LVL10
 9535 0094 7A010000 		.4byte	.LVL34
 9536 0098 0100     		.2byte	0x1
 9537 009a 54       		.byte	0x54
 9538 009b 7A010000 		.4byte	.LVL34
 9539 009f 86010000 		.4byte	.LVL38
 9540 00a3 0100     		.2byte	0x1
 9541 00a5 51       		.byte	0x51
 9542 00a6 86010000 		.4byte	.LVL38
 9543 00aa 8A010000 		.4byte	.LVL39
 9544 00ae 0100     		.2byte	0x1
 9545 00b0 54       		.byte	0x54
 9546 00b1 8A010000 		.4byte	.LVL39
 9547 00b5 90010000 		.4byte	.LFE84
 9548 00b9 0400     		.2byte	0x4
 9549 00bb F3       		.byte	0xf3
 9550 00bc 01       		.uleb128 0x1
 9551 00bd 51       		.byte	0x51
 9552 00be 9F       		.byte	0x9f
 9553 00bf 00000000 		.4byte	0
 9554 00c3 00000000 		.4byte	0
 9555              	.LLST3:
 9556 00c7 00000000 		.4byte	.LVL8
 9557 00cb 16000000 		.4byte	.LVL9
ARM GAS  C:\Users\Phuong\AppData\Local\Temp\ccmYXgep.s 			page 214


 9558 00cf 0100     		.2byte	0x1
 9559 00d1 52       		.byte	0x52
 9560 00d2 16000000 		.4byte	.LVL9
 9561 00d6 7A010000 		.4byte	.LVL34
 9562 00da 0400     		.2byte	0x4
 9563 00dc F3       		.byte	0xf3
 9564 00dd 01       		.uleb128 0x1
 9565 00de 52       		.byte	0x52
 9566 00df 9F       		.byte	0x9f
 9567 00e0 7A010000 		.4byte	.LVL34
 9568 00e4 86010000 		.4byte	.LVL38
 9569 00e8 0100     		.2byte	0x1
 9570 00ea 52       		.byte	0x52
 9571 00eb 86010000 		.4byte	.LVL38
 9572 00ef 90010000 		.4byte	.LFE84
 9573 00f3 0400     		.2byte	0x4
 9574 00f5 F3       		.byte	0xf3
 9575 00f6 01       		.uleb128 0x1
 9576 00f7 52       		.byte	0x52
 9577 00f8 9F       		.byte	0x9f
 9578 00f9 00000000 		.4byte	0
 9579 00fd 00000000 		.4byte	0
 9580              	.LLST4:
 9581 0101 DC000000 		.4byte	.LVL15
 9582 0105 E0000000 		.4byte	.LVL16
 9583 0109 0200     		.2byte	0x2
 9584 010b 30       		.byte	0x30
 9585 010c 9F       		.byte	0x9f
 9586 010d E0000000 		.4byte	.LVL16
 9587 0111 04010000 		.4byte	.LVL17
 9588 0115 0100     		.2byte	0x1
 9589 0117 53       		.byte	0x53
 9590 0118 06010000 		.4byte	.LVL18
 9591 011c 0C010000 		.4byte	.LVL19
 9592 0120 0100     		.2byte	0x1
 9593 0122 53       		.byte	0x53
 9594 0123 0E010000 		.4byte	.LVL20
 9595 0127 1A010000 		.4byte	.LVL21
 9596 012b 0100     		.2byte	0x1
 9597 012d 53       		.byte	0x53
 9598 012e 1C010000 		.4byte	.LVL22
 9599 0132 22010000 		.4byte	.LVL23
 9600 0136 0100     		.2byte	0x1
 9601 0138 53       		.byte	0x53
 9602 0139 24010000 		.4byte	.LVL24
 9603 013d 30010000 		.4byte	.LVL25
 9604 0141 0100     		.2byte	0x1
 9605 0143 53       		.byte	0x53
 9606 0144 32010000 		.4byte	.LVL26
 9607 0148 38010000 		.4byte	.LVL27
 9608 014c 0100     		.2byte	0x1
 9609 014e 53       		.byte	0x53
 9610 014f 52010000 		.4byte	.LVL28
 9611 0153 54010000 		.4byte	.LVL29
 9612 0157 0200     		.2byte	0x2
 9613 0159 30       		.byte	0x30
 9614 015a 9F       		.byte	0x9f
ARM GAS  C:\Users\Phuong\AppData\Local\Temp\ccmYXgep.s 			page 215


 9615 015b 54010000 		.4byte	.LVL29
 9616 015f 5E010000 		.4byte	.LVL30
 9617 0163 0100     		.2byte	0x1
 9618 0165 53       		.byte	0x53
 9619 0166 60010000 		.4byte	.LVL31
 9620 016a 6D010000 		.4byte	.LVL32-1
 9621 016e 0100     		.2byte	0x1
 9622 0170 53       		.byte	0x53
 9623 0171 00000000 		.4byte	0
 9624 0175 00000000 		.4byte	0
 9625              	.LLST5:
 9626 0179 00000000 		.4byte	.LVL41
 9627 017d 08000000 		.4byte	.LVL42
 9628 0181 0100     		.2byte	0x1
 9629 0183 50       		.byte	0x50
 9630 0184 08000000 		.4byte	.LVL42
 9631 0188 16000000 		.4byte	.LVL44
 9632 018c 0100     		.2byte	0x1
 9633 018e 54       		.byte	0x54
 9634 018f 16000000 		.4byte	.LVL44
 9635 0193 18000000 		.4byte	.LFE85
 9636 0197 0400     		.2byte	0x4
 9637 0199 F3       		.byte	0xf3
 9638 019a 01       		.uleb128 0x1
 9639 019b 50       		.byte	0x50
 9640 019c 9F       		.byte	0x9f
 9641 019d 00000000 		.4byte	0
 9642 01a1 00000000 		.4byte	0
 9643              	.LLST6:
 9644 01a5 00000000 		.4byte	.LVL45
 9645 01a9 10000000 		.4byte	.LVL47
 9646 01ad 0100     		.2byte	0x1
 9647 01af 50       		.byte	0x50
 9648 01b0 10000000 		.4byte	.LVL47
 9649 01b4 AE000000 		.4byte	.LVL67
 9650 01b8 0100     		.2byte	0x1
 9651 01ba 57       		.byte	0x57
 9652 01bb AE000000 		.4byte	.LVL67
 9653 01bf C4000000 		.4byte	.LFE69
 9654 01c3 0400     		.2byte	0x4
 9655 01c5 F3       		.byte	0xf3
 9656 01c6 01       		.uleb128 0x1
 9657 01c7 50       		.byte	0x50
 9658 01c8 9F       		.byte	0x9f
 9659 01c9 00000000 		.4byte	0
 9660 01cd 00000000 		.4byte	0
 9661              	.LLST7:
 9662 01d1 08000000 		.4byte	.LVL46
 9663 01d5 AE000000 		.4byte	.LVL66
 9664 01d9 0100     		.2byte	0x1
 9665 01db 54       		.byte	0x54
 9666 01dc 00000000 		.4byte	0
 9667 01e0 00000000 		.4byte	0
 9668              	.LLST8:
 9669 01e4 08000000 		.4byte	.LVL46
 9670 01e8 20000000 		.4byte	.LVL50
 9671 01ec 0200     		.2byte	0x2
ARM GAS  C:\Users\Phuong\AppData\Local\Temp\ccmYXgep.s 			page 216


 9672 01ee 30       		.byte	0x30
 9673 01ef 9F       		.byte	0x9f
 9674 01f0 20000000 		.4byte	.LVL50
 9675 01f4 28000000 		.4byte	.LVL51
 9676 01f8 0100     		.2byte	0x1
 9677 01fa 50       		.byte	0x50
 9678 01fb 00000000 		.4byte	0
 9679 01ff 00000000 		.4byte	0
 9680              	.LLST9:
 9681 0203 9C000000 		.4byte	.LVL63
 9682 0207 9E000000 		.4byte	.LVL64
 9683 020b 0100     		.2byte	0x1
 9684 020d 50       		.byte	0x50
 9685 020e 00000000 		.4byte	0
 9686 0212 00000000 		.4byte	0
 9687              	.LLST10:
 9688 0216 3E000000 		.4byte	.LVL54
 9689 021a 42000000 		.4byte	.LVL55
 9690 021e 0200     		.2byte	0x2
 9691 0220 30       		.byte	0x30
 9692 0221 9F       		.byte	0x9f
 9693 0222 42000000 		.4byte	.LVL55
 9694 0226 4E000000 		.4byte	.LVL57
 9695 022a 0100     		.2byte	0x1
 9696 022c 55       		.byte	0x55
 9697 022d 50000000 		.4byte	.LVL58
 9698 0231 80000000 		.4byte	.LVL62
 9699 0235 0100     		.2byte	0x1
 9700 0237 55       		.byte	0x55
 9701 0238 00000000 		.4byte	0
 9702 023c 00000000 		.4byte	0
 9703              	.LLST11:
 9704 0240 00000000 		.4byte	.LVL68
 9705 0244 0C000000 		.4byte	.LVL70
 9706 0248 0100     		.2byte	0x1
 9707 024a 50       		.byte	0x50
 9708 024b 0C000000 		.4byte	.LVL70
 9709 024f C0000000 		.4byte	.LVL93
 9710 0253 0100     		.2byte	0x1
 9711 0255 57       		.byte	0x57
 9712 0256 C0000000 		.4byte	.LVL93
 9713 025a D4000000 		.4byte	.LFE73
 9714 025e 0400     		.2byte	0x4
 9715 0260 F3       		.byte	0xf3
 9716 0261 01       		.uleb128 0x1
 9717 0262 50       		.byte	0x50
 9718 0263 9F       		.byte	0x9f
 9719 0264 00000000 		.4byte	0
 9720 0268 00000000 		.4byte	0
 9721              	.LLST12:
 9722 026c 08000000 		.4byte	.LVL69
 9723 0270 C0000000 		.4byte	.LVL92
 9724 0274 0100     		.2byte	0x1
 9725 0276 54       		.byte	0x54
 9726 0277 00000000 		.4byte	0
 9727 027b 00000000 		.4byte	0
 9728              	.LLST13:
ARM GAS  C:\Users\Phuong\AppData\Local\Temp\ccmYXgep.s 			page 217


 9729 027f 1C000000 		.4byte	.LVL73
 9730 0283 24000000 		.4byte	.LVL74
 9731 0287 0100     		.2byte	0x1
 9732 0289 50       		.byte	0x50
 9733 028a 00000000 		.4byte	0
 9734 028e 00000000 		.4byte	0
 9735              	.LLST14:
 9736 0292 AE000000 		.4byte	.LVL89
 9737 0296 B0000000 		.4byte	.LVL90
 9738 029a 0100     		.2byte	0x1
 9739 029c 50       		.byte	0x50
 9740 029d 00000000 		.4byte	0
 9741 02a1 00000000 		.4byte	0
 9742              	.LLST15:
 9743 02a5 54000000 		.4byte	.LVL80
 9744 02a9 58000000 		.4byte	.LVL81
 9745 02ad 0200     		.2byte	0x2
 9746 02af 30       		.byte	0x30
 9747 02b0 9F       		.byte	0x9f
 9748 02b1 58000000 		.4byte	.LVL81
 9749 02b5 64000000 		.4byte	.LVL83
 9750 02b9 0100     		.2byte	0x1
 9751 02bb 55       		.byte	0x55
 9752 02bc 66000000 		.4byte	.LVL84
 9753 02c0 92000000 		.4byte	.LVL88
 9754 02c4 0100     		.2byte	0x1
 9755 02c6 55       		.byte	0x55
 9756 02c7 00000000 		.4byte	0
 9757 02cb 00000000 		.4byte	0
 9758              	.LLST16:
 9759 02cf 00000000 		.4byte	.LVL94
 9760 02d3 0E000000 		.4byte	.LVL95
 9761 02d7 0100     		.2byte	0x1
 9762 02d9 50       		.byte	0x50
 9763 02da 0E000000 		.4byte	.LVL95
 9764 02de 4A000000 		.4byte	.LFE81
 9765 02e2 0200     		.2byte	0x2
 9766 02e4 91       		.byte	0x91
 9767 02e5 64       		.sleb128 -28
 9768 02e6 00000000 		.4byte	0
 9769 02ea 00000000 		.4byte	0
 9770              	.LLST17:
 9771 02ee 00000000 		.4byte	.LVL94
 9772 02f2 11000000 		.4byte	.LVL96-1
 9773 02f6 0100     		.2byte	0x1
 9774 02f8 51       		.byte	0x51
 9775 02f9 11000000 		.4byte	.LVL96-1
 9776 02fd 4A000000 		.4byte	.LFE81
 9777 0301 0400     		.2byte	0x4
 9778 0303 F3       		.byte	0xf3
 9779 0304 01       		.uleb128 0x1
 9780 0305 51       		.byte	0x51
 9781 0306 9F       		.byte	0x9f
 9782 0307 00000000 		.4byte	0
 9783 030b 00000000 		.4byte	0
 9784              	.LLST18:
 9785 030f 12000000 		.4byte	.LVL96
ARM GAS  C:\Users\Phuong\AppData\Local\Temp\ccmYXgep.s 			page 218


 9786 0313 2C000000 		.4byte	.LVL100
 9787 0317 0100     		.2byte	0x1
 9788 0319 50       		.byte	0x50
 9789 031a 00000000 		.4byte	0
 9790 031e 00000000 		.4byte	0
 9791              	.LLST19:
 9792 0322 26000000 		.4byte	.LVL99
 9793 0326 32000000 		.4byte	.LVL102
 9794 032a 0100     		.2byte	0x1
 9795 032c 54       		.byte	0x54
 9796 032d 32000000 		.4byte	.LVL102
 9797 0331 40000000 		.4byte	.LVL105
 9798 0335 0100     		.2byte	0x1
 9799 0337 57       		.byte	0x57
 9800 0338 40000000 		.4byte	.LVL105
 9801 033c 42000000 		.4byte	.LVL106
 9802 0340 0100     		.2byte	0x1
 9803 0342 54       		.byte	0x54
 9804 0343 42000000 		.4byte	.LVL106
 9805 0347 46000000 		.4byte	.LVL107
 9806 034b 0100     		.2byte	0x1
 9807 034d 57       		.byte	0x57
 9808 034e 00000000 		.4byte	0
 9809 0352 00000000 		.4byte	0
 9810              	.LLST20:
 9811 0356 16000000 		.4byte	.LVL97
 9812 035a 34000000 		.4byte	.LVL103
 9813 035e 0100     		.2byte	0x1
 9814 0360 55       		.byte	0x55
 9815 0361 34000000 		.4byte	.LVL103
 9816 0365 40000000 		.4byte	.LVL105
 9817 0369 0100     		.2byte	0x1
 9818 036b 56       		.byte	0x56
 9819 036c 40000000 		.4byte	.LVL105
 9820 0370 46000000 		.4byte	.LVL107
 9821 0374 0100     		.2byte	0x1
 9822 0376 55       		.byte	0x55
 9823 0377 00000000 		.4byte	0
 9824 037b 00000000 		.4byte	0
 9825              	.LLST21:
 9826 037f 1E000000 		.4byte	.LVL98
 9827 0383 2F000000 		.4byte	.LVL101-1
 9828 0387 0100     		.2byte	0x1
 9829 0389 53       		.byte	0x53
 9830 038a 00000000 		.4byte	0
 9831 038e 00000000 		.4byte	0
 9832              	.LLST22:
 9833 0392 00000000 		.4byte	.LVL108
 9834 0396 0C000000 		.4byte	.LVL110
 9835 039a 0100     		.2byte	0x1
 9836 039c 50       		.byte	0x50
 9837 039d 0C000000 		.4byte	.LVL110
 9838 03a1 AE000000 		.4byte	.LVL131
 9839 03a5 0100     		.2byte	0x1
 9840 03a7 57       		.byte	0x57
 9841 03a8 AE000000 		.4byte	.LVL131
 9842 03ac C0000000 		.4byte	.LFE72
ARM GAS  C:\Users\Phuong\AppData\Local\Temp\ccmYXgep.s 			page 219


 9843 03b0 0400     		.2byte	0x4
 9844 03b2 F3       		.byte	0xf3
 9845 03b3 01       		.uleb128 0x1
 9846 03b4 50       		.byte	0x50
 9847 03b5 9F       		.byte	0x9f
 9848 03b6 00000000 		.4byte	0
 9849 03ba 00000000 		.4byte	0
 9850              	.LLST23:
 9851 03be 08000000 		.4byte	.LVL109
 9852 03c2 AE000000 		.4byte	.LVL130
 9853 03c6 0100     		.2byte	0x1
 9854 03c8 54       		.byte	0x54
 9855 03c9 00000000 		.4byte	0
 9856 03cd 00000000 		.4byte	0
 9857              	.LLST24:
 9858 03d1 1C000000 		.4byte	.LVL113
 9859 03d5 24000000 		.4byte	.LVL114
 9860 03d9 0100     		.2byte	0x1
 9861 03db 50       		.byte	0x50
 9862 03dc 00000000 		.4byte	0
 9863 03e0 00000000 		.4byte	0
 9864              	.LLST25:
 9865 03e4 9C000000 		.4byte	.LVL127
 9866 03e8 9E000000 		.4byte	.LVL128
 9867 03ec 0100     		.2byte	0x1
 9868 03ee 50       		.byte	0x50
 9869 03ef 00000000 		.4byte	0
 9870 03f3 00000000 		.4byte	0
 9871              	.LLST26:
 9872 03f7 3A000000 		.4byte	.LVL117
 9873 03fb 3E000000 		.4byte	.LVL118
 9874 03ff 0200     		.2byte	0x2
 9875 0401 30       		.byte	0x30
 9876 0402 9F       		.byte	0x9f
 9877 0403 3E000000 		.4byte	.LVL118
 9878 0407 4A000000 		.4byte	.LVL120
 9879 040b 0100     		.2byte	0x1
 9880 040d 55       		.byte	0x55
 9881 040e 4C000000 		.4byte	.LVL121
 9882 0412 80000000 		.4byte	.LVL126
 9883 0416 0100     		.2byte	0x1
 9884 0418 55       		.byte	0x55
 9885 0419 00000000 		.4byte	0
 9886 041d 00000000 		.4byte	0
 9887              	.LLST27:
 9888 0421 00000000 		.4byte	.LVL132
 9889 0425 19000000 		.4byte	.LVL134-1
 9890 0429 0100     		.2byte	0x1
 9891 042b 50       		.byte	0x50
 9892 042c 19000000 		.4byte	.LVL134-1
 9893 0430 2E000000 		.4byte	.LFE62
 9894 0434 0400     		.2byte	0x4
 9895 0436 F3       		.byte	0xf3
 9896 0437 01       		.uleb128 0x1
 9897 0438 50       		.byte	0x50
 9898 0439 9F       		.byte	0x9f
 9899 043a 00000000 		.4byte	0
ARM GAS  C:\Users\Phuong\AppData\Local\Temp\ccmYXgep.s 			page 220


 9900 043e 00000000 		.4byte	0
 9901              	.LLST28:
 9902 0442 04000000 		.4byte	.LVL133
 9903 0446 2C000000 		.4byte	.LVL135
 9904 044a 0100     		.2byte	0x1
 9905 044c 54       		.byte	0x54
 9906 044d 00000000 		.4byte	0
 9907 0451 00000000 		.4byte	0
 9908              	.LLST29:
 9909 0455 00000000 		.4byte	.LVL136
 9910 0459 0C000000 		.4byte	.LVL138
 9911 045d 0100     		.2byte	0x1
 9912 045f 50       		.byte	0x50
 9913 0460 0C000000 		.4byte	.LVL138
 9914 0464 E2000000 		.4byte	.LVL165
 9915 0468 0100     		.2byte	0x1
 9916 046a 57       		.byte	0x57
 9917 046b E2000000 		.4byte	.LVL165
 9918 046f F8000000 		.4byte	.LFE57
 9919 0473 0400     		.2byte	0x4
 9920 0475 F3       		.byte	0xf3
 9921 0476 01       		.uleb128 0x1
 9922 0477 50       		.byte	0x50
 9923 0478 9F       		.byte	0x9f
 9924 0479 00000000 		.4byte	0
 9925 047d 00000000 		.4byte	0
 9926              	.LLST30:
 9927 0481 08000000 		.4byte	.LVL137
 9928 0485 E2000000 		.4byte	.LVL164
 9929 0489 0100     		.2byte	0x1
 9930 048b 54       		.byte	0x54
 9931 048c 00000000 		.4byte	0
 9932 0490 00000000 		.4byte	0
 9933              	.LLST31:
 9934 0494 1C000000 		.4byte	.LVL141
 9935 0498 24000000 		.4byte	.LVL142
 9936 049c 0100     		.2byte	0x1
 9937 049e 50       		.byte	0x50
 9938 049f 00000000 		.4byte	0
 9939 04a3 00000000 		.4byte	0
 9940              	.LLST32:
 9941 04a7 D0000000 		.4byte	.LVL161
 9942 04ab D2000000 		.4byte	.LVL162
 9943 04af 0100     		.2byte	0x1
 9944 04b1 50       		.byte	0x50
 9945 04b2 00000000 		.4byte	0
 9946 04b6 00000000 		.4byte	0
 9947              	.LLST33:
 9948 04ba 6A000000 		.4byte	.LVL151
 9949 04be 6E000000 		.4byte	.LVL152
 9950 04c2 0200     		.2byte	0x2
 9951 04c4 30       		.byte	0x30
 9952 04c5 9F       		.byte	0x9f
 9953 04c6 6E000000 		.4byte	.LVL152
 9954 04ca 7A000000 		.4byte	.LVL154
 9955 04ce 0100     		.2byte	0x1
 9956 04d0 55       		.byte	0x55
ARM GAS  C:\Users\Phuong\AppData\Local\Temp\ccmYXgep.s 			page 221


 9957 04d1 7C000000 		.4byte	.LVL155
 9958 04d5 B4000000 		.4byte	.LVL160
 9959 04d9 0100     		.2byte	0x1
 9960 04db 55       		.byte	0x55
 9961 04dc 00000000 		.4byte	0
 9962 04e0 00000000 		.4byte	0
 9963              	.LLST34:
 9964 04e4 00000000 		.4byte	.LVL166
 9965 04e8 12000000 		.4byte	.LVL168
 9966 04ec 0100     		.2byte	0x1
 9967 04ee 50       		.byte	0x50
 9968 04ef 12000000 		.4byte	.LVL168
 9969 04f3 38000000 		.4byte	.LVL172
 9970 04f7 0100     		.2byte	0x1
 9971 04f9 56       		.byte	0x56
 9972 04fa 38000000 		.4byte	.LVL172
 9973 04fe 44000000 		.4byte	.LFE56
 9974 0502 0400     		.2byte	0x4
 9975 0504 F3       		.byte	0xf3
 9976 0505 01       		.uleb128 0x1
 9977 0506 50       		.byte	0x50
 9978 0507 9F       		.byte	0x9f
 9979 0508 00000000 		.4byte	0
 9980 050c 00000000 		.4byte	0
 9981              	.LLST35:
 9982 0510 06000000 		.4byte	.LVL167
 9983 0514 38000000 		.4byte	.LVL171
 9984 0518 0100     		.2byte	0x1
 9985 051a 55       		.byte	0x55
 9986 051b 00000000 		.4byte	0
 9987 051f 00000000 		.4byte	0
 9988              	.LLST36:
 9989 0523 00000000 		.4byte	.LVL178
 9990 0527 1A000000 		.4byte	.LVL181
 9991 052b 0100     		.2byte	0x1
 9992 052d 50       		.byte	0x50
 9993 052e 1A000000 		.4byte	.LVL181
 9994 0532 3E000000 		.4byte	.LVL186
 9995 0536 0100     		.2byte	0x1
 9996 0538 54       		.byte	0x54
 9997 0539 3E000000 		.4byte	.LVL186
 9998 053d 6C020000 		.4byte	.LVL255
 9999 0541 0400     		.2byte	0x4
 10000 0543 F3       		.byte	0xf3
 10001 0544 01       		.uleb128 0x1
 10002 0545 50       		.byte	0x50
 10003 0546 9F       		.byte	0x9f
 10004 0547 6C020000 		.4byte	.LVL255
 10005 054b 72020000 		.4byte	.LVL256
 10006 054f 0100     		.2byte	0x1
 10007 0551 54       		.byte	0x54
 10008 0552 72020000 		.4byte	.LVL256
 10009 0556 D8020000 		.4byte	.LFE82
 10010 055a 0400     		.2byte	0x4
 10011 055c F3       		.byte	0xf3
 10012 055d 01       		.uleb128 0x1
 10013 055e 50       		.byte	0x50
ARM GAS  C:\Users\Phuong\AppData\Local\Temp\ccmYXgep.s 			page 222


 10014 055f 9F       		.byte	0x9f
 10015 0560 00000000 		.4byte	0
 10016 0564 00000000 		.4byte	0
 10017              	.LLST37:
 10018 0568 00000000 		.4byte	.LVL178
 10019 056c 18000000 		.4byte	.LVL180
 10020 0570 0100     		.2byte	0x1
 10021 0572 51       		.byte	0x51
 10022 0573 18000000 		.4byte	.LVL180
 10023 0577 3C000000 		.4byte	.LVL185
 10024 057b 0100     		.2byte	0x1
 10025 057d 55       		.byte	0x55
 10026 057e 3C000000 		.4byte	.LVL185
 10027 0582 6C020000 		.4byte	.LVL255
 10028 0586 0200     		.2byte	0x2
 10029 0588 91       		.byte	0x91
 10030 0589 44       		.sleb128 -60
 10031 058a 6C020000 		.4byte	.LVL255
 10032 058e 72020000 		.4byte	.LVL256
 10033 0592 0100     		.2byte	0x1
 10034 0594 55       		.byte	0x55
 10035 0595 72020000 		.4byte	.LVL256
 10036 0599 D8020000 		.4byte	.LFE82
 10037 059d 0200     		.2byte	0x2
 10038 059f 91       		.byte	0x91
 10039 05a0 44       		.sleb128 -60
 10040 05a1 00000000 		.4byte	0
 10041 05a5 00000000 		.4byte	0
 10042              	.LLST38:
 10043 05a9 3E000000 		.4byte	.LVL186
 10044 05ad 54000000 		.4byte	.LVL194
 10045 05b1 0200     		.2byte	0x2
 10046 05b3 7D       		.byte	0x7d
 10047 05b4 00       		.sleb128 0
 10048 05b5 7E000000 		.4byte	.LVL203
 10049 05b9 88000000 		.4byte	.LVL206
 10050 05bd 0100     		.2byte	0x1
 10051 05bf 53       		.byte	0x53
 10052 05c0 88000000 		.4byte	.LVL206
 10053 05c4 6C020000 		.4byte	.LVL255
 10054 05c8 0200     		.2byte	0x2
 10055 05ca 7D       		.byte	0x7d
 10056 05cb 00       		.sleb128 0
 10057 05cc 78020000 		.4byte	.LVL257
 10058 05d0 BE020000 		.4byte	.LVL263
 10059 05d4 0200     		.2byte	0x2
 10060 05d6 7D       		.byte	0x7d
 10061 05d7 00       		.sleb128 0
 10062 05d8 00000000 		.4byte	0
 10063 05dc 00000000 		.4byte	0
 10064              	.LLST39:
 10065 05e0 3E000000 		.4byte	.LVL186
 10066 05e4 54000000 		.4byte	.LVL194
 10067 05e8 0100     		.2byte	0x1
 10068 05ea 5A       		.byte	0x5a
 10069 05eb 7A000000 		.4byte	.LVL201
 10070 05ef 86000000 		.4byte	.LVL205
ARM GAS  C:\Users\Phuong\AppData\Local\Temp\ccmYXgep.s 			page 223


 10071 05f3 0100     		.2byte	0x1
 10072 05f5 59       		.byte	0x59
 10073 05f6 86000000 		.4byte	.LVL205
 10074 05fa 6C020000 		.4byte	.LVL255
 10075 05fe 0100     		.2byte	0x1
 10076 0600 5A       		.byte	0x5a
 10077 0601 78020000 		.4byte	.LVL257
 10078 0605 BE020000 		.4byte	.LVL263
 10079 0609 0100     		.2byte	0x1
 10080 060b 5A       		.byte	0x5a
 10081 060c 00000000 		.4byte	0
 10082 0610 00000000 		.4byte	0
 10083              	.LLST40:
 10084 0614 7A000000 		.4byte	.LVL201
 10085 0618 84000000 		.4byte	.LVL204
 10086 061c 0100     		.2byte	0x1
 10087 061e 55       		.byte	0x55
 10088 061f 86000000 		.4byte	.LVL205
 10089 0623 00020000 		.4byte	.LVL240
 10090 0627 0100     		.2byte	0x1
 10091 0629 58       		.byte	0x58
 10092 062a 00020000 		.4byte	.LVL240
 10093 062e 10020000 		.4byte	.LVL242
 10094 0632 0100     		.2byte	0x1
 10095 0634 53       		.byte	0x53
 10096 0635 10020000 		.4byte	.LVL242
 10097 0639 26020000 		.4byte	.LVL244
 10098 063d 0100     		.2byte	0x1
 10099 063f 58       		.byte	0x58
 10100 0640 78020000 		.4byte	.LVL257
 10101 0644 BA020000 		.4byte	.LVL262
 10102 0648 0100     		.2byte	0x1
 10103 064a 58       		.byte	0x58
 10104 064b BA020000 		.4byte	.LVL262
 10105 064f BE020000 		.4byte	.LVL263
 10106 0653 0100     		.2byte	0x1
 10107 0655 53       		.byte	0x53
 10108 0656 00000000 		.4byte	0
 10109 065a 00000000 		.4byte	0
 10110              	.LLST41:
 10111 065e 2C000000 		.4byte	.LVL183
 10112 0662 3E000000 		.4byte	.LVL186
 10113 0666 0300     		.2byte	0x3
 10114 0668 08       		.byte	0x8
 10115 0669 F0       		.byte	0xf0
 10116 066a 9F       		.byte	0x9f
 10117 066b 54000000 		.4byte	.LVL194
 10118 066f 5E000000 		.4byte	.LVL195
 10119 0673 0100     		.2byte	0x1
 10120 0675 59       		.byte	0x59
 10121 0676 5E000000 		.4byte	.LVL195
 10122 067a 60000000 		.4byte	.LVL196
 10123 067e 0100     		.2byte	0x1
 10124 0680 53       		.byte	0x53
 10125 0681 62000000 		.4byte	.LVL197
 10126 0685 7C000000 		.4byte	.LVL202
 10127 0689 0100     		.2byte	0x1
ARM GAS  C:\Users\Phuong\AppData\Local\Temp\ccmYXgep.s 			page 224


 10128 068b 53       		.byte	0x53
 10129 068c 72020000 		.4byte	.LVL256
 10130 0690 78020000 		.4byte	.LVL257
 10131 0694 0100     		.2byte	0x1
 10132 0696 53       		.byte	0x53
 10133 0697 00000000 		.4byte	0
 10134 069b 00000000 		.4byte	0
 10135              	.LLST42:
 10136 069f 30000000 		.4byte	.LVL184
 10137 06a3 3E000000 		.4byte	.LVL186
 10138 06a7 0100     		.2byte	0x1
 10139 06a9 5B       		.byte	0x5b
 10140 06aa 54000000 		.4byte	.LVL194
 10141 06ae 64000000 		.4byte	.LVL198
 10142 06b2 0100     		.2byte	0x1
 10143 06b4 55       		.byte	0x55
 10144 06b5 66000000 		.4byte	.LVL199
 10145 06b9 84000000 		.4byte	.LVL204
 10146 06bd 0100     		.2byte	0x1
 10147 06bf 55       		.byte	0x55
 10148 06c0 72020000 		.4byte	.LVL256
 10149 06c4 78020000 		.4byte	.LVL257
 10150 06c8 0100     		.2byte	0x1
 10151 06ca 55       		.byte	0x55
 10152 06cb 00000000 		.4byte	0
 10153 06cf 00000000 		.4byte	0
 10154              	.LLST43:
 10155 06d3 3E000000 		.4byte	.LVL186
 10156 06d7 44000000 		.4byte	.LVL189
 10157 06db 0100     		.2byte	0x1
 10158 06dd 55       		.byte	0x55
 10159 06de 4A000000 		.4byte	.LVL190
 10160 06e2 50000000 		.4byte	.LVL193
 10161 06e6 0100     		.2byte	0x1
 10162 06e8 55       		.byte	0x55
 10163 06e9 54000000 		.4byte	.LVL194
 10164 06ed 5E000000 		.4byte	.LVL195
 10165 06f1 0200     		.2byte	0x2
 10166 06f3 91       		.byte	0x91
 10167 06f4 44       		.sleb128 -60
 10168 06f5 5E000000 		.4byte	.LVL195
 10169 06f9 86000000 		.4byte	.LVL205
 10170 06fd 0100     		.2byte	0x1
 10171 06ff 52       		.byte	0x52
 10172 0700 86000000 		.4byte	.LVL205
 10173 0704 64010000 		.4byte	.LVL222
 10174 0708 0100     		.2byte	0x1
 10175 070a 55       		.byte	0x55
 10176 070b 64010000 		.4byte	.LVL222
 10177 070f B2010000 		.4byte	.LVL232
 10178 0713 0100     		.2byte	0x1
 10179 0715 5B       		.byte	0x5b
 10180 0716 B2010000 		.4byte	.LVL232
 10181 071a D6010000 		.4byte	.LVL235
 10182 071e 0100     		.2byte	0x1
 10183 0720 55       		.byte	0x55
 10184 0721 D6010000 		.4byte	.LVL235
ARM GAS  C:\Users\Phuong\AppData\Local\Temp\ccmYXgep.s 			page 225


 10185 0725 E2010000 		.4byte	.LVL236
 10186 0729 0100     		.2byte	0x1
 10187 072b 5B       		.byte	0x5b
 10188 072c E2010000 		.4byte	.LVL236
 10189 0730 E8010000 		.4byte	.LVL237
 10190 0734 0100     		.2byte	0x1
 10191 0736 55       		.byte	0x55
 10192 0737 E8010000 		.4byte	.LVL237
 10193 073b EA010000 		.4byte	.LVL238
 10194 073f 0100     		.2byte	0x1
 10195 0741 5B       		.byte	0x5b
 10196 0742 EA010000 		.4byte	.LVL238
 10197 0746 6C020000 		.4byte	.LVL255
 10198 074a 0100     		.2byte	0x1
 10199 074c 55       		.byte	0x55
 10200 074d 72020000 		.4byte	.LVL256
 10201 0751 78020000 		.4byte	.LVL257
 10202 0755 0100     		.2byte	0x1
 10203 0757 52       		.byte	0x52
 10204 0758 78020000 		.4byte	.LVL257
 10205 075c BE020000 		.4byte	.LVL263
 10206 0760 0100     		.2byte	0x1
 10207 0762 55       		.byte	0x55
 10208 0763 00000000 		.4byte	0
 10209 0767 00000000 		.4byte	0
 10210              	.LLST44:
 10211 076b 14000000 		.4byte	.LVL179
 10212 076f 3E000000 		.4byte	.LVL186
 10213 0773 0200     		.2byte	0x2
 10214 0775 30       		.byte	0x30
 10215 0776 9F       		.byte	0x9f
 10216 0777 3E000000 		.4byte	.LVL186
 10217 077b 40000000 		.4byte	.LVL187
 10218 077f 0100     		.2byte	0x1
 10219 0781 53       		.byte	0x53
 10220 0782 40000000 		.4byte	.LVL187
 10221 0786 42000000 		.4byte	.LVL188
 10222 078a 0200     		.2byte	0x2
 10223 078c 91       		.byte	0x91
 10224 078d 48       		.sleb128 -56
 10225 078e 4A000000 		.4byte	.LVL190
 10226 0792 4A020000 		.4byte	.LVL247
 10227 0796 0200     		.2byte	0x2
 10228 0798 91       		.byte	0x91
 10229 0799 48       		.sleb128 -56
 10230 079a 4C020000 		.4byte	.LVL248
 10231 079e 6C020000 		.4byte	.LVL255
 10232 07a2 0200     		.2byte	0x2
 10233 07a4 91       		.byte	0x91
 10234 07a5 48       		.sleb128 -56
 10235 07a6 6C020000 		.4byte	.LVL255
 10236 07aa 72020000 		.4byte	.LVL256
 10237 07ae 0200     		.2byte	0x2
 10238 07b0 30       		.byte	0x30
 10239 07b1 9F       		.byte	0x9f
 10240 07b2 72020000 		.4byte	.LVL256
 10241 07b6 BE020000 		.4byte	.LVL263
ARM GAS  C:\Users\Phuong\AppData\Local\Temp\ccmYXgep.s 			page 226


 10242 07ba 0200     		.2byte	0x2
 10243 07bc 91       		.byte	0x91
 10244 07bd 48       		.sleb128 -56
 10245 07be 00000000 		.4byte	0
 10246 07c2 00000000 		.4byte	0
 10247              	.LLST45:
 10248 07c6 14000000 		.4byte	.LVL179
 10249 07ca 3E000000 		.4byte	.LVL186
 10250 07ce 0200     		.2byte	0x2
 10251 07d0 30       		.byte	0x30
 10252 07d1 9F       		.byte	0x9f
 10253 07d2 3E000000 		.4byte	.LVL186
 10254 07d6 4A000000 		.4byte	.LVL190
 10255 07da 0200     		.2byte	0x2
 10256 07dc 91       		.byte	0x91
 10257 07dd 4C       		.sleb128 -52
 10258 07de 4A000000 		.4byte	.LVL190
 10259 07e2 4C000000 		.4byte	.LVL191
 10260 07e6 0100     		.2byte	0x1
 10261 07e8 53       		.byte	0x53
 10262 07e9 4C000000 		.4byte	.LVL191
 10263 07ed 4E000000 		.4byte	.LVL192
 10264 07f1 0200     		.2byte	0x2
 10265 07f3 91       		.byte	0x91
 10266 07f4 4C       		.sleb128 -52
 10267 07f5 54000000 		.4byte	.LVL194
 10268 07f9 50020000 		.4byte	.LVL250
 10269 07fd 0200     		.2byte	0x2
 10270 07ff 91       		.byte	0x91
 10271 0800 4C       		.sleb128 -52
 10272 0801 52020000 		.4byte	.LVL251
 10273 0805 56020000 		.4byte	.LVL253
 10274 0809 0200     		.2byte	0x2
 10275 080b 91       		.byte	0x91
 10276 080c 4C       		.sleb128 -52
 10277 080d 58020000 		.4byte	.LVL254
 10278 0811 6C020000 		.4byte	.LVL255
 10279 0815 0200     		.2byte	0x2
 10280 0817 91       		.byte	0x91
 10281 0818 4C       		.sleb128 -52
 10282 0819 6C020000 		.4byte	.LVL255
 10283 081d 72020000 		.4byte	.LVL256
 10284 0821 0200     		.2byte	0x2
 10285 0823 30       		.byte	0x30
 10286 0824 9F       		.byte	0x9f
 10287 0825 72020000 		.4byte	.LVL256
 10288 0829 BE020000 		.4byte	.LVL263
 10289 082d 0200     		.2byte	0x2
 10290 082f 91       		.byte	0x91
 10291 0830 4C       		.sleb128 -52
 10292 0831 00000000 		.4byte	0
 10293 0835 00000000 		.4byte	0
 10294              	.LLST46:
 10295 0839 86000000 		.4byte	.LVL205
 10296 083d B0000000 		.4byte	.LVL211
 10297 0841 0100     		.2byte	0x1
 10298 0843 52       		.byte	0x52
ARM GAS  C:\Users\Phuong\AppData\Local\Temp\ccmYXgep.s 			page 227


 10299 0844 00000000 		.4byte	0
 10300 0848 00000000 		.4byte	0
 10301              	.LLST47:
 10302 084c 9A000000 		.4byte	.LVL208
 10303 0850 9C000000 		.4byte	.LVL209
 10304 0854 0100     		.2byte	0x1
 10305 0856 53       		.byte	0x53
 10306 0857 AA000000 		.4byte	.LVL210
 10307 085b B6000000 		.4byte	.LVL212
 10308 085f 0100     		.2byte	0x1
 10309 0861 53       		.byte	0x53
 10310 0862 B6000000 		.4byte	.LVL212
 10311 0866 C8000000 		.4byte	.LVL214
 10312 086a 0200     		.2byte	0x2
 10313 086c 30       		.byte	0x30
 10314 086d 9F       		.byte	0x9f
 10315 086e C8000000 		.4byte	.LVL214
 10316 0872 52010000 		.4byte	.LVL220
 10317 0876 0100     		.2byte	0x1
 10318 0878 53       		.byte	0x53
 10319 0879 78020000 		.4byte	.LVL257
 10320 087d BA020000 		.4byte	.LVL262
 10321 0881 0100     		.2byte	0x1
 10322 0883 53       		.byte	0x53
 10323 0884 00000000 		.4byte	0
 10324 0888 00000000 		.4byte	0
 10325              	.LLST48:
 10326 088c 86000000 		.4byte	.LVL205
 10327 0890 AA000000 		.4byte	.LVL210
 10328 0894 0200     		.2byte	0x2
 10329 0896 30       		.byte	0x30
 10330 0897 9F       		.byte	0x9f
 10331 0898 AA000000 		.4byte	.LVL210
 10332 089c B6000000 		.4byte	.LVL212
 10333 08a0 0100     		.2byte	0x1
 10334 08a2 53       		.byte	0x53
 10335 08a3 B6000000 		.4byte	.LVL212
 10336 08a7 C8000000 		.4byte	.LVL214
 10337 08ab 0200     		.2byte	0x2
 10338 08ad 30       		.byte	0x30
 10339 08ae 9F       		.byte	0x9f
 10340 08af C8000000 		.4byte	.LVL214
 10341 08b3 D4000000 		.4byte	.LVL215
 10342 08b7 0100     		.2byte	0x1
 10343 08b9 53       		.byte	0x53
 10344 08ba D4000000 		.4byte	.LVL215
 10345 08be E0000000 		.4byte	.LVL216
 10346 08c2 0200     		.2byte	0x2
 10347 08c4 34       		.byte	0x34
 10348 08c5 9F       		.byte	0x9f
 10349 08c6 E0000000 		.4byte	.LVL216
 10350 08ca F0000000 		.4byte	.LVL217
 10351 08ce 0100     		.2byte	0x1
 10352 08d0 53       		.byte	0x53
 10353 08d1 F0000000 		.4byte	.LVL217
 10354 08d5 FA000000 		.4byte	.LVL218
 10355 08d9 0100     		.2byte	0x1
ARM GAS  C:\Users\Phuong\AppData\Local\Temp\ccmYXgep.s 			page 228


 10356 08db 54       		.byte	0x54
 10357 08dc FA000000 		.4byte	.LVL218
 10358 08e0 50010000 		.4byte	.LVL219
 10359 08e4 0100     		.2byte	0x1
 10360 08e6 53       		.byte	0x53
 10361 08e7 50010000 		.4byte	.LVL219
 10362 08eb A2010000 		.4byte	.LVL226
 10363 08ef 0100     		.2byte	0x1
 10364 08f1 54       		.byte	0x54
 10365 08f2 A4010000 		.4byte	.LVL227
 10366 08f6 12020000 		.4byte	.LVL243
 10367 08fa 0100     		.2byte	0x1
 10368 08fc 54       		.byte	0x54
 10369 08fd 78020000 		.4byte	.LVL257
 10370 0901 7E020000 		.4byte	.LVL258
 10371 0905 0100     		.2byte	0x1
 10372 0907 53       		.byte	0x53
 10373 0908 7E020000 		.4byte	.LVL258
 10374 090c 84020000 		.4byte	.LVL259
 10375 0910 0200     		.2byte	0x2
 10376 0912 34       		.byte	0x34
 10377 0913 9F       		.byte	0x9f
 10378 0914 84020000 		.4byte	.LVL259
 10379 0918 8A020000 		.4byte	.LVL260
 10380 091c 0100     		.2byte	0x1
 10381 091e 53       		.byte	0x53
 10382 091f 8A020000 		.4byte	.LVL260
 10383 0923 90020000 		.4byte	.LVL261
 10384 0927 0100     		.2byte	0x1
 10385 0929 54       		.byte	0x54
 10386 092a 90020000 		.4byte	.LVL261
 10387 092e BA020000 		.4byte	.LVL262
 10388 0932 0100     		.2byte	0x1
 10389 0934 53       		.byte	0x53
 10390 0935 BA020000 		.4byte	.LVL262
 10391 0939 BE020000 		.4byte	.LVL263
 10392 093d 0100     		.2byte	0x1
 10393 093f 54       		.byte	0x54
 10394 0940 00000000 		.4byte	0
 10395 0944 00000000 		.4byte	0
 10396              	.LLST49:
 10397 0948 86000000 		.4byte	.LVL205
 10398 094c 50010000 		.4byte	.LVL219
 10399 0950 0300     		.2byte	0x3
 10400 0952 09       		.byte	0x9
 10401 0953 FF       		.byte	0xff
 10402 0954 9F       		.byte	0x9f
 10403 0955 50010000 		.4byte	.LVL219
 10404 0959 CE010000 		.4byte	.LVL234
 10405 095d 0100     		.2byte	0x1
 10406 095f 57       		.byte	0x57
 10407 0960 D6010000 		.4byte	.LVL235
 10408 0964 EA010000 		.4byte	.LVL238
 10409 0968 0100     		.2byte	0x1
 10410 096a 57       		.byte	0x57
 10411 096b 78020000 		.4byte	.LVL257
 10412 096f BA020000 		.4byte	.LVL262
ARM GAS  C:\Users\Phuong\AppData\Local\Temp\ccmYXgep.s 			page 229


 10413 0973 0300     		.2byte	0x3
 10414 0975 09       		.byte	0x9
 10415 0976 FF       		.byte	0xff
 10416 0977 9F       		.byte	0x9f
 10417 0978 00000000 		.4byte	0
 10418 097c 00000000 		.4byte	0
 10419              	.LLST50:
 10420 0980 8C000000 		.4byte	.LVL207
 10421 0984 A6010000 		.4byte	.LVL228
 10422 0988 0100     		.2byte	0x1
 10423 098a 56       		.byte	0x56
 10424 098b A8010000 		.4byte	.LVL229
 10425 098f 12020000 		.4byte	.LVL243
 10426 0993 0100     		.2byte	0x1
 10427 0995 56       		.byte	0x56
 10428 0996 78020000 		.4byte	.LVL257
 10429 099a BE020000 		.4byte	.LVL263
 10430 099e 0100     		.2byte	0x1
 10431 09a0 56       		.byte	0x56
 10432 09a1 00000000 		.4byte	0
 10433 09a5 00000000 		.4byte	0
 10434              	.LLST51:
 10435 09a9 76010000 		.4byte	.LVL223
 10436 09ad AE010000 		.4byte	.LVL231
 10437 09b1 0100     		.2byte	0x1
 10438 09b3 55       		.byte	0x55
 10439 09b4 D6010000 		.4byte	.LVL235
 10440 09b8 E2010000 		.4byte	.LVL236
 10441 09bc 0100     		.2byte	0x1
 10442 09be 55       		.byte	0x55
 10443 09bf 00000000 		.4byte	0
 10444 09c3 00000000 		.4byte	0
 10445              	.LLST52:
 10446 09c7 32020000 		.4byte	.LVL245
 10447 09cb 48020000 		.4byte	.LVL246
 10448 09cf 0100     		.2byte	0x1
 10449 09d1 53       		.byte	0x53
 10450 09d2 48020000 		.4byte	.LVL246
 10451 09d6 4C020000 		.4byte	.LVL248
 10452 09da 0500     		.2byte	0x5
 10453 09dc 03       		.byte	0x3
 10454 09dd 00000000 		.4byte	dhcp_rx_options_val
 10455 09e1 4C020000 		.4byte	.LVL248
 10456 09e5 4E020000 		.4byte	.LVL249
 10457 09e9 0100     		.2byte	0x1
 10458 09eb 53       		.byte	0x53
 10459 09ec 4E020000 		.4byte	.LVL249
 10460 09f0 52020000 		.4byte	.LVL251
 10461 09f4 0500     		.2byte	0x5
 10462 09f6 03       		.byte	0x3
 10463 09f7 00000000 		.4byte	dhcp_rx_options_val
 10464 09fb 52020000 		.4byte	.LVL251
 10465 09ff 54020000 		.4byte	.LVL252
 10466 0a03 0100     		.2byte	0x1
 10467 0a05 53       		.byte	0x53
 10468 0a06 54020000 		.4byte	.LVL252
 10469 0a0a 58020000 		.4byte	.LVL254
ARM GAS  C:\Users\Phuong\AppData\Local\Temp\ccmYXgep.s 			page 230


 10470 0a0e 0500     		.2byte	0x5
 10471 0a10 03       		.byte	0x3
 10472 0a11 00000000 		.4byte	dhcp_rx_options_val
 10473 0a15 00000000 		.4byte	0
 10474 0a19 00000000 		.4byte	0
 10475              	.LLST53:
 10476 0a1d 00000000 		.4byte	.LVL264
 10477 0a21 4E000000 		.4byte	.LVL266
 10478 0a25 0100     		.2byte	0x1
 10479 0a27 50       		.byte	0x50
 10480 0a28 4E000000 		.4byte	.LVL266
 10481 0a2c CC000000 		.4byte	.LFE63
 10482 0a30 0400     		.2byte	0x4
 10483 0a32 F3       		.byte	0xf3
 10484 0a33 01       		.uleb128 0x1
 10485 0a34 50       		.byte	0x50
 10486 0a35 9F       		.byte	0x9f
 10487 0a36 00000000 		.4byte	0
 10488 0a3a 00000000 		.4byte	0
 10489              	.LLST54:
 10490 0a3e 06000000 		.4byte	.LVL265
 10491 0a42 94000000 		.4byte	.LVL269
 10492 0a46 0100     		.2byte	0x1
 10493 0a48 54       		.byte	0x54
 10494 0a49 00000000 		.4byte	0
 10495 0a4d 00000000 		.4byte	0
 10496              	.LLST55:
 10497 0a51 96000000 		.4byte	.LVL270
 10498 0a55 AC000000 		.4byte	.LVL273
 10499 0a59 0100     		.2byte	0x1
 10500 0a5b 54       		.byte	0x54
 10501 0a5c AE000000 		.4byte	.LVL274
 10502 0a60 C0000000 		.4byte	.LVL275
 10503 0a64 0100     		.2byte	0x1
 10504 0a66 54       		.byte	0x54
 10505 0a67 00000000 		.4byte	0
 10506 0a6b 00000000 		.4byte	0
 10507              	.LLST56:
 10508 0a6f 00000000 		.4byte	.LVL276
 10509 0a73 14000000 		.4byte	.LVL278
 10510 0a77 0100     		.2byte	0x1
 10511 0a79 50       		.byte	0x50
 10512 0a7a 14000000 		.4byte	.LVL278
 10513 0a7e E8000000 		.4byte	.LVL297
 10514 0a82 0100     		.2byte	0x1
 10515 0a84 55       		.byte	0x55
 10516 0a85 E8000000 		.4byte	.LVL297
 10517 0a89 F4000000 		.4byte	.LFE70
 10518 0a8d 0400     		.2byte	0x4
 10519 0a8f F3       		.byte	0xf3
 10520 0a90 01       		.uleb128 0x1
 10521 0a91 50       		.byte	0x50
 10522 0a92 9F       		.byte	0x9f
 10523 0a93 00000000 		.4byte	0
 10524 0a97 00000000 		.4byte	0
 10525              	.LLST57:
 10526 0a9b 20000000 		.4byte	.LVL279
ARM GAS  C:\Users\Phuong\AppData\Local\Temp\ccmYXgep.s 			page 231


 10527 0a9f 2A000000 		.4byte	.LVL281
 10528 0aa3 0100     		.2byte	0x1
 10529 0aa5 50       		.byte	0x50
 10530 0aa6 42000000 		.4byte	.LVL282
 10531 0aaa 4C000000 		.4byte	.LVL284
 10532 0aae 0100     		.2byte	0x1
 10533 0ab0 50       		.byte	0x50
 10534 0ab1 68000000 		.4byte	.LVL285
 10535 0ab5 72000000 		.4byte	.LVL287
 10536 0ab9 0100     		.2byte	0x1
 10537 0abb 50       		.byte	0x50
 10538 0abc 00000000 		.4byte	0
 10539 0ac0 00000000 		.4byte	0
 10540              	.LLST58:
 10541 0ac4 0A000000 		.4byte	.LVL277
 10542 0ac8 E6000000 		.4byte	.LVL296
 10543 0acc 0100     		.2byte	0x1
 10544 0ace 54       		.byte	0x54
 10545 0acf 00000000 		.4byte	0
 10546 0ad3 00000000 		.4byte	0
 10547              	.LLST59:
 10548 0ad7 A0000000 		.4byte	.LVL288
 10549 0adb A8000000 		.4byte	.LVL289
 10550 0adf 0100     		.2byte	0x1
 10551 0ae1 53       		.byte	0x53
 10552 0ae2 A8000000 		.4byte	.LVL289
 10553 0ae6 AC000000 		.4byte	.LVL290
 10554 0aea 0100     		.2byte	0x1
 10555 0aec 52       		.byte	0x52
 10556 0aed AC000000 		.4byte	.LVL290
 10557 0af1 B2000000 		.4byte	.LVL291
 10558 0af5 0100     		.2byte	0x1
 10559 0af7 53       		.byte	0x53
 10560 0af8 B2000000 		.4byte	.LVL291
 10561 0afc B6000000 		.4byte	.LVL292
 10562 0b00 0100     		.2byte	0x1
 10563 0b02 52       		.byte	0x52
 10564 0b03 B6000000 		.4byte	.LVL292
 10565 0b07 B8000000 		.4byte	.LVL293
 10566 0b0b 0100     		.2byte	0x1
 10567 0b0d 53       		.byte	0x53
 10568 0b0e B8000000 		.4byte	.LVL293
 10569 0b12 BA000000 		.4byte	.LVL294
 10570 0b16 0100     		.2byte	0x1
 10571 0b18 52       		.byte	0x52
 10572 0b19 00000000 		.4byte	0
 10573 0b1d 00000000 		.4byte	0
 10574              	.LLST60:
 10575 0b21 00000000 		.4byte	.LVL298
 10576 0b25 08000000 		.4byte	.LVL300
 10577 0b29 0100     		.2byte	0x1
 10578 0b2b 50       		.byte	0x50
 10579 0b2c 08000000 		.4byte	.LVL300
 10580 0b30 1E000000 		.4byte	.LVL304
 10581 0b34 0100     		.2byte	0x1
 10582 0b36 54       		.byte	0x54
 10583 0b37 1E000000 		.4byte	.LVL304
ARM GAS  C:\Users\Phuong\AppData\Local\Temp\ccmYXgep.s 			page 232


 10584 0b3b 24000000 		.4byte	.LFE55
 10585 0b3f 0400     		.2byte	0x4
 10586 0b41 F3       		.byte	0xf3
 10587 0b42 01       		.uleb128 0x1
 10588 0b43 50       		.byte	0x50
 10589 0b44 9F       		.byte	0x9f
 10590 0b45 00000000 		.4byte	0
 10591 0b49 00000000 		.4byte	0
 10592              	.LLST61:
 10593 0b4d 04000000 		.4byte	.LVL299
 10594 0b51 08000000 		.4byte	.LVL300
 10595 0b55 0200     		.2byte	0x2
 10596 0b57 70       		.byte	0x70
 10597 0b58 24       		.sleb128 36
 10598 0b59 08000000 		.4byte	.LVL300
 10599 0b5d 0B000000 		.4byte	.LVL301-1
 10600 0b61 0100     		.2byte	0x1
 10601 0b63 50       		.byte	0x50
 10602 0b64 00000000 		.4byte	0
 10603 0b68 00000000 		.4byte	0
 10604              	.LLST62:
 10605 0b6c 00000000 		.4byte	.LVL305
 10606 0b70 26000000 		.4byte	.LVL310
 10607 0b74 0100     		.2byte	0x1
 10608 0b76 50       		.byte	0x50
 10609 0b77 26000000 		.4byte	.LVL310
 10610 0b7b 00010000 		.4byte	.LFE83
 10611 0b7f 0400     		.2byte	0x4
 10612 0b81 F3       		.byte	0xf3
 10613 0b82 01       		.uleb128 0x1
 10614 0b83 50       		.byte	0x50
 10615 0b84 9F       		.byte	0x9f
 10616 0b85 00000000 		.4byte	0
 10617 0b89 00000000 		.4byte	0
 10618              	.LLST63:
 10619 0b8d 00000000 		.4byte	.LVL305
 10620 0b91 26000000 		.4byte	.LVL310
 10621 0b95 0100     		.2byte	0x1
 10622 0b97 51       		.byte	0x51
 10623 0b98 26000000 		.4byte	.LVL310
 10624 0b9c 00010000 		.4byte	.LFE83
 10625 0ba0 0400     		.2byte	0x4
 10626 0ba2 F3       		.byte	0xf3
 10627 0ba3 01       		.uleb128 0x1
 10628 0ba4 51       		.byte	0x51
 10629 0ba5 9F       		.byte	0x9f
 10630 0ba6 00000000 		.4byte	0
 10631 0baa 00000000 		.4byte	0
 10632              	.LLST64:
 10633 0bae 00000000 		.4byte	.LVL305
 10634 0bb2 0C000000 		.4byte	.LVL309
 10635 0bb6 0100     		.2byte	0x1
 10636 0bb8 52       		.byte	0x52
 10637 0bb9 0C000000 		.4byte	.LVL309
 10638 0bbd F0000000 		.4byte	.LVL328
 10639 0bc1 0100     		.2byte	0x1
 10640 0bc3 55       		.byte	0x55
ARM GAS  C:\Users\Phuong\AppData\Local\Temp\ccmYXgep.s 			page 233


 10641 0bc4 F0000000 		.4byte	.LVL328
 10642 0bc8 00010000 		.4byte	.LFE83
 10643 0bcc 0400     		.2byte	0x4
 10644 0bce F3       		.byte	0xf3
 10645 0bcf 01       		.uleb128 0x1
 10646 0bd0 52       		.byte	0x52
 10647 0bd1 9F       		.byte	0x9f
 10648 0bd2 00000000 		.4byte	0
 10649 0bd6 00000000 		.4byte	0
 10650              	.LLST65:
 10651 0bda 00000000 		.4byte	.LVL305
 10652 0bde 06000000 		.4byte	.LVL306
 10653 0be2 0100     		.2byte	0x1
 10654 0be4 53       		.byte	0x53
 10655 0be5 06000000 		.4byte	.LVL306
 10656 0be9 00010000 		.4byte	.LFE83
 10657 0bed 0400     		.2byte	0x4
 10658 0bef F3       		.byte	0xf3
 10659 0bf0 01       		.uleb128 0x1
 10660 0bf1 53       		.byte	0x53
 10661 0bf2 9F       		.byte	0x9f
 10662 0bf3 00000000 		.4byte	0
 10663 0bf7 00000000 		.4byte	0
 10664              	.LLST66:
 10665 0bfb 08000000 		.4byte	.LVL307
 10666 0bff F0000000 		.4byte	.LVL329
 10667 0c03 0100     		.2byte	0x1
 10668 0c05 56       		.byte	0x56
 10669 0c06 00000000 		.4byte	0
 10670 0c0a 00000000 		.4byte	0
 10671              	.LLST67:
 10672 0c0e 0A000000 		.4byte	.LVL308
 10673 0c12 F0000000 		.4byte	.LVL327
 10674 0c16 0100     		.2byte	0x1
 10675 0c18 54       		.byte	0x54
 10676 0c19 00000000 		.4byte	0
 10677 0c1d 00000000 		.4byte	0
 10678              	.LLST68:
 10679 0c21 0C000000 		.4byte	.LVL309
 10680 0c25 63000000 		.4byte	.LVL314-1
 10681 0c29 0100     		.2byte	0x1
 10682 0c2b 52       		.byte	0x52
 10683 0c2c 00000000 		.4byte	0
 10684 0c30 00000000 		.4byte	0
 10685              	.LLST69:
 10686 0c34 82000000 		.4byte	.LVL316
 10687 0c38 91000000 		.4byte	.LVL317-1
 10688 0c3c 0100     		.2byte	0x1
 10689 0c3e 52       		.byte	0x52
 10690 0c3f 9A000000 		.4byte	.LVL319
 10691 0c43 A7000000 		.4byte	.LVL320-1
 10692 0c47 0100     		.2byte	0x1
 10693 0c49 52       		.byte	0x52
 10694 0c4a B0000000 		.4byte	.LVL322
 10695 0c4e CB000000 		.4byte	.LVL323-1
 10696 0c52 0100     		.2byte	0x1
 10697 0c54 52       		.byte	0x52
ARM GAS  C:\Users\Phuong\AppData\Local\Temp\ccmYXgep.s 			page 234


 10698 0c55 CE000000 		.4byte	.LVL324
 10699 0c59 E1000000 		.4byte	.LVL325-1
 10700 0c5d 0100     		.2byte	0x1
 10701 0c5f 52       		.byte	0x52
 10702 0c60 00000000 		.4byte	0
 10703 0c64 00000000 		.4byte	0
 10704              	.LLST70:
 10705 0c68 26000000 		.4byte	.LVL310
 10706 0c6c 36000000 		.4byte	.LVL311
 10707 0c70 0100     		.2byte	0x1
 10708 0c72 53       		.byte	0x53
 10709 0c73 38000000 		.4byte	.LVL312
 10710 0c77 4C000000 		.4byte	.LVL313
 10711 0c7b 0100     		.2byte	0x1
 10712 0c7d 53       		.byte	0x53
 10713 0c7e 00000000 		.4byte	0
 10714 0c82 00000000 		.4byte	0
 10715              	.LLST71:
 10716 0c86 00000000 		.4byte	.LVL330
 10717 0c8a 0C000000 		.4byte	.LVL332
 10718 0c8e 0100     		.2byte	0x1
 10719 0c90 50       		.byte	0x50
 10720 0c91 0C000000 		.4byte	.LVL332
 10721 0c95 12000000 		.4byte	.LVL335
 10722 0c99 0100     		.2byte	0x1
 10723 0c9b 55       		.byte	0x55
 10724 0c9c 12000000 		.4byte	.LVL335
 10725 0ca0 14000000 		.4byte	.LFE64
 10726 0ca4 0400     		.2byte	0x4
 10727 0ca6 F3       		.byte	0xf3
 10728 0ca7 01       		.uleb128 0x1
 10729 0ca8 50       		.byte	0x50
 10730 0ca9 9F       		.byte	0x9f
 10731 0caa 00000000 		.4byte	0
 10732 0cae 00000000 		.4byte	0
 10733              	.LLST72:
 10734 0cb2 00000000 		.4byte	.LVL330
 10735 0cb6 0A000000 		.4byte	.LVL331
 10736 0cba 0100     		.2byte	0x1
 10737 0cbc 51       		.byte	0x51
 10738 0cbd 0A000000 		.4byte	.LVL331
 10739 0cc1 12000000 		.4byte	.LVL334
 10740 0cc5 0100     		.2byte	0x1
 10741 0cc7 54       		.byte	0x54
 10742 0cc8 12000000 		.4byte	.LVL334
 10743 0ccc 12000000 		.4byte	.LVL335
 10744 0cd0 0200     		.2byte	0x2
 10745 0cd2 75       		.byte	0x75
 10746 0cd3 24       		.sleb128 36
 10747 0cd4 12000000 		.4byte	.LVL335
 10748 0cd8 14000000 		.4byte	.LFE64
 10749 0cdc 0500     		.2byte	0x5
 10750 0cde F3       		.byte	0xf3
 10751 0cdf 01       		.uleb128 0x1
 10752 0ce0 50       		.byte	0x50
 10753 0ce1 23       		.byte	0x23
 10754 0ce2 24       		.uleb128 0x24
ARM GAS  C:\Users\Phuong\AppData\Local\Temp\ccmYXgep.s 			page 235


 10755 0ce3 00000000 		.4byte	0
 10756 0ce7 00000000 		.4byte	0
 10757              	.LLST73:
 10758 0ceb 00000000 		.4byte	.LVL336
 10759 0cef 06000000 		.4byte	.LVL337
 10760 0cf3 0100     		.2byte	0x1
 10761 0cf5 50       		.byte	0x50
 10762 0cf6 06000000 		.4byte	.LVL337
 10763 0cfa 12000000 		.4byte	.LVL339
 10764 0cfe 0100     		.2byte	0x1
 10765 0d00 54       		.byte	0x54
 10766 0d01 12000000 		.4byte	.LVL339
 10767 0d05 14000000 		.4byte	.LFE65
 10768 0d09 0400     		.2byte	0x4
 10769 0d0b F3       		.byte	0xf3
 10770 0d0c 01       		.uleb128 0x1
 10771 0d0d 50       		.byte	0x50
 10772 0d0e 9F       		.byte	0x9f
 10773 0d0f 00000000 		.4byte	0
 10774 0d13 00000000 		.4byte	0
 10775              	.LLST74:
 10776 0d17 00000000 		.4byte	.LVL340
 10777 0d1b 0B000000 		.4byte	.LVL342-1
 10778 0d1f 0100     		.2byte	0x1
 10779 0d21 50       		.byte	0x50
 10780 0d22 0B000000 		.4byte	.LVL342-1
 10781 0d26 72000000 		.4byte	.LVL354
 10782 0d2a 0100     		.2byte	0x1
 10783 0d2c 54       		.byte	0x54
 10784 0d2d 72000000 		.4byte	.LVL354
 10785 0d31 7C000000 		.4byte	.LFE67
 10786 0d35 0400     		.2byte	0x4
 10787 0d37 F3       		.byte	0xf3
 10788 0d38 01       		.uleb128 0x1
 10789 0d39 50       		.byte	0x50
 10790 0d3a 9F       		.byte	0x9f
 10791 0d3b 00000000 		.4byte	0
 10792 0d3f 00000000 		.4byte	0
 10793              	.LLST75:
 10794 0d43 06000000 		.4byte	.LVL341
 10795 0d47 2C000000 		.4byte	.LVL345
 10796 0d4b 0200     		.2byte	0x2
 10797 0d4d 30       		.byte	0x30
 10798 0d4e 9F       		.byte	0x9f
 10799 0d4f 2C000000 		.4byte	.LVL345
 10800 0d53 38000000 		.4byte	.LVL346
 10801 0d57 0100     		.2byte	0x1
 10802 0d59 50       		.byte	0x50
 10803 0d5a 00000000 		.4byte	0
 10804 0d5e 00000000 		.4byte	0
 10805              	.LLST76:
 10806 0d62 00000000 		.4byte	.LVL355
 10807 0d66 23000000 		.4byte	.LVL357-1
 10808 0d6a 0100     		.2byte	0x1
 10809 0d6c 50       		.byte	0x50
 10810 0d6d 23000000 		.4byte	.LVL357-1
 10811 0d71 26000000 		.4byte	.LVL358
ARM GAS  C:\Users\Phuong\AppData\Local\Temp\ccmYXgep.s 			page 236


 10812 0d75 0400     		.2byte	0x4
 10813 0d77 F3       		.byte	0xf3
 10814 0d78 01       		.uleb128 0x1
 10815 0d79 50       		.byte	0x50
 10816 0d7a 9F       		.byte	0x9f
 10817 0d7b 26000000 		.4byte	.LVL358
 10818 0d7f 2D000000 		.4byte	.LVL359-1
 10819 0d83 0100     		.2byte	0x1
 10820 0d85 50       		.byte	0x50
 10821 0d86 2D000000 		.4byte	.LVL359-1
 10822 0d8a 30000000 		.4byte	.LFE68
 10823 0d8e 0400     		.2byte	0x4
 10824 0d90 F3       		.byte	0xf3
 10825 0d91 01       		.uleb128 0x1
 10826 0d92 50       		.byte	0x50
 10827 0d93 9F       		.byte	0x9f
 10828 0d94 00000000 		.4byte	0
 10829 0d98 00000000 		.4byte	0
 10830              	.LLST77:
 10831 0d9c 04000000 		.4byte	.LVL356
 10832 0da0 23000000 		.4byte	.LVL357-1
 10833 0da4 0100     		.2byte	0x1
 10834 0da6 53       		.byte	0x53
 10835 0da7 26000000 		.4byte	.LVL358
 10836 0dab 2D000000 		.4byte	.LVL359-1
 10837 0daf 0100     		.2byte	0x1
 10838 0db1 53       		.byte	0x53
 10839 0db2 00000000 		.4byte	0
 10840 0db6 00000000 		.4byte	0
 10841              	.LLST78:
 10842 0dba 00000000 		.4byte	.LVL360
 10843 0dbe 0C000000 		.4byte	.LVL362
 10844 0dc2 0100     		.2byte	0x1
 10845 0dc4 50       		.byte	0x50
 10846 0dc5 0C000000 		.4byte	.LVL362
 10847 0dc9 B0000000 		.4byte	.LVL383
 10848 0dcd 0100     		.2byte	0x1
 10849 0dcf 57       		.byte	0x57
 10850 0dd0 B0000000 		.4byte	.LVL383
 10851 0dd4 C0000000 		.4byte	.LFE71
 10852 0dd8 0400     		.2byte	0x4
 10853 0dda F3       		.byte	0xf3
 10854 0ddb 01       		.uleb128 0x1
 10855 0ddc 50       		.byte	0x50
 10856 0ddd 9F       		.byte	0x9f
 10857 0dde 00000000 		.4byte	0
 10858 0de2 00000000 		.4byte	0
 10859              	.LLST79:
 10860 0de6 08000000 		.4byte	.LVL361
 10861 0dea B0000000 		.4byte	.LVL382
 10862 0dee 0100     		.2byte	0x1
 10863 0df0 54       		.byte	0x54
 10864 0df1 00000000 		.4byte	0
 10865 0df5 00000000 		.4byte	0
 10866              	.LLST80:
 10867 0df9 1C000000 		.4byte	.LVL365
 10868 0dfd 24000000 		.4byte	.LVL366
ARM GAS  C:\Users\Phuong\AppData\Local\Temp\ccmYXgep.s 			page 237


 10869 0e01 0100     		.2byte	0x1
 10870 0e03 50       		.byte	0x50
 10871 0e04 00000000 		.4byte	0
 10872 0e08 00000000 		.4byte	0
 10873              	.LLST81:
 10874 0e0c 9E000000 		.4byte	.LVL379
 10875 0e10 A0000000 		.4byte	.LVL380
 10876 0e14 0100     		.2byte	0x1
 10877 0e16 50       		.byte	0x50
 10878 0e17 00000000 		.4byte	0
 10879 0e1b 00000000 		.4byte	0
 10880              	.LLST82:
 10881 0e1f 3A000000 		.4byte	.LVL369
 10882 0e23 3E000000 		.4byte	.LVL370
 10883 0e27 0200     		.2byte	0x2
 10884 0e29 30       		.byte	0x30
 10885 0e2a 9F       		.byte	0x9f
 10886 0e2b 3E000000 		.4byte	.LVL370
 10887 0e2f 4A000000 		.4byte	.LVL372
 10888 0e33 0100     		.2byte	0x1
 10889 0e35 55       		.byte	0x55
 10890 0e36 4C000000 		.4byte	.LVL373
 10891 0e3a 82000000 		.4byte	.LVL378
 10892 0e3e 0100     		.2byte	0x1
 10893 0e40 55       		.byte	0x55
 10894 0e41 00000000 		.4byte	0
 10895 0e45 00000000 		.4byte	0
 10896              	.LLST83:
 10897 0e49 00000000 		.4byte	.LVL384
 10898 0e4d 15000000 		.4byte	.LVL386-1
 10899 0e51 0100     		.2byte	0x1
 10900 0e53 50       		.byte	0x50
 10901 0e54 15000000 		.4byte	.LVL386-1
 10902 0e58 2A000000 		.4byte	.LFE61
 10903 0e5c 0400     		.2byte	0x4
 10904 0e5e F3       		.byte	0xf3
 10905 0e5f 01       		.uleb128 0x1
 10906 0e60 50       		.byte	0x50
 10907 0e61 9F       		.byte	0x9f
 10908 0e62 00000000 		.4byte	0
 10909 0e66 00000000 		.4byte	0
 10910              	.LLST84:
 10911 0e6a 04000000 		.4byte	.LVL385
 10912 0e6e 28000000 		.4byte	.LVL387
 10913 0e72 0100     		.2byte	0x1
 10914 0e74 54       		.byte	0x54
 10915 0e75 00000000 		.4byte	0
 10916 0e79 00000000 		.4byte	0
 10917              	.LLST85:
 10918 0e7d 00000000 		.4byte	.LVL388
 10919 0e81 10000000 		.4byte	.LVL390
 10920 0e85 0100     		.2byte	0x1
 10921 0e87 50       		.byte	0x50
 10922 0e88 10000000 		.4byte	.LVL390
 10923 0e8c 24000000 		.4byte	.LFE75
 10924 0e90 0400     		.2byte	0x4
 10925 0e92 F3       		.byte	0xf3
ARM GAS  C:\Users\Phuong\AppData\Local\Temp\ccmYXgep.s 			page 238


 10926 0e93 01       		.uleb128 0x1
 10927 0e94 50       		.byte	0x50
 10928 0e95 9F       		.byte	0x9f
 10929 0e96 00000000 		.4byte	0
 10930 0e9a 00000000 		.4byte	0
 10931              	.LLST86:
 10932 0e9e 08000000 		.4byte	.LVL389
 10933 0ea2 22000000 		.4byte	.LVL393
 10934 0ea6 0100     		.2byte	0x1
 10935 0ea8 54       		.byte	0x54
 10936 0ea9 00000000 		.4byte	0
 10937 0ead 00000000 		.4byte	0
 10938              	.LLST87:
 10939 0eb1 00000000 		.4byte	.LVL394
 10940 0eb5 1E000000 		.4byte	.LVL396
 10941 0eb9 0100     		.2byte	0x1
 10942 0ebb 50       		.byte	0x50
 10943 0ebc 1E000000 		.4byte	.LVL396
 10944 0ec0 2A000000 		.4byte	.LVL399
 10945 0ec4 0100     		.2byte	0x1
 10946 0ec6 54       		.byte	0x54
 10947 0ec7 2A000000 		.4byte	.LVL399
 10948 0ecb 33000000 		.4byte	.LVL400-1
 10949 0ecf 0100     		.2byte	0x1
 10950 0ed1 50       		.byte	0x50
 10951 0ed2 33000000 		.4byte	.LVL400-1
 10952 0ed6 60000000 		.4byte	.LVL406
 10953 0eda 0100     		.2byte	0x1
 10954 0edc 54       		.byte	0x54
 10955 0edd 60000000 		.4byte	.LVL406
 10956 0ee1 62000000 		.4byte	.LVL407
 10957 0ee5 0100     		.2byte	0x1
 10958 0ee7 50       		.byte	0x50
 10959 0ee8 62000000 		.4byte	.LVL407
 10960 0eec 66000000 		.4byte	.LVL408
 10961 0ef0 0100     		.2byte	0x1
 10962 0ef2 54       		.byte	0x54
 10963 0ef3 66000000 		.4byte	.LVL408
 10964 0ef7 68000000 		.4byte	.LVL409
 10965 0efb 0100     		.2byte	0x1
 10966 0efd 50       		.byte	0x50
 10967 0efe 68000000 		.4byte	.LVL409
 10968 0f02 6C000000 		.4byte	.LVL410
 10969 0f06 0100     		.2byte	0x1
 10970 0f08 54       		.byte	0x54
 10971 0f09 6C000000 		.4byte	.LVL410
 10972 0f0d 6E000000 		.4byte	.LVL411
 10973 0f11 0100     		.2byte	0x1
 10974 0f13 50       		.byte	0x50
 10975 0f14 6E000000 		.4byte	.LVL411
 10976 0f18 7C000000 		.4byte	.LVL415
 10977 0f1c 0100     		.2byte	0x1
 10978 0f1e 54       		.byte	0x54
 10979 0f1f 7C000000 		.4byte	.LVL415
 10980 0f23 84000000 		.4byte	.LFE66
 10981 0f27 0400     		.2byte	0x4
 10982 0f29 F3       		.byte	0xf3
ARM GAS  C:\Users\Phuong\AppData\Local\Temp\ccmYXgep.s 			page 239


 10983 0f2a 01       		.uleb128 0x1
 10984 0f2b 50       		.byte	0x50
 10985 0f2c 9F       		.byte	0x9f
 10986 0f2d 00000000 		.4byte	0
 10987 0f31 00000000 		.4byte	0
 10988              	.LLST88:
 10989 0f35 10000000 		.4byte	.LVL395
 10990 0f39 24000000 		.4byte	.LVL398
 10991 0f3d 0100     		.2byte	0x1
 10992 0f3f 55       		.byte	0x55
 10993 0f40 24000000 		.4byte	.LVL398
 10994 0f44 2A000000 		.4byte	.LVL399
 10995 0f48 0100     		.2byte	0x1
 10996 0f4a 50       		.byte	0x50
 10997 0f4b 2A000000 		.4byte	.LVL399
 10998 0f4f 60000000 		.4byte	.LVL406
 10999 0f53 0100     		.2byte	0x1
 11000 0f55 55       		.byte	0x55
 11001 0f56 6C000000 		.4byte	.LVL410
 11002 0f5a 72000000 		.4byte	.LVL412
 11003 0f5e 0100     		.2byte	0x1
 11004 0f60 55       		.byte	0x55
 11005 0f61 72000000 		.4byte	.LVL412
 11006 0f65 74000000 		.4byte	.LVL413
 11007 0f69 0100     		.2byte	0x1
 11008 0f6b 50       		.byte	0x50
 11009 0f6c 74000000 		.4byte	.LVL413
 11010 0f70 7C000000 		.4byte	.LVL414
 11011 0f74 0100     		.2byte	0x1
 11012 0f76 55       		.byte	0x55
 11013 0f77 00000000 		.4byte	0
 11014 0f7b 00000000 		.4byte	0
 11015              	.LLST89:
 11016 0f7f 50000000 		.4byte	.LVL403
 11017 0f83 56000000 		.4byte	.LVL404
 11018 0f87 0100     		.2byte	0x1
 11019 0f89 50       		.byte	0x50
 11020 0f8a 00000000 		.4byte	0
 11021 0f8e 00000000 		.4byte	0
 11022              	.LLST90:
 11023 0f92 00000000 		.4byte	.LVL416
 11024 0f96 1A000000 		.4byte	.LVL419
 11025 0f9a 0100     		.2byte	0x1
 11026 0f9c 50       		.byte	0x50
 11027 0f9d 1A000000 		.4byte	.LVL419
 11028 0fa1 1C000000 		.4byte	.LVL420
 11029 0fa5 0400     		.2byte	0x4
 11030 0fa7 F3       		.byte	0xf3
 11031 0fa8 01       		.uleb128 0x1
 11032 0fa9 50       		.byte	0x50
 11033 0faa 9F       		.byte	0x9f
 11034 0fab 1C000000 		.4byte	.LVL420
 11035 0faf 1E000000 		.4byte	.LVL421
 11036 0fb3 0100     		.2byte	0x1
 11037 0fb5 50       		.byte	0x50
 11038 0fb6 1E000000 		.4byte	.LVL421
 11039 0fba 20000000 		.4byte	.LVL422
ARM GAS  C:\Users\Phuong\AppData\Local\Temp\ccmYXgep.s 			page 240


 11040 0fbe 0400     		.2byte	0x4
 11041 0fc0 F3       		.byte	0xf3
 11042 0fc1 01       		.uleb128 0x1
 11043 0fc2 50       		.byte	0x50
 11044 0fc3 9F       		.byte	0x9f
 11045 0fc4 20000000 		.4byte	.LVL422
 11046 0fc8 22000000 		.4byte	.LVL423
 11047 0fcc 0100     		.2byte	0x1
 11048 0fce 50       		.byte	0x50
 11049 0fcf 22000000 		.4byte	.LVL423
 11050 0fd3 24000000 		.4byte	.LVL424
 11051 0fd7 0400     		.2byte	0x4
 11052 0fd9 F3       		.byte	0xf3
 11053 0fda 01       		.uleb128 0x1
 11054 0fdb 50       		.byte	0x50
 11055 0fdc 9F       		.byte	0x9f
 11056 0fdd 24000000 		.4byte	.LVL424
 11057 0fe1 26000000 		.4byte	.LVL425
 11058 0fe5 0100     		.2byte	0x1
 11059 0fe7 50       		.byte	0x50
 11060 0fe8 26000000 		.4byte	.LVL425
 11061 0fec 2A000000 		.4byte	.LVL426
 11062 0ff0 0400     		.2byte	0x4
 11063 0ff2 F3       		.byte	0xf3
 11064 0ff3 01       		.uleb128 0x1
 11065 0ff4 50       		.byte	0x50
 11066 0ff5 9F       		.byte	0x9f
 11067 0ff6 2A000000 		.4byte	.LVL426
 11068 0ffa 2C000000 		.4byte	.LVL427
 11069 0ffe 0100     		.2byte	0x1
 11070 1000 50       		.byte	0x50
 11071 1001 2C000000 		.4byte	.LVL427
 11072 1005 2E000000 		.4byte	.LVL428
 11073 1009 0400     		.2byte	0x4
 11074 100b F3       		.byte	0xf3
 11075 100c 01       		.uleb128 0x1
 11076 100d 50       		.byte	0x50
 11077 100e 9F       		.byte	0x9f
 11078 100f 2E000000 		.4byte	.LVL428
 11079 1013 30000000 		.4byte	.LVL429
 11080 1017 0100     		.2byte	0x1
 11081 1019 50       		.byte	0x50
 11082 101a 30000000 		.4byte	.LVL429
 11083 101e 32000000 		.4byte	.LFE87
 11084 1022 0400     		.2byte	0x4
 11085 1024 F3       		.byte	0xf3
 11086 1025 01       		.uleb128 0x1
 11087 1026 50       		.byte	0x50
 11088 1027 9F       		.byte	0x9f
 11089 1028 00000000 		.4byte	0
 11090 102c 00000000 		.4byte	0
 11091              	.LLST91:
 11092 1030 0A000000 		.4byte	.LVL417
 11093 1034 0C000000 		.4byte	.LVL418
 11094 1038 0100     		.2byte	0x1
 11095 103a 53       		.byte	0x53
 11096 103b 0C000000 		.4byte	.LVL418
ARM GAS  C:\Users\Phuong\AppData\Local\Temp\ccmYXgep.s 			page 241


 11097 103f 1A000000 		.4byte	.LVL419
 11098 1043 0200     		.2byte	0x2
 11099 1045 70       		.byte	0x70
 11100 1046 24       		.sleb128 36
 11101 1047 1A000000 		.4byte	.LVL419
 11102 104b 1C000000 		.4byte	.LVL420
 11103 104f 0500     		.2byte	0x5
 11104 1051 F3       		.byte	0xf3
 11105 1052 01       		.uleb128 0x1
 11106 1053 50       		.byte	0x50
 11107 1054 23       		.byte	0x23
 11108 1055 24       		.uleb128 0x24
 11109 1056 1C000000 		.4byte	.LVL420
 11110 105a 1E000000 		.4byte	.LVL421
 11111 105e 0200     		.2byte	0x2
 11112 1060 70       		.byte	0x70
 11113 1061 24       		.sleb128 36
 11114 1062 1E000000 		.4byte	.LVL421
 11115 1066 20000000 		.4byte	.LVL422
 11116 106a 0500     		.2byte	0x5
 11117 106c F3       		.byte	0xf3
 11118 106d 01       		.uleb128 0x1
 11119 106e 50       		.byte	0x50
 11120 106f 23       		.byte	0x23
 11121 1070 24       		.uleb128 0x24
 11122 1071 20000000 		.4byte	.LVL422
 11123 1075 22000000 		.4byte	.LVL423
 11124 1079 0200     		.2byte	0x2
 11125 107b 70       		.byte	0x70
 11126 107c 24       		.sleb128 36
 11127 107d 22000000 		.4byte	.LVL423
 11128 1081 24000000 		.4byte	.LVL424
 11129 1085 0500     		.2byte	0x5
 11130 1087 F3       		.byte	0xf3
 11131 1088 01       		.uleb128 0x1
 11132 1089 50       		.byte	0x50
 11133 108a 23       		.byte	0x23
 11134 108b 24       		.uleb128 0x24
 11135 108c 24000000 		.4byte	.LVL424
 11136 1090 26000000 		.4byte	.LVL425
 11137 1094 0200     		.2byte	0x2
 11138 1096 70       		.byte	0x70
 11139 1097 24       		.sleb128 36
 11140 1098 26000000 		.4byte	.LVL425
 11141 109c 2A000000 		.4byte	.LVL426
 11142 10a0 0500     		.2byte	0x5
 11143 10a2 F3       		.byte	0xf3
 11144 10a3 01       		.uleb128 0x1
 11145 10a4 50       		.byte	0x50
 11146 10a5 23       		.byte	0x23
 11147 10a6 24       		.uleb128 0x24
 11148 10a7 00000000 		.4byte	0
 11149 10ab 00000000 		.4byte	0
 11150              	.LLST92:
 11151 10af 00000000 		.4byte	.LVL430
 11152 10b3 13000000 		.4byte	.LVL432-1
 11153 10b7 0100     		.2byte	0x1
ARM GAS  C:\Users\Phuong\AppData\Local\Temp\ccmYXgep.s 			page 242


 11154 10b9 50       		.byte	0x50
 11155 10ba 13000000 		.4byte	.LVL432-1
 11156 10be 98000000 		.4byte	.LVL446
 11157 10c2 0100     		.2byte	0x1
 11158 10c4 55       		.byte	0x55
 11159 10c5 98000000 		.4byte	.LVL446
 11160 10c9 9A000000 		.4byte	.LVL447
 11161 10cd 0100     		.2byte	0x1
 11162 10cf 50       		.byte	0x50
 11163 10d0 9A000000 		.4byte	.LVL447
 11164 10d4 A2000000 		.4byte	.LVL451
 11165 10d8 0100     		.2byte	0x1
 11166 10da 55       		.byte	0x55
 11167 10db A2000000 		.4byte	.LVL451
 11168 10df AC000000 		.4byte	.LFE74
 11169 10e3 0400     		.2byte	0x4
 11170 10e5 F3       		.byte	0xf3
 11171 10e6 01       		.uleb128 0x1
 11172 10e7 50       		.byte	0x50
 11173 10e8 9F       		.byte	0x9f
 11174 10e9 00000000 		.4byte	0
 11175 10ed 00000000 		.4byte	0
 11176              	.LLST93:
 11177 10f1 08000000 		.4byte	.LVL431
 11178 10f5 A2000000 		.4byte	.LVL450
 11179 10f9 0100     		.2byte	0x1
 11180 10fb 54       		.byte	0x54
 11181 10fc 00000000 		.4byte	0
 11182 1100 00000000 		.4byte	0
 11183              	.LLST94:
 11184 1104 46000000 		.4byte	.LVL436
 11185 1108 4E000000 		.4byte	.LVL437
 11186 110c 0100     		.2byte	0x1
 11187 110e 50       		.byte	0x50
 11188 110f 00000000 		.4byte	0
 11189 1113 00000000 		.4byte	0
 11190              	.LLST95:
 11191 1117 16000000 		.4byte	.LVL433
 11192 111b 46000000 		.4byte	.LVL436
 11193 111f 0100     		.2byte	0x1
 11194 1121 56       		.byte	0x56
 11195 1122 9E000000 		.4byte	.LVL448
 11196 1126 A0000000 		.4byte	.LVL449
 11197 112a 0100     		.2byte	0x1
 11198 112c 56       		.byte	0x56
 11199 112d 00000000 		.4byte	0
 11200 1131 00000000 		.4byte	0
 11201              	.LLST96:
 11202 1135 06000000 		.4byte	.LVL452
 11203 1139 64000000 		.4byte	.LVL461
 11204 113d 0100     		.2byte	0x1
 11205 113f 54       		.byte	0x54
 11206 1140 00000000 		.4byte	0
 11207 1144 00000000 		.4byte	0
 11208              	.LLST97:
 11209 1148 0A000000 		.4byte	.LVL453
 11210 114c 2B000000 		.4byte	.LVL454-1
ARM GAS  C:\Users\Phuong\AppData\Local\Temp\ccmYXgep.s 			page 243


 11211 1150 0100     		.2byte	0x1
 11212 1152 53       		.byte	0x53
 11213 1153 34000000 		.4byte	.LVL456
 11214 1157 47000000 		.4byte	.LVL457-1
 11215 115b 0100     		.2byte	0x1
 11216 115d 53       		.byte	0x53
 11217 115e 4A000000 		.4byte	.LVL458
 11218 1162 5D000000 		.4byte	.LVL459-1
 11219 1166 0100     		.2byte	0x1
 11220 1168 53       		.byte	0x53
 11221 1169 00000000 		.4byte	0
 11222 116d 00000000 		.4byte	0
 11223              	.LLST98:
 11224 1171 00000000 		.4byte	.LVL462
 11225 1175 12000000 		.4byte	.LVL464
 11226 1179 0100     		.2byte	0x1
 11227 117b 50       		.byte	0x50
 11228 117c 12000000 		.4byte	.LVL464
 11229 1180 18000000 		.4byte	.LVL466
 11230 1184 0100     		.2byte	0x1
 11231 1186 54       		.byte	0x54
 11232 1187 18000000 		.4byte	.LVL466
 11233 118b 25000000 		.4byte	.LVL467-1
 11234 118f 0100     		.2byte	0x1
 11235 1191 50       		.byte	0x50
 11236 1192 25000000 		.4byte	.LVL467-1
 11237 1196 28000000 		.4byte	.LVL468
 11238 119a 0100     		.2byte	0x1
 11239 119c 54       		.byte	0x54
 11240 119d 28000000 		.4byte	.LVL468
 11241 11a1 2B000000 		.4byte	.LVL469-1
 11242 11a5 0100     		.2byte	0x1
 11243 11a7 50       		.byte	0x50
 11244 11a8 2B000000 		.4byte	.LVL469-1
 11245 11ac 34000000 		.4byte	.LVL471
 11246 11b0 0100     		.2byte	0x1
 11247 11b2 54       		.byte	0x54
 11248 11b3 34000000 		.4byte	.LVL471
 11249 11b7 41000000 		.4byte	.LVL472-1
 11250 11bb 0100     		.2byte	0x1
 11251 11bd 50       		.byte	0x50
 11252 11be 41000000 		.4byte	.LVL472-1
 11253 11c2 44000000 		.4byte	.LVL473
 11254 11c6 0100     		.2byte	0x1
 11255 11c8 54       		.byte	0x54
 11256 11c9 44000000 		.4byte	.LVL473
 11257 11cd 47000000 		.4byte	.LVL474-1
 11258 11d1 0100     		.2byte	0x1
 11259 11d3 50       		.byte	0x50
 11260 11d4 47000000 		.4byte	.LVL474-1
 11261 11d8 48000000 		.4byte	.LVL475
 11262 11dc 0100     		.2byte	0x1
 11263 11de 54       		.byte	0x54
 11264 11df 48000000 		.4byte	.LVL475
 11265 11e3 4A000000 		.4byte	.LFE60
 11266 11e7 0400     		.2byte	0x4
 11267 11e9 F3       		.byte	0xf3
ARM GAS  C:\Users\Phuong\AppData\Local\Temp\ccmYXgep.s 			page 244


 11268 11ea 01       		.uleb128 0x1
 11269 11eb 50       		.byte	0x50
 11270 11ec 9F       		.byte	0x9f
 11271 11ed 00000000 		.4byte	0
 11272 11f1 00000000 		.4byte	0
 11273              	.LLST99:
 11274 11f5 06000000 		.4byte	.LVL463
 11275 11f9 15000000 		.4byte	.LVL465-1
 11276 11fd 0100     		.2byte	0x1
 11277 11ff 52       		.byte	0x52
 11278 1200 18000000 		.4byte	.LVL466
 11279 1204 25000000 		.4byte	.LVL467-1
 11280 1208 0100     		.2byte	0x1
 11281 120a 52       		.byte	0x52
 11282 120b 28000000 		.4byte	.LVL468
 11283 120f 2B000000 		.4byte	.LVL469-1
 11284 1213 0100     		.2byte	0x1
 11285 1215 52       		.byte	0x52
 11286 1216 34000000 		.4byte	.LVL471
 11287 121a 41000000 		.4byte	.LVL472-1
 11288 121e 0100     		.2byte	0x1
 11289 1220 52       		.byte	0x52
 11290 1221 44000000 		.4byte	.LVL473
 11291 1225 47000000 		.4byte	.LVL474-1
 11292 1229 0100     		.2byte	0x1
 11293 122b 52       		.byte	0x52
 11294 122c 00000000 		.4byte	0
 11295 1230 00000000 		.4byte	0
 11296              	.LLST100:
 11297 1234 06000000 		.4byte	.LVL476
 11298 1238 2E000000 		.4byte	.LVL480
 11299 123c 0100     		.2byte	0x1
 11300 123e 54       		.byte	0x54
 11301 123f 00000000 		.4byte	0
 11302 1243 00000000 		.4byte	0
 11303              	.LLST101:
 11304 1247 0A000000 		.4byte	.LVL477
 11305 124b 27000000 		.4byte	.LVL478-1
 11306 124f 0100     		.2byte	0x1
 11307 1251 52       		.byte	0x52
 11308 1252 00000000 		.4byte	0
 11309 1256 00000000 		.4byte	0
 11310              		.section	.debug_aranges,"",%progbits
 11311 0000 2C010000 		.4byte	0x12c
 11312 0004 0200     		.2byte	0x2
 11313 0006 00000000 		.4byte	.Ldebug_info0
 11314 000a 04       		.byte	0x4
 11315 000b 00       		.byte	0
 11316 000c 0000     		.2byte	0
 11317 000e 0000     		.2byte	0
 11318 0010 00000000 		.4byte	.LFB76
 11319 0014 10000000 		.4byte	.LFE76-.LFB76
 11320 0018 00000000 		.4byte	.LFB77
 11321 001c 22000000 		.4byte	.LFE77-.LFB77
 11322 0020 00000000 		.4byte	.LFB78
 11323 0024 12000000 		.4byte	.LFE78-.LFB78
 11324 0028 00000000 		.4byte	.LFB79
ARM GAS  C:\Users\Phuong\AppData\Local\Temp\ccmYXgep.s 			page 245


 11325 002c 24000000 		.4byte	.LFE79-.LFB79
 11326 0030 00000000 		.4byte	.LFB80
 11327 0034 48000000 		.4byte	.LFE80-.LFB80
 11328 0038 00000000 		.4byte	.LFB86
 11329 003c 38000000 		.4byte	.LFE86-.LFB86
 11330 0040 00000000 		.4byte	.LFB84
 11331 0044 90010000 		.4byte	.LFE84-.LFB84
 11332 0048 00000000 		.4byte	.LFB85
 11333 004c 18000000 		.4byte	.LFE85-.LFB85
 11334 0050 00000000 		.4byte	.LFB69
 11335 0054 C4000000 		.4byte	.LFE69-.LFB69
 11336 0058 00000000 		.4byte	.LFB73
 11337 005c D4000000 		.4byte	.LFE73-.LFB73
 11338 0060 00000000 		.4byte	.LFB81
 11339 0064 4A000000 		.4byte	.LFE81-.LFB81
 11340 0068 00000000 		.4byte	.LFB72
 11341 006c C0000000 		.4byte	.LFE72-.LFB72
 11342 0070 00000000 		.4byte	.LFB62
 11343 0074 2E000000 		.4byte	.LFE62-.LFB62
 11344 0078 00000000 		.4byte	.LFB57
 11345 007c F8000000 		.4byte	.LFE57-.LFB57
 11346 0080 00000000 		.4byte	.LFB56
 11347 0084 44000000 		.4byte	.LFE56-.LFB56
 11348 0088 00000000 		.4byte	.LFB54
 11349 008c 24000000 		.4byte	.LFE54-.LFB54
 11350 0090 00000000 		.4byte	.LFB53
 11351 0094 5C000000 		.4byte	.LFE53-.LFB53
 11352 0098 00000000 		.4byte	.LFB82
 11353 009c D8020000 		.4byte	.LFE82-.LFB82
 11354 00a0 00000000 		.4byte	.LFB63
 11355 00a4 CC000000 		.4byte	.LFE63-.LFB63
 11356 00a8 00000000 		.4byte	.LFB70
 11357 00ac F4000000 		.4byte	.LFE70-.LFB70
 11358 00b0 00000000 		.4byte	.LFB55
 11359 00b4 24000000 		.4byte	.LFE55-.LFB55
 11360 00b8 00000000 		.4byte	.LFB83
 11361 00bc 00010000 		.4byte	.LFE83-.LFB83
 11362 00c0 00000000 		.4byte	.LFB64
 11363 00c4 14000000 		.4byte	.LFE64-.LFB64
 11364 00c8 00000000 		.4byte	.LFB65
 11365 00cc 14000000 		.4byte	.LFE65-.LFB65
 11366 00d0 00000000 		.4byte	.LFB67
 11367 00d4 7C000000 		.4byte	.LFE67-.LFB67
 11368 00d8 00000000 		.4byte	.LFB68
 11369 00dc 30000000 		.4byte	.LFE68-.LFB68
 11370 00e0 00000000 		.4byte	.LFB71
 11371 00e4 C0000000 		.4byte	.LFE71-.LFB71
 11372 00e8 00000000 		.4byte	.LFB61
 11373 00ec 2A000000 		.4byte	.LFE61-.LFB61
 11374 00f0 00000000 		.4byte	.LFB75
 11375 00f4 24000000 		.4byte	.LFE75-.LFB75
 11376 00f8 00000000 		.4byte	.LFB66
 11377 00fc 84000000 		.4byte	.LFE66-.LFB66
 11378 0100 00000000 		.4byte	.LFB87
 11379 0104 32000000 		.4byte	.LFE87-.LFB87
 11380 0108 00000000 		.4byte	.LFB74
 11381 010c AC000000 		.4byte	.LFE74-.LFB74
ARM GAS  C:\Users\Phuong\AppData\Local\Temp\ccmYXgep.s 			page 246


 11382 0110 00000000 		.4byte	.LFB58
 11383 0114 6C000000 		.4byte	.LFE58-.LFB58
 11384 0118 00000000 		.4byte	.LFB60
 11385 011c 4A000000 		.4byte	.LFE60-.LFB60
 11386 0120 00000000 		.4byte	.LFB59
 11387 0124 34000000 		.4byte	.LFE59-.LFB59
 11388 0128 00000000 		.4byte	0
 11389 012c 00000000 		.4byte	0
 11390              		.section	.debug_ranges,"",%progbits
 11391              	.Ldebug_ranges0:
 11392 0000 86000000 		.4byte	.LBB4
 11393 0004 12020000 		.4byte	.LBE4
 11394 0008 78020000 		.4byte	.LBB7
 11395 000c BE020000 		.4byte	.LBE7
 11396 0010 00000000 		.4byte	0
 11397 0014 00000000 		.4byte	0
 11398 0018 00000000 		.4byte	.LFB76
 11399 001c 10000000 		.4byte	.LFE76
 11400 0020 00000000 		.4byte	.LFB77
 11401 0024 22000000 		.4byte	.LFE77
 11402 0028 00000000 		.4byte	.LFB78
 11403 002c 12000000 		.4byte	.LFE78
 11404 0030 00000000 		.4byte	.LFB79
 11405 0034 24000000 		.4byte	.LFE79
 11406 0038 00000000 		.4byte	.LFB80
 11407 003c 48000000 		.4byte	.LFE80
 11408 0040 00000000 		.4byte	.LFB86
 11409 0044 38000000 		.4byte	.LFE86
 11410 0048 00000000 		.4byte	.LFB84
 11411 004c 90010000 		.4byte	.LFE84
 11412 0050 00000000 		.4byte	.LFB85
 11413 0054 18000000 		.4byte	.LFE85
 11414 0058 00000000 		.4byte	.LFB69
 11415 005c C4000000 		.4byte	.LFE69
 11416 0060 00000000 		.4byte	.LFB73
 11417 0064 D4000000 		.4byte	.LFE73
 11418 0068 00000000 		.4byte	.LFB81
 11419 006c 4A000000 		.4byte	.LFE81
 11420 0070 00000000 		.4byte	.LFB72
 11421 0074 C0000000 		.4byte	.LFE72
 11422 0078 00000000 		.4byte	.LFB62
 11423 007c 2E000000 		.4byte	.LFE62
 11424 0080 00000000 		.4byte	.LFB57
 11425 0084 F8000000 		.4byte	.LFE57
 11426 0088 00000000 		.4byte	.LFB56
 11427 008c 44000000 		.4byte	.LFE56
 11428 0090 00000000 		.4byte	.LFB54
 11429 0094 24000000 		.4byte	.LFE54
 11430 0098 00000000 		.4byte	.LFB53
 11431 009c 5C000000 		.4byte	.LFE53
 11432 00a0 00000000 		.4byte	.LFB82
 11433 00a4 D8020000 		.4byte	.LFE82
 11434 00a8 00000000 		.4byte	.LFB63
 11435 00ac CC000000 		.4byte	.LFE63
 11436 00b0 00000000 		.4byte	.LFB70
 11437 00b4 F4000000 		.4byte	.LFE70
 11438 00b8 00000000 		.4byte	.LFB55
ARM GAS  C:\Users\Phuong\AppData\Local\Temp\ccmYXgep.s 			page 247


 11439 00bc 24000000 		.4byte	.LFE55
 11440 00c0 00000000 		.4byte	.LFB83
 11441 00c4 00010000 		.4byte	.LFE83
 11442 00c8 00000000 		.4byte	.LFB64
 11443 00cc 14000000 		.4byte	.LFE64
 11444 00d0 00000000 		.4byte	.LFB65
 11445 00d4 14000000 		.4byte	.LFE65
 11446 00d8 00000000 		.4byte	.LFB67
 11447 00dc 7C000000 		.4byte	.LFE67
 11448 00e0 00000000 		.4byte	.LFB68
 11449 00e4 30000000 		.4byte	.LFE68
 11450 00e8 00000000 		.4byte	.LFB71
 11451 00ec C0000000 		.4byte	.LFE71
 11452 00f0 00000000 		.4byte	.LFB61
 11453 00f4 2A000000 		.4byte	.LFE61
 11454 00f8 00000000 		.4byte	.LFB75
 11455 00fc 24000000 		.4byte	.LFE75
 11456 0100 00000000 		.4byte	.LFB66
 11457 0104 84000000 		.4byte	.LFE66
 11458 0108 00000000 		.4byte	.LFB87
 11459 010c 32000000 		.4byte	.LFE87
 11460 0110 00000000 		.4byte	.LFB74
 11461 0114 AC000000 		.4byte	.LFE74
 11462 0118 00000000 		.4byte	.LFB58
 11463 011c 6C000000 		.4byte	.LFE58
 11464 0120 00000000 		.4byte	.LFB60
 11465 0124 4A000000 		.4byte	.LFE60
 11466 0128 00000000 		.4byte	.LFB59
 11467 012c 34000000 		.4byte	.LFE59
 11468 0130 00000000 		.4byte	0
 11469 0134 00000000 		.4byte	0
 11470              		.section	.debug_line,"",%progbits
 11471              	.Ldebug_line0:
 11472 0000 160A0000 		.section	.debug_str,"MS",%progbits,1
 11472      02002E03 
 11472      00000201 
 11472      FB0E0D00 
 11472      01010101 
 11473              	.LASF122:
 11474 0000 7564705F 		.ascii	"udp_pcb\000"
 11474      70636200 
 11475              	.LASF267:
 11476 0008 64686370 		.ascii	"dhcp_rx_options_val\000"
 11476      5F72785F 
 11476      6F707469 
 11476      6F6E735F 
 11476      76616C00 
 11477              	.LASF209:
 11478 001c 64686370 		.ascii	"dhcp_reboot\000"
 11478      5F726562 
 11478      6F6F7400 
 11479              	.LASF285:
 11480 0028 6D656D5F 		.ascii	"mem_free\000"
 11480      66726565 
 11480      00
 11481              	.LASF172:
 11482 0031 44484350 		.ascii	"DHCP_STATE_REBINDING\000"
ARM GAS  C:\Users\Phuong\AppData\Local\Temp\ccmYXgep.s 			page 248


 11482      5F535441 
 11482      54455F52 
 11482      4542494E 
 11482      44494E47 
 11483              	.LASF25:
 11484 0046 4D454D50 		.ascii	"MEMP_TCP_PCB_LISTEN\000"
 11484      5F544350 
 11484      5F504342 
 11484      5F4C4953 
 11484      54454E00 
 11485              	.LASF83:
 11486 005a 6E657469 		.ascii	"netif\000"
 11486      6600
 11487              	.LASF125:
 11488 0060 736F5F6F 		.ascii	"so_options\000"
 11488      7074696F 
 11488      6E7300
 11489              	.LASF86:
 11490 006b 696E7075 		.ascii	"input\000"
 11490      7400
 11491              	.LASF272:
 11492 0071 70627566 		.ascii	"pbuf_free\000"
 11492      5F667265 
 11492      6500
 11493              	.LASF53:
 11494 007b 4552525F 		.ascii	"ERR_ABRT\000"
 11494      41425254 
 11494      00
 11495              	.LASF226:
 11496 0084 61676169 		.ascii	"again\000"
 11496      6E00
 11497              	.LASF62:
 11498 008a 50425546 		.ascii	"PBUF_RAM\000"
 11498      5F52414D 
 11498      00
 11499              	.LASF77:
 11500 0093 4C574950 		.ascii	"LWIP_NETIF_CLIENT_DATA_INDEX_IGMP\000"
 11500      5F4E4554 
 11500      49465F43 
 11500      4C49454E 
 11500      545F4441 
 11501              	.LASF116:
 11502 00b5 63757272 		.ascii	"current_input_netif\000"
 11502      656E745F 
 11502      696E7075 
 11502      745F6E65 
 11502      74696600 
 11503              	.LASF230:
 11504 00c9 76616C5F 		.ascii	"val_offset\000"
 11504      6F666673 
 11504      657400
 11505              	.LASF61:
 11506 00d4 50425546 		.ascii	"PBUF_RAW\000"
 11506      5F524157 
 11506      00
 11507              	.LASF70:
 11508 00dd 666C6167 		.ascii	"flags\000"
ARM GAS  C:\Users\Phuong\AppData\Local\Temp\ccmYXgep.s 			page 249


 11508      7300
 11509              	.LASF157:
 11510 00e3 686F7073 		.ascii	"hops\000"
 11510      00
 11511              	.LASF55:
 11512 00e8 4552525F 		.ascii	"ERR_CLSD\000"
 11512      434C5344 
 11512      00
 11513              	.LASF48:
 11514 00f1 4552525F 		.ascii	"ERR_USE\000"
 11514      55534500 
 11515              	.LASF237:
 11516 00f9 736E5F6D 		.ascii	"sn_mask\000"
 11516      61736B00 
 11517              	.LASF283:
 11518 0101 646E735F 		.ascii	"dns_setserver\000"
 11518      73657473 
 11518      65727665 
 11518      7200
 11519              	.LASF155:
 11520 010f 68747970 		.ascii	"htype\000"
 11520      6500
 11521              	.LASF8:
 11522 0115 756E7369 		.ascii	"unsigned int\000"
 11522      676E6564 
 11522      20696E74 
 11522      00
 11523              	.LASF66:
 11524 0122 6E657874 		.ascii	"next\000"
 11524      00
 11525              	.LASF273:
 11526 0127 70627566 		.ascii	"pbuf_realloc\000"
 11526      5F726561 
 11526      6C6C6F63 
 11526      00
 11527              	.LASF39:
 11528 0134 6572725F 		.ascii	"err_t\000"
 11528      7400
 11529              	.LASF222:
 11530 013a 6F707469 		.ascii	"options_idx\000"
 11530      6F6E735F 
 11530      69647800 
 11531              	.LASF166:
 11532 0146 636F6F6B 		.ascii	"cookie\000"
 11532      696500
 11533              	.LASF282:
 11534 014d 70627566 		.ascii	"pbuf_copy_partial\000"
 11534      5F636F70 
 11534      795F7061 
 11534      72746961 
 11534      6C00
 11535              	.LASF145:
 11536 015f 6C656173 		.ascii	"lease_used\000"
 11536      655F7573 
 11536      656400
 11537              	.LASF103:
 11538 016a 6970345F 		.ascii	"ip4_addr_packed\000"
ARM GAS  C:\Users\Phuong\AppData\Local\Temp\ccmYXgep.s 			page 250


 11538      61646472 
 11538      5F706163 
 11538      6B656400 
 11539              	.LASF110:
 11540 017a 5F74746C 		.ascii	"_ttl\000"
 11540      00
 11541              	.LASF173:
 11542 017f 44484350 		.ascii	"DHCP_STATE_RENEWING\000"
 11542      5F535441 
 11542      54455F52 
 11542      454E4557 
 11542      494E4700 
 11543              	.LASF181:
 11544 0193 64686370 		.ascii	"dhcp_option_idx\000"
 11544      5F6F7074 
 11544      696F6E5F 
 11544      69647800 
 11545              	.LASF132:
 11546 01a3 64686370 		.ascii	"dhcp\000"
 11546      00
 11547              	.LASF280:
 11548 01a8 7564705F 		.ascii	"udp_connect\000"
 11548      636F6E6E 
 11548      65637400 
 11549              	.LASF129:
 11550 01b4 6D636173 		.ascii	"mcast_ttl\000"
 11550      745F7474 
 11550      6C00
 11551              	.LASF238:
 11552 01be 67775F61 		.ascii	"gw_addr\000"
 11552      64647200 
 11553              	.LASF2:
 11554 01c6 73686F72 		.ascii	"short int\000"
 11554      7420696E 
 11554      7400
 11555              	.LASF247:
 11556 01d0 64686370 		.ascii	"dhcp_cleanup\000"
 11556      5F636C65 
 11556      616E7570 
 11556      00
 11557              	.LASF117:
 11558 01dd 63757272 		.ascii	"current_ip4_header\000"
 11558      656E745F 
 11558      6970345F 
 11558      68656164 
 11558      657200
 11559              	.LASF159:
 11560 01f0 63696164 		.ascii	"ciaddr\000"
 11560      647200
 11561              	.LASF193:
 11562 01f7 6E65775F 		.ascii	"new_state\000"
 11562      73746174 
 11562      6500
 11563              	.LASF99:
 11564 0201 6E657469 		.ascii	"netif_output_fn\000"
 11564      665F6F75 
 11564      74707574 
ARM GAS  C:\Users\Phuong\AppData\Local\Temp\ccmYXgep.s 			page 251


 11564      5F666E00 
 11565              	.LASF266:
 11566 0211 69705F64 		.ascii	"ip_data\000"
 11566      61746100 
 11567              	.LASF254:
 11568 0219 64686370 		.ascii	"dhcp_supplied_address\000"
 11568      5F737570 
 11568      706C6965 
 11568      645F6164 
 11568      64726573 
 11569              	.LASF264:
 11570 022f 69705F61 		.ascii	"ip_addr_broadcast\000"
 11570      6464725F 
 11570      62726F61 
 11570      64636173 
 11570      7400
 11571              	.LASF251:
 11572 0241 64686370 		.ascii	"dhcp_stop\000"
 11572      5F73746F 
 11572      7000
 11573              	.LASF185:
 11574 024b 44484350 		.ascii	"DHCP_OPTION_IDX_LEASE_TIME\000"
 11574      5F4F5054 
 11574      494F4E5F 
 11574      4944585F 
 11574      4C454153 
 11575              	.LASF191:
 11576 0266 44484350 		.ascii	"DHCP_OPTION_IDX_DNS_SERVER_LAST\000"
 11576      5F4F5054 
 11576      494F4E5F 
 11576      4944585F 
 11576      444E535F 
 11577              	.LASF57:
 11578 0286 50425546 		.ascii	"PBUF_TRANSPORT\000"
 11578      5F545241 
 11578      4E53504F 
 11578      525400
 11579              	.LASF49:
 11580 0295 4552525F 		.ascii	"ERR_ALREADY\000"
 11580      414C5245 
 11580      41445900 
 11581              	.LASF151:
 11582 02a1 6F666665 		.ascii	"offered_t0_lease\000"
 11582      7265645F 
 11582      74305F6C 
 11582      65617365 
 11582      00
 11583              	.LASF98:
 11584 02b2 6E657469 		.ascii	"netif_input_fn\000"
 11584      665F696E 
 11584      7075745F 
 11584      666E00
 11585              	.LASF268:
 11586 02c1 64686370 		.ascii	"dhcp_rx_options_given\000"
 11586      5F72785F 
 11586      6F707469 
 11586      6F6E735F 
ARM GAS  C:\Users\Phuong\AppData\Local\Temp\ccmYXgep.s 			page 252


 11586      67697665 
 11587              	.LASF14:
 11588 02d7 75696E74 		.ascii	"uint32_t\000"
 11588      33325F74 
 11588      00
 11589              	.LASF221:
 11590 02e0 6F666673 		.ascii	"offset_max\000"
 11590      65745F6D 
 11590      617800
 11591              	.LASF275:
 11592 02eb 7564705F 		.ascii	"udp_sendto_if\000"
 11592      73656E64 
 11592      746F5F69 
 11592      6600
 11593              	.LASF33:
 11594 02f9 4D454D50 		.ascii	"MEMP_IGMP_GROUP\000"
 11594      5F49474D 
 11594      505F4752 
 11594      4F555000 
 11595              	.LASF190:
 11596 0309 44484350 		.ascii	"DHCP_OPTION_IDX_DNS_SERVER\000"
 11596      5F4F5054 
 11596      494F4E5F 
 11596      4944585F 
 11596      444E535F 
 11597              	.LASF30:
 11598 0324 4D454D50 		.ascii	"MEMP_TCPIP_MSG_API\000"
 11598      5F544350 
 11598      49505F4D 
 11598      53475F41 
 11598      504900
 11599              	.LASF256:
 11600 0337 69735F64 		.ascii	"is_dhcp_supplied_address\000"
 11600      6863705F 
 11600      73757070 
 11600      6C696564 
 11600      5F616464 
 11601              	.LASF218:
 11602 0350 64686370 		.ascii	"dhcp_inc_pcb_refcount\000"
 11602      5F696E63 
 11602      5F706362 
 11602      5F726566 
 11602      636F756E 
 11603              	.LASF126:
 11604 0366 6C6F6361 		.ascii	"local_port\000"
 11604      6C5F706F 
 11604      727400
 11605              	.LASF287:
 11606 0371 474E5520 		.ascii	"GNU C11 5.4.1 20160609 (release) [ARM/embedded-5-br"
 11606      43313120 
 11606      352E342E 
 11606      31203230 
 11606      31363036 
 11607 03a4 616E6368 		.ascii	"anch revision 237715] -mcpu=cortex-m0plus -mthumb -"
 11607      20726576 
 11607      6973696F 
 11607      6E203233 
ARM GAS  C:\Users\Phuong\AppData\Local\Temp\ccmYXgep.s 			page 253


 11607      37373135 
 11608 03d7 67202D4F 		.ascii	"g -Og -ffunction-sections -ffat-lto-objects\000"
 11608      67202D66 
 11608      66756E63 
 11608      74696F6E 
 11608      2D736563 
 11609              	.LASF201:
 11610 0403 64686370 		.ascii	"dhcp_option_long\000"
 11610      5F6F7074 
 11610      696F6E5F 
 11610      6C6F6E67 
 11610      00
 11611              	.LASF233:
 11612 0414 64686370 		.ascii	"dhcp_handle_ack\000"
 11612      5F68616E 
 11612      646C655F 
 11612      61636B00 
 11613              	.LASF32:
 11614 0424 4D454D50 		.ascii	"MEMP_ARP_QUEUE\000"
 11614      5F415250 
 11614      5F515545 
 11614      554500
 11615              	.LASF229:
 11616 0433 6465636F 		.ascii	"decode_idx\000"
 11616      64655F69 
 11616      647800
 11617              	.LASF263:
 11618 043e 69705F61 		.ascii	"ip_addr_any\000"
 11618      6464725F 
 11618      616E7900 
 11619              	.LASF207:
 11620 044a 72657375 		.ascii	"result\000"
 11620      6C7400
 11621              	.LASF95:
 11622 0451 68776164 		.ascii	"hwaddr\000"
 11622      647200
 11623              	.LASF7:
 11624 0458 6C6F6E67 		.ascii	"long long unsigned int\000"
 11624      206C6F6E 
 11624      6720756E 
 11624      7369676E 
 11624      65642069 
 11625              	.LASF165:
 11626 046f 66696C65 		.ascii	"file\000"
 11626      00
 11627              	.LASF220:
 11628 0474 6F666673 		.ascii	"offset\000"
 11628      657400
 11629              	.LASF240:
 11630 047b 64686370 		.ascii	"dhcp_handle_nak\000"
 11630      5F68616E 
 11630      646C655F 
 11630      6E616B00 
 11631              	.LASF169:
 11632 048b 44484350 		.ascii	"DHCP_STATE_REQUESTING\000"
 11632      5F535441 
 11632      54455F52 
ARM GAS  C:\Users\Phuong\AppData\Local\Temp\ccmYXgep.s 			page 254


 11632      45515545 
 11632      5354494E 
 11633              	.LASF203:
 11634 04a1 6D657373 		.ascii	"message_type\000"
 11634      6167655F 
 11634      74797065 
 11634      00
 11635              	.LASF119:
 11636 04ae 63757272 		.ascii	"current_iphdr_src\000"
 11636      656E745F 
 11636      69706864 
 11636      725F7372 
 11636      6300
 11637              	.LASF74:
 11638 04c0 6970345F 		.ascii	"ip4_addr_t\000"
 11638      61646472 
 11638      5F7400
 11639              	.LASF112:
 11640 04cb 5F63686B 		.ascii	"_chksum\000"
 11640      73756D00 
 11641              	.LASF180:
 11642 04d3 44484350 		.ascii	"DHCP_STATE_BACKING_OFF\000"
 11642      5F535441 
 11642      54455F42 
 11642      41434B49 
 11642      4E475F4F 
 11643              	.LASF94:
 11644 04ea 68776164 		.ascii	"hwaddr_len\000"
 11644      64725F6C 
 11644      656E00
 11645              	.LASF140:
 11646 04f5 72657175 		.ascii	"request_timeout\000"
 11646      6573745F 
 11646      74696D65 
 11646      6F757400 
 11647              	.LASF109:
 11648 0505 5F6F6666 		.ascii	"_offset\000"
 11648      73657400 
 11649              	.LASF46:
 11650 050d 4552525F 		.ascii	"ERR_VAL\000"
 11650      56414C00 
 11651              	.LASF196:
 11652 0515 6F707469 		.ascii	"option_type\000"
 11652      6F6E5F74 
 11652      79706500 
 11653              	.LASF245:
 11654 0521 66726565 		.ascii	"free_pbuf_and_return\000"
 11654      5F706275 
 11654      665F616E 
 11654      645F7265 
 11654      7475726E 
 11655              	.LASF199:
 11656 0536 76616C75 		.ascii	"value\000"
 11656      6500
 11657              	.LASF289:
 11658 053c 433A5C55 		.ascii	"C:\\Users\\Phuong\\Documents\\PSoC Creator\\Dec0820"
 11658      73657273 
ARM GAS  C:\Users\Phuong\AppData\Local\Temp\ccmYXgep.s 			page 255


 11658      5C506875 
 11658      6F6E675C 
 11658      446F6375 
 11659 056a 31385C69 		.ascii	"18\\iot-sdk-iot-dev\\PSOC6_FreeRTOS+LwIP+MbedTLS_Az"
 11659      6F742D73 
 11659      646B2D69 
 11659      6F742D64 
 11659      65765C50 
 11660 059b 7572652D 		.ascii	"ure-IOT-Hub-Demo\\PSOC6_FreeRTOS+LwIP+MbedTLS_Azure"
 11660      494F542D 
 11660      4875622D 
 11660      44656D6F 
 11660      5C50534F 
 11661 05cd 2D494F54 		.ascii	"-IOT-Hub-Demo.cydsn\000"
 11661      2D487562 
 11661      2D44656D 
 11661      6F2E6379 
 11661      64736E00 
 11662              	.LASF189:
 11663 05e1 44484350 		.ascii	"DHCP_OPTION_IDX_ROUTER\000"
 11663      5F4F5054 
 11663      494F4E5F 
 11663      4944585F 
 11663      524F5554 
 11664              	.LASF31:
 11665 05f8 4D454D50 		.ascii	"MEMP_TCPIP_MSG_INPKT\000"
 11665      5F544350 
 11665      49505F4D 
 11665      53475F49 
 11665      4E504B54 
 11666              	.LASF64:
 11667 060d 50425546 		.ascii	"PBUF_REF\000"
 11667      5F524546 
 11667      00
 11668              	.LASF137:
 11669 0616 705F6F75 		.ascii	"p_out\000"
 11669      7400
 11670              	.LASF68:
 11671 061c 746F745F 		.ascii	"tot_len\000"
 11671      6C656E00 
 11672              	.LASF186:
 11673 0624 44484350 		.ascii	"DHCP_OPTION_IDX_T1\000"
 11673      5F4F5054 
 11673      494F4E5F 
 11673      4944585F 
 11673      543100
 11674              	.LASF187:
 11675 0637 44484350 		.ascii	"DHCP_OPTION_IDX_T2\000"
 11675      5F4F5054 
 11675      494F4E5F 
 11675      4944585F 
 11675      543200
 11676              	.LASF10:
 11677 064a 73697A65 		.ascii	"size_t\000"
 11677      5F7400
 11678              	.LASF286:
 11679 0651 6D656D5F 		.ascii	"mem_malloc\000"
ARM GAS  C:\Users\Phuong\AppData\Local\Temp\ccmYXgep.s 			page 256


 11679      6D616C6C 
 11679      6F6300
 11680              	.LASF67:
 11681 065c 7061796C 		.ascii	"payload\000"
 11681      6F616400 
 11682              	.LASF58:
 11683 0664 50425546 		.ascii	"PBUF_IP\000"
 11683      5F495000 
 11684              	.LASF183:
 11685 066c 44484350 		.ascii	"DHCP_OPTION_IDX_MSG_TYPE\000"
 11685      5F4F5054 
 11685      494F4E5F 
 11685      4944585F 
 11685      4D53475F 
 11686              	.LASF87:
 11687 0685 6F757470 		.ascii	"output\000"
 11687      757400
 11688              	.LASF146:
 11689 068c 74305F74 		.ascii	"t0_timeout\000"
 11689      696D656F 
 11689      757400
 11690              	.LASF246:
 11691 0697 64686370 		.ascii	"dhcp_set_struct\000"
 11691      5F736574 
 11691      5F737472 
 11691      75637400 
 11692              	.LASF154:
 11693 06a7 64686370 		.ascii	"dhcp_msg\000"
 11693      5F6D7367 
 11693      00
 11694              	.LASF65:
 11695 06b0 50425546 		.ascii	"PBUF_POOL\000"
 11695      5F504F4F 
 11695      4C00
 11696              	.LASF231:
 11697 06ba 636F7079 		.ascii	"copy_len\000"
 11697      5F6C656E 
 11697      00
 11698              	.LASF265:
 11699 06c3 6E657469 		.ascii	"netif_list\000"
 11699      665F6C69 
 11699      737400
 11700              	.LASF38:
 11701 06ce 4D454D50 		.ascii	"MEMP_MAX\000"
 11701      5F4D4158 
 11701      00
 11702              	.LASF243:
 11703 06d7 7265706C 		.ascii	"reply_msg\000"
 11703      795F6D73 
 11703      6700
 11704              	.LASF18:
 11705 06e1 73385F74 		.ascii	"s8_t\000"
 11705      00
 11706              	.LASF56:
 11707 06e6 4552525F 		.ascii	"ERR_ARG\000"
 11707      41524700 
 11708              	.LASF195:
ARM GAS  C:\Users\Phuong\AppData\Local\Temp\ccmYXgep.s 			page 257


 11709 06ee 64686370 		.ascii	"dhcp_option\000"
 11709      5F6F7074 
 11709      696F6E00 
 11710              	.LASF278:
 11711 06fa 7564705F 		.ascii	"udp_new\000"
 11711      6E657700 
 11712              	.LASF29:
 11713 0702 4D454D50 		.ascii	"MEMP_NETCONN\000"
 11713      5F4E4554 
 11713      434F4E4E 
 11713      00
 11714              	.LASF47:
 11715 070f 4552525F 		.ascii	"ERR_WOULDBLOCK\000"
 11715      574F554C 
 11715      44424C4F 
 11715      434B00
 11716              	.LASF43:
 11717 071e 4552525F 		.ascii	"ERR_TIMEOUT\000"
 11717      54494D45 
 11717      4F555400 
 11718              	.LASF250:
 11719 072a 64686370 		.ascii	"dhcp_t1_timeout\000"
 11719      5F74315F 
 11719      74696D65 
 11719      6F757400 
 11720              	.LASF143:
 11721 073a 74315F72 		.ascii	"t1_renew_time\000"
 11721      656E6577 
 11721      5F74696D 
 11721      6500
 11722              	.LASF114:
 11723 0748 69705F67 		.ascii	"ip_globals\000"
 11723      6C6F6261 
 11723      6C7300
 11724              	.LASF36:
 11725 0753 4D454D50 		.ascii	"MEMP_PBUF\000"
 11725      5F504255 
 11725      4600
 11726              	.LASF148:
 11727 075d 6F666665 		.ascii	"offered_ip_addr\000"
 11727      7265645F 
 11727      69705F61 
 11727      64647200 
 11728              	.LASF91:
 11729 076d 636C6965 		.ascii	"client_data\000"
 11729      6E745F64 
 11729      61746100 
 11730              	.LASF13:
 11731 0779 63686172 		.ascii	"char\000"
 11731      00
 11732              	.LASF156:
 11733 077e 686C656E 		.ascii	"hlen\000"
 11733      00
 11734              	.LASF97:
 11735 0783 69676D70 		.ascii	"igmp_mac_filter\000"
 11735      5F6D6163 
 11735      5F66696C 
ARM GAS  C:\Users\Phuong\AppData\Local\Temp\ccmYXgep.s 			page 258


 11735      74657200 
 11736              	.LASF211:
 11737 0793 6E616D65 		.ascii	"namelen\000"
 11737      6C656E00 
 11738              	.LASF188:
 11739 079b 44484350 		.ascii	"DHCP_OPTION_IDX_SUBNET_MASK\000"
 11739      5F4F5054 
 11739      494F4E5F 
 11739      4944585F 
 11739      5355424E 
 11740              	.LASF227:
 11741 07b7 6465636F 		.ascii	"decode_next\000"
 11741      64655F6E 
 11741      65787400 
 11742              	.LASF177:
 11743 07c3 44484350 		.ascii	"DHCP_STATE_PERMANENT\000"
 11743      5F535441 
 11743      54455F50 
 11743      45524D41 
 11743      4E454E54 
 11744              	.LASF219:
 11745 07d8 64686370 		.ascii	"dhcp_parse_reply\000"
 11745      5F706172 
 11745      73655F72 
 11745      65706C79 
 11745      00
 11746              	.LASF168:
 11747 07e9 44484350 		.ascii	"DHCP_STATE_OFF\000"
 11747      5F535441 
 11747      54455F4F 
 11747      464600
 11748              	.LASF160:
 11749 07f8 79696164 		.ascii	"yiaddr\000"
 11749      647200
 11750              	.LASF82:
 11751 07ff 4E455449 		.ascii	"NETIF_ADD_MAC_FILTER\000"
 11751      465F4144 
 11751      445F4D41 
 11751      435F4649 
 11751      4C544552 
 11752              	.LASF9:
 11753 0814 5F5F7569 		.ascii	"__uint32_t\000"
 11753      6E743332 
 11753      5F7400
 11754              	.LASF182:
 11755 081f 44484350 		.ascii	"DHCP_OPTION_IDX_OVERLOAD\000"
 11755      5F4F5054 
 11755      494F4E5F 
 11755      4944585F 
 11755      4F564552 
 11756              	.LASF174:
 11757 0838 44484350 		.ascii	"DHCP_STATE_SELECTING\000"
 11757      5F535441 
 11757      54455F53 
 11757      454C4543 
 11757      54494E47 
 11758              	.LASF162:
ARM GAS  C:\Users\Phuong\AppData\Local\Temp\ccmYXgep.s 			page 259


 11759 084d 67696164 		.ascii	"giaddr\000"
 11759      647200
 11760              	.LASF111:
 11761 0854 5F70726F 		.ascii	"_proto\000"
 11761      746F00
 11762              	.LASF269:
 11763 085b 70627566 		.ascii	"pbuf_alloc\000"
 11763      5F616C6C 
 11763      6F6300
 11764              	.LASF228:
 11765 0866 6465636F 		.ascii	"decode_len\000"
 11765      64655F6C 
 11765      656E00
 11766              	.LASF158:
 11767 0871 73656373 		.ascii	"secs\000"
 11767      00
 11768              	.LASF149:
 11769 0876 6F666665 		.ascii	"offered_sn_mask\000"
 11769      7265645F 
 11769      736E5F6D 
 11769      61736B00 
 11770              	.LASF261:
 11771 0886 64686370 		.ascii	"dhcp_pcb\000"
 11771      5F706362 
 11771      00
 11772              	.LASF163:
 11773 088f 63686164 		.ascii	"chaddr\000"
 11773      647200
 11774              	.LASF28:
 11775 0896 4D454D50 		.ascii	"MEMP_NETBUF\000"
 11775      5F4E4554 
 11775      42554600 
 11776              	.LASF85:
 11777 08a2 6E65746D 		.ascii	"netmask\000"
 11777      61736B00 
 11778              	.LASF6:
 11779 08aa 6C6F6E67 		.ascii	"long long int\000"
 11779      206C6F6E 
 11779      6720696E 
 11779      7400
 11780              	.LASF206:
 11781 08b8 64686370 		.ascii	"dhcp_discover\000"
 11781      5F646973 
 11781      636F7665 
 11781      7200
 11782              	.LASF260:
 11783 08c6 64686370 		.ascii	"dhcp_discover_request_options\000"
 11783      5F646973 
 11783      636F7665 
 11783      725F7265 
 11783      71756573 
 11784              	.LASF52:
 11785 08e4 4552525F 		.ascii	"ERR_IF\000"
 11785      494600
 11786              	.LASF89:
 11787 08eb 73746174 		.ascii	"status_callback\000"
 11787      75735F63 
ARM GAS  C:\Users\Phuong\AppData\Local\Temp\ccmYXgep.s 			page 260


 11787      616C6C62 
 11787      61636B00 
 11788              	.LASF179:
 11789 08fb 44484350 		.ascii	"DHCP_STATE_RELEASING\000"
 11789      5F535441 
 11789      54455F52 
 11789      454C4541 
 11789      53494E47 
 11790              	.LASF217:
 11791 0910 64686370 		.ascii	"dhcp_dec_pcb_refcount\000"
 11791      5F646563 
 11791      5F706362 
 11791      5F726566 
 11791      636F756E 
 11792              	.LASF144:
 11793 0926 74325F72 		.ascii	"t2_rebind_time\000"
 11793      6562696E 
 11793      645F7469 
 11793      6D6500
 11794              	.LASF202:
 11795 0935 64686370 		.ascii	"dhcp_option_trailer\000"
 11795      5F6F7074 
 11795      696F6E5F 
 11795      74726169 
 11795      6C657200 
 11796              	.LASF24:
 11797 0949 4D454D50 		.ascii	"MEMP_TCP_PCB\000"
 11797      5F544350 
 11797      5F504342 
 11797      00
 11798              	.LASF17:
 11799 0956 75385F74 		.ascii	"u8_t\000"
 11799      00
 11800              	.LASF133:
 11801 095b 6D73675F 		.ascii	"msg_in\000"
 11801      696E00
 11802              	.LASF171:
 11803 0962 44484350 		.ascii	"DHCP_STATE_REBOOTING\000"
 11803      5F535441 
 11803      54455F52 
 11803      45424F4F 
 11803      54494E47 
 11804              	.LASF106:
 11805 0977 5F765F68 		.ascii	"_v_hl\000"
 11805      6C00
 11806              	.LASF150:
 11807 097d 6F666665 		.ascii	"offered_gw_addr\000"
 11807      7265645F 
 11807      67775F61 
 11807      64647200 
 11808              	.LASF290:
 11809 098d 6D656D73 		.ascii	"memset\000"
 11809      657400
 11810              	.LASF200:
 11811 0994 64686370 		.ascii	"dhcp_option_short\000"
 11811      5F6F7074 
 11811      696F6E5F 
ARM GAS  C:\Users\Phuong\AppData\Local\Temp\ccmYXgep.s 			page 261


 11811      73686F72 
 11811      7400
 11812              	.LASF178:
 11813 09a6 44484350 		.ascii	"DHCP_STATE_BOUND\000"
 11813      5F535441 
 11813      54455F42 
 11813      4F554E44 
 11813      00
 11814              	.LASF127:
 11815 09b7 72656D6F 		.ascii	"remote_port\000"
 11815      74655F70 
 11815      6F727400 
 11816              	.LASF213:
 11817 09c3 64686370 		.ascii	"dhcp_rebind\000"
 11817      5F726562 
 11817      696E6400 
 11818              	.LASF210:
 11819 09cf 64686370 		.ascii	"dhcp_option_hostname\000"
 11819      5F6F7074 
 11819      696F6E5F 
 11819      686F7374 
 11819      6E616D65 
 11820              	.LASF215:
 11821 09e4 64686370 		.ascii	"dhcp_select\000"
 11821      5F73656C 
 11821      65637400 
 11822              	.LASF135:
 11823 09f0 74726965 		.ascii	"tries\000"
 11823      7300
 11824              	.LASF27:
 11825 09f6 4D454D50 		.ascii	"MEMP_REASSDATA\000"
 11825      5F524541 
 11825      53534441 
 11825      544100
 11826              	.LASF37:
 11827 0a05 4D454D50 		.ascii	"MEMP_PBUF_POOL\000"
 11827      5F504255 
 11827      465F504F 
 11827      4F4C00
 11828              	.LASF257:
 11829 0a14 64686370 		.ascii	"dhcp_coarse_tmr\000"
 11829      5F636F61 
 11829      7273655F 
 11829      746D7200 
 11830              	.LASF197:
 11831 0a24 6F707469 		.ascii	"option_len\000"
 11831      6F6E5F6C 
 11831      656E00
 11832              	.LASF118:
 11833 0a2f 63757272 		.ascii	"current_ip_header_tot_len\000"
 11833      656E745F 
 11833      69705F68 
 11833      65616465 
 11833      725F746F 
 11834              	.LASF59:
 11835 0a49 50425546 		.ascii	"PBUF_LINK\000"
 11835      5F4C494E 
ARM GAS  C:\Users\Phuong\AppData\Local\Temp\ccmYXgep.s 			page 262


 11835      4B00
 11836              	.LASF81:
 11837 0a53 4E455449 		.ascii	"NETIF_DEL_MAC_FILTER\000"
 11837      465F4445 
 11837      4C5F4D41 
 11837      435F4649 
 11837      4C544552 
 11838              	.LASF276:
 11839 0a68 7374726C 		.ascii	"strlen\000"
 11839      656E00
 11840              	.LASF141:
 11841 0a6f 74315F74 		.ascii	"t1_timeout\000"
 11841      696D656F 
 11841      757400
 11842              	.LASF128:
 11843 0a7a 6D756C74 		.ascii	"multicast_ip\000"
 11843      69636173 
 11843      745F6970 
 11843      00
 11844              	.LASF11:
 11845 0a87 6C6F6E67 		.ascii	"long double\000"
 11845      20646F75 
 11845      626C6500 
 11846              	.LASF176:
 11847 0a93 44484350 		.ascii	"DHCP_STATE_CHECKING\000"
 11847      5F535441 
 11847      54455F43 
 11847      4845434B 
 11847      494E4700 
 11848              	.LASF270:
 11849 0aa7 7379735F 		.ascii	"sys_rand16\000"
 11849      72616E64 
 11849      313600
 11850              	.LASF19:
 11851 0ab2 7531365F 		.ascii	"u16_t\000"
 11851      7400
 11852              	.LASF236:
 11853 0ab8 74696D65 		.ascii	"timeout\000"
 11853      6F757400 
 11854              	.LASF104:
 11855 0ac0 6970345F 		.ascii	"ip4_addr_p_t\000"
 11855      61646472 
 11855      5F705F74 
 11855      00
 11856              	.LASF253:
 11857 0acd 64686370 		.ascii	"dhcp_start\000"
 11857      5F737461 
 11857      727400
 11858              	.LASF252:
 11859 0ad8 64686370 		.ascii	"dhcp_renew\000"
 11859      5F72656E 
 11859      657700
 11860              	.LASF288:
 11861 0ae3 536F7572 		.ascii	"Source\\LwIP\\src\\core\\ipv4\\dhcp.c\000"
 11861      63655C4C 
 11861      7749505C 
 11861      7372635C 
ARM GAS  C:\Users\Phuong\AppData\Local\Temp\ccmYXgep.s 			page 263


 11861      636F7265 
 11862              	.LASF1:
 11863 0b04 756E7369 		.ascii	"unsigned char\000"
 11863      676E6564 
 11863      20636861 
 11863      7200
 11864              	.LASF271:
 11865 0b12 6C776970 		.ascii	"lwip_htonl\000"
 11865      5F68746F 
 11865      6E6C00
 11866              	.LASF42:
 11867 0b1d 4552525F 		.ascii	"ERR_BUF\000"
 11867      42554600 
 11868              	.LASF115:
 11869 0b25 63757272 		.ascii	"current_netif\000"
 11869      656E745F 
 11869      6E657469 
 11869      6600
 11870              	.LASF147:
 11871 0b33 73657276 		.ascii	"server_ip_addr\000"
 11871      65725F69 
 11871      705F6164 
 11871      647200
 11872              	.LASF139:
 11873 0b42 6F707469 		.ascii	"options_out_len\000"
 11873      6F6E735F 
 11873      6F75745F 
 11873      6C656E00 
 11874              	.LASF121:
 11875 0b52 7564705F 		.ascii	"udp_recv_fn\000"
 11875      72656376 
 11875      5F666E00 
 11876              	.LASF21:
 11877 0b5e 7533325F 		.ascii	"u32_t\000"
 11877      7400
 11878              	.LASF138:
 11879 0b64 6D73675F 		.ascii	"msg_out\000"
 11879      6F757400 
 11880              	.LASF167:
 11881 0b6c 6F707469 		.ascii	"options\000"
 11881      6F6E7300 
 11882              	.LASF225:
 11883 0b74 70617273 		.ascii	"parse_sname_as_options\000"
 11883      655F736E 
 11883      616D655F 
 11883      61735F6F 
 11883      7074696F 
 11884              	.LASF214:
 11885 0b8b 64686370 		.ascii	"dhcp_t2_timeout\000"
 11885      5F74325F 
 11885      74696D65 
 11885      6F757400 
 11886              	.LASF134:
 11887 0b9b 7063625F 		.ascii	"pcb_allocated\000"
 11887      616C6C6F 
 11887      63617465 
 11887      6400
ARM GAS  C:\Users\Phuong\AppData\Local\Temp\ccmYXgep.s 			page 264


 11888              	.LASF4:
 11889 0ba9 6C6F6E67 		.ascii	"long int\000"
 11889      20696E74 
 11889      00
 11890              	.LASF216:
 11891 0bb2 64686370 		.ascii	"dhcp_handle_offer\000"
 11891      5F68616E 
 11891      646C655F 
 11891      6F666665 
 11891      7200
 11892              	.LASF212:
 11893 0bc4 61766169 		.ascii	"available\000"
 11893      6C61626C 
 11893      6500
 11894              	.LASF34:
 11895 0bce 4D454D50 		.ascii	"MEMP_SYS_TIMEOUT\000"
 11895      5F535953 
 11895      5F54494D 
 11895      454F5554 
 11895      00
 11896              	.LASF223:
 11897 0bdf 6F707469 		.ascii	"options_idx_max\000"
 11897      6F6E735F 
 11897      6964785F 
 11897      6D617800 
 11898              	.LASF205:
 11899 0bef 64686370 		.ascii	"dhcp_create_msg\000"
 11899      5F637265 
 11899      6174655F 
 11899      6D736700 
 11900              	.LASF93:
 11901 0bff 686F7374 		.ascii	"hostname\000"
 11901      6E616D65 
 11901      00
 11902              	.LASF136:
 11903 0c08 7375626E 		.ascii	"subnet_mask_given\000"
 11903      65745F6D 
 11903      61736B5F 
 11903      67697665 
 11903      6E00
 11904              	.LASF23:
 11905 0c1a 4D454D50 		.ascii	"MEMP_UDP_PCB\000"
 11905      5F554450 
 11905      5F504342 
 11905      00
 11906              	.LASF123:
 11907 0c27 6C6F6361 		.ascii	"local_ip\000"
 11907      6C5F6970 
 11907      00
 11908              	.LASF258:
 11909 0c30 64686370 		.ascii	"dhcp_timeout\000"
 11909      5F74696D 
 11909      656F7574 
 11909      00
 11910              	.LASF194:
 11911 0c3d 64686370 		.ascii	"dhcp_set_state\000"
 11911      5F736574 
ARM GAS  C:\Users\Phuong\AppData\Local\Temp\ccmYXgep.s 			page 265


 11911      5F737461 
 11911      746500
 11912              	.LASF45:
 11913 0c4c 4552525F 		.ascii	"ERR_INPROGRESS\000"
 11913      494E5052 
 11913      4F475245 
 11913      535300
 11914              	.LASF153:
 11915 0c5b 6F666665 		.ascii	"offered_t2_rebind\000"
 11915      7265645F 
 11915      74325F72 
 11915      6562696E 
 11915      6400
 11916              	.LASF72:
 11917 0c6d 6970345F 		.ascii	"ip4_addr\000"
 11917      61646472 
 11917      00
 11918              	.LASF232:
 11919 0c76 6F766572 		.ascii	"overload\000"
 11919      6C6F6164 
 11919      00
 11920              	.LASF175:
 11921 0c7f 44484350 		.ascii	"DHCP_STATE_INFORMING\000"
 11921      5F535441 
 11921      54455F49 
 11921      4E464F52 
 11921      4D494E47 
 11922              	.LASF50:
 11923 0c94 4552525F 		.ascii	"ERR_ISCONN\000"
 11923      4953434F 
 11923      4E4E00
 11924              	.LASF105:
 11925 0c9f 69705F68 		.ascii	"ip_hdr\000"
 11925      647200
 11926              	.LASF96:
 11927 0ca6 6E616D65 		.ascii	"name\000"
 11927      00
 11928              	.LASF100:
 11929 0cab 6E657469 		.ascii	"netif_linkoutput_fn\000"
 11929      665F6C69 
 11929      6E6B6F75 
 11929      74707574 
 11929      5F666E00 
 11930              	.LASF92:
 11931 0cbf 72735F63 		.ascii	"rs_count\000"
 11931      6F756E74 
 11931      00
 11932              	.LASF244:
 11933 0cc8 6D73675F 		.ascii	"msg_type\000"
 11933      74797065 
 11933      00
 11934              	.LASF284:
 11935 0cd1 6E657469 		.ascii	"netif_set_addr\000"
 11935      665F7365 
 11935      745F6164 
 11935      647200
 11936              	.LASF22:
ARM GAS  C:\Users\Phuong\AppData\Local\Temp\ccmYXgep.s 			page 266


 11937 0ce0 4D454D50 		.ascii	"MEMP_RAW_PCB\000"
 11937      5F524157 
 11937      5F504342 
 11937      00
 11938              	.LASF131:
 11939 0ced 72656376 		.ascii	"recv_arg\000"
 11939      5F617267 
 11939      00
 11940              	.LASF107:
 11941 0cf6 5F746F73 		.ascii	"_tos\000"
 11941      00
 11942              	.LASF12:
 11943 0cfb 73697A65 		.ascii	"sizetype\000"
 11943      74797065 
 11943      00
 11944              	.LASF5:
 11945 0d04 6C6F6E67 		.ascii	"long unsigned int\000"
 11945      20756E73 
 11945      69676E65 
 11945      6420696E 
 11945      7400
 11946              	.LASF80:
 11947 0d16 6E657469 		.ascii	"netif_mac_filter_action\000"
 11947      665F6D61 
 11947      635F6669 
 11947      6C746572 
 11947      5F616374 
 11948              	.LASF262:
 11949 0d2e 64686370 		.ascii	"dhcp_pcb_refcount\000"
 11949      5F706362 
 11949      5F726566 
 11949      636F756E 
 11949      7400
 11950              	.LASF255:
 11951 0d40 64686370 		.ascii	"dhcp_release\000"
 11951      5F72656C 
 11951      65617365 
 11951      00
 11952              	.LASF15:
 11953 0d4d 666C6F61 		.ascii	"float\000"
 11953      7400
 11954              	.LASF20:
 11955 0d53 7331365F 		.ascii	"s16_t\000"
 11955      7400
 11956              	.LASF242:
 11957 0d59 706F7274 		.ascii	"port\000"
 11957      00
 11958              	.LASF281:
 11959 0d5e 7564705F 		.ascii	"udp_recv\000"
 11959      72656376 
 11959      00
 11960              	.LASF26:
 11961 0d67 4D454D50 		.ascii	"MEMP_TCP_SEG\000"
 11961      5F544350 
 11961      5F534547 
 11961      00
 11962              	.LASF69:
ARM GAS  C:\Users\Phuong\AppData\Local\Temp\ccmYXgep.s 			page 267


 11963 0d74 74797065 		.ascii	"type\000"
 11963      00
 11964              	.LASF161:
 11965 0d79 73696164 		.ascii	"siaddr\000"
 11965      647200
 11966              	.LASF204:
 11967 0d80 64686370 		.ascii	"dhcp_delete_msg\000"
 11967      5F64656C 
 11967      6574655F 
 11967      6D736700 
 11968              	.LASF71:
 11969 0d90 70627566 		.ascii	"pbuf\000"
 11969      00
 11970              	.LASF79:
 11971 0d95 6C776970 		.ascii	"lwip_internal_netif_client_data_index\000"
 11971      5F696E74 
 11971      65726E61 
 11971      6C5F6E65 
 11971      7469665F 
 11972              	.LASF239:
 11973 0dbb 66697273 		.ascii	"first_octet\000"
 11973      745F6F63 
 11973      74657400 
 11974              	.LASF101:
 11975 0dc7 6E657469 		.ascii	"netif_status_callback_fn\000"
 11975      665F7374 
 11975      61747573 
 11975      5F63616C 
 11975      6C626163 
 11976              	.LASF170:
 11977 0de0 44484350 		.ascii	"DHCP_STATE_INIT\000"
 11977      5F535441 
 11977      54455F49 
 11977      4E495400 
 11978              	.LASF241:
 11979 0df0 64686370 		.ascii	"dhcp_recv\000"
 11979      5F726563 
 11979      7600
 11980              	.LASF88:
 11981 0dfa 6C696E6B 		.ascii	"linkoutput\000"
 11981      6F757470 
 11981      757400
 11982              	.LASF73:
 11983 0e05 61646472 		.ascii	"addr\000"
 11983      00
 11984              	.LASF90:
 11985 0e0a 73746174 		.ascii	"state\000"
 11985      6500
 11986              	.LASF279:
 11987 0e10 7564705F 		.ascii	"udp_bind\000"
 11987      62696E64 
 11987      00
 11988              	.LASF78:
 11989 0e19 4C574950 		.ascii	"LWIP_NETIF_CLIENT_DATA_INDEX_MAX\000"
 11989      5F4E4554 
 11989      49465F43 
 11989      4C49454E 
ARM GAS  C:\Users\Phuong\AppData\Local\Temp\ccmYXgep.s 			page 268


 11989      545F4441 
 11990              	.LASF192:
 11991 0e3a 44484350 		.ascii	"DHCP_OPTION_IDX_MAX\000"
 11991      5F4F5054 
 11991      494F4E5F 
 11991      4944585F 
 11991      4D415800 
 11992              	.LASF184:
 11993 0e4e 44484350 		.ascii	"DHCP_OPTION_IDX_SERVER_ID\000"
 11993      5F4F5054 
 11993      494F4E5F 
 11993      4944585F 
 11993      53455256 
 11994              	.LASF54:
 11995 0e68 4552525F 		.ascii	"ERR_RST\000"
 11995      52535400 
 11996              	.LASF277:
 11997 0e70 7564705F 		.ascii	"udp_remove\000"
 11997      72656D6F 
 11997      766500
 11998              	.LASF102:
 11999 0e7b 6E657469 		.ascii	"netif_igmp_mac_filter_fn\000"
 11999      665F6967 
 11999      6D705F6D 
 11999      61635F66 
 11999      696C7465 
 12000              	.LASF40:
 12001 0e94 4552525F 		.ascii	"ERR_OK\000"
 12001      4F4B00
 12002              	.LASF130:
 12003 0e9b 72656376 		.ascii	"recv\000"
 12003      00
 12004              	.LASF76:
 12005 0ea0 4C574950 		.ascii	"LWIP_NETIF_CLIENT_DATA_INDEX_DHCP\000"
 12005      5F4E4554 
 12005      49465F43 
 12005      4C49454E 
 12005      545F4441 
 12006              	.LASF142:
 12007 0ec2 74325F74 		.ascii	"t2_timeout\000"
 12007      696D656F 
 12007      757400
 12008              	.LASF152:
 12009 0ecd 6F666665 		.ascii	"offered_t1_renew\000"
 12009      7265645F 
 12009      74315F72 
 12009      656E6577 
 12009      00
 12010              	.LASF0:
 12011 0ede 7369676E 		.ascii	"signed char\000"
 12011      65642063 
 12011      68617200 
 12012              	.LASF235:
 12013 0eea 64686370 		.ascii	"dhcp_bind\000"
 12013      5F62696E 
 12013      6400
 12014              	.LASF3:
ARM GAS  C:\Users\Phuong\AppData\Local\Temp\ccmYXgep.s 			page 269


 12015 0ef4 73686F72 		.ascii	"short unsigned int\000"
 12015      7420756E 
 12015      7369676E 
 12015      65642069 
 12015      6E7400
 12016              	.LASF51:
 12017 0f07 4552525F 		.ascii	"ERR_CONN\000"
 12017      434F4E4E 
 12017      00
 12018              	.LASF120:
 12019 0f10 63757272 		.ascii	"current_iphdr_dest\000"
 12019      656E745F 
 12019      69706864 
 12019      725F6465 
 12019      737400
 12020              	.LASF124:
 12021 0f23 72656D6F 		.ascii	"remote_ip\000"
 12021      74655F69 
 12021      7000
 12022              	.LASF44:
 12023 0f2d 4552525F 		.ascii	"ERR_RTE\000"
 12023      52544500 
 12024              	.LASF16:
 12025 0f35 646F7562 		.ascii	"double\000"
 12025      6C6500
 12026              	.LASF248:
 12027 0f3c 64686370 		.ascii	"dhcp_inform\000"
 12027      5F696E66 
 12027      6F726D00 
 12028              	.LASF108:
 12029 0f48 5F6C656E 		.ascii	"_len\000"
 12029      00
 12030              	.LASF75:
 12031 0f4d 69705F61 		.ascii	"ip_addr_t\000"
 12031      6464725F 
 12031      7400
 12032              	.LASF164:
 12033 0f57 736E616D 		.ascii	"sname\000"
 12033      6500
 12034              	.LASF35:
 12035 0f5d 4D454D50 		.ascii	"MEMP_NETDB\000"
 12035      5F4E4554 
 12035      444200
 12036              	.LASF234:
 12037 0f68 646E735F 		.ascii	"dns_addr\000"
 12037      61646472 
 12037      00
 12038              	.LASF60:
 12039 0f71 50425546 		.ascii	"PBUF_RAW_TX\000"
 12039      5F524157 
 12039      5F545800 
 12040              	.LASF259:
 12041 0f7d 64686370 		.ascii	"dhcp_fine_tmr\000"
 12041      5F66696E 
 12041      655F746D 
 12041      7200
 12042              	.LASF63:
ARM GAS  C:\Users\Phuong\AppData\Local\Temp\ccmYXgep.s 			page 270


 12043 0f8b 50425546 		.ascii	"PBUF_ROM\000"
 12043      5F524F4D 
 12043      00
 12044              	.LASF224:
 12045 0f94 70617273 		.ascii	"parse_file_as_options\000"
 12045      655F6669 
 12045      6C655F61 
 12045      735F6F70 
 12045      74696F6E 
 12046              	.LASF208:
 12047 0faa 6D736563 		.ascii	"msecs\000"
 12047      7300
 12048              	.LASF41:
 12049 0fb0 4552525F 		.ascii	"ERR_MEM\000"
 12049      4D454D00 
 12050              	.LASF113:
 12051 0fb8 64657374 		.ascii	"dest\000"
 12051      00
 12052              	.LASF249:
 12053 0fbd 64686370 		.ascii	"dhcp_network_changed\000"
 12053      5F6E6574 
 12053      776F726B 
 12053      5F636861 
 12053      6E676564 
 12054              	.LASF84:
 12055 0fd2 69705F61 		.ascii	"ip_addr\000"
 12055      64647200 
 12056              	.LASF198:
 12057 0fda 64686370 		.ascii	"dhcp_option_byte\000"
 12057      5F6F7074 
 12057      696F6E5F 
 12057      62797465 
 12057      00
 12058              	.LASF274:
 12059 0feb 7564705F 		.ascii	"udp_sendto_if_src\000"
 12059      73656E64 
 12059      746F5F69 
 12059      665F7372 
 12059      6300
 12060              		.ident	"GCC: (GNU Tools for ARM Embedded Processors) 5.4.1 20160609 (release) [ARM/embedded-5-bran
