ARM GAS  C:\Users\Phuong\AppData\Local\Temp\ccQXToeg.s 			page 1


   1              		.syntax unified
   2              		.cpu cortex-m0plus
   3              		.fpu softvfp
   4              		.eabi_attribute 20, 1
   5              		.eabi_attribute 21, 1
   6              		.eabi_attribute 23, 3
   7              		.eabi_attribute 24, 1
   8              		.eabi_attribute 25, 1
   9              		.eabi_attribute 26, 1
  10              		.eabi_attribute 30, 1
  11              		.eabi_attribute 34, 0
  12              		.eabi_attribute 18, 4
  13              		.thumb
  14              		.syntax unified
  15              		.file	"dhm.c"
  16              		.text
  17              	.Ltext0:
  18              		.cfi_sections	.debug_frame
  19              		.section	.text.dhm_read_bignum,"ax",%progbits
  20              		.align	2
  21              		.code	16
  22              		.thumb_func
  23              		.type	dhm_read_bignum, %function
  24              	dhm_read_bignum:
  25              	.LFB1:
  26              		.file 1 "Source\\mbedtls_open\\library\\dhm.c"
   1:Source\mbedtls_open\library/dhm.c **** /*
   2:Source\mbedtls_open\library/dhm.c ****  *  Diffie-Hellman-Merkle key exchange
   3:Source\mbedtls_open\library/dhm.c ****  *
   4:Source\mbedtls_open\library/dhm.c ****  *  Copyright (C) 2006-2015, ARM Limited, All Rights Reserved
   5:Source\mbedtls_open\library/dhm.c ****  *  SPDX-License-Identifier: Apache-2.0
   6:Source\mbedtls_open\library/dhm.c ****  *
   7:Source\mbedtls_open\library/dhm.c ****  *  Licensed under the Apache License, Version 2.0 (the "License"); you may
   8:Source\mbedtls_open\library/dhm.c ****  *  not use this file except in compliance with the License.
   9:Source\mbedtls_open\library/dhm.c ****  *  You may obtain a copy of the License at
  10:Source\mbedtls_open\library/dhm.c ****  *
  11:Source\mbedtls_open\library/dhm.c ****  *  http://www.apache.org/licenses/LICENSE-2.0
  12:Source\mbedtls_open\library/dhm.c ****  *
  13:Source\mbedtls_open\library/dhm.c ****  *  Unless required by applicable law or agreed to in writing, software
  14:Source\mbedtls_open\library/dhm.c ****  *  distributed under the License is distributed on an "AS IS" BASIS, WITHOUT
  15:Source\mbedtls_open\library/dhm.c ****  *  WARRANTIES OR CONDITIONS OF ANY KIND, either express or implied.
  16:Source\mbedtls_open\library/dhm.c ****  *  See the License for the specific language governing permissions and
  17:Source\mbedtls_open\library/dhm.c ****  *  limitations under the License.
  18:Source\mbedtls_open\library/dhm.c ****  *
  19:Source\mbedtls_open\library/dhm.c ****  *  This file is part of mbed TLS (https://tls.mbed.org)
  20:Source\mbedtls_open\library/dhm.c ****  */
  21:Source\mbedtls_open\library/dhm.c **** /*
  22:Source\mbedtls_open\library/dhm.c ****  *  The following sources were referenced in the design of this implementation
  23:Source\mbedtls_open\library/dhm.c ****  *  of the Diffie-Hellman-Merkle algorithm:
  24:Source\mbedtls_open\library/dhm.c ****  *
  25:Source\mbedtls_open\library/dhm.c ****  *  [1] Handbook of Applied Cryptography - 1997, Chapter 12
  26:Source\mbedtls_open\library/dhm.c ****  *      Menezes, van Oorschot and Vanstone
  27:Source\mbedtls_open\library/dhm.c ****  *
  28:Source\mbedtls_open\library/dhm.c ****  */
  29:Source\mbedtls_open\library/dhm.c **** 
  30:Source\mbedtls_open\library/dhm.c **** #if !defined(MBEDTLS_CONFIG_FILE)
  31:Source\mbedtls_open\library/dhm.c **** #include "mbedtls/config.h"
ARM GAS  C:\Users\Phuong\AppData\Local\Temp\ccQXToeg.s 			page 2


  32:Source\mbedtls_open\library/dhm.c **** #else
  33:Source\mbedtls_open\library/dhm.c **** #include MBEDTLS_CONFIG_FILE
  34:Source\mbedtls_open\library/dhm.c **** #endif
  35:Source\mbedtls_open\library/dhm.c **** 
  36:Source\mbedtls_open\library/dhm.c **** #if defined(MBEDTLS_DHM_C)
  37:Source\mbedtls_open\library/dhm.c **** 
  38:Source\mbedtls_open\library/dhm.c **** #include "mbedtls/dhm.h"
  39:Source\mbedtls_open\library/dhm.c **** #include "mbedtls/platform_util.h"
  40:Source\mbedtls_open\library/dhm.c **** 
  41:Source\mbedtls_open\library/dhm.c **** #include <string.h>
  42:Source\mbedtls_open\library/dhm.c **** 
  43:Source\mbedtls_open\library/dhm.c **** #if defined(MBEDTLS_PEM_PARSE_C)
  44:Source\mbedtls_open\library/dhm.c **** #include "mbedtls/pem.h"
  45:Source\mbedtls_open\library/dhm.c **** #endif
  46:Source\mbedtls_open\library/dhm.c **** 
  47:Source\mbedtls_open\library/dhm.c **** #if defined(MBEDTLS_ASN1_PARSE_C)
  48:Source\mbedtls_open\library/dhm.c **** #include "mbedtls/asn1.h"
  49:Source\mbedtls_open\library/dhm.c **** #endif
  50:Source\mbedtls_open\library/dhm.c **** 
  51:Source\mbedtls_open\library/dhm.c **** #if defined(MBEDTLS_PLATFORM_C)
  52:Source\mbedtls_open\library/dhm.c **** #include "mbedtls/platform.h"
  53:Source\mbedtls_open\library/dhm.c **** #else
  54:Source\mbedtls_open\library/dhm.c **** #include <stdlib.h>
  55:Source\mbedtls_open\library/dhm.c **** #include <stdio.h>
  56:Source\mbedtls_open\library/dhm.c **** #define mbedtls_printf     printf
  57:Source\mbedtls_open\library/dhm.c **** #define mbedtls_calloc    calloc
  58:Source\mbedtls_open\library/dhm.c **** #define mbedtls_free       free
  59:Source\mbedtls_open\library/dhm.c **** #endif
  60:Source\mbedtls_open\library/dhm.c **** 
  61:Source\mbedtls_open\library/dhm.c **** #if !defined(MBEDTLS_DHM_ALT)
  62:Source\mbedtls_open\library/dhm.c **** 
  63:Source\mbedtls_open\library/dhm.c **** /*
  64:Source\mbedtls_open\library/dhm.c ****  * helper to validate the mbedtls_mpi size and import it
  65:Source\mbedtls_open\library/dhm.c ****  */
  66:Source\mbedtls_open\library/dhm.c **** static int dhm_read_bignum( mbedtls_mpi *X,
  67:Source\mbedtls_open\library/dhm.c ****                             unsigned char **p,
  68:Source\mbedtls_open\library/dhm.c ****                             const unsigned char *end )
  69:Source\mbedtls_open\library/dhm.c **** {
  27              		.loc 1 69 0
  28              		.cfi_startproc
  29              		@ args = 0, pretend = 0, frame = 0
  30              		@ frame_needed = 0, uses_anonymous_args = 0
  31              	.LVL0:
  32 0000 70B5     		push	{r4, r5, r6, lr}
  33              		.cfi_def_cfa_offset 16
  34              		.cfi_offset 4, -16
  35              		.cfi_offset 5, -12
  36              		.cfi_offset 6, -8
  37              		.cfi_offset 14, -4
  38 0002 0D00     		movs	r5, r1
  70:Source\mbedtls_open\library/dhm.c ****     int ret, n;
  71:Source\mbedtls_open\library/dhm.c **** 
  72:Source\mbedtls_open\library/dhm.c ****     if( end - *p < 2 )
  39              		.loc 1 72 0
  40 0004 0968     		ldr	r1, [r1]
  41              	.LVL1:
  42 0006 531A     		subs	r3, r2, r1
ARM GAS  C:\Users\Phuong\AppData\Local\Temp\ccQXToeg.s 			page 3


  43 0008 012B     		cmp	r3, #1
  44 000a 17DD     		ble	.L4
  73:Source\mbedtls_open\library/dhm.c ****         return( MBEDTLS_ERR_DHM_BAD_INPUT_DATA );
  74:Source\mbedtls_open\library/dhm.c **** 
  75:Source\mbedtls_open\library/dhm.c ****     n = ( (*p)[0] << 8 ) | (*p)[1];
  45              		.loc 1 75 0
  46 000c 0C78     		ldrb	r4, [r1]
  47 000e 2402     		lsls	r4, r4, #8
  48 0010 4B78     		ldrb	r3, [r1, #1]
  49 0012 1C43     		orrs	r4, r3
  50              	.LVL2:
  76:Source\mbedtls_open\library/dhm.c ****     (*p) += 2;
  51              		.loc 1 76 0
  52 0014 0231     		adds	r1, r1, #2
  53 0016 2960     		str	r1, [r5]
  77:Source\mbedtls_open\library/dhm.c **** 
  78:Source\mbedtls_open\library/dhm.c ****     if( (int)( end - *p ) < n )
  54              		.loc 1 78 0
  55 0018 521A     		subs	r2, r2, r1
  56              	.LVL3:
  57 001a 9442     		cmp	r4, r2
  58 001c 10DC     		bgt	.L5
  79:Source\mbedtls_open\library/dhm.c ****         return( MBEDTLS_ERR_DHM_BAD_INPUT_DATA );
  80:Source\mbedtls_open\library/dhm.c **** 
  81:Source\mbedtls_open\library/dhm.c ****     if( ( ret = mbedtls_mpi_read_binary( X, *p, n ) ) != 0 )
  59              		.loc 1 81 0
  60 001e 2200     		movs	r2, r4
  61 0020 FFF7FEFF 		bl	mbedtls_mpi_read_binary
  62              	.LVL4:
  63 0024 0028     		cmp	r0, #0
  64 0026 03D0     		beq	.L3
  82:Source\mbedtls_open\library/dhm.c ****         return( MBEDTLS_ERR_DHM_READ_PARAMS_FAILED + ret );
  65              		.loc 1 82 0
  66 0028 064B     		ldr	r3, .L6
  67 002a 9C46     		mov	ip, r3
  68 002c 6044     		add	r0, r0, ip
  69              	.LVL5:
  70 002e 08E0     		b	.L2
  71              	.LVL6:
  72              	.L3:
  83:Source\mbedtls_open\library/dhm.c **** 
  84:Source\mbedtls_open\library/dhm.c ****     (*p) += n;
  73              		.loc 1 84 0
  74 0030 2B68     		ldr	r3, [r5]
  75 0032 9C46     		mov	ip, r3
  76 0034 6444     		add	r4, r4, ip
  77              	.LVL7:
  78 0036 2C60     		str	r4, [r5]
  85:Source\mbedtls_open\library/dhm.c **** 
  86:Source\mbedtls_open\library/dhm.c ****     return( 0 );
  79              		.loc 1 86 0
  80 0038 0020     		movs	r0, #0
  81              	.LVL8:
  82 003a 02E0     		b	.L2
  83              	.LVL9:
  84              	.L4:
  73:Source\mbedtls_open\library/dhm.c **** 
ARM GAS  C:\Users\Phuong\AppData\Local\Temp\ccQXToeg.s 			page 4


  85              		.loc 1 73 0
  86 003c 0248     		ldr	r0, .L6+4
  87              	.LVL10:
  88 003e 00E0     		b	.L2
  89              	.LVL11:
  90              	.L5:
  79:Source\mbedtls_open\library/dhm.c **** 
  91              		.loc 1 79 0
  92 0040 0148     		ldr	r0, .L6+4
  93              	.LVL12:
  94              	.L2:
  87:Source\mbedtls_open\library/dhm.c **** }
  95              		.loc 1 87 0
  96              		@ sp needed
  97              	.LVL13:
  98 0042 70BD     		pop	{r4, r5, r6, pc}
  99              	.L7:
 100              		.align	2
 101              	.L6:
 102 0044 00CFFFFF 		.word	-12544
 103 0048 80CFFFFF 		.word	-12416
 104              		.cfi_endproc
 105              	.LFE1:
 106              		.size	dhm_read_bignum, .-dhm_read_bignum
 107              		.section	.text.dhm_check_range,"ax",%progbits
 108              		.align	2
 109              		.code	16
 110              		.thumb_func
 111              		.type	dhm_check_range, %function
 112              	dhm_check_range:
 113              	.LFB2:
  88:Source\mbedtls_open\library/dhm.c **** 
  89:Source\mbedtls_open\library/dhm.c **** /*
  90:Source\mbedtls_open\library/dhm.c ****  * Verify sanity of parameter with regards to P
  91:Source\mbedtls_open\library/dhm.c ****  *
  92:Source\mbedtls_open\library/dhm.c ****  * Parameter should be: 2 <= public_param <= P - 2
  93:Source\mbedtls_open\library/dhm.c ****  *
  94:Source\mbedtls_open\library/dhm.c ****  * This means that we need to return an error if
  95:Source\mbedtls_open\library/dhm.c ****  *              public_param < 2 or public_param > P-2
  96:Source\mbedtls_open\library/dhm.c ****  *
  97:Source\mbedtls_open\library/dhm.c ****  * For more information on the attack, see:
  98:Source\mbedtls_open\library/dhm.c ****  *  http://www.cl.cam.ac.uk/~rja14/Papers/psandqs.pdf
  99:Source\mbedtls_open\library/dhm.c ****  *  http://web.nvd.nist.gov/view/vuln/detail?vulnId=CVE-2005-2643
 100:Source\mbedtls_open\library/dhm.c ****  */
 101:Source\mbedtls_open\library/dhm.c **** static int dhm_check_range( const mbedtls_mpi *param, const mbedtls_mpi *P )
 102:Source\mbedtls_open\library/dhm.c **** {
 114              		.loc 1 102 0
 115              		.cfi_startproc
 116              		@ args = 0, pretend = 0, frame = 24
 117              		@ frame_needed = 0, uses_anonymous_args = 0
 118              	.LVL14:
 119 0000 70B5     		push	{r4, r5, r6, lr}
 120              		.cfi_def_cfa_offset 16
 121              		.cfi_offset 4, -16
 122              		.cfi_offset 5, -12
 123              		.cfi_offset 6, -8
 124              		.cfi_offset 14, -4
ARM GAS  C:\Users\Phuong\AppData\Local\Temp\ccQXToeg.s 			page 5


 125 0002 86B0     		sub	sp, sp, #24
 126              		.cfi_def_cfa_offset 40
 127 0004 0600     		movs	r6, r0
 128 0006 0D00     		movs	r5, r1
 129              	.LVL15:
 103:Source\mbedtls_open\library/dhm.c ****     mbedtls_mpi L, U;
 104:Source\mbedtls_open\library/dhm.c ****     int ret = 0;
 105:Source\mbedtls_open\library/dhm.c **** 
 106:Source\mbedtls_open\library/dhm.c ****     mbedtls_mpi_init( &L ); mbedtls_mpi_init( &U );
 130              		.loc 1 106 0
 131 0008 03A8     		add	r0, sp, #12
 132              	.LVL16:
 133 000a FFF7FEFF 		bl	mbedtls_mpi_init
 134              	.LVL17:
 135 000e 6846     		mov	r0, sp
 136 0010 FFF7FEFF 		bl	mbedtls_mpi_init
 137              	.LVL18:
 107:Source\mbedtls_open\library/dhm.c **** 
 108:Source\mbedtls_open\library/dhm.c ****     MBEDTLS_MPI_CHK( mbedtls_mpi_lset( &L, 2 ) );
 138              		.loc 1 108 0
 139 0014 0221     		movs	r1, #2
 140 0016 03A8     		add	r0, sp, #12
 141 0018 FFF7FEFF 		bl	mbedtls_mpi_lset
 142              	.LVL19:
 143 001c 041E     		subs	r4, r0, #0
 144              	.LVL20:
 145 001e 16D1     		bne	.L9
 109:Source\mbedtls_open\library/dhm.c ****     MBEDTLS_MPI_CHK( mbedtls_mpi_sub_int( &U, P, 2 ) );
 146              		.loc 1 109 0
 147 0020 0222     		movs	r2, #2
 148 0022 2900     		movs	r1, r5
 149 0024 6846     		mov	r0, sp
 150              	.LVL21:
 151 0026 FFF7FEFF 		bl	mbedtls_mpi_sub_int
 152              	.LVL22:
 153 002a 041E     		subs	r4, r0, #0
 154              	.LVL23:
 155 002c 0FD1     		bne	.L9
 110:Source\mbedtls_open\library/dhm.c **** 
 111:Source\mbedtls_open\library/dhm.c ****     if( mbedtls_mpi_cmp_mpi( param, &L ) < 0 ||
 156              		.loc 1 111 0
 157 002e 03A9     		add	r1, sp, #12
 158 0030 3000     		movs	r0, r6
 159              	.LVL24:
 160 0032 FFF7FEFF 		bl	mbedtls_mpi_cmp_mpi
 161              	.LVL25:
 162 0036 0028     		cmp	r0, #0
 163 0038 06DB     		blt	.L10
 112:Source\mbedtls_open\library/dhm.c ****         mbedtls_mpi_cmp_mpi( param, &U ) > 0 )
 164              		.loc 1 112 0 discriminator 1
 165 003a 6946     		mov	r1, sp
 166 003c 3000     		movs	r0, r6
 167 003e FFF7FEFF 		bl	mbedtls_mpi_cmp_mpi
 168              	.LVL26:
 111:Source\mbedtls_open\library/dhm.c ****         mbedtls_mpi_cmp_mpi( param, &U ) > 0 )
 169              		.loc 1 111 0 discriminator 1
 170 0042 0028     		cmp	r0, #0
ARM GAS  C:\Users\Phuong\AppData\Local\Temp\ccQXToeg.s 			page 6


 171 0044 03DD     		ble	.L9
 172 0046 01E0     		b	.L11
 173              	.L10:
 113:Source\mbedtls_open\library/dhm.c ****     {
 114:Source\mbedtls_open\library/dhm.c ****         ret = MBEDTLS_ERR_DHM_BAD_INPUT_DATA;
 174              		.loc 1 114 0
 175 0048 054C     		ldr	r4, .L12
 176              	.LVL27:
 177 004a 00E0     		b	.L9
 178              	.LVL28:
 179              	.L11:
 180 004c 044C     		ldr	r4, .L12
 181              	.LVL29:
 182              	.L9:
 115:Source\mbedtls_open\library/dhm.c ****     }
 116:Source\mbedtls_open\library/dhm.c **** 
 117:Source\mbedtls_open\library/dhm.c **** cleanup:
 118:Source\mbedtls_open\library/dhm.c ****     mbedtls_mpi_free( &L ); mbedtls_mpi_free( &U );
 183              		.loc 1 118 0
 184 004e 03A8     		add	r0, sp, #12
 185 0050 FFF7FEFF 		bl	mbedtls_mpi_free
 186              	.LVL30:
 187 0054 6846     		mov	r0, sp
 188 0056 FFF7FEFF 		bl	mbedtls_mpi_free
 189              	.LVL31:
 119:Source\mbedtls_open\library/dhm.c ****     return( ret );
 120:Source\mbedtls_open\library/dhm.c **** }
 190              		.loc 1 120 0
 191 005a 2000     		movs	r0, r4
 192 005c 06B0     		add	sp, sp, #24
 193              		@ sp needed
 194              	.LVL32:
 195              	.LVL33:
 196              	.LVL34:
 197 005e 70BD     		pop	{r4, r5, r6, pc}
 198              	.L13:
 199              		.align	2
 200              	.L12:
 201 0060 80CFFFFF 		.word	-12416
 202              		.cfi_endproc
 203              	.LFE2:
 204              		.size	dhm_check_range, .-dhm_check_range
 205              		.section	.text.dhm_update_blinding,"ax",%progbits
 206              		.align	2
 207              		.code	16
 208              		.thumb_func
 209              		.type	dhm_update_blinding, %function
 210              	dhm_update_blinding:
 211              	.LFB9:
 121:Source\mbedtls_open\library/dhm.c **** 
 122:Source\mbedtls_open\library/dhm.c **** void mbedtls_dhm_init( mbedtls_dhm_context *ctx )
 123:Source\mbedtls_open\library/dhm.c **** {
 124:Source\mbedtls_open\library/dhm.c ****     memset( ctx, 0, sizeof( mbedtls_dhm_context ) );
 125:Source\mbedtls_open\library/dhm.c **** }
 126:Source\mbedtls_open\library/dhm.c **** 
 127:Source\mbedtls_open\library/dhm.c **** /*
 128:Source\mbedtls_open\library/dhm.c ****  * Parse the ServerKeyExchange parameters
ARM GAS  C:\Users\Phuong\AppData\Local\Temp\ccQXToeg.s 			page 7


 129:Source\mbedtls_open\library/dhm.c ****  */
 130:Source\mbedtls_open\library/dhm.c **** int mbedtls_dhm_read_params( mbedtls_dhm_context *ctx,
 131:Source\mbedtls_open\library/dhm.c ****                      unsigned char **p,
 132:Source\mbedtls_open\library/dhm.c ****                      const unsigned char *end )
 133:Source\mbedtls_open\library/dhm.c **** {
 134:Source\mbedtls_open\library/dhm.c ****     int ret;
 135:Source\mbedtls_open\library/dhm.c **** 
 136:Source\mbedtls_open\library/dhm.c ****     if( ( ret = dhm_read_bignum( &ctx->P,  p, end ) ) != 0 ||
 137:Source\mbedtls_open\library/dhm.c ****         ( ret = dhm_read_bignum( &ctx->G,  p, end ) ) != 0 ||
 138:Source\mbedtls_open\library/dhm.c ****         ( ret = dhm_read_bignum( &ctx->GY, p, end ) ) != 0 )
 139:Source\mbedtls_open\library/dhm.c ****         return( ret );
 140:Source\mbedtls_open\library/dhm.c **** 
 141:Source\mbedtls_open\library/dhm.c ****     if( ( ret = dhm_check_range( &ctx->GY, &ctx->P ) ) != 0 )
 142:Source\mbedtls_open\library/dhm.c ****         return( ret );
 143:Source\mbedtls_open\library/dhm.c **** 
 144:Source\mbedtls_open\library/dhm.c ****     ctx->len = mbedtls_mpi_size( &ctx->P );
 145:Source\mbedtls_open\library/dhm.c **** 
 146:Source\mbedtls_open\library/dhm.c ****     return( 0 );
 147:Source\mbedtls_open\library/dhm.c **** }
 148:Source\mbedtls_open\library/dhm.c **** 
 149:Source\mbedtls_open\library/dhm.c **** /*
 150:Source\mbedtls_open\library/dhm.c ****  * Setup and write the ServerKeyExchange parameters
 151:Source\mbedtls_open\library/dhm.c ****  */
 152:Source\mbedtls_open\library/dhm.c **** int mbedtls_dhm_make_params( mbedtls_dhm_context *ctx, int x_size,
 153:Source\mbedtls_open\library/dhm.c ****                      unsigned char *output, size_t *olen,
 154:Source\mbedtls_open\library/dhm.c ****                      int (*f_rng)(void *, unsigned char *, size_t),
 155:Source\mbedtls_open\library/dhm.c ****                      void *p_rng )
 156:Source\mbedtls_open\library/dhm.c **** {
 157:Source\mbedtls_open\library/dhm.c ****     int ret, count = 0;
 158:Source\mbedtls_open\library/dhm.c ****     size_t n1, n2, n3;
 159:Source\mbedtls_open\library/dhm.c ****     unsigned char *p;
 160:Source\mbedtls_open\library/dhm.c **** 
 161:Source\mbedtls_open\library/dhm.c ****     if( mbedtls_mpi_cmp_int( &ctx->P, 0 ) == 0 )
 162:Source\mbedtls_open\library/dhm.c ****         return( MBEDTLS_ERR_DHM_BAD_INPUT_DATA );
 163:Source\mbedtls_open\library/dhm.c **** 
 164:Source\mbedtls_open\library/dhm.c ****     /*
 165:Source\mbedtls_open\library/dhm.c ****      * Generate X as large as possible ( < P )
 166:Source\mbedtls_open\library/dhm.c ****      */
 167:Source\mbedtls_open\library/dhm.c ****     do
 168:Source\mbedtls_open\library/dhm.c ****     {
 169:Source\mbedtls_open\library/dhm.c ****         MBEDTLS_MPI_CHK( mbedtls_mpi_fill_random( &ctx->X, x_size, f_rng, p_rng ) );
 170:Source\mbedtls_open\library/dhm.c **** 
 171:Source\mbedtls_open\library/dhm.c ****         while( mbedtls_mpi_cmp_mpi( &ctx->X, &ctx->P ) >= 0 )
 172:Source\mbedtls_open\library/dhm.c ****             MBEDTLS_MPI_CHK( mbedtls_mpi_shift_r( &ctx->X, 1 ) );
 173:Source\mbedtls_open\library/dhm.c **** 
 174:Source\mbedtls_open\library/dhm.c ****         if( count++ > 10 )
 175:Source\mbedtls_open\library/dhm.c ****             return( MBEDTLS_ERR_DHM_MAKE_PARAMS_FAILED );
 176:Source\mbedtls_open\library/dhm.c ****     }
 177:Source\mbedtls_open\library/dhm.c ****     while( dhm_check_range( &ctx->X, &ctx->P ) != 0 );
 178:Source\mbedtls_open\library/dhm.c **** 
 179:Source\mbedtls_open\library/dhm.c ****     /*
 180:Source\mbedtls_open\library/dhm.c ****      * Calculate GX = G^X mod P
 181:Source\mbedtls_open\library/dhm.c ****      */
 182:Source\mbedtls_open\library/dhm.c ****     MBEDTLS_MPI_CHK( mbedtls_mpi_exp_mod( &ctx->GX, &ctx->G, &ctx->X,
 183:Source\mbedtls_open\library/dhm.c ****                           &ctx->P , &ctx->RP ) );
 184:Source\mbedtls_open\library/dhm.c **** 
 185:Source\mbedtls_open\library/dhm.c ****     if( ( ret = dhm_check_range( &ctx->GX, &ctx->P ) ) != 0 )
ARM GAS  C:\Users\Phuong\AppData\Local\Temp\ccQXToeg.s 			page 8


 186:Source\mbedtls_open\library/dhm.c ****         return( ret );
 187:Source\mbedtls_open\library/dhm.c **** 
 188:Source\mbedtls_open\library/dhm.c ****     /*
 189:Source\mbedtls_open\library/dhm.c ****      * export P, G, GX
 190:Source\mbedtls_open\library/dhm.c ****      */
 191:Source\mbedtls_open\library/dhm.c **** #define DHM_MPI_EXPORT( X, n )                                          \
 192:Source\mbedtls_open\library/dhm.c ****     do {                                                                \
 193:Source\mbedtls_open\library/dhm.c ****         MBEDTLS_MPI_CHK( mbedtls_mpi_write_binary( ( X ),               \
 194:Source\mbedtls_open\library/dhm.c ****                                                    p + 2,               \
 195:Source\mbedtls_open\library/dhm.c ****                                                    ( n ) ) );           \
 196:Source\mbedtls_open\library/dhm.c ****         *p++ = (unsigned char)( ( n ) >> 8 );                           \
 197:Source\mbedtls_open\library/dhm.c ****         *p++ = (unsigned char)( ( n )      );                           \
 198:Source\mbedtls_open\library/dhm.c ****         p += ( n );                                                     \
 199:Source\mbedtls_open\library/dhm.c ****     } while( 0 )
 200:Source\mbedtls_open\library/dhm.c **** 
 201:Source\mbedtls_open\library/dhm.c ****     n1 = mbedtls_mpi_size( &ctx->P  );
 202:Source\mbedtls_open\library/dhm.c ****     n2 = mbedtls_mpi_size( &ctx->G  );
 203:Source\mbedtls_open\library/dhm.c ****     n3 = mbedtls_mpi_size( &ctx->GX );
 204:Source\mbedtls_open\library/dhm.c **** 
 205:Source\mbedtls_open\library/dhm.c ****     p = output;
 206:Source\mbedtls_open\library/dhm.c ****     DHM_MPI_EXPORT( &ctx->P , n1 );
 207:Source\mbedtls_open\library/dhm.c ****     DHM_MPI_EXPORT( &ctx->G , n2 );
 208:Source\mbedtls_open\library/dhm.c ****     DHM_MPI_EXPORT( &ctx->GX, n3 );
 209:Source\mbedtls_open\library/dhm.c **** 
 210:Source\mbedtls_open\library/dhm.c ****     *olen = p - output;
 211:Source\mbedtls_open\library/dhm.c **** 
 212:Source\mbedtls_open\library/dhm.c ****     ctx->len = n1;
 213:Source\mbedtls_open\library/dhm.c **** 
 214:Source\mbedtls_open\library/dhm.c **** cleanup:
 215:Source\mbedtls_open\library/dhm.c **** 
 216:Source\mbedtls_open\library/dhm.c ****     if( ret != 0 )
 217:Source\mbedtls_open\library/dhm.c ****         return( MBEDTLS_ERR_DHM_MAKE_PARAMS_FAILED + ret );
 218:Source\mbedtls_open\library/dhm.c **** 
 219:Source\mbedtls_open\library/dhm.c ****     return( 0 );
 220:Source\mbedtls_open\library/dhm.c **** }
 221:Source\mbedtls_open\library/dhm.c **** 
 222:Source\mbedtls_open\library/dhm.c **** /*
 223:Source\mbedtls_open\library/dhm.c ****  * Set prime modulus and generator
 224:Source\mbedtls_open\library/dhm.c ****  */
 225:Source\mbedtls_open\library/dhm.c **** int mbedtls_dhm_set_group( mbedtls_dhm_context *ctx,
 226:Source\mbedtls_open\library/dhm.c ****                            const mbedtls_mpi *P,
 227:Source\mbedtls_open\library/dhm.c ****                            const mbedtls_mpi *G )
 228:Source\mbedtls_open\library/dhm.c **** {
 229:Source\mbedtls_open\library/dhm.c ****     int ret;
 230:Source\mbedtls_open\library/dhm.c **** 
 231:Source\mbedtls_open\library/dhm.c ****     if( ctx == NULL || P == NULL || G == NULL )
 232:Source\mbedtls_open\library/dhm.c ****         return( MBEDTLS_ERR_DHM_BAD_INPUT_DATA );
 233:Source\mbedtls_open\library/dhm.c **** 
 234:Source\mbedtls_open\library/dhm.c ****     if( ( ret = mbedtls_mpi_copy( &ctx->P, P ) ) != 0 ||
 235:Source\mbedtls_open\library/dhm.c ****         ( ret = mbedtls_mpi_copy( &ctx->G, G ) ) != 0 )
 236:Source\mbedtls_open\library/dhm.c ****     {
 237:Source\mbedtls_open\library/dhm.c ****         return( MBEDTLS_ERR_DHM_SET_GROUP_FAILED + ret );
 238:Source\mbedtls_open\library/dhm.c ****     }
 239:Source\mbedtls_open\library/dhm.c **** 
 240:Source\mbedtls_open\library/dhm.c ****     ctx->len = mbedtls_mpi_size( &ctx->P );
 241:Source\mbedtls_open\library/dhm.c ****     return( 0 );
 242:Source\mbedtls_open\library/dhm.c **** }
ARM GAS  C:\Users\Phuong\AppData\Local\Temp\ccQXToeg.s 			page 9


 243:Source\mbedtls_open\library/dhm.c **** 
 244:Source\mbedtls_open\library/dhm.c **** /*
 245:Source\mbedtls_open\library/dhm.c ****  * Import the peer's public value G^Y
 246:Source\mbedtls_open\library/dhm.c ****  */
 247:Source\mbedtls_open\library/dhm.c **** int mbedtls_dhm_read_public( mbedtls_dhm_context *ctx,
 248:Source\mbedtls_open\library/dhm.c ****                      const unsigned char *input, size_t ilen )
 249:Source\mbedtls_open\library/dhm.c **** {
 250:Source\mbedtls_open\library/dhm.c ****     int ret;
 251:Source\mbedtls_open\library/dhm.c **** 
 252:Source\mbedtls_open\library/dhm.c ****     if( ctx == NULL || ilen < 1 || ilen > ctx->len )
 253:Source\mbedtls_open\library/dhm.c ****         return( MBEDTLS_ERR_DHM_BAD_INPUT_DATA );
 254:Source\mbedtls_open\library/dhm.c **** 
 255:Source\mbedtls_open\library/dhm.c ****     if( ( ret = mbedtls_mpi_read_binary( &ctx->GY, input, ilen ) ) != 0 )
 256:Source\mbedtls_open\library/dhm.c ****         return( MBEDTLS_ERR_DHM_READ_PUBLIC_FAILED + ret );
 257:Source\mbedtls_open\library/dhm.c **** 
 258:Source\mbedtls_open\library/dhm.c ****     return( 0 );
 259:Source\mbedtls_open\library/dhm.c **** }
 260:Source\mbedtls_open\library/dhm.c **** 
 261:Source\mbedtls_open\library/dhm.c **** /*
 262:Source\mbedtls_open\library/dhm.c ****  * Create own private value X and export G^X
 263:Source\mbedtls_open\library/dhm.c ****  */
 264:Source\mbedtls_open\library/dhm.c **** int mbedtls_dhm_make_public( mbedtls_dhm_context *ctx, int x_size,
 265:Source\mbedtls_open\library/dhm.c ****                      unsigned char *output, size_t olen,
 266:Source\mbedtls_open\library/dhm.c ****                      int (*f_rng)(void *, unsigned char *, size_t),
 267:Source\mbedtls_open\library/dhm.c ****                      void *p_rng )
 268:Source\mbedtls_open\library/dhm.c **** {
 269:Source\mbedtls_open\library/dhm.c ****     int ret, count = 0;
 270:Source\mbedtls_open\library/dhm.c **** 
 271:Source\mbedtls_open\library/dhm.c ****     if( ctx == NULL || olen < 1 || olen > ctx->len )
 272:Source\mbedtls_open\library/dhm.c ****         return( MBEDTLS_ERR_DHM_BAD_INPUT_DATA );
 273:Source\mbedtls_open\library/dhm.c **** 
 274:Source\mbedtls_open\library/dhm.c ****     if( mbedtls_mpi_cmp_int( &ctx->P, 0 ) == 0 )
 275:Source\mbedtls_open\library/dhm.c ****         return( MBEDTLS_ERR_DHM_BAD_INPUT_DATA );
 276:Source\mbedtls_open\library/dhm.c **** 
 277:Source\mbedtls_open\library/dhm.c ****     /*
 278:Source\mbedtls_open\library/dhm.c ****      * generate X and calculate GX = G^X mod P
 279:Source\mbedtls_open\library/dhm.c ****      */
 280:Source\mbedtls_open\library/dhm.c ****     do
 281:Source\mbedtls_open\library/dhm.c ****     {
 282:Source\mbedtls_open\library/dhm.c ****         MBEDTLS_MPI_CHK( mbedtls_mpi_fill_random( &ctx->X, x_size, f_rng, p_rng ) );
 283:Source\mbedtls_open\library/dhm.c **** 
 284:Source\mbedtls_open\library/dhm.c ****         while( mbedtls_mpi_cmp_mpi( &ctx->X, &ctx->P ) >= 0 )
 285:Source\mbedtls_open\library/dhm.c ****             MBEDTLS_MPI_CHK( mbedtls_mpi_shift_r( &ctx->X, 1 ) );
 286:Source\mbedtls_open\library/dhm.c **** 
 287:Source\mbedtls_open\library/dhm.c ****         if( count++ > 10 )
 288:Source\mbedtls_open\library/dhm.c ****             return( MBEDTLS_ERR_DHM_MAKE_PUBLIC_FAILED );
 289:Source\mbedtls_open\library/dhm.c ****     }
 290:Source\mbedtls_open\library/dhm.c ****     while( dhm_check_range( &ctx->X, &ctx->P ) != 0 );
 291:Source\mbedtls_open\library/dhm.c **** 
 292:Source\mbedtls_open\library/dhm.c ****     MBEDTLS_MPI_CHK( mbedtls_mpi_exp_mod( &ctx->GX, &ctx->G, &ctx->X,
 293:Source\mbedtls_open\library/dhm.c ****                           &ctx->P , &ctx->RP ) );
 294:Source\mbedtls_open\library/dhm.c **** 
 295:Source\mbedtls_open\library/dhm.c ****     if( ( ret = dhm_check_range( &ctx->GX, &ctx->P ) ) != 0 )
 296:Source\mbedtls_open\library/dhm.c ****         return( ret );
 297:Source\mbedtls_open\library/dhm.c **** 
 298:Source\mbedtls_open\library/dhm.c ****     MBEDTLS_MPI_CHK( mbedtls_mpi_write_binary( &ctx->GX, output, olen ) );
 299:Source\mbedtls_open\library/dhm.c **** 
ARM GAS  C:\Users\Phuong\AppData\Local\Temp\ccQXToeg.s 			page 10


 300:Source\mbedtls_open\library/dhm.c **** cleanup:
 301:Source\mbedtls_open\library/dhm.c **** 
 302:Source\mbedtls_open\library/dhm.c ****     if( ret != 0 )
 303:Source\mbedtls_open\library/dhm.c ****         return( MBEDTLS_ERR_DHM_MAKE_PUBLIC_FAILED + ret );
 304:Source\mbedtls_open\library/dhm.c **** 
 305:Source\mbedtls_open\library/dhm.c ****     return( 0 );
 306:Source\mbedtls_open\library/dhm.c **** }
 307:Source\mbedtls_open\library/dhm.c **** 
 308:Source\mbedtls_open\library/dhm.c **** /*
 309:Source\mbedtls_open\library/dhm.c ****  * Use the blinding method and optimisation suggested in section 10 of:
 310:Source\mbedtls_open\library/dhm.c ****  *  KOCHER, Paul C. Timing attacks on implementations of Diffie-Hellman, RSA,
 311:Source\mbedtls_open\library/dhm.c ****  *  DSS, and other systems. In : Advances in Cryptology-CRYPTO'96. Springer
 312:Source\mbedtls_open\library/dhm.c ****  *  Berlin Heidelberg, 1996. p. 104-113.
 313:Source\mbedtls_open\library/dhm.c ****  */
 314:Source\mbedtls_open\library/dhm.c **** static int dhm_update_blinding( mbedtls_dhm_context *ctx,
 315:Source\mbedtls_open\library/dhm.c ****                     int (*f_rng)(void *, unsigned char *, size_t), void *p_rng )
 316:Source\mbedtls_open\library/dhm.c **** {
 212              		.loc 1 316 0
 213              		.cfi_startproc
 214              		@ args = 0, pretend = 0, frame = 8
 215              		@ frame_needed = 0, uses_anonymous_args = 0
 216              	.LVL35:
 217 0000 F0B5     		push	{r4, r5, r6, r7, lr}
 218              		.cfi_def_cfa_offset 20
 219              		.cfi_offset 4, -20
 220              		.cfi_offset 5, -16
 221              		.cfi_offset 6, -12
 222              		.cfi_offset 7, -8
 223              		.cfi_offset 14, -4
 224 0002 5746     		mov	r7, r10
 225 0004 4E46     		mov	r6, r9
 226 0006 C0B4     		push	{r6, r7}
 227              		.cfi_def_cfa_offset 28
 228              		.cfi_offset 9, -28
 229              		.cfi_offset 10, -24
 230 0008 85B0     		sub	sp, sp, #20
 231              		.cfi_def_cfa_offset 48
 232 000a 0700     		movs	r7, r0
 233 000c 0291     		str	r1, [sp, #8]
 234 000e 0392     		str	r2, [sp, #12]
 317:Source\mbedtls_open\library/dhm.c ****     int ret, count;
 318:Source\mbedtls_open\library/dhm.c **** 
 319:Source\mbedtls_open\library/dhm.c ****     /*
 320:Source\mbedtls_open\library/dhm.c ****      * Don't use any blinding the first time a particular X is used,
 321:Source\mbedtls_open\library/dhm.c ****      * but remember it to use blinding next time.
 322:Source\mbedtls_open\library/dhm.c ****      */
 323:Source\mbedtls_open\library/dhm.c ****     if( mbedtls_mpi_cmp_mpi( &ctx->X, &ctx->pX ) != 0 )
 235              		.loc 1 323 0
 236 0010 0600     		movs	r6, r0
 237 0012 1C36     		adds	r6, r6, #28
 238 0014 0500     		movs	r5, r0
 239 0016 7035     		adds	r5, r5, #112
 240 0018 2900     		movs	r1, r5
 241              	.LVL36:
 242 001a 3000     		movs	r0, r6
 243              	.LVL37:
 244 001c FFF7FEFF 		bl	mbedtls_mpi_cmp_mpi
ARM GAS  C:\Users\Phuong\AppData\Local\Temp\ccQXToeg.s 			page 11


 245              	.LVL38:
 246 0020 041E     		subs	r4, r0, #0
 247 0022 15D0     		beq	.L15
 324:Source\mbedtls_open\library/dhm.c ****     {
 325:Source\mbedtls_open\library/dhm.c ****         MBEDTLS_MPI_CHK( mbedtls_mpi_copy( &ctx->pX, &ctx->X ) );
 248              		.loc 1 325 0
 249 0024 3100     		movs	r1, r6
 250 0026 2800     		movs	r0, r5
 251 0028 FFF7FEFF 		bl	mbedtls_mpi_copy
 252              	.LVL39:
 253 002c 0028     		cmp	r0, #0
 254 002e 76D1     		bne	.L20
 326:Source\mbedtls_open\library/dhm.c ****         MBEDTLS_MPI_CHK( mbedtls_mpi_lset( &ctx->Vi, 1 ) );
 255              		.loc 1 326 0
 256 0030 3800     		movs	r0, r7
 257              	.LVL40:
 258 0032 5830     		adds	r0, r0, #88
 259 0034 0121     		movs	r1, #1
 260 0036 FFF7FEFF 		bl	mbedtls_mpi_lset
 261              	.LVL41:
 262 003a 0028     		cmp	r0, #0
 263 003c 71D1     		bne	.L21
 327:Source\mbedtls_open\library/dhm.c ****         MBEDTLS_MPI_CHK( mbedtls_mpi_lset( &ctx->Vf, 1 ) );
 264              		.loc 1 327 0
 265 003e 3800     		movs	r0, r7
 266              	.LVL42:
 267 0040 6430     		adds	r0, r0, #100
 268 0042 0121     		movs	r1, #1
 269 0044 FFF7FEFF 		bl	mbedtls_mpi_lset
 270              	.LVL43:
 271 0048 0028     		cmp	r0, #0
 272 004a 6CD1     		bne	.L22
 328:Source\mbedtls_open\library/dhm.c **** 
 329:Source\mbedtls_open\library/dhm.c ****         return( 0 );
 273              		.loc 1 329 0
 274 004c 0024     		movs	r4, #0
 275 004e 7CE0     		b	.L16
 276              	.LVL44:
 277              	.L15:
 330:Source\mbedtls_open\library/dhm.c ****     }
 331:Source\mbedtls_open\library/dhm.c **** 
 332:Source\mbedtls_open\library/dhm.c ****     /*
 333:Source\mbedtls_open\library/dhm.c ****      * Ok, we need blinding. Can we re-use existing values?
 334:Source\mbedtls_open\library/dhm.c ****      * If yes, just update them by squaring them.
 335:Source\mbedtls_open\library/dhm.c ****      */
 336:Source\mbedtls_open\library/dhm.c ****     if( mbedtls_mpi_cmp_int( &ctx->Vi, 1 ) != 0 )
 278              		.loc 1 336 0
 279 0050 3D00     		movs	r5, r7
 280 0052 5835     		adds	r5, r5, #88
 281 0054 0121     		movs	r1, #1
 282 0056 2800     		movs	r0, r5
 283 0058 FFF7FEFF 		bl	mbedtls_mpi_cmp_int
 284              	.LVL45:
 285 005c 0028     		cmp	r0, #0
 286 005e 1ED0     		beq	.L23
 337:Source\mbedtls_open\library/dhm.c ****     {
 338:Source\mbedtls_open\library/dhm.c ****         MBEDTLS_MPI_CHK( mbedtls_mpi_mul_mpi( &ctx->Vi, &ctx->Vi, &ctx->Vi ) );
ARM GAS  C:\Users\Phuong\AppData\Local\Temp\ccQXToeg.s 			page 12


 287              		.loc 1 338 0
 288 0060 2A00     		movs	r2, r5
 289 0062 2900     		movs	r1, r5
 290 0064 2800     		movs	r0, r5
 291 0066 FFF7FEFF 		bl	mbedtls_mpi_mul_mpi
 292              	.LVL46:
 293 006a 0028     		cmp	r0, #0
 294 006c 5DD1     		bne	.L24
 339:Source\mbedtls_open\library/dhm.c ****         MBEDTLS_MPI_CHK( mbedtls_mpi_mod_mpi( &ctx->Vi, &ctx->Vi, &ctx->P ) );
 295              		.loc 1 339 0
 296 006e 3E1D     		adds	r6, r7, #4
 297 0070 3200     		movs	r2, r6
 298 0072 2900     		movs	r1, r5
 299 0074 2800     		movs	r0, r5
 300              	.LVL47:
 301 0076 FFF7FEFF 		bl	mbedtls_mpi_mod_mpi
 302              	.LVL48:
 303 007a 0028     		cmp	r0, #0
 304 007c 57D1     		bne	.L25
 340:Source\mbedtls_open\library/dhm.c **** 
 341:Source\mbedtls_open\library/dhm.c ****         MBEDTLS_MPI_CHK( mbedtls_mpi_mul_mpi( &ctx->Vf, &ctx->Vf, &ctx->Vf ) );
 305              		.loc 1 341 0
 306 007e 0C35     		adds	r5, r5, #12
 307 0080 2A00     		movs	r2, r5
 308 0082 2900     		movs	r1, r5
 309 0084 2800     		movs	r0, r5
 310              	.LVL49:
 311 0086 FFF7FEFF 		bl	mbedtls_mpi_mul_mpi
 312              	.LVL50:
 313 008a 0028     		cmp	r0, #0
 314 008c 51D1     		bne	.L26
 342:Source\mbedtls_open\library/dhm.c ****         MBEDTLS_MPI_CHK( mbedtls_mpi_mod_mpi( &ctx->Vf, &ctx->Vf, &ctx->P ) );
 315              		.loc 1 342 0
 316 008e 3200     		movs	r2, r6
 317 0090 2900     		movs	r1, r5
 318 0092 2800     		movs	r0, r5
 319              	.LVL51:
 320 0094 FFF7FEFF 		bl	mbedtls_mpi_mod_mpi
 321              	.LVL52:
 322 0098 0028     		cmp	r0, #0
 323 009a 4CD1     		bne	.L27
 324 009c 55E0     		b	.L16
 325              	.LVL53:
 326              	.L23:
 327 009e 0023     		movs	r3, #0
 328 00a0 9946     		mov	r9, r3
 329 00a2 00E0     		b	.L17
 330              	.LVL54:
 331              	.L31:
 343:Source\mbedtls_open\library/dhm.c **** 
 344:Source\mbedtls_open\library/dhm.c ****         return( 0 );
 345:Source\mbedtls_open\library/dhm.c ****     }
 346:Source\mbedtls_open\library/dhm.c **** 
 347:Source\mbedtls_open\library/dhm.c ****     /*
 348:Source\mbedtls_open\library/dhm.c ****      * We need to generate blinding values from scratch
 349:Source\mbedtls_open\library/dhm.c ****      */
 350:Source\mbedtls_open\library/dhm.c **** 
ARM GAS  C:\Users\Phuong\AppData\Local\Temp\ccQXToeg.s 			page 13


 351:Source\mbedtls_open\library/dhm.c ****     /* Vi = random( 2, P-1 ) */
 352:Source\mbedtls_open\library/dhm.c ****     count = 0;
 353:Source\mbedtls_open\library/dhm.c ****     do
 354:Source\mbedtls_open\library/dhm.c ****     {
 355:Source\mbedtls_open\library/dhm.c ****         MBEDTLS_MPI_CHK( mbedtls_mpi_fill_random( &ctx->Vi, mbedtls_mpi_size( &ctx->P ), f_rng, p_r
 356:Source\mbedtls_open\library/dhm.c **** 
 357:Source\mbedtls_open\library/dhm.c ****         while( mbedtls_mpi_cmp_mpi( &ctx->Vi, &ctx->P ) >= 0 )
 358:Source\mbedtls_open\library/dhm.c ****             MBEDTLS_MPI_CHK( mbedtls_mpi_shift_r( &ctx->Vi, 1 ) );
 359:Source\mbedtls_open\library/dhm.c **** 
 360:Source\mbedtls_open\library/dhm.c ****         if( count++ > 10 )
 332              		.loc 1 360 0
 333 00a4 D146     		mov	r9, r10
 334              	.LVL55:
 335              	.L17:
 355:Source\mbedtls_open\library/dhm.c **** 
 336              		.loc 1 355 0
 337 00a6 3C1D     		adds	r4, r7, #4
 338 00a8 2000     		movs	r0, r4
 339 00aa FFF7FEFF 		bl	mbedtls_mpi_size
 340              	.LVL56:
 341 00ae 0100     		movs	r1, r0
 342 00b0 039B     		ldr	r3, [sp, #12]
 343 00b2 029A     		ldr	r2, [sp, #8]
 344 00b4 2800     		movs	r0, r5
 345 00b6 FFF7FEFF 		bl	mbedtls_mpi_fill_random
 346              	.LVL57:
 347 00ba 0028     		cmp	r0, #0
 348 00bc 06D0     		beq	.L18
 349 00be 3CE0     		b	.L28
 350              	.LVL58:
 351              	.L19:
 358:Source\mbedtls_open\library/dhm.c **** 
 352              		.loc 1 358 0
 353 00c0 0121     		movs	r1, #1
 354 00c2 2800     		movs	r0, r5
 355 00c4 FFF7FEFF 		bl	mbedtls_mpi_shift_r
 356              	.LVL59:
 357 00c8 0028     		cmp	r0, #0
 358 00ca 38D1     		bne	.L29
 359              	.L18:
 357:Source\mbedtls_open\library/dhm.c ****             MBEDTLS_MPI_CHK( mbedtls_mpi_shift_r( &ctx->Vi, 1 ) );
 360              		.loc 1 357 0
 361 00cc 2100     		movs	r1, r4
 362 00ce 2800     		movs	r0, r5
 363              	.LVL60:
 364 00d0 FFF7FEFF 		bl	mbedtls_mpi_cmp_mpi
 365              	.LVL61:
 366 00d4 0028     		cmp	r0, #0
 367 00d6 F3DA     		bge	.L19
 368              		.loc 1 360 0
 369 00d8 0123     		movs	r3, #1
 370 00da 4B44     		add	r3, r3, r9
 371 00dc 9A46     		mov	r10, r3
 372              	.LVL62:
 373 00de 4B46     		mov	r3, r9
 374              	.LVL63:
 375 00e0 0A2B     		cmp	r3, #10
ARM GAS  C:\Users\Phuong\AppData\Local\Temp\ccQXToeg.s 			page 14


 376 00e2 2EDC     		bgt	.L30
 361:Source\mbedtls_open\library/dhm.c ****             return( MBEDTLS_ERR_MPI_NOT_ACCEPTABLE );
 362:Source\mbedtls_open\library/dhm.c ****     }
 363:Source\mbedtls_open\library/dhm.c ****     while( mbedtls_mpi_cmp_int( &ctx->Vi, 1 ) <= 0 );
 377              		.loc 1 363 0
 378 00e4 0121     		movs	r1, #1
 379 00e6 2800     		movs	r0, r5
 380 00e8 FFF7FEFF 		bl	mbedtls_mpi_cmp_int
 381              	.LVL64:
 382 00ec 0028     		cmp	r0, #0
 383 00ee D9DD     		ble	.L31
 364:Source\mbedtls_open\library/dhm.c **** 
 365:Source\mbedtls_open\library/dhm.c ****     /* Vf = Vi^-X mod P */
 366:Source\mbedtls_open\library/dhm.c ****     MBEDTLS_MPI_CHK( mbedtls_mpi_inv_mod( &ctx->Vf, &ctx->Vi, &ctx->P ) );
 384              		.loc 1 366 0
 385 00f0 6423     		movs	r3, #100
 386 00f2 9C46     		mov	ip, r3
 387 00f4 BC44     		add	ip, ip, r7
 388 00f6 6346     		mov	r3, ip
 389 00f8 6046     		mov	r0, ip
 390 00fa 0293     		str	r3, [sp, #8]
 391              	.LVL65:
 392 00fc 2200     		movs	r2, r4
 393 00fe 2900     		movs	r1, r5
 394 0100 FFF7FEFF 		bl	mbedtls_mpi_inv_mod
 395              	.LVL66:
 396 0104 0028     		cmp	r0, #0
 397 0106 1FD1     		bne	.L32
 367:Source\mbedtls_open\library/dhm.c ****     MBEDTLS_MPI_CHK( mbedtls_mpi_exp_mod( &ctx->Vf, &ctx->Vf, &ctx->X, &ctx->P, &ctx->RP ) );
 398              		.loc 1 367 0
 399 0108 3800     		movs	r0, r7
 400              	.LVL67:
 401 010a 4C30     		adds	r0, r0, #76
 402 010c 0090     		str	r0, [sp]
 403 010e 2300     		movs	r3, r4
 404 0110 3200     		movs	r2, r6
 405 0112 0298     		ldr	r0, [sp, #8]
 406 0114 0100     		movs	r1, r0
 407 0116 FFF7FEFF 		bl	mbedtls_mpi_exp_mod
 408              	.LVL68:
 409 011a 0400     		movs	r4, r0
 410 011c 15E0     		b	.L16
 411              	.LVL69:
 412              	.L20:
 325:Source\mbedtls_open\library/dhm.c ****         MBEDTLS_MPI_CHK( mbedtls_mpi_lset( &ctx->Vi, 1 ) );
 413              		.loc 1 325 0
 414 011e 0400     		movs	r4, r0
 415 0120 13E0     		b	.L16
 416              	.L21:
 326:Source\mbedtls_open\library/dhm.c ****         MBEDTLS_MPI_CHK( mbedtls_mpi_lset( &ctx->Vf, 1 ) );
 417              		.loc 1 326 0
 418 0122 0400     		movs	r4, r0
 419 0124 11E0     		b	.L16
 420              	.L22:
 327:Source\mbedtls_open\library/dhm.c **** 
 421              		.loc 1 327 0
 422 0126 0400     		movs	r4, r0
ARM GAS  C:\Users\Phuong\AppData\Local\Temp\ccQXToeg.s 			page 15


 423 0128 0FE0     		b	.L16
 424              	.L24:
 338:Source\mbedtls_open\library/dhm.c ****         MBEDTLS_MPI_CHK( mbedtls_mpi_mod_mpi( &ctx->Vi, &ctx->Vi, &ctx->P ) );
 425              		.loc 1 338 0
 426 012a 0400     		movs	r4, r0
 427 012c 0DE0     		b	.L16
 428              	.L25:
 339:Source\mbedtls_open\library/dhm.c **** 
 429              		.loc 1 339 0
 430 012e 0400     		movs	r4, r0
 431 0130 0BE0     		b	.L16
 432              	.L26:
 341:Source\mbedtls_open\library/dhm.c ****         MBEDTLS_MPI_CHK( mbedtls_mpi_mod_mpi( &ctx->Vf, &ctx->Vf, &ctx->P ) );
 433              		.loc 1 341 0
 434 0132 0400     		movs	r4, r0
 435 0134 09E0     		b	.L16
 436              	.L27:
 342:Source\mbedtls_open\library/dhm.c **** 
 437              		.loc 1 342 0
 438 0136 0400     		movs	r4, r0
 439 0138 07E0     		b	.L16
 440              	.LVL70:
 441              	.L28:
 355:Source\mbedtls_open\library/dhm.c **** 
 442              		.loc 1 355 0
 443 013a 0400     		movs	r4, r0
 444 013c 05E0     		b	.L16
 445              	.L29:
 358:Source\mbedtls_open\library/dhm.c **** 
 446              		.loc 1 358 0
 447 013e 0400     		movs	r4, r0
 448 0140 03E0     		b	.L16
 449              	.LVL71:
 450              	.L30:
 361:Source\mbedtls_open\library/dhm.c ****     }
 451              		.loc 1 361 0
 452 0142 0E24     		movs	r4, #14
 453 0144 6442     		rsbs	r4, r4, #0
 454 0146 00E0     		b	.L16
 455              	.LVL72:
 456              	.L32:
 366:Source\mbedtls_open\library/dhm.c ****     MBEDTLS_MPI_CHK( mbedtls_mpi_exp_mod( &ctx->Vf, &ctx->Vf, &ctx->X, &ctx->P, &ctx->RP ) );
 457              		.loc 1 366 0
 458 0148 0400     		movs	r4, r0
 459              	.LVL73:
 460              	.L16:
 368:Source\mbedtls_open\library/dhm.c **** 
 369:Source\mbedtls_open\library/dhm.c **** cleanup:
 370:Source\mbedtls_open\library/dhm.c ****     return( ret );
 371:Source\mbedtls_open\library/dhm.c **** }
 461              		.loc 1 371 0
 462 014a 2000     		movs	r0, r4
 463 014c 05B0     		add	sp, sp, #20
 464              		@ sp needed
 465              	.LVL74:
 466 014e 0CBC     		pop	{r2, r3}
 467 0150 9146     		mov	r9, r2
ARM GAS  C:\Users\Phuong\AppData\Local\Temp\ccQXToeg.s 			page 16


 468 0152 9A46     		mov	r10, r3
 469 0154 F0BD     		pop	{r4, r5, r6, r7, pc}
 470              		.cfi_endproc
 471              	.LFE9:
 472              		.size	dhm_update_blinding, .-dhm_update_blinding
 473 0156 C046     		.section	.text.mbedtls_dhm_init,"ax",%progbits
 474              		.align	2
 475              		.global	mbedtls_dhm_init
 476              		.code	16
 477              		.thumb_func
 478              		.type	mbedtls_dhm_init, %function
 479              	mbedtls_dhm_init:
 480              	.LFB3:
 123:Source\mbedtls_open\library/dhm.c ****     memset( ctx, 0, sizeof( mbedtls_dhm_context ) );
 481              		.loc 1 123 0
 482              		.cfi_startproc
 483              		@ args = 0, pretend = 0, frame = 0
 484              		@ frame_needed = 0, uses_anonymous_args = 0
 485              	.LVL75:
 486 0000 10B5     		push	{r4, lr}
 487              		.cfi_def_cfa_offset 8
 488              		.cfi_offset 4, -8
 489              		.cfi_offset 14, -4
 124:Source\mbedtls_open\library/dhm.c **** }
 490              		.loc 1 124 0
 491 0002 7C22     		movs	r2, #124
 492 0004 0021     		movs	r1, #0
 493 0006 FFF7FEFF 		bl	memset
 494              	.LVL76:
 125:Source\mbedtls_open\library/dhm.c **** 
 495              		.loc 1 125 0
 496              		@ sp needed
 497 000a 10BD     		pop	{r4, pc}
 498              		.cfi_endproc
 499              	.LFE3:
 500              		.size	mbedtls_dhm_init, .-mbedtls_dhm_init
 501              		.section	.text.mbedtls_dhm_read_params,"ax",%progbits
 502              		.align	2
 503              		.global	mbedtls_dhm_read_params
 504              		.code	16
 505              		.thumb_func
 506              		.type	mbedtls_dhm_read_params, %function
 507              	mbedtls_dhm_read_params:
 508              	.LFB4:
 133:Source\mbedtls_open\library/dhm.c ****     int ret;
 509              		.loc 1 133 0
 510              		.cfi_startproc
 511              		@ args = 0, pretend = 0, frame = 8
 512              		@ frame_needed = 0, uses_anonymous_args = 0
 513              	.LVL77:
 514 0000 F0B5     		push	{r4, r5, r6, r7, lr}
 515              		.cfi_def_cfa_offset 20
 516              		.cfi_offset 4, -20
 517              		.cfi_offset 5, -16
 518              		.cfi_offset 6, -12
 519              		.cfi_offset 7, -8
 520              		.cfi_offset 14, -4
ARM GAS  C:\Users\Phuong\AppData\Local\Temp\ccQXToeg.s 			page 17


 521 0002 83B0     		sub	sp, sp, #12
 522              		.cfi_def_cfa_offset 32
 523 0004 0700     		movs	r7, r0
 524 0006 0C00     		movs	r4, r1
 525 0008 1500     		movs	r5, r2
 136:Source\mbedtls_open\library/dhm.c ****         ( ret = dhm_read_bignum( &ctx->G,  p, end ) ) != 0 ||
 526              		.loc 1 136 0
 527 000a 061D     		adds	r6, r0, #4
 528 000c 3000     		movs	r0, r6
 529              	.LVL78:
 530 000e FFF7FEFF 		bl	dhm_read_bignum
 531              	.LVL79:
 532 0012 0028     		cmp	r0, #0
 533 0014 1ED1     		bne	.L35
 137:Source\mbedtls_open\library/dhm.c ****         ( ret = dhm_read_bignum( &ctx->GY, p, end ) ) != 0 )
 534              		.loc 1 137 0 discriminator 1
 535 0016 3800     		movs	r0, r7
 536              	.LVL80:
 537 0018 1030     		adds	r0, r0, #16
 136:Source\mbedtls_open\library/dhm.c ****         ( ret = dhm_read_bignum( &ctx->G,  p, end ) ) != 0 ||
 538              		.loc 1 136 0 discriminator 1
 539 001a 2A00     		movs	r2, r5
 540 001c 2100     		movs	r1, r4
 541 001e FFF7FEFF 		bl	dhm_read_bignum
 542              	.LVL81:
 543 0022 0028     		cmp	r0, #0
 544 0024 16D1     		bne	.L35
 138:Source\mbedtls_open\library/dhm.c ****         return( ret );
 545              		.loc 1 138 0
 546 0026 3423     		movs	r3, #52
 547 0028 9C46     		mov	ip, r3
 548 002a BC44     		add	ip, ip, r7
 549 002c 6346     		mov	r3, ip
 550 002e 0193     		str	r3, [sp, #4]
 137:Source\mbedtls_open\library/dhm.c ****         ( ret = dhm_read_bignum( &ctx->GY, p, end ) ) != 0 )
 551              		.loc 1 137 0
 552 0030 2A00     		movs	r2, r5
 553 0032 2100     		movs	r1, r4
 554 0034 6046     		mov	r0, ip
 555              	.LVL82:
 556 0036 FFF7FEFF 		bl	dhm_read_bignum
 557              	.LVL83:
 558 003a 0028     		cmp	r0, #0
 559 003c 0AD1     		bne	.L35
 141:Source\mbedtls_open\library/dhm.c ****         return( ret );
 560              		.loc 1 141 0
 561 003e 3100     		movs	r1, r6
 562 0040 0198     		ldr	r0, [sp, #4]
 563              	.LVL84:
 564 0042 FFF7FEFF 		bl	dhm_check_range
 565              	.LVL85:
 566 0046 0028     		cmp	r0, #0
 567 0048 04D1     		bne	.L35
 144:Source\mbedtls_open\library/dhm.c **** 
 568              		.loc 1 144 0
 569 004a 3000     		movs	r0, r6
 570              	.LVL86:
ARM GAS  C:\Users\Phuong\AppData\Local\Temp\ccQXToeg.s 			page 18


 571 004c FFF7FEFF 		bl	mbedtls_mpi_size
 572              	.LVL87:
 573 0050 3860     		str	r0, [r7]
 146:Source\mbedtls_open\library/dhm.c **** }
 574              		.loc 1 146 0
 575 0052 0020     		movs	r0, #0
 576              	.L35:
 147:Source\mbedtls_open\library/dhm.c **** 
 577              		.loc 1 147 0
 578 0054 03B0     		add	sp, sp, #12
 579              		@ sp needed
 580              	.LVL88:
 581              	.LVL89:
 582              	.LVL90:
 583 0056 F0BD     		pop	{r4, r5, r6, r7, pc}
 584              		.cfi_endproc
 585              	.LFE4:
 586              		.size	mbedtls_dhm_read_params, .-mbedtls_dhm_read_params
 587              		.section	.text.mbedtls_dhm_make_params,"ax",%progbits
 588              		.align	2
 589              		.global	mbedtls_dhm_make_params
 590              		.code	16
 591              		.thumb_func
 592              		.type	mbedtls_dhm_make_params, %function
 593              	mbedtls_dhm_make_params:
 594              	.LFB5:
 156:Source\mbedtls_open\library/dhm.c ****     int ret, count = 0;
 595              		.loc 1 156 0
 596              		.cfi_startproc
 597              		@ args = 8, pretend = 0, frame = 16
 598              		@ frame_needed = 0, uses_anonymous_args = 0
 599              	.LVL91:
 600 0000 F0B5     		push	{r4, r5, r6, r7, lr}
 601              		.cfi_def_cfa_offset 20
 602              		.cfi_offset 4, -20
 603              		.cfi_offset 5, -16
 604              		.cfi_offset 6, -12
 605              		.cfi_offset 7, -8
 606              		.cfi_offset 14, -4
 607 0002 5746     		mov	r7, r10
 608 0004 80B4     		push	{r7}
 609              		.cfi_def_cfa_offset 24
 610              		.cfi_offset 10, -24
 611 0006 86B0     		sub	sp, sp, #24
 612              		.cfi_def_cfa_offset 48
 613 0008 0700     		movs	r7, r0
 614 000a 0291     		str	r1, [sp, #8]
 615 000c 0392     		str	r2, [sp, #12]
 616 000e 0493     		str	r3, [sp, #16]
 617              	.LVL92:
 161:Source\mbedtls_open\library/dhm.c ****         return( MBEDTLS_ERR_DHM_BAD_INPUT_DATA );
 618              		.loc 1 161 0
 619 0010 051D     		adds	r5, r0, #4
 620 0012 0021     		movs	r1, #0
 621              	.LVL93:
 622 0014 2800     		movs	r0, r5
 623              	.LVL94:
ARM GAS  C:\Users\Phuong\AppData\Local\Temp\ccQXToeg.s 			page 19


 624 0016 FFF7FEFF 		bl	mbedtls_mpi_cmp_int
 625              	.LVL95:
 626 001a 0028     		cmp	r0, #0
 627 001c 7ED0     		beq	.L46
 628 001e 0026     		movs	r6, #0
 629 0020 00E0     		b	.L45
 630              	.LVL96:
 631              	.L48:
 174:Source\mbedtls_open\library/dhm.c ****             return( MBEDTLS_ERR_DHM_MAKE_PARAMS_FAILED );
 632              		.loc 1 174 0
 633 0022 5646     		mov	r6, r10
 634              	.LVL97:
 635              	.L45:
 169:Source\mbedtls_open\library/dhm.c **** 
 636              		.loc 1 169 0
 637 0024 3C00     		movs	r4, r7
 638 0026 1C34     		adds	r4, r4, #28
 639 0028 0D9B     		ldr	r3, [sp, #52]
 640 002a 0C9A     		ldr	r2, [sp, #48]
 641 002c 0299     		ldr	r1, [sp, #8]
 642 002e 2000     		movs	r0, r4
 643 0030 FFF7FEFF 		bl	mbedtls_mpi_fill_random
 644              	.LVL98:
 645 0034 0028     		cmp	r0, #0
 646 0036 06D0     		beq	.L43
 647 0038 6AE0     		b	.L42
 648              	.LVL99:
 649              	.L44:
 172:Source\mbedtls_open\library/dhm.c **** 
 650              		.loc 1 172 0
 651 003a 0121     		movs	r1, #1
 652 003c 2000     		movs	r0, r4
 653 003e FFF7FEFF 		bl	mbedtls_mpi_shift_r
 654              	.LVL100:
 655 0042 0028     		cmp	r0, #0
 656 0044 64D1     		bne	.L42
 657              	.L43:
 171:Source\mbedtls_open\library/dhm.c ****             MBEDTLS_MPI_CHK( mbedtls_mpi_shift_r( &ctx->X, 1 ) );
 658              		.loc 1 171 0
 659 0046 2900     		movs	r1, r5
 660 0048 2000     		movs	r0, r4
 661              	.LVL101:
 662 004a FFF7FEFF 		bl	mbedtls_mpi_cmp_mpi
 663              	.LVL102:
 664 004e 0028     		cmp	r0, #0
 665 0050 F3DA     		bge	.L44
 174:Source\mbedtls_open\library/dhm.c ****             return( MBEDTLS_ERR_DHM_MAKE_PARAMS_FAILED );
 666              		.loc 1 174 0
 667 0052 731C     		adds	r3, r6, #1
 668 0054 9A46     		mov	r10, r3
 669              	.LVL103:
 670 0056 0A2E     		cmp	r6, #10
 671 0058 62DC     		bgt	.L47
 177:Source\mbedtls_open\library/dhm.c **** 
 672              		.loc 1 177 0
 673 005a 2900     		movs	r1, r5
 674 005c 2000     		movs	r0, r4
ARM GAS  C:\Users\Phuong\AppData\Local\Temp\ccQXToeg.s 			page 20


 675 005e FFF7FEFF 		bl	dhm_check_range
 676              	.LVL104:
 677 0062 0028     		cmp	r0, #0
 678 0064 DDD1     		bne	.L48
 182:Source\mbedtls_open\library/dhm.c ****                           &ctx->P , &ctx->RP ) );
 679              		.loc 1 182 0
 680 0066 2823     		movs	r3, #40
 681 0068 9C46     		mov	ip, r3
 682 006a BC44     		add	ip, ip, r7
 683 006c 6346     		mov	r3, ip
 684 006e 6046     		mov	r0, ip
 685 0070 0293     		str	r3, [sp, #8]
 686              	.LVL105:
 687 0072 1023     		movs	r3, #16
 688 0074 9C46     		mov	ip, r3
 689 0076 BC44     		add	ip, ip, r7
 690 0078 6346     		mov	r3, ip
 691 007a 6146     		mov	r1, ip
 692 007c 0593     		str	r3, [sp, #20]
 693 007e 3B00     		movs	r3, r7
 694 0080 4C33     		adds	r3, r3, #76
 695 0082 0093     		str	r3, [sp]
 696 0084 2B00     		movs	r3, r5
 697 0086 2200     		movs	r2, r4
 698 0088 FFF7FEFF 		bl	mbedtls_mpi_exp_mod
 699              	.LVL106:
 700 008c 0028     		cmp	r0, #0
 701 008e 3FD1     		bne	.L42
 185:Source\mbedtls_open\library/dhm.c ****         return( ret );
 702              		.loc 1 185 0
 703 0090 2900     		movs	r1, r5
 704 0092 0298     		ldr	r0, [sp, #8]
 705              	.LVL107:
 706 0094 FFF7FEFF 		bl	dhm_check_range
 707              	.LVL108:
 708 0098 0028     		cmp	r0, #0
 709 009a 44D1     		bne	.L41
 201:Source\mbedtls_open\library/dhm.c ****     n2 = mbedtls_mpi_size( &ctx->G  );
 710              		.loc 1 201 0
 711 009c 2800     		movs	r0, r5
 712              	.LVL109:
 713 009e FFF7FEFF 		bl	mbedtls_mpi_size
 714              	.LVL110:
 715 00a2 0600     		movs	r6, r0
 716              	.LVL111:
 202:Source\mbedtls_open\library/dhm.c ****     n3 = mbedtls_mpi_size( &ctx->GX );
 717              		.loc 1 202 0
 718 00a4 0598     		ldr	r0, [sp, #20]
 719              	.LVL112:
 720 00a6 FFF7FEFF 		bl	mbedtls_mpi_size
 721              	.LVL113:
 722 00aa 8246     		mov	r10, r0
 723              	.LVL114:
 203:Source\mbedtls_open\library/dhm.c **** 
 724              		.loc 1 203 0
 725 00ac 0298     		ldr	r0, [sp, #8]
 726              	.LVL115:
ARM GAS  C:\Users\Phuong\AppData\Local\Temp\ccQXToeg.s 			page 21


 727 00ae FFF7FEFF 		bl	mbedtls_mpi_size
 728              	.LVL116:
 729 00b2 0400     		movs	r4, r0
 730              	.LVL117:
 206:Source\mbedtls_open\library/dhm.c ****     DHM_MPI_EXPORT( &ctx->G , n2 );
 731              		.loc 1 206 0
 732 00b4 039B     		ldr	r3, [sp, #12]
 733 00b6 991C     		adds	r1, r3, #2
 734 00b8 3200     		movs	r2, r6
 735 00ba 2800     		movs	r0, r5
 736              	.LVL118:
 737 00bc FFF7FEFF 		bl	mbedtls_mpi_write_binary
 738              	.LVL119:
 739 00c0 0028     		cmp	r0, #0
 740 00c2 25D1     		bne	.L42
 741              	.LVL120:
 206:Source\mbedtls_open\library/dhm.c ****     DHM_MPI_EXPORT( &ctx->G , n2 );
 742              		.loc 1 206 0 is_stmt 0 discriminator 1
 743 00c4 330A     		lsrs	r3, r6, #8
 744 00c6 039A     		ldr	r2, [sp, #12]
 745 00c8 1370     		strb	r3, [r2]
 746 00ca 931C     		adds	r3, r2, #2
 747              	.LVL121:
 748 00cc 5670     		strb	r6, [r2, #1]
 749 00ce 9D19     		adds	r5, r3, r6
 750              	.LVL122:
 207:Source\mbedtls_open\library/dhm.c ****     DHM_MPI_EXPORT( &ctx->GX, n3 );
 751              		.loc 1 207 0 is_stmt 1 discriminator 1
 752 00d0 A91C     		adds	r1, r5, #2
 753 00d2 5246     		mov	r2, r10
 754 00d4 0598     		ldr	r0, [sp, #20]
 755              	.LVL123:
 756 00d6 FFF7FEFF 		bl	mbedtls_mpi_write_binary
 757              	.LVL124:
 758 00da 0028     		cmp	r0, #0
 759 00dc 18D1     		bne	.L42
 760              	.LVL125:
 761 00de 5346     		mov	r3, r10
 762 00e0 1B0A     		lsrs	r3, r3, #8
 763 00e2 2B70     		strb	r3, [r5]
 764 00e4 AB1C     		adds	r3, r5, #2
 765              	.LVL126:
 766 00e6 5246     		mov	r2, r10
 767 00e8 6A70     		strb	r2, [r5, #1]
 768 00ea 5344     		add	r3, r3, r10
 769              	.LVL127:
 770 00ec 1D00     		movs	r5, r3
 771              	.LVL128:
 208:Source\mbedtls_open\library/dhm.c **** 
 772              		.loc 1 208 0 discriminator 1
 773 00ee 991C     		adds	r1, r3, #2
 774 00f0 2200     		movs	r2, r4
 775 00f2 0298     		ldr	r0, [sp, #8]
 776              	.LVL129:
 777 00f4 FFF7FEFF 		bl	mbedtls_mpi_write_binary
 778              	.LVL130:
 779 00f8 0028     		cmp	r0, #0
ARM GAS  C:\Users\Phuong\AppData\Local\Temp\ccQXToeg.s 			page 22


 780 00fa 09D1     		bne	.L42
 781              	.LVL131:
 782 00fc 230A     		lsrs	r3, r4, #8
 783 00fe 2B70     		strb	r3, [r5]
 784 0100 AB1C     		adds	r3, r5, #2
 785              	.LVL132:
 786 0102 6C70     		strb	r4, [r5, #1]
 787 0104 1C19     		adds	r4, r3, r4
 788              	.LVL133:
 210:Source\mbedtls_open\library/dhm.c **** 
 789              		.loc 1 210 0 discriminator 1
 790 0106 039B     		ldr	r3, [sp, #12]
 791 0108 E31A     		subs	r3, r4, r3
 792 010a 049A     		ldr	r2, [sp, #16]
 793 010c 1360     		str	r3, [r2]
 212:Source\mbedtls_open\library/dhm.c **** 
 794              		.loc 1 212 0 discriminator 1
 795 010e 3E60     		str	r6, [r7]
 796              	.LVL134:
 797              	.L42:
 216:Source\mbedtls_open\library/dhm.c ****         return( MBEDTLS_ERR_DHM_MAKE_PARAMS_FAILED + ret );
 798              		.loc 1 216 0
 799 0110 0028     		cmp	r0, #0
 800 0112 07D0     		beq	.L50
 217:Source\mbedtls_open\library/dhm.c **** 
 801              		.loc 1 217 0
 802 0114 064B     		ldr	r3, .L51
 803 0116 9C46     		mov	ip, r3
 804 0118 6044     		add	r0, r0, ip
 805              	.LVL135:
 806 011a 04E0     		b	.L41
 807              	.LVL136:
 808              	.L46:
 162:Source\mbedtls_open\library/dhm.c **** 
 809              		.loc 1 162 0
 810 011c 0548     		ldr	r0, .L51+4
 811 011e 02E0     		b	.L41
 812              	.LVL137:
 813              	.L47:
 175:Source\mbedtls_open\library/dhm.c ****     }
 814              		.loc 1 175 0
 815 0120 0348     		ldr	r0, .L51
 816 0122 00E0     		b	.L41
 817              	.LVL138:
 818              	.L50:
 219:Source\mbedtls_open\library/dhm.c **** }
 819              		.loc 1 219 0
 820 0124 0020     		movs	r0, #0
 821              	.LVL139:
 822              	.L41:
 220:Source\mbedtls_open\library/dhm.c **** 
 823              		.loc 1 220 0
 824 0126 06B0     		add	sp, sp, #24
 825              		@ sp needed
 826              	.LVL140:
 827 0128 04BC     		pop	{r2}
 828 012a 9246     		mov	r10, r2
ARM GAS  C:\Users\Phuong\AppData\Local\Temp\ccQXToeg.s 			page 23


 829 012c F0BD     		pop	{r4, r5, r6, r7, pc}
 830              	.L52:
 831 012e C046     		.align	2
 832              	.L51:
 833 0130 80CEFFFF 		.word	-12672
 834 0134 80CFFFFF 		.word	-12416
 835              		.cfi_endproc
 836              	.LFE5:
 837              		.size	mbedtls_dhm_make_params, .-mbedtls_dhm_make_params
 838              		.section	.text.mbedtls_dhm_set_group,"ax",%progbits
 839              		.align	2
 840              		.global	mbedtls_dhm_set_group
 841              		.code	16
 842              		.thumb_func
 843              		.type	mbedtls_dhm_set_group, %function
 844              	mbedtls_dhm_set_group:
 845              	.LFB6:
 228:Source\mbedtls_open\library/dhm.c ****     int ret;
 846              		.loc 1 228 0
 847              		.cfi_startproc
 848              		@ args = 0, pretend = 0, frame = 0
 849              		@ frame_needed = 0, uses_anonymous_args = 0
 850              	.LVL141:
 851 0000 70B5     		push	{r4, r5, r6, lr}
 852              		.cfi_def_cfa_offset 16
 853              		.cfi_offset 4, -16
 854              		.cfi_offset 5, -12
 855              		.cfi_offset 6, -8
 856              		.cfi_offset 14, -4
 857 0002 0400     		movs	r4, r0
 858 0004 1500     		movs	r5, r2
 231:Source\mbedtls_open\library/dhm.c ****         return( MBEDTLS_ERR_DHM_BAD_INPUT_DATA );
 859              		.loc 1 231 0
 860 0006 0028     		cmp	r0, #0
 861 0008 1AD0     		beq	.L57
 231:Source\mbedtls_open\library/dhm.c ****         return( MBEDTLS_ERR_DHM_BAD_INPUT_DATA );
 862              		.loc 1 231 0 is_stmt 0 discriminator 1
 863 000a 0029     		cmp	r1, #0
 864 000c 1AD0     		beq	.L58
 231:Source\mbedtls_open\library/dhm.c ****         return( MBEDTLS_ERR_DHM_BAD_INPUT_DATA );
 865              		.loc 1 231 0 discriminator 2
 866 000e 002A     		cmp	r2, #0
 867 0010 1AD0     		beq	.L59
 234:Source\mbedtls_open\library/dhm.c ****         ( ret = mbedtls_mpi_copy( &ctx->G, G ) ) != 0 )
 868              		.loc 1 234 0 is_stmt 1
 869 0012 061D     		adds	r6, r0, #4
 870 0014 3000     		movs	r0, r6
 871              	.LVL142:
 872 0016 FFF7FEFF 		bl	mbedtls_mpi_copy
 873              	.LVL143:
 874 001a 0028     		cmp	r0, #0
 875 001c 06D1     		bne	.L55
 235:Source\mbedtls_open\library/dhm.c ****     {
 876              		.loc 1 235 0 discriminator 1
 877 001e 2000     		movs	r0, r4
 878              	.LVL144:
 879 0020 1030     		adds	r0, r0, #16
ARM GAS  C:\Users\Phuong\AppData\Local\Temp\ccQXToeg.s 			page 24


 234:Source\mbedtls_open\library/dhm.c ****         ( ret = mbedtls_mpi_copy( &ctx->G, G ) ) != 0 )
 880              		.loc 1 234 0 discriminator 1
 881 0022 2900     		movs	r1, r5
 882 0024 FFF7FEFF 		bl	mbedtls_mpi_copy
 883              	.LVL145:
 884 0028 0028     		cmp	r0, #0
 885 002a 03D0     		beq	.L56
 886              	.L55:
 237:Source\mbedtls_open\library/dhm.c ****     }
 887              		.loc 1 237 0
 888 002c 074B     		ldr	r3, .L60
 889 002e 9C46     		mov	ip, r3
 890 0030 6044     		add	r0, r0, ip
 891              	.LVL146:
 892 0032 0AE0     		b	.L54
 893              	.LVL147:
 894              	.L56:
 240:Source\mbedtls_open\library/dhm.c ****     return( 0 );
 895              		.loc 1 240 0
 896 0034 3000     		movs	r0, r6
 897              	.LVL148:
 898 0036 FFF7FEFF 		bl	mbedtls_mpi_size
 899              	.LVL149:
 900 003a 2060     		str	r0, [r4]
 241:Source\mbedtls_open\library/dhm.c **** }
 901              		.loc 1 241 0
 902 003c 0020     		movs	r0, #0
 903 003e 04E0     		b	.L54
 904              	.LVL150:
 905              	.L57:
 232:Source\mbedtls_open\library/dhm.c **** 
 906              		.loc 1 232 0
 907 0040 0348     		ldr	r0, .L60+4
 908              	.LVL151:
 909 0042 02E0     		b	.L54
 910              	.LVL152:
 911              	.L58:
 912 0044 0248     		ldr	r0, .L60+4
 913              	.LVL153:
 914 0046 00E0     		b	.L54
 915              	.LVL154:
 916              	.L59:
 917 0048 0148     		ldr	r0, .L60+4
 918              	.LVL155:
 919              	.L54:
 242:Source\mbedtls_open\library/dhm.c **** 
 920              		.loc 1 242 0
 921              		@ sp needed
 922              	.LVL156:
 923              	.LVL157:
 924 004a 70BD     		pop	{r4, r5, r6, pc}
 925              	.L61:
 926              		.align	2
 927              	.L60:
 928 004c 80CAFFFF 		.word	-13696
 929 0050 80CFFFFF 		.word	-12416
 930              		.cfi_endproc
ARM GAS  C:\Users\Phuong\AppData\Local\Temp\ccQXToeg.s 			page 25


 931              	.LFE6:
 932              		.size	mbedtls_dhm_set_group, .-mbedtls_dhm_set_group
 933              		.section	.text.mbedtls_dhm_read_public,"ax",%progbits
 934              		.align	2
 935              		.global	mbedtls_dhm_read_public
 936              		.code	16
 937              		.thumb_func
 938              		.type	mbedtls_dhm_read_public, %function
 939              	mbedtls_dhm_read_public:
 940              	.LFB7:
 249:Source\mbedtls_open\library/dhm.c ****     int ret;
 941              		.loc 1 249 0
 942              		.cfi_startproc
 943              		@ args = 0, pretend = 0, frame = 0
 944              		@ frame_needed = 0, uses_anonymous_args = 0
 945              	.LVL158:
 946 0000 10B5     		push	{r4, lr}
 947              		.cfi_def_cfa_offset 8
 948              		.cfi_offset 4, -8
 949              		.cfi_offset 14, -4
 252:Source\mbedtls_open\library/dhm.c ****         return( MBEDTLS_ERR_DHM_BAD_INPUT_DATA );
 950              		.loc 1 252 0
 951 0002 0028     		cmp	r0, #0
 952 0004 0DD0     		beq	.L64
 252:Source\mbedtls_open\library/dhm.c ****         return( MBEDTLS_ERR_DHM_BAD_INPUT_DATA );
 953              		.loc 1 252 0 is_stmt 0 discriminator 1
 954 0006 002A     		cmp	r2, #0
 955 0008 0DD0     		beq	.L65
 252:Source\mbedtls_open\library/dhm.c ****         return( MBEDTLS_ERR_DHM_BAD_INPUT_DATA );
 956              		.loc 1 252 0 discriminator 2
 957 000a 0368     		ldr	r3, [r0]
 958 000c 9A42     		cmp	r2, r3
 959 000e 0CD8     		bhi	.L66
 255:Source\mbedtls_open\library/dhm.c ****         return( MBEDTLS_ERR_DHM_READ_PUBLIC_FAILED + ret );
 960              		.loc 1 255 0 is_stmt 1
 961 0010 3430     		adds	r0, r0, #52
 962              	.LVL159:
 963 0012 FFF7FEFF 		bl	mbedtls_mpi_read_binary
 964              	.LVL160:
 965 0016 0028     		cmp	r0, #0
 966 0018 09D0     		beq	.L67
 256:Source\mbedtls_open\library/dhm.c **** 
 967              		.loc 1 256 0
 968 001a 064B     		ldr	r3, .L68
 969 001c 9C46     		mov	ip, r3
 970 001e 6044     		add	r0, r0, ip
 971              	.LVL161:
 972 0020 06E0     		b	.L63
 973              	.LVL162:
 974              	.L64:
 253:Source\mbedtls_open\library/dhm.c **** 
 975              		.loc 1 253 0
 976 0022 0548     		ldr	r0, .L68+4
 977              	.LVL163:
 978 0024 04E0     		b	.L63
 979              	.LVL164:
 980              	.L65:
ARM GAS  C:\Users\Phuong\AppData\Local\Temp\ccQXToeg.s 			page 26


 981 0026 0448     		ldr	r0, .L68+4
 982              	.LVL165:
 983 0028 02E0     		b	.L63
 984              	.LVL166:
 985              	.L66:
 986 002a 0348     		ldr	r0, .L68+4
 987              	.LVL167:
 988 002c 00E0     		b	.L63
 989              	.LVL168:
 990              	.L67:
 258:Source\mbedtls_open\library/dhm.c **** }
 991              		.loc 1 258 0
 992 002e 0020     		movs	r0, #0
 993              	.LVL169:
 994              	.L63:
 259:Source\mbedtls_open\library/dhm.c **** 
 995              		.loc 1 259 0
 996              		@ sp needed
 997 0030 10BD     		pop	{r4, pc}
 998              	.L69:
 999 0032 C046     		.align	2
 1000              	.L68:
 1001 0034 00CEFFFF 		.word	-12800
 1002 0038 80CFFFFF 		.word	-12416
 1003              		.cfi_endproc
 1004              	.LFE7:
 1005              		.size	mbedtls_dhm_read_public, .-mbedtls_dhm_read_public
 1006              		.section	.text.mbedtls_dhm_make_public,"ax",%progbits
 1007              		.align	2
 1008              		.global	mbedtls_dhm_make_public
 1009              		.code	16
 1010              		.thumb_func
 1011              		.type	mbedtls_dhm_make_public, %function
 1012              	mbedtls_dhm_make_public:
 1013              	.LFB8:
 268:Source\mbedtls_open\library/dhm.c ****     int ret, count = 0;
 1014              		.loc 1 268 0
 1015              		.cfi_startproc
 1016              		@ args = 8, pretend = 0, frame = 8
 1017              		@ frame_needed = 0, uses_anonymous_args = 0
 1018              	.LVL170:
 1019 0000 F0B5     		push	{r4, r5, r6, r7, lr}
 1020              		.cfi_def_cfa_offset 20
 1021              		.cfi_offset 4, -20
 1022              		.cfi_offset 5, -16
 1023              		.cfi_offset 6, -12
 1024              		.cfi_offset 7, -8
 1025              		.cfi_offset 14, -4
 1026 0002 5F46     		mov	r7, fp
 1027 0004 5646     		mov	r6, r10
 1028 0006 C0B4     		push	{r6, r7}
 1029              		.cfi_def_cfa_offset 28
 1030              		.cfi_offset 10, -28
 1031              		.cfi_offset 11, -24
 1032 0008 85B0     		sub	sp, sp, #20
 1033              		.cfi_def_cfa_offset 48
 1034 000a 0600     		movs	r6, r0
ARM GAS  C:\Users\Phuong\AppData\Local\Temp\ccQXToeg.s 			page 27


 1035 000c 0291     		str	r1, [sp, #8]
 1036 000e 0392     		str	r2, [sp, #12]
 1037 0010 1F00     		movs	r7, r3
 1038              	.LVL171:
 271:Source\mbedtls_open\library/dhm.c ****         return( MBEDTLS_ERR_DHM_BAD_INPUT_DATA );
 1039              		.loc 1 271 0
 1040 0012 0028     		cmp	r0, #0
 1041 0014 54D0     		beq	.L76
 271:Source\mbedtls_open\library/dhm.c ****         return( MBEDTLS_ERR_DHM_BAD_INPUT_DATA );
 1042              		.loc 1 271 0 is_stmt 0 discriminator 1
 1043 0016 002B     		cmp	r3, #0
 1044 0018 54D0     		beq	.L77
 271:Source\mbedtls_open\library/dhm.c ****         return( MBEDTLS_ERR_DHM_BAD_INPUT_DATA );
 1045              		.loc 1 271 0 discriminator 2
 1046 001a 0368     		ldr	r3, [r0]
 1047              	.LVL172:
 1048 001c 9F42     		cmp	r7, r3
 1049 001e 53D8     		bhi	.L78
 274:Source\mbedtls_open\library/dhm.c ****         return( MBEDTLS_ERR_DHM_BAD_INPUT_DATA );
 1050              		.loc 1 274 0 is_stmt 1
 1051 0020 051D     		adds	r5, r0, #4
 1052 0022 0021     		movs	r1, #0
 1053              	.LVL173:
 1054 0024 2800     		movs	r0, r5
 1055              	.LVL174:
 1056 0026 FFF7FEFF 		bl	mbedtls_mpi_cmp_int
 1057              	.LVL175:
 1058 002a 0028     		cmp	r0, #0
 1059 002c 4ED0     		beq	.L79
 1060 002e 0023     		movs	r3, #0
 1061 0030 9A46     		mov	r10, r3
 1062 0032 00E0     		b	.L75
 1063              	.LVL176:
 1064              	.L81:
 287:Source\mbedtls_open\library/dhm.c ****             return( MBEDTLS_ERR_DHM_MAKE_PUBLIC_FAILED );
 1065              		.loc 1 287 0
 1066 0034 DA46     		mov	r10, fp
 1067              	.LVL177:
 1068              	.L75:
 282:Source\mbedtls_open\library/dhm.c **** 
 1069              		.loc 1 282 0
 1070 0036 3400     		movs	r4, r6
 1071 0038 1C34     		adds	r4, r4, #28
 1072 003a 0D9B     		ldr	r3, [sp, #52]
 1073 003c 0C9A     		ldr	r2, [sp, #48]
 1074 003e 0299     		ldr	r1, [sp, #8]
 1075 0040 2000     		movs	r0, r4
 1076 0042 FFF7FEFF 		bl	mbedtls_mpi_fill_random
 1077              	.LVL178:
 1078 0046 0028     		cmp	r0, #0
 1079 0048 06D0     		beq	.L73
 1080 004a 33E0     		b	.L72
 1081              	.LVL179:
 1082              	.L74:
 285:Source\mbedtls_open\library/dhm.c **** 
 1083              		.loc 1 285 0
 1084 004c 0121     		movs	r1, #1
ARM GAS  C:\Users\Phuong\AppData\Local\Temp\ccQXToeg.s 			page 28


 1085 004e 2000     		movs	r0, r4
 1086 0050 FFF7FEFF 		bl	mbedtls_mpi_shift_r
 1087              	.LVL180:
 1088 0054 0028     		cmp	r0, #0
 1089 0056 2DD1     		bne	.L72
 1090              	.L73:
 284:Source\mbedtls_open\library/dhm.c ****             MBEDTLS_MPI_CHK( mbedtls_mpi_shift_r( &ctx->X, 1 ) );
 1091              		.loc 1 284 0
 1092 0058 2900     		movs	r1, r5
 1093 005a 2000     		movs	r0, r4
 1094              	.LVL181:
 1095 005c FFF7FEFF 		bl	mbedtls_mpi_cmp_mpi
 1096              	.LVL182:
 1097 0060 0028     		cmp	r0, #0
 1098 0062 F3DA     		bge	.L74
 287:Source\mbedtls_open\library/dhm.c ****             return( MBEDTLS_ERR_DHM_MAKE_PUBLIC_FAILED );
 1099              		.loc 1 287 0
 1100 0064 0123     		movs	r3, #1
 1101 0066 5344     		add	r3, r3, r10
 1102 0068 9B46     		mov	fp, r3
 1103              	.LVL183:
 1104 006a 5346     		mov	r3, r10
 1105              	.LVL184:
 1106 006c 0A2B     		cmp	r3, #10
 1107 006e 2FDC     		bgt	.L80
 290:Source\mbedtls_open\library/dhm.c **** 
 1108              		.loc 1 290 0
 1109 0070 2900     		movs	r1, r5
 1110 0072 2000     		movs	r0, r4
 1111 0074 FFF7FEFF 		bl	dhm_check_range
 1112              	.LVL185:
 1113 0078 0028     		cmp	r0, #0
 1114 007a DBD1     		bne	.L81
 292:Source\mbedtls_open\library/dhm.c ****                           &ctx->P , &ctx->RP ) );
 1115              		.loc 1 292 0
 1116 007c 2823     		movs	r3, #40
 1117 007e 9C46     		mov	ip, r3
 1118 0080 B444     		add	ip, ip, r6
 1119 0082 6346     		mov	r3, ip
 1120 0084 6046     		mov	r0, ip
 1121 0086 0293     		str	r3, [sp, #8]
 1122              	.LVL186:
 1123 0088 3100     		movs	r1, r6
 1124 008a 1031     		adds	r1, r1, #16
 1125 008c 3300     		movs	r3, r6
 1126 008e 4C33     		adds	r3, r3, #76
 1127 0090 0093     		str	r3, [sp]
 1128 0092 2B00     		movs	r3, r5
 1129 0094 2200     		movs	r2, r4
 1130 0096 FFF7FEFF 		bl	mbedtls_mpi_exp_mod
 1131              	.LVL187:
 1132 009a 0028     		cmp	r0, #0
 1133 009c 0AD1     		bne	.L72
 295:Source\mbedtls_open\library/dhm.c ****         return( ret );
 1134              		.loc 1 295 0
 1135 009e 2900     		movs	r1, r5
 1136 00a0 0298     		ldr	r0, [sp, #8]
ARM GAS  C:\Users\Phuong\AppData\Local\Temp\ccQXToeg.s 			page 29


 1137              	.LVL188:
 1138 00a2 FFF7FEFF 		bl	dhm_check_range
 1139              	.LVL189:
 1140 00a6 0028     		cmp	r0, #0
 1141 00a8 15D1     		bne	.L71
 298:Source\mbedtls_open\library/dhm.c **** 
 1142              		.loc 1 298 0
 1143 00aa 3A00     		movs	r2, r7
 1144 00ac 0399     		ldr	r1, [sp, #12]
 1145 00ae 0298     		ldr	r0, [sp, #8]
 1146              	.LVL190:
 1147 00b0 FFF7FEFF 		bl	mbedtls_mpi_write_binary
 1148              	.LVL191:
 1149              	.L72:
 302:Source\mbedtls_open\library/dhm.c ****         return( MBEDTLS_ERR_DHM_MAKE_PUBLIC_FAILED + ret );
 1150              		.loc 1 302 0
 1151 00b4 0028     		cmp	r0, #0
 1152 00b6 0DD0     		beq	.L83
 303:Source\mbedtls_open\library/dhm.c **** 
 1153              		.loc 1 303 0
 1154 00b8 094B     		ldr	r3, .L84
 1155 00ba 9C46     		mov	ip, r3
 1156 00bc 6044     		add	r0, r0, ip
 1157              	.LVL192:
 1158 00be 0AE0     		b	.L71
 1159              	.LVL193:
 1160              	.L76:
 272:Source\mbedtls_open\library/dhm.c **** 
 1161              		.loc 1 272 0
 1162 00c0 0848     		ldr	r0, .L84+4
 1163              	.LVL194:
 1164 00c2 08E0     		b	.L71
 1165              	.LVL195:
 1166              	.L77:
 1167 00c4 0748     		ldr	r0, .L84+4
 1168              	.LVL196:
 1169 00c6 06E0     		b	.L71
 1170              	.LVL197:
 1171              	.L78:
 1172 00c8 0648     		ldr	r0, .L84+4
 1173              	.LVL198:
 1174 00ca 04E0     		b	.L71
 1175              	.LVL199:
 1176              	.L79:
 275:Source\mbedtls_open\library/dhm.c **** 
 1177              		.loc 1 275 0
 1178 00cc 0548     		ldr	r0, .L84+4
 1179 00ce 02E0     		b	.L71
 1180              	.LVL200:
 1181              	.L80:
 288:Source\mbedtls_open\library/dhm.c ****     }
 1182              		.loc 1 288 0
 1183 00d0 0348     		ldr	r0, .L84
 1184 00d2 00E0     		b	.L71
 1185              	.LVL201:
 1186              	.L83:
 305:Source\mbedtls_open\library/dhm.c **** }
ARM GAS  C:\Users\Phuong\AppData\Local\Temp\ccQXToeg.s 			page 30


 1187              		.loc 1 305 0
 1188 00d4 0020     		movs	r0, #0
 1189              	.LVL202:
 1190              	.L71:
 306:Source\mbedtls_open\library/dhm.c **** 
 1191              		.loc 1 306 0
 1192 00d6 05B0     		add	sp, sp, #20
 1193              		@ sp needed
 1194              	.LVL203:
 1195              	.LVL204:
 1196 00d8 0CBC     		pop	{r2, r3}
 1197 00da 9246     		mov	r10, r2
 1198 00dc 9B46     		mov	fp, r3
 1199 00de F0BD     		pop	{r4, r5, r6, r7, pc}
 1200              	.L85:
 1201              		.align	2
 1202              	.L84:
 1203 00e0 80CDFFFF 		.word	-12928
 1204 00e4 80CFFFFF 		.word	-12416
 1205              		.cfi_endproc
 1206              	.LFE8:
 1207              		.size	mbedtls_dhm_make_public, .-mbedtls_dhm_make_public
 1208              		.section	.text.mbedtls_dhm_calc_secret,"ax",%progbits
 1209              		.align	2
 1210              		.global	mbedtls_dhm_calc_secret
 1211              		.code	16
 1212              		.thumb_func
 1213              		.type	mbedtls_dhm_calc_secret, %function
 1214              	mbedtls_dhm_calc_secret:
 1215              	.LFB10:
 372:Source\mbedtls_open\library/dhm.c **** 
 373:Source\mbedtls_open\library/dhm.c **** /*
 374:Source\mbedtls_open\library/dhm.c ****  * Derive and export the shared secret (G^Y)^X mod P
 375:Source\mbedtls_open\library/dhm.c ****  */
 376:Source\mbedtls_open\library/dhm.c **** int mbedtls_dhm_calc_secret( mbedtls_dhm_context *ctx,
 377:Source\mbedtls_open\library/dhm.c ****                      unsigned char *output, size_t output_size, size_t *olen,
 378:Source\mbedtls_open\library/dhm.c ****                      int (*f_rng)(void *, unsigned char *, size_t),
 379:Source\mbedtls_open\library/dhm.c ****                      void *p_rng )
 380:Source\mbedtls_open\library/dhm.c **** {
 1216              		.loc 1 380 0
 1217              		.cfi_startproc
 1218              		@ args = 8, pretend = 0, frame = 24
 1219              		@ frame_needed = 0, uses_anonymous_args = 0
 1220              	.LVL205:
 1221 0000 F0B5     		push	{r4, r5, r6, r7, lr}
 1222              		.cfi_def_cfa_offset 20
 1223              		.cfi_offset 4, -20
 1224              		.cfi_offset 5, -16
 1225              		.cfi_offset 6, -12
 1226              		.cfi_offset 7, -8
 1227              		.cfi_offset 14, -4
 1228 0002 89B0     		sub	sp, sp, #36
 1229              		.cfi_def_cfa_offset 56
 1230 0004 061E     		subs	r6, r0, #0
 1231 0006 0291     		str	r1, [sp, #8]
 1232 0008 0393     		str	r3, [sp, #12]
 381:Source\mbedtls_open\library/dhm.c ****     int ret;
ARM GAS  C:\Users\Phuong\AppData\Local\Temp\ccQXToeg.s 			page 31


 382:Source\mbedtls_open\library/dhm.c ****     mbedtls_mpi GYb;
 383:Source\mbedtls_open\library/dhm.c **** 
 384:Source\mbedtls_open\library/dhm.c ****     if( ctx == NULL || output_size < ctx->len )
 1233              		.loc 1 384 0
 1234 000a 61D0     		beq	.L92
 1235              		.loc 1 384 0 is_stmt 0 discriminator 1
 1236 000c 0368     		ldr	r3, [r0]
 1237              	.LVL206:
 1238 000e 9342     		cmp	r3, r2
 1239 0010 60D8     		bhi	.L93
 385:Source\mbedtls_open\library/dhm.c ****         return( MBEDTLS_ERR_DHM_BAD_INPUT_DATA );
 386:Source\mbedtls_open\library/dhm.c **** 
 387:Source\mbedtls_open\library/dhm.c ****     if( ( ret = dhm_check_range( &ctx->GY, &ctx->P ) ) != 0 )
 1240              		.loc 1 387 0 is_stmt 1
 1241 0012 0700     		movs	r7, r0
 1242 0014 3437     		adds	r7, r7, #52
 1243 0016 051D     		adds	r5, r0, #4
 1244 0018 2900     		movs	r1, r5
 1245              	.LVL207:
 1246 001a 3800     		movs	r0, r7
 1247              	.LVL208:
 1248 001c FFF7FEFF 		bl	dhm_check_range
 1249              	.LVL209:
 1250 0020 0028     		cmp	r0, #0
 1251 0022 5AD1     		bne	.L87
 388:Source\mbedtls_open\library/dhm.c ****         return( ret );
 389:Source\mbedtls_open\library/dhm.c **** 
 390:Source\mbedtls_open\library/dhm.c ****     mbedtls_mpi_init( &GYb );
 1252              		.loc 1 390 0
 1253 0024 05A8     		add	r0, sp, #20
 1254              	.LVL210:
 1255 0026 FFF7FEFF 		bl	mbedtls_mpi_init
 1256              	.LVL211:
 391:Source\mbedtls_open\library/dhm.c **** 
 392:Source\mbedtls_open\library/dhm.c ****     /* Blind peer's value */
 393:Source\mbedtls_open\library/dhm.c ****     if( f_rng != NULL )
 1257              		.loc 1 393 0
 1258 002a 0E9B     		ldr	r3, [sp, #56]
 1259 002c 002B     		cmp	r3, #0
 1260 002e 16D0     		beq	.L88
 394:Source\mbedtls_open\library/dhm.c ****     {
 395:Source\mbedtls_open\library/dhm.c ****         MBEDTLS_MPI_CHK( dhm_update_blinding( ctx, f_rng, p_rng ) );
 1261              		.loc 1 395 0
 1262 0030 0F9A     		ldr	r2, [sp, #60]
 1263 0032 1900     		movs	r1, r3
 1264 0034 3000     		movs	r0, r6
 1265 0036 FFF7FEFF 		bl	dhm_update_blinding
 1266              	.LVL212:
 1267 003a 041E     		subs	r4, r0, #0
 1268              	.LVL213:
 1269 003c 40D1     		bne	.L89
 396:Source\mbedtls_open\library/dhm.c ****         MBEDTLS_MPI_CHK( mbedtls_mpi_mul_mpi( &GYb, &ctx->GY, &ctx->Vi ) );
 1270              		.loc 1 396 0
 1271 003e 3200     		movs	r2, r6
 1272 0040 5832     		adds	r2, r2, #88
 1273 0042 3900     		movs	r1, r7
 1274 0044 05A8     		add	r0, sp, #20
ARM GAS  C:\Users\Phuong\AppData\Local\Temp\ccQXToeg.s 			page 32


 1275              	.LVL214:
 1276 0046 FFF7FEFF 		bl	mbedtls_mpi_mul_mpi
 1277              	.LVL215:
 1278 004a 041E     		subs	r4, r0, #0
 1279              	.LVL216:
 1280 004c 38D1     		bne	.L89
 397:Source\mbedtls_open\library/dhm.c ****         MBEDTLS_MPI_CHK( mbedtls_mpi_mod_mpi( &GYb, &GYb, &ctx->P ) );
 1281              		.loc 1 397 0
 1282 004e 2A00     		movs	r2, r5
 1283 0050 05A9     		add	r1, sp, #20
 1284 0052 0800     		movs	r0, r1
 1285              	.LVL217:
 1286 0054 FFF7FEFF 		bl	mbedtls_mpi_mod_mpi
 1287              	.LVL218:
 1288 0058 041E     		subs	r4, r0, #0
 1289              	.LVL219:
 1290 005a 31D1     		bne	.L89
 1291 005c 05E0     		b	.L90
 1292              	.LVL220:
 1293              	.L88:
 398:Source\mbedtls_open\library/dhm.c ****     }
 399:Source\mbedtls_open\library/dhm.c ****     else
 400:Source\mbedtls_open\library/dhm.c ****         MBEDTLS_MPI_CHK( mbedtls_mpi_copy( &GYb, &ctx->GY ) );
 1294              		.loc 1 400 0
 1295 005e 3900     		movs	r1, r7
 1296 0060 05A8     		add	r0, sp, #20
 1297 0062 FFF7FEFF 		bl	mbedtls_mpi_copy
 1298              	.LVL221:
 1299 0066 041E     		subs	r4, r0, #0
 1300              	.LVL222:
 1301 0068 2AD1     		bne	.L89
 1302              	.L90:
 401:Source\mbedtls_open\library/dhm.c **** 
 402:Source\mbedtls_open\library/dhm.c ****     /* Do modular exponentiation */
 403:Source\mbedtls_open\library/dhm.c ****     MBEDTLS_MPI_CHK( mbedtls_mpi_exp_mod( &ctx->K, &GYb, &ctx->X,
 1303              		.loc 1 403 0
 1304 006a 3700     		movs	r7, r6
 1305 006c 4037     		adds	r7, r7, #64
 1306 006e 3200     		movs	r2, r6
 1307 0070 1C32     		adds	r2, r2, #28
 1308 0072 3300     		movs	r3, r6
 1309 0074 4C33     		adds	r3, r3, #76
 1310 0076 0093     		str	r3, [sp]
 1311 0078 2B00     		movs	r3, r5
 1312 007a 05A9     		add	r1, sp, #20
 1313 007c 3800     		movs	r0, r7
 1314              	.LVL223:
 1315 007e FFF7FEFF 		bl	mbedtls_mpi_exp_mod
 1316              	.LVL224:
 1317 0082 041E     		subs	r4, r0, #0
 1318              	.LVL225:
 1319 0084 1CD1     		bne	.L89
 404:Source\mbedtls_open\library/dhm.c ****                           &ctx->P, &ctx->RP ) );
 405:Source\mbedtls_open\library/dhm.c **** 
 406:Source\mbedtls_open\library/dhm.c ****     /* Unblind secret value */
 407:Source\mbedtls_open\library/dhm.c ****     if( f_rng != NULL )
 1320              		.loc 1 407 0
ARM GAS  C:\Users\Phuong\AppData\Local\Temp\ccQXToeg.s 			page 33


 1321 0086 0E9B     		ldr	r3, [sp, #56]
 1322 0088 002B     		cmp	r3, #0
 1323 008a 0ED0     		beq	.L91
 408:Source\mbedtls_open\library/dhm.c ****     {
 409:Source\mbedtls_open\library/dhm.c ****         MBEDTLS_MPI_CHK( mbedtls_mpi_mul_mpi( &ctx->K, &ctx->K, &ctx->Vf ) );
 1324              		.loc 1 409 0
 1325 008c 3200     		movs	r2, r6
 1326 008e 6432     		adds	r2, r2, #100
 1327 0090 3900     		movs	r1, r7
 1328 0092 3800     		movs	r0, r7
 1329              	.LVL226:
 1330 0094 FFF7FEFF 		bl	mbedtls_mpi_mul_mpi
 1331              	.LVL227:
 1332 0098 041E     		subs	r4, r0, #0
 1333              	.LVL228:
 1334 009a 11D1     		bne	.L89
 410:Source\mbedtls_open\library/dhm.c ****         MBEDTLS_MPI_CHK( mbedtls_mpi_mod_mpi( &ctx->K, &ctx->K, &ctx->P ) );
 1335              		.loc 1 410 0
 1336 009c 2A00     		movs	r2, r5
 1337 009e 3900     		movs	r1, r7
 1338 00a0 3800     		movs	r0, r7
 1339              	.LVL229:
 1340 00a2 FFF7FEFF 		bl	mbedtls_mpi_mod_mpi
 1341              	.LVL230:
 1342 00a6 041E     		subs	r4, r0, #0
 1343              	.LVL231:
 1344 00a8 0AD1     		bne	.L89
 1345              	.L91:
 411:Source\mbedtls_open\library/dhm.c ****     }
 412:Source\mbedtls_open\library/dhm.c **** 
 413:Source\mbedtls_open\library/dhm.c ****     *olen = mbedtls_mpi_size( &ctx->K );
 1346              		.loc 1 413 0
 1347 00aa 3800     		movs	r0, r7
 1348              	.LVL232:
 1349 00ac FFF7FEFF 		bl	mbedtls_mpi_size
 1350              	.LVL233:
 1351 00b0 0200     		movs	r2, r0
 1352 00b2 039B     		ldr	r3, [sp, #12]
 1353 00b4 1860     		str	r0, [r3]
 414:Source\mbedtls_open\library/dhm.c **** 
 415:Source\mbedtls_open\library/dhm.c ****     MBEDTLS_MPI_CHK( mbedtls_mpi_write_binary( &ctx->K, output, *olen ) );
 1354              		.loc 1 415 0
 1355 00b6 0299     		ldr	r1, [sp, #8]
 1356 00b8 3800     		movs	r0, r7
 1357 00ba FFF7FEFF 		bl	mbedtls_mpi_write_binary
 1358              	.LVL234:
 1359 00be 0400     		movs	r4, r0
 1360              	.LVL235:
 1361              	.L89:
 416:Source\mbedtls_open\library/dhm.c **** 
 417:Source\mbedtls_open\library/dhm.c **** cleanup:
 418:Source\mbedtls_open\library/dhm.c ****     mbedtls_mpi_free( &GYb );
 1362              		.loc 1 418 0
 1363 00c0 05A8     		add	r0, sp, #20
 1364              	.LVL236:
 1365 00c2 FFF7FEFF 		bl	mbedtls_mpi_free
 1366              	.LVL237:
ARM GAS  C:\Users\Phuong\AppData\Local\Temp\ccQXToeg.s 			page 34


 419:Source\mbedtls_open\library/dhm.c **** 
 420:Source\mbedtls_open\library/dhm.c ****     if( ret != 0 )
 1367              		.loc 1 420 0
 1368 00c6 002C     		cmp	r4, #0
 1369 00c8 06D0     		beq	.L95
 421:Source\mbedtls_open\library/dhm.c ****         return( MBEDTLS_ERR_DHM_CALC_SECRET_FAILED + ret );
 1370              		.loc 1 421 0
 1371 00ca 054B     		ldr	r3, .L96
 1372 00cc E018     		adds	r0, r4, r3
 1373 00ce 04E0     		b	.L87
 1374              	.LVL238:
 1375              	.L92:
 385:Source\mbedtls_open\library/dhm.c **** 
 1376              		.loc 1 385 0
 1377 00d0 0448     		ldr	r0, .L96+4
 1378              	.LVL239:
 1379 00d2 02E0     		b	.L87
 1380              	.LVL240:
 1381              	.L93:
 1382 00d4 0348     		ldr	r0, .L96+4
 1383              	.LVL241:
 1384 00d6 00E0     		b	.L87
 1385              	.LVL242:
 1386              	.L95:
 422:Source\mbedtls_open\library/dhm.c **** 
 423:Source\mbedtls_open\library/dhm.c ****     return( 0 );
 1387              		.loc 1 423 0
 1388 00d8 0020     		movs	r0, #0
 1389              	.LVL243:
 1390              	.L87:
 424:Source\mbedtls_open\library/dhm.c **** }
 1391              		.loc 1 424 0
 1392 00da 09B0     		add	sp, sp, #36
 1393              		@ sp needed
 1394              	.LVL244:
 1395 00dc F0BD     		pop	{r4, r5, r6, r7, pc}
 1396              	.L97:
 1397 00de C046     		.align	2
 1398              	.L96:
 1399 00e0 00CDFFFF 		.word	-13056
 1400 00e4 80CFFFFF 		.word	-12416
 1401              		.cfi_endproc
 1402              	.LFE10:
 1403              		.size	mbedtls_dhm_calc_secret, .-mbedtls_dhm_calc_secret
 1404              		.section	.text.mbedtls_dhm_free,"ax",%progbits
 1405              		.align	2
 1406              		.global	mbedtls_dhm_free
 1407              		.code	16
 1408              		.thumb_func
 1409              		.type	mbedtls_dhm_free, %function
 1410              	mbedtls_dhm_free:
 1411              	.LFB11:
 425:Source\mbedtls_open\library/dhm.c **** 
 426:Source\mbedtls_open\library/dhm.c **** /*
 427:Source\mbedtls_open\library/dhm.c ****  * Free the components of a DHM key
 428:Source\mbedtls_open\library/dhm.c ****  */
 429:Source\mbedtls_open\library/dhm.c **** void mbedtls_dhm_free( mbedtls_dhm_context *ctx )
ARM GAS  C:\Users\Phuong\AppData\Local\Temp\ccQXToeg.s 			page 35


 430:Source\mbedtls_open\library/dhm.c **** {
 1412              		.loc 1 430 0
 1413              		.cfi_startproc
 1414              		@ args = 0, pretend = 0, frame = 0
 1415              		@ frame_needed = 0, uses_anonymous_args = 0
 1416              	.LVL245:
 1417 0000 10B5     		push	{r4, lr}
 1418              		.cfi_def_cfa_offset 8
 1419              		.cfi_offset 4, -8
 1420              		.cfi_offset 14, -4
 1421 0002 0400     		movs	r4, r0
 431:Source\mbedtls_open\library/dhm.c ****     mbedtls_mpi_free( &ctx->pX ); mbedtls_mpi_free( &ctx->Vf );
 1422              		.loc 1 431 0
 1423 0004 7030     		adds	r0, r0, #112
 1424              	.LVL246:
 1425 0006 FFF7FEFF 		bl	mbedtls_mpi_free
 1426              	.LVL247:
 1427 000a 2000     		movs	r0, r4
 1428 000c 6430     		adds	r0, r0, #100
 1429 000e FFF7FEFF 		bl	mbedtls_mpi_free
 1430              	.LVL248:
 432:Source\mbedtls_open\library/dhm.c ****     mbedtls_mpi_free( &ctx->Vi ); mbedtls_mpi_free( &ctx->RP );
 1431              		.loc 1 432 0
 1432 0012 2000     		movs	r0, r4
 1433 0014 5830     		adds	r0, r0, #88
 1434 0016 FFF7FEFF 		bl	mbedtls_mpi_free
 1435              	.LVL249:
 1436 001a 2000     		movs	r0, r4
 1437 001c 4C30     		adds	r0, r0, #76
 1438 001e FFF7FEFF 		bl	mbedtls_mpi_free
 1439              	.LVL250:
 433:Source\mbedtls_open\library/dhm.c ****     mbedtls_mpi_free( &ctx->K  ); mbedtls_mpi_free( &ctx->GY );
 1440              		.loc 1 433 0
 1441 0022 2000     		movs	r0, r4
 1442 0024 4030     		adds	r0, r0, #64
 1443 0026 FFF7FEFF 		bl	mbedtls_mpi_free
 1444              	.LVL251:
 1445 002a 2000     		movs	r0, r4
 1446 002c 3430     		adds	r0, r0, #52
 1447 002e FFF7FEFF 		bl	mbedtls_mpi_free
 1448              	.LVL252:
 434:Source\mbedtls_open\library/dhm.c ****     mbedtls_mpi_free( &ctx->GX ); mbedtls_mpi_free( &ctx->X  );
 1449              		.loc 1 434 0
 1450 0032 2000     		movs	r0, r4
 1451 0034 2830     		adds	r0, r0, #40
 1452 0036 FFF7FEFF 		bl	mbedtls_mpi_free
 1453              	.LVL253:
 1454 003a 2000     		movs	r0, r4
 1455 003c 1C30     		adds	r0, r0, #28
 1456 003e FFF7FEFF 		bl	mbedtls_mpi_free
 1457              	.LVL254:
 435:Source\mbedtls_open\library/dhm.c ****     mbedtls_mpi_free( &ctx->G  ); mbedtls_mpi_free( &ctx->P  );
 1458              		.loc 1 435 0
 1459 0042 2000     		movs	r0, r4
 1460 0044 1030     		adds	r0, r0, #16
 1461 0046 FFF7FEFF 		bl	mbedtls_mpi_free
 1462              	.LVL255:
ARM GAS  C:\Users\Phuong\AppData\Local\Temp\ccQXToeg.s 			page 36


 1463 004a 201D     		adds	r0, r4, #4
 1464 004c FFF7FEFF 		bl	mbedtls_mpi_free
 1465              	.LVL256:
 436:Source\mbedtls_open\library/dhm.c **** 
 437:Source\mbedtls_open\library/dhm.c ****     mbedtls_platform_zeroize( ctx, sizeof( mbedtls_dhm_context ) );
 1466              		.loc 1 437 0
 1467 0050 7C21     		movs	r1, #124
 1468 0052 2000     		movs	r0, r4
 1469 0054 FFF7FEFF 		bl	mbedtls_platform_zeroize
 1470              	.LVL257:
 438:Source\mbedtls_open\library/dhm.c **** }
 1471              		.loc 1 438 0
 1472              		@ sp needed
 1473              	.LVL258:
 1474 0058 10BD     		pop	{r4, pc}
 1475              		.cfi_endproc
 1476              	.LFE11:
 1477              		.size	mbedtls_dhm_free, .-mbedtls_dhm_free
 1478 005a C046     		.section	.text.mbedtls_dhm_parse_dhm,"ax",%progbits
 1479              		.align	2
 1480              		.global	mbedtls_dhm_parse_dhm
 1481              		.code	16
 1482              		.thumb_func
 1483              		.type	mbedtls_dhm_parse_dhm, %function
 1484              	mbedtls_dhm_parse_dhm:
 1485              	.LFB12:
 439:Source\mbedtls_open\library/dhm.c **** 
 440:Source\mbedtls_open\library/dhm.c **** #if defined(MBEDTLS_ASN1_PARSE_C)
 441:Source\mbedtls_open\library/dhm.c **** /*
 442:Source\mbedtls_open\library/dhm.c ****  * Parse DHM parameters
 443:Source\mbedtls_open\library/dhm.c ****  */
 444:Source\mbedtls_open\library/dhm.c **** int mbedtls_dhm_parse_dhm( mbedtls_dhm_context *dhm, const unsigned char *dhmin,
 445:Source\mbedtls_open\library/dhm.c ****                    size_t dhminlen )
 446:Source\mbedtls_open\library/dhm.c **** {
 1486              		.loc 1 446 0
 1487              		.cfi_startproc
 1488              		@ args = 0, pretend = 0, frame = 40
 1489              		@ frame_needed = 0, uses_anonymous_args = 0
 1490              	.LVL259:
 1491 0000 F0B5     		push	{r4, r5, r6, r7, lr}
 1492              		.cfi_def_cfa_offset 20
 1493              		.cfi_offset 4, -20
 1494              		.cfi_offset 5, -16
 1495              		.cfi_offset 6, -12
 1496              		.cfi_offset 7, -8
 1497              		.cfi_offset 14, -4
 1498 0002 4746     		mov	r7, r8
 1499 0004 80B4     		push	{r7}
 1500              		.cfi_def_cfa_offset 24
 1501              		.cfi_offset 8, -24
 1502 0006 8EB0     		sub	sp, sp, #56
 1503              		.cfi_def_cfa_offset 80
 1504 0008 0500     		movs	r5, r0
 1505 000a 0E00     		movs	r6, r1
 1506 000c 0592     		str	r2, [sp, #20]
 447:Source\mbedtls_open\library/dhm.c ****     int ret;
 448:Source\mbedtls_open\library/dhm.c ****     size_t len;
ARM GAS  C:\Users\Phuong\AppData\Local\Temp\ccQXToeg.s 			page 37


 449:Source\mbedtls_open\library/dhm.c ****     unsigned char *p, *end;
 450:Source\mbedtls_open\library/dhm.c **** #if defined(MBEDTLS_PEM_PARSE_C)
 451:Source\mbedtls_open\library/dhm.c ****     mbedtls_pem_context pem;
 452:Source\mbedtls_open\library/dhm.c **** 
 453:Source\mbedtls_open\library/dhm.c ****     mbedtls_pem_init( &pem );
 1507              		.loc 1 453 0
 1508 000e 09A8     		add	r0, sp, #36
 1509              	.LVL260:
 1510 0010 FFF7FEFF 		bl	mbedtls_pem_init
 1511              	.LVL261:
 454:Source\mbedtls_open\library/dhm.c **** 
 455:Source\mbedtls_open\library/dhm.c ****     /* Avoid calling mbedtls_pem_read_buffer() on non-null-terminated string */
 456:Source\mbedtls_open\library/dhm.c ****     if( dhminlen == 0 || dhmin[dhminlen - 1] != '\0' )
 1512              		.loc 1 456 0
 1513 0014 059B     		ldr	r3, [sp, #20]
 1514 0016 002B     		cmp	r3, #0
 1515 0018 11D0     		beq	.L112
 1516              		.loc 1 456 0 is_stmt 0 discriminator 1
 1517 001a F318     		adds	r3, r6, r3
 1518 001c 013B     		subs	r3, r3, #1
 1519 001e 1B78     		ldrb	r3, [r3]
 1520 0020 002B     		cmp	r3, #0
 1521 0022 0ED1     		bne	.L113
 457:Source\mbedtls_open\library/dhm.c ****         ret = MBEDTLS_ERR_PEM_NO_HEADER_FOOTER_PRESENT;
 458:Source\mbedtls_open\library/dhm.c ****     else
 459:Source\mbedtls_open\library/dhm.c ****         ret = mbedtls_pem_read_buffer( &pem,
 1522              		.loc 1 459 0 is_stmt 1
 1523 0024 05AB     		add	r3, sp, #20
 1524              	.LVL262:
 1525 0026 0293     		str	r3, [sp, #8]
 1526 0028 0023     		movs	r3, #0
 1527              	.LVL263:
 1528 002a 0193     		str	r3, [sp, #4]
 1529 002c 0093     		str	r3, [sp]
 1530 002e 3300     		movs	r3, r6
 1531 0030 344A     		ldr	r2, .L116
 1532 0032 3549     		ldr	r1, .L116+4
 1533 0034 09A8     		add	r0, sp, #36
 1534 0036 FFF7FEFF 		bl	mbedtls_pem_read_buffer
 1535              	.LVL264:
 1536 003a 0400     		movs	r4, r0
 1537              	.LVL265:
 1538 003c 02E0     		b	.L100
 1539              	.LVL266:
 1540              	.L112:
 457:Source\mbedtls_open\library/dhm.c ****         ret = MBEDTLS_ERR_PEM_NO_HEADER_FOOTER_PRESENT;
 1541              		.loc 1 457 0
 1542 003e 334C     		ldr	r4, .L116+8
 1543 0040 00E0     		b	.L100
 1544              	.L113:
 1545 0042 324C     		ldr	r4, .L116+8
 1546              	.L100:
 1547              	.LVL267:
 460:Source\mbedtls_open\library/dhm.c ****                                "-----BEGIN DH PARAMETERS-----",
 461:Source\mbedtls_open\library/dhm.c ****                                "-----END DH PARAMETERS-----",
 462:Source\mbedtls_open\library/dhm.c ****                                dhmin, NULL, 0, &dhminlen );
 463:Source\mbedtls_open\library/dhm.c **** 
ARM GAS  C:\Users\Phuong\AppData\Local\Temp\ccQXToeg.s 			page 38


 464:Source\mbedtls_open\library/dhm.c ****     if( ret == 0 )
 1548              		.loc 1 464 0
 1549 0044 002C     		cmp	r4, #0
 1550 0046 02D1     		bne	.L101
 465:Source\mbedtls_open\library/dhm.c ****     {
 466:Source\mbedtls_open\library/dhm.c ****         /*
 467:Source\mbedtls_open\library/dhm.c ****          * Was PEM encoded
 468:Source\mbedtls_open\library/dhm.c ****          */
 469:Source\mbedtls_open\library/dhm.c ****         dhminlen = pem.buflen;
 1551              		.loc 1 469 0
 1552 0048 0A9B     		ldr	r3, [sp, #40]
 1553 004a 0593     		str	r3, [sp, #20]
 1554 004c 02E0     		b	.L102
 1555              	.L101:
 470:Source\mbedtls_open\library/dhm.c ****     }
 471:Source\mbedtls_open\library/dhm.c ****     else if( ret != MBEDTLS_ERR_PEM_NO_HEADER_FOOTER_PRESENT )
 1556              		.loc 1 471 0
 1557 004e 2F4B     		ldr	r3, .L116+8
 1558 0050 9C42     		cmp	r4, r3
 1559 0052 49D1     		bne	.L103
 1560              	.L102:
 472:Source\mbedtls_open\library/dhm.c ****         goto exit;
 473:Source\mbedtls_open\library/dhm.c **** 
 474:Source\mbedtls_open\library/dhm.c ****     p = ( ret == 0 ) ? pem.buf : (unsigned char *) dhmin;
 1561              		.loc 1 474 0
 1562 0054 002C     		cmp	r4, #0
 1563 0056 01D1     		bne	.L114
 1564              		.loc 1 474 0 is_stmt 0 discriminator 1
 1565 0058 0999     		ldr	r1, [sp, #36]
 1566 005a 00E0     		b	.L104
 1567              	.L114:
 1568              		.loc 1 474 0
 1569 005c 3100     		movs	r1, r6
 1570              	.L104:
 1571              		.loc 1 474 0 discriminator 4
 1572 005e 0C91     		str	r1, [sp, #48]
 475:Source\mbedtls_open\library/dhm.c **** #else
 476:Source\mbedtls_open\library/dhm.c ****     p = (unsigned char *) dhmin;
 477:Source\mbedtls_open\library/dhm.c **** #endif /* MBEDTLS_PEM_PARSE_C */
 478:Source\mbedtls_open\library/dhm.c ****     end = p + dhminlen;
 1573              		.loc 1 478 0 is_stmt 1 discriminator 4
 1574 0060 059B     		ldr	r3, [sp, #20]
 1575 0062 9C46     		mov	ip, r3
 1576 0064 6144     		add	r1, r1, ip
 1577              	.LVL268:
 479:Source\mbedtls_open\library/dhm.c **** 
 480:Source\mbedtls_open\library/dhm.c ****     /*
 481:Source\mbedtls_open\library/dhm.c ****      *  DHParams ::= SEQUENCE {
 482:Source\mbedtls_open\library/dhm.c ****      *      prime              INTEGER,  -- P
 483:Source\mbedtls_open\library/dhm.c ****      *      generator          INTEGER,  -- g
 484:Source\mbedtls_open\library/dhm.c ****      *      privateValueLength INTEGER OPTIONAL
 485:Source\mbedtls_open\library/dhm.c ****      *  }
 486:Source\mbedtls_open\library/dhm.c ****      */
 487:Source\mbedtls_open\library/dhm.c ****     if( ( ret = mbedtls_asn1_get_tag( &p, end, &len,
 1578              		.loc 1 487 0 discriminator 4
 1579 0066 3023     		movs	r3, #48
 1580 0068 0DAA     		add	r2, sp, #52
ARM GAS  C:\Users\Phuong\AppData\Local\Temp\ccQXToeg.s 			page 39


 1581 006a 0CA8     		add	r0, sp, #48
 1582 006c FFF7FEFF 		bl	mbedtls_asn1_get_tag
 1583              	.LVL269:
 1584 0070 0028     		cmp	r0, #0
 1585 0072 02D0     		beq	.L105
 488:Source\mbedtls_open\library/dhm.c ****             MBEDTLS_ASN1_CONSTRUCTED | MBEDTLS_ASN1_SEQUENCE ) ) != 0 )
 489:Source\mbedtls_open\library/dhm.c ****     {
 490:Source\mbedtls_open\library/dhm.c ****         ret = MBEDTLS_ERR_DHM_INVALID_FORMAT + ret;
 1586              		.loc 1 490 0
 1587 0074 264B     		ldr	r3, .L116+12
 1588 0076 C418     		adds	r4, r0, r3
 1589              	.LVL270:
 491:Source\mbedtls_open\library/dhm.c ****         goto exit;
 1590              		.loc 1 491 0
 1591 0078 36E0     		b	.L103
 1592              	.LVL271:
 1593              	.L105:
 492:Source\mbedtls_open\library/dhm.c ****     }
 493:Source\mbedtls_open\library/dhm.c **** 
 494:Source\mbedtls_open\library/dhm.c ****     end = p + len;
 1594              		.loc 1 494 0
 1595 007a 0C9B     		ldr	r3, [sp, #48]
 1596 007c 0D9A     		ldr	r2, [sp, #52]
 1597 007e 9446     		mov	ip, r2
 1598 0080 6344     		add	r3, r3, ip
 1599 0082 1E00     		movs	r6, r3
 1600              	.LVL272:
 495:Source\mbedtls_open\library/dhm.c **** 
 496:Source\mbedtls_open\library/dhm.c ****     if( ( ret = mbedtls_asn1_get_mpi( &p, end, &dhm->P  ) ) != 0 ||
 1601              		.loc 1 496 0
 1602 0084 2F1D     		adds	r7, r5, #4
 1603 0086 3A00     		movs	r2, r7
 1604 0088 1900     		movs	r1, r3
 1605 008a 0CA8     		add	r0, sp, #48
 1606              	.LVL273:
 1607 008c FFF7FEFF 		bl	mbedtls_asn1_get_mpi
 1608              	.LVL274:
 1609 0090 041E     		subs	r4, r0, #0
 1610              	.LVL275:
 1611 0092 07D1     		bne	.L106
 497:Source\mbedtls_open\library/dhm.c ****         ( ret = mbedtls_asn1_get_mpi( &p, end, &dhm->G ) ) != 0 )
 1612              		.loc 1 497 0 discriminator 1
 1613 0094 2A00     		movs	r2, r5
 1614 0096 1032     		adds	r2, r2, #16
 496:Source\mbedtls_open\library/dhm.c ****         ( ret = mbedtls_asn1_get_mpi( &p, end, &dhm->G ) ) != 0 )
 1615              		.loc 1 496 0 discriminator 1
 1616 0098 3100     		movs	r1, r6
 1617 009a 0CA8     		add	r0, sp, #48
 1618              	.LVL276:
 1619 009c FFF7FEFF 		bl	mbedtls_asn1_get_mpi
 1620              	.LVL277:
 1621 00a0 041E     		subs	r4, r0, #0
 1622              	.LVL278:
 1623 00a2 03D0     		beq	.L107
 1624              	.L106:
 498:Source\mbedtls_open\library/dhm.c ****     {
 499:Source\mbedtls_open\library/dhm.c ****         ret = MBEDTLS_ERR_DHM_INVALID_FORMAT + ret;
ARM GAS  C:\Users\Phuong\AppData\Local\Temp\ccQXToeg.s 			page 40


 1625              		.loc 1 499 0
 1626 00a4 1A4B     		ldr	r3, .L116+12
 1627 00a6 9C46     		mov	ip, r3
 1628 00a8 6444     		add	r4, r4, ip
 1629              	.LVL279:
 500:Source\mbedtls_open\library/dhm.c ****         goto exit;
 1630              		.loc 1 500 0
 1631 00aa 1DE0     		b	.L103
 1632              	.LVL280:
 1633              	.L107:
 501:Source\mbedtls_open\library/dhm.c ****     }
 502:Source\mbedtls_open\library/dhm.c **** 
 503:Source\mbedtls_open\library/dhm.c ****     if( p != end )
 1634              		.loc 1 503 0
 1635 00ac 0C9B     		ldr	r3, [sp, #48]
 1636 00ae 9E42     		cmp	r6, r3
 1637 00b0 16D0     		beq	.L108
 1638              	.LBB2:
 504:Source\mbedtls_open\library/dhm.c ****     {
 505:Source\mbedtls_open\library/dhm.c ****         /* This might be the optional privateValueLength.
 506:Source\mbedtls_open\library/dhm.c ****          * If so, we can cleanly discard it */
 507:Source\mbedtls_open\library/dhm.c ****         mbedtls_mpi rec;
 508:Source\mbedtls_open\library/dhm.c ****         mbedtls_mpi_init( &rec );
 1639              		.loc 1 508 0
 1640 00b2 06A8     		add	r0, sp, #24
 1641              	.LVL281:
 1642 00b4 FFF7FEFF 		bl	mbedtls_mpi_init
 1643              	.LVL282:
 509:Source\mbedtls_open\library/dhm.c ****         ret = mbedtls_asn1_get_mpi( &p, end, &rec );
 1644              		.loc 1 509 0
 1645 00b8 06AA     		add	r2, sp, #24
 1646 00ba 3100     		movs	r1, r6
 1647 00bc 0CA8     		add	r0, sp, #48
 1648 00be FFF7FEFF 		bl	mbedtls_asn1_get_mpi
 1649              	.LVL283:
 1650 00c2 8046     		mov	r8, r0
 1651              	.LVL284:
 510:Source\mbedtls_open\library/dhm.c ****         mbedtls_mpi_free( &rec );
 1652              		.loc 1 510 0
 1653 00c4 06A8     		add	r0, sp, #24
 1654              	.LVL285:
 1655 00c6 FFF7FEFF 		bl	mbedtls_mpi_free
 1656              	.LVL286:
 511:Source\mbedtls_open\library/dhm.c ****         if ( ret != 0 )
 1657              		.loc 1 511 0
 1658 00ca 4346     		mov	r3, r8
 1659 00cc 002B     		cmp	r3, #0
 1660 00ce 02D0     		beq	.L109
 512:Source\mbedtls_open\library/dhm.c ****         {
 513:Source\mbedtls_open\library/dhm.c ****             ret = MBEDTLS_ERR_DHM_INVALID_FORMAT + ret;
 1661              		.loc 1 513 0
 1662 00d0 0F4C     		ldr	r4, .L116+12
 1663 00d2 4444     		add	r4, r4, r8
 1664              	.LVL287:
 514:Source\mbedtls_open\library/dhm.c ****             goto exit;
 1665              		.loc 1 514 0
 1666 00d4 08E0     		b	.L103
ARM GAS  C:\Users\Phuong\AppData\Local\Temp\ccQXToeg.s 			page 41


 1667              	.LVL288:
 1668              	.L109:
 515:Source\mbedtls_open\library/dhm.c ****         }
 516:Source\mbedtls_open\library/dhm.c ****         if ( p != end )
 1669              		.loc 1 516 0
 1670 00d6 0C9B     		ldr	r3, [sp, #48]
 1671 00d8 9E42     		cmp	r6, r3
 1672 00da 01D0     		beq	.L108
 517:Source\mbedtls_open\library/dhm.c ****         {
 518:Source\mbedtls_open\library/dhm.c ****             ret = MBEDTLS_ERR_DHM_INVALID_FORMAT +
 1673              		.loc 1 518 0
 1674 00dc 0D4C     		ldr	r4, .L116+16
 1675              	.LVL289:
 1676 00de 03E0     		b	.L103
 1677              	.LVL290:
 1678              	.L108:
 1679              	.LBE2:
 519:Source\mbedtls_open\library/dhm.c ****                 MBEDTLS_ERR_ASN1_LENGTH_MISMATCH;
 520:Source\mbedtls_open\library/dhm.c ****             goto exit;
 521:Source\mbedtls_open\library/dhm.c ****         }
 522:Source\mbedtls_open\library/dhm.c ****     }
 523:Source\mbedtls_open\library/dhm.c **** 
 524:Source\mbedtls_open\library/dhm.c ****     ret = 0;
 525:Source\mbedtls_open\library/dhm.c **** 
 526:Source\mbedtls_open\library/dhm.c ****     dhm->len = mbedtls_mpi_size( &dhm->P );
 1680              		.loc 1 526 0
 1681 00e0 3800     		movs	r0, r7
 1682 00e2 FFF7FEFF 		bl	mbedtls_mpi_size
 1683              	.LVL291:
 1684 00e6 2860     		str	r0, [r5]
 1685              	.LVL292:
 1686              	.L103:
 527:Source\mbedtls_open\library/dhm.c **** 
 528:Source\mbedtls_open\library/dhm.c **** exit:
 529:Source\mbedtls_open\library/dhm.c **** #if defined(MBEDTLS_PEM_PARSE_C)
 530:Source\mbedtls_open\library/dhm.c ****     mbedtls_pem_free( &pem );
 1687              		.loc 1 530 0
 1688 00e8 09A8     		add	r0, sp, #36
 1689 00ea FFF7FEFF 		bl	mbedtls_pem_free
 1690              	.LVL293:
 531:Source\mbedtls_open\library/dhm.c **** #endif
 532:Source\mbedtls_open\library/dhm.c ****     if( ret != 0 )
 1691              		.loc 1 532 0
 1692 00ee 002C     		cmp	r4, #0
 1693 00f0 02D0     		beq	.L111
 533:Source\mbedtls_open\library/dhm.c ****         mbedtls_dhm_free( dhm );
 1694              		.loc 1 533 0
 1695 00f2 2800     		movs	r0, r5
 1696 00f4 FFF7FEFF 		bl	mbedtls_dhm_free
 1697              	.LVL294:
 1698              	.L111:
 534:Source\mbedtls_open\library/dhm.c **** 
 535:Source\mbedtls_open\library/dhm.c ****     return( ret );
 536:Source\mbedtls_open\library/dhm.c **** }
 1699              		.loc 1 536 0
 1700 00f8 2000     		movs	r0, r4
 1701 00fa 0EB0     		add	sp, sp, #56
ARM GAS  C:\Users\Phuong\AppData\Local\Temp\ccQXToeg.s 			page 42


 1702              		@ sp needed
 1703              	.LVL295:
 1704              	.LVL296:
 1705 00fc 04BC     		pop	{r2}
 1706 00fe 9046     		mov	r8, r2
 1707 0100 F0BD     		pop	{r4, r5, r6, r7, pc}
 1708              	.L117:
 1709 0102 C046     		.align	2
 1710              	.L116:
 1711 0104 00000000 		.word	.LC0
 1712 0108 1C000000 		.word	.LC2
 1713 010c 80EFFFFF 		.word	-4224
 1714 0110 80CCFFFF 		.word	-13184
 1715 0114 1ACCFFFF 		.word	-13286
 1716              		.cfi_endproc
 1717              	.LFE12:
 1718              		.size	mbedtls_dhm_parse_dhm, .-mbedtls_dhm_parse_dhm
 1719              		.section	.text.mbedtls_dhm_self_test,"ax",%progbits
 1720              		.align	2
 1721              		.global	mbedtls_dhm_self_test
 1722              		.code	16
 1723              		.thumb_func
 1724              		.type	mbedtls_dhm_self_test, %function
 1725              	mbedtls_dhm_self_test:
 1726              	.LFB13:
 537:Source\mbedtls_open\library/dhm.c **** 
 538:Source\mbedtls_open\library/dhm.c **** #if defined(MBEDTLS_FS_IO)
 539:Source\mbedtls_open\library/dhm.c **** /*
 540:Source\mbedtls_open\library/dhm.c ****  * Load all data from a file into a given buffer.
 541:Source\mbedtls_open\library/dhm.c ****  *
 542:Source\mbedtls_open\library/dhm.c ****  * The file is expected to contain either PEM or DER encoded data.
 543:Source\mbedtls_open\library/dhm.c ****  * A terminating null byte is always appended. It is included in the announced
 544:Source\mbedtls_open\library/dhm.c ****  * length only if the data looks like it is PEM encoded.
 545:Source\mbedtls_open\library/dhm.c ****  */
 546:Source\mbedtls_open\library/dhm.c **** static int load_file( const char *path, unsigned char **buf, size_t *n )
 547:Source\mbedtls_open\library/dhm.c **** {
 548:Source\mbedtls_open\library/dhm.c ****     FILE *f;
 549:Source\mbedtls_open\library/dhm.c ****     long size;
 550:Source\mbedtls_open\library/dhm.c **** 
 551:Source\mbedtls_open\library/dhm.c ****     if( ( f = fopen( path, "rb" ) ) == NULL )
 552:Source\mbedtls_open\library/dhm.c ****         return( MBEDTLS_ERR_DHM_FILE_IO_ERROR );
 553:Source\mbedtls_open\library/dhm.c **** 
 554:Source\mbedtls_open\library/dhm.c ****     fseek( f, 0, SEEK_END );
 555:Source\mbedtls_open\library/dhm.c ****     if( ( size = ftell( f ) ) == -1 )
 556:Source\mbedtls_open\library/dhm.c ****     {
 557:Source\mbedtls_open\library/dhm.c ****         fclose( f );
 558:Source\mbedtls_open\library/dhm.c ****         return( MBEDTLS_ERR_DHM_FILE_IO_ERROR );
 559:Source\mbedtls_open\library/dhm.c ****     }
 560:Source\mbedtls_open\library/dhm.c ****     fseek( f, 0, SEEK_SET );
 561:Source\mbedtls_open\library/dhm.c **** 
 562:Source\mbedtls_open\library/dhm.c ****     *n = (size_t) size;
 563:Source\mbedtls_open\library/dhm.c **** 
 564:Source\mbedtls_open\library/dhm.c ****     if( *n + 1 == 0 ||
 565:Source\mbedtls_open\library/dhm.c ****         ( *buf = mbedtls_calloc( 1, *n + 1 ) ) == NULL )
 566:Source\mbedtls_open\library/dhm.c ****     {
 567:Source\mbedtls_open\library/dhm.c ****         fclose( f );
 568:Source\mbedtls_open\library/dhm.c ****         return( MBEDTLS_ERR_DHM_ALLOC_FAILED );
ARM GAS  C:\Users\Phuong\AppData\Local\Temp\ccQXToeg.s 			page 43


 569:Source\mbedtls_open\library/dhm.c ****     }
 570:Source\mbedtls_open\library/dhm.c **** 
 571:Source\mbedtls_open\library/dhm.c ****     if( fread( *buf, 1, *n, f ) != *n )
 572:Source\mbedtls_open\library/dhm.c ****     {
 573:Source\mbedtls_open\library/dhm.c ****         fclose( f );
 574:Source\mbedtls_open\library/dhm.c **** 
 575:Source\mbedtls_open\library/dhm.c ****         mbedtls_platform_zeroize( *buf, *n + 1 );
 576:Source\mbedtls_open\library/dhm.c ****         mbedtls_free( *buf );
 577:Source\mbedtls_open\library/dhm.c **** 
 578:Source\mbedtls_open\library/dhm.c ****         return( MBEDTLS_ERR_DHM_FILE_IO_ERROR );
 579:Source\mbedtls_open\library/dhm.c ****     }
 580:Source\mbedtls_open\library/dhm.c **** 
 581:Source\mbedtls_open\library/dhm.c ****     fclose( f );
 582:Source\mbedtls_open\library/dhm.c **** 
 583:Source\mbedtls_open\library/dhm.c ****     (*buf)[*n] = '\0';
 584:Source\mbedtls_open\library/dhm.c **** 
 585:Source\mbedtls_open\library/dhm.c ****     if( strstr( (const char *) *buf, "-----BEGIN " ) != NULL )
 586:Source\mbedtls_open\library/dhm.c ****         ++*n;
 587:Source\mbedtls_open\library/dhm.c **** 
 588:Source\mbedtls_open\library/dhm.c ****     return( 0 );
 589:Source\mbedtls_open\library/dhm.c **** }
 590:Source\mbedtls_open\library/dhm.c **** 
 591:Source\mbedtls_open\library/dhm.c **** /*
 592:Source\mbedtls_open\library/dhm.c ****  * Load and parse DHM parameters
 593:Source\mbedtls_open\library/dhm.c ****  */
 594:Source\mbedtls_open\library/dhm.c **** int mbedtls_dhm_parse_dhmfile( mbedtls_dhm_context *dhm, const char *path )
 595:Source\mbedtls_open\library/dhm.c **** {
 596:Source\mbedtls_open\library/dhm.c ****     int ret;
 597:Source\mbedtls_open\library/dhm.c ****     size_t n;
 598:Source\mbedtls_open\library/dhm.c ****     unsigned char *buf;
 599:Source\mbedtls_open\library/dhm.c **** 
 600:Source\mbedtls_open\library/dhm.c ****     if( ( ret = load_file( path, &buf, &n ) ) != 0 )
 601:Source\mbedtls_open\library/dhm.c ****         return( ret );
 602:Source\mbedtls_open\library/dhm.c **** 
 603:Source\mbedtls_open\library/dhm.c ****     ret = mbedtls_dhm_parse_dhm( dhm, buf, n );
 604:Source\mbedtls_open\library/dhm.c **** 
 605:Source\mbedtls_open\library/dhm.c ****     mbedtls_platform_zeroize( buf, n );
 606:Source\mbedtls_open\library/dhm.c ****     mbedtls_free( buf );
 607:Source\mbedtls_open\library/dhm.c **** 
 608:Source\mbedtls_open\library/dhm.c ****     return( ret );
 609:Source\mbedtls_open\library/dhm.c **** }
 610:Source\mbedtls_open\library/dhm.c **** #endif /* MBEDTLS_FS_IO */
 611:Source\mbedtls_open\library/dhm.c **** #endif /* MBEDTLS_ASN1_PARSE_C */
 612:Source\mbedtls_open\library/dhm.c **** #endif /* MBEDTLS_DHM_ALT */
 613:Source\mbedtls_open\library/dhm.c **** 
 614:Source\mbedtls_open\library/dhm.c **** #if defined(MBEDTLS_SELF_TEST)
 615:Source\mbedtls_open\library/dhm.c **** 
 616:Source\mbedtls_open\library/dhm.c **** static const char mbedtls_test_dhm_params[] =
 617:Source\mbedtls_open\library/dhm.c **** "-----BEGIN DH PARAMETERS-----\r\n"
 618:Source\mbedtls_open\library/dhm.c **** "MIGHAoGBAJ419DBEOgmQTzo5qXl5fQcN9TN455wkOL7052HzxxRVMyhYmwQcgJvh\r\n"
 619:Source\mbedtls_open\library/dhm.c **** "1sa18fyfR9OiVEMYglOpkqVoGLN7qd5aQNNi5W7/C+VBdHTBJcGZJyyP5B3qcz32\r\n"
 620:Source\mbedtls_open\library/dhm.c **** "9mLJKudlVudV0Qxk5qUJaPZ/xupz0NyoVpviuiBOI1gNi8ovSXWzAgEC\r\n"
 621:Source\mbedtls_open\library/dhm.c **** "-----END DH PARAMETERS-----\r\n";
 622:Source\mbedtls_open\library/dhm.c **** 
 623:Source\mbedtls_open\library/dhm.c **** static const size_t mbedtls_test_dhm_params_len = sizeof( mbedtls_test_dhm_params );
 624:Source\mbedtls_open\library/dhm.c **** 
 625:Source\mbedtls_open\library/dhm.c **** /*
ARM GAS  C:\Users\Phuong\AppData\Local\Temp\ccQXToeg.s 			page 44


 626:Source\mbedtls_open\library/dhm.c ****  * Checkup routine
 627:Source\mbedtls_open\library/dhm.c ****  */
 628:Source\mbedtls_open\library/dhm.c **** int mbedtls_dhm_self_test( int verbose )
 629:Source\mbedtls_open\library/dhm.c **** {
 1727              		.loc 1 629 0
 1728              		.cfi_startproc
 1729              		@ args = 0, pretend = 0, frame = 128
 1730              		@ frame_needed = 0, uses_anonymous_args = 0
 1731              	.LVL297:
 1732 0000 30B5     		push	{r4, r5, lr}
 1733              		.cfi_def_cfa_offset 12
 1734              		.cfi_offset 4, -12
 1735              		.cfi_offset 5, -8
 1736              		.cfi_offset 14, -4
 1737 0002 A1B0     		sub	sp, sp, #132
 1738              		.cfi_def_cfa_offset 144
 1739 0004 0500     		movs	r5, r0
 630:Source\mbedtls_open\library/dhm.c ****     int ret;
 631:Source\mbedtls_open\library/dhm.c ****     mbedtls_dhm_context dhm;
 632:Source\mbedtls_open\library/dhm.c **** 
 633:Source\mbedtls_open\library/dhm.c ****     mbedtls_dhm_init( &dhm );
 1740              		.loc 1 633 0
 1741 0006 01A8     		add	r0, sp, #4
 1742              	.LVL298:
 1743 0008 FFF7FEFF 		bl	mbedtls_dhm_init
 1744              	.LVL299:
 634:Source\mbedtls_open\library/dhm.c **** 
 635:Source\mbedtls_open\library/dhm.c ****     if( verbose != 0 )
 1745              		.loc 1 635 0
 1746 000c 002D     		cmp	r5, #0
 1747 000e 02D0     		beq	.L119
 636:Source\mbedtls_open\library/dhm.c ****         mbedtls_printf( "  DHM parameter load: " );
 1748              		.loc 1 636 0
 1749 0010 0E48     		ldr	r0, .L123
 1750 0012 FFF7FEFF 		bl	printf
 1751              	.LVL300:
 1752              	.L119:
 637:Source\mbedtls_open\library/dhm.c **** 
 638:Source\mbedtls_open\library/dhm.c ****     if( ( ret = mbedtls_dhm_parse_dhm( &dhm,
 1753              		.loc 1 638 0
 1754 0016 FB22     		movs	r2, #251
 1755 0018 0D49     		ldr	r1, .L123+4
 1756 001a 01A8     		add	r0, sp, #4
 1757 001c FFF7FEFF 		bl	mbedtls_dhm_parse_dhm
 1758              	.LVL301:
 1759 0020 041E     		subs	r4, r0, #0
 1760              	.LVL302:
 1761 0022 06D0     		beq	.L120
 639:Source\mbedtls_open\library/dhm.c ****                     (const unsigned char *) mbedtls_test_dhm_params,
 640:Source\mbedtls_open\library/dhm.c ****                     mbedtls_test_dhm_params_len ) ) != 0 )
 641:Source\mbedtls_open\library/dhm.c ****     {
 642:Source\mbedtls_open\library/dhm.c ****         if( verbose != 0 )
 1762              		.loc 1 642 0
 1763 0024 002D     		cmp	r5, #0
 1764 0026 0AD0     		beq	.L122
 643:Source\mbedtls_open\library/dhm.c ****             mbedtls_printf( "failed\n" );
 1765              		.loc 1 643 0
ARM GAS  C:\Users\Phuong\AppData\Local\Temp\ccQXToeg.s 			page 45


 1766 0028 0A48     		ldr	r0, .L123+8
 1767              	.LVL303:
 1768 002a FFF7FEFF 		bl	puts
 1769              	.LVL304:
 644:Source\mbedtls_open\library/dhm.c **** 
 645:Source\mbedtls_open\library/dhm.c ****         ret = 1;
 1770              		.loc 1 645 0
 1771 002e 0124     		movs	r4, #1
 1772              	.LVL305:
 1773 0030 06E0     		b	.L121
 1774              	.LVL306:
 1775              	.L120:
 646:Source\mbedtls_open\library/dhm.c ****         goto exit;
 647:Source\mbedtls_open\library/dhm.c ****     }
 648:Source\mbedtls_open\library/dhm.c **** 
 649:Source\mbedtls_open\library/dhm.c ****     if( verbose != 0 )
 1776              		.loc 1 649 0
 1777 0032 002D     		cmp	r5, #0
 1778 0034 04D0     		beq	.L121
 650:Source\mbedtls_open\library/dhm.c ****         mbedtls_printf( "passed\n\n" );
 1779              		.loc 1 650 0
 1780 0036 0848     		ldr	r0, .L123+12
 1781              	.LVL307:
 1782 0038 FFF7FEFF 		bl	puts
 1783              	.LVL308:
 1784 003c 00E0     		b	.L121
 1785              	.LVL309:
 1786              	.L122:
 645:Source\mbedtls_open\library/dhm.c ****         goto exit;
 1787              		.loc 1 645 0
 1788 003e 0124     		movs	r4, #1
 1789              	.LVL310:
 1790              	.L121:
 651:Source\mbedtls_open\library/dhm.c **** 
 652:Source\mbedtls_open\library/dhm.c **** exit:
 653:Source\mbedtls_open\library/dhm.c ****     mbedtls_dhm_free( &dhm );
 1791              		.loc 1 653 0
 1792 0040 01A8     		add	r0, sp, #4
 1793 0042 FFF7FEFF 		bl	mbedtls_dhm_free
 1794              	.LVL311:
 654:Source\mbedtls_open\library/dhm.c **** 
 655:Source\mbedtls_open\library/dhm.c ****     return( ret );
 656:Source\mbedtls_open\library/dhm.c **** }
 1795              		.loc 1 656 0
 1796 0046 2000     		movs	r0, r4
 1797 0048 21B0     		add	sp, sp, #132
 1798              		@ sp needed
 1799              	.LVL312:
 1800              	.LVL313:
 1801 004a 30BD     		pop	{r4, r5, pc}
 1802              	.L124:
 1803              		.align	2
 1804              	.L123:
 1805 004c 3C000000 		.word	.LC4
 1806 0050 00000000 		.word	.LANCHOR0
 1807 0054 54000000 		.word	.LC7
 1808 0058 5C000000 		.word	.LC9
ARM GAS  C:\Users\Phuong\AppData\Local\Temp\ccQXToeg.s 			page 46


 1809              		.cfi_endproc
 1810              	.LFE13:
 1811              		.size	mbedtls_dhm_self_test, .-mbedtls_dhm_self_test
 1812              		.section	.rodata
 1813              		.align	2
 1814              		.set	.LANCHOR0,. + 0
 1815              		.type	mbedtls_test_dhm_params, %object
 1816              		.size	mbedtls_test_dhm_params, 251
 1817              	mbedtls_test_dhm_params:
 1818 0000 2D2D2D2D 		.ascii	"-----BEGIN DH PARAMETERS-----\015\012MIGHAoGBAJ419D"
 1818      2D424547 
 1818      494E2044 
 1818      48205041 
 1818      52414D45 
 1819 002d 42454F67 		.ascii	"BEOgmQTzo5qXl5fQcN9TN455wkOL7052HzxxRVMyhYmwQcgJvh\015"
 1819      6D51547A 
 1819      6F357158 
 1819      6C356651 
 1819      634E3954 
 1820 0060 0A317361 		.ascii	"\0121sa18fyfR9OiVEMYglOpkqVoGLN7qd5aQNNi5W7/C+VBdHT"
 1820      31386679 
 1820      6652394F 
 1820      6956454D 
 1820      59676C4F 
 1821 0090 424A6347 		.ascii	"BJcGZJyyP5B3qcz32\015\0129mLJKudlVudV0Qxk5qUJaPZ/xu"
 1821      5A4A7979 
 1821      50354233 
 1821      71637A33 
 1821      320D0A39 
 1822 00bd 707A304E 		.ascii	"pz0NyoVpviuiBOI1gNi8ovSXWzAgEC\015\012-----END DH P"
 1822      796F5670 
 1822      76697569 
 1822      424F4931 
 1822      674E6938 
 1823 00ea 4152414D 		.ascii	"ARAMETERS-----\015\012\000"
 1823      45544552 
 1823      532D2D2D 
 1823      2D2D0D0A 
 1823      00
 1824              		.section	.rodata.str1.4,"aMS",%progbits,1
 1825              		.align	2
 1826              	.LC0:
 1827 0000 2D2D2D2D 		.ascii	"-----END DH PARAMETERS-----\000"
 1827      2D454E44 
 1827      20444820 
 1827      50415241 
 1827      4D455445 
 1828              	.LC2:
 1829 001c 2D2D2D2D 		.ascii	"-----BEGIN DH PARAMETERS-----\000"
 1829      2D424547 
 1829      494E2044 
 1829      48205041 
 1829      52414D45 
 1830 003a 0000     		.space	2
 1831              	.LC4:
 1832 003c 20204448 		.ascii	"  DHM parameter load: \000"
 1832      4D207061 
ARM GAS  C:\Users\Phuong\AppData\Local\Temp\ccQXToeg.s 			page 47


 1832      72616D65 
 1832      74657220 
 1832      6C6F6164 
 1833 0053 00       		.space	1
 1834              	.LC7:
 1835 0054 6661696C 		.ascii	"failed\000"
 1835      656400
 1836 005b 00       		.space	1
 1837              	.LC9:
 1838 005c 70617373 		.ascii	"passed\012\000"
 1838      65640A00 
 1839              		.text
 1840              	.Letext0:
 1841              		.file 2 "c:\\program files (x86)\\cypress\\psoc creator\\4.2\\psoc creator\\import\\gnu\\arm\\5.4.
 1842              		.file 3 "c:\\program files (x86)\\cypress\\psoc creator\\4.2\\psoc creator\\import\\gnu\\arm\\5.4.
 1843              		.file 4 "c:\\program files (x86)\\cypress\\psoc creator\\4.2\\psoc creator\\import\\gnu\\arm\\5.4.
 1844              		.file 5 ".\\Source\\mbedtls_open\\include/mbedtls/bignum.h"
 1845              		.file 6 ".\\Source\\mbedtls_open\\include/mbedtls/dhm.h"
 1846              		.file 7 ".\\Source\\mbedtls_open\\include/mbedtls/pem.h"
 1847              		.file 8 ".\\Source\\mbedtls_open\\include/mbedtls/platform_util.h"
 1848              		.file 9 ".\\Source\\mbedtls_open\\include/mbedtls/asn1.h"
 1849              		.file 10 "c:\\program files (x86)\\cypress\\psoc creator\\4.2\\psoc creator\\import\\gnu\\arm\\5.4
 1850              		.file 11 "<built-in>"