ARM GAS  C:\Users\Phuong\AppData\Local\Temp\ccQXToeg.s 			page 1


   1              		.syntax unified
   2              		.cpu cortex-m0plus
   3              		.fpu softvfp
   4              		.eabi_attribute 20, 1
   5              		.eabi_attribute 21, 1
   6              		.eabi_attribute 23, 3
   7              		.eabi_attribute 24, 1
   8              		.eabi_attribute 25, 1
   9              		.eabi_attribute 26, 1
  10              		.eabi_attribute 30, 1
  11              		.eabi_attribute 34, 0
  12              		.eabi_attribute 18, 4
  13              		.thumb
  14              		.syntax unified
  15              		.file	"dhm.c"
  16              		.text
  17              	.Ltext0:
  18              		.cfi_sections	.debug_frame
  19              		.section	.text.dhm_read_bignum,"ax",%progbits
  20              		.align	2
  21              		.code	16
  22              		.thumb_func
  23              		.type	dhm_read_bignum, %function
  24              	dhm_read_bignum:
  25              	.LFB1:
  26              		.file 1 "Source\\mbedtls_open\\library\\dhm.c"
   1:Source\mbedtls_open\library/dhm.c **** /*
   2:Source\mbedtls_open\library/dhm.c ****  *  Diffie-Hellman-Merkle key exchange
   3:Source\mbedtls_open\library/dhm.c ****  *
   4:Source\mbedtls_open\library/dhm.c ****  *  Copyright (C) 2006-2015, ARM Limited, All Rights Reserved
   5:Source\mbedtls_open\library/dhm.c ****  *  SPDX-License-Identifier: Apache-2.0
   6:Source\mbedtls_open\library/dhm.c ****  *
   7:Source\mbedtls_open\library/dhm.c ****  *  Licensed under the Apache License, Version 2.0 (the "License"); you may
   8:Source\mbedtls_open\library/dhm.c ****  *  not use this file except in compliance with the License.
   9:Source\mbedtls_open\library/dhm.c ****  *  You may obtain a copy of the License at
  10:Source\mbedtls_open\library/dhm.c ****  *
  11:Source\mbedtls_open\library/dhm.c ****  *  http://www.apache.org/licenses/LICENSE-2.0
  12:Source\mbedtls_open\library/dhm.c ****  *
  13:Source\mbedtls_open\library/dhm.c ****  *  Unless required by applicable law or agreed to in writing, software
  14:Source\mbedtls_open\library/dhm.c ****  *  distributed under the License is distributed on an "AS IS" BASIS, WITHOUT
  15:Source\mbedtls_open\library/dhm.c ****  *  WARRANTIES OR CONDITIONS OF ANY KIND, either express or implied.
  16:Source\mbedtls_open\library/dhm.c ****  *  See the License for the specific language governing permissions and
  17:Source\mbedtls_open\library/dhm.c ****  *  limitations under the License.
  18:Source\mbedtls_open\library/dhm.c ****  *
  19:Source\mbedtls_open\library/dhm.c ****  *  This file is part of mbed TLS (https://tls.mbed.org)
  20:Source\mbedtls_open\library/dhm.c ****  */
  21:Source\mbedtls_open\library/dhm.c **** /*
  22:Source\mbedtls_open\library/dhm.c ****  *  The following sources were referenced in the design of this implementation
  23:Source\mbedtls_open\library/dhm.c ****  *  of the Diffie-Hellman-Merkle algorithm:
  24:Source\mbedtls_open\library/dhm.c ****  *
  25:Source\mbedtls_open\library/dhm.c ****  *  [1] Handbook of Applied Cryptography - 1997, Chapter 12
  26:Source\mbedtls_open\library/dhm.c ****  *      Menezes, van Oorschot and Vanstone
  27:Source\mbedtls_open\library/dhm.c ****  *
  28:Source\mbedtls_open\library/dhm.c ****  */
  29:Source\mbedtls_open\library/dhm.c **** 
  30:Source\mbedtls_open\library/dhm.c **** #if !defined(MBEDTLS_CONFIG_FILE)
  31:Source\mbedtls_open\library/dhm.c **** #include "mbedtls/config.h"
ARM GAS  C:\Users\Phuong\AppData\Local\Temp\ccQXToeg.s 			page 2


  32:Source\mbedtls_open\library/dhm.c **** #else
  33:Source\mbedtls_open\library/dhm.c **** #include MBEDTLS_CONFIG_FILE
  34:Source\mbedtls_open\library/dhm.c **** #endif
  35:Source\mbedtls_open\library/dhm.c **** 
  36:Source\mbedtls_open\library/dhm.c **** #if defined(MBEDTLS_DHM_C)
  37:Source\mbedtls_open\library/dhm.c **** 
  38:Source\mbedtls_open\library/dhm.c **** #include "mbedtls/dhm.h"
  39:Source\mbedtls_open\library/dhm.c **** #include "mbedtls/platform_util.h"
  40:Source\mbedtls_open\library/dhm.c **** 
  41:Source\mbedtls_open\library/dhm.c **** #include <string.h>
  42:Source\mbedtls_open\library/dhm.c **** 
  43:Source\mbedtls_open\library/dhm.c **** #if defined(MBEDTLS_PEM_PARSE_C)
  44:Source\mbedtls_open\library/dhm.c **** #include "mbedtls/pem.h"
  45:Source\mbedtls_open\library/dhm.c **** #endif
  46:Source\mbedtls_open\library/dhm.c **** 
  47:Source\mbedtls_open\library/dhm.c **** #if defined(MBEDTLS_ASN1_PARSE_C)
  48:Source\mbedtls_open\library/dhm.c **** #include "mbedtls/asn1.h"
  49:Source\mbedtls_open\library/dhm.c **** #endif
  50:Source\mbedtls_open\library/dhm.c **** 
  51:Source\mbedtls_open\library/dhm.c **** #if defined(MBEDTLS_PLATFORM_C)
  52:Source\mbedtls_open\library/dhm.c **** #include "mbedtls/platform.h"
  53:Source\mbedtls_open\library/dhm.c **** #else
  54:Source\mbedtls_open\library/dhm.c **** #include <stdlib.h>
  55:Source\mbedtls_open\library/dhm.c **** #include <stdio.h>
  56:Source\mbedtls_open\library/dhm.c **** #define mbedtls_printf     printf
  57:Source\mbedtls_open\library/dhm.c **** #define mbedtls_calloc    calloc
  58:Source\mbedtls_open\library/dhm.c **** #define mbedtls_free       free
  59:Source\mbedtls_open\library/dhm.c **** #endif
  60:Source\mbedtls_open\library/dhm.c **** 
  61:Source\mbedtls_open\library/dhm.c **** #if !defined(MBEDTLS_DHM_ALT)
  62:Source\mbedtls_open\library/dhm.c **** 
  63:Source\mbedtls_open\library/dhm.c **** /*
  64:Source\mbedtls_open\library/dhm.c ****  * helper to validate the mbedtls_mpi size and import it
  65:Source\mbedtls_open\library/dhm.c ****  */
  66:Source\mbedtls_open\library/dhm.c **** static int dhm_read_bignum( mbedtls_mpi *X,
  67:Source\mbedtls_open\library/dhm.c ****                             unsigned char **p,
  68:Source\mbedtls_open\library/dhm.c ****                             const unsigned char *end )
  69:Source\mbedtls_open\library/dhm.c **** {
  27              		.loc 1 69 0
  28              		.cfi_startproc
  29              		@ args = 0, pretend = 0, frame = 0
  30              		@ frame_needed = 0, uses_anonymous_args = 0
  31              	.LVL0:
  32 0000 70B5     		push	{r4, r5, r6, lr}
  33              		.cfi_def_cfa_offset 16
  34              		.cfi_offset 4, -16
  35              		.cfi_offset 5, -12
  36              		.cfi_offset 6, -8
  37              		.cfi_offset 14, -4
  38 0002 0D00     		movs	r5, r1
  70:Source\mbedtls_open\library/dhm.c ****     int ret, n;
  71:Source\mbedtls_open\library/dhm.c **** 
  72:Source\mbedtls_open\library/dhm.c ****     if( end - *p < 2 )
  39              		.loc 1 72 0
  40 0004 0968     		ldr	r1, [r1]
  41              	.LVL1:
  42 0006 531A     		subs	r3, r2, r1
ARM GAS  C:\Users\Phuong\AppData\Local\Temp\ccQXToeg.s 			page 3


  43 0008 012B     		cmp	r3, #1
  44 000a 17DD     		ble	.L4
  73:Source\mbedtls_open\library/dhm.c ****         return( MBEDTLS_ERR_DHM_BAD_INPUT_DATA );
  74:Source\mbedtls_open\library/dhm.c **** 
  75:Source\mbedtls_open\library/dhm.c ****     n = ( (*p)[0] << 8 ) | (*p)[1];
  45              		.loc 1 75 0
  46 000c 0C78     		ldrb	r4, [r1]
  47 000e 2402     		lsls	r4, r4, #8
  48 0010 4B78     		ldrb	r3, [r1, #1]
  49 0012 1C43     		orrs	r4, r3
  50              	.LVL2:
  76:Source\mbedtls_open\library/dhm.c ****     (*p) += 2;
  51              		.loc 1 76 0
  52 0014 0231     		adds	r1, r1, #2
  53 0016 2960     		str	r1, [r5]
  77:Source\mbedtls_open\library/dhm.c **** 
  78:Source\mbedtls_open\library/dhm.c ****     if( (int)( end - *p ) < n )
  54              		.loc 1 78 0
  55 0018 521A     		subs	r2, r2, r1
  56              	.LVL3:
  57 001a 9442     		cmp	r4, r2
  58 001c 10DC     		bgt	.L5
  79:Source\mbedtls_open\library/dhm.c ****         return( MBEDTLS_ERR_DHM_BAD_INPUT_DATA );
  80:Source\mbedtls_open\library/dhm.c **** 
  81:Source\mbedtls_open\library/dhm.c ****     if( ( ret = mbedtls_mpi_read_binary( X, *p, n ) ) != 0 )
  59              		.loc 1 81 0
  60 001e 2200     		movs	r2, r4
  61 0020 FFF7FEFF 		bl	mbedtls_mpi_read_binary
  62              	.LVL4:
  63 0024 0028     		cmp	r0, #0
  64 0026 03D0     		beq	.L3
  82:Source\mbedtls_open\library/dhm.c ****         return( MBEDTLS_ERR_DHM_READ_PARAMS_FAILED + ret );
  65              		.loc 1 82 0
  66 0028 064B     		ldr	r3, .L6
  67 002a 9C46     		mov	ip, r3
  68 002c 6044     		add	r0, r0, ip
  69              	.LVL5:
  70 002e 08E0     		b	.L2
  71              	.LVL6:
  72              	.L3:
  83:Source\mbedtls_open\library/dhm.c **** 
  84:Source\mbedtls_open\library/dhm.c ****     (*p) += n;
  73              		.loc 1 84 0
  74 0030 2B68     		ldr	r3, [r5]
  75 0032 9C46     		mov	ip, r3
  76 0034 6444     		add	r4, r4, ip
  77              	.LVL7:
  78 0036 2C60     		str	r4, [r5]
  85:Source\mbedtls_open\library/dhm.c **** 
  86:Source\mbedtls_open\library/dhm.c ****     return( 0 );
  79              		.loc 1 86 0
  80 0038 0020     		movs	r0, #0
  81              	.LVL8:
  82 003a 02E0     		b	.L2
  83              	.LVL9:
  84              	.L4:
  73:Source\mbedtls_open\library/dhm.c **** 
ARM GAS  C:\Users\Phuong\AppData\Local\Temp\ccQXToeg.s 			page 4


  85              		.loc 1 73 0
  86 003c 0248     		ldr	r0, .L6+4
  87              	.LVL10:
  88 003e 00E0     		b	.L2
  89              	.LVL11:
  90              	.L5:
  79:Source\mbedtls_open\library/dhm.c **** 
  91              		.loc 1 79 0
  92 0040 0148     		ldr	r0, .L6+4
  93              	.LVL12:
  94              	.L2:
  87:Source\mbedtls_open\library/dhm.c **** }
  95              		.loc 1 87 0
  96              		@ sp needed
  97              	.LVL13:
  98 0042 70BD     		pop	{r4, r5, r6, pc}
  99              	.L7:
 100              		.align	2
 101              	.L6:
 102 0044 00CFFFFF 		.word	-12544
 103 0048 80CFFFFF 		.word	-12416
 104              		.cfi_endproc
 105              	.LFE1:
 106              		.size	dhm_read_bignum, .-dhm_read_bignum
 107              		.section	.text.dhm_check_range,"ax",%progbits
 108              		.align	2
 109              		.code	16
 110              		.thumb_func
 111              		.type	dhm_check_range, %function
 112              	dhm_check_range:
 113              	.LFB2:
  88:Source\mbedtls_open\library/dhm.c **** 
  89:Source\mbedtls_open\library/dhm.c **** /*
  90:Source\mbedtls_open\library/dhm.c ****  * Verify sanity of parameter with regards to P
  91:Source\mbedtls_open\library/dhm.c ****  *
  92:Source\mbedtls_open\library/dhm.c ****  * Parameter should be: 2 <= public_param <= P - 2
  93:Source\mbedtls_open\library/dhm.c ****  *
  94:Source\mbedtls_open\library/dhm.c ****  * This means that we need to return an error if
  95:Source\mbedtls_open\library/dhm.c ****  *              public_param < 2 or public_param > P-2
  96:Source\mbedtls_open\library/dhm.c ****  *
  97:Source\mbedtls_open\library/dhm.c ****  * For more information on the attack, see:
  98:Source\mbedtls_open\library/dhm.c ****  *  http://www.cl.cam.ac.uk/~rja14/Papers/psandqs.pdf
  99:Source\mbedtls_open\library/dhm.c ****  *  http://web.nvd.nist.gov/view/vuln/detail?vulnId=CVE-2005-2643
 100:Source\mbedtls_open\library/dhm.c ****  */
 101:Source\mbedtls_open\library/dhm.c **** static int dhm_check_range( const mbedtls_mpi *param, const mbedtls_mpi *P )
 102:Source\mbedtls_open\library/dhm.c **** {
 114              		.loc 1 102 0
 115              		.cfi_startproc
 116              		@ args = 0, pretend = 0, frame = 24
 117              		@ frame_needed = 0, uses_anonymous_args = 0
 118              	.LVL14:
 119 0000 70B5     		push	{r4, r5, r6, lr}
 120              		.cfi_def_cfa_offset 16
 121              		.cfi_offset 4, -16
 122              		.cfi_offset 5, -12
 123              		.cfi_offset 6, -8
 124              		.cfi_offset 14, -4
ARM GAS  C:\Users\Phuong\AppData\Local\Temp\ccQXToeg.s 			page 5


 125 0002 86B0     		sub	sp, sp, #24
 126              		.cfi_def_cfa_offset 40
 127 0004 0600     		movs	r6, r0
 128 0006 0D00     		movs	r5, r1
 129              	.LVL15:
 103:Source\mbedtls_open\library/dhm.c ****     mbedtls_mpi L, U;
 104:Source\mbedtls_open\library/dhm.c ****     int ret = 0;
 105:Source\mbedtls_open\library/dhm.c **** 
 106:Source\mbedtls_open\library/dhm.c ****     mbedtls_mpi_init( &L ); mbedtls_mpi_init( &U );
 130              		.loc 1 106 0
 131 0008 03A8     		add	r0, sp, #12
 132              	.LVL16:
 133 000a FFF7FEFF 		bl	mbedtls_mpi_init
 134              	.LVL17:
 135 000e 6846     		mov	r0, sp
 136 0010 FFF7FEFF 		bl	mbedtls_mpi_init
 137              	.LVL18:
 107:Source\mbedtls_open\library/dhm.c **** 
 108:Source\mbedtls_open\library/dhm.c ****     MBEDTLS_MPI_CHK( mbedtls_mpi_lset( &L, 2 ) );
 138              		.loc 1 108 0
 139 0014 0221     		movs	r1, #2
 140 0016 03A8     		add	r0, sp, #12
 141 0018 FFF7FEFF 		bl	mbedtls_mpi_lset
 142              	.LVL19:
 143 001c 041E     		subs	r4, r0, #0
 144              	.LVL20:
 145 001e 16D1     		bne	.L9
 109:Source\mbedtls_open\library/dhm.c ****     MBEDTLS_MPI_CHK( mbedtls_mpi_sub_int( &U, P, 2 ) );
 146              		.loc 1 109 0
 147 0020 0222     		movs	r2, #2
 148 0022 2900     		movs	r1, r5
 149 0024 6846     		mov	r0, sp
 150              	.LVL21:
 151 0026 FFF7FEFF 		bl	mbedtls_mpi_sub_int
 152              	.LVL22:
 153 002a 041E     		subs	r4, r0, #0
 154              	.LVL23:
 155 002c 0FD1     		bne	.L9
 110:Source\mbedtls_open\library/dhm.c **** 
 111:Source\mbedtls_open\library/dhm.c ****     if( mbedtls_mpi_cmp_mpi( param, &L ) < 0 ||
 156              		.loc 1 111 0
 157 002e 03A9     		add	r1, sp, #12
 158 0030 3000     		movs	r0, r6
 159              	.LVL24:
 160 0032 FFF7FEFF 		bl	mbedtls_mpi_cmp_mpi
 161              	.LVL25:
 162 0036 0028     		cmp	r0, #0
 163 0038 06DB     		blt	.L10
 112:Source\mbedtls_open\library/dhm.c ****         mbedtls_mpi_cmp_mpi( param, &U ) > 0 )
 164              		.loc 1 112 0 discriminator 1
 165 003a 6946     		mov	r1, sp
 166 003c 3000     		movs	r0, r6
 167 003e FFF7FEFF 		bl	mbedtls_mpi_cmp_mpi
 168              	.LVL26:
 111:Source\mbedtls_open\library/dhm.c ****         mbedtls_mpi_cmp_mpi( param, &U ) > 0 )
 169              		.loc 1 111 0 discriminator 1
 170 0042 0028     		cmp	r0, #0
ARM GAS  C:\Users\Phuong\AppData\Local\Temp\ccQXToeg.s 			page 6


 171 0044 03DD     		ble	.L9
 172 0046 01E0     		b	.L11
 173              	.L10:
 113:Source\mbedtls_open\library/dhm.c ****     {
 114:Source\mbedtls_open\library/dhm.c ****         ret = MBEDTLS_ERR_DHM_BAD_INPUT_DATA;
 174              		.loc 1 114 0
 175 0048 054C     		ldr	r4, .L12
 176              	.LVL27:
 177 004a 00E0     		b	.L9
 178              	.LVL28:
 179              	.L11:
 180 004c 044C     		ldr	r4, .L12
 181              	.LVL29:
 182              	.L9:
 115:Source\mbedtls_open\library/dhm.c ****     }
 116:Source\mbedtls_open\library/dhm.c **** 
 117:Source\mbedtls_open\library/dhm.c **** cleanup:
 118:Source\mbedtls_open\library/dhm.c ****     mbedtls_mpi_free( &L ); mbedtls_mpi_free( &U );
 183              		.loc 1 118 0
 184 004e 03A8     		add	r0, sp, #12
 185 0050 FFF7FEFF 		bl	mbedtls_mpi_free
 186              	.LVL30:
 187 0054 6846     		mov	r0, sp
 188 0056 FFF7FEFF 		bl	mbedtls_mpi_free
 189              	.LVL31:
 119:Source\mbedtls_open\library/dhm.c ****     return( ret );
 120:Source\mbedtls_open\library/dhm.c **** }
 190              		.loc 1 120 0
 191 005a 2000     		movs	r0, r4
 192 005c 06B0     		add	sp, sp, #24
 193              		@ sp needed
 194              	.LVL32:
 195              	.LVL33:
 196              	.LVL34:
 197 005e 70BD     		pop	{r4, r5, r6, pc}
 198              	.L13:
 199              		.align	2
 200              	.L12:
 201 0060 80CFFFFF 		.word	-12416
 202              		.cfi_endproc
 203              	.LFE2:
 204              		.size	dhm_check_range, .-dhm_check_range
 205              		.section	.text.dhm_update_blinding,"ax",%progbits
 206              		.align	2
 207              		.code	16
 208              		.thumb_func
 209              		.type	dhm_update_blinding, %function
 210              	dhm_update_blinding:
 211              	.LFB9:
 121:Source\mbedtls_open\library/dhm.c **** 
 122:Source\mbedtls_open\library/dhm.c **** void mbedtls_dhm_init( mbedtls_dhm_context *ctx )
 123:Source\mbedtls_open\library/dhm.c **** {
 124:Source\mbedtls_open\library/dhm.c ****     memset( ctx, 0, sizeof( mbedtls_dhm_context ) );
 125:Source\mbedtls_open\library/dhm.c **** }
 126:Source\mbedtls_open\library/dhm.c **** 
 127:Source\mbedtls_open\library/dhm.c **** /*
 128:Source\mbedtls_open\library/dhm.c ****  * Parse the ServerKeyExchange parameters
ARM GAS  C:\Users\Phuong\AppData\Local\Temp\ccQXToeg.s 			page 7


 129:Source\mbedtls_open\library/dhm.c ****  */
 130:Source\mbedtls_open\library/dhm.c **** int mbedtls_dhm_read_params( mbedtls_dhm_context *ctx,
 131:Source\mbedtls_open\library/dhm.c ****                      unsigned char **p,
 132:Source\mbedtls_open\library/dhm.c ****                      const unsigned char *end )
 133:Source\mbedtls_open\library/dhm.c **** {
 134:Source\mbedtls_open\library/dhm.c ****     int ret;
 135:Source\mbedtls_open\library/dhm.c **** 
 136:Source\mbedtls_open\library/dhm.c ****     if( ( ret = dhm_read_bignum( &ctx->P,  p, end ) ) != 0 ||
 137:Source\mbedtls_open\library/dhm.c ****         ( ret = dhm_read_bignum( &ctx->G,  p, end ) ) != 0 ||
 138:Source\mbedtls_open\library/dhm.c ****         ( ret = dhm_read_bignum( &ctx->GY, p, end ) ) != 0 )
 139:Source\mbedtls_open\library/dhm.c ****         return( ret );
 140:Source\mbedtls_open\library/dhm.c **** 
 141:Source\mbedtls_open\library/dhm.c ****     if( ( ret = dhm_check_range( &ctx->GY, &ctx->P ) ) != 0 )
 142:Source\mbedtls_open\library/dhm.c ****         return( ret );
 143:Source\mbedtls_open\library/dhm.c **** 
 144:Source\mbedtls_open\library/dhm.c ****     ctx->len = mbedtls_mpi_size( &ctx->P );
 145:Source\mbedtls_open\library/dhm.c **** 
 146:Source\mbedtls_open\library/dhm.c ****     return( 0 );
 147:Source\mbedtls_open\library/dhm.c **** }
 148:Source\mbedtls_open\library/dhm.c **** 
 149:Source\mbedtls_open\library/dhm.c **** /*
 150:Source\mbedtls_open\library/dhm.c ****  * Setup and write the ServerKeyExchange parameters
 151:Source\mbedtls_open\library/dhm.c ****  */
 152:Source\mbedtls_open\library/dhm.c **** int mbedtls_dhm_make_params( mbedtls_dhm_context *ctx, int x_size,
 153:Source\mbedtls_open\library/dhm.c ****                      unsigned char *output, size_t *olen,
 154:Source\mbedtls_open\library/dhm.c ****                      int (*f_rng)(void *, unsigned char *, size_t),
 155:Source\mbedtls_open\library/dhm.c ****                      void *p_rng )
 156:Source\mbedtls_open\library/dhm.c **** {
 157:Source\mbedtls_open\library/dhm.c ****     int ret, count = 0;
 158:Source\mbedtls_open\library/dhm.c ****     size_t n1, n2, n3;
 159:Source\mbedtls_open\library/dhm.c ****     unsigned char *p;
 160:Source\mbedtls_open\library/dhm.c **** 
 161:Source\mbedtls_open\library/dhm.c ****     if( mbedtls_mpi_cmp_int( &ctx->P, 0 ) == 0 )
 162:Source\mbedtls_open\library/dhm.c ****         return( MBEDTLS_ERR_DHM_BAD_INPUT_DATA );
 163:Source\mbedtls_open\library/dhm.c **** 
 164:Source\mbedtls_open\library/dhm.c ****     /*
 165:Source\mbedtls_open\library/dhm.c ****      * Generate X as large as possible ( < P )
 166:Source\mbedtls_open\library/dhm.c ****      */
 167:Source\mbedtls_open\library/dhm.c ****     do
 168:Source\mbedtls_open\library/dhm.c ****     {
 169:Source\mbedtls_open\library/dhm.c ****         MBEDTLS_MPI_CHK( mbedtls_mpi_fill_random( &ctx->X, x_size, f_rng, p_rng ) );
 170:Source\mbedtls_open\library/dhm.c **** 
 171:Source\mbedtls_open\library/dhm.c ****         while( mbedtls_mpi_cmp_mpi( &ctx->X, &ctx->P ) >= 0 )
 172:Source\mbedtls_open\library/dhm.c ****             MBEDTLS_MPI_CHK( mbedtls_mpi_shift_r( &ctx->X, 1 ) );
 173:Source\mbedtls_open\library/dhm.c **** 
 174:Source\mbedtls_open\library/dhm.c ****         if( count++ > 10 )
 175:Source\mbedtls_open\library/dhm.c ****             return( MBEDTLS_ERR_DHM_MAKE_PARAMS_FAILED );
 176:Source\mbedtls_open\library/dhm.c ****     }
 177:Source\mbedtls_open\library/dhm.c ****     while( dhm_check_range( &ctx->X, &ctx->P ) != 0 );
 178:Source\mbedtls_open\library/dhm.c **** 
 179:Source\mbedtls_open\library/dhm.c ****     /*
 180:Source\mbedtls_open\library/dhm.c ****      * Calculate GX = G^X mod P
 181:Source\mbedtls_open\library/dhm.c ****      */
 182:Source\mbedtls_open\library/dhm.c ****     MBEDTLS_MPI_CHK( mbedtls_mpi_exp_mod( &ctx->GX, &ctx->G, &ctx->X,
 183:Source\mbedtls_open\library/dhm.c ****                           &ctx->P , &ctx->RP ) );
 184:Source\mbedtls_open\library/dhm.c **** 
 185:Source\mbedtls_open\library/dhm.c ****     if( ( ret = dhm_check_range( &ctx->GX, &ctx->P ) ) != 0 )
ARM GAS  C:\Users\Phuong\AppData\Local\Temp\ccQXToeg.s 			page 8


 186:Source\mbedtls_open\library/dhm.c ****         return( ret );
 187:Source\mbedtls_open\library/dhm.c **** 
 188:Source\mbedtls_open\library/dhm.c ****     /*
 189:Source\mbedtls_open\library/dhm.c ****      * export P, G, GX
 190:Source\mbedtls_open\library/dhm.c ****      */
 191:Source\mbedtls_open\library/dhm.c **** #define DHM_MPI_EXPORT( X, n )                                          \
 192:Source\mbedtls_open\library/dhm.c ****     do {                                                                \
 193:Source\mbedtls_open\library/dhm.c ****         MBEDTLS_MPI_CHK( mbedtls_mpi_write_binary( ( X ),               \
 194:Source\mbedtls_open\library/dhm.c ****                                                    p + 2,               \
 195:Source\mbedtls_open\library/dhm.c ****                                                    ( n ) ) );           \
 196:Source\mbedtls_open\library/dhm.c ****         *p++ = (unsigned char)( ( n ) >> 8 );                           \
 197:Source\mbedtls_open\library/dhm.c ****         *p++ = (unsigned char)( ( n )      );                           \
 198:Source\mbedtls_open\library/dhm.c ****         p += ( n );                                                     \
 199:Source\mbedtls_open\library/dhm.c ****     } while( 0 )
 200:Source\mbedtls_open\library/dhm.c **** 
 201:Source\mbedtls_open\library/dhm.c ****     n1 = mbedtls_mpi_size( &ctx->P  );
 202:Source\mbedtls_open\library/dhm.c ****     n2 = mbedtls_mpi_size( &ctx->G  );
 203:Source\mbedtls_open\library/dhm.c ****     n3 = mbedtls_mpi_size( &ctx->GX );
 204:Source\mbedtls_open\library/dhm.c **** 
 205:Source\mbedtls_open\library/dhm.c ****     p = output;
 206:Source\mbedtls_open\library/dhm.c ****     DHM_MPI_EXPORT( &ctx->P , n1 );
 207:Source\mbedtls_open\library/dhm.c ****     DHM_MPI_EXPORT( &ctx->G , n2 );
 208:Source\mbedtls_open\library/dhm.c ****     DHM_MPI_EXPORT( &ctx->GX, n3 );
 209:Source\mbedtls_open\library/dhm.c **** 
 210:Source\mbedtls_open\library/dhm.c ****     *olen = p - output;
 211:Source\mbedtls_open\library/dhm.c **** 
 212:Source\mbedtls_open\library/dhm.c ****     ctx->len = n1;
 213:Source\mbedtls_open\library/dhm.c **** 
 214:Source\mbedtls_open\library/dhm.c **** cleanup:
 215:Source\mbedtls_open\library/dhm.c **** 
 216:Source\mbedtls_open\library/dhm.c ****     if( ret != 0 )
 217:Source\mbedtls_open\library/dhm.c ****         return( MBEDTLS_ERR_DHM_MAKE_PARAMS_FAILED + ret );
 218:Source\mbedtls_open\library/dhm.c **** 
 219:Source\mbedtls_open\library/dhm.c ****     return( 0 );
 220:Source\mbedtls_open\library/dhm.c **** }
 221:Source\mbedtls_open\library/dhm.c **** 
 222:Source\mbedtls_open\library/dhm.c **** /*
 223:Source\mbedtls_open\library/dhm.c ****  * Set prime modulus and generator
 224:Source\mbedtls_open\library/dhm.c ****  */
 225:Source\mbedtls_open\library/dhm.c **** int mbedtls_dhm_set_group( mbedtls_dhm_context *ctx,
 226:Source\mbedtls_open\library/dhm.c ****                            const mbedtls_mpi *P,
 227:Source\mbedtls_open\library/dhm.c ****                            const mbedtls_mpi *G )
 228:Source\mbedtls_open\library/dhm.c **** {
 229:Source\mbedtls_open\library/dhm.c ****     int ret;
 230:Source\mbedtls_open\library/dhm.c **** 
 231:Source\mbedtls_open\library/dhm.c ****     if( ctx == NULL || P == NULL || G == NULL )
 232:Source\mbedtls_open\library/dhm.c ****         return( MBEDTLS_ERR_DHM_BAD_INPUT_DATA );
 233:Source\mbedtls_open\library/dhm.c **** 
 234:Source\mbedtls_open\library/dhm.c ****     if( ( ret = mbedtls_mpi_copy( &ctx->P, P ) ) != 0 ||
 235:Source\mbedtls_open\library/dhm.c ****         ( ret = mbedtls_mpi_copy( &ctx->G, G ) ) != 0 )
 236:Source\mbedtls_open\library/dhm.c ****     {
 237:Source\mbedtls_open\library/dhm.c ****         return( MBEDTLS_ERR_DHM_SET_GROUP_FAILED + ret );
 238:Source\mbedtls_open\library/dhm.c ****     }
 239:Source\mbedtls_open\library/dhm.c **** 
 240:Source\mbedtls_open\library/dhm.c ****     ctx->len = mbedtls_mpi_size( &ctx->P );
 241:Source\mbedtls_open\library/dhm.c ****     return( 0 );
 242:Source\mbedtls_open\library/dhm.c **** }
ARM GAS  C:\Users\Phuong\AppData\Local\Temp\ccQXToeg.s 			page 9


 243:Source\mbedtls_open\library/dhm.c **** 
 244:Source\mbedtls_open\library/dhm.c **** /*
 245:Source\mbedtls_open\library/dhm.c ****  * Import the peer's public value G^Y
 246:Source\mbedtls_open\library/dhm.c ****  */
 247:Source\mbedtls_open\library/dhm.c **** int mbedtls_dhm_read_public( mbedtls_dhm_context *ctx,
 248:Source\mbedtls_open\library/dhm.c ****                      const unsigned char *input, size_t ilen )
 249:Source\mbedtls_open\library/dhm.c **** {
 250:Source\mbedtls_open\library/dhm.c ****     int ret;
 251:Source\mbedtls_open\library/dhm.c **** 
 252:Source\mbedtls_open\library/dhm.c ****     if( ctx == NULL || ilen < 1 || ilen > ctx->len )
 253:Source\mbedtls_open\library/dhm.c ****         return( MBEDTLS_ERR_DHM_BAD_INPUT_DATA );
 254:Source\mbedtls_open\library/dhm.c **** 
 255:Source\mbedtls_open\library/dhm.c ****     if( ( ret = mbedtls_mpi_read_binary( &ctx->GY, input, ilen ) ) != 0 )
 256:Source\mbedtls_open\library/dhm.c ****         return( MBEDTLS_ERR_DHM_READ_PUBLIC_FAILED + ret );
 257:Source\mbedtls_open\library/dhm.c **** 
 258:Source\mbedtls_open\library/dhm.c ****     return( 0 );
 259:Source\mbedtls_open\library/dhm.c **** }
 260:Source\mbedtls_open\library/dhm.c **** 
 261:Source\mbedtls_open\library/dhm.c **** /*
 262:Source\mbedtls_open\library/dhm.c ****  * Create own private value X and export G^X
 263:Source\mbedtls_open\library/dhm.c ****  */
 264:Source\mbedtls_open\library/dhm.c **** int mbedtls_dhm_make_public( mbedtls_dhm_context *ctx, int x_size,
 265:Source\mbedtls_open\library/dhm.c ****                      unsigned char *output, size_t olen,
 266:Source\mbedtls_open\library/dhm.c ****                      int (*f_rng)(void *, unsigned char *, size_t),
 267:Source\mbedtls_open\library/dhm.c ****                      void *p_rng )
 268:Source\mbedtls_open\library/dhm.c **** {
 269:Source\mbedtls_open\library/dhm.c ****     int ret, count = 0;
 270:Source\mbedtls_open\library/dhm.c **** 
 271:Source\mbedtls_open\library/dhm.c ****     if( ctx == NULL || olen < 1 || olen > ctx->len )
 272:Source\mbedtls_open\library/dhm.c ****         return( MBEDTLS_ERR_DHM_BAD_INPUT_DATA );
 273:Source\mbedtls_open\library/dhm.c **** 
 274:Source\mbedtls_open\library/dhm.c ****     if( mbedtls_mpi_cmp_int( &ctx->P, 0 ) == 0 )
 275:Source\mbedtls_open\library/dhm.c ****         return( MBEDTLS_ERR_DHM_BAD_INPUT_DATA );
 276:Source\mbedtls_open\library/dhm.c **** 
 277:Source\mbedtls_open\library/dhm.c ****     /*
 278:Source\mbedtls_open\library/dhm.c ****      * generate X and calculate GX = G^X mod P
 279:Source\mbedtls_open\library/dhm.c ****      */
 280:Source\mbedtls_open\library/dhm.c ****     do
 281:Source\mbedtls_open\library/dhm.c ****     {
 282:Source\mbedtls_open\library/dhm.c ****         MBEDTLS_MPI_CHK( mbedtls_mpi_fill_random( &ctx->X, x_size, f_rng, p_rng ) );
 283:Source\mbedtls_open\library/dhm.c **** 
 284:Source\mbedtls_open\library/dhm.c ****         while( mbedtls_mpi_cmp_mpi( &ctx->X, &ctx->P ) >= 0 )
 285:Source\mbedtls_open\library/dhm.c ****             MBEDTLS_MPI_CHK( mbedtls_mpi_shift_r( &ctx->X, 1 ) );
 286:Source\mbedtls_open\library/dhm.c **** 
 287:Source\mbedtls_open\library/dhm.c ****         if( count++ > 10 )
 288:Source\mbedtls_open\library/dhm.c ****             return( MBEDTLS_ERR_DHM_MAKE_PUBLIC_FAILED );
 289:Source\mbedtls_open\library/dhm.c ****     }
 290:Source\mbedtls_open\library/dhm.c ****     while( dhm_check_range( &ctx->X, &ctx->P ) != 0 );
 291:Source\mbedtls_open\library/dhm.c **** 
 292:Source\mbedtls_open\library/dhm.c ****     MBEDTLS_MPI_CHK( mbedtls_mpi_exp_mod( &ctx->GX, &ctx->G, &ctx->X,
 293:Source\mbedtls_open\library/dhm.c ****                           &ctx->P , &ctx->RP ) );
 294:Source\mbedtls_open\library/dhm.c **** 
 295:Source\mbedtls_open\library/dhm.c ****     if( ( ret = dhm_check_range( &ctx->GX, &ctx->P ) ) != 0 )
 296:Source\mbedtls_open\library/dhm.c ****         return( ret );
 297:Source\mbedtls_open\library/dhm.c **** 
 298:Source\mbedtls_open\library/dhm.c ****     MBEDTLS_MPI_CHK( mbedtls_mpi_write_binary( &ctx->GX, output, olen ) );
 299:Source\mbedtls_open\library/dhm.c **** 
ARM GAS  C:\Users\Phuong\AppData\Local\Temp\ccQXToeg.s 			page 10


 300:Source\mbedtls_open\library/dhm.c **** cleanup:
 301:Source\mbedtls_open\library/dhm.c **** 
 302:Source\mbedtls_open\library/dhm.c ****     if( ret != 0 )
 303:Source\mbedtls_open\library/dhm.c ****         return( MBEDTLS_ERR_DHM_MAKE_PUBLIC_FAILED + ret );
 304:Source\mbedtls_open\library/dhm.c **** 
 305:Source\mbedtls_open\library/dhm.c ****     return( 0 );
 306:Source\mbedtls_open\library/dhm.c **** }
 307:Source\mbedtls_open\library/dhm.c **** 
 308:Source\mbedtls_open\library/dhm.c **** /*
 309:Source\mbedtls_open\library/dhm.c ****  * Use the blinding method and optimisation suggested in section 10 of:
 310:Source\mbedtls_open\library/dhm.c ****  *  KOCHER, Paul C. Timing attacks on implementations of Diffie-Hellman, RSA,
 311:Source\mbedtls_open\library/dhm.c ****  *  DSS, and other systems. In : Advances in Cryptology-CRYPTO'96. Springer
 312:Source\mbedtls_open\library/dhm.c ****  *  Berlin Heidelberg, 1996. p. 104-113.
 313:Source\mbedtls_open\library/dhm.c ****  */
 314:Source\mbedtls_open\library/dhm.c **** static int dhm_update_blinding( mbedtls_dhm_context *ctx,
 315:Source\mbedtls_open\library/dhm.c ****                     int (*f_rng)(void *, unsigned char *, size_t), void *p_rng )
 316:Source\mbedtls_open\library/dhm.c **** {
 212              		.loc 1 316 0
 213              		.cfi_startproc
 214              		@ args = 0, pretend = 0, frame = 8
 215              		@ frame_needed = 0, uses_anonymous_args = 0
 216              	.LVL35:
 217 0000 F0B5     		push	{r4, r5, r6, r7, lr}
 218              		.cfi_def_cfa_offset 20
 219              		.cfi_offset 4, -20
 220              		.cfi_offset 5, -16
 221              		.cfi_offset 6, -12
 222              		.cfi_offset 7, -8
 223              		.cfi_offset 14, -4
 224 0002 5746     		mov	r7, r10
 225 0004 4E46     		mov	r6, r9
 226 0006 C0B4     		push	{r6, r7}
 227              		.cfi_def_cfa_offset 28
 228              		.cfi_offset 9, -28
 229              		.cfi_offset 10, -24
 230 0008 85B0     		sub	sp, sp, #20
 231              		.cfi_def_cfa_offset 48
 232 000a 0700     		movs	r7, r0
 233 000c 0291     		str	r1, [sp, #8]
 234 000e 0392     		str	r2, [sp, #12]
 317:Source\mbedtls_open\library/dhm.c ****     int ret, count;
 318:Source\mbedtls_open\library/dhm.c **** 
 319:Source\mbedtls_open\library/dhm.c ****     /*
 320:Source\mbedtls_open\library/dhm.c ****      * Don't use any blinding the first time a particular X is used,
 321:Source\mbedtls_open\library/dhm.c ****      * but remember it to use blinding next time.
 322:Source\mbedtls_open\library/dhm.c ****      */
 323:Source\mbedtls_open\library/dhm.c ****     if( mbedtls_mpi_cmp_mpi( &ctx->X, &ctx->pX ) != 0 )
 235              		.loc 1 323 0
 236 0010 0600     		movs	r6, r0
 237 0012 1C36     		adds	r6, r6, #28
 238 0014 0500     		movs	r5, r0
 239 0016 7035     		adds	r5, r5, #112
 240 0018 2900     		movs	r1, r5
 241              	.LVL36:
 242 001a 3000     		movs	r0, r6
 243              	.LVL37:
 244 001c FFF7FEFF 		bl	mbedtls_mpi_cmp_mpi
ARM GAS  C:\Users\Phuong\AppData\Local\Temp\ccQXToeg.s 			page 11


 245              	.LVL38:
 246 0020 041E     		subs	r4, r0, #0
 247 0022 15D0     		beq	.L15
 324:Source\mbedtls_open\library/dhm.c ****     {
 325:Source\mbedtls_open\library/dhm.c ****         MBEDTLS_MPI_CHK( mbedtls_mpi_copy( &ctx->pX, &ctx->X ) );
 248              		.loc 1 325 0
 249 0024 3100     		movs	r1, r6
 250 0026 2800     		movs	r0, r5
 251 0028 FFF7FEFF 		bl	mbedtls_mpi_copy
 252              	.LVL39:
 253 002c 0028     		cmp	r0, #0
 254 002e 76D1     		bne	.L20
 326:Source\mbedtls_open\library/dhm.c ****         MBEDTLS_MPI_CHK( mbedtls_mpi_lset( &ctx->Vi, 1 ) );
 255              		.loc 1 326 0
 256 0030 3800     		movs	r0, r7
 257              	.LVL40:
 258 0032 5830     		adds	r0, r0, #88
 259 0034 0121     		movs	r1, #1
 260 0036 FFF7FEFF 		bl	mbedtls_mpi_lset
 261              	.LVL41:
 262 003a 0028     		cmp	r0, #0
 263 003c 71D1     		bne	.L21
 327:Source\mbedtls_open\library/dhm.c ****         MBEDTLS_MPI_CHK( mbedtls_mpi_lset( &ctx->Vf, 1 ) );
 264              		.loc 1 327 0
 265 003e 3800     		movs	r0, r7
 266              	.LVL42:
 267 0040 6430     		adds	r0, r0, #100
 268 0042 0121     		movs	r1, #1
 269 0044 FFF7FEFF 		bl	mbedtls_mpi_lset
 270              	.LVL43:
 271 0048 0028     		cmp	r0, #0
 272 004a 6CD1     		bne	.L22
 328:Source\mbedtls_open\library/dhm.c **** 
 329:Source\mbedtls_open\library/dhm.c ****         return( 0 );
 273              		.loc 1 329 0
 274 004c 0024     		movs	r4, #0
 275 004e 7CE0     		b	.L16
 276              	.LVL44:
 277              	.L15:
 330:Source\mbedtls_open\library/dhm.c ****     }
 331:Source\mbedtls_open\library/dhm.c **** 
 332:Source\mbedtls_open\library/dhm.c ****     /*
 333:Source\mbedtls_open\library/dhm.c ****      * Ok, we need blinding. Can we re-use existing values?
 334:Source\mbedtls_open\library/dhm.c ****      * If yes, just update them by squaring them.
 335:Source\mbedtls_open\library/dhm.c ****      */
 336:Source\mbedtls_open\library/dhm.c ****     if( mbedtls_mpi_cmp_int( &ctx->Vi, 1 ) != 0 )
 278              		.loc 1 336 0
 279 0050 3D00     		movs	r5, r7
 280 0052 5835     		adds	r5, r5, #88
 281 0054 0121     		movs	r1, #1
 282 0056 2800     		movs	r0, r5
 283 0058 FFF7FEFF 		bl	mbedtls_mpi_cmp_int
 284              	.LVL45:
 285 005c 0028     		cmp	r0, #0
 286 005e 1ED0     		beq	.L23
 337:Source\mbedtls_open\library/dhm.c ****     {
 338:Source\mbedtls_open\library/dhm.c ****         MBEDTLS_MPI_CHK( mbedtls_mpi_mul_mpi( &ctx->Vi, &ctx->Vi, &ctx->Vi ) );
ARM GAS  C:\Users\Phuong\AppData\Local\Temp\ccQXToeg.s 			page 12


 287              		.loc 1 338 0
 288 0060 2A00     		movs	r2, r5
 289 0062 2900     		movs	r1, r5
 290 0064 2800     		movs	r0, r5
 291 0066 FFF7FEFF 		bl	mbedtls_mpi_mul_mpi
 292              	.LVL46:
 293 006a 0028     		cmp	r0, #0
 294 006c 5DD1     		bne	.L24
 339:Source\mbedtls_open\library/dhm.c ****         MBEDTLS_MPI_CHK( mbedtls_mpi_mod_mpi( &ctx->Vi, &ctx->Vi, &ctx->P ) );
 295              		.loc 1 339 0
 296 006e 3E1D     		adds	r6, r7, #4
 297 0070 3200     		movs	r2, r6
 298 0072 2900     		movs	r1, r5
 299 0074 2800     		movs	r0, r5
 300              	.LVL47:
 301 0076 FFF7FEFF 		bl	mbedtls_mpi_mod_mpi
 302              	.LVL48:
 303 007a 0028     		cmp	r0, #0
 304 007c 57D1     		bne	.L25
 340:Source\mbedtls_open\library/dhm.c **** 
 341:Source\mbedtls_open\library/dhm.c ****         MBEDTLS_MPI_CHK( mbedtls_mpi_mul_mpi( &ctx->Vf, &ctx->Vf, &ctx->Vf ) );
 305              		.loc 1 341 0
 306 007e 0C35     		adds	r5, r5, #12
 307 0080 2A00     		movs	r2, r5
 308 0082 2900     		movs	r1, r5
 309 0084 2800     		movs	r0, r5
 310              	.LVL49:
 311 0086 FFF7FEFF 		bl	mbedtls_mpi_mul_mpi
 312              	.LVL50:
 313 008a 0028     		cmp	r0, #0
 314 008c 51D1     		bne	.L26
 342:Source\mbedtls_open\library/dhm.c ****         MBEDTLS_MPI_CHK( mbedtls_mpi_mod_mpi( &ctx->Vf, &ctx->Vf, &ctx->P ) );
 315              		.loc 1 342 0
 316 008e 3200     		movs	r2, r6
 317 0090 2900     		movs	r1, r5
 318 0092 2800     		movs	r0, r5
 319              	.LVL51:
 320 0094 FFF7FEFF 		bl	mbedtls_mpi_mod_mpi
 321              	.LVL52:
 322 0098 0028     		cmp	r0, #0
 323 009a 4CD1     		bne	.L27
 324 009c 55E0     		b	.L16
 325              	.LVL53:
 326              	.L23:
 327 009e 0023     		movs	r3, #0
 328 00a0 9946     		mov	r9, r3
 329 00a2 00E0     		b	.L17
 330              	.LVL54:
 331              	.L31:
 343:Source\mbedtls_open\library/dhm.c **** 
 344:Source\mbedtls_open\library/dhm.c ****         return( 0 );
 345:Source\mbedtls_open\library/dhm.c ****     }
 346:Source\mbedtls_open\library/dhm.c **** 
 347:Source\mbedtls_open\library/dhm.c ****     /*
 348:Source\mbedtls_open\library/dhm.c ****      * We need to generate blinding values from scratch
 349:Source\mbedtls_open\library/dhm.c ****      */
 350:Source\mbedtls_open\library/dhm.c **** 
ARM GAS  C:\Users\Phuong\AppData\Local\Temp\ccQXToeg.s 			page 13


 351:Source\mbedtls_open\library/dhm.c ****     /* Vi = random( 2, P-1 ) */
 352:Source\mbedtls_open\library/dhm.c ****     count = 0;
 353:Source\mbedtls_open\library/dhm.c ****     do
 354:Source\mbedtls_open\library/dhm.c ****     {
 355:Source\mbedtls_open\library/dhm.c ****         MBEDTLS_MPI_CHK( mbedtls_mpi_fill_random( &ctx->Vi, mbedtls_mpi_size( &ctx->P ), f_rng, p_r
 356:Source\mbedtls_open\library/dhm.c **** 
 357:Source\mbedtls_open\library/dhm.c ****         while( mbedtls_mpi_cmp_mpi( &ctx->Vi, &ctx->P ) >= 0 )
 358:Source\mbedtls_open\library/dhm.c ****             MBEDTLS_MPI_CHK( mbedtls_mpi_shift_r( &ctx->Vi, 1 ) );
 359:Source\mbedtls_open\library/dhm.c **** 
 360:Source\mbedtls_open\library/dhm.c ****         if( count++ > 10 )
 332              		.loc 1 360 0
 333 00a4 D146     		mov	r9, r10
 334              	.LVL55:
 335              	.L17:
 355:Source\mbedtls_open\library/dhm.c **** 
 336              		.loc 1 355 0
 337 00a6 3C1D     		adds	r4, r7, #4
 338 00a8 2000     		movs	r0, r4
 339 00aa FFF7FEFF 		bl	mbedtls_mpi_size
 340              	.LVL56:
 341 00ae 0100     		movs	r1, r0
 342 00b0 039B     		ldr	r3, [sp, #12]
 343 00b2 029A     		ldr	r2, [sp, #8]
 344 00b4 2800     		movs	r0, r5
 345 00b6 FFF7FEFF 		bl	mbedtls_mpi_fill_random
 346              	.LVL57:
 347 00ba 0028     		cmp	r0, #0
 348 00bc 06D0     		beq	.L18
 349 00be 3CE0     		b	.L28
 350              	.LVL58:
 351              	.L19:
 358:Source\mbedtls_open\library/dhm.c **** 
 352              		.loc 1 358 0
 353 00c0 0121     		movs	r1, #1
 354 00c2 2800     		movs	r0, r5
 355 00c4 FFF7FEFF 		bl	mbedtls_mpi_shift_r
 356              	.LVL59:
 357 00c8 0028     		cmp	r0, #0
 358 00ca 38D1     		bne	.L29
 359              	.L18:
 357:Source\mbedtls_open\library/dhm.c ****             MBEDTLS_MPI_CHK( mbedtls_mpi_shift_r( &ctx->Vi, 1 ) );
 360              		.loc 1 357 0
 361 00cc 2100     		movs	r1, r4
 362 00ce 2800     		movs	r0, r5
 363              	.LVL60:
 364 00d0 FFF7FEFF 		bl	mbedtls_mpi_cmp_mpi
 365              	.LVL61:
 366 00d4 0028     		cmp	r0, #0
 367 00d6 F3DA     		bge	.L19
 368              		.loc 1 360 0
 369 00d8 0123     		movs	r3, #1
 370 00da 4B44     		add	r3, r3, r9
 371 00dc 9A46     		mov	r10, r3
 372              	.LVL62:
 373 00de 4B46     		mov	r3, r9
 374              	.LVL63:
 375 00e0 0A2B     		cmp	r3, #10
ARM GAS  C:\Users\Phuong\AppData\Local\Temp\ccQXToeg.s 			page 14


 376 00e2 2EDC     		bgt	.L30
 361:Source\mbedtls_open\library/dhm.c ****             return( MBEDTLS_ERR_MPI_NOT_ACCEPTABLE );
 362:Source\mbedtls_open\library/dhm.c ****     }
 363:Source\mbedtls_open\library/dhm.c ****     while( mbedtls_mpi_cmp_int( &ctx->Vi, 1 ) <= 0 );
 377              		.loc 1 363 0
 378 00e4 0121     		movs	r1, #1
 379 00e6 2800     		movs	r0, r5
 380 00e8 FFF7FEFF 		bl	mbedtls_mpi_cmp_int
 381              	.LVL64:
 382 00ec 0028     		cmp	r0, #0
 383 00ee D9DD     		ble	.L31
 364:Source\mbedtls_open\library/dhm.c **** 
 365:Source\mbedtls_open\library/dhm.c ****     /* Vf = Vi^-X mod P */
 366:Source\mbedtls_open\library/dhm.c ****     MBEDTLS_MPI_CHK( mbedtls_mpi_inv_mod( &ctx->Vf, &ctx->Vi, &ctx->P ) );
 384              		.loc 1 366 0
 385 00f0 6423     		movs	r3, #100
 386 00f2 9C46     		mov	ip, r3
 387 00f4 BC44     		add	ip, ip, r7
 388 00f6 6346     		mov	r3, ip
 389 00f8 6046     		mov	r0, ip
 390 00fa 0293     		str	r3, [sp, #8]
 391              	.LVL65:
 392 00fc 2200     		movs	r2, r4
 393 00fe 2900     		movs	r1, r5
 394 0100 FFF7FEFF 		bl	mbedtls_mpi_inv_mod
 395              	.LVL66:
 396 0104 0028     		cmp	r0, #0
 397 0106 1FD1     		bne	.L32
 367:Source\mbedtls_open\library/dhm.c ****     MBEDTLS_MPI_CHK( mbedtls_mpi_exp_mod( &ctx->Vf, &ctx->Vf, &ctx->X, &ctx->P, &ctx->RP ) );
 398              		.loc 1 367 0
 399 0108 3800     		movs	r0, r7
 400              	.LVL67:
 401 010a 4C30     		adds	r0, r0, #76
 402 010c 0090     		str	r0, [sp]
 403 010e 2300     		movs	r3, r4
 404 0110 3200     		movs	r2, r6
 405 0112 0298     		ldr	r0, [sp, #8]
 406 0114 0100     		movs	r1, r0
 407 0116 FFF7FEFF 		bl	mbedtls_mpi_exp_mod
 408              	.LVL68:
 409 011a 0400     		movs	r4, r0
 410 011c 15E0     		b	.L16
 411              	.LVL69:
 412              	.L20:
 325:Source\mbedtls_open\library/dhm.c ****         MBEDTLS_MPI_CHK( mbedtls_mpi_lset( &ctx->Vi, 1 ) );
 413              		.loc 1 325 0
 414 011e 0400     		movs	r4, r0
 415 0120 13E0     		b	.L16
 416              	.L21:
 326:Source\mbedtls_open\library/dhm.c ****         MBEDTLS_MPI_CHK( mbedtls_mpi_lset( &ctx->Vf, 1 ) );
 417              		.loc 1 326 0
 418 0122 0400     		movs	r4, r0
 419 0124 11E0     		b	.L16
 420              	.L22:
 327:Source\mbedtls_open\library/dhm.c **** 
 421              		.loc 1 327 0
 422 0126 0400     		movs	r4, r0
ARM GAS  C:\Users\Phuong\AppData\Local\Temp\ccQXToeg.s 			page 15


 423 0128 0FE0     		b	.L16
 424              	.L24:
 338:Source\mbedtls_open\library/dhm.c ****         MBEDTLS_MPI_CHK( mbedtls_mpi_mod_mpi( &ctx->Vi, &ctx->Vi, &ctx->P ) );
 425              		.loc 1 338 0
 426 012a 0400     		movs	r4, r0
 427 012c 0DE0     		b	.L16
 428              	.L25:
 339:Source\mbedtls_open\library/dhm.c **** 
 429              		.loc 1 339 0
 430 012e 0400     		movs	r4, r0
 431 0130 0BE0     		b	.L16
 432              	.L26:
 341:Source\mbedtls_open\library/dhm.c ****         MBEDTLS_MPI_CHK( mbedtls_mpi_mod_mpi( &ctx->Vf, &ctx->Vf, &ctx->P ) );
 433              		.loc 1 341 0
 434 0132 0400     		movs	r4, r0
 435 0134 09E0     		b	.L16
 436              	.L27:
 342:Source\mbedtls_open\library/dhm.c **** 
 437              		.loc 1 342 0
 438 0136 0400     		movs	r4, r0
 439 0138 07E0     		b	.L16
 440              	.LVL70:
 441              	.L28:
 355:Source\mbedtls_open\library/dhm.c **** 
 442              		.loc 1 355 0
 443 013a 0400     		movs	r4, r0
 444 013c 05E0     		b	.L16
 445              	.L29:
 358:Source\mbedtls_open\library/dhm.c **** 
 446              		.loc 1 358 0
 447 013e 0400     		movs	r4, r0
 448 0140 03E0     		b	.L16
 449              	.LVL71:
 450              	.L30:
 361:Source\mbedtls_open\library/dhm.c ****     }
 451              		.loc 1 361 0
 452 0142 0E24     		movs	r4, #14
 453 0144 6442     		rsbs	r4, r4, #0
 454 0146 00E0     		b	.L16
 455              	.LVL72:
 456              	.L32:
 366:Source\mbedtls_open\library/dhm.c ****     MBEDTLS_MPI_CHK( mbedtls_mpi_exp_mod( &ctx->Vf, &ctx->Vf, &ctx->X, &ctx->P, &ctx->RP ) );
 457              		.loc 1 366 0
 458 0148 0400     		movs	r4, r0
 459              	.LVL73:
 460              	.L16:
 368:Source\mbedtls_open\library/dhm.c **** 
 369:Source\mbedtls_open\library/dhm.c **** cleanup:
 370:Source\mbedtls_open\library/dhm.c ****     return( ret );
 371:Source\mbedtls_open\library/dhm.c **** }
 461              		.loc 1 371 0
 462 014a 2000     		movs	r0, r4
 463 014c 05B0     		add	sp, sp, #20
 464              		@ sp needed
 465              	.LVL74:
 466 014e 0CBC     		pop	{r2, r3}
 467 0150 9146     		mov	r9, r2
ARM GAS  C:\Users\Phuong\AppData\Local\Temp\ccQXToeg.s 			page 16


 468 0152 9A46     		mov	r10, r3
 469 0154 F0BD     		pop	{r4, r5, r6, r7, pc}
 470              		.cfi_endproc
 471              	.LFE9:
 472              		.size	dhm_update_blinding, .-dhm_update_blinding
 473 0156 C046     		.section	.text.mbedtls_dhm_init,"ax",%progbits
 474              		.align	2
 475              		.global	mbedtls_dhm_init
 476              		.code	16
 477              		.thumb_func
 478              		.type	mbedtls_dhm_init, %function
 479              	mbedtls_dhm_init:
 480              	.LFB3:
 123:Source\mbedtls_open\library/dhm.c ****     memset( ctx, 0, sizeof( mbedtls_dhm_context ) );
 481              		.loc 1 123 0
 482              		.cfi_startproc
 483              		@ args = 0, pretend = 0, frame = 0
 484              		@ frame_needed = 0, uses_anonymous_args = 0
 485              	.LVL75:
 486 0000 10B5     		push	{r4, lr}
 487              		.cfi_def_cfa_offset 8
 488              		.cfi_offset 4, -8
 489              		.cfi_offset 14, -4
 124:Source\mbedtls_open\library/dhm.c **** }
 490              		.loc 1 124 0
 491 0002 7C22     		movs	r2, #124
 492 0004 0021     		movs	r1, #0
 493 0006 FFF7FEFF 		bl	memset
 494              	.LVL76:
 125:Source\mbedtls_open\library/dhm.c **** 
 495              		.loc 1 125 0
 496              		@ sp needed
 497 000a 10BD     		pop	{r4, pc}
 498              		.cfi_endproc
 499              	.LFE3:
 500              		.size	mbedtls_dhm_init, .-mbedtls_dhm_init
 501              		.section	.text.mbedtls_dhm_read_params,"ax",%progbits
 502              		.align	2
 503              		.global	mbedtls_dhm_read_params
 504              		.code	16
 505              		.thumb_func
 506              		.type	mbedtls_dhm_read_params, %function
 507              	mbedtls_dhm_read_params:
 508              	.LFB4:
 133:Source\mbedtls_open\library/dhm.c ****     int ret;
 509              		.loc 1 133 0
 510              		.cfi_startproc
 511              		@ args = 0, pretend = 0, frame = 8
 512              		@ frame_needed = 0, uses_anonymous_args = 0
 513              	.LVL77:
 514 0000 F0B5     		push	{r4, r5, r6, r7, lr}
 515              		.cfi_def_cfa_offset 20
 516              		.cfi_offset 4, -20
 517              		.cfi_offset 5, -16
 518              		.cfi_offset 6, -12
 519              		.cfi_offset 7, -8
 520              		.cfi_offset 14, -4
ARM GAS  C:\Users\Phuong\AppData\Local\Temp\ccQXToeg.s 			page 17


 521 0002 83B0     		sub	sp, sp, #12
 522              		.cfi_def_cfa_offset 32
 523 0004 0700     		movs	r7, r0
 524 0006 0C00     		movs	r4, r1
 525 0008 1500     		movs	r5, r2
 136:Source\mbedtls_open\library/dhm.c ****         ( ret = dhm_read_bignum( &ctx->G,  p, end ) ) != 0 ||
 526              		.loc 1 136 0
 527 000a 061D     		adds	r6, r0, #4
 528 000c 3000     		movs	r0, r6
 529              	.LVL78:
 530 000e FFF7FEFF 		bl	dhm_read_bignum
 531              	.LVL79:
 532 0012 0028     		cmp	r0, #0
 533 0014 1ED1     		bne	.L35
 137:Source\mbedtls_open\library/dhm.c ****         ( ret = dhm_read_bignum( &ctx->GY, p, end ) ) != 0 )
 534              		.loc 1 137 0 discriminator 1
 535 0016 3800     		movs	r0, r7
 536              	.LVL80:
 537 0018 1030     		adds	r0, r0, #16
 136:Source\mbedtls_open\library/dhm.c ****         ( ret = dhm_read_bignum( &ctx->G,  p, end ) ) != 0 ||
 538              		.loc 1 136 0 discriminator 1
 539 001a 2A00     		movs	r2, r5
 540 001c 2100     		movs	r1, r4
 541 001e FFF7FEFF 		bl	dhm_read_bignum
 542              	.LVL81:
 543 0022 0028     		cmp	r0, #0
 544 0024 16D1     		bne	.L35
 138:Source\mbedtls_open\library/dhm.c ****         return( ret );
 545              		.loc 1 138 0
 546 0026 3423     		movs	r3, #52
 547 0028 9C46     		mov	ip, r3
 548 002a BC44     		add	ip, ip, r7
 549 002c 6346     		mov	r3, ip
 550 002e 0193     		str	r3, [sp, #4]
 137:Source\mbedtls_open\library/dhm.c ****         ( ret = dhm_read_bignum( &ctx->GY, p, end ) ) != 0 )
 551              		.loc 1 137 0
 552 0030 2A00     		movs	r2, r5
 553 0032 2100     		movs	r1, r4
 554 0034 6046     		mov	r0, ip
 555              	.LVL82:
 556 0036 FFF7FEFF 		bl	dhm_read_bignum
 557              	.LVL83:
 558 003a 0028     		cmp	r0, #0
 559 003c 0AD1     		bne	.L35
 141:Source\mbedtls_open\library/dhm.c ****         return( ret );
 560              		.loc 1 141 0
 561 003e 3100     		movs	r1, r6
 562 0040 0198     		ldr	r0, [sp, #4]
 563              	.LVL84:
 564 0042 FFF7FEFF 		bl	dhm_check_range
 565              	.LVL85:
 566 0046 0028     		cmp	r0, #0
 567 0048 04D1     		bne	.L35
 144:Source\mbedtls_open\library/dhm.c **** 
 568              		.loc 1 144 0
 569 004a 3000     		movs	r0, r6
 570              	.LVL86:
ARM GAS  C:\Users\Phuong\AppData\Local\Temp\ccQXToeg.s 			page 18


 571 004c FFF7FEFF 		bl	mbedtls_mpi_size
 572              	.LVL87:
 573 0050 3860     		str	r0, [r7]
 146:Source\mbedtls_open\library/dhm.c **** }
 574              		.loc 1 146 0
 575 0052 0020     		movs	r0, #0
 576              	.L35:
 147:Source\mbedtls_open\library/dhm.c **** 
 577              		.loc 1 147 0
 578 0054 03B0     		add	sp, sp, #12
 579              		@ sp needed
 580              	.LVL88:
 581              	.LVL89:
 582              	.LVL90:
 583 0056 F0BD     		pop	{r4, r5, r6, r7, pc}
 584              		.cfi_endproc
 585              	.LFE4:
 586              		.size	mbedtls_dhm_read_params, .-mbedtls_dhm_read_params
 587              		.section	.text.mbedtls_dhm_make_params,"ax",%progbits
 588              		.align	2
 589              		.global	mbedtls_dhm_make_params
 590              		.code	16
 591              		.thumb_func
 592              		.type	mbedtls_dhm_make_params, %function
 593              	mbedtls_dhm_make_params:
 594              	.LFB5:
 156:Source\mbedtls_open\library/dhm.c ****     int ret, count = 0;
 595              		.loc 1 156 0
 596              		.cfi_startproc
 597              		@ args = 8, pretend = 0, frame = 16
 598              		@ frame_needed = 0, uses_anonymous_args = 0
 599              	.LVL91:
 600 0000 F0B5     		push	{r4, r5, r6, r7, lr}
 601              		.cfi_def_cfa_offset 20
 602              		.cfi_offset 4, -20
 603              		.cfi_offset 5, -16
 604              		.cfi_offset 6, -12
 605              		.cfi_offset 7, -8
 606              		.cfi_offset 14, -4
 607 0002 5746     		mov	r7, r10
 608 0004 80B4     		push	{r7}
 609              		.cfi_def_cfa_offset 24
 610              		.cfi_offset 10, -24
 611 0006 86B0     		sub	sp, sp, #24
 612              		.cfi_def_cfa_offset 48
 613 0008 0700     		movs	r7, r0
 614 000a 0291     		str	r1, [sp, #8]
 615 000c 0392     		str	r2, [sp, #12]
 616 000e 0493     		str	r3, [sp, #16]
 617              	.LVL92:
 161:Source\mbedtls_open\library/dhm.c ****         return( MBEDTLS_ERR_DHM_BAD_INPUT_DATA );
 618              		.loc 1 161 0
 619 0010 051D     		adds	r5, r0, #4
 620 0012 0021     		movs	r1, #0
 621              	.LVL93:
 622 0014 2800     		movs	r0, r5
 623              	.LVL94:
ARM GAS  C:\Users\Phuong\AppData\Local\Temp\ccQXToeg.s 			page 19


 624 0016 FFF7FEFF 		bl	mbedtls_mpi_cmp_int
 625              	.LVL95:
 626 001a 0028     		cmp	r0, #0
 627 001c 7ED0     		beq	.L46
 628 001e 0026     		movs	r6, #0
 629 0020 00E0     		b	.L45
 630              	.LVL96:
 631              	.L48:
 174:Source\mbedtls_open\library/dhm.c ****             return( MBEDTLS_ERR_DHM_MAKE_PARAMS_FAILED );
 632              		.loc 1 174 0
 633 0022 5646     		mov	r6, r10
 634              	.LVL97:
 635              	.L45:
 169:Source\mbedtls_open\library/dhm.c **** 
 636              		.loc 1 169 0
 637 0024 3C00     		movs	r4, r7
 638 0026 1C34     		adds	r4, r4, #28
 639 0028 0D9B     		ldr	r3, [sp, #52]
 640 002a 0C9A     		ldr	r2, [sp, #48]
 641 002c 0299     		ldr	r1, [sp, #8]
 642 002e 2000     		movs	r0, r4
 643 0030 FFF7FEFF 		bl	mbedtls_mpi_fill_random
 644              	.LVL98:
 645 0034 0028     		cmp	r0, #0
 646 0036 06D0     		beq	.L43
 647 0038 6AE0     		b	.L42
 648              	.LVL99:
 649              	.L44:
 172:Source\mbedtls_open\library/dhm.c **** 
 650              		.loc 1 172 0
 651 003a 0121     		movs	r1, #1
 652 003c 2000     		movs	r0, r4
 653 003e FFF7FEFF 		bl	mbedtls_mpi_shift_r
 654              	.LVL100:
 655 0042 0028     		cmp	r0, #0
 656 0044 64D1     		bne	.L42
 657              	.L43:
 171:Source\mbedtls_open\library/dhm.c ****             MBEDTLS_MPI_CHK( mbedtls_mpi_shift_r( &ctx->X, 1 ) );
 658              		.loc 1 171 0
 659 0046 2900     		movs	r1, r5
 660 0048 2000     		movs	r0, r4
 661              	.LVL101:
 662 004a FFF7FEFF 		bl	mbedtls_mpi_cmp_mpi
 663              	.LVL102:
 664 004e 0028     		cmp	r0, #0
 665 0050 F3DA     		bge	.L44
 174:Source\mbedtls_open\library/dhm.c ****             return( MBEDTLS_ERR_DHM_MAKE_PARAMS_FAILED );
 666              		.loc 1 174 0
 667 0052 731C     		adds	r3, r6, #1
 668 0054 9A46     		mov	r10, r3
 669              	.LVL103:
 670 0056 0A2E     		cmp	r6, #10
 671 0058 62DC     		bgt	.L47
 177:Source\mbedtls_open\library/dhm.c **** 
 672              		.loc 1 177 0
 673 005a 2900     		movs	r1, r5
 674 005c 2000     		movs	r0, r4
ARM GAS  C:\Users\Phuong\AppData\Local\Temp\ccQXToeg.s 			page 20


 675 005e FFF7FEFF 		bl	dhm_check_range
 676              	.LVL104:
 677 0062 0028     		cmp	r0, #0
 678 0064 DDD1     		bne	.L48
 182:Source\mbedtls_open\library/dhm.c ****                           &ctx->P , &ctx->RP ) );
 679              		.loc 1 182 0
 680 0066 2823     		movs	r3, #40
 681 0068 9C46     		mov	ip, r3
 682 006a BC44     		add	ip, ip, r7
 683 006c 6346     		mov	r3, ip
 684 006e 6046     		mov	r0, ip
 685 0070 0293     		str	r3, [sp, #8]
 686              	.LVL105:
 687 0072 1023     		movs	r3, #16
 688 0074 9C46     		mov	ip, r3
 689 0076 BC44     		add	ip, ip, r7
 690 0078 6346     		mov	r3, ip
 691 007a 6146     		mov	r1, ip
 692 007c 0593     		str	r3, [sp, #20]
 693 007e 3B00     		movs	r3, r7
 694 0080 4C33     		adds	r3, r3, #76
 695 0082 0093     		str	r3, [sp]
 696 0084 2B00     		movs	r3, r5
 697 0086 2200     		movs	r2, r4
 698 0088 FFF7FEFF 		bl	mbedtls_mpi_exp_mod
 699              	.LVL106:
 700 008c 0028     		cmp	r0, #0
 701 008e 3FD1     		bne	.L42
 185:Source\mbedtls_open\library/dhm.c ****         return( ret );
 702              		.loc 1 185 0
 703 0090 2900     		movs	r1, r5
 704 0092 0298     		ldr	r0, [sp, #8]
 705              	.LVL107:
 706 0094 FFF7FEFF 		bl	dhm_check_range
 707              	.LVL108:
 708 0098 0028     		cmp	r0, #0
 709 009a 44D1     		bne	.L41
 201:Source\mbedtls_open\library/dhm.c ****     n2 = mbedtls_mpi_size( &ctx->G  );
 710              		.loc 1 201 0
 711 009c 2800     		movs	r0, r5
 712              	.LVL109:
 713 009e FFF7FEFF 		bl	mbedtls_mpi_size
 714              	.LVL110:
 715 00a2 0600     		movs	r6, r0
 716              	.LVL111:
 202:Source\mbedtls_open\library/dhm.c ****     n3 = mbedtls_mpi_size( &ctx->GX );
 717              		.loc 1 202 0
 718 00a4 0598     		ldr	r0, [sp, #20]
 719              	.LVL112:
 720 00a6 FFF7FEFF 		bl	mbedtls_mpi_size
 721              	.LVL113:
 722 00aa 8246     		mov	r10, r0
 723              	.LVL114:
 203:Source\mbedtls_open\library/dhm.c **** 
 724              		.loc 1 203 0
 725 00ac 0298     		ldr	r0, [sp, #8]
 726              	.LVL115:
ARM GAS  C:\Users\Phuong\AppData\Local\Temp\ccQXToeg.s 			page 21


 727 00ae FFF7FEFF 		bl	mbedtls_mpi_size
 728              	.LVL116:
 729 00b2 0400     		movs	r4, r0
 730              	.LVL117:
 206:Source\mbedtls_open\library/dhm.c ****     DHM_MPI_EXPORT( &ctx->G , n2 );
 731              		.loc 1 206 0
 732 00b4 039B     		ldr	r3, [sp, #12]
 733 00b6 991C     		adds	r1, r3, #2
 734 00b8 3200     		movs	r2, r6
 735 00ba 2800     		movs	r0, r5
 736              	.LVL118:
 737 00bc FFF7FEFF 		bl	mbedtls_mpi_write_binary
 738              	.LVL119:
 739 00c0 0028     		cmp	r0, #0
 740 00c2 25D1     		bne	.L42
 741              	.LVL120:
 206:Source\mbedtls_open\library/dhm.c ****     DHM_MPI_EXPORT( &ctx->G , n2 );
 742              		.loc 1 206 0 is_stmt 0 discriminator 1
 743 00c4 330A     		lsrs	r3, r6, #8
 744 00c6 039A     		ldr	r2, [sp, #12]
 745 00c8 1370     		strb	r3, [r2]
 746 00ca 931C     		adds	r3, r2, #2
 747              	.LVL121:
 748 00cc 5670     		strb	r6, [r2, #1]
 749 00ce 9D19     		adds	r5, r3, r6
 750              	.LVL122:
 207:Source\mbedtls_open\library/dhm.c ****     DHM_MPI_EXPORT( &ctx->GX, n3 );
 751              		.loc 1 207 0 is_stmt 1 discriminator 1
 752 00d0 A91C     		adds	r1, r5, #2
 753 00d2 5246     		mov	r2, r10
 754 00d4 0598     		ldr	r0, [sp, #20]
 755              	.LVL123:
 756 00d6 FFF7FEFF 		bl	mbedtls_mpi_write_binary
 757              	.LVL124:
 758 00da 0028     		cmp	r0, #0
 759 00dc 18D1     		bne	.L42
 760              	.LVL125:
 761 00de 5346     		mov	r3, r10
 762 00e0 1B0A     		lsrs	r3, r3, #8
 763 00e2 2B70     		strb	r3, [r5]
 764 00e4 AB1C     		adds	r3, r5, #2
 765              	.LVL126:
 766 00e6 5246     		mov	r2, r10
 767 00e8 6A70     		strb	r2, [r5, #1]
 768 00ea 5344     		add	r3, r3, r10
 769              	.LVL127:
 770 00ec 1D00     		movs	r5, r3
 771              	.LVL128:
 208:Source\mbedtls_open\library/dhm.c **** 
 772              		.loc 1 208 0 discriminator 1
 773 00ee 991C     		adds	r1, r3, #2
 774 00f0 2200     		movs	r2, r4
 775 00f2 0298     		ldr	r0, [sp, #8]
 776              	.LVL129:
 777 00f4 FFF7FEFF 		bl	mbedtls_mpi_write_binary
 778              	.LVL130:
 779 00f8 0028     		cmp	r0, #0
ARM GAS  C:\Users\Phuong\AppData\Local\Temp\ccQXToeg.s 			page 22


 780 00fa 09D1     		bne	.L42
 781              	.LVL131:
 782 00fc 230A     		lsrs	r3, r4, #8
 783 00fe 2B70     		strb	r3, [r5]
 784 0100 AB1C     		adds	r3, r5, #2
 785              	.LVL132:
 786 0102 6C70     		strb	r4, [r5, #1]
 787 0104 1C19     		adds	r4, r3, r4
 788              	.LVL133:
 210:Source\mbedtls_open\library/dhm.c **** 
 789              		.loc 1 210 0 discriminator 1
 790 0106 039B     		ldr	r3, [sp, #12]
 791 0108 E31A     		subs	r3, r4, r3
 792 010a 049A     		ldr	r2, [sp, #16]
 793 010c 1360     		str	r3, [r2]
 212:Source\mbedtls_open\library/dhm.c **** 
 794              		.loc 1 212 0 discriminator 1
 795 010e 3E60     		str	r6, [r7]
 796              	.LVL134:
 797              	.L42:
 216:Source\mbedtls_open\library/dhm.c ****         return( MBEDTLS_ERR_DHM_MAKE_PARAMS_FAILED + ret );
 798              		.loc 1 216 0
 799 0110 0028     		cmp	r0, #0
 800 0112 07D0     		beq	.L50
 217:Source\mbedtls_open\library/dhm.c **** 
 801              		.loc 1 217 0
 802 0114 064B     		ldr	r3, .L51
 803 0116 9C46     		mov	ip, r3
 804 0118 6044     		add	r0, r0, ip
 805              	.LVL135:
 806 011a 04E0     		b	.L41
 807              	.LVL136:
 808              	.L46:
 162:Source\mbedtls_open\library/dhm.c **** 
 809              		.loc 1 162 0
 810 011c 0548     		ldr	r0, .L51+4
 811 011e 02E0     		b	.L41
 812              	.LVL137:
 813              	.L47:
 175:Source\mbedtls_open\library/dhm.c ****     }
 814              		.loc 1 175 0
 815 0120 0348     		ldr	r0, .L51
 816 0122 00E0     		b	.L41
 817              	.LVL138:
 818              	.L50:
 219:Source\mbedtls_open\library/dhm.c **** }
 819              		.loc 1 219 0
 820 0124 0020     		movs	r0, #0
 821              	.LVL139:
 822              	.L41:
 220:Source\mbedtls_open\library/dhm.c **** 
 823              		.loc 1 220 0
 824 0126 06B0     		add	sp, sp, #24
 825              		@ sp needed
 826              	.LVL140:
 827 0128 04BC     		pop	{r2}
 828 012a 9246     		mov	r10, r2
ARM GAS  C:\Users\Phuong\AppData\Local\Temp\ccQXToeg.s 			page 23


 829 012c F0BD     		pop	{r4, r5, r6, r7, pc}
 830              	.L52:
 831 012e C046     		.align	2
 832              	.L51:
 833 0130 80CEFFFF 		.word	-12672
 834 0134 80CFFFFF 		.word	-12416
 835              		.cfi_endproc
 836              	.LFE5:
 837              		.size	mbedtls_dhm_make_params, .-mbedtls_dhm_make_params
 838              		.section	.text.mbedtls_dhm_set_group,"ax",%progbits
 839              		.align	2
 840              		.global	mbedtls_dhm_set_group
 841              		.code	16
 842              		.thumb_func
 843              		.type	mbedtls_dhm_set_group, %function
 844              	mbedtls_dhm_set_group:
 845              	.LFB6:
 228:Source\mbedtls_open\library/dhm.c ****     int ret;
 846              		.loc 1 228 0
 847              		.cfi_startproc
 848              		@ args = 0, pretend = 0, frame = 0
 849              		@ frame_needed = 0, uses_anonymous_args = 0
 850              	.LVL141:
 851 0000 70B5     		push	{r4, r5, r6, lr}
 852              		.cfi_def_cfa_offset 16
 853              		.cfi_offset 4, -16
 854              		.cfi_offset 5, -12
 855              		.cfi_offset 6, -8
 856              		.cfi_offset 14, -4
 857 0002 0400     		movs	r4, r0
 858 0004 1500     		movs	r5, r2
 231:Source\mbedtls_open\library/dhm.c ****         return( MBEDTLS_ERR_DHM_BAD_INPUT_DATA );
 859              		.loc 1 231 0
 860 0006 0028     		cmp	r0, #0
 861 0008 1AD0     		beq	.L57
 231:Source\mbedtls_open\library/dhm.c ****         return( MBEDTLS_ERR_DHM_BAD_INPUT_DATA );
 862              		.loc 1 231 0 is_stmt 0 discriminator 1
 863 000a 0029     		cmp	r1, #0
 864 000c 1AD0     		beq	.L58
 231:Source\mbedtls_open\library/dhm.c ****         return( MBEDTLS_ERR_DHM_BAD_INPUT_DATA );
 865              		.loc 1 231 0 discriminator 2
 866 000e 002A     		cmp	r2, #0
 867 0010 1AD0     		beq	.L59
 234:Source\mbedtls_open\library/dhm.c ****         ( ret = mbedtls_mpi_copy( &ctx->G, G ) ) != 0 )
 868              		.loc 1 234 0 is_stmt 1
 869 0012 061D     		adds	r6, r0, #4
 870 0014 3000     		movs	r0, r6
 871              	.LVL142:
 872 0016 FFF7FEFF 		bl	mbedtls_mpi_copy
 873              	.LVL143:
 874 001a 0028     		cmp	r0, #0
 875 001c 06D1     		bne	.L55
 235:Source\mbedtls_open\library/dhm.c ****     {
 876              		.loc 1 235 0 discriminator 1
 877 001e 2000     		movs	r0, r4
 878              	.LVL144:
 879 0020 1030     		adds	r0, r0, #16
ARM GAS  C:\Users\Phuong\AppData\Local\Temp\ccQXToeg.s 			page 24


 234:Source\mbedtls_open\library/dhm.c ****         ( ret = mbedtls_mpi_copy( &ctx->G, G ) ) != 0 )
 880              		.loc 1 234 0 discriminator 1
 881 0022 2900     		movs	r1, r5
 882 0024 FFF7FEFF 		bl	mbedtls_mpi_copy
 883              	.LVL145:
 884 0028 0028     		cmp	r0, #0
 885 002a 03D0     		beq	.L56
 886              	.L55:
 237:Source\mbedtls_open\library/dhm.c ****     }
 887              		.loc 1 237 0
 888 002c 074B     		ldr	r3, .L60
 889 002e 9C46     		mov	ip, r3
 890 0030 6044     		add	r0, r0, ip
 891              	.LVL146:
 892 0032 0AE0     		b	.L54
 893              	.LVL147:
 894              	.L56:
 240:Source\mbedtls_open\library/dhm.c ****     return( 0 );
 895              		.loc 1 240 0
 896 0034 3000     		movs	r0, r6
 897              	.LVL148:
 898 0036 FFF7FEFF 		bl	mbedtls_mpi_size
 899              	.LVL149:
 900 003a 2060     		str	r0, [r4]
 241:Source\mbedtls_open\library/dhm.c **** }
 901              		.loc 1 241 0
 902 003c 0020     		movs	r0, #0
 903 003e 04E0     		b	.L54
 904              	.LVL150:
 905              	.L57:
 232:Source\mbedtls_open\library/dhm.c **** 
 906              		.loc 1 232 0
 907 0040 0348     		ldr	r0, .L60+4
 908              	.LVL151:
 909 0042 02E0     		b	.L54
 910              	.LVL152:
 911              	.L58:
 912 0044 0248     		ldr	r0, .L60+4
 913              	.LVL153:
 914 0046 00E0     		b	.L54
 915              	.LVL154:
 916              	.L59:
 917 0048 0148     		ldr	r0, .L60+4
 918              	.LVL155:
 919              	.L54:
 242:Source\mbedtls_open\library/dhm.c **** 
 920              		.loc 1 242 0
 921              		@ sp needed
 922              	.LVL156:
 923              	.LVL157:
 924 004a 70BD     		pop	{r4, r5, r6, pc}
 925              	.L61:
 926              		.align	2
 927              	.L60:
 928 004c 80CAFFFF 		.word	-13696
 929 0050 80CFFFFF 		.word	-12416
 930              		.cfi_endproc
ARM GAS  C:\Users\Phuong\AppData\Local\Temp\ccQXToeg.s 			page 25


 931              	.LFE6:
 932              		.size	mbedtls_dhm_set_group, .-mbedtls_dhm_set_group
 933              		.section	.text.mbedtls_dhm_read_public,"ax",%progbits
 934              		.align	2
 935              		.global	mbedtls_dhm_read_public
 936              		.code	16
 937              		.thumb_func
 938              		.type	mbedtls_dhm_read_public, %function
 939              	mbedtls_dhm_read_public:
 940              	.LFB7:
 249:Source\mbedtls_open\library/dhm.c ****     int ret;
 941              		.loc 1 249 0
 942              		.cfi_startproc
 943              		@ args = 0, pretend = 0, frame = 0
 944              		@ frame_needed = 0, uses_anonymous_args = 0
 945              	.LVL158:
 946 0000 10B5     		push	{r4, lr}
 947              		.cfi_def_cfa_offset 8
 948              		.cfi_offset 4, -8
 949              		.cfi_offset 14, -4
 252:Source\mbedtls_open\library/dhm.c ****         return( MBEDTLS_ERR_DHM_BAD_INPUT_DATA );
 950              		.loc 1 252 0
 951 0002 0028     		cmp	r0, #0
 952 0004 0DD0     		beq	.L64
 252:Source\mbedtls_open\library/dhm.c ****         return( MBEDTLS_ERR_DHM_BAD_INPUT_DATA );
 953              		.loc 1 252 0 is_stmt 0 discriminator 1
 954 0006 002A     		cmp	r2, #0
 955 0008 0DD0     		beq	.L65
 252:Source\mbedtls_open\library/dhm.c ****         return( MBEDTLS_ERR_DHM_BAD_INPUT_DATA );
 956              		.loc 1 252 0 discriminator 2
 957 000a 0368     		ldr	r3, [r0]
 958 000c 9A42     		cmp	r2, r3
 959 000e 0CD8     		bhi	.L66
 255:Source\mbedtls_open\library/dhm.c ****         return( MBEDTLS_ERR_DHM_READ_PUBLIC_FAILED + ret );
 960              		.loc 1 255 0 is_stmt 1
 961 0010 3430     		adds	r0, r0, #52
 962              	.LVL159:
 963 0012 FFF7FEFF 		bl	mbedtls_mpi_read_binary
 964              	.LVL160:
 965 0016 0028     		cmp	r0, #0
 966 0018 09D0     		beq	.L67
 256:Source\mbedtls_open\library/dhm.c **** 
 967              		.loc 1 256 0
 968 001a 064B     		ldr	r3, .L68
 969 001c 9C46     		mov	ip, r3
 970 001e 6044     		add	r0, r0, ip
 971              	.LVL161:
 972 0020 06E0     		b	.L63
 973              	.LVL162:
 974              	.L64:
 253:Source\mbedtls_open\library/dhm.c **** 
 975              		.loc 1 253 0
 976 0022 0548     		ldr	r0, .L68+4
 977              	.LVL163:
 978 0024 04E0     		b	.L63
 979              	.LVL164:
 980              	.L65:
ARM GAS  C:\Users\Phuong\AppData\Local\Temp\ccQXToeg.s 			page 26


 981 0026 0448     		ldr	r0, .L68+4
 982              	.LVL165:
 983 0028 02E0     		b	.L63
 984              	.LVL166:
 985              	.L66:
 986 002a 0348     		ldr	r0, .L68+4
 987              	.LVL167:
 988 002c 00E0     		b	.L63
 989              	.LVL168:
 990              	.L67:
 258:Source\mbedtls_open\library/dhm.c **** }
 991              		.loc 1 258 0
 992 002e 0020     		movs	r0, #0
 993              	.LVL169:
 994              	.L63:
 259:Source\mbedtls_open\library/dhm.c **** 
 995              		.loc 1 259 0
 996              		@ sp needed
 997 0030 10BD     		pop	{r4, pc}
 998              	.L69:
 999 0032 C046     		.align	2
 1000              	.L68:
 1001 0034 00CEFFFF 		.word	-12800
 1002 0038 80CFFFFF 		.word	-12416
 1003              		.cfi_endproc
 1004              	.LFE7:
 1005              		.size	mbedtls_dhm_read_public, .-mbedtls_dhm_read_public
 1006              		.section	.text.mbedtls_dhm_make_public,"ax",%progbits
 1007              		.align	2
 1008              		.global	mbedtls_dhm_make_public
 1009              		.code	16
 1010              		.thumb_func
 1011              		.type	mbedtls_dhm_make_public, %function
 1012              	mbedtls_dhm_make_public:
 1013              	.LFB8:
 268:Source\mbedtls_open\library/dhm.c ****     int ret, count = 0;
 1014              		.loc 1 268 0
 1015              		.cfi_startproc
 1016              		@ args = 8, pretend = 0, frame = 8
 1017              		@ frame_needed = 0, uses_anonymous_args = 0
 1018              	.LVL170:
 1019 0000 F0B5     		push	{r4, r5, r6, r7, lr}
 1020              		.cfi_def_cfa_offset 20
 1021              		.cfi_offset 4, -20
 1022              		.cfi_offset 5, -16
 1023              		.cfi_offset 6, -12
 1024              		.cfi_offset 7, -8
 1025              		.cfi_offset 14, -4
 1026 0002 5F46     		mov	r7, fp
 1027 0004 5646     		mov	r6, r10
 1028 0006 C0B4     		push	{r6, r7}
 1029              		.cfi_def_cfa_offset 28
 1030              		.cfi_offset 10, -28
 1031              		.cfi_offset 11, -24
 1032 0008 85B0     		sub	sp, sp, #20
 1033              		.cfi_def_cfa_offset 48
 1034 000a 0600     		movs	r6, r0
ARM GAS  C:\Users\Phuong\AppData\Local\Temp\ccQXToeg.s 			page 27


 1035 000c 0291     		str	r1, [sp, #8]
 1036 000e 0392     		str	r2, [sp, #12]
 1037 0010 1F00     		movs	r7, r3
 1038              	.LVL171:
 271:Source\mbedtls_open\library/dhm.c ****         return( MBEDTLS_ERR_DHM_BAD_INPUT_DATA );
 1039              		.loc 1 271 0
 1040 0012 0028     		cmp	r0, #0
 1041 0014 54D0     		beq	.L76
 271:Source\mbedtls_open\library/dhm.c ****         return( MBEDTLS_ERR_DHM_BAD_INPUT_DATA );
 1042              		.loc 1 271 0 is_stmt 0 discriminator 1
 1043 0016 002B     		cmp	r3, #0
 1044 0018 54D0     		beq	.L77
 271:Source\mbedtls_open\library/dhm.c ****         return( MBEDTLS_ERR_DHM_BAD_INPUT_DATA );
 1045              		.loc 1 271 0 discriminator 2
 1046 001a 0368     		ldr	r3, [r0]
 1047              	.LVL172:
 1048 001c 9F42     		cmp	r7, r3
 1049 001e 53D8     		bhi	.L78
 274:Source\mbedtls_open\library/dhm.c ****         return( MBEDTLS_ERR_DHM_BAD_INPUT_DATA );
 1050              		.loc 1 274 0 is_stmt 1
 1051 0020 051D     		adds	r5, r0, #4
 1052 0022 0021     		movs	r1, #0
 1053              	.LVL173:
 1054 0024 2800     		movs	r0, r5
 1055              	.LVL174:
 1056 0026 FFF7FEFF 		bl	mbedtls_mpi_cmp_int
 1057              	.LVL175:
 1058 002a 0028     		cmp	r0, #0
 1059 002c 4ED0     		beq	.L79
 1060 002e 0023     		movs	r3, #0
 1061 0030 9A46     		mov	r10, r3
 1062 0032 00E0     		b	.L75
 1063              	.LVL176:
 1064              	.L81:
 287:Source\mbedtls_open\library/dhm.c ****             return( MBEDTLS_ERR_DHM_MAKE_PUBLIC_FAILED );
 1065              		.loc 1 287 0
 1066 0034 DA46     		mov	r10, fp
 1067              	.LVL177:
 1068              	.L75:
 282:Source\mbedtls_open\library/dhm.c **** 
 1069              		.loc 1 282 0
 1070 0036 3400     		movs	r4, r6
 1071 0038 1C34     		adds	r4, r4, #28
 1072 003a 0D9B     		ldr	r3, [sp, #52]
 1073 003c 0C9A     		ldr	r2, [sp, #48]
 1074 003e 0299     		ldr	r1, [sp, #8]
 1075 0040 2000     		movs	r0, r4
 1076 0042 FFF7FEFF 		bl	mbedtls_mpi_fill_random
 1077              	.LVL178:
 1078 0046 0028     		cmp	r0, #0
 1079 0048 06D0     		beq	.L73
 1080 004a 33E0     		b	.L72
 1081              	.LVL179:
 1082              	.L74:
 285:Source\mbedtls_open\library/dhm.c **** 
 1083              		.loc 1 285 0
 1084 004c 0121     		movs	r1, #1
ARM GAS  C:\Users\Phuong\AppData\Local\Temp\ccQXToeg.s 			page 28


 1085 004e 2000     		movs	r0, r4
 1086 0050 FFF7FEFF 		bl	mbedtls_mpi_shift_r
 1087              	.LVL180:
 1088 0054 0028     		cmp	r0, #0
 1089 0056 2DD1     		bne	.L72
 1090              	.L73:
 284:Source\mbedtls_open\library/dhm.c ****             MBEDTLS_MPI_CHK( mbedtls_mpi_shift_r( &ctx->X, 1 ) );
 1091              		.loc 1 284 0
 1092 0058 2900     		movs	r1, r5
 1093 005a 2000     		movs	r0, r4
 1094              	.LVL181:
 1095 005c FFF7FEFF 		bl	mbedtls_mpi_cmp_mpi
 1096              	.LVL182:
 1097 0060 0028     		cmp	r0, #0
 1098 0062 F3DA     		bge	.L74
 287:Source\mbedtls_open\library/dhm.c ****             return( MBEDTLS_ERR_DHM_MAKE_PUBLIC_FAILED );
 1099              		.loc 1 287 0
 1100 0064 0123     		movs	r3, #1
 1101 0066 5344     		add	r3, r3, r10
 1102 0068 9B46     		mov	fp, r3
 1103              	.LVL183:
 1104 006a 5346     		mov	r3, r10
 1105              	.LVL184:
 1106 006c 0A2B     		cmp	r3, #10
 1107 006e 2FDC     		bgt	.L80
 290:Source\mbedtls_open\library/dhm.c **** 
 1108              		.loc 1 290 0
 1109 0070 2900     		movs	r1, r5
 1110 0072 2000     		movs	r0, r4
 1111 0074 FFF7FEFF 		bl	dhm_check_range
 1112              	.LVL185:
 1113 0078 0028     		cmp	r0, #0
 1114 007a DBD1     		bne	.L81
 292:Source\mbedtls_open\library/dhm.c ****                           &ctx->P , &ctx->RP ) );
 1115              		.loc 1 292 0
 1116 007c 2823     		movs	r3, #40
 1117 007e 9C46     		mov	ip, r3
 1118 0080 B444     		add	ip, ip, r6
 1119 0082 6346     		mov	r3, ip
 1120 0084 6046     		mov	r0, ip
 1121 0086 0293     		str	r3, [sp, #8]
 1122              	.LVL186:
 1123 0088 3100     		movs	r1, r6
 1124 008a 1031     		adds	r1, r1, #16
 1125 008c 3300     		movs	r3, r6
 1126 008e 4C33     		adds	r3, r3, #76
 1127 0090 0093     		str	r3, [sp]
 1128 0092 2B00     		movs	r3, r5
 1129 0094 2200     		movs	r2, r4
 1130 0096 FFF7FEFF 		bl	mbedtls_mpi_exp_mod
 1131              	.LVL187:
 1132 009a 0028     		cmp	r0, #0
 1133 009c 0AD1     		bne	.L72
 295:Source\mbedtls_open\library/dhm.c ****         return( ret );
 1134              		.loc 1 295 0
 1135 009e 2900     		movs	r1, r5
 1136 00a0 0298     		ldr	r0, [sp, #8]
ARM GAS  C:\Users\Phuong\AppData\Local\Temp\ccQXToeg.s 			page 29


 1137              	.LVL188:
 1138 00a2 FFF7FEFF 		bl	dhm_check_range
 1139              	.LVL189:
 1140 00a6 0028     		cmp	r0, #0
 1141 00a8 15D1     		bne	.L71
 298:Source\mbedtls_open\library/dhm.c **** 
 1142              		.loc 1 298 0
 1143 00aa 3A00     		movs	r2, r7
 1144 00ac 0399     		ldr	r1, [sp, #12]
 1145 00ae 0298     		ldr	r0, [sp, #8]
 1146              	.LVL190:
 1147 00b0 FFF7FEFF 		bl	mbedtls_mpi_write_binary
 1148              	.LVL191:
 1149              	.L72:
 302:Source\mbedtls_open\library/dhm.c ****         return( MBEDTLS_ERR_DHM_MAKE_PUBLIC_FAILED + ret );
 1150              		.loc 1 302 0
 1151 00b4 0028     		cmp	r0, #0
 1152 00b6 0DD0     		beq	.L83
 303:Source\mbedtls_open\library/dhm.c **** 
 1153              		.loc 1 303 0
 1154 00b8 094B     		ldr	r3, .L84
 1155 00ba 9C46     		mov	ip, r3
 1156 00bc 6044     		add	r0, r0, ip
 1157              	.LVL192:
 1158 00be 0AE0     		b	.L71
 1159              	.LVL193:
 1160              	.L76:
 272:Source\mbedtls_open\library/dhm.c **** 
 1161              		.loc 1 272 0
 1162 00c0 0848     		ldr	r0, .L84+4
 1163              	.LVL194:
 1164 00c2 08E0     		b	.L71
 1165              	.LVL195:
 1166              	.L77:
 1167 00c4 0748     		ldr	r0, .L84+4
 1168              	.LVL196:
 1169 00c6 06E0     		b	.L71
 1170              	.LVL197:
 1171              	.L78:
 1172 00c8 0648     		ldr	r0, .L84+4
 1173              	.LVL198:
 1174 00ca 04E0     		b	.L71
 1175              	.LVL199:
 1176              	.L79:
 275:Source\mbedtls_open\library/dhm.c **** 
 1177              		.loc 1 275 0
 1178 00cc 0548     		ldr	r0, .L84+4
 1179 00ce 02E0     		b	.L71
 1180              	.LVL200:
 1181              	.L80:
 288:Source\mbedtls_open\library/dhm.c ****     }
 1182              		.loc 1 288 0
 1183 00d0 0348     		ldr	r0, .L84
 1184 00d2 00E0     		b	.L71
 1185              	.LVL201:
 1186              	.L83:
 305:Source\mbedtls_open\library/dhm.c **** }
ARM GAS  C:\Users\Phuong\AppData\Local\Temp\ccQXToeg.s 			page 30


 1187              		.loc 1 305 0
 1188 00d4 0020     		movs	r0, #0
 1189              	.LVL202:
 1190              	.L71:
 306:Source\mbedtls_open\library/dhm.c **** 
 1191              		.loc 1 306 0
 1192 00d6 05B0     		add	sp, sp, #20
 1193              		@ sp needed
 1194              	.LVL203:
 1195              	.LVL204:
 1196 00d8 0CBC     		pop	{r2, r3}
 1197 00da 9246     		mov	r10, r2
 1198 00dc 9B46     		mov	fp, r3
 1199 00de F0BD     		pop	{r4, r5, r6, r7, pc}
 1200              	.L85:
 1201              		.align	2
 1202              	.L84:
 1203 00e0 80CDFFFF 		.word	-12928
 1204 00e4 80CFFFFF 		.word	-12416
 1205              		.cfi_endproc
 1206              	.LFE8:
 1207              		.size	mbedtls_dhm_make_public, .-mbedtls_dhm_make_public
 1208              		.section	.text.mbedtls_dhm_calc_secret,"ax",%progbits
 1209              		.align	2
 1210              		.global	mbedtls_dhm_calc_secret
 1211              		.code	16
 1212              		.thumb_func
 1213              		.type	mbedtls_dhm_calc_secret, %function
 1214              	mbedtls_dhm_calc_secret:
 1215              	.LFB10:
 372:Source\mbedtls_open\library/dhm.c **** 
 373:Source\mbedtls_open\library/dhm.c **** /*
 374:Source\mbedtls_open\library/dhm.c ****  * Derive and export the shared secret (G^Y)^X mod P
 375:Source\mbedtls_open\library/dhm.c ****  */
 376:Source\mbedtls_open\library/dhm.c **** int mbedtls_dhm_calc_secret( mbedtls_dhm_context *ctx,
 377:Source\mbedtls_open\library/dhm.c ****                      unsigned char *output, size_t output_size, size_t *olen,
 378:Source\mbedtls_open\library/dhm.c ****                      int (*f_rng)(void *, unsigned char *, size_t),
 379:Source\mbedtls_open\library/dhm.c ****                      void *p_rng )
 380:Source\mbedtls_open\library/dhm.c **** {
 1216              		.loc 1 380 0
 1217              		.cfi_startproc
 1218              		@ args = 8, pretend = 0, frame = 24
 1219              		@ frame_needed = 0, uses_anonymous_args = 0
 1220              	.LVL205:
 1221 0000 F0B5     		push	{r4, r5, r6, r7, lr}
 1222              		.cfi_def_cfa_offset 20
 1223              		.cfi_offset 4, -20
 1224              		.cfi_offset 5, -16
 1225              		.cfi_offset 6, -12
 1226              		.cfi_offset 7, -8
 1227              		.cfi_offset 14, -4
 1228 0002 89B0     		sub	sp, sp, #36
 1229              		.cfi_def_cfa_offset 56
 1230 0004 061E     		subs	r6, r0, #0
 1231 0006 0291     		str	r1, [sp, #8]
 1232 0008 0393     		str	r3, [sp, #12]
 381:Source\mbedtls_open\library/dhm.c ****     int ret;
ARM GAS  C:\Users\Phuong\AppData\Local\Temp\ccQXToeg.s 			page 31


 382:Source\mbedtls_open\library/dhm.c ****     mbedtls_mpi GYb;
 383:Source\mbedtls_open\library/dhm.c **** 
 384:Source\mbedtls_open\library/dhm.c ****     if( ctx == NULL || output_size < ctx->len )
 1233              		.loc 1 384 0
 1234 000a 61D0     		beq	.L92
 1235              		.loc 1 384 0 is_stmt 0 discriminator 1
 1236 000c 0368     		ldr	r3, [r0]
 1237              	.LVL206:
 1238 000e 9342     		cmp	r3, r2
 1239 0010 60D8     		bhi	.L93
 385:Source\mbedtls_open\library/dhm.c ****         return( MBEDTLS_ERR_DHM_BAD_INPUT_DATA );
 386:Source\mbedtls_open\library/dhm.c **** 
 387:Source\mbedtls_open\library/dhm.c ****     if( ( ret = dhm_check_range( &ctx->GY, &ctx->P ) ) != 0 )
 1240              		.loc 1 387 0 is_stmt 1
 1241 0012 0700     		movs	r7, r0
 1242 0014 3437     		adds	r7, r7, #52
 1243 0016 051D     		adds	r5, r0, #4
 1244 0018 2900     		movs	r1, r5
 1245              	.LVL207:
 1246 001a 3800     		movs	r0, r7
 1247              	.LVL208:
 1248 001c FFF7FEFF 		bl	dhm_check_range
 1249              	.LVL209:
 1250 0020 0028     		cmp	r0, #0
 1251 0022 5AD1     		bne	.L87
 388:Source\mbedtls_open\library/dhm.c ****         return( ret );
 389:Source\mbedtls_open\library/dhm.c **** 
 390:Source\mbedtls_open\library/dhm.c ****     mbedtls_mpi_init( &GYb );
 1252              		.loc 1 390 0
 1253 0024 05A8     		add	r0, sp, #20
 1254              	.LVL210:
 1255 0026 FFF7FEFF 		bl	mbedtls_mpi_init
 1256              	.LVL211:
 391:Source\mbedtls_open\library/dhm.c **** 
 392:Source\mbedtls_open\library/dhm.c ****     /* Blind peer's value */
 393:Source\mbedtls_open\library/dhm.c ****     if( f_rng != NULL )
 1257              		.loc 1 393 0
 1258 002a 0E9B     		ldr	r3, [sp, #56]
 1259 002c 002B     		cmp	r3, #0
 1260 002e 16D0     		beq	.L88
 394:Source\mbedtls_open\library/dhm.c ****     {
 395:Source\mbedtls_open\library/dhm.c ****         MBEDTLS_MPI_CHK( dhm_update_blinding( ctx, f_rng, p_rng ) );
 1261              		.loc 1 395 0
 1262 0030 0F9A     		ldr	r2, [sp, #60]
 1263 0032 1900     		movs	r1, r3
 1264 0034 3000     		movs	r0, r6
 1265 0036 FFF7FEFF 		bl	dhm_update_blinding
 1266              	.LVL212:
 1267 003a 041E     		subs	r4, r0, #0
 1268              	.LVL213:
 1269 003c 40D1     		bne	.L89
 396:Source\mbedtls_open\library/dhm.c ****         MBEDTLS_MPI_CHK( mbedtls_mpi_mul_mpi( &GYb, &ctx->GY, &ctx->Vi ) );
 1270              		.loc 1 396 0
 1271 003e 3200     		movs	r2, r6
 1272 0040 5832     		adds	r2, r2, #88
 1273 0042 3900     		movs	r1, r7
 1274 0044 05A8     		add	r0, sp, #20
ARM GAS  C:\Users\Phuong\AppData\Local\Temp\ccQXToeg.s 			page 32


 1275              	.LVL214:
 1276 0046 FFF7FEFF 		bl	mbedtls_mpi_mul_mpi
 1277              	.LVL215:
 1278 004a 041E     		subs	r4, r0, #0
 1279              	.LVL216:
 1280 004c 38D1     		bne	.L89
 397:Source\mbedtls_open\library/dhm.c ****         MBEDTLS_MPI_CHK( mbedtls_mpi_mod_mpi( &GYb, &GYb, &ctx->P ) );
 1281              		.loc 1 397 0
 1282 004e 2A00     		movs	r2, r5
 1283 0050 05A9     		add	r1, sp, #20
 1284 0052 0800     		movs	r0, r1
 1285              	.LVL217:
 1286 0054 FFF7FEFF 		bl	mbedtls_mpi_mod_mpi
 1287              	.LVL218:
 1288 0058 041E     		subs	r4, r0, #0
 1289              	.LVL219:
 1290 005a 31D1     		bne	.L89
 1291 005c 05E0     		b	.L90
 1292              	.LVL220:
 1293              	.L88:
 398:Source\mbedtls_open\library/dhm.c ****     }
 399:Source\mbedtls_open\library/dhm.c ****     else
 400:Source\mbedtls_open\library/dhm.c ****         MBEDTLS_MPI_CHK( mbedtls_mpi_copy( &GYb, &ctx->GY ) );
 1294              		.loc 1 400 0
 1295 005e 3900     		movs	r1, r7
 1296 0060 05A8     		add	r0, sp, #20
 1297 0062 FFF7FEFF 		bl	mbedtls_mpi_copy
 1298              	.LVL221:
 1299 0066 041E     		subs	r4, r0, #0
 1300              	.LVL222:
 1301 0068 2AD1     		bne	.L89
 1302              	.L90:
 401:Source\mbedtls_open\library/dhm.c **** 
 402:Source\mbedtls_open\library/dhm.c ****     /* Do modular exponentiation */
 403:Source\mbedtls_open\library/dhm.c ****     MBEDTLS_MPI_CHK( mbedtls_mpi_exp_mod( &ctx->K, &GYb, &ctx->X,
 1303              		.loc 1 403 0
 1304 006a 3700     		movs	r7, r6
 1305 006c 4037     		adds	r7, r7, #64
 1306 006e 3200     		movs	r2, r6
 1307 0070 1C32     		adds	r2, r2, #28
 1308 0072 3300     		movs	r3, r6
 1309 0074 4C33     		adds	r3, r3, #76
 1310 0076 0093     		str	r3, [sp]
 1311 0078 2B00     		movs	r3, r5
 1312 007a 05A9     		add	r1, sp, #20
 1313 007c 3800     		movs	r0, r7
 1314              	.LVL223:
 1315 007e FFF7FEFF 		bl	mbedtls_mpi_exp_mod
 1316              	.LVL224:
 1317 0082 041E     		subs	r4, r0, #0
 1318              	.LVL225:
 1319 0084 1CD1     		bne	.L89
 404:Source\mbedtls_open\library/dhm.c ****                           &ctx->P, &ctx->RP ) );
 405:Source\mbedtls_open\library/dhm.c **** 
 406:Source\mbedtls_open\library/dhm.c ****     /* Unblind secret value */
 407:Source\mbedtls_open\library/dhm.c ****     if( f_rng != NULL )
 1320              		.loc 1 407 0
ARM GAS  C:\Users\Phuong\AppData\Local\Temp\ccQXToeg.s 			page 33


 1321 0086 0E9B     		ldr	r3, [sp, #56]
 1322 0088 002B     		cmp	r3, #0
 1323 008a 0ED0     		beq	.L91
 408:Source\mbedtls_open\library/dhm.c ****     {
 409:Source\mbedtls_open\library/dhm.c ****         MBEDTLS_MPI_CHK( mbedtls_mpi_mul_mpi( &ctx->K, &ctx->K, &ctx->Vf ) );
 1324              		.loc 1 409 0
 1325 008c 3200     		movs	r2, r6
 1326 008e 6432     		adds	r2, r2, #100
 1327 0090 3900     		movs	r1, r7
 1328 0092 3800     		movs	r0, r7
 1329              	.LVL226:
 1330 0094 FFF7FEFF 		bl	mbedtls_mpi_mul_mpi
 1331              	.LVL227:
 1332 0098 041E     		subs	r4, r0, #0
 1333              	.LVL228:
 1334 009a 11D1     		bne	.L89
 410:Source\mbedtls_open\library/dhm.c ****         MBEDTLS_MPI_CHK( mbedtls_mpi_mod_mpi( &ctx->K, &ctx->K, &ctx->P ) );
 1335              		.loc 1 410 0
 1336 009c 2A00     		movs	r2, r5
 1337 009e 3900     		movs	r1, r7
 1338 00a0 3800     		movs	r0, r7
 1339              	.LVL229:
 1340 00a2 FFF7FEFF 		bl	mbedtls_mpi_mod_mpi
 1341              	.LVL230:
 1342 00a6 041E     		subs	r4, r0, #0
 1343              	.LVL231:
 1344 00a8 0AD1     		bne	.L89
 1345              	.L91:
 411:Source\mbedtls_open\library/dhm.c ****     }
 412:Source\mbedtls_open\library/dhm.c **** 
 413:Source\mbedtls_open\library/dhm.c ****     *olen = mbedtls_mpi_size( &ctx->K );
 1346              		.loc 1 413 0
 1347 00aa 3800     		movs	r0, r7
 1348              	.LVL232:
 1349 00ac FFF7FEFF 		bl	mbedtls_mpi_size
 1350              	.LVL233:
 1351 00b0 0200     		movs	r2, r0
 1352 00b2 039B     		ldr	r3, [sp, #12]
 1353 00b4 1860     		str	r0, [r3]
 414:Source\mbedtls_open\library/dhm.c **** 
 415:Source\mbedtls_open\library/dhm.c ****     MBEDTLS_MPI_CHK( mbedtls_mpi_write_binary( &ctx->K, output, *olen ) );
 1354              		.loc 1 415 0
 1355 00b6 0299     		ldr	r1, [sp, #8]
 1356 00b8 3800     		movs	r0, r7
 1357 00ba FFF7FEFF 		bl	mbedtls_mpi_write_binary
 1358              	.LVL234:
 1359 00be 0400     		movs	r4, r0
 1360              	.LVL235:
 1361              	.L89:
 416:Source\mbedtls_open\library/dhm.c **** 
 417:Source\mbedtls_open\library/dhm.c **** cleanup:
 418:Source\mbedtls_open\library/dhm.c ****     mbedtls_mpi_free( &GYb );
 1362              		.loc 1 418 0
 1363 00c0 05A8     		add	r0, sp, #20
 1364              	.LVL236:
 1365 00c2 FFF7FEFF 		bl	mbedtls_mpi_free
 1366              	.LVL237:
ARM GAS  C:\Users\Phuong\AppData\Local\Temp\ccQXToeg.s 			page 34


 419:Source\mbedtls_open\library/dhm.c **** 
 420:Source\mbedtls_open\library/dhm.c ****     if( ret != 0 )
 1367              		.loc 1 420 0
 1368 00c6 002C     		cmp	r4, #0
 1369 00c8 06D0     		beq	.L95
 421:Source\mbedtls_open\library/dhm.c ****         return( MBEDTLS_ERR_DHM_CALC_SECRET_FAILED + ret );
 1370              		.loc 1 421 0
 1371 00ca 054B     		ldr	r3, .L96
 1372 00cc E018     		adds	r0, r4, r3
 1373 00ce 04E0     		b	.L87
 1374              	.LVL238:
 1375              	.L92:
 385:Source\mbedtls_open\library/dhm.c **** 
 1376              		.loc 1 385 0
 1377 00d0 0448     		ldr	r0, .L96+4
 1378              	.LVL239:
 1379 00d2 02E0     		b	.L87
 1380              	.LVL240:
 1381              	.L93:
 1382 00d4 0348     		ldr	r0, .L96+4
 1383              	.LVL241:
 1384 00d6 00E0     		b	.L87
 1385              	.LVL242:
 1386              	.L95:
 422:Source\mbedtls_open\library/dhm.c **** 
 423:Source\mbedtls_open\library/dhm.c ****     return( 0 );
 1387              		.loc 1 423 0
 1388 00d8 0020     		movs	r0, #0
 1389              	.LVL243:
 1390              	.L87:
 424:Source\mbedtls_open\library/dhm.c **** }
 1391              		.loc 1 424 0
 1392 00da 09B0     		add	sp, sp, #36
 1393              		@ sp needed
 1394              	.LVL244:
 1395 00dc F0BD     		pop	{r4, r5, r6, r7, pc}
 1396              	.L97:
 1397 00de C046     		.align	2
 1398              	.L96:
 1399 00e0 00CDFFFF 		.word	-13056
 1400 00e4 80CFFFFF 		.word	-12416
 1401              		.cfi_endproc
 1402              	.LFE10:
 1403              		.size	mbedtls_dhm_calc_secret, .-mbedtls_dhm_calc_secret
 1404              		.section	.text.mbedtls_dhm_free,"ax",%progbits
 1405              		.align	2
 1406              		.global	mbedtls_dhm_free
 1407              		.code	16
 1408              		.thumb_func
 1409              		.type	mbedtls_dhm_free, %function
 1410              	mbedtls_dhm_free:
 1411              	.LFB11:
 425:Source\mbedtls_open\library/dhm.c **** 
 426:Source\mbedtls_open\library/dhm.c **** /*
 427:Source\mbedtls_open\library/dhm.c ****  * Free the components of a DHM key
 428:Source\mbedtls_open\library/dhm.c ****  */
 429:Source\mbedtls_open\library/dhm.c **** void mbedtls_dhm_free( mbedtls_dhm_context *ctx )
ARM GAS  C:\Users\Phuong\AppData\Local\Temp\ccQXToeg.s 			page 35


 430:Source\mbedtls_open\library/dhm.c **** {
 1412              		.loc 1 430 0
 1413              		.cfi_startproc
 1414              		@ args = 0, pretend = 0, frame = 0
 1415              		@ frame_needed = 0, uses_anonymous_args = 0
 1416              	.LVL245:
 1417 0000 10B5     		push	{r4, lr}
 1418              		.cfi_def_cfa_offset 8
 1419              		.cfi_offset 4, -8
 1420              		.cfi_offset 14, -4
 1421 0002 0400     		movs	r4, r0
 431:Source\mbedtls_open\library/dhm.c ****     mbedtls_mpi_free( &ctx->pX ); mbedtls_mpi_free( &ctx->Vf );
 1422              		.loc 1 431 0
 1423 0004 7030     		adds	r0, r0, #112
 1424              	.LVL246:
 1425 0006 FFF7FEFF 		bl	mbedtls_mpi_free
 1426              	.LVL247:
 1427 000a 2000     		movs	r0, r4
 1428 000c 6430     		adds	r0, r0, #100
 1429 000e FFF7FEFF 		bl	mbedtls_mpi_free
 1430              	.LVL248:
 432:Source\mbedtls_open\library/dhm.c ****     mbedtls_mpi_free( &ctx->Vi ); mbedtls_mpi_free( &ctx->RP );
 1431              		.loc 1 432 0
 1432 0012 2000     		movs	r0, r4
 1433 0014 5830     		adds	r0, r0, #88
 1434 0016 FFF7FEFF 		bl	mbedtls_mpi_free
 1435              	.LVL249:
 1436 001a 2000     		movs	r0, r4
 1437 001c 4C30     		adds	r0, r0, #76
 1438 001e FFF7FEFF 		bl	mbedtls_mpi_free
 1439              	.LVL250:
 433:Source\mbedtls_open\library/dhm.c ****     mbedtls_mpi_free( &ctx->K  ); mbedtls_mpi_free( &ctx->GY );
 1440              		.loc 1 433 0
 1441 0022 2000     		movs	r0, r4
 1442 0024 4030     		adds	r0, r0, #64
 1443 0026 FFF7FEFF 		bl	mbedtls_mpi_free
 1444              	.LVL251:
 1445 002a 2000     		movs	r0, r4
 1446 002c 3430     		adds	r0, r0, #52
 1447 002e FFF7FEFF 		bl	mbedtls_mpi_free
 1448              	.LVL252:
 434:Source\mbedtls_open\library/dhm.c ****     mbedtls_mpi_free( &ctx->GX ); mbedtls_mpi_free( &ctx->X  );
 1449              		.loc 1 434 0
 1450 0032 2000     		movs	r0, r4
 1451 0034 2830     		adds	r0, r0, #40
 1452 0036 FFF7FEFF 		bl	mbedtls_mpi_free
 1453              	.LVL253:
 1454 003a 2000     		movs	r0, r4
 1455 003c 1C30     		adds	r0, r0, #28
 1456 003e FFF7FEFF 		bl	mbedtls_mpi_free
 1457              	.LVL254:
 435:Source\mbedtls_open\library/dhm.c ****     mbedtls_mpi_free( &ctx->G  ); mbedtls_mpi_free( &ctx->P  );
 1458              		.loc 1 435 0
 1459 0042 2000     		movs	r0, r4
 1460 0044 1030     		adds	r0, r0, #16
 1461 0046 FFF7FEFF 		bl	mbedtls_mpi_free
 1462              	.LVL255:
ARM GAS  C:\Users\Phuong\AppData\Local\Temp\ccQXToeg.s 			page 36


 1463 004a 201D     		adds	r0, r4, #4
 1464 004c FFF7FEFF 		bl	mbedtls_mpi_free
 1465              	.LVL256:
 436:Source\mbedtls_open\library/dhm.c **** 
 437:Source\mbedtls_open\library/dhm.c ****     mbedtls_platform_zeroize( ctx, sizeof( mbedtls_dhm_context ) );
 1466              		.loc 1 437 0
 1467 0050 7C21     		movs	r1, #124
 1468 0052 2000     		movs	r0, r4
 1469 0054 FFF7FEFF 		bl	mbedtls_platform_zeroize
 1470              	.LVL257:
 438:Source\mbedtls_open\library/dhm.c **** }
 1471              		.loc 1 438 0
 1472              		@ sp needed
 1473              	.LVL258:
 1474 0058 10BD     		pop	{r4, pc}
 1475              		.cfi_endproc
 1476              	.LFE11:
 1477              		.size	mbedtls_dhm_free, .-mbedtls_dhm_free
 1478 005a C046     		.section	.text.mbedtls_dhm_parse_dhm,"ax",%progbits
 1479              		.align	2
 1480              		.global	mbedtls_dhm_parse_dhm
 1481              		.code	16
 1482              		.thumb_func
 1483              		.type	mbedtls_dhm_parse_dhm, %function
 1484              	mbedtls_dhm_parse_dhm:
 1485              	.LFB12:
 439:Source\mbedtls_open\library/dhm.c **** 
 440:Source\mbedtls_open\library/dhm.c **** #if defined(MBEDTLS_ASN1_PARSE_C)
 441:Source\mbedtls_open\library/dhm.c **** /*
 442:Source\mbedtls_open\library/dhm.c ****  * Parse DHM parameters
 443:Source\mbedtls_open\library/dhm.c ****  */
 444:Source\mbedtls_open\library/dhm.c **** int mbedtls_dhm_parse_dhm( mbedtls_dhm_context *dhm, const unsigned char *dhmin,
 445:Source\mbedtls_open\library/dhm.c ****                    size_t dhminlen )
 446:Source\mbedtls_open\library/dhm.c **** {
 1486              		.loc 1 446 0
 1487              		.cfi_startproc
 1488              		@ args = 0, pretend = 0, frame = 40
 1489              		@ frame_needed = 0, uses_anonymous_args = 0
 1490              	.LVL259:
 1491 0000 F0B5     		push	{r4, r5, r6, r7, lr}
 1492              		.cfi_def_cfa_offset 20
 1493              		.cfi_offset 4, -20
 1494              		.cfi_offset 5, -16
 1495              		.cfi_offset 6, -12
 1496              		.cfi_offset 7, -8
 1497              		.cfi_offset 14, -4
 1498 0002 4746     		mov	r7, r8
 1499 0004 80B4     		push	{r7}
 1500              		.cfi_def_cfa_offset 24
 1501              		.cfi_offset 8, -24
 1502 0006 8EB0     		sub	sp, sp, #56
 1503              		.cfi_def_cfa_offset 80
 1504 0008 0500     		movs	r5, r0
 1505 000a 0E00     		movs	r6, r1
 1506 000c 0592     		str	r2, [sp, #20]
 447:Source\mbedtls_open\library/dhm.c ****     int ret;
 448:Source\mbedtls_open\library/dhm.c ****     size_t len;
ARM GAS  C:\Users\Phuong\AppData\Local\Temp\ccQXToeg.s 			page 37


 449:Source\mbedtls_open\library/dhm.c ****     unsigned char *p, *end;
 450:Source\mbedtls_open\library/dhm.c **** #if defined(MBEDTLS_PEM_PARSE_C)
 451:Source\mbedtls_open\library/dhm.c ****     mbedtls_pem_context pem;
 452:Source\mbedtls_open\library/dhm.c **** 
 453:Source\mbedtls_open\library/dhm.c ****     mbedtls_pem_init( &pem );
 1507              		.loc 1 453 0
 1508 000e 09A8     		add	r0, sp, #36
 1509              	.LVL260:
 1510 0010 FFF7FEFF 		bl	mbedtls_pem_init
 1511              	.LVL261:
 454:Source\mbedtls_open\library/dhm.c **** 
 455:Source\mbedtls_open\library/dhm.c ****     /* Avoid calling mbedtls_pem_read_buffer() on non-null-terminated string */
 456:Source\mbedtls_open\library/dhm.c ****     if( dhminlen == 0 || dhmin[dhminlen - 1] != '\0' )
 1512              		.loc 1 456 0
 1513 0014 059B     		ldr	r3, [sp, #20]
 1514 0016 002B     		cmp	r3, #0
 1515 0018 11D0     		beq	.L112
 1516              		.loc 1 456 0 is_stmt 0 discriminator 1
 1517 001a F318     		adds	r3, r6, r3
 1518 001c 013B     		subs	r3, r3, #1
 1519 001e 1B78     		ldrb	r3, [r3]
 1520 0020 002B     		cmp	r3, #0
 1521 0022 0ED1     		bne	.L113
 457:Source\mbedtls_open\library/dhm.c ****         ret = MBEDTLS_ERR_PEM_NO_HEADER_FOOTER_PRESENT;
 458:Source\mbedtls_open\library/dhm.c ****     else
 459:Source\mbedtls_open\library/dhm.c ****         ret = mbedtls_pem_read_buffer( &pem,
 1522              		.loc 1 459 0 is_stmt 1
 1523 0024 05AB     		add	r3, sp, #20
 1524              	.LVL262:
 1525 0026 0293     		str	r3, [sp, #8]
 1526 0028 0023     		movs	r3, #0
 1527              	.LVL263:
 1528 002a 0193     		str	r3, [sp, #4]
 1529 002c 0093     		str	r3, [sp]
 1530 002e 3300     		movs	r3, r6
 1531 0030 344A     		ldr	r2, .L116
 1532 0032 3549     		ldr	r1, .L116+4
 1533 0034 09A8     		add	r0, sp, #36
 1534 0036 FFF7FEFF 		bl	mbedtls_pem_read_buffer
 1535              	.LVL264:
 1536 003a 0400     		movs	r4, r0
 1537              	.LVL265:
 1538 003c 02E0     		b	.L100
 1539              	.LVL266:
 1540              	.L112:
 457:Source\mbedtls_open\library/dhm.c ****         ret = MBEDTLS_ERR_PEM_NO_HEADER_FOOTER_PRESENT;
 1541              		.loc 1 457 0
 1542 003e 334C     		ldr	r4, .L116+8
 1543 0040 00E0     		b	.L100
 1544              	.L113:
 1545 0042 324C     		ldr	r4, .L116+8
 1546              	.L100:
 1547              	.LVL267:
 460:Source\mbedtls_open\library/dhm.c ****                                "-----BEGIN DH PARAMETERS-----",
 461:Source\mbedtls_open\library/dhm.c ****                                "-----END DH PARAMETERS-----",
 462:Source\mbedtls_open\library/dhm.c ****                                dhmin, NULL, 0, &dhminlen );
 463:Source\mbedtls_open\library/dhm.c **** 
ARM GAS  C:\Users\Phuong\AppData\Local\Temp\ccQXToeg.s 			page 38


 464:Source\mbedtls_open\library/dhm.c ****     if( ret == 0 )
 1548              		.loc 1 464 0
 1549 0044 002C     		cmp	r4, #0
 1550 0046 02D1     		bne	.L101
 465:Source\mbedtls_open\library/dhm.c ****     {
 466:Source\mbedtls_open\library/dhm.c ****         /*
 467:Source\mbedtls_open\library/dhm.c ****          * Was PEM encoded
 468:Source\mbedtls_open\library/dhm.c ****          */
 469:Source\mbedtls_open\library/dhm.c ****         dhminlen = pem.buflen;
 1551              		.loc 1 469 0
 1552 0048 0A9B     		ldr	r3, [sp, #40]
 1553 004a 0593     		str	r3, [sp, #20]
 1554 004c 02E0     		b	.L102
 1555              	.L101:
 470:Source\mbedtls_open\library/dhm.c ****     }
 471:Source\mbedtls_open\library/dhm.c ****     else if( ret != MBEDTLS_ERR_PEM_NO_HEADER_FOOTER_PRESENT )
 1556              		.loc 1 471 0
 1557 004e 2F4B     		ldr	r3, .L116+8
 1558 0050 9C42     		cmp	r4, r3
 1559 0052 49D1     		bne	.L103
 1560              	.L102:
 472:Source\mbedtls_open\library/dhm.c ****         goto exit;
 473:Source\mbedtls_open\library/dhm.c **** 
 474:Source\mbedtls_open\library/dhm.c ****     p = ( ret == 0 ) ? pem.buf : (unsigned char *) dhmin;
 1561              		.loc 1 474 0
 1562 0054 002C     		cmp	r4, #0
 1563 0056 01D1     		bne	.L114
 1564              		.loc 1 474 0 is_stmt 0 discriminator 1
 1565 0058 0999     		ldr	r1, [sp, #36]
 1566 005a 00E0     		b	.L104
 1567              	.L114:
 1568              		.loc 1 474 0
 1569 005c 3100     		movs	r1, r6
 1570              	.L104:
 1571              		.loc 1 474 0 discriminator 4
 1572 005e 0C91     		str	r1, [sp, #48]
 475:Source\mbedtls_open\library/dhm.c **** #else
 476:Source\mbedtls_open\library/dhm.c ****     p = (unsigned char *) dhmin;
 477:Source\mbedtls_open\library/dhm.c **** #endif /* MBEDTLS_PEM_PARSE_C */
 478:Source\mbedtls_open\library/dhm.c ****     end = p + dhminlen;
 1573              		.loc 1 478 0 is_stmt 1 discriminator 4
 1574 0060 059B     		ldr	r3, [sp, #20]
 1575 0062 9C46     		mov	ip, r3
 1576 0064 6144     		add	r1, r1, ip
 1577              	.LVL268:
 479:Source\mbedtls_open\library/dhm.c **** 
 480:Source\mbedtls_open\library/dhm.c ****     /*
 481:Source\mbedtls_open\library/dhm.c ****      *  DHParams ::= SEQUENCE {
 482:Source\mbedtls_open\library/dhm.c ****      *      prime              INTEGER,  -- P
 483:Source\mbedtls_open\library/dhm.c ****      *      generator          INTEGER,  -- g
 484:Source\mbedtls_open\library/dhm.c ****      *      privateValueLength INTEGER OPTIONAL
 485:Source\mbedtls_open\library/dhm.c ****      *  }
 486:Source\mbedtls_open\library/dhm.c ****      */
 487:Source\mbedtls_open\library/dhm.c ****     if( ( ret = mbedtls_asn1_get_tag( &p, end, &len,
 1578              		.loc 1 487 0 discriminator 4
 1579 0066 3023     		movs	r3, #48
 1580 0068 0DAA     		add	r2, sp, #52
ARM GAS  C:\Users\Phuong\AppData\Local\Temp\ccQXToeg.s 			page 39


 1581 006a 0CA8     		add	r0, sp, #48
 1582 006c FFF7FEFF 		bl	mbedtls_asn1_get_tag
 1583              	.LVL269:
 1584 0070 0028     		cmp	r0, #0
 1585 0072 02D0     		beq	.L105
 488:Source\mbedtls_open\library/dhm.c ****             MBEDTLS_ASN1_CONSTRUCTED | MBEDTLS_ASN1_SEQUENCE ) ) != 0 )
 489:Source\mbedtls_open\library/dhm.c ****     {
 490:Source\mbedtls_open\library/dhm.c ****         ret = MBEDTLS_ERR_DHM_INVALID_FORMAT + ret;
 1586              		.loc 1 490 0
 1587 0074 264B     		ldr	r3, .L116+12
 1588 0076 C418     		adds	r4, r0, r3
 1589              	.LVL270:
 491:Source\mbedtls_open\library/dhm.c ****         goto exit;
 1590              		.loc 1 491 0
 1591 0078 36E0     		b	.L103
 1592              	.LVL271:
 1593              	.L105:
 492:Source\mbedtls_open\library/dhm.c ****     }
 493:Source\mbedtls_open\library/dhm.c **** 
 494:Source\mbedtls_open\library/dhm.c ****     end = p + len;
 1594              		.loc 1 494 0
 1595 007a 0C9B     		ldr	r3, [sp, #48]
 1596 007c 0D9A     		ldr	r2, [sp, #52]
 1597 007e 9446     		mov	ip, r2
 1598 0080 6344     		add	r3, r3, ip
 1599 0082 1E00     		movs	r6, r3
 1600              	.LVL272:
 495:Source\mbedtls_open\library/dhm.c **** 
 496:Source\mbedtls_open\library/dhm.c ****     if( ( ret = mbedtls_asn1_get_mpi( &p, end, &dhm->P  ) ) != 0 ||
 1601              		.loc 1 496 0
 1602 0084 2F1D     		adds	r7, r5, #4
 1603 0086 3A00     		movs	r2, r7
 1604 0088 1900     		movs	r1, r3
 1605 008a 0CA8     		add	r0, sp, #48
 1606              	.LVL273:
 1607 008c FFF7FEFF 		bl	mbedtls_asn1_get_mpi
 1608              	.LVL274:
 1609 0090 041E     		subs	r4, r0, #0
 1610              	.LVL275:
 1611 0092 07D1     		bne	.L106
 497:Source\mbedtls_open\library/dhm.c ****         ( ret = mbedtls_asn1_get_mpi( &p, end, &dhm->G ) ) != 0 )
 1612              		.loc 1 497 0 discriminator 1
 1613 0094 2A00     		movs	r2, r5
 1614 0096 1032     		adds	r2, r2, #16
 496:Source\mbedtls_open\library/dhm.c ****         ( ret = mbedtls_asn1_get_mpi( &p, end, &dhm->G ) ) != 0 )
 1615              		.loc 1 496 0 discriminator 1
 1616 0098 3100     		movs	r1, r6
 1617 009a 0CA8     		add	r0, sp, #48
 1618              	.LVL276:
 1619 009c FFF7FEFF 		bl	mbedtls_asn1_get_mpi
 1620              	.LVL277:
 1621 00a0 041E     		subs	r4, r0, #0
 1622              	.LVL278:
 1623 00a2 03D0     		beq	.L107
 1624              	.L106:
 498:Source\mbedtls_open\library/dhm.c ****     {
 499:Source\mbedtls_open\library/dhm.c ****         ret = MBEDTLS_ERR_DHM_INVALID_FORMAT + ret;
ARM GAS  C:\Users\Phuong\AppData\Local\Temp\ccQXToeg.s 			page 40


 1625              		.loc 1 499 0
 1626 00a4 1A4B     		ldr	r3, .L116+12
 1627 00a6 9C46     		mov	ip, r3
 1628 00a8 6444     		add	r4, r4, ip
 1629              	.LVL279:
 500:Source\mbedtls_open\library/dhm.c ****         goto exit;
 1630              		.loc 1 500 0
 1631 00aa 1DE0     		b	.L103
 1632              	.LVL280:
 1633              	.L107:
 501:Source\mbedtls_open\library/dhm.c ****     }
 502:Source\mbedtls_open\library/dhm.c **** 
 503:Source\mbedtls_open\library/dhm.c ****     if( p != end )
 1634              		.loc 1 503 0
 1635 00ac 0C9B     		ldr	r3, [sp, #48]
 1636 00ae 9E42     		cmp	r6, r3
 1637 00b0 16D0     		beq	.L108
 1638              	.LBB2:
 504:Source\mbedtls_open\library/dhm.c ****     {
 505:Source\mbedtls_open\library/dhm.c ****         /* This might be the optional privateValueLength.
 506:Source\mbedtls_open\library/dhm.c ****          * If so, we can cleanly discard it */
 507:Source\mbedtls_open\library/dhm.c ****         mbedtls_mpi rec;
 508:Source\mbedtls_open\library/dhm.c ****         mbedtls_mpi_init( &rec );
 1639              		.loc 1 508 0
 1640 00b2 06A8     		add	r0, sp, #24
 1641              	.LVL281:
 1642 00b4 FFF7FEFF 		bl	mbedtls_mpi_init
 1643              	.LVL282:
 509:Source\mbedtls_open\library/dhm.c ****         ret = mbedtls_asn1_get_mpi( &p, end, &rec );
 1644              		.loc 1 509 0
 1645 00b8 06AA     		add	r2, sp, #24
 1646 00ba 3100     		movs	r1, r6
 1647 00bc 0CA8     		add	r0, sp, #48
 1648 00be FFF7FEFF 		bl	mbedtls_asn1_get_mpi
 1649              	.LVL283:
 1650 00c2 8046     		mov	r8, r0
 1651              	.LVL284:
 510:Source\mbedtls_open\library/dhm.c ****         mbedtls_mpi_free( &rec );
 1652              		.loc 1 510 0
 1653 00c4 06A8     		add	r0, sp, #24
 1654              	.LVL285:
 1655 00c6 FFF7FEFF 		bl	mbedtls_mpi_free
 1656              	.LVL286:
 511:Source\mbedtls_open\library/dhm.c ****         if ( ret != 0 )
 1657              		.loc 1 511 0
 1658 00ca 4346     		mov	r3, r8
 1659 00cc 002B     		cmp	r3, #0
 1660 00ce 02D0     		beq	.L109
 512:Source\mbedtls_open\library/dhm.c ****         {
 513:Source\mbedtls_open\library/dhm.c ****             ret = MBEDTLS_ERR_DHM_INVALID_FORMAT + ret;
 1661              		.loc 1 513 0
 1662 00d0 0F4C     		ldr	r4, .L116+12
 1663 00d2 4444     		add	r4, r4, r8
 1664              	.LVL287:
 514:Source\mbedtls_open\library/dhm.c ****             goto exit;
 1665              		.loc 1 514 0
 1666 00d4 08E0     		b	.L103
ARM GAS  C:\Users\Phuong\AppData\Local\Temp\ccQXToeg.s 			page 41


 1667              	.LVL288:
 1668              	.L109:
 515:Source\mbedtls_open\library/dhm.c ****         }
 516:Source\mbedtls_open\library/dhm.c ****         if ( p != end )
 1669              		.loc 1 516 0
 1670 00d6 0C9B     		ldr	r3, [sp, #48]
 1671 00d8 9E42     		cmp	r6, r3
 1672 00da 01D0     		beq	.L108
 517:Source\mbedtls_open\library/dhm.c ****         {
 518:Source\mbedtls_open\library/dhm.c ****             ret = MBEDTLS_ERR_DHM_INVALID_FORMAT +
 1673              		.loc 1 518 0
 1674 00dc 0D4C     		ldr	r4, .L116+16
 1675              	.LVL289:
 1676 00de 03E0     		b	.L103
 1677              	.LVL290:
 1678              	.L108:
 1679              	.LBE2:
 519:Source\mbedtls_open\library/dhm.c ****                 MBEDTLS_ERR_ASN1_LENGTH_MISMATCH;
 520:Source\mbedtls_open\library/dhm.c ****             goto exit;
 521:Source\mbedtls_open\library/dhm.c ****         }
 522:Source\mbedtls_open\library/dhm.c ****     }
 523:Source\mbedtls_open\library/dhm.c **** 
 524:Source\mbedtls_open\library/dhm.c ****     ret = 0;
 525:Source\mbedtls_open\library/dhm.c **** 
 526:Source\mbedtls_open\library/dhm.c ****     dhm->len = mbedtls_mpi_size( &dhm->P );
 1680              		.loc 1 526 0
 1681 00e0 3800     		movs	r0, r7
 1682 00e2 FFF7FEFF 		bl	mbedtls_mpi_size
 1683              	.LVL291:
 1684 00e6 2860     		str	r0, [r5]
 1685              	.LVL292:
 1686              	.L103:
 527:Source\mbedtls_open\library/dhm.c **** 
 528:Source\mbedtls_open\library/dhm.c **** exit:
 529:Source\mbedtls_open\library/dhm.c **** #if defined(MBEDTLS_PEM_PARSE_C)
 530:Source\mbedtls_open\library/dhm.c ****     mbedtls_pem_free( &pem );
 1687              		.loc 1 530 0
 1688 00e8 09A8     		add	r0, sp, #36
 1689 00ea FFF7FEFF 		bl	mbedtls_pem_free
 1690              	.LVL293:
 531:Source\mbedtls_open\library/dhm.c **** #endif
 532:Source\mbedtls_open\library/dhm.c ****     if( ret != 0 )
 1691              		.loc 1 532 0
 1692 00ee 002C     		cmp	r4, #0
 1693 00f0 02D0     		beq	.L111
 533:Source\mbedtls_open\library/dhm.c ****         mbedtls_dhm_free( dhm );
 1694              		.loc 1 533 0
 1695 00f2 2800     		movs	r0, r5
 1696 00f4 FFF7FEFF 		bl	mbedtls_dhm_free
 1697              	.LVL294:
 1698              	.L111:
 534:Source\mbedtls_open\library/dhm.c **** 
 535:Source\mbedtls_open\library/dhm.c ****     return( ret );
 536:Source\mbedtls_open\library/dhm.c **** }
 1699              		.loc 1 536 0
 1700 00f8 2000     		movs	r0, r4
 1701 00fa 0EB0     		add	sp, sp, #56
ARM GAS  C:\Users\Phuong\AppData\Local\Temp\ccQXToeg.s 			page 42


 1702              		@ sp needed
 1703              	.LVL295:
 1704              	.LVL296:
 1705 00fc 04BC     		pop	{r2}
 1706 00fe 9046     		mov	r8, r2
 1707 0100 F0BD     		pop	{r4, r5, r6, r7, pc}
 1708              	.L117:
 1709 0102 C046     		.align	2
 1710              	.L116:
 1711 0104 00000000 		.word	.LC0
 1712 0108 1C000000 		.word	.LC2
 1713 010c 80EFFFFF 		.word	-4224
 1714 0110 80CCFFFF 		.word	-13184
 1715 0114 1ACCFFFF 		.word	-13286
 1716              		.cfi_endproc
 1717              	.LFE12:
 1718              		.size	mbedtls_dhm_parse_dhm, .-mbedtls_dhm_parse_dhm
 1719              		.section	.text.mbedtls_dhm_self_test,"ax",%progbits
 1720              		.align	2
 1721              		.global	mbedtls_dhm_self_test
 1722              		.code	16
 1723              		.thumb_func
 1724              		.type	mbedtls_dhm_self_test, %function
 1725              	mbedtls_dhm_self_test:
 1726              	.LFB13:
 537:Source\mbedtls_open\library/dhm.c **** 
 538:Source\mbedtls_open\library/dhm.c **** #if defined(MBEDTLS_FS_IO)
 539:Source\mbedtls_open\library/dhm.c **** /*
 540:Source\mbedtls_open\library/dhm.c ****  * Load all data from a file into a given buffer.
 541:Source\mbedtls_open\library/dhm.c ****  *
 542:Source\mbedtls_open\library/dhm.c ****  * The file is expected to contain either PEM or DER encoded data.
 543:Source\mbedtls_open\library/dhm.c ****  * A terminating null byte is always appended. It is included in the announced
 544:Source\mbedtls_open\library/dhm.c ****  * length only if the data looks like it is PEM encoded.
 545:Source\mbedtls_open\library/dhm.c ****  */
 546:Source\mbedtls_open\library/dhm.c **** static int load_file( const char *path, unsigned char **buf, size_t *n )
 547:Source\mbedtls_open\library/dhm.c **** {
 548:Source\mbedtls_open\library/dhm.c ****     FILE *f;
 549:Source\mbedtls_open\library/dhm.c ****     long size;
 550:Source\mbedtls_open\library/dhm.c **** 
 551:Source\mbedtls_open\library/dhm.c ****     if( ( f = fopen( path, "rb" ) ) == NULL )
 552:Source\mbedtls_open\library/dhm.c ****         return( MBEDTLS_ERR_DHM_FILE_IO_ERROR );
 553:Source\mbedtls_open\library/dhm.c **** 
 554:Source\mbedtls_open\library/dhm.c ****     fseek( f, 0, SEEK_END );
 555:Source\mbedtls_open\library/dhm.c ****     if( ( size = ftell( f ) ) == -1 )
 556:Source\mbedtls_open\library/dhm.c ****     {
 557:Source\mbedtls_open\library/dhm.c ****         fclose( f );
 558:Source\mbedtls_open\library/dhm.c ****         return( MBEDTLS_ERR_DHM_FILE_IO_ERROR );
 559:Source\mbedtls_open\library/dhm.c ****     }
 560:Source\mbedtls_open\library/dhm.c ****     fseek( f, 0, SEEK_SET );
 561:Source\mbedtls_open\library/dhm.c **** 
 562:Source\mbedtls_open\library/dhm.c ****     *n = (size_t) size;
 563:Source\mbedtls_open\library/dhm.c **** 
 564:Source\mbedtls_open\library/dhm.c ****     if( *n + 1 == 0 ||
 565:Source\mbedtls_open\library/dhm.c ****         ( *buf = mbedtls_calloc( 1, *n + 1 ) ) == NULL )
 566:Source\mbedtls_open\library/dhm.c ****     {
 567:Source\mbedtls_open\library/dhm.c ****         fclose( f );
 568:Source\mbedtls_open\library/dhm.c ****         return( MBEDTLS_ERR_DHM_ALLOC_FAILED );
ARM GAS  C:\Users\Phuong\AppData\Local\Temp\ccQXToeg.s 			page 43


 569:Source\mbedtls_open\library/dhm.c ****     }
 570:Source\mbedtls_open\library/dhm.c **** 
 571:Source\mbedtls_open\library/dhm.c ****     if( fread( *buf, 1, *n, f ) != *n )
 572:Source\mbedtls_open\library/dhm.c ****     {
 573:Source\mbedtls_open\library/dhm.c ****         fclose( f );
 574:Source\mbedtls_open\library/dhm.c **** 
 575:Source\mbedtls_open\library/dhm.c ****         mbedtls_platform_zeroize( *buf, *n + 1 );
 576:Source\mbedtls_open\library/dhm.c ****         mbedtls_free( *buf );
 577:Source\mbedtls_open\library/dhm.c **** 
 578:Source\mbedtls_open\library/dhm.c ****         return( MBEDTLS_ERR_DHM_FILE_IO_ERROR );
 579:Source\mbedtls_open\library/dhm.c ****     }
 580:Source\mbedtls_open\library/dhm.c **** 
 581:Source\mbedtls_open\library/dhm.c ****     fclose( f );
 582:Source\mbedtls_open\library/dhm.c **** 
 583:Source\mbedtls_open\library/dhm.c ****     (*buf)[*n] = '\0';
 584:Source\mbedtls_open\library/dhm.c **** 
 585:Source\mbedtls_open\library/dhm.c ****     if( strstr( (const char *) *buf, "-----BEGIN " ) != NULL )
 586:Source\mbedtls_open\library/dhm.c ****         ++*n;
 587:Source\mbedtls_open\library/dhm.c **** 
 588:Source\mbedtls_open\library/dhm.c ****     return( 0 );
 589:Source\mbedtls_open\library/dhm.c **** }
 590:Source\mbedtls_open\library/dhm.c **** 
 591:Source\mbedtls_open\library/dhm.c **** /*
 592:Source\mbedtls_open\library/dhm.c ****  * Load and parse DHM parameters
 593:Source\mbedtls_open\library/dhm.c ****  */
 594:Source\mbedtls_open\library/dhm.c **** int mbedtls_dhm_parse_dhmfile( mbedtls_dhm_context *dhm, const char *path )
 595:Source\mbedtls_open\library/dhm.c **** {
 596:Source\mbedtls_open\library/dhm.c ****     int ret;
 597:Source\mbedtls_open\library/dhm.c ****     size_t n;
 598:Source\mbedtls_open\library/dhm.c ****     unsigned char *buf;
 599:Source\mbedtls_open\library/dhm.c **** 
 600:Source\mbedtls_open\library/dhm.c ****     if( ( ret = load_file( path, &buf, &n ) ) != 0 )
 601:Source\mbedtls_open\library/dhm.c ****         return( ret );
 602:Source\mbedtls_open\library/dhm.c **** 
 603:Source\mbedtls_open\library/dhm.c ****     ret = mbedtls_dhm_parse_dhm( dhm, buf, n );
 604:Source\mbedtls_open\library/dhm.c **** 
 605:Source\mbedtls_open\library/dhm.c ****     mbedtls_platform_zeroize( buf, n );
 606:Source\mbedtls_open\library/dhm.c ****     mbedtls_free( buf );
 607:Source\mbedtls_open\library/dhm.c **** 
 608:Source\mbedtls_open\library/dhm.c ****     return( ret );
 609:Source\mbedtls_open\library/dhm.c **** }
 610:Source\mbedtls_open\library/dhm.c **** #endif /* MBEDTLS_FS_IO */
 611:Source\mbedtls_open\library/dhm.c **** #endif /* MBEDTLS_ASN1_PARSE_C */
 612:Source\mbedtls_open\library/dhm.c **** #endif /* MBEDTLS_DHM_ALT */
 613:Source\mbedtls_open\library/dhm.c **** 
 614:Source\mbedtls_open\library/dhm.c **** #if defined(MBEDTLS_SELF_TEST)
 615:Source\mbedtls_open\library/dhm.c **** 
 616:Source\mbedtls_open\library/dhm.c **** static const char mbedtls_test_dhm_params[] =
 617:Source\mbedtls_open\library/dhm.c **** "-----BEGIN DH PARAMETERS-----\r\n"
 618:Source\mbedtls_open\library/dhm.c **** "MIGHAoGBAJ419DBEOgmQTzo5qXl5fQcN9TN455wkOL7052HzxxRVMyhYmwQcgJvh\r\n"
 619:Source\mbedtls_open\library/dhm.c **** "1sa18fyfR9OiVEMYglOpkqVoGLN7qd5aQNNi5W7/C+VBdHTBJcGZJyyP5B3qcz32\r\n"
 620:Source\mbedtls_open\library/dhm.c **** "9mLJKudlVudV0Qxk5qUJaPZ/xupz0NyoVpviuiBOI1gNi8ovSXWzAgEC\r\n"
 621:Source\mbedtls_open\library/dhm.c **** "-----END DH PARAMETERS-----\r\n";
 622:Source\mbedtls_open\library/dhm.c **** 
 623:Source\mbedtls_open\library/dhm.c **** static const size_t mbedtls_test_dhm_params_len = sizeof( mbedtls_test_dhm_params );
 624:Source\mbedtls_open\library/dhm.c **** 
 625:Source\mbedtls_open\library/dhm.c **** /*
ARM GAS  C:\Users\Phuong\AppData\Local\Temp\ccQXToeg.s 			page 44


 626:Source\mbedtls_open\library/dhm.c ****  * Checkup routine
 627:Source\mbedtls_open\library/dhm.c ****  */
 628:Source\mbedtls_open\library/dhm.c **** int mbedtls_dhm_self_test( int verbose )
 629:Source\mbedtls_open\library/dhm.c **** {
 1727              		.loc 1 629 0
 1728              		.cfi_startproc
 1729              		@ args = 0, pretend = 0, frame = 128
 1730              		@ frame_needed = 0, uses_anonymous_args = 0
 1731              	.LVL297:
 1732 0000 30B5     		push	{r4, r5, lr}
 1733              		.cfi_def_cfa_offset 12
 1734              		.cfi_offset 4, -12
 1735              		.cfi_offset 5, -8
 1736              		.cfi_offset 14, -4
 1737 0002 A1B0     		sub	sp, sp, #132
 1738              		.cfi_def_cfa_offset 144
 1739 0004 0500     		movs	r5, r0
 630:Source\mbedtls_open\library/dhm.c ****     int ret;
 631:Source\mbedtls_open\library/dhm.c ****     mbedtls_dhm_context dhm;
 632:Source\mbedtls_open\library/dhm.c **** 
 633:Source\mbedtls_open\library/dhm.c ****     mbedtls_dhm_init( &dhm );
 1740              		.loc 1 633 0
 1741 0006 01A8     		add	r0, sp, #4
 1742              	.LVL298:
 1743 0008 FFF7FEFF 		bl	mbedtls_dhm_init
 1744              	.LVL299:
 634:Source\mbedtls_open\library/dhm.c **** 
 635:Source\mbedtls_open\library/dhm.c ****     if( verbose != 0 )
 1745              		.loc 1 635 0
 1746 000c 002D     		cmp	r5, #0
 1747 000e 02D0     		beq	.L119
 636:Source\mbedtls_open\library/dhm.c ****         mbedtls_printf( "  DHM parameter load: " );
 1748              		.loc 1 636 0
 1749 0010 0E48     		ldr	r0, .L123
 1750 0012 FFF7FEFF 		bl	printf
 1751              	.LVL300:
 1752              	.L119:
 637:Source\mbedtls_open\library/dhm.c **** 
 638:Source\mbedtls_open\library/dhm.c ****     if( ( ret = mbedtls_dhm_parse_dhm( &dhm,
 1753              		.loc 1 638 0
 1754 0016 FB22     		movs	r2, #251
 1755 0018 0D49     		ldr	r1, .L123+4
 1756 001a 01A8     		add	r0, sp, #4
 1757 001c FFF7FEFF 		bl	mbedtls_dhm_parse_dhm
 1758              	.LVL301:
 1759 0020 041E     		subs	r4, r0, #0
 1760              	.LVL302:
 1761 0022 06D0     		beq	.L120
 639:Source\mbedtls_open\library/dhm.c ****                     (const unsigned char *) mbedtls_test_dhm_params,
 640:Source\mbedtls_open\library/dhm.c ****                     mbedtls_test_dhm_params_len ) ) != 0 )
 641:Source\mbedtls_open\library/dhm.c ****     {
 642:Source\mbedtls_open\library/dhm.c ****         if( verbose != 0 )
 1762              		.loc 1 642 0
 1763 0024 002D     		cmp	r5, #0
 1764 0026 0AD0     		beq	.L122
 643:Source\mbedtls_open\library/dhm.c ****             mbedtls_printf( "failed\n" );
 1765              		.loc 1 643 0
ARM GAS  C:\Users\Phuong\AppData\Local\Temp\ccQXToeg.s 			page 45


 1766 0028 0A48     		ldr	r0, .L123+8
 1767              	.LVL303:
 1768 002a FFF7FEFF 		bl	puts
 1769              	.LVL304:
 644:Source\mbedtls_open\library/dhm.c **** 
 645:Source\mbedtls_open\library/dhm.c ****         ret = 1;
 1770              		.loc 1 645 0
 1771 002e 0124     		movs	r4, #1
 1772              	.LVL305:
 1773 0030 06E0     		b	.L121
 1774              	.LVL306:
 1775              	.L120:
 646:Source\mbedtls_open\library/dhm.c ****         goto exit;
 647:Source\mbedtls_open\library/dhm.c ****     }
 648:Source\mbedtls_open\library/dhm.c **** 
 649:Source\mbedtls_open\library/dhm.c ****     if( verbose != 0 )
 1776              		.loc 1 649 0
 1777 0032 002D     		cmp	r5, #0
 1778 0034 04D0     		beq	.L121
 650:Source\mbedtls_open\library/dhm.c ****         mbedtls_printf( "passed\n\n" );
 1779              		.loc 1 650 0
 1780 0036 0848     		ldr	r0, .L123+12
 1781              	.LVL307:
 1782 0038 FFF7FEFF 		bl	puts
 1783              	.LVL308:
 1784 003c 00E0     		b	.L121
 1785              	.LVL309:
 1786              	.L122:
 645:Source\mbedtls_open\library/dhm.c ****         goto exit;
 1787              		.loc 1 645 0
 1788 003e 0124     		movs	r4, #1
 1789              	.LVL310:
 1790              	.L121:
 651:Source\mbedtls_open\library/dhm.c **** 
 652:Source\mbedtls_open\library/dhm.c **** exit:
 653:Source\mbedtls_open\library/dhm.c ****     mbedtls_dhm_free( &dhm );
 1791              		.loc 1 653 0
 1792 0040 01A8     		add	r0, sp, #4
 1793 0042 FFF7FEFF 		bl	mbedtls_dhm_free
 1794              	.LVL311:
 654:Source\mbedtls_open\library/dhm.c **** 
 655:Source\mbedtls_open\library/dhm.c ****     return( ret );
 656:Source\mbedtls_open\library/dhm.c **** }
 1795              		.loc 1 656 0
 1796 0046 2000     		movs	r0, r4
 1797 0048 21B0     		add	sp, sp, #132
 1798              		@ sp needed
 1799              	.LVL312:
 1800              	.LVL313:
 1801 004a 30BD     		pop	{r4, r5, pc}
 1802              	.L124:
 1803              		.align	2
 1804              	.L123:
 1805 004c 3C000000 		.word	.LC4
 1806 0050 00000000 		.word	.LANCHOR0
 1807 0054 54000000 		.word	.LC7
 1808 0058 5C000000 		.word	.LC9
ARM GAS  C:\Users\Phuong\AppData\Local\Temp\ccQXToeg.s 			page 46


 1809              		.cfi_endproc
 1810              	.LFE13:
 1811              		.size	mbedtls_dhm_self_test, .-mbedtls_dhm_self_test
 1812              		.section	.rodata
 1813              		.align	2
 1814              		.set	.LANCHOR0,. + 0
 1815              		.type	mbedtls_test_dhm_params, %object
 1816              		.size	mbedtls_test_dhm_params, 251
 1817              	mbedtls_test_dhm_params:
 1818 0000 2D2D2D2D 		.ascii	"-----BEGIN DH PARAMETERS-----\015\012MIGHAoGBAJ419D"
 1818      2D424547 
 1818      494E2044 
 1818      48205041 
 1818      52414D45 
 1819 002d 42454F67 		.ascii	"BEOgmQTzo5qXl5fQcN9TN455wkOL7052HzxxRVMyhYmwQcgJvh\015"
 1819      6D51547A 
 1819      6F357158 
 1819      6C356651 
 1819      634E3954 
 1820 0060 0A317361 		.ascii	"\0121sa18fyfR9OiVEMYglOpkqVoGLN7qd5aQNNi5W7/C+VBdHT"
 1820      31386679 
 1820      6652394F 
 1820      6956454D 
 1820      59676C4F 
 1821 0090 424A6347 		.ascii	"BJcGZJyyP5B3qcz32\015\0129mLJKudlVudV0Qxk5qUJaPZ/xu"
 1821      5A4A7979 
 1821      50354233 
 1821      71637A33 
 1821      320D0A39 
 1822 00bd 707A304E 		.ascii	"pz0NyoVpviuiBOI1gNi8ovSXWzAgEC\015\012-----END DH P"
 1822      796F5670 
 1822      76697569 
 1822      424F4931 
 1822      674E6938 
 1823 00ea 4152414D 		.ascii	"ARAMETERS-----\015\012\000"
 1823      45544552 
 1823      532D2D2D 
 1823      2D2D0D0A 
 1823      00
 1824              		.section	.rodata.str1.4,"aMS",%progbits,1
 1825              		.align	2
 1826              	.LC0:
 1827 0000 2D2D2D2D 		.ascii	"-----END DH PARAMETERS-----\000"
 1827      2D454E44 
 1827      20444820 
 1827      50415241 
 1827      4D455445 
 1828              	.LC2:
 1829 001c 2D2D2D2D 		.ascii	"-----BEGIN DH PARAMETERS-----\000"
 1829      2D424547 
 1829      494E2044 
 1829      48205041 
 1829      52414D45 
 1830 003a 0000     		.space	2
 1831              	.LC4:
 1832 003c 20204448 		.ascii	"  DHM parameter load: \000"
 1832      4D207061 
ARM GAS  C:\Users\Phuong\AppData\Local\Temp\ccQXToeg.s 			page 47


 1832      72616D65 
 1832      74657220 
 1832      6C6F6164 
 1833 0053 00       		.space	1
 1834              	.LC7:
 1835 0054 6661696C 		.ascii	"failed\000"
 1835      656400
 1836 005b 00       		.space	1
 1837              	.LC9:
 1838 005c 70617373 		.ascii	"passed\012\000"
 1838      65640A00 
 1839              		.text
 1840              	.Letext0:
 1841              		.file 2 "c:\\program files (x86)\\cypress\\psoc creator\\4.2\\psoc creator\\import\\gnu\\arm\\5.4.
 1842              		.file 3 "c:\\program files (x86)\\cypress\\psoc creator\\4.2\\psoc creator\\import\\gnu\\arm\\5.4.
 1843              		.file 4 "c:\\program files (x86)\\cypress\\psoc creator\\4.2\\psoc creator\\import\\gnu\\arm\\5.4.
 1844              		.file 5 ".\\Source\\mbedtls_open\\include/mbedtls/bignum.h"
 1845              		.file 6 ".\\Source\\mbedtls_open\\include/mbedtls/dhm.h"
 1846              		.file 7 ".\\Source\\mbedtls_open\\include/mbedtls/pem.h"
 1847              		.file 8 ".\\Source\\mbedtls_open\\include/mbedtls/platform_util.h"
 1848              		.file 9 ".\\Source\\mbedtls_open\\include/mbedtls/asn1.h"
 1849              		.file 10 "c:\\program files (x86)\\cypress\\psoc creator\\4.2\\psoc creator\\import\\gnu\\arm\\5.4
 1850              		.file 11 "<built-in>"
 1851              		.section	.debug_info,"",%progbits
 1852              	.Ldebug_info0:
 1853 0000 2F130000 		.4byte	0x132f
 1854 0004 0400     		.2byte	0x4
 1855 0006 00000000 		.4byte	.Ldebug_abbrev0
 1856 000a 04       		.byte	0x4
 1857 000b 01       		.uleb128 0x1
 1858 000c 9D000000 		.4byte	.LASF74
 1859 0010 0C       		.byte	0xc
 1860 0011 93010000 		.4byte	.LASF75
 1861 0015 09030000 		.4byte	.LASF76
 1862 0019 00000000 		.4byte	.Ldebug_ranges0+0
 1863 001d 00000000 		.4byte	0
 1864 0021 00000000 		.4byte	.Ldebug_line0
 1865 0025 02       		.uleb128 0x2
 1866 0026 01       		.byte	0x1
 1867 0027 06       		.byte	0x6
 1868 0028 E2010000 		.4byte	.LASF0
 1869 002c 02       		.uleb128 0x2
 1870 002d 01       		.byte	0x1
 1871 002e 08       		.byte	0x8
 1872 002f 9C020000 		.4byte	.LASF1
 1873 0033 02       		.uleb128 0x2
 1874 0034 02       		.byte	0x2
 1875 0035 05       		.byte	0x5
 1876 0036 86000000 		.4byte	.LASF2
 1877 003a 02       		.uleb128 0x2
 1878 003b 02       		.byte	0x2
 1879 003c 07       		.byte	0x7
 1880 003d 47040000 		.4byte	.LASF3
 1881 0041 02       		.uleb128 0x2
 1882 0042 04       		.byte	0x4
 1883 0043 05       		.byte	0x5
 1884 0044 7B020000 		.4byte	.LASF4
ARM GAS  C:\Users\Phuong\AppData\Local\Temp\ccQXToeg.s 			page 48


 1885 0048 03       		.uleb128 0x3
 1886 0049 64010000 		.4byte	.LASF9
 1887 004d 02       		.byte	0x2
 1888 004e 41       		.byte	0x41
 1889 004f 53000000 		.4byte	0x53
 1890 0053 02       		.uleb128 0x2
 1891 0054 04       		.byte	0x4
 1892 0055 07       		.byte	0x7
 1893 0056 F2040000 		.4byte	.LASF5
 1894 005a 02       		.uleb128 0x2
 1895 005b 08       		.byte	0x8
 1896 005c 05       		.byte	0x5
 1897 005d 12020000 		.4byte	.LASF6
 1898 0061 02       		.uleb128 0x2
 1899 0062 08       		.byte	0x8
 1900 0063 07       		.byte	0x7
 1901 0064 CC030000 		.4byte	.LASF7
 1902 0068 04       		.uleb128 0x4
 1903 0069 04       		.byte	0x4
 1904 006a 05       		.byte	0x5
 1905 006b 696E7400 		.ascii	"int\000"
 1906 006f 02       		.uleb128 0x2
 1907 0070 04       		.byte	0x4
 1908 0071 07       		.byte	0x7
 1909 0072 01040000 		.4byte	.LASF8
 1910 0076 03       		.uleb128 0x3
 1911 0077 90000000 		.4byte	.LASF10
 1912 007b 03       		.byte	0x3
 1913 007c D8       		.byte	0xd8
 1914 007d 6F000000 		.4byte	0x6f
 1915 0081 02       		.uleb128 0x2
 1916 0082 08       		.byte	0x8
 1917 0083 04       		.byte	0x4
 1918 0084 DC020000 		.4byte	.LASF11
 1919 0088 03       		.uleb128 0x3
 1920 0089 E3030000 		.4byte	.LASF12
 1921 008d 04       		.byte	0x4
 1922 008e 30       		.byte	0x30
 1923 008f 48000000 		.4byte	0x48
 1924 0093 03       		.uleb128 0x3
 1925 0094 3F050000 		.4byte	.LASF13
 1926 0098 05       		.byte	0x5
 1927 0099 A6       		.byte	0xa6
 1928 009a 88000000 		.4byte	0x88
 1929 009e 05       		.uleb128 0x5
 1930 009f 06020000 		.4byte	.LASF14
 1931 00a3 0C       		.byte	0xc
 1932 00a4 05       		.byte	0x5
 1933 00a5 B4       		.byte	0xb4
 1934 00a6 C9000000 		.4byte	0xc9
 1935 00aa 06       		.uleb128 0x6
 1936 00ab 7300     		.ascii	"s\000"
 1937 00ad 05       		.byte	0x5
 1938 00ae B6       		.byte	0xb6
 1939 00af 68000000 		.4byte	0x68
 1940 00b3 00       		.byte	0
 1941 00b4 06       		.uleb128 0x6
ARM GAS  C:\Users\Phuong\AppData\Local\Temp\ccQXToeg.s 			page 49


 1942 00b5 6E00     		.ascii	"n\000"
 1943 00b7 05       		.byte	0x5
 1944 00b8 B7       		.byte	0xb7
 1945 00b9 76000000 		.4byte	0x76
 1946 00bd 04       		.byte	0x4
 1947 00be 06       		.uleb128 0x6
 1948 00bf 7000     		.ascii	"p\000"
 1949 00c1 05       		.byte	0x5
 1950 00c2 B8       		.byte	0xb8
 1951 00c3 C9000000 		.4byte	0xc9
 1952 00c7 08       		.byte	0x8
 1953 00c8 00       		.byte	0
 1954 00c9 07       		.uleb128 0x7
 1955 00ca 04       		.byte	0x4
 1956 00cb 93000000 		.4byte	0x93
 1957 00cf 03       		.uleb128 0x3
 1958 00d0 06020000 		.4byte	.LASF14
 1959 00d4 05       		.byte	0x5
 1960 00d5 BA       		.byte	0xba
 1961 00d6 9E000000 		.4byte	0x9e
 1962 00da 05       		.uleb128 0x5
 1963 00db B5010000 		.4byte	.LASF15
 1964 00df 7C       		.byte	0x7c
 1965 00e0 06       		.byte	0x6
 1966 00e1 63       		.byte	0x63
 1967 00e2 5D010000 		.4byte	0x15d
 1968 00e6 06       		.uleb128 0x6
 1969 00e7 6C656E00 		.ascii	"len\000"
 1970 00eb 06       		.byte	0x6
 1971 00ec 65       		.byte	0x65
 1972 00ed 76000000 		.4byte	0x76
 1973 00f1 00       		.byte	0
 1974 00f2 06       		.uleb128 0x6
 1975 00f3 5000     		.ascii	"P\000"
 1976 00f5 06       		.byte	0x6
 1977 00f6 66       		.byte	0x66
 1978 00f7 CF000000 		.4byte	0xcf
 1979 00fb 04       		.byte	0x4
 1980 00fc 06       		.uleb128 0x6
 1981 00fd 4700     		.ascii	"G\000"
 1982 00ff 06       		.byte	0x6
 1983 0100 67       		.byte	0x67
 1984 0101 CF000000 		.4byte	0xcf
 1985 0105 10       		.byte	0x10
 1986 0106 06       		.uleb128 0x6
 1987 0107 5800     		.ascii	"X\000"
 1988 0109 06       		.byte	0x6
 1989 010a 68       		.byte	0x68
 1990 010b CF000000 		.4byte	0xcf
 1991 010f 1C       		.byte	0x1c
 1992 0110 06       		.uleb128 0x6
 1993 0111 475800   		.ascii	"GX\000"
 1994 0114 06       		.byte	0x6
 1995 0115 69       		.byte	0x69
 1996 0116 CF000000 		.4byte	0xcf
 1997 011a 28       		.byte	0x28
 1998 011b 06       		.uleb128 0x6
ARM GAS  C:\Users\Phuong\AppData\Local\Temp\ccQXToeg.s 			page 50


 1999 011c 475900   		.ascii	"GY\000"
 2000 011f 06       		.byte	0x6
 2001 0120 6A       		.byte	0x6a
 2002 0121 CF000000 		.4byte	0xcf
 2003 0125 34       		.byte	0x34
 2004 0126 06       		.uleb128 0x6
 2005 0127 4B00     		.ascii	"K\000"
 2006 0129 06       		.byte	0x6
 2007 012a 6B       		.byte	0x6b
 2008 012b CF000000 		.4byte	0xcf
 2009 012f 40       		.byte	0x40
 2010 0130 06       		.uleb128 0x6
 2011 0131 525000   		.ascii	"RP\000"
 2012 0134 06       		.byte	0x6
 2013 0135 6C       		.byte	0x6c
 2014 0136 CF000000 		.4byte	0xcf
 2015 013a 4C       		.byte	0x4c
 2016 013b 06       		.uleb128 0x6
 2017 013c 566900   		.ascii	"Vi\000"
 2018 013f 06       		.byte	0x6
 2019 0140 6D       		.byte	0x6d
 2020 0141 CF000000 		.4byte	0xcf
 2021 0145 58       		.byte	0x58
 2022 0146 06       		.uleb128 0x6
 2023 0147 566600   		.ascii	"Vf\000"
 2024 014a 06       		.byte	0x6
 2025 014b 6E       		.byte	0x6e
 2026 014c CF000000 		.4byte	0xcf
 2027 0150 64       		.byte	0x64
 2028 0151 06       		.uleb128 0x6
 2029 0152 705800   		.ascii	"pX\000"
 2030 0155 06       		.byte	0x6
 2031 0156 6F       		.byte	0x6f
 2032 0157 CF000000 		.4byte	0xcf
 2033 015b 70       		.byte	0x70
 2034 015c 00       		.byte	0
 2035 015d 03       		.uleb128 0x3
 2036 015e B5010000 		.4byte	.LASF15
 2037 0162 06       		.byte	0x6
 2038 0163 71       		.byte	0x71
 2039 0164 DA000000 		.4byte	0xda
 2040 0168 02       		.uleb128 0x2
 2041 0169 04       		.byte	0x4
 2042 016a 07       		.byte	0x7
 2043 016b 2F010000 		.4byte	.LASF16
 2044 016f 08       		.uleb128 0x8
 2045 0170 04       		.byte	0x4
 2046 0171 07       		.uleb128 0x7
 2047 0172 04       		.byte	0x4
 2048 0173 2C000000 		.4byte	0x2c
 2049 0177 02       		.uleb128 0x2
 2050 0178 01       		.byte	0x1
 2051 0179 08       		.byte	0x8
 2052 017a 6E040000 		.4byte	.LASF17
 2053 017e 09       		.uleb128 0x9
 2054 017f 77010000 		.4byte	0x177
 2055 0183 05       		.uleb128 0x5
ARM GAS  C:\Users\Phuong\AppData\Local\Temp\ccQXToeg.s 			page 51


 2056 0184 50050000 		.4byte	.LASF18
 2057 0188 0C       		.byte	0xc
 2058 0189 07       		.byte	0x7
 2059 018a 36       		.byte	0x36
 2060 018b B4010000 		.4byte	0x1b4
 2061 018f 06       		.uleb128 0x6
 2062 0190 62756600 		.ascii	"buf\000"
 2063 0194 07       		.byte	0x7
 2064 0195 38       		.byte	0x38
 2065 0196 71010000 		.4byte	0x171
 2066 019a 00       		.byte	0
 2067 019b 0A       		.uleb128 0xa
 2068 019c 2C000000 		.4byte	.LASF19
 2069 01a0 07       		.byte	0x7
 2070 01a1 39       		.byte	0x39
 2071 01a2 76000000 		.4byte	0x76
 2072 01a6 04       		.byte	0x4
 2073 01a7 0A       		.uleb128 0xa
 2074 01a8 3A050000 		.4byte	.LASF20
 2075 01ac 07       		.byte	0x7
 2076 01ad 3A       		.byte	0x3a
 2077 01ae 71010000 		.4byte	0x171
 2078 01b2 08       		.byte	0x8
 2079 01b3 00       		.byte	0
 2080 01b4 03       		.uleb128 0x3
 2081 01b5 50050000 		.4byte	.LASF18
 2082 01b9 07       		.byte	0x7
 2083 01ba 3C       		.byte	0x3c
 2084 01bb 83010000 		.4byte	0x183
 2085 01bf 0B       		.uleb128 0xb
 2086 01c0 6F010000 		.4byte	.LASF21
 2087 01c4 01       		.byte	0x1
 2088 01c5 42       		.byte	0x42
 2089 01c6 68000000 		.4byte	0x68
 2090 01ca 00000000 		.4byte	.LFB1
 2091 01ce 4C000000 		.4byte	.LFE1-.LFB1
 2092 01d2 01       		.uleb128 0x1
 2093 01d3 9C       		.byte	0x9c
 2094 01d4 35020000 		.4byte	0x235
 2095 01d8 0C       		.uleb128 0xc
 2096 01d9 5800     		.ascii	"X\000"
 2097 01db 01       		.byte	0x1
 2098 01dc 42       		.byte	0x42
 2099 01dd 35020000 		.4byte	0x235
 2100 01e1 00000000 		.4byte	.LLST0
 2101 01e5 0C       		.uleb128 0xc
 2102 01e6 7000     		.ascii	"p\000"
 2103 01e8 01       		.byte	0x1
 2104 01e9 43       		.byte	0x43
 2105 01ea 3B020000 		.4byte	0x23b
 2106 01ee 53000000 		.4byte	.LLST1
 2107 01f2 0C       		.uleb128 0xc
 2108 01f3 656E6400 		.ascii	"end\000"
 2109 01f7 01       		.byte	0x1
 2110 01f8 44       		.byte	0x44
 2111 01f9 41020000 		.4byte	0x241
 2112 01fd 7F000000 		.4byte	.LLST2
ARM GAS  C:\Users\Phuong\AppData\Local\Temp\ccQXToeg.s 			page 52


 2113 0201 0D       		.uleb128 0xd
 2114 0202 72657400 		.ascii	"ret\000"
 2115 0206 01       		.byte	0x1
 2116 0207 46       		.byte	0x46
 2117 0208 68000000 		.4byte	0x68
 2118 020c B9000000 		.4byte	.LLST3
 2119 0210 0D       		.uleb128 0xd
 2120 0211 6E00     		.ascii	"n\000"
 2121 0213 01       		.byte	0x1
 2122 0214 46       		.byte	0x46
 2123 0215 68000000 		.4byte	0x68
 2124 0219 E6000000 		.4byte	.LLST4
 2125 021d 0E       		.uleb128 0xe
 2126 021e 24000000 		.4byte	.LVL4
 2127 0222 0F120000 		.4byte	0x120f
 2128 0226 0F       		.uleb128 0xf
 2129 0227 01       		.uleb128 0x1
 2130 0228 50       		.byte	0x50
 2131 0229 03       		.uleb128 0x3
 2132 022a F3       		.byte	0xf3
 2133 022b 01       		.uleb128 0x1
 2134 022c 50       		.byte	0x50
 2135 022d 0F       		.uleb128 0xf
 2136 022e 01       		.uleb128 0x1
 2137 022f 52       		.byte	0x52
 2138 0230 02       		.uleb128 0x2
 2139 0231 74       		.byte	0x74
 2140 0232 00       		.sleb128 0
 2141 0233 00       		.byte	0
 2142 0234 00       		.byte	0
 2143 0235 07       		.uleb128 0x7
 2144 0236 04       		.byte	0x4
 2145 0237 CF000000 		.4byte	0xcf
 2146 023b 07       		.uleb128 0x7
 2147 023c 04       		.byte	0x4
 2148 023d 71010000 		.4byte	0x171
 2149 0241 07       		.uleb128 0x7
 2150 0242 04       		.byte	0x4
 2151 0243 47020000 		.4byte	0x247
 2152 0247 09       		.uleb128 0x9
 2153 0248 2C000000 		.4byte	0x2c
 2154 024c 0B       		.uleb128 0xb
 2155 024d 1C000000 		.4byte	.LASF22
 2156 0251 01       		.byte	0x1
 2157 0252 65       		.byte	0x65
 2158 0253 68000000 		.4byte	0x68
 2159 0257 00000000 		.4byte	.LFB2
 2160 025b 64000000 		.4byte	.LFE2-.LFB2
 2161 025f 01       		.uleb128 0x1
 2162 0260 9C       		.byte	0x9c
 2163 0261 6C030000 		.4byte	0x36c
 2164 0265 10       		.uleb128 0x10
 2165 0266 29040000 		.4byte	.LASF23
 2166 026a 01       		.byte	0x1
 2167 026b 65       		.byte	0x65
 2168 026c 6C030000 		.4byte	0x36c
 2169 0270 04010000 		.4byte	.LLST5
ARM GAS  C:\Users\Phuong\AppData\Local\Temp\ccQXToeg.s 			page 53


 2170 0274 0C       		.uleb128 0xc
 2171 0275 5000     		.ascii	"P\000"
 2172 0277 01       		.byte	0x1
 2173 0278 65       		.byte	0x65
 2174 0279 6C030000 		.4byte	0x36c
 2175 027d 30010000 		.4byte	.LLST6
 2176 0281 11       		.uleb128 0x11
 2177 0282 4C00     		.ascii	"L\000"
 2178 0284 01       		.byte	0x1
 2179 0285 67       		.byte	0x67
 2180 0286 CF000000 		.4byte	0xcf
 2181 028a 02       		.uleb128 0x2
 2182 028b 91       		.byte	0x91
 2183 028c 64       		.sleb128 -28
 2184 028d 11       		.uleb128 0x11
 2185 028e 5500     		.ascii	"U\000"
 2186 0290 01       		.byte	0x1
 2187 0291 67       		.byte	0x67
 2188 0292 CF000000 		.4byte	0xcf
 2189 0296 02       		.uleb128 0x2
 2190 0297 91       		.byte	0x91
 2191 0298 58       		.sleb128 -40
 2192 0299 0D       		.uleb128 0xd
 2193 029a 72657400 		.ascii	"ret\000"
 2194 029e 01       		.byte	0x1
 2195 029f 68       		.byte	0x68
 2196 02a0 68000000 		.4byte	0x68
 2197 02a4 5C010000 		.4byte	.LLST7
 2198 02a8 12       		.uleb128 0x12
 2199 02a9 01030000 		.4byte	.LASF33
 2200 02ad 01       		.byte	0x1
 2201 02ae 75       		.byte	0x75
 2202 02af 4E000000 		.4byte	.L9
 2203 02b3 13       		.uleb128 0x13
 2204 02b4 0E000000 		.4byte	.LVL17
 2205 02b8 1B120000 		.4byte	0x121b
 2206 02bc C7020000 		.4byte	0x2c7
 2207 02c0 0F       		.uleb128 0xf
 2208 02c1 01       		.uleb128 0x1
 2209 02c2 50       		.byte	0x50
 2210 02c3 02       		.uleb128 0x2
 2211 02c4 91       		.byte	0x91
 2212 02c5 64       		.sleb128 -28
 2213 02c6 00       		.byte	0
 2214 02c7 13       		.uleb128 0x13
 2215 02c8 14000000 		.4byte	.LVL18
 2216 02cc 1B120000 		.4byte	0x121b
 2217 02d0 DB020000 		.4byte	0x2db
 2218 02d4 0F       		.uleb128 0xf
 2219 02d5 01       		.uleb128 0x1
 2220 02d6 50       		.byte	0x50
 2221 02d7 02       		.uleb128 0x2
 2222 02d8 7D       		.byte	0x7d
 2223 02d9 00       		.sleb128 0
 2224 02da 00       		.byte	0
 2225 02db 13       		.uleb128 0x13
 2226 02dc 1C000000 		.4byte	.LVL19
ARM GAS  C:\Users\Phuong\AppData\Local\Temp\ccQXToeg.s 			page 54


 2227 02e0 26120000 		.4byte	0x1226
 2228 02e4 F4020000 		.4byte	0x2f4
 2229 02e8 0F       		.uleb128 0xf
 2230 02e9 01       		.uleb128 0x1
 2231 02ea 50       		.byte	0x50
 2232 02eb 02       		.uleb128 0x2
 2233 02ec 91       		.byte	0x91
 2234 02ed 64       		.sleb128 -28
 2235 02ee 0F       		.uleb128 0xf
 2236 02ef 01       		.uleb128 0x1
 2237 02f0 51       		.byte	0x51
 2238 02f1 01       		.uleb128 0x1
 2239 02f2 32       		.byte	0x32
 2240 02f3 00       		.byte	0
 2241 02f4 13       		.uleb128 0x13
 2242 02f5 2A000000 		.4byte	.LVL22
 2243 02f9 32120000 		.4byte	0x1232
 2244 02fd 13030000 		.4byte	0x313
 2245 0301 0F       		.uleb128 0xf
 2246 0302 01       		.uleb128 0x1
 2247 0303 50       		.byte	0x50
 2248 0304 02       		.uleb128 0x2
 2249 0305 7D       		.byte	0x7d
 2250 0306 00       		.sleb128 0
 2251 0307 0F       		.uleb128 0xf
 2252 0308 01       		.uleb128 0x1
 2253 0309 51       		.byte	0x51
 2254 030a 02       		.uleb128 0x2
 2255 030b 75       		.byte	0x75
 2256 030c 00       		.sleb128 0
 2257 030d 0F       		.uleb128 0xf
 2258 030e 01       		.uleb128 0x1
 2259 030f 52       		.byte	0x52
 2260 0310 01       		.uleb128 0x1
 2261 0311 32       		.byte	0x32
 2262 0312 00       		.byte	0
 2263 0313 13       		.uleb128 0x13
 2264 0314 36000000 		.4byte	.LVL25
 2265 0318 3E120000 		.4byte	0x123e
 2266 031c 2D030000 		.4byte	0x32d
 2267 0320 0F       		.uleb128 0xf
 2268 0321 01       		.uleb128 0x1
 2269 0322 50       		.byte	0x50
 2270 0323 02       		.uleb128 0x2
 2271 0324 76       		.byte	0x76
 2272 0325 00       		.sleb128 0
 2273 0326 0F       		.uleb128 0xf
 2274 0327 01       		.uleb128 0x1
 2275 0328 51       		.byte	0x51
 2276 0329 02       		.uleb128 0x2
 2277 032a 91       		.byte	0x91
 2278 032b 64       		.sleb128 -28
 2279 032c 00       		.byte	0
 2280 032d 13       		.uleb128 0x13
 2281 032e 42000000 		.4byte	.LVL26
 2282 0332 3E120000 		.4byte	0x123e
 2283 0336 47030000 		.4byte	0x347
ARM GAS  C:\Users\Phuong\AppData\Local\Temp\ccQXToeg.s 			page 55


 2284 033a 0F       		.uleb128 0xf
 2285 033b 01       		.uleb128 0x1
 2286 033c 50       		.byte	0x50
 2287 033d 02       		.uleb128 0x2
 2288 033e 76       		.byte	0x76
 2289 033f 00       		.sleb128 0
 2290 0340 0F       		.uleb128 0xf
 2291 0341 01       		.uleb128 0x1
 2292 0342 51       		.byte	0x51
 2293 0343 02       		.uleb128 0x2
 2294 0344 7D       		.byte	0x7d
 2295 0345 00       		.sleb128 0
 2296 0346 00       		.byte	0
 2297 0347 13       		.uleb128 0x13
 2298 0348 54000000 		.4byte	.LVL30
 2299 034c 4A120000 		.4byte	0x124a
 2300 0350 5B030000 		.4byte	0x35b
 2301 0354 0F       		.uleb128 0xf
 2302 0355 01       		.uleb128 0x1
 2303 0356 50       		.byte	0x50
 2304 0357 02       		.uleb128 0x2
 2305 0358 91       		.byte	0x91
 2306 0359 64       		.sleb128 -28
 2307 035a 00       		.byte	0
 2308 035b 0E       		.uleb128 0xe
 2309 035c 5A000000 		.4byte	.LVL31
 2310 0360 4A120000 		.4byte	0x124a
 2311 0364 0F       		.uleb128 0xf
 2312 0365 01       		.uleb128 0x1
 2313 0366 50       		.byte	0x50
 2314 0367 02       		.uleb128 0x2
 2315 0368 7D       		.byte	0x7d
 2316 0369 00       		.sleb128 0
 2317 036a 00       		.byte	0
 2318 036b 00       		.byte	0
 2319 036c 07       		.uleb128 0x7
 2320 036d 04       		.byte	0x4
 2321 036e 72030000 		.4byte	0x372
 2322 0372 09       		.uleb128 0x9
 2323 0373 CF000000 		.4byte	0xcf
 2324 0377 14       		.uleb128 0x14
 2325 0378 AC050000 		.4byte	.LASF24
 2326 037c 01       		.byte	0x1
 2327 037d 3A01     		.2byte	0x13a
 2328 037f 68000000 		.4byte	0x68
 2329 0383 00000000 		.4byte	.LFB9
 2330 0387 56010000 		.4byte	.LFE9-.LFB9
 2331 038b 01       		.uleb128 0x1
 2332 038c 9C       		.byte	0x9c
 2333 038d BA050000 		.4byte	0x5ba
 2334 0391 15       		.uleb128 0x15
 2335 0392 63747800 		.ascii	"ctx\000"
 2336 0396 01       		.byte	0x1
 2337 0397 3A01     		.2byte	0x13a
 2338 0399 BA050000 		.4byte	0x5ba
 2339 039d B2010000 		.4byte	.LLST8
 2340 03a1 16       		.uleb128 0x16
ARM GAS  C:\Users\Phuong\AppData\Local\Temp\ccQXToeg.s 			page 56


 2341 03a2 04050000 		.4byte	.LASF25
 2342 03a6 01       		.byte	0x1
 2343 03a7 3B01     		.2byte	0x13b
 2344 03a9 D9050000 		.4byte	0x5d9
 2345 03ad DE010000 		.4byte	.LLST9
 2346 03b1 16       		.uleb128 0x16
 2347 03b2 AE030000 		.4byte	.LASF26
 2348 03b6 01       		.byte	0x1
 2349 03b7 3B01     		.2byte	0x13b
 2350 03b9 6F010000 		.4byte	0x16f
 2351 03bd 25020000 		.4byte	.LLST10
 2352 03c1 17       		.uleb128 0x17
 2353 03c2 72657400 		.ascii	"ret\000"
 2354 03c6 01       		.byte	0x1
 2355 03c7 3D01     		.2byte	0x13d
 2356 03c9 68000000 		.4byte	0x68
 2357 03cd 44020000 		.4byte	.LLST11
 2358 03d1 18       		.uleb128 0x18
 2359 03d2 34050000 		.4byte	.LASF27
 2360 03d6 01       		.byte	0x1
 2361 03d7 3D01     		.2byte	0x13d
 2362 03d9 68000000 		.4byte	0x68
 2363 03dd D0020000 		.4byte	.LLST12
 2364 03e1 19       		.uleb128 0x19
 2365 03e2 01030000 		.4byte	.LASF33
 2366 03e6 01       		.byte	0x1
 2367 03e7 7101     		.2byte	0x171
 2368 03e9 13       		.uleb128 0x13
 2369 03ea 20000000 		.4byte	.LVL38
 2370 03ee 3E120000 		.4byte	0x123e
 2371 03f2 03040000 		.4byte	0x403
 2372 03f6 0F       		.uleb128 0xf
 2373 03f7 01       		.uleb128 0x1
 2374 03f8 50       		.byte	0x50
 2375 03f9 02       		.uleb128 0x2
 2376 03fa 76       		.byte	0x76
 2377 03fb 00       		.sleb128 0
 2378 03fc 0F       		.uleb128 0xf
 2379 03fd 01       		.uleb128 0x1
 2380 03fe 51       		.byte	0x51
 2381 03ff 02       		.uleb128 0x2
 2382 0400 75       		.byte	0x75
 2383 0401 00       		.sleb128 0
 2384 0402 00       		.byte	0
 2385 0403 13       		.uleb128 0x13
 2386 0404 2C000000 		.4byte	.LVL39
 2387 0408 55120000 		.4byte	0x1255
 2388 040c 1D040000 		.4byte	0x41d
 2389 0410 0F       		.uleb128 0xf
 2390 0411 01       		.uleb128 0x1
 2391 0412 50       		.byte	0x50
 2392 0413 02       		.uleb128 0x2
 2393 0414 75       		.byte	0x75
 2394 0415 00       		.sleb128 0
 2395 0416 0F       		.uleb128 0xf
 2396 0417 01       		.uleb128 0x1
 2397 0418 51       		.byte	0x51
ARM GAS  C:\Users\Phuong\AppData\Local\Temp\ccQXToeg.s 			page 57


 2398 0419 02       		.uleb128 0x2
 2399 041a 76       		.byte	0x76
 2400 041b 00       		.sleb128 0
 2401 041c 00       		.byte	0
 2402 041d 13       		.uleb128 0x13
 2403 041e 3A000000 		.4byte	.LVL41
 2404 0422 26120000 		.4byte	0x1226
 2405 0426 37040000 		.4byte	0x437
 2406 042a 0F       		.uleb128 0xf
 2407 042b 01       		.uleb128 0x1
 2408 042c 50       		.byte	0x50
 2409 042d 03       		.uleb128 0x3
 2410 042e 77       		.byte	0x77
 2411 042f D800     		.sleb128 88
 2412 0431 0F       		.uleb128 0xf
 2413 0432 01       		.uleb128 0x1
 2414 0433 51       		.byte	0x51
 2415 0434 01       		.uleb128 0x1
 2416 0435 31       		.byte	0x31
 2417 0436 00       		.byte	0
 2418 0437 13       		.uleb128 0x13
 2419 0438 48000000 		.4byte	.LVL43
 2420 043c 26120000 		.4byte	0x1226
 2421 0440 51040000 		.4byte	0x451
 2422 0444 0F       		.uleb128 0xf
 2423 0445 01       		.uleb128 0x1
 2424 0446 50       		.byte	0x50
 2425 0447 03       		.uleb128 0x3
 2426 0448 77       		.byte	0x77
 2427 0449 E400     		.sleb128 100
 2428 044b 0F       		.uleb128 0xf
 2429 044c 01       		.uleb128 0x1
 2430 044d 51       		.byte	0x51
 2431 044e 01       		.uleb128 0x1
 2432 044f 31       		.byte	0x31
 2433 0450 00       		.byte	0
 2434 0451 13       		.uleb128 0x13
 2435 0452 5C000000 		.4byte	.LVL45
 2436 0456 60120000 		.4byte	0x1260
 2437 045a 6A040000 		.4byte	0x46a
 2438 045e 0F       		.uleb128 0xf
 2439 045f 01       		.uleb128 0x1
 2440 0460 50       		.byte	0x50
 2441 0461 02       		.uleb128 0x2
 2442 0462 75       		.byte	0x75
 2443 0463 00       		.sleb128 0
 2444 0464 0F       		.uleb128 0xf
 2445 0465 01       		.uleb128 0x1
 2446 0466 51       		.byte	0x51
 2447 0467 01       		.uleb128 0x1
 2448 0468 31       		.byte	0x31
 2449 0469 00       		.byte	0
 2450 046a 13       		.uleb128 0x13
 2451 046b 6A000000 		.4byte	.LVL46
 2452 046f 6C120000 		.4byte	0x126c
 2453 0473 8A040000 		.4byte	0x48a
 2454 0477 0F       		.uleb128 0xf
ARM GAS  C:\Users\Phuong\AppData\Local\Temp\ccQXToeg.s 			page 58


 2455 0478 01       		.uleb128 0x1
 2456 0479 50       		.byte	0x50
 2457 047a 02       		.uleb128 0x2
 2458 047b 75       		.byte	0x75
 2459 047c 00       		.sleb128 0
 2460 047d 0F       		.uleb128 0xf
 2461 047e 01       		.uleb128 0x1
 2462 047f 51       		.byte	0x51
 2463 0480 02       		.uleb128 0x2
 2464 0481 75       		.byte	0x75
 2465 0482 00       		.sleb128 0
 2466 0483 0F       		.uleb128 0xf
 2467 0484 01       		.uleb128 0x1
 2468 0485 52       		.byte	0x52
 2469 0486 02       		.uleb128 0x2
 2470 0487 75       		.byte	0x75
 2471 0488 00       		.sleb128 0
 2472 0489 00       		.byte	0
 2473 048a 13       		.uleb128 0x13
 2474 048b 7A000000 		.4byte	.LVL48
 2475 048f 78120000 		.4byte	0x1278
 2476 0493 AA040000 		.4byte	0x4aa
 2477 0497 0F       		.uleb128 0xf
 2478 0498 01       		.uleb128 0x1
 2479 0499 50       		.byte	0x50
 2480 049a 02       		.uleb128 0x2
 2481 049b 75       		.byte	0x75
 2482 049c 00       		.sleb128 0
 2483 049d 0F       		.uleb128 0xf
 2484 049e 01       		.uleb128 0x1
 2485 049f 51       		.byte	0x51
 2486 04a0 02       		.uleb128 0x2
 2487 04a1 75       		.byte	0x75
 2488 04a2 00       		.sleb128 0
 2489 04a3 0F       		.uleb128 0xf
 2490 04a4 01       		.uleb128 0x1
 2491 04a5 52       		.byte	0x52
 2492 04a6 02       		.uleb128 0x2
 2493 04a7 76       		.byte	0x76
 2494 04a8 00       		.sleb128 0
 2495 04a9 00       		.byte	0
 2496 04aa 13       		.uleb128 0x13
 2497 04ab 8A000000 		.4byte	.LVL50
 2498 04af 6C120000 		.4byte	0x126c
 2499 04b3 CA040000 		.4byte	0x4ca
 2500 04b7 0F       		.uleb128 0xf
 2501 04b8 01       		.uleb128 0x1
 2502 04b9 50       		.byte	0x50
 2503 04ba 02       		.uleb128 0x2
 2504 04bb 75       		.byte	0x75
 2505 04bc 00       		.sleb128 0
 2506 04bd 0F       		.uleb128 0xf
 2507 04be 01       		.uleb128 0x1
 2508 04bf 51       		.byte	0x51
 2509 04c0 02       		.uleb128 0x2
 2510 04c1 75       		.byte	0x75
 2511 04c2 00       		.sleb128 0
ARM GAS  C:\Users\Phuong\AppData\Local\Temp\ccQXToeg.s 			page 59


 2512 04c3 0F       		.uleb128 0xf
 2513 04c4 01       		.uleb128 0x1
 2514 04c5 52       		.byte	0x52
 2515 04c6 02       		.uleb128 0x2
 2516 04c7 75       		.byte	0x75
 2517 04c8 00       		.sleb128 0
 2518 04c9 00       		.byte	0
 2519 04ca 13       		.uleb128 0x13
 2520 04cb 98000000 		.4byte	.LVL52
 2521 04cf 78120000 		.4byte	0x1278
 2522 04d3 EA040000 		.4byte	0x4ea
 2523 04d7 0F       		.uleb128 0xf
 2524 04d8 01       		.uleb128 0x1
 2525 04d9 50       		.byte	0x50
 2526 04da 02       		.uleb128 0x2
 2527 04db 75       		.byte	0x75
 2528 04dc 00       		.sleb128 0
 2529 04dd 0F       		.uleb128 0xf
 2530 04de 01       		.uleb128 0x1
 2531 04df 51       		.byte	0x51
 2532 04e0 02       		.uleb128 0x2
 2533 04e1 75       		.byte	0x75
 2534 04e2 00       		.sleb128 0
 2535 04e3 0F       		.uleb128 0xf
 2536 04e4 01       		.uleb128 0x1
 2537 04e5 52       		.byte	0x52
 2538 04e6 02       		.uleb128 0x2
 2539 04e7 76       		.byte	0x76
 2540 04e8 00       		.sleb128 0
 2541 04e9 00       		.byte	0
 2542 04ea 13       		.uleb128 0x13
 2543 04eb AE000000 		.4byte	.LVL56
 2544 04ef 84120000 		.4byte	0x1284
 2545 04f3 FE040000 		.4byte	0x4fe
 2546 04f7 0F       		.uleb128 0xf
 2547 04f8 01       		.uleb128 0x1
 2548 04f9 50       		.byte	0x50
 2549 04fa 02       		.uleb128 0x2
 2550 04fb 74       		.byte	0x74
 2551 04fc 00       		.sleb128 0
 2552 04fd 00       		.byte	0
 2553 04fe 13       		.uleb128 0x13
 2554 04ff BA000000 		.4byte	.LVL57
 2555 0503 90120000 		.4byte	0x1290
 2556 0507 20050000 		.4byte	0x520
 2557 050b 0F       		.uleb128 0xf
 2558 050c 01       		.uleb128 0x1
 2559 050d 50       		.byte	0x50
 2560 050e 02       		.uleb128 0x2
 2561 050f 75       		.byte	0x75
 2562 0510 00       		.sleb128 0
 2563 0511 0F       		.uleb128 0xf
 2564 0512 01       		.uleb128 0x1
 2565 0513 52       		.byte	0x52
 2566 0514 03       		.uleb128 0x3
 2567 0515 91       		.byte	0x91
 2568 0516 58       		.sleb128 -40
ARM GAS  C:\Users\Phuong\AppData\Local\Temp\ccQXToeg.s 			page 60


 2569 0517 06       		.byte	0x6
 2570 0518 0F       		.uleb128 0xf
 2571 0519 01       		.uleb128 0x1
 2572 051a 53       		.byte	0x53
 2573 051b 03       		.uleb128 0x3
 2574 051c 91       		.byte	0x91
 2575 051d 5C       		.sleb128 -36
 2576 051e 06       		.byte	0x6
 2577 051f 00       		.byte	0
 2578 0520 13       		.uleb128 0x13
 2579 0521 C8000000 		.4byte	.LVL59
 2580 0525 9C120000 		.4byte	0x129c
 2581 0529 39050000 		.4byte	0x539
 2582 052d 0F       		.uleb128 0xf
 2583 052e 01       		.uleb128 0x1
 2584 052f 50       		.byte	0x50
 2585 0530 02       		.uleb128 0x2
 2586 0531 75       		.byte	0x75
 2587 0532 00       		.sleb128 0
 2588 0533 0F       		.uleb128 0xf
 2589 0534 01       		.uleb128 0x1
 2590 0535 51       		.byte	0x51
 2591 0536 01       		.uleb128 0x1
 2592 0537 31       		.byte	0x31
 2593 0538 00       		.byte	0
 2594 0539 13       		.uleb128 0x13
 2595 053a D4000000 		.4byte	.LVL61
 2596 053e 3E120000 		.4byte	0x123e
 2597 0542 53050000 		.4byte	0x553
 2598 0546 0F       		.uleb128 0xf
 2599 0547 01       		.uleb128 0x1
 2600 0548 50       		.byte	0x50
 2601 0549 02       		.uleb128 0x2
 2602 054a 75       		.byte	0x75
 2603 054b 00       		.sleb128 0
 2604 054c 0F       		.uleb128 0xf
 2605 054d 01       		.uleb128 0x1
 2606 054e 51       		.byte	0x51
 2607 054f 02       		.uleb128 0x2
 2608 0550 74       		.byte	0x74
 2609 0551 00       		.sleb128 0
 2610 0552 00       		.byte	0
 2611 0553 13       		.uleb128 0x13
 2612 0554 EC000000 		.4byte	.LVL64
 2613 0558 60120000 		.4byte	0x1260
 2614 055c 6C050000 		.4byte	0x56c
 2615 0560 0F       		.uleb128 0xf
 2616 0561 01       		.uleb128 0x1
 2617 0562 50       		.byte	0x50
 2618 0563 02       		.uleb128 0x2
 2619 0564 75       		.byte	0x75
 2620 0565 00       		.sleb128 0
 2621 0566 0F       		.uleb128 0xf
 2622 0567 01       		.uleb128 0x1
 2623 0568 51       		.byte	0x51
 2624 0569 01       		.uleb128 0x1
 2625 056a 31       		.byte	0x31
ARM GAS  C:\Users\Phuong\AppData\Local\Temp\ccQXToeg.s 			page 61


 2626 056b 00       		.byte	0
 2627 056c 13       		.uleb128 0x13
 2628 056d 04010000 		.4byte	.LVL66
 2629 0571 A8120000 		.4byte	0x12a8
 2630 0575 8D050000 		.4byte	0x58d
 2631 0579 0F       		.uleb128 0xf
 2632 057a 01       		.uleb128 0x1
 2633 057b 50       		.byte	0x50
 2634 057c 03       		.uleb128 0x3
 2635 057d 91       		.byte	0x91
 2636 057e 58       		.sleb128 -40
 2637 057f 06       		.byte	0x6
 2638 0580 0F       		.uleb128 0xf
 2639 0581 01       		.uleb128 0x1
 2640 0582 51       		.byte	0x51
 2641 0583 02       		.uleb128 0x2
 2642 0584 75       		.byte	0x75
 2643 0585 00       		.sleb128 0
 2644 0586 0F       		.uleb128 0xf
 2645 0587 01       		.uleb128 0x1
 2646 0588 52       		.byte	0x52
 2647 0589 02       		.uleb128 0x2
 2648 058a 74       		.byte	0x74
 2649 058b 00       		.sleb128 0
 2650 058c 00       		.byte	0
 2651 058d 0E       		.uleb128 0xe
 2652 058e 1A010000 		.4byte	.LVL68
 2653 0592 B4120000 		.4byte	0x12b4
 2654 0596 0F       		.uleb128 0xf
 2655 0597 01       		.uleb128 0x1
 2656 0598 50       		.byte	0x50
 2657 0599 03       		.uleb128 0x3
 2658 059a 91       		.byte	0x91
 2659 059b 58       		.sleb128 -40
 2660 059c 06       		.byte	0x6
 2661 059d 0F       		.uleb128 0xf
 2662 059e 01       		.uleb128 0x1
 2663 059f 51       		.byte	0x51
 2664 05a0 03       		.uleb128 0x3
 2665 05a1 91       		.byte	0x91
 2666 05a2 58       		.sleb128 -40
 2667 05a3 06       		.byte	0x6
 2668 05a4 0F       		.uleb128 0xf
 2669 05a5 01       		.uleb128 0x1
 2670 05a6 52       		.byte	0x52
 2671 05a7 02       		.uleb128 0x2
 2672 05a8 76       		.byte	0x76
 2673 05a9 00       		.sleb128 0
 2674 05aa 0F       		.uleb128 0xf
 2675 05ab 01       		.uleb128 0x1
 2676 05ac 53       		.byte	0x53
 2677 05ad 02       		.uleb128 0x2
 2678 05ae 74       		.byte	0x74
 2679 05af 00       		.sleb128 0
 2680 05b0 0F       		.uleb128 0xf
 2681 05b1 02       		.uleb128 0x2
 2682 05b2 7D       		.byte	0x7d
ARM GAS  C:\Users\Phuong\AppData\Local\Temp\ccQXToeg.s 			page 62


 2683 05b3 00       		.sleb128 0
 2684 05b4 03       		.uleb128 0x3
 2685 05b5 77       		.byte	0x77
 2686 05b6 CC00     		.sleb128 76
 2687 05b8 00       		.byte	0
 2688 05b9 00       		.byte	0
 2689 05ba 07       		.uleb128 0x7
 2690 05bb 04       		.byte	0x4
 2691 05bc 5D010000 		.4byte	0x15d
 2692 05c0 1A       		.uleb128 0x1a
 2693 05c1 68000000 		.4byte	0x68
 2694 05c5 D9050000 		.4byte	0x5d9
 2695 05c9 1B       		.uleb128 0x1b
 2696 05ca 6F010000 		.4byte	0x16f
 2697 05ce 1B       		.uleb128 0x1b
 2698 05cf 71010000 		.4byte	0x171
 2699 05d3 1B       		.uleb128 0x1b
 2700 05d4 76000000 		.4byte	0x76
 2701 05d8 00       		.byte	0
 2702 05d9 07       		.uleb128 0x7
 2703 05da 04       		.byte	0x4
 2704 05db C0050000 		.4byte	0x5c0
 2705 05df 1C       		.uleb128 0x1c
 2706 05e0 36020000 		.4byte	.LASF41
 2707 05e4 01       		.byte	0x1
 2708 05e5 7A       		.byte	0x7a
 2709 05e6 00000000 		.4byte	.LFB3
 2710 05ea 0C000000 		.4byte	.LFE3-.LFB3
 2711 05ee 01       		.uleb128 0x1
 2712 05ef 9C       		.byte	0x9c
 2713 05f0 20060000 		.4byte	0x620
 2714 05f4 0C       		.uleb128 0xc
 2715 05f5 63747800 		.ascii	"ctx\000"
 2716 05f9 01       		.byte	0x1
 2717 05fa 7A       		.byte	0x7a
 2718 05fb BA050000 		.4byte	0x5ba
 2719 05ff 1A030000 		.4byte	.LLST13
 2720 0603 0E       		.uleb128 0xe
 2721 0604 0A000000 		.4byte	.LVL76
 2722 0608 C0120000 		.4byte	0x12c0
 2723 060c 0F       		.uleb128 0xf
 2724 060d 01       		.uleb128 0x1
 2725 060e 50       		.byte	0x50
 2726 060f 03       		.uleb128 0x3
 2727 0610 F3       		.byte	0xf3
 2728 0611 01       		.uleb128 0x1
 2729 0612 50       		.byte	0x50
 2730 0613 0F       		.uleb128 0xf
 2731 0614 01       		.uleb128 0x1
 2732 0615 51       		.byte	0x51
 2733 0616 01       		.uleb128 0x1
 2734 0617 30       		.byte	0x30
 2735 0618 0F       		.uleb128 0xf
 2736 0619 01       		.uleb128 0x1
 2737 061a 52       		.byte	0x52
 2738 061b 02       		.uleb128 0x2
 2739 061c 08       		.byte	0x8
ARM GAS  C:\Users\Phuong\AppData\Local\Temp\ccQXToeg.s 			page 63


 2740 061d 7C       		.byte	0x7c
 2741 061e 00       		.byte	0
 2742 061f 00       		.byte	0
 2743 0620 1D       		.uleb128 0x1d
 2744 0621 5A000000 		.4byte	.LASF28
 2745 0625 01       		.byte	0x1
 2746 0626 82       		.byte	0x82
 2747 0627 68000000 		.4byte	0x68
 2748 062b 00000000 		.4byte	.LFB4
 2749 062f 58000000 		.4byte	.LFE4-.LFB4
 2750 0633 01       		.uleb128 0x1
 2751 0634 9C       		.byte	0x9c
 2752 0635 00070000 		.4byte	0x700
 2753 0639 0C       		.uleb128 0xc
 2754 063a 63747800 		.ascii	"ctx\000"
 2755 063e 01       		.byte	0x1
 2756 063f 82       		.byte	0x82
 2757 0640 BA050000 		.4byte	0x5ba
 2758 0644 3B030000 		.4byte	.LLST14
 2759 0648 0C       		.uleb128 0xc
 2760 0649 7000     		.ascii	"p\000"
 2761 064b 01       		.byte	0x1
 2762 064c 83       		.byte	0x83
 2763 064d 3B020000 		.4byte	0x23b
 2764 0651 67030000 		.4byte	.LLST15
 2765 0655 0C       		.uleb128 0xc
 2766 0656 656E6400 		.ascii	"end\000"
 2767 065a 01       		.byte	0x1
 2768 065b 84       		.byte	0x84
 2769 065c 41020000 		.4byte	0x241
 2770 0660 93030000 		.4byte	.LLST16
 2771 0664 0D       		.uleb128 0xd
 2772 0665 72657400 		.ascii	"ret\000"
 2773 0669 01       		.byte	0x1
 2774 066a 86       		.byte	0x86
 2775 066b 68000000 		.4byte	0x68
 2776 066f BF030000 		.4byte	.LLST17
 2777 0673 13       		.uleb128 0x13
 2778 0674 12000000 		.4byte	.LVL79
 2779 0678 BF010000 		.4byte	0x1bf
 2780 067c 93060000 		.4byte	0x693
 2781 0680 0F       		.uleb128 0xf
 2782 0681 01       		.uleb128 0x1
 2783 0682 50       		.byte	0x50
 2784 0683 02       		.uleb128 0x2
 2785 0684 76       		.byte	0x76
 2786 0685 00       		.sleb128 0
 2787 0686 0F       		.uleb128 0xf
 2788 0687 01       		.uleb128 0x1
 2789 0688 51       		.byte	0x51
 2790 0689 02       		.uleb128 0x2
 2791 068a 74       		.byte	0x74
 2792 068b 00       		.sleb128 0
 2793 068c 0F       		.uleb128 0xf
 2794 068d 01       		.uleb128 0x1
 2795 068e 52       		.byte	0x52
 2796 068f 02       		.uleb128 0x2
ARM GAS  C:\Users\Phuong\AppData\Local\Temp\ccQXToeg.s 			page 64


 2797 0690 75       		.byte	0x75
 2798 0691 00       		.sleb128 0
 2799 0692 00       		.byte	0
 2800 0693 13       		.uleb128 0x13
 2801 0694 22000000 		.4byte	.LVL81
 2802 0698 BF010000 		.4byte	0x1bf
 2803 069c B3060000 		.4byte	0x6b3
 2804 06a0 0F       		.uleb128 0xf
 2805 06a1 01       		.uleb128 0x1
 2806 06a2 50       		.byte	0x50
 2807 06a3 02       		.uleb128 0x2
 2808 06a4 77       		.byte	0x77
 2809 06a5 10       		.sleb128 16
 2810 06a6 0F       		.uleb128 0xf
 2811 06a7 01       		.uleb128 0x1
 2812 06a8 51       		.byte	0x51
 2813 06a9 02       		.uleb128 0x2
 2814 06aa 74       		.byte	0x74
 2815 06ab 00       		.sleb128 0
 2816 06ac 0F       		.uleb128 0xf
 2817 06ad 01       		.uleb128 0x1
 2818 06ae 52       		.byte	0x52
 2819 06af 02       		.uleb128 0x2
 2820 06b0 75       		.byte	0x75
 2821 06b1 00       		.sleb128 0
 2822 06b2 00       		.byte	0
 2823 06b3 13       		.uleb128 0x13
 2824 06b4 3A000000 		.4byte	.LVL83
 2825 06b8 BF010000 		.4byte	0x1bf
 2826 06bc D4060000 		.4byte	0x6d4
 2827 06c0 0F       		.uleb128 0xf
 2828 06c1 01       		.uleb128 0x1
 2829 06c2 50       		.byte	0x50
 2830 06c3 03       		.uleb128 0x3
 2831 06c4 91       		.byte	0x91
 2832 06c5 64       		.sleb128 -28
 2833 06c6 06       		.byte	0x6
 2834 06c7 0F       		.uleb128 0xf
 2835 06c8 01       		.uleb128 0x1
 2836 06c9 51       		.byte	0x51
 2837 06ca 02       		.uleb128 0x2
 2838 06cb 74       		.byte	0x74
 2839 06cc 00       		.sleb128 0
 2840 06cd 0F       		.uleb128 0xf
 2841 06ce 01       		.uleb128 0x1
 2842 06cf 52       		.byte	0x52
 2843 06d0 02       		.uleb128 0x2
 2844 06d1 75       		.byte	0x75
 2845 06d2 00       		.sleb128 0
 2846 06d3 00       		.byte	0
 2847 06d4 13       		.uleb128 0x13
 2848 06d5 46000000 		.4byte	.LVL85
 2849 06d9 4C020000 		.4byte	0x24c
 2850 06dd EF060000 		.4byte	0x6ef
 2851 06e1 0F       		.uleb128 0xf
 2852 06e2 01       		.uleb128 0x1
 2853 06e3 50       		.byte	0x50
ARM GAS  C:\Users\Phuong\AppData\Local\Temp\ccQXToeg.s 			page 65


 2854 06e4 03       		.uleb128 0x3
 2855 06e5 91       		.byte	0x91
 2856 06e6 64       		.sleb128 -28
 2857 06e7 06       		.byte	0x6
 2858 06e8 0F       		.uleb128 0xf
 2859 06e9 01       		.uleb128 0x1
 2860 06ea 51       		.byte	0x51
 2861 06eb 02       		.uleb128 0x2
 2862 06ec 76       		.byte	0x76
 2863 06ed 00       		.sleb128 0
 2864 06ee 00       		.byte	0
 2865 06ef 0E       		.uleb128 0xe
 2866 06f0 50000000 		.4byte	.LVL87
 2867 06f4 84120000 		.4byte	0x1284
 2868 06f8 0F       		.uleb128 0xf
 2869 06f9 01       		.uleb128 0x1
 2870 06fa 50       		.byte	0x50
 2871 06fb 02       		.uleb128 0x2
 2872 06fc 76       		.byte	0x76
 2873 06fd 00       		.sleb128 0
 2874 06fe 00       		.byte	0
 2875 06ff 00       		.byte	0
 2876 0700 1D       		.uleb128 0x1d
 2877 0701 EE010000 		.4byte	.LASF29
 2878 0705 01       		.byte	0x1
 2879 0706 98       		.byte	0x98
 2880 0707 68000000 		.4byte	0x68
 2881 070b 00000000 		.4byte	.LFB5
 2882 070f 38010000 		.4byte	.LFE5-.LFB5
 2883 0713 01       		.uleb128 0x1
 2884 0714 9C       		.byte	0x9c
 2885 0715 4B090000 		.4byte	0x94b
 2886 0719 0C       		.uleb128 0xc
 2887 071a 63747800 		.ascii	"ctx\000"
 2888 071e 01       		.byte	0x1
 2889 071f 98       		.byte	0x98
 2890 0720 BA050000 		.4byte	0x5ba
 2891 0724 F3030000 		.4byte	.LLST18
 2892 0728 10       		.uleb128 0x10
 2893 0729 94050000 		.4byte	.LASF30
 2894 072d 01       		.byte	0x1
 2895 072e 98       		.byte	0x98
 2896 072f 68000000 		.4byte	0x68
 2897 0733 1F040000 		.4byte	.LLST19
 2898 0737 10       		.uleb128 0x10
 2899 0738 64050000 		.4byte	.LASF31
 2900 073c 01       		.byte	0x1
 2901 073d 99       		.byte	0x99
 2902 073e 71010000 		.4byte	0x171
 2903 0742 66040000 		.4byte	.LLST20
 2904 0746 10       		.uleb128 0x10
 2905 0747 20020000 		.4byte	.LASF32
 2906 074b 01       		.byte	0x1
 2907 074c 99       		.byte	0x99
 2908 074d 4B090000 		.4byte	0x94b
 2909 0751 85040000 		.4byte	.LLST21
 2910 0755 1E       		.uleb128 0x1e
ARM GAS  C:\Users\Phuong\AppData\Local\Temp\ccQXToeg.s 			page 66


 2911 0756 04050000 		.4byte	.LASF25
 2912 075a 01       		.byte	0x1
 2913 075b 9A       		.byte	0x9a
 2914 075c D9050000 		.4byte	0x5d9
 2915 0760 02       		.uleb128 0x2
 2916 0761 91       		.byte	0x91
 2917 0762 00       		.sleb128 0
 2918 0763 1E       		.uleb128 0x1e
 2919 0764 AE030000 		.4byte	.LASF26
 2920 0768 01       		.byte	0x1
 2921 0769 9B       		.byte	0x9b
 2922 076a 6F010000 		.4byte	0x16f
 2923 076e 02       		.uleb128 0x2
 2924 076f 91       		.byte	0x91
 2925 0770 04       		.sleb128 4
 2926 0771 0D       		.uleb128 0xd
 2927 0772 72657400 		.ascii	"ret\000"
 2928 0776 01       		.byte	0x1
 2929 0777 9D       		.byte	0x9d
 2930 0778 68000000 		.4byte	0x68
 2931 077c A4040000 		.4byte	.LLST22
 2932 0780 1F       		.uleb128 0x1f
 2933 0781 34050000 		.4byte	.LASF27
 2934 0785 01       		.byte	0x1
 2935 0786 9D       		.byte	0x9d
 2936 0787 68000000 		.4byte	0x68
 2937 078b 13050000 		.4byte	.LLST23
 2938 078f 0D       		.uleb128 0xd
 2939 0790 6E3100   		.ascii	"n1\000"
 2940 0793 01       		.byte	0x1
 2941 0794 9E       		.byte	0x9e
 2942 0795 76000000 		.4byte	0x76
 2943 0799 6A050000 		.4byte	.LLST24
 2944 079d 0D       		.uleb128 0xd
 2945 079e 6E3200   		.ascii	"n2\000"
 2946 07a1 01       		.byte	0x1
 2947 07a2 9E       		.byte	0x9e
 2948 07a3 76000000 		.4byte	0x76
 2949 07a7 88050000 		.4byte	.LLST25
 2950 07ab 0D       		.uleb128 0xd
 2951 07ac 6E3300   		.ascii	"n3\000"
 2952 07af 01       		.byte	0x1
 2953 07b0 9E       		.byte	0x9e
 2954 07b1 76000000 		.4byte	0x76
 2955 07b5 A6050000 		.4byte	.LLST26
 2956 07b9 0D       		.uleb128 0xd
 2957 07ba 7000     		.ascii	"p\000"
 2958 07bc 01       		.byte	0x1
 2959 07bd 9F       		.byte	0x9f
 2960 07be 71010000 		.4byte	0x171
 2961 07c2 C4050000 		.4byte	.LLST27
 2962 07c6 12       		.uleb128 0x12
 2963 07c7 01030000 		.4byte	.LASF33
 2964 07cb 01       		.byte	0x1
 2965 07cc D6       		.byte	0xd6
 2966 07cd 10010000 		.4byte	.L42
 2967 07d1 13       		.uleb128 0x13
ARM GAS  C:\Users\Phuong\AppData\Local\Temp\ccQXToeg.s 			page 67


 2968 07d2 1A000000 		.4byte	.LVL95
 2969 07d6 60120000 		.4byte	0x1260
 2970 07da EA070000 		.4byte	0x7ea
 2971 07de 0F       		.uleb128 0xf
 2972 07df 01       		.uleb128 0x1
 2973 07e0 50       		.byte	0x50
 2974 07e1 02       		.uleb128 0x2
 2975 07e2 75       		.byte	0x75
 2976 07e3 00       		.sleb128 0
 2977 07e4 0F       		.uleb128 0xf
 2978 07e5 01       		.uleb128 0x1
 2979 07e6 51       		.byte	0x51
 2980 07e7 01       		.uleb128 0x1
 2981 07e8 30       		.byte	0x30
 2982 07e9 00       		.byte	0
 2983 07ea 13       		.uleb128 0x13
 2984 07eb 34000000 		.4byte	.LVL98
 2985 07ef 90120000 		.4byte	0x1290
 2986 07f3 13080000 		.4byte	0x813
 2987 07f7 0F       		.uleb128 0xf
 2988 07f8 01       		.uleb128 0x1
 2989 07f9 50       		.byte	0x50
 2990 07fa 02       		.uleb128 0x2
 2991 07fb 74       		.byte	0x74
 2992 07fc 00       		.sleb128 0
 2993 07fd 0F       		.uleb128 0xf
 2994 07fe 01       		.uleb128 0x1
 2995 07ff 51       		.byte	0x51
 2996 0800 03       		.uleb128 0x3
 2997 0801 91       		.byte	0x91
 2998 0802 58       		.sleb128 -40
 2999 0803 06       		.byte	0x6
 3000 0804 0F       		.uleb128 0xf
 3001 0805 01       		.uleb128 0x1
 3002 0806 52       		.byte	0x52
 3003 0807 03       		.uleb128 0x3
 3004 0808 91       		.byte	0x91
 3005 0809 00       		.sleb128 0
 3006 080a 06       		.byte	0x6
 3007 080b 0F       		.uleb128 0xf
 3008 080c 01       		.uleb128 0x1
 3009 080d 53       		.byte	0x53
 3010 080e 03       		.uleb128 0x3
 3011 080f 91       		.byte	0x91
 3012 0810 04       		.sleb128 4
 3013 0811 06       		.byte	0x6
 3014 0812 00       		.byte	0
 3015 0813 13       		.uleb128 0x13
 3016 0814 42000000 		.4byte	.LVL100
 3017 0818 9C120000 		.4byte	0x129c
 3018 081c 2C080000 		.4byte	0x82c
 3019 0820 0F       		.uleb128 0xf
 3020 0821 01       		.uleb128 0x1
 3021 0822 50       		.byte	0x50
 3022 0823 02       		.uleb128 0x2
 3023 0824 74       		.byte	0x74
 3024 0825 00       		.sleb128 0
ARM GAS  C:\Users\Phuong\AppData\Local\Temp\ccQXToeg.s 			page 68


 3025 0826 0F       		.uleb128 0xf
 3026 0827 01       		.uleb128 0x1
 3027 0828 51       		.byte	0x51
 3028 0829 01       		.uleb128 0x1
 3029 082a 31       		.byte	0x31
 3030 082b 00       		.byte	0
 3031 082c 13       		.uleb128 0x13
 3032 082d 4E000000 		.4byte	.LVL102
 3033 0831 3E120000 		.4byte	0x123e
 3034 0835 46080000 		.4byte	0x846
 3035 0839 0F       		.uleb128 0xf
 3036 083a 01       		.uleb128 0x1
 3037 083b 50       		.byte	0x50
 3038 083c 02       		.uleb128 0x2
 3039 083d 74       		.byte	0x74
 3040 083e 00       		.sleb128 0
 3041 083f 0F       		.uleb128 0xf
 3042 0840 01       		.uleb128 0x1
 3043 0841 51       		.byte	0x51
 3044 0842 02       		.uleb128 0x2
 3045 0843 75       		.byte	0x75
 3046 0844 00       		.sleb128 0
 3047 0845 00       		.byte	0
 3048 0846 13       		.uleb128 0x13
 3049 0847 62000000 		.4byte	.LVL104
 3050 084b 4C020000 		.4byte	0x24c
 3051 084f 60080000 		.4byte	0x860
 3052 0853 0F       		.uleb128 0xf
 3053 0854 01       		.uleb128 0x1
 3054 0855 50       		.byte	0x50
 3055 0856 02       		.uleb128 0x2
 3056 0857 74       		.byte	0x74
 3057 0858 00       		.sleb128 0
 3058 0859 0F       		.uleb128 0xf
 3059 085a 01       		.uleb128 0x1
 3060 085b 51       		.byte	0x51
 3061 085c 02       		.uleb128 0x2
 3062 085d 75       		.byte	0x75
 3063 085e 00       		.sleb128 0
 3064 085f 00       		.byte	0
 3065 0860 13       		.uleb128 0x13
 3066 0861 8C000000 		.4byte	.LVL106
 3067 0865 B4120000 		.4byte	0x12b4
 3068 0869 90080000 		.4byte	0x890
 3069 086d 0F       		.uleb128 0xf
 3070 086e 01       		.uleb128 0x1
 3071 086f 50       		.byte	0x50
 3072 0870 03       		.uleb128 0x3
 3073 0871 91       		.byte	0x91
 3074 0872 58       		.sleb128 -40
 3075 0873 06       		.byte	0x6
 3076 0874 0F       		.uleb128 0xf
 3077 0875 01       		.uleb128 0x1
 3078 0876 51       		.byte	0x51
 3079 0877 03       		.uleb128 0x3
 3080 0878 91       		.byte	0x91
 3081 0879 64       		.sleb128 -28
ARM GAS  C:\Users\Phuong\AppData\Local\Temp\ccQXToeg.s 			page 69


 3082 087a 06       		.byte	0x6
 3083 087b 0F       		.uleb128 0xf
 3084 087c 01       		.uleb128 0x1
 3085 087d 52       		.byte	0x52
 3086 087e 02       		.uleb128 0x2
 3087 087f 74       		.byte	0x74
 3088 0880 00       		.sleb128 0
 3089 0881 0F       		.uleb128 0xf
 3090 0882 01       		.uleb128 0x1
 3091 0883 53       		.byte	0x53
 3092 0884 02       		.uleb128 0x2
 3093 0885 75       		.byte	0x75
 3094 0886 00       		.sleb128 0
 3095 0887 0F       		.uleb128 0xf
 3096 0888 02       		.uleb128 0x2
 3097 0889 7D       		.byte	0x7d
 3098 088a 00       		.sleb128 0
 3099 088b 03       		.uleb128 0x3
 3100 088c 77       		.byte	0x77
 3101 088d CC00     		.sleb128 76
 3102 088f 00       		.byte	0
 3103 0890 13       		.uleb128 0x13
 3104 0891 98000000 		.4byte	.LVL108
 3105 0895 4C020000 		.4byte	0x24c
 3106 0899 AB080000 		.4byte	0x8ab
 3107 089d 0F       		.uleb128 0xf
 3108 089e 01       		.uleb128 0x1
 3109 089f 50       		.byte	0x50
 3110 08a0 03       		.uleb128 0x3
 3111 08a1 91       		.byte	0x91
 3112 08a2 58       		.sleb128 -40
 3113 08a3 06       		.byte	0x6
 3114 08a4 0F       		.uleb128 0xf
 3115 08a5 01       		.uleb128 0x1
 3116 08a6 51       		.byte	0x51
 3117 08a7 02       		.uleb128 0x2
 3118 08a8 75       		.byte	0x75
 3119 08a9 00       		.sleb128 0
 3120 08aa 00       		.byte	0
 3121 08ab 13       		.uleb128 0x13
 3122 08ac A2000000 		.4byte	.LVL110
 3123 08b0 84120000 		.4byte	0x1284
 3124 08b4 BF080000 		.4byte	0x8bf
 3125 08b8 0F       		.uleb128 0xf
 3126 08b9 01       		.uleb128 0x1
 3127 08ba 50       		.byte	0x50
 3128 08bb 02       		.uleb128 0x2
 3129 08bc 75       		.byte	0x75
 3130 08bd 00       		.sleb128 0
 3131 08be 00       		.byte	0
 3132 08bf 13       		.uleb128 0x13
 3133 08c0 AA000000 		.4byte	.LVL113
 3134 08c4 84120000 		.4byte	0x1284
 3135 08c8 D4080000 		.4byte	0x8d4
 3136 08cc 0F       		.uleb128 0xf
 3137 08cd 01       		.uleb128 0x1
 3138 08ce 50       		.byte	0x50
ARM GAS  C:\Users\Phuong\AppData\Local\Temp\ccQXToeg.s 			page 70


 3139 08cf 03       		.uleb128 0x3
 3140 08d0 91       		.byte	0x91
 3141 08d1 64       		.sleb128 -28
 3142 08d2 06       		.byte	0x6
 3143 08d3 00       		.byte	0
 3144 08d4 13       		.uleb128 0x13
 3145 08d5 B2000000 		.4byte	.LVL116
 3146 08d9 84120000 		.4byte	0x1284
 3147 08dd E9080000 		.4byte	0x8e9
 3148 08e1 0F       		.uleb128 0xf
 3149 08e2 01       		.uleb128 0x1
 3150 08e3 50       		.byte	0x50
 3151 08e4 03       		.uleb128 0x3
 3152 08e5 91       		.byte	0x91
 3153 08e6 58       		.sleb128 -40
 3154 08e7 06       		.byte	0x6
 3155 08e8 00       		.byte	0
 3156 08e9 13       		.uleb128 0x13
 3157 08ea C0000000 		.4byte	.LVL119
 3158 08ee C9120000 		.4byte	0x12c9
 3159 08f2 0C090000 		.4byte	0x90c
 3160 08f6 0F       		.uleb128 0xf
 3161 08f7 01       		.uleb128 0x1
 3162 08f8 50       		.byte	0x50
 3163 08f9 02       		.uleb128 0x2
 3164 08fa 75       		.byte	0x75
 3165 08fb 00       		.sleb128 0
 3166 08fc 0F       		.uleb128 0xf
 3167 08fd 01       		.uleb128 0x1
 3168 08fe 51       		.byte	0x51
 3169 08ff 05       		.uleb128 0x5
 3170 0900 91       		.byte	0x91
 3171 0901 5C       		.sleb128 -36
 3172 0902 06       		.byte	0x6
 3173 0903 23       		.byte	0x23
 3174 0904 02       		.uleb128 0x2
 3175 0905 0F       		.uleb128 0xf
 3176 0906 01       		.uleb128 0x1
 3177 0907 52       		.byte	0x52
 3178 0908 02       		.uleb128 0x2
 3179 0909 76       		.byte	0x76
 3180 090a 00       		.sleb128 0
 3181 090b 00       		.byte	0
 3182 090c 13       		.uleb128 0x13
 3183 090d DA000000 		.4byte	.LVL124
 3184 0911 C9120000 		.4byte	0x12c9
 3185 0915 2D090000 		.4byte	0x92d
 3186 0919 0F       		.uleb128 0xf
 3187 091a 01       		.uleb128 0x1
 3188 091b 50       		.byte	0x50
 3189 091c 03       		.uleb128 0x3
 3190 091d 91       		.byte	0x91
 3191 091e 64       		.sleb128 -28
 3192 091f 06       		.byte	0x6
 3193 0920 0F       		.uleb128 0xf
 3194 0921 01       		.uleb128 0x1
 3195 0922 51       		.byte	0x51
ARM GAS  C:\Users\Phuong\AppData\Local\Temp\ccQXToeg.s 			page 71


 3196 0923 02       		.uleb128 0x2
 3197 0924 75       		.byte	0x75
 3198 0925 02       		.sleb128 2
 3199 0926 0F       		.uleb128 0xf
 3200 0927 01       		.uleb128 0x1
 3201 0928 52       		.byte	0x52
 3202 0929 02       		.uleb128 0x2
 3203 092a 7A       		.byte	0x7a
 3204 092b 00       		.sleb128 0
 3205 092c 00       		.byte	0
 3206 092d 0E       		.uleb128 0xe
 3207 092e F8000000 		.4byte	.LVL130
 3208 0932 C9120000 		.4byte	0x12c9
 3209 0936 0F       		.uleb128 0xf
 3210 0937 01       		.uleb128 0x1
 3211 0938 50       		.byte	0x50
 3212 0939 03       		.uleb128 0x3
 3213 093a 91       		.byte	0x91
 3214 093b 58       		.sleb128 -40
 3215 093c 06       		.byte	0x6
 3216 093d 0F       		.uleb128 0xf
 3217 093e 01       		.uleb128 0x1
 3218 093f 51       		.byte	0x51
 3219 0940 02       		.uleb128 0x2
 3220 0941 75       		.byte	0x75
 3221 0942 02       		.sleb128 2
 3222 0943 0F       		.uleb128 0xf
 3223 0944 01       		.uleb128 0x1
 3224 0945 52       		.byte	0x52
 3225 0946 02       		.uleb128 0x2
 3226 0947 74       		.byte	0x74
 3227 0948 00       		.sleb128 0
 3228 0949 00       		.byte	0
 3229 094a 00       		.byte	0
 3230 094b 07       		.uleb128 0x7
 3231 094c 04       		.byte	0x4
 3232 094d 76000000 		.4byte	0x76
 3233 0951 1D       		.uleb128 0x1d
 3234 0952 0E040000 		.4byte	.LASF34
 3235 0956 01       		.byte	0x1
 3236 0957 E1       		.byte	0xe1
 3237 0958 68000000 		.4byte	0x68
 3238 095c 00000000 		.4byte	.LFB6
 3239 0960 54000000 		.4byte	.LFE6-.LFB6
 3240 0964 01       		.uleb128 0x1
 3241 0965 9C       		.byte	0x9c
 3242 0966 E8090000 		.4byte	0x9e8
 3243 096a 0C       		.uleb128 0xc
 3244 096b 63747800 		.ascii	"ctx\000"
 3245 096f 01       		.byte	0x1
 3246 0970 E1       		.byte	0xe1
 3247 0971 BA050000 		.4byte	0x5ba
 3248 0975 51060000 		.4byte	.LLST28
 3249 0979 0C       		.uleb128 0xc
 3250 097a 5000     		.ascii	"P\000"
 3251 097c 01       		.byte	0x1
 3252 097d E2       		.byte	0xe2
ARM GAS  C:\Users\Phuong\AppData\Local\Temp\ccQXToeg.s 			page 72


 3253 097e 6C030000 		.4byte	0x36c
 3254 0982 BF060000 		.4byte	.LLST29
 3255 0986 0C       		.uleb128 0xc
 3256 0987 4700     		.ascii	"G\000"
 3257 0989 01       		.byte	0x1
 3258 098a E3       		.byte	0xe3
 3259 098b 6C030000 		.4byte	0x36c
 3260 098f F9060000 		.4byte	.LLST30
 3261 0993 0D       		.uleb128 0xd
 3262 0994 72657400 		.ascii	"ret\000"
 3263 0998 01       		.byte	0x1
 3264 0999 E5       		.byte	0xe5
 3265 099a 68000000 		.4byte	0x68
 3266 099e 3B070000 		.4byte	.LLST31
 3267 09a2 13       		.uleb128 0x13
 3268 09a3 1A000000 		.4byte	.LVL143
 3269 09a7 55120000 		.4byte	0x1255
 3270 09ab BD090000 		.4byte	0x9bd
 3271 09af 0F       		.uleb128 0xf
 3272 09b0 01       		.uleb128 0x1
 3273 09b1 50       		.byte	0x50
 3274 09b2 02       		.uleb128 0x2
 3275 09b3 76       		.byte	0x76
 3276 09b4 00       		.sleb128 0
 3277 09b5 0F       		.uleb128 0xf
 3278 09b6 01       		.uleb128 0x1
 3279 09b7 51       		.byte	0x51
 3280 09b8 03       		.uleb128 0x3
 3281 09b9 F3       		.byte	0xf3
 3282 09ba 01       		.uleb128 0x1
 3283 09bb 51       		.byte	0x51
 3284 09bc 00       		.byte	0
 3285 09bd 13       		.uleb128 0x13
 3286 09be 28000000 		.4byte	.LVL145
 3287 09c2 55120000 		.4byte	0x1255
 3288 09c6 D7090000 		.4byte	0x9d7
 3289 09ca 0F       		.uleb128 0xf
 3290 09cb 01       		.uleb128 0x1
 3291 09cc 50       		.byte	0x50
 3292 09cd 02       		.uleb128 0x2
 3293 09ce 74       		.byte	0x74
 3294 09cf 10       		.sleb128 16
 3295 09d0 0F       		.uleb128 0xf
 3296 09d1 01       		.uleb128 0x1
 3297 09d2 51       		.byte	0x51
 3298 09d3 02       		.uleb128 0x2
 3299 09d4 75       		.byte	0x75
 3300 09d5 00       		.sleb128 0
 3301 09d6 00       		.byte	0
 3302 09d7 0E       		.uleb128 0xe
 3303 09d8 3A000000 		.4byte	.LVL149
 3304 09dc 84120000 		.4byte	0x1284
 3305 09e0 0F       		.uleb128 0xf
 3306 09e1 01       		.uleb128 0x1
 3307 09e2 50       		.byte	0x50
 3308 09e3 02       		.uleb128 0x2
 3309 09e4 76       		.byte	0x76
ARM GAS  C:\Users\Phuong\AppData\Local\Temp\ccQXToeg.s 			page 73


 3310 09e5 00       		.sleb128 0
 3311 09e6 00       		.byte	0
 3312 09e7 00       		.byte	0
 3313 09e8 1D       		.uleb128 0x1d
 3314 09e9 B4030000 		.4byte	.LASF35
 3315 09ed 01       		.byte	0x1
 3316 09ee F7       		.byte	0xf7
 3317 09ef 68000000 		.4byte	0x68
 3318 09f3 00000000 		.4byte	.LFB7
 3319 09f7 3C000000 		.4byte	.LFE7-.LFB7
 3320 09fb 01       		.uleb128 0x1
 3321 09fc 9C       		.byte	0x9c
 3322 09fd 5F0A0000 		.4byte	0xa5f
 3323 0a01 0C       		.uleb128 0xc
 3324 0a02 63747800 		.ascii	"ctx\000"
 3325 0a06 01       		.byte	0x1
 3326 0a07 F7       		.byte	0xf7
 3327 0a08 BA050000 		.4byte	0x5ba
 3328 0a0c 73070000 		.4byte	.LLST32
 3329 0a10 10       		.uleb128 0x10
 3330 0a11 97000000 		.4byte	.LASF36
 3331 0a15 01       		.byte	0x1
 3332 0a16 F8       		.byte	0xf8
 3333 0a17 41020000 		.4byte	0x241
 3334 0a1b EC070000 		.4byte	.LLST33
 3335 0a1f 10       		.uleb128 0x10
 3336 0a20 0A050000 		.4byte	.LASF37
 3337 0a24 01       		.byte	0x1
 3338 0a25 F8       		.byte	0xf8
 3339 0a26 76000000 		.4byte	0x76
 3340 0a2a 26080000 		.4byte	.LLST34
 3341 0a2e 0D       		.uleb128 0xd
 3342 0a2f 72657400 		.ascii	"ret\000"
 3343 0a33 01       		.byte	0x1
 3344 0a34 FA       		.byte	0xfa
 3345 0a35 68000000 		.4byte	0x68
 3346 0a39 60080000 		.4byte	.LLST35
 3347 0a3d 0E       		.uleb128 0xe
 3348 0a3e 16000000 		.4byte	.LVL160
 3349 0a42 0F120000 		.4byte	0x120f
 3350 0a46 0F       		.uleb128 0xf
 3351 0a47 01       		.uleb128 0x1
 3352 0a48 50       		.byte	0x50
 3353 0a49 05       		.uleb128 0x5
 3354 0a4a F3       		.byte	0xf3
 3355 0a4b 01       		.uleb128 0x1
 3356 0a4c 50       		.byte	0x50
 3357 0a4d 23       		.byte	0x23
 3358 0a4e 34       		.uleb128 0x34
 3359 0a4f 0F       		.uleb128 0xf
 3360 0a50 01       		.uleb128 0x1
 3361 0a51 51       		.byte	0x51
 3362 0a52 03       		.uleb128 0x3
 3363 0a53 F3       		.byte	0xf3
 3364 0a54 01       		.uleb128 0x1
 3365 0a55 51       		.byte	0x51
 3366 0a56 0F       		.uleb128 0xf
ARM GAS  C:\Users\Phuong\AppData\Local\Temp\ccQXToeg.s 			page 74


 3367 0a57 01       		.uleb128 0x1
 3368 0a58 52       		.byte	0x52
 3369 0a59 03       		.uleb128 0x3
 3370 0a5a F3       		.byte	0xf3
 3371 0a5b 01       		.uleb128 0x1
 3372 0a5c 52       		.byte	0x52
 3373 0a5d 00       		.byte	0
 3374 0a5e 00       		.byte	0
 3375 0a5f 20       		.uleb128 0x20
 3376 0a60 2F040000 		.4byte	.LASF38
 3377 0a64 01       		.byte	0x1
 3378 0a65 0801     		.2byte	0x108
 3379 0a67 68000000 		.4byte	0x68
 3380 0a6b 00000000 		.4byte	.LFB8
 3381 0a6f E8000000 		.4byte	.LFE8-.LFB8
 3382 0a73 01       		.uleb128 0x1
 3383 0a74 9C       		.byte	0x9c
 3384 0a75 FB0B0000 		.4byte	0xbfb
 3385 0a79 15       		.uleb128 0x15
 3386 0a7a 63747800 		.ascii	"ctx\000"
 3387 0a7e 01       		.byte	0x1
 3388 0a7f 0801     		.2byte	0x108
 3389 0a81 BA050000 		.4byte	0x5ba
 3390 0a85 8D080000 		.4byte	.LLST36
 3391 0a89 16       		.uleb128 0x16
 3392 0a8a 94050000 		.4byte	.LASF30
 3393 0a8e 01       		.byte	0x1
 3394 0a8f 0801     		.2byte	0x108
 3395 0a91 68000000 		.4byte	0x68
 3396 0a95 FB080000 		.4byte	.LLST37
 3397 0a99 16       		.uleb128 0x16
 3398 0a9a 64050000 		.4byte	.LASF31
 3399 0a9e 01       		.byte	0x1
 3400 0a9f 0901     		.2byte	0x109
 3401 0aa1 71010000 		.4byte	0x171
 3402 0aa5 4D090000 		.4byte	.LLST38
 3403 0aa9 16       		.uleb128 0x16
 3404 0aaa 20020000 		.4byte	.LASF32
 3405 0aae 01       		.byte	0x1
 3406 0aaf 0901     		.2byte	0x109
 3407 0ab1 76000000 		.4byte	0x76
 3408 0ab5 83090000 		.4byte	.LLST39
 3409 0ab9 21       		.uleb128 0x21
 3410 0aba 04050000 		.4byte	.LASF25
 3411 0abe 01       		.byte	0x1
 3412 0abf 0A01     		.2byte	0x10a
 3413 0ac1 D9050000 		.4byte	0x5d9
 3414 0ac5 02       		.uleb128 0x2
 3415 0ac6 91       		.byte	0x91
 3416 0ac7 00       		.sleb128 0
 3417 0ac8 21       		.uleb128 0x21
 3418 0ac9 AE030000 		.4byte	.LASF26
 3419 0acd 01       		.byte	0x1
 3420 0ace 0B01     		.2byte	0x10b
 3421 0ad0 6F010000 		.4byte	0x16f
 3422 0ad4 02       		.uleb128 0x2
 3423 0ad5 91       		.byte	0x91
ARM GAS  C:\Users\Phuong\AppData\Local\Temp\ccQXToeg.s 			page 75


 3424 0ad6 04       		.sleb128 4
 3425 0ad7 17       		.uleb128 0x17
 3426 0ad8 72657400 		.ascii	"ret\000"
 3427 0adc 01       		.byte	0x1
 3428 0add 0D01     		.2byte	0x10d
 3429 0adf 68000000 		.4byte	0x68
 3430 0ae3 C5090000 		.4byte	.LLST40
 3431 0ae7 18       		.uleb128 0x18
 3432 0ae8 34050000 		.4byte	.LASF27
 3433 0aec 01       		.byte	0x1
 3434 0aed 0D01     		.2byte	0x10d
 3435 0aef 68000000 		.4byte	0x68
 3436 0af3 1E0A0000 		.4byte	.LLST41
 3437 0af7 22       		.uleb128 0x22
 3438 0af8 01030000 		.4byte	.LASF33
 3439 0afc 01       		.byte	0x1
 3440 0afd 2C01     		.2byte	0x12c
 3441 0aff B4000000 		.4byte	.L72
 3442 0b03 13       		.uleb128 0x13
 3443 0b04 2A000000 		.4byte	.LVL175
 3444 0b08 60120000 		.4byte	0x1260
 3445 0b0c 1C0B0000 		.4byte	0xb1c
 3446 0b10 0F       		.uleb128 0xf
 3447 0b11 01       		.uleb128 0x1
 3448 0b12 50       		.byte	0x50
 3449 0b13 02       		.uleb128 0x2
 3450 0b14 75       		.byte	0x75
 3451 0b15 00       		.sleb128 0
 3452 0b16 0F       		.uleb128 0xf
 3453 0b17 01       		.uleb128 0x1
 3454 0b18 51       		.byte	0x51
 3455 0b19 01       		.uleb128 0x1
 3456 0b1a 30       		.byte	0x30
 3457 0b1b 00       		.byte	0
 3458 0b1c 13       		.uleb128 0x13
 3459 0b1d 46000000 		.4byte	.LVL178
 3460 0b21 90120000 		.4byte	0x1290
 3461 0b25 450B0000 		.4byte	0xb45
 3462 0b29 0F       		.uleb128 0xf
 3463 0b2a 01       		.uleb128 0x1
 3464 0b2b 50       		.byte	0x50
 3465 0b2c 02       		.uleb128 0x2
 3466 0b2d 74       		.byte	0x74
 3467 0b2e 00       		.sleb128 0
 3468 0b2f 0F       		.uleb128 0xf
 3469 0b30 01       		.uleb128 0x1
 3470 0b31 51       		.byte	0x51
 3471 0b32 03       		.uleb128 0x3
 3472 0b33 91       		.byte	0x91
 3473 0b34 58       		.sleb128 -40
 3474 0b35 06       		.byte	0x6
 3475 0b36 0F       		.uleb128 0xf
 3476 0b37 01       		.uleb128 0x1
 3477 0b38 52       		.byte	0x52
 3478 0b39 03       		.uleb128 0x3
 3479 0b3a 91       		.byte	0x91
 3480 0b3b 00       		.sleb128 0
ARM GAS  C:\Users\Phuong\AppData\Local\Temp\ccQXToeg.s 			page 76


 3481 0b3c 06       		.byte	0x6
 3482 0b3d 0F       		.uleb128 0xf
 3483 0b3e 01       		.uleb128 0x1
 3484 0b3f 53       		.byte	0x53
 3485 0b40 03       		.uleb128 0x3
 3486 0b41 91       		.byte	0x91
 3487 0b42 04       		.sleb128 4
 3488 0b43 06       		.byte	0x6
 3489 0b44 00       		.byte	0
 3490 0b45 13       		.uleb128 0x13
 3491 0b46 54000000 		.4byte	.LVL180
 3492 0b4a 9C120000 		.4byte	0x129c
 3493 0b4e 5E0B0000 		.4byte	0xb5e
 3494 0b52 0F       		.uleb128 0xf
 3495 0b53 01       		.uleb128 0x1
 3496 0b54 50       		.byte	0x50
 3497 0b55 02       		.uleb128 0x2
 3498 0b56 74       		.byte	0x74
 3499 0b57 00       		.sleb128 0
 3500 0b58 0F       		.uleb128 0xf
 3501 0b59 01       		.uleb128 0x1
 3502 0b5a 51       		.byte	0x51
 3503 0b5b 01       		.uleb128 0x1
 3504 0b5c 31       		.byte	0x31
 3505 0b5d 00       		.byte	0
 3506 0b5e 13       		.uleb128 0x13
 3507 0b5f 60000000 		.4byte	.LVL182
 3508 0b63 3E120000 		.4byte	0x123e
 3509 0b67 780B0000 		.4byte	0xb78
 3510 0b6b 0F       		.uleb128 0xf
 3511 0b6c 01       		.uleb128 0x1
 3512 0b6d 50       		.byte	0x50
 3513 0b6e 02       		.uleb128 0x2
 3514 0b6f 74       		.byte	0x74
 3515 0b70 00       		.sleb128 0
 3516 0b71 0F       		.uleb128 0xf
 3517 0b72 01       		.uleb128 0x1
 3518 0b73 51       		.byte	0x51
 3519 0b74 02       		.uleb128 0x2
 3520 0b75 75       		.byte	0x75
 3521 0b76 00       		.sleb128 0
 3522 0b77 00       		.byte	0
 3523 0b78 13       		.uleb128 0x13
 3524 0b79 78000000 		.4byte	.LVL185
 3525 0b7d 4C020000 		.4byte	0x24c
 3526 0b81 920B0000 		.4byte	0xb92
 3527 0b85 0F       		.uleb128 0xf
 3528 0b86 01       		.uleb128 0x1
 3529 0b87 50       		.byte	0x50
 3530 0b88 02       		.uleb128 0x2
 3531 0b89 74       		.byte	0x74
 3532 0b8a 00       		.sleb128 0
 3533 0b8b 0F       		.uleb128 0xf
 3534 0b8c 01       		.uleb128 0x1
 3535 0b8d 51       		.byte	0x51
 3536 0b8e 02       		.uleb128 0x2
 3537 0b8f 75       		.byte	0x75
ARM GAS  C:\Users\Phuong\AppData\Local\Temp\ccQXToeg.s 			page 77


 3538 0b90 00       		.sleb128 0
 3539 0b91 00       		.byte	0
 3540 0b92 13       		.uleb128 0x13
 3541 0b93 9A000000 		.4byte	.LVL187
 3542 0b97 B4120000 		.4byte	0x12b4
 3543 0b9b C10B0000 		.4byte	0xbc1
 3544 0b9f 0F       		.uleb128 0xf
 3545 0ba0 01       		.uleb128 0x1
 3546 0ba1 50       		.byte	0x50
 3547 0ba2 03       		.uleb128 0x3
 3548 0ba3 91       		.byte	0x91
 3549 0ba4 58       		.sleb128 -40
 3550 0ba5 06       		.byte	0x6
 3551 0ba6 0F       		.uleb128 0xf
 3552 0ba7 01       		.uleb128 0x1
 3553 0ba8 51       		.byte	0x51
 3554 0ba9 02       		.uleb128 0x2
 3555 0baa 76       		.byte	0x76
 3556 0bab 10       		.sleb128 16
 3557 0bac 0F       		.uleb128 0xf
 3558 0bad 01       		.uleb128 0x1
 3559 0bae 52       		.byte	0x52
 3560 0baf 02       		.uleb128 0x2
 3561 0bb0 74       		.byte	0x74
 3562 0bb1 00       		.sleb128 0
 3563 0bb2 0F       		.uleb128 0xf
 3564 0bb3 01       		.uleb128 0x1
 3565 0bb4 53       		.byte	0x53
 3566 0bb5 02       		.uleb128 0x2
 3567 0bb6 75       		.byte	0x75
 3568 0bb7 00       		.sleb128 0
 3569 0bb8 0F       		.uleb128 0xf
 3570 0bb9 02       		.uleb128 0x2
 3571 0bba 7D       		.byte	0x7d
 3572 0bbb 00       		.sleb128 0
 3573 0bbc 03       		.uleb128 0x3
 3574 0bbd 76       		.byte	0x76
 3575 0bbe CC00     		.sleb128 76
 3576 0bc0 00       		.byte	0
 3577 0bc1 13       		.uleb128 0x13
 3578 0bc2 A6000000 		.4byte	.LVL189
 3579 0bc6 4C020000 		.4byte	0x24c
 3580 0bca DC0B0000 		.4byte	0xbdc
 3581 0bce 0F       		.uleb128 0xf
 3582 0bcf 01       		.uleb128 0x1
 3583 0bd0 50       		.byte	0x50
 3584 0bd1 03       		.uleb128 0x3
 3585 0bd2 91       		.byte	0x91
 3586 0bd3 58       		.sleb128 -40
 3587 0bd4 06       		.byte	0x6
 3588 0bd5 0F       		.uleb128 0xf
 3589 0bd6 01       		.uleb128 0x1
 3590 0bd7 51       		.byte	0x51
 3591 0bd8 02       		.uleb128 0x2
 3592 0bd9 75       		.byte	0x75
 3593 0bda 00       		.sleb128 0
 3594 0bdb 00       		.byte	0
ARM GAS  C:\Users\Phuong\AppData\Local\Temp\ccQXToeg.s 			page 78


 3595 0bdc 0E       		.uleb128 0xe
 3596 0bdd B4000000 		.4byte	.LVL191
 3597 0be1 C9120000 		.4byte	0x12c9
 3598 0be5 0F       		.uleb128 0xf
 3599 0be6 01       		.uleb128 0x1
 3600 0be7 50       		.byte	0x50
 3601 0be8 03       		.uleb128 0x3
 3602 0be9 91       		.byte	0x91
 3603 0bea 58       		.sleb128 -40
 3604 0beb 06       		.byte	0x6
 3605 0bec 0F       		.uleb128 0xf
 3606 0bed 01       		.uleb128 0x1
 3607 0bee 51       		.byte	0x51
 3608 0bef 03       		.uleb128 0x3
 3609 0bf0 91       		.byte	0x91
 3610 0bf1 5C       		.sleb128 -36
 3611 0bf2 06       		.byte	0x6
 3612 0bf3 0F       		.uleb128 0xf
 3613 0bf4 01       		.uleb128 0x1
 3614 0bf5 52       		.byte	0x52
 3615 0bf6 02       		.uleb128 0x2
 3616 0bf7 77       		.byte	0x77
 3617 0bf8 00       		.sleb128 0
 3618 0bf9 00       		.byte	0
 3619 0bfa 00       		.byte	0
 3620 0bfb 20       		.uleb128 0x20
 3621 0bfc 4E020000 		.4byte	.LASF39
 3622 0c00 01       		.byte	0x1
 3623 0c01 7801     		.2byte	0x178
 3624 0c03 68000000 		.4byte	0x68
 3625 0c07 00000000 		.4byte	.LFB10
 3626 0c0b E8000000 		.4byte	.LFE10-.LFB10
 3627 0c0f 01       		.uleb128 0x1
 3628 0c10 9C       		.byte	0x9c
 3629 0c11 F80D0000 		.4byte	0xdf8
 3630 0c15 15       		.uleb128 0x15
 3631 0c16 63747800 		.ascii	"ctx\000"
 3632 0c1a 01       		.byte	0x1
 3633 0c1b 7801     		.2byte	0x178
 3634 0c1d BA050000 		.4byte	0x5ba
 3635 0c21 750A0000 		.4byte	.LLST42
 3636 0c25 16       		.uleb128 0x16
 3637 0c26 64050000 		.4byte	.LASF31
 3638 0c2a 01       		.byte	0x1
 3639 0c2b 7901     		.2byte	0x179
 3640 0c2d 71010000 		.4byte	0x171
 3641 0c31 CD0A0000 		.4byte	.LLST43
 3642 0c35 16       		.uleb128 0x16
 3643 0c36 BC040000 		.4byte	.LASF40
 3644 0c3a 01       		.byte	0x1
 3645 0c3b 7901     		.2byte	0x179
 3646 0c3d 76000000 		.4byte	0x76
 3647 0c41 030B0000 		.4byte	.LLST44
 3648 0c45 16       		.uleb128 0x16
 3649 0c46 20020000 		.4byte	.LASF32
 3650 0c4a 01       		.byte	0x1
 3651 0c4b 7901     		.2byte	0x179
ARM GAS  C:\Users\Phuong\AppData\Local\Temp\ccQXToeg.s 			page 79


 3652 0c4d 4B090000 		.4byte	0x94b
 3653 0c51 3D0B0000 		.4byte	.LLST45
 3654 0c55 21       		.uleb128 0x21
 3655 0c56 04050000 		.4byte	.LASF25
 3656 0c5a 01       		.byte	0x1
 3657 0c5b 7A01     		.2byte	0x17a
 3658 0c5d D9050000 		.4byte	0x5d9
 3659 0c61 02       		.uleb128 0x2
 3660 0c62 91       		.byte	0x91
 3661 0c63 00       		.sleb128 0
 3662 0c64 21       		.uleb128 0x21
 3663 0c65 AE030000 		.4byte	.LASF26
 3664 0c69 01       		.byte	0x1
 3665 0c6a 7B01     		.2byte	0x17b
 3666 0c6c 6F010000 		.4byte	0x16f
 3667 0c70 02       		.uleb128 0x2
 3668 0c71 91       		.byte	0x91
 3669 0c72 04       		.sleb128 4
 3670 0c73 17       		.uleb128 0x17
 3671 0c74 72657400 		.ascii	"ret\000"
 3672 0c78 01       		.byte	0x1
 3673 0c79 7D01     		.2byte	0x17d
 3674 0c7b 68000000 		.4byte	0x68
 3675 0c7f 730B0000 		.4byte	.LLST46
 3676 0c83 23       		.uleb128 0x23
 3677 0c84 47596200 		.ascii	"GYb\000"
 3678 0c88 01       		.byte	0x1
 3679 0c89 7E01     		.2byte	0x17e
 3680 0c8b CF000000 		.4byte	0xcf
 3681 0c8f 02       		.uleb128 0x2
 3682 0c90 91       		.byte	0x91
 3683 0c91 5C       		.sleb128 -36
 3684 0c92 22       		.uleb128 0x22
 3685 0c93 01030000 		.4byte	.LASF33
 3686 0c97 01       		.byte	0x1
 3687 0c98 A101     		.2byte	0x1a1
 3688 0c9a C0000000 		.4byte	.L89
 3689 0c9e 13       		.uleb128 0x13
 3690 0c9f 20000000 		.4byte	.LVL209
 3691 0ca3 4C020000 		.4byte	0x24c
 3692 0ca7 B80C0000 		.4byte	0xcb8
 3693 0cab 0F       		.uleb128 0xf
 3694 0cac 01       		.uleb128 0x1
 3695 0cad 50       		.byte	0x50
 3696 0cae 02       		.uleb128 0x2
 3697 0caf 77       		.byte	0x77
 3698 0cb0 00       		.sleb128 0
 3699 0cb1 0F       		.uleb128 0xf
 3700 0cb2 01       		.uleb128 0x1
 3701 0cb3 51       		.byte	0x51
 3702 0cb4 02       		.uleb128 0x2
 3703 0cb5 75       		.byte	0x75
 3704 0cb6 00       		.sleb128 0
 3705 0cb7 00       		.byte	0
 3706 0cb8 13       		.uleb128 0x13
 3707 0cb9 2A000000 		.4byte	.LVL211
 3708 0cbd 1B120000 		.4byte	0x121b
ARM GAS  C:\Users\Phuong\AppData\Local\Temp\ccQXToeg.s 			page 80


 3709 0cc1 CC0C0000 		.4byte	0xccc
 3710 0cc5 0F       		.uleb128 0xf
 3711 0cc6 01       		.uleb128 0x1
 3712 0cc7 50       		.byte	0x50
 3713 0cc8 02       		.uleb128 0x2
 3714 0cc9 91       		.byte	0x91
 3715 0cca 5C       		.sleb128 -36
 3716 0ccb 00       		.byte	0
 3717 0ccc 13       		.uleb128 0x13
 3718 0ccd 3A000000 		.4byte	.LVL212
 3719 0cd1 77030000 		.4byte	0x377
 3720 0cd5 EE0C0000 		.4byte	0xcee
 3721 0cd9 0F       		.uleb128 0xf
 3722 0cda 01       		.uleb128 0x1
 3723 0cdb 50       		.byte	0x50
 3724 0cdc 02       		.uleb128 0x2
 3725 0cdd 76       		.byte	0x76
 3726 0cde 00       		.sleb128 0
 3727 0cdf 0F       		.uleb128 0xf
 3728 0ce0 01       		.uleb128 0x1
 3729 0ce1 51       		.byte	0x51
 3730 0ce2 03       		.uleb128 0x3
 3731 0ce3 91       		.byte	0x91
 3732 0ce4 00       		.sleb128 0
 3733 0ce5 06       		.byte	0x6
 3734 0ce6 0F       		.uleb128 0xf
 3735 0ce7 01       		.uleb128 0x1
 3736 0ce8 52       		.byte	0x52
 3737 0ce9 03       		.uleb128 0x3
 3738 0cea 91       		.byte	0x91
 3739 0ceb 04       		.sleb128 4
 3740 0cec 06       		.byte	0x6
 3741 0ced 00       		.byte	0
 3742 0cee 13       		.uleb128 0x13
 3743 0cef 4A000000 		.4byte	.LVL215
 3744 0cf3 6C120000 		.4byte	0x126c
 3745 0cf7 0F0D0000 		.4byte	0xd0f
 3746 0cfb 0F       		.uleb128 0xf
 3747 0cfc 01       		.uleb128 0x1
 3748 0cfd 50       		.byte	0x50
 3749 0cfe 02       		.uleb128 0x2
 3750 0cff 91       		.byte	0x91
 3751 0d00 5C       		.sleb128 -36
 3752 0d01 0F       		.uleb128 0xf
 3753 0d02 01       		.uleb128 0x1
 3754 0d03 51       		.byte	0x51
 3755 0d04 02       		.uleb128 0x2
 3756 0d05 77       		.byte	0x77
 3757 0d06 00       		.sleb128 0
 3758 0d07 0F       		.uleb128 0xf
 3759 0d08 01       		.uleb128 0x1
 3760 0d09 52       		.byte	0x52
 3761 0d0a 03       		.uleb128 0x3
 3762 0d0b 76       		.byte	0x76
 3763 0d0c D800     		.sleb128 88
 3764 0d0e 00       		.byte	0
 3765 0d0f 13       		.uleb128 0x13
ARM GAS  C:\Users\Phuong\AppData\Local\Temp\ccQXToeg.s 			page 81


 3766 0d10 58000000 		.4byte	.LVL218
 3767 0d14 78120000 		.4byte	0x1278
 3768 0d18 2F0D0000 		.4byte	0xd2f
 3769 0d1c 0F       		.uleb128 0xf
 3770 0d1d 01       		.uleb128 0x1
 3771 0d1e 50       		.byte	0x50
 3772 0d1f 02       		.uleb128 0x2
 3773 0d20 91       		.byte	0x91
 3774 0d21 5C       		.sleb128 -36
 3775 0d22 0F       		.uleb128 0xf
 3776 0d23 01       		.uleb128 0x1
 3777 0d24 51       		.byte	0x51
 3778 0d25 02       		.uleb128 0x2
 3779 0d26 91       		.byte	0x91
 3780 0d27 5C       		.sleb128 -36
 3781 0d28 0F       		.uleb128 0xf
 3782 0d29 01       		.uleb128 0x1
 3783 0d2a 52       		.byte	0x52
 3784 0d2b 02       		.uleb128 0x2
 3785 0d2c 75       		.byte	0x75
 3786 0d2d 00       		.sleb128 0
 3787 0d2e 00       		.byte	0
 3788 0d2f 13       		.uleb128 0x13
 3789 0d30 66000000 		.4byte	.LVL221
 3790 0d34 55120000 		.4byte	0x1255
 3791 0d38 490D0000 		.4byte	0xd49
 3792 0d3c 0F       		.uleb128 0xf
 3793 0d3d 01       		.uleb128 0x1
 3794 0d3e 50       		.byte	0x50
 3795 0d3f 02       		.uleb128 0x2
 3796 0d40 91       		.byte	0x91
 3797 0d41 5C       		.sleb128 -36
 3798 0d42 0F       		.uleb128 0xf
 3799 0d43 01       		.uleb128 0x1
 3800 0d44 51       		.byte	0x51
 3801 0d45 02       		.uleb128 0x2
 3802 0d46 77       		.byte	0x77
 3803 0d47 00       		.sleb128 0
 3804 0d48 00       		.byte	0
 3805 0d49 13       		.uleb128 0x13
 3806 0d4a 82000000 		.4byte	.LVL224
 3807 0d4e B4120000 		.4byte	0x12b4
 3808 0d52 770D0000 		.4byte	0xd77
 3809 0d56 0F       		.uleb128 0xf
 3810 0d57 01       		.uleb128 0x1
 3811 0d58 50       		.byte	0x50
 3812 0d59 02       		.uleb128 0x2
 3813 0d5a 77       		.byte	0x77
 3814 0d5b 00       		.sleb128 0
 3815 0d5c 0F       		.uleb128 0xf
 3816 0d5d 01       		.uleb128 0x1
 3817 0d5e 51       		.byte	0x51
 3818 0d5f 02       		.uleb128 0x2
 3819 0d60 91       		.byte	0x91
 3820 0d61 5C       		.sleb128 -36
 3821 0d62 0F       		.uleb128 0xf
 3822 0d63 01       		.uleb128 0x1
ARM GAS  C:\Users\Phuong\AppData\Local\Temp\ccQXToeg.s 			page 82


 3823 0d64 52       		.byte	0x52
 3824 0d65 02       		.uleb128 0x2
 3825 0d66 76       		.byte	0x76
 3826 0d67 1C       		.sleb128 28
 3827 0d68 0F       		.uleb128 0xf
 3828 0d69 01       		.uleb128 0x1
 3829 0d6a 53       		.byte	0x53
 3830 0d6b 02       		.uleb128 0x2
 3831 0d6c 75       		.byte	0x75
 3832 0d6d 00       		.sleb128 0
 3833 0d6e 0F       		.uleb128 0xf
 3834 0d6f 02       		.uleb128 0x2
 3835 0d70 7D       		.byte	0x7d
 3836 0d71 00       		.sleb128 0
 3837 0d72 03       		.uleb128 0x3
 3838 0d73 76       		.byte	0x76
 3839 0d74 CC00     		.sleb128 76
 3840 0d76 00       		.byte	0
 3841 0d77 13       		.uleb128 0x13
 3842 0d78 98000000 		.4byte	.LVL227
 3843 0d7c 6C120000 		.4byte	0x126c
 3844 0d80 980D0000 		.4byte	0xd98
 3845 0d84 0F       		.uleb128 0xf
 3846 0d85 01       		.uleb128 0x1
 3847 0d86 50       		.byte	0x50
 3848 0d87 02       		.uleb128 0x2
 3849 0d88 77       		.byte	0x77
 3850 0d89 00       		.sleb128 0
 3851 0d8a 0F       		.uleb128 0xf
 3852 0d8b 01       		.uleb128 0x1
 3853 0d8c 51       		.byte	0x51
 3854 0d8d 02       		.uleb128 0x2
 3855 0d8e 77       		.byte	0x77
 3856 0d8f 00       		.sleb128 0
 3857 0d90 0F       		.uleb128 0xf
 3858 0d91 01       		.uleb128 0x1
 3859 0d92 52       		.byte	0x52
 3860 0d93 03       		.uleb128 0x3
 3861 0d94 76       		.byte	0x76
 3862 0d95 E400     		.sleb128 100
 3863 0d97 00       		.byte	0
 3864 0d98 13       		.uleb128 0x13
 3865 0d99 A6000000 		.4byte	.LVL230
 3866 0d9d 78120000 		.4byte	0x1278
 3867 0da1 B80D0000 		.4byte	0xdb8
 3868 0da5 0F       		.uleb128 0xf
 3869 0da6 01       		.uleb128 0x1
 3870 0da7 50       		.byte	0x50
 3871 0da8 02       		.uleb128 0x2
 3872 0da9 77       		.byte	0x77
 3873 0daa 00       		.sleb128 0
 3874 0dab 0F       		.uleb128 0xf
 3875 0dac 01       		.uleb128 0x1
 3876 0dad 51       		.byte	0x51
 3877 0dae 02       		.uleb128 0x2
 3878 0daf 77       		.byte	0x77
 3879 0db0 00       		.sleb128 0
ARM GAS  C:\Users\Phuong\AppData\Local\Temp\ccQXToeg.s 			page 83


 3880 0db1 0F       		.uleb128 0xf
 3881 0db2 01       		.uleb128 0x1
 3882 0db3 52       		.byte	0x52
 3883 0db4 02       		.uleb128 0x2
 3884 0db5 75       		.byte	0x75
 3885 0db6 00       		.sleb128 0
 3886 0db7 00       		.byte	0
 3887 0db8 13       		.uleb128 0x13
 3888 0db9 B0000000 		.4byte	.LVL233
 3889 0dbd 84120000 		.4byte	0x1284
 3890 0dc1 CC0D0000 		.4byte	0xdcc
 3891 0dc5 0F       		.uleb128 0xf
 3892 0dc6 01       		.uleb128 0x1
 3893 0dc7 50       		.byte	0x50
 3894 0dc8 02       		.uleb128 0x2
 3895 0dc9 77       		.byte	0x77
 3896 0dca 00       		.sleb128 0
 3897 0dcb 00       		.byte	0
 3898 0dcc 13       		.uleb128 0x13
 3899 0dcd BE000000 		.4byte	.LVL234
 3900 0dd1 C9120000 		.4byte	0x12c9
 3901 0dd5 E70D0000 		.4byte	0xde7
 3902 0dd9 0F       		.uleb128 0xf
 3903 0dda 01       		.uleb128 0x1
 3904 0ddb 50       		.byte	0x50
 3905 0ddc 02       		.uleb128 0x2
 3906 0ddd 77       		.byte	0x77
 3907 0dde 00       		.sleb128 0
 3908 0ddf 0F       		.uleb128 0xf
 3909 0de0 01       		.uleb128 0x1
 3910 0de1 51       		.byte	0x51
 3911 0de2 03       		.uleb128 0x3
 3912 0de3 91       		.byte	0x91
 3913 0de4 50       		.sleb128 -48
 3914 0de5 06       		.byte	0x6
 3915 0de6 00       		.byte	0
 3916 0de7 0E       		.uleb128 0xe
 3917 0de8 C6000000 		.4byte	.LVL237
 3918 0dec 4A120000 		.4byte	0x124a
 3919 0df0 0F       		.uleb128 0xf
 3920 0df1 01       		.uleb128 0x1
 3921 0df2 50       		.byte	0x50
 3922 0df3 02       		.uleb128 0x2
 3923 0df4 91       		.byte	0x91
 3924 0df5 5C       		.sleb128 -36
 3925 0df6 00       		.byte	0
 3926 0df7 00       		.byte	0
 3927 0df8 24       		.uleb128 0x24
 3928 0df9 D9050000 		.4byte	.LASF42
 3929 0dfd 01       		.byte	0x1
 3930 0dfe AD01     		.2byte	0x1ad
 3931 0e00 00000000 		.4byte	.LFB11
 3932 0e04 5A000000 		.4byte	.LFE11-.LFB11
 3933 0e08 01       		.uleb128 0x1
 3934 0e09 9C       		.byte	0x9c
 3935 0e0a 020F0000 		.4byte	0xf02
 3936 0e0e 15       		.uleb128 0x15
ARM GAS  C:\Users\Phuong\AppData\Local\Temp\ccQXToeg.s 			page 84


 3937 0e0f 63747800 		.ascii	"ctx\000"
 3938 0e13 01       		.byte	0x1
 3939 0e14 AD01     		.2byte	0x1ad
 3940 0e16 BA050000 		.4byte	0x5ba
 3941 0e1a 360C0000 		.4byte	.LLST47
 3942 0e1e 13       		.uleb128 0x13
 3943 0e1f 0A000000 		.4byte	.LVL247
 3944 0e23 4A120000 		.4byte	0x124a
 3945 0e27 330E0000 		.4byte	0xe33
 3946 0e2b 0F       		.uleb128 0xf
 3947 0e2c 01       		.uleb128 0x1
 3948 0e2d 50       		.byte	0x50
 3949 0e2e 03       		.uleb128 0x3
 3950 0e2f 74       		.byte	0x74
 3951 0e30 F000     		.sleb128 112
 3952 0e32 00       		.byte	0
 3953 0e33 13       		.uleb128 0x13
 3954 0e34 12000000 		.4byte	.LVL248
 3955 0e38 4A120000 		.4byte	0x124a
 3956 0e3c 480E0000 		.4byte	0xe48
 3957 0e40 0F       		.uleb128 0xf
 3958 0e41 01       		.uleb128 0x1
 3959 0e42 50       		.byte	0x50
 3960 0e43 03       		.uleb128 0x3
 3961 0e44 74       		.byte	0x74
 3962 0e45 E400     		.sleb128 100
 3963 0e47 00       		.byte	0
 3964 0e48 13       		.uleb128 0x13
 3965 0e49 1A000000 		.4byte	.LVL249
 3966 0e4d 4A120000 		.4byte	0x124a
 3967 0e51 5D0E0000 		.4byte	0xe5d
 3968 0e55 0F       		.uleb128 0xf
 3969 0e56 01       		.uleb128 0x1
 3970 0e57 50       		.byte	0x50
 3971 0e58 03       		.uleb128 0x3
 3972 0e59 74       		.byte	0x74
 3973 0e5a D800     		.sleb128 88
 3974 0e5c 00       		.byte	0
 3975 0e5d 13       		.uleb128 0x13
 3976 0e5e 22000000 		.4byte	.LVL250
 3977 0e62 4A120000 		.4byte	0x124a
 3978 0e66 720E0000 		.4byte	0xe72
 3979 0e6a 0F       		.uleb128 0xf
 3980 0e6b 01       		.uleb128 0x1
 3981 0e6c 50       		.byte	0x50
 3982 0e6d 03       		.uleb128 0x3
 3983 0e6e 74       		.byte	0x74
 3984 0e6f CC00     		.sleb128 76
 3985 0e71 00       		.byte	0
 3986 0e72 13       		.uleb128 0x13
 3987 0e73 2A000000 		.4byte	.LVL251
 3988 0e77 4A120000 		.4byte	0x124a
 3989 0e7b 870E0000 		.4byte	0xe87
 3990 0e7f 0F       		.uleb128 0xf
 3991 0e80 01       		.uleb128 0x1
 3992 0e81 50       		.byte	0x50
 3993 0e82 03       		.uleb128 0x3
ARM GAS  C:\Users\Phuong\AppData\Local\Temp\ccQXToeg.s 			page 85


 3994 0e83 74       		.byte	0x74
 3995 0e84 C000     		.sleb128 64
 3996 0e86 00       		.byte	0
 3997 0e87 13       		.uleb128 0x13
 3998 0e88 32000000 		.4byte	.LVL252
 3999 0e8c 4A120000 		.4byte	0x124a
 4000 0e90 9B0E0000 		.4byte	0xe9b
 4001 0e94 0F       		.uleb128 0xf
 4002 0e95 01       		.uleb128 0x1
 4003 0e96 50       		.byte	0x50
 4004 0e97 02       		.uleb128 0x2
 4005 0e98 74       		.byte	0x74
 4006 0e99 34       		.sleb128 52
 4007 0e9a 00       		.byte	0
 4008 0e9b 13       		.uleb128 0x13
 4009 0e9c 3A000000 		.4byte	.LVL253
 4010 0ea0 4A120000 		.4byte	0x124a
 4011 0ea4 AF0E0000 		.4byte	0xeaf
 4012 0ea8 0F       		.uleb128 0xf
 4013 0ea9 01       		.uleb128 0x1
 4014 0eaa 50       		.byte	0x50
 4015 0eab 02       		.uleb128 0x2
 4016 0eac 74       		.byte	0x74
 4017 0ead 28       		.sleb128 40
 4018 0eae 00       		.byte	0
 4019 0eaf 13       		.uleb128 0x13
 4020 0eb0 42000000 		.4byte	.LVL254
 4021 0eb4 4A120000 		.4byte	0x124a
 4022 0eb8 C30E0000 		.4byte	0xec3
 4023 0ebc 0F       		.uleb128 0xf
 4024 0ebd 01       		.uleb128 0x1
 4025 0ebe 50       		.byte	0x50
 4026 0ebf 02       		.uleb128 0x2
 4027 0ec0 74       		.byte	0x74
 4028 0ec1 1C       		.sleb128 28
 4029 0ec2 00       		.byte	0
 4030 0ec3 13       		.uleb128 0x13
 4031 0ec4 4A000000 		.4byte	.LVL255
 4032 0ec8 4A120000 		.4byte	0x124a
 4033 0ecc D70E0000 		.4byte	0xed7
 4034 0ed0 0F       		.uleb128 0xf
 4035 0ed1 01       		.uleb128 0x1
 4036 0ed2 50       		.byte	0x50
 4037 0ed3 02       		.uleb128 0x2
 4038 0ed4 74       		.byte	0x74
 4039 0ed5 10       		.sleb128 16
 4040 0ed6 00       		.byte	0
 4041 0ed7 13       		.uleb128 0x13
 4042 0ed8 50000000 		.4byte	.LVL256
 4043 0edc 4A120000 		.4byte	0x124a
 4044 0ee0 EB0E0000 		.4byte	0xeeb
 4045 0ee4 0F       		.uleb128 0xf
 4046 0ee5 01       		.uleb128 0x1
 4047 0ee6 50       		.byte	0x50
 4048 0ee7 02       		.uleb128 0x2
 4049 0ee8 74       		.byte	0x74
 4050 0ee9 04       		.sleb128 4
ARM GAS  C:\Users\Phuong\AppData\Local\Temp\ccQXToeg.s 			page 86


 4051 0eea 00       		.byte	0
 4052 0eeb 0E       		.uleb128 0xe
 4053 0eec 58000000 		.4byte	.LVL257
 4054 0ef0 D5120000 		.4byte	0x12d5
 4055 0ef4 0F       		.uleb128 0xf
 4056 0ef5 01       		.uleb128 0x1
 4057 0ef6 50       		.byte	0x50
 4058 0ef7 02       		.uleb128 0x2
 4059 0ef8 74       		.byte	0x74
 4060 0ef9 00       		.sleb128 0
 4061 0efa 0F       		.uleb128 0xf
 4062 0efb 01       		.uleb128 0x1
 4063 0efc 51       		.byte	0x51
 4064 0efd 02       		.uleb128 0x2
 4065 0efe 08       		.byte	0x8
 4066 0eff 7C       		.byte	0x7c
 4067 0f00 00       		.byte	0
 4068 0f01 00       		.byte	0
 4069 0f02 20       		.uleb128 0x20
 4070 0f03 C8040000 		.4byte	.LASF43
 4071 0f07 01       		.byte	0x1
 4072 0f08 BC01     		.2byte	0x1bc
 4073 0f0a 68000000 		.4byte	0x68
 4074 0f0e 00000000 		.4byte	.LFB12
 4075 0f12 18010000 		.4byte	.LFE12-.LFB12
 4076 0f16 01       		.uleb128 0x1
 4077 0f17 9C       		.byte	0x9c
 4078 0f18 F0100000 		.4byte	0x10f0
 4079 0f1c 15       		.uleb128 0x15
 4080 0f1d 64686D00 		.ascii	"dhm\000"
 4081 0f21 01       		.byte	0x1
 4082 0f22 BC01     		.2byte	0x1bc
 4083 0f24 BA050000 		.4byte	0x5ba
 4084 0f28 620C0000 		.4byte	.LLST48
 4085 0f2c 16       		.uleb128 0x16
 4086 0f2d 7A050000 		.4byte	.LASF44
 4087 0f31 01       		.byte	0x1
 4088 0f32 BC01     		.2byte	0x1bc
 4089 0f34 41020000 		.4byte	0x241
 4090 0f38 8E0C0000 		.4byte	.LLST49
 4091 0f3c 16       		.uleb128 0x16
 4092 0f3d AA020000 		.4byte	.LASF45
 4093 0f41 01       		.byte	0x1
 4094 0f42 BD01     		.2byte	0x1bd
 4095 0f44 76000000 		.4byte	0x76
 4096 0f48 BA0C0000 		.4byte	.LLST50
 4097 0f4c 17       		.uleb128 0x17
 4098 0f4d 72657400 		.ascii	"ret\000"
 4099 0f51 01       		.byte	0x1
 4100 0f52 BF01     		.2byte	0x1bf
 4101 0f54 68000000 		.4byte	0x68
 4102 0f58 FF0C0000 		.4byte	.LLST51
 4103 0f5c 23       		.uleb128 0x23
 4104 0f5d 6C656E00 		.ascii	"len\000"
 4105 0f61 01       		.byte	0x1
 4106 0f62 C001     		.2byte	0x1c0
 4107 0f64 76000000 		.4byte	0x76
ARM GAS  C:\Users\Phuong\AppData\Local\Temp\ccQXToeg.s 			page 87


 4108 0f68 02       		.uleb128 0x2
 4109 0f69 91       		.byte	0x91
 4110 0f6a 64       		.sleb128 -28
 4111 0f6b 23       		.uleb128 0x23
 4112 0f6c 7000     		.ascii	"p\000"
 4113 0f6e 01       		.byte	0x1
 4114 0f6f C101     		.2byte	0x1c1
 4115 0f71 71010000 		.4byte	0x171
 4116 0f75 02       		.uleb128 0x2
 4117 0f76 91       		.byte	0x91
 4118 0f77 60       		.sleb128 -32
 4119 0f78 17       		.uleb128 0x17
 4120 0f79 656E6400 		.ascii	"end\000"
 4121 0f7d 01       		.byte	0x1
 4122 0f7e C101     		.2byte	0x1c1
 4123 0f80 71010000 		.4byte	0x171
 4124 0f84 DC0D0000 		.4byte	.LLST52
 4125 0f88 23       		.uleb128 0x23
 4126 0f89 70656D00 		.ascii	"pem\000"
 4127 0f8d 01       		.byte	0x1
 4128 0f8e C301     		.2byte	0x1c3
 4129 0f90 B4010000 		.4byte	0x1b4
 4130 0f94 02       		.uleb128 0x2
 4131 0f95 91       		.byte	0x91
 4132 0f96 54       		.sleb128 -44
 4133 0f97 22       		.uleb128 0x22
 4134 0f98 73040000 		.4byte	.LASF46
 4135 0f9c 01       		.byte	0x1
 4136 0f9d 1002     		.2byte	0x210
 4137 0f9f E8000000 		.4byte	.L103
 4138 0fa3 25       		.uleb128 0x25
 4139 0fa4 B2000000 		.4byte	.LBB2
 4140 0fa8 2E000000 		.4byte	.LBE2-.LBB2
 4141 0fac 04100000 		.4byte	0x1004
 4142 0fb0 23       		.uleb128 0x23
 4143 0fb1 72656300 		.ascii	"rec\000"
 4144 0fb5 01       		.byte	0x1
 4145 0fb6 FB01     		.2byte	0x1fb
 4146 0fb8 CF000000 		.4byte	0xcf
 4147 0fbc 02       		.uleb128 0x2
 4148 0fbd 91       		.byte	0x91
 4149 0fbe 48       		.sleb128 -56
 4150 0fbf 13       		.uleb128 0x13
 4151 0fc0 B8000000 		.4byte	.LVL282
 4152 0fc4 1B120000 		.4byte	0x121b
 4153 0fc8 D30F0000 		.4byte	0xfd3
 4154 0fcc 0F       		.uleb128 0xf
 4155 0fcd 01       		.uleb128 0x1
 4156 0fce 50       		.byte	0x50
 4157 0fcf 02       		.uleb128 0x2
 4158 0fd0 91       		.byte	0x91
 4159 0fd1 48       		.sleb128 -56
 4160 0fd2 00       		.byte	0
 4161 0fd3 13       		.uleb128 0x13
 4162 0fd4 C2000000 		.4byte	.LVL283
 4163 0fd8 E0120000 		.4byte	0x12e0
 4164 0fdc F30F0000 		.4byte	0xff3
ARM GAS  C:\Users\Phuong\AppData\Local\Temp\ccQXToeg.s 			page 88


 4165 0fe0 0F       		.uleb128 0xf
 4166 0fe1 01       		.uleb128 0x1
 4167 0fe2 50       		.byte	0x50
 4168 0fe3 02       		.uleb128 0x2
 4169 0fe4 91       		.byte	0x91
 4170 0fe5 60       		.sleb128 -32
 4171 0fe6 0F       		.uleb128 0xf
 4172 0fe7 01       		.uleb128 0x1
 4173 0fe8 51       		.byte	0x51
 4174 0fe9 02       		.uleb128 0x2
 4175 0fea 76       		.byte	0x76
 4176 0feb 00       		.sleb128 0
 4177 0fec 0F       		.uleb128 0xf
 4178 0fed 01       		.uleb128 0x1
 4179 0fee 52       		.byte	0x52
 4180 0fef 02       		.uleb128 0x2
 4181 0ff0 91       		.byte	0x91
 4182 0ff1 48       		.sleb128 -56
 4183 0ff2 00       		.byte	0
 4184 0ff3 0E       		.uleb128 0xe
 4185 0ff4 CA000000 		.4byte	.LVL286
 4186 0ff8 4A120000 		.4byte	0x124a
 4187 0ffc 0F       		.uleb128 0xf
 4188 0ffd 01       		.uleb128 0x1
 4189 0ffe 50       		.byte	0x50
 4190 0fff 02       		.uleb128 0x2
 4191 1000 91       		.byte	0x91
 4192 1001 48       		.sleb128 -56
 4193 1002 00       		.byte	0
 4194 1003 00       		.byte	0
 4195 1004 13       		.uleb128 0x13
 4196 1005 14000000 		.4byte	.LVL261
 4197 1009 EC120000 		.4byte	0x12ec
 4198 100d 18100000 		.4byte	0x1018
 4199 1011 0F       		.uleb128 0xf
 4200 1012 01       		.uleb128 0x1
 4201 1013 50       		.byte	0x50
 4202 1014 02       		.uleb128 0x2
 4203 1015 91       		.byte	0x91
 4204 1016 54       		.sleb128 -44
 4205 1017 00       		.byte	0
 4206 1018 13       		.uleb128 0x13
 4207 1019 3A000000 		.4byte	.LVL264
 4208 101d F7120000 		.4byte	0x12f7
 4209 1021 57100000 		.4byte	0x1057
 4210 1025 0F       		.uleb128 0xf
 4211 1026 01       		.uleb128 0x1
 4212 1027 50       		.byte	0x50
 4213 1028 02       		.uleb128 0x2
 4214 1029 91       		.byte	0x91
 4215 102a 54       		.sleb128 -44
 4216 102b 0F       		.uleb128 0xf
 4217 102c 01       		.uleb128 0x1
 4218 102d 51       		.byte	0x51
 4219 102e 05       		.uleb128 0x5
 4220 102f 03       		.byte	0x3
 4221 1030 1C000000 		.4byte	.LC2
ARM GAS  C:\Users\Phuong\AppData\Local\Temp\ccQXToeg.s 			page 89


 4222 1034 0F       		.uleb128 0xf
 4223 1035 01       		.uleb128 0x1
 4224 1036 52       		.byte	0x52
 4225 1037 05       		.uleb128 0x5
 4226 1038 03       		.byte	0x3
 4227 1039 00000000 		.4byte	.LC0
 4228 103d 0F       		.uleb128 0xf
 4229 103e 01       		.uleb128 0x1
 4230 103f 53       		.byte	0x53
 4231 1040 02       		.uleb128 0x2
 4232 1041 76       		.byte	0x76
 4233 1042 00       		.sleb128 0
 4234 1043 0F       		.uleb128 0xf
 4235 1044 02       		.uleb128 0x2
 4236 1045 7D       		.byte	0x7d
 4237 1046 00       		.sleb128 0
 4238 1047 01       		.uleb128 0x1
 4239 1048 30       		.byte	0x30
 4240 1049 0F       		.uleb128 0xf
 4241 104a 02       		.uleb128 0x2
 4242 104b 7D       		.byte	0x7d
 4243 104c 04       		.sleb128 4
 4244 104d 01       		.uleb128 0x1
 4245 104e 30       		.byte	0x30
 4246 104f 0F       		.uleb128 0xf
 4247 1050 02       		.uleb128 0x2
 4248 1051 7D       		.byte	0x7d
 4249 1052 08       		.sleb128 8
 4250 1053 02       		.uleb128 0x2
 4251 1054 91       		.byte	0x91
 4252 1055 44       		.sleb128 -60
 4253 1056 00       		.byte	0
 4254 1057 13       		.uleb128 0x13
 4255 1058 70000000 		.4byte	.LVL269
 4256 105c 02130000 		.4byte	0x1302
 4257 1060 77100000 		.4byte	0x1077
 4258 1064 0F       		.uleb128 0xf
 4259 1065 01       		.uleb128 0x1
 4260 1066 50       		.byte	0x50
 4261 1067 02       		.uleb128 0x2
 4262 1068 91       		.byte	0x91
 4263 1069 60       		.sleb128 -32
 4264 106a 0F       		.uleb128 0xf
 4265 106b 01       		.uleb128 0x1
 4266 106c 52       		.byte	0x52
 4267 106d 02       		.uleb128 0x2
 4268 106e 91       		.byte	0x91
 4269 106f 64       		.sleb128 -28
 4270 1070 0F       		.uleb128 0xf
 4271 1071 01       		.uleb128 0x1
 4272 1072 53       		.byte	0x53
 4273 1073 02       		.uleb128 0x2
 4274 1074 08       		.byte	0x8
 4275 1075 30       		.byte	0x30
 4276 1076 00       		.byte	0
 4277 1077 13       		.uleb128 0x13
 4278 1078 90000000 		.4byte	.LVL274
ARM GAS  C:\Users\Phuong\AppData\Local\Temp\ccQXToeg.s 			page 90


 4279 107c E0120000 		.4byte	0x12e0
 4280 1080 97100000 		.4byte	0x1097
 4281 1084 0F       		.uleb128 0xf
 4282 1085 01       		.uleb128 0x1
 4283 1086 50       		.byte	0x50
 4284 1087 02       		.uleb128 0x2
 4285 1088 91       		.byte	0x91
 4286 1089 60       		.sleb128 -32
 4287 108a 0F       		.uleb128 0xf
 4288 108b 01       		.uleb128 0x1
 4289 108c 51       		.byte	0x51
 4290 108d 02       		.uleb128 0x2
 4291 108e 76       		.byte	0x76
 4292 108f 00       		.sleb128 0
 4293 1090 0F       		.uleb128 0xf
 4294 1091 01       		.uleb128 0x1
 4295 1092 52       		.byte	0x52
 4296 1093 02       		.uleb128 0x2
 4297 1094 77       		.byte	0x77
 4298 1095 00       		.sleb128 0
 4299 1096 00       		.byte	0
 4300 1097 13       		.uleb128 0x13
 4301 1098 A0000000 		.4byte	.LVL277
 4302 109c E0120000 		.4byte	0x12e0
 4303 10a0 B7100000 		.4byte	0x10b7
 4304 10a4 0F       		.uleb128 0xf
 4305 10a5 01       		.uleb128 0x1
 4306 10a6 50       		.byte	0x50
 4307 10a7 02       		.uleb128 0x2
 4308 10a8 91       		.byte	0x91
 4309 10a9 60       		.sleb128 -32
 4310 10aa 0F       		.uleb128 0xf
 4311 10ab 01       		.uleb128 0x1
 4312 10ac 51       		.byte	0x51
 4313 10ad 02       		.uleb128 0x2
 4314 10ae 76       		.byte	0x76
 4315 10af 00       		.sleb128 0
 4316 10b0 0F       		.uleb128 0xf
 4317 10b1 01       		.uleb128 0x1
 4318 10b2 52       		.byte	0x52
 4319 10b3 02       		.uleb128 0x2
 4320 10b4 75       		.byte	0x75
 4321 10b5 10       		.sleb128 16
 4322 10b6 00       		.byte	0
 4323 10b7 13       		.uleb128 0x13
 4324 10b8 E6000000 		.4byte	.LVL291
 4325 10bc 84120000 		.4byte	0x1284
 4326 10c0 CB100000 		.4byte	0x10cb
 4327 10c4 0F       		.uleb128 0xf
 4328 10c5 01       		.uleb128 0x1
 4329 10c6 50       		.byte	0x50
 4330 10c7 02       		.uleb128 0x2
 4331 10c8 77       		.byte	0x77
 4332 10c9 00       		.sleb128 0
 4333 10ca 00       		.byte	0
 4334 10cb 13       		.uleb128 0x13
 4335 10cc EE000000 		.4byte	.LVL293
ARM GAS  C:\Users\Phuong\AppData\Local\Temp\ccQXToeg.s 			page 91


 4336 10d0 0D130000 		.4byte	0x130d
 4337 10d4 DF100000 		.4byte	0x10df
 4338 10d8 0F       		.uleb128 0xf
 4339 10d9 01       		.uleb128 0x1
 4340 10da 50       		.byte	0x50
 4341 10db 02       		.uleb128 0x2
 4342 10dc 91       		.byte	0x91
 4343 10dd 54       		.sleb128 -44
 4344 10de 00       		.byte	0
 4345 10df 0E       		.uleb128 0xe
 4346 10e0 F8000000 		.4byte	.LVL294
 4347 10e4 F80D0000 		.4byte	0xdf8
 4348 10e8 0F       		.uleb128 0xf
 4349 10e9 01       		.uleb128 0x1
 4350 10ea 50       		.byte	0x50
 4351 10eb 02       		.uleb128 0x2
 4352 10ec 75       		.byte	0x75
 4353 10ed 00       		.sleb128 0
 4354 10ee 00       		.byte	0
 4355 10ef 00       		.byte	0
 4356 10f0 20       		.uleb128 0x20
 4357 10f1 44000000 		.4byte	.LASF47
 4358 10f5 01       		.byte	0x1
 4359 10f6 7402     		.2byte	0x274
 4360 10f8 68000000 		.4byte	0x68
 4361 10fc 00000000 		.4byte	.LFB13
 4362 1100 5C000000 		.4byte	.LFE13-.LFB13
 4363 1104 01       		.uleb128 0x1
 4364 1105 9C       		.byte	0x9c
 4365 1106 D6110000 		.4byte	0x11d6
 4366 110a 16       		.uleb128 0x16
 4367 110b C0050000 		.4byte	.LASF48
 4368 110f 01       		.byte	0x1
 4369 1110 7402     		.2byte	0x274
 4370 1112 68000000 		.4byte	0x68
 4371 1116 050E0000 		.4byte	.LLST53
 4372 111a 17       		.uleb128 0x17
 4373 111b 72657400 		.ascii	"ret\000"
 4374 111f 01       		.byte	0x1
 4375 1120 7602     		.2byte	0x276
 4376 1122 68000000 		.4byte	0x68
 4377 1126 310E0000 		.4byte	.LLST54
 4378 112a 23       		.uleb128 0x23
 4379 112b 64686D00 		.ascii	"dhm\000"
 4380 112f 01       		.byte	0x1
 4381 1130 7702     		.2byte	0x277
 4382 1132 5D010000 		.4byte	0x15d
 4383 1136 03       		.uleb128 0x3
 4384 1137 91       		.byte	0x91
 4385 1138 F47E     		.sleb128 -140
 4386 113a 22       		.uleb128 0x22
 4387 113b 73040000 		.4byte	.LASF46
 4388 113f 01       		.byte	0x1
 4389 1140 8C02     		.2byte	0x28c
 4390 1142 40000000 		.4byte	.L121
 4391 1146 13       		.uleb128 0x13
 4392 1147 0C000000 		.4byte	.LVL299
ARM GAS  C:\Users\Phuong\AppData\Local\Temp\ccQXToeg.s 			page 92


 4393 114b DF050000 		.4byte	0x5df
 4394 114f 5B110000 		.4byte	0x115b
 4395 1153 0F       		.uleb128 0xf
 4396 1154 01       		.uleb128 0x1
 4397 1155 50       		.byte	0x50
 4398 1156 03       		.uleb128 0x3
 4399 1157 91       		.byte	0x91
 4400 1158 F47E     		.sleb128 -140
 4401 115a 00       		.byte	0
 4402 115b 13       		.uleb128 0x13
 4403 115c 16000000 		.4byte	.LVL300
 4404 1160 18130000 		.4byte	0x1318
 4405 1164 72110000 		.4byte	0x1172
 4406 1168 0F       		.uleb128 0xf
 4407 1169 01       		.uleb128 0x1
 4408 116a 50       		.byte	0x50
 4409 116b 05       		.uleb128 0x5
 4410 116c 03       		.byte	0x3
 4411 116d 3C000000 		.4byte	.LC4
 4412 1171 00       		.byte	0
 4413 1172 13       		.uleb128 0x13
 4414 1173 20000000 		.4byte	.LVL301
 4415 1177 020F0000 		.4byte	0xf02
 4416 117b 96110000 		.4byte	0x1196
 4417 117f 0F       		.uleb128 0xf
 4418 1180 01       		.uleb128 0x1
 4419 1181 50       		.byte	0x50
 4420 1182 03       		.uleb128 0x3
 4421 1183 91       		.byte	0x91
 4422 1184 F47E     		.sleb128 -140
 4423 1186 0F       		.uleb128 0xf
 4424 1187 01       		.uleb128 0x1
 4425 1188 51       		.byte	0x51
 4426 1189 05       		.uleb128 0x5
 4427 118a 03       		.byte	0x3
 4428 118b 00000000 		.4byte	.LANCHOR0
 4429 118f 0F       		.uleb128 0xf
 4430 1190 01       		.uleb128 0x1
 4431 1191 52       		.byte	0x52
 4432 1192 02       		.uleb128 0x2
 4433 1193 08       		.byte	0x8
 4434 1194 FB       		.byte	0xfb
 4435 1195 00       		.byte	0
 4436 1196 13       		.uleb128 0x13
 4437 1197 2E000000 		.4byte	.LVL304
 4438 119b 23130000 		.4byte	0x1323
 4439 119f AD110000 		.4byte	0x11ad
 4440 11a3 0F       		.uleb128 0xf
 4441 11a4 01       		.uleb128 0x1
 4442 11a5 50       		.byte	0x50
 4443 11a6 05       		.uleb128 0x5
 4444 11a7 03       		.byte	0x3
 4445 11a8 54000000 		.4byte	.LC7
 4446 11ac 00       		.byte	0
 4447 11ad 13       		.uleb128 0x13
 4448 11ae 3C000000 		.4byte	.LVL308
 4449 11b2 23130000 		.4byte	0x1323
ARM GAS  C:\Users\Phuong\AppData\Local\Temp\ccQXToeg.s 			page 93


 4450 11b6 C4110000 		.4byte	0x11c4
 4451 11ba 0F       		.uleb128 0xf
 4452 11bb 01       		.uleb128 0x1
 4453 11bc 50       		.byte	0x50
 4454 11bd 05       		.uleb128 0x5
 4455 11be 03       		.byte	0x3
 4456 11bf 5C000000 		.4byte	.LC9
 4457 11c3 00       		.byte	0
 4458 11c4 0E       		.uleb128 0xe
 4459 11c5 46000000 		.4byte	.LVL311
 4460 11c9 F80D0000 		.4byte	0xdf8
 4461 11cd 0F       		.uleb128 0xf
 4462 11ce 01       		.uleb128 0x1
 4463 11cf 50       		.byte	0x50
 4464 11d0 03       		.uleb128 0x3
 4465 11d1 91       		.byte	0x91
 4466 11d2 F47E     		.sleb128 -140
 4467 11d4 00       		.byte	0
 4468 11d5 00       		.byte	0
 4469 11d6 26       		.uleb128 0x26
 4470 11d7 7E010000 		.4byte	0x17e
 4471 11db E6110000 		.4byte	0x11e6
 4472 11df 27       		.uleb128 0x27
 4473 11e0 68010000 		.4byte	0x168
 4474 11e4 FA       		.byte	0xfa
 4475 11e5 00       		.byte	0
 4476 11e6 28       		.uleb128 0x28
 4477 11e7 78040000 		.4byte	.LASF49
 4478 11eb 01       		.byte	0x1
 4479 11ec 6802     		.2byte	0x268
 4480 11ee F8110000 		.4byte	0x11f8
 4481 11f2 05       		.uleb128 0x5
 4482 11f3 03       		.byte	0x3
 4483 11f4 00000000 		.4byte	mbedtls_test_dhm_params
 4484 11f8 09       		.uleb128 0x9
 4485 11f9 D6110000 		.4byte	0x11d6
 4486 11fd 29       		.uleb128 0x29
 4487 11fe 00000000 		.4byte	.LASF50
 4488 1202 01       		.byte	0x1
 4489 1203 6F02     		.2byte	0x26f
 4490 1205 0A120000 		.4byte	0x120a
 4491 1209 FB       		.byte	0xfb
 4492 120a 09       		.uleb128 0x9
 4493 120b 76000000 		.4byte	0x76
 4494 120f 2A       		.uleb128 0x2a
 4495 1210 C4020000 		.4byte	.LASF51
 4496 1214 C4020000 		.4byte	.LASF51
 4497 1218 05       		.byte	0x5
 4498 1219 AF01     		.2byte	0x1af
 4499 121b 2B       		.uleb128 0x2b
 4500 121c 23050000 		.4byte	.LASF52
 4501 1220 23050000 		.4byte	.LASF52
 4502 1224 05       		.byte	0x5
 4503 1225 C3       		.byte	0xc3
 4504 1226 2A       		.uleb128 0x2a
 4505 1227 9B050000 		.4byte	.LASF53
 4506 122b 9B050000 		.4byte	.LASF53
ARM GAS  C:\Users\Phuong\AppData\Local\Temp\ccQXToeg.s 			page 94


 4507 122f 05       		.byte	0x5
 4508 1230 2A01     		.2byte	0x12a
 4509 1232 2A       		.uleb128 0x2a
 4510 1233 0F050000 		.4byte	.LASF54
 4511 1237 0F050000 		.4byte	.LASF54
 4512 123b 05       		.byte	0x5
 4513 123c 3F02     		.2byte	0x23f
 4514 123e 2A       		.uleb128 0x2a
 4515 123f 5A040000 		.4byte	.LASF55
 4516 1243 5A040000 		.4byte	.LASF55
 4517 1247 05       		.byte	0x5
 4518 1248 EB01     		.2byte	0x1eb
 4519 124a 2B       		.uleb128 0x2b
 4520 124b 8B020000 		.4byte	.LASF56
 4521 124f 8B020000 		.4byte	.LASF56
 4522 1253 05       		.byte	0x5
 4523 1254 CA       		.byte	0xca
 4524 1255 2B       		.uleb128 0x2b
 4525 1256 33000000 		.4byte	.LASF57
 4526 125a 33000000 		.4byte	.LASF57
 4527 125e 05       		.byte	0x5
 4528 125f F1       		.byte	0xf1
 4529 1260 2A       		.uleb128 0x2a
 4530 1261 7F010000 		.4byte	.LASF58
 4531 1265 7F010000 		.4byte	.LASF58
 4532 1269 05       		.byte	0x5
 4533 126a F701     		.2byte	0x1f7
 4534 126c 2A       		.uleb128 0x2a
 4535 126d 72000000 		.4byte	.LASF59
 4536 1271 72000000 		.4byte	.LASF59
 4537 1275 05       		.byte	0x5
 4538 1276 4B02     		.2byte	0x24b
 4539 1278 2A       		.uleb128 0x2a
 4540 1279 DE040000 		.4byte	.LASF60
 4541 127d DE040000 		.4byte	.LASF60
 4542 1281 05       		.byte	0x5
 4543 1282 8702     		.2byte	0x287
 4544 1284 2A       		.uleb128 0x2a
 4545 1285 B3020000 		.4byte	.LASF61
 4546 1289 B3020000 		.4byte	.LASF61
 4547 128d 05       		.byte	0x5
 4548 128e 5F01     		.2byte	0x15f
 4549 1290 2A       		.uleb128 0x2a
 4550 1291 4C010000 		.4byte	.LASF62
 4551 1295 4C010000 		.4byte	.LASF62
 4552 1299 05       		.byte	0x5
 4553 129a BA02     		.2byte	0x2ba
 4554 129c 2A       		.uleb128 0x2a
 4555 129d 80050000 		.4byte	.LASF63
 4556 12a1 80050000 		.4byte	.LASF63
 4557 12a5 05       		.byte	0x5
 4558 12a6 D301     		.2byte	0x1d3
 4559 12a8 2A       		.uleb128 0x2a
 4560 12a9 A8040000 		.4byte	.LASF64
 4561 12ad A8040000 		.4byte	.LASF64
 4562 12b1 05       		.byte	0x5
 4563 12b2 D602     		.2byte	0x2d6
ARM GAS  C:\Users\Phuong\AppData\Local\Temp\ccQXToeg.s 			page 95


 4564 12b4 2A       		.uleb128 0x2a
 4565 12b5 38010000 		.4byte	.LASF65
 4566 12b9 38010000 		.4byte	.LASF65
 4567 12bd 05       		.byte	0x5
 4568 12be A902     		.2byte	0x2a9
 4569 12c0 2C       		.uleb128 0x2c
 4570 12c1 47020000 		.4byte	.LASF77
 4571 12c5 47020000 		.4byte	.LASF77
 4572 12c9 2A       		.uleb128 0x2a
 4573 12ca C9010000 		.4byte	.LASF66
 4574 12ce C9010000 		.4byte	.LASF66
 4575 12d2 05       		.byte	0x5
 4576 12d3 BD01     		.2byte	0x1bd
 4577 12d5 2B       		.uleb128 0x2b
 4578 12d6 E8020000 		.4byte	.LASF67
 4579 12da E8020000 		.4byte	.LASF67
 4580 12de 08       		.byte	0x8
 4581 12df 42       		.byte	0x42
 4582 12e0 2A       		.uleb128 0x2a
 4583 12e1 66020000 		.4byte	.LASF68
 4584 12e5 66020000 		.4byte	.LASF68
 4585 12e9 09       		.byte	0x9
 4586 12ea 2101     		.2byte	0x121
 4587 12ec 2B       		.uleb128 0x2b
 4588 12ed 25020000 		.4byte	.LASF69
 4589 12f1 25020000 		.4byte	.LASF69
 4590 12f5 07       		.byte	0x7
 4591 12f6 43       		.byte	0x43
 4592 12f7 2B       		.uleb128 0x2b
 4593 12f8 90040000 		.4byte	.LASF70
 4594 12fc 90040000 		.4byte	.LASF70
 4595 1300 07       		.byte	0x7
 4596 1301 5B       		.byte	0x5b
 4597 1302 2B       		.uleb128 0x2b
 4598 1303 EC030000 		.4byte	.LASF71
 4599 1307 EC030000 		.4byte	.LASF71
 4600 130b 09       		.byte	0x9
 4601 130c CB       		.byte	0xcb
 4602 130d 2B       		.uleb128 0x2b
 4603 130e C8050000 		.4byte	.LASF72
 4604 1312 C8050000 		.4byte	.LASF72
 4605 1316 07       		.byte	0x7
 4606 1317 65       		.byte	0x65
 4607 1318 2B       		.uleb128 0x2b
 4608 1319 84020000 		.4byte	.LASF73
 4609 131d 84020000 		.4byte	.LASF73
 4610 1321 0A       		.byte	0xa
 4611 1322 BB       		.byte	0xbb
 4612 1323 2D       		.uleb128 0x2d
 4613 1324 24040000 		.4byte	.LASF78
 4614 1328 6B050000 		.4byte	.LASF79
 4615 132c 0B       		.byte	0xb
 4616 132d 00       		.byte	0
 4617 132e 24040000 		.4byte	.LASF78
 4618 1332 00       		.byte	0
 4619              		.section	.debug_abbrev,"",%progbits
 4620              	.Ldebug_abbrev0:
ARM GAS  C:\Users\Phuong\AppData\Local\Temp\ccQXToeg.s 			page 96


 4621 0000 01       		.uleb128 0x1
 4622 0001 11       		.uleb128 0x11
 4623 0002 01       		.byte	0x1
 4624 0003 25       		.uleb128 0x25
 4625 0004 0E       		.uleb128 0xe
 4626 0005 13       		.uleb128 0x13
 4627 0006 0B       		.uleb128 0xb
 4628 0007 03       		.uleb128 0x3
 4629 0008 0E       		.uleb128 0xe
 4630 0009 1B       		.uleb128 0x1b
 4631 000a 0E       		.uleb128 0xe
 4632 000b 55       		.uleb128 0x55
 4633 000c 17       		.uleb128 0x17
 4634 000d 11       		.uleb128 0x11
 4635 000e 01       		.uleb128 0x1
 4636 000f 10       		.uleb128 0x10
 4637 0010 17       		.uleb128 0x17
 4638 0011 00       		.byte	0
 4639 0012 00       		.byte	0
 4640 0013 02       		.uleb128 0x2
 4641 0014 24       		.uleb128 0x24
 4642 0015 00       		.byte	0
 4643 0016 0B       		.uleb128 0xb
 4644 0017 0B       		.uleb128 0xb
 4645 0018 3E       		.uleb128 0x3e
 4646 0019 0B       		.uleb128 0xb
 4647 001a 03       		.uleb128 0x3
 4648 001b 0E       		.uleb128 0xe
 4649 001c 00       		.byte	0
 4650 001d 00       		.byte	0
 4651 001e 03       		.uleb128 0x3
 4652 001f 16       		.uleb128 0x16
 4653 0020 00       		.byte	0
 4654 0021 03       		.uleb128 0x3
 4655 0022 0E       		.uleb128 0xe
 4656 0023 3A       		.uleb128 0x3a
 4657 0024 0B       		.uleb128 0xb
 4658 0025 3B       		.uleb128 0x3b
 4659 0026 0B       		.uleb128 0xb
 4660 0027 49       		.uleb128 0x49
 4661 0028 13       		.uleb128 0x13
 4662 0029 00       		.byte	0
 4663 002a 00       		.byte	0
 4664 002b 04       		.uleb128 0x4
 4665 002c 24       		.uleb128 0x24
 4666 002d 00       		.byte	0
 4667 002e 0B       		.uleb128 0xb
 4668 002f 0B       		.uleb128 0xb
 4669 0030 3E       		.uleb128 0x3e
 4670 0031 0B       		.uleb128 0xb
 4671 0032 03       		.uleb128 0x3
 4672 0033 08       		.uleb128 0x8
 4673 0034 00       		.byte	0
 4674 0035 00       		.byte	0
 4675 0036 05       		.uleb128 0x5
 4676 0037 13       		.uleb128 0x13
 4677 0038 01       		.byte	0x1
ARM GAS  C:\Users\Phuong\AppData\Local\Temp\ccQXToeg.s 			page 97


 4678 0039 03       		.uleb128 0x3
 4679 003a 0E       		.uleb128 0xe
 4680 003b 0B       		.uleb128 0xb
 4681 003c 0B       		.uleb128 0xb
 4682 003d 3A       		.uleb128 0x3a
 4683 003e 0B       		.uleb128 0xb
 4684 003f 3B       		.uleb128 0x3b
 4685 0040 0B       		.uleb128 0xb
 4686 0041 01       		.uleb128 0x1
 4687 0042 13       		.uleb128 0x13
 4688 0043 00       		.byte	0
 4689 0044 00       		.byte	0
 4690 0045 06       		.uleb128 0x6
 4691 0046 0D       		.uleb128 0xd
 4692 0047 00       		.byte	0
 4693 0048 03       		.uleb128 0x3
 4694 0049 08       		.uleb128 0x8
 4695 004a 3A       		.uleb128 0x3a
 4696 004b 0B       		.uleb128 0xb
 4697 004c 3B       		.uleb128 0x3b
 4698 004d 0B       		.uleb128 0xb
 4699 004e 49       		.uleb128 0x49
 4700 004f 13       		.uleb128 0x13
 4701 0050 38       		.uleb128 0x38
 4702 0051 0B       		.uleb128 0xb
 4703 0052 00       		.byte	0
 4704 0053 00       		.byte	0
 4705 0054 07       		.uleb128 0x7
 4706 0055 0F       		.uleb128 0xf
 4707 0056 00       		.byte	0
 4708 0057 0B       		.uleb128 0xb
 4709 0058 0B       		.uleb128 0xb
 4710 0059 49       		.uleb128 0x49
 4711 005a 13       		.uleb128 0x13
 4712 005b 00       		.byte	0
 4713 005c 00       		.byte	0
 4714 005d 08       		.uleb128 0x8
 4715 005e 0F       		.uleb128 0xf
 4716 005f 00       		.byte	0
 4717 0060 0B       		.uleb128 0xb
 4718 0061 0B       		.uleb128 0xb
 4719 0062 00       		.byte	0
 4720 0063 00       		.byte	0
 4721 0064 09       		.uleb128 0x9
 4722 0065 26       		.uleb128 0x26
 4723 0066 00       		.byte	0
 4724 0067 49       		.uleb128 0x49
 4725 0068 13       		.uleb128 0x13
 4726 0069 00       		.byte	0
 4727 006a 00       		.byte	0
 4728 006b 0A       		.uleb128 0xa
 4729 006c 0D       		.uleb128 0xd
 4730 006d 00       		.byte	0
 4731 006e 03       		.uleb128 0x3
 4732 006f 0E       		.uleb128 0xe
 4733 0070 3A       		.uleb128 0x3a
 4734 0071 0B       		.uleb128 0xb
ARM GAS  C:\Users\Phuong\AppData\Local\Temp\ccQXToeg.s 			page 98


 4735 0072 3B       		.uleb128 0x3b
 4736 0073 0B       		.uleb128 0xb
 4737 0074 49       		.uleb128 0x49
 4738 0075 13       		.uleb128 0x13
 4739 0076 38       		.uleb128 0x38
 4740 0077 0B       		.uleb128 0xb
 4741 0078 00       		.byte	0
 4742 0079 00       		.byte	0
 4743 007a 0B       		.uleb128 0xb
 4744 007b 2E       		.uleb128 0x2e
 4745 007c 01       		.byte	0x1
 4746 007d 03       		.uleb128 0x3
 4747 007e 0E       		.uleb128 0xe
 4748 007f 3A       		.uleb128 0x3a
 4749 0080 0B       		.uleb128 0xb
 4750 0081 3B       		.uleb128 0x3b
 4751 0082 0B       		.uleb128 0xb
 4752 0083 27       		.uleb128 0x27
 4753 0084 19       		.uleb128 0x19
 4754 0085 49       		.uleb128 0x49
 4755 0086 13       		.uleb128 0x13
 4756 0087 11       		.uleb128 0x11
 4757 0088 01       		.uleb128 0x1
 4758 0089 12       		.uleb128 0x12
 4759 008a 06       		.uleb128 0x6
 4760 008b 40       		.uleb128 0x40
 4761 008c 18       		.uleb128 0x18
 4762 008d 9742     		.uleb128 0x2117
 4763 008f 19       		.uleb128 0x19
 4764 0090 01       		.uleb128 0x1
 4765 0091 13       		.uleb128 0x13
 4766 0092 00       		.byte	0
 4767 0093 00       		.byte	0
 4768 0094 0C       		.uleb128 0xc
 4769 0095 05       		.uleb128 0x5
 4770 0096 00       		.byte	0
 4771 0097 03       		.uleb128 0x3
 4772 0098 08       		.uleb128 0x8
 4773 0099 3A       		.uleb128 0x3a
 4774 009a 0B       		.uleb128 0xb
 4775 009b 3B       		.uleb128 0x3b
 4776 009c 0B       		.uleb128 0xb
 4777 009d 49       		.uleb128 0x49
 4778 009e 13       		.uleb128 0x13
 4779 009f 02       		.uleb128 0x2
 4780 00a0 17       		.uleb128 0x17
 4781 00a1 00       		.byte	0
 4782 00a2 00       		.byte	0
 4783 00a3 0D       		.uleb128 0xd
 4784 00a4 34       		.uleb128 0x34
 4785 00a5 00       		.byte	0
 4786 00a6 03       		.uleb128 0x3
 4787 00a7 08       		.uleb128 0x8
 4788 00a8 3A       		.uleb128 0x3a
 4789 00a9 0B       		.uleb128 0xb
 4790 00aa 3B       		.uleb128 0x3b
 4791 00ab 0B       		.uleb128 0xb
ARM GAS  C:\Users\Phuong\AppData\Local\Temp\ccQXToeg.s 			page 99


 4792 00ac 49       		.uleb128 0x49
 4793 00ad 13       		.uleb128 0x13
 4794 00ae 02       		.uleb128 0x2
 4795 00af 17       		.uleb128 0x17
 4796 00b0 00       		.byte	0
 4797 00b1 00       		.byte	0
 4798 00b2 0E       		.uleb128 0xe
 4799 00b3 898201   		.uleb128 0x4109
 4800 00b6 01       		.byte	0x1
 4801 00b7 11       		.uleb128 0x11
 4802 00b8 01       		.uleb128 0x1
 4803 00b9 31       		.uleb128 0x31
 4804 00ba 13       		.uleb128 0x13
 4805 00bb 00       		.byte	0
 4806 00bc 00       		.byte	0
 4807 00bd 0F       		.uleb128 0xf
 4808 00be 8A8201   		.uleb128 0x410a
 4809 00c1 00       		.byte	0
 4810 00c2 02       		.uleb128 0x2
 4811 00c3 18       		.uleb128 0x18
 4812 00c4 9142     		.uleb128 0x2111
 4813 00c6 18       		.uleb128 0x18
 4814 00c7 00       		.byte	0
 4815 00c8 00       		.byte	0
 4816 00c9 10       		.uleb128 0x10
 4817 00ca 05       		.uleb128 0x5
 4818 00cb 00       		.byte	0
 4819 00cc 03       		.uleb128 0x3
 4820 00cd 0E       		.uleb128 0xe
 4821 00ce 3A       		.uleb128 0x3a
 4822 00cf 0B       		.uleb128 0xb
 4823 00d0 3B       		.uleb128 0x3b
 4824 00d1 0B       		.uleb128 0xb
 4825 00d2 49       		.uleb128 0x49
 4826 00d3 13       		.uleb128 0x13
 4827 00d4 02       		.uleb128 0x2
 4828 00d5 17       		.uleb128 0x17
 4829 00d6 00       		.byte	0
 4830 00d7 00       		.byte	0
 4831 00d8 11       		.uleb128 0x11
 4832 00d9 34       		.uleb128 0x34
 4833 00da 00       		.byte	0
 4834 00db 03       		.uleb128 0x3
 4835 00dc 08       		.uleb128 0x8
 4836 00dd 3A       		.uleb128 0x3a
 4837 00de 0B       		.uleb128 0xb
 4838 00df 3B       		.uleb128 0x3b
 4839 00e0 0B       		.uleb128 0xb
 4840 00e1 49       		.uleb128 0x49
 4841 00e2 13       		.uleb128 0x13
 4842 00e3 02       		.uleb128 0x2
 4843 00e4 18       		.uleb128 0x18
 4844 00e5 00       		.byte	0
 4845 00e6 00       		.byte	0
 4846 00e7 12       		.uleb128 0x12
 4847 00e8 0A       		.uleb128 0xa
 4848 00e9 00       		.byte	0
ARM GAS  C:\Users\Phuong\AppData\Local\Temp\ccQXToeg.s 			page 100


 4849 00ea 03       		.uleb128 0x3
 4850 00eb 0E       		.uleb128 0xe
 4851 00ec 3A       		.uleb128 0x3a
 4852 00ed 0B       		.uleb128 0xb
 4853 00ee 3B       		.uleb128 0x3b
 4854 00ef 0B       		.uleb128 0xb
 4855 00f0 11       		.uleb128 0x11
 4856 00f1 01       		.uleb128 0x1
 4857 00f2 00       		.byte	0
 4858 00f3 00       		.byte	0
 4859 00f4 13       		.uleb128 0x13
 4860 00f5 898201   		.uleb128 0x4109
 4861 00f8 01       		.byte	0x1
 4862 00f9 11       		.uleb128 0x11
 4863 00fa 01       		.uleb128 0x1
 4864 00fb 31       		.uleb128 0x31
 4865 00fc 13       		.uleb128 0x13
 4866 00fd 01       		.uleb128 0x1
 4867 00fe 13       		.uleb128 0x13
 4868 00ff 00       		.byte	0
 4869 0100 00       		.byte	0
 4870 0101 14       		.uleb128 0x14
 4871 0102 2E       		.uleb128 0x2e
 4872 0103 01       		.byte	0x1
 4873 0104 03       		.uleb128 0x3
 4874 0105 0E       		.uleb128 0xe
 4875 0106 3A       		.uleb128 0x3a
 4876 0107 0B       		.uleb128 0xb
 4877 0108 3B       		.uleb128 0x3b
 4878 0109 05       		.uleb128 0x5
 4879 010a 27       		.uleb128 0x27
 4880 010b 19       		.uleb128 0x19
 4881 010c 49       		.uleb128 0x49
 4882 010d 13       		.uleb128 0x13
 4883 010e 11       		.uleb128 0x11
 4884 010f 01       		.uleb128 0x1
 4885 0110 12       		.uleb128 0x12
 4886 0111 06       		.uleb128 0x6
 4887 0112 40       		.uleb128 0x40
 4888 0113 18       		.uleb128 0x18
 4889 0114 9742     		.uleb128 0x2117
 4890 0116 19       		.uleb128 0x19
 4891 0117 01       		.uleb128 0x1
 4892 0118 13       		.uleb128 0x13
 4893 0119 00       		.byte	0
 4894 011a 00       		.byte	0
 4895 011b 15       		.uleb128 0x15
 4896 011c 05       		.uleb128 0x5
 4897 011d 00       		.byte	0
 4898 011e 03       		.uleb128 0x3
 4899 011f 08       		.uleb128 0x8
 4900 0120 3A       		.uleb128 0x3a
 4901 0121 0B       		.uleb128 0xb
 4902 0122 3B       		.uleb128 0x3b
 4903 0123 05       		.uleb128 0x5
 4904 0124 49       		.uleb128 0x49
 4905 0125 13       		.uleb128 0x13
ARM GAS  C:\Users\Phuong\AppData\Local\Temp\ccQXToeg.s 			page 101


 4906 0126 02       		.uleb128 0x2
 4907 0127 17       		.uleb128 0x17
 4908 0128 00       		.byte	0
 4909 0129 00       		.byte	0
 4910 012a 16       		.uleb128 0x16
 4911 012b 05       		.uleb128 0x5
 4912 012c 00       		.byte	0
 4913 012d 03       		.uleb128 0x3
 4914 012e 0E       		.uleb128 0xe
 4915 012f 3A       		.uleb128 0x3a
 4916 0130 0B       		.uleb128 0xb
 4917 0131 3B       		.uleb128 0x3b
 4918 0132 05       		.uleb128 0x5
 4919 0133 49       		.uleb128 0x49
 4920 0134 13       		.uleb128 0x13
 4921 0135 02       		.uleb128 0x2
 4922 0136 17       		.uleb128 0x17
 4923 0137 00       		.byte	0
 4924 0138 00       		.byte	0
 4925 0139 17       		.uleb128 0x17
 4926 013a 34       		.uleb128 0x34
 4927 013b 00       		.byte	0
 4928 013c 03       		.uleb128 0x3
 4929 013d 08       		.uleb128 0x8
 4930 013e 3A       		.uleb128 0x3a
 4931 013f 0B       		.uleb128 0xb
 4932 0140 3B       		.uleb128 0x3b
 4933 0141 05       		.uleb128 0x5
 4934 0142 49       		.uleb128 0x49
 4935 0143 13       		.uleb128 0x13
 4936 0144 02       		.uleb128 0x2
 4937 0145 17       		.uleb128 0x17
 4938 0146 00       		.byte	0
 4939 0147 00       		.byte	0
 4940 0148 18       		.uleb128 0x18
 4941 0149 34       		.uleb128 0x34
 4942 014a 00       		.byte	0
 4943 014b 03       		.uleb128 0x3
 4944 014c 0E       		.uleb128 0xe
 4945 014d 3A       		.uleb128 0x3a
 4946 014e 0B       		.uleb128 0xb
 4947 014f 3B       		.uleb128 0x3b
 4948 0150 05       		.uleb128 0x5
 4949 0151 49       		.uleb128 0x49
 4950 0152 13       		.uleb128 0x13
 4951 0153 02       		.uleb128 0x2
 4952 0154 17       		.uleb128 0x17
 4953 0155 00       		.byte	0
 4954 0156 00       		.byte	0
 4955 0157 19       		.uleb128 0x19
 4956 0158 0A       		.uleb128 0xa
 4957 0159 00       		.byte	0
 4958 015a 03       		.uleb128 0x3
 4959 015b 0E       		.uleb128 0xe
 4960 015c 3A       		.uleb128 0x3a
 4961 015d 0B       		.uleb128 0xb
 4962 015e 3B       		.uleb128 0x3b
ARM GAS  C:\Users\Phuong\AppData\Local\Temp\ccQXToeg.s 			page 102


 4963 015f 05       		.uleb128 0x5
 4964 0160 00       		.byte	0
 4965 0161 00       		.byte	0
 4966 0162 1A       		.uleb128 0x1a
 4967 0163 15       		.uleb128 0x15
 4968 0164 01       		.byte	0x1
 4969 0165 27       		.uleb128 0x27
 4970 0166 19       		.uleb128 0x19
 4971 0167 49       		.uleb128 0x49
 4972 0168 13       		.uleb128 0x13
 4973 0169 01       		.uleb128 0x1
 4974 016a 13       		.uleb128 0x13
 4975 016b 00       		.byte	0
 4976 016c 00       		.byte	0
 4977 016d 1B       		.uleb128 0x1b
 4978 016e 05       		.uleb128 0x5
 4979 016f 00       		.byte	0
 4980 0170 49       		.uleb128 0x49
 4981 0171 13       		.uleb128 0x13
 4982 0172 00       		.byte	0
 4983 0173 00       		.byte	0
 4984 0174 1C       		.uleb128 0x1c
 4985 0175 2E       		.uleb128 0x2e
 4986 0176 01       		.byte	0x1
 4987 0177 3F       		.uleb128 0x3f
 4988 0178 19       		.uleb128 0x19
 4989 0179 03       		.uleb128 0x3
 4990 017a 0E       		.uleb128 0xe
 4991 017b 3A       		.uleb128 0x3a
 4992 017c 0B       		.uleb128 0xb
 4993 017d 3B       		.uleb128 0x3b
 4994 017e 0B       		.uleb128 0xb
 4995 017f 27       		.uleb128 0x27
 4996 0180 19       		.uleb128 0x19
 4997 0181 11       		.uleb128 0x11
 4998 0182 01       		.uleb128 0x1
 4999 0183 12       		.uleb128 0x12
 5000 0184 06       		.uleb128 0x6
 5001 0185 40       		.uleb128 0x40
 5002 0186 18       		.uleb128 0x18
 5003 0187 9742     		.uleb128 0x2117
 5004 0189 19       		.uleb128 0x19
 5005 018a 01       		.uleb128 0x1
 5006 018b 13       		.uleb128 0x13
 5007 018c 00       		.byte	0
 5008 018d 00       		.byte	0
 5009 018e 1D       		.uleb128 0x1d
 5010 018f 2E       		.uleb128 0x2e
 5011 0190 01       		.byte	0x1
 5012 0191 3F       		.uleb128 0x3f
 5013 0192 19       		.uleb128 0x19
 5014 0193 03       		.uleb128 0x3
 5015 0194 0E       		.uleb128 0xe
 5016 0195 3A       		.uleb128 0x3a
 5017 0196 0B       		.uleb128 0xb
 5018 0197 3B       		.uleb128 0x3b
 5019 0198 0B       		.uleb128 0xb
ARM GAS  C:\Users\Phuong\AppData\Local\Temp\ccQXToeg.s 			page 103


 5020 0199 27       		.uleb128 0x27
 5021 019a 19       		.uleb128 0x19
 5022 019b 49       		.uleb128 0x49
 5023 019c 13       		.uleb128 0x13
 5024 019d 11       		.uleb128 0x11
 5025 019e 01       		.uleb128 0x1
 5026 019f 12       		.uleb128 0x12
 5027 01a0 06       		.uleb128 0x6
 5028 01a1 40       		.uleb128 0x40
 5029 01a2 18       		.uleb128 0x18
 5030 01a3 9742     		.uleb128 0x2117
 5031 01a5 19       		.uleb128 0x19
 5032 01a6 01       		.uleb128 0x1
 5033 01a7 13       		.uleb128 0x13
 5034 01a8 00       		.byte	0
 5035 01a9 00       		.byte	0
 5036 01aa 1E       		.uleb128 0x1e
 5037 01ab 05       		.uleb128 0x5
 5038 01ac 00       		.byte	0
 5039 01ad 03       		.uleb128 0x3
 5040 01ae 0E       		.uleb128 0xe
 5041 01af 3A       		.uleb128 0x3a
 5042 01b0 0B       		.uleb128 0xb
 5043 01b1 3B       		.uleb128 0x3b
 5044 01b2 0B       		.uleb128 0xb
 5045 01b3 49       		.uleb128 0x49
 5046 01b4 13       		.uleb128 0x13
 5047 01b5 02       		.uleb128 0x2
 5048 01b6 18       		.uleb128 0x18
 5049 01b7 00       		.byte	0
 5050 01b8 00       		.byte	0
 5051 01b9 1F       		.uleb128 0x1f
 5052 01ba 34       		.uleb128 0x34
 5053 01bb 00       		.byte	0
 5054 01bc 03       		.uleb128 0x3
 5055 01bd 0E       		.uleb128 0xe
 5056 01be 3A       		.uleb128 0x3a
 5057 01bf 0B       		.uleb128 0xb
 5058 01c0 3B       		.uleb128 0x3b
 5059 01c1 0B       		.uleb128 0xb
 5060 01c2 49       		.uleb128 0x49
 5061 01c3 13       		.uleb128 0x13
 5062 01c4 02       		.uleb128 0x2
 5063 01c5 17       		.uleb128 0x17
 5064 01c6 00       		.byte	0
 5065 01c7 00       		.byte	0
 5066 01c8 20       		.uleb128 0x20
 5067 01c9 2E       		.uleb128 0x2e
 5068 01ca 01       		.byte	0x1
 5069 01cb 3F       		.uleb128 0x3f
 5070 01cc 19       		.uleb128 0x19
 5071 01cd 03       		.uleb128 0x3
 5072 01ce 0E       		.uleb128 0xe
 5073 01cf 3A       		.uleb128 0x3a
 5074 01d0 0B       		.uleb128 0xb
 5075 01d1 3B       		.uleb128 0x3b
 5076 01d2 05       		.uleb128 0x5
ARM GAS  C:\Users\Phuong\AppData\Local\Temp\ccQXToeg.s 			page 104


 5077 01d3 27       		.uleb128 0x27
 5078 01d4 19       		.uleb128 0x19
 5079 01d5 49       		.uleb128 0x49
 5080 01d6 13       		.uleb128 0x13
 5081 01d7 11       		.uleb128 0x11
 5082 01d8 01       		.uleb128 0x1
 5083 01d9 12       		.uleb128 0x12
 5084 01da 06       		.uleb128 0x6
 5085 01db 40       		.uleb128 0x40
 5086 01dc 18       		.uleb128 0x18
 5087 01dd 9742     		.uleb128 0x2117
 5088 01df 19       		.uleb128 0x19
 5089 01e0 01       		.uleb128 0x1
 5090 01e1 13       		.uleb128 0x13
 5091 01e2 00       		.byte	0
 5092 01e3 00       		.byte	0
 5093 01e4 21       		.uleb128 0x21
 5094 01e5 05       		.uleb128 0x5
 5095 01e6 00       		.byte	0
 5096 01e7 03       		.uleb128 0x3
 5097 01e8 0E       		.uleb128 0xe
 5098 01e9 3A       		.uleb128 0x3a
 5099 01ea 0B       		.uleb128 0xb
 5100 01eb 3B       		.uleb128 0x3b
 5101 01ec 05       		.uleb128 0x5
 5102 01ed 49       		.uleb128 0x49
 5103 01ee 13       		.uleb128 0x13
 5104 01ef 02       		.uleb128 0x2
 5105 01f0 18       		.uleb128 0x18
 5106 01f1 00       		.byte	0
 5107 01f2 00       		.byte	0
 5108 01f3 22       		.uleb128 0x22
 5109 01f4 0A       		.uleb128 0xa
 5110 01f5 00       		.byte	0
 5111 01f6 03       		.uleb128 0x3
 5112 01f7 0E       		.uleb128 0xe
 5113 01f8 3A       		.uleb128 0x3a
 5114 01f9 0B       		.uleb128 0xb
 5115 01fa 3B       		.uleb128 0x3b
 5116 01fb 05       		.uleb128 0x5
 5117 01fc 11       		.uleb128 0x11
 5118 01fd 01       		.uleb128 0x1
 5119 01fe 00       		.byte	0
 5120 01ff 00       		.byte	0
 5121 0200 23       		.uleb128 0x23
 5122 0201 34       		.uleb128 0x34
 5123 0202 00       		.byte	0
 5124 0203 03       		.uleb128 0x3
 5125 0204 08       		.uleb128 0x8
 5126 0205 3A       		.uleb128 0x3a
 5127 0206 0B       		.uleb128 0xb
 5128 0207 3B       		.uleb128 0x3b
 5129 0208 05       		.uleb128 0x5
 5130 0209 49       		.uleb128 0x49
 5131 020a 13       		.uleb128 0x13
 5132 020b 02       		.uleb128 0x2
 5133 020c 18       		.uleb128 0x18
ARM GAS  C:\Users\Phuong\AppData\Local\Temp\ccQXToeg.s 			page 105


 5134 020d 00       		.byte	0
 5135 020e 00       		.byte	0
 5136 020f 24       		.uleb128 0x24
 5137 0210 2E       		.uleb128 0x2e
 5138 0211 01       		.byte	0x1
 5139 0212 3F       		.uleb128 0x3f
 5140 0213 19       		.uleb128 0x19
 5141 0214 03       		.uleb128 0x3
 5142 0215 0E       		.uleb128 0xe
 5143 0216 3A       		.uleb128 0x3a
 5144 0217 0B       		.uleb128 0xb
 5145 0218 3B       		.uleb128 0x3b
 5146 0219 05       		.uleb128 0x5
 5147 021a 27       		.uleb128 0x27
 5148 021b 19       		.uleb128 0x19
 5149 021c 11       		.uleb128 0x11
 5150 021d 01       		.uleb128 0x1
 5151 021e 12       		.uleb128 0x12
 5152 021f 06       		.uleb128 0x6
 5153 0220 40       		.uleb128 0x40
 5154 0221 18       		.uleb128 0x18
 5155 0222 9742     		.uleb128 0x2117
 5156 0224 19       		.uleb128 0x19
 5157 0225 01       		.uleb128 0x1
 5158 0226 13       		.uleb128 0x13
 5159 0227 00       		.byte	0
 5160 0228 00       		.byte	0
 5161 0229 25       		.uleb128 0x25
 5162 022a 0B       		.uleb128 0xb
 5163 022b 01       		.byte	0x1
 5164 022c 11       		.uleb128 0x11
 5165 022d 01       		.uleb128 0x1
 5166 022e 12       		.uleb128 0x12
 5167 022f 06       		.uleb128 0x6
 5168 0230 01       		.uleb128 0x1
 5169 0231 13       		.uleb128 0x13
 5170 0232 00       		.byte	0
 5171 0233 00       		.byte	0
 5172 0234 26       		.uleb128 0x26
 5173 0235 01       		.uleb128 0x1
 5174 0236 01       		.byte	0x1
 5175 0237 49       		.uleb128 0x49
 5176 0238 13       		.uleb128 0x13
 5177 0239 01       		.uleb128 0x1
 5178 023a 13       		.uleb128 0x13
 5179 023b 00       		.byte	0
 5180 023c 00       		.byte	0
 5181 023d 27       		.uleb128 0x27
 5182 023e 21       		.uleb128 0x21
 5183 023f 00       		.byte	0
 5184 0240 49       		.uleb128 0x49
 5185 0241 13       		.uleb128 0x13
 5186 0242 2F       		.uleb128 0x2f
 5187 0243 0B       		.uleb128 0xb
 5188 0244 00       		.byte	0
 5189 0245 00       		.byte	0
 5190 0246 28       		.uleb128 0x28
ARM GAS  C:\Users\Phuong\AppData\Local\Temp\ccQXToeg.s 			page 106


 5191 0247 34       		.uleb128 0x34
 5192 0248 00       		.byte	0
 5193 0249 03       		.uleb128 0x3
 5194 024a 0E       		.uleb128 0xe
 5195 024b 3A       		.uleb128 0x3a
 5196 024c 0B       		.uleb128 0xb
 5197 024d 3B       		.uleb128 0x3b
 5198 024e 05       		.uleb128 0x5
 5199 024f 49       		.uleb128 0x49
 5200 0250 13       		.uleb128 0x13
 5201 0251 02       		.uleb128 0x2
 5202 0252 18       		.uleb128 0x18
 5203 0253 00       		.byte	0
 5204 0254 00       		.byte	0
 5205 0255 29       		.uleb128 0x29
 5206 0256 34       		.uleb128 0x34
 5207 0257 00       		.byte	0
 5208 0258 03       		.uleb128 0x3
 5209 0259 0E       		.uleb128 0xe
 5210 025a 3A       		.uleb128 0x3a
 5211 025b 0B       		.uleb128 0xb
 5212 025c 3B       		.uleb128 0x3b
 5213 025d 05       		.uleb128 0x5
 5214 025e 49       		.uleb128 0x49
 5215 025f 13       		.uleb128 0x13
 5216 0260 1C       		.uleb128 0x1c
 5217 0261 0B       		.uleb128 0xb
 5218 0262 00       		.byte	0
 5219 0263 00       		.byte	0
 5220 0264 2A       		.uleb128 0x2a
 5221 0265 2E       		.uleb128 0x2e
 5222 0266 00       		.byte	0
 5223 0267 3F       		.uleb128 0x3f
 5224 0268 19       		.uleb128 0x19
 5225 0269 3C       		.uleb128 0x3c
 5226 026a 19       		.uleb128 0x19
 5227 026b 6E       		.uleb128 0x6e
 5228 026c 0E       		.uleb128 0xe
 5229 026d 03       		.uleb128 0x3
 5230 026e 0E       		.uleb128 0xe
 5231 026f 3A       		.uleb128 0x3a
 5232 0270 0B       		.uleb128 0xb
 5233 0271 3B       		.uleb128 0x3b
 5234 0272 05       		.uleb128 0x5
 5235 0273 00       		.byte	0
 5236 0274 00       		.byte	0
 5237 0275 2B       		.uleb128 0x2b
 5238 0276 2E       		.uleb128 0x2e
 5239 0277 00       		.byte	0
 5240 0278 3F       		.uleb128 0x3f
 5241 0279 19       		.uleb128 0x19
 5242 027a 3C       		.uleb128 0x3c
 5243 027b 19       		.uleb128 0x19
 5244 027c 6E       		.uleb128 0x6e
 5245 027d 0E       		.uleb128 0xe
 5246 027e 03       		.uleb128 0x3
 5247 027f 0E       		.uleb128 0xe
ARM GAS  C:\Users\Phuong\AppData\Local\Temp\ccQXToeg.s 			page 107


 5248 0280 3A       		.uleb128 0x3a
 5249 0281 0B       		.uleb128 0xb
 5250 0282 3B       		.uleb128 0x3b
 5251 0283 0B       		.uleb128 0xb
 5252 0284 00       		.byte	0
 5253 0285 00       		.byte	0
 5254 0286 2C       		.uleb128 0x2c
 5255 0287 2E       		.uleb128 0x2e
 5256 0288 00       		.byte	0
 5257 0289 3F       		.uleb128 0x3f
 5258 028a 19       		.uleb128 0x19
 5259 028b 3C       		.uleb128 0x3c
 5260 028c 19       		.uleb128 0x19
 5261 028d 6E       		.uleb128 0x6e
 5262 028e 0E       		.uleb128 0xe
 5263 028f 03       		.uleb128 0x3
 5264 0290 0E       		.uleb128 0xe
 5265 0291 00       		.byte	0
 5266 0292 00       		.byte	0
 5267 0293 2D       		.uleb128 0x2d
 5268 0294 2E       		.uleb128 0x2e
 5269 0295 00       		.byte	0
 5270 0296 3F       		.uleb128 0x3f
 5271 0297 19       		.uleb128 0x19
 5272 0298 3C       		.uleb128 0x3c
 5273 0299 19       		.uleb128 0x19
 5274 029a 6E       		.uleb128 0x6e
 5275 029b 0E       		.uleb128 0xe
 5276 029c 03       		.uleb128 0x3
 5277 029d 0E       		.uleb128 0xe
 5278 029e 3A       		.uleb128 0x3a
 5279 029f 0B       		.uleb128 0xb
 5280 02a0 3B       		.uleb128 0x3b
 5281 02a1 0B       		.uleb128 0xb
 5282 02a2 6E       		.uleb128 0x6e
 5283 02a3 0E       		.uleb128 0xe
 5284 02a4 00       		.byte	0
 5285 02a5 00       		.byte	0
 5286 02a6 00       		.byte	0
 5287              		.section	.debug_loc,"",%progbits
 5288              	.Ldebug_loc0:
 5289              	.LLST0:
 5290 0000 00000000 		.4byte	.LVL0
 5291 0004 23000000 		.4byte	.LVL4-1
 5292 0008 0100     		.2byte	0x1
 5293 000a 50       		.byte	0x50
 5294 000b 23000000 		.4byte	.LVL4-1
 5295 000f 3C000000 		.4byte	.LVL9
 5296 0013 0400     		.2byte	0x4
 5297 0015 F3       		.byte	0xf3
 5298 0016 01       		.uleb128 0x1
 5299 0017 50       		.byte	0x50
 5300 0018 9F       		.byte	0x9f
 5301 0019 3C000000 		.4byte	.LVL9
 5302 001d 3E000000 		.4byte	.LVL10
 5303 0021 0100     		.2byte	0x1
 5304 0023 50       		.byte	0x50
ARM GAS  C:\Users\Phuong\AppData\Local\Temp\ccQXToeg.s 			page 108


 5305 0024 3E000000 		.4byte	.LVL10
 5306 0028 40000000 		.4byte	.LVL11
 5307 002c 0400     		.2byte	0x4
 5308 002e F3       		.byte	0xf3
 5309 002f 01       		.uleb128 0x1
 5310 0030 50       		.byte	0x50
 5311 0031 9F       		.byte	0x9f
 5312 0032 40000000 		.4byte	.LVL11
 5313 0036 42000000 		.4byte	.LVL12
 5314 003a 0100     		.2byte	0x1
 5315 003c 50       		.byte	0x50
 5316 003d 42000000 		.4byte	.LVL12
 5317 0041 4C000000 		.4byte	.LFE1
 5318 0045 0400     		.2byte	0x4
 5319 0047 F3       		.byte	0xf3
 5320 0048 01       		.uleb128 0x1
 5321 0049 50       		.byte	0x50
 5322 004a 9F       		.byte	0x9f
 5323 004b 00000000 		.4byte	0
 5324 004f 00000000 		.4byte	0
 5325              	.LLST1:
 5326 0053 00000000 		.4byte	.LVL0
 5327 0057 06000000 		.4byte	.LVL1
 5328 005b 0100     		.2byte	0x1
 5329 005d 51       		.byte	0x51
 5330 005e 06000000 		.4byte	.LVL1
 5331 0062 42000000 		.4byte	.LVL13
 5332 0066 0100     		.2byte	0x1
 5333 0068 55       		.byte	0x55
 5334 0069 42000000 		.4byte	.LVL13
 5335 006d 4C000000 		.4byte	.LFE1
 5336 0071 0400     		.2byte	0x4
 5337 0073 F3       		.byte	0xf3
 5338 0074 01       		.uleb128 0x1
 5339 0075 51       		.byte	0x51
 5340 0076 9F       		.byte	0x9f
 5341 0077 00000000 		.4byte	0
 5342 007b 00000000 		.4byte	0
 5343              	.LLST2:
 5344 007f 00000000 		.4byte	.LVL0
 5345 0083 1A000000 		.4byte	.LVL3
 5346 0087 0100     		.2byte	0x1
 5347 0089 52       		.byte	0x52
 5348 008a 1A000000 		.4byte	.LVL3
 5349 008e 3C000000 		.4byte	.LVL9
 5350 0092 0400     		.2byte	0x4
 5351 0094 F3       		.byte	0xf3
 5352 0095 01       		.uleb128 0x1
 5353 0096 52       		.byte	0x52
 5354 0097 9F       		.byte	0x9f
 5355 0098 3C000000 		.4byte	.LVL9
 5356 009c 40000000 		.4byte	.LVL11
 5357 00a0 0100     		.2byte	0x1
 5358 00a2 52       		.byte	0x52
 5359 00a3 40000000 		.4byte	.LVL11
 5360 00a7 4C000000 		.4byte	.LFE1
 5361 00ab 0400     		.2byte	0x4
ARM GAS  C:\Users\Phuong\AppData\Local\Temp\ccQXToeg.s 			page 109


 5362 00ad F3       		.byte	0xf3
 5363 00ae 01       		.uleb128 0x1
 5364 00af 52       		.byte	0x52
 5365 00b0 9F       		.byte	0x9f
 5366 00b1 00000000 		.4byte	0
 5367 00b5 00000000 		.4byte	0
 5368              	.LLST3:
 5369 00b9 24000000 		.4byte	.LVL4
 5370 00bd 2E000000 		.4byte	.LVL5
 5371 00c1 0100     		.2byte	0x1
 5372 00c3 50       		.byte	0x50
 5373 00c4 2E000000 		.4byte	.LVL5
 5374 00c8 30000000 		.4byte	.LVL6
 5375 00cc 0500     		.2byte	0x5
 5376 00ce 70       		.byte	0x70
 5377 00cf 80E200   		.sleb128 12544
 5378 00d2 9F       		.byte	0x9f
 5379 00d3 30000000 		.4byte	.LVL6
 5380 00d7 3A000000 		.4byte	.LVL8
 5381 00db 0100     		.2byte	0x1
 5382 00dd 50       		.byte	0x50
 5383 00de 00000000 		.4byte	0
 5384 00e2 00000000 		.4byte	0
 5385              	.LLST4:
 5386 00e6 14000000 		.4byte	.LVL2
 5387 00ea 36000000 		.4byte	.LVL7
 5388 00ee 0100     		.2byte	0x1
 5389 00f0 54       		.byte	0x54
 5390 00f1 40000000 		.4byte	.LVL11
 5391 00f5 42000000 		.4byte	.LVL12
 5392 00f9 0100     		.2byte	0x1
 5393 00fb 54       		.byte	0x54
 5394 00fc 00000000 		.4byte	0
 5395 0100 00000000 		.4byte	0
 5396              	.LLST5:
 5397 0104 00000000 		.4byte	.LVL14
 5398 0108 0A000000 		.4byte	.LVL16
 5399 010c 0100     		.2byte	0x1
 5400 010e 50       		.byte	0x50
 5401 010f 0A000000 		.4byte	.LVL16
 5402 0113 5E000000 		.4byte	.LVL34
 5403 0117 0100     		.2byte	0x1
 5404 0119 56       		.byte	0x56
 5405 011a 5E000000 		.4byte	.LVL34
 5406 011e 64000000 		.4byte	.LFE2
 5407 0122 0400     		.2byte	0x4
 5408 0124 F3       		.byte	0xf3
 5409 0125 01       		.uleb128 0x1
 5410 0126 50       		.byte	0x50
 5411 0127 9F       		.byte	0x9f
 5412 0128 00000000 		.4byte	0
 5413 012c 00000000 		.4byte	0
 5414              	.LLST6:
 5415 0130 00000000 		.4byte	.LVL14
 5416 0134 0D000000 		.4byte	.LVL17-1
 5417 0138 0100     		.2byte	0x1
 5418 013a 51       		.byte	0x51
ARM GAS  C:\Users\Phuong\AppData\Local\Temp\ccQXToeg.s 			page 110


 5419 013b 0D000000 		.4byte	.LVL17-1
 5420 013f 5E000000 		.4byte	.LVL33
 5421 0143 0100     		.2byte	0x1
 5422 0145 55       		.byte	0x55
 5423 0146 5E000000 		.4byte	.LVL33
 5424 014a 64000000 		.4byte	.LFE2
 5425 014e 0400     		.2byte	0x4
 5426 0150 F3       		.byte	0xf3
 5427 0151 01       		.uleb128 0x1
 5428 0152 51       		.byte	0x51
 5429 0153 9F       		.byte	0x9f
 5430 0154 00000000 		.4byte	0
 5431 0158 00000000 		.4byte	0
 5432              	.LLST7:
 5433 015c 08000000 		.4byte	.LVL15
 5434 0160 1E000000 		.4byte	.LVL20
 5435 0164 0200     		.2byte	0x2
 5436 0166 30       		.byte	0x30
 5437 0167 9F       		.byte	0x9f
 5438 0168 1E000000 		.4byte	.LVL20
 5439 016c 26000000 		.4byte	.LVL21
 5440 0170 0100     		.2byte	0x1
 5441 0172 50       		.byte	0x50
 5442 0173 26000000 		.4byte	.LVL21
 5443 0177 2C000000 		.4byte	.LVL23
 5444 017b 0100     		.2byte	0x1
 5445 017d 54       		.byte	0x54
 5446 017e 2C000000 		.4byte	.LVL23
 5447 0182 32000000 		.4byte	.LVL24
 5448 0186 0100     		.2byte	0x1
 5449 0188 50       		.byte	0x50
 5450 0189 32000000 		.4byte	.LVL24
 5451 018d 4A000000 		.4byte	.LVL27
 5452 0191 0100     		.2byte	0x1
 5453 0193 54       		.byte	0x54
 5454 0194 4C000000 		.4byte	.LVL28
 5455 0198 5E000000 		.4byte	.LVL32
 5456 019c 0100     		.2byte	0x1
 5457 019e 54       		.byte	0x54
 5458 019f 5E000000 		.4byte	.LVL32
 5459 01a3 64000000 		.4byte	.LFE2
 5460 01a7 0100     		.2byte	0x1
 5461 01a9 50       		.byte	0x50
 5462 01aa 00000000 		.4byte	0
 5463 01ae 00000000 		.4byte	0
 5464              	.LLST8:
 5465 01b2 00000000 		.4byte	.LVL35
 5466 01b6 1C000000 		.4byte	.LVL37
 5467 01ba 0100     		.2byte	0x1
 5468 01bc 50       		.byte	0x50
 5469 01bd 1C000000 		.4byte	.LVL37
 5470 01c1 4E010000 		.4byte	.LVL74
 5471 01c5 0100     		.2byte	0x1
 5472 01c7 57       		.byte	0x57
 5473 01c8 4E010000 		.4byte	.LVL74
 5474 01cc 56010000 		.4byte	.LFE9
 5475 01d0 0400     		.2byte	0x4
ARM GAS  C:\Users\Phuong\AppData\Local\Temp\ccQXToeg.s 			page 111


 5476 01d2 F3       		.byte	0xf3
 5477 01d3 01       		.uleb128 0x1
 5478 01d4 50       		.byte	0x50
 5479 01d5 9F       		.byte	0x9f
 5480 01d6 00000000 		.4byte	0
 5481 01da 00000000 		.4byte	0
 5482              	.LLST9:
 5483 01de 00000000 		.4byte	.LVL35
 5484 01e2 1A000000 		.4byte	.LVL36
 5485 01e6 0100     		.2byte	0x1
 5486 01e8 51       		.byte	0x51
 5487 01e9 1A000000 		.4byte	.LVL36
 5488 01ed FC000000 		.4byte	.LVL65
 5489 01f1 0200     		.2byte	0x2
 5490 01f3 91       		.byte	0x91
 5491 01f4 58       		.sleb128 -40
 5492 01f5 FC000000 		.4byte	.LVL65
 5493 01f9 1E010000 		.4byte	.LVL69
 5494 01fd 0400     		.2byte	0x4
 5495 01ff F3       		.byte	0xf3
 5496 0200 01       		.uleb128 0x1
 5497 0201 51       		.byte	0x51
 5498 0202 9F       		.byte	0x9f
 5499 0203 1E010000 		.4byte	.LVL69
 5500 0207 48010000 		.4byte	.LVL72
 5501 020b 0200     		.2byte	0x2
 5502 020d 91       		.byte	0x91
 5503 020e 58       		.sleb128 -40
 5504 020f 48010000 		.4byte	.LVL72
 5505 0213 56010000 		.4byte	.LFE9
 5506 0217 0400     		.2byte	0x4
 5507 0219 F3       		.byte	0xf3
 5508 021a 01       		.uleb128 0x1
 5509 021b 51       		.byte	0x51
 5510 021c 9F       		.byte	0x9f
 5511 021d 00000000 		.4byte	0
 5512 0221 00000000 		.4byte	0
 5513              	.LLST10:
 5514 0225 00000000 		.4byte	.LVL35
 5515 0229 1F000000 		.4byte	.LVL38-1
 5516 022d 0100     		.2byte	0x1
 5517 022f 52       		.byte	0x52
 5518 0230 1F000000 		.4byte	.LVL38-1
 5519 0234 56010000 		.4byte	.LFE9
 5520 0238 0200     		.2byte	0x2
 5521 023a 91       		.byte	0x91
 5522 023b 5C       		.sleb128 -36
 5523 023c 00000000 		.4byte	0
 5524 0240 00000000 		.4byte	0
 5525              	.LLST11:
 5526 0244 2C000000 		.4byte	.LVL39
 5527 0248 32000000 		.4byte	.LVL40
 5528 024c 0100     		.2byte	0x1
 5529 024e 50       		.byte	0x50
 5530 024f 3A000000 		.4byte	.LVL41
 5531 0253 40000000 		.4byte	.LVL42
 5532 0257 0100     		.2byte	0x1
ARM GAS  C:\Users\Phuong\AppData\Local\Temp\ccQXToeg.s 			page 112


 5533 0259 50       		.byte	0x50
 5534 025a 48000000 		.4byte	.LVL43
 5535 025e 50000000 		.4byte	.LVL44
 5536 0262 0100     		.2byte	0x1
 5537 0264 50       		.byte	0x50
 5538 0265 6A000000 		.4byte	.LVL46
 5539 0269 76000000 		.4byte	.LVL47
 5540 026d 0100     		.2byte	0x1
 5541 026f 50       		.byte	0x50
 5542 0270 7A000000 		.4byte	.LVL48
 5543 0274 86000000 		.4byte	.LVL49
 5544 0278 0100     		.2byte	0x1
 5545 027a 50       		.byte	0x50
 5546 027b 8A000000 		.4byte	.LVL50
 5547 027f 94000000 		.4byte	.LVL51
 5548 0283 0100     		.2byte	0x1
 5549 0285 50       		.byte	0x50
 5550 0286 98000000 		.4byte	.LVL52
 5551 028a 9E000000 		.4byte	.LVL53
 5552 028e 0100     		.2byte	0x1
 5553 0290 50       		.byte	0x50
 5554 0291 BA000000 		.4byte	.LVL57
 5555 0295 C0000000 		.4byte	.LVL58
 5556 0299 0100     		.2byte	0x1
 5557 029b 50       		.byte	0x50
 5558 029c C8000000 		.4byte	.LVL59
 5559 02a0 D0000000 		.4byte	.LVL60
 5560 02a4 0100     		.2byte	0x1
 5561 02a6 50       		.byte	0x50
 5562 02a7 04010000 		.4byte	.LVL66
 5563 02ab 0A010000 		.4byte	.LVL67
 5564 02af 0100     		.2byte	0x1
 5565 02b1 50       		.byte	0x50
 5566 02b2 1E010000 		.4byte	.LVL69
 5567 02b6 42010000 		.4byte	.LVL71
 5568 02ba 0100     		.2byte	0x1
 5569 02bc 50       		.byte	0x50
 5570 02bd 48010000 		.4byte	.LVL72
 5571 02c1 4A010000 		.4byte	.LVL73
 5572 02c5 0100     		.2byte	0x1
 5573 02c7 50       		.byte	0x50
 5574 02c8 00000000 		.4byte	0
 5575 02cc 00000000 		.4byte	0
 5576              	.LLST12:
 5577 02d0 A4000000 		.4byte	.LVL54
 5578 02d4 A6000000 		.4byte	.LVL55
 5579 02d8 0100     		.2byte	0x1
 5580 02da 5A       		.byte	0x5a
 5581 02db A6000000 		.4byte	.LVL55
 5582 02df DE000000 		.4byte	.LVL62
 5583 02e3 0100     		.2byte	0x1
 5584 02e5 59       		.byte	0x59
 5585 02e6 DE000000 		.4byte	.LVL62
 5586 02ea E0000000 		.4byte	.LVL63
 5587 02ee 0100     		.2byte	0x1
 5588 02f0 53       		.byte	0x53
 5589 02f1 E0000000 		.4byte	.LVL63
ARM GAS  C:\Users\Phuong\AppData\Local\Temp\ccQXToeg.s 			page 113


 5590 02f5 1E010000 		.4byte	.LVL69
 5591 02f9 0100     		.2byte	0x1
 5592 02fb 5A       		.byte	0x5a
 5593 02fc 3A010000 		.4byte	.LVL70
 5594 0300 42010000 		.4byte	.LVL71
 5595 0304 0100     		.2byte	0x1
 5596 0306 59       		.byte	0x59
 5597 0307 42010000 		.4byte	.LVL71
 5598 030b 4A010000 		.4byte	.LVL73
 5599 030f 0100     		.2byte	0x1
 5600 0311 5A       		.byte	0x5a
 5601 0312 00000000 		.4byte	0
 5602 0316 00000000 		.4byte	0
 5603              	.LLST13:
 5604 031a 00000000 		.4byte	.LVL75
 5605 031e 09000000 		.4byte	.LVL76-1
 5606 0322 0100     		.2byte	0x1
 5607 0324 50       		.byte	0x50
 5608 0325 09000000 		.4byte	.LVL76-1
 5609 0329 0C000000 		.4byte	.LFE3
 5610 032d 0400     		.2byte	0x4
 5611 032f F3       		.byte	0xf3
 5612 0330 01       		.uleb128 0x1
 5613 0331 50       		.byte	0x50
 5614 0332 9F       		.byte	0x9f
 5615 0333 00000000 		.4byte	0
 5616 0337 00000000 		.4byte	0
 5617              	.LLST14:
 5618 033b 00000000 		.4byte	.LVL77
 5619 033f 0E000000 		.4byte	.LVL78
 5620 0343 0100     		.2byte	0x1
 5621 0345 50       		.byte	0x50
 5622 0346 0E000000 		.4byte	.LVL78
 5623 034a 56000000 		.4byte	.LVL90
 5624 034e 0100     		.2byte	0x1
 5625 0350 57       		.byte	0x57
 5626 0351 56000000 		.4byte	.LVL90
 5627 0355 58000000 		.4byte	.LFE4
 5628 0359 0400     		.2byte	0x4
 5629 035b F3       		.byte	0xf3
 5630 035c 01       		.uleb128 0x1
 5631 035d 50       		.byte	0x50
 5632 035e 9F       		.byte	0x9f
 5633 035f 00000000 		.4byte	0
 5634 0363 00000000 		.4byte	0
 5635              	.LLST15:
 5636 0367 00000000 		.4byte	.LVL77
 5637 036b 11000000 		.4byte	.LVL79-1
 5638 036f 0100     		.2byte	0x1
 5639 0371 51       		.byte	0x51
 5640 0372 11000000 		.4byte	.LVL79-1
 5641 0376 56000000 		.4byte	.LVL88
 5642 037a 0100     		.2byte	0x1
 5643 037c 54       		.byte	0x54
 5644 037d 56000000 		.4byte	.LVL88
 5645 0381 58000000 		.4byte	.LFE4
 5646 0385 0400     		.2byte	0x4
ARM GAS  C:\Users\Phuong\AppData\Local\Temp\ccQXToeg.s 			page 114


 5647 0387 F3       		.byte	0xf3
 5648 0388 01       		.uleb128 0x1
 5649 0389 51       		.byte	0x51
 5650 038a 9F       		.byte	0x9f
 5651 038b 00000000 		.4byte	0
 5652 038f 00000000 		.4byte	0
 5653              	.LLST16:
 5654 0393 00000000 		.4byte	.LVL77
 5655 0397 11000000 		.4byte	.LVL79-1
 5656 039b 0100     		.2byte	0x1
 5657 039d 52       		.byte	0x52
 5658 039e 11000000 		.4byte	.LVL79-1
 5659 03a2 56000000 		.4byte	.LVL89
 5660 03a6 0100     		.2byte	0x1
 5661 03a8 55       		.byte	0x55
 5662 03a9 56000000 		.4byte	.LVL89
 5663 03ad 58000000 		.4byte	.LFE4
 5664 03b1 0400     		.2byte	0x4
 5665 03b3 F3       		.byte	0xf3
 5666 03b4 01       		.uleb128 0x1
 5667 03b5 52       		.byte	0x52
 5668 03b6 9F       		.byte	0x9f
 5669 03b7 00000000 		.4byte	0
 5670 03bb 00000000 		.4byte	0
 5671              	.LLST17:
 5672 03bf 12000000 		.4byte	.LVL79
 5673 03c3 18000000 		.4byte	.LVL80
 5674 03c7 0100     		.2byte	0x1
 5675 03c9 50       		.byte	0x50
 5676 03ca 22000000 		.4byte	.LVL81
 5677 03ce 36000000 		.4byte	.LVL82
 5678 03d2 0100     		.2byte	0x1
 5679 03d4 50       		.byte	0x50
 5680 03d5 3A000000 		.4byte	.LVL83
 5681 03d9 42000000 		.4byte	.LVL84
 5682 03dd 0100     		.2byte	0x1
 5683 03df 50       		.byte	0x50
 5684 03e0 46000000 		.4byte	.LVL85
 5685 03e4 4C000000 		.4byte	.LVL86
 5686 03e8 0100     		.2byte	0x1
 5687 03ea 50       		.byte	0x50
 5688 03eb 00000000 		.4byte	0
 5689 03ef 00000000 		.4byte	0
 5690              	.LLST18:
 5691 03f3 00000000 		.4byte	.LVL91
 5692 03f7 16000000 		.4byte	.LVL94
 5693 03fb 0100     		.2byte	0x1
 5694 03fd 50       		.byte	0x50
 5695 03fe 16000000 		.4byte	.LVL94
 5696 0402 28010000 		.4byte	.LVL140
 5697 0406 0100     		.2byte	0x1
 5698 0408 57       		.byte	0x57
 5699 0409 28010000 		.4byte	.LVL140
 5700 040d 38010000 		.4byte	.LFE5
 5701 0411 0400     		.2byte	0x4
 5702 0413 F3       		.byte	0xf3
 5703 0414 01       		.uleb128 0x1
ARM GAS  C:\Users\Phuong\AppData\Local\Temp\ccQXToeg.s 			page 115


 5704 0415 50       		.byte	0x50
 5705 0416 9F       		.byte	0x9f
 5706 0417 00000000 		.4byte	0
 5707 041b 00000000 		.4byte	0
 5708              	.LLST19:
 5709 041f 00000000 		.4byte	.LVL91
 5710 0423 14000000 		.4byte	.LVL93
 5711 0427 0100     		.2byte	0x1
 5712 0429 51       		.byte	0x51
 5713 042a 14000000 		.4byte	.LVL93
 5714 042e 72000000 		.4byte	.LVL105
 5715 0432 0200     		.2byte	0x2
 5716 0434 91       		.byte	0x91
 5717 0435 58       		.sleb128 -40
 5718 0436 72000000 		.4byte	.LVL105
 5719 043a 1C010000 		.4byte	.LVL136
 5720 043e 0400     		.2byte	0x4
 5721 0440 F3       		.byte	0xf3
 5722 0441 01       		.uleb128 0x1
 5723 0442 51       		.byte	0x51
 5724 0443 9F       		.byte	0x9f
 5725 0444 1C010000 		.4byte	.LVL136
 5726 0448 24010000 		.4byte	.LVL138
 5727 044c 0200     		.2byte	0x2
 5728 044e 91       		.byte	0x91
 5729 044f 58       		.sleb128 -40
 5730 0450 24010000 		.4byte	.LVL138
 5731 0454 38010000 		.4byte	.LFE5
 5732 0458 0400     		.2byte	0x4
 5733 045a F3       		.byte	0xf3
 5734 045b 01       		.uleb128 0x1
 5735 045c 51       		.byte	0x51
 5736 045d 9F       		.byte	0x9f
 5737 045e 00000000 		.4byte	0
 5738 0462 00000000 		.4byte	0
 5739              	.LLST20:
 5740 0466 00000000 		.4byte	.LVL91
 5741 046a 19000000 		.4byte	.LVL95-1
 5742 046e 0100     		.2byte	0x1
 5743 0470 52       		.byte	0x52
 5744 0471 19000000 		.4byte	.LVL95-1
 5745 0475 38010000 		.4byte	.LFE5
 5746 0479 0200     		.2byte	0x2
 5747 047b 91       		.byte	0x91
 5748 047c 5C       		.sleb128 -36
 5749 047d 00000000 		.4byte	0
 5750 0481 00000000 		.4byte	0
 5751              	.LLST21:
 5752 0485 00000000 		.4byte	.LVL91
 5753 0489 19000000 		.4byte	.LVL95-1
 5754 048d 0100     		.2byte	0x1
 5755 048f 53       		.byte	0x53
 5756 0490 19000000 		.4byte	.LVL95-1
 5757 0494 38010000 		.4byte	.LFE5
 5758 0498 0200     		.2byte	0x2
 5759 049a 91       		.byte	0x91
 5760 049b 60       		.sleb128 -32
ARM GAS  C:\Users\Phuong\AppData\Local\Temp\ccQXToeg.s 			page 116


 5761 049c 00000000 		.4byte	0
 5762 04a0 00000000 		.4byte	0
 5763              	.LLST22:
 5764 04a4 34000000 		.4byte	.LVL98
 5765 04a8 3A000000 		.4byte	.LVL99
 5766 04ac 0100     		.2byte	0x1
 5767 04ae 50       		.byte	0x50
 5768 04af 42000000 		.4byte	.LVL100
 5769 04b3 4A000000 		.4byte	.LVL101
 5770 04b7 0100     		.2byte	0x1
 5771 04b9 50       		.byte	0x50
 5772 04ba 8C000000 		.4byte	.LVL106
 5773 04be 94000000 		.4byte	.LVL107
 5774 04c2 0100     		.2byte	0x1
 5775 04c4 50       		.byte	0x50
 5776 04c5 98000000 		.4byte	.LVL108
 5777 04c9 9E000000 		.4byte	.LVL109
 5778 04cd 0100     		.2byte	0x1
 5779 04cf 50       		.byte	0x50
 5780 04d0 C0000000 		.4byte	.LVL119
 5781 04d4 D6000000 		.4byte	.LVL123
 5782 04d8 0100     		.2byte	0x1
 5783 04da 50       		.byte	0x50
 5784 04db DA000000 		.4byte	.LVL124
 5785 04df F4000000 		.4byte	.LVL129
 5786 04e3 0100     		.2byte	0x1
 5787 04e5 50       		.byte	0x50
 5788 04e6 F8000000 		.4byte	.LVL130
 5789 04ea 1A010000 		.4byte	.LVL135
 5790 04ee 0100     		.2byte	0x1
 5791 04f0 50       		.byte	0x50
 5792 04f1 1A010000 		.4byte	.LVL135
 5793 04f5 1C010000 		.4byte	.LVL136
 5794 04f9 0500     		.2byte	0x5
 5795 04fb 70       		.byte	0x70
 5796 04fc 80E300   		.sleb128 12672
 5797 04ff 9F       		.byte	0x9f
 5798 0500 24010000 		.4byte	.LVL138
 5799 0504 26010000 		.4byte	.LVL139
 5800 0508 0100     		.2byte	0x1
 5801 050a 50       		.byte	0x50
 5802 050b 00000000 		.4byte	0
 5803 050f 00000000 		.4byte	0
 5804              	.LLST23:
 5805 0513 10000000 		.4byte	.LVL92
 5806 0517 22000000 		.4byte	.LVL96
 5807 051b 0200     		.2byte	0x2
 5808 051d 30       		.byte	0x30
 5809 051e 9F       		.byte	0x9f
 5810 051f 22000000 		.4byte	.LVL96
 5811 0523 24000000 		.4byte	.LVL97
 5812 0527 0100     		.2byte	0x1
 5813 0529 5A       		.byte	0x5a
 5814 052a 24000000 		.4byte	.LVL97
 5815 052e 56000000 		.4byte	.LVL103
 5816 0532 0100     		.2byte	0x1
 5817 0534 56       		.byte	0x56
ARM GAS  C:\Users\Phuong\AppData\Local\Temp\ccQXToeg.s 			page 117


 5818 0535 56000000 		.4byte	.LVL103
 5819 0539 61000000 		.4byte	.LVL104-1
 5820 053d 0100     		.2byte	0x1
 5821 053f 53       		.byte	0x53
 5822 0540 61000000 		.4byte	.LVL104-1
 5823 0544 AC000000 		.4byte	.LVL114
 5824 0548 0100     		.2byte	0x1
 5825 054a 5A       		.byte	0x5a
 5826 054b 1C010000 		.4byte	.LVL136
 5827 054f 20010000 		.4byte	.LVL137
 5828 0553 0200     		.2byte	0x2
 5829 0555 30       		.byte	0x30
 5830 0556 9F       		.byte	0x9f
 5831 0557 20010000 		.4byte	.LVL137
 5832 055b 24010000 		.4byte	.LVL138
 5833 055f 0100     		.2byte	0x1
 5834 0561 53       		.byte	0x53
 5835 0562 00000000 		.4byte	0
 5836 0566 00000000 		.4byte	0
 5837              	.LLST24:
 5838 056a A4000000 		.4byte	.LVL111
 5839 056e A6000000 		.4byte	.LVL112
 5840 0572 0100     		.2byte	0x1
 5841 0574 50       		.byte	0x50
 5842 0575 A6000000 		.4byte	.LVL112
 5843 0579 10010000 		.4byte	.LVL134
 5844 057d 0100     		.2byte	0x1
 5845 057f 56       		.byte	0x56
 5846 0580 00000000 		.4byte	0
 5847 0584 00000000 		.4byte	0
 5848              	.LLST25:
 5849 0588 AC000000 		.4byte	.LVL114
 5850 058c AE000000 		.4byte	.LVL115
 5851 0590 0100     		.2byte	0x1
 5852 0592 50       		.byte	0x50
 5853 0593 AE000000 		.4byte	.LVL115
 5854 0597 10010000 		.4byte	.LVL134
 5855 059b 0100     		.2byte	0x1
 5856 059d 5A       		.byte	0x5a
 5857 059e 00000000 		.4byte	0
 5858 05a2 00000000 		.4byte	0
 5859              	.LLST26:
 5860 05a6 B4000000 		.4byte	.LVL117
 5861 05aa BC000000 		.4byte	.LVL118
 5862 05ae 0100     		.2byte	0x1
 5863 05b0 50       		.byte	0x50
 5864 05b1 BC000000 		.4byte	.LVL118
 5865 05b5 06010000 		.4byte	.LVL133
 5866 05b9 0100     		.2byte	0x1
 5867 05bb 54       		.byte	0x54
 5868 05bc 00000000 		.4byte	0
 5869 05c0 00000000 		.4byte	0
 5870              	.LLST27:
 5871 05c4 B4000000 		.4byte	.LVL117
 5872 05c8 C4000000 		.4byte	.LVL120
 5873 05cc 0200     		.2byte	0x2
 5874 05ce 91       		.byte	0x91
ARM GAS  C:\Users\Phuong\AppData\Local\Temp\ccQXToeg.s 			page 118


 5875 05cf 5C       		.sleb128 -36
 5876 05d0 C4000000 		.4byte	.LVL120
 5877 05d4 CC000000 		.4byte	.LVL121
 5878 05d8 0600     		.2byte	0x6
 5879 05da 91       		.byte	0x91
 5880 05db 5C       		.sleb128 -36
 5881 05dc 06       		.byte	0x6
 5882 05dd 23       		.byte	0x23
 5883 05de 01       		.uleb128 0x1
 5884 05df 9F       		.byte	0x9f
 5885 05e0 D0000000 		.4byte	.LVL122
 5886 05e4 DE000000 		.4byte	.LVL125
 5887 05e8 0100     		.2byte	0x1
 5888 05ea 55       		.byte	0x55
 5889 05eb DE000000 		.4byte	.LVL125
 5890 05ef E6000000 		.4byte	.LVL126
 5891 05f3 0300     		.2byte	0x3
 5892 05f5 75       		.byte	0x75
 5893 05f6 01       		.sleb128 1
 5894 05f7 9F       		.byte	0x9f
 5895 05f8 E6000000 		.4byte	.LVL126
 5896 05fc EC000000 		.4byte	.LVL127
 5897 0600 0100     		.2byte	0x1
 5898 0602 53       		.byte	0x53
 5899 0603 EC000000 		.4byte	.LVL127
 5900 0607 EE000000 		.4byte	.LVL128
 5901 060b 0300     		.2byte	0x3
 5902 060d 75       		.byte	0x75
 5903 060e 02       		.sleb128 2
 5904 060f 9F       		.byte	0x9f
 5905 0610 EE000000 		.4byte	.LVL128
 5906 0614 F7000000 		.4byte	.LVL130-1
 5907 0618 0100     		.2byte	0x1
 5908 061a 53       		.byte	0x53
 5909 061b F7000000 		.4byte	.LVL130-1
 5910 061f FC000000 		.4byte	.LVL131
 5911 0623 0100     		.2byte	0x1
 5912 0625 55       		.byte	0x55
 5913 0626 FC000000 		.4byte	.LVL131
 5914 062a 02010000 		.4byte	.LVL132
 5915 062e 0300     		.2byte	0x3
 5916 0630 75       		.byte	0x75
 5917 0631 01       		.sleb128 1
 5918 0632 9F       		.byte	0x9f
 5919 0633 02010000 		.4byte	.LVL132
 5920 0637 06010000 		.4byte	.LVL133
 5921 063b 0100     		.2byte	0x1
 5922 063d 53       		.byte	0x53
 5923 063e 06010000 		.4byte	.LVL133
 5924 0642 10010000 		.4byte	.LVL134
 5925 0646 0100     		.2byte	0x1
 5926 0648 54       		.byte	0x54
 5927 0649 00000000 		.4byte	0
 5928 064d 00000000 		.4byte	0
 5929              	.LLST28:
 5930 0651 00000000 		.4byte	.LVL141
 5931 0655 16000000 		.4byte	.LVL142
ARM GAS  C:\Users\Phuong\AppData\Local\Temp\ccQXToeg.s 			page 119


 5932 0659 0100     		.2byte	0x1
 5933 065b 50       		.byte	0x50
 5934 065c 16000000 		.4byte	.LVL142
 5935 0660 40000000 		.4byte	.LVL150
 5936 0664 0100     		.2byte	0x1
 5937 0666 54       		.byte	0x54
 5938 0667 40000000 		.4byte	.LVL150
 5939 066b 42000000 		.4byte	.LVL151
 5940 066f 0100     		.2byte	0x1
 5941 0671 50       		.byte	0x50
 5942 0672 42000000 		.4byte	.LVL151
 5943 0676 44000000 		.4byte	.LVL152
 5944 067a 0100     		.2byte	0x1
 5945 067c 54       		.byte	0x54
 5946 067d 44000000 		.4byte	.LVL152
 5947 0681 46000000 		.4byte	.LVL153
 5948 0685 0100     		.2byte	0x1
 5949 0687 50       		.byte	0x50
 5950 0688 46000000 		.4byte	.LVL153
 5951 068c 48000000 		.4byte	.LVL154
 5952 0690 0100     		.2byte	0x1
 5953 0692 54       		.byte	0x54
 5954 0693 48000000 		.4byte	.LVL154
 5955 0697 4A000000 		.4byte	.LVL155
 5956 069b 0100     		.2byte	0x1
 5957 069d 50       		.byte	0x50
 5958 069e 4A000000 		.4byte	.LVL155
 5959 06a2 4A000000 		.4byte	.LVL156
 5960 06a6 0100     		.2byte	0x1
 5961 06a8 54       		.byte	0x54
 5962 06a9 4A000000 		.4byte	.LVL156
 5963 06ad 54000000 		.4byte	.LFE6
 5964 06b1 0400     		.2byte	0x4
 5965 06b3 F3       		.byte	0xf3
 5966 06b4 01       		.uleb128 0x1
 5967 06b5 50       		.byte	0x50
 5968 06b6 9F       		.byte	0x9f
 5969 06b7 00000000 		.4byte	0
 5970 06bb 00000000 		.4byte	0
 5971              	.LLST29:
 5972 06bf 00000000 		.4byte	.LVL141
 5973 06c3 19000000 		.4byte	.LVL143-1
 5974 06c7 0100     		.2byte	0x1
 5975 06c9 51       		.byte	0x51
 5976 06ca 19000000 		.4byte	.LVL143-1
 5977 06ce 40000000 		.4byte	.LVL150
 5978 06d2 0400     		.2byte	0x4
 5979 06d4 F3       		.byte	0xf3
 5980 06d5 01       		.uleb128 0x1
 5981 06d6 51       		.byte	0x51
 5982 06d7 9F       		.byte	0x9f
 5983 06d8 40000000 		.4byte	.LVL150
 5984 06dc 4A000000 		.4byte	.LVL155
 5985 06e0 0100     		.2byte	0x1
 5986 06e2 51       		.byte	0x51
 5987 06e3 4A000000 		.4byte	.LVL155
 5988 06e7 54000000 		.4byte	.LFE6
ARM GAS  C:\Users\Phuong\AppData\Local\Temp\ccQXToeg.s 			page 120


 5989 06eb 0400     		.2byte	0x4
 5990 06ed F3       		.byte	0xf3
 5991 06ee 01       		.uleb128 0x1
 5992 06ef 51       		.byte	0x51
 5993 06f0 9F       		.byte	0x9f
 5994 06f1 00000000 		.4byte	0
 5995 06f5 00000000 		.4byte	0
 5996              	.LLST30:
 5997 06f9 00000000 		.4byte	.LVL141
 5998 06fd 19000000 		.4byte	.LVL143-1
 5999 0701 0100     		.2byte	0x1
 6000 0703 52       		.byte	0x52
 6001 0704 19000000 		.4byte	.LVL143-1
 6002 0708 40000000 		.4byte	.LVL150
 6003 070c 0100     		.2byte	0x1
 6004 070e 55       		.byte	0x55
 6005 070f 40000000 		.4byte	.LVL150
 6006 0713 4A000000 		.4byte	.LVL155
 6007 0717 0100     		.2byte	0x1
 6008 0719 52       		.byte	0x52
 6009 071a 4A000000 		.4byte	.LVL155
 6010 071e 4A000000 		.4byte	.LVL157
 6011 0722 0100     		.2byte	0x1
 6012 0724 55       		.byte	0x55
 6013 0725 4A000000 		.4byte	.LVL157
 6014 0729 54000000 		.4byte	.LFE6
 6015 072d 0400     		.2byte	0x4
 6016 072f F3       		.byte	0xf3
 6017 0730 01       		.uleb128 0x1
 6018 0731 52       		.byte	0x52
 6019 0732 9F       		.byte	0x9f
 6020 0733 00000000 		.4byte	0
 6021 0737 00000000 		.4byte	0
 6022              	.LLST31:
 6023 073b 1A000000 		.4byte	.LVL143
 6024 073f 20000000 		.4byte	.LVL144
 6025 0743 0100     		.2byte	0x1
 6026 0745 50       		.byte	0x50
 6027 0746 28000000 		.4byte	.LVL145
 6028 074a 32000000 		.4byte	.LVL146
 6029 074e 0100     		.2byte	0x1
 6030 0750 50       		.byte	0x50
 6031 0751 32000000 		.4byte	.LVL146
 6032 0755 34000000 		.4byte	.LVL147
 6033 0759 0500     		.2byte	0x5
 6034 075b 70       		.byte	0x70
 6035 075c 80EB00   		.sleb128 13696
 6036 075f 9F       		.byte	0x9f
 6037 0760 34000000 		.4byte	.LVL147
 6038 0764 36000000 		.4byte	.LVL148
 6039 0768 0100     		.2byte	0x1
 6040 076a 50       		.byte	0x50
 6041 076b 00000000 		.4byte	0
 6042 076f 00000000 		.4byte	0
 6043              	.LLST32:
 6044 0773 00000000 		.4byte	.LVL158
 6045 0777 12000000 		.4byte	.LVL159
ARM GAS  C:\Users\Phuong\AppData\Local\Temp\ccQXToeg.s 			page 121


 6046 077b 0100     		.2byte	0x1
 6047 077d 50       		.byte	0x50
 6048 077e 12000000 		.4byte	.LVL159
 6049 0782 15000000 		.4byte	.LVL160-1
 6050 0786 0300     		.2byte	0x3
 6051 0788 70       		.byte	0x70
 6052 0789 4C       		.sleb128 -52
 6053 078a 9F       		.byte	0x9f
 6054 078b 15000000 		.4byte	.LVL160-1
 6055 078f 22000000 		.4byte	.LVL162
 6056 0793 0400     		.2byte	0x4
 6057 0795 F3       		.byte	0xf3
 6058 0796 01       		.uleb128 0x1
 6059 0797 50       		.byte	0x50
 6060 0798 9F       		.byte	0x9f
 6061 0799 22000000 		.4byte	.LVL162
 6062 079d 24000000 		.4byte	.LVL163
 6063 07a1 0100     		.2byte	0x1
 6064 07a3 50       		.byte	0x50
 6065 07a4 24000000 		.4byte	.LVL163
 6066 07a8 26000000 		.4byte	.LVL164
 6067 07ac 0400     		.2byte	0x4
 6068 07ae F3       		.byte	0xf3
 6069 07af 01       		.uleb128 0x1
 6070 07b0 50       		.byte	0x50
 6071 07b1 9F       		.byte	0x9f
 6072 07b2 26000000 		.4byte	.LVL164
 6073 07b6 28000000 		.4byte	.LVL165
 6074 07ba 0100     		.2byte	0x1
 6075 07bc 50       		.byte	0x50
 6076 07bd 28000000 		.4byte	.LVL165
 6077 07c1 2A000000 		.4byte	.LVL166
 6078 07c5 0400     		.2byte	0x4
 6079 07c7 F3       		.byte	0xf3
 6080 07c8 01       		.uleb128 0x1
 6081 07c9 50       		.byte	0x50
 6082 07ca 9F       		.byte	0x9f
 6083 07cb 2A000000 		.4byte	.LVL166
 6084 07cf 2C000000 		.4byte	.LVL167
 6085 07d3 0100     		.2byte	0x1
 6086 07d5 50       		.byte	0x50
 6087 07d6 2C000000 		.4byte	.LVL167
 6088 07da 3C000000 		.4byte	.LFE7
 6089 07de 0400     		.2byte	0x4
 6090 07e0 F3       		.byte	0xf3
 6091 07e1 01       		.uleb128 0x1
 6092 07e2 50       		.byte	0x50
 6093 07e3 9F       		.byte	0x9f
 6094 07e4 00000000 		.4byte	0
 6095 07e8 00000000 		.4byte	0
 6096              	.LLST33:
 6097 07ec 00000000 		.4byte	.LVL158
 6098 07f0 15000000 		.4byte	.LVL160-1
 6099 07f4 0100     		.2byte	0x1
 6100 07f6 51       		.byte	0x51
 6101 07f7 15000000 		.4byte	.LVL160-1
 6102 07fb 22000000 		.4byte	.LVL162
ARM GAS  C:\Users\Phuong\AppData\Local\Temp\ccQXToeg.s 			page 122


 6103 07ff 0400     		.2byte	0x4
 6104 0801 F3       		.byte	0xf3
 6105 0802 01       		.uleb128 0x1
 6106 0803 51       		.byte	0x51
 6107 0804 9F       		.byte	0x9f
 6108 0805 22000000 		.4byte	.LVL162
 6109 0809 2E000000 		.4byte	.LVL168
 6110 080d 0100     		.2byte	0x1
 6111 080f 51       		.byte	0x51
 6112 0810 2E000000 		.4byte	.LVL168
 6113 0814 3C000000 		.4byte	.LFE7
 6114 0818 0400     		.2byte	0x4
 6115 081a F3       		.byte	0xf3
 6116 081b 01       		.uleb128 0x1
 6117 081c 51       		.byte	0x51
 6118 081d 9F       		.byte	0x9f
 6119 081e 00000000 		.4byte	0
 6120 0822 00000000 		.4byte	0
 6121              	.LLST34:
 6122 0826 00000000 		.4byte	.LVL158
 6123 082a 15000000 		.4byte	.LVL160-1
 6124 082e 0100     		.2byte	0x1
 6125 0830 52       		.byte	0x52
 6126 0831 15000000 		.4byte	.LVL160-1
 6127 0835 22000000 		.4byte	.LVL162
 6128 0839 0400     		.2byte	0x4
 6129 083b F3       		.byte	0xf3
 6130 083c 01       		.uleb128 0x1
 6131 083d 52       		.byte	0x52
 6132 083e 9F       		.byte	0x9f
 6133 083f 22000000 		.4byte	.LVL162
 6134 0843 2E000000 		.4byte	.LVL168
 6135 0847 0100     		.2byte	0x1
 6136 0849 52       		.byte	0x52
 6137 084a 2E000000 		.4byte	.LVL168
 6138 084e 3C000000 		.4byte	.LFE7
 6139 0852 0400     		.2byte	0x4
 6140 0854 F3       		.byte	0xf3
 6141 0855 01       		.uleb128 0x1
 6142 0856 52       		.byte	0x52
 6143 0857 9F       		.byte	0x9f
 6144 0858 00000000 		.4byte	0
 6145 085c 00000000 		.4byte	0
 6146              	.LLST35:
 6147 0860 16000000 		.4byte	.LVL160
 6148 0864 20000000 		.4byte	.LVL161
 6149 0868 0100     		.2byte	0x1
 6150 086a 50       		.byte	0x50
 6151 086b 20000000 		.4byte	.LVL161
 6152 086f 22000000 		.4byte	.LVL162
 6153 0873 0500     		.2byte	0x5
 6154 0875 70       		.byte	0x70
 6155 0876 80E400   		.sleb128 12800
 6156 0879 9F       		.byte	0x9f
 6157 087a 2E000000 		.4byte	.LVL168
 6158 087e 30000000 		.4byte	.LVL169
 6159 0882 0100     		.2byte	0x1
ARM GAS  C:\Users\Phuong\AppData\Local\Temp\ccQXToeg.s 			page 123


 6160 0884 50       		.byte	0x50
 6161 0885 00000000 		.4byte	0
 6162 0889 00000000 		.4byte	0
 6163              	.LLST36:
 6164 088d 00000000 		.4byte	.LVL170
 6165 0891 26000000 		.4byte	.LVL174
 6166 0895 0100     		.2byte	0x1
 6167 0897 50       		.byte	0x50
 6168 0898 26000000 		.4byte	.LVL174
 6169 089c C0000000 		.4byte	.LVL193
 6170 08a0 0100     		.2byte	0x1
 6171 08a2 56       		.byte	0x56
 6172 08a3 C0000000 		.4byte	.LVL193
 6173 08a7 C2000000 		.4byte	.LVL194
 6174 08ab 0100     		.2byte	0x1
 6175 08ad 50       		.byte	0x50
 6176 08ae C2000000 		.4byte	.LVL194
 6177 08b2 C4000000 		.4byte	.LVL195
 6178 08b6 0100     		.2byte	0x1
 6179 08b8 56       		.byte	0x56
 6180 08b9 C4000000 		.4byte	.LVL195
 6181 08bd C6000000 		.4byte	.LVL196
 6182 08c1 0100     		.2byte	0x1
 6183 08c3 50       		.byte	0x50
 6184 08c4 C6000000 		.4byte	.LVL196
 6185 08c8 C8000000 		.4byte	.LVL197
 6186 08cc 0100     		.2byte	0x1
 6187 08ce 56       		.byte	0x56
 6188 08cf C8000000 		.4byte	.LVL197
 6189 08d3 CA000000 		.4byte	.LVL198
 6190 08d7 0100     		.2byte	0x1
 6191 08d9 50       		.byte	0x50
 6192 08da CA000000 		.4byte	.LVL198
 6193 08de D8000000 		.4byte	.LVL203
 6194 08e2 0100     		.2byte	0x1
 6195 08e4 56       		.byte	0x56
 6196 08e5 D8000000 		.4byte	.LVL203
 6197 08e9 E8000000 		.4byte	.LFE8
 6198 08ed 0400     		.2byte	0x4
 6199 08ef F3       		.byte	0xf3
 6200 08f0 01       		.uleb128 0x1
 6201 08f1 50       		.byte	0x50
 6202 08f2 9F       		.byte	0x9f
 6203 08f3 00000000 		.4byte	0
 6204 08f7 00000000 		.4byte	0
 6205              	.LLST37:
 6206 08fb 00000000 		.4byte	.LVL170
 6207 08ff 24000000 		.4byte	.LVL173
 6208 0903 0100     		.2byte	0x1
 6209 0905 51       		.byte	0x51
 6210 0906 24000000 		.4byte	.LVL173
 6211 090a 88000000 		.4byte	.LVL186
 6212 090e 0200     		.2byte	0x2
 6213 0910 91       		.byte	0x91
 6214 0911 58       		.sleb128 -40
 6215 0912 88000000 		.4byte	.LVL186
 6216 0916 C0000000 		.4byte	.LVL193
ARM GAS  C:\Users\Phuong\AppData\Local\Temp\ccQXToeg.s 			page 124


 6217 091a 0400     		.2byte	0x4
 6218 091c F3       		.byte	0xf3
 6219 091d 01       		.uleb128 0x1
 6220 091e 51       		.byte	0x51
 6221 091f 9F       		.byte	0x9f
 6222 0920 C0000000 		.4byte	.LVL193
 6223 0924 CC000000 		.4byte	.LVL199
 6224 0928 0100     		.2byte	0x1
 6225 092a 51       		.byte	0x51
 6226 092b CC000000 		.4byte	.LVL199
 6227 092f D4000000 		.4byte	.LVL201
 6228 0933 0200     		.2byte	0x2
 6229 0935 91       		.byte	0x91
 6230 0936 58       		.sleb128 -40
 6231 0937 D4000000 		.4byte	.LVL201
 6232 093b E8000000 		.4byte	.LFE8
 6233 093f 0400     		.2byte	0x4
 6234 0941 F3       		.byte	0xf3
 6235 0942 01       		.uleb128 0x1
 6236 0943 51       		.byte	0x51
 6237 0944 9F       		.byte	0x9f
 6238 0945 00000000 		.4byte	0
 6239 0949 00000000 		.4byte	0
 6240              	.LLST38:
 6241 094d 00000000 		.4byte	.LVL170
 6242 0951 29000000 		.4byte	.LVL175-1
 6243 0955 0100     		.2byte	0x1
 6244 0957 52       		.byte	0x52
 6245 0958 29000000 		.4byte	.LVL175-1
 6246 095c C0000000 		.4byte	.LVL193
 6247 0960 0200     		.2byte	0x2
 6248 0962 91       		.byte	0x91
 6249 0963 5C       		.sleb128 -36
 6250 0964 C0000000 		.4byte	.LVL193
 6251 0968 CC000000 		.4byte	.LVL199
 6252 096c 0100     		.2byte	0x1
 6253 096e 52       		.byte	0x52
 6254 096f CC000000 		.4byte	.LVL199
 6255 0973 E8000000 		.4byte	.LFE8
 6256 0977 0200     		.2byte	0x2
 6257 0979 91       		.byte	0x91
 6258 097a 5C       		.sleb128 -36
 6259 097b 00000000 		.4byte	0
 6260 097f 00000000 		.4byte	0
 6261              	.LLST39:
 6262 0983 00000000 		.4byte	.LVL170
 6263 0987 1C000000 		.4byte	.LVL172
 6264 098b 0100     		.2byte	0x1
 6265 098d 53       		.byte	0x53
 6266 098e 1C000000 		.4byte	.LVL172
 6267 0992 C0000000 		.4byte	.LVL193
 6268 0996 0100     		.2byte	0x1
 6269 0998 57       		.byte	0x57
 6270 0999 C0000000 		.4byte	.LVL193
 6271 099d C8000000 		.4byte	.LVL197
 6272 09a1 0100     		.2byte	0x1
 6273 09a3 53       		.byte	0x53
ARM GAS  C:\Users\Phuong\AppData\Local\Temp\ccQXToeg.s 			page 125


 6274 09a4 C8000000 		.4byte	.LVL197
 6275 09a8 D8000000 		.4byte	.LVL204
 6276 09ac 0100     		.2byte	0x1
 6277 09ae 57       		.byte	0x57
 6278 09af D8000000 		.4byte	.LVL204
 6279 09b3 E8000000 		.4byte	.LFE8
 6280 09b7 0400     		.2byte	0x4
 6281 09b9 F3       		.byte	0xf3
 6282 09ba 01       		.uleb128 0x1
 6283 09bb 53       		.byte	0x53
 6284 09bc 9F       		.byte	0x9f
 6285 09bd 00000000 		.4byte	0
 6286 09c1 00000000 		.4byte	0
 6287              	.LLST40:
 6288 09c5 46000000 		.4byte	.LVL178
 6289 09c9 4C000000 		.4byte	.LVL179
 6290 09cd 0100     		.2byte	0x1
 6291 09cf 50       		.byte	0x50
 6292 09d0 54000000 		.4byte	.LVL180
 6293 09d4 5C000000 		.4byte	.LVL181
 6294 09d8 0100     		.2byte	0x1
 6295 09da 50       		.byte	0x50
 6296 09db 9A000000 		.4byte	.LVL187
 6297 09df A2000000 		.4byte	.LVL188
 6298 09e3 0100     		.2byte	0x1
 6299 09e5 50       		.byte	0x50
 6300 09e6 A6000000 		.4byte	.LVL189
 6301 09ea B0000000 		.4byte	.LVL190
 6302 09ee 0100     		.2byte	0x1
 6303 09f0 50       		.byte	0x50
 6304 09f1 B4000000 		.4byte	.LVL191
 6305 09f5 BE000000 		.4byte	.LVL192
 6306 09f9 0100     		.2byte	0x1
 6307 09fb 50       		.byte	0x50
 6308 09fc BE000000 		.4byte	.LVL192
 6309 0a00 C0000000 		.4byte	.LVL193
 6310 0a04 0500     		.2byte	0x5
 6311 0a06 70       		.byte	0x70
 6312 0a07 80E500   		.sleb128 12928
 6313 0a0a 9F       		.byte	0x9f
 6314 0a0b D4000000 		.4byte	.LVL201
 6315 0a0f D6000000 		.4byte	.LVL202
 6316 0a13 0100     		.2byte	0x1
 6317 0a15 50       		.byte	0x50
 6318 0a16 00000000 		.4byte	0
 6319 0a1a 00000000 		.4byte	0
 6320              	.LLST41:
 6321 0a1e 12000000 		.4byte	.LVL171
 6322 0a22 34000000 		.4byte	.LVL176
 6323 0a26 0200     		.2byte	0x2
 6324 0a28 30       		.byte	0x30
 6325 0a29 9F       		.byte	0x9f
 6326 0a2a 34000000 		.4byte	.LVL176
 6327 0a2e 36000000 		.4byte	.LVL177
 6328 0a32 0100     		.2byte	0x1
 6329 0a34 5B       		.byte	0x5b
 6330 0a35 36000000 		.4byte	.LVL177
ARM GAS  C:\Users\Phuong\AppData\Local\Temp\ccQXToeg.s 			page 126


 6331 0a39 6A000000 		.4byte	.LVL183
 6332 0a3d 0100     		.2byte	0x1
 6333 0a3f 5A       		.byte	0x5a
 6334 0a40 6A000000 		.4byte	.LVL183
 6335 0a44 6C000000 		.4byte	.LVL184
 6336 0a48 0100     		.2byte	0x1
 6337 0a4a 53       		.byte	0x53
 6338 0a4b 6C000000 		.4byte	.LVL184
 6339 0a4f B4000000 		.4byte	.LVL191
 6340 0a53 0100     		.2byte	0x1
 6341 0a55 5B       		.byte	0x5b
 6342 0a56 C0000000 		.4byte	.LVL193
 6343 0a5a D0000000 		.4byte	.LVL200
 6344 0a5e 0200     		.2byte	0x2
 6345 0a60 30       		.byte	0x30
 6346 0a61 9F       		.byte	0x9f
 6347 0a62 D0000000 		.4byte	.LVL200
 6348 0a66 D4000000 		.4byte	.LVL201
 6349 0a6a 0100     		.2byte	0x1
 6350 0a6c 5B       		.byte	0x5b
 6351 0a6d 00000000 		.4byte	0
 6352 0a71 00000000 		.4byte	0
 6353              	.LLST42:
 6354 0a75 00000000 		.4byte	.LVL205
 6355 0a79 1C000000 		.4byte	.LVL208
 6356 0a7d 0100     		.2byte	0x1
 6357 0a7f 50       		.byte	0x50
 6358 0a80 1C000000 		.4byte	.LVL208
 6359 0a84 D0000000 		.4byte	.LVL238
 6360 0a88 0100     		.2byte	0x1
 6361 0a8a 56       		.byte	0x56
 6362 0a8b D0000000 		.4byte	.LVL238
 6363 0a8f D2000000 		.4byte	.LVL239
 6364 0a93 0100     		.2byte	0x1
 6365 0a95 50       		.byte	0x50
 6366 0a96 D2000000 		.4byte	.LVL239
 6367 0a9a D4000000 		.4byte	.LVL240
 6368 0a9e 0100     		.2byte	0x1
 6369 0aa0 56       		.byte	0x56
 6370 0aa1 D4000000 		.4byte	.LVL240
 6371 0aa5 D6000000 		.4byte	.LVL241
 6372 0aa9 0100     		.2byte	0x1
 6373 0aab 50       		.byte	0x50
 6374 0aac D6000000 		.4byte	.LVL241
 6375 0ab0 DC000000 		.4byte	.LVL244
 6376 0ab4 0100     		.2byte	0x1
 6377 0ab6 56       		.byte	0x56
 6378 0ab7 DC000000 		.4byte	.LVL244
 6379 0abb E8000000 		.4byte	.LFE10
 6380 0abf 0400     		.2byte	0x4
 6381 0ac1 F3       		.byte	0xf3
 6382 0ac2 01       		.uleb128 0x1
 6383 0ac3 50       		.byte	0x50
 6384 0ac4 9F       		.byte	0x9f
 6385 0ac5 00000000 		.4byte	0
 6386 0ac9 00000000 		.4byte	0
 6387              	.LLST43:
ARM GAS  C:\Users\Phuong\AppData\Local\Temp\ccQXToeg.s 			page 127


 6388 0acd 00000000 		.4byte	.LVL205
 6389 0ad1 1A000000 		.4byte	.LVL207
 6390 0ad5 0100     		.2byte	0x1
 6391 0ad7 51       		.byte	0x51
 6392 0ad8 1A000000 		.4byte	.LVL207
 6393 0adc D0000000 		.4byte	.LVL238
 6394 0ae0 0200     		.2byte	0x2
 6395 0ae2 91       		.byte	0x91
 6396 0ae3 50       		.sleb128 -48
 6397 0ae4 D0000000 		.4byte	.LVL238
 6398 0ae8 D8000000 		.4byte	.LVL242
 6399 0aec 0100     		.2byte	0x1
 6400 0aee 51       		.byte	0x51
 6401 0aef D8000000 		.4byte	.LVL242
 6402 0af3 E8000000 		.4byte	.LFE10
 6403 0af7 0200     		.2byte	0x2
 6404 0af9 91       		.byte	0x91
 6405 0afa 50       		.sleb128 -48
 6406 0afb 00000000 		.4byte	0
 6407 0aff 00000000 		.4byte	0
 6408              	.LLST44:
 6409 0b03 00000000 		.4byte	.LVL205
 6410 0b07 1F000000 		.4byte	.LVL209-1
 6411 0b0b 0100     		.2byte	0x1
 6412 0b0d 52       		.byte	0x52
 6413 0b0e 1F000000 		.4byte	.LVL209-1
 6414 0b12 D0000000 		.4byte	.LVL238
 6415 0b16 0400     		.2byte	0x4
 6416 0b18 F3       		.byte	0xf3
 6417 0b19 01       		.uleb128 0x1
 6418 0b1a 52       		.byte	0x52
 6419 0b1b 9F       		.byte	0x9f
 6420 0b1c D0000000 		.4byte	.LVL238
 6421 0b20 D8000000 		.4byte	.LVL242
 6422 0b24 0100     		.2byte	0x1
 6423 0b26 52       		.byte	0x52
 6424 0b27 D8000000 		.4byte	.LVL242
 6425 0b2b E8000000 		.4byte	.LFE10
 6426 0b2f 0400     		.2byte	0x4
 6427 0b31 F3       		.byte	0xf3
 6428 0b32 01       		.uleb128 0x1
 6429 0b33 52       		.byte	0x52
 6430 0b34 9F       		.byte	0x9f
 6431 0b35 00000000 		.4byte	0
 6432 0b39 00000000 		.4byte	0
 6433              	.LLST45:
 6434 0b3d 00000000 		.4byte	.LVL205
 6435 0b41 0E000000 		.4byte	.LVL206
 6436 0b45 0100     		.2byte	0x1
 6437 0b47 53       		.byte	0x53
 6438 0b48 0E000000 		.4byte	.LVL206
 6439 0b4c D0000000 		.4byte	.LVL238
 6440 0b50 0200     		.2byte	0x2
 6441 0b52 91       		.byte	0x91
 6442 0b53 54       		.sleb128 -44
 6443 0b54 D0000000 		.4byte	.LVL238
 6444 0b58 D4000000 		.4byte	.LVL240
ARM GAS  C:\Users\Phuong\AppData\Local\Temp\ccQXToeg.s 			page 128


 6445 0b5c 0100     		.2byte	0x1
 6446 0b5e 53       		.byte	0x53
 6447 0b5f D4000000 		.4byte	.LVL240
 6448 0b63 E8000000 		.4byte	.LFE10
 6449 0b67 0200     		.2byte	0x2
 6450 0b69 91       		.byte	0x91
 6451 0b6a 54       		.sleb128 -44
 6452 0b6b 00000000 		.4byte	0
 6453 0b6f 00000000 		.4byte	0
 6454              	.LLST46:
 6455 0b73 20000000 		.4byte	.LVL209
 6456 0b77 26000000 		.4byte	.LVL210
 6457 0b7b 0100     		.2byte	0x1
 6458 0b7d 50       		.byte	0x50
 6459 0b7e 3C000000 		.4byte	.LVL213
 6460 0b82 46000000 		.4byte	.LVL214
 6461 0b86 0100     		.2byte	0x1
 6462 0b88 50       		.byte	0x50
 6463 0b89 46000000 		.4byte	.LVL214
 6464 0b8d 4C000000 		.4byte	.LVL216
 6465 0b91 0100     		.2byte	0x1
 6466 0b93 54       		.byte	0x54
 6467 0b94 4C000000 		.4byte	.LVL216
 6468 0b98 54000000 		.4byte	.LVL217
 6469 0b9c 0100     		.2byte	0x1
 6470 0b9e 50       		.byte	0x50
 6471 0b9f 54000000 		.4byte	.LVL217
 6472 0ba3 5A000000 		.4byte	.LVL219
 6473 0ba7 0100     		.2byte	0x1
 6474 0ba9 54       		.byte	0x54
 6475 0baa 5A000000 		.4byte	.LVL219
 6476 0bae 5E000000 		.4byte	.LVL220
 6477 0bb2 0100     		.2byte	0x1
 6478 0bb4 50       		.byte	0x50
 6479 0bb5 68000000 		.4byte	.LVL222
 6480 0bb9 7E000000 		.4byte	.LVL223
 6481 0bbd 0100     		.2byte	0x1
 6482 0bbf 50       		.byte	0x50
 6483 0bc0 7E000000 		.4byte	.LVL223
 6484 0bc4 84000000 		.4byte	.LVL225
 6485 0bc8 0100     		.2byte	0x1
 6486 0bca 54       		.byte	0x54
 6487 0bcb 84000000 		.4byte	.LVL225
 6488 0bcf 94000000 		.4byte	.LVL226
 6489 0bd3 0100     		.2byte	0x1
 6490 0bd5 50       		.byte	0x50
 6491 0bd6 94000000 		.4byte	.LVL226
 6492 0bda 9A000000 		.4byte	.LVL228
 6493 0bde 0100     		.2byte	0x1
 6494 0be0 54       		.byte	0x54
 6495 0be1 9A000000 		.4byte	.LVL228
 6496 0be5 A2000000 		.4byte	.LVL229
 6497 0be9 0100     		.2byte	0x1
 6498 0beb 50       		.byte	0x50
 6499 0bec A2000000 		.4byte	.LVL229
 6500 0bf0 A8000000 		.4byte	.LVL231
 6501 0bf4 0100     		.2byte	0x1
ARM GAS  C:\Users\Phuong\AppData\Local\Temp\ccQXToeg.s 			page 129


 6502 0bf6 54       		.byte	0x54
 6503 0bf7 A8000000 		.4byte	.LVL231
 6504 0bfb AC000000 		.4byte	.LVL232
 6505 0bff 0100     		.2byte	0x1
 6506 0c01 50       		.byte	0x50
 6507 0c02 AC000000 		.4byte	.LVL232
 6508 0c06 C0000000 		.4byte	.LVL235
 6509 0c0a 0100     		.2byte	0x1
 6510 0c0c 54       		.byte	0x54
 6511 0c0d C0000000 		.4byte	.LVL235
 6512 0c11 C2000000 		.4byte	.LVL236
 6513 0c15 0100     		.2byte	0x1
 6514 0c17 50       		.byte	0x50
 6515 0c18 C2000000 		.4byte	.LVL236
 6516 0c1c D0000000 		.4byte	.LVL238
 6517 0c20 0100     		.2byte	0x1
 6518 0c22 54       		.byte	0x54
 6519 0c23 D8000000 		.4byte	.LVL242
 6520 0c27 DA000000 		.4byte	.LVL243
 6521 0c2b 0100     		.2byte	0x1
 6522 0c2d 54       		.byte	0x54
 6523 0c2e 00000000 		.4byte	0
 6524 0c32 00000000 		.4byte	0
 6525              	.LLST47:
 6526 0c36 00000000 		.4byte	.LVL245
 6527 0c3a 06000000 		.4byte	.LVL246
 6528 0c3e 0100     		.2byte	0x1
 6529 0c40 50       		.byte	0x50
 6530 0c41 06000000 		.4byte	.LVL246
 6531 0c45 58000000 		.4byte	.LVL258
 6532 0c49 0100     		.2byte	0x1
 6533 0c4b 54       		.byte	0x54
 6534 0c4c 58000000 		.4byte	.LVL258
 6535 0c50 5A000000 		.4byte	.LFE11
 6536 0c54 0400     		.2byte	0x4
 6537 0c56 F3       		.byte	0xf3
 6538 0c57 01       		.uleb128 0x1
 6539 0c58 50       		.byte	0x50
 6540 0c59 9F       		.byte	0x9f
 6541 0c5a 00000000 		.4byte	0
 6542 0c5e 00000000 		.4byte	0
 6543              	.LLST48:
 6544 0c62 00000000 		.4byte	.LVL259
 6545 0c66 10000000 		.4byte	.LVL260
 6546 0c6a 0100     		.2byte	0x1
 6547 0c6c 50       		.byte	0x50
 6548 0c6d 10000000 		.4byte	.LVL260
 6549 0c71 FC000000 		.4byte	.LVL296
 6550 0c75 0100     		.2byte	0x1
 6551 0c77 55       		.byte	0x55
 6552 0c78 FC000000 		.4byte	.LVL296
 6553 0c7c 18010000 		.4byte	.LFE12
 6554 0c80 0400     		.2byte	0x4
 6555 0c82 F3       		.byte	0xf3
 6556 0c83 01       		.uleb128 0x1
 6557 0c84 50       		.byte	0x50
 6558 0c85 9F       		.byte	0x9f
ARM GAS  C:\Users\Phuong\AppData\Local\Temp\ccQXToeg.s 			page 130


 6559 0c86 00000000 		.4byte	0
 6560 0c8a 00000000 		.4byte	0
 6561              	.LLST49:
 6562 0c8e 00000000 		.4byte	.LVL259
 6563 0c92 13000000 		.4byte	.LVL261-1
 6564 0c96 0100     		.2byte	0x1
 6565 0c98 51       		.byte	0x51
 6566 0c99 13000000 		.4byte	.LVL261-1
 6567 0c9d 84000000 		.4byte	.LVL272
 6568 0ca1 0100     		.2byte	0x1
 6569 0ca3 56       		.byte	0x56
 6570 0ca4 84000000 		.4byte	.LVL272
 6571 0ca8 18010000 		.4byte	.LFE12
 6572 0cac 0400     		.2byte	0x4
 6573 0cae F3       		.byte	0xf3
 6574 0caf 01       		.uleb128 0x1
 6575 0cb0 51       		.byte	0x51
 6576 0cb1 9F       		.byte	0x9f
 6577 0cb2 00000000 		.4byte	0
 6578 0cb6 00000000 		.4byte	0
 6579              	.LLST50:
 6580 0cba 00000000 		.4byte	.LVL259
 6581 0cbe 13000000 		.4byte	.LVL261-1
 6582 0cc2 0100     		.2byte	0x1
 6583 0cc4 52       		.byte	0x52
 6584 0cc5 13000000 		.4byte	.LVL261-1
 6585 0cc9 26000000 		.4byte	.LVL262
 6586 0ccd 0200     		.2byte	0x2
 6587 0ccf 91       		.byte	0x91
 6588 0cd0 44       		.sleb128 -60
 6589 0cd1 26000000 		.4byte	.LVL262
 6590 0cd5 2A000000 		.4byte	.LVL263
 6591 0cd9 0200     		.2byte	0x2
 6592 0cdb 73       		.byte	0x73
 6593 0cdc 00       		.sleb128 0
 6594 0cdd 2A000000 		.4byte	.LVL263
 6595 0ce1 39000000 		.4byte	.LVL264-1
 6596 0ce5 0400     		.2byte	0x4
 6597 0ce7 91       		.byte	0x91
 6598 0ce8 B87F     		.sleb128 -72
 6599 0cea 06       		.byte	0x6
 6600 0ceb 39000000 		.4byte	.LVL264-1
 6601 0cef 18010000 		.4byte	.LFE12
 6602 0cf3 0200     		.2byte	0x2
 6603 0cf5 91       		.byte	0x91
 6604 0cf6 44       		.sleb128 -60
 6605 0cf7 00000000 		.4byte	0
 6606 0cfb 00000000 		.4byte	0
 6607              	.LLST51:
 6608 0cff 3C000000 		.4byte	.LVL265
 6609 0d03 3E000000 		.4byte	.LVL266
 6610 0d07 0100     		.2byte	0x1
 6611 0d09 50       		.byte	0x50
 6612 0d0a 44000000 		.4byte	.LVL267
 6613 0d0e 70000000 		.4byte	.LVL269
 6614 0d12 0100     		.2byte	0x1
 6615 0d14 54       		.byte	0x54
ARM GAS  C:\Users\Phuong\AppData\Local\Temp\ccQXToeg.s 			page 131


 6616 0d15 70000000 		.4byte	.LVL269
 6617 0d19 78000000 		.4byte	.LVL270
 6618 0d1d 0100     		.2byte	0x1
 6619 0d1f 50       		.byte	0x50
 6620 0d20 78000000 		.4byte	.LVL270
 6621 0d24 7A000000 		.4byte	.LVL271
 6622 0d28 0100     		.2byte	0x1
 6623 0d2a 54       		.byte	0x54
 6624 0d2b 7A000000 		.4byte	.LVL271
 6625 0d2f 8C000000 		.4byte	.LVL273
 6626 0d33 0100     		.2byte	0x1
 6627 0d35 50       		.byte	0x50
 6628 0d36 92000000 		.4byte	.LVL275
 6629 0d3a 9C000000 		.4byte	.LVL276
 6630 0d3e 0100     		.2byte	0x1
 6631 0d40 50       		.byte	0x50
 6632 0d41 9C000000 		.4byte	.LVL276
 6633 0d45 A2000000 		.4byte	.LVL278
 6634 0d49 0100     		.2byte	0x1
 6635 0d4b 54       		.byte	0x54
 6636 0d4c A2000000 		.4byte	.LVL278
 6637 0d50 AA000000 		.4byte	.LVL279
 6638 0d54 0100     		.2byte	0x1
 6639 0d56 50       		.byte	0x50
 6640 0d57 AA000000 		.4byte	.LVL279
 6641 0d5b AC000000 		.4byte	.LVL280
 6642 0d5f 0100     		.2byte	0x1
 6643 0d61 54       		.byte	0x54
 6644 0d62 AC000000 		.4byte	.LVL280
 6645 0d66 B4000000 		.4byte	.LVL281
 6646 0d6a 0100     		.2byte	0x1
 6647 0d6c 50       		.byte	0x50
 6648 0d6d B4000000 		.4byte	.LVL281
 6649 0d71 C4000000 		.4byte	.LVL284
 6650 0d75 0100     		.2byte	0x1
 6651 0d77 54       		.byte	0x54
 6652 0d78 C4000000 		.4byte	.LVL284
 6653 0d7c C6000000 		.4byte	.LVL285
 6654 0d80 0100     		.2byte	0x1
 6655 0d82 50       		.byte	0x50
 6656 0d83 C6000000 		.4byte	.LVL285
 6657 0d87 D4000000 		.4byte	.LVL287
 6658 0d8b 0100     		.2byte	0x1
 6659 0d8d 58       		.byte	0x58
 6660 0d8e D4000000 		.4byte	.LVL287
 6661 0d92 D6000000 		.4byte	.LVL288
 6662 0d96 0100     		.2byte	0x1
 6663 0d98 54       		.byte	0x54
 6664 0d99 D6000000 		.4byte	.LVL288
 6665 0d9d DE000000 		.4byte	.LVL289
 6666 0da1 0100     		.2byte	0x1
 6667 0da3 58       		.byte	0x58
 6668 0da4 DE000000 		.4byte	.LVL289
 6669 0da8 E0000000 		.4byte	.LVL290
 6670 0dac 0400     		.2byte	0x4
 6671 0dae 0B       		.byte	0xb
 6672 0daf 1ACC     		.2byte	0xcc1a
ARM GAS  C:\Users\Phuong\AppData\Local\Temp\ccQXToeg.s 			page 132


 6673 0db1 9F       		.byte	0x9f
 6674 0db2 E0000000 		.4byte	.LVL290
 6675 0db6 E8000000 		.4byte	.LVL292
 6676 0dba 0200     		.2byte	0x2
 6677 0dbc 30       		.byte	0x30
 6678 0dbd 9F       		.byte	0x9f
 6679 0dbe E8000000 		.4byte	.LVL292
 6680 0dc2 FC000000 		.4byte	.LVL295
 6681 0dc6 0100     		.2byte	0x1
 6682 0dc8 54       		.byte	0x54
 6683 0dc9 FC000000 		.4byte	.LVL295
 6684 0dcd 18010000 		.4byte	.LFE12
 6685 0dd1 0100     		.2byte	0x1
 6686 0dd3 50       		.byte	0x50
 6687 0dd4 00000000 		.4byte	0
 6688 0dd8 00000000 		.4byte	0
 6689              	.LLST52:
 6690 0ddc 66000000 		.4byte	.LVL268
 6691 0de0 6F000000 		.4byte	.LVL269-1
 6692 0de4 0100     		.2byte	0x1
 6693 0de6 51       		.byte	0x51
 6694 0de7 84000000 		.4byte	.LVL272
 6695 0deb 8F000000 		.4byte	.LVL274-1
 6696 0def 0100     		.2byte	0x1
 6697 0df1 53       		.byte	0x53
 6698 0df2 8F000000 		.4byte	.LVL274-1
 6699 0df6 E8000000 		.4byte	.LVL292
 6700 0dfa 0100     		.2byte	0x1
 6701 0dfc 56       		.byte	0x56
 6702 0dfd 00000000 		.4byte	0
 6703 0e01 00000000 		.4byte	0
 6704              	.LLST53:
 6705 0e05 00000000 		.4byte	.LVL297
 6706 0e09 08000000 		.4byte	.LVL298
 6707 0e0d 0100     		.2byte	0x1
 6708 0e0f 50       		.byte	0x50
 6709 0e10 08000000 		.4byte	.LVL298
 6710 0e14 4A000000 		.4byte	.LVL313
 6711 0e18 0100     		.2byte	0x1
 6712 0e1a 55       		.byte	0x55
 6713 0e1b 4A000000 		.4byte	.LVL313
 6714 0e1f 5C000000 		.4byte	.LFE13
 6715 0e23 0400     		.2byte	0x4
 6716 0e25 F3       		.byte	0xf3
 6717 0e26 01       		.uleb128 0x1
 6718 0e27 50       		.byte	0x50
 6719 0e28 9F       		.byte	0x9f
 6720 0e29 00000000 		.4byte	0
 6721 0e2d 00000000 		.4byte	0
 6722              	.LLST54:
 6723 0e31 22000000 		.4byte	.LVL302
 6724 0e35 2A000000 		.4byte	.LVL303
 6725 0e39 0100     		.2byte	0x1
 6726 0e3b 50       		.byte	0x50
 6727 0e3c 2A000000 		.4byte	.LVL303
 6728 0e40 30000000 		.4byte	.LVL305
 6729 0e44 0100     		.2byte	0x1
ARM GAS  C:\Users\Phuong\AppData\Local\Temp\ccQXToeg.s 			page 133


 6730 0e46 54       		.byte	0x54
 6731 0e47 32000000 		.4byte	.LVL306
 6732 0e4b 38000000 		.4byte	.LVL307
 6733 0e4f 0100     		.2byte	0x1
 6734 0e51 50       		.byte	0x50
 6735 0e52 38000000 		.4byte	.LVL307
 6736 0e56 3E000000 		.4byte	.LVL309
 6737 0e5a 0100     		.2byte	0x1
 6738 0e5c 54       		.byte	0x54
 6739 0e5d 3E000000 		.4byte	.LVL309
 6740 0e61 40000000 		.4byte	.LVL310
 6741 0e65 0100     		.2byte	0x1
 6742 0e67 50       		.byte	0x50
 6743 0e68 40000000 		.4byte	.LVL310
 6744 0e6c 4A000000 		.4byte	.LVL312
 6745 0e70 0100     		.2byte	0x1
 6746 0e72 54       		.byte	0x54
 6747 0e73 4A000000 		.4byte	.LVL312
 6748 0e77 5C000000 		.4byte	.LFE13
 6749 0e7b 0100     		.2byte	0x1
 6750 0e7d 50       		.byte	0x50
 6751 0e7e 00000000 		.4byte	0
 6752 0e82 00000000 		.4byte	0
 6753              		.section	.debug_aranges,"",%progbits
 6754 0000 7C000000 		.4byte	0x7c
 6755 0004 0200     		.2byte	0x2
 6756 0006 00000000 		.4byte	.Ldebug_info0
 6757 000a 04       		.byte	0x4
 6758 000b 00       		.byte	0
 6759 000c 0000     		.2byte	0
 6760 000e 0000     		.2byte	0
 6761 0010 00000000 		.4byte	.LFB1
 6762 0014 4C000000 		.4byte	.LFE1-.LFB1
 6763 0018 00000000 		.4byte	.LFB2
 6764 001c 64000000 		.4byte	.LFE2-.LFB2
 6765 0020 00000000 		.4byte	.LFB9
 6766 0024 56010000 		.4byte	.LFE9-.LFB9
 6767 0028 00000000 		.4byte	.LFB3
 6768 002c 0C000000 		.4byte	.LFE3-.LFB3
 6769 0030 00000000 		.4byte	.LFB4
 6770 0034 58000000 		.4byte	.LFE4-.LFB4
 6771 0038 00000000 		.4byte	.LFB5
 6772 003c 38010000 		.4byte	.LFE5-.LFB5
 6773 0040 00000000 		.4byte	.LFB6
 6774 0044 54000000 		.4byte	.LFE6-.LFB6
 6775 0048 00000000 		.4byte	.LFB7
 6776 004c 3C000000 		.4byte	.LFE7-.LFB7
 6777 0050 00000000 		.4byte	.LFB8
 6778 0054 E8000000 		.4byte	.LFE8-.LFB8
 6779 0058 00000000 		.4byte	.LFB10
 6780 005c E8000000 		.4byte	.LFE10-.LFB10
 6781 0060 00000000 		.4byte	.LFB11
 6782 0064 5A000000 		.4byte	.LFE11-.LFB11
 6783 0068 00000000 		.4byte	.LFB12
 6784 006c 18010000 		.4byte	.LFE12-.LFB12
 6785 0070 00000000 		.4byte	.LFB13
 6786 0074 5C000000 		.4byte	.LFE13-.LFB13
ARM GAS  C:\Users\Phuong\AppData\Local\Temp\ccQXToeg.s 			page 134


 6787 0078 00000000 		.4byte	0
 6788 007c 00000000 		.4byte	0
 6789              		.section	.debug_ranges,"",%progbits
 6790              	.Ldebug_ranges0:
 6791 0000 00000000 		.4byte	.LFB1
 6792 0004 4C000000 		.4byte	.LFE1
 6793 0008 00000000 		.4byte	.LFB2
 6794 000c 64000000 		.4byte	.LFE2
 6795 0010 00000000 		.4byte	.LFB9
 6796 0014 56010000 		.4byte	.LFE9
 6797 0018 00000000 		.4byte	.LFB3
 6798 001c 0C000000 		.4byte	.LFE3
 6799 0020 00000000 		.4byte	.LFB4
 6800 0024 58000000 		.4byte	.LFE4
 6801 0028 00000000 		.4byte	.LFB5
 6802 002c 38010000 		.4byte	.LFE5
 6803 0030 00000000 		.4byte	.LFB6
 6804 0034 54000000 		.4byte	.LFE6
 6805 0038 00000000 		.4byte	.LFB7
 6806 003c 3C000000 		.4byte	.LFE7
 6807 0040 00000000 		.4byte	.LFB8
 6808 0044 E8000000 		.4byte	.LFE8
 6809 0048 00000000 		.4byte	.LFB10
 6810 004c E8000000 		.4byte	.LFE10
 6811 0050 00000000 		.4byte	.LFB11
 6812 0054 5A000000 		.4byte	.LFE11
 6813 0058 00000000 		.4byte	.LFB12
 6814 005c 18010000 		.4byte	.LFE12
 6815 0060 00000000 		.4byte	.LFB13
 6816 0064 5C000000 		.4byte	.LFE13
 6817 0068 00000000 		.4byte	0
 6818 006c 00000000 		.4byte	0
 6819              		.section	.debug_line,"",%progbits
 6820              	.Ldebug_line0:
 6821 0000 D1040000 		.section	.debug_str,"MS",%progbits,1
 6821      02009902 
 6821      00000201 
 6821      FB0E0D00 
 6821      01010101 
 6822              	.LASF50:
 6823 0000 6D626564 		.ascii	"mbedtls_test_dhm_params_len\000"
 6823      746C735F 
 6823      74657374 
 6823      5F64686D 
 6823      5F706172 
 6824              	.LASF22:
 6825 001c 64686D5F 		.ascii	"dhm_check_range\000"
 6825      63686563 
 6825      6B5F7261 
 6825      6E676500 
 6826              	.LASF19:
 6827 002c 6275666C 		.ascii	"buflen\000"
 6827      656E00
 6828              	.LASF57:
 6829 0033 6D626564 		.ascii	"mbedtls_mpi_copy\000"
 6829      746C735F 
 6829      6D70695F 
ARM GAS  C:\Users\Phuong\AppData\Local\Temp\ccQXToeg.s 			page 135


 6829      636F7079 
 6829      00
 6830              	.LASF47:
 6831 0044 6D626564 		.ascii	"mbedtls_dhm_self_test\000"
 6831      746C735F 
 6831      64686D5F 
 6831      73656C66 
 6831      5F746573 
 6832              	.LASF28:
 6833 005a 6D626564 		.ascii	"mbedtls_dhm_read_params\000"
 6833      746C735F 
 6833      64686D5F 
 6833      72656164 
 6833      5F706172 
 6834              	.LASF59:
 6835 0072 6D626564 		.ascii	"mbedtls_mpi_mul_mpi\000"
 6835      746C735F 
 6835      6D70695F 
 6835      6D756C5F 
 6835      6D706900 
 6836              	.LASF2:
 6837 0086 73686F72 		.ascii	"short int\000"
 6837      7420696E 
 6837      7400
 6838              	.LASF10:
 6839 0090 73697A65 		.ascii	"size_t\000"
 6839      5F7400
 6840              	.LASF36:
 6841 0097 696E7075 		.ascii	"input\000"
 6841      7400
 6842              	.LASF74:
 6843 009d 474E5520 		.ascii	"GNU C11 5.4.1 20160609 (release) [ARM/embedded-5-br"
 6843      43313120 
 6843      352E342E 
 6843      31203230 
 6843      31363036 
 6844 00d0 616E6368 		.ascii	"anch revision 237715] -mcpu=cortex-m0plus -mthumb -"
 6844      20726576 
 6844      6973696F 
 6844      6E203233 
 6844      37373135 
 6845 0103 67202D4F 		.ascii	"g -Og -ffunction-sections -ffat-lto-objects\000"
 6845      67202D66 
 6845      66756E63 
 6845      74696F6E 
 6845      2D736563 
 6846              	.LASF16:
 6847 012f 73697A65 		.ascii	"sizetype\000"
 6847      74797065 
 6847      00
 6848              	.LASF65:
 6849 0138 6D626564 		.ascii	"mbedtls_mpi_exp_mod\000"
 6849      746C735F 
 6849      6D70695F 
 6849      6578705F 
 6849      6D6F6400 
 6850              	.LASF62:
ARM GAS  C:\Users\Phuong\AppData\Local\Temp\ccQXToeg.s 			page 136


 6851 014c 6D626564 		.ascii	"mbedtls_mpi_fill_random\000"
 6851      746C735F 
 6851      6D70695F 
 6851      66696C6C 
 6851      5F72616E 
 6852              	.LASF9:
 6853 0164 5F5F7569 		.ascii	"__uint32_t\000"
 6853      6E743332 
 6853      5F7400
 6854              	.LASF21:
 6855 016f 64686D5F 		.ascii	"dhm_read_bignum\000"
 6855      72656164 
 6855      5F626967 
 6855      6E756D00 
 6856              	.LASF58:
 6857 017f 6D626564 		.ascii	"mbedtls_mpi_cmp_int\000"
 6857      746C735F 
 6857      6D70695F 
 6857      636D705F 
 6857      696E7400 
 6858              	.LASF75:
 6859 0193 536F7572 		.ascii	"Source\\mbedtls_open\\library\\dhm.c\000"
 6859      63655C6D 
 6859      62656474 
 6859      6C735F6F 
 6859      70656E5C 
 6860              	.LASF15:
 6861 01b5 6D626564 		.ascii	"mbedtls_dhm_context\000"
 6861      746C735F 
 6861      64686D5F 
 6861      636F6E74 
 6861      65787400 
 6862              	.LASF66:
 6863 01c9 6D626564 		.ascii	"mbedtls_mpi_write_binary\000"
 6863      746C735F 
 6863      6D70695F 
 6863      77726974 
 6863      655F6269 
 6864              	.LASF0:
 6865 01e2 7369676E 		.ascii	"signed char\000"
 6865      65642063 
 6865      68617200 
 6866              	.LASF29:
 6867 01ee 6D626564 		.ascii	"mbedtls_dhm_make_params\000"
 6867      746C735F 
 6867      64686D5F 
 6867      6D616B65 
 6867      5F706172 
 6868              	.LASF14:
 6869 0206 6D626564 		.ascii	"mbedtls_mpi\000"
 6869      746C735F 
 6869      6D706900 
 6870              	.LASF6:
 6871 0212 6C6F6E67 		.ascii	"long long int\000"
 6871      206C6F6E 
 6871      6720696E 
 6871      7400
ARM GAS  C:\Users\Phuong\AppData\Local\Temp\ccQXToeg.s 			page 137


 6872              	.LASF32:
 6873 0220 6F6C656E 		.ascii	"olen\000"
 6873      00
 6874              	.LASF69:
 6875 0225 6D626564 		.ascii	"mbedtls_pem_init\000"
 6875      746C735F 
 6875      70656D5F 
 6875      696E6974 
 6875      00
 6876              	.LASF41:
 6877 0236 6D626564 		.ascii	"mbedtls_dhm_init\000"
 6877      746C735F 
 6877      64686D5F 
 6877      696E6974 
 6877      00
 6878              	.LASF77:
 6879 0247 6D656D73 		.ascii	"memset\000"
 6879      657400
 6880              	.LASF39:
 6881 024e 6D626564 		.ascii	"mbedtls_dhm_calc_secret\000"
 6881      746C735F 
 6881      64686D5F 
 6881      63616C63 
 6881      5F736563 
 6882              	.LASF68:
 6883 0266 6D626564 		.ascii	"mbedtls_asn1_get_mpi\000"
 6883      746C735F 
 6883      61736E31 
 6883      5F676574 
 6883      5F6D7069 
 6884              	.LASF4:
 6885 027b 6C6F6E67 		.ascii	"long int\000"
 6885      20696E74 
 6885      00
 6886              	.LASF73:
 6887 0284 7072696E 		.ascii	"printf\000"
 6887      746600
 6888              	.LASF56:
 6889 028b 6D626564 		.ascii	"mbedtls_mpi_free\000"
 6889      746C735F 
 6889      6D70695F 
 6889      66726565 
 6889      00
 6890              	.LASF1:
 6891 029c 756E7369 		.ascii	"unsigned char\000"
 6891      676E6564 
 6891      20636861 
 6891      7200
 6892              	.LASF45:
 6893 02aa 64686D69 		.ascii	"dhminlen\000"
 6893      6E6C656E 
 6893      00
 6894              	.LASF61:
 6895 02b3 6D626564 		.ascii	"mbedtls_mpi_size\000"
 6895      746C735F 
 6895      6D70695F 
 6895      73697A65 
ARM GAS  C:\Users\Phuong\AppData\Local\Temp\ccQXToeg.s 			page 138


 6895      00
 6896              	.LASF51:
 6897 02c4 6D626564 		.ascii	"mbedtls_mpi_read_binary\000"
 6897      746C735F 
 6897      6D70695F 
 6897      72656164 
 6897      5F62696E 
 6898              	.LASF11:
 6899 02dc 6C6F6E67 		.ascii	"long double\000"
 6899      20646F75 
 6899      626C6500 
 6900              	.LASF67:
 6901 02e8 6D626564 		.ascii	"mbedtls_platform_zeroize\000"
 6901      746C735F 
 6901      706C6174 
 6901      666F726D 
 6901      5F7A6572 
 6902              	.LASF33:
 6903 0301 636C6561 		.ascii	"cleanup\000"
 6903      6E757000 
 6904              	.LASF76:
 6905 0309 433A5C55 		.ascii	"C:\\Users\\Phuong\\Documents\\PSoC Creator\\Dec0820"
 6905      73657273 
 6905      5C506875 
 6905      6F6E675C 
 6905      446F6375 
 6906 0337 31385C69 		.ascii	"18\\iot-sdk-iot-dev\\PSOC6_FreeRTOS+LwIP+MbedTLS_Az"
 6906      6F742D73 
 6906      646B2D69 
 6906      6F742D64 
 6906      65765C50 
 6907 0368 7572652D 		.ascii	"ure-IOT-Hub-Demo\\PSOC6_FreeRTOS+LwIP+MbedTLS_Azure"
 6907      494F542D 
 6907      4875622D 
 6907      44656D6F 
 6907      5C50534F 
 6908 039a 2D494F54 		.ascii	"-IOT-Hub-Demo.cydsn\000"
 6908      2D487562 
 6908      2D44656D 
 6908      6F2E6379 
 6908      64736E00 
 6909              	.LASF26:
 6910 03ae 705F726E 		.ascii	"p_rng\000"
 6910      6700
 6911              	.LASF35:
 6912 03b4 6D626564 		.ascii	"mbedtls_dhm_read_public\000"
 6912      746C735F 
 6912      64686D5F 
 6912      72656164 
 6912      5F707562 
 6913              	.LASF7:
 6914 03cc 6C6F6E67 		.ascii	"long long unsigned int\000"
 6914      206C6F6E 
 6914      6720756E 
 6914      7369676E 
 6914      65642069 
 6915              	.LASF12:
ARM GAS  C:\Users\Phuong\AppData\Local\Temp\ccQXToeg.s 			page 139


 6916 03e3 75696E74 		.ascii	"uint32_t\000"
 6916      33325F74 
 6916      00
 6917              	.LASF71:
 6918 03ec 6D626564 		.ascii	"mbedtls_asn1_get_tag\000"
 6918      746C735F 
 6918      61736E31 
 6918      5F676574 
 6918      5F746167 
 6919              	.LASF8:
 6920 0401 756E7369 		.ascii	"unsigned int\000"
 6920      676E6564 
 6920      20696E74 
 6920      00
 6921              	.LASF34:
 6922 040e 6D626564 		.ascii	"mbedtls_dhm_set_group\000"
 6922      746C735F 
 6922      64686D5F 
 6922      7365745F 
 6922      67726F75 
 6923              	.LASF78:
 6924 0424 70757473 		.ascii	"puts\000"
 6924      00
 6925              	.LASF23:
 6926 0429 70617261 		.ascii	"param\000"
 6926      6D00
 6927              	.LASF38:
 6928 042f 6D626564 		.ascii	"mbedtls_dhm_make_public\000"
 6928      746C735F 
 6928      64686D5F 
 6928      6D616B65 
 6928      5F707562 
 6929              	.LASF3:
 6930 0447 73686F72 		.ascii	"short unsigned int\000"
 6930      7420756E 
 6930      7369676E 
 6930      65642069 
 6930      6E7400
 6931              	.LASF55:
 6932 045a 6D626564 		.ascii	"mbedtls_mpi_cmp_mpi\000"
 6932      746C735F 
 6932      6D70695F 
 6932      636D705F 
 6932      6D706900 
 6933              	.LASF17:
 6934 046e 63686172 		.ascii	"char\000"
 6934      00
 6935              	.LASF46:
 6936 0473 65786974 		.ascii	"exit\000"
 6936      00
 6937              	.LASF49:
 6938 0478 6D626564 		.ascii	"mbedtls_test_dhm_params\000"
 6938      746C735F 
 6938      74657374 
 6938      5F64686D 
 6938      5F706172 
 6939              	.LASF70:
ARM GAS  C:\Users\Phuong\AppData\Local\Temp\ccQXToeg.s 			page 140


 6940 0490 6D626564 		.ascii	"mbedtls_pem_read_buffer\000"
 6940      746C735F 
 6940      70656D5F 
 6940      72656164 
 6940      5F627566 
 6941              	.LASF64:
 6942 04a8 6D626564 		.ascii	"mbedtls_mpi_inv_mod\000"
 6942      746C735F 
 6942      6D70695F 
 6942      696E765F 
 6942      6D6F6400 
 6943              	.LASF40:
 6944 04bc 6F757470 		.ascii	"output_size\000"
 6944      75745F73 
 6944      697A6500 
 6945              	.LASF43:
 6946 04c8 6D626564 		.ascii	"mbedtls_dhm_parse_dhm\000"
 6946      746C735F 
 6946      64686D5F 
 6946      70617273 
 6946      655F6468 
 6947              	.LASF60:
 6948 04de 6D626564 		.ascii	"mbedtls_mpi_mod_mpi\000"
 6948      746C735F 
 6948      6D70695F 
 6948      6D6F645F 
 6948      6D706900 
 6949              	.LASF5:
 6950 04f2 6C6F6E67 		.ascii	"long unsigned int\000"
 6950      20756E73 
 6950      69676E65 
 6950      6420696E 
 6950      7400
 6951              	.LASF25:
 6952 0504 665F726E 		.ascii	"f_rng\000"
 6952      6700
 6953              	.LASF37:
 6954 050a 696C656E 		.ascii	"ilen\000"
 6954      00
 6955              	.LASF54:
 6956 050f 6D626564 		.ascii	"mbedtls_mpi_sub_int\000"
 6956      746C735F 
 6956      6D70695F 
 6956      7375625F 
 6956      696E7400 
 6957              	.LASF52:
 6958 0523 6D626564 		.ascii	"mbedtls_mpi_init\000"
 6958      746C735F 
 6958      6D70695F 
 6958      696E6974 
 6958      00
 6959              	.LASF27:
 6960 0534 636F756E 		.ascii	"count\000"
 6960      7400
 6961              	.LASF20:
 6962 053a 696E666F 		.ascii	"info\000"
 6962      00
ARM GAS  C:\Users\Phuong\AppData\Local\Temp\ccQXToeg.s 			page 141


 6963              	.LASF13:
 6964 053f 6D626564 		.ascii	"mbedtls_mpi_uint\000"
 6964      746C735F 
 6964      6D70695F 
 6964      75696E74 
 6964      00
 6965              	.LASF18:
 6966 0550 6D626564 		.ascii	"mbedtls_pem_context\000"
 6966      746C735F 
 6966      70656D5F 
 6966      636F6E74 
 6966      65787400 
 6967              	.LASF31:
 6968 0564 6F757470 		.ascii	"output\000"
 6968      757400
 6969              	.LASF79:
 6970 056b 5F5F6275 		.ascii	"__builtin_puts\000"
 6970      696C7469 
 6970      6E5F7075 
 6970      747300
 6971              	.LASF44:
 6972 057a 64686D69 		.ascii	"dhmin\000"
 6972      6E00
 6973              	.LASF63:
 6974 0580 6D626564 		.ascii	"mbedtls_mpi_shift_r\000"
 6974      746C735F 
 6974      6D70695F 
 6974      73686966 
 6974      745F7200 
 6975              	.LASF30:
 6976 0594 785F7369 		.ascii	"x_size\000"
 6976      7A6500
 6977              	.LASF53:
 6978 059b 6D626564 		.ascii	"mbedtls_mpi_lset\000"
 6978      746C735F 
 6978      6D70695F 
 6978      6C736574 
 6978      00
 6979              	.LASF24:
 6980 05ac 64686D5F 		.ascii	"dhm_update_blinding\000"
 6980      75706461 
 6980      74655F62 
 6980      6C696E64 
 6980      696E6700 
 6981              	.LASF48:
 6982 05c0 76657262 		.ascii	"verbose\000"
 6982      6F736500 
 6983              	.LASF72:
 6984 05c8 6D626564 		.ascii	"mbedtls_pem_free\000"
 6984      746C735F 
 6984      70656D5F 
 6984      66726565 
 6984      00
 6985              	.LASF42:
 6986 05d9 6D626564 		.ascii	"mbedtls_dhm_free\000"
 6986      746C735F 
 6986      64686D5F 
ARM GAS  C:\Users\Phuong\AppData\Local\Temp\ccQXToeg.s 			page 142


 6986      66726565 
 6986      00
 6987              		.ident	"GCC: (GNU Tools for ARM Embedded Processors) 5.4.1 20160609 (release) [ARM/embedded-5-bran
