ARM GAS  C:\Users\Phuong\AppData\Local\Temp\ccQ4muOf.s 			page 1


   1              		.syntax unified
   2              		.cpu cortex-m0plus
   3              		.fpu softvfp
   4              		.eabi_attribute 20, 1
   5              		.eabi_attribute 21, 1
   6              		.eabi_attribute 23, 3
   7              		.eabi_attribute 24, 1
   8              		.eabi_attribute 25, 1
   9              		.eabi_attribute 26, 1
  10              		.eabi_attribute 30, 1
  11              		.eabi_attribute 34, 0
  12              		.eabi_attribute 18, 4
  13              		.thumb
  14              		.syntax unified
  15              		.file	"doublylinkedlist.c"
  16              		.text
  17              	.Ltext0:
  18              		.cfi_sections	.debug_frame
  19              		.section	.text.DList_InitializeListHead,"ax",%progbits
  20              		.align	2
  21              		.global	DList_InitializeListHead
  22              		.code	16
  23              		.thumb_func
  24              		.type	DList_InitializeListHead, %function
  25              	DList_InitializeListHead:
  26              	.LFB0:
  27              		.file 1 "Source\\azure_iot_sdk\\c-utility\\src\\doublylinkedlist.c"
   1:Source\azure_iot_sdk\c-utility\src/doublylinkedlist.c **** // Copyright (c) Microsoft. All rights reserved.
   2:Source\azure_iot_sdk\c-utility\src/doublylinkedlist.c **** // Licensed under the MIT license. See LICENSE file in the project root for full license informatio
   3:Source\azure_iot_sdk\c-utility\src/doublylinkedlist.c **** 
   4:Source\azure_iot_sdk\c-utility\src/doublylinkedlist.c **** #include "azure_c_shared_utility/doublylinkedlist.h"
   5:Source\azure_iot_sdk\c-utility\src/doublylinkedlist.c **** 
   6:Source\azure_iot_sdk\c-utility\src/doublylinkedlist.c **** void
   7:Source\azure_iot_sdk\c-utility\src/doublylinkedlist.c **** DList_InitializeListHead(
   8:Source\azure_iot_sdk\c-utility\src/doublylinkedlist.c ****     PDLIST_ENTRY ListHead
   9:Source\azure_iot_sdk\c-utility\src/doublylinkedlist.c **** )
  10:Source\azure_iot_sdk\c-utility\src/doublylinkedlist.c **** {
  28              		.loc 1 10 0
  29              		.cfi_startproc
  30              		@ args = 0, pretend = 0, frame = 0
  31              		@ frame_needed = 0, uses_anonymous_args = 0
  32              		@ link register save eliminated.
  33              	.LVL0:
  11:Source\azure_iot_sdk\c-utility\src/doublylinkedlist.c ****     /* Codes_SRS_DLIST_06_005: [DList_InitializeListHead will initialize the Flink & Blink to the a
  12:Source\azure_iot_sdk\c-utility\src/doublylinkedlist.c ****     ListHead->Flink = ListHead->Blink = ListHead;
  34              		.loc 1 12 0
  35 0000 4060     		str	r0, [r0, #4]
  36 0002 0060     		str	r0, [r0]
  13:Source\azure_iot_sdk\c-utility\src/doublylinkedlist.c ****     return;
  14:Source\azure_iot_sdk\c-utility\src/doublylinkedlist.c **** }
  37              		.loc 1 14 0
  38              		@ sp needed
  39 0004 7047     		bx	lr
  40              		.cfi_endproc
  41              	.LFE0:
  42              		.size	DList_InitializeListHead, .-DList_InitializeListHead
  43 0006 C046     		.section	.text.DList_IsListEmpty,"ax",%progbits
ARM GAS  C:\Users\Phuong\AppData\Local\Temp\ccQ4muOf.s 			page 2


  44              		.align	2
  45              		.global	DList_IsListEmpty
  46              		.code	16
  47              		.thumb_func
  48              		.type	DList_IsListEmpty, %function
  49              	DList_IsListEmpty:
  50              	.LFB1:
  15:Source\azure_iot_sdk\c-utility\src/doublylinkedlist.c **** 
  16:Source\azure_iot_sdk\c-utility\src/doublylinkedlist.c **** int
  17:Source\azure_iot_sdk\c-utility\src/doublylinkedlist.c **** DList_IsListEmpty(
  18:Source\azure_iot_sdk\c-utility\src/doublylinkedlist.c ****     const PDLIST_ENTRY ListHead
  19:Source\azure_iot_sdk\c-utility\src/doublylinkedlist.c **** )
  20:Source\azure_iot_sdk\c-utility\src/doublylinkedlist.c **** {
  51              		.loc 1 20 0
  52              		.cfi_startproc
  53              		@ args = 0, pretend = 0, frame = 0
  54              		@ frame_needed = 0, uses_anonymous_args = 0
  55              		@ link register save eliminated.
  56              	.LVL1:
  21:Source\azure_iot_sdk\c-utility\src/doublylinkedlist.c ****     /* Codes_SRS_DLIST_06_003: [DList_IsListEmpty shall return a non-zero value if there are no DLI
  22:Source\azure_iot_sdk\c-utility\src/doublylinkedlist.c ****     /* Codes_SRS_DLIST_06_004: [DList_IsListEmpty shall return 0 if there is one or more items in t
  23:Source\azure_iot_sdk\c-utility\src/doublylinkedlist.c ****     return (ListHead->Flink == ListHead);
  57              		.loc 1 23 0
  58 0000 0368     		ldr	r3, [r0]
  59 0002 C01A     		subs	r0, r0, r3
  60              	.LVL2:
  61 0004 4242     		rsbs	r2, r0, #0
  62 0006 4241     		adcs	r2, r2, r0
  63 0008 D0B2     		uxtb	r0, r2
  24:Source\azure_iot_sdk\c-utility\src/doublylinkedlist.c **** }
  64              		.loc 1 24 0
  65              		@ sp needed
  66 000a 7047     		bx	lr
  67              		.cfi_endproc
  68              	.LFE1:
  69              		.size	DList_IsListEmpty, .-DList_IsListEmpty
  70              		.section	.text.DList_RemoveEntryList,"ax",%progbits
  71              		.align	2
  72              		.global	DList_RemoveEntryList
  73              		.code	16
  74              		.thumb_func
  75              		.type	DList_RemoveEntryList, %function
  76              	DList_RemoveEntryList:
  77              	.LFB2:
  25:Source\azure_iot_sdk\c-utility\src/doublylinkedlist.c **** 
  26:Source\azure_iot_sdk\c-utility\src/doublylinkedlist.c **** int
  27:Source\azure_iot_sdk\c-utility\src/doublylinkedlist.c **** DList_RemoveEntryList(
  28:Source\azure_iot_sdk\c-utility\src/doublylinkedlist.c ****     PDLIST_ENTRY Entry
  29:Source\azure_iot_sdk\c-utility\src/doublylinkedlist.c **** )
  30:Source\azure_iot_sdk\c-utility\src/doublylinkedlist.c **** {
  78              		.loc 1 30 0
  79              		.cfi_startproc
  80              		@ args = 0, pretend = 0, frame = 0
  81              		@ frame_needed = 0, uses_anonymous_args = 0
  82              		@ link register save eliminated.
  83              	.LVL3:
  31:Source\azure_iot_sdk\c-utility\src/doublylinkedlist.c ****     /* Codes_SRS_DLIST_06_008: [DList_RemoveEntryList shall remove a listEntry from whatever list i
ARM GAS  C:\Users\Phuong\AppData\Local\Temp\ccQ4muOf.s 			page 3


  32:Source\azure_iot_sdk\c-utility\src/doublylinkedlist.c ****     /* Codes_SRS_DLIST_06_009: [The remaining list is properly formed.] */
  33:Source\azure_iot_sdk\c-utility\src/doublylinkedlist.c ****     /* Codes_SRS_DLIST_06_010: [DList_RemoveEntryList shall return non-zero if the remaining list i
  34:Source\azure_iot_sdk\c-utility\src/doublylinkedlist.c ****     /* Codes_SRS_DLIST_06_011: [DList_RemoveEntryList shall return zero if the remaining list is NO
  35:Source\azure_iot_sdk\c-utility\src/doublylinkedlist.c ****     PDLIST_ENTRY Blink;
  36:Source\azure_iot_sdk\c-utility\src/doublylinkedlist.c ****     PDLIST_ENTRY Flink;
  37:Source\azure_iot_sdk\c-utility\src/doublylinkedlist.c **** 
  38:Source\azure_iot_sdk\c-utility\src/doublylinkedlist.c ****     Flink = Entry->Flink;
  84              		.loc 1 38 0
  85 0000 0368     		ldr	r3, [r0]
  86              	.LVL4:
  39:Source\azure_iot_sdk\c-utility\src/doublylinkedlist.c ****     Blink = Entry->Blink;
  87              		.loc 1 39 0
  88 0002 4068     		ldr	r0, [r0, #4]
  89              	.LVL5:
  40:Source\azure_iot_sdk\c-utility\src/doublylinkedlist.c ****     Blink->Flink = Flink;
  90              		.loc 1 40 0
  91 0004 0360     		str	r3, [r0]
  41:Source\azure_iot_sdk\c-utility\src/doublylinkedlist.c ****     Flink->Blink = Blink;
  92              		.loc 1 41 0
  93 0006 5860     		str	r0, [r3, #4]
  42:Source\azure_iot_sdk\c-utility\src/doublylinkedlist.c ****     return (Flink == Blink);
  94              		.loc 1 42 0
  95 0008 181A     		subs	r0, r3, r0
  96              	.LVL6:
  97 000a 4342     		rsbs	r3, r0, #0
  98 000c 5841     		adcs	r0, r0, r3
  99              	.LVL7:
 100 000e C0B2     		uxtb	r0, r0
  43:Source\azure_iot_sdk\c-utility\src/doublylinkedlist.c **** }
 101              		.loc 1 43 0
 102              		@ sp needed
 103 0010 7047     		bx	lr
 104              		.cfi_endproc
 105              	.LFE2:
 106              		.size	DList_RemoveEntryList, .-DList_RemoveEntryList
 107 0012 C046     		.section	.text.DList_RemoveHeadList,"ax",%progbits
 108              		.align	2
 109              		.global	DList_RemoveHeadList
 110              		.code	16
 111              		.thumb_func
 112              		.type	DList_RemoveHeadList, %function
 113              	DList_RemoveHeadList:
 114              	.LFB3:
  44:Source\azure_iot_sdk\c-utility\src/doublylinkedlist.c **** 
  45:Source\azure_iot_sdk\c-utility\src/doublylinkedlist.c **** PDLIST_ENTRY
  46:Source\azure_iot_sdk\c-utility\src/doublylinkedlist.c **** DList_RemoveHeadList(
  47:Source\azure_iot_sdk\c-utility\src/doublylinkedlist.c ****     PDLIST_ENTRY ListHead
  48:Source\azure_iot_sdk\c-utility\src/doublylinkedlist.c **** )
  49:Source\azure_iot_sdk\c-utility\src/doublylinkedlist.c **** {
 115              		.loc 1 49 0
 116              		.cfi_startproc
 117              		@ args = 0, pretend = 0, frame = 0
 118              		@ frame_needed = 0, uses_anonymous_args = 0
 119              		@ link register save eliminated.
 120              	.LVL8:
 121 0000 0300     		movs	r3, r0
  50:Source\azure_iot_sdk\c-utility\src/doublylinkedlist.c ****     /* Codes_SRS_DLIST_06_012: [DList_RemoveHeadList removes the oldest entry from the list defined
ARM GAS  C:\Users\Phuong\AppData\Local\Temp\ccQ4muOf.s 			page 4


  51:Source\azure_iot_sdk\c-utility\src/doublylinkedlist.c ****     /* Codes_SRS_DLIST_06_013: [DList_RemoveHeadList shall return listHead if that's the only item 
  52:Source\azure_iot_sdk\c-utility\src/doublylinkedlist.c **** 
  53:Source\azure_iot_sdk\c-utility\src/doublylinkedlist.c ****     PDLIST_ENTRY Flink;
  54:Source\azure_iot_sdk\c-utility\src/doublylinkedlist.c ****     PDLIST_ENTRY Entry;
  55:Source\azure_iot_sdk\c-utility\src/doublylinkedlist.c **** 
  56:Source\azure_iot_sdk\c-utility\src/doublylinkedlist.c ****     Entry = ListHead->Flink;
 122              		.loc 1 56 0
 123 0002 0068     		ldr	r0, [r0]
 124              	.LVL9:
  57:Source\azure_iot_sdk\c-utility\src/doublylinkedlist.c ****     Flink = Entry->Flink;
 125              		.loc 1 57 0
 126 0004 0268     		ldr	r2, [r0]
 127              	.LVL10:
  58:Source\azure_iot_sdk\c-utility\src/doublylinkedlist.c ****     ListHead->Flink = Flink;
 128              		.loc 1 58 0
 129 0006 1A60     		str	r2, [r3]
  59:Source\azure_iot_sdk\c-utility\src/doublylinkedlist.c ****     Flink->Blink = ListHead;
 130              		.loc 1 59 0
 131 0008 5360     		str	r3, [r2, #4]
  60:Source\azure_iot_sdk\c-utility\src/doublylinkedlist.c ****     return Entry;
  61:Source\azure_iot_sdk\c-utility\src/doublylinkedlist.c **** }
 132              		.loc 1 61 0
 133              		@ sp needed
 134 000a 7047     		bx	lr
 135              		.cfi_endproc
 136              	.LFE3:
 137              		.size	DList_RemoveHeadList, .-DList_RemoveHeadList
 138              		.section	.text.DList_InsertTailList,"ax",%progbits
 139              		.align	2
 140              		.global	DList_InsertTailList
 141              		.code	16
 142              		.thumb_func
 143              		.type	DList_InsertTailList, %function
 144              	DList_InsertTailList:
 145              	.LFB4:
  62:Source\azure_iot_sdk\c-utility\src/doublylinkedlist.c **** 
  63:Source\azure_iot_sdk\c-utility\src/doublylinkedlist.c **** 
  64:Source\azure_iot_sdk\c-utility\src/doublylinkedlist.c **** 
  65:Source\azure_iot_sdk\c-utility\src/doublylinkedlist.c **** void
  66:Source\azure_iot_sdk\c-utility\src/doublylinkedlist.c **** DList_InsertTailList(
  67:Source\azure_iot_sdk\c-utility\src/doublylinkedlist.c ****     PDLIST_ENTRY ListHead,
  68:Source\azure_iot_sdk\c-utility\src/doublylinkedlist.c ****     PDLIST_ENTRY Entry
  69:Source\azure_iot_sdk\c-utility\src/doublylinkedlist.c **** )
  70:Source\azure_iot_sdk\c-utility\src/doublylinkedlist.c **** {
 146              		.loc 1 70 0
 147              		.cfi_startproc
 148              		@ args = 0, pretend = 0, frame = 0
 149              		@ frame_needed = 0, uses_anonymous_args = 0
 150              		@ link register save eliminated.
 151              	.LVL11:
  71:Source\azure_iot_sdk\c-utility\src/doublylinkedlist.c ****     PDLIST_ENTRY Blink;
  72:Source\azure_iot_sdk\c-utility\src/doublylinkedlist.c **** 
  73:Source\azure_iot_sdk\c-utility\src/doublylinkedlist.c ****     /* Codes_SRS_DLIST_06_006: [DListInsertTailList shall place the DLIST_ENTRY at the end of the l
  74:Source\azure_iot_sdk\c-utility\src/doublylinkedlist.c ****     Blink = ListHead->Blink;
 152              		.loc 1 74 0
 153 0000 4368     		ldr	r3, [r0, #4]
 154              	.LVL12:
ARM GAS  C:\Users\Phuong\AppData\Local\Temp\ccQ4muOf.s 			page 5


  75:Source\azure_iot_sdk\c-utility\src/doublylinkedlist.c ****     Entry->Flink = ListHead;
 155              		.loc 1 75 0
 156 0002 0860     		str	r0, [r1]
  76:Source\azure_iot_sdk\c-utility\src/doublylinkedlist.c ****     Entry->Blink = Blink;
 157              		.loc 1 76 0
 158 0004 4B60     		str	r3, [r1, #4]
  77:Source\azure_iot_sdk\c-utility\src/doublylinkedlist.c ****     Blink->Flink = Entry;
 159              		.loc 1 77 0
 160 0006 1960     		str	r1, [r3]
  78:Source\azure_iot_sdk\c-utility\src/doublylinkedlist.c ****     ListHead->Blink = Entry;
 161              		.loc 1 78 0
 162 0008 4160     		str	r1, [r0, #4]
  79:Source\azure_iot_sdk\c-utility\src/doublylinkedlist.c ****     return;
  80:Source\azure_iot_sdk\c-utility\src/doublylinkedlist.c **** }
 163              		.loc 1 80 0
 164              		@ sp needed
 165 000a 7047     		bx	lr
 166              		.cfi_endproc
 167              	.LFE4:
 168              		.size	DList_InsertTailList, .-DList_InsertTailList
 169              		.section	.text.DList_AppendTailList,"ax",%progbits
 170              		.align	2
 171              		.global	DList_AppendTailList
 172              		.code	16
 173              		.thumb_func
 174              		.type	DList_AppendTailList, %function
 175              	DList_AppendTailList:
 176              	.LFB5:
  81:Source\azure_iot_sdk\c-utility\src/doublylinkedlist.c **** 
  82:Source\azure_iot_sdk\c-utility\src/doublylinkedlist.c **** 
  83:Source\azure_iot_sdk\c-utility\src/doublylinkedlist.c **** void
  84:Source\azure_iot_sdk\c-utility\src/doublylinkedlist.c **** DList_AppendTailList(
  85:Source\azure_iot_sdk\c-utility\src/doublylinkedlist.c ****     PDLIST_ENTRY ListHead,
  86:Source\azure_iot_sdk\c-utility\src/doublylinkedlist.c ****     PDLIST_ENTRY ListToAppend
  87:Source\azure_iot_sdk\c-utility\src/doublylinkedlist.c **** )
  88:Source\azure_iot_sdk\c-utility\src/doublylinkedlist.c **** {
 177              		.loc 1 88 0
 178              		.cfi_startproc
 179              		@ args = 0, pretend = 0, frame = 0
 180              		@ frame_needed = 0, uses_anonymous_args = 0
 181              		@ link register save eliminated.
 182              	.LVL13:
  89:Source\azure_iot_sdk\c-utility\src/doublylinkedlist.c ****     /* Codes_SRS_DLIST_06_007: [DList_AppendTailList shall place the list defined by listToAppend a
  90:Source\azure_iot_sdk\c-utility\src/doublylinkedlist.c ****     PDLIST_ENTRY ListEnd = ListHead->Blink;
 183              		.loc 1 90 0
 184 0000 4368     		ldr	r3, [r0, #4]
 185              	.LVL14:
  91:Source\azure_iot_sdk\c-utility\src/doublylinkedlist.c **** 
  92:Source\azure_iot_sdk\c-utility\src/doublylinkedlist.c ****     ListHead->Blink->Flink = ListToAppend;
 186              		.loc 1 92 0
 187 0002 1960     		str	r1, [r3]
  93:Source\azure_iot_sdk\c-utility\src/doublylinkedlist.c ****     ListHead->Blink = ListToAppend->Blink;
 188              		.loc 1 93 0
 189 0004 4A68     		ldr	r2, [r1, #4]
 190 0006 4260     		str	r2, [r0, #4]
  94:Source\azure_iot_sdk\c-utility\src/doublylinkedlist.c ****     ListToAppend->Blink->Flink = ListHead;
 191              		.loc 1 94 0
ARM GAS  C:\Users\Phuong\AppData\Local\Temp\ccQ4muOf.s 			page 6


 192 0008 4A68     		ldr	r2, [r1, #4]
 193 000a 1060     		str	r0, [r2]
  95:Source\azure_iot_sdk\c-utility\src/doublylinkedlist.c ****     ListToAppend->Blink = ListEnd;
 194              		.loc 1 95 0
 195 000c 4B60     		str	r3, [r1, #4]
  96:Source\azure_iot_sdk\c-utility\src/doublylinkedlist.c ****     return;
  97:Source\azure_iot_sdk\c-utility\src/doublylinkedlist.c **** }
 196              		.loc 1 97 0
 197              		@ sp needed
 198 000e 7047     		bx	lr
 199              		.cfi_endproc
 200              	.LFE5:
 201              		.size	DList_AppendTailList, .-DList_AppendTailList
 202              		.section	.text.DList_InsertHeadList,"ax",%progbits
 203              		.align	2
 204              		.global	DList_InsertHeadList
 205              		.code	16
 206              		.thumb_func
 207              		.type	DList_InsertHeadList, %function
 208              	DList_InsertHeadList:
 209              	.LFB6:
  98:Source\azure_iot_sdk\c-utility\src/doublylinkedlist.c **** 
  99:Source\azure_iot_sdk\c-utility\src/doublylinkedlist.c **** 
 100:Source\azure_iot_sdk\c-utility\src/doublylinkedlist.c **** /*Codes_SRS_DLIST_02_002: [DList_InsertHeadList inserts a singular entry in the list having as head
 101:Source\azure_iot_sdk\c-utility\src/doublylinkedlist.c **** void DList_InsertHeadList(PDLIST_ENTRY listHead, PDLIST_ENTRY entry)
 102:Source\azure_iot_sdk\c-utility\src/doublylinkedlist.c **** {
 210              		.loc 1 102 0
 211              		.cfi_startproc
 212              		@ args = 0, pretend = 0, frame = 0
 213              		@ frame_needed = 0, uses_anonymous_args = 0
 214              		@ link register save eliminated.
 215              	.LVL15:
 103:Source\azure_iot_sdk\c-utility\src/doublylinkedlist.c ****     entry->Blink = listHead;
 216              		.loc 1 103 0
 217 0000 4860     		str	r0, [r1, #4]
 104:Source\azure_iot_sdk\c-utility\src/doublylinkedlist.c ****     entry->Flink = listHead->Flink;
 218              		.loc 1 104 0
 219 0002 0368     		ldr	r3, [r0]
 220 0004 0B60     		str	r3, [r1]
 105:Source\azure_iot_sdk\c-utility\src/doublylinkedlist.c ****     listHead->Flink->Blink = entry;
 221              		.loc 1 105 0
 222 0006 0368     		ldr	r3, [r0]
 223 0008 5960     		str	r1, [r3, #4]
 106:Source\azure_iot_sdk\c-utility\src/doublylinkedlist.c ****     listHead->Flink = entry;
 224              		.loc 1 106 0
 225 000a 0160     		str	r1, [r0]
 107:Source\azure_iot_sdk\c-utility\src/doublylinkedlist.c **** }
 226              		.loc 1 107 0
 227              		@ sp needed
 228 000c 7047     		bx	lr
 229              		.cfi_endproc
 230              	.LFE6:
 231              		.size	DList_InsertHeadList, .-DList_InsertHeadList
 232 000e C046     		.text
 233              	.Letext0:
 234              		.file 2 ".\\Source\\azure_iot_sdk\\c-utility\\inc/azure_c_shared_utility/doublylinkedlist.h"