ARM GAS  C:\Users\Phuong\AppData\Local\Temp\ccpVBVks.s 			page 1


   1              		.syntax unified
   2              		.cpu cortex-m0plus
   3              		.fpu softvfp
   4              		.eabi_attribute 20, 1
   5              		.eabi_attribute 21, 1
   6              		.eabi_attribute 23, 3
   7              		.eabi_attribute 24, 1
   8              		.eabi_attribute 25, 1
   9              		.eabi_attribute 26, 1
  10              		.eabi_attribute 30, 1
  11              		.eabi_attribute 34, 0
  12              		.eabi_attribute 18, 4
  13              		.thumb
  14              		.syntax unified
  15              		.file	"ecdh.c"
  16              		.text
  17              	.Ltext0:
  18              		.cfi_sections	.debug_frame
  19              		.section	.text.ecdh_gen_public_restartable,"ax",%progbits
  20              		.align	2
  21              		.code	16
  22              		.thumb_func
  23              		.type	ecdh_gen_public_restartable, %function
  24              	ecdh_gen_public_restartable:
  25              	.LFB0:
  26              		.file 1 "Source\\mbedtls_open\\library\\ecdh.c"
   1:Source\mbedtls_open\library/ecdh.c **** /*
   2:Source\mbedtls_open\library/ecdh.c ****  *  Elliptic curve Diffie-Hellman
   3:Source\mbedtls_open\library/ecdh.c ****  *
   4:Source\mbedtls_open\library/ecdh.c ****  *  Copyright (C) 2006-2015, ARM Limited, All Rights Reserved
   5:Source\mbedtls_open\library/ecdh.c ****  *  SPDX-License-Identifier: Apache-2.0
   6:Source\mbedtls_open\library/ecdh.c ****  *
   7:Source\mbedtls_open\library/ecdh.c ****  *  Licensed under the Apache License, Version 2.0 (the "License"); you may
   8:Source\mbedtls_open\library/ecdh.c ****  *  not use this file except in compliance with the License.
   9:Source\mbedtls_open\library/ecdh.c ****  *  You may obtain a copy of the License at
  10:Source\mbedtls_open\library/ecdh.c ****  *
  11:Source\mbedtls_open\library/ecdh.c ****  *  http://www.apache.org/licenses/LICENSE-2.0
  12:Source\mbedtls_open\library/ecdh.c ****  *
  13:Source\mbedtls_open\library/ecdh.c ****  *  Unless required by applicable law or agreed to in writing, software
  14:Source\mbedtls_open\library/ecdh.c ****  *  distributed under the License is distributed on an "AS IS" BASIS, WITHOUT
  15:Source\mbedtls_open\library/ecdh.c ****  *  WARRANTIES OR CONDITIONS OF ANY KIND, either express or implied.
  16:Source\mbedtls_open\library/ecdh.c ****  *  See the License for the specific language governing permissions and
  17:Source\mbedtls_open\library/ecdh.c ****  *  limitations under the License.
  18:Source\mbedtls_open\library/ecdh.c ****  *
  19:Source\mbedtls_open\library/ecdh.c ****  *  This file is part of mbed TLS (https://tls.mbed.org)
  20:Source\mbedtls_open\library/ecdh.c ****  */
  21:Source\mbedtls_open\library/ecdh.c **** 
  22:Source\mbedtls_open\library/ecdh.c **** /*
  23:Source\mbedtls_open\library/ecdh.c ****  * References:
  24:Source\mbedtls_open\library/ecdh.c ****  *
  25:Source\mbedtls_open\library/ecdh.c ****  * SEC1 http://www.secg.org/index.php?action=secg,docs_secg
  26:Source\mbedtls_open\library/ecdh.c ****  * RFC 4492
  27:Source\mbedtls_open\library/ecdh.c ****  */
  28:Source\mbedtls_open\library/ecdh.c **** 
  29:Source\mbedtls_open\library/ecdh.c **** #if !defined(MBEDTLS_CONFIG_FILE)
  30:Source\mbedtls_open\library/ecdh.c **** #include "mbedtls/config.h"
  31:Source\mbedtls_open\library/ecdh.c **** #else
ARM GAS  C:\Users\Phuong\AppData\Local\Temp\ccpVBVks.s 			page 2


  32:Source\mbedtls_open\library/ecdh.c **** #include MBEDTLS_CONFIG_FILE
  33:Source\mbedtls_open\library/ecdh.c **** #endif
  34:Source\mbedtls_open\library/ecdh.c **** 
  35:Source\mbedtls_open\library/ecdh.c **** #if defined(MBEDTLS_ECDH_C)
  36:Source\mbedtls_open\library/ecdh.c **** 
  37:Source\mbedtls_open\library/ecdh.c **** #include "mbedtls/ecdh.h"
  38:Source\mbedtls_open\library/ecdh.c **** 
  39:Source\mbedtls_open\library/ecdh.c **** #include <string.h>
  40:Source\mbedtls_open\library/ecdh.c **** 
  41:Source\mbedtls_open\library/ecdh.c **** #if !defined(MBEDTLS_ECDH_GEN_PUBLIC_ALT)
  42:Source\mbedtls_open\library/ecdh.c **** /*
  43:Source\mbedtls_open\library/ecdh.c ****  * Generate public key (restartable version)
  44:Source\mbedtls_open\library/ecdh.c ****  *
  45:Source\mbedtls_open\library/ecdh.c ****  * Note: this internal function relies on its caller preserving the value of
  46:Source\mbedtls_open\library/ecdh.c ****  * the output parameter 'd' across continuation calls. This would not be
  47:Source\mbedtls_open\library/ecdh.c ****  * acceptable for a public function but is OK here as we control call sites.
  48:Source\mbedtls_open\library/ecdh.c ****  */
  49:Source\mbedtls_open\library/ecdh.c **** static int ecdh_gen_public_restartable( mbedtls_ecp_group *grp,
  50:Source\mbedtls_open\library/ecdh.c ****                     mbedtls_mpi *d, mbedtls_ecp_point *Q,
  51:Source\mbedtls_open\library/ecdh.c ****                     int (*f_rng)(void *, unsigned char *, size_t),
  52:Source\mbedtls_open\library/ecdh.c ****                     void *p_rng,
  53:Source\mbedtls_open\library/ecdh.c ****                     mbedtls_ecp_restart_ctx *rs_ctx )
  54:Source\mbedtls_open\library/ecdh.c **** {
  27              		.loc 1 54 0
  28              		.cfi_startproc
  29              		@ args = 8, pretend = 0, frame = 0
  30              		@ frame_needed = 0, uses_anonymous_args = 0
  31              	.LVL0:
  32 0000 F0B5     		push	{r4, r5, r6, r7, lr}
  33              		.cfi_def_cfa_offset 20
  34              		.cfi_offset 4, -20
  35              		.cfi_offset 5, -16
  36              		.cfi_offset 6, -12
  37              		.cfi_offset 7, -8
  38              		.cfi_offset 14, -4
  39 0002 85B0     		sub	sp, sp, #20
  40              		.cfi_def_cfa_offset 40
  41 0004 0400     		movs	r4, r0
  42 0006 0D00     		movs	r5, r1
  43 0008 1700     		movs	r7, r2
  44 000a 1E00     		movs	r6, r3
  55:Source\mbedtls_open\library/ecdh.c ****     int ret;
  56:Source\mbedtls_open\library/ecdh.c **** 
  57:Source\mbedtls_open\library/ecdh.c ****     /* If multiplication is in progress, we already generated a privkey */
  58:Source\mbedtls_open\library/ecdh.c **** #if defined(MBEDTLS_ECP_RESTARTABLE)
  59:Source\mbedtls_open\library/ecdh.c ****     if( rs_ctx == NULL || rs_ctx->rsm == NULL )
  60:Source\mbedtls_open\library/ecdh.c **** #endif
  61:Source\mbedtls_open\library/ecdh.c ****         MBEDTLS_MPI_CHK( mbedtls_ecp_gen_privkey( grp, d, f_rng, p_rng ) );
  45              		.loc 1 61 0
  46 000c 0A9B     		ldr	r3, [sp, #40]
  47              	.LVL1:
  48 000e 3200     		movs	r2, r6
  49              	.LVL2:
  50 0010 FFF7FEFF 		bl	mbedtls_ecp_gen_privkey
  51              	.LVL3:
  52 0014 0028     		cmp	r0, #0
  53 0016 0BD1     		bne	.L2
ARM GAS  C:\Users\Phuong\AppData\Local\Temp\ccpVBVks.s 			page 3


  62:Source\mbedtls_open\library/ecdh.c **** 
  63:Source\mbedtls_open\library/ecdh.c ****     MBEDTLS_MPI_CHK( mbedtls_ecp_mul_restartable( grp, Q, d, &grp->G,
  54              		.loc 1 63 0
  55 0018 2300     		movs	r3, r4
  56 001a 2833     		adds	r3, r3, #40
  57 001c 0B9A     		ldr	r2, [sp, #44]
  58 001e 0292     		str	r2, [sp, #8]
  59 0020 0A9A     		ldr	r2, [sp, #40]
  60 0022 0192     		str	r2, [sp, #4]
  61 0024 0096     		str	r6, [sp]
  62 0026 2A00     		movs	r2, r5
  63 0028 3900     		movs	r1, r7
  64 002a 2000     		movs	r0, r4
  65              	.LVL4:
  66 002c FFF7FEFF 		bl	mbedtls_ecp_mul_restartable
  67              	.LVL5:
  68              	.L2:
  64:Source\mbedtls_open\library/ecdh.c ****                                                   f_rng, p_rng, rs_ctx ) );
  65:Source\mbedtls_open\library/ecdh.c **** 
  66:Source\mbedtls_open\library/ecdh.c **** cleanup:
  67:Source\mbedtls_open\library/ecdh.c ****     return( ret );
  68:Source\mbedtls_open\library/ecdh.c **** }
  69              		.loc 1 68 0
  70 0030 05B0     		add	sp, sp, #20
  71              		@ sp needed
  72              	.LVL6:
  73              	.LVL7:
  74              	.LVL8:
  75              	.LVL9:
  76 0032 F0BD     		pop	{r4, r5, r6, r7, pc}
  77              		.cfi_endproc
  78              	.LFE0:
  79              		.size	ecdh_gen_public_restartable, .-ecdh_gen_public_restartable
  80              		.section	.text.ecdh_compute_shared_restartable,"ax",%progbits
  81              		.align	2
  82              		.code	16
  83              		.thumb_func
  84              		.type	ecdh_compute_shared_restartable, %function
  85              	ecdh_compute_shared_restartable:
  86              	.LFB2:
  69:Source\mbedtls_open\library/ecdh.c **** 
  70:Source\mbedtls_open\library/ecdh.c **** /*
  71:Source\mbedtls_open\library/ecdh.c ****  * Generate public key
  72:Source\mbedtls_open\library/ecdh.c ****  */
  73:Source\mbedtls_open\library/ecdh.c **** int mbedtls_ecdh_gen_public( mbedtls_ecp_group *grp, mbedtls_mpi *d, mbedtls_ecp_point *Q,
  74:Source\mbedtls_open\library/ecdh.c ****                      int (*f_rng)(void *, unsigned char *, size_t),
  75:Source\mbedtls_open\library/ecdh.c ****                      void *p_rng )
  76:Source\mbedtls_open\library/ecdh.c **** {
  77:Source\mbedtls_open\library/ecdh.c ****     return( ecdh_gen_public_restartable( grp, d, Q, f_rng, p_rng, NULL ) );
  78:Source\mbedtls_open\library/ecdh.c **** }
  79:Source\mbedtls_open\library/ecdh.c **** #endif /* MBEDTLS_ECDH_GEN_PUBLIC_ALT */
  80:Source\mbedtls_open\library/ecdh.c **** 
  81:Source\mbedtls_open\library/ecdh.c **** #if !defined(MBEDTLS_ECDH_COMPUTE_SHARED_ALT)
  82:Source\mbedtls_open\library/ecdh.c **** /*
  83:Source\mbedtls_open\library/ecdh.c ****  * Compute shared secret (SEC1 3.3.1)
  84:Source\mbedtls_open\library/ecdh.c ****  */
  85:Source\mbedtls_open\library/ecdh.c **** static int ecdh_compute_shared_restartable( mbedtls_ecp_group *grp,
ARM GAS  C:\Users\Phuong\AppData\Local\Temp\ccpVBVks.s 			page 4


  86:Source\mbedtls_open\library/ecdh.c ****                          mbedtls_mpi *z,
  87:Source\mbedtls_open\library/ecdh.c ****                          const mbedtls_ecp_point *Q, const mbedtls_mpi *d,
  88:Source\mbedtls_open\library/ecdh.c ****                          int (*f_rng)(void *, unsigned char *, size_t),
  89:Source\mbedtls_open\library/ecdh.c ****                          void *p_rng,
  90:Source\mbedtls_open\library/ecdh.c ****                          mbedtls_ecp_restart_ctx *rs_ctx )
  91:Source\mbedtls_open\library/ecdh.c **** {
  87              		.loc 1 91 0
  88              		.cfi_startproc
  89              		@ args = 12, pretend = 0, frame = 40
  90              		@ frame_needed = 0, uses_anonymous_args = 0
  91              	.LVL10:
  92 0000 F0B5     		push	{r4, r5, r6, r7, lr}
  93              		.cfi_def_cfa_offset 20
  94              		.cfi_offset 4, -20
  95              		.cfi_offset 5, -16
  96              		.cfi_offset 6, -12
  97              		.cfi_offset 7, -8
  98              		.cfi_offset 14, -4
  99 0002 8FB0     		sub	sp, sp, #60
 100              		.cfi_def_cfa_offset 80
 101 0004 0400     		movs	r4, r0
 102 0006 0E00     		movs	r6, r1
 103 0008 1700     		movs	r7, r2
 104 000a 1D00     		movs	r5, r3
  92:Source\mbedtls_open\library/ecdh.c ****     int ret;
  93:Source\mbedtls_open\library/ecdh.c ****     mbedtls_ecp_point P;
  94:Source\mbedtls_open\library/ecdh.c **** 
  95:Source\mbedtls_open\library/ecdh.c ****     mbedtls_ecp_point_init( &P );
 105              		.loc 1 95 0
 106 000c 05A8     		add	r0, sp, #20
 107              	.LVL11:
 108 000e FFF7FEFF 		bl	mbedtls_ecp_point_init
 109              	.LVL12:
  96:Source\mbedtls_open\library/ecdh.c **** 
  97:Source\mbedtls_open\library/ecdh.c ****     MBEDTLS_MPI_CHK( mbedtls_ecp_mul_restartable( grp, &P, d, Q,
 110              		.loc 1 97 0
 111 0012 169B     		ldr	r3, [sp, #88]
 112 0014 0293     		str	r3, [sp, #8]
 113 0016 159B     		ldr	r3, [sp, #84]
 114 0018 0193     		str	r3, [sp, #4]
 115 001a 149B     		ldr	r3, [sp, #80]
 116 001c 0093     		str	r3, [sp]
 117 001e 3B00     		movs	r3, r7
 118 0020 2A00     		movs	r2, r5
 119 0022 05A9     		add	r1, sp, #20
 120 0024 2000     		movs	r0, r4
 121 0026 FFF7FEFF 		bl	mbedtls_ecp_mul_restartable
 122              	.LVL13:
 123 002a 041E     		subs	r4, r0, #0
 124              	.LVL14:
 125 002c 0BD1     		bne	.L4
  98:Source\mbedtls_open\library/ecdh.c ****                                                   f_rng, p_rng, rs_ctx ) );
  99:Source\mbedtls_open\library/ecdh.c **** 
 100:Source\mbedtls_open\library/ecdh.c ****     if( mbedtls_ecp_is_zero( &P ) )
 126              		.loc 1 100 0
 127 002e 05A8     		add	r0, sp, #20
 128              	.LVL15:
ARM GAS  C:\Users\Phuong\AppData\Local\Temp\ccpVBVks.s 			page 5


 129 0030 FFF7FEFF 		bl	mbedtls_ecp_is_zero
 130              	.LVL16:
 131 0034 0028     		cmp	r0, #0
 132 0036 05D1     		bne	.L5
 101:Source\mbedtls_open\library/ecdh.c ****     {
 102:Source\mbedtls_open\library/ecdh.c ****         ret = MBEDTLS_ERR_ECP_BAD_INPUT_DATA;
 103:Source\mbedtls_open\library/ecdh.c ****         goto cleanup;
 104:Source\mbedtls_open\library/ecdh.c ****     }
 105:Source\mbedtls_open\library/ecdh.c **** 
 106:Source\mbedtls_open\library/ecdh.c ****     MBEDTLS_MPI_CHK( mbedtls_mpi_copy( z, &P.X ) );
 133              		.loc 1 106 0
 134 0038 05A9     		add	r1, sp, #20
 135 003a 3000     		movs	r0, r6
 136 003c FFF7FEFF 		bl	mbedtls_mpi_copy
 137              	.LVL17:
 138 0040 0400     		movs	r4, r0
 139              	.LVL18:
 140 0042 00E0     		b	.L4
 141              	.LVL19:
 142              	.L5:
 102:Source\mbedtls_open\library/ecdh.c ****         goto cleanup;
 143              		.loc 1 102 0
 144 0044 034C     		ldr	r4, .L6
 145              	.LVL20:
 146              	.L4:
 107:Source\mbedtls_open\library/ecdh.c **** 
 108:Source\mbedtls_open\library/ecdh.c **** cleanup:
 109:Source\mbedtls_open\library/ecdh.c ****     mbedtls_ecp_point_free( &P );
 147              		.loc 1 109 0
 148 0046 05A8     		add	r0, sp, #20
 149 0048 FFF7FEFF 		bl	mbedtls_ecp_point_free
 150              	.LVL21:
 110:Source\mbedtls_open\library/ecdh.c **** 
 111:Source\mbedtls_open\library/ecdh.c ****     return( ret );
 112:Source\mbedtls_open\library/ecdh.c **** }
 151              		.loc 1 112 0
 152 004c 2000     		movs	r0, r4
 153 004e 0FB0     		add	sp, sp, #60
 154              		@ sp needed
 155              	.LVL22:
 156              	.LVL23:
 157              	.LVL24:
 158              	.LVL25:
 159 0050 F0BD     		pop	{r4, r5, r6, r7, pc}
 160              	.L7:
 161 0052 C046     		.align	2
 162              	.L6:
 163 0054 80B0FFFF 		.word	-20352
 164              		.cfi_endproc
 165              	.LFE2:
 166              		.size	ecdh_compute_shared_restartable, .-ecdh_compute_shared_restartable
 167              		.section	.text.mbedtls_ecdh_gen_public,"ax",%progbits
 168              		.align	2
 169              		.global	mbedtls_ecdh_gen_public
 170              		.code	16
 171              		.thumb_func
 172              		.type	mbedtls_ecdh_gen_public, %function
ARM GAS  C:\Users\Phuong\AppData\Local\Temp\ccpVBVks.s 			page 6


 173              	mbedtls_ecdh_gen_public:
 174              	.LFB1:
  76:Source\mbedtls_open\library/ecdh.c ****     return( ecdh_gen_public_restartable( grp, d, Q, f_rng, p_rng, NULL ) );
 175              		.loc 1 76 0
 176              		.cfi_startproc
 177              		@ args = 4, pretend = 0, frame = 0
 178              		@ frame_needed = 0, uses_anonymous_args = 0
 179              	.LVL26:
 180 0000 10B5     		push	{r4, lr}
 181              		.cfi_def_cfa_offset 8
 182              		.cfi_offset 4, -8
 183              		.cfi_offset 14, -4
 184 0002 82B0     		sub	sp, sp, #8
 185              		.cfi_def_cfa_offset 16
  77:Source\mbedtls_open\library/ecdh.c **** }
 186              		.loc 1 77 0
 187 0004 0024     		movs	r4, #0
 188 0006 0194     		str	r4, [sp, #4]
 189 0008 049C     		ldr	r4, [sp, #16]
 190 000a 0094     		str	r4, [sp]
 191 000c FFF7FEFF 		bl	ecdh_gen_public_restartable
 192              	.LVL27:
  78:Source\mbedtls_open\library/ecdh.c **** #endif /* MBEDTLS_ECDH_GEN_PUBLIC_ALT */
 193              		.loc 1 78 0
 194 0010 02B0     		add	sp, sp, #8
 195              		@ sp needed
 196 0012 10BD     		pop	{r4, pc}
 197              		.cfi_endproc
 198              	.LFE1:
 199              		.size	mbedtls_ecdh_gen_public, .-mbedtls_ecdh_gen_public
 200              		.section	.text.mbedtls_ecdh_compute_shared,"ax",%progbits
 201              		.align	2
 202              		.global	mbedtls_ecdh_compute_shared
 203              		.code	16
 204              		.thumb_func
 205              		.type	mbedtls_ecdh_compute_shared, %function
 206              	mbedtls_ecdh_compute_shared:
 207              	.LFB3:
 113:Source\mbedtls_open\library/ecdh.c **** #endif /* MBEDTLS_ECDH_COMPUTE_SHARED_ALT */
 114:Source\mbedtls_open\library/ecdh.c **** 
 115:Source\mbedtls_open\library/ecdh.c **** /*
 116:Source\mbedtls_open\library/ecdh.c ****  * Compute shared secret (SEC1 3.3.1)
 117:Source\mbedtls_open\library/ecdh.c ****  */
 118:Source\mbedtls_open\library/ecdh.c **** int mbedtls_ecdh_compute_shared( mbedtls_ecp_group *grp, mbedtls_mpi *z,
 119:Source\mbedtls_open\library/ecdh.c ****                          const mbedtls_ecp_point *Q, const mbedtls_mpi *d,
 120:Source\mbedtls_open\library/ecdh.c ****                          int (*f_rng)(void *, unsigned char *, size_t),
 121:Source\mbedtls_open\library/ecdh.c ****                          void *p_rng )
 122:Source\mbedtls_open\library/ecdh.c **** {
 208              		.loc 1 122 0
 209              		.cfi_startproc
 210              		@ args = 8, pretend = 0, frame = 0
 211              		@ frame_needed = 0, uses_anonymous_args = 0
 212              	.LVL28:
 213 0000 10B5     		push	{r4, lr}
 214              		.cfi_def_cfa_offset 8
 215              		.cfi_offset 4, -8
 216              		.cfi_offset 14, -4
ARM GAS  C:\Users\Phuong\AppData\Local\Temp\ccpVBVks.s 			page 7


 217 0002 84B0     		sub	sp, sp, #16
 218              		.cfi_def_cfa_offset 24
 123:Source\mbedtls_open\library/ecdh.c ****     return( ecdh_compute_shared_restartable( grp, z, Q, d,
 219              		.loc 1 123 0
 220 0004 0024     		movs	r4, #0
 221 0006 0294     		str	r4, [sp, #8]
 222 0008 079C     		ldr	r4, [sp, #28]
 223 000a 0194     		str	r4, [sp, #4]
 224 000c 069C     		ldr	r4, [sp, #24]
 225 000e 0094     		str	r4, [sp]
 226 0010 FFF7FEFF 		bl	ecdh_compute_shared_restartable
 227              	.LVL29:
 124:Source\mbedtls_open\library/ecdh.c ****                                              f_rng, p_rng, NULL ) );
 125:Source\mbedtls_open\library/ecdh.c **** }
 228              		.loc 1 125 0
 229 0014 04B0     		add	sp, sp, #16
 230              		@ sp needed
 231 0016 10BD     		pop	{r4, pc}
 232              		.cfi_endproc
 233              	.LFE3:
 234              		.size	mbedtls_ecdh_compute_shared, .-mbedtls_ecdh_compute_shared
 235              		.section	.text.mbedtls_ecdh_init,"ax",%progbits
 236              		.align	2
 237              		.global	mbedtls_ecdh_init
 238              		.code	16
 239              		.thumb_func
 240              		.type	mbedtls_ecdh_init, %function
 241              	mbedtls_ecdh_init:
 242              	.LFB4:
 126:Source\mbedtls_open\library/ecdh.c **** 
 127:Source\mbedtls_open\library/ecdh.c **** /*
 128:Source\mbedtls_open\library/ecdh.c ****  * Initialize context
 129:Source\mbedtls_open\library/ecdh.c ****  */
 130:Source\mbedtls_open\library/ecdh.c **** void mbedtls_ecdh_init( mbedtls_ecdh_context *ctx )
 131:Source\mbedtls_open\library/ecdh.c **** {
 243              		.loc 1 131 0
 244              		.cfi_startproc
 245              		@ args = 0, pretend = 0, frame = 0
 246              		@ frame_needed = 0, uses_anonymous_args = 0
 247              	.LVL30:
 248 0000 10B5     		push	{r4, lr}
 249              		.cfi_def_cfa_offset 8
 250              		.cfi_offset 4, -8
 251              		.cfi_offset 14, -4
 252 0002 0400     		movs	r4, r0
 132:Source\mbedtls_open\library/ecdh.c ****     mbedtls_ecp_group_init( &ctx->grp );
 253              		.loc 1 132 0
 254 0004 FFF7FEFF 		bl	mbedtls_ecp_group_init
 255              	.LVL31:
 133:Source\mbedtls_open\library/ecdh.c ****     mbedtls_mpi_init( &ctx->d  );
 256              		.loc 1 133 0
 257 0008 2000     		movs	r0, r4
 258 000a 7C30     		adds	r0, r0, #124
 259 000c FFF7FEFF 		bl	mbedtls_mpi_init
 260              	.LVL32:
 134:Source\mbedtls_open\library/ecdh.c ****     mbedtls_ecp_point_init( &ctx->Q   );
 261              		.loc 1 134 0
ARM GAS  C:\Users\Phuong\AppData\Local\Temp\ccpVBVks.s 			page 8


 262 0010 2000     		movs	r0, r4
 263 0012 8830     		adds	r0, r0, #136
 264 0014 FFF7FEFF 		bl	mbedtls_ecp_point_init
 265              	.LVL33:
 135:Source\mbedtls_open\library/ecdh.c ****     mbedtls_ecp_point_init( &ctx->Qp  );
 266              		.loc 1 135 0
 267 0018 2000     		movs	r0, r4
 268 001a AC30     		adds	r0, r0, #172
 269 001c FFF7FEFF 		bl	mbedtls_ecp_point_init
 270              	.LVL34:
 136:Source\mbedtls_open\library/ecdh.c ****     mbedtls_mpi_init( &ctx->z  );
 271              		.loc 1 136 0
 272 0020 2000     		movs	r0, r4
 273 0022 D030     		adds	r0, r0, #208
 274 0024 FFF7FEFF 		bl	mbedtls_mpi_init
 275              	.LVL35:
 137:Source\mbedtls_open\library/ecdh.c ****     ctx->point_format = MBEDTLS_ECP_PF_UNCOMPRESSED;
 276              		.loc 1 137 0
 277 0028 0022     		movs	r2, #0
 278 002a DC23     		movs	r3, #220
 279 002c E250     		str	r2, [r4, r3]
 138:Source\mbedtls_open\library/ecdh.c ****     mbedtls_ecp_point_init( &ctx->Vi  );
 280              		.loc 1 138 0
 281 002e 2000     		movs	r0, r4
 282 0030 E030     		adds	r0, r0, #224
 283 0032 FFF7FEFF 		bl	mbedtls_ecp_point_init
 284              	.LVL36:
 139:Source\mbedtls_open\library/ecdh.c ****     mbedtls_ecp_point_init( &ctx->Vf  );
 285              		.loc 1 139 0
 286 0036 601D     		adds	r0, r4, #5
 287 0038 FF30     		adds	r0, r0, #255
 288 003a FFF7FEFF 		bl	mbedtls_ecp_point_init
 289              	.LVL37:
 140:Source\mbedtls_open\library/ecdh.c ****     mbedtls_mpi_init( &ctx->_d );
 290              		.loc 1 140 0
 291 003e 2000     		movs	r0, r4
 292 0040 2930     		adds	r0, r0, #41
 293 0042 FF30     		adds	r0, r0, #255
 294 0044 FFF7FEFF 		bl	mbedtls_mpi_init
 295              	.LVL38:
 141:Source\mbedtls_open\library/ecdh.c **** 
 142:Source\mbedtls_open\library/ecdh.c **** #if defined(MBEDTLS_ECP_RESTARTABLE)
 143:Source\mbedtls_open\library/ecdh.c ****     ctx->restart_enabled = 0;
 144:Source\mbedtls_open\library/ecdh.c ****     mbedtls_ecp_restart_init( &ctx->rs );
 145:Source\mbedtls_open\library/ecdh.c **** #endif
 146:Source\mbedtls_open\library/ecdh.c **** }
 296              		.loc 1 146 0
 297              		@ sp needed
 298              	.LVL39:
 299 0048 10BD     		pop	{r4, pc}
 300              		.cfi_endproc
 301              	.LFE4:
 302              		.size	mbedtls_ecdh_init, .-mbedtls_ecdh_init
 303 004a C046     		.section	.text.mbedtls_ecdh_free,"ax",%progbits
 304              		.align	2
 305              		.global	mbedtls_ecdh_free
 306              		.code	16
ARM GAS  C:\Users\Phuong\AppData\Local\Temp\ccpVBVks.s 			page 9


 307              		.thumb_func
 308              		.type	mbedtls_ecdh_free, %function
 309              	mbedtls_ecdh_free:
 310              	.LFB5:
 147:Source\mbedtls_open\library/ecdh.c **** 
 148:Source\mbedtls_open\library/ecdh.c **** /*
 149:Source\mbedtls_open\library/ecdh.c ****  * Free context
 150:Source\mbedtls_open\library/ecdh.c ****  */
 151:Source\mbedtls_open\library/ecdh.c **** void mbedtls_ecdh_free( mbedtls_ecdh_context *ctx )
 152:Source\mbedtls_open\library/ecdh.c **** {
 311              		.loc 1 152 0
 312              		.cfi_startproc
 313              		@ args = 0, pretend = 0, frame = 0
 314              		@ frame_needed = 0, uses_anonymous_args = 0
 315              	.LVL40:
 316 0000 10B5     		push	{r4, lr}
 317              		.cfi_def_cfa_offset 8
 318              		.cfi_offset 4, -8
 319              		.cfi_offset 14, -4
 320 0002 041E     		subs	r4, r0, #0
 153:Source\mbedtls_open\library/ecdh.c ****     if( ctx == NULL )
 321              		.loc 1 153 0
 322 0004 1ED0     		beq	.L11
 154:Source\mbedtls_open\library/ecdh.c ****         return;
 155:Source\mbedtls_open\library/ecdh.c **** 
 156:Source\mbedtls_open\library/ecdh.c ****     mbedtls_ecp_group_free( &ctx->grp );
 323              		.loc 1 156 0
 324 0006 FFF7FEFF 		bl	mbedtls_ecp_group_free
 325              	.LVL41:
 157:Source\mbedtls_open\library/ecdh.c ****     mbedtls_mpi_free( &ctx->d  );
 326              		.loc 1 157 0
 327 000a 2000     		movs	r0, r4
 328 000c 7C30     		adds	r0, r0, #124
 329 000e FFF7FEFF 		bl	mbedtls_mpi_free
 330              	.LVL42:
 158:Source\mbedtls_open\library/ecdh.c ****     mbedtls_ecp_point_free( &ctx->Q   );
 331              		.loc 1 158 0
 332 0012 2000     		movs	r0, r4
 333 0014 8830     		adds	r0, r0, #136
 334 0016 FFF7FEFF 		bl	mbedtls_ecp_point_free
 335              	.LVL43:
 159:Source\mbedtls_open\library/ecdh.c ****     mbedtls_ecp_point_free( &ctx->Qp  );
 336              		.loc 1 159 0
 337 001a 2000     		movs	r0, r4
 338 001c AC30     		adds	r0, r0, #172
 339 001e FFF7FEFF 		bl	mbedtls_ecp_point_free
 340              	.LVL44:
 160:Source\mbedtls_open\library/ecdh.c ****     mbedtls_mpi_free( &ctx->z  );
 341              		.loc 1 160 0
 342 0022 2000     		movs	r0, r4
 343 0024 D030     		adds	r0, r0, #208
 344 0026 FFF7FEFF 		bl	mbedtls_mpi_free
 345              	.LVL45:
 161:Source\mbedtls_open\library/ecdh.c ****     mbedtls_ecp_point_free( &ctx->Vi  );
 346              		.loc 1 161 0
 347 002a 2000     		movs	r0, r4
 348 002c E030     		adds	r0, r0, #224
ARM GAS  C:\Users\Phuong\AppData\Local\Temp\ccpVBVks.s 			page 10


 349 002e FFF7FEFF 		bl	mbedtls_ecp_point_free
 350              	.LVL46:
 162:Source\mbedtls_open\library/ecdh.c ****     mbedtls_ecp_point_free( &ctx->Vf  );
 351              		.loc 1 162 0
 352 0032 601D     		adds	r0, r4, #5
 353 0034 FF30     		adds	r0, r0, #255
 354 0036 FFF7FEFF 		bl	mbedtls_ecp_point_free
 355              	.LVL47:
 163:Source\mbedtls_open\library/ecdh.c ****     mbedtls_mpi_free( &ctx->_d );
 356              		.loc 1 163 0
 357 003a 2000     		movs	r0, r4
 358 003c 2930     		adds	r0, r0, #41
 359 003e FF30     		adds	r0, r0, #255
 360 0040 FFF7FEFF 		bl	mbedtls_mpi_free
 361              	.LVL48:
 362              	.L11:
 164:Source\mbedtls_open\library/ecdh.c **** 
 165:Source\mbedtls_open\library/ecdh.c **** #if defined(MBEDTLS_ECP_RESTARTABLE)
 166:Source\mbedtls_open\library/ecdh.c ****     mbedtls_ecp_restart_free( &ctx->rs );
 167:Source\mbedtls_open\library/ecdh.c **** #endif
 168:Source\mbedtls_open\library/ecdh.c **** }
 363              		.loc 1 168 0
 364              		@ sp needed
 365              	.LVL49:
 366 0044 10BD     		pop	{r4, pc}
 367              		.cfi_endproc
 368              	.LFE5:
 369              		.size	mbedtls_ecdh_free, .-mbedtls_ecdh_free
 370 0046 C046     		.section	.text.mbedtls_ecdh_make_params,"ax",%progbits
 371              		.align	2
 372              		.global	mbedtls_ecdh_make_params
 373              		.code	16
 374              		.thumb_func
 375              		.type	mbedtls_ecdh_make_params, %function
 376              	mbedtls_ecdh_make_params:
 377              	.LFB6:
 169:Source\mbedtls_open\library/ecdh.c **** 
 170:Source\mbedtls_open\library/ecdh.c **** #if defined(MBEDTLS_ECP_RESTARTABLE)
 171:Source\mbedtls_open\library/ecdh.c **** /*
 172:Source\mbedtls_open\library/ecdh.c ****  * Enable restartable operations for context
 173:Source\mbedtls_open\library/ecdh.c ****  */
 174:Source\mbedtls_open\library/ecdh.c **** void mbedtls_ecdh_enable_restart( mbedtls_ecdh_context *ctx )
 175:Source\mbedtls_open\library/ecdh.c **** {
 176:Source\mbedtls_open\library/ecdh.c ****     ctx->restart_enabled = 1;
 177:Source\mbedtls_open\library/ecdh.c **** }
 178:Source\mbedtls_open\library/ecdh.c **** #endif
 179:Source\mbedtls_open\library/ecdh.c **** 
 180:Source\mbedtls_open\library/ecdh.c **** /*
 181:Source\mbedtls_open\library/ecdh.c ****  * Setup and write the ServerKeyExhange parameters (RFC 4492)
 182:Source\mbedtls_open\library/ecdh.c ****  *      struct {
 183:Source\mbedtls_open\library/ecdh.c ****  *          ECParameters    curve_params;
 184:Source\mbedtls_open\library/ecdh.c ****  *          ECPoint         public;
 185:Source\mbedtls_open\library/ecdh.c ****  *      } ServerECDHParams;
 186:Source\mbedtls_open\library/ecdh.c ****  */
 187:Source\mbedtls_open\library/ecdh.c **** int mbedtls_ecdh_make_params( mbedtls_ecdh_context *ctx, size_t *olen,
 188:Source\mbedtls_open\library/ecdh.c ****                       unsigned char *buf, size_t blen,
 189:Source\mbedtls_open\library/ecdh.c ****                       int (*f_rng)(void *, unsigned char *, size_t),
ARM GAS  C:\Users\Phuong\AppData\Local\Temp\ccpVBVks.s 			page 11


 190:Source\mbedtls_open\library/ecdh.c ****                       void *p_rng )
 191:Source\mbedtls_open\library/ecdh.c **** {
 378              		.loc 1 191 0
 379              		.cfi_startproc
 380              		@ args = 8, pretend = 0, frame = 16
 381              		@ frame_needed = 0, uses_anonymous_args = 0
 382              	.LVL50:
 383 0000 F0B5     		push	{r4, r5, r6, r7, lr}
 384              		.cfi_def_cfa_offset 20
 385              		.cfi_offset 4, -20
 386              		.cfi_offset 5, -16
 387              		.cfi_offset 6, -12
 388              		.cfi_offset 7, -8
 389              		.cfi_offset 14, -4
 390 0002 87B0     		sub	sp, sp, #28
 391              		.cfi_def_cfa_offset 48
 392 0004 0400     		movs	r4, r0
 393 0006 0391     		str	r1, [sp, #12]
 394 0008 1500     		movs	r5, r2
 395 000a 1E00     		movs	r6, r3
 396              	.LVL51:
 192:Source\mbedtls_open\library/ecdh.c ****     int ret;
 193:Source\mbedtls_open\library/ecdh.c ****     size_t grp_len, pt_len;
 194:Source\mbedtls_open\library/ecdh.c ****     mbedtls_ecp_restart_ctx *rs_ctx = NULL;
 195:Source\mbedtls_open\library/ecdh.c **** 
 196:Source\mbedtls_open\library/ecdh.c ****     if( ctx == NULL || ctx->grp.pbits == 0 )
 397              		.loc 1 196 0
 398 000c 0028     		cmp	r0, #0
 399 000e 2DD0     		beq	.L15
 400              		.loc 1 196 0 is_stmt 0 discriminator 1
 401 0010 836D     		ldr	r3, [r0, #88]
 402              	.LVL52:
 403 0012 002B     		cmp	r3, #0
 404 0014 2CD0     		beq	.L16
 197:Source\mbedtls_open\library/ecdh.c ****         return( MBEDTLS_ERR_ECP_BAD_INPUT_DATA );
 198:Source\mbedtls_open\library/ecdh.c **** 
 199:Source\mbedtls_open\library/ecdh.c **** #if defined(MBEDTLS_ECP_RESTARTABLE)
 200:Source\mbedtls_open\library/ecdh.c ****     if( ctx->restart_enabled )
 201:Source\mbedtls_open\library/ecdh.c ****         rs_ctx = &ctx->rs;
 202:Source\mbedtls_open\library/ecdh.c **** #endif
 203:Source\mbedtls_open\library/ecdh.c **** 
 204:Source\mbedtls_open\library/ecdh.c ****     if( ( ret = ecdh_gen_public_restartable( &ctx->grp, &ctx->d, &ctx->Q,
 405              		.loc 1 204 0 is_stmt 1
 406 0016 0100     		movs	r1, r0
 407              	.LVL53:
 408 0018 7C31     		adds	r1, r1, #124
 409 001a 0700     		movs	r7, r0
 410 001c 8837     		adds	r7, r7, #136
 411 001e 0023     		movs	r3, #0
 412 0020 0193     		str	r3, [sp, #4]
 413 0022 0D9B     		ldr	r3, [sp, #52]
 414 0024 0093     		str	r3, [sp]
 415 0026 0C9B     		ldr	r3, [sp, #48]
 416 0028 3A00     		movs	r2, r7
 417              	.LVL54:
 418 002a FFF7FEFF 		bl	ecdh_gen_public_restartable
 419              	.LVL55:
ARM GAS  C:\Users\Phuong\AppData\Local\Temp\ccpVBVks.s 			page 12


 420 002e 0028     		cmp	r0, #0
 421 0030 1FD1     		bne	.L14
 205:Source\mbedtls_open\library/ecdh.c ****                                              f_rng, p_rng, rs_ctx ) ) != 0 )
 206:Source\mbedtls_open\library/ecdh.c ****         return( ret );
 207:Source\mbedtls_open\library/ecdh.c **** 
 208:Source\mbedtls_open\library/ecdh.c ****     if( ( ret = mbedtls_ecp_tls_write_group( &ctx->grp, &grp_len, buf, blen ) )
 422              		.loc 1 208 0
 423 0032 3300     		movs	r3, r6
 424 0034 2A00     		movs	r2, r5
 425 0036 05A9     		add	r1, sp, #20
 426 0038 2000     		movs	r0, r4
 427              	.LVL56:
 428 003a FFF7FEFF 		bl	mbedtls_ecp_tls_write_group
 429              	.LVL57:
 430 003e 0028     		cmp	r0, #0
 431 0040 17D1     		bne	.L14
 209:Source\mbedtls_open\library/ecdh.c ****                 != 0 )
 210:Source\mbedtls_open\library/ecdh.c ****         return( ret );
 211:Source\mbedtls_open\library/ecdh.c **** 
 212:Source\mbedtls_open\library/ecdh.c ****     buf += grp_len;
 432              		.loc 1 212 0
 433 0042 059B     		ldr	r3, [sp, #20]
 434 0044 ED18     		adds	r5, r5, r3
 435              	.LVL58:
 213:Source\mbedtls_open\library/ecdh.c ****     blen -= grp_len;
 436              		.loc 1 213 0
 437 0046 F61A     		subs	r6, r6, r3
 438              	.LVL59:
 214:Source\mbedtls_open\library/ecdh.c **** 
 215:Source\mbedtls_open\library/ecdh.c ****     if( ( ret = mbedtls_ecp_tls_write_point( &ctx->grp, &ctx->Q, ctx->point_format,
 439              		.loc 1 215 0
 440 0048 DC23     		movs	r3, #220
 441 004a E258     		ldr	r2, [r4, r3]
 442 004c 0196     		str	r6, [sp, #4]
 443 004e 0095     		str	r5, [sp]
 444 0050 04AB     		add	r3, sp, #16
 445 0052 3900     		movs	r1, r7
 446 0054 2000     		movs	r0, r4
 447              	.LVL60:
 448 0056 FFF7FEFF 		bl	mbedtls_ecp_tls_write_point
 449              	.LVL61:
 450 005a 0028     		cmp	r0, #0
 451 005c 09D1     		bne	.L14
 216:Source\mbedtls_open\library/ecdh.c ****                                              &pt_len, buf, blen ) ) != 0 )
 217:Source\mbedtls_open\library/ecdh.c ****         return( ret );
 218:Source\mbedtls_open\library/ecdh.c **** 
 219:Source\mbedtls_open\library/ecdh.c ****     *olen = grp_len + pt_len;
 452              		.loc 1 219 0
 453 005e 059B     		ldr	r3, [sp, #20]
 454 0060 049A     		ldr	r2, [sp, #16]
 455 0062 9446     		mov	ip, r2
 456 0064 6344     		add	r3, r3, ip
 457 0066 039A     		ldr	r2, [sp, #12]
 458 0068 1360     		str	r3, [r2]
 220:Source\mbedtls_open\library/ecdh.c ****     return( 0 );
 459              		.loc 1 220 0
 460 006a 02E0     		b	.L14
ARM GAS  C:\Users\Phuong\AppData\Local\Temp\ccpVBVks.s 			page 13


 461              	.LVL62:
 462              	.L15:
 197:Source\mbedtls_open\library/ecdh.c **** 
 463              		.loc 1 197 0
 464 006c 0248     		ldr	r0, .L20
 465              	.LVL63:
 466 006e 00E0     		b	.L14
 467              	.LVL64:
 468              	.L16:
 469 0070 0148     		ldr	r0, .L20
 470              	.LVL65:
 471              	.L14:
 221:Source\mbedtls_open\library/ecdh.c **** }
 472              		.loc 1 221 0
 473 0072 07B0     		add	sp, sp, #28
 474              		@ sp needed
 475              	.LVL66:
 476              	.LVL67:
 477              	.LVL68:
 478 0074 F0BD     		pop	{r4, r5, r6, r7, pc}
 479              	.L21:
 480 0076 C046     		.align	2
 481              	.L20:
 482 0078 80B0FFFF 		.word	-20352
 483              		.cfi_endproc
 484              	.LFE6:
 485              		.size	mbedtls_ecdh_make_params, .-mbedtls_ecdh_make_params
 486              		.section	.text.mbedtls_ecdh_read_params,"ax",%progbits
 487              		.align	2
 488              		.global	mbedtls_ecdh_read_params
 489              		.code	16
 490              		.thumb_func
 491              		.type	mbedtls_ecdh_read_params, %function
 492              	mbedtls_ecdh_read_params:
 493              	.LFB7:
 222:Source\mbedtls_open\library/ecdh.c **** 
 223:Source\mbedtls_open\library/ecdh.c **** /*
 224:Source\mbedtls_open\library/ecdh.c ****  * Read the ServerKeyExhange parameters (RFC 4492)
 225:Source\mbedtls_open\library/ecdh.c ****  *      struct {
 226:Source\mbedtls_open\library/ecdh.c ****  *          ECParameters    curve_params;
 227:Source\mbedtls_open\library/ecdh.c ****  *          ECPoint         public;
 228:Source\mbedtls_open\library/ecdh.c ****  *      } ServerECDHParams;
 229:Source\mbedtls_open\library/ecdh.c ****  */
 230:Source\mbedtls_open\library/ecdh.c **** int mbedtls_ecdh_read_params( mbedtls_ecdh_context *ctx,
 231:Source\mbedtls_open\library/ecdh.c ****                       const unsigned char **buf, const unsigned char *end )
 232:Source\mbedtls_open\library/ecdh.c **** {
 494              		.loc 1 232 0
 495              		.cfi_startproc
 496              		@ args = 0, pretend = 0, frame = 0
 497              		@ frame_needed = 0, uses_anonymous_args = 0
 498              	.LVL69:
 499 0000 70B5     		push	{r4, r5, r6, lr}
 500              		.cfi_def_cfa_offset 16
 501              		.cfi_offset 4, -16
 502              		.cfi_offset 5, -12
 503              		.cfi_offset 6, -8
 504              		.cfi_offset 14, -4
ARM GAS  C:\Users\Phuong\AppData\Local\Temp\ccpVBVks.s 			page 14


 505 0002 0500     		movs	r5, r0
 506 0004 0C00     		movs	r4, r1
 507 0006 1600     		movs	r6, r2
 233:Source\mbedtls_open\library/ecdh.c ****     int ret;
 234:Source\mbedtls_open\library/ecdh.c **** 
 235:Source\mbedtls_open\library/ecdh.c ****     if( ( ret = mbedtls_ecp_tls_read_group( &ctx->grp, buf, end - *buf ) ) != 0 )
 508              		.loc 1 235 0
 509 0008 0B68     		ldr	r3, [r1]
 510 000a D21A     		subs	r2, r2, r3
 511              	.LVL70:
 512 000c FFF7FEFF 		bl	mbedtls_ecp_tls_read_group
 513              	.LVL71:
 514 0010 0028     		cmp	r0, #0
 515 0012 07D1     		bne	.L23
 236:Source\mbedtls_open\library/ecdh.c ****         return( ret );
 237:Source\mbedtls_open\library/ecdh.c **** 
 238:Source\mbedtls_open\library/ecdh.c ****     if( ( ret = mbedtls_ecp_tls_read_point( &ctx->grp, &ctx->Qp, buf, end - *buf ) )
 516              		.loc 1 238 0
 517 0014 2900     		movs	r1, r5
 518 0016 AC31     		adds	r1, r1, #172
 519 0018 2368     		ldr	r3, [r4]
 520 001a F31A     		subs	r3, r6, r3
 521 001c 2200     		movs	r2, r4
 522 001e 2800     		movs	r0, r5
 523              	.LVL72:
 524 0020 FFF7FEFF 		bl	mbedtls_ecp_tls_read_point
 525              	.LVL73:
 526              	.L23:
 239:Source\mbedtls_open\library/ecdh.c ****                 != 0 )
 240:Source\mbedtls_open\library/ecdh.c ****         return( ret );
 241:Source\mbedtls_open\library/ecdh.c **** 
 242:Source\mbedtls_open\library/ecdh.c ****     return( 0 );
 243:Source\mbedtls_open\library/ecdh.c **** }
 527              		.loc 1 243 0
 528              		@ sp needed
 529              	.LVL74:
 530              	.LVL75:
 531              	.LVL76:
 532 0024 70BD     		pop	{r4, r5, r6, pc}
 533              		.cfi_endproc
 534              	.LFE7:
 535              		.size	mbedtls_ecdh_read_params, .-mbedtls_ecdh_read_params
 536 0026 C046     		.section	.text.mbedtls_ecdh_get_params,"ax",%progbits
 537              		.align	2
 538              		.global	mbedtls_ecdh_get_params
 539              		.code	16
 540              		.thumb_func
 541              		.type	mbedtls_ecdh_get_params, %function
 542              	mbedtls_ecdh_get_params:
 543              	.LFB8:
 244:Source\mbedtls_open\library/ecdh.c **** 
 245:Source\mbedtls_open\library/ecdh.c **** /*
 246:Source\mbedtls_open\library/ecdh.c ****  * Get parameters from a keypair
 247:Source\mbedtls_open\library/ecdh.c ****  */
 248:Source\mbedtls_open\library/ecdh.c **** int mbedtls_ecdh_get_params( mbedtls_ecdh_context *ctx, const mbedtls_ecp_keypair *key,
 249:Source\mbedtls_open\library/ecdh.c ****                      mbedtls_ecdh_side side )
 250:Source\mbedtls_open\library/ecdh.c **** {
ARM GAS  C:\Users\Phuong\AppData\Local\Temp\ccpVBVks.s 			page 15


 544              		.loc 1 250 0
 545              		.cfi_startproc
 546              		@ args = 0, pretend = 0, frame = 0
 547              		@ frame_needed = 0, uses_anonymous_args = 0
 548              	.LVL77:
 549 0000 70B5     		push	{r4, r5, r6, lr}
 550              		.cfi_def_cfa_offset 16
 551              		.cfi_offset 4, -16
 552              		.cfi_offset 5, -12
 553              		.cfi_offset 6, -8
 554              		.cfi_offset 14, -4
 555 0002 0400     		movs	r4, r0
 556 0004 0D00     		movs	r5, r1
 557 0006 1600     		movs	r6, r2
 251:Source\mbedtls_open\library/ecdh.c ****     int ret;
 252:Source\mbedtls_open\library/ecdh.c **** 
 253:Source\mbedtls_open\library/ecdh.c ****     if( ( ret = mbedtls_ecp_group_copy( &ctx->grp, &key->grp ) ) != 0 )
 558              		.loc 1 253 0
 559 0008 FFF7FEFF 		bl	mbedtls_ecp_group_copy
 560              	.LVL78:
 561 000c 0028     		cmp	r0, #0
 562 000e 1AD1     		bne	.L27
 254:Source\mbedtls_open\library/ecdh.c ****         return( ret );
 255:Source\mbedtls_open\library/ecdh.c **** 
 256:Source\mbedtls_open\library/ecdh.c ****     /* If it's not our key, just import the public part as Qp */
 257:Source\mbedtls_open\library/ecdh.c ****     if( side == MBEDTLS_ECDH_THEIRS )
 563              		.loc 1 257 0
 564 0010 012E     		cmp	r6, #1
 565 0012 06D1     		bne	.L28
 258:Source\mbedtls_open\library/ecdh.c ****         return( mbedtls_ecp_copy( &ctx->Qp, &key->Q ) );
 566              		.loc 1 258 0
 567 0014 2000     		movs	r0, r4
 568              	.LVL79:
 569 0016 AC30     		adds	r0, r0, #172
 570 0018 2900     		movs	r1, r5
 571 001a 8831     		adds	r1, r1, #136
 572 001c FFF7FEFF 		bl	mbedtls_ecp_copy
 573              	.LVL80:
 574 0020 11E0     		b	.L27
 575              	.LVL81:
 576              	.L28:
 259:Source\mbedtls_open\library/ecdh.c **** 
 260:Source\mbedtls_open\library/ecdh.c ****     /* Our key: import public (as Q) and private parts */
 261:Source\mbedtls_open\library/ecdh.c ****     if( side != MBEDTLS_ECDH_OURS )
 577              		.loc 1 261 0
 578 0022 002E     		cmp	r6, #0
 579 0024 0ED1     		bne	.L30
 262:Source\mbedtls_open\library/ecdh.c ****         return( MBEDTLS_ERR_ECP_BAD_INPUT_DATA );
 263:Source\mbedtls_open\library/ecdh.c **** 
 264:Source\mbedtls_open\library/ecdh.c ****     if( ( ret = mbedtls_ecp_copy( &ctx->Q, &key->Q ) ) != 0 ||
 580              		.loc 1 264 0
 581 0026 2000     		movs	r0, r4
 582              	.LVL82:
 583 0028 8830     		adds	r0, r0, #136
 584 002a 2900     		movs	r1, r5
 585 002c 8831     		adds	r1, r1, #136
 586 002e FFF7FEFF 		bl	mbedtls_ecp_copy
ARM GAS  C:\Users\Phuong\AppData\Local\Temp\ccpVBVks.s 			page 16


 587              	.LVL83:
 588 0032 0028     		cmp	r0, #0
 589 0034 07D1     		bne	.L27
 265:Source\mbedtls_open\library/ecdh.c ****         ( ret = mbedtls_mpi_copy( &ctx->d, &key->d ) ) != 0 )
 590              		.loc 1 265 0 discriminator 1
 591 0036 2000     		movs	r0, r4
 592              	.LVL84:
 593 0038 7C30     		adds	r0, r0, #124
 594 003a 2900     		movs	r1, r5
 595 003c 7C31     		adds	r1, r1, #124
 264:Source\mbedtls_open\library/ecdh.c ****         ( ret = mbedtls_mpi_copy( &ctx->d, &key->d ) ) != 0 )
 596              		.loc 1 264 0 discriminator 1
 597 003e FFF7FEFF 		bl	mbedtls_mpi_copy
 598              	.LVL85:
 599 0042 00E0     		b	.L27
 600              	.L30:
 262:Source\mbedtls_open\library/ecdh.c ****         return( MBEDTLS_ERR_ECP_BAD_INPUT_DATA );
 601              		.loc 1 262 0
 602 0044 0048     		ldr	r0, .L33
 603              	.LVL86:
 604              	.L27:
 266:Source\mbedtls_open\library/ecdh.c ****         return( ret );
 267:Source\mbedtls_open\library/ecdh.c **** 
 268:Source\mbedtls_open\library/ecdh.c ****     return( 0 );
 269:Source\mbedtls_open\library/ecdh.c **** }
 605              		.loc 1 269 0
 606              		@ sp needed
 607              	.LVL87:
 608              	.LVL88:
 609 0046 70BD     		pop	{r4, r5, r6, pc}
 610              	.L34:
 611              		.align	2
 612              	.L33:
 613 0048 80B0FFFF 		.word	-20352
 614              		.cfi_endproc
 615              	.LFE8:
 616              		.size	mbedtls_ecdh_get_params, .-mbedtls_ecdh_get_params
 617              		.section	.text.mbedtls_ecdh_make_public,"ax",%progbits
 618              		.align	2
 619              		.global	mbedtls_ecdh_make_public
 620              		.code	16
 621              		.thumb_func
 622              		.type	mbedtls_ecdh_make_public, %function
 623              	mbedtls_ecdh_make_public:
 624              	.LFB9:
 270:Source\mbedtls_open\library/ecdh.c **** 
 271:Source\mbedtls_open\library/ecdh.c **** /*
 272:Source\mbedtls_open\library/ecdh.c ****  * Setup and export the client public value
 273:Source\mbedtls_open\library/ecdh.c ****  */
 274:Source\mbedtls_open\library/ecdh.c **** int mbedtls_ecdh_make_public( mbedtls_ecdh_context *ctx, size_t *olen,
 275:Source\mbedtls_open\library/ecdh.c ****                       unsigned char *buf, size_t blen,
 276:Source\mbedtls_open\library/ecdh.c ****                       int (*f_rng)(void *, unsigned char *, size_t),
 277:Source\mbedtls_open\library/ecdh.c ****                       void *p_rng )
 278:Source\mbedtls_open\library/ecdh.c **** {
 625              		.loc 1 278 0
 626              		.cfi_startproc
 627              		@ args = 8, pretend = 0, frame = 8
ARM GAS  C:\Users\Phuong\AppData\Local\Temp\ccpVBVks.s 			page 17


 628              		@ frame_needed = 0, uses_anonymous_args = 0
 629              	.LVL89:
 630 0000 F0B5     		push	{r4, r5, r6, r7, lr}
 631              		.cfi_def_cfa_offset 20
 632              		.cfi_offset 4, -20
 633              		.cfi_offset 5, -16
 634              		.cfi_offset 6, -12
 635              		.cfi_offset 7, -8
 636              		.cfi_offset 14, -4
 637 0002 85B0     		sub	sp, sp, #20
 638              		.cfi_def_cfa_offset 40
 639 0004 0500     		movs	r5, r0
 640 0006 0391     		str	r1, [sp, #12]
 641 0008 1600     		movs	r6, r2
 642 000a 1F00     		movs	r7, r3
 643              	.LVL90:
 279:Source\mbedtls_open\library/ecdh.c ****     int ret;
 280:Source\mbedtls_open\library/ecdh.c ****     mbedtls_ecp_restart_ctx *rs_ctx = NULL;
 281:Source\mbedtls_open\library/ecdh.c **** 
 282:Source\mbedtls_open\library/ecdh.c ****     if( ctx == NULL || ctx->grp.pbits == 0 )
 644              		.loc 1 282 0
 645 000c 0028     		cmp	r0, #0
 646 000e 1AD0     		beq	.L37
 647              		.loc 1 282 0 is_stmt 0 discriminator 1
 648 0010 836D     		ldr	r3, [r0, #88]
 649              	.LVL91:
 650 0012 002B     		cmp	r3, #0
 651 0014 19D0     		beq	.L38
 283:Source\mbedtls_open\library/ecdh.c ****         return( MBEDTLS_ERR_ECP_BAD_INPUT_DATA );
 284:Source\mbedtls_open\library/ecdh.c **** 
 285:Source\mbedtls_open\library/ecdh.c **** #if defined(MBEDTLS_ECP_RESTARTABLE)
 286:Source\mbedtls_open\library/ecdh.c ****     if( ctx->restart_enabled )
 287:Source\mbedtls_open\library/ecdh.c ****         rs_ctx = &ctx->rs;
 288:Source\mbedtls_open\library/ecdh.c **** #endif
 289:Source\mbedtls_open\library/ecdh.c **** 
 290:Source\mbedtls_open\library/ecdh.c ****     if( ( ret = ecdh_gen_public_restartable( &ctx->grp, &ctx->d, &ctx->Q,
 652              		.loc 1 290 0 is_stmt 1
 653 0016 0100     		movs	r1, r0
 654              	.LVL92:
 655 0018 7C31     		adds	r1, r1, #124
 656 001a 0400     		movs	r4, r0
 657 001c 8834     		adds	r4, r4, #136
 658 001e 0023     		movs	r3, #0
 659 0020 0193     		str	r3, [sp, #4]
 660 0022 0B9B     		ldr	r3, [sp, #44]
 661 0024 0093     		str	r3, [sp]
 662 0026 0A9B     		ldr	r3, [sp, #40]
 663 0028 2200     		movs	r2, r4
 664              	.LVL93:
 665 002a FFF7FEFF 		bl	ecdh_gen_public_restartable
 666              	.LVL94:
 667 002e 0028     		cmp	r0, #0
 668 0030 0CD1     		bne	.L36
 291:Source\mbedtls_open\library/ecdh.c ****                     f_rng, p_rng, rs_ctx ) ) != 0 )
 292:Source\mbedtls_open\library/ecdh.c ****         return( ret );
 293:Source\mbedtls_open\library/ecdh.c **** 
 294:Source\mbedtls_open\library/ecdh.c ****     return mbedtls_ecp_tls_write_point( &ctx->grp, &ctx->Q, ctx->point_format,
ARM GAS  C:\Users\Phuong\AppData\Local\Temp\ccpVBVks.s 			page 18


 669              		.loc 1 294 0
 670 0032 DC23     		movs	r3, #220
 671 0034 EA58     		ldr	r2, [r5, r3]
 672 0036 0197     		str	r7, [sp, #4]
 673 0038 0096     		str	r6, [sp]
 674 003a 039B     		ldr	r3, [sp, #12]
 675 003c 2100     		movs	r1, r4
 676 003e 2800     		movs	r0, r5
 677              	.LVL95:
 678 0040 FFF7FEFF 		bl	mbedtls_ecp_tls_write_point
 679              	.LVL96:
 680 0044 02E0     		b	.L36
 681              	.LVL97:
 682              	.L37:
 283:Source\mbedtls_open\library/ecdh.c ****         return( MBEDTLS_ERR_ECP_BAD_INPUT_DATA );
 683              		.loc 1 283 0
 684 0046 0248     		ldr	r0, .L40
 685              	.LVL98:
 686 0048 00E0     		b	.L36
 687              	.LVL99:
 688              	.L38:
 689 004a 0148     		ldr	r0, .L40
 690              	.LVL100:
 691              	.L36:
 295:Source\mbedtls_open\library/ecdh.c ****                                 olen, buf, blen );
 296:Source\mbedtls_open\library/ecdh.c **** }
 692              		.loc 1 296 0
 693 004c 05B0     		add	sp, sp, #20
 694              		@ sp needed
 695              	.LVL101:
 696              	.LVL102:
 697              	.LVL103:
 698 004e F0BD     		pop	{r4, r5, r6, r7, pc}
 699              	.L41:
 700              		.align	2
 701              	.L40:
 702 0050 80B0FFFF 		.word	-20352
 703              		.cfi_endproc
 704              	.LFE9:
 705              		.size	mbedtls_ecdh_make_public, .-mbedtls_ecdh_make_public
 706              		.section	.text.mbedtls_ecdh_read_public,"ax",%progbits
 707              		.align	2
 708              		.global	mbedtls_ecdh_read_public
 709              		.code	16
 710              		.thumb_func
 711              		.type	mbedtls_ecdh_read_public, %function
 712              	mbedtls_ecdh_read_public:
 713              	.LFB10:
 297:Source\mbedtls_open\library/ecdh.c **** 
 298:Source\mbedtls_open\library/ecdh.c **** /*
 299:Source\mbedtls_open\library/ecdh.c ****  * Parse and import the client's public value
 300:Source\mbedtls_open\library/ecdh.c ****  */
 301:Source\mbedtls_open\library/ecdh.c **** int mbedtls_ecdh_read_public( mbedtls_ecdh_context *ctx,
 302:Source\mbedtls_open\library/ecdh.c ****                       const unsigned char *buf, size_t blen )
 303:Source\mbedtls_open\library/ecdh.c **** {
 714              		.loc 1 303 0
 715              		.cfi_startproc
ARM GAS  C:\Users\Phuong\AppData\Local\Temp\ccpVBVks.s 			page 19


 716              		@ args = 0, pretend = 0, frame = 8
 717              		@ frame_needed = 0, uses_anonymous_args = 0
 718              	.LVL104:
 719 0000 30B5     		push	{r4, r5, lr}
 720              		.cfi_def_cfa_offset 12
 721              		.cfi_offset 4, -12
 722              		.cfi_offset 5, -8
 723              		.cfi_offset 14, -4
 724 0002 83B0     		sub	sp, sp, #12
 725              		.cfi_def_cfa_offset 24
 726 0004 0C00     		movs	r4, r1
 727 0006 1500     		movs	r5, r2
 304:Source\mbedtls_open\library/ecdh.c ****     int ret;
 305:Source\mbedtls_open\library/ecdh.c ****     const unsigned char *p = buf;
 728              		.loc 1 305 0
 729 0008 0191     		str	r1, [sp, #4]
 306:Source\mbedtls_open\library/ecdh.c **** 
 307:Source\mbedtls_open\library/ecdh.c ****     if( ctx == NULL )
 730              		.loc 1 307 0
 731 000a 0028     		cmp	r0, #0
 732 000c 0DD0     		beq	.L44
 308:Source\mbedtls_open\library/ecdh.c ****         return( MBEDTLS_ERR_ECP_BAD_INPUT_DATA );
 309:Source\mbedtls_open\library/ecdh.c **** 
 310:Source\mbedtls_open\library/ecdh.c ****     if( ( ret = mbedtls_ecp_tls_read_point( &ctx->grp, &ctx->Qp, &p, blen ) ) != 0 )
 733              		.loc 1 310 0
 734 000e 0100     		movs	r1, r0
 735              	.LVL105:
 736 0010 AC31     		adds	r1, r1, #172
 737 0012 1300     		movs	r3, r2
 738 0014 01AA     		add	r2, sp, #4
 739              	.LVL106:
 740 0016 FFF7FEFF 		bl	mbedtls_ecp_tls_read_point
 741              	.LVL107:
 742 001a 0028     		cmp	r0, #0
 743 001c 08D1     		bne	.L43
 311:Source\mbedtls_open\library/ecdh.c ****         return( ret );
 312:Source\mbedtls_open\library/ecdh.c **** 
 313:Source\mbedtls_open\library/ecdh.c ****     if( (size_t)( p - buf ) != blen )
 744              		.loc 1 313 0
 745 001e 019B     		ldr	r3, [sp, #4]
 746 0020 1C1B     		subs	r4, r3, r4
 747              	.LVL108:
 748 0022 A542     		cmp	r5, r4
 749 0024 03D0     		beq	.L46
 314:Source\mbedtls_open\library/ecdh.c ****         return( MBEDTLS_ERR_ECP_BAD_INPUT_DATA );
 750              		.loc 1 314 0
 751 0026 0348     		ldr	r0, .L47
 752              	.LVL109:
 753 0028 02E0     		b	.L43
 754              	.LVL110:
 755              	.L44:
 308:Source\mbedtls_open\library/ecdh.c ****         return( MBEDTLS_ERR_ECP_BAD_INPUT_DATA );
 756              		.loc 1 308 0
 757 002a 0248     		ldr	r0, .L47
 758              	.LVL111:
 759 002c 00E0     		b	.L43
 760              	.LVL112:
ARM GAS  C:\Users\Phuong\AppData\Local\Temp\ccpVBVks.s 			page 20


 761              	.L46:
 315:Source\mbedtls_open\library/ecdh.c **** 
 316:Source\mbedtls_open\library/ecdh.c ****     return( 0 );
 762              		.loc 1 316 0
 763 002e 0020     		movs	r0, #0
 764              	.LVL113:
 765              	.L43:
 317:Source\mbedtls_open\library/ecdh.c **** }
 766              		.loc 1 317 0
 767 0030 03B0     		add	sp, sp, #12
 768              		@ sp needed
 769              	.LVL114:
 770 0032 30BD     		pop	{r4, r5, pc}
 771              	.L48:
 772              		.align	2
 773              	.L47:
 774 0034 80B0FFFF 		.word	-20352
 775              		.cfi_endproc
 776              	.LFE10:
 777              		.size	mbedtls_ecdh_read_public, .-mbedtls_ecdh_read_public
 778              		.section	.text.mbedtls_ecdh_calc_secret,"ax",%progbits
 779              		.align	2
 780              		.global	mbedtls_ecdh_calc_secret
 781              		.code	16
 782              		.thumb_func
 783              		.type	mbedtls_ecdh_calc_secret, %function
 784              	mbedtls_ecdh_calc_secret:
 785              	.LFB11:
 318:Source\mbedtls_open\library/ecdh.c **** 
 319:Source\mbedtls_open\library/ecdh.c **** /*
 320:Source\mbedtls_open\library/ecdh.c ****  * Derive and export the shared secret
 321:Source\mbedtls_open\library/ecdh.c ****  */
 322:Source\mbedtls_open\library/ecdh.c **** int mbedtls_ecdh_calc_secret( mbedtls_ecdh_context *ctx, size_t *olen,
 323:Source\mbedtls_open\library/ecdh.c ****                       unsigned char *buf, size_t blen,
 324:Source\mbedtls_open\library/ecdh.c ****                       int (*f_rng)(void *, unsigned char *, size_t),
 325:Source\mbedtls_open\library/ecdh.c ****                       void *p_rng )
 326:Source\mbedtls_open\library/ecdh.c **** {
 786              		.loc 1 326 0
 787              		.cfi_startproc
 788              		@ args = 8, pretend = 0, frame = 8
 789              		@ frame_needed = 0, uses_anonymous_args = 0
 790              	.LVL115:
 791 0000 F0B5     		push	{r4, r5, r6, r7, lr}
 792              		.cfi_def_cfa_offset 20
 793              		.cfi_offset 4, -20
 794              		.cfi_offset 5, -16
 795              		.cfi_offset 6, -12
 796              		.cfi_offset 7, -8
 797              		.cfi_offset 14, -4
 798 0002 87B0     		sub	sp, sp, #28
 799              		.cfi_def_cfa_offset 48
 800 0004 0400     		movs	r4, r0
 801 0006 0F00     		movs	r7, r1
 802 0008 0592     		str	r2, [sp, #20]
 803 000a 1E00     		movs	r6, r3
 804              	.LVL116:
 327:Source\mbedtls_open\library/ecdh.c ****     int ret;
ARM GAS  C:\Users\Phuong\AppData\Local\Temp\ccpVBVks.s 			page 21


 328:Source\mbedtls_open\library/ecdh.c ****     mbedtls_ecp_restart_ctx *rs_ctx = NULL;
 329:Source\mbedtls_open\library/ecdh.c **** 
 330:Source\mbedtls_open\library/ecdh.c ****     if( ctx == NULL || ctx->grp.pbits == 0 )
 805              		.loc 1 330 0
 806 000c 0028     		cmp	r0, #0
 807 000e 25D0     		beq	.L51
 808              		.loc 1 330 0 is_stmt 0 discriminator 1
 809 0010 836D     		ldr	r3, [r0, #88]
 810              	.LVL117:
 811 0012 002B     		cmp	r3, #0
 812 0014 24D0     		beq	.L52
 331:Source\mbedtls_open\library/ecdh.c ****         return( MBEDTLS_ERR_ECP_BAD_INPUT_DATA );
 332:Source\mbedtls_open\library/ecdh.c **** 
 333:Source\mbedtls_open\library/ecdh.c **** #if defined(MBEDTLS_ECP_RESTARTABLE)
 334:Source\mbedtls_open\library/ecdh.c ****     if( ctx->restart_enabled )
 335:Source\mbedtls_open\library/ecdh.c ****         rs_ctx = &ctx->rs;
 336:Source\mbedtls_open\library/ecdh.c **** #endif
 337:Source\mbedtls_open\library/ecdh.c **** 
 338:Source\mbedtls_open\library/ecdh.c ****     if( ( ret = ecdh_compute_shared_restartable( &ctx->grp,
 813              		.loc 1 338 0 is_stmt 1
 814 0016 0500     		movs	r5, r0
 815 0018 D035     		adds	r5, r5, #208
 339:Source\mbedtls_open\library/ecdh.c ****                     &ctx->z, &ctx->Qp, &ctx->d, f_rng, p_rng, rs_ctx ) ) != 0 )
 816              		.loc 1 339 0
 817 001a 0200     		movs	r2, r0
 818              	.LVL118:
 819 001c AC32     		adds	r2, r2, #172
 820 001e 0300     		movs	r3, r0
 821 0020 7C33     		adds	r3, r3, #124
 338:Source\mbedtls_open\library/ecdh.c ****                     &ctx->z, &ctx->Qp, &ctx->d, f_rng, p_rng, rs_ctx ) ) != 0 )
 822              		.loc 1 338 0
 823 0022 0021     		movs	r1, #0
 824              	.LVL119:
 825 0024 0291     		str	r1, [sp, #8]
 826 0026 0D99     		ldr	r1, [sp, #52]
 827 0028 0191     		str	r1, [sp, #4]
 828 002a 0C99     		ldr	r1, [sp, #48]
 829 002c 0091     		str	r1, [sp]
 830 002e 2900     		movs	r1, r5
 831 0030 FFF7FEFF 		bl	ecdh_compute_shared_restartable
 832              	.LVL120:
 833 0034 0028     		cmp	r0, #0
 834 0036 16D1     		bne	.L50
 340:Source\mbedtls_open\library/ecdh.c ****     {
 341:Source\mbedtls_open\library/ecdh.c ****         return( ret );
 342:Source\mbedtls_open\library/ecdh.c ****     }
 343:Source\mbedtls_open\library/ecdh.c **** 
 344:Source\mbedtls_open\library/ecdh.c ****     if( mbedtls_mpi_size( &ctx->z ) > blen )
 835              		.loc 1 344 0
 836 0038 2800     		movs	r0, r5
 837              	.LVL121:
 838 003a FFF7FEFF 		bl	mbedtls_mpi_size
 839              	.LVL122:
 840 003e B042     		cmp	r0, r6
 841 0040 10D8     		bhi	.L54
 345:Source\mbedtls_open\library/ecdh.c ****         return( MBEDTLS_ERR_ECP_BAD_INPUT_DATA );
 346:Source\mbedtls_open\library/ecdh.c **** 
ARM GAS  C:\Users\Phuong\AppData\Local\Temp\ccpVBVks.s 			page 22


 347:Source\mbedtls_open\library/ecdh.c ****     *olen = ctx->grp.pbits / 8 + ( ( ctx->grp.pbits % 8 ) != 0 );
 842              		.loc 1 347 0
 843 0042 A36D     		ldr	r3, [r4, #88]
 844 0044 DA08     		lsrs	r2, r3, #3
 845 0046 0721     		movs	r1, #7
 846 0048 0B40     		ands	r3, r1
 847 004a 591E     		subs	r1, r3, #1
 848 004c 8B41     		sbcs	r3, r3, r1
 849 004e D218     		adds	r2, r2, r3
 850 0050 3A60     		str	r2, [r7]
 348:Source\mbedtls_open\library/ecdh.c ****     return mbedtls_mpi_write_binary( &ctx->z, buf, *olen );
 851              		.loc 1 348 0
 852 0052 0599     		ldr	r1, [sp, #20]
 853 0054 2800     		movs	r0, r5
 854 0056 FFF7FEFF 		bl	mbedtls_mpi_write_binary
 855              	.LVL123:
 856 005a 04E0     		b	.L50
 857              	.LVL124:
 858              	.L51:
 331:Source\mbedtls_open\library/ecdh.c **** 
 859              		.loc 1 331 0
 860 005c 0348     		ldr	r0, .L55
 861              	.LVL125:
 862 005e 02E0     		b	.L50
 863              	.LVL126:
 864              	.L52:
 865 0060 0248     		ldr	r0, .L55
 866              	.LVL127:
 867 0062 00E0     		b	.L50
 868              	.LVL128:
 869              	.L54:
 345:Source\mbedtls_open\library/ecdh.c ****         return( MBEDTLS_ERR_ECP_BAD_INPUT_DATA );
 870              		.loc 1 345 0
 871 0064 0148     		ldr	r0, .L55
 872              	.L50:
 349:Source\mbedtls_open\library/ecdh.c **** }
 873              		.loc 1 349 0
 874 0066 07B0     		add	sp, sp, #28
 875              		@ sp needed
 876              	.LVL129:
 877              	.LVL130:
 878              	.LVL131:
 879 0068 F0BD     		pop	{r4, r5, r6, r7, pc}
 880              	.L56:
 881 006a C046     		.align	2
 882              	.L55:
 883 006c 80B0FFFF 		.word	-20352
 884              		.cfi_endproc
 885              	.LFE11:
 886              		.size	mbedtls_ecdh_calc_secret, .-mbedtls_ecdh_calc_secret
 887              		.text
 888              	.Letext0:
 889              		.file 2 "c:\\program files (x86)\\cypress\\psoc creator\\4.2\\psoc creator\\import\\gnu\\arm\\5.4.
 890              		.file 3 "c:\\program files (x86)\\cypress\\psoc creator\\4.2\\psoc creator\\import\\gnu\\arm\\5.4.
 891              		.file 4 "c:\\program files (x86)\\cypress\\psoc creator\\4.2\\psoc creator\\import\\gnu\\arm\\5.4.
 892              		.file 5 ".\\Source\\mbedtls_open\\include/mbedtls/bignum.h"
 893              		.file 6 ".\\Source\\mbedtls_open\\include/mbedtls/ecp.h"
ARM GAS  C:\Users\Phuong\AppData\Local\Temp\ccpVBVks.s 			page 23


 894              		.file 7 ".\\Source\\mbedtls_open\\include/mbedtls/ecdh.h"