ARM GAS  C:\Users\Phuong\AppData\Local\Temp\ccN9HylG.s 			page 1


   1              		.syntax unified
   2              		.cpu cortex-m0plus
   3              		.fpu softvfp
   4              		.eabi_attribute 20, 1
   5              		.eabi_attribute 21, 1
   6              		.eabi_attribute 23, 3
   7              		.eabi_attribute 24, 1
   8              		.eabi_attribute 25, 1
   9              		.eabi_attribute 26, 1
  10              		.eabi_attribute 30, 1
  11              		.eabi_attribute 34, 0
  12              		.eabi_attribute 18, 4
  13              		.thumb
  14              		.syntax unified
  15              		.file	"ecdsa.c"
  16              		.text
  17              	.Ltext0:
  18              		.cfi_sections	.debug_frame
  19              		.section	.text.derive_mpi,"ax",%progbits
  20              		.align	2
  21              		.code	16
  22              		.thumb_func
  23              		.type	derive_mpi, %function
  24              	derive_mpi:
  25              	.LFB1:
  26              		.file 1 "Source\\mbedtls_open\\library\\ecdsa.c"
   1:Source\mbedtls_open\library/ecdsa.c **** /*
   2:Source\mbedtls_open\library/ecdsa.c ****  *  Elliptic curve DSA
   3:Source\mbedtls_open\library/ecdsa.c ****  *
   4:Source\mbedtls_open\library/ecdsa.c ****  *  Copyright (C) 2006-2015, ARM Limited, All Rights Reserved
   5:Source\mbedtls_open\library/ecdsa.c ****  *  SPDX-License-Identifier: Apache-2.0
   6:Source\mbedtls_open\library/ecdsa.c ****  *
   7:Source\mbedtls_open\library/ecdsa.c ****  *  Licensed under the Apache License, Version 2.0 (the "License"); you may
   8:Source\mbedtls_open\library/ecdsa.c ****  *  not use this file except in compliance with the License.
   9:Source\mbedtls_open\library/ecdsa.c ****  *  You may obtain a copy of the License at
  10:Source\mbedtls_open\library/ecdsa.c ****  *
  11:Source\mbedtls_open\library/ecdsa.c ****  *  http://www.apache.org/licenses/LICENSE-2.0
  12:Source\mbedtls_open\library/ecdsa.c ****  *
  13:Source\mbedtls_open\library/ecdsa.c ****  *  Unless required by applicable law or agreed to in writing, software
  14:Source\mbedtls_open\library/ecdsa.c ****  *  distributed under the License is distributed on an "AS IS" BASIS, WITHOUT
  15:Source\mbedtls_open\library/ecdsa.c ****  *  WARRANTIES OR CONDITIONS OF ANY KIND, either express or implied.
  16:Source\mbedtls_open\library/ecdsa.c ****  *  See the License for the specific language governing permissions and
  17:Source\mbedtls_open\library/ecdsa.c ****  *  limitations under the License.
  18:Source\mbedtls_open\library/ecdsa.c ****  *
  19:Source\mbedtls_open\library/ecdsa.c ****  *  This file is part of mbed TLS (https://tls.mbed.org)
  20:Source\mbedtls_open\library/ecdsa.c ****  */
  21:Source\mbedtls_open\library/ecdsa.c **** 
  22:Source\mbedtls_open\library/ecdsa.c **** /*
  23:Source\mbedtls_open\library/ecdsa.c ****  * References:
  24:Source\mbedtls_open\library/ecdsa.c ****  *
  25:Source\mbedtls_open\library/ecdsa.c ****  * SEC1 http://www.secg.org/index.php?action=secg,docs_secg
  26:Source\mbedtls_open\library/ecdsa.c ****  */
  27:Source\mbedtls_open\library/ecdsa.c **** 
  28:Source\mbedtls_open\library/ecdsa.c **** #if !defined(MBEDTLS_CONFIG_FILE)
  29:Source\mbedtls_open\library/ecdsa.c **** #include "mbedtls/config.h"
  30:Source\mbedtls_open\library/ecdsa.c **** #else
  31:Source\mbedtls_open\library/ecdsa.c **** #include MBEDTLS_CONFIG_FILE
ARM GAS  C:\Users\Phuong\AppData\Local\Temp\ccN9HylG.s 			page 2


  32:Source\mbedtls_open\library/ecdsa.c **** #endif
  33:Source\mbedtls_open\library/ecdsa.c **** 
  34:Source\mbedtls_open\library/ecdsa.c **** #if defined(MBEDTLS_ECDSA_C)
  35:Source\mbedtls_open\library/ecdsa.c **** 
  36:Source\mbedtls_open\library/ecdsa.c **** #include "mbedtls/ecdsa.h"
  37:Source\mbedtls_open\library/ecdsa.c **** #include "mbedtls/asn1write.h"
  38:Source\mbedtls_open\library/ecdsa.c **** 
  39:Source\mbedtls_open\library/ecdsa.c **** #include <string.h>
  40:Source\mbedtls_open\library/ecdsa.c **** 
  41:Source\mbedtls_open\library/ecdsa.c **** #if defined(MBEDTLS_ECDSA_DETERMINISTIC)
  42:Source\mbedtls_open\library/ecdsa.c **** #include "mbedtls/hmac_drbg.h"
  43:Source\mbedtls_open\library/ecdsa.c **** #endif
  44:Source\mbedtls_open\library/ecdsa.c **** 
  45:Source\mbedtls_open\library/ecdsa.c **** #if defined(MBEDTLS_PLATFORM_C)
  46:Source\mbedtls_open\library/ecdsa.c **** #include "mbedtls/platform.h"
  47:Source\mbedtls_open\library/ecdsa.c **** #else
  48:Source\mbedtls_open\library/ecdsa.c **** #include <stdlib.h>
  49:Source\mbedtls_open\library/ecdsa.c **** #define mbedtls_calloc    calloc
  50:Source\mbedtls_open\library/ecdsa.c **** #define mbedtls_free       free
  51:Source\mbedtls_open\library/ecdsa.c **** #endif
  52:Source\mbedtls_open\library/ecdsa.c **** 
  53:Source\mbedtls_open\library/ecdsa.c **** #if defined(MBEDTLS_ECP_RESTARTABLE)
  54:Source\mbedtls_open\library/ecdsa.c **** 
  55:Source\mbedtls_open\library/ecdsa.c **** /*
  56:Source\mbedtls_open\library/ecdsa.c ****  * Sub-context for ecdsa_verify()
  57:Source\mbedtls_open\library/ecdsa.c ****  */
  58:Source\mbedtls_open\library/ecdsa.c **** struct mbedtls_ecdsa_restart_ver
  59:Source\mbedtls_open\library/ecdsa.c **** {
  60:Source\mbedtls_open\library/ecdsa.c ****     mbedtls_mpi u1, u2;     /* intermediate values  */
  61:Source\mbedtls_open\library/ecdsa.c ****     enum {                  /* what to do next?     */
  62:Source\mbedtls_open\library/ecdsa.c ****         ecdsa_ver_init = 0, /* getting started      */
  63:Source\mbedtls_open\library/ecdsa.c ****         ecdsa_ver_muladd,   /* muladd step          */
  64:Source\mbedtls_open\library/ecdsa.c ****     } state;
  65:Source\mbedtls_open\library/ecdsa.c **** };
  66:Source\mbedtls_open\library/ecdsa.c **** 
  67:Source\mbedtls_open\library/ecdsa.c **** /*
  68:Source\mbedtls_open\library/ecdsa.c ****  * Init verify restart sub-context
  69:Source\mbedtls_open\library/ecdsa.c ****  */
  70:Source\mbedtls_open\library/ecdsa.c **** static void ecdsa_restart_ver_init( mbedtls_ecdsa_restart_ver_ctx *ctx )
  71:Source\mbedtls_open\library/ecdsa.c **** {
  72:Source\mbedtls_open\library/ecdsa.c ****     mbedtls_mpi_init( &ctx->u1 );
  73:Source\mbedtls_open\library/ecdsa.c ****     mbedtls_mpi_init( &ctx->u2 );
  74:Source\mbedtls_open\library/ecdsa.c ****     ctx->state = ecdsa_ver_init;
  75:Source\mbedtls_open\library/ecdsa.c **** }
  76:Source\mbedtls_open\library/ecdsa.c **** 
  77:Source\mbedtls_open\library/ecdsa.c **** /*
  78:Source\mbedtls_open\library/ecdsa.c ****  * Free the components of a verify restart sub-context
  79:Source\mbedtls_open\library/ecdsa.c ****  */
  80:Source\mbedtls_open\library/ecdsa.c **** static void ecdsa_restart_ver_free( mbedtls_ecdsa_restart_ver_ctx *ctx )
  81:Source\mbedtls_open\library/ecdsa.c **** {
  82:Source\mbedtls_open\library/ecdsa.c ****     if( ctx == NULL )
  83:Source\mbedtls_open\library/ecdsa.c ****         return;
  84:Source\mbedtls_open\library/ecdsa.c **** 
  85:Source\mbedtls_open\library/ecdsa.c ****     mbedtls_mpi_free( &ctx->u1 );
  86:Source\mbedtls_open\library/ecdsa.c ****     mbedtls_mpi_free( &ctx->u2 );
  87:Source\mbedtls_open\library/ecdsa.c **** 
  88:Source\mbedtls_open\library/ecdsa.c ****     ecdsa_restart_ver_init( ctx );
ARM GAS  C:\Users\Phuong\AppData\Local\Temp\ccN9HylG.s 			page 3


  89:Source\mbedtls_open\library/ecdsa.c **** }
  90:Source\mbedtls_open\library/ecdsa.c **** 
  91:Source\mbedtls_open\library/ecdsa.c **** /*
  92:Source\mbedtls_open\library/ecdsa.c ****  * Sub-context for ecdsa_sign()
  93:Source\mbedtls_open\library/ecdsa.c ****  */
  94:Source\mbedtls_open\library/ecdsa.c **** struct mbedtls_ecdsa_restart_sig
  95:Source\mbedtls_open\library/ecdsa.c **** {
  96:Source\mbedtls_open\library/ecdsa.c ****     int sign_tries;
  97:Source\mbedtls_open\library/ecdsa.c ****     int key_tries;
  98:Source\mbedtls_open\library/ecdsa.c ****     mbedtls_mpi k;          /* per-signature random */
  99:Source\mbedtls_open\library/ecdsa.c ****     mbedtls_mpi r;          /* r value              */
 100:Source\mbedtls_open\library/ecdsa.c ****     enum {                  /* what to do next?     */
 101:Source\mbedtls_open\library/ecdsa.c ****         ecdsa_sig_init = 0, /* getting started      */
 102:Source\mbedtls_open\library/ecdsa.c ****         ecdsa_sig_mul,      /* doing ecp_mul()      */
 103:Source\mbedtls_open\library/ecdsa.c ****         ecdsa_sig_modn,     /* mod N computations   */
 104:Source\mbedtls_open\library/ecdsa.c ****     } state;
 105:Source\mbedtls_open\library/ecdsa.c **** };
 106:Source\mbedtls_open\library/ecdsa.c **** 
 107:Source\mbedtls_open\library/ecdsa.c **** /*
 108:Source\mbedtls_open\library/ecdsa.c ****  * Init verify sign sub-context
 109:Source\mbedtls_open\library/ecdsa.c ****  */
 110:Source\mbedtls_open\library/ecdsa.c **** static void ecdsa_restart_sig_init( mbedtls_ecdsa_restart_sig_ctx *ctx )
 111:Source\mbedtls_open\library/ecdsa.c **** {
 112:Source\mbedtls_open\library/ecdsa.c ****     ctx->sign_tries = 0;
 113:Source\mbedtls_open\library/ecdsa.c ****     ctx->key_tries = 0;
 114:Source\mbedtls_open\library/ecdsa.c ****     mbedtls_mpi_init( &ctx->k );
 115:Source\mbedtls_open\library/ecdsa.c ****     mbedtls_mpi_init( &ctx->r );
 116:Source\mbedtls_open\library/ecdsa.c ****     ctx->state = ecdsa_sig_init;
 117:Source\mbedtls_open\library/ecdsa.c **** }
 118:Source\mbedtls_open\library/ecdsa.c **** 
 119:Source\mbedtls_open\library/ecdsa.c **** /*
 120:Source\mbedtls_open\library/ecdsa.c ****  * Free the components of a sign restart sub-context
 121:Source\mbedtls_open\library/ecdsa.c ****  */
 122:Source\mbedtls_open\library/ecdsa.c **** static void ecdsa_restart_sig_free( mbedtls_ecdsa_restart_sig_ctx *ctx )
 123:Source\mbedtls_open\library/ecdsa.c **** {
 124:Source\mbedtls_open\library/ecdsa.c ****     if( ctx == NULL )
 125:Source\mbedtls_open\library/ecdsa.c ****         return;
 126:Source\mbedtls_open\library/ecdsa.c **** 
 127:Source\mbedtls_open\library/ecdsa.c ****     mbedtls_mpi_free( &ctx->k );
 128:Source\mbedtls_open\library/ecdsa.c ****     mbedtls_mpi_free( &ctx->r );
 129:Source\mbedtls_open\library/ecdsa.c **** }
 130:Source\mbedtls_open\library/ecdsa.c **** 
 131:Source\mbedtls_open\library/ecdsa.c **** #if defined(MBEDTLS_ECDSA_DETERMINISTIC)
 132:Source\mbedtls_open\library/ecdsa.c **** /*
 133:Source\mbedtls_open\library/ecdsa.c ****  * Sub-context for ecdsa_sign_det()
 134:Source\mbedtls_open\library/ecdsa.c ****  */
 135:Source\mbedtls_open\library/ecdsa.c **** struct mbedtls_ecdsa_restart_det
 136:Source\mbedtls_open\library/ecdsa.c **** {
 137:Source\mbedtls_open\library/ecdsa.c ****     mbedtls_hmac_drbg_context rng_ctx;  /* DRBG state   */
 138:Source\mbedtls_open\library/ecdsa.c ****     enum {                      /* what to do next?     */
 139:Source\mbedtls_open\library/ecdsa.c ****         ecdsa_det_init = 0,     /* getting started      */
 140:Source\mbedtls_open\library/ecdsa.c ****         ecdsa_det_sign,         /* make signature       */
 141:Source\mbedtls_open\library/ecdsa.c ****     } state;
 142:Source\mbedtls_open\library/ecdsa.c **** };
 143:Source\mbedtls_open\library/ecdsa.c **** 
 144:Source\mbedtls_open\library/ecdsa.c **** /*
 145:Source\mbedtls_open\library/ecdsa.c ****  * Init verify sign_det sub-context
ARM GAS  C:\Users\Phuong\AppData\Local\Temp\ccN9HylG.s 			page 4


 146:Source\mbedtls_open\library/ecdsa.c ****  */
 147:Source\mbedtls_open\library/ecdsa.c **** static void ecdsa_restart_det_init( mbedtls_ecdsa_restart_det_ctx *ctx )
 148:Source\mbedtls_open\library/ecdsa.c **** {
 149:Source\mbedtls_open\library/ecdsa.c ****     mbedtls_hmac_drbg_init( &ctx->rng_ctx );
 150:Source\mbedtls_open\library/ecdsa.c ****     ctx->state = ecdsa_det_init;
 151:Source\mbedtls_open\library/ecdsa.c **** }
 152:Source\mbedtls_open\library/ecdsa.c **** 
 153:Source\mbedtls_open\library/ecdsa.c **** /*
 154:Source\mbedtls_open\library/ecdsa.c ****  * Free the components of a sign_det restart sub-context
 155:Source\mbedtls_open\library/ecdsa.c ****  */
 156:Source\mbedtls_open\library/ecdsa.c **** static void ecdsa_restart_det_free( mbedtls_ecdsa_restart_det_ctx *ctx )
 157:Source\mbedtls_open\library/ecdsa.c **** {
 158:Source\mbedtls_open\library/ecdsa.c ****     if( ctx == NULL )
 159:Source\mbedtls_open\library/ecdsa.c ****         return;
 160:Source\mbedtls_open\library/ecdsa.c **** 
 161:Source\mbedtls_open\library/ecdsa.c ****     mbedtls_hmac_drbg_free( &ctx->rng_ctx );
 162:Source\mbedtls_open\library/ecdsa.c **** 
 163:Source\mbedtls_open\library/ecdsa.c ****     ecdsa_restart_det_init( ctx );
 164:Source\mbedtls_open\library/ecdsa.c **** }
 165:Source\mbedtls_open\library/ecdsa.c **** #endif /* MBEDTLS_ECDSA_DETERMINISTIC */
 166:Source\mbedtls_open\library/ecdsa.c **** 
 167:Source\mbedtls_open\library/ecdsa.c **** #define ECDSA_RS_ECP    &rs_ctx->ecp
 168:Source\mbedtls_open\library/ecdsa.c **** 
 169:Source\mbedtls_open\library/ecdsa.c **** /* Utility macro for checking and updating ops budget */
 170:Source\mbedtls_open\library/ecdsa.c **** #define ECDSA_BUDGET( ops )   \
 171:Source\mbedtls_open\library/ecdsa.c ****     MBEDTLS_MPI_CHK( mbedtls_ecp_check_budget( grp, &rs_ctx->ecp, ops ) );
 172:Source\mbedtls_open\library/ecdsa.c **** 
 173:Source\mbedtls_open\library/ecdsa.c **** /* Call this when entering a function that needs its own sub-context */
 174:Source\mbedtls_open\library/ecdsa.c **** #define ECDSA_RS_ENTER( SUB )   do {                                 \
 175:Source\mbedtls_open\library/ecdsa.c ****     /* reset ops count for this call if top-level */                 \
 176:Source\mbedtls_open\library/ecdsa.c ****     if( rs_ctx != NULL && rs_ctx->ecp.depth++ == 0 )                 \
 177:Source\mbedtls_open\library/ecdsa.c ****         rs_ctx->ecp.ops_done = 0;                                    \
 178:Source\mbedtls_open\library/ecdsa.c ****                                                                      \
 179:Source\mbedtls_open\library/ecdsa.c ****     /* set up our own sub-context if needed */                       \
 180:Source\mbedtls_open\library/ecdsa.c ****     if( mbedtls_ecp_restart_is_enabled() &&                          \
 181:Source\mbedtls_open\library/ecdsa.c ****         rs_ctx != NULL && rs_ctx->SUB == NULL )                      \
 182:Source\mbedtls_open\library/ecdsa.c ****     {                                                                \
 183:Source\mbedtls_open\library/ecdsa.c ****         rs_ctx->SUB = mbedtls_calloc( 1, sizeof( *rs_ctx->SUB ) );   \
 184:Source\mbedtls_open\library/ecdsa.c ****         if( rs_ctx->SUB == NULL )                                    \
 185:Source\mbedtls_open\library/ecdsa.c ****             return( MBEDTLS_ERR_ECP_ALLOC_FAILED );                  \
 186:Source\mbedtls_open\library/ecdsa.c ****                                                                      \
 187:Source\mbedtls_open\library/ecdsa.c ****         ecdsa_restart_## SUB ##_init( rs_ctx->SUB );                 \
 188:Source\mbedtls_open\library/ecdsa.c ****     }                                                                \
 189:Source\mbedtls_open\library/ecdsa.c **** } while( 0 )
 190:Source\mbedtls_open\library/ecdsa.c **** 
 191:Source\mbedtls_open\library/ecdsa.c **** /* Call this when leaving a function that needs its own sub-context */
 192:Source\mbedtls_open\library/ecdsa.c **** #define ECDSA_RS_LEAVE( SUB )   do {                                 \
 193:Source\mbedtls_open\library/ecdsa.c ****     /* clear our sub-context when not in progress (done or error) */ \
 194:Source\mbedtls_open\library/ecdsa.c ****     if( rs_ctx != NULL && rs_ctx->SUB != NULL &&                     \
 195:Source\mbedtls_open\library/ecdsa.c ****         ret != MBEDTLS_ERR_ECP_IN_PROGRESS )                         \
 196:Source\mbedtls_open\library/ecdsa.c ****     {                                                                \
 197:Source\mbedtls_open\library/ecdsa.c ****         ecdsa_restart_## SUB ##_free( rs_ctx->SUB );                 \
 198:Source\mbedtls_open\library/ecdsa.c ****         mbedtls_free( rs_ctx->SUB );                                 \
 199:Source\mbedtls_open\library/ecdsa.c ****         rs_ctx->SUB = NULL;                                          \
 200:Source\mbedtls_open\library/ecdsa.c ****     }                                                                \
 201:Source\mbedtls_open\library/ecdsa.c ****                                                                      \
 202:Source\mbedtls_open\library/ecdsa.c ****     if( rs_ctx != NULL )                                             \
ARM GAS  C:\Users\Phuong\AppData\Local\Temp\ccN9HylG.s 			page 5


 203:Source\mbedtls_open\library/ecdsa.c ****         rs_ctx->ecp.depth--;                                         \
 204:Source\mbedtls_open\library/ecdsa.c **** } while( 0 )
 205:Source\mbedtls_open\library/ecdsa.c **** 
 206:Source\mbedtls_open\library/ecdsa.c **** #else /* MBEDTLS_ECP_RESTARTABLE */
 207:Source\mbedtls_open\library/ecdsa.c **** 
 208:Source\mbedtls_open\library/ecdsa.c **** #define ECDSA_RS_ECP    NULL
 209:Source\mbedtls_open\library/ecdsa.c **** 
 210:Source\mbedtls_open\library/ecdsa.c **** #define ECDSA_BUDGET( ops )   /* no-op; for compatibility */
 211:Source\mbedtls_open\library/ecdsa.c **** 
 212:Source\mbedtls_open\library/ecdsa.c **** #define ECDSA_RS_ENTER( SUB )   (void) rs_ctx
 213:Source\mbedtls_open\library/ecdsa.c **** #define ECDSA_RS_LEAVE( SUB )   (void) rs_ctx
 214:Source\mbedtls_open\library/ecdsa.c **** 
 215:Source\mbedtls_open\library/ecdsa.c **** #endif /* MBEDTLS_ECP_RESTARTABLE */
 216:Source\mbedtls_open\library/ecdsa.c **** 
 217:Source\mbedtls_open\library/ecdsa.c **** /*
 218:Source\mbedtls_open\library/ecdsa.c ****  * Derive a suitable integer for group grp from a buffer of length len
 219:Source\mbedtls_open\library/ecdsa.c ****  * SEC1 4.1.3 step 5 aka SEC1 4.1.4 step 3
 220:Source\mbedtls_open\library/ecdsa.c ****  */
 221:Source\mbedtls_open\library/ecdsa.c **** static int derive_mpi( const mbedtls_ecp_group *grp, mbedtls_mpi *x,
 222:Source\mbedtls_open\library/ecdsa.c ****                        const unsigned char *buf, size_t blen )
 223:Source\mbedtls_open\library/ecdsa.c **** {
  27              		.loc 1 223 0
  28              		.cfi_startproc
  29              		@ args = 0, pretend = 0, frame = 0
  30              		@ frame_needed = 0, uses_anonymous_args = 0
  31              	.LVL0:
  32 0000 F8B5     		push	{r3, r4, r5, r6, r7, lr}
  33              		.cfi_def_cfa_offset 24
  34              		.cfi_offset 3, -24
  35              		.cfi_offset 4, -20
  36              		.cfi_offset 5, -16
  37              		.cfi_offset 6, -12
  38              		.cfi_offset 7, -8
  39              		.cfi_offset 14, -4
  40 0002 0700     		movs	r7, r0
  41 0004 0D00     		movs	r5, r1
  42 0006 1100     		movs	r1, r2
  43              	.LVL1:
 224:Source\mbedtls_open\library/ecdsa.c ****     int ret;
 225:Source\mbedtls_open\library/ecdsa.c ****     size_t n_size = ( grp->nbits + 7 ) / 8;
  44              		.loc 1 225 0
  45 0008 C26D     		ldr	r2, [r0, #92]
  46              	.LVL2:
  47 000a D41D     		adds	r4, r2, #7
  48 000c E408     		lsrs	r4, r4, #3
 226:Source\mbedtls_open\library/ecdsa.c ****     size_t use_size = blen > n_size ? n_size : blen;
  49              		.loc 1 226 0
  50 000e 9C42     		cmp	r4, r3
  51 0010 00D9     		bls	.L2
  52 0012 1C00     		movs	r4, r3
  53              	.L2:
  54              	.LVL3:
 227:Source\mbedtls_open\library/ecdsa.c **** 
 228:Source\mbedtls_open\library/ecdsa.c ****     MBEDTLS_MPI_CHK( mbedtls_mpi_read_binary( x, buf, use_size ) );
  55              		.loc 1 228 0
  56 0014 2200     		movs	r2, r4
  57 0016 2800     		movs	r0, r5
ARM GAS  C:\Users\Phuong\AppData\Local\Temp\ccN9HylG.s 			page 6


  58              	.LVL4:
  59 0018 FFF7FEFF 		bl	mbedtls_mpi_read_binary
  60              	.LVL5:
  61 001c 061E     		subs	r6, r0, #0
  62              	.LVL6:
  63 001e 16D1     		bne	.L3
 229:Source\mbedtls_open\library/ecdsa.c ****     if( use_size * 8 > grp->nbits )
  64              		.loc 1 229 0
  65 0020 E400     		lsls	r4, r4, #3
  66              	.LVL7:
  67 0022 F96D     		ldr	r1, [r7, #92]
  68 0024 8C42     		cmp	r4, r1
  69 0026 05D9     		bls	.L4
 230:Source\mbedtls_open\library/ecdsa.c ****         MBEDTLS_MPI_CHK( mbedtls_mpi_shift_r( x, use_size * 8 - grp->nbits ) );
  70              		.loc 1 230 0
  71 0028 611A     		subs	r1, r4, r1
  72 002a 2800     		movs	r0, r5
  73              	.LVL8:
  74 002c FFF7FEFF 		bl	mbedtls_mpi_shift_r
  75              	.LVL9:
  76 0030 061E     		subs	r6, r0, #0
  77              	.LVL10:
  78 0032 0CD1     		bne	.L3
  79              	.L4:
 231:Source\mbedtls_open\library/ecdsa.c **** 
 232:Source\mbedtls_open\library/ecdsa.c ****     /* While at it, reduce modulo N */
 233:Source\mbedtls_open\library/ecdsa.c ****     if( mbedtls_mpi_cmp_mpi( x, &grp->N ) >= 0 )
  80              		.loc 1 233 0
  81 0034 4C37     		adds	r7, r7, #76
  82              	.LVL11:
  83 0036 3900     		movs	r1, r7
  84 0038 2800     		movs	r0, r5
  85              	.LVL12:
  86 003a FFF7FEFF 		bl	mbedtls_mpi_cmp_mpi
  87              	.LVL13:
  88 003e 0028     		cmp	r0, #0
  89 0040 05DB     		blt	.L3
 234:Source\mbedtls_open\library/ecdsa.c ****         MBEDTLS_MPI_CHK( mbedtls_mpi_sub_mpi( x, x, &grp->N ) );
  90              		.loc 1 234 0
  91 0042 3A00     		movs	r2, r7
  92 0044 2900     		movs	r1, r5
  93 0046 2800     		movs	r0, r5
  94 0048 FFF7FEFF 		bl	mbedtls_mpi_sub_mpi
  95              	.LVL14:
  96 004c 0600     		movs	r6, r0
  97              	.LVL15:
  98              	.L3:
 235:Source\mbedtls_open\library/ecdsa.c **** 
 236:Source\mbedtls_open\library/ecdsa.c **** cleanup:
 237:Source\mbedtls_open\library/ecdsa.c ****     return( ret );
 238:Source\mbedtls_open\library/ecdsa.c **** }
  99              		.loc 1 238 0
 100 004e 3000     		movs	r0, r6
 101              		@ sp needed
 102              	.LVL16:
 103              	.LVL17:
 104 0050 F8BD     		pop	{r3, r4, r5, r6, r7, pc}
ARM GAS  C:\Users\Phuong\AppData\Local\Temp\ccN9HylG.s 			page 7


 105              		.cfi_endproc
 106              	.LFE1:
 107              		.size	derive_mpi, .-derive_mpi
 108 0052 C046     		.section	.text.ecdsa_sign_restartable,"ax",%progbits
 109              		.align	2
 110              		.code	16
 111              		.thumb_func
 112              		.type	ecdsa_sign_restartable, %function
 113              	ecdsa_sign_restartable:
 114              	.LFB2:
 239:Source\mbedtls_open\library/ecdsa.c **** 
 240:Source\mbedtls_open\library/ecdsa.c **** #if !defined(MBEDTLS_ECDSA_SIGN_ALT)
 241:Source\mbedtls_open\library/ecdsa.c **** /*
 242:Source\mbedtls_open\library/ecdsa.c ****  * Compute ECDSA signature of a hashed message (SEC1 4.1.3)
 243:Source\mbedtls_open\library/ecdsa.c ****  * Obviously, compared to SEC1 4.1.3, we skip step 4 (hash message)
 244:Source\mbedtls_open\library/ecdsa.c ****  */
 245:Source\mbedtls_open\library/ecdsa.c **** static int ecdsa_sign_restartable( mbedtls_ecp_group *grp,
 246:Source\mbedtls_open\library/ecdsa.c ****                 mbedtls_mpi *r, mbedtls_mpi *s,
 247:Source\mbedtls_open\library/ecdsa.c ****                 const mbedtls_mpi *d, const unsigned char *buf, size_t blen,
 248:Source\mbedtls_open\library/ecdsa.c ****                 int (*f_rng)(void *, unsigned char *, size_t), void *p_rng,
 249:Source\mbedtls_open\library/ecdsa.c ****                 mbedtls_ecdsa_restart_ctx *rs_ctx )
 250:Source\mbedtls_open\library/ecdsa.c **** {
 115              		.loc 1 250 0
 116              		.cfi_startproc
 117              		@ args = 20, pretend = 0, frame = 96
 118              		@ frame_needed = 0, uses_anonymous_args = 0
 119              	.LVL18:
 120 0000 F0B5     		push	{r4, r5, r6, r7, lr}
 121              		.cfi_def_cfa_offset 20
 122              		.cfi_offset 4, -20
 123              		.cfi_offset 5, -16
 124              		.cfi_offset 6, -12
 125              		.cfi_offset 7, -8
 126              		.cfi_offset 14, -4
 127 0002 5746     		mov	r7, r10
 128 0004 4E46     		mov	r6, r9
 129 0006 C0B4     		push	{r6, r7}
 130              		.cfi_def_cfa_offset 28
 131              		.cfi_offset 9, -28
 132              		.cfi_offset 10, -24
 133 0008 9DB0     		sub	sp, sp, #116
 134              		.cfi_def_cfa_offset 144
 135 000a 0600     		movs	r6, r0
 136 000c 0491     		str	r1, [sp, #16]
 137 000e 0692     		str	r2, [sp, #24]
 138 0010 1C00     		movs	r4, r3
 139 0012 0793     		str	r3, [sp, #28]
 140 0014 279D     		ldr	r5, [sp, #156]
 141              	.LVL19:
 251:Source\mbedtls_open\library/ecdsa.c ****     int ret, key_tries, sign_tries;
 252:Source\mbedtls_open\library/ecdsa.c ****     int *p_sign_tries = &sign_tries, *p_key_tries = &key_tries;
 253:Source\mbedtls_open\library/ecdsa.c ****     mbedtls_ecp_point R;
 254:Source\mbedtls_open\library/ecdsa.c ****     mbedtls_mpi k, e, t;
 255:Source\mbedtls_open\library/ecdsa.c ****     mbedtls_mpi *pk = &k, *pr = r;
 256:Source\mbedtls_open\library/ecdsa.c **** 
 257:Source\mbedtls_open\library/ecdsa.c ****     /* Fail cleanly on curves such as Curve25519 that can't be used for ECDSA */
 258:Source\mbedtls_open\library/ecdsa.c ****     if( grp->N.p == NULL )
ARM GAS  C:\Users\Phuong\AppData\Local\Temp\ccN9HylG.s 			page 8


 142              		.loc 1 258 0
 143 0016 426D     		ldr	r2, [r0, #84]
 144              	.LVL20:
 145 0018 002A     		cmp	r2, #0
 146 001a 00D1     		bne	.LCB143
 147 001c B7E0     		b	.L10	@long jump
 148              	.LCB143:
 259:Source\mbedtls_open\library/ecdsa.c ****         return( MBEDTLS_ERR_ECP_BAD_INPUT_DATA );
 260:Source\mbedtls_open\library/ecdsa.c **** 
 261:Source\mbedtls_open\library/ecdsa.c ****     /* Make sure d is in range 1..n-1 */
 262:Source\mbedtls_open\library/ecdsa.c ****     if( mbedtls_mpi_cmp_int( d, 1 ) < 0 || mbedtls_mpi_cmp_mpi( d, &grp->N ) >= 0 )
 149              		.loc 1 262 0
 150 001e 0121     		movs	r1, #1
 151              	.LVL21:
 152 0020 1800     		movs	r0, r3
 153              	.LVL22:
 154 0022 FFF7FEFF 		bl	mbedtls_mpi_cmp_int
 155              	.LVL23:
 156 0026 0028     		cmp	r0, #0
 157 0028 00DA     		bge	.LCB153
 158 002a B2E0     		b	.L11	@long jump
 159              	.LCB153:
 160              		.loc 1 262 0 is_stmt 0 discriminator 1
 161 002c 4C23     		movs	r3, #76
 162 002e 9C46     		mov	ip, r3
 163 0030 B444     		add	ip, ip, r6
 164 0032 6346     		mov	r3, ip
 165 0034 0593     		str	r3, [sp, #20]
 166 0036 6146     		mov	r1, ip
 167 0038 2000     		movs	r0, r4
 168 003a FFF7FEFF 		bl	mbedtls_mpi_cmp_mpi
 169              	.LVL24:
 170 003e 0028     		cmp	r0, #0
 171 0040 00DB     		blt	.LCB164
 172 0042 A8E0     		b	.L12	@long jump
 173              	.LCB164:
 263:Source\mbedtls_open\library/ecdsa.c ****         return( MBEDTLS_ERR_ECP_INVALID_KEY );
 264:Source\mbedtls_open\library/ecdsa.c **** 
 265:Source\mbedtls_open\library/ecdsa.c ****     mbedtls_ecp_point_init( &R );
 174              		.loc 1 265 0 is_stmt 1
 175 0044 11A8     		add	r0, sp, #68
 176 0046 FFF7FEFF 		bl	mbedtls_ecp_point_init
 177              	.LVL25:
 266:Source\mbedtls_open\library/ecdsa.c ****     mbedtls_mpi_init( &k ); mbedtls_mpi_init( &e ); mbedtls_mpi_init( &t );
 178              		.loc 1 266 0
 179 004a 0EA8     		add	r0, sp, #56
 180              	.LVL26:
 181 004c FFF7FEFF 		bl	mbedtls_mpi_init
 182              	.LVL27:
 183 0050 0BA8     		add	r0, sp, #44
 184 0052 FFF7FEFF 		bl	mbedtls_mpi_init
 185              	.LVL28:
 186 0056 08A8     		add	r0, sp, #32
 187 0058 FFF7FEFF 		bl	mbedtls_mpi_init
 188              	.LVL29:
 267:Source\mbedtls_open\library/ecdsa.c **** 
 268:Source\mbedtls_open\library/ecdsa.c ****     ECDSA_RS_ENTER( sig );
ARM GAS  C:\Users\Phuong\AppData\Local\Temp\ccN9HylG.s 			page 9


 269:Source\mbedtls_open\library/ecdsa.c **** 
 270:Source\mbedtls_open\library/ecdsa.c **** #if defined(MBEDTLS_ECP_RESTARTABLE)
 271:Source\mbedtls_open\library/ecdsa.c ****     if( rs_ctx != NULL && rs_ctx->sig != NULL )
 272:Source\mbedtls_open\library/ecdsa.c ****     {
 273:Source\mbedtls_open\library/ecdsa.c ****         /* redirect to our context */
 274:Source\mbedtls_open\library/ecdsa.c ****         p_sign_tries = &rs_ctx->sig->sign_tries;
 275:Source\mbedtls_open\library/ecdsa.c ****         p_key_tries = &rs_ctx->sig->key_tries;
 276:Source\mbedtls_open\library/ecdsa.c ****         pk = &rs_ctx->sig->k;
 277:Source\mbedtls_open\library/ecdsa.c ****         pr = &rs_ctx->sig->r;
 278:Source\mbedtls_open\library/ecdsa.c **** 
 279:Source\mbedtls_open\library/ecdsa.c ****         /* jump to current step */
 280:Source\mbedtls_open\library/ecdsa.c ****         if( rs_ctx->sig->state == ecdsa_sig_mul )
 281:Source\mbedtls_open\library/ecdsa.c ****             goto mul;
 282:Source\mbedtls_open\library/ecdsa.c ****         if( rs_ctx->sig->state == ecdsa_sig_modn )
 283:Source\mbedtls_open\library/ecdsa.c ****             goto modn;
 284:Source\mbedtls_open\library/ecdsa.c ****     }
 285:Source\mbedtls_open\library/ecdsa.c **** #endif /* MBEDTLS_ECP_RESTARTABLE */
 286:Source\mbedtls_open\library/ecdsa.c **** 
 287:Source\mbedtls_open\library/ecdsa.c ****     *p_sign_tries = 0;
 189              		.loc 1 287 0
 190 005c 0023     		movs	r3, #0
 191 005e 1A93     		str	r3, [sp, #104]
 252:Source\mbedtls_open\library/ecdsa.c ****     mbedtls_ecp_point R;
 192              		.loc 1 252 0
 193 0060 1BAB     		add	r3, sp, #108
 194              	.LVL30:
 195 0062 1AAA     		add	r2, sp, #104
 196              	.LVL31:
 197 0064 269C     		ldr	r4, [sp, #152]
 198              	.LVL32:
 199 0066 00E0     		b	.L9
 200              	.LVL33:
 201              	.L15:
 288:Source\mbedtls_open\library/ecdsa.c ****     do
 289:Source\mbedtls_open\library/ecdsa.c ****     {
 290:Source\mbedtls_open\library/ecdsa.c ****         if( *p_sign_tries++ > 10 )
 291:Source\mbedtls_open\library/ecdsa.c ****         {
 292:Source\mbedtls_open\library/ecdsa.c ****             ret = MBEDTLS_ERR_ECP_RANDOM_FAILED;
 293:Source\mbedtls_open\library/ecdsa.c ****             goto cleanup;
 294:Source\mbedtls_open\library/ecdsa.c ****         }
 295:Source\mbedtls_open\library/ecdsa.c **** 
 296:Source\mbedtls_open\library/ecdsa.c ****         /*
 297:Source\mbedtls_open\library/ecdsa.c ****          * Steps 1-3: generate a suitable ephemeral keypair
 298:Source\mbedtls_open\library/ecdsa.c ****          * and set r = xR mod n
 299:Source\mbedtls_open\library/ecdsa.c ****          */
 300:Source\mbedtls_open\library/ecdsa.c ****         *p_key_tries = 0;
 301:Source\mbedtls_open\library/ecdsa.c ****         do
 302:Source\mbedtls_open\library/ecdsa.c ****         {
 303:Source\mbedtls_open\library/ecdsa.c ****             if( *p_key_tries++ > 10 )
 202              		.loc 1 303 0
 203 0068 4B46     		mov	r3, r9
 204              	.LVL34:
 205              	.L9:
 290:Source\mbedtls_open\library/ecdsa.c ****         {
 206              		.loc 1 290 0
 207 006a 111D     		adds	r1, r2, #4
 208 006c 8A46     		mov	r10, r1
ARM GAS  C:\Users\Phuong\AppData\Local\Temp\ccN9HylG.s 			page 10


 209              	.LVL35:
 210 006e 1268     		ldr	r2, [r2]
 211 0070 0A2A     		cmp	r2, #10
 212 0072 75DC     		bgt	.L13
 300:Source\mbedtls_open\library/ecdsa.c ****         do
 213              		.loc 1 300 0
 214 0074 0022     		movs	r2, #0
 215 0076 1A60     		str	r2, [r3]
 216              	.LVL36:
 217              	.L8:
 218              		.loc 1 303 0
 219 0078 1F1D     		adds	r7, r3, #4
 220              	.LVL37:
 221 007a 1B68     		ldr	r3, [r3]
 222 007c 0A2B     		cmp	r3, #10
 223 007e 71DC     		bgt	.L14
 304:Source\mbedtls_open\library/ecdsa.c ****             {
 305:Source\mbedtls_open\library/ecdsa.c ****                 ret = MBEDTLS_ERR_ECP_RANDOM_FAILED;
 306:Source\mbedtls_open\library/ecdsa.c ****                 goto cleanup;
 307:Source\mbedtls_open\library/ecdsa.c ****             }
 308:Source\mbedtls_open\library/ecdsa.c **** 
 309:Source\mbedtls_open\library/ecdsa.c ****             MBEDTLS_MPI_CHK( mbedtls_ecp_gen_privkey( grp, pk, f_rng, p_rng ) );
 224              		.loc 1 309 0
 225 0080 2B00     		movs	r3, r5
 226 0082 2200     		movs	r2, r4
 227 0084 0EA9     		add	r1, sp, #56
 228              	.LVL38:
 229 0086 3000     		movs	r0, r6
 230 0088 FFF7FEFF 		bl	mbedtls_ecp_gen_privkey
 231              	.LVL39:
 232 008c 0028     		cmp	r0, #0
 233 008e 6BD1     		bne	.L16
 310:Source\mbedtls_open\library/ecdsa.c **** 
 311:Source\mbedtls_open\library/ecdsa.c **** #if defined(MBEDTLS_ECP_RESTARTABLE)
 312:Source\mbedtls_open\library/ecdsa.c ****             if( rs_ctx != NULL && rs_ctx->sig != NULL )
 313:Source\mbedtls_open\library/ecdsa.c ****                 rs_ctx->sig->state = ecdsa_sig_mul;
 314:Source\mbedtls_open\library/ecdsa.c **** 
 315:Source\mbedtls_open\library/ecdsa.c **** mul:
 316:Source\mbedtls_open\library/ecdsa.c **** #endif
 317:Source\mbedtls_open\library/ecdsa.c ****             MBEDTLS_MPI_CHK( mbedtls_ecp_mul_restartable( grp, &R, pk, &grp->G,
 234              		.loc 1 317 0
 235 0090 3300     		movs	r3, r6
 236 0092 2833     		adds	r3, r3, #40
 237 0094 0022     		movs	r2, #0
 238 0096 0292     		str	r2, [sp, #8]
 239 0098 0195     		str	r5, [sp, #4]
 240 009a 0094     		str	r4, [sp]
 241 009c 0EAA     		add	r2, sp, #56
 242              	.LVL40:
 243 009e 11A9     		add	r1, sp, #68
 244 00a0 3000     		movs	r0, r6
 245              	.LVL41:
 246 00a2 FFF7FEFF 		bl	mbedtls_ecp_mul_restartable
 247              	.LVL42:
 248 00a6 0028     		cmp	r0, #0
 249 00a8 60D1     		bne	.L17
 318:Source\mbedtls_open\library/ecdsa.c ****                                                   f_rng, p_rng, ECDSA_RS_ECP ) );
ARM GAS  C:\Users\Phuong\AppData\Local\Temp\ccN9HylG.s 			page 11


 319:Source\mbedtls_open\library/ecdsa.c ****             MBEDTLS_MPI_CHK( mbedtls_mpi_mod_mpi( pr, &R.X, &grp->N ) );
 250              		.loc 1 319 0
 251 00aa 059A     		ldr	r2, [sp, #20]
 252 00ac 11A9     		add	r1, sp, #68
 253 00ae 0498     		ldr	r0, [sp, #16]
 254              	.LVL43:
 255 00b0 FFF7FEFF 		bl	mbedtls_mpi_mod_mpi
 256              	.LVL44:
 257 00b4 0028     		cmp	r0, #0
 258 00b6 5BD1     		bne	.L18
 320:Source\mbedtls_open\library/ecdsa.c ****         }
 321:Source\mbedtls_open\library/ecdsa.c ****         while( mbedtls_mpi_cmp_int( pr, 0 ) == 0 );
 259              		.loc 1 321 0
 260 00b8 0021     		movs	r1, #0
 261 00ba 0498     		ldr	r0, [sp, #16]
 262              	.LVL45:
 263 00bc FFF7FEFF 		bl	mbedtls_mpi_cmp_int
 264              	.LVL46:
 303:Source\mbedtls_open\library/ecdsa.c ****             {
 265              		.loc 1 303 0
 266 00c0 3B00     		movs	r3, r7
 267              		.loc 1 321 0
 268 00c2 0028     		cmp	r0, #0
 269 00c4 D8D0     		beq	.L8
 270 00c6 B946     		mov	r9, r7
 322:Source\mbedtls_open\library/ecdsa.c **** 
 323:Source\mbedtls_open\library/ecdsa.c **** #if defined(MBEDTLS_ECP_RESTARTABLE)
 324:Source\mbedtls_open\library/ecdsa.c ****         if( rs_ctx != NULL && rs_ctx->sig != NULL )
 325:Source\mbedtls_open\library/ecdsa.c ****             rs_ctx->sig->state = ecdsa_sig_modn;
 326:Source\mbedtls_open\library/ecdsa.c **** 
 327:Source\mbedtls_open\library/ecdsa.c **** modn:
 328:Source\mbedtls_open\library/ecdsa.c **** #endif
 329:Source\mbedtls_open\library/ecdsa.c ****         /*
 330:Source\mbedtls_open\library/ecdsa.c ****          * Accounting for everything up to the end of the loop
 331:Source\mbedtls_open\library/ecdsa.c ****          * (step 6, but checking now avoids saving e and t)
 332:Source\mbedtls_open\library/ecdsa.c ****          */
 333:Source\mbedtls_open\library/ecdsa.c ****         ECDSA_BUDGET( MBEDTLS_ECP_OPS_INV + 4 );
 334:Source\mbedtls_open\library/ecdsa.c **** 
 335:Source\mbedtls_open\library/ecdsa.c ****         /*
 336:Source\mbedtls_open\library/ecdsa.c ****          * Step 5: derive MPI from hashed message
 337:Source\mbedtls_open\library/ecdsa.c ****          */
 338:Source\mbedtls_open\library/ecdsa.c ****         MBEDTLS_MPI_CHK( derive_mpi( grp, &e, buf, blen ) );
 271              		.loc 1 338 0
 272 00c8 259B     		ldr	r3, [sp, #148]
 273 00ca 249A     		ldr	r2, [sp, #144]
 274 00cc 0BA9     		add	r1, sp, #44
 275 00ce 3000     		movs	r0, r6
 276 00d0 FFF7FEFF 		bl	derive_mpi
 277              	.LVL47:
 278 00d4 071E     		subs	r7, r0, #0
 279              	.LVL48:
 280 00d6 4CD1     		bne	.L7
 339:Source\mbedtls_open\library/ecdsa.c **** 
 340:Source\mbedtls_open\library/ecdsa.c ****         /*
 341:Source\mbedtls_open\library/ecdsa.c ****          * Generate a random value to blind inv_mod in next step,
 342:Source\mbedtls_open\library/ecdsa.c ****          * avoiding a potential timing leak.
 343:Source\mbedtls_open\library/ecdsa.c ****          */
ARM GAS  C:\Users\Phuong\AppData\Local\Temp\ccN9HylG.s 			page 12


 344:Source\mbedtls_open\library/ecdsa.c ****         MBEDTLS_MPI_CHK( mbedtls_ecp_gen_privkey( grp, &t, f_rng, p_rng ) );
 281              		.loc 1 344 0
 282 00d8 2B00     		movs	r3, r5
 283 00da 2200     		movs	r2, r4
 284 00dc 08A9     		add	r1, sp, #32
 285 00de 3000     		movs	r0, r6
 286              	.LVL49:
 287 00e0 FFF7FEFF 		bl	mbedtls_ecp_gen_privkey
 288              	.LVL50:
 289 00e4 071E     		subs	r7, r0, #0
 290              	.LVL51:
 291 00e6 44D1     		bne	.L7
 345:Source\mbedtls_open\library/ecdsa.c **** 
 346:Source\mbedtls_open\library/ecdsa.c ****         /*
 347:Source\mbedtls_open\library/ecdsa.c ****          * Step 6: compute s = (e + r * d) / k = t (e + rd) / (kt) mod n
 348:Source\mbedtls_open\library/ecdsa.c ****          */
 349:Source\mbedtls_open\library/ecdsa.c ****         MBEDTLS_MPI_CHK( mbedtls_mpi_mul_mpi( s, pr, d ) );
 292              		.loc 1 349 0
 293 00e8 079A     		ldr	r2, [sp, #28]
 294 00ea 0499     		ldr	r1, [sp, #16]
 295 00ec 0698     		ldr	r0, [sp, #24]
 296              	.LVL52:
 297 00ee FFF7FEFF 		bl	mbedtls_mpi_mul_mpi
 298              	.LVL53:
 299 00f2 071E     		subs	r7, r0, #0
 300              	.LVL54:
 301 00f4 3DD1     		bne	.L7
 350:Source\mbedtls_open\library/ecdsa.c ****         MBEDTLS_MPI_CHK( mbedtls_mpi_add_mpi( &e, &e, s ) );
 302              		.loc 1 350 0
 303 00f6 069A     		ldr	r2, [sp, #24]
 304 00f8 0BA9     		add	r1, sp, #44
 305 00fa 0800     		movs	r0, r1
 306              	.LVL55:
 307 00fc FFF7FEFF 		bl	mbedtls_mpi_add_mpi
 308              	.LVL56:
 309 0100 071E     		subs	r7, r0, #0
 310              	.LVL57:
 311 0102 36D1     		bne	.L7
 351:Source\mbedtls_open\library/ecdsa.c ****         MBEDTLS_MPI_CHK( mbedtls_mpi_mul_mpi( &e, &e, &t ) );
 312              		.loc 1 351 0
 313 0104 08AA     		add	r2, sp, #32
 314 0106 0BA9     		add	r1, sp, #44
 315 0108 0800     		movs	r0, r1
 316              	.LVL58:
 317 010a FFF7FEFF 		bl	mbedtls_mpi_mul_mpi
 318              	.LVL59:
 319 010e 071E     		subs	r7, r0, #0
 320              	.LVL60:
 321 0110 2FD1     		bne	.L7
 352:Source\mbedtls_open\library/ecdsa.c ****         MBEDTLS_MPI_CHK( mbedtls_mpi_mul_mpi( pk, pk, &t ) );
 322              		.loc 1 352 0
 323 0112 08AA     		add	r2, sp, #32
 324 0114 0EA9     		add	r1, sp, #56
 325              	.LVL61:
 326 0116 0800     		movs	r0, r1
 327              	.LVL62:
 328 0118 FFF7FEFF 		bl	mbedtls_mpi_mul_mpi
ARM GAS  C:\Users\Phuong\AppData\Local\Temp\ccN9HylG.s 			page 13


 329              	.LVL63:
 330 011c 071E     		subs	r7, r0, #0
 331              	.LVL64:
 332 011e 28D1     		bne	.L7
 353:Source\mbedtls_open\library/ecdsa.c ****         MBEDTLS_MPI_CHK( mbedtls_mpi_inv_mod( s, pk, &grp->N ) );
 333              		.loc 1 353 0
 334 0120 059A     		ldr	r2, [sp, #20]
 335 0122 0EA9     		add	r1, sp, #56
 336              	.LVL65:
 337 0124 0698     		ldr	r0, [sp, #24]
 338              	.LVL66:
 339 0126 FFF7FEFF 		bl	mbedtls_mpi_inv_mod
 340              	.LVL67:
 341 012a 071E     		subs	r7, r0, #0
 342              	.LVL68:
 343 012c 21D1     		bne	.L7
 354:Source\mbedtls_open\library/ecdsa.c ****         MBEDTLS_MPI_CHK( mbedtls_mpi_mul_mpi( s, s, &e ) );
 344              		.loc 1 354 0
 345 012e 0BAA     		add	r2, sp, #44
 346 0130 069B     		ldr	r3, [sp, #24]
 347 0132 1900     		movs	r1, r3
 348 0134 1800     		movs	r0, r3
 349              	.LVL69:
 350 0136 FFF7FEFF 		bl	mbedtls_mpi_mul_mpi
 351              	.LVL70:
 352 013a 071E     		subs	r7, r0, #0
 353              	.LVL71:
 354 013c 19D1     		bne	.L7
 355:Source\mbedtls_open\library/ecdsa.c ****         MBEDTLS_MPI_CHK( mbedtls_mpi_mod_mpi( s, s, &grp->N ) );
 355              		.loc 1 355 0
 356 013e 059A     		ldr	r2, [sp, #20]
 357 0140 069B     		ldr	r3, [sp, #24]
 358 0142 1900     		movs	r1, r3
 359 0144 1800     		movs	r0, r3
 360              	.LVL72:
 361 0146 FFF7FEFF 		bl	mbedtls_mpi_mod_mpi
 362              	.LVL73:
 363 014a 071E     		subs	r7, r0, #0
 364              	.LVL74:
 365 014c 11D1     		bne	.L7
 356:Source\mbedtls_open\library/ecdsa.c ****     }
 357:Source\mbedtls_open\library/ecdsa.c ****     while( mbedtls_mpi_cmp_int( s, 0 ) == 0 );
 366              		.loc 1 357 0
 367 014e 0021     		movs	r1, #0
 368 0150 0698     		ldr	r0, [sp, #24]
 369              	.LVL75:
 370 0152 FFF7FEFF 		bl	mbedtls_mpi_cmp_int
 371              	.LVL76:
 290:Source\mbedtls_open\library/ecdsa.c ****         {
 372              		.loc 1 290 0
 373 0156 5246     		mov	r2, r10
 374              		.loc 1 357 0
 375 0158 0028     		cmp	r0, #0
 376 015a 00D1     		bne	.LCB390
 377 015c 84E7     		b	.L15	@long jump
 378              	.LCB390:
 379              	.LVL77:
ARM GAS  C:\Users\Phuong\AppData\Local\Temp\ccN9HylG.s 			page 14


 380 015e 08E0     		b	.L7
 381              	.LVL78:
 382              	.L13:
 292:Source\mbedtls_open\library/ecdsa.c ****             goto cleanup;
 383              		.loc 1 292 0
 384 0160 104F     		ldr	r7, .L28
 385 0162 06E0     		b	.L7
 386              	.LVL79:
 387              	.L14:
 305:Source\mbedtls_open\library/ecdsa.c ****                 goto cleanup;
 388              		.loc 1 305 0
 389 0164 0F4F     		ldr	r7, .L28
 390              	.LVL80:
 391 0166 04E0     		b	.L7
 392              	.LVL81:
 393              	.L16:
 394 0168 0700     		movs	r7, r0
 395              	.LVL82:
 396 016a 02E0     		b	.L7
 397              	.LVL83:
 398              	.L17:
 399 016c 0700     		movs	r7, r0
 400              	.LVL84:
 401 016e 00E0     		b	.L7
 402              	.LVL85:
 403              	.L18:
 404 0170 0700     		movs	r7, r0
 405              	.LVL86:
 406              	.L7:
 358:Source\mbedtls_open\library/ecdsa.c **** 
 359:Source\mbedtls_open\library/ecdsa.c **** #if defined(MBEDTLS_ECP_RESTARTABLE)
 360:Source\mbedtls_open\library/ecdsa.c ****     if( rs_ctx != NULL && rs_ctx->sig != NULL )
 361:Source\mbedtls_open\library/ecdsa.c ****         mbedtls_mpi_copy( r, pr );
 362:Source\mbedtls_open\library/ecdsa.c **** #endif
 363:Source\mbedtls_open\library/ecdsa.c **** 
 364:Source\mbedtls_open\library/ecdsa.c **** cleanup:
 365:Source\mbedtls_open\library/ecdsa.c ****     mbedtls_ecp_point_free( &R );
 407              		.loc 1 365 0
 408 0172 11A8     		add	r0, sp, #68
 409 0174 FFF7FEFF 		bl	mbedtls_ecp_point_free
 410              	.LVL87:
 366:Source\mbedtls_open\library/ecdsa.c ****     mbedtls_mpi_free( &k ); mbedtls_mpi_free( &e ); mbedtls_mpi_free( &t );
 411              		.loc 1 366 0
 412 0178 0EA8     		add	r0, sp, #56
 413              	.LVL88:
 414 017a FFF7FEFF 		bl	mbedtls_mpi_free
 415              	.LVL89:
 416 017e 0BA8     		add	r0, sp, #44
 417 0180 FFF7FEFF 		bl	mbedtls_mpi_free
 418              	.LVL90:
 419 0184 08A8     		add	r0, sp, #32
 420 0186 FFF7FEFF 		bl	mbedtls_mpi_free
 421              	.LVL91:
 367:Source\mbedtls_open\library/ecdsa.c **** 
 368:Source\mbedtls_open\library/ecdsa.c ****     ECDSA_RS_LEAVE( sig );
 369:Source\mbedtls_open\library/ecdsa.c **** 
 370:Source\mbedtls_open\library/ecdsa.c ****     return( ret );
ARM GAS  C:\Users\Phuong\AppData\Local\Temp\ccN9HylG.s 			page 15


 422              		.loc 1 370 0
 423 018a 3800     		movs	r0, r7
 424 018c 04E0     		b	.L6
 425              	.LVL92:
 426              	.L10:
 259:Source\mbedtls_open\library/ecdsa.c **** 
 427              		.loc 1 259 0
 428 018e 0648     		ldr	r0, .L28+4
 429              	.LVL93:
 430 0190 02E0     		b	.L6
 431              	.LVL94:
 432              	.L11:
 263:Source\mbedtls_open\library/ecdsa.c **** 
 433              		.loc 1 263 0
 434 0192 0648     		ldr	r0, .L28+8
 435 0194 00E0     		b	.L6
 436              	.L12:
 437 0196 0548     		ldr	r0, .L28+8
 438              	.LVL95:
 439              	.L6:
 371:Source\mbedtls_open\library/ecdsa.c **** }
 440              		.loc 1 371 0
 441 0198 1DB0     		add	sp, sp, #116
 442              		@ sp needed
 443              	.LVL96:
 444 019a 0CBC     		pop	{r2, r3}
 445 019c 9146     		mov	r9, r2
 446 019e 9A46     		mov	r10, r3
 447 01a0 F0BD     		pop	{r4, r5, r6, r7, pc}
 448              	.L29:
 449 01a2 C046     		.align	2
 450              	.L28:
 451 01a4 00B3FFFF 		.word	-19712
 452 01a8 80B0FFFF 		.word	-20352
 453 01ac 80B3FFFF 		.word	-19584
 454              		.cfi_endproc
 455              	.LFE2:
 456              		.size	ecdsa_sign_restartable, .-ecdsa_sign_restartable
 457              		.section	.text.ecdsa_sign_det_restartable,"ax",%progbits
 458              		.align	2
 459              		.code	16
 460              		.thumb_func
 461              		.type	ecdsa_sign_det_restartable, %function
 462              	ecdsa_sign_det_restartable:
 463              	.LFB4:
 372:Source\mbedtls_open\library/ecdsa.c **** #endif /* MBEDTLS_ECDSA_SIGN_ALT */
 373:Source\mbedtls_open\library/ecdsa.c **** 
 374:Source\mbedtls_open\library/ecdsa.c **** /*
 375:Source\mbedtls_open\library/ecdsa.c ****  * Compute ECDSA signature of a hashed message
 376:Source\mbedtls_open\library/ecdsa.c ****  */
 377:Source\mbedtls_open\library/ecdsa.c **** int mbedtls_ecdsa_sign( mbedtls_ecp_group *grp, mbedtls_mpi *r, mbedtls_mpi *s,
 378:Source\mbedtls_open\library/ecdsa.c ****                 const mbedtls_mpi *d, const unsigned char *buf, size_t blen,
 379:Source\mbedtls_open\library/ecdsa.c ****                 int (*f_rng)(void *, unsigned char *, size_t), void *p_rng )
 380:Source\mbedtls_open\library/ecdsa.c **** {
 381:Source\mbedtls_open\library/ecdsa.c ****     return( ecdsa_sign_restartable( grp, r, s, d, buf, blen,
 382:Source\mbedtls_open\library/ecdsa.c ****                                     f_rng, p_rng, NULL ) );
 383:Source\mbedtls_open\library/ecdsa.c **** }
ARM GAS  C:\Users\Phuong\AppData\Local\Temp\ccN9HylG.s 			page 16


 384:Source\mbedtls_open\library/ecdsa.c **** 
 385:Source\mbedtls_open\library/ecdsa.c **** #if defined(MBEDTLS_ECDSA_DETERMINISTIC)
 386:Source\mbedtls_open\library/ecdsa.c **** /*
 387:Source\mbedtls_open\library/ecdsa.c ****  * Deterministic signature wrapper
 388:Source\mbedtls_open\library/ecdsa.c ****  */
 389:Source\mbedtls_open\library/ecdsa.c **** static int ecdsa_sign_det_restartable( mbedtls_ecp_group *grp,
 390:Source\mbedtls_open\library/ecdsa.c ****                     mbedtls_mpi *r, mbedtls_mpi *s,
 391:Source\mbedtls_open\library/ecdsa.c ****                     const mbedtls_mpi *d, const unsigned char *buf, size_t blen,
 392:Source\mbedtls_open\library/ecdsa.c ****                     mbedtls_md_type_t md_alg,
 393:Source\mbedtls_open\library/ecdsa.c ****                     mbedtls_ecdsa_restart_ctx *rs_ctx )
 394:Source\mbedtls_open\library/ecdsa.c **** {
 464              		.loc 1 394 0
 465              		.cfi_startproc
 466              		@ args = 16, pretend = 0, frame = 264
 467              		@ frame_needed = 0, uses_anonymous_args = 0
 468              	.LVL97:
 469 0000 F0B5     		push	{r4, r5, r6, r7, lr}
 470              		.cfi_def_cfa_offset 20
 471              		.cfi_offset 4, -20
 472              		.cfi_offset 5, -16
 473              		.cfi_offset 6, -12
 474              		.cfi_offset 7, -8
 475              		.cfi_offset 14, -4
 476 0002 C9B0     		sub	sp, sp, #292
 477              		.cfi_def_cfa_offset 312
 478 0004 0600     		movs	r6, r0
 479 0006 0791     		str	r1, [sp, #28]
 480 0008 0892     		str	r2, [sp, #32]
 481 000a 1C00     		movs	r4, r3
 482 000c 0993     		str	r3, [sp, #36]
 483 000e 50AB     		add	r3, sp, #320
 484              	.LVL98:
 485 0010 1878     		ldrb	r0, [r3]
 486              	.LVL99:
 395:Source\mbedtls_open\library/ecdsa.c ****     int ret;
 396:Source\mbedtls_open\library/ecdsa.c ****     mbedtls_hmac_drbg_context rng_ctx;
 397:Source\mbedtls_open\library/ecdsa.c ****     mbedtls_hmac_drbg_context *p_rng = &rng_ctx;
 398:Source\mbedtls_open\library/ecdsa.c ****     unsigned char data[2 * MBEDTLS_ECP_MAX_BYTES];
 399:Source\mbedtls_open\library/ecdsa.c ****     size_t grp_len = ( grp->nbits + 7 ) / 8;
 487              		.loc 1 399 0
 488 0012 F36D     		ldr	r3, [r6, #92]
 489              	.LVL100:
 490 0014 0733     		adds	r3, r3, #7
 491 0016 DD08     		lsrs	r5, r3, #3
 492              	.LVL101:
 400:Source\mbedtls_open\library/ecdsa.c ****     const mbedtls_md_info_t *md_info;
 401:Source\mbedtls_open\library/ecdsa.c ****     mbedtls_mpi h;
 402:Source\mbedtls_open\library/ecdsa.c **** 
 403:Source\mbedtls_open\library/ecdsa.c ****     if( ( md_info = mbedtls_md_info_from_type( md_alg ) ) == NULL )
 493              		.loc 1 403 0
 494 0018 FFF7FEFF 		bl	mbedtls_md_info_from_type
 495              	.LVL102:
 496 001c 071E     		subs	r7, r0, #0
 497              	.LVL103:
 498 001e 3BD0     		beq	.L33
 404:Source\mbedtls_open\library/ecdsa.c ****         return( MBEDTLS_ERR_ECP_BAD_INPUT_DATA );
 405:Source\mbedtls_open\library/ecdsa.c **** 
ARM GAS  C:\Users\Phuong\AppData\Local\Temp\ccN9HylG.s 			page 17


 406:Source\mbedtls_open\library/ecdsa.c ****     mbedtls_mpi_init( &h );
 499              		.loc 1 406 0
 500 0020 0BA8     		add	r0, sp, #44
 501              	.LVL104:
 502 0022 FFF7FEFF 		bl	mbedtls_mpi_init
 503              	.LVL105:
 407:Source\mbedtls_open\library/ecdsa.c ****     mbedtls_hmac_drbg_init( &rng_ctx );
 504              		.loc 1 407 0
 505 0026 2FA8     		add	r0, sp, #188
 506              	.LVL106:
 507 0028 FFF7FEFF 		bl	mbedtls_hmac_drbg_init
 508              	.LVL107:
 408:Source\mbedtls_open\library/ecdsa.c **** 
 409:Source\mbedtls_open\library/ecdsa.c ****     ECDSA_RS_ENTER( det );
 410:Source\mbedtls_open\library/ecdsa.c **** 
 411:Source\mbedtls_open\library/ecdsa.c **** #if defined(MBEDTLS_ECP_RESTARTABLE)
 412:Source\mbedtls_open\library/ecdsa.c ****     if( rs_ctx != NULL && rs_ctx->det != NULL )
 413:Source\mbedtls_open\library/ecdsa.c ****     {
 414:Source\mbedtls_open\library/ecdsa.c ****         /* redirect to our context */
 415:Source\mbedtls_open\library/ecdsa.c ****         p_rng = &rs_ctx->det->rng_ctx;
 416:Source\mbedtls_open\library/ecdsa.c **** 
 417:Source\mbedtls_open\library/ecdsa.c ****         /* jump to current step */
 418:Source\mbedtls_open\library/ecdsa.c ****         if( rs_ctx->det->state == ecdsa_det_sign )
 419:Source\mbedtls_open\library/ecdsa.c ****             goto sign;
 420:Source\mbedtls_open\library/ecdsa.c ****     }
 421:Source\mbedtls_open\library/ecdsa.c **** #endif /* MBEDTLS_ECP_RESTARTABLE */
 422:Source\mbedtls_open\library/ecdsa.c **** 
 423:Source\mbedtls_open\library/ecdsa.c ****     /* Use private key and message hash (reduced) to initialize HMAC_DRBG */
 424:Source\mbedtls_open\library/ecdsa.c ****     MBEDTLS_MPI_CHK( mbedtls_mpi_write_binary( d, data, grp_len ) );
 509              		.loc 1 424 0
 510 002c 2A00     		movs	r2, r5
 511 002e 0EA9     		add	r1, sp, #56
 512 0030 2000     		movs	r0, r4
 513 0032 FFF7FEFF 		bl	mbedtls_mpi_write_binary
 514              	.LVL108:
 515 0036 041E     		subs	r4, r0, #0
 516              	.LVL109:
 517 0038 26D1     		bne	.L32
 425:Source\mbedtls_open\library/ecdsa.c ****     MBEDTLS_MPI_CHK( derive_mpi( grp, &h, buf, blen ) );
 518              		.loc 1 425 0
 519 003a 4F9B     		ldr	r3, [sp, #316]
 520 003c 4E9A     		ldr	r2, [sp, #312]
 521 003e 0BA9     		add	r1, sp, #44
 522 0040 3000     		movs	r0, r6
 523              	.LVL110:
 524 0042 FFF7FEFF 		bl	derive_mpi
 525              	.LVL111:
 526 0046 041E     		subs	r4, r0, #0
 527              	.LVL112:
 528 0048 1ED1     		bne	.L32
 426:Source\mbedtls_open\library/ecdsa.c ****     MBEDTLS_MPI_CHK( mbedtls_mpi_write_binary( &h, data + grp_len, grp_len ) );
 529              		.loc 1 426 0
 530 004a 0EAB     		add	r3, sp, #56
 531 004c 5919     		adds	r1, r3, r5
 532 004e 2A00     		movs	r2, r5
 533 0050 0BA8     		add	r0, sp, #44
 534              	.LVL113:
ARM GAS  C:\Users\Phuong\AppData\Local\Temp\ccN9HylG.s 			page 18


 535 0052 FFF7FEFF 		bl	mbedtls_mpi_write_binary
 536              	.LVL114:
 537 0056 041E     		subs	r4, r0, #0
 538              	.LVL115:
 539 0058 16D1     		bne	.L32
 427:Source\mbedtls_open\library/ecdsa.c ****     mbedtls_hmac_drbg_seed_buf( p_rng, md_info, data, 2 * grp_len );
 540              		.loc 1 427 0
 541 005a 6B00     		lsls	r3, r5, #1
 542 005c 2FAC     		add	r4, sp, #188
 543              	.LVL116:
 544 005e 0EAA     		add	r2, sp, #56
 545 0060 3900     		movs	r1, r7
 546 0062 2000     		movs	r0, r4
 547              	.LVL117:
 548 0064 FFF7FEFF 		bl	mbedtls_hmac_drbg_seed_buf
 549              	.LVL118:
 428:Source\mbedtls_open\library/ecdsa.c **** 
 429:Source\mbedtls_open\library/ecdsa.c **** #if defined(MBEDTLS_ECP_RESTARTABLE)
 430:Source\mbedtls_open\library/ecdsa.c ****     if( rs_ctx != NULL && rs_ctx->det != NULL )
 431:Source\mbedtls_open\library/ecdsa.c ****         rs_ctx->det->state = ecdsa_det_sign;
 432:Source\mbedtls_open\library/ecdsa.c **** 
 433:Source\mbedtls_open\library/ecdsa.c **** sign:
 434:Source\mbedtls_open\library/ecdsa.c **** #endif
 435:Source\mbedtls_open\library/ecdsa.c ****     ret = ecdsa_sign_restartable( grp, r, s, d, buf, blen,
 550              		.loc 1 435 0
 551 0068 519B     		ldr	r3, [sp, #324]
 552 006a 0493     		str	r3, [sp, #16]
 553 006c 0394     		str	r4, [sp, #12]
 554 006e 0C4B     		ldr	r3, .L34
 555 0070 0293     		str	r3, [sp, #8]
 556 0072 4F9B     		ldr	r3, [sp, #316]
 557 0074 0193     		str	r3, [sp, #4]
 558 0076 4E9B     		ldr	r3, [sp, #312]
 559 0078 0093     		str	r3, [sp]
 560 007a 099B     		ldr	r3, [sp, #36]
 561 007c 089A     		ldr	r2, [sp, #32]
 562 007e 0799     		ldr	r1, [sp, #28]
 563 0080 3000     		movs	r0, r6
 564 0082 FFF7FEFF 		bl	ecdsa_sign_restartable
 565              	.LVL119:
 566 0086 0400     		movs	r4, r0
 567              	.LVL120:
 568              	.L32:
 436:Source\mbedtls_open\library/ecdsa.c ****                       mbedtls_hmac_drbg_random, p_rng, rs_ctx );
 437:Source\mbedtls_open\library/ecdsa.c **** 
 438:Source\mbedtls_open\library/ecdsa.c **** cleanup:
 439:Source\mbedtls_open\library/ecdsa.c ****     mbedtls_hmac_drbg_free( &rng_ctx );
 569              		.loc 1 439 0
 570 0088 2FA8     		add	r0, sp, #188
 571              	.LVL121:
 572 008a FFF7FEFF 		bl	mbedtls_hmac_drbg_free
 573              	.LVL122:
 440:Source\mbedtls_open\library/ecdsa.c ****     mbedtls_mpi_free( &h );
 574              		.loc 1 440 0
 575 008e 0BA8     		add	r0, sp, #44
 576 0090 FFF7FEFF 		bl	mbedtls_mpi_free
 577              	.LVL123:
ARM GAS  C:\Users\Phuong\AppData\Local\Temp\ccN9HylG.s 			page 19


 441:Source\mbedtls_open\library/ecdsa.c **** 
 442:Source\mbedtls_open\library/ecdsa.c ****     ECDSA_RS_LEAVE( det );
 443:Source\mbedtls_open\library/ecdsa.c **** 
 444:Source\mbedtls_open\library/ecdsa.c ****     return( ret );
 578              		.loc 1 444 0
 579 0094 2000     		movs	r0, r4
 580 0096 00E0     		b	.L31
 581              	.LVL124:
 582              	.L33:
 404:Source\mbedtls_open\library/ecdsa.c **** 
 583              		.loc 1 404 0
 584 0098 0248     		ldr	r0, .L34+4
 585              	.LVL125:
 586              	.L31:
 445:Source\mbedtls_open\library/ecdsa.c **** }
 587              		.loc 1 445 0
 588 009a 49B0     		add	sp, sp, #292
 589              		@ sp needed
 590              	.LVL126:
 591              	.LVL127:
 592              	.LVL128:
 593 009c F0BD     		pop	{r4, r5, r6, r7, pc}
 594              	.L35:
 595 009e C046     		.align	2
 596              	.L34:
 597 00a0 00000000 		.word	mbedtls_hmac_drbg_random
 598 00a4 80B0FFFF 		.word	-20352
 599              		.cfi_endproc
 600              	.LFE4:
 601              		.size	ecdsa_sign_det_restartable, .-ecdsa_sign_det_restartable
 602              		.section	.text.ecdsa_verify_restartable,"ax",%progbits
 603              		.align	2
 604              		.code	16
 605              		.thumb_func
 606              		.type	ecdsa_verify_restartable, %function
 607              	ecdsa_verify_restartable:
 608              	.LFB6:
 446:Source\mbedtls_open\library/ecdsa.c **** 
 447:Source\mbedtls_open\library/ecdsa.c **** /*
 448:Source\mbedtls_open\library/ecdsa.c ****  * Deterministic signature wrapper
 449:Source\mbedtls_open\library/ecdsa.c ****  */
 450:Source\mbedtls_open\library/ecdsa.c **** int mbedtls_ecdsa_sign_det( mbedtls_ecp_group *grp, mbedtls_mpi *r, mbedtls_mpi *s,
 451:Source\mbedtls_open\library/ecdsa.c ****                     const mbedtls_mpi *d, const unsigned char *buf, size_t blen,
 452:Source\mbedtls_open\library/ecdsa.c ****                     mbedtls_md_type_t md_alg )
 453:Source\mbedtls_open\library/ecdsa.c **** {
 454:Source\mbedtls_open\library/ecdsa.c ****     return( ecdsa_sign_det_restartable( grp, r, s, d, buf, blen, md_alg, NULL ) );
 455:Source\mbedtls_open\library/ecdsa.c **** }
 456:Source\mbedtls_open\library/ecdsa.c **** #endif /* MBEDTLS_ECDSA_DETERMINISTIC */
 457:Source\mbedtls_open\library/ecdsa.c **** 
 458:Source\mbedtls_open\library/ecdsa.c **** #if !defined(MBEDTLS_ECDSA_VERIFY_ALT)
 459:Source\mbedtls_open\library/ecdsa.c **** /*
 460:Source\mbedtls_open\library/ecdsa.c ****  * Verify ECDSA signature of hashed message (SEC1 4.1.4)
 461:Source\mbedtls_open\library/ecdsa.c ****  * Obviously, compared to SEC1 4.1.3, we skip step 2 (hash message)
 462:Source\mbedtls_open\library/ecdsa.c ****  */
 463:Source\mbedtls_open\library/ecdsa.c **** static int ecdsa_verify_restartable( mbedtls_ecp_group *grp,
 464:Source\mbedtls_open\library/ecdsa.c ****                                      const unsigned char *buf, size_t blen,
 465:Source\mbedtls_open\library/ecdsa.c ****                                      const mbedtls_ecp_point *Q,
ARM GAS  C:\Users\Phuong\AppData\Local\Temp\ccN9HylG.s 			page 20


 466:Source\mbedtls_open\library/ecdsa.c ****                                      const mbedtls_mpi *r, const mbedtls_mpi *s,
 467:Source\mbedtls_open\library/ecdsa.c ****                                      mbedtls_ecdsa_restart_ctx *rs_ctx )
 468:Source\mbedtls_open\library/ecdsa.c **** {
 609              		.loc 1 468 0
 610              		.cfi_startproc
 611              		@ args = 12, pretend = 0, frame = 96
 612              		@ frame_needed = 0, uses_anonymous_args = 0
 613              	.LVL129:
 614 0000 F0B5     		push	{r4, r5, r6, r7, lr}
 615              		.cfi_def_cfa_offset 20
 616              		.cfi_offset 4, -20
 617              		.cfi_offset 5, -16
 618              		.cfi_offset 6, -12
 619              		.cfi_offset 7, -8
 620              		.cfi_offset 14, -4
 621 0002 9DB0     		sub	sp, sp, #116
 622              		.cfi_def_cfa_offset 136
 623 0004 0500     		movs	r5, r0
 624 0006 0C00     		movs	r4, r1
 625 0008 0592     		str	r2, [sp, #20]
 626 000a 1E00     		movs	r6, r3
 627              	.LVL130:
 469:Source\mbedtls_open\library/ecdsa.c ****     int ret;
 470:Source\mbedtls_open\library/ecdsa.c ****     mbedtls_mpi e, s_inv, u1, u2;
 471:Source\mbedtls_open\library/ecdsa.c ****     mbedtls_ecp_point R;
 472:Source\mbedtls_open\library/ecdsa.c ****     mbedtls_mpi *pu1 = &u1, *pu2 = &u2;
 473:Source\mbedtls_open\library/ecdsa.c **** 
 474:Source\mbedtls_open\library/ecdsa.c ****     mbedtls_ecp_point_init( &R );
 628              		.loc 1 474 0
 629 000c 07A8     		add	r0, sp, #28
 630              	.LVL131:
 631 000e FFF7FEFF 		bl	mbedtls_ecp_point_init
 632              	.LVL132:
 475:Source\mbedtls_open\library/ecdsa.c ****     mbedtls_mpi_init( &e ); mbedtls_mpi_init( &s_inv );
 633              		.loc 1 475 0
 634 0012 19A8     		add	r0, sp, #100
 635 0014 FFF7FEFF 		bl	mbedtls_mpi_init
 636              	.LVL133:
 637 0018 16A8     		add	r0, sp, #88
 638 001a FFF7FEFF 		bl	mbedtls_mpi_init
 639              	.LVL134:
 476:Source\mbedtls_open\library/ecdsa.c ****     mbedtls_mpi_init( &u1 ); mbedtls_mpi_init( &u2 );
 640              		.loc 1 476 0
 641 001e 13A8     		add	r0, sp, #76
 642              	.LVL135:
 643 0020 FFF7FEFF 		bl	mbedtls_mpi_init
 644              	.LVL136:
 645 0024 10A8     		add	r0, sp, #64
 646              	.LVL137:
 647 0026 FFF7FEFF 		bl	mbedtls_mpi_init
 648              	.LVL138:
 477:Source\mbedtls_open\library/ecdsa.c **** 
 478:Source\mbedtls_open\library/ecdsa.c ****     /* Fail cleanly on curves such as Curve25519 that can't be used for ECDSA */
 479:Source\mbedtls_open\library/ecdsa.c ****     if( grp->N.p == NULL )
 649              		.loc 1 479 0
 650 002a 6B6D     		ldr	r3, [r5, #84]
 651 002c 002B     		cmp	r3, #0
ARM GAS  C:\Users\Phuong\AppData\Local\Temp\ccN9HylG.s 			page 21


 652 002e 00D1     		bne	.LCB741
 653 0030 81E0     		b	.L39	@long jump
 654              	.LCB741:
 480:Source\mbedtls_open\library/ecdsa.c ****         return( MBEDTLS_ERR_ECP_BAD_INPUT_DATA );
 481:Source\mbedtls_open\library/ecdsa.c **** 
 482:Source\mbedtls_open\library/ecdsa.c ****     ECDSA_RS_ENTER( ver );
 483:Source\mbedtls_open\library/ecdsa.c **** 
 484:Source\mbedtls_open\library/ecdsa.c **** #if defined(MBEDTLS_ECP_RESTARTABLE)
 485:Source\mbedtls_open\library/ecdsa.c ****     if( rs_ctx != NULL && rs_ctx->ver != NULL )
 486:Source\mbedtls_open\library/ecdsa.c ****     {
 487:Source\mbedtls_open\library/ecdsa.c ****         /* redirect to our context */
 488:Source\mbedtls_open\library/ecdsa.c ****         pu1 = &rs_ctx->ver->u1;
 489:Source\mbedtls_open\library/ecdsa.c ****         pu2 = &rs_ctx->ver->u2;
 490:Source\mbedtls_open\library/ecdsa.c **** 
 491:Source\mbedtls_open\library/ecdsa.c ****         /* jump to current step */
 492:Source\mbedtls_open\library/ecdsa.c ****         if( rs_ctx->ver->state == ecdsa_ver_muladd )
 493:Source\mbedtls_open\library/ecdsa.c ****             goto muladd;
 494:Source\mbedtls_open\library/ecdsa.c ****     }
 495:Source\mbedtls_open\library/ecdsa.c **** #endif /* MBEDTLS_ECP_RESTARTABLE */
 496:Source\mbedtls_open\library/ecdsa.c **** 
 497:Source\mbedtls_open\library/ecdsa.c ****     /*
 498:Source\mbedtls_open\library/ecdsa.c ****      * Step 1: make sure r and s are in range 1..n-1
 499:Source\mbedtls_open\library/ecdsa.c ****      */
 500:Source\mbedtls_open\library/ecdsa.c ****     if( mbedtls_mpi_cmp_int( r, 1 ) < 0 || mbedtls_mpi_cmp_mpi( r, &grp->N ) >= 0 ||
 655              		.loc 1 500 0
 656 0032 0121     		movs	r1, #1
 657 0034 2298     		ldr	r0, [sp, #136]
 658 0036 FFF7FEFF 		bl	mbedtls_mpi_cmp_int
 659              	.LVL139:
 660 003a 0028     		cmp	r0, #0
 661 003c 5FDB     		blt	.L40
 662              		.loc 1 500 0 is_stmt 0 discriminator 1
 663 003e 2F00     		movs	r7, r5
 664 0040 4C37     		adds	r7, r7, #76
 665 0042 3900     		movs	r1, r7
 666 0044 2298     		ldr	r0, [sp, #136]
 667 0046 FFF7FEFF 		bl	mbedtls_mpi_cmp_mpi
 668              	.LVL140:
 669 004a 0028     		cmp	r0, #0
 670 004c 59DA     		bge	.L41
 501:Source\mbedtls_open\library/ecdsa.c ****         mbedtls_mpi_cmp_int( s, 1 ) < 0 || mbedtls_mpi_cmp_mpi( s, &grp->N ) >= 0 )
 671              		.loc 1 501 0 is_stmt 1 discriminator 2
 672 004e 0121     		movs	r1, #1
 673 0050 2398     		ldr	r0, [sp, #140]
 674 0052 FFF7FEFF 		bl	mbedtls_mpi_cmp_int
 675              	.LVL141:
 500:Source\mbedtls_open\library/ecdsa.c ****         mbedtls_mpi_cmp_int( s, 1 ) < 0 || mbedtls_mpi_cmp_mpi( s, &grp->N ) >= 0 )
 676              		.loc 1 500 0 discriminator 2
 677 0056 0028     		cmp	r0, #0
 678 0058 55DB     		blt	.L42
 679              		.loc 1 501 0
 680 005a 3900     		movs	r1, r7
 681 005c 2398     		ldr	r0, [sp, #140]
 682 005e FFF7FEFF 		bl	mbedtls_mpi_cmp_mpi
 683              	.LVL142:
 684 0062 0028     		cmp	r0, #0
 685 0064 51DA     		bge	.L43
ARM GAS  C:\Users\Phuong\AppData\Local\Temp\ccN9HylG.s 			page 22


 502:Source\mbedtls_open\library/ecdsa.c ****     {
 503:Source\mbedtls_open\library/ecdsa.c ****         ret = MBEDTLS_ERR_ECP_VERIFY_FAILED;
 504:Source\mbedtls_open\library/ecdsa.c ****         goto cleanup;
 505:Source\mbedtls_open\library/ecdsa.c ****     }
 506:Source\mbedtls_open\library/ecdsa.c **** 
 507:Source\mbedtls_open\library/ecdsa.c ****     /*
 508:Source\mbedtls_open\library/ecdsa.c ****      * Step 3: derive MPI from hashed message
 509:Source\mbedtls_open\library/ecdsa.c ****      */
 510:Source\mbedtls_open\library/ecdsa.c ****     MBEDTLS_MPI_CHK( derive_mpi( grp, &e, buf, blen ) );
 686              		.loc 1 510 0
 687 0066 059B     		ldr	r3, [sp, #20]
 688 0068 2200     		movs	r2, r4
 689 006a 19A9     		add	r1, sp, #100
 690 006c 2800     		movs	r0, r5
 691 006e FFF7FEFF 		bl	derive_mpi
 692              	.LVL143:
 693 0072 041E     		subs	r4, r0, #0
 694              	.LVL144:
 695 0074 4ED1     		bne	.L38
 511:Source\mbedtls_open\library/ecdsa.c **** 
 512:Source\mbedtls_open\library/ecdsa.c ****     /*
 513:Source\mbedtls_open\library/ecdsa.c ****      * Step 4: u1 = e / s mod n, u2 = r / s mod n
 514:Source\mbedtls_open\library/ecdsa.c ****      */
 515:Source\mbedtls_open\library/ecdsa.c ****     ECDSA_BUDGET( MBEDTLS_ECP_OPS_CHK + MBEDTLS_ECP_OPS_INV + 2 );
 516:Source\mbedtls_open\library/ecdsa.c **** 
 517:Source\mbedtls_open\library/ecdsa.c ****     MBEDTLS_MPI_CHK( mbedtls_mpi_inv_mod( &s_inv, s, &grp->N ) );
 696              		.loc 1 517 0
 697 0076 3A00     		movs	r2, r7
 698 0078 2399     		ldr	r1, [sp, #140]
 699 007a 16A8     		add	r0, sp, #88
 700              	.LVL145:
 701 007c FFF7FEFF 		bl	mbedtls_mpi_inv_mod
 702              	.LVL146:
 703 0080 041E     		subs	r4, r0, #0
 704              	.LVL147:
 705 0082 47D1     		bne	.L38
 518:Source\mbedtls_open\library/ecdsa.c **** 
 519:Source\mbedtls_open\library/ecdsa.c ****     MBEDTLS_MPI_CHK( mbedtls_mpi_mul_mpi( pu1, &e, &s_inv ) );
 706              		.loc 1 519 0
 707 0084 16AA     		add	r2, sp, #88
 708 0086 19A9     		add	r1, sp, #100
 709 0088 13A8     		add	r0, sp, #76
 710              	.LVL148:
 711 008a FFF7FEFF 		bl	mbedtls_mpi_mul_mpi
 712              	.LVL149:
 713 008e 041E     		subs	r4, r0, #0
 714              	.LVL150:
 715 0090 40D1     		bne	.L38
 520:Source\mbedtls_open\library/ecdsa.c ****     MBEDTLS_MPI_CHK( mbedtls_mpi_mod_mpi( pu1, pu1, &grp->N ) );
 716              		.loc 1 520 0
 717 0092 3A00     		movs	r2, r7
 718 0094 13A9     		add	r1, sp, #76
 719              	.LVL151:
 720 0096 0800     		movs	r0, r1
 721              	.LVL152:
 722 0098 FFF7FEFF 		bl	mbedtls_mpi_mod_mpi
 723              	.LVL153:
ARM GAS  C:\Users\Phuong\AppData\Local\Temp\ccN9HylG.s 			page 23


 724 009c 041E     		subs	r4, r0, #0
 725              	.LVL154:
 726 009e 39D1     		bne	.L38
 521:Source\mbedtls_open\library/ecdsa.c **** 
 522:Source\mbedtls_open\library/ecdsa.c ****     MBEDTLS_MPI_CHK( mbedtls_mpi_mul_mpi( pu2, r, &s_inv ) );
 727              		.loc 1 522 0
 728 00a0 16AA     		add	r2, sp, #88
 729 00a2 2299     		ldr	r1, [sp, #136]
 730 00a4 10A8     		add	r0, sp, #64
 731              	.LVL155:
 732 00a6 FFF7FEFF 		bl	mbedtls_mpi_mul_mpi
 733              	.LVL156:
 734 00aa 041E     		subs	r4, r0, #0
 735              	.LVL157:
 736 00ac 32D1     		bne	.L38
 523:Source\mbedtls_open\library/ecdsa.c ****     MBEDTLS_MPI_CHK( mbedtls_mpi_mod_mpi( pu2, pu2, &grp->N ) );
 737              		.loc 1 523 0
 738 00ae 3A00     		movs	r2, r7
 739 00b0 10A9     		add	r1, sp, #64
 740              	.LVL158:
 741 00b2 0800     		movs	r0, r1
 742              	.LVL159:
 743 00b4 FFF7FEFF 		bl	mbedtls_mpi_mod_mpi
 744              	.LVL160:
 745 00b8 041E     		subs	r4, r0, #0
 746              	.LVL161:
 747 00ba 2BD1     		bne	.L38
 524:Source\mbedtls_open\library/ecdsa.c **** 
 525:Source\mbedtls_open\library/ecdsa.c **** #if defined(MBEDTLS_ECP_RESTARTABLE)
 526:Source\mbedtls_open\library/ecdsa.c ****     if( rs_ctx != NULL && rs_ctx->ver != NULL )
 527:Source\mbedtls_open\library/ecdsa.c ****         rs_ctx->ver->state = ecdsa_ver_muladd;
 528:Source\mbedtls_open\library/ecdsa.c **** 
 529:Source\mbedtls_open\library/ecdsa.c **** muladd:
 530:Source\mbedtls_open\library/ecdsa.c **** #endif
 531:Source\mbedtls_open\library/ecdsa.c ****     /*
 532:Source\mbedtls_open\library/ecdsa.c ****      * Step 5: R = u1 G + u2 Q
 533:Source\mbedtls_open\library/ecdsa.c ****      */
 534:Source\mbedtls_open\library/ecdsa.c ****     MBEDTLS_MPI_CHK( mbedtls_ecp_muladd_restartable( grp,
 748              		.loc 1 534 0
 749 00bc 2B00     		movs	r3, r5
 750 00be 2833     		adds	r3, r3, #40
 751 00c0 0022     		movs	r2, #0
 752 00c2 0292     		str	r2, [sp, #8]
 753 00c4 0196     		str	r6, [sp, #4]
 754 00c6 10AA     		add	r2, sp, #64
 755              	.LVL162:
 756 00c8 0092     		str	r2, [sp]
 757 00ca 13AA     		add	r2, sp, #76
 758              	.LVL163:
 759 00cc 07A9     		add	r1, sp, #28
 760 00ce 2800     		movs	r0, r5
 761              	.LVL164:
 762 00d0 FFF7FEFF 		bl	mbedtls_ecp_muladd_restartable
 763              	.LVL165:
 764 00d4 041E     		subs	r4, r0, #0
 765              	.LVL166:
 766 00d6 1DD1     		bne	.L38
ARM GAS  C:\Users\Phuong\AppData\Local\Temp\ccN9HylG.s 			page 24


 535:Source\mbedtls_open\library/ecdsa.c ****                      &R, pu1, &grp->G, pu2, Q, ECDSA_RS_ECP ) );
 536:Source\mbedtls_open\library/ecdsa.c **** 
 537:Source\mbedtls_open\library/ecdsa.c ****     if( mbedtls_ecp_is_zero( &R ) )
 767              		.loc 1 537 0
 768 00d8 07A8     		add	r0, sp, #28
 769              	.LVL167:
 770 00da FFF7FEFF 		bl	mbedtls_ecp_is_zero
 771              	.LVL168:
 772 00de 0028     		cmp	r0, #0
 773 00e0 15D1     		bne	.L44
 538:Source\mbedtls_open\library/ecdsa.c ****     {
 539:Source\mbedtls_open\library/ecdsa.c ****         ret = MBEDTLS_ERR_ECP_VERIFY_FAILED;
 540:Source\mbedtls_open\library/ecdsa.c ****         goto cleanup;
 541:Source\mbedtls_open\library/ecdsa.c ****     }
 542:Source\mbedtls_open\library/ecdsa.c **** 
 543:Source\mbedtls_open\library/ecdsa.c ****     /*
 544:Source\mbedtls_open\library/ecdsa.c ****      * Step 6: convert xR to an integer (no-op)
 545:Source\mbedtls_open\library/ecdsa.c ****      * Step 7: reduce xR mod n (gives v)
 546:Source\mbedtls_open\library/ecdsa.c ****      */
 547:Source\mbedtls_open\library/ecdsa.c ****     MBEDTLS_MPI_CHK( mbedtls_mpi_mod_mpi( &R.X, &R.X, &grp->N ) );
 774              		.loc 1 547 0
 775 00e2 3A00     		movs	r2, r7
 776 00e4 07A9     		add	r1, sp, #28
 777 00e6 0800     		movs	r0, r1
 778 00e8 FFF7FEFF 		bl	mbedtls_mpi_mod_mpi
 779              	.LVL169:
 780 00ec 041E     		subs	r4, r0, #0
 781              	.LVL170:
 782 00ee 11D1     		bne	.L38
 548:Source\mbedtls_open\library/ecdsa.c **** 
 549:Source\mbedtls_open\library/ecdsa.c ****     /*
 550:Source\mbedtls_open\library/ecdsa.c ****      * Step 8: check if v (that is, R.X) is equal to r
 551:Source\mbedtls_open\library/ecdsa.c ****      */
 552:Source\mbedtls_open\library/ecdsa.c ****     if( mbedtls_mpi_cmp_mpi( &R.X, r ) != 0 )
 783              		.loc 1 552 0
 784 00f0 2299     		ldr	r1, [sp, #136]
 785 00f2 07A8     		add	r0, sp, #28
 786              	.LVL171:
 787 00f4 FFF7FEFF 		bl	mbedtls_mpi_cmp_mpi
 788              	.LVL172:
 789 00f8 0028     		cmp	r0, #0
 790 00fa 0AD1     		bne	.L45
 791 00fc 0AE0     		b	.L38
 792              	.LVL173:
 793              	.L40:
 503:Source\mbedtls_open\library/ecdsa.c ****         goto cleanup;
 794              		.loc 1 503 0
 795 00fe 0F4C     		ldr	r4, .L46
 796              	.LVL174:
 797 0100 08E0     		b	.L38
 798              	.LVL175:
 799              	.L41:
 800 0102 0E4C     		ldr	r4, .L46
 801              	.LVL176:
 802 0104 06E0     		b	.L38
 803              	.LVL177:
 804              	.L42:
ARM GAS  C:\Users\Phuong\AppData\Local\Temp\ccN9HylG.s 			page 25


 805 0106 0D4C     		ldr	r4, .L46
 806              	.LVL178:
 807 0108 04E0     		b	.L38
 808              	.LVL179:
 809              	.L43:
 810 010a 0C4C     		ldr	r4, .L46
 811              	.LVL180:
 812 010c 02E0     		b	.L38
 813              	.LVL181:
 814              	.L44:
 539:Source\mbedtls_open\library/ecdsa.c ****         goto cleanup;
 815              		.loc 1 539 0
 816 010e 0B4C     		ldr	r4, .L46
 817              	.LVL182:
 818 0110 00E0     		b	.L38
 819              	.LVL183:
 820              	.L45:
 553:Source\mbedtls_open\library/ecdsa.c ****     {
 554:Source\mbedtls_open\library/ecdsa.c ****         ret = MBEDTLS_ERR_ECP_VERIFY_FAILED;
 821              		.loc 1 554 0
 822 0112 0A4C     		ldr	r4, .L46
 823              	.LVL184:
 824              	.L38:
 555:Source\mbedtls_open\library/ecdsa.c ****         goto cleanup;
 556:Source\mbedtls_open\library/ecdsa.c ****     }
 557:Source\mbedtls_open\library/ecdsa.c **** 
 558:Source\mbedtls_open\library/ecdsa.c **** cleanup:
 559:Source\mbedtls_open\library/ecdsa.c ****     mbedtls_ecp_point_free( &R );
 825              		.loc 1 559 0
 826 0114 07A8     		add	r0, sp, #28
 827 0116 FFF7FEFF 		bl	mbedtls_ecp_point_free
 828              	.LVL185:
 560:Source\mbedtls_open\library/ecdsa.c ****     mbedtls_mpi_free( &e ); mbedtls_mpi_free( &s_inv );
 829              		.loc 1 560 0
 830 011a 19A8     		add	r0, sp, #100
 831 011c FFF7FEFF 		bl	mbedtls_mpi_free
 832              	.LVL186:
 833 0120 16A8     		add	r0, sp, #88
 834 0122 FFF7FEFF 		bl	mbedtls_mpi_free
 835              	.LVL187:
 561:Source\mbedtls_open\library/ecdsa.c ****     mbedtls_mpi_free( &u1 ); mbedtls_mpi_free( &u2 );
 836              		.loc 1 561 0
 837 0126 13A8     		add	r0, sp, #76
 838              	.LVL188:
 839 0128 FFF7FEFF 		bl	mbedtls_mpi_free
 840              	.LVL189:
 841 012c 10A8     		add	r0, sp, #64
 842              	.LVL190:
 843 012e FFF7FEFF 		bl	mbedtls_mpi_free
 844              	.LVL191:
 562:Source\mbedtls_open\library/ecdsa.c **** 
 563:Source\mbedtls_open\library/ecdsa.c ****     ECDSA_RS_LEAVE( ver );
 564:Source\mbedtls_open\library/ecdsa.c **** 
 565:Source\mbedtls_open\library/ecdsa.c ****     return( ret );
 845              		.loc 1 565 0
 846 0132 2000     		movs	r0, r4
 847 0134 00E0     		b	.L37
ARM GAS  C:\Users\Phuong\AppData\Local\Temp\ccN9HylG.s 			page 26


 848              	.LVL192:
 849              	.L39:
 480:Source\mbedtls_open\library/ecdsa.c **** 
 850              		.loc 1 480 0
 851 0136 0248     		ldr	r0, .L46+4
 852              	.LVL193:
 853              	.L37:
 566:Source\mbedtls_open\library/ecdsa.c **** }
 854              		.loc 1 566 0
 855 0138 1DB0     		add	sp, sp, #116
 856              		@ sp needed
 857              	.LVL194:
 858              	.LVL195:
 859 013a F0BD     		pop	{r4, r5, r6, r7, pc}
 860              	.L47:
 861              		.align	2
 862              	.L46:
 863 013c 00B2FFFF 		.word	-19968
 864 0140 80B0FFFF 		.word	-20352
 865              		.cfi_endproc
 866              	.LFE6:
 867              		.size	ecdsa_verify_restartable, .-ecdsa_verify_restartable
 868              		.section	.text.ecdsa_signature_to_asn1,"ax",%progbits
 869              		.align	2
 870              		.code	16
 871              		.thumb_func
 872              		.type	ecdsa_signature_to_asn1, %function
 873              	ecdsa_signature_to_asn1:
 874              	.LFB8:
 567:Source\mbedtls_open\library/ecdsa.c **** #endif /* MBEDTLS_ECDSA_VERIFY_ALT */
 568:Source\mbedtls_open\library/ecdsa.c **** 
 569:Source\mbedtls_open\library/ecdsa.c **** /*
 570:Source\mbedtls_open\library/ecdsa.c ****  * Verify ECDSA signature of hashed message
 571:Source\mbedtls_open\library/ecdsa.c ****  */
 572:Source\mbedtls_open\library/ecdsa.c **** int mbedtls_ecdsa_verify( mbedtls_ecp_group *grp,
 573:Source\mbedtls_open\library/ecdsa.c ****                   const unsigned char *buf, size_t blen,
 574:Source\mbedtls_open\library/ecdsa.c ****                   const mbedtls_ecp_point *Q, const mbedtls_mpi *r, const mbedtls_mpi *s)
 575:Source\mbedtls_open\library/ecdsa.c **** {
 576:Source\mbedtls_open\library/ecdsa.c ****     return( ecdsa_verify_restartable( grp, buf, blen, Q, r, s, NULL ) );
 577:Source\mbedtls_open\library/ecdsa.c **** }
 578:Source\mbedtls_open\library/ecdsa.c **** 
 579:Source\mbedtls_open\library/ecdsa.c **** /*
 580:Source\mbedtls_open\library/ecdsa.c ****  * Convert a signature (given by context) to ASN.1
 581:Source\mbedtls_open\library/ecdsa.c ****  */
 582:Source\mbedtls_open\library/ecdsa.c **** static int ecdsa_signature_to_asn1( const mbedtls_mpi *r, const mbedtls_mpi *s,
 583:Source\mbedtls_open\library/ecdsa.c ****                                     unsigned char *sig, size_t *slen )
 584:Source\mbedtls_open\library/ecdsa.c **** {
 875              		.loc 1 584 0
 876              		.cfi_startproc
 877              		@ args = 0, pretend = 0, frame = 152
 878              		@ frame_needed = 0, uses_anonymous_args = 0
 879              	.LVL196:
 880 0000 F0B5     		push	{r4, r5, r6, r7, lr}
 881              		.cfi_def_cfa_offset 20
 882              		.cfi_offset 4, -20
 883              		.cfi_offset 5, -16
 884              		.cfi_offset 6, -12
ARM GAS  C:\Users\Phuong\AppData\Local\Temp\ccN9HylG.s 			page 27


 885              		.cfi_offset 7, -8
 886              		.cfi_offset 14, -4
 887 0002 A7B0     		sub	sp, sp, #156
 888              		.cfi_def_cfa_offset 176
 889 0004 0700     		movs	r7, r0
 890 0006 1600     		movs	r6, r2
 891 0008 1D00     		movs	r5, r3
 585:Source\mbedtls_open\library/ecdsa.c ****     int ret;
 586:Source\mbedtls_open\library/ecdsa.c ****     unsigned char buf[MBEDTLS_ECDSA_MAX_LEN];
 587:Source\mbedtls_open\library/ecdsa.c ****     unsigned char *p = buf + sizeof( buf );
 892              		.loc 1 587 0
 893 000a 9523     		movs	r3, #149
 894              	.LVL197:
 895 000c 6B44     		add	r3, r3, sp
 896 000e 0193     		str	r3, [sp, #4]
 897              	.LVL198:
 588:Source\mbedtls_open\library/ecdsa.c ****     size_t len = 0;
 589:Source\mbedtls_open\library/ecdsa.c **** 
 590:Source\mbedtls_open\library/ecdsa.c ****     MBEDTLS_ASN1_CHK_ADD( len, mbedtls_asn1_write_mpi( &p, buf, s ) );
 898              		.loc 1 590 0
 899 0010 0A00     		movs	r2, r1
 900              	.LVL199:
 901 0012 02A9     		add	r1, sp, #8
 902              	.LVL200:
 903 0014 01A8     		add	r0, sp, #4
 904              	.LVL201:
 905 0016 FFF7FEFF 		bl	mbedtls_asn1_write_mpi
 906              	.LVL202:
 907 001a 041E     		subs	r4, r0, #0
 908              	.LVL203:
 909 001c 1FDB     		blt	.L50
 910              	.LVL204:
 591:Source\mbedtls_open\library/ecdsa.c ****     MBEDTLS_ASN1_CHK_ADD( len, mbedtls_asn1_write_mpi( &p, buf, r ) );
 911              		.loc 1 591 0 discriminator 2
 912 001e 3A00     		movs	r2, r7
 913 0020 02A9     		add	r1, sp, #8
 914 0022 01A8     		add	r0, sp, #4
 915              	.LVL205:
 916 0024 FFF7FEFF 		bl	mbedtls_asn1_write_mpi
 917              	.LVL206:
 918 0028 0028     		cmp	r0, #0
 919 002a 18DB     		blt	.L49
 920 002c 0419     		adds	r4, r0, r4
 921              	.LVL207:
 592:Source\mbedtls_open\library/ecdsa.c **** 
 593:Source\mbedtls_open\library/ecdsa.c ****     MBEDTLS_ASN1_CHK_ADD( len, mbedtls_asn1_write_len( &p, buf, len ) );
 922              		.loc 1 593 0 discriminator 2
 923 002e 2200     		movs	r2, r4
 924 0030 02A9     		add	r1, sp, #8
 925 0032 01A8     		add	r0, sp, #4
 926              	.LVL208:
 927 0034 FFF7FEFF 		bl	mbedtls_asn1_write_len
 928              	.LVL209:
 929 0038 0028     		cmp	r0, #0
 930 003a 10DB     		blt	.L49
 931 003c 0419     		adds	r4, r0, r4
 932              	.LVL210:
ARM GAS  C:\Users\Phuong\AppData\Local\Temp\ccN9HylG.s 			page 28


 594:Source\mbedtls_open\library/ecdsa.c ****     MBEDTLS_ASN1_CHK_ADD( len, mbedtls_asn1_write_tag( &p, buf,
 933              		.loc 1 594 0 discriminator 2
 934 003e 3022     		movs	r2, #48
 935 0040 02A9     		add	r1, sp, #8
 936 0042 01A8     		add	r0, sp, #4
 937              	.LVL211:
 938 0044 FFF7FEFF 		bl	mbedtls_asn1_write_tag
 939              	.LVL212:
 940 0048 0028     		cmp	r0, #0
 941 004a 08DB     		blt	.L49
 942 004c 0419     		adds	r4, r0, r4
 943              	.LVL213:
 595:Source\mbedtls_open\library/ecdsa.c ****                                        MBEDTLS_ASN1_CONSTRUCTED | MBEDTLS_ASN1_SEQUENCE ) );
 596:Source\mbedtls_open\library/ecdsa.c **** 
 597:Source\mbedtls_open\library/ecdsa.c ****     memcpy( sig, p, len );
 944              		.loc 1 597 0 discriminator 2
 945 004e 2200     		movs	r2, r4
 946 0050 0199     		ldr	r1, [sp, #4]
 947 0052 3000     		movs	r0, r6
 948              	.LVL214:
 949 0054 FFF7FEFF 		bl	memcpy
 950              	.LVL215:
 598:Source\mbedtls_open\library/ecdsa.c ****     *slen = len;
 951              		.loc 1 598 0 discriminator 2
 952 0058 2C60     		str	r4, [r5]
 599:Source\mbedtls_open\library/ecdsa.c **** 
 600:Source\mbedtls_open\library/ecdsa.c ****     return( 0 );
 953              		.loc 1 600 0 discriminator 2
 954 005a 0020     		movs	r0, #0
 955 005c FFE7     		b	.L49
 956              	.LVL216:
 957              	.L50:
 958              	.L49:
 601:Source\mbedtls_open\library/ecdsa.c **** }
 959              		.loc 1 601 0
 960 005e 27B0     		add	sp, sp, #156
 961              		@ sp needed
 962              	.LVL217:
 963              	.LVL218:
 964              	.LVL219:
 965 0060 F0BD     		pop	{r4, r5, r6, r7, pc}
 966              		.cfi_endproc
 967              	.LFE8:
 968              		.size	ecdsa_signature_to_asn1, .-ecdsa_signature_to_asn1
 969 0062 C046     		.section	.text.mbedtls_ecdsa_sign,"ax",%progbits
 970              		.align	2
 971              		.global	mbedtls_ecdsa_sign
 972              		.code	16
 973              		.thumb_func
 974              		.type	mbedtls_ecdsa_sign, %function
 975              	mbedtls_ecdsa_sign:
 976              	.LFB3:
 380:Source\mbedtls_open\library/ecdsa.c ****     return( ecdsa_sign_restartable( grp, r, s, d, buf, blen,
 977              		.loc 1 380 0
 978              		.cfi_startproc
 979              		@ args = 16, pretend = 0, frame = 0
 980              		@ frame_needed = 0, uses_anonymous_args = 0
ARM GAS  C:\Users\Phuong\AppData\Local\Temp\ccN9HylG.s 			page 29


 981              	.LVL220:
 982 0000 10B5     		push	{r4, lr}
 983              		.cfi_def_cfa_offset 8
 984              		.cfi_offset 4, -8
 985              		.cfi_offset 14, -4
 986 0002 86B0     		sub	sp, sp, #24
 987              		.cfi_def_cfa_offset 32
 381:Source\mbedtls_open\library/ecdsa.c ****                                     f_rng, p_rng, NULL ) );
 988              		.loc 1 381 0
 989 0004 0024     		movs	r4, #0
 990 0006 0494     		str	r4, [sp, #16]
 991 0008 0B9C     		ldr	r4, [sp, #44]
 992 000a 0394     		str	r4, [sp, #12]
 993 000c 0A9C     		ldr	r4, [sp, #40]
 994 000e 0294     		str	r4, [sp, #8]
 995 0010 099C     		ldr	r4, [sp, #36]
 996 0012 0194     		str	r4, [sp, #4]
 997 0014 089C     		ldr	r4, [sp, #32]
 998 0016 0094     		str	r4, [sp]
 999 0018 FFF7FEFF 		bl	ecdsa_sign_restartable
 1000              	.LVL221:
 383:Source\mbedtls_open\library/ecdsa.c **** 
 1001              		.loc 1 383 0
 1002 001c 06B0     		add	sp, sp, #24
 1003              		@ sp needed
 1004 001e 10BD     		pop	{r4, pc}
 1005              		.cfi_endproc
 1006              	.LFE3:
 1007              		.size	mbedtls_ecdsa_sign, .-mbedtls_ecdsa_sign
 1008              		.section	.text.mbedtls_ecdsa_sign_det,"ax",%progbits
 1009              		.align	2
 1010              		.global	mbedtls_ecdsa_sign_det
 1011              		.code	16
 1012              		.thumb_func
 1013              		.type	mbedtls_ecdsa_sign_det, %function
 1014              	mbedtls_ecdsa_sign_det:
 1015              	.LFB5:
 453:Source\mbedtls_open\library/ecdsa.c ****     return( ecdsa_sign_det_restartable( grp, r, s, d, buf, blen, md_alg, NULL ) );
 1016              		.loc 1 453 0
 1017              		.cfi_startproc
 1018              		@ args = 12, pretend = 0, frame = 0
 1019              		@ frame_needed = 0, uses_anonymous_args = 0
 1020              	.LVL222:
 1021 0000 30B5     		push	{r4, r5, lr}
 1022              		.cfi_def_cfa_offset 12
 1023              		.cfi_offset 4, -12
 1024              		.cfi_offset 5, -8
 1025              		.cfi_offset 14, -4
 1026 0002 85B0     		sub	sp, sp, #20
 1027              		.cfi_def_cfa_offset 32
 1028 0004 0AAC     		add	r4, sp, #40
 1029              	.LVL223:
 1030 0006 2478     		ldrb	r4, [r4]
 1031              	.LVL224:
 454:Source\mbedtls_open\library/ecdsa.c **** }
 1032              		.loc 1 454 0
 1033 0008 0025     		movs	r5, #0
ARM GAS  C:\Users\Phuong\AppData\Local\Temp\ccN9HylG.s 			page 30


 1034 000a 0395     		str	r5, [sp, #12]
 1035 000c 0294     		str	r4, [sp, #8]
 1036 000e 099C     		ldr	r4, [sp, #36]
 1037 0010 0194     		str	r4, [sp, #4]
 1038 0012 089C     		ldr	r4, [sp, #32]
 1039 0014 0094     		str	r4, [sp]
 1040 0016 FFF7FEFF 		bl	ecdsa_sign_det_restartable
 1041              	.LVL225:
 455:Source\mbedtls_open\library/ecdsa.c **** #endif /* MBEDTLS_ECDSA_DETERMINISTIC */
 1042              		.loc 1 455 0
 1043 001a 05B0     		add	sp, sp, #20
 1044              		@ sp needed
 1045 001c 30BD     		pop	{r4, r5, pc}
 1046              		.cfi_endproc
 1047              	.LFE5:
 1048              		.size	mbedtls_ecdsa_sign_det, .-mbedtls_ecdsa_sign_det
 1049 001e C046     		.section	.text.mbedtls_ecdsa_verify,"ax",%progbits
 1050              		.align	2
 1051              		.global	mbedtls_ecdsa_verify
 1052              		.code	16
 1053              		.thumb_func
 1054              		.type	mbedtls_ecdsa_verify, %function
 1055              	mbedtls_ecdsa_verify:
 1056              	.LFB7:
 575:Source\mbedtls_open\library/ecdsa.c ****     return( ecdsa_verify_restartable( grp, buf, blen, Q, r, s, NULL ) );
 1057              		.loc 1 575 0
 1058              		.cfi_startproc
 1059              		@ args = 8, pretend = 0, frame = 0
 1060              		@ frame_needed = 0, uses_anonymous_args = 0
 1061              	.LVL226:
 1062 0000 10B5     		push	{r4, lr}
 1063              		.cfi_def_cfa_offset 8
 1064              		.cfi_offset 4, -8
 1065              		.cfi_offset 14, -4
 1066 0002 84B0     		sub	sp, sp, #16
 1067              		.cfi_def_cfa_offset 24
 576:Source\mbedtls_open\library/ecdsa.c **** }
 1068              		.loc 1 576 0
 1069 0004 0024     		movs	r4, #0
 1070 0006 0294     		str	r4, [sp, #8]
 1071 0008 079C     		ldr	r4, [sp, #28]
 1072 000a 0194     		str	r4, [sp, #4]
 1073 000c 069C     		ldr	r4, [sp, #24]
 1074 000e 0094     		str	r4, [sp]
 1075 0010 FFF7FEFF 		bl	ecdsa_verify_restartable
 1076              	.LVL227:
 577:Source\mbedtls_open\library/ecdsa.c **** 
 1077              		.loc 1 577 0
 1078 0014 04B0     		add	sp, sp, #16
 1079              		@ sp needed
 1080 0016 10BD     		pop	{r4, pc}
 1081              		.cfi_endproc
 1082              	.LFE7:
 1083              		.size	mbedtls_ecdsa_verify, .-mbedtls_ecdsa_verify
 1084              		.section	.text.mbedtls_ecdsa_write_signature_restartable,"ax",%progbits
 1085              		.align	2
 1086              		.global	mbedtls_ecdsa_write_signature_restartable
ARM GAS  C:\Users\Phuong\AppData\Local\Temp\ccN9HylG.s 			page 31


 1087              		.code	16
 1088              		.thumb_func
 1089              		.type	mbedtls_ecdsa_write_signature_restartable, %function
 1090              	mbedtls_ecdsa_write_signature_restartable:
 1091              	.LFB9:
 602:Source\mbedtls_open\library/ecdsa.c **** 
 603:Source\mbedtls_open\library/ecdsa.c **** /*
 604:Source\mbedtls_open\library/ecdsa.c ****  * Compute and write signature
 605:Source\mbedtls_open\library/ecdsa.c ****  */
 606:Source\mbedtls_open\library/ecdsa.c **** int mbedtls_ecdsa_write_signature_restartable( mbedtls_ecdsa_context *ctx,
 607:Source\mbedtls_open\library/ecdsa.c ****                            mbedtls_md_type_t md_alg,
 608:Source\mbedtls_open\library/ecdsa.c ****                            const unsigned char *hash, size_t hlen,
 609:Source\mbedtls_open\library/ecdsa.c ****                            unsigned char *sig, size_t *slen,
 610:Source\mbedtls_open\library/ecdsa.c ****                            int (*f_rng)(void *, unsigned char *, size_t),
 611:Source\mbedtls_open\library/ecdsa.c ****                            void *p_rng,
 612:Source\mbedtls_open\library/ecdsa.c ****                            mbedtls_ecdsa_restart_ctx *rs_ctx )
 613:Source\mbedtls_open\library/ecdsa.c **** {
 1092              		.loc 1 613 0
 1093              		.cfi_startproc
 1094              		@ args = 20, pretend = 0, frame = 24
 1095              		@ frame_needed = 0, uses_anonymous_args = 0
 1096              	.LVL228:
 1097 0000 F0B5     		push	{r4, r5, r6, r7, lr}
 1098              		.cfi_def_cfa_offset 20
 1099              		.cfi_offset 4, -20
 1100              		.cfi_offset 5, -16
 1101              		.cfi_offset 6, -12
 1102              		.cfi_offset 7, -8
 1103              		.cfi_offset 14, -4
 1104 0002 8BB0     		sub	sp, sp, #44
 1105              		.cfi_def_cfa_offset 64
 1106 0004 0400     		movs	r4, r0
 1107 0006 0F00     		movs	r7, r1
 1108 0008 1500     		movs	r5, r2
 1109 000a 1E00     		movs	r6, r3
 614:Source\mbedtls_open\library/ecdsa.c ****     int ret;
 615:Source\mbedtls_open\library/ecdsa.c ****     mbedtls_mpi r, s;
 616:Source\mbedtls_open\library/ecdsa.c **** 
 617:Source\mbedtls_open\library/ecdsa.c ****     mbedtls_mpi_init( &r );
 1110              		.loc 1 617 0
 1111 000c 07A8     		add	r0, sp, #28
 1112              	.LVL229:
 1113 000e FFF7FEFF 		bl	mbedtls_mpi_init
 1114              	.LVL230:
 618:Source\mbedtls_open\library/ecdsa.c ****     mbedtls_mpi_init( &s );
 1115              		.loc 1 618 0
 1116 0012 04A8     		add	r0, sp, #16
 1117 0014 FFF7FEFF 		bl	mbedtls_mpi_init
 1118              	.LVL231:
 619:Source\mbedtls_open\library/ecdsa.c **** 
 620:Source\mbedtls_open\library/ecdsa.c **** #if defined(MBEDTLS_ECDSA_DETERMINISTIC)
 621:Source\mbedtls_open\library/ecdsa.c ****     (void) f_rng;
 622:Source\mbedtls_open\library/ecdsa.c ****     (void) p_rng;
 623:Source\mbedtls_open\library/ecdsa.c **** 
 624:Source\mbedtls_open\library/ecdsa.c ****     MBEDTLS_MPI_CHK( ecdsa_sign_det_restartable( &ctx->grp, &r, &s, &ctx->d,
 1119              		.loc 1 624 0
 1120 0018 2300     		movs	r3, r4
ARM GAS  C:\Users\Phuong\AppData\Local\Temp\ccN9HylG.s 			page 32


 1121 001a 7C33     		adds	r3, r3, #124
 1122 001c 149A     		ldr	r2, [sp, #80]
 1123 001e 0392     		str	r2, [sp, #12]
 1124 0020 0297     		str	r7, [sp, #8]
 1125 0022 0196     		str	r6, [sp, #4]
 1126 0024 0095     		str	r5, [sp]
 1127 0026 04AA     		add	r2, sp, #16
 1128 0028 07A9     		add	r1, sp, #28
 1129 002a 2000     		movs	r0, r4
 1130 002c FFF7FEFF 		bl	ecdsa_sign_det_restartable
 1131              	.LVL232:
 1132 0030 041E     		subs	r4, r0, #0
 1133              	.LVL233:
 1134 0032 06D1     		bne	.L58
 625:Source\mbedtls_open\library/ecdsa.c ****                              hash, hlen, md_alg, rs_ctx ) );
 626:Source\mbedtls_open\library/ecdsa.c **** #else
 627:Source\mbedtls_open\library/ecdsa.c ****     (void) md_alg;
 628:Source\mbedtls_open\library/ecdsa.c **** 
 629:Source\mbedtls_open\library/ecdsa.c ****     MBEDTLS_MPI_CHK( ecdsa_sign_restartable( &ctx->grp, &r, &s, &ctx->d,
 630:Source\mbedtls_open\library/ecdsa.c ****                          hash, hlen, f_rng, p_rng, rs_ctx ) );
 631:Source\mbedtls_open\library/ecdsa.c **** #endif
 632:Source\mbedtls_open\library/ecdsa.c **** 
 633:Source\mbedtls_open\library/ecdsa.c ****     MBEDTLS_MPI_CHK( ecdsa_signature_to_asn1( &r, &s, sig, slen ) );
 1135              		.loc 1 633 0
 1136 0034 119B     		ldr	r3, [sp, #68]
 1137 0036 109A     		ldr	r2, [sp, #64]
 1138 0038 04A9     		add	r1, sp, #16
 1139 003a 07A8     		add	r0, sp, #28
 1140              	.LVL234:
 1141 003c FFF7FEFF 		bl	ecdsa_signature_to_asn1
 1142              	.LVL235:
 1143 0040 0400     		movs	r4, r0
 1144              	.LVL236:
 1145              	.L58:
 634:Source\mbedtls_open\library/ecdsa.c **** 
 635:Source\mbedtls_open\library/ecdsa.c **** cleanup:
 636:Source\mbedtls_open\library/ecdsa.c ****     mbedtls_mpi_free( &r );
 1146              		.loc 1 636 0
 1147 0042 07A8     		add	r0, sp, #28
 1148              	.LVL237:
 1149 0044 FFF7FEFF 		bl	mbedtls_mpi_free
 1150              	.LVL238:
 637:Source\mbedtls_open\library/ecdsa.c ****     mbedtls_mpi_free( &s );
 1151              		.loc 1 637 0
 1152 0048 04A8     		add	r0, sp, #16
 1153 004a FFF7FEFF 		bl	mbedtls_mpi_free
 1154              	.LVL239:
 638:Source\mbedtls_open\library/ecdsa.c **** 
 639:Source\mbedtls_open\library/ecdsa.c ****     return( ret );
 640:Source\mbedtls_open\library/ecdsa.c **** }
 1155              		.loc 1 640 0
 1156 004e 2000     		movs	r0, r4
 1157 0050 0BB0     		add	sp, sp, #44
 1158              		@ sp needed
 1159              	.LVL240:
 1160              	.LVL241:
 1161              	.LVL242:
ARM GAS  C:\Users\Phuong\AppData\Local\Temp\ccN9HylG.s 			page 33


 1162 0052 F0BD     		pop	{r4, r5, r6, r7, pc}
 1163              		.cfi_endproc
 1164              	.LFE9:
 1165              		.size	mbedtls_ecdsa_write_signature_restartable, .-mbedtls_ecdsa_write_signature_restartable
 1166              		.section	.text.mbedtls_ecdsa_write_signature,"ax",%progbits
 1167              		.align	2
 1168              		.global	mbedtls_ecdsa_write_signature
 1169              		.code	16
 1170              		.thumb_func
 1171              		.type	mbedtls_ecdsa_write_signature, %function
 1172              	mbedtls_ecdsa_write_signature:
 1173              	.LFB10:
 641:Source\mbedtls_open\library/ecdsa.c **** 
 642:Source\mbedtls_open\library/ecdsa.c **** /*
 643:Source\mbedtls_open\library/ecdsa.c ****  * Compute and write signature
 644:Source\mbedtls_open\library/ecdsa.c ****  */
 645:Source\mbedtls_open\library/ecdsa.c **** int mbedtls_ecdsa_write_signature( mbedtls_ecdsa_context *ctx, mbedtls_md_type_t md_alg,
 646:Source\mbedtls_open\library/ecdsa.c ****                            const unsigned char *hash, size_t hlen,
 647:Source\mbedtls_open\library/ecdsa.c ****                            unsigned char *sig, size_t *slen,
 648:Source\mbedtls_open\library/ecdsa.c ****                            int (*f_rng)(void *, unsigned char *, size_t),
 649:Source\mbedtls_open\library/ecdsa.c ****                            void *p_rng )
 650:Source\mbedtls_open\library/ecdsa.c **** {
 1174              		.loc 1 650 0
 1175              		.cfi_startproc
 1176              		@ args = 16, pretend = 0, frame = 0
 1177              		@ frame_needed = 0, uses_anonymous_args = 0
 1178              	.LVL243:
 1179 0000 10B5     		push	{r4, lr}
 1180              		.cfi_def_cfa_offset 8
 1181              		.cfi_offset 4, -8
 1182              		.cfi_offset 14, -4
 1183 0002 86B0     		sub	sp, sp, #24
 1184              		.cfi_def_cfa_offset 32
 651:Source\mbedtls_open\library/ecdsa.c ****     return( mbedtls_ecdsa_write_signature_restartable(
 1185              		.loc 1 651 0
 1186 0004 0024     		movs	r4, #0
 1187 0006 0494     		str	r4, [sp, #16]
 1188 0008 0B9C     		ldr	r4, [sp, #44]
 1189 000a 0394     		str	r4, [sp, #12]
 1190 000c 0A9C     		ldr	r4, [sp, #40]
 1191 000e 0294     		str	r4, [sp, #8]
 1192 0010 099C     		ldr	r4, [sp, #36]
 1193 0012 0194     		str	r4, [sp, #4]
 1194 0014 089C     		ldr	r4, [sp, #32]
 1195 0016 0094     		str	r4, [sp]
 1196 0018 FFF7FEFF 		bl	mbedtls_ecdsa_write_signature_restartable
 1197              	.LVL244:
 652:Source\mbedtls_open\library/ecdsa.c ****                 ctx, md_alg, hash, hlen, sig, slen, f_rng, p_rng, NULL ) );
 653:Source\mbedtls_open\library/ecdsa.c **** }
 1198              		.loc 1 653 0
 1199 001c 06B0     		add	sp, sp, #24
 1200              		@ sp needed
 1201 001e 10BD     		pop	{r4, pc}
 1202              		.cfi_endproc
 1203              	.LFE10:
 1204              		.size	mbedtls_ecdsa_write_signature, .-mbedtls_ecdsa_write_signature
 1205              		.section	.text.mbedtls_ecdsa_write_signature_det,"ax",%progbits
ARM GAS  C:\Users\Phuong\AppData\Local\Temp\ccN9HylG.s 			page 34


 1206              		.align	2
 1207              		.global	mbedtls_ecdsa_write_signature_det
 1208              		.code	16
 1209              		.thumb_func
 1210              		.type	mbedtls_ecdsa_write_signature_det, %function
 1211              	mbedtls_ecdsa_write_signature_det:
 1212              	.LFB11:
 654:Source\mbedtls_open\library/ecdsa.c **** 
 655:Source\mbedtls_open\library/ecdsa.c **** #if ! defined(MBEDTLS_DEPRECATED_REMOVED) && \
 656:Source\mbedtls_open\library/ecdsa.c ****     defined(MBEDTLS_ECDSA_DETERMINISTIC)
 657:Source\mbedtls_open\library/ecdsa.c **** int mbedtls_ecdsa_write_signature_det( mbedtls_ecdsa_context *ctx,
 658:Source\mbedtls_open\library/ecdsa.c ****                                const unsigned char *hash, size_t hlen,
 659:Source\mbedtls_open\library/ecdsa.c ****                                unsigned char *sig, size_t *slen,
 660:Source\mbedtls_open\library/ecdsa.c ****                                mbedtls_md_type_t md_alg )
 661:Source\mbedtls_open\library/ecdsa.c **** {
 1213              		.loc 1 661 0
 1214              		.cfi_startproc
 1215              		@ args = 8, pretend = 0, frame = 0
 1216              		@ frame_needed = 0, uses_anonymous_args = 0
 1217              	.LVL245:
 1218 0000 70B5     		push	{r4, r5, r6, lr}
 1219              		.cfi_def_cfa_offset 16
 1220              		.cfi_offset 4, -16
 1221              		.cfi_offset 5, -12
 1222              		.cfi_offset 6, -8
 1223              		.cfi_offset 14, -4
 1224 0002 84B0     		sub	sp, sp, #16
 1225              		.cfi_def_cfa_offset 32
 1226 0004 0D00     		movs	r5, r1
 1227 0006 08AC     		add	r4, sp, #32
 1228              	.LVL246:
 1229 0008 40CC     		ldmia	r4!, {r6}
 1230              	.LVL247:
 1231 000a 2178     		ldrb	r1, [r4]
 1232              	.LVL248:
 662:Source\mbedtls_open\library/ecdsa.c ****     return( mbedtls_ecdsa_write_signature( ctx, md_alg, hash, hlen, sig, slen,
 1233              		.loc 1 662 0
 1234 000c 0024     		movs	r4, #0
 1235              	.LVL249:
 1236 000e 0394     		str	r4, [sp, #12]
 1237 0010 0294     		str	r4, [sp, #8]
 1238 0012 0196     		str	r6, [sp, #4]
 1239 0014 0093     		str	r3, [sp]
 1240 0016 1300     		movs	r3, r2
 1241              	.LVL250:
 1242 0018 2A00     		movs	r2, r5
 1243              	.LVL251:
 1244 001a FFF7FEFF 		bl	mbedtls_ecdsa_write_signature
 1245              	.LVL252:
 663:Source\mbedtls_open\library/ecdsa.c ****                                    NULL, NULL ) );
 664:Source\mbedtls_open\library/ecdsa.c **** }
 1246              		.loc 1 664 0
 1247 001e 04B0     		add	sp, sp, #16
 1248              		@ sp needed
 1249              	.LVL253:
 1250 0020 70BD     		pop	{r4, r5, r6, pc}
 1251              		.cfi_endproc
ARM GAS  C:\Users\Phuong\AppData\Local\Temp\ccN9HylG.s 			page 35


 1252              	.LFE11:
 1253              		.size	mbedtls_ecdsa_write_signature_det, .-mbedtls_ecdsa_write_signature_det
 1254 0022 C046     		.section	.text.mbedtls_ecdsa_read_signature_restartable,"ax",%progbits
 1255              		.align	2
 1256              		.global	mbedtls_ecdsa_read_signature_restartable
 1257              		.code	16
 1258              		.thumb_func
 1259              		.type	mbedtls_ecdsa_read_signature_restartable, %function
 1260              	mbedtls_ecdsa_read_signature_restartable:
 1261              	.LFB13:
 665:Source\mbedtls_open\library/ecdsa.c **** #endif
 666:Source\mbedtls_open\library/ecdsa.c **** 
 667:Source\mbedtls_open\library/ecdsa.c **** /*
 668:Source\mbedtls_open\library/ecdsa.c ****  * Read and check signature
 669:Source\mbedtls_open\library/ecdsa.c ****  */
 670:Source\mbedtls_open\library/ecdsa.c **** int mbedtls_ecdsa_read_signature( mbedtls_ecdsa_context *ctx,
 671:Source\mbedtls_open\library/ecdsa.c ****                           const unsigned char *hash, size_t hlen,
 672:Source\mbedtls_open\library/ecdsa.c ****                           const unsigned char *sig, size_t slen )
 673:Source\mbedtls_open\library/ecdsa.c **** {
 674:Source\mbedtls_open\library/ecdsa.c ****     return( mbedtls_ecdsa_read_signature_restartable(
 675:Source\mbedtls_open\library/ecdsa.c ****                 ctx, hash, hlen, sig, slen, NULL ) );
 676:Source\mbedtls_open\library/ecdsa.c **** }
 677:Source\mbedtls_open\library/ecdsa.c **** 
 678:Source\mbedtls_open\library/ecdsa.c **** /*
 679:Source\mbedtls_open\library/ecdsa.c ****  * Restartable read and check signature
 680:Source\mbedtls_open\library/ecdsa.c ****  */
 681:Source\mbedtls_open\library/ecdsa.c **** int mbedtls_ecdsa_read_signature_restartable( mbedtls_ecdsa_context *ctx,
 682:Source\mbedtls_open\library/ecdsa.c ****                           const unsigned char *hash, size_t hlen,
 683:Source\mbedtls_open\library/ecdsa.c ****                           const unsigned char *sig, size_t slen,
 684:Source\mbedtls_open\library/ecdsa.c ****                           mbedtls_ecdsa_restart_ctx *rs_ctx )
 685:Source\mbedtls_open\library/ecdsa.c **** {
 1262              		.loc 1 685 0
 1263              		.cfi_startproc
 1264              		@ args = 8, pretend = 0, frame = 32
 1265              		@ frame_needed = 0, uses_anonymous_args = 0
 1266              	.LVL254:
 1267 0000 F0B5     		push	{r4, r5, r6, r7, lr}
 1268              		.cfi_def_cfa_offset 20
 1269              		.cfi_offset 4, -20
 1270              		.cfi_offset 5, -16
 1271              		.cfi_offset 6, -12
 1272              		.cfi_offset 7, -8
 1273              		.cfi_offset 14, -4
 1274 0002 8DB0     		sub	sp, sp, #52
 1275              		.cfi_def_cfa_offset 72
 1276 0004 0500     		movs	r5, r0
 1277 0006 0C00     		movs	r4, r1
 1278 0008 1700     		movs	r7, r2
 686:Source\mbedtls_open\library/ecdsa.c ****     int ret;
 687:Source\mbedtls_open\library/ecdsa.c ****     unsigned char *p = (unsigned char *) sig;
 1279              		.loc 1 687 0
 1280 000a 0B93     		str	r3, [sp, #44]
 688:Source\mbedtls_open\library/ecdsa.c ****     const unsigned char *end = sig + slen;
 1281              		.loc 1 688 0
 1282 000c 129A     		ldr	r2, [sp, #72]
 1283              	.LVL255:
 1284 000e 9E18     		adds	r6, r3, r2
ARM GAS  C:\Users\Phuong\AppData\Local\Temp\ccN9HylG.s 			page 36


 1285              	.LVL256:
 689:Source\mbedtls_open\library/ecdsa.c ****     size_t len;
 690:Source\mbedtls_open\library/ecdsa.c ****     mbedtls_mpi r, s;
 691:Source\mbedtls_open\library/ecdsa.c **** 
 692:Source\mbedtls_open\library/ecdsa.c ****     mbedtls_mpi_init( &r );
 1286              		.loc 1 692 0
 1287 0010 07A8     		add	r0, sp, #28
 1288              	.LVL257:
 1289 0012 FFF7FEFF 		bl	mbedtls_mpi_init
 1290              	.LVL258:
 693:Source\mbedtls_open\library/ecdsa.c ****     mbedtls_mpi_init( &s );
 1291              		.loc 1 693 0
 1292 0016 04A8     		add	r0, sp, #16
 1293 0018 FFF7FEFF 		bl	mbedtls_mpi_init
 1294              	.LVL259:
 694:Source\mbedtls_open\library/ecdsa.c **** 
 695:Source\mbedtls_open\library/ecdsa.c ****     if( ( ret = mbedtls_asn1_get_tag( &p, end, &len,
 1295              		.loc 1 695 0
 1296 001c 3023     		movs	r3, #48
 1297 001e 0AAA     		add	r2, sp, #40
 1298 0020 3100     		movs	r1, r6
 1299 0022 0BA8     		add	r0, sp, #44
 1300 0024 FFF7FEFF 		bl	mbedtls_asn1_get_tag
 1301              	.LVL260:
 1302 0028 0028     		cmp	r0, #0
 1303 002a 02D0     		beq	.L62
 696:Source\mbedtls_open\library/ecdsa.c ****                     MBEDTLS_ASN1_CONSTRUCTED | MBEDTLS_ASN1_SEQUENCE ) ) != 0 )
 697:Source\mbedtls_open\library/ecdsa.c ****     {
 698:Source\mbedtls_open\library/ecdsa.c ****         ret += MBEDTLS_ERR_ECP_BAD_INPUT_DATA;
 1304              		.loc 1 698 0
 1305 002c 1C4B     		ldr	r3, .L68
 1306 002e C418     		adds	r4, r0, r3
 1307              	.LVL261:
 699:Source\mbedtls_open\library/ecdsa.c ****         goto cleanup;
 1308              		.loc 1 699 0
 1309 0030 2CE0     		b	.L63
 1310              	.LVL262:
 1311              	.L62:
 700:Source\mbedtls_open\library/ecdsa.c ****     }
 701:Source\mbedtls_open\library/ecdsa.c **** 
 702:Source\mbedtls_open\library/ecdsa.c ****     if( p + len != end )
 1312              		.loc 1 702 0
 1313 0032 0B9B     		ldr	r3, [sp, #44]
 1314 0034 0A9A     		ldr	r2, [sp, #40]
 1315 0036 9446     		mov	ip, r2
 1316 0038 6344     		add	r3, r3, ip
 1317 003a 9E42     		cmp	r6, r3
 1318 003c 23D1     		bne	.L66
 703:Source\mbedtls_open\library/ecdsa.c ****     {
 704:Source\mbedtls_open\library/ecdsa.c ****         ret = MBEDTLS_ERR_ECP_BAD_INPUT_DATA +
 705:Source\mbedtls_open\library/ecdsa.c ****               MBEDTLS_ERR_ASN1_LENGTH_MISMATCH;
 706:Source\mbedtls_open\library/ecdsa.c ****         goto cleanup;
 707:Source\mbedtls_open\library/ecdsa.c ****     }
 708:Source\mbedtls_open\library/ecdsa.c **** 
 709:Source\mbedtls_open\library/ecdsa.c ****     if( ( ret = mbedtls_asn1_get_mpi( &p, end, &r ) ) != 0 ||
 1319              		.loc 1 709 0
 1320 003e 07AA     		add	r2, sp, #28
ARM GAS  C:\Users\Phuong\AppData\Local\Temp\ccN9HylG.s 			page 37


 1321 0040 3100     		movs	r1, r6
 1322 0042 0BA8     		add	r0, sp, #44
 1323              	.LVL263:
 1324 0044 FFF7FEFF 		bl	mbedtls_asn1_get_mpi
 1325              	.LVL264:
 1326 0048 0028     		cmp	r0, #0
 1327 004a 06D1     		bne	.L64
 1328              		.loc 1 709 0 is_stmt 0 discriminator 1
 1329 004c 04AA     		add	r2, sp, #16
 1330 004e 3100     		movs	r1, r6
 1331 0050 0BA8     		add	r0, sp, #44
 1332              	.LVL265:
 1333 0052 FFF7FEFF 		bl	mbedtls_asn1_get_mpi
 1334              	.LVL266:
 1335 0056 0028     		cmp	r0, #0
 1336 0058 02D0     		beq	.L65
 1337              	.L64:
 710:Source\mbedtls_open\library/ecdsa.c ****         ( ret = mbedtls_asn1_get_mpi( &p, end, &s ) ) != 0 )
 711:Source\mbedtls_open\library/ecdsa.c ****     {
 712:Source\mbedtls_open\library/ecdsa.c ****         ret += MBEDTLS_ERR_ECP_BAD_INPUT_DATA;
 1338              		.loc 1 712 0 is_stmt 1
 1339 005a 114B     		ldr	r3, .L68
 1340 005c C418     		adds	r4, r0, r3
 1341              	.LVL267:
 713:Source\mbedtls_open\library/ecdsa.c ****         goto cleanup;
 1342              		.loc 1 713 0
 1343 005e 15E0     		b	.L63
 1344              	.LVL268:
 1345              	.L65:
 714:Source\mbedtls_open\library/ecdsa.c ****     }
 715:Source\mbedtls_open\library/ecdsa.c **** 
 716:Source\mbedtls_open\library/ecdsa.c ****     if( ( ret = ecdsa_verify_restartable( &ctx->grp, hash, hlen,
 717:Source\mbedtls_open\library/ecdsa.c ****                               &ctx->Q, &r, &s, rs_ctx ) ) != 0 )
 1346              		.loc 1 717 0
 1347 0060 2B00     		movs	r3, r5
 1348 0062 8833     		adds	r3, r3, #136
 716:Source\mbedtls_open\library/ecdsa.c ****                               &ctx->Q, &r, &s, rs_ctx ) ) != 0 )
 1349              		.loc 1 716 0
 1350 0064 139A     		ldr	r2, [sp, #76]
 1351 0066 0292     		str	r2, [sp, #8]
 1352 0068 04AA     		add	r2, sp, #16
 1353 006a 0192     		str	r2, [sp, #4]
 1354 006c 07AA     		add	r2, sp, #28
 1355 006e 0092     		str	r2, [sp]
 1356 0070 3A00     		movs	r2, r7
 1357 0072 2100     		movs	r1, r4
 1358 0074 2800     		movs	r0, r5
 1359              	.LVL269:
 1360 0076 FFF7FEFF 		bl	ecdsa_verify_restartable
 1361              	.LVL270:
 1362 007a 041E     		subs	r4, r0, #0
 1363              	.LVL271:
 1364 007c 06D1     		bne	.L63
 718:Source\mbedtls_open\library/ecdsa.c ****         goto cleanup;
 719:Source\mbedtls_open\library/ecdsa.c **** 
 720:Source\mbedtls_open\library/ecdsa.c ****     /* At this point we know that the buffer starts with a valid signature.
 721:Source\mbedtls_open\library/ecdsa.c ****      * Return 0 if the buffer just contains the signature, and a specific
ARM GAS  C:\Users\Phuong\AppData\Local\Temp\ccN9HylG.s 			page 38


 722:Source\mbedtls_open\library/ecdsa.c ****      * error code if the valid signature is followed by more data. */
 723:Source\mbedtls_open\library/ecdsa.c ****     if( p != end )
 1365              		.loc 1 723 0
 1366 007e 0B9B     		ldr	r3, [sp, #44]
 1367 0080 9E42     		cmp	r6, r3
 1368 0082 03D0     		beq	.L63
 1369 0084 01E0     		b	.L67
 1370              	.LVL272:
 1371              	.L66:
 704:Source\mbedtls_open\library/ecdsa.c ****               MBEDTLS_ERR_ASN1_LENGTH_MISMATCH;
 1372              		.loc 1 704 0
 1373 0086 074C     		ldr	r4, .L68+4
 1374              	.LVL273:
 1375 0088 00E0     		b	.L63
 1376              	.L67:
 724:Source\mbedtls_open\library/ecdsa.c ****         ret = MBEDTLS_ERR_ECP_SIG_LEN_MISMATCH;
 1377              		.loc 1 724 0
 1378 008a 074C     		ldr	r4, .L68+8
 1379              	.LVL274:
 1380              	.L63:
 725:Source\mbedtls_open\library/ecdsa.c **** 
 726:Source\mbedtls_open\library/ecdsa.c **** cleanup:
 727:Source\mbedtls_open\library/ecdsa.c ****     mbedtls_mpi_free( &r );
 1381              		.loc 1 727 0
 1382 008c 07A8     		add	r0, sp, #28
 1383 008e FFF7FEFF 		bl	mbedtls_mpi_free
 1384              	.LVL275:
 728:Source\mbedtls_open\library/ecdsa.c ****     mbedtls_mpi_free( &s );
 1385              		.loc 1 728 0
 1386 0092 04A8     		add	r0, sp, #16
 1387 0094 FFF7FEFF 		bl	mbedtls_mpi_free
 1388              	.LVL276:
 729:Source\mbedtls_open\library/ecdsa.c **** 
 730:Source\mbedtls_open\library/ecdsa.c ****     return( ret );
 731:Source\mbedtls_open\library/ecdsa.c **** }
 1389              		.loc 1 731 0
 1390 0098 2000     		movs	r0, r4
 1391 009a 0DB0     		add	sp, sp, #52
 1392              		@ sp needed
 1393              	.LVL277:
 1394              	.LVL278:
 1395              	.LVL279:
 1396              	.LVL280:
 1397 009c F0BD     		pop	{r4, r5, r6, r7, pc}
 1398              	.L69:
 1399 009e C046     		.align	2
 1400              	.L68:
 1401 00a0 80B0FFFF 		.word	-20352
 1402 00a4 1AB0FFFF 		.word	-20454
 1403 00a8 00B4FFFF 		.word	-19456
 1404              		.cfi_endproc
 1405              	.LFE13:
 1406              		.size	mbedtls_ecdsa_read_signature_restartable, .-mbedtls_ecdsa_read_signature_restartable
 1407              		.section	.text.mbedtls_ecdsa_read_signature,"ax",%progbits
 1408              		.align	2
 1409              		.global	mbedtls_ecdsa_read_signature
 1410              		.code	16
ARM GAS  C:\Users\Phuong\AppData\Local\Temp\ccN9HylG.s 			page 39


 1411              		.thumb_func
 1412              		.type	mbedtls_ecdsa_read_signature, %function
 1413              	mbedtls_ecdsa_read_signature:
 1414              	.LFB12:
 673:Source\mbedtls_open\library/ecdsa.c ****     return( mbedtls_ecdsa_read_signature_restartable(
 1415              		.loc 1 673 0
 1416              		.cfi_startproc
 1417              		@ args = 4, pretend = 0, frame = 0
 1418              		@ frame_needed = 0, uses_anonymous_args = 0
 1419              	.LVL281:
 1420 0000 10B5     		push	{r4, lr}
 1421              		.cfi_def_cfa_offset 8
 1422              		.cfi_offset 4, -8
 1423              		.cfi_offset 14, -4
 1424 0002 82B0     		sub	sp, sp, #8
 1425              		.cfi_def_cfa_offset 16
 674:Source\mbedtls_open\library/ecdsa.c ****                 ctx, hash, hlen, sig, slen, NULL ) );
 1426              		.loc 1 674 0
 1427 0004 0024     		movs	r4, #0
 1428 0006 0194     		str	r4, [sp, #4]
 1429 0008 049C     		ldr	r4, [sp, #16]
 1430 000a 0094     		str	r4, [sp]
 1431 000c FFF7FEFF 		bl	mbedtls_ecdsa_read_signature_restartable
 1432              	.LVL282:
 676:Source\mbedtls_open\library/ecdsa.c **** 
 1433              		.loc 1 676 0
 1434 0010 02B0     		add	sp, sp, #8
 1435              		@ sp needed
 1436 0012 10BD     		pop	{r4, pc}
 1437              		.cfi_endproc
 1438              	.LFE12:
 1439              		.size	mbedtls_ecdsa_read_signature, .-mbedtls_ecdsa_read_signature
 1440              		.section	.text.mbedtls_ecdsa_genkey,"ax",%progbits
 1441              		.align	2
 1442              		.global	mbedtls_ecdsa_genkey
 1443              		.code	16
 1444              		.thumb_func
 1445              		.type	mbedtls_ecdsa_genkey, %function
 1446              	mbedtls_ecdsa_genkey:
 1447              	.LFB14:
 732:Source\mbedtls_open\library/ecdsa.c **** 
 733:Source\mbedtls_open\library/ecdsa.c **** #if !defined(MBEDTLS_ECDSA_GENKEY_ALT)
 734:Source\mbedtls_open\library/ecdsa.c **** /*
 735:Source\mbedtls_open\library/ecdsa.c ****  * Generate key pair
 736:Source\mbedtls_open\library/ecdsa.c ****  */
 737:Source\mbedtls_open\library/ecdsa.c **** int mbedtls_ecdsa_genkey( mbedtls_ecdsa_context *ctx, mbedtls_ecp_group_id gid,
 738:Source\mbedtls_open\library/ecdsa.c ****                   int (*f_rng)(void *, unsigned char *, size_t), void *p_rng )
 739:Source\mbedtls_open\library/ecdsa.c **** {
 1448              		.loc 1 739 0
 1449              		.cfi_startproc
 1450              		@ args = 0, pretend = 0, frame = 0
 1451              		@ frame_needed = 0, uses_anonymous_args = 0
 1452              	.LVL283:
 1453 0000 70B5     		push	{r4, r5, r6, lr}
 1454              		.cfi_def_cfa_offset 16
 1455              		.cfi_offset 4, -16
 1456              		.cfi_offset 5, -12
ARM GAS  C:\Users\Phuong\AppData\Local\Temp\ccN9HylG.s 			page 40


 1457              		.cfi_offset 6, -8
 1458              		.cfi_offset 14, -4
 1459 0002 82B0     		sub	sp, sp, #8
 1460              		.cfi_def_cfa_offset 24
 1461 0004 0400     		movs	r4, r0
 1462 0006 1500     		movs	r5, r2
 1463 0008 1E00     		movs	r6, r3
 740:Source\mbedtls_open\library/ecdsa.c ****     return( mbedtls_ecp_group_load( &ctx->grp, gid ) ||
 1464              		.loc 1 740 0
 1465 000a FFF7FEFF 		bl	mbedtls_ecp_group_load
 1466              	.LVL284:
 1467 000e 0028     		cmp	r0, #0
 1468 0010 0BD1     		bne	.L73
 741:Source\mbedtls_open\library/ecdsa.c ****             mbedtls_ecp_gen_keypair( &ctx->grp, &ctx->d, &ctx->Q, f_rng, p_rng ) );
 1469              		.loc 1 741 0 discriminator 2
 1470 0012 2200     		movs	r2, r4
 1471 0014 8832     		adds	r2, r2, #136
 1472 0016 2100     		movs	r1, r4
 1473 0018 7C31     		adds	r1, r1, #124
 1474 001a 0096     		str	r6, [sp]
 1475 001c 2B00     		movs	r3, r5
 1476 001e 2000     		movs	r0, r4
 1477 0020 FFF7FEFF 		bl	mbedtls_ecp_gen_keypair
 1478              	.LVL285:
 740:Source\mbedtls_open\library/ecdsa.c ****     return( mbedtls_ecp_group_load( &ctx->grp, gid ) ||
 1479              		.loc 1 740 0 discriminator 2
 1480 0024 0028     		cmp	r0, #0
 1481 0026 02D1     		bne	.L74
 1482 0028 02E0     		b	.L72
 1483              	.L73:
 740:Source\mbedtls_open\library/ecdsa.c ****     return( mbedtls_ecp_group_load( &ctx->grp, gid ) ||
 1484              		.loc 1 740 0 is_stmt 0
 1485 002a 0120     		movs	r0, #1
 1486 002c 00E0     		b	.L72
 1487              	.L74:
 1488 002e 0120     		movs	r0, #1
 1489              	.L72:
 742:Source\mbedtls_open\library/ecdsa.c **** }
 1490              		.loc 1 742 0 is_stmt 1 discriminator 6
 1491 0030 02B0     		add	sp, sp, #8
 1492              		@ sp needed
 1493              	.LVL286:
 1494              	.LVL287:
 1495              	.LVL288:
 1496 0032 70BD     		pop	{r4, r5, r6, pc}
 1497              		.cfi_endproc
 1498              	.LFE14:
 1499              		.size	mbedtls_ecdsa_genkey, .-mbedtls_ecdsa_genkey
 1500              		.section	.text.mbedtls_ecdsa_init,"ax",%progbits
 1501              		.align	2
 1502              		.global	mbedtls_ecdsa_init
 1503              		.code	16
 1504              		.thumb_func
 1505              		.type	mbedtls_ecdsa_init, %function
 1506              	mbedtls_ecdsa_init:
 1507              	.LFB16:
 743:Source\mbedtls_open\library/ecdsa.c **** #endif /* MBEDTLS_ECDSA_GENKEY_ALT */
ARM GAS  C:\Users\Phuong\AppData\Local\Temp\ccN9HylG.s 			page 41


 744:Source\mbedtls_open\library/ecdsa.c **** 
 745:Source\mbedtls_open\library/ecdsa.c **** /*
 746:Source\mbedtls_open\library/ecdsa.c ****  * Set context from an mbedtls_ecp_keypair
 747:Source\mbedtls_open\library/ecdsa.c ****  */
 748:Source\mbedtls_open\library/ecdsa.c **** int mbedtls_ecdsa_from_keypair( mbedtls_ecdsa_context *ctx, const mbedtls_ecp_keypair *key )
 749:Source\mbedtls_open\library/ecdsa.c **** {
 750:Source\mbedtls_open\library/ecdsa.c ****     int ret;
 751:Source\mbedtls_open\library/ecdsa.c **** 
 752:Source\mbedtls_open\library/ecdsa.c ****     if( ( ret = mbedtls_ecp_group_copy( &ctx->grp, &key->grp ) ) != 0 ||
 753:Source\mbedtls_open\library/ecdsa.c ****         ( ret = mbedtls_mpi_copy( &ctx->d, &key->d ) ) != 0 ||
 754:Source\mbedtls_open\library/ecdsa.c ****         ( ret = mbedtls_ecp_copy( &ctx->Q, &key->Q ) ) != 0 )
 755:Source\mbedtls_open\library/ecdsa.c ****     {
 756:Source\mbedtls_open\library/ecdsa.c ****         mbedtls_ecdsa_free( ctx );
 757:Source\mbedtls_open\library/ecdsa.c ****     }
 758:Source\mbedtls_open\library/ecdsa.c **** 
 759:Source\mbedtls_open\library/ecdsa.c ****     return( ret );
 760:Source\mbedtls_open\library/ecdsa.c **** }
 761:Source\mbedtls_open\library/ecdsa.c **** 
 762:Source\mbedtls_open\library/ecdsa.c **** /*
 763:Source\mbedtls_open\library/ecdsa.c ****  * Initialize context
 764:Source\mbedtls_open\library/ecdsa.c ****  */
 765:Source\mbedtls_open\library/ecdsa.c **** void mbedtls_ecdsa_init( mbedtls_ecdsa_context *ctx )
 766:Source\mbedtls_open\library/ecdsa.c **** {
 1508              		.loc 1 766 0
 1509              		.cfi_startproc
 1510              		@ args = 0, pretend = 0, frame = 0
 1511              		@ frame_needed = 0, uses_anonymous_args = 0
 1512              	.LVL289:
 1513 0000 10B5     		push	{r4, lr}
 1514              		.cfi_def_cfa_offset 8
 1515              		.cfi_offset 4, -8
 1516              		.cfi_offset 14, -4
 767:Source\mbedtls_open\library/ecdsa.c ****     mbedtls_ecp_keypair_init( ctx );
 1517              		.loc 1 767 0
 1518 0002 FFF7FEFF 		bl	mbedtls_ecp_keypair_init
 1519              	.LVL290:
 768:Source\mbedtls_open\library/ecdsa.c **** }
 1520              		.loc 1 768 0
 1521              		@ sp needed
 1522 0006 10BD     		pop	{r4, pc}
 1523              		.cfi_endproc
 1524              	.LFE16:
 1525              		.size	mbedtls_ecdsa_init, .-mbedtls_ecdsa_init
 1526              		.section	.text.mbedtls_ecdsa_free,"ax",%progbits
 1527              		.align	2
 1528              		.global	mbedtls_ecdsa_free
 1529              		.code	16
 1530              		.thumb_func
 1531              		.type	mbedtls_ecdsa_free, %function
 1532              	mbedtls_ecdsa_free:
 1533              	.LFB17:
 769:Source\mbedtls_open\library/ecdsa.c **** 
 770:Source\mbedtls_open\library/ecdsa.c **** /*
 771:Source\mbedtls_open\library/ecdsa.c ****  * Free context
 772:Source\mbedtls_open\library/ecdsa.c ****  */
 773:Source\mbedtls_open\library/ecdsa.c **** void mbedtls_ecdsa_free( mbedtls_ecdsa_context *ctx )
 774:Source\mbedtls_open\library/ecdsa.c **** {
ARM GAS  C:\Users\Phuong\AppData\Local\Temp\ccN9HylG.s 			page 42


 1534              		.loc 1 774 0
 1535              		.cfi_startproc
 1536              		@ args = 0, pretend = 0, frame = 0
 1537              		@ frame_needed = 0, uses_anonymous_args = 0
 1538              	.LVL291:
 1539 0000 10B5     		push	{r4, lr}
 1540              		.cfi_def_cfa_offset 8
 1541              		.cfi_offset 4, -8
 1542              		.cfi_offset 14, -4
 775:Source\mbedtls_open\library/ecdsa.c ****     mbedtls_ecp_keypair_free( ctx );
 1543              		.loc 1 775 0
 1544 0002 FFF7FEFF 		bl	mbedtls_ecp_keypair_free
 1545              	.LVL292:
 776:Source\mbedtls_open\library/ecdsa.c **** }
 1546              		.loc 1 776 0
 1547              		@ sp needed
 1548 0006 10BD     		pop	{r4, pc}
 1549              		.cfi_endproc
 1550              	.LFE17:
 1551              		.size	mbedtls_ecdsa_free, .-mbedtls_ecdsa_free
 1552              		.section	.text.mbedtls_ecdsa_from_keypair,"ax",%progbits
 1553              		.align	2
 1554              		.global	mbedtls_ecdsa_from_keypair
 1555              		.code	16
 1556              		.thumb_func
 1557              		.type	mbedtls_ecdsa_from_keypair, %function
 1558              	mbedtls_ecdsa_from_keypair:
 1559              	.LFB15:
 749:Source\mbedtls_open\library/ecdsa.c ****     int ret;
 1560              		.loc 1 749 0
 1561              		.cfi_startproc
 1562              		@ args = 0, pretend = 0, frame = 0
 1563              		@ frame_needed = 0, uses_anonymous_args = 0
 1564              	.LVL293:
 1565 0000 70B5     		push	{r4, r5, r6, lr}
 1566              		.cfi_def_cfa_offset 16
 1567              		.cfi_offset 4, -16
 1568              		.cfi_offset 5, -12
 1569              		.cfi_offset 6, -8
 1570              		.cfi_offset 14, -4
 1571 0002 0500     		movs	r5, r0
 1572 0004 0E00     		movs	r6, r1
 752:Source\mbedtls_open\library/ecdsa.c ****         ( ret = mbedtls_mpi_copy( &ctx->d, &key->d ) ) != 0 ||
 1573              		.loc 1 752 0
 1574 0006 FFF7FEFF 		bl	mbedtls_ecp_group_copy
 1575              	.LVL294:
 1576 000a 041E     		subs	r4, r0, #0
 1577              	.LVL295:
 1578 000c 0FD1     		bne	.L78
 753:Source\mbedtls_open\library/ecdsa.c ****         ( ret = mbedtls_ecp_copy( &ctx->Q, &key->Q ) ) != 0 )
 1579              		.loc 1 753 0 discriminator 1
 1580 000e 2800     		movs	r0, r5
 1581              	.LVL296:
 1582 0010 7C30     		adds	r0, r0, #124
 1583 0012 3100     		movs	r1, r6
 1584 0014 7C31     		adds	r1, r1, #124
 752:Source\mbedtls_open\library/ecdsa.c ****         ( ret = mbedtls_mpi_copy( &ctx->d, &key->d ) ) != 0 ||
ARM GAS  C:\Users\Phuong\AppData\Local\Temp\ccN9HylG.s 			page 43


 1585              		.loc 1 752 0 discriminator 1
 1586 0016 FFF7FEFF 		bl	mbedtls_mpi_copy
 1587              	.LVL297:
 1588 001a 041E     		subs	r4, r0, #0
 1589              	.LVL298:
 1590 001c 07D1     		bne	.L78
 754:Source\mbedtls_open\library/ecdsa.c ****     {
 1591              		.loc 1 754 0
 1592 001e 2800     		movs	r0, r5
 1593              	.LVL299:
 1594 0020 8830     		adds	r0, r0, #136
 1595 0022 3100     		movs	r1, r6
 1596 0024 8831     		adds	r1, r1, #136
 753:Source\mbedtls_open\library/ecdsa.c ****         ( ret = mbedtls_ecp_copy( &ctx->Q, &key->Q ) ) != 0 )
 1597              		.loc 1 753 0
 1598 0026 FFF7FEFF 		bl	mbedtls_ecp_copy
 1599              	.LVL300:
 1600 002a 041E     		subs	r4, r0, #0
 1601              	.LVL301:
 1602 002c 02D0     		beq	.L79
 1603              	.L78:
 756:Source\mbedtls_open\library/ecdsa.c ****     }
 1604              		.loc 1 756 0
 1605 002e 2800     		movs	r0, r5
 1606              	.LVL302:
 1607 0030 FFF7FEFF 		bl	mbedtls_ecdsa_free
 1608              	.LVL303:
 1609              	.L79:
 760:Source\mbedtls_open\library/ecdsa.c **** 
 1610              		.loc 1 760 0
 1611 0034 2000     		movs	r0, r4
 1612              		@ sp needed
 1613              	.LVL304:
 1614              	.LVL305:
 1615              	.LVL306:
 1616 0036 70BD     		pop	{r4, r5, r6, pc}
 1617              		.cfi_endproc
 1618              	.LFE15:
 1619              		.size	mbedtls_ecdsa_from_keypair, .-mbedtls_ecdsa_from_keypair
 1620              		.text
 1621              	.Letext0:
 1622              		.file 2 "c:\\program files (x86)\\cypress\\psoc creator\\4.2\\psoc creator\\import\\gnu\\arm\\5.4.
 1623              		.file 3 "c:\\program files (x86)\\cypress\\psoc creator\\4.2\\psoc creator\\import\\gnu\\arm\\5.4.
 1624              		.file 4 "c:\\program files (x86)\\cypress\\psoc creator\\4.2\\psoc creator\\import\\gnu\\arm\\5.4.
 1625              		.file 5 ".\\Source\\mbedtls_open\\include/mbedtls/bignum.h"
 1626              		.file 6 ".\\Source\\mbedtls_open\\include/mbedtls/ecp.h"
 1627              		.file 7 ".\\Source\\mbedtls_open\\include/mbedtls/md.h"
 1628              		.file 8 ".\\Source\\mbedtls_open\\include/mbedtls/ecdsa.h"
 1629              		.file 9 ".\\Source\\mbedtls_open\\include/mbedtls/hmac_drbg.h"
 1630              		.file 10 ".\\Source\\mbedtls_open\\include/mbedtls/asn1write.h"
 1631              		.file 11 ".\\Source\\mbedtls_open\\include/mbedtls/asn1.h"