ARM GAS  C:\Users\Phuong\AppData\Local\Temp\ccDXeF1X.s 			page 1


   1              		.syntax unified
   2              		.cpu cortex-m0plus
   3              		.fpu softvfp
   4              		.eabi_attribute 20, 1
   5              		.eabi_attribute 21, 1
   6              		.eabi_attribute 23, 3
   7              		.eabi_attribute 24, 1
   8              		.eabi_attribute 25, 1
   9              		.eabi_attribute 26, 1
  10              		.eabi_attribute 30, 1
  11              		.eabi_attribute 34, 0
  12              		.eabi_attribute 18, 4
  13              		.thumb
  14              		.syntax unified
  15              		.file	"Endpoint.cpp"
  16              		.text
  17              	.Ltext0:
  18              		.cfi_sections	.debug_frame
  19              		.section	.text._ZN8EndpointD2Ev,"ax",%progbits
  20              		.align	2
  21              		.global	_ZN8EndpointD2Ev
  22              		.code	16
  23              		.thumb_func
  24              		.type	_ZN8EndpointD2Ev, %function
  25              	_ZN8EndpointD2Ev:
  26              	.LFB64:
  27              		.file 1 "Source\\azure_iot_sdk\\c-utility\\Socket\\src\\Endpoint.cpp"
   1:Source\azure_iot_sdk\c-utility\Socket\src/Endpoint.cpp **** /* Copyright (C) 2012 mbed.org, MIT License
   2:Source\azure_iot_sdk\c-utility\Socket\src/Endpoint.cpp ****  *
   3:Source\azure_iot_sdk\c-utility\Socket\src/Endpoint.cpp ****  * Permission is hereby granted, free of charge, to any person obtaining a copy of this software
   4:Source\azure_iot_sdk\c-utility\Socket\src/Endpoint.cpp ****  * and associated documentation files (the "Software"), to deal in the Software without restriction
   5:Source\azure_iot_sdk\c-utility\Socket\src/Endpoint.cpp ****  * including without limitation the rights to use, copy, modify, merge, publish, distribute,
   6:Source\azure_iot_sdk\c-utility\Socket\src/Endpoint.cpp ****  * sublicense, and/or sell copies of the Software, and to permit persons to whom the Software is
   7:Source\azure_iot_sdk\c-utility\Socket\src/Endpoint.cpp ****  * furnished to do so, subject to the following conditions:
   8:Source\azure_iot_sdk\c-utility\Socket\src/Endpoint.cpp ****  *
   9:Source\azure_iot_sdk\c-utility\Socket\src/Endpoint.cpp ****  * The above copyright notice and this permission notice shall be included in all copies or
  10:Source\azure_iot_sdk\c-utility\Socket\src/Endpoint.cpp ****  * substantial portions of the Software.
  11:Source\azure_iot_sdk\c-utility\Socket\src/Endpoint.cpp ****  *
  12:Source\azure_iot_sdk\c-utility\Socket\src/Endpoint.cpp ****  * THE SOFTWARE IS PROVIDED "AS IS", WITHOUT WARRANTY OF ANY KIND, EXPRESS OR IMPLIED, INCLUDING
  13:Source\azure_iot_sdk\c-utility\Socket\src/Endpoint.cpp ****  * BUT NOT LIMITED TO THE WARRANTIES OF MERCHANTABILITY, FITNESS FOR A PARTICULAR PURPOSE AND
  14:Source\azure_iot_sdk\c-utility\Socket\src/Endpoint.cpp ****  * NONINFRINGEMENT. IN NO EVENT SHALL THE AUTHORS OR COPYRIGHT HOLDERS BE LIABLE FOR ANY CLAIM,
  15:Source\azure_iot_sdk\c-utility\Socket\src/Endpoint.cpp ****  * DAMAGES OR OTHER LIABILITY, WHETHER IN AN ACTION OF CONTRACT, TORT OR OTHERWISE, ARISING FROM,
  16:Source\azure_iot_sdk\c-utility\Socket\src/Endpoint.cpp ****  * OUT OF OR IN CONNECTION WITH THE SOFTWARE OR THE USE OR OTHER DEALINGS IN THE SOFTWARE.
  17:Source\azure_iot_sdk\c-utility\Socket\src/Endpoint.cpp ****  */
  18:Source\azure_iot_sdk\c-utility\Socket\src/Endpoint.cpp **** #include "Socket.h"
  19:Source\azure_iot_sdk\c-utility\Socket\src/Endpoint.cpp **** #include "Endpoint.h"
  20:Source\azure_iot_sdk\c-utility\Socket\src/Endpoint.cpp **** #include <cstring>
  21:Source\azure_iot_sdk\c-utility\Socket\src/Endpoint.cpp **** #include <cstdio>
  22:Source\azure_iot_sdk\c-utility\Socket\src/Endpoint.cpp **** 
  23:Source\azure_iot_sdk\c-utility\Socket\src/Endpoint.cpp **** Endpoint::Endpoint()  {
  24:Source\azure_iot_sdk\c-utility\Socket\src/Endpoint.cpp ****     reset_address();
  25:Source\azure_iot_sdk\c-utility\Socket\src/Endpoint.cpp **** }
  26:Source\azure_iot_sdk\c-utility\Socket\src/Endpoint.cpp **** Endpoint::~Endpoint() {}
  28              		.loc 1 26 0
  29              		.cfi_startproc
  30              		@ args = 0, pretend = 0, frame = 0
  31              		@ frame_needed = 0, uses_anonymous_args = 0
ARM GAS  C:\Users\Phuong\AppData\Local\Temp\ccDXeF1X.s 			page 2


  32              		@ link register save eliminated.
  33              	.LVL0:
  34              		.loc 1 26 0
  35              		@ sp needed
  36 0000 7047     		bx	lr
  37              		.cfi_endproc
  38              	.LFE64:
  39              		.size	_ZN8EndpointD2Ev, .-_ZN8EndpointD2Ev
  40              		.global	_ZN8EndpointD1Ev
  41              		.thumb_set _ZN8EndpointD1Ev,_ZN8EndpointD2Ev
  42 0002 C046     		.section	.text._ZN8Endpoint13reset_addressEv,"ax",%progbits
  43              		.align	2
  44              		.global	_ZN8Endpoint13reset_addressEv
  45              		.code	16
  46              		.thumb_func
  47              		.type	_ZN8Endpoint13reset_addressEv, %function
  48              	_ZN8Endpoint13reset_addressEv:
  49              	.LFB66:
  27:Source\azure_iot_sdk\c-utility\Socket\src/Endpoint.cpp **** 
  28:Source\azure_iot_sdk\c-utility\Socket\src/Endpoint.cpp **** void Endpoint::reset_address(void) {
  50              		.loc 1 28 0
  51              		.cfi_startproc
  52              		@ args = 0, pretend = 0, frame = 0
  53              		@ frame_needed = 0, uses_anonymous_args = 0
  54              	.LVL1:
  55 0000 10B5     		push	{r4, lr}
  56              		.cfi_def_cfa_offset 8
  57              		.cfi_offset 4, -8
  58              		.cfi_offset 14, -4
  59 0002 0400     		movs	r4, r0
  29:Source\azure_iot_sdk\c-utility\Socket\src/Endpoint.cpp ****     std::memset(&_remoteHost, 0, sizeof(struct sockaddr_in));
  60              		.loc 1 29 0
  61 0004 1430     		adds	r0, r0, #20
  62              	.LVL2:
  63 0006 1022     		movs	r2, #16
  64 0008 0021     		movs	r1, #0
  65 000a FFF7FEFF 		bl	memset
  66              	.LVL3:
  30:Source\azure_iot_sdk\c-utility\Socket\src/Endpoint.cpp ****     _ipAddress[0] = '\0';
  67              		.loc 1 30 0
  68 000e 0023     		movs	r3, #0
  69 0010 2370     		strb	r3, [r4]
  31:Source\azure_iot_sdk\c-utility\Socket\src/Endpoint.cpp **** }
  70              		.loc 1 31 0
  71              		@ sp needed
  72              	.LVL4:
  73 0012 10BD     		pop	{r4, pc}
  74              		.cfi_endproc
  75              	.LFE66:
  76              		.size	_ZN8Endpoint13reset_addressEv, .-_ZN8Endpoint13reset_addressEv
  77              		.section	.text._ZN8EndpointC2Ev,"ax",%progbits
  78              		.align	2
  79              		.global	_ZN8EndpointC2Ev
  80              		.code	16
  81              		.thumb_func
  82              		.type	_ZN8EndpointC2Ev, %function
  83              	_ZN8EndpointC2Ev:
ARM GAS  C:\Users\Phuong\AppData\Local\Temp\ccDXeF1X.s 			page 3


  84              	.LFB61:
  23:Source\azure_iot_sdk\c-utility\Socket\src/Endpoint.cpp ****     reset_address();
  85              		.loc 1 23 0
  86              		.cfi_startproc
  87              		@ args = 0, pretend = 0, frame = 0
  88              		@ frame_needed = 0, uses_anonymous_args = 0
  89              	.LVL5:
  90 0000 10B5     		push	{r4, lr}
  91              		.cfi_def_cfa_offset 8
  92              		.cfi_offset 4, -8
  93              		.cfi_offset 14, -4
  94 0002 0400     		movs	r4, r0
  95              	.LBB2:
  24:Source\azure_iot_sdk\c-utility\Socket\src/Endpoint.cpp **** }
  96              		.loc 1 24 0
  97 0004 FFF7FEFF 		bl	_ZN8Endpoint13reset_addressEv
  98              	.LVL6:
  99              	.LBE2:
  25:Source\azure_iot_sdk\c-utility\Socket\src/Endpoint.cpp **** Endpoint::~Endpoint() {}
 100              		.loc 1 25 0
 101 0008 2000     		movs	r0, r4
 102              		@ sp needed
 103              	.LVL7:
 104 000a 10BD     		pop	{r4, pc}
 105              		.cfi_endproc
 106              	.LFE61:
 107              		.size	_ZN8EndpointC2Ev, .-_ZN8EndpointC2Ev
 108              		.global	_ZN8EndpointC1Ev
 109              		.thumb_set _ZN8EndpointC1Ev,_ZN8EndpointC2Ev
 110              		.section	.text._ZN8Endpoint11set_addressEPKci,"ax",%progbits
 111              		.align	2
 112              		.global	_ZN8Endpoint11set_addressEPKci
 113              		.code	16
 114              		.thumb_func
 115              		.type	_ZN8Endpoint11set_addressEPKci, %function
 116              	_ZN8Endpoint11set_addressEPKci:
 117              	.LFB67:
  32:Source\azure_iot_sdk\c-utility\Socket\src/Endpoint.cpp **** 
  33:Source\azure_iot_sdk\c-utility\Socket\src/Endpoint.cpp **** #include "stdio.h"
  34:Source\azure_iot_sdk\c-utility\Socket\src/Endpoint.cpp **** 
  35:Source\azure_iot_sdk\c-utility\Socket\src/Endpoint.cpp **** int Endpoint::set_address(const char* host, const int port) {
 118              		.loc 1 35 0
 119              		.cfi_startproc
 120              		@ args = 0, pretend = 0, frame = 8
 121              		@ frame_needed = 0, uses_anonymous_args = 0
 122              	.LVL8:
 123 0000 30B5     		push	{r4, r5, lr}
 124              		.cfi_def_cfa_offset 12
 125              		.cfi_offset 4, -12
 126              		.cfi_offset 5, -8
 127              		.cfi_offset 14, -4
 128 0002 85B0     		sub	sp, sp, #20
 129              		.cfi_def_cfa_offset 32
 130 0004 0400     		movs	r4, r0
 131 0006 0D00     		movs	r5, r1
  36:Source\azure_iot_sdk\c-utility\Socket\src/Endpoint.cpp ****     reset_address();
 132              		.loc 1 36 0
ARM GAS  C:\Users\Phuong\AppData\Local\Temp\ccDXeF1X.s 			page 4


 133 0008 FFF7FEFF 		bl	_ZN8Endpoint13reset_addressEv
 134              	.LVL9:
  37:Source\azure_iot_sdk\c-utility\Socket\src/Endpoint.cpp ****     
  38:Source\azure_iot_sdk\c-utility\Socket\src/Endpoint.cpp ****     // IP Address
  39:Source\azure_iot_sdk\c-utility\Socket\src/Endpoint.cpp ****     char address[5]={168,61,54,255,0}; //40.85.218.175, 168.61.54.255, 40.84.189.107
 135              		.loc 1 39 0
 136 000c 0522     		movs	r2, #5
 137 000e 1049     		ldr	r1, .L5
 138 0010 02A8     		add	r0, sp, #8
 139 0012 FFF7FEFF 		bl	memcpy
 140              	.LVL10:
  40:Source\azure_iot_sdk\c-utility\Socket\src/Endpoint.cpp ****     //char address[5];
  41:Source\azure_iot_sdk\c-utility\Socket\src/Endpoint.cpp ****     char *p_address = address;
  42:Source\azure_iot_sdk\c-utility\Socket\src/Endpoint.cpp ****     
  43:Source\azure_iot_sdk\c-utility\Socket\src/Endpoint.cpp ****     // Dot-decimal notation
  44:Source\azure_iot_sdk\c-utility\Socket\src/Endpoint.cpp ****     int result = std::sscanf(host, "%3u.%3u.%3u.%3u",
  45:Source\azure_iot_sdk\c-utility\Socket\src/Endpoint.cpp ****         (unsigned int*)&address[0], (unsigned int*)&address[1],
  46:Source\azure_iot_sdk\c-utility\Socket\src/Endpoint.cpp ****         (unsigned int*)&address[2], (unsigned int*)&address[3]);
 141              		.loc 1 46 0
 142 0016 0B23     		movs	r3, #11
 143 0018 6B44     		add	r3, r3, sp
 144 001a 0193     		str	r3, [sp, #4]
 145 001c 0A23     		movs	r3, #10
 146 001e 6B44     		add	r3, r3, sp
 147 0020 0093     		str	r3, [sp]
 148 0022 0923     		movs	r3, #9
 149 0024 6B44     		add	r3, r3, sp
 150 0026 02AA     		add	r2, sp, #8
 151              	.LVL11:
 152 0028 0A49     		ldr	r1, .L5+4
 153 002a 2800     		movs	r0, r5
 154 002c FFF7FEFF 		bl	sscanf
 155              	.LVL12:
  47:Source\azure_iot_sdk\c-utility\Socket\src/Endpoint.cpp ****     /*
  48:Source\azure_iot_sdk\c-utility\Socket\src/Endpoint.cpp ****     if (result != 4) {
  49:Source\azure_iot_sdk\c-utility\Socket\src/Endpoint.cpp ****         // Resolve address with DNS
  50:Source\azure_iot_sdk\c-utility\Socket\src/Endpoint.cpp ****         struct hostent *host_address = lwip_gethostbyname(host);
  51:Source\azure_iot_sdk\c-utility\Socket\src/Endpoint.cpp ****         if (host_address == NULL)
  52:Source\azure_iot_sdk\c-utility\Socket\src/Endpoint.cpp ****             return -1; //Could not resolve address
  53:Source\azure_iot_sdk\c-utility\Socket\src/Endpoint.cpp ****         p_address = (char*)host_address->h_addr_list[0];
  54:Source\azure_iot_sdk\c-utility\Socket\src/Endpoint.cpp ****     }
  55:Source\azure_iot_sdk\c-utility\Socket\src/Endpoint.cpp ****     */
  56:Source\azure_iot_sdk\c-utility\Socket\src/Endpoint.cpp ****     std::memcpy((char*)&_remoteHost.sin_addr.s_addr, p_address, 4);
 156              		.loc 1 56 0
 157 0030 2000     		movs	r0, r4
 158 0032 1830     		adds	r0, r0, #24
 159 0034 0422     		movs	r2, #4
 160 0036 02A9     		add	r1, sp, #8
 161              	.LVL13:
 162 0038 FFF7FEFF 		bl	memcpy
 163              	.LVL14:
  57:Source\azure_iot_sdk\c-utility\Socket\src/Endpoint.cpp ****     
  58:Source\azure_iot_sdk\c-utility\Socket\src/Endpoint.cpp ****     // Address family
  59:Source\azure_iot_sdk\c-utility\Socket\src/Endpoint.cpp ****     _remoteHost.sin_family = AF_INET;
 164              		.loc 1 59 0
 165 003c 0223     		movs	r3, #2
 166 003e 6375     		strb	r3, [r4, #21]
ARM GAS  C:\Users\Phuong\AppData\Local\Temp\ccDXeF1X.s 			page 5


  60:Source\azure_iot_sdk\c-utility\Socket\src/Endpoint.cpp ****     
  61:Source\azure_iot_sdk\c-utility\Socket\src/Endpoint.cpp ****     // Set port
  62:Source\azure_iot_sdk\c-utility\Socket\src/Endpoint.cpp ****     _remoteHost.sin_port = htons(5671);//port
 167              		.loc 1 62 0
 168 0040 0548     		ldr	r0, .L5+8
 169 0042 FFF7FEFF 		bl	lwip_htons
 170              	.LVL15:
 171 0046 E082     		strh	r0, [r4, #22]
  63:Source\azure_iot_sdk\c-utility\Socket\src/Endpoint.cpp ****     
  64:Source\azure_iot_sdk\c-utility\Socket\src/Endpoint.cpp ****     return 0;
  65:Source\azure_iot_sdk\c-utility\Socket\src/Endpoint.cpp **** }
 172              		.loc 1 65 0
 173 0048 0020     		movs	r0, #0
 174 004a 05B0     		add	sp, sp, #20
 175              		@ sp needed
 176              	.LVL16:
 177              	.LVL17:
 178 004c 30BD     		pop	{r4, r5, pc}
 179              	.L6:
 180 004e C046     		.align	2
 181              	.L5:
 182 0050 00000000 		.word	.LANCHOR0
 183 0054 00000000 		.word	.LC2
 184 0058 27160000 		.word	5671
 185              		.cfi_endproc
 186              	.LFE67:
 187              		.size	_ZN8Endpoint11set_addressEPKci, .-_ZN8Endpoint11set_addressEPKci
 188              		.section	.text._ZN8Endpoint11get_addressEv,"ax",%progbits
 189              		.align	2
 190              		.global	_ZN8Endpoint11get_addressEv
 191              		.code	16
 192              		.thumb_func
 193              		.type	_ZN8Endpoint11get_addressEv, %function
 194              	_ZN8Endpoint11get_addressEv:
 195              	.LFB68:
  66:Source\azure_iot_sdk\c-utility\Socket\src/Endpoint.cpp **** 
  67:Source\azure_iot_sdk\c-utility\Socket\src/Endpoint.cpp **** char* Endpoint::get_address() {
 196              		.loc 1 67 0
 197              		.cfi_startproc
 198              		@ args = 0, pretend = 0, frame = 0
 199              		@ frame_needed = 0, uses_anonymous_args = 0
 200              	.LVL18:
 201 0000 10B5     		push	{r4, lr}
 202              		.cfi_def_cfa_offset 8
 203              		.cfi_offset 4, -8
 204              		.cfi_offset 14, -4
 205 0002 0400     		movs	r4, r0
  68:Source\azure_iot_sdk\c-utility\Socket\src/Endpoint.cpp ****     if ((_ipAddress[0] == '\0') && (_remoteHost.sin_addr.s_addr != 0))
 206              		.loc 1 68 0
 207 0004 0378     		ldrb	r3, [r0]
 208 0006 002B     		cmp	r3, #0
 209 0008 07D1     		bne	.L8
 210              		.loc 1 68 0 is_stmt 0 discriminator 1
 211 000a 8369     		ldr	r3, [r0, #24]
 212 000c 002B     		cmp	r3, #0
 213 000e 04D0     		beq	.L8
  69:Source\azure_iot_sdk\c-utility\Socket\src/Endpoint.cpp ****             inet_ntoa_r(_remoteHost.sin_addr, _ipAddress, sizeof(_ipAddress));
ARM GAS  C:\Users\Phuong\AppData\Local\Temp\ccDXeF1X.s 			page 6


 214              		.loc 1 69 0 is_stmt 1
 215 0010 1830     		adds	r0, r0, #24
 216              	.LVL19:
 217 0012 1122     		movs	r2, #17
 218 0014 2100     		movs	r1, r4
 219 0016 FFF7FEFF 		bl	ip4addr_ntoa_r
 220              	.LVL20:
 221              	.L8:
  70:Source\azure_iot_sdk\c-utility\Socket\src/Endpoint.cpp ****     return _ipAddress;
  71:Source\azure_iot_sdk\c-utility\Socket\src/Endpoint.cpp **** }
 222              		.loc 1 71 0
 223 001a 2000     		movs	r0, r4
 224              		@ sp needed
 225              	.LVL21:
 226 001c 10BD     		pop	{r4, pc}
 227              		.cfi_endproc
 228              	.LFE68:
 229              		.size	_ZN8Endpoint11get_addressEv, .-_ZN8Endpoint11get_addressEv
 230 001e C046     		.section	.text._ZN8Endpoint8get_portEv,"ax",%progbits
 231              		.align	2
 232              		.global	_ZN8Endpoint8get_portEv
 233              		.code	16
 234              		.thumb_func
 235              		.type	_ZN8Endpoint8get_portEv, %function
 236              	_ZN8Endpoint8get_portEv:
 237              	.LFB69:
  72:Source\azure_iot_sdk\c-utility\Socket\src/Endpoint.cpp **** 
  73:Source\azure_iot_sdk\c-utility\Socket\src/Endpoint.cpp **** int   Endpoint::get_port() {
 238              		.loc 1 73 0
 239              		.cfi_startproc
 240              		@ args = 0, pretend = 0, frame = 0
 241              		@ frame_needed = 0, uses_anonymous_args = 0
 242              	.LVL22:
 243 0000 10B5     		push	{r4, lr}
 244              		.cfi_def_cfa_offset 8
 245              		.cfi_offset 4, -8
 246              		.cfi_offset 14, -4
  74:Source\azure_iot_sdk\c-utility\Socket\src/Endpoint.cpp ****     return ntohs(_remoteHost.sin_port);
 247              		.loc 1 74 0
 248 0002 C08A     		ldrh	r0, [r0, #22]
 249              	.LVL23:
 250 0004 FFF7FEFF 		bl	lwip_htons
 251              	.LVL24:
  75:Source\azure_iot_sdk\c-utility\Socket\src/Endpoint.cpp **** }
 252              		.loc 1 75 0
 253              		@ sp needed
 254 0008 10BD     		pop	{r4, pc}
 255              		.cfi_endproc
 256              	.LFE69:
 257              		.size	_ZN8Endpoint8get_portEv, .-_ZN8Endpoint8get_portEv
 258 000a C046     		.section	.rodata
 259              		.align	2
 260              		.set	.LANCHOR0,. + 0
 261              	.LC0:
 262 0000 A8       		.byte	-88
 263 0001 3D       		.byte	61
 264 0002 36       		.byte	54
ARM GAS  C:\Users\Phuong\AppData\Local\Temp\ccDXeF1X.s 			page 7


 265 0003 FF       		.byte	-1
 266 0004 00       		.byte	0
 267              		.section	.rodata.str1.4,"aMS",%progbits,1
 268              		.align	2
 269              	.LC2:
 270 0000 2533752E 		.ascii	"%3u.%3u.%3u.%3u\000"
 270      2533752E 
 270      2533752E 
 270      25337500 
 271              		.text
 272              	.Letext0:
 273              		.file 2 "c:\\program files (x86)\\cypress\\psoc creator\\4.2\\psoc creator\\import\\gnu\\arm\\5.4.
 274              		.file 3 "c:\\program files (x86)\\cypress\\psoc creator\\4.2\\psoc creator\\import\\gnu\\arm\\5.4.
 275              		.file 4 "c:\\program files (x86)\\cypress\\psoc creator\\4.2\\psoc creator\\import\\gnu\\arm\\5.4.
 276              		.file 5 "c:\\program files (x86)\\cypress\\psoc creator\\4.2\\psoc creator\\import\\gnu\\arm\\5.4.
 277              		.file 6 "c:\\program files (x86)\\cypress\\psoc creator\\4.2\\psoc creator\\import\\gnu\\arm\\5.4.
 278              		.file 7 "c:\\program files (x86)\\cypress\\psoc creator\\4.2\\psoc creator\\import\\gnu\\arm\\5.4.
 279              		.file 8 "c:\\program files (x86)\\cypress\\psoc creator\\4.2\\psoc creator\\import\\gnu\\arm\\5.4.
 280              		.file 9 ".\\Source\\LwIP\\src\\include/arch/cc.h"
 281              		.file 10 ".\\Source\\LwIP\\src\\include/lwip/inet.h"
 282              		.file 11 ".\\Source\\LwIP\\src\\include/lwip/sockets.h"
 283              		.file 12 ".\\Source\\azure_iot_sdk\\c-utility\\Socket\\inc/Endpoint.h"
 284              		.file 13 "c:\\program files (x86)\\cypress\\psoc creator\\4.2\\psoc creator\\import\\gnu\\arm\\5.4
 285              		.file 14 "c:\\program files (x86)\\cypress\\psoc creator\\4.2\\psoc creator\\import\\gnu\\arm\\5.4
 286              		.file 15 "c:\\program files (x86)\\cypress\\psoc creator\\4.2\\psoc creator\\import\\gnu\\arm\\5.4
 287              		.file 16 "c:\\program files (x86)\\cypress\\psoc creator\\4.2\\psoc creator\\import\\gnu\\arm\\5.4
 288              		.file 17 ".\\Source\\LwIP\\src\\include/lwip/def.h"
 289              		.file 18 ".\\Source\\LwIP\\src\\include/lwip/ip4_addr.h"
 290              		.file 19 "<built-in>"