ARM GAS  C:\Users\Phuong\AppData\Local\Temp\cczAUGdE.s 			page 1


   1              		.syntax unified
   2              		.cpu cortex-m0plus
   3              		.fpu softvfp
   4              		.eabi_attribute 20, 1
   5              		.eabi_attribute 21, 1
   6              		.eabi_attribute 23, 3
   7              		.eabi_attribute 24, 1
   8              		.eabi_attribute 25, 1
   9              		.eabi_attribute 26, 1
  10              		.eabi_attribute 30, 1
  11              		.eabi_attribute 34, 0
  12              		.eabi_attribute 18, 4
  13              		.thumb
  14              		.syntax unified
  15              		.file	"etharp.c"
  16              		.text
  17              	.Ltext0:
  18              		.cfi_sections	.debug_frame
  19              		.section	.text.free_etharp_q,"ax",%progbits
  20              		.align	2
  21              		.code	16
  22              		.thumb_func
  23              		.type	free_etharp_q, %function
  24              	free_etharp_q:
  25              	.LFB53:
  26              		.file 1 "Source\\LwIP\\src\\core\\ipv4\\etharp.c"
   1:Source\LwIP\src\core\ipv4/etharp.c **** /**
   2:Source\LwIP\src\core\ipv4/etharp.c ****  * @file
   3:Source\LwIP\src\core\ipv4/etharp.c ****  * Address Resolution Protocol module for IP over Ethernet
   4:Source\LwIP\src\core\ipv4/etharp.c ****  *
   5:Source\LwIP\src\core\ipv4/etharp.c ****  * Functionally, ARP is divided into two parts. The first maps an IP address
   6:Source\LwIP\src\core\ipv4/etharp.c ****  * to a physical address when sending a packet, and the second part answers
   7:Source\LwIP\src\core\ipv4/etharp.c ****  * requests from other machines for our physical address.
   8:Source\LwIP\src\core\ipv4/etharp.c ****  *
   9:Source\LwIP\src\core\ipv4/etharp.c ****  * This implementation complies with RFC 826 (Ethernet ARP). It supports
  10:Source\LwIP\src\core\ipv4/etharp.c ****  * Gratuitious ARP from RFC3220 (IP Mobility Support for IPv4) section 4.6
  11:Source\LwIP\src\core\ipv4/etharp.c ****  * if an interface calls etharp_gratuitous(our_netif) upon address change.
  12:Source\LwIP\src\core\ipv4/etharp.c ****  */
  13:Source\LwIP\src\core\ipv4/etharp.c **** 
  14:Source\LwIP\src\core\ipv4/etharp.c **** /*
  15:Source\LwIP\src\core\ipv4/etharp.c ****  * Copyright (c) 2001-2003 Swedish Institute of Computer Science.
  16:Source\LwIP\src\core\ipv4/etharp.c ****  * Copyright (c) 2003-2004 Leon Woestenberg <leon.woestenberg@axon.tv>
  17:Source\LwIP\src\core\ipv4/etharp.c ****  * Copyright (c) 2003-2004 Axon Digital Design B.V., The Netherlands.
  18:Source\LwIP\src\core\ipv4/etharp.c ****  * All rights reserved.
  19:Source\LwIP\src\core\ipv4/etharp.c ****  *
  20:Source\LwIP\src\core\ipv4/etharp.c ****  * Redistribution and use in source and binary forms, with or without modification,
  21:Source\LwIP\src\core\ipv4/etharp.c ****  * are permitted provided that the following conditions are met:
  22:Source\LwIP\src\core\ipv4/etharp.c ****  *
  23:Source\LwIP\src\core\ipv4/etharp.c ****  * 1. Redistributions of source code must retain the above copyright notice,
  24:Source\LwIP\src\core\ipv4/etharp.c ****  *    this list of conditions and the following disclaimer.
  25:Source\LwIP\src\core\ipv4/etharp.c ****  * 2. Redistributions in binary form must reproduce the above copyright notice,
  26:Source\LwIP\src\core\ipv4/etharp.c ****  *    this list of conditions and the following disclaimer in the documentation
  27:Source\LwIP\src\core\ipv4/etharp.c ****  *    and/or other materials provided with the distribution.
  28:Source\LwIP\src\core\ipv4/etharp.c ****  * 3. The name of the author may not be used to endorse or promote products
  29:Source\LwIP\src\core\ipv4/etharp.c ****  *    derived from this software without specific prior written permission.
  30:Source\LwIP\src\core\ipv4/etharp.c ****  *
  31:Source\LwIP\src\core\ipv4/etharp.c ****  * THIS SOFTWARE IS PROVIDED BY THE AUTHOR ``AS IS'' AND ANY EXPRESS OR IMPLIED
ARM GAS  C:\Users\Phuong\AppData\Local\Temp\cczAUGdE.s 			page 2


  32:Source\LwIP\src\core\ipv4/etharp.c ****  * WARRANTIES, INCLUDING, BUT NOT LIMITED TO, THE IMPLIED WARRANTIES OF
  33:Source\LwIP\src\core\ipv4/etharp.c ****  * MERCHANTABILITY AND FITNESS FOR A PARTICULAR PURPOSE ARE DISCLAIMED. IN NO EVENT
  34:Source\LwIP\src\core\ipv4/etharp.c ****  * SHALL THE AUTHOR BE LIABLE FOR ANY DIRECT, INDIRECT, INCIDENTAL, SPECIAL,
  35:Source\LwIP\src\core\ipv4/etharp.c ****  * EXEMPLARY, OR CONSEQUENTIAL DAMAGES (INCLUDING, BUT NOT LIMITED TO, PROCUREMENT
  36:Source\LwIP\src\core\ipv4/etharp.c ****  * OF SUBSTITUTE GOODS OR SERVICES; LOSS OF USE, DATA, OR PROFITS; OR BUSINESS
  37:Source\LwIP\src\core\ipv4/etharp.c ****  * INTERRUPTION) HOWEVER CAUSED AND ON ANY THEORY OF LIABILITY, WHETHER IN
  38:Source\LwIP\src\core\ipv4/etharp.c ****  * CONTRACT, STRICT LIABILITY, OR TORT (INCLUDING NEGLIGENCE OR OTHERWISE) ARISING
  39:Source\LwIP\src\core\ipv4/etharp.c ****  * IN ANY WAY OUT OF THE USE OF THIS SOFTWARE, EVEN IF ADVISED OF THE POSSIBILITY
  40:Source\LwIP\src\core\ipv4/etharp.c ****  * OF SUCH DAMAGE.
  41:Source\LwIP\src\core\ipv4/etharp.c ****  *
  42:Source\LwIP\src\core\ipv4/etharp.c ****  * This file is part of the lwIP TCP/IP stack.
  43:Source\LwIP\src\core\ipv4/etharp.c ****  *
  44:Source\LwIP\src\core\ipv4/etharp.c ****  */
  45:Source\LwIP\src\core\ipv4/etharp.c **** 
  46:Source\LwIP\src\core\ipv4/etharp.c **** #include "lwip/opt.h"
  47:Source\LwIP\src\core\ipv4/etharp.c **** 
  48:Source\LwIP\src\core\ipv4/etharp.c **** #if LWIP_ARP || LWIP_ETHERNET
  49:Source\LwIP\src\core\ipv4/etharp.c **** 
  50:Source\LwIP\src\core\ipv4/etharp.c **** #include "lwip/etharp.h"
  51:Source\LwIP\src\core\ipv4/etharp.c **** #include "lwip/stats.h"
  52:Source\LwIP\src\core\ipv4/etharp.c **** #include "lwip/snmp.h"
  53:Source\LwIP\src\core\ipv4/etharp.c **** #include "lwip/dhcp.h"
  54:Source\LwIP\src\core\ipv4/etharp.c **** #include "lwip/autoip.h"
  55:Source\LwIP\src\core\ipv4/etharp.c **** #include "netif/ethernet.h"
  56:Source\LwIP\src\core\ipv4/etharp.c **** 
  57:Source\LwIP\src\core\ipv4/etharp.c **** #include <string.h>
  58:Source\LwIP\src\core\ipv4/etharp.c **** 
  59:Source\LwIP\src\core\ipv4/etharp.c **** #ifdef LWIP_HOOK_FILENAME
  60:Source\LwIP\src\core\ipv4/etharp.c **** #include LWIP_HOOK_FILENAME
  61:Source\LwIP\src\core\ipv4/etharp.c **** #endif
  62:Source\LwIP\src\core\ipv4/etharp.c **** 
  63:Source\LwIP\src\core\ipv4/etharp.c **** #if LWIP_IPV4 && LWIP_ARP /* don't build if not configured for use in lwipopts.h */
  64:Source\LwIP\src\core\ipv4/etharp.c **** 
  65:Source\LwIP\src\core\ipv4/etharp.c **** /** Re-request a used ARP entry 1 minute before it would expire to prevent
  66:Source\LwIP\src\core\ipv4/etharp.c ****  *  breaking a steadily used connection because the ARP entry timed out. */
  67:Source\LwIP\src\core\ipv4/etharp.c **** #define ARP_AGE_REREQUEST_USED_UNICAST   (ARP_MAXAGE - 30)
  68:Source\LwIP\src\core\ipv4/etharp.c **** #define ARP_AGE_REREQUEST_USED_BROADCAST (ARP_MAXAGE - 15)
  69:Source\LwIP\src\core\ipv4/etharp.c **** 
  70:Source\LwIP\src\core\ipv4/etharp.c **** /** the time an ARP entry stays pending after first request,
  71:Source\LwIP\src\core\ipv4/etharp.c ****  *  for ARP_TMR_INTERVAL = 1000, this is
  72:Source\LwIP\src\core\ipv4/etharp.c ****  *  10 seconds.
  73:Source\LwIP\src\core\ipv4/etharp.c ****  *
  74:Source\LwIP\src\core\ipv4/etharp.c ****  *  @internal Keep this number at least 2, otherwise it might
  75:Source\LwIP\src\core\ipv4/etharp.c ****  *  run out instantly if the timeout occurs directly after a request.
  76:Source\LwIP\src\core\ipv4/etharp.c ****  */
  77:Source\LwIP\src\core\ipv4/etharp.c **** #define ARP_MAXPENDING 5
  78:Source\LwIP\src\core\ipv4/etharp.c **** 
  79:Source\LwIP\src\core\ipv4/etharp.c **** /** ARP states */
  80:Source\LwIP\src\core\ipv4/etharp.c **** enum etharp_state {
  81:Source\LwIP\src\core\ipv4/etharp.c ****   ETHARP_STATE_EMPTY = 0,
  82:Source\LwIP\src\core\ipv4/etharp.c ****   ETHARP_STATE_PENDING,
  83:Source\LwIP\src\core\ipv4/etharp.c ****   ETHARP_STATE_STABLE,
  84:Source\LwIP\src\core\ipv4/etharp.c ****   ETHARP_STATE_STABLE_REREQUESTING_1,
  85:Source\LwIP\src\core\ipv4/etharp.c ****   ETHARP_STATE_STABLE_REREQUESTING_2
  86:Source\LwIP\src\core\ipv4/etharp.c **** #if ETHARP_SUPPORT_STATIC_ENTRIES
  87:Source\LwIP\src\core\ipv4/etharp.c ****   ,ETHARP_STATE_STATIC
  88:Source\LwIP\src\core\ipv4/etharp.c **** #endif /* ETHARP_SUPPORT_STATIC_ENTRIES */
ARM GAS  C:\Users\Phuong\AppData\Local\Temp\cczAUGdE.s 			page 3


  89:Source\LwIP\src\core\ipv4/etharp.c **** };
  90:Source\LwIP\src\core\ipv4/etharp.c **** 
  91:Source\LwIP\src\core\ipv4/etharp.c **** struct etharp_entry {
  92:Source\LwIP\src\core\ipv4/etharp.c **** #if ARP_QUEUEING
  93:Source\LwIP\src\core\ipv4/etharp.c ****   /** Pointer to queue of pending outgoing packets on this ARP entry. */
  94:Source\LwIP\src\core\ipv4/etharp.c ****   struct etharp_q_entry *q;
  95:Source\LwIP\src\core\ipv4/etharp.c **** #else /* ARP_QUEUEING */
  96:Source\LwIP\src\core\ipv4/etharp.c ****   /** Pointer to a single pending outgoing packet on this ARP entry. */
  97:Source\LwIP\src\core\ipv4/etharp.c ****   struct pbuf *q;
  98:Source\LwIP\src\core\ipv4/etharp.c **** #endif /* ARP_QUEUEING */
  99:Source\LwIP\src\core\ipv4/etharp.c ****   ip4_addr_t ipaddr;
 100:Source\LwIP\src\core\ipv4/etharp.c ****   struct netif *netif;
 101:Source\LwIP\src\core\ipv4/etharp.c ****   struct eth_addr ethaddr;
 102:Source\LwIP\src\core\ipv4/etharp.c ****   u16_t ctime;
 103:Source\LwIP\src\core\ipv4/etharp.c ****   u8_t state;
 104:Source\LwIP\src\core\ipv4/etharp.c **** };
 105:Source\LwIP\src\core\ipv4/etharp.c **** 
 106:Source\LwIP\src\core\ipv4/etharp.c **** static struct etharp_entry arp_table[ARP_TABLE_SIZE];
 107:Source\LwIP\src\core\ipv4/etharp.c **** 
 108:Source\LwIP\src\core\ipv4/etharp.c **** #if !LWIP_NETIF_HWADDRHINT
 109:Source\LwIP\src\core\ipv4/etharp.c **** static u8_t etharp_cached_entry;
 110:Source\LwIP\src\core\ipv4/etharp.c **** #endif /* !LWIP_NETIF_HWADDRHINT */
 111:Source\LwIP\src\core\ipv4/etharp.c **** 
 112:Source\LwIP\src\core\ipv4/etharp.c **** /** Try hard to create a new entry - we want the IP address to appear in
 113:Source\LwIP\src\core\ipv4/etharp.c ****     the cache (even if this means removing an active entry or so). */
 114:Source\LwIP\src\core\ipv4/etharp.c **** #define ETHARP_FLAG_TRY_HARD     1
 115:Source\LwIP\src\core\ipv4/etharp.c **** #define ETHARP_FLAG_FIND_ONLY    2
 116:Source\LwIP\src\core\ipv4/etharp.c **** #if ETHARP_SUPPORT_STATIC_ENTRIES
 117:Source\LwIP\src\core\ipv4/etharp.c **** #define ETHARP_FLAG_STATIC_ENTRY 4
 118:Source\LwIP\src\core\ipv4/etharp.c **** #endif /* ETHARP_SUPPORT_STATIC_ENTRIES */
 119:Source\LwIP\src\core\ipv4/etharp.c **** 
 120:Source\LwIP\src\core\ipv4/etharp.c **** #if LWIP_NETIF_HWADDRHINT
 121:Source\LwIP\src\core\ipv4/etharp.c **** #define ETHARP_SET_HINT(netif, hint)  if (((netif) != NULL) && ((netif)->addr_hint != NULL))  \
 122:Source\LwIP\src\core\ipv4/etharp.c ****                                       *((netif)->addr_hint) = (hint);
 123:Source\LwIP\src\core\ipv4/etharp.c **** #else /* LWIP_NETIF_HWADDRHINT */
 124:Source\LwIP\src\core\ipv4/etharp.c **** #define ETHARP_SET_HINT(netif, hint)  (etharp_cached_entry = (hint))
 125:Source\LwIP\src\core\ipv4/etharp.c **** #endif /* LWIP_NETIF_HWADDRHINT */
 126:Source\LwIP\src\core\ipv4/etharp.c **** 
 127:Source\LwIP\src\core\ipv4/etharp.c **** 
 128:Source\LwIP\src\core\ipv4/etharp.c **** /* Some checks, instead of etharp_init(): */
 129:Source\LwIP\src\core\ipv4/etharp.c **** #if (LWIP_ARP && (ARP_TABLE_SIZE > 0x7f))
 130:Source\LwIP\src\core\ipv4/etharp.c ****   #error "ARP_TABLE_SIZE must fit in an s8_t, you have to reduce it in your lwipopts.h"
 131:Source\LwIP\src\core\ipv4/etharp.c **** #endif
 132:Source\LwIP\src\core\ipv4/etharp.c **** 
 133:Source\LwIP\src\core\ipv4/etharp.c **** 
 134:Source\LwIP\src\core\ipv4/etharp.c **** static err_t etharp_request_dst(struct netif *netif, const ip4_addr_t *ipaddr, const struct eth_add
 135:Source\LwIP\src\core\ipv4/etharp.c **** static err_t etharp_raw(struct netif *netif,
 136:Source\LwIP\src\core\ipv4/etharp.c ****                         const struct eth_addr *ethsrc_addr, const struct eth_addr *ethdst_addr,
 137:Source\LwIP\src\core\ipv4/etharp.c ****                         const struct eth_addr *hwsrc_addr, const ip4_addr_t *ipsrc_addr,
 138:Source\LwIP\src\core\ipv4/etharp.c ****                         const struct eth_addr *hwdst_addr, const ip4_addr_t *ipdst_addr,
 139:Source\LwIP\src\core\ipv4/etharp.c ****                         const u16_t opcode);
 140:Source\LwIP\src\core\ipv4/etharp.c **** 
 141:Source\LwIP\src\core\ipv4/etharp.c **** #if ARP_QUEUEING
 142:Source\LwIP\src\core\ipv4/etharp.c **** /**
 143:Source\LwIP\src\core\ipv4/etharp.c ****  * Free a complete queue of etharp entries
 144:Source\LwIP\src\core\ipv4/etharp.c ****  *
 145:Source\LwIP\src\core\ipv4/etharp.c ****  * @param q a qeueue of etharp_q_entry's to free
ARM GAS  C:\Users\Phuong\AppData\Local\Temp\cczAUGdE.s 			page 4


 146:Source\LwIP\src\core\ipv4/etharp.c ****  */
 147:Source\LwIP\src\core\ipv4/etharp.c **** static void
 148:Source\LwIP\src\core\ipv4/etharp.c **** free_etharp_q(struct etharp_q_entry *q)
 149:Source\LwIP\src\core\ipv4/etharp.c **** {
  27              		.loc 1 149 0
  28              		.cfi_startproc
  29              		@ args = 0, pretend = 0, frame = 0
  30              		@ frame_needed = 0, uses_anonymous_args = 0
  31              	.LVL0:
  32 0000 70B5     		push	{r4, r5, r6, lr}
  33              		.cfi_def_cfa_offset 16
  34              		.cfi_offset 4, -16
  35              		.cfi_offset 5, -12
  36              		.cfi_offset 6, -8
  37              		.cfi_offset 14, -4
  38 0002 0400     		movs	r4, r0
  39 0004 08E0     		b	.L2
  40              	.LVL1:
  41              	.L3:
 150:Source\LwIP\src\core\ipv4/etharp.c ****   struct etharp_q_entry *r;
 151:Source\LwIP\src\core\ipv4/etharp.c ****   LWIP_ASSERT("q != NULL", q != NULL);
 152:Source\LwIP\src\core\ipv4/etharp.c ****   LWIP_ASSERT("q->p != NULL", q->p != NULL);
 153:Source\LwIP\src\core\ipv4/etharp.c ****   while (q) {
 154:Source\LwIP\src\core\ipv4/etharp.c ****     r = q;
 155:Source\LwIP\src\core\ipv4/etharp.c ****     q = q->next;
  42              		.loc 1 155 0
  43 0006 2568     		ldr	r5, [r4]
  44              	.LVL2:
 156:Source\LwIP\src\core\ipv4/etharp.c ****     LWIP_ASSERT("r->p != NULL", (r->p != NULL));
 157:Source\LwIP\src\core\ipv4/etharp.c ****     pbuf_free(r->p);
  45              		.loc 1 157 0
  46 0008 6068     		ldr	r0, [r4, #4]
  47 000a FFF7FEFF 		bl	pbuf_free
  48              	.LVL3:
 158:Source\LwIP\src\core\ipv4/etharp.c ****     memp_free(MEMP_ARP_QUEUE, r);
  49              		.loc 1 158 0
  50 000e 2100     		movs	r1, r4
  51 0010 0A20     		movs	r0, #10
  52 0012 FFF7FEFF 		bl	memp_free
  53              	.LVL4:
 155:Source\LwIP\src\core\ipv4/etharp.c ****     LWIP_ASSERT("r->p != NULL", (r->p != NULL));
  54              		.loc 1 155 0
  55 0016 2C00     		movs	r4, r5
  56              	.LVL5:
  57              	.L2:
 153:Source\LwIP\src\core\ipv4/etharp.c ****     r = q;
  58              		.loc 1 153 0
  59 0018 002C     		cmp	r4, #0
  60 001a F4D1     		bne	.L3
 159:Source\LwIP\src\core\ipv4/etharp.c ****   }
 160:Source\LwIP\src\core\ipv4/etharp.c **** }
  61              		.loc 1 160 0
  62              		@ sp needed
  63              	.LVL6:
  64 001c 70BD     		pop	{r4, r5, r6, pc}
  65              		.cfi_endproc
  66              	.LFE53:
ARM GAS  C:\Users\Phuong\AppData\Local\Temp\cczAUGdE.s 			page 5


  67              		.size	free_etharp_q, .-free_etharp_q
  68 001e C046     		.section	.text.etharp_free_entry,"ax",%progbits
  69              		.align	2
  70              		.code	16
  71              		.thumb_func
  72              		.type	etharp_free_entry, %function
  73              	etharp_free_entry:
  74              	.LFB54:
 161:Source\LwIP\src\core\ipv4/etharp.c **** #else /* ARP_QUEUEING */
 162:Source\LwIP\src\core\ipv4/etharp.c **** 
 163:Source\LwIP\src\core\ipv4/etharp.c **** /** Compatibility define: free the queued pbuf */
 164:Source\LwIP\src\core\ipv4/etharp.c **** #define free_etharp_q(q) pbuf_free(q)
 165:Source\LwIP\src\core\ipv4/etharp.c **** 
 166:Source\LwIP\src\core\ipv4/etharp.c **** #endif /* ARP_QUEUEING */
 167:Source\LwIP\src\core\ipv4/etharp.c **** 
 168:Source\LwIP\src\core\ipv4/etharp.c **** /** Clean up ARP table entries */
 169:Source\LwIP\src\core\ipv4/etharp.c **** static void
 170:Source\LwIP\src\core\ipv4/etharp.c **** etharp_free_entry(int i)
 171:Source\LwIP\src\core\ipv4/etharp.c **** {
  75              		.loc 1 171 0
  76              		.cfi_startproc
  77              		@ args = 0, pretend = 0, frame = 0
  78              		@ frame_needed = 0, uses_anonymous_args = 0
  79              	.LVL7:
  80 0000 10B5     		push	{r4, lr}
  81              		.cfi_def_cfa_offset 8
  82              		.cfi_offset 4, -8
  83              		.cfi_offset 14, -4
  84 0002 0400     		movs	r4, r0
 172:Source\LwIP\src\core\ipv4/etharp.c ****   /* remove from SNMP ARP index tree */
 173:Source\LwIP\src\core\ipv4/etharp.c ****   mib2_remove_arp_entry(arp_table[i].netif, &arp_table[i].ipaddr);
 174:Source\LwIP\src\core\ipv4/etharp.c ****   /* and empty packet queue */
 175:Source\LwIP\src\core\ipv4/etharp.c ****   if (arp_table[i].q != NULL) {
  85              		.loc 1 175 0
  86 0004 4300     		lsls	r3, r0, #1
  87 0006 1B18     		adds	r3, r3, r0
  88 0008 DA00     		lsls	r2, r3, #3
  89 000a 104B     		ldr	r3, .L6
  90 000c D058     		ldr	r0, [r2, r3]
  91              	.LVL8:
  92 000e 0028     		cmp	r0, #0
  93 0010 07D0     		beq	.L5
 176:Source\LwIP\src\core\ipv4/etharp.c ****     /* remove all queued packets */
 177:Source\LwIP\src\core\ipv4/etharp.c ****     LWIP_DEBUGF(ETHARP_DEBUG, ("etharp_free_entry: freeing entry %"U16_F", packet queue %p.\n", (u1
 178:Source\LwIP\src\core\ipv4/etharp.c ****     free_etharp_q(arp_table[i].q);
  94              		.loc 1 178 0
  95 0012 FFF7FEFF 		bl	free_etharp_q
  96              	.LVL9:
 179:Source\LwIP\src\core\ipv4/etharp.c ****     arp_table[i].q = NULL;
  97              		.loc 1 179 0
  98 0016 6300     		lsls	r3, r4, #1
  99 0018 1B19     		adds	r3, r3, r4
 100 001a DA00     		lsls	r2, r3, #3
 101 001c 0021     		movs	r1, #0
 102 001e 0B4B     		ldr	r3, .L6
 103 0020 D150     		str	r1, [r2, r3]
 104              	.L5:
ARM GAS  C:\Users\Phuong\AppData\Local\Temp\cczAUGdE.s 			page 6


 180:Source\LwIP\src\core\ipv4/etharp.c ****   }
 181:Source\LwIP\src\core\ipv4/etharp.c ****   /* recycle entry for re-use */
 182:Source\LwIP\src\core\ipv4/etharp.c ****   arp_table[i].state = ETHARP_STATE_EMPTY;
 105              		.loc 1 182 0
 106 0022 0A48     		ldr	r0, .L6
 107 0024 6100     		lsls	r1, r4, #1
 108 0026 0A19     		adds	r2, r1, r4
 109 0028 D300     		lsls	r3, r2, #3
 110 002a C318     		adds	r3, r0, r3
 111 002c 0022     		movs	r2, #0
 112 002e 1A75     		strb	r2, [r3, #20]
 183:Source\LwIP\src\core\ipv4/etharp.c **** #ifdef LWIP_DEBUG
 184:Source\LwIP\src\core\ipv4/etharp.c ****   /* for debugging, clean out the complete entry */
 185:Source\LwIP\src\core\ipv4/etharp.c ****   arp_table[i].ctime = 0;
 113              		.loc 1 185 0
 114 0030 5A82     		strh	r2, [r3, #18]
 186:Source\LwIP\src\core\ipv4/etharp.c ****   arp_table[i].netif = NULL;
 115              		.loc 1 186 0
 116 0032 9A60     		str	r2, [r3, #8]
 187:Source\LwIP\src\core\ipv4/etharp.c ****   ip4_addr_set_zero(&arp_table[i].ipaddr);
 117              		.loc 1 187 0
 118 0034 5A60     		str	r2, [r3, #4]
 188:Source\LwIP\src\core\ipv4/etharp.c ****   arp_table[i].ethaddr = ethzero;
 119              		.loc 1 188 0
 120 0036 0C19     		adds	r4, r1, r4
 121              	.LVL10:
 122 0038 E300     		lsls	r3, r4, #3
 123 003a C318     		adds	r3, r0, r3
 124 003c 0C33     		adds	r3, r3, #12
 125 003e 1800     		movs	r0, r3
 126 0040 0632     		adds	r2, r2, #6
 127 0042 0349     		ldr	r1, .L6+4
 128 0044 FFF7FEFF 		bl	memcpy
 129              	.LVL11:
 189:Source\LwIP\src\core\ipv4/etharp.c **** #endif /* LWIP_DEBUG */
 190:Source\LwIP\src\core\ipv4/etharp.c **** }
 130              		.loc 1 190 0
 131              		@ sp needed
 132 0048 10BD     		pop	{r4, pc}
 133              	.L7:
 134 004a C046     		.align	2
 135              	.L6:
 136 004c 00000000 		.word	.LANCHOR0
 137 0050 00000000 		.word	ethzero
 138              		.cfi_endproc
 139              	.LFE54:
 140              		.size	etharp_free_entry, .-etharp_free_entry
 141              		.section	.text.etharp_find_entry,"ax",%progbits
 142              		.align	2
 143              		.code	16
 144              		.thumb_func
 145              		.type	etharp_find_entry, %function
 146              	etharp_find_entry:
 147              	.LFB56:
 191:Source\LwIP\src\core\ipv4/etharp.c **** 
 192:Source\LwIP\src\core\ipv4/etharp.c **** /**
 193:Source\LwIP\src\core\ipv4/etharp.c ****  * Clears expired entries in the ARP table.
ARM GAS  C:\Users\Phuong\AppData\Local\Temp\cczAUGdE.s 			page 7


 194:Source\LwIP\src\core\ipv4/etharp.c ****  *
 195:Source\LwIP\src\core\ipv4/etharp.c ****  * This function should be called every ARP_TMR_INTERVAL milliseconds (1 second),
 196:Source\LwIP\src\core\ipv4/etharp.c ****  * in order to expire entries in the ARP table.
 197:Source\LwIP\src\core\ipv4/etharp.c ****  */
 198:Source\LwIP\src\core\ipv4/etharp.c **** void
 199:Source\LwIP\src\core\ipv4/etharp.c **** etharp_tmr(void)
 200:Source\LwIP\src\core\ipv4/etharp.c **** {
 201:Source\LwIP\src\core\ipv4/etharp.c ****   u8_t i;
 202:Source\LwIP\src\core\ipv4/etharp.c **** 
 203:Source\LwIP\src\core\ipv4/etharp.c ****   LWIP_DEBUGF(ETHARP_DEBUG, ("etharp_timer\n"));
 204:Source\LwIP\src\core\ipv4/etharp.c ****   /* remove expired entries from the ARP table */
 205:Source\LwIP\src\core\ipv4/etharp.c ****   for (i = 0; i < ARP_TABLE_SIZE; ++i) {
 206:Source\LwIP\src\core\ipv4/etharp.c ****     u8_t state = arp_table[i].state;
 207:Source\LwIP\src\core\ipv4/etharp.c ****     if (state != ETHARP_STATE_EMPTY
 208:Source\LwIP\src\core\ipv4/etharp.c **** #if ETHARP_SUPPORT_STATIC_ENTRIES
 209:Source\LwIP\src\core\ipv4/etharp.c ****       && (state != ETHARP_STATE_STATIC)
 210:Source\LwIP\src\core\ipv4/etharp.c **** #endif /* ETHARP_SUPPORT_STATIC_ENTRIES */
 211:Source\LwIP\src\core\ipv4/etharp.c ****       ) {
 212:Source\LwIP\src\core\ipv4/etharp.c ****       arp_table[i].ctime++;
 213:Source\LwIP\src\core\ipv4/etharp.c ****       if ((arp_table[i].ctime >= ARP_MAXAGE) ||
 214:Source\LwIP\src\core\ipv4/etharp.c ****           ((arp_table[i].state == ETHARP_STATE_PENDING)  &&
 215:Source\LwIP\src\core\ipv4/etharp.c ****            (arp_table[i].ctime >= ARP_MAXPENDING))) {
 216:Source\LwIP\src\core\ipv4/etharp.c ****         /* pending or stable entry has become old! */
 217:Source\LwIP\src\core\ipv4/etharp.c ****         LWIP_DEBUGF(ETHARP_DEBUG, ("etharp_timer: expired %s entry %"U16_F".\n",
 218:Source\LwIP\src\core\ipv4/etharp.c ****              arp_table[i].state >= ETHARP_STATE_STABLE ? "stable" : "pending", (u16_t)i));
 219:Source\LwIP\src\core\ipv4/etharp.c ****         /* clean up entries that have just been expired */
 220:Source\LwIP\src\core\ipv4/etharp.c ****         etharp_free_entry(i);
 221:Source\LwIP\src\core\ipv4/etharp.c ****       } else if (arp_table[i].state == ETHARP_STATE_STABLE_REREQUESTING_1) {
 222:Source\LwIP\src\core\ipv4/etharp.c ****         /* Don't send more than one request every 2 seconds. */
 223:Source\LwIP\src\core\ipv4/etharp.c ****         arp_table[i].state = ETHARP_STATE_STABLE_REREQUESTING_2;
 224:Source\LwIP\src\core\ipv4/etharp.c ****       } else if (arp_table[i].state == ETHARP_STATE_STABLE_REREQUESTING_2) {
 225:Source\LwIP\src\core\ipv4/etharp.c ****         /* Reset state to stable, so that the next transmitted packet will
 226:Source\LwIP\src\core\ipv4/etharp.c ****            re-send an ARP request. */
 227:Source\LwIP\src\core\ipv4/etharp.c ****         arp_table[i].state = ETHARP_STATE_STABLE;
 228:Source\LwIP\src\core\ipv4/etharp.c ****       } else if (arp_table[i].state == ETHARP_STATE_PENDING) {
 229:Source\LwIP\src\core\ipv4/etharp.c ****         /* still pending, resend an ARP query */
 230:Source\LwIP\src\core\ipv4/etharp.c ****         etharp_request(arp_table[i].netif, &arp_table[i].ipaddr);
 231:Source\LwIP\src\core\ipv4/etharp.c ****       }
 232:Source\LwIP\src\core\ipv4/etharp.c ****     }
 233:Source\LwIP\src\core\ipv4/etharp.c ****   }
 234:Source\LwIP\src\core\ipv4/etharp.c **** }
 235:Source\LwIP\src\core\ipv4/etharp.c **** 
 236:Source\LwIP\src\core\ipv4/etharp.c **** /**
 237:Source\LwIP\src\core\ipv4/etharp.c ****  * Search the ARP table for a matching or new entry.
 238:Source\LwIP\src\core\ipv4/etharp.c ****  *
 239:Source\LwIP\src\core\ipv4/etharp.c ****  * If an IP address is given, return a pending or stable ARP entry that matches
 240:Source\LwIP\src\core\ipv4/etharp.c ****  * the address. If no match is found, create a new entry with this address set,
 241:Source\LwIP\src\core\ipv4/etharp.c ****  * but in state ETHARP_EMPTY. The caller must check and possibly change the
 242:Source\LwIP\src\core\ipv4/etharp.c ****  * state of the returned entry.
 243:Source\LwIP\src\core\ipv4/etharp.c ****  *
 244:Source\LwIP\src\core\ipv4/etharp.c ****  * If ipaddr is NULL, return a initialized new entry in state ETHARP_EMPTY.
 245:Source\LwIP\src\core\ipv4/etharp.c ****  *
 246:Source\LwIP\src\core\ipv4/etharp.c ****  * In all cases, attempt to create new entries from an empty entry. If no
 247:Source\LwIP\src\core\ipv4/etharp.c ****  * empty entries are available and ETHARP_FLAG_TRY_HARD flag is set, recycle
 248:Source\LwIP\src\core\ipv4/etharp.c ****  * old entries. Heuristic choose the least important entry for recycling.
 249:Source\LwIP\src\core\ipv4/etharp.c ****  *
 250:Source\LwIP\src\core\ipv4/etharp.c ****  * @param ipaddr IP address to find in ARP cache, or to add if not found.
ARM GAS  C:\Users\Phuong\AppData\Local\Temp\cczAUGdE.s 			page 8


 251:Source\LwIP\src\core\ipv4/etharp.c ****  * @param flags See @ref etharp_state
 252:Source\LwIP\src\core\ipv4/etharp.c ****  * @param netif netif related to this address (used for NETIF_HWADDRHINT)
 253:Source\LwIP\src\core\ipv4/etharp.c ****  *
 254:Source\LwIP\src\core\ipv4/etharp.c ****  * @return The ARP entry index that matched or is created, ERR_MEM if no
 255:Source\LwIP\src\core\ipv4/etharp.c ****  * entry is found or could be recycled.
 256:Source\LwIP\src\core\ipv4/etharp.c ****  */
 257:Source\LwIP\src\core\ipv4/etharp.c **** static s8_t
 258:Source\LwIP\src\core\ipv4/etharp.c **** etharp_find_entry(const ip4_addr_t *ipaddr, u8_t flags, struct netif* netif)
 259:Source\LwIP\src\core\ipv4/etharp.c **** {
 148              		.loc 1 259 0
 149              		.cfi_startproc
 150              		@ args = 0, pretend = 0, frame = 8
 151              		@ frame_needed = 0, uses_anonymous_args = 0
 152              	.LVL12:
 153 0000 F0B5     		push	{r4, r5, r6, r7, lr}
 154              		.cfi_def_cfa_offset 20
 155              		.cfi_offset 4, -20
 156              		.cfi_offset 5, -16
 157              		.cfi_offset 6, -12
 158              		.cfi_offset 7, -8
 159              		.cfi_offset 14, -4
 160 0002 5F46     		mov	r7, fp
 161 0004 5646     		mov	r6, r10
 162 0006 4D46     		mov	r5, r9
 163 0008 4446     		mov	r4, r8
 164 000a F0B4     		push	{r4, r5, r6, r7}
 165              		.cfi_def_cfa_offset 36
 166              		.cfi_offset 8, -36
 167              		.cfi_offset 9, -32
 168              		.cfi_offset 10, -28
 169              		.cfi_offset 11, -24
 170 000c 83B0     		sub	sp, sp, #12
 171              		.cfi_def_cfa_offset 48
 172 000e 0700     		movs	r7, r0
 173 0010 0191     		str	r1, [sp, #4]
 174              	.LVL13:
 260:Source\LwIP\src\core\ipv4/etharp.c ****   s8_t old_pending = ARP_TABLE_SIZE, old_stable = ARP_TABLE_SIZE;
 261:Source\LwIP\src\core\ipv4/etharp.c ****   s8_t empty = ARP_TABLE_SIZE;
 262:Source\LwIP\src\core\ipv4/etharp.c ****   u8_t i = 0;
 263:Source\LwIP\src\core\ipv4/etharp.c ****   /* oldest entry with packets on queue */
 264:Source\LwIP\src\core\ipv4/etharp.c ****   s8_t old_queue = ARP_TABLE_SIZE;
 265:Source\LwIP\src\core\ipv4/etharp.c ****   /* its age */
 266:Source\LwIP\src\core\ipv4/etharp.c ****   u16_t age_queue = 0, age_pending = 0, age_stable = 0;
 175              		.loc 1 266 0
 176 0012 0021     		movs	r1, #0
 177              	.LVL14:
 178 0014 0023     		movs	r3, #0
 179 0016 9946     		mov	r9, r3
 180 0018 9846     		mov	r8, r3
 264:Source\LwIP\src\core\ipv4/etharp.c ****   /* its age */
 181              		.loc 1 264 0
 182 001a 0A33     		adds	r3, r3, #10
 183 001c 9A46     		mov	r10, r3
 267:Source\LwIP\src\core\ipv4/etharp.c **** 
 268:Source\LwIP\src\core\ipv4/etharp.c ****   LWIP_UNUSED_ARG(netif);
 269:Source\LwIP\src\core\ipv4/etharp.c **** 
 270:Source\LwIP\src\core\ipv4/etharp.c ****   /**
ARM GAS  C:\Users\Phuong\AppData\Local\Temp\cczAUGdE.s 			page 9


 271:Source\LwIP\src\core\ipv4/etharp.c ****    * a) do a search through the cache, remember candidates
 272:Source\LwIP\src\core\ipv4/etharp.c ****    * b) select candidate entry
 273:Source\LwIP\src\core\ipv4/etharp.c ****    * c) create new entry
 274:Source\LwIP\src\core\ipv4/etharp.c ****    */
 275:Source\LwIP\src\core\ipv4/etharp.c **** 
 276:Source\LwIP\src\core\ipv4/etharp.c ****   /* a) in a single search sweep, do all of this
 277:Source\LwIP\src\core\ipv4/etharp.c ****    * 1) remember the first empty entry (if any)
 278:Source\LwIP\src\core\ipv4/etharp.c ****    * 2) remember the oldest stable entry (if any)
 279:Source\LwIP\src\core\ipv4/etharp.c ****    * 3) remember the oldest pending entry without queued packets (if any)
 280:Source\LwIP\src\core\ipv4/etharp.c ****    * 4) remember the oldest pending entry with queued packets (if any)
 281:Source\LwIP\src\core\ipv4/etharp.c ****    * 5) search for a matching IP entry, either pending or stable
 282:Source\LwIP\src\core\ipv4/etharp.c ****    *    until 5 matches, or all entries are searched for.
 283:Source\LwIP\src\core\ipv4/etharp.c ****    */
 284:Source\LwIP\src\core\ipv4/etharp.c **** 
 285:Source\LwIP\src\core\ipv4/etharp.c ****   for (i = 0; i < ARP_TABLE_SIZE; ++i) {
 184              		.loc 1 285 0
 185 001e 0020     		movs	r0, #0
 186              	.LVL15:
 261:Source\LwIP\src\core\ipv4/etharp.c ****   u8_t i = 0;
 187              		.loc 1 261 0
 188 0020 0A26     		movs	r6, #10
 260:Source\LwIP\src\core\ipv4/etharp.c ****   s8_t empty = ARP_TABLE_SIZE;
 189              		.loc 1 260 0
 190 0022 9C46     		mov	ip, r3
 191 0024 9B46     		mov	fp, r3
 192              		.loc 1 285 0
 193 0026 49E0     		b	.L9
 194              	.LVL16:
 195              	.L16:
 196              	.LBB2:
 286:Source\LwIP\src\core\ipv4/etharp.c ****     u8_t state = arp_table[i].state;
 197              		.loc 1 286 0
 198 0028 0400     		movs	r4, r0
 199 002a 4200     		lsls	r2, r0, #1
 200 002c 1218     		adds	r2, r2, r0
 201 002e D300     		lsls	r3, r2, #3
 202 0030 474A     		ldr	r2, .L27
 203 0032 D318     		adds	r3, r2, r3
 204 0034 1B7D     		ldrb	r3, [r3, #20]
 205              	.LVL17:
 287:Source\LwIP\src\core\ipv4/etharp.c ****     /* no empty entry found yet and now we do find one? */
 288:Source\LwIP\src\core\ipv4/etharp.c ****     if ((empty == ARP_TABLE_SIZE) && (state == ETHARP_STATE_EMPTY)) {
 206              		.loc 1 288 0
 207 0036 0A2E     		cmp	r6, #10
 208 0038 03D1     		bne	.L10
 209              		.loc 1 288 0 is_stmt 0 discriminator 1
 210 003a 002B     		cmp	r3, #0
 211 003c 01D1     		bne	.L10
 289:Source\LwIP\src\core\ipv4/etharp.c ****       LWIP_DEBUGF(ETHARP_DEBUG, ("etharp_find_entry: found empty entry %"U16_F"\n", (u16_t)i));
 290:Source\LwIP\src\core\ipv4/etharp.c ****       /* remember first empty entry */
 291:Source\LwIP\src\core\ipv4/etharp.c ****       empty = i;
 212              		.loc 1 291 0 is_stmt 1
 213 003e 46B2     		sxtb	r6, r0
 214              	.LVL18:
 215 0040 3AE0     		b	.L11
 216              	.L10:
 292:Source\LwIP\src\core\ipv4/etharp.c ****     } else if (state != ETHARP_STATE_EMPTY) {
ARM GAS  C:\Users\Phuong\AppData\Local\Temp\cczAUGdE.s 			page 10


 217              		.loc 1 292 0
 218 0042 002B     		cmp	r3, #0
 219 0044 38D0     		beq	.L11
 293:Source\LwIP\src\core\ipv4/etharp.c ****       LWIP_ASSERT("state == ETHARP_STATE_PENDING || state >= ETHARP_STATE_STABLE",
 294:Source\LwIP\src\core\ipv4/etharp.c ****         state == ETHARP_STATE_PENDING || state >= ETHARP_STATE_STABLE);
 295:Source\LwIP\src\core\ipv4/etharp.c ****       /* if given, does IP address match IP address in ARP entry? */
 296:Source\LwIP\src\core\ipv4/etharp.c ****       if (ipaddr && ip4_addr_cmp(ipaddr, &arp_table[i].ipaddr)
 220              		.loc 1 296 0
 221 0046 002F     		cmp	r7, #0
 222 0048 0AD0     		beq	.L12
 223              		.loc 1 296 0 is_stmt 0 discriminator 1
 224 004a 6200     		lsls	r2, r4, #1
 225 004c 1519     		adds	r5, r2, r4
 226 004e EA00     		lsls	r2, r5, #3
 227 0050 3F4D     		ldr	r5, .L27
 228 0052 AA18     		adds	r2, r5, r2
 229 0054 5268     		ldr	r2, [r2, #4]
 230 0056 3D68     		ldr	r5, [r7]
 231 0058 9542     		cmp	r5, r2
 232 005a 01D1     		bne	.L12
 297:Source\LwIP\src\core\ipv4/etharp.c **** #if ETHARP_TABLE_MATCH_NETIF
 298:Source\LwIP\src\core\ipv4/etharp.c ****           && ((netif == NULL) || (netif == arp_table[i].netif))
 299:Source\LwIP\src\core\ipv4/etharp.c **** #endif /* ETHARP_TABLE_MATCH_NETIF */
 300:Source\LwIP\src\core\ipv4/etharp.c ****         ) {
 301:Source\LwIP\src\core\ipv4/etharp.c ****         LWIP_DEBUGF(ETHARP_DEBUG | LWIP_DBG_TRACE, ("etharp_find_entry: found matching entry %"U16_
 302:Source\LwIP\src\core\ipv4/etharp.c ****         /* found exact IP address match, simply bail out */
 303:Source\LwIP\src\core\ipv4/etharp.c ****         return i;
 233              		.loc 1 303 0 is_stmt 1
 234 005c 40B2     		sxtb	r0, r0
 235 005e 70E0     		b	.L13
 236              	.L12:
 304:Source\LwIP\src\core\ipv4/etharp.c ****       }
 305:Source\LwIP\src\core\ipv4/etharp.c ****       /* pending entry? */
 306:Source\LwIP\src\core\ipv4/etharp.c ****       if (state == ETHARP_STATE_PENDING) {
 237              		.loc 1 306 0
 238 0060 012B     		cmp	r3, #1
 239 0062 1CD1     		bne	.L14
 307:Source\LwIP\src\core\ipv4/etharp.c ****         /* pending with queued packets? */
 308:Source\LwIP\src\core\ipv4/etharp.c ****         if (arp_table[i].q != NULL) {
 240              		.loc 1 308 0
 241 0064 6300     		lsls	r3, r4, #1
 242              	.LVL19:
 243 0066 1B19     		adds	r3, r3, r4
 244 0068 DA00     		lsls	r2, r3, #3
 245 006a 394B     		ldr	r3, .L27
 246              	.LVL20:
 247 006c D358     		ldr	r3, [r2, r3]
 248              	.LVL21:
 249 006e 002B     		cmp	r3, #0
 250 0070 09D0     		beq	.L15
 309:Source\LwIP\src\core\ipv4/etharp.c ****           if (arp_table[i].ctime >= age_queue) {
 251              		.loc 1 309 0
 252 0072 1300     		movs	r3, r2
 253 0074 364A     		ldr	r2, .L27
 254              	.LVL22:
 255 0076 D318     		adds	r3, r2, r3
 256 0078 5B8A     		ldrh	r3, [r3, #18]
ARM GAS  C:\Users\Phuong\AppData\Local\Temp\cczAUGdE.s 			page 11


 257 007a 9845     		cmp	r8, r3
 258 007c 1CD8     		bhi	.L11
 310:Source\LwIP\src\core\ipv4/etharp.c ****             old_queue = i;
 259              		.loc 1 310 0
 260 007e 42B2     		sxtb	r2, r0
 261              	.LVL23:
 262 0080 9246     		mov	r10, r2
 263              	.LVL24:
 311:Source\LwIP\src\core\ipv4/etharp.c ****             age_queue = arp_table[i].ctime;
 264              		.loc 1 311 0
 265 0082 9846     		mov	r8, r3
 266 0084 18E0     		b	.L11
 267              	.LVL25:
 268              	.L15:
 312:Source\LwIP\src\core\ipv4/etharp.c ****           }
 313:Source\LwIP\src\core\ipv4/etharp.c ****         } else
 314:Source\LwIP\src\core\ipv4/etharp.c ****         /* pending without queued packets? */
 315:Source\LwIP\src\core\ipv4/etharp.c ****         {
 316:Source\LwIP\src\core\ipv4/etharp.c ****           if (arp_table[i].ctime >= age_pending) {
 269              		.loc 1 316 0
 270 0086 6300     		lsls	r3, r4, #1
 271 0088 1C19     		adds	r4, r3, r4
 272 008a E300     		lsls	r3, r4, #3
 273 008c 304A     		ldr	r2, .L27
 274              	.LVL26:
 275 008e D318     		adds	r3, r2, r3
 276 0090 5B8A     		ldrh	r3, [r3, #18]
 277 0092 9945     		cmp	r9, r3
 278 0094 10D8     		bhi	.L11
 317:Source\LwIP\src\core\ipv4/etharp.c ****             old_pending = i;
 279              		.loc 1 317 0
 280 0096 42B2     		sxtb	r2, r0
 281              	.LVL27:
 282 0098 9346     		mov	fp, r2
 283              	.LVL28:
 318:Source\LwIP\src\core\ipv4/etharp.c ****             age_pending = arp_table[i].ctime;
 284              		.loc 1 318 0
 285 009a 9946     		mov	r9, r3
 286 009c 0CE0     		b	.L11
 287              	.LVL29:
 288              	.L14:
 319:Source\LwIP\src\core\ipv4/etharp.c ****           }
 320:Source\LwIP\src\core\ipv4/etharp.c ****         }
 321:Source\LwIP\src\core\ipv4/etharp.c ****       /* stable entry? */
 322:Source\LwIP\src\core\ipv4/etharp.c ****       } else if (state >= ETHARP_STATE_STABLE) {
 289              		.loc 1 322 0
 290 009e 012B     		cmp	r3, #1
 291 00a0 0AD9     		bls	.L11
 323:Source\LwIP\src\core\ipv4/etharp.c **** #if ETHARP_SUPPORT_STATIC_ENTRIES
 324:Source\LwIP\src\core\ipv4/etharp.c ****         /* don't record old_stable for static entries since they never expire */
 325:Source\LwIP\src\core\ipv4/etharp.c ****         if (state < ETHARP_STATE_STATIC)
 326:Source\LwIP\src\core\ipv4/etharp.c **** #endif /* ETHARP_SUPPORT_STATIC_ENTRIES */
 327:Source\LwIP\src\core\ipv4/etharp.c ****         {
 328:Source\LwIP\src\core\ipv4/etharp.c ****           /* remember entry with oldest stable entry in oldest, its age in maxtime */
 329:Source\LwIP\src\core\ipv4/etharp.c ****           if (arp_table[i].ctime >= age_stable) {
 292              		.loc 1 329 0
 293 00a2 6300     		lsls	r3, r4, #1
ARM GAS  C:\Users\Phuong\AppData\Local\Temp\cczAUGdE.s 			page 12


 294              	.LVL30:
 295 00a4 1C19     		adds	r4, r3, r4
 296 00a6 E300     		lsls	r3, r4, #3
 297 00a8 294A     		ldr	r2, .L27
 298              	.LVL31:
 299 00aa D318     		adds	r3, r2, r3
 300 00ac 5B8A     		ldrh	r3, [r3, #18]
 301 00ae 9942     		cmp	r1, r3
 302 00b0 02D8     		bhi	.L11
 330:Source\LwIP\src\core\ipv4/etharp.c ****             old_stable = i;
 303              		.loc 1 330 0
 304 00b2 42B2     		sxtb	r2, r0
 305              	.LVL32:
 306 00b4 9446     		mov	ip, r2
 307              	.LVL33:
 331:Source\LwIP\src\core\ipv4/etharp.c ****             age_stable = arp_table[i].ctime;
 308              		.loc 1 331 0
 309 00b6 1900     		movs	r1, r3
 310              	.LVL34:
 311              	.L11:
 312              	.LBE2:
 285:Source\LwIP\src\core\ipv4/etharp.c ****     u8_t state = arp_table[i].state;
 313              		.loc 1 285 0 discriminator 2
 314 00b8 0130     		adds	r0, r0, #1
 315              	.LVL35:
 316 00ba C0B2     		uxtb	r0, r0
 317              	.LVL36:
 318              	.L9:
 285:Source\LwIP\src\core\ipv4/etharp.c ****     u8_t state = arp_table[i].state;
 319              		.loc 1 285 0 is_stmt 0 discriminator 1
 320 00bc 0928     		cmp	r0, #9
 321 00be B3D9     		bls	.L16
 332:Source\LwIP\src\core\ipv4/etharp.c ****           }
 333:Source\LwIP\src\core\ipv4/etharp.c ****         }
 334:Source\LwIP\src\core\ipv4/etharp.c ****       }
 335:Source\LwIP\src\core\ipv4/etharp.c ****     }
 336:Source\LwIP\src\core\ipv4/etharp.c ****   }
 337:Source\LwIP\src\core\ipv4/etharp.c ****   /* { we have no match } => try to create a new entry */
 338:Source\LwIP\src\core\ipv4/etharp.c **** 
 339:Source\LwIP\src\core\ipv4/etharp.c ****   /* don't create new entry, only search? */
 340:Source\LwIP\src\core\ipv4/etharp.c ****   if (((flags & ETHARP_FLAG_FIND_ONLY) != 0) ||
 322              		.loc 1 340 0 is_stmt 1
 323 00c0 019B     		ldr	r3, [sp, #4]
 324 00c2 9B07     		lsls	r3, r3, #30
 325 00c4 35D4     		bmi	.L24
 326              		.loc 1 340 0 is_stmt 0 discriminator 1
 327 00c6 0A2E     		cmp	r6, #10
 328 00c8 02D1     		bne	.L17
 341:Source\LwIP\src\core\ipv4/etharp.c ****       /* or no empty entry found and not allowed to recycle? */
 342:Source\LwIP\src\core\ipv4/etharp.c ****       ((empty == ARP_TABLE_SIZE) && ((flags & ETHARP_FLAG_TRY_HARD) == 0))) {
 329              		.loc 1 342 0 is_stmt 1
 330 00ca 019B     		ldr	r3, [sp, #4]
 331 00cc DB07     		lsls	r3, r3, #31
 332 00ce 33D5     		bpl	.L25
 333              	.L17:
 343:Source\LwIP\src\core\ipv4/etharp.c ****     LWIP_DEBUGF(ETHARP_DEBUG | LWIP_DBG_TRACE, ("etharp_find_entry: no empty entry found and not al
 344:Source\LwIP\src\core\ipv4/etharp.c ****     return (s8_t)ERR_MEM;
ARM GAS  C:\Users\Phuong\AppData\Local\Temp\cczAUGdE.s 			page 13


 345:Source\LwIP\src\core\ipv4/etharp.c ****   }
 346:Source\LwIP\src\core\ipv4/etharp.c **** 
 347:Source\LwIP\src\core\ipv4/etharp.c ****   /* b) choose the least destructive entry to recycle:
 348:Source\LwIP\src\core\ipv4/etharp.c ****    * 1) empty entry
 349:Source\LwIP\src\core\ipv4/etharp.c ****    * 2) oldest stable entry
 350:Source\LwIP\src\core\ipv4/etharp.c ****    * 3) oldest pending entry without queued packets
 351:Source\LwIP\src\core\ipv4/etharp.c ****    * 4) oldest pending entry with queued packets
 352:Source\LwIP\src\core\ipv4/etharp.c ****    *
 353:Source\LwIP\src\core\ipv4/etharp.c ****    * { ETHARP_FLAG_TRY_HARD is set at this point }
 354:Source\LwIP\src\core\ipv4/etharp.c ****    */
 355:Source\LwIP\src\core\ipv4/etharp.c **** 
 356:Source\LwIP\src\core\ipv4/etharp.c ****   /* 1) empty entry available? */
 357:Source\LwIP\src\core\ipv4/etharp.c ****   if (empty < ARP_TABLE_SIZE) {
 334              		.loc 1 357 0
 335 00d0 092E     		cmp	r6, #9
 336 00d2 01DC     		bgt	.L18
 358:Source\LwIP\src\core\ipv4/etharp.c ****     i = empty;
 337              		.loc 1 358 0
 338 00d4 F6B2     		uxtb	r6, r6
 339              	.LVL37:
 340 00d6 19E0     		b	.L19
 341              	.LVL38:
 342              	.L18:
 359:Source\LwIP\src\core\ipv4/etharp.c ****     LWIP_DEBUGF(ETHARP_DEBUG | LWIP_DBG_TRACE, ("etharp_find_entry: selecting empty entry %"U16_F"\
 360:Source\LwIP\src\core\ipv4/etharp.c ****   } else {
 361:Source\LwIP\src\core\ipv4/etharp.c ****     /* 2) found recyclable stable entry? */
 362:Source\LwIP\src\core\ipv4/etharp.c ****     if (old_stable < ARP_TABLE_SIZE) {
 343              		.loc 1 362 0
 344 00d8 6346     		mov	r3, ip
 345 00da 092B     		cmp	r3, #9
 346 00dc 04DC     		bgt	.L20
 363:Source\LwIP\src\core\ipv4/etharp.c ****       /* recycle oldest stable*/
 364:Source\LwIP\src\core\ipv4/etharp.c ****       i = old_stable;
 347              		.loc 1 364 0
 348 00de 6346     		mov	r3, ip
 349 00e0 6A46     		mov	r2, sp
 350 00e2 1371     		strb	r3, [r2, #4]
 351 00e4 1679     		ldrb	r6, [r2, #4]
 352              	.LVL39:
 353 00e6 0EE0     		b	.L21
 354              	.LVL40:
 355              	.L20:
 365:Source\LwIP\src\core\ipv4/etharp.c ****       LWIP_DEBUGF(ETHARP_DEBUG | LWIP_DBG_TRACE, ("etharp_find_entry: selecting oldest stable entry
 366:Source\LwIP\src\core\ipv4/etharp.c ****       /* no queued packets should exist on stable entries */
 367:Source\LwIP\src\core\ipv4/etharp.c ****       LWIP_ASSERT("arp_table[i].q == NULL", arp_table[i].q == NULL);
 368:Source\LwIP\src\core\ipv4/etharp.c ****     /* 3) found recyclable pending entry without queued packets? */
 369:Source\LwIP\src\core\ipv4/etharp.c ****     } else if (old_pending < ARP_TABLE_SIZE) {
 356              		.loc 1 369 0
 357 00e8 5B46     		mov	r3, fp
 358 00ea 092B     		cmp	r3, #9
 359 00ec 04DC     		bgt	.L22
 370:Source\LwIP\src\core\ipv4/etharp.c ****       /* recycle oldest pending */
 371:Source\LwIP\src\core\ipv4/etharp.c ****       i = old_pending;
 360              		.loc 1 371 0
 361 00ee 5B46     		mov	r3, fp
 362 00f0 6A46     		mov	r2, sp
 363 00f2 1371     		strb	r3, [r2, #4]
ARM GAS  C:\Users\Phuong\AppData\Local\Temp\cczAUGdE.s 			page 14


 364 00f4 1679     		ldrb	r6, [r2, #4]
 365              	.LVL41:
 366 00f6 06E0     		b	.L21
 367              	.LVL42:
 368              	.L22:
 372:Source\LwIP\src\core\ipv4/etharp.c ****       LWIP_DEBUGF(ETHARP_DEBUG | LWIP_DBG_TRACE, ("etharp_find_entry: selecting oldest pending entr
 373:Source\LwIP\src\core\ipv4/etharp.c ****     /* 4) found recyclable pending entry with queued packets? */
 374:Source\LwIP\src\core\ipv4/etharp.c ****     } else if (old_queue < ARP_TABLE_SIZE) {
 369              		.loc 1 374 0
 370 00f8 5346     		mov	r3, r10
 371 00fa 092B     		cmp	r3, #9
 372 00fc 1FDC     		bgt	.L26
 375:Source\LwIP\src\core\ipv4/etharp.c ****       /* recycle oldest pending (queued packets are free in etharp_free_entry) */
 376:Source\LwIP\src\core\ipv4/etharp.c ****       i = old_queue;
 373              		.loc 1 376 0
 374 00fe 5346     		mov	r3, r10
 375 0100 6A46     		mov	r2, sp
 376 0102 1371     		strb	r3, [r2, #4]
 377 0104 1679     		ldrb	r6, [r2, #4]
 378              	.LVL43:
 379              	.L21:
 377:Source\LwIP\src\core\ipv4/etharp.c ****       LWIP_DEBUGF(ETHARP_DEBUG | LWIP_DBG_TRACE, ("etharp_find_entry: selecting oldest pending entr
 378:Source\LwIP\src\core\ipv4/etharp.c ****       /* no empty or recyclable entries found */
 379:Source\LwIP\src\core\ipv4/etharp.c ****     } else {
 380:Source\LwIP\src\core\ipv4/etharp.c ****       LWIP_DEBUGF(ETHARP_DEBUG | LWIP_DBG_TRACE, ("etharp_find_entry: no empty or recyclable entrie
 381:Source\LwIP\src\core\ipv4/etharp.c ****       return (s8_t)ERR_MEM;
 382:Source\LwIP\src\core\ipv4/etharp.c ****     }
 383:Source\LwIP\src\core\ipv4/etharp.c **** 
 384:Source\LwIP\src\core\ipv4/etharp.c ****     /* { empty or recyclable entry found } */
 385:Source\LwIP\src\core\ipv4/etharp.c ****     LWIP_ASSERT("i < ARP_TABLE_SIZE", i < ARP_TABLE_SIZE);
 386:Source\LwIP\src\core\ipv4/etharp.c ****     etharp_free_entry(i);
 380              		.loc 1 386 0
 381 0106 3000     		movs	r0, r6
 382 0108 FFF7FEFF 		bl	etharp_free_entry
 383              	.LVL44:
 384              	.L19:
 387:Source\LwIP\src\core\ipv4/etharp.c ****   }
 388:Source\LwIP\src\core\ipv4/etharp.c **** 
 389:Source\LwIP\src\core\ipv4/etharp.c ****   LWIP_ASSERT("i < ARP_TABLE_SIZE", i < ARP_TABLE_SIZE);
 390:Source\LwIP\src\core\ipv4/etharp.c ****   LWIP_ASSERT("arp_table[i].state == ETHARP_STATE_EMPTY",
 385              		.loc 1 390 0
 386 010c 3300     		movs	r3, r6
 391:Source\LwIP\src\core\ipv4/etharp.c ****     arp_table[i].state == ETHARP_STATE_EMPTY);
 392:Source\LwIP\src\core\ipv4/etharp.c **** 
 393:Source\LwIP\src\core\ipv4/etharp.c ****   /* IP address given? */
 394:Source\LwIP\src\core\ipv4/etharp.c ****   if (ipaddr != NULL) {
 387              		.loc 1 394 0
 388 010e 002F     		cmp	r7, #0
 389 0110 06D0     		beq	.L23
 395:Source\LwIP\src\core\ipv4/etharp.c ****     /* set IP address */
 396:Source\LwIP\src\core\ipv4/etharp.c ****     ip4_addr_copy(arp_table[i].ipaddr, *ipaddr);
 390              		.loc 1 396 0
 391 0112 3868     		ldr	r0, [r7]
 392 0114 7100     		lsls	r1, r6, #1
 393 0116 8919     		adds	r1, r1, r6
 394 0118 CA00     		lsls	r2, r1, #3
 395 011a 0D49     		ldr	r1, .L27
ARM GAS  C:\Users\Phuong\AppData\Local\Temp\cczAUGdE.s 			page 15


 396 011c 8A18     		adds	r2, r1, r2
 397 011e 5060     		str	r0, [r2, #4]
 398              	.L23:
 397:Source\LwIP\src\core\ipv4/etharp.c ****   }
 398:Source\LwIP\src\core\ipv4/etharp.c ****   arp_table[i].ctime = 0;
 399              		.loc 1 398 0
 400 0120 5A00     		lsls	r2, r3, #1
 401 0122 D318     		adds	r3, r2, r3
 402 0124 DA00     		lsls	r2, r3, #3
 403 0126 0A4B     		ldr	r3, .L27
 404 0128 9A18     		adds	r2, r3, r2
 405 012a 0023     		movs	r3, #0
 406 012c 5382     		strh	r3, [r2, #18]
 399:Source\LwIP\src\core\ipv4/etharp.c **** #if ETHARP_TABLE_MATCH_NETIF
 400:Source\LwIP\src\core\ipv4/etharp.c ****   arp_table[i].netif = netif;
 401:Source\LwIP\src\core\ipv4/etharp.c **** #endif /* ETHARP_TABLE_MATCH_NETIF*/
 402:Source\LwIP\src\core\ipv4/etharp.c ****   return (err_t)i;
 407              		.loc 1 402 0
 408 012e 70B2     		sxtb	r0, r6
 409 0130 07E0     		b	.L13
 410              	.LVL45:
 411              	.L24:
 344:Source\LwIP\src\core\ipv4/etharp.c ****   }
 412              		.loc 1 344 0
 413 0132 0120     		movs	r0, #1
 414              	.LVL46:
 415 0134 4042     		rsbs	r0, r0, #0
 416 0136 04E0     		b	.L13
 417              	.LVL47:
 418              	.L25:
 419 0138 0120     		movs	r0, #1
 420              	.LVL48:
 421 013a 4042     		rsbs	r0, r0, #0
 422 013c 01E0     		b	.L13
 423              	.LVL49:
 424              	.L26:
 381:Source\LwIP\src\core\ipv4/etharp.c ****     }
 425              		.loc 1 381 0
 426 013e 0120     		movs	r0, #1
 427              	.LVL50:
 428 0140 4042     		rsbs	r0, r0, #0
 429              	.LVL51:
 430              	.L13:
 403:Source\LwIP\src\core\ipv4/etharp.c **** }
 431              		.loc 1 403 0
 432 0142 03B0     		add	sp, sp, #12
 433              		@ sp needed
 434              	.LVL52:
 435              	.LVL53:
 436              	.LVL54:
 437              	.LVL55:
 438              	.LVL56:
 439 0144 3CBC     		pop	{r2, r3, r4, r5}
 440 0146 9046     		mov	r8, r2
 441 0148 9946     		mov	r9, r3
 442 014a A246     		mov	r10, r4
 443 014c AB46     		mov	fp, r5
ARM GAS  C:\Users\Phuong\AppData\Local\Temp\cczAUGdE.s 			page 16


 444 014e F0BD     		pop	{r4, r5, r6, r7, pc}
 445              	.L28:
 446              		.align	2
 447              	.L27:
 448 0150 00000000 		.word	.LANCHOR0
 449              		.cfi_endproc
 450              	.LFE56:
 451              		.size	etharp_find_entry, .-etharp_find_entry
 452              		.section	.text.etharp_update_arp_entry,"ax",%progbits
 453              		.align	2
 454              		.code	16
 455              		.thumb_func
 456              		.type	etharp_update_arp_entry, %function
 457              	etharp_update_arp_entry:
 458              	.LFB57:
 404:Source\LwIP\src\core\ipv4/etharp.c **** 
 405:Source\LwIP\src\core\ipv4/etharp.c **** /**
 406:Source\LwIP\src\core\ipv4/etharp.c ****  * Update (or insert) a IP/MAC address pair in the ARP cache.
 407:Source\LwIP\src\core\ipv4/etharp.c ****  *
 408:Source\LwIP\src\core\ipv4/etharp.c ****  * If a pending entry is resolved, any queued packets will be sent
 409:Source\LwIP\src\core\ipv4/etharp.c ****  * at this point.
 410:Source\LwIP\src\core\ipv4/etharp.c ****  *
 411:Source\LwIP\src\core\ipv4/etharp.c ****  * @param netif netif related to this entry (used for NETIF_ADDRHINT)
 412:Source\LwIP\src\core\ipv4/etharp.c ****  * @param ipaddr IP address of the inserted ARP entry.
 413:Source\LwIP\src\core\ipv4/etharp.c ****  * @param ethaddr Ethernet address of the inserted ARP entry.
 414:Source\LwIP\src\core\ipv4/etharp.c ****  * @param flags See @ref etharp_state
 415:Source\LwIP\src\core\ipv4/etharp.c ****  *
 416:Source\LwIP\src\core\ipv4/etharp.c ****  * @return
 417:Source\LwIP\src\core\ipv4/etharp.c ****  * - ERR_OK Successfully updated ARP cache.
 418:Source\LwIP\src\core\ipv4/etharp.c ****  * - ERR_MEM If we could not add a new ARP entry when ETHARP_FLAG_TRY_HARD was set.
 419:Source\LwIP\src\core\ipv4/etharp.c ****  * - ERR_ARG Non-unicast address given, those will not appear in ARP cache.
 420:Source\LwIP\src\core\ipv4/etharp.c ****  *
 421:Source\LwIP\src\core\ipv4/etharp.c ****  * @see pbuf_free()
 422:Source\LwIP\src\core\ipv4/etharp.c ****  */
 423:Source\LwIP\src\core\ipv4/etharp.c **** static err_t
 424:Source\LwIP\src\core\ipv4/etharp.c **** etharp_update_arp_entry(struct netif *netif, const ip4_addr_t *ipaddr, struct eth_addr *ethaddr, u8
 425:Source\LwIP\src\core\ipv4/etharp.c **** {
 459              		.loc 1 425 0
 460              		.cfi_startproc
 461              		@ args = 0, pretend = 0, frame = 0
 462              		@ frame_needed = 0, uses_anonymous_args = 0
 463              	.LVL57:
 464 0000 F0B5     		push	{r4, r5, r6, r7, lr}
 465              		.cfi_def_cfa_offset 20
 466              		.cfi_offset 4, -20
 467              		.cfi_offset 5, -16
 468              		.cfi_offset 6, -12
 469              		.cfi_offset 7, -8
 470              		.cfi_offset 14, -4
 471 0002 83B0     		sub	sp, sp, #12
 472              		.cfi_def_cfa_offset 32
 473 0004 0400     		movs	r4, r0
 474 0006 0E00     		movs	r6, r1
 475 0008 1500     		movs	r5, r2
 476 000a 1F00     		movs	r7, r3
 426:Source\LwIP\src\core\ipv4/etharp.c ****   s8_t i;
 427:Source\LwIP\src\core\ipv4/etharp.c ****   LWIP_ASSERT("netif->hwaddr_len == ETH_HWADDR_LEN", netif->hwaddr_len == ETH_HWADDR_LEN);
ARM GAS  C:\Users\Phuong\AppData\Local\Temp\cczAUGdE.s 			page 17


 428:Source\LwIP\src\core\ipv4/etharp.c ****   LWIP_DEBUGF(ETHARP_DEBUG | LWIP_DBG_TRACE, ("etharp_update_arp_entry: %"U16_F".%"U16_F".%"U16_F".
 429:Source\LwIP\src\core\ipv4/etharp.c ****     ip4_addr1_16(ipaddr), ip4_addr2_16(ipaddr), ip4_addr3_16(ipaddr), ip4_addr4_16(ipaddr),
 430:Source\LwIP\src\core\ipv4/etharp.c ****     (u16_t)ethaddr->addr[0], (u16_t)ethaddr->addr[1], (u16_t)ethaddr->addr[2],
 431:Source\LwIP\src\core\ipv4/etharp.c ****     (u16_t)ethaddr->addr[3], (u16_t)ethaddr->addr[4], (u16_t)ethaddr->addr[5]));
 432:Source\LwIP\src\core\ipv4/etharp.c ****   /* non-unicast address? */
 433:Source\LwIP\src\core\ipv4/etharp.c ****   if (ip4_addr_isany(ipaddr) ||
 477              		.loc 1 433 0
 478 000c 0029     		cmp	r1, #0
 479 000e 48D0     		beq	.L33
 480              		.loc 1 433 0 is_stmt 0 discriminator 1
 481 0010 0868     		ldr	r0, [r1]
 482              	.LVL58:
 483 0012 0028     		cmp	r0, #0
 484 0014 48D0     		beq	.L34
 434:Source\LwIP\src\core\ipv4/etharp.c ****       ip4_addr_isbroadcast(ipaddr, netif) ||
 485              		.loc 1 434 0 is_stmt 1 discriminator 2
 486 0016 2100     		movs	r1, r4
 487              	.LVL59:
 488 0018 FFF7FEFF 		bl	ip4_addr_isbroadcast_u32
 489              	.LVL60:
 433:Source\LwIP\src\core\ipv4/etharp.c ****       ip4_addr_isbroadcast(ipaddr, netif) ||
 490              		.loc 1 433 0 discriminator 2
 491 001c 0028     		cmp	r0, #0
 492 001e 46D1     		bne	.L35
 435:Source\LwIP\src\core\ipv4/etharp.c ****       ip4_addr_ismulticast(ipaddr)) {
 493              		.loc 1 435 0
 494 0020 F023     		movs	r3, #240
 495 0022 3268     		ldr	r2, [r6]
 496 0024 1340     		ands	r3, r2
 434:Source\LwIP\src\core\ipv4/etharp.c ****       ip4_addr_isbroadcast(ipaddr, netif) ||
 497              		.loc 1 434 0
 498 0026 E02B     		cmp	r3, #224
 499 0028 44D0     		beq	.L36
 436:Source\LwIP\src\core\ipv4/etharp.c ****     LWIP_DEBUGF(ETHARP_DEBUG | LWIP_DBG_TRACE, ("etharp_update_arp_entry: will not add non-unicast 
 437:Source\LwIP\src\core\ipv4/etharp.c ****     return ERR_ARG;
 438:Source\LwIP\src\core\ipv4/etharp.c ****   }
 439:Source\LwIP\src\core\ipv4/etharp.c ****   /* find or create ARP entry */
 440:Source\LwIP\src\core\ipv4/etharp.c ****   i = etharp_find_entry(ipaddr, flags, netif);
 500              		.loc 1 440 0
 501 002a 2200     		movs	r2, r4
 502 002c 3900     		movs	r1, r7
 503 002e 3000     		movs	r0, r6
 504 0030 FFF7FEFF 		bl	etharp_find_entry
 505              	.LVL61:
 441:Source\LwIP\src\core\ipv4/etharp.c ****   /* bail out if no entry could be found */
 442:Source\LwIP\src\core\ipv4/etharp.c ****   if (i < 0) {
 506              		.loc 1 442 0
 507 0034 0028     		cmp	r0, #0
 508 0036 3FDB     		blt	.L30
 443:Source\LwIP\src\core\ipv4/etharp.c ****     return (err_t)i;
 444:Source\LwIP\src\core\ipv4/etharp.c ****   }
 445:Source\LwIP\src\core\ipv4/etharp.c **** 
 446:Source\LwIP\src\core\ipv4/etharp.c **** #if ETHARP_SUPPORT_STATIC_ENTRIES
 447:Source\LwIP\src\core\ipv4/etharp.c ****   if (flags & ETHARP_FLAG_STATIC_ENTRY) {
 448:Source\LwIP\src\core\ipv4/etharp.c ****     /* record static type */
 449:Source\LwIP\src\core\ipv4/etharp.c ****     arp_table[i].state = ETHARP_STATE_STATIC;
 450:Source\LwIP\src\core\ipv4/etharp.c ****   } else if (arp_table[i].state == ETHARP_STATE_STATIC) {
ARM GAS  C:\Users\Phuong\AppData\Local\Temp\cczAUGdE.s 			page 18


 451:Source\LwIP\src\core\ipv4/etharp.c ****     /* found entry is a static type, don't overwrite it */
 452:Source\LwIP\src\core\ipv4/etharp.c ****     return ERR_VAL;
 453:Source\LwIP\src\core\ipv4/etharp.c ****   } else
 454:Source\LwIP\src\core\ipv4/etharp.c **** #endif /* ETHARP_SUPPORT_STATIC_ENTRIES */
 455:Source\LwIP\src\core\ipv4/etharp.c ****   {
 456:Source\LwIP\src\core\ipv4/etharp.c ****     /* mark it stable */
 457:Source\LwIP\src\core\ipv4/etharp.c ****     arp_table[i].state = ETHARP_STATE_STABLE;
 509              		.loc 1 457 0
 510 0038 0700     		movs	r7, r0
 511 003a 204A     		ldr	r2, .L38
 512 003c 4300     		lsls	r3, r0, #1
 513 003e 1918     		adds	r1, r3, r0
 514 0040 CE00     		lsls	r6, r1, #3
 515              	.LVL62:
 516 0042 9619     		adds	r6, r2, r6
 517 0044 0221     		movs	r1, #2
 518 0046 3175     		strb	r1, [r6, #20]
 458:Source\LwIP\src\core\ipv4/etharp.c ****   }
 459:Source\LwIP\src\core\ipv4/etharp.c **** 
 460:Source\LwIP\src\core\ipv4/etharp.c ****   /* record network interface */
 461:Source\LwIP\src\core\ipv4/etharp.c ****   arp_table[i].netif = netif;
 519              		.loc 1 461 0
 520 0048 B460     		str	r4, [r6, #8]
 462:Source\LwIP\src\core\ipv4/etharp.c ****   /* insert in SNMP ARP index tree */
 463:Source\LwIP\src\core\ipv4/etharp.c ****   mib2_add_arp_entry(netif, &arp_table[i].ipaddr);
 464:Source\LwIP\src\core\ipv4/etharp.c **** 
 465:Source\LwIP\src\core\ipv4/etharp.c ****   LWIP_DEBUGF(ETHARP_DEBUG | LWIP_DBG_TRACE, ("etharp_update_arp_entry: updating stable entry %"S16
 466:Source\LwIP\src\core\ipv4/etharp.c ****   /* update address */
 467:Source\LwIP\src\core\ipv4/etharp.c ****   ETHADDR32_COPY(&arp_table[i].ethaddr, ethaddr);
 521              		.loc 1 467 0
 522 004a 1818     		adds	r0, r3, r0
 523              	.LVL63:
 524 004c C300     		lsls	r3, r0, #3
 525 004e 0833     		adds	r3, r3, #8
 526 0050 D318     		adds	r3, r2, r3
 527 0052 181D     		adds	r0, r3, #4
 528 0054 0622     		movs	r2, #6
 529 0056 2900     		movs	r1, r5
 530 0058 FFF7FEFF 		bl	memcpy
 531              	.LVL64:
 468:Source\LwIP\src\core\ipv4/etharp.c ****   /* reset time stamp */
 469:Source\LwIP\src\core\ipv4/etharp.c ****   arp_table[i].ctime = 0;
 532              		.loc 1 469 0
 533 005c 0023     		movs	r3, #0
 534 005e 7382     		strh	r3, [r6, #18]
 470:Source\LwIP\src\core\ipv4/etharp.c ****   /* this is where we will send out queued packets! */
 471:Source\LwIP\src\core\ipv4/etharp.c **** #if ARP_QUEUEING
 472:Source\LwIP\src\core\ipv4/etharp.c ****   while (arp_table[i].q != NULL) {
 535              		.loc 1 472 0
 536 0060 16E0     		b	.L31
 537              	.L32:
 538              	.LVL65:
 539              	.LBB3:
 473:Source\LwIP\src\core\ipv4/etharp.c ****     struct pbuf *p;
 474:Source\LwIP\src\core\ipv4/etharp.c ****     /* remember remainder of queue */
 475:Source\LwIP\src\core\ipv4/etharp.c ****     struct etharp_q_entry *q = arp_table[i].q;
 476:Source\LwIP\src\core\ipv4/etharp.c ****     /* pop first item off the queue */
ARM GAS  C:\Users\Phuong\AppData\Local\Temp\cczAUGdE.s 			page 19


 477:Source\LwIP\src\core\ipv4/etharp.c ****     arp_table[i].q = q->next;
 540              		.loc 1 477 0
 541 0062 7B00     		lsls	r3, r7, #1
 542 0064 DB19     		adds	r3, r3, r7
 543 0066 DA00     		lsls	r2, r3, #3
 544 0068 144B     		ldr	r3, .L38
 545 006a 0868     		ldr	r0, [r1]
 546 006c D050     		str	r0, [r2, r3]
 478:Source\LwIP\src\core\ipv4/etharp.c ****     /* get the packet pointer */
 479:Source\LwIP\src\core\ipv4/etharp.c ****     p = q->p;
 547              		.loc 1 479 0
 548 006e 4E68     		ldr	r6, [r1, #4]
 549              	.LVL66:
 480:Source\LwIP\src\core\ipv4/etharp.c ****     /* now queue entry can be freed */
 481:Source\LwIP\src\core\ipv4/etharp.c ****     memp_free(MEMP_ARP_QUEUE, q);
 550              		.loc 1 481 0
 551 0070 0A20     		movs	r0, #10
 552 0072 FFF7FEFF 		bl	memp_free
 553              	.LVL67:
 482:Source\LwIP\src\core\ipv4/etharp.c **** #else /* ARP_QUEUEING */
 483:Source\LwIP\src\core\ipv4/etharp.c ****   if (arp_table[i].q != NULL) {
 484:Source\LwIP\src\core\ipv4/etharp.c ****     struct pbuf *p = arp_table[i].q;
 485:Source\LwIP\src\core\ipv4/etharp.c ****     arp_table[i].q = NULL;
 486:Source\LwIP\src\core\ipv4/etharp.c **** #endif /* ARP_QUEUEING */
 487:Source\LwIP\src\core\ipv4/etharp.c ****     /* send the queued IP packet */
 488:Source\LwIP\src\core\ipv4/etharp.c ****     ethernet_output(netif, p, (struct eth_addr*)(netif->hwaddr), ethaddr, ETHTYPE_IP);
 554              		.loc 1 488 0
 555 0076 8023     		movs	r3, #128
 556 0078 1B01     		lsls	r3, r3, #4
 557 007a 0093     		str	r3, [sp]
 558 007c 2B00     		movs	r3, r5
 559 007e 2200     		movs	r2, r4
 560 0080 3732     		adds	r2, r2, #55
 561 0082 3100     		movs	r1, r6
 562 0084 2000     		movs	r0, r4
 563 0086 FFF7FEFF 		bl	ethernet_output
 564              	.LVL68:
 489:Source\LwIP\src\core\ipv4/etharp.c ****     /* free the queued IP packet */
 490:Source\LwIP\src\core\ipv4/etharp.c ****     pbuf_free(p);
 565              		.loc 1 490 0
 566 008a 3000     		movs	r0, r6
 567 008c FFF7FEFF 		bl	pbuf_free
 568              	.LVL69:
 569              	.L31:
 570              	.LBE3:
 472:Source\LwIP\src\core\ipv4/etharp.c ****     struct pbuf *p;
 571              		.loc 1 472 0
 572 0090 7B00     		lsls	r3, r7, #1
 573 0092 DB19     		adds	r3, r3, r7
 574 0094 DA00     		lsls	r2, r3, #3
 575 0096 094B     		ldr	r3, .L38
 576 0098 D158     		ldr	r1, [r2, r3]
 577 009a 0029     		cmp	r1, #0
 578 009c E1D1     		bne	.L32
 491:Source\LwIP\src\core\ipv4/etharp.c ****   }
 492:Source\LwIP\src\core\ipv4/etharp.c ****   return ERR_OK;
 579              		.loc 1 492 0
ARM GAS  C:\Users\Phuong\AppData\Local\Temp\cczAUGdE.s 			page 20


 580 009e 0020     		movs	r0, #0
 581 00a0 0AE0     		b	.L30
 582              	.LVL70:
 583              	.L33:
 437:Source\LwIP\src\core\ipv4/etharp.c ****   }
 584              		.loc 1 437 0
 585 00a2 1020     		movs	r0, #16
 586              	.LVL71:
 587 00a4 4042     		rsbs	r0, r0, #0
 588 00a6 07E0     		b	.L30
 589              	.L34:
 590 00a8 1020     		movs	r0, #16
 591 00aa 4042     		rsbs	r0, r0, #0
 592 00ac 04E0     		b	.L30
 593              	.LVL72:
 594              	.L35:
 595 00ae 1020     		movs	r0, #16
 596 00b0 4042     		rsbs	r0, r0, #0
 597 00b2 01E0     		b	.L30
 598              	.L36:
 599 00b4 1020     		movs	r0, #16
 600 00b6 4042     		rsbs	r0, r0, #0
 601              	.LVL73:
 602              	.L30:
 493:Source\LwIP\src\core\ipv4/etharp.c **** }
 603              		.loc 1 493 0
 604 00b8 03B0     		add	sp, sp, #12
 605              		@ sp needed
 606              	.LVL74:
 607              	.LVL75:
 608 00ba F0BD     		pop	{r4, r5, r6, r7, pc}
 609              	.L39:
 610              		.align	2
 611              	.L38:
 612 00bc 00000000 		.word	.LANCHOR0
 613              		.cfi_endproc
 614              	.LFE57:
 615              		.size	etharp_update_arp_entry, .-etharp_update_arp_entry
 616              		.section	.text.etharp_raw,"ax",%progbits
 617              		.align	2
 618              		.code	16
 619              		.thumb_func
 620              		.type	etharp_raw, %function
 621              	etharp_raw:
 622              	.LFB65:
 494:Source\LwIP\src\core\ipv4/etharp.c **** 
 495:Source\LwIP\src\core\ipv4/etharp.c **** #if ETHARP_SUPPORT_STATIC_ENTRIES
 496:Source\LwIP\src\core\ipv4/etharp.c **** /** Add a new static entry to the ARP table. If an entry exists for the
 497:Source\LwIP\src\core\ipv4/etharp.c ****  * specified IP address, this entry is overwritten.
 498:Source\LwIP\src\core\ipv4/etharp.c ****  * If packets are queued for the specified IP address, they are sent out.
 499:Source\LwIP\src\core\ipv4/etharp.c ****  *
 500:Source\LwIP\src\core\ipv4/etharp.c ****  * @param ipaddr IP address for the new static entry
 501:Source\LwIP\src\core\ipv4/etharp.c ****  * @param ethaddr ethernet address for the new static entry
 502:Source\LwIP\src\core\ipv4/etharp.c ****  * @return See return values of etharp_add_static_entry
 503:Source\LwIP\src\core\ipv4/etharp.c ****  */
 504:Source\LwIP\src\core\ipv4/etharp.c **** err_t
 505:Source\LwIP\src\core\ipv4/etharp.c **** etharp_add_static_entry(const ip4_addr_t *ipaddr, struct eth_addr *ethaddr)
ARM GAS  C:\Users\Phuong\AppData\Local\Temp\cczAUGdE.s 			page 21


 506:Source\LwIP\src\core\ipv4/etharp.c **** {
 507:Source\LwIP\src\core\ipv4/etharp.c ****   struct netif *netif;
 508:Source\LwIP\src\core\ipv4/etharp.c ****   LWIP_DEBUGF(ETHARP_DEBUG | LWIP_DBG_TRACE, ("etharp_add_static_entry: %"U16_F".%"U16_F".%"U16_F".
 509:Source\LwIP\src\core\ipv4/etharp.c ****     ip4_addr1_16(ipaddr), ip4_addr2_16(ipaddr), ip4_addr3_16(ipaddr), ip4_addr4_16(ipaddr),
 510:Source\LwIP\src\core\ipv4/etharp.c ****     (u16_t)ethaddr->addr[0], (u16_t)ethaddr->addr[1], (u16_t)ethaddr->addr[2],
 511:Source\LwIP\src\core\ipv4/etharp.c ****     (u16_t)ethaddr->addr[3], (u16_t)ethaddr->addr[4], (u16_t)ethaddr->addr[5]));
 512:Source\LwIP\src\core\ipv4/etharp.c **** 
 513:Source\LwIP\src\core\ipv4/etharp.c ****   netif = ip4_route(ipaddr);
 514:Source\LwIP\src\core\ipv4/etharp.c ****   if (netif == NULL) {
 515:Source\LwIP\src\core\ipv4/etharp.c ****     return ERR_RTE;
 516:Source\LwIP\src\core\ipv4/etharp.c ****   }
 517:Source\LwIP\src\core\ipv4/etharp.c **** 
 518:Source\LwIP\src\core\ipv4/etharp.c ****   return etharp_update_arp_entry(netif, ipaddr, ethaddr, ETHARP_FLAG_TRY_HARD | ETHARP_FLAG_STATIC_
 519:Source\LwIP\src\core\ipv4/etharp.c **** }
 520:Source\LwIP\src\core\ipv4/etharp.c **** 
 521:Source\LwIP\src\core\ipv4/etharp.c **** /** Remove a static entry from the ARP table previously added with a call to
 522:Source\LwIP\src\core\ipv4/etharp.c ****  * etharp_add_static_entry.
 523:Source\LwIP\src\core\ipv4/etharp.c ****  *
 524:Source\LwIP\src\core\ipv4/etharp.c ****  * @param ipaddr IP address of the static entry to remove
 525:Source\LwIP\src\core\ipv4/etharp.c ****  * @return ERR_OK: entry removed
 526:Source\LwIP\src\core\ipv4/etharp.c ****  *         ERR_MEM: entry wasn't found
 527:Source\LwIP\src\core\ipv4/etharp.c ****  *         ERR_ARG: entry wasn't a static entry but a dynamic one
 528:Source\LwIP\src\core\ipv4/etharp.c ****  */
 529:Source\LwIP\src\core\ipv4/etharp.c **** err_t
 530:Source\LwIP\src\core\ipv4/etharp.c **** etharp_remove_static_entry(const ip4_addr_t *ipaddr)
 531:Source\LwIP\src\core\ipv4/etharp.c **** {
 532:Source\LwIP\src\core\ipv4/etharp.c ****   s8_t i;
 533:Source\LwIP\src\core\ipv4/etharp.c ****   LWIP_DEBUGF(ETHARP_DEBUG | LWIP_DBG_TRACE, ("etharp_remove_static_entry: %"U16_F".%"U16_F".%"U16_
 534:Source\LwIP\src\core\ipv4/etharp.c ****     ip4_addr1_16(ipaddr), ip4_addr2_16(ipaddr), ip4_addr3_16(ipaddr), ip4_addr4_16(ipaddr)));
 535:Source\LwIP\src\core\ipv4/etharp.c **** 
 536:Source\LwIP\src\core\ipv4/etharp.c ****   /* find or create ARP entry */
 537:Source\LwIP\src\core\ipv4/etharp.c ****   i = etharp_find_entry(ipaddr, ETHARP_FLAG_FIND_ONLY, NULL);
 538:Source\LwIP\src\core\ipv4/etharp.c ****   /* bail out if no entry could be found */
 539:Source\LwIP\src\core\ipv4/etharp.c ****   if (i < 0) {
 540:Source\LwIP\src\core\ipv4/etharp.c ****     return (err_t)i;
 541:Source\LwIP\src\core\ipv4/etharp.c ****   }
 542:Source\LwIP\src\core\ipv4/etharp.c **** 
 543:Source\LwIP\src\core\ipv4/etharp.c ****   if (arp_table[i].state != ETHARP_STATE_STATIC) {
 544:Source\LwIP\src\core\ipv4/etharp.c ****     /* entry wasn't a static entry, cannot remove it */
 545:Source\LwIP\src\core\ipv4/etharp.c ****     return ERR_ARG;
 546:Source\LwIP\src\core\ipv4/etharp.c ****   }
 547:Source\LwIP\src\core\ipv4/etharp.c ****   /* entry found, free it */
 548:Source\LwIP\src\core\ipv4/etharp.c ****   etharp_free_entry(i);
 549:Source\LwIP\src\core\ipv4/etharp.c ****   return ERR_OK;
 550:Source\LwIP\src\core\ipv4/etharp.c **** }
 551:Source\LwIP\src\core\ipv4/etharp.c **** #endif /* ETHARP_SUPPORT_STATIC_ENTRIES */
 552:Source\LwIP\src\core\ipv4/etharp.c **** 
 553:Source\LwIP\src\core\ipv4/etharp.c **** /**
 554:Source\LwIP\src\core\ipv4/etharp.c ****  * Remove all ARP table entries of the specified netif.
 555:Source\LwIP\src\core\ipv4/etharp.c ****  *
 556:Source\LwIP\src\core\ipv4/etharp.c ****  * @param netif points to a network interface
 557:Source\LwIP\src\core\ipv4/etharp.c ****  */
 558:Source\LwIP\src\core\ipv4/etharp.c **** void
 559:Source\LwIP\src\core\ipv4/etharp.c **** etharp_cleanup_netif(struct netif *netif)
 560:Source\LwIP\src\core\ipv4/etharp.c **** {
 561:Source\LwIP\src\core\ipv4/etharp.c ****   u8_t i;
 562:Source\LwIP\src\core\ipv4/etharp.c **** 
ARM GAS  C:\Users\Phuong\AppData\Local\Temp\cczAUGdE.s 			page 22


 563:Source\LwIP\src\core\ipv4/etharp.c ****   for (i = 0; i < ARP_TABLE_SIZE; ++i) {
 564:Source\LwIP\src\core\ipv4/etharp.c ****     u8_t state = arp_table[i].state;
 565:Source\LwIP\src\core\ipv4/etharp.c ****     if ((state != ETHARP_STATE_EMPTY) && (arp_table[i].netif == netif)) {
 566:Source\LwIP\src\core\ipv4/etharp.c ****       etharp_free_entry(i);
 567:Source\LwIP\src\core\ipv4/etharp.c ****     }
 568:Source\LwIP\src\core\ipv4/etharp.c ****   }
 569:Source\LwIP\src\core\ipv4/etharp.c **** }
 570:Source\LwIP\src\core\ipv4/etharp.c **** 
 571:Source\LwIP\src\core\ipv4/etharp.c **** /**
 572:Source\LwIP\src\core\ipv4/etharp.c ****  * Finds (stable) ethernet/IP address pair from ARP table
 573:Source\LwIP\src\core\ipv4/etharp.c ****  * using interface and IP address index.
 574:Source\LwIP\src\core\ipv4/etharp.c ****  * @note the addresses in the ARP table are in network order!
 575:Source\LwIP\src\core\ipv4/etharp.c ****  *
 576:Source\LwIP\src\core\ipv4/etharp.c ****  * @param netif points to interface index
 577:Source\LwIP\src\core\ipv4/etharp.c ****  * @param ipaddr points to the (network order) IP address index
 578:Source\LwIP\src\core\ipv4/etharp.c ****  * @param eth_ret points to return pointer
 579:Source\LwIP\src\core\ipv4/etharp.c ****  * @param ip_ret points to return pointer
 580:Source\LwIP\src\core\ipv4/etharp.c ****  * @return table index if found, -1 otherwise
 581:Source\LwIP\src\core\ipv4/etharp.c ****  */
 582:Source\LwIP\src\core\ipv4/etharp.c **** s8_t
 583:Source\LwIP\src\core\ipv4/etharp.c **** etharp_find_addr(struct netif *netif, const ip4_addr_t *ipaddr,
 584:Source\LwIP\src\core\ipv4/etharp.c ****          struct eth_addr **eth_ret, const ip4_addr_t **ip_ret)
 585:Source\LwIP\src\core\ipv4/etharp.c **** {
 586:Source\LwIP\src\core\ipv4/etharp.c ****   s8_t i;
 587:Source\LwIP\src\core\ipv4/etharp.c **** 
 588:Source\LwIP\src\core\ipv4/etharp.c ****   LWIP_ASSERT("eth_ret != NULL && ip_ret != NULL",
 589:Source\LwIP\src\core\ipv4/etharp.c ****     eth_ret != NULL && ip_ret != NULL);
 590:Source\LwIP\src\core\ipv4/etharp.c **** 
 591:Source\LwIP\src\core\ipv4/etharp.c ****   LWIP_UNUSED_ARG(netif);
 592:Source\LwIP\src\core\ipv4/etharp.c **** 
 593:Source\LwIP\src\core\ipv4/etharp.c ****   i = etharp_find_entry(ipaddr, ETHARP_FLAG_FIND_ONLY, netif);
 594:Source\LwIP\src\core\ipv4/etharp.c ****   if ((i >= 0) && (arp_table[i].state >= ETHARP_STATE_STABLE)) {
 595:Source\LwIP\src\core\ipv4/etharp.c ****       *eth_ret = &arp_table[i].ethaddr;
 596:Source\LwIP\src\core\ipv4/etharp.c ****       *ip_ret = &arp_table[i].ipaddr;
 597:Source\LwIP\src\core\ipv4/etharp.c ****       return i;
 598:Source\LwIP\src\core\ipv4/etharp.c ****   }
 599:Source\LwIP\src\core\ipv4/etharp.c ****   return -1;
 600:Source\LwIP\src\core\ipv4/etharp.c **** }
 601:Source\LwIP\src\core\ipv4/etharp.c **** 
 602:Source\LwIP\src\core\ipv4/etharp.c **** /**
 603:Source\LwIP\src\core\ipv4/etharp.c ****  * Possibility to iterate over stable ARP table entries
 604:Source\LwIP\src\core\ipv4/etharp.c ****  *
 605:Source\LwIP\src\core\ipv4/etharp.c ****  * @param i entry number, 0 to ARP_TABLE_SIZE
 606:Source\LwIP\src\core\ipv4/etharp.c ****  * @param ipaddr return value: IP address
 607:Source\LwIP\src\core\ipv4/etharp.c ****  * @param netif return value: points to interface
 608:Source\LwIP\src\core\ipv4/etharp.c ****  * @param eth_ret return value: ETH address
 609:Source\LwIP\src\core\ipv4/etharp.c ****  * @return 1 on valid index, 0 otherwise
 610:Source\LwIP\src\core\ipv4/etharp.c ****  */
 611:Source\LwIP\src\core\ipv4/etharp.c **** u8_t
 612:Source\LwIP\src\core\ipv4/etharp.c **** etharp_get_entry(u8_t i, ip4_addr_t **ipaddr, struct netif **netif, struct eth_addr **eth_ret)
 613:Source\LwIP\src\core\ipv4/etharp.c **** {
 614:Source\LwIP\src\core\ipv4/etharp.c ****   LWIP_ASSERT("ipaddr != NULL", ipaddr != NULL);
 615:Source\LwIP\src\core\ipv4/etharp.c ****   LWIP_ASSERT("netif != NULL", netif != NULL);
 616:Source\LwIP\src\core\ipv4/etharp.c ****   LWIP_ASSERT("eth_ret != NULL", eth_ret != NULL);
 617:Source\LwIP\src\core\ipv4/etharp.c **** 
 618:Source\LwIP\src\core\ipv4/etharp.c ****   if((i < ARP_TABLE_SIZE) && (arp_table[i].state >= ETHARP_STATE_STABLE)) {
 619:Source\LwIP\src\core\ipv4/etharp.c ****     *ipaddr  = &arp_table[i].ipaddr;
ARM GAS  C:\Users\Phuong\AppData\Local\Temp\cczAUGdE.s 			page 23


 620:Source\LwIP\src\core\ipv4/etharp.c ****     *netif   = arp_table[i].netif;
 621:Source\LwIP\src\core\ipv4/etharp.c ****     *eth_ret = &arp_table[i].ethaddr;
 622:Source\LwIP\src\core\ipv4/etharp.c ****     return 1;
 623:Source\LwIP\src\core\ipv4/etharp.c ****   } else {
 624:Source\LwIP\src\core\ipv4/etharp.c ****     return 0;
 625:Source\LwIP\src\core\ipv4/etharp.c ****   }
 626:Source\LwIP\src\core\ipv4/etharp.c **** }
 627:Source\LwIP\src\core\ipv4/etharp.c **** 
 628:Source\LwIP\src\core\ipv4/etharp.c **** /**
 629:Source\LwIP\src\core\ipv4/etharp.c ****  * Responds to ARP requests to us. Upon ARP replies to us, add entry to cache
 630:Source\LwIP\src\core\ipv4/etharp.c ****  * send out queued IP packets. Updates cache with snooped address pairs.
 631:Source\LwIP\src\core\ipv4/etharp.c ****  *
 632:Source\LwIP\src\core\ipv4/etharp.c ****  * Should be called for incoming ARP packets. The pbuf in the argument
 633:Source\LwIP\src\core\ipv4/etharp.c ****  * is freed by this function.
 634:Source\LwIP\src\core\ipv4/etharp.c ****  *
 635:Source\LwIP\src\core\ipv4/etharp.c ****  * @param p The ARP packet that arrived on netif. Is freed by this function.
 636:Source\LwIP\src\core\ipv4/etharp.c ****  * @param netif The lwIP network interface on which the ARP packet pbuf arrived.
 637:Source\LwIP\src\core\ipv4/etharp.c ****  *
 638:Source\LwIP\src\core\ipv4/etharp.c ****  * @see pbuf_free()
 639:Source\LwIP\src\core\ipv4/etharp.c ****  */
 640:Source\LwIP\src\core\ipv4/etharp.c **** void
 641:Source\LwIP\src\core\ipv4/etharp.c **** etharp_input(struct pbuf *p, struct netif *netif)
 642:Source\LwIP\src\core\ipv4/etharp.c **** {
 643:Source\LwIP\src\core\ipv4/etharp.c ****   struct etharp_hdr *hdr;
 644:Source\LwIP\src\core\ipv4/etharp.c ****   /* these are aligned properly, whereas the ARP header fields might not be */
 645:Source\LwIP\src\core\ipv4/etharp.c ****   ip4_addr_t sipaddr, dipaddr;
 646:Source\LwIP\src\core\ipv4/etharp.c ****   u8_t for_us;
 647:Source\LwIP\src\core\ipv4/etharp.c **** 
 648:Source\LwIP\src\core\ipv4/etharp.c ****   LWIP_ERROR("netif != NULL", (netif != NULL), return;);
 649:Source\LwIP\src\core\ipv4/etharp.c **** 
 650:Source\LwIP\src\core\ipv4/etharp.c ****   hdr = (struct etharp_hdr *)p->payload;
 651:Source\LwIP\src\core\ipv4/etharp.c **** 
 652:Source\LwIP\src\core\ipv4/etharp.c ****   /* RFC 826 "Packet Reception": */
 653:Source\LwIP\src\core\ipv4/etharp.c ****   if ((hdr->hwtype != PP_HTONS(HWTYPE_ETHERNET)) ||
 654:Source\LwIP\src\core\ipv4/etharp.c ****       (hdr->hwlen != ETH_HWADDR_LEN) ||
 655:Source\LwIP\src\core\ipv4/etharp.c ****       (hdr->protolen != sizeof(ip4_addr_t)) ||
 656:Source\LwIP\src\core\ipv4/etharp.c ****       (hdr->proto != PP_HTONS(ETHTYPE_IP)))  {
 657:Source\LwIP\src\core\ipv4/etharp.c ****     LWIP_DEBUGF(ETHARP_DEBUG | LWIP_DBG_TRACE | LWIP_DBG_LEVEL_WARNING,
 658:Source\LwIP\src\core\ipv4/etharp.c ****       ("etharp_input: packet dropped, wrong hw type, hwlen, proto, protolen or ethernet type (%"U16
 659:Source\LwIP\src\core\ipv4/etharp.c ****       hdr->hwtype, (u16_t)hdr->hwlen, hdr->proto, (u16_t)hdr->protolen));
 660:Source\LwIP\src\core\ipv4/etharp.c ****     ETHARP_STATS_INC(etharp.proterr);
 661:Source\LwIP\src\core\ipv4/etharp.c ****     ETHARP_STATS_INC(etharp.drop);
 662:Source\LwIP\src\core\ipv4/etharp.c ****     pbuf_free(p);
 663:Source\LwIP\src\core\ipv4/etharp.c ****     return;
 664:Source\LwIP\src\core\ipv4/etharp.c ****   }
 665:Source\LwIP\src\core\ipv4/etharp.c ****   ETHARP_STATS_INC(etharp.recv);
 666:Source\LwIP\src\core\ipv4/etharp.c **** 
 667:Source\LwIP\src\core\ipv4/etharp.c **** #if LWIP_AUTOIP
 668:Source\LwIP\src\core\ipv4/etharp.c ****   /* We have to check if a host already has configured our random
 669:Source\LwIP\src\core\ipv4/etharp.c ****    * created link local address and continuously check if there is
 670:Source\LwIP\src\core\ipv4/etharp.c ****    * a host with this IP-address so we can detect collisions */
 671:Source\LwIP\src\core\ipv4/etharp.c ****   autoip_arp_reply(netif, hdr);
 672:Source\LwIP\src\core\ipv4/etharp.c **** #endif /* LWIP_AUTOIP */
 673:Source\LwIP\src\core\ipv4/etharp.c **** 
 674:Source\LwIP\src\core\ipv4/etharp.c ****   /* Copy struct ip4_addr2 to aligned ip4_addr, to support compilers without
 675:Source\LwIP\src\core\ipv4/etharp.c ****    * structure packing (not using structure copy which breaks strict-aliasing rules). */
 676:Source\LwIP\src\core\ipv4/etharp.c ****   IPADDR2_COPY(&sipaddr, &hdr->sipaddr);
ARM GAS  C:\Users\Phuong\AppData\Local\Temp\cczAUGdE.s 			page 24


 677:Source\LwIP\src\core\ipv4/etharp.c ****   IPADDR2_COPY(&dipaddr, &hdr->dipaddr);
 678:Source\LwIP\src\core\ipv4/etharp.c **** 
 679:Source\LwIP\src\core\ipv4/etharp.c ****   /* this interface is not configured? */
 680:Source\LwIP\src\core\ipv4/etharp.c ****   if (ip4_addr_isany_val(*netif_ip4_addr(netif))) {
 681:Source\LwIP\src\core\ipv4/etharp.c ****     for_us = 0;
 682:Source\LwIP\src\core\ipv4/etharp.c ****   } else {
 683:Source\LwIP\src\core\ipv4/etharp.c ****     /* ARP packet directed to us? */
 684:Source\LwIP\src\core\ipv4/etharp.c ****     for_us = (u8_t)ip4_addr_cmp(&dipaddr, netif_ip4_addr(netif));
 685:Source\LwIP\src\core\ipv4/etharp.c ****   }
 686:Source\LwIP\src\core\ipv4/etharp.c **** 
 687:Source\LwIP\src\core\ipv4/etharp.c ****   /* ARP message directed to us?
 688:Source\LwIP\src\core\ipv4/etharp.c ****       -> add IP address in ARP cache; assume requester wants to talk to us,
 689:Source\LwIP\src\core\ipv4/etharp.c ****          can result in directly sending the queued packets for this host.
 690:Source\LwIP\src\core\ipv4/etharp.c ****      ARP message not directed to us?
 691:Source\LwIP\src\core\ipv4/etharp.c ****       ->  update the source IP address in the cache, if present */
 692:Source\LwIP\src\core\ipv4/etharp.c ****   etharp_update_arp_entry(netif, &sipaddr, &(hdr->shwaddr),
 693:Source\LwIP\src\core\ipv4/etharp.c ****                    for_us ? ETHARP_FLAG_TRY_HARD : ETHARP_FLAG_FIND_ONLY);
 694:Source\LwIP\src\core\ipv4/etharp.c **** 
 695:Source\LwIP\src\core\ipv4/etharp.c ****   /* now act on the message itself */
 696:Source\LwIP\src\core\ipv4/etharp.c ****   switch (hdr->opcode) {
 697:Source\LwIP\src\core\ipv4/etharp.c ****   /* ARP request? */
 698:Source\LwIP\src\core\ipv4/etharp.c ****   case PP_HTONS(ARP_REQUEST):
 699:Source\LwIP\src\core\ipv4/etharp.c ****     /* ARP request. If it asked for our address, we send out a
 700:Source\LwIP\src\core\ipv4/etharp.c ****      * reply. In any case, we time-stamp any existing ARP entry,
 701:Source\LwIP\src\core\ipv4/etharp.c ****      * and possibly send out an IP packet that was queued on it. */
 702:Source\LwIP\src\core\ipv4/etharp.c **** 
 703:Source\LwIP\src\core\ipv4/etharp.c ****     LWIP_DEBUGF (ETHARP_DEBUG | LWIP_DBG_TRACE, ("etharp_input: incoming ARP request\n"));
 704:Source\LwIP\src\core\ipv4/etharp.c ****     /* ARP request for our address? */
 705:Source\LwIP\src\core\ipv4/etharp.c ****     if (for_us) {
 706:Source\LwIP\src\core\ipv4/etharp.c ****       /* send ARP response */
 707:Source\LwIP\src\core\ipv4/etharp.c ****       etharp_raw(netif,
 708:Source\LwIP\src\core\ipv4/etharp.c ****                  (struct eth_addr *)netif->hwaddr, &hdr->shwaddr,
 709:Source\LwIP\src\core\ipv4/etharp.c ****                  (struct eth_addr *)netif->hwaddr, netif_ip4_addr(netif),
 710:Source\LwIP\src\core\ipv4/etharp.c ****                  &hdr->shwaddr, &sipaddr,
 711:Source\LwIP\src\core\ipv4/etharp.c ****                  ARP_REPLY);
 712:Source\LwIP\src\core\ipv4/etharp.c ****     /* we are not configured? */
 713:Source\LwIP\src\core\ipv4/etharp.c ****     } else if (ip4_addr_isany_val(*netif_ip4_addr(netif))) {
 714:Source\LwIP\src\core\ipv4/etharp.c ****       /* { for_us == 0 and netif->ip_addr.addr == 0 } */
 715:Source\LwIP\src\core\ipv4/etharp.c ****       LWIP_DEBUGF(ETHARP_DEBUG | LWIP_DBG_TRACE, ("etharp_input: we are unconfigured, ARP request i
 716:Source\LwIP\src\core\ipv4/etharp.c ****     /* request was not directed to us */
 717:Source\LwIP\src\core\ipv4/etharp.c ****     } else {
 718:Source\LwIP\src\core\ipv4/etharp.c ****       /* { for_us == 0 and netif->ip_addr.addr != 0 } */
 719:Source\LwIP\src\core\ipv4/etharp.c ****       LWIP_DEBUGF(ETHARP_DEBUG | LWIP_DBG_TRACE, ("etharp_input: ARP request was not for us.\n"));
 720:Source\LwIP\src\core\ipv4/etharp.c ****     }
 721:Source\LwIP\src\core\ipv4/etharp.c ****     break;
 722:Source\LwIP\src\core\ipv4/etharp.c ****   case PP_HTONS(ARP_REPLY):
 723:Source\LwIP\src\core\ipv4/etharp.c ****     /* ARP reply. We already updated the ARP cache earlier. */
 724:Source\LwIP\src\core\ipv4/etharp.c ****     LWIP_DEBUGF(ETHARP_DEBUG | LWIP_DBG_TRACE, ("etharp_input: incoming ARP reply\n"));
 725:Source\LwIP\src\core\ipv4/etharp.c **** #if (LWIP_DHCP && DHCP_DOES_ARP_CHECK)
 726:Source\LwIP\src\core\ipv4/etharp.c ****     /* DHCP wants to know about ARP replies from any host with an
 727:Source\LwIP\src\core\ipv4/etharp.c ****      * IP address also offered to us by the DHCP server. We do not
 728:Source\LwIP\src\core\ipv4/etharp.c ****      * want to take a duplicate IP address on a single network.
 729:Source\LwIP\src\core\ipv4/etharp.c ****      * @todo How should we handle redundant (fail-over) interfaces? */
 730:Source\LwIP\src\core\ipv4/etharp.c ****     dhcp_arp_reply(netif, &sipaddr);
 731:Source\LwIP\src\core\ipv4/etharp.c **** #endif /* (LWIP_DHCP && DHCP_DOES_ARP_CHECK) */
 732:Source\LwIP\src\core\ipv4/etharp.c ****     break;
 733:Source\LwIP\src\core\ipv4/etharp.c ****   default:
ARM GAS  C:\Users\Phuong\AppData\Local\Temp\cczAUGdE.s 			page 25


 734:Source\LwIP\src\core\ipv4/etharp.c ****     LWIP_DEBUGF(ETHARP_DEBUG | LWIP_DBG_TRACE, ("etharp_input: ARP unknown opcode type %"S16_F"\n",
 735:Source\LwIP\src\core\ipv4/etharp.c ****     ETHARP_STATS_INC(etharp.err);
 736:Source\LwIP\src\core\ipv4/etharp.c ****     break;
 737:Source\LwIP\src\core\ipv4/etharp.c ****   }
 738:Source\LwIP\src\core\ipv4/etharp.c ****   /* free ARP packet */
 739:Source\LwIP\src\core\ipv4/etharp.c ****   pbuf_free(p);
 740:Source\LwIP\src\core\ipv4/etharp.c **** }
 741:Source\LwIP\src\core\ipv4/etharp.c **** 
 742:Source\LwIP\src\core\ipv4/etharp.c **** /** Just a small helper function that sends a pbuf to an ethernet address
 743:Source\LwIP\src\core\ipv4/etharp.c ****  * in the arp_table specified by the index 'arp_idx'.
 744:Source\LwIP\src\core\ipv4/etharp.c ****  */
 745:Source\LwIP\src\core\ipv4/etharp.c **** static err_t
 746:Source\LwIP\src\core\ipv4/etharp.c **** etharp_output_to_arp_index(struct netif *netif, struct pbuf *q, u8_t arp_idx)
 747:Source\LwIP\src\core\ipv4/etharp.c **** {
 748:Source\LwIP\src\core\ipv4/etharp.c ****   LWIP_ASSERT("arp_table[arp_idx].state >= ETHARP_STATE_STABLE",
 749:Source\LwIP\src\core\ipv4/etharp.c ****               arp_table[arp_idx].state >= ETHARP_STATE_STABLE);
 750:Source\LwIP\src\core\ipv4/etharp.c ****   /* if arp table entry is about to expire: re-request it,
 751:Source\LwIP\src\core\ipv4/etharp.c ****      but only if its state is ETHARP_STATE_STABLE to prevent flooding the
 752:Source\LwIP\src\core\ipv4/etharp.c ****      network with ARP requests if this address is used frequently. */
 753:Source\LwIP\src\core\ipv4/etharp.c ****   if (arp_table[arp_idx].state == ETHARP_STATE_STABLE) {
 754:Source\LwIP\src\core\ipv4/etharp.c ****     if (arp_table[arp_idx].ctime >= ARP_AGE_REREQUEST_USED_BROADCAST) {
 755:Source\LwIP\src\core\ipv4/etharp.c ****       /* issue a standard request using broadcast */
 756:Source\LwIP\src\core\ipv4/etharp.c ****       if (etharp_request(netif, &arp_table[arp_idx].ipaddr) == ERR_OK) {
 757:Source\LwIP\src\core\ipv4/etharp.c ****         arp_table[arp_idx].state = ETHARP_STATE_STABLE_REREQUESTING_1;
 758:Source\LwIP\src\core\ipv4/etharp.c ****       }
 759:Source\LwIP\src\core\ipv4/etharp.c ****     } else if (arp_table[arp_idx].ctime >= ARP_AGE_REREQUEST_USED_UNICAST) {
 760:Source\LwIP\src\core\ipv4/etharp.c ****       /* issue a unicast request (for 15 seconds) to prevent unnecessary broadcast */
 761:Source\LwIP\src\core\ipv4/etharp.c ****       if (etharp_request_dst(netif, &arp_table[arp_idx].ipaddr, &arp_table[arp_idx].ethaddr) == ERR
 762:Source\LwIP\src\core\ipv4/etharp.c ****         arp_table[arp_idx].state = ETHARP_STATE_STABLE_REREQUESTING_1;
 763:Source\LwIP\src\core\ipv4/etharp.c ****       }
 764:Source\LwIP\src\core\ipv4/etharp.c ****     }
 765:Source\LwIP\src\core\ipv4/etharp.c ****   }
 766:Source\LwIP\src\core\ipv4/etharp.c **** 
 767:Source\LwIP\src\core\ipv4/etharp.c ****   return ethernet_output(netif, q, (struct eth_addr*)(netif->hwaddr), &arp_table[arp_idx].ethaddr, 
 768:Source\LwIP\src\core\ipv4/etharp.c **** }
 769:Source\LwIP\src\core\ipv4/etharp.c **** 
 770:Source\LwIP\src\core\ipv4/etharp.c **** /**
 771:Source\LwIP\src\core\ipv4/etharp.c ****  * Resolve and fill-in Ethernet address header for outgoing IP packet.
 772:Source\LwIP\src\core\ipv4/etharp.c ****  *
 773:Source\LwIP\src\core\ipv4/etharp.c ****  * For IP multicast and broadcast, corresponding Ethernet addresses
 774:Source\LwIP\src\core\ipv4/etharp.c ****  * are selected and the packet is transmitted on the link.
 775:Source\LwIP\src\core\ipv4/etharp.c ****  *
 776:Source\LwIP\src\core\ipv4/etharp.c ****  * For unicast addresses, the packet is submitted to etharp_query(). In
 777:Source\LwIP\src\core\ipv4/etharp.c ****  * case the IP address is outside the local network, the IP address of
 778:Source\LwIP\src\core\ipv4/etharp.c ****  * the gateway is used.
 779:Source\LwIP\src\core\ipv4/etharp.c ****  *
 780:Source\LwIP\src\core\ipv4/etharp.c ****  * @param netif The lwIP network interface which the IP packet will be sent on.
 781:Source\LwIP\src\core\ipv4/etharp.c ****  * @param q The pbuf(s) containing the IP packet to be sent.
 782:Source\LwIP\src\core\ipv4/etharp.c ****  * @param ipaddr The IP address of the packet destination.
 783:Source\LwIP\src\core\ipv4/etharp.c ****  *
 784:Source\LwIP\src\core\ipv4/etharp.c ****  * @return
 785:Source\LwIP\src\core\ipv4/etharp.c ****  * - ERR_RTE No route to destination (no gateway to external networks),
 786:Source\LwIP\src\core\ipv4/etharp.c ****  * or the return type of either etharp_query() or ethernet_output().
 787:Source\LwIP\src\core\ipv4/etharp.c ****  */
 788:Source\LwIP\src\core\ipv4/etharp.c **** err_t
 789:Source\LwIP\src\core\ipv4/etharp.c **** etharp_output(struct netif *netif, struct pbuf *q, const ip4_addr_t *ipaddr)
 790:Source\LwIP\src\core\ipv4/etharp.c **** {
ARM GAS  C:\Users\Phuong\AppData\Local\Temp\cczAUGdE.s 			page 26


 791:Source\LwIP\src\core\ipv4/etharp.c ****   const struct eth_addr *dest;
 792:Source\LwIP\src\core\ipv4/etharp.c ****   struct eth_addr mcastaddr;
 793:Source\LwIP\src\core\ipv4/etharp.c ****   const ip4_addr_t *dst_addr = ipaddr;
 794:Source\LwIP\src\core\ipv4/etharp.c **** 
 795:Source\LwIP\src\core\ipv4/etharp.c ****   LWIP_ASSERT("netif != NULL", netif != NULL);
 796:Source\LwIP\src\core\ipv4/etharp.c ****   LWIP_ASSERT("q != NULL", q != NULL);
 797:Source\LwIP\src\core\ipv4/etharp.c ****   LWIP_ASSERT("ipaddr != NULL", ipaddr != NULL);
 798:Source\LwIP\src\core\ipv4/etharp.c **** 
 799:Source\LwIP\src\core\ipv4/etharp.c ****   /* Determine on destination hardware address. Broadcasts and multicasts
 800:Source\LwIP\src\core\ipv4/etharp.c ****    * are special, other IP addresses are looked up in the ARP table. */
 801:Source\LwIP\src\core\ipv4/etharp.c **** 
 802:Source\LwIP\src\core\ipv4/etharp.c ****   /* broadcast destination IP address? */
 803:Source\LwIP\src\core\ipv4/etharp.c ****   if (ip4_addr_isbroadcast(ipaddr, netif)) {
 804:Source\LwIP\src\core\ipv4/etharp.c ****     /* broadcast on Ethernet also */
 805:Source\LwIP\src\core\ipv4/etharp.c ****     dest = (const struct eth_addr *)&ethbroadcast;
 806:Source\LwIP\src\core\ipv4/etharp.c ****   /* multicast destination IP address? */
 807:Source\LwIP\src\core\ipv4/etharp.c ****   } else if (ip4_addr_ismulticast(ipaddr)) {
 808:Source\LwIP\src\core\ipv4/etharp.c ****     /* Hash IP multicast address to MAC address.*/
 809:Source\LwIP\src\core\ipv4/etharp.c ****     mcastaddr.addr[0] = LL_IP4_MULTICAST_ADDR_0;
 810:Source\LwIP\src\core\ipv4/etharp.c ****     mcastaddr.addr[1] = LL_IP4_MULTICAST_ADDR_1;
 811:Source\LwIP\src\core\ipv4/etharp.c ****     mcastaddr.addr[2] = LL_IP4_MULTICAST_ADDR_2;
 812:Source\LwIP\src\core\ipv4/etharp.c ****     mcastaddr.addr[3] = ip4_addr2(ipaddr) & 0x7f;
 813:Source\LwIP\src\core\ipv4/etharp.c ****     mcastaddr.addr[4] = ip4_addr3(ipaddr);
 814:Source\LwIP\src\core\ipv4/etharp.c ****     mcastaddr.addr[5] = ip4_addr4(ipaddr);
 815:Source\LwIP\src\core\ipv4/etharp.c ****     /* destination Ethernet address is multicast */
 816:Source\LwIP\src\core\ipv4/etharp.c ****     dest = &mcastaddr;
 817:Source\LwIP\src\core\ipv4/etharp.c ****   /* unicast destination IP address? */
 818:Source\LwIP\src\core\ipv4/etharp.c ****   } else {
 819:Source\LwIP\src\core\ipv4/etharp.c ****     s8_t i;
 820:Source\LwIP\src\core\ipv4/etharp.c ****     /* outside local network? if so, this can neither be a global broadcast nor
 821:Source\LwIP\src\core\ipv4/etharp.c ****        a subnet broadcast. */
 822:Source\LwIP\src\core\ipv4/etharp.c ****     if (!ip4_addr_netcmp(ipaddr, netif_ip4_addr(netif), netif_ip4_netmask(netif)) &&
 823:Source\LwIP\src\core\ipv4/etharp.c ****         !ip4_addr_islinklocal(ipaddr)) {
 824:Source\LwIP\src\core\ipv4/etharp.c **** #if LWIP_AUTOIP
 825:Source\LwIP\src\core\ipv4/etharp.c ****       struct ip_hdr *iphdr = LWIP_ALIGNMENT_CAST(struct ip_hdr*, q->payload);
 826:Source\LwIP\src\core\ipv4/etharp.c ****       /* According to RFC 3297, chapter 2.6.2 (Forwarding Rules), a packet with
 827:Source\LwIP\src\core\ipv4/etharp.c ****          a link-local source address must always be "directly to its destination
 828:Source\LwIP\src\core\ipv4/etharp.c ****          on the same physical link. The host MUST NOT send the packet to any
 829:Source\LwIP\src\core\ipv4/etharp.c ****          router for forwarding". */
 830:Source\LwIP\src\core\ipv4/etharp.c ****       if (!ip4_addr_islinklocal(&iphdr->src))
 831:Source\LwIP\src\core\ipv4/etharp.c **** #endif /* LWIP_AUTOIP */
 832:Source\LwIP\src\core\ipv4/etharp.c ****       {
 833:Source\LwIP\src\core\ipv4/etharp.c **** #ifdef LWIP_HOOK_ETHARP_GET_GW
 834:Source\LwIP\src\core\ipv4/etharp.c ****         /* For advanced routing, a single default gateway might not be enough, so get
 835:Source\LwIP\src\core\ipv4/etharp.c ****            the IP address of the gateway to handle the current destination address. */
 836:Source\LwIP\src\core\ipv4/etharp.c ****         dst_addr = LWIP_HOOK_ETHARP_GET_GW(netif, ipaddr);
 837:Source\LwIP\src\core\ipv4/etharp.c ****         if (dst_addr == NULL)
 838:Source\LwIP\src\core\ipv4/etharp.c **** #endif /* LWIP_HOOK_ETHARP_GET_GW */
 839:Source\LwIP\src\core\ipv4/etharp.c ****         {
 840:Source\LwIP\src\core\ipv4/etharp.c ****           /* interface has default gateway? */
 841:Source\LwIP\src\core\ipv4/etharp.c ****           if (!ip4_addr_isany_val(*netif_ip4_gw(netif))) {
 842:Source\LwIP\src\core\ipv4/etharp.c ****             /* send to hardware address of default gateway IP address */
 843:Source\LwIP\src\core\ipv4/etharp.c ****             dst_addr = netif_ip4_gw(netif);
 844:Source\LwIP\src\core\ipv4/etharp.c ****           /* no default gateway available */
 845:Source\LwIP\src\core\ipv4/etharp.c ****           } else {
 846:Source\LwIP\src\core\ipv4/etharp.c ****             /* no route to destination error (default gateway missing) */
 847:Source\LwIP\src\core\ipv4/etharp.c ****             return ERR_RTE;
ARM GAS  C:\Users\Phuong\AppData\Local\Temp\cczAUGdE.s 			page 27


 848:Source\LwIP\src\core\ipv4/etharp.c ****           }
 849:Source\LwIP\src\core\ipv4/etharp.c ****         }
 850:Source\LwIP\src\core\ipv4/etharp.c ****       }
 851:Source\LwIP\src\core\ipv4/etharp.c ****     }
 852:Source\LwIP\src\core\ipv4/etharp.c **** #if LWIP_NETIF_HWADDRHINT
 853:Source\LwIP\src\core\ipv4/etharp.c ****     if (netif->addr_hint != NULL) {
 854:Source\LwIP\src\core\ipv4/etharp.c ****       /* per-pcb cached entry was given */
 855:Source\LwIP\src\core\ipv4/etharp.c ****       u8_t etharp_cached_entry = *(netif->addr_hint);
 856:Source\LwIP\src\core\ipv4/etharp.c ****       if (etharp_cached_entry < ARP_TABLE_SIZE) {
 857:Source\LwIP\src\core\ipv4/etharp.c **** #endif /* LWIP_NETIF_HWADDRHINT */
 858:Source\LwIP\src\core\ipv4/etharp.c ****         if ((arp_table[etharp_cached_entry].state >= ETHARP_STATE_STABLE) &&
 859:Source\LwIP\src\core\ipv4/etharp.c **** #if ETHARP_TABLE_MATCH_NETIF
 860:Source\LwIP\src\core\ipv4/etharp.c ****             (arp_table[etharp_cached_entry].netif == netif) &&
 861:Source\LwIP\src\core\ipv4/etharp.c **** #endif
 862:Source\LwIP\src\core\ipv4/etharp.c ****             (ip4_addr_cmp(dst_addr, &arp_table[etharp_cached_entry].ipaddr))) {
 863:Source\LwIP\src\core\ipv4/etharp.c ****           /* the per-pcb-cached entry is stable and the right one! */
 864:Source\LwIP\src\core\ipv4/etharp.c ****           ETHARP_STATS_INC(etharp.cachehit);
 865:Source\LwIP\src\core\ipv4/etharp.c ****           return etharp_output_to_arp_index(netif, q, etharp_cached_entry);
 866:Source\LwIP\src\core\ipv4/etharp.c ****         }
 867:Source\LwIP\src\core\ipv4/etharp.c **** #if LWIP_NETIF_HWADDRHINT
 868:Source\LwIP\src\core\ipv4/etharp.c ****       }
 869:Source\LwIP\src\core\ipv4/etharp.c ****     }
 870:Source\LwIP\src\core\ipv4/etharp.c **** #endif /* LWIP_NETIF_HWADDRHINT */
 871:Source\LwIP\src\core\ipv4/etharp.c **** 
 872:Source\LwIP\src\core\ipv4/etharp.c ****     /* find stable entry: do this here since this is a critical path for
 873:Source\LwIP\src\core\ipv4/etharp.c ****        throughput and etharp_find_entry() is kind of slow */
 874:Source\LwIP\src\core\ipv4/etharp.c ****     for (i = 0; i < ARP_TABLE_SIZE; i++) {
 875:Source\LwIP\src\core\ipv4/etharp.c ****       if ((arp_table[i].state >= ETHARP_STATE_STABLE) &&
 876:Source\LwIP\src\core\ipv4/etharp.c **** #if ETHARP_TABLE_MATCH_NETIF
 877:Source\LwIP\src\core\ipv4/etharp.c ****           (arp_table[i].netif == netif) &&
 878:Source\LwIP\src\core\ipv4/etharp.c **** #endif
 879:Source\LwIP\src\core\ipv4/etharp.c ****           (ip4_addr_cmp(dst_addr, &arp_table[i].ipaddr))) {
 880:Source\LwIP\src\core\ipv4/etharp.c ****         /* found an existing, stable entry */
 881:Source\LwIP\src\core\ipv4/etharp.c ****         ETHARP_SET_HINT(netif, i);
 882:Source\LwIP\src\core\ipv4/etharp.c ****         return etharp_output_to_arp_index(netif, q, i);
 883:Source\LwIP\src\core\ipv4/etharp.c ****       }
 884:Source\LwIP\src\core\ipv4/etharp.c ****     }
 885:Source\LwIP\src\core\ipv4/etharp.c ****     /* no stable entry found, use the (slower) query function:
 886:Source\LwIP\src\core\ipv4/etharp.c ****        queue on destination Ethernet address belonging to ipaddr */
 887:Source\LwIP\src\core\ipv4/etharp.c ****     return etharp_query(netif, dst_addr, q);
 888:Source\LwIP\src\core\ipv4/etharp.c ****   }
 889:Source\LwIP\src\core\ipv4/etharp.c **** 
 890:Source\LwIP\src\core\ipv4/etharp.c ****   /* continuation for multicast/broadcast destinations */
 891:Source\LwIP\src\core\ipv4/etharp.c ****   /* obtain source Ethernet address of the given interface */
 892:Source\LwIP\src\core\ipv4/etharp.c ****   /* send packet directly on the link */
 893:Source\LwIP\src\core\ipv4/etharp.c ****   return ethernet_output(netif, q, (struct eth_addr*)(netif->hwaddr), dest, ETHTYPE_IP);
 894:Source\LwIP\src\core\ipv4/etharp.c **** }
 895:Source\LwIP\src\core\ipv4/etharp.c **** 
 896:Source\LwIP\src\core\ipv4/etharp.c **** /**
 897:Source\LwIP\src\core\ipv4/etharp.c ****  * Send an ARP request for the given IP address and/or queue a packet.
 898:Source\LwIP\src\core\ipv4/etharp.c ****  *
 899:Source\LwIP\src\core\ipv4/etharp.c ****  * If the IP address was not yet in the cache, a pending ARP cache entry
 900:Source\LwIP\src\core\ipv4/etharp.c ****  * is added and an ARP request is sent for the given address. The packet
 901:Source\LwIP\src\core\ipv4/etharp.c ****  * is queued on this entry.
 902:Source\LwIP\src\core\ipv4/etharp.c ****  *
 903:Source\LwIP\src\core\ipv4/etharp.c ****  * If the IP address was already pending in the cache, a new ARP request
 904:Source\LwIP\src\core\ipv4/etharp.c ****  * is sent for the given address. The packet is queued on this entry.
ARM GAS  C:\Users\Phuong\AppData\Local\Temp\cczAUGdE.s 			page 28


 905:Source\LwIP\src\core\ipv4/etharp.c ****  *
 906:Source\LwIP\src\core\ipv4/etharp.c ****  * If the IP address was already stable in the cache, and a packet is
 907:Source\LwIP\src\core\ipv4/etharp.c ****  * given, it is directly sent and no ARP request is sent out.
 908:Source\LwIP\src\core\ipv4/etharp.c ****  *
 909:Source\LwIP\src\core\ipv4/etharp.c ****  * If the IP address was already stable in the cache, and no packet is
 910:Source\LwIP\src\core\ipv4/etharp.c ****  * given, an ARP request is sent out.
 911:Source\LwIP\src\core\ipv4/etharp.c ****  *
 912:Source\LwIP\src\core\ipv4/etharp.c ****  * @param netif The lwIP network interface on which ipaddr
 913:Source\LwIP\src\core\ipv4/etharp.c ****  * must be queried for.
 914:Source\LwIP\src\core\ipv4/etharp.c ****  * @param ipaddr The IP address to be resolved.
 915:Source\LwIP\src\core\ipv4/etharp.c ****  * @param q If non-NULL, a pbuf that must be delivered to the IP address.
 916:Source\LwIP\src\core\ipv4/etharp.c ****  * q is not freed by this function.
 917:Source\LwIP\src\core\ipv4/etharp.c ****  *
 918:Source\LwIP\src\core\ipv4/etharp.c ****  * @note q must only be ONE packet, not a packet queue!
 919:Source\LwIP\src\core\ipv4/etharp.c ****  *
 920:Source\LwIP\src\core\ipv4/etharp.c ****  * @return
 921:Source\LwIP\src\core\ipv4/etharp.c ****  * - ERR_BUF Could not make room for Ethernet header.
 922:Source\LwIP\src\core\ipv4/etharp.c ****  * - ERR_MEM Hardware address unknown, and no more ARP entries available
 923:Source\LwIP\src\core\ipv4/etharp.c ****  *   to query for address or queue the packet.
 924:Source\LwIP\src\core\ipv4/etharp.c ****  * - ERR_MEM Could not queue packet due to memory shortage.
 925:Source\LwIP\src\core\ipv4/etharp.c ****  * - ERR_RTE No route to destination (no gateway to external networks).
 926:Source\LwIP\src\core\ipv4/etharp.c ****  * - ERR_ARG Non-unicast address given, those will not appear in ARP cache.
 927:Source\LwIP\src\core\ipv4/etharp.c ****  *
 928:Source\LwIP\src\core\ipv4/etharp.c ****  */
 929:Source\LwIP\src\core\ipv4/etharp.c **** err_t
 930:Source\LwIP\src\core\ipv4/etharp.c **** etharp_query(struct netif *netif, const ip4_addr_t *ipaddr, struct pbuf *q)
 931:Source\LwIP\src\core\ipv4/etharp.c **** {
 932:Source\LwIP\src\core\ipv4/etharp.c ****   struct eth_addr * srcaddr = (struct eth_addr *)netif->hwaddr;
 933:Source\LwIP\src\core\ipv4/etharp.c ****   err_t result = ERR_MEM;
 934:Source\LwIP\src\core\ipv4/etharp.c ****   int is_new_entry = 0;
 935:Source\LwIP\src\core\ipv4/etharp.c ****   s8_t i; /* ARP entry index */
 936:Source\LwIP\src\core\ipv4/etharp.c **** 
 937:Source\LwIP\src\core\ipv4/etharp.c ****   /* non-unicast address? */
 938:Source\LwIP\src\core\ipv4/etharp.c ****   if (ip4_addr_isbroadcast(ipaddr, netif) ||
 939:Source\LwIP\src\core\ipv4/etharp.c ****       ip4_addr_ismulticast(ipaddr) ||
 940:Source\LwIP\src\core\ipv4/etharp.c ****       ip4_addr_isany(ipaddr)) {
 941:Source\LwIP\src\core\ipv4/etharp.c ****     LWIP_DEBUGF(ETHARP_DEBUG | LWIP_DBG_TRACE, ("etharp_query: will not add non-unicast IP address 
 942:Source\LwIP\src\core\ipv4/etharp.c ****     return ERR_ARG;
 943:Source\LwIP\src\core\ipv4/etharp.c ****   }
 944:Source\LwIP\src\core\ipv4/etharp.c **** 
 945:Source\LwIP\src\core\ipv4/etharp.c ****   /* find entry in ARP cache, ask to create entry if queueing packet */
 946:Source\LwIP\src\core\ipv4/etharp.c ****   i = etharp_find_entry(ipaddr, ETHARP_FLAG_TRY_HARD, netif);
 947:Source\LwIP\src\core\ipv4/etharp.c **** 
 948:Source\LwIP\src\core\ipv4/etharp.c ****   /* could not find or create entry? */
 949:Source\LwIP\src\core\ipv4/etharp.c ****   if (i < 0) {
 950:Source\LwIP\src\core\ipv4/etharp.c ****     LWIP_DEBUGF(ETHARP_DEBUG | LWIP_DBG_TRACE, ("etharp_query: could not create ARP entry\n"));
 951:Source\LwIP\src\core\ipv4/etharp.c ****     if (q) {
 952:Source\LwIP\src\core\ipv4/etharp.c ****       LWIP_DEBUGF(ETHARP_DEBUG | LWIP_DBG_TRACE, ("etharp_query: packet dropped\n"));
 953:Source\LwIP\src\core\ipv4/etharp.c ****       ETHARP_STATS_INC(etharp.memerr);
 954:Source\LwIP\src\core\ipv4/etharp.c ****     }
 955:Source\LwIP\src\core\ipv4/etharp.c ****     return (err_t)i;
 956:Source\LwIP\src\core\ipv4/etharp.c ****   }
 957:Source\LwIP\src\core\ipv4/etharp.c **** 
 958:Source\LwIP\src\core\ipv4/etharp.c ****   /* mark a fresh entry as pending (we just sent a request) */
 959:Source\LwIP\src\core\ipv4/etharp.c ****   if (arp_table[i].state == ETHARP_STATE_EMPTY) {
 960:Source\LwIP\src\core\ipv4/etharp.c ****     is_new_entry = 1;
 961:Source\LwIP\src\core\ipv4/etharp.c ****     arp_table[i].state = ETHARP_STATE_PENDING;
ARM GAS  C:\Users\Phuong\AppData\Local\Temp\cczAUGdE.s 			page 29


 962:Source\LwIP\src\core\ipv4/etharp.c ****     /* record network interface for re-sending arp request in etharp_tmr */
 963:Source\LwIP\src\core\ipv4/etharp.c ****     arp_table[i].netif = netif;
 964:Source\LwIP\src\core\ipv4/etharp.c ****   }
 965:Source\LwIP\src\core\ipv4/etharp.c **** 
 966:Source\LwIP\src\core\ipv4/etharp.c ****   /* { i is either a STABLE or (new or existing) PENDING entry } */
 967:Source\LwIP\src\core\ipv4/etharp.c ****   LWIP_ASSERT("arp_table[i].state == PENDING or STABLE",
 968:Source\LwIP\src\core\ipv4/etharp.c ****   ((arp_table[i].state == ETHARP_STATE_PENDING) ||
 969:Source\LwIP\src\core\ipv4/etharp.c ****    (arp_table[i].state >= ETHARP_STATE_STABLE)));
 970:Source\LwIP\src\core\ipv4/etharp.c **** 
 971:Source\LwIP\src\core\ipv4/etharp.c ****   /* do we have a new entry? or an implicit query request? */
 972:Source\LwIP\src\core\ipv4/etharp.c ****   if (is_new_entry || (q == NULL)) {
 973:Source\LwIP\src\core\ipv4/etharp.c ****     /* try to resolve it; send out ARP request */
 974:Source\LwIP\src\core\ipv4/etharp.c ****     result = etharp_request(netif, ipaddr);
 975:Source\LwIP\src\core\ipv4/etharp.c ****     if (result != ERR_OK) {
 976:Source\LwIP\src\core\ipv4/etharp.c ****       /* ARP request couldn't be sent */
 977:Source\LwIP\src\core\ipv4/etharp.c ****       /* We don't re-send arp request in etharp_tmr, but we still queue packets,
 978:Source\LwIP\src\core\ipv4/etharp.c ****          since this failure could be temporary, and the next packet calling
 979:Source\LwIP\src\core\ipv4/etharp.c ****          etharp_query again could lead to sending the queued packets. */
 980:Source\LwIP\src\core\ipv4/etharp.c ****     }
 981:Source\LwIP\src\core\ipv4/etharp.c ****     if (q == NULL) {
 982:Source\LwIP\src\core\ipv4/etharp.c ****       return result;
 983:Source\LwIP\src\core\ipv4/etharp.c ****     }
 984:Source\LwIP\src\core\ipv4/etharp.c ****   }
 985:Source\LwIP\src\core\ipv4/etharp.c **** 
 986:Source\LwIP\src\core\ipv4/etharp.c ****   /* packet given? */
 987:Source\LwIP\src\core\ipv4/etharp.c ****   LWIP_ASSERT("q != NULL", q != NULL);
 988:Source\LwIP\src\core\ipv4/etharp.c ****   /* stable entry? */
 989:Source\LwIP\src\core\ipv4/etharp.c ****   if (arp_table[i].state >= ETHARP_STATE_STABLE) {
 990:Source\LwIP\src\core\ipv4/etharp.c ****     /* we have a valid IP->Ethernet address mapping */
 991:Source\LwIP\src\core\ipv4/etharp.c ****     ETHARP_SET_HINT(netif, i);
 992:Source\LwIP\src\core\ipv4/etharp.c ****     /* send the packet */
 993:Source\LwIP\src\core\ipv4/etharp.c ****     result = ethernet_output(netif, q, srcaddr, &(arp_table[i].ethaddr), ETHTYPE_IP);
 994:Source\LwIP\src\core\ipv4/etharp.c ****   /* pending entry? (either just created or already pending */
 995:Source\LwIP\src\core\ipv4/etharp.c ****   } else if (arp_table[i].state == ETHARP_STATE_PENDING) {
 996:Source\LwIP\src\core\ipv4/etharp.c ****     /* entry is still pending, queue the given packet 'q' */
 997:Source\LwIP\src\core\ipv4/etharp.c ****     struct pbuf *p;
 998:Source\LwIP\src\core\ipv4/etharp.c ****     int copy_needed = 0;
 999:Source\LwIP\src\core\ipv4/etharp.c ****     /* IF q includes a PBUF_REF, PBUF_POOL or PBUF_RAM, we have no choice but
1000:Source\LwIP\src\core\ipv4/etharp.c ****      * to copy the whole queue into a new PBUF_RAM (see bug #11400)
1001:Source\LwIP\src\core\ipv4/etharp.c ****      * PBUF_ROMs can be left as they are, since ROM must not get changed. */
1002:Source\LwIP\src\core\ipv4/etharp.c ****     p = q;
1003:Source\LwIP\src\core\ipv4/etharp.c ****     while (p) {
1004:Source\LwIP\src\core\ipv4/etharp.c ****       LWIP_ASSERT("no packet queues allowed!", (p->len != p->tot_len) || (p->next == 0));
1005:Source\LwIP\src\core\ipv4/etharp.c ****       if (p->type != PBUF_ROM) {
1006:Source\LwIP\src\core\ipv4/etharp.c ****         copy_needed = 1;
1007:Source\LwIP\src\core\ipv4/etharp.c ****         break;
1008:Source\LwIP\src\core\ipv4/etharp.c ****       }
1009:Source\LwIP\src\core\ipv4/etharp.c ****       p = p->next;
1010:Source\LwIP\src\core\ipv4/etharp.c ****     }
1011:Source\LwIP\src\core\ipv4/etharp.c ****     if (copy_needed) {
1012:Source\LwIP\src\core\ipv4/etharp.c ****       /* copy the whole packet into new pbufs */
1013:Source\LwIP\src\core\ipv4/etharp.c ****       p = pbuf_alloc(PBUF_LINK, p->tot_len, PBUF_RAM);
1014:Source\LwIP\src\core\ipv4/etharp.c ****       if (p != NULL) {
1015:Source\LwIP\src\core\ipv4/etharp.c ****         if (pbuf_copy(p, q) != ERR_OK) {
1016:Source\LwIP\src\core\ipv4/etharp.c ****           pbuf_free(p);
1017:Source\LwIP\src\core\ipv4/etharp.c ****           p = NULL;
1018:Source\LwIP\src\core\ipv4/etharp.c ****         }
ARM GAS  C:\Users\Phuong\AppData\Local\Temp\cczAUGdE.s 			page 30


1019:Source\LwIP\src\core\ipv4/etharp.c ****       }
1020:Source\LwIP\src\core\ipv4/etharp.c ****     } else {
1021:Source\LwIP\src\core\ipv4/etharp.c ****       /* referencing the old pbuf is enough */
1022:Source\LwIP\src\core\ipv4/etharp.c ****       p = q;
1023:Source\LwIP\src\core\ipv4/etharp.c ****       pbuf_ref(p);
1024:Source\LwIP\src\core\ipv4/etharp.c ****     }
1025:Source\LwIP\src\core\ipv4/etharp.c ****     /* packet could be taken over? */
1026:Source\LwIP\src\core\ipv4/etharp.c ****     if (p != NULL) {
1027:Source\LwIP\src\core\ipv4/etharp.c ****       /* queue packet ... */
1028:Source\LwIP\src\core\ipv4/etharp.c **** #if ARP_QUEUEING
1029:Source\LwIP\src\core\ipv4/etharp.c ****       struct etharp_q_entry *new_entry;
1030:Source\LwIP\src\core\ipv4/etharp.c ****       /* allocate a new arp queue entry */
1031:Source\LwIP\src\core\ipv4/etharp.c ****       new_entry = (struct etharp_q_entry *)memp_malloc(MEMP_ARP_QUEUE);
1032:Source\LwIP\src\core\ipv4/etharp.c ****       if (new_entry != NULL) {
1033:Source\LwIP\src\core\ipv4/etharp.c ****         unsigned int qlen = 0;
1034:Source\LwIP\src\core\ipv4/etharp.c ****         new_entry->next = 0;
1035:Source\LwIP\src\core\ipv4/etharp.c ****         new_entry->p = p;
1036:Source\LwIP\src\core\ipv4/etharp.c ****         if (arp_table[i].q != NULL) {
1037:Source\LwIP\src\core\ipv4/etharp.c ****           /* queue was already existent, append the new entry to the end */
1038:Source\LwIP\src\core\ipv4/etharp.c ****           struct etharp_q_entry *r;
1039:Source\LwIP\src\core\ipv4/etharp.c ****           r = arp_table[i].q;
1040:Source\LwIP\src\core\ipv4/etharp.c ****           qlen++;
1041:Source\LwIP\src\core\ipv4/etharp.c ****           while (r->next != NULL) {
1042:Source\LwIP\src\core\ipv4/etharp.c ****             r = r->next;
1043:Source\LwIP\src\core\ipv4/etharp.c ****             qlen++;
1044:Source\LwIP\src\core\ipv4/etharp.c ****           }
1045:Source\LwIP\src\core\ipv4/etharp.c ****           r->next = new_entry;
1046:Source\LwIP\src\core\ipv4/etharp.c ****         } else {
1047:Source\LwIP\src\core\ipv4/etharp.c ****           /* queue did not exist, first item in queue */
1048:Source\LwIP\src\core\ipv4/etharp.c ****           arp_table[i].q = new_entry;
1049:Source\LwIP\src\core\ipv4/etharp.c ****         }
1050:Source\LwIP\src\core\ipv4/etharp.c **** #if ARP_QUEUE_LEN
1051:Source\LwIP\src\core\ipv4/etharp.c ****         if (qlen >= ARP_QUEUE_LEN) {
1052:Source\LwIP\src\core\ipv4/etharp.c ****           struct etharp_q_entry *old;
1053:Source\LwIP\src\core\ipv4/etharp.c ****           old = arp_table[i].q;
1054:Source\LwIP\src\core\ipv4/etharp.c ****           arp_table[i].q = arp_table[i].q->next;
1055:Source\LwIP\src\core\ipv4/etharp.c ****           pbuf_free(old->p);
1056:Source\LwIP\src\core\ipv4/etharp.c ****           memp_free(MEMP_ARP_QUEUE, old);
1057:Source\LwIP\src\core\ipv4/etharp.c ****         }
1058:Source\LwIP\src\core\ipv4/etharp.c **** #endif
1059:Source\LwIP\src\core\ipv4/etharp.c ****         LWIP_DEBUGF(ETHARP_DEBUG | LWIP_DBG_TRACE, ("etharp_query: queued packet %p on ARP entry %"
1060:Source\LwIP\src\core\ipv4/etharp.c ****         result = ERR_OK;
1061:Source\LwIP\src\core\ipv4/etharp.c ****       } else {
1062:Source\LwIP\src\core\ipv4/etharp.c ****         /* the pool MEMP_ARP_QUEUE is empty */
1063:Source\LwIP\src\core\ipv4/etharp.c ****         pbuf_free(p);
1064:Source\LwIP\src\core\ipv4/etharp.c ****         LWIP_DEBUGF(ETHARP_DEBUG | LWIP_DBG_TRACE, ("etharp_query: could not queue a copy of PBUF_R
1065:Source\LwIP\src\core\ipv4/etharp.c ****         result = ERR_MEM;
1066:Source\LwIP\src\core\ipv4/etharp.c ****       }
1067:Source\LwIP\src\core\ipv4/etharp.c **** #else /* ARP_QUEUEING */
1068:Source\LwIP\src\core\ipv4/etharp.c ****       /* always queue one packet per ARP request only, freeing a previously queued packet */
1069:Source\LwIP\src\core\ipv4/etharp.c ****       if (arp_table[i].q != NULL) {
1070:Source\LwIP\src\core\ipv4/etharp.c ****         LWIP_DEBUGF(ETHARP_DEBUG | LWIP_DBG_TRACE, ("etharp_query: dropped previously queued packet
1071:Source\LwIP\src\core\ipv4/etharp.c ****         pbuf_free(arp_table[i].q);
1072:Source\LwIP\src\core\ipv4/etharp.c ****       }
1073:Source\LwIP\src\core\ipv4/etharp.c ****       arp_table[i].q = p;
1074:Source\LwIP\src\core\ipv4/etharp.c ****       result = ERR_OK;
1075:Source\LwIP\src\core\ipv4/etharp.c ****       LWIP_DEBUGF(ETHARP_DEBUG | LWIP_DBG_TRACE, ("etharp_query: queued packet %p on ARP entry %"S1
ARM GAS  C:\Users\Phuong\AppData\Local\Temp\cczAUGdE.s 			page 31


1076:Source\LwIP\src\core\ipv4/etharp.c **** #endif /* ARP_QUEUEING */
1077:Source\LwIP\src\core\ipv4/etharp.c ****     } else {
1078:Source\LwIP\src\core\ipv4/etharp.c ****       ETHARP_STATS_INC(etharp.memerr);
1079:Source\LwIP\src\core\ipv4/etharp.c ****       LWIP_DEBUGF(ETHARP_DEBUG | LWIP_DBG_TRACE, ("etharp_query: could not queue a copy of PBUF_REF
1080:Source\LwIP\src\core\ipv4/etharp.c ****       result = ERR_MEM;
1081:Source\LwIP\src\core\ipv4/etharp.c ****     }
1082:Source\LwIP\src\core\ipv4/etharp.c ****   }
1083:Source\LwIP\src\core\ipv4/etharp.c ****   return result;
1084:Source\LwIP\src\core\ipv4/etharp.c **** }
1085:Source\LwIP\src\core\ipv4/etharp.c **** 
1086:Source\LwIP\src\core\ipv4/etharp.c **** /**
1087:Source\LwIP\src\core\ipv4/etharp.c ****  * Send a raw ARP packet (opcode and all addresses can be modified)
1088:Source\LwIP\src\core\ipv4/etharp.c ****  *
1089:Source\LwIP\src\core\ipv4/etharp.c ****  * @param netif the lwip network interface on which to send the ARP packet
1090:Source\LwIP\src\core\ipv4/etharp.c ****  * @param ethsrc_addr the source MAC address for the ethernet header
1091:Source\LwIP\src\core\ipv4/etharp.c ****  * @param ethdst_addr the destination MAC address for the ethernet header
1092:Source\LwIP\src\core\ipv4/etharp.c ****  * @param hwsrc_addr the source MAC address for the ARP protocol header
1093:Source\LwIP\src\core\ipv4/etharp.c ****  * @param ipsrc_addr the source IP address for the ARP protocol header
1094:Source\LwIP\src\core\ipv4/etharp.c ****  * @param hwdst_addr the destination MAC address for the ARP protocol header
1095:Source\LwIP\src\core\ipv4/etharp.c ****  * @param ipdst_addr the destination IP address for the ARP protocol header
1096:Source\LwIP\src\core\ipv4/etharp.c ****  * @param opcode the type of the ARP packet
1097:Source\LwIP\src\core\ipv4/etharp.c ****  * @return ERR_OK if the ARP packet has been sent
1098:Source\LwIP\src\core\ipv4/etharp.c ****  *         ERR_MEM if the ARP packet couldn't be allocated
1099:Source\LwIP\src\core\ipv4/etharp.c ****  *         any other err_t on failure
1100:Source\LwIP\src\core\ipv4/etharp.c ****  */
1101:Source\LwIP\src\core\ipv4/etharp.c **** static err_t
1102:Source\LwIP\src\core\ipv4/etharp.c **** etharp_raw(struct netif *netif, const struct eth_addr *ethsrc_addr,
1103:Source\LwIP\src\core\ipv4/etharp.c ****            const struct eth_addr *ethdst_addr,
1104:Source\LwIP\src\core\ipv4/etharp.c ****            const struct eth_addr *hwsrc_addr, const ip4_addr_t *ipsrc_addr,
1105:Source\LwIP\src\core\ipv4/etharp.c ****            const struct eth_addr *hwdst_addr, const ip4_addr_t *ipdst_addr,
1106:Source\LwIP\src\core\ipv4/etharp.c ****            const u16_t opcode)
1107:Source\LwIP\src\core\ipv4/etharp.c **** {
 623              		.loc 1 1107 0
 624              		.cfi_startproc
 625              		@ args = 16, pretend = 0, frame = 16
 626              		@ frame_needed = 0, uses_anonymous_args = 0
 627              	.LVL76:
 628 0000 F0B5     		push	{r4, r5, r6, r7, lr}
 629              		.cfi_def_cfa_offset 20
 630              		.cfi_offset 4, -20
 631              		.cfi_offset 5, -16
 632              		.cfi_offset 6, -12
 633              		.cfi_offset 7, -8
 634              		.cfi_offset 14, -4
 635 0002 87B0     		sub	sp, sp, #28
 636              		.cfi_def_cfa_offset 48
 637 0004 0390     		str	r0, [sp, #12]
 638 0006 0491     		str	r1, [sp, #16]
 639 0008 0592     		str	r2, [sp, #20]
 640 000a 1F00     		movs	r7, r3
 641 000c 0FAB     		add	r3, sp, #60
 642              	.LVL77:
 643 000e 1E88     		ldrh	r6, [r3]
 644              	.LVL78:
1108:Source\LwIP\src\core\ipv4/etharp.c ****   struct pbuf *p;
1109:Source\LwIP\src\core\ipv4/etharp.c ****   err_t result = ERR_OK;
1110:Source\LwIP\src\core\ipv4/etharp.c ****   struct etharp_hdr *hdr;
ARM GAS  C:\Users\Phuong\AppData\Local\Temp\cczAUGdE.s 			page 32


1111:Source\LwIP\src\core\ipv4/etharp.c **** 
1112:Source\LwIP\src\core\ipv4/etharp.c ****   LWIP_ASSERT("netif != NULL", netif != NULL);
1113:Source\LwIP\src\core\ipv4/etharp.c **** 
1114:Source\LwIP\src\core\ipv4/etharp.c ****   /* allocate a pbuf for the outgoing ARP request packet */
1115:Source\LwIP\src\core\ipv4/etharp.c ****   p = pbuf_alloc(PBUF_LINK, SIZEOF_ETHARP_HDR, PBUF_RAM);
 645              		.loc 1 1115 0
 646 0010 0022     		movs	r2, #0
 647              	.LVL79:
 648 0012 1C21     		movs	r1, #28
 649              	.LVL80:
 650 0014 0220     		movs	r0, #2
 651              	.LVL81:
 652 0016 FFF7FEFF 		bl	pbuf_alloc
 653              	.LVL82:
 654 001a 041E     		subs	r4, r0, #0
 655              	.LVL83:
1116:Source\LwIP\src\core\ipv4/etharp.c ****   /* could allocate a pbuf for an ARP request? */
1117:Source\LwIP\src\core\ipv4/etharp.c ****   if (p == NULL) {
 656              		.loc 1 1117 0
 657 001c 06D1     		bne	.L41
1118:Source\LwIP\src\core\ipv4/etharp.c ****     LWIP_DEBUGF(ETHARP_DEBUG | LWIP_DBG_TRACE | LWIP_DBG_LEVEL_SERIOUS,
1119:Source\LwIP\src\core\ipv4/etharp.c ****       ("etharp_raw: could not allocate pbuf for ARP request.\n"));
1120:Source\LwIP\src\core\ipv4/etharp.c ****     ETHARP_STATS_INC(etharp.memerr);
 658              		.loc 1 1120 0
 659 001e 224A     		ldr	r2, .L43
 660 0020 938C     		ldrh	r3, [r2, #36]
 661 0022 0133     		adds	r3, r3, #1
 662 0024 9384     		strh	r3, [r2, #36]
1121:Source\LwIP\src\core\ipv4/etharp.c ****     return ERR_MEM;
 663              		.loc 1 1121 0
 664 0026 0120     		movs	r0, #1
 665              	.LVL84:
 666 0028 4042     		rsbs	r0, r0, #0
 667 002a 3AE0     		b	.L42
 668              	.LVL85:
 669              	.L41:
1122:Source\LwIP\src\core\ipv4/etharp.c ****   }
1123:Source\LwIP\src\core\ipv4/etharp.c ****   LWIP_ASSERT("check that first pbuf can hold struct etharp_hdr",
1124:Source\LwIP\src\core\ipv4/etharp.c ****               (p->len >= SIZEOF_ETHARP_HDR));
1125:Source\LwIP\src\core\ipv4/etharp.c **** 
1126:Source\LwIP\src\core\ipv4/etharp.c ****   hdr = (struct etharp_hdr *)p->payload;
 670              		.loc 1 1126 0
 671 002c 4568     		ldr	r5, [r0, #4]
 672              	.LVL86:
1127:Source\LwIP\src\core\ipv4/etharp.c ****   LWIP_DEBUGF(ETHARP_DEBUG | LWIP_DBG_TRACE, ("etharp_raw: sending raw ARP packet.\n"));
1128:Source\LwIP\src\core\ipv4/etharp.c ****   hdr->opcode = lwip_htons(opcode);
 673              		.loc 1 1128 0
 674 002e 3000     		movs	r0, r6
 675              	.LVL87:
 676 0030 FFF7FEFF 		bl	lwip_htons
 677              	.LVL88:
 678 0034 A871     		strb	r0, [r5, #6]
 679 0036 000A     		lsrs	r0, r0, #8
 680 0038 E871     		strb	r0, [r5, #7]
1129:Source\LwIP\src\core\ipv4/etharp.c **** 
1130:Source\LwIP\src\core\ipv4/etharp.c ****   LWIP_ASSERT("netif->hwaddr_len must be the same as ETH_HWADDR_LEN for etharp!",
1131:Source\LwIP\src\core\ipv4/etharp.c ****               (netif->hwaddr_len == ETH_HWADDR_LEN));
ARM GAS  C:\Users\Phuong\AppData\Local\Temp\cczAUGdE.s 			page 33


1132:Source\LwIP\src\core\ipv4/etharp.c **** 
1133:Source\LwIP\src\core\ipv4/etharp.c ****   /* Write the ARP MAC-Addresses */
1134:Source\LwIP\src\core\ipv4/etharp.c ****   ETHADDR16_COPY(&hdr->shwaddr, hwsrc_addr);
 681              		.loc 1 1134 0
 682 003a 2800     		movs	r0, r5
 683 003c 0830     		adds	r0, r0, #8
 684 003e 0622     		movs	r2, #6
 685 0040 3900     		movs	r1, r7
 686 0042 FFF7FEFF 		bl	memcpy
 687              	.LVL89:
1135:Source\LwIP\src\core\ipv4/etharp.c ****   ETHADDR16_COPY(&hdr->dhwaddr, hwdst_addr);
 688              		.loc 1 1135 0
 689 0046 2800     		movs	r0, r5
 690 0048 1230     		adds	r0, r0, #18
 691 004a 0622     		movs	r2, #6
 692 004c 0D99     		ldr	r1, [sp, #52]
 693 004e FFF7FEFF 		bl	memcpy
 694              	.LVL90:
1136:Source\LwIP\src\core\ipv4/etharp.c ****   /* Copy struct ip4_addr2 to aligned ip4_addr, to support compilers without
1137:Source\LwIP\src\core\ipv4/etharp.c ****    * structure packing. */
1138:Source\LwIP\src\core\ipv4/etharp.c ****   IPADDR2_COPY(&hdr->sipaddr, ipsrc_addr);
 695              		.loc 1 1138 0
 696 0052 2800     		movs	r0, r5
 697 0054 0E30     		adds	r0, r0, #14
 698 0056 0422     		movs	r2, #4
 699 0058 0C99     		ldr	r1, [sp, #48]
 700 005a FFF7FEFF 		bl	memcpy
 701              	.LVL91:
1139:Source\LwIP\src\core\ipv4/etharp.c ****   IPADDR2_COPY(&hdr->dipaddr, ipdst_addr);
 702              		.loc 1 1139 0
 703 005e 2800     		movs	r0, r5
 704 0060 1830     		adds	r0, r0, #24
 705 0062 0422     		movs	r2, #4
 706 0064 0E99     		ldr	r1, [sp, #56]
 707 0066 FFF7FEFF 		bl	memcpy
 708              	.LVL92:
1140:Source\LwIP\src\core\ipv4/etharp.c **** 
1141:Source\LwIP\src\core\ipv4/etharp.c ****   hdr->hwtype = PP_HTONS(HWTYPE_ETHERNET);
 709              		.loc 1 1141 0
 710 006a 0023     		movs	r3, #0
 711 006c 2B70     		strb	r3, [r5]
 712 006e 0133     		adds	r3, r3, #1
 713 0070 6B70     		strb	r3, [r5, #1]
1142:Source\LwIP\src\core\ipv4/etharp.c ****   hdr->proto = PP_HTONS(ETHTYPE_IP);
 714              		.loc 1 1142 0
 715 0072 0733     		adds	r3, r3, #7
 716 0074 AB70     		strb	r3, [r5, #2]
 717 0076 0023     		movs	r3, #0
 718 0078 EB70     		strb	r3, [r5, #3]
1143:Source\LwIP\src\core\ipv4/etharp.c ****   /* set hwlen and protolen */
1144:Source\LwIP\src\core\ipv4/etharp.c ****   hdr->hwlen = ETH_HWADDR_LEN;
 719              		.loc 1 1144 0
 720 007a 0633     		adds	r3, r3, #6
 721 007c 2B71     		strb	r3, [r5, #4]
1145:Source\LwIP\src\core\ipv4/etharp.c ****   hdr->protolen = sizeof(ip4_addr_t);
 722              		.loc 1 1145 0
 723 007e 023B     		subs	r3, r3, #2
ARM GAS  C:\Users\Phuong\AppData\Local\Temp\cczAUGdE.s 			page 34


 724 0080 6B71     		strb	r3, [r5, #5]
1146:Source\LwIP\src\core\ipv4/etharp.c **** 
1147:Source\LwIP\src\core\ipv4/etharp.c ****   /* send ARP query */
1148:Source\LwIP\src\core\ipv4/etharp.c **** #if LWIP_AUTOIP
1149:Source\LwIP\src\core\ipv4/etharp.c ****   /* If we are using Link-Local, all ARP packets that contain a Link-Local
1150:Source\LwIP\src\core\ipv4/etharp.c ****    * 'sender IP address' MUST be sent using link-layer broadcast instead of
1151:Source\LwIP\src\core\ipv4/etharp.c ****    * link-layer unicast. (See RFC3927 Section 2.5, last paragraph) */
1152:Source\LwIP\src\core\ipv4/etharp.c ****   if(ip4_addr_islinklocal(ipsrc_addr)) {
1153:Source\LwIP\src\core\ipv4/etharp.c ****     ethernet_output(netif, p, ethsrc_addr, &ethbroadcast, ETHTYPE_ARP);
1154:Source\LwIP\src\core\ipv4/etharp.c ****   } else
1155:Source\LwIP\src\core\ipv4/etharp.c **** #endif /* LWIP_AUTOIP */
1156:Source\LwIP\src\core\ipv4/etharp.c ****   {
1157:Source\LwIP\src\core\ipv4/etharp.c ****     ethernet_output(netif, p, ethsrc_addr, ethdst_addr, ETHTYPE_ARP);
 725              		.loc 1 1157 0
 726 0082 0A4B     		ldr	r3, .L43+4
 727 0084 0093     		str	r3, [sp]
 728 0086 059B     		ldr	r3, [sp, #20]
 729 0088 049A     		ldr	r2, [sp, #16]
 730 008a 2100     		movs	r1, r4
 731 008c 0398     		ldr	r0, [sp, #12]
 732 008e FFF7FEFF 		bl	ethernet_output
 733              	.LVL93:
1158:Source\LwIP\src\core\ipv4/etharp.c ****   }
1159:Source\LwIP\src\core\ipv4/etharp.c **** 
1160:Source\LwIP\src\core\ipv4/etharp.c ****   ETHARP_STATS_INC(etharp.xmit);
 734              		.loc 1 1160 0
 735 0092 054A     		ldr	r2, .L43
 736 0094 138B     		ldrh	r3, [r2, #24]
 737 0096 0133     		adds	r3, r3, #1
 738 0098 1383     		strh	r3, [r2, #24]
1161:Source\LwIP\src\core\ipv4/etharp.c ****   /* free ARP query packet */
1162:Source\LwIP\src\core\ipv4/etharp.c ****   pbuf_free(p);
 739              		.loc 1 1162 0
 740 009a 2000     		movs	r0, r4
 741 009c FFF7FEFF 		bl	pbuf_free
 742              	.LVL94:
1163:Source\LwIP\src\core\ipv4/etharp.c ****   p = NULL;
1164:Source\LwIP\src\core\ipv4/etharp.c ****   /* could not allocate pbuf for ARP request */
1165:Source\LwIP\src\core\ipv4/etharp.c **** 
1166:Source\LwIP\src\core\ipv4/etharp.c ****   return result;
 743              		.loc 1 1166 0
 744 00a0 0020     		movs	r0, #0
 745              	.LVL95:
 746              	.L42:
1167:Source\LwIP\src\core\ipv4/etharp.c **** }
 747              		.loc 1 1167 0
 748 00a2 07B0     		add	sp, sp, #28
 749              		@ sp needed
 750              	.LVL96:
 751 00a4 F0BD     		pop	{r4, r5, r6, r7, pc}
 752              	.L44:
 753 00a6 C046     		.align	2
 754              	.L43:
 755 00a8 00000000 		.word	lwip_stats
 756 00ac 06080000 		.word	2054
 757              		.cfi_endproc
 758              	.LFE65:
ARM GAS  C:\Users\Phuong\AppData\Local\Temp\cczAUGdE.s 			page 35


 759              		.size	etharp_raw, .-etharp_raw
 760              		.section	.text.etharp_request_dst,"ax",%progbits
 761              		.align	2
 762              		.code	16
 763              		.thumb_func
 764              		.type	etharp_request_dst, %function
 765              	etharp_request_dst:
 766              	.LFB66:
1168:Source\LwIP\src\core\ipv4/etharp.c **** 
1169:Source\LwIP\src\core\ipv4/etharp.c **** /**
1170:Source\LwIP\src\core\ipv4/etharp.c ****  * Send an ARP request packet asking for ipaddr to a specific eth address.
1171:Source\LwIP\src\core\ipv4/etharp.c ****  * Used to send unicast request to refresh the ARP table just before an entry
1172:Source\LwIP\src\core\ipv4/etharp.c ****  * times out
1173:Source\LwIP\src\core\ipv4/etharp.c ****  *
1174:Source\LwIP\src\core\ipv4/etharp.c ****  * @param netif the lwip network interface on which to send the request
1175:Source\LwIP\src\core\ipv4/etharp.c ****  * @param ipaddr the IP address for which to ask
1176:Source\LwIP\src\core\ipv4/etharp.c ****  * @param hw_dst_addr the ethernet address to send this packet to
1177:Source\LwIP\src\core\ipv4/etharp.c ****  * @return ERR_OK if the request has been sent
1178:Source\LwIP\src\core\ipv4/etharp.c ****  *         ERR_MEM if the ARP packet couldn't be allocated
1179:Source\LwIP\src\core\ipv4/etharp.c ****  *         any other err_t on failure
1180:Source\LwIP\src\core\ipv4/etharp.c ****  */
1181:Source\LwIP\src\core\ipv4/etharp.c **** static err_t
1182:Source\LwIP\src\core\ipv4/etharp.c **** etharp_request_dst(struct netif *netif, const ip4_addr_t *ipaddr, const struct eth_addr* hw_dst_add
1183:Source\LwIP\src\core\ipv4/etharp.c **** {
 767              		.loc 1 1183 0
 768              		.cfi_startproc
 769              		@ args = 0, pretend = 0, frame = 0
 770              		@ frame_needed = 0, uses_anonymous_args = 0
 771              	.LVL97:
 772 0000 30B5     		push	{r4, r5, lr}
 773              		.cfi_def_cfa_offset 12
 774              		.cfi_offset 4, -12
 775              		.cfi_offset 5, -8
 776              		.cfi_offset 14, -4
 777 0002 85B0     		sub	sp, sp, #20
 778              		.cfi_def_cfa_offset 32
1184:Source\LwIP\src\core\ipv4/etharp.c ****   return etharp_raw(netif, (struct eth_addr *)netif->hwaddr, hw_dst_addr,
1185:Source\LwIP\src\core\ipv4/etharp.c ****                     (struct eth_addr *)netif->hwaddr, netif_ip4_addr(netif), &ethzero,
 779              		.loc 1 1185 0
 780 0004 0400     		movs	r4, r0
 781 0006 3734     		adds	r4, r4, #55
 782 0008 031D     		adds	r3, r0, #4
1184:Source\LwIP\src\core\ipv4/etharp.c ****   return etharp_raw(netif, (struct eth_addr *)netif->hwaddr, hw_dst_addr,
 783              		.loc 1 1184 0
 784 000a 0125     		movs	r5, #1
 785 000c 0395     		str	r5, [sp, #12]
 786 000e 0291     		str	r1, [sp, #8]
 787 0010 0449     		ldr	r1, .L46
 788              	.LVL98:
 789 0012 0191     		str	r1, [sp, #4]
 790 0014 0093     		str	r3, [sp]
 791 0016 2300     		movs	r3, r4
 792 0018 2100     		movs	r1, r4
 793 001a FFF7FEFF 		bl	etharp_raw
 794              	.LVL99:
1186:Source\LwIP\src\core\ipv4/etharp.c ****                     ipaddr, ARP_REQUEST);
1187:Source\LwIP\src\core\ipv4/etharp.c **** }
ARM GAS  C:\Users\Phuong\AppData\Local\Temp\cczAUGdE.s 			page 36


 795              		.loc 1 1187 0
 796 001e 05B0     		add	sp, sp, #20
 797              		@ sp needed
 798              	.LVL100:
 799 0020 30BD     		pop	{r4, r5, pc}
 800              	.L47:
 801 0022 C046     		.align	2
 802              	.L46:
 803 0024 00000000 		.word	ethzero
 804              		.cfi_endproc
 805              	.LFE66:
 806              		.size	etharp_request_dst, .-etharp_request_dst
 807              		.section	.text.etharp_cleanup_netif,"ax",%progbits
 808              		.align	2
 809              		.global	etharp_cleanup_netif
 810              		.code	16
 811              		.thumb_func
 812              		.type	etharp_cleanup_netif, %function
 813              	etharp_cleanup_netif:
 814              	.LFB58:
 560:Source\LwIP\src\core\ipv4/etharp.c ****   u8_t i;
 815              		.loc 1 560 0
 816              		.cfi_startproc
 817              		@ args = 0, pretend = 0, frame = 0
 818              		@ frame_needed = 0, uses_anonymous_args = 0
 819              	.LVL101:
 820 0000 70B5     		push	{r4, r5, r6, lr}
 821              		.cfi_def_cfa_offset 16
 822              		.cfi_offset 4, -16
 823              		.cfi_offset 5, -12
 824              		.cfi_offset 6, -8
 825              		.cfi_offset 14, -4
 826 0002 0500     		movs	r5, r0
 827              	.LVL102:
 563:Source\LwIP\src\core\ipv4/etharp.c ****     u8_t state = arp_table[i].state;
 828              		.loc 1 563 0
 829 0004 0024     		movs	r4, #0
 830 0006 14E0     		b	.L49
 831              	.LVL103:
 832              	.L51:
 833              	.LBB4:
 564:Source\LwIP\src\core\ipv4/etharp.c ****     if ((state != ETHARP_STATE_EMPTY) && (arp_table[i].netif == netif)) {
 834              		.loc 1 564 0
 835 0008 2000     		movs	r0, r4
 836 000a 6200     		lsls	r2, r4, #1
 837 000c 1219     		adds	r2, r2, r4
 838 000e D300     		lsls	r3, r2, #3
 839 0010 094A     		ldr	r2, .L52
 840 0012 D318     		adds	r3, r2, r3
 841 0014 1B7D     		ldrb	r3, [r3, #20]
 842              	.LVL104:
 565:Source\LwIP\src\core\ipv4/etharp.c ****       etharp_free_entry(i);
 843              		.loc 1 565 0
 844 0016 002B     		cmp	r3, #0
 845 0018 09D0     		beq	.L50
 565:Source\LwIP\src\core\ipv4/etharp.c ****       etharp_free_entry(i);
 846              		.loc 1 565 0 is_stmt 0 discriminator 1
ARM GAS  C:\Users\Phuong\AppData\Local\Temp\cczAUGdE.s 			page 37


 847 001a 6200     		lsls	r2, r4, #1
 848 001c 1219     		adds	r2, r2, r4
 849 001e D300     		lsls	r3, r2, #3
 850              	.LVL105:
 851 0020 054A     		ldr	r2, .L52
 852              	.LVL106:
 853 0022 D318     		adds	r3, r2, r3
 854              	.LVL107:
 855 0024 9B68     		ldr	r3, [r3, #8]
 856              	.LVL108:
 857 0026 AB42     		cmp	r3, r5
 858 0028 01D1     		bne	.L50
 566:Source\LwIP\src\core\ipv4/etharp.c ****     }
 859              		.loc 1 566 0 is_stmt 1
 860 002a FFF7FEFF 		bl	etharp_free_entry
 861              	.LVL109:
 862              	.L50:
 863              	.LBE4:
 563:Source\LwIP\src\core\ipv4/etharp.c ****     u8_t state = arp_table[i].state;
 864              		.loc 1 563 0 discriminator 2
 865 002e 0134     		adds	r4, r4, #1
 866              	.LVL110:
 867 0030 E4B2     		uxtb	r4, r4
 868              	.LVL111:
 869              	.L49:
 563:Source\LwIP\src\core\ipv4/etharp.c ****     u8_t state = arp_table[i].state;
 870              		.loc 1 563 0 is_stmt 0 discriminator 1
 871 0032 092C     		cmp	r4, #9
 872 0034 E8D9     		bls	.L51
 569:Source\LwIP\src\core\ipv4/etharp.c **** 
 873              		.loc 1 569 0 is_stmt 1
 874              		@ sp needed
 875              	.LVL112:
 876              	.LVL113:
 877 0036 70BD     		pop	{r4, r5, r6, pc}
 878              	.L53:
 879              		.align	2
 880              	.L52:
 881 0038 00000000 		.word	.LANCHOR0
 882              		.cfi_endproc
 883              	.LFE58:
 884              		.size	etharp_cleanup_netif, .-etharp_cleanup_netif
 885              		.section	.text.etharp_find_addr,"ax",%progbits
 886              		.align	2
 887              		.global	etharp_find_addr
 888              		.code	16
 889              		.thumb_func
 890              		.type	etharp_find_addr, %function
 891              	etharp_find_addr:
 892              	.LFB59:
 585:Source\LwIP\src\core\ipv4/etharp.c ****   s8_t i;
 893              		.loc 1 585 0
 894              		.cfi_startproc
 895              		@ args = 0, pretend = 0, frame = 0
 896              		@ frame_needed = 0, uses_anonymous_args = 0
 897              	.LVL114:
 898 0000 70B5     		push	{r4, r5, r6, lr}
ARM GAS  C:\Users\Phuong\AppData\Local\Temp\cczAUGdE.s 			page 38


 899              		.cfi_def_cfa_offset 16
 900              		.cfi_offset 4, -16
 901              		.cfi_offset 5, -12
 902              		.cfi_offset 6, -8
 903              		.cfi_offset 14, -4
 904 0002 0600     		movs	r6, r0
 905 0004 0800     		movs	r0, r1
 906              	.LVL115:
 907 0006 1500     		movs	r5, r2
 908 0008 1C00     		movs	r4, r3
 593:Source\LwIP\src\core\ipv4/etharp.c ****   if ((i >= 0) && (arp_table[i].state >= ETHARP_STATE_STABLE)) {
 909              		.loc 1 593 0
 910 000a 3200     		movs	r2, r6
 911              	.LVL116:
 912 000c 0221     		movs	r1, #2
 913              	.LVL117:
 914 000e FFF7FEFF 		bl	etharp_find_entry
 915              	.LVL118:
 594:Source\LwIP\src\core\ipv4/etharp.c ****       *eth_ret = &arp_table[i].ethaddr;
 916              		.loc 1 594 0
 917 0012 0028     		cmp	r0, #0
 918 0014 14DB     		blt	.L56
 594:Source\LwIP\src\core\ipv4/etharp.c ****       *eth_ret = &arp_table[i].ethaddr;
 919              		.loc 1 594 0 is_stmt 0 discriminator 1
 920 0016 4200     		lsls	r2, r0, #1
 921 0018 1218     		adds	r2, r2, r0
 922 001a D300     		lsls	r3, r2, #3
 923 001c 0B4A     		ldr	r2, .L58
 924 001e D318     		adds	r3, r2, r3
 925 0020 1B7D     		ldrb	r3, [r3, #20]
 926 0022 012B     		cmp	r3, #1
 927 0024 0FD9     		bls	.L57
 595:Source\LwIP\src\core\ipv4/etharp.c ****       *ip_ret = &arp_table[i].ipaddr;
 928              		.loc 1 595 0 is_stmt 1
 929 0026 1100     		movs	r1, r2
 930 0028 4200     		lsls	r2, r0, #1
 931 002a 1618     		adds	r6, r2, r0
 932              	.LVL119:
 933 002c F300     		lsls	r3, r6, #3
 934 002e 0833     		adds	r3, r3, #8
 935 0030 CB18     		adds	r3, r1, r3
 936 0032 0433     		adds	r3, r3, #4
 937 0034 2B60     		str	r3, [r5]
 596:Source\LwIP\src\core\ipv4/etharp.c ****       return i;
 938              		.loc 1 596 0
 939 0036 F300     		lsls	r3, r6, #3
 940 0038 CB18     		adds	r3, r1, r3
 941 003a 0433     		adds	r3, r3, #4
 942 003c 2360     		str	r3, [r4]
 597:Source\LwIP\src\core\ipv4/etharp.c ****   }
 943              		.loc 1 597 0
 944 003e 04E0     		b	.L55
 945              	.LVL120:
 946              	.L56:
 599:Source\LwIP\src\core\ipv4/etharp.c **** }
 947              		.loc 1 599 0
 948 0040 0120     		movs	r0, #1
ARM GAS  C:\Users\Phuong\AppData\Local\Temp\cczAUGdE.s 			page 39


 949              	.LVL121:
 950 0042 4042     		rsbs	r0, r0, #0
 951 0044 01E0     		b	.L55
 952              	.LVL122:
 953              	.L57:
 954 0046 0120     		movs	r0, #1
 955              	.LVL123:
 956 0048 4042     		rsbs	r0, r0, #0
 957              	.LVL124:
 958              	.L55:
 600:Source\LwIP\src\core\ipv4/etharp.c **** 
 959              		.loc 1 600 0
 960              		@ sp needed
 961              	.LVL125:
 962              	.LVL126:
 963 004a 70BD     		pop	{r4, r5, r6, pc}
 964              	.L59:
 965              		.align	2
 966              	.L58:
 967 004c 00000000 		.word	.LANCHOR0
 968              		.cfi_endproc
 969              	.LFE59:
 970              		.size	etharp_find_addr, .-etharp_find_addr
 971              		.section	.text.etharp_get_entry,"ax",%progbits
 972              		.align	2
 973              		.global	etharp_get_entry
 974              		.code	16
 975              		.thumb_func
 976              		.type	etharp_get_entry, %function
 977              	etharp_get_entry:
 978              	.LFB60:
 613:Source\LwIP\src\core\ipv4/etharp.c ****   LWIP_ASSERT("ipaddr != NULL", ipaddr != NULL);
 979              		.loc 1 613 0
 980              		.cfi_startproc
 981              		@ args = 0, pretend = 0, frame = 0
 982              		@ frame_needed = 0, uses_anonymous_args = 0
 983              	.LVL127:
 984 0000 F0B5     		push	{r4, r5, r6, r7, lr}
 985              		.cfi_def_cfa_offset 20
 986              		.cfi_offset 4, -20
 987              		.cfi_offset 5, -16
 988              		.cfi_offset 6, -12
 989              		.cfi_offset 7, -8
 990              		.cfi_offset 14, -4
 618:Source\LwIP\src\core\ipv4/etharp.c ****     *ipaddr  = &arp_table[i].ipaddr;
 991              		.loc 1 618 0
 992 0002 0928     		cmp	r0, #9
 993 0004 17D8     		bhi	.L62
 618:Source\LwIP\src\core\ipv4/etharp.c ****     *ipaddr  = &arp_table[i].ipaddr;
 994              		.loc 1 618 0 is_stmt 0 discriminator 1
 995 0006 4500     		lsls	r5, r0, #1
 996 0008 2D18     		adds	r5, r5, r0
 997 000a EC00     		lsls	r4, r5, #3
 998 000c 0C4D     		ldr	r5, .L64
 999 000e 2C19     		adds	r4, r5, r4
 1000 0010 247D     		ldrb	r4, [r4, #20]
 1001 0012 012C     		cmp	r4, #1
ARM GAS  C:\Users\Phuong\AppData\Local\Temp\cczAUGdE.s 			page 40


 1002 0014 11D9     		bls	.L63
 619:Source\LwIP\src\core\ipv4/etharp.c ****     *netif   = arp_table[i].netif;
 1003              		.loc 1 619 0 is_stmt 1
 1004 0016 4600     		lsls	r6, r0, #1
 1005 0018 3718     		adds	r7, r6, r0
 1006 001a FC00     		lsls	r4, r7, #3
 1007 001c 2C19     		adds	r4, r5, r4
 1008 001e 271D     		adds	r7, r4, #4
 1009 0020 0F60     		str	r7, [r1]
 620:Source\LwIP\src\core\ipv4/etharp.c ****     *eth_ret = &arp_table[i].ethaddr;
 1010              		.loc 1 620 0
 1011 0022 A168     		ldr	r1, [r4, #8]
 1012              	.LVL128:
 1013 0024 1160     		str	r1, [r2]
 621:Source\LwIP\src\core\ipv4/etharp.c ****     return 1;
 1014              		.loc 1 621 0
 1015 0026 3018     		adds	r0, r6, r0
 1016              	.LVL129:
 1017 0028 C200     		lsls	r2, r0, #3
 1018              	.LVL130:
 1019 002a 0832     		adds	r2, r2, #8
 1020 002c AA18     		adds	r2, r5, r2
 1021 002e 0432     		adds	r2, r2, #4
 1022 0030 1A60     		str	r2, [r3]
 622:Source\LwIP\src\core\ipv4/etharp.c ****   } else {
 1023              		.loc 1 622 0
 1024 0032 0120     		movs	r0, #1
 1025 0034 02E0     		b	.L61
 1026              	.LVL131:
 1027              	.L62:
 624:Source\LwIP\src\core\ipv4/etharp.c ****   }
 1028              		.loc 1 624 0
 1029 0036 0020     		movs	r0, #0
 1030              	.LVL132:
 1031 0038 00E0     		b	.L61
 1032              	.LVL133:
 1033              	.L63:
 1034 003a 0020     		movs	r0, #0
 1035              	.LVL134:
 1036              	.L61:
 626:Source\LwIP\src\core\ipv4/etharp.c **** 
 1037              		.loc 1 626 0
 1038              		@ sp needed
 1039 003c F0BD     		pop	{r4, r5, r6, r7, pc}
 1040              	.L65:
 1041 003e C046     		.align	2
 1042              	.L64:
 1043 0040 00000000 		.word	.LANCHOR0
 1044              		.cfi_endproc
 1045              	.LFE60:
 1046              		.size	etharp_get_entry, .-etharp_get_entry
 1047              		.section	.text.etharp_input,"ax",%progbits
 1048              		.align	2
 1049              		.global	etharp_input
 1050              		.code	16
 1051              		.thumb_func
 1052              		.type	etharp_input, %function
ARM GAS  C:\Users\Phuong\AppData\Local\Temp\cczAUGdE.s 			page 41


 1053              	etharp_input:
 1054              	.LFB61:
 642:Source\LwIP\src\core\ipv4/etharp.c ****   struct etharp_hdr *hdr;
 1055              		.loc 1 642 0
 1056              		.cfi_startproc
 1057              		@ args = 0, pretend = 0, frame = 8
 1058              		@ frame_needed = 0, uses_anonymous_args = 0
 1059              	.LVL135:
 1060 0000 F0B5     		push	{r4, r5, r6, r7, lr}
 1061              		.cfi_def_cfa_offset 20
 1062              		.cfi_offset 4, -20
 1063              		.cfi_offset 5, -16
 1064              		.cfi_offset 6, -12
 1065              		.cfi_offset 7, -8
 1066              		.cfi_offset 14, -4
 1067 0002 4746     		mov	r7, r8
 1068 0004 80B4     		push	{r7}
 1069              		.cfi_def_cfa_offset 24
 1070              		.cfi_offset 8, -24
 1071 0006 86B0     		sub	sp, sp, #24
 1072              		.cfi_def_cfa_offset 48
 1073 0008 0400     		movs	r4, r0
 1074 000a 0E1E     		subs	r6, r1, #0
 648:Source\LwIP\src\core\ipv4/etharp.c **** 
 1075              		.loc 1 648 0
 1076 000c 6BD0     		beq	.L66
 650:Source\LwIP\src\core\ipv4/etharp.c **** 
 1077              		.loc 1 650 0
 1078 000e 4568     		ldr	r5, [r0, #4]
 1079              	.LVL136:
 653:Source\LwIP\src\core\ipv4/etharp.c ****       (hdr->hwlen != ETH_HWADDR_LEN) ||
 1080              		.loc 1 653 0
 1081 0010 2A78     		ldrb	r2, [r5]
 1082 0012 6B78     		ldrb	r3, [r5, #1]
 1083 0014 1B02     		lsls	r3, r3, #8
 1084 0016 1343     		orrs	r3, r2
 1085 0018 8022     		movs	r2, #128
 1086 001a 5200     		lsls	r2, r2, #1
 1087 001c 9342     		cmp	r3, r2
 1088 001e 0BD1     		bne	.L68
 654:Source\LwIP\src\core\ipv4/etharp.c ****       (hdr->protolen != sizeof(ip4_addr_t)) ||
 1089              		.loc 1 654 0 discriminator 1
 1090 0020 2B79     		ldrb	r3, [r5, #4]
 653:Source\LwIP\src\core\ipv4/etharp.c ****       (hdr->hwlen != ETH_HWADDR_LEN) ||
 1091              		.loc 1 653 0 discriminator 1
 1092 0022 062B     		cmp	r3, #6
 1093 0024 08D1     		bne	.L68
 655:Source\LwIP\src\core\ipv4/etharp.c ****       (hdr->proto != PP_HTONS(ETHTYPE_IP)))  {
 1094              		.loc 1 655 0
 1095 0026 6B79     		ldrb	r3, [r5, #5]
 654:Source\LwIP\src\core\ipv4/etharp.c ****       (hdr->protolen != sizeof(ip4_addr_t)) ||
 1096              		.loc 1 654 0
 1097 0028 042B     		cmp	r3, #4
 1098 002a 05D1     		bne	.L68
 656:Source\LwIP\src\core\ipv4/etharp.c ****     LWIP_DEBUGF(ETHARP_DEBUG | LWIP_DBG_TRACE | LWIP_DBG_LEVEL_WARNING,
 1099              		.loc 1 656 0
 1100 002c AA78     		ldrb	r2, [r5, #2]
ARM GAS  C:\Users\Phuong\AppData\Local\Temp\cczAUGdE.s 			page 42


 1101 002e EB78     		ldrb	r3, [r5, #3]
 1102 0030 1B02     		lsls	r3, r3, #8
 1103 0032 1343     		orrs	r3, r2
 655:Source\LwIP\src\core\ipv4/etharp.c ****       (hdr->proto != PP_HTONS(ETHTYPE_IP)))  {
 1104              		.loc 1 655 0
 1105 0034 082B     		cmp	r3, #8
 1106 0036 0AD0     		beq	.L69
 1107              	.L68:
 660:Source\LwIP\src\core\ipv4/etharp.c ****     ETHARP_STATS_INC(etharp.drop);
 1108              		.loc 1 660 0
 1109 0038 2D4B     		ldr	r3, .L79
 1110 003a 1A8D     		ldrh	r2, [r3, #40]
 1111 003c 0132     		adds	r2, r2, #1
 1112 003e 1A85     		strh	r2, [r3, #40]
 661:Source\LwIP\src\core\ipv4/etharp.c ****     pbuf_free(p);
 1113              		.loc 1 661 0
 1114 0040 DA8B     		ldrh	r2, [r3, #30]
 1115 0042 0132     		adds	r2, r2, #1
 1116 0044 DA83     		strh	r2, [r3, #30]
 662:Source\LwIP\src\core\ipv4/etharp.c ****     return;
 1117              		.loc 1 662 0
 1118 0046 2000     		movs	r0, r4
 1119              	.LVL137:
 1120 0048 FFF7FEFF 		bl	pbuf_free
 1121              	.LVL138:
 663:Source\LwIP\src\core\ipv4/etharp.c ****   }
 1122              		.loc 1 663 0
 1123 004c 4BE0     		b	.L66
 1124              	.LVL139:
 1125              	.L69:
 665:Source\LwIP\src\core\ipv4/etharp.c **** 
 1126              		.loc 1 665 0
 1127 004e 284A     		ldr	r2, .L79
 1128 0050 538B     		ldrh	r3, [r2, #26]
 1129 0052 0133     		adds	r3, r3, #1
 1130 0054 5383     		strh	r3, [r2, #26]
 676:Source\LwIP\src\core\ipv4/etharp.c ****   IPADDR2_COPY(&dipaddr, &hdr->dipaddr);
 1131              		.loc 1 676 0
 1132 0056 0422     		movs	r2, #4
 1133 0058 2900     		movs	r1, r5
 1134              	.LVL140:
 1135 005a 0E31     		adds	r1, r1, #14
 1136 005c 05A8     		add	r0, sp, #20
 1137              	.LVL141:
 1138 005e FFF7FEFF 		bl	memcpy
 1139              	.LVL142:
 677:Source\LwIP\src\core\ipv4/etharp.c **** 
 1140              		.loc 1 677 0
 1141 0062 2900     		movs	r1, r5
 1142 0064 1831     		adds	r1, r1, #24
 1143 0066 0422     		movs	r2, #4
 1144 0068 04A8     		add	r0, sp, #16
 1145 006a FFF7FEFF 		bl	memcpy
 1146              	.LVL143:
 680:Source\LwIP\src\core\ipv4/etharp.c ****     for_us = 0;
 1147              		.loc 1 680 0
 1148 006e 7368     		ldr	r3, [r6, #4]
ARM GAS  C:\Users\Phuong\AppData\Local\Temp\cczAUGdE.s 			page 43


 1149 0070 002B     		cmp	r3, #0
 1150 0072 05D0     		beq	.L76
 684:Source\LwIP\src\core\ipv4/etharp.c ****   }
 1151              		.loc 1 684 0
 1152 0074 049A     		ldr	r2, [sp, #16]
 1153 0076 9F1A     		subs	r7, r3, r2
 1154 0078 7B42     		rsbs	r3, r7, #0
 1155 007a 5F41     		adcs	r7, r7, r3
 1156 007c FFB2     		uxtb	r7, r7
 1157              	.LVL144:
 1158 007e 00E0     		b	.L70
 1159              	.LVL145:
 1160              	.L76:
 681:Source\LwIP\src\core\ipv4/etharp.c ****   } else {
 1161              		.loc 1 681 0
 1162 0080 0027     		movs	r7, #0
 1163              	.L70:
 1164              	.LVL146:
 692:Source\LwIP\src\core\ipv4/etharp.c ****                    for_us ? ETHARP_FLAG_TRY_HARD : ETHARP_FLAG_FIND_ONLY);
 1165              		.loc 1 692 0
 1166 0082 0823     		movs	r3, #8
 1167 0084 9846     		mov	r8, r3
 1168 0086 A844     		add	r8, r8, r5
 1169 0088 002F     		cmp	r7, #0
 1170 008a 01D0     		beq	.L77
 1171 008c 073B     		subs	r3, r3, #7
 1172 008e 00E0     		b	.L71
 1173              	.L77:
 1174 0090 0223     		movs	r3, #2
 1175              	.L71:
 692:Source\LwIP\src\core\ipv4/etharp.c ****                    for_us ? ETHARP_FLAG_TRY_HARD : ETHARP_FLAG_FIND_ONLY);
 1176              		.loc 1 692 0 is_stmt 0 discriminator 4
 1177 0092 4246     		mov	r2, r8
 1178 0094 05A9     		add	r1, sp, #20
 1179 0096 3000     		movs	r0, r6
 1180 0098 FFF7FEFF 		bl	etharp_update_arp_entry
 1181              	.LVL147:
 696:Source\LwIP\src\core\ipv4/etharp.c ****   /* ARP request? */
 1182              		.loc 1 696 0 is_stmt 1 discriminator 4
 1183 009c AA79     		ldrb	r2, [r5, #6]
 1184 009e EB79     		ldrb	r3, [r5, #7]
 1185 00a0 1B02     		lsls	r3, r3, #8
 1186 00a2 1343     		orrs	r3, r2
 1187 00a4 8022     		movs	r2, #128
 1188 00a6 5200     		lsls	r2, r2, #1
 1189 00a8 9342     		cmp	r3, r2
 1190 00aa 04D0     		beq	.L73
 1191 00ac 0132     		adds	r2, r2, #1
 1192 00ae FF32     		adds	r2, r2, #255
 1193 00b0 9342     		cmp	r3, r2
 1194 00b2 15D0     		beq	.L74
 1195 00b4 10E0     		b	.L78
 1196              	.L73:
 705:Source\LwIP\src\core\ipv4/etharp.c ****       /* send ARP response */
 1197              		.loc 1 705 0
 1198 00b6 002F     		cmp	r7, #0
 1199 00b8 12D0     		beq	.L74
ARM GAS  C:\Users\Phuong\AppData\Local\Temp\cczAUGdE.s 			page 44


 709:Source\LwIP\src\core\ipv4/etharp.c ****                  &hdr->shwaddr, &sipaddr,
 1200              		.loc 1 709 0
 1201 00ba 3100     		movs	r1, r6
 1202 00bc 3731     		adds	r1, r1, #55
 1203 00be 331D     		adds	r3, r6, #4
 707:Source\LwIP\src\core\ipv4/etharp.c ****                  (struct eth_addr *)netif->hwaddr, &hdr->shwaddr,
 1204              		.loc 1 707 0
 1205 00c0 0222     		movs	r2, #2
 1206 00c2 0392     		str	r2, [sp, #12]
 1207 00c4 05AA     		add	r2, sp, #20
 1208 00c6 0292     		str	r2, [sp, #8]
 1209 00c8 4246     		mov	r2, r8
 1210 00ca 0192     		str	r2, [sp, #4]
 1211 00cc 0093     		str	r3, [sp]
 1212 00ce 0B00     		movs	r3, r1
 1213 00d0 3000     		movs	r0, r6
 1214 00d2 FFF7FEFF 		bl	etharp_raw
 1215              	.LVL148:
 1216 00d6 03E0     		b	.L74
 1217              	.L78:
 735:Source\LwIP\src\core\ipv4/etharp.c ****     break;
 1218              		.loc 1 735 0
 1219 00d8 054A     		ldr	r2, .L79
 1220 00da 938D     		ldrh	r3, [r2, #44]
 1221 00dc 0133     		adds	r3, r3, #1
 1222 00de 9385     		strh	r3, [r2, #44]
 1223              	.L74:
 739:Source\LwIP\src\core\ipv4/etharp.c **** }
 1224              		.loc 1 739 0 discriminator 6
 1225 00e0 2000     		movs	r0, r4
 1226 00e2 FFF7FEFF 		bl	pbuf_free
 1227              	.LVL149:
 1228              	.L66:
 740:Source\LwIP\src\core\ipv4/etharp.c **** 
 1229              		.loc 1 740 0
 1230 00e6 06B0     		add	sp, sp, #24
 1231              		@ sp needed
 1232              	.LVL150:
 1233              	.LVL151:
 1234 00e8 04BC     		pop	{r2}
 1235 00ea 9046     		mov	r8, r2
 1236 00ec F0BD     		pop	{r4, r5, r6, r7, pc}
 1237              	.L80:
 1238 00ee C046     		.align	2
 1239              	.L79:
 1240 00f0 00000000 		.word	lwip_stats
 1241              		.cfi_endproc
 1242              	.LFE61:
 1243              		.size	etharp_input, .-etharp_input
 1244              		.section	.text.etharp_request,"ax",%progbits
 1245              		.align	2
 1246              		.global	etharp_request
 1247              		.code	16
 1248              		.thumb_func
 1249              		.type	etharp_request, %function
 1250              	etharp_request:
 1251              	.LFB67:
ARM GAS  C:\Users\Phuong\AppData\Local\Temp\cczAUGdE.s 			page 45


1188:Source\LwIP\src\core\ipv4/etharp.c **** 
1189:Source\LwIP\src\core\ipv4/etharp.c **** /**
1190:Source\LwIP\src\core\ipv4/etharp.c ****  * Send an ARP request packet asking for ipaddr.
1191:Source\LwIP\src\core\ipv4/etharp.c ****  *
1192:Source\LwIP\src\core\ipv4/etharp.c ****  * @param netif the lwip network interface on which to send the request
1193:Source\LwIP\src\core\ipv4/etharp.c ****  * @param ipaddr the IP address for which to ask
1194:Source\LwIP\src\core\ipv4/etharp.c ****  * @return ERR_OK if the request has been sent
1195:Source\LwIP\src\core\ipv4/etharp.c ****  *         ERR_MEM if the ARP packet couldn't be allocated
1196:Source\LwIP\src\core\ipv4/etharp.c ****  *         any other err_t on failure
1197:Source\LwIP\src\core\ipv4/etharp.c ****  */
1198:Source\LwIP\src\core\ipv4/etharp.c **** err_t
1199:Source\LwIP\src\core\ipv4/etharp.c **** etharp_request(struct netif *netif, const ip4_addr_t *ipaddr)
1200:Source\LwIP\src\core\ipv4/etharp.c **** {
 1252              		.loc 1 1200 0
 1253              		.cfi_startproc
 1254              		@ args = 0, pretend = 0, frame = 0
 1255              		@ frame_needed = 0, uses_anonymous_args = 0
 1256              	.LVL152:
 1257 0000 10B5     		push	{r4, lr}
 1258              		.cfi_def_cfa_offset 8
 1259              		.cfi_offset 4, -8
 1260              		.cfi_offset 14, -4
1201:Source\LwIP\src\core\ipv4/etharp.c ****   LWIP_DEBUGF(ETHARP_DEBUG | LWIP_DBG_TRACE, ("etharp_request: sending ARP request.\n"));
1202:Source\LwIP\src\core\ipv4/etharp.c ****   return etharp_request_dst(netif, ipaddr, &ethbroadcast);
 1261              		.loc 1 1202 0
 1262 0002 024A     		ldr	r2, .L82
 1263 0004 FFF7FEFF 		bl	etharp_request_dst
 1264              	.LVL153:
1203:Source\LwIP\src\core\ipv4/etharp.c **** }
 1265              		.loc 1 1203 0
 1266              		@ sp needed
 1267 0008 10BD     		pop	{r4, pc}
 1268              	.L83:
 1269 000a C046     		.align	2
 1270              	.L82:
 1271 000c 00000000 		.word	ethbroadcast
 1272              		.cfi_endproc
 1273              	.LFE67:
 1274              		.size	etharp_request, .-etharp_request
 1275              		.section	.text.etharp_tmr,"ax",%progbits
 1276              		.align	2
 1277              		.global	etharp_tmr
 1278              		.code	16
 1279              		.thumb_func
 1280              		.type	etharp_tmr, %function
 1281              	etharp_tmr:
 1282              	.LFB55:
 200:Source\LwIP\src\core\ipv4/etharp.c ****   u8_t i;
 1283              		.loc 1 200 0
 1284              		.cfi_startproc
 1285              		@ args = 0, pretend = 0, frame = 0
 1286              		@ frame_needed = 0, uses_anonymous_args = 0
 1287 0000 70B5     		push	{r4, r5, r6, lr}
 1288              		.cfi_def_cfa_offset 16
 1289              		.cfi_offset 4, -16
 1290              		.cfi_offset 5, -12
 1291              		.cfi_offset 6, -8
ARM GAS  C:\Users\Phuong\AppData\Local\Temp\cczAUGdE.s 			page 46


 1292              		.cfi_offset 14, -4
 1293              	.LVL154:
 205:Source\LwIP\src\core\ipv4/etharp.c ****     u8_t state = arp_table[i].state;
 1294              		.loc 1 205 0
 1295 0002 0024     		movs	r4, #0
 1296 0004 45E0     		b	.L85
 1297              	.LVL155:
 1298              	.L91:
 1299              	.LBB5:
 206:Source\LwIP\src\core\ipv4/etharp.c ****     if (state != ETHARP_STATE_EMPTY
 1300              		.loc 1 206 0
 1301 0006 2000     		movs	r0, r4
 1302 0008 6200     		lsls	r2, r4, #1
 1303 000a 1219     		adds	r2, r2, r4
 1304 000c D300     		lsls	r3, r2, #3
 1305 000e 224A     		ldr	r2, .L92
 1306 0010 D318     		adds	r3, r2, r3
 1307 0012 1B7D     		ldrb	r3, [r3, #20]
 1308              	.LVL156:
 207:Source\LwIP\src\core\ipv4/etharp.c **** #if ETHARP_SUPPORT_STATIC_ENTRIES
 1309              		.loc 1 207 0
 1310 0014 002B     		cmp	r3, #0
 1311 0016 3AD0     		beq	.L86
 212:Source\LwIP\src\core\ipv4/etharp.c ****       if ((arp_table[i].ctime >= ARP_MAXAGE) ||
 1312              		.loc 1 212 0
 1313 0018 6200     		lsls	r2, r4, #1
 1314 001a 1219     		adds	r2, r2, r4
 1315 001c D300     		lsls	r3, r2, #3
 1316              	.LVL157:
 1317 001e 1E4A     		ldr	r2, .L92
 1318              	.LVL158:
 1319 0020 D218     		adds	r2, r2, r3
 1320              	.LVL159:
 1321 0022 538A     		ldrh	r3, [r2, #18]
 1322 0024 0133     		adds	r3, r3, #1
 1323 0026 9BB2     		uxth	r3, r3
 1324 0028 5382     		strh	r3, [r2, #18]
 213:Source\LwIP\src\core\ipv4/etharp.c ****           ((arp_table[i].state == ETHARP_STATE_PENDING)  &&
 1325              		.loc 1 213 0
 1326 002a 2C22     		movs	r2, #44
 1327              	.LVL160:
 1328 002c FF32     		adds	r2, r2, #255
 1329 002e 9342     		cmp	r3, r2
 1330 0030 09D8     		bhi	.L87
 214:Source\LwIP\src\core\ipv4/etharp.c ****            (arp_table[i].ctime >= ARP_MAXPENDING))) {
 1331              		.loc 1 214 0 discriminator 1
 1332 0032 6100     		lsls	r1, r4, #1
 1333              	.LVL161:
 1334 0034 0919     		adds	r1, r1, r4
 1335              	.LVL162:
 1336 0036 CA00     		lsls	r2, r1, #3
 1337              	.LVL163:
 1338 0038 1749     		ldr	r1, .L92
 1339              	.LVL164:
 1340 003a 8A18     		adds	r2, r1, r2
 1341              	.LVL165:
 1342 003c 127D     		ldrb	r2, [r2, #20]
ARM GAS  C:\Users\Phuong\AppData\Local\Temp\cczAUGdE.s 			page 47


 1343              	.LVL166:
 213:Source\LwIP\src\core\ipv4/etharp.c ****           ((arp_table[i].state == ETHARP_STATE_PENDING)  &&
 1344              		.loc 1 213 0 discriminator 1
 1345 003e 012A     		cmp	r2, #1
 1346 0040 04D1     		bne	.L88
 214:Source\LwIP\src\core\ipv4/etharp.c ****            (arp_table[i].ctime >= ARP_MAXPENDING))) {
 1347              		.loc 1 214 0
 1348 0042 042B     		cmp	r3, #4
 1349 0044 02D9     		bls	.L88
 1350              	.LVL167:
 1351              	.L87:
 220:Source\LwIP\src\core\ipv4/etharp.c ****       } else if (arp_table[i].state == ETHARP_STATE_STABLE_REREQUESTING_1) {
 1352              		.loc 1 220 0
 1353 0046 FFF7FEFF 		bl	etharp_free_entry
 1354              	.LVL168:
 1355 004a 20E0     		b	.L86
 1356              	.LVL169:
 1357              	.L88:
 221:Source\LwIP\src\core\ipv4/etharp.c ****         /* Don't send more than one request every 2 seconds. */
 1358              		.loc 1 221 0
 1359 004c 032A     		cmp	r2, #3
 1360 004e 07D1     		bne	.L89
 223:Source\LwIP\src\core\ipv4/etharp.c ****       } else if (arp_table[i].state == ETHARP_STATE_STABLE_REREQUESTING_2) {
 1361              		.loc 1 223 0
 1362 0050 4300     		lsls	r3, r0, #1
 1363 0052 1818     		adds	r0, r3, r0
 1364 0054 C300     		lsls	r3, r0, #3
 1365 0056 104A     		ldr	r2, .L92
 1366              	.LVL170:
 1367 0058 D318     		adds	r3, r2, r3
 1368 005a 0422     		movs	r2, #4
 1369 005c 1A75     		strb	r2, [r3, #20]
 1370              	.LVL171:
 1371 005e 16E0     		b	.L86
 1372              	.LVL172:
 1373              	.L89:
 224:Source\LwIP\src\core\ipv4/etharp.c ****         /* Reset state to stable, so that the next transmitted packet will
 1374              		.loc 1 224 0
 1375 0060 042A     		cmp	r2, #4
 1376 0062 07D1     		bne	.L90
 227:Source\LwIP\src\core\ipv4/etharp.c ****       } else if (arp_table[i].state == ETHARP_STATE_PENDING) {
 1377              		.loc 1 227 0
 1378 0064 4300     		lsls	r3, r0, #1
 1379 0066 1818     		adds	r0, r3, r0
 1380 0068 C300     		lsls	r3, r0, #3
 1381 006a 0B4A     		ldr	r2, .L92
 1382              	.LVL173:
 1383 006c D318     		adds	r3, r2, r3
 1384 006e 0222     		movs	r2, #2
 1385 0070 1A75     		strb	r2, [r3, #20]
 1386              	.LVL174:
 1387 0072 0CE0     		b	.L86
 1388              	.LVL175:
 1389              	.L90:
 228:Source\LwIP\src\core\ipv4/etharp.c ****         /* still pending, resend an ARP query */
 1390              		.loc 1 228 0
 1391 0074 012A     		cmp	r2, #1
ARM GAS  C:\Users\Phuong\AppData\Local\Temp\cczAUGdE.s 			page 48


 1392 0076 0AD1     		bne	.L86
 230:Source\LwIP\src\core\ipv4/etharp.c ****       }
 1393              		.loc 1 230 0
 1394 0078 074A     		ldr	r2, .L92
 1395              	.LVL176:
 1396 007a 4300     		lsls	r3, r0, #1
 1397 007c 1D18     		adds	r5, r3, r0
 1398 007e E900     		lsls	r1, r5, #3
 1399              	.LVL177:
 1400 0080 5118     		adds	r1, r2, r1
 1401 0082 0431     		adds	r1, r1, #4
 1402 0084 EB00     		lsls	r3, r5, #3
 1403 0086 D318     		adds	r3, r2, r3
 1404 0088 9868     		ldr	r0, [r3, #8]
 1405              	.LVL178:
 1406 008a FFF7FEFF 		bl	etharp_request
 1407              	.LVL179:
 1408              	.L86:
 1409              	.LBE5:
 205:Source\LwIP\src\core\ipv4/etharp.c ****     u8_t state = arp_table[i].state;
 1410              		.loc 1 205 0 discriminator 2
 1411 008e 0134     		adds	r4, r4, #1
 1412              	.LVL180:
 1413 0090 E4B2     		uxtb	r4, r4
 1414              	.LVL181:
 1415              	.L85:
 205:Source\LwIP\src\core\ipv4/etharp.c ****     u8_t state = arp_table[i].state;
 1416              		.loc 1 205 0 is_stmt 0 discriminator 1
 1417 0092 092C     		cmp	r4, #9
 1418 0094 B7D9     		bls	.L91
 234:Source\LwIP\src\core\ipv4/etharp.c **** 
 1419              		.loc 1 234 0 is_stmt 1
 1420              		@ sp needed
 1421              	.LVL182:
 1422 0096 70BD     		pop	{r4, r5, r6, pc}
 1423              	.L93:
 1424              		.align	2
 1425              	.L92:
 1426 0098 00000000 		.word	.LANCHOR0
 1427              		.cfi_endproc
 1428              	.LFE55:
 1429              		.size	etharp_tmr, .-etharp_tmr
 1430              		.section	.text.etharp_output_to_arp_index,"ax",%progbits
 1431              		.align	2
 1432              		.code	16
 1433              		.thumb_func
 1434              		.type	etharp_output_to_arp_index, %function
 1435              	etharp_output_to_arp_index:
 1436              	.LFB62:
 747:Source\LwIP\src\core\ipv4/etharp.c ****   LWIP_ASSERT("arp_table[arp_idx].state >= ETHARP_STATE_STABLE",
 1437              		.loc 1 747 0
 1438              		.cfi_startproc
 1439              		@ args = 0, pretend = 0, frame = 0
 1440              		@ frame_needed = 0, uses_anonymous_args = 0
 1441              	.LVL183:
 1442 0000 70B5     		push	{r4, r5, r6, lr}
 1443              		.cfi_def_cfa_offset 16
ARM GAS  C:\Users\Phuong\AppData\Local\Temp\cczAUGdE.s 			page 49


 1444              		.cfi_offset 4, -16
 1445              		.cfi_offset 5, -12
 1446              		.cfi_offset 6, -8
 1447              		.cfi_offset 14, -4
 1448 0002 82B0     		sub	sp, sp, #8
 1449              		.cfi_def_cfa_offset 24
 1450 0004 0500     		movs	r5, r0
 1451 0006 0E00     		movs	r6, r1
 1452 0008 1400     		movs	r4, r2
 753:Source\LwIP\src\core\ipv4/etharp.c ****     if (arp_table[arp_idx].ctime >= ARP_AGE_REREQUEST_USED_BROADCAST) {
 1453              		.loc 1 753 0
 1454 000a 5200     		lsls	r2, r2, #1
 1455              	.LVL184:
 1456 000c 1219     		adds	r2, r2, r4
 1457 000e D300     		lsls	r3, r2, #3
 1458 0010 264A     		ldr	r2, .L97
 1459 0012 D318     		adds	r3, r2, r3
 1460 0014 1B7D     		ldrb	r3, [r3, #20]
 1461 0016 022B     		cmp	r3, #2
 1462 0018 35D1     		bne	.L95
 754:Source\LwIP\src\core\ipv4/etharp.c ****       /* issue a standard request using broadcast */
 1463              		.loc 1 754 0
 1464 001a 6200     		lsls	r2, r4, #1
 1465 001c 1219     		adds	r2, r2, r4
 1466 001e D300     		lsls	r3, r2, #3
 1467 0020 224A     		ldr	r2, .L97
 1468 0022 D318     		adds	r3, r2, r3
 1469 0024 5B8A     		ldrh	r3, [r3, #18]
 1470 0026 8E22     		movs	r2, #142
 1471 0028 5200     		lsls	r2, r2, #1
 1472 002a 9342     		cmp	r3, r2
 1473 002c 11D9     		bls	.L96
 756:Source\LwIP\src\core\ipv4/etharp.c ****         arp_table[arp_idx].state = ETHARP_STATE_STABLE_REREQUESTING_1;
 1474              		.loc 1 756 0
 1475 002e 6200     		lsls	r2, r4, #1
 1476 0030 1219     		adds	r2, r2, r4
 1477 0032 D300     		lsls	r3, r2, #3
 1478 0034 1D49     		ldr	r1, .L97
 1479              	.LVL185:
 1480 0036 CB18     		adds	r3, r1, r3
 1481 0038 191D     		adds	r1, r3, #4
 1482 003a FFF7FEFF 		bl	etharp_request
 1483              	.LVL186:
 1484 003e 0028     		cmp	r0, #0
 1485 0040 21D1     		bne	.L95
 757:Source\LwIP\src\core\ipv4/etharp.c ****       }
 1486              		.loc 1 757 0
 1487 0042 6200     		lsls	r2, r4, #1
 1488 0044 1219     		adds	r2, r2, r4
 1489 0046 D300     		lsls	r3, r2, #3
 1490 0048 184A     		ldr	r2, .L97
 1491 004a D318     		adds	r3, r2, r3
 1492 004c 0322     		movs	r2, #3
 1493 004e 1A75     		strb	r2, [r3, #20]
 1494 0050 19E0     		b	.L95
 1495              	.LVL187:
 1496              	.L96:
ARM GAS  C:\Users\Phuong\AppData\Local\Temp\cczAUGdE.s 			page 50


 759:Source\LwIP\src\core\ipv4/etharp.c ****       /* issue a unicast request (for 15 seconds) to prevent unnecessary broadcast */
 1497              		.loc 1 759 0
 1498 0052 0E22     		movs	r2, #14
 1499 0054 FF32     		adds	r2, r2, #255
 1500 0056 9342     		cmp	r3, r2
 1501 0058 15D9     		bls	.L95
 761:Source\LwIP\src\core\ipv4/etharp.c ****         arp_table[arp_idx].state = ETHARP_STATE_STABLE_REREQUESTING_1;
 1502              		.loc 1 761 0
 1503 005a 144A     		ldr	r2, .L97
 1504 005c 6000     		lsls	r0, r4, #1
 1505              	.LVL188:
 1506 005e 0319     		adds	r3, r0, r4
 1507 0060 D900     		lsls	r1, r3, #3
 1508              	.LVL189:
 1509 0062 0B00     		movs	r3, r1
 1510 0064 5118     		adds	r1, r2, r1
 1511 0066 0431     		adds	r1, r1, #4
 1512 0068 0833     		adds	r3, r3, #8
 1513 006a D318     		adds	r3, r2, r3
 1514 006c 1A1D     		adds	r2, r3, #4
 1515 006e 2800     		movs	r0, r5
 1516 0070 FFF7FEFF 		bl	etharp_request_dst
 1517              	.LVL190:
 1518 0074 0028     		cmp	r0, #0
 1519 0076 06D1     		bne	.L95
 762:Source\LwIP\src\core\ipv4/etharp.c ****       }
 1520              		.loc 1 762 0
 1521 0078 6200     		lsls	r2, r4, #1
 1522 007a 1219     		adds	r2, r2, r4
 1523 007c D300     		lsls	r3, r2, #3
 1524 007e 0B4A     		ldr	r2, .L97
 1525 0080 D318     		adds	r3, r2, r3
 1526 0082 0322     		movs	r2, #3
 1527 0084 1A75     		strb	r2, [r3, #20]
 1528              	.L95:
 767:Source\LwIP\src\core\ipv4/etharp.c **** }
 1529              		.loc 1 767 0
 1530 0086 2A00     		movs	r2, r5
 1531 0088 3732     		adds	r2, r2, #55
 1532 008a 6300     		lsls	r3, r4, #1
 1533 008c 1C19     		adds	r4, r3, r4
 1534 008e E300     		lsls	r3, r4, #3
 1535 0090 0833     		adds	r3, r3, #8
 1536 0092 0649     		ldr	r1, .L97
 1537 0094 CB18     		adds	r3, r1, r3
 1538 0096 0433     		adds	r3, r3, #4
 1539 0098 8021     		movs	r1, #128
 1540 009a 0901     		lsls	r1, r1, #4
 1541 009c 0091     		str	r1, [sp]
 1542 009e 3100     		movs	r1, r6
 1543 00a0 2800     		movs	r0, r5
 1544 00a2 FFF7FEFF 		bl	ethernet_output
 1545              	.LVL191:
 768:Source\LwIP\src\core\ipv4/etharp.c **** 
 1546              		.loc 1 768 0
 1547 00a6 02B0     		add	sp, sp, #8
 1548              		@ sp needed
ARM GAS  C:\Users\Phuong\AppData\Local\Temp\cczAUGdE.s 			page 51


 1549              	.LVL192:
 1550              	.LVL193:
 1551 00a8 70BD     		pop	{r4, r5, r6, pc}
 1552              	.L98:
 1553 00aa C046     		.align	2
 1554              	.L97:
 1555 00ac 00000000 		.word	.LANCHOR0
 1556              		.cfi_endproc
 1557              	.LFE62:
 1558              		.size	etharp_output_to_arp_index, .-etharp_output_to_arp_index
 1559              		.section	.text.etharp_query,"ax",%progbits
 1560              		.align	2
 1561              		.global	etharp_query
 1562              		.code	16
 1563              		.thumb_func
 1564              		.type	etharp_query, %function
 1565              	etharp_query:
 1566              	.LFB64:
 931:Source\LwIP\src\core\ipv4/etharp.c ****   struct eth_addr * srcaddr = (struct eth_addr *)netif->hwaddr;
 1567              		.loc 1 931 0
 1568              		.cfi_startproc
 1569              		@ args = 0, pretend = 0, frame = 0
 1570              		@ frame_needed = 0, uses_anonymous_args = 0
 1571              	.LVL194:
 1572 0000 F0B5     		push	{r4, r5, r6, r7, lr}
 1573              		.cfi_def_cfa_offset 20
 1574              		.cfi_offset 4, -20
 1575              		.cfi_offset 5, -16
 1576              		.cfi_offset 6, -12
 1577              		.cfi_offset 7, -8
 1578              		.cfi_offset 14, -4
 1579 0002 4746     		mov	r7, r8
 1580 0004 80B4     		push	{r7}
 1581              		.cfi_def_cfa_offset 24
 1582              		.cfi_offset 8, -24
 1583 0006 82B0     		sub	sp, sp, #8
 1584              		.cfi_def_cfa_offset 32
 1585 0008 0700     		movs	r7, r0
 1586 000a 0D00     		movs	r5, r1
 1587 000c 1600     		movs	r6, r2
 932:Source\LwIP\src\core\ipv4/etharp.c ****   err_t result = ERR_MEM;
 1588              		.loc 1 932 0
 1589 000e 3723     		movs	r3, #55
 1590 0010 9846     		mov	r8, r3
 1591 0012 8044     		add	r8, r8, r0
 1592              	.LVL195:
 938:Source\LwIP\src\core\ipv4/etharp.c ****       ip4_addr_ismulticast(ipaddr) ||
 1593              		.loc 1 938 0
 1594 0014 0100     		movs	r1, r0
 1595              	.LVL196:
 1596 0016 2868     		ldr	r0, [r5]
 1597              	.LVL197:
 1598 0018 FFF7FEFF 		bl	ip4_addr_isbroadcast_u32
 1599              	.LVL198:
 1600 001c 0028     		cmp	r0, #0
 1601 001e 00D0     		beq	.LCB1664
 1602 0020 BDE0     		b	.L117	@long jump
ARM GAS  C:\Users\Phuong\AppData\Local\Temp\cczAUGdE.s 			page 52


 1603              	.LCB1664:
 939:Source\LwIP\src\core\ipv4/etharp.c ****       ip4_addr_isany(ipaddr)) {
 1604              		.loc 1 939 0 discriminator 1
 1605 0022 2A68     		ldr	r2, [r5]
 1606 0024 F023     		movs	r3, #240
 1607 0026 1340     		ands	r3, r2
 938:Source\LwIP\src\core\ipv4/etharp.c ****       ip4_addr_ismulticast(ipaddr) ||
 1608              		.loc 1 938 0 discriminator 1
 1609 0028 E02B     		cmp	r3, #224
 1610 002a 00D1     		bne	.LCB1669
 1611 002c BAE0     		b	.L118	@long jump
 1612              	.LCB1669:
 939:Source\LwIP\src\core\ipv4/etharp.c ****       ip4_addr_isany(ipaddr)) {
 1613              		.loc 1 939 0
 1614 002e 002D     		cmp	r5, #0
 1615 0030 00D1     		bne	.LCB1671
 1616 0032 BAE0     		b	.L119	@long jump
 1617              	.LCB1671:
 940:Source\LwIP\src\core\ipv4/etharp.c ****     LWIP_DEBUGF(ETHARP_DEBUG | LWIP_DBG_TRACE, ("etharp_query: will not add non-unicast IP address 
 1618              		.loc 1 940 0
 1619 0034 002A     		cmp	r2, #0
 1620 0036 00D1     		bne	.LCB1673
 1621 0038 BAE0     		b	.L120	@long jump
 1622              	.LCB1673:
 946:Source\LwIP\src\core\ipv4/etharp.c **** 
 1623              		.loc 1 946 0
 1624 003a 3A00     		movs	r2, r7
 1625 003c 0121     		movs	r1, #1
 1626 003e 2800     		movs	r0, r5
 1627 0040 FFF7FEFF 		bl	etharp_find_entry
 1628              	.LVL199:
 1629 0044 041E     		subs	r4, r0, #0
 1630              	.LVL200:
 949:Source\LwIP\src\core\ipv4/etharp.c ****     LWIP_DEBUGF(ETHARP_DEBUG | LWIP_DBG_TRACE, ("etharp_query: could not create ARP entry\n"));
 1631              		.loc 1 949 0
 1632 0046 07DA     		bge	.L101
 951:Source\LwIP\src\core\ipv4/etharp.c ****       LWIP_DEBUGF(ETHARP_DEBUG | LWIP_DBG_TRACE, ("etharp_query: packet dropped\n"));
 1633              		.loc 1 951 0
 1634 0048 002E     		cmp	r6, #0
 1635 004a 00D1     		bne	.LCB1685
 1636 004c B3E0     		b	.L121	@long jump
 1637              	.LCB1685:
 953:Source\LwIP\src\core\ipv4/etharp.c ****     }
 1638              		.loc 1 953 0
 1639 004e 5D4A     		ldr	r2, .L130
 1640 0050 938C     		ldrh	r3, [r2, #36]
 1641 0052 0133     		adds	r3, r3, #1
 1642 0054 9384     		strh	r3, [r2, #36]
 1643 0056 B0E0     		b	.L100
 1644              	.L101:
 959:Source\LwIP\src\core\ipv4/etharp.c ****     is_new_entry = 1;
 1645              		.loc 1 959 0
 1646 0058 4200     		lsls	r2, r0, #1
 1647 005a 1218     		adds	r2, r2, r0
 1648 005c D300     		lsls	r3, r2, #3
 1649 005e 5A4A     		ldr	r2, .L130+4
 1650 0060 D318     		adds	r3, r2, r3
ARM GAS  C:\Users\Phuong\AppData\Local\Temp\cczAUGdE.s 			page 53


 1651 0062 1B7D     		ldrb	r3, [r3, #20]
 1652 0064 002B     		cmp	r3, #0
 1653 0066 09D1     		bne	.L122
 1654              	.LVL201:
 961:Source\LwIP\src\core\ipv4/etharp.c ****     /* record network interface for re-sending arp request in etharp_tmr */
 1655              		.loc 1 961 0
 1656 0068 4200     		lsls	r2, r0, #1
 1657 006a 1218     		adds	r2, r2, r0
 1658 006c D300     		lsls	r3, r2, #3
 1659 006e 564A     		ldr	r2, .L130+4
 1660 0070 D318     		adds	r3, r2, r3
 1661 0072 0122     		movs	r2, #1
 1662 0074 1A75     		strb	r2, [r3, #20]
 963:Source\LwIP\src\core\ipv4/etharp.c ****   }
 1663              		.loc 1 963 0
 1664 0076 9F60     		str	r7, [r3, #8]
 960:Source\LwIP\src\core\ipv4/etharp.c ****     arp_table[i].state = ETHARP_STATE_PENDING;
 1665              		.loc 1 960 0
 1666 0078 0123     		movs	r3, #1
 1667 007a 00E0     		b	.L102
 1668              	.LVL202:
 1669              	.L122:
 934:Source\LwIP\src\core\ipv4/etharp.c ****   s8_t i; /* ARP entry index */
 1670              		.loc 1 934 0
 1671 007c 0023     		movs	r3, #0
 1672              	.LVL203:
 1673              	.L102:
 972:Source\LwIP\src\core\ipv4/etharp.c ****     /* try to resolve it; send out ARP request */
 1674              		.loc 1 972 0
 1675 007e 002B     		cmp	r3, #0
 1676 0080 01D1     		bne	.L103
 972:Source\LwIP\src\core\ipv4/etharp.c ****     /* try to resolve it; send out ARP request */
 1677              		.loc 1 972 0 is_stmt 0 discriminator 1
 1678 0082 002E     		cmp	r6, #0
 1679 0084 07D1     		bne	.L123
 1680              	.L103:
 974:Source\LwIP\src\core\ipv4/etharp.c ****     if (result != ERR_OK) {
 1681              		.loc 1 974 0 is_stmt 1
 1682 0086 2900     		movs	r1, r5
 1683 0088 3800     		movs	r0, r7
 1684              	.LVL204:
 1685 008a FFF7FEFF 		bl	etharp_request
 1686              	.LVL205:
 1687 008e 0300     		movs	r3, r0
 1688              	.LVL206:
 981:Source\LwIP\src\core\ipv4/etharp.c ****       return result;
 1689              		.loc 1 981 0
 1690 0090 002E     		cmp	r6, #0
 1691 0092 02D1     		bne	.L104
 1692 0094 91E0     		b	.L100
 1693              	.LVL207:
 1694              	.L123:
 933:Source\LwIP\src\core\ipv4/etharp.c ****   int is_new_entry = 0;
 1695              		.loc 1 933 0
 1696 0096 0123     		movs	r3, #1
 1697              	.LVL208:
 1698 0098 5B42     		rsbs	r3, r3, #0
ARM GAS  C:\Users\Phuong\AppData\Local\Temp\cczAUGdE.s 			page 54


 1699              	.LVL209:
 1700              	.L104:
 989:Source\LwIP\src\core\ipv4/etharp.c ****     /* we have a valid IP->Ethernet address mapping */
 1701              		.loc 1 989 0
 1702 009a 6100     		lsls	r1, r4, #1
 1703 009c 0919     		adds	r1, r1, r4
 1704 009e CA00     		lsls	r2, r1, #3
 1705 00a0 4949     		ldr	r1, .L130+4
 1706 00a2 8A18     		adds	r2, r1, r2
 1707 00a4 127D     		ldrb	r2, [r2, #20]
 1708 00a6 012A     		cmp	r2, #1
 1709 00a8 11D9     		bls	.L105
 991:Source\LwIP\src\core\ipv4/etharp.c ****     /* send the packet */
 1710              		.loc 1 991 0
 1711 00aa 7023     		movs	r3, #112
 1712              	.LVL210:
 1713 00ac 474A     		ldr	r2, .L130+8
 1714 00ae D454     		strb	r4, [r2, r3]
 993:Source\LwIP\src\core\ipv4/etharp.c ****   /* pending entry? (either just created or already pending */
 1715              		.loc 1 993 0
 1716 00b0 6000     		lsls	r0, r4, #1
 1717 00b2 0419     		adds	r4, r0, r4
 1718 00b4 E300     		lsls	r3, r4, #3
 1719 00b6 0833     		adds	r3, r3, #8
 1720 00b8 CB18     		adds	r3, r1, r3
 1721 00ba 0433     		adds	r3, r3, #4
 1722 00bc 8022     		movs	r2, #128
 1723 00be 1201     		lsls	r2, r2, #4
 1724 00c0 0092     		str	r2, [sp]
 1725 00c2 4246     		mov	r2, r8
 1726 00c4 3100     		movs	r1, r6
 1727 00c6 3800     		movs	r0, r7
 1728 00c8 FFF7FEFF 		bl	ethernet_output
 1729              	.LVL211:
 1730 00cc 75E0     		b	.L100
 1731              	.LVL212:
 1732              	.L105:
 995:Source\LwIP\src\core\ipv4/etharp.c ****     /* entry is still pending, queue the given packet 'q' */
 1733              		.loc 1 995 0
 1734 00ce 012A     		cmp	r2, #1
 1735 00d0 06D0     		beq	.L125
 1736              	.LBB6:
 1737 00d2 1800     		movs	r0, r3
 1738 00d4 71E0     		b	.L100
 1739              	.LVL213:
 1740              	.L108:
1005:Source\LwIP\src\core\ipv4/etharp.c ****         copy_needed = 1;
 1741              		.loc 1 1005 0
 1742 00d6 1A7B     		ldrb	r2, [r3, #12]
 1743 00d8 012A     		cmp	r2, #1
 1744 00da 06D1     		bne	.L126
1009:Source\LwIP\src\core\ipv4/etharp.c ****     }
 1745              		.loc 1 1009 0
 1746 00dc 1B68     		ldr	r3, [r3]
 1747              	.LVL214:
 1748 00de 00E0     		b	.L106
 1749              	.LVL215:
ARM GAS  C:\Users\Phuong\AppData\Local\Temp\cczAUGdE.s 			page 55


 1750              	.L125:
 1751              	.LBE6:
 1752 00e0 3300     		movs	r3, r6
 1753              	.LVL216:
 1754              	.L106:
 1755              	.LBB14:
1003:Source\LwIP\src\core\ipv4/etharp.c ****       LWIP_ASSERT("no packet queues allowed!", (p->len != p->tot_len) || (p->next == 0));
 1756              		.loc 1 1003 0
 1757 00e2 002B     		cmp	r3, #0
 1758 00e4 F7D1     		bne	.L108
 998:Source\LwIP\src\core\ipv4/etharp.c ****     /* IF q includes a PBUF_REF, PBUF_POOL or PBUF_RAM, we have no choice but
 1759              		.loc 1 998 0
 1760 00e6 0022     		movs	r2, #0
 1761 00e8 00E0     		b	.L107
 1762              	.L126:
1006:Source\LwIP\src\core\ipv4/etharp.c ****         break;
 1763              		.loc 1 1006 0
 1764 00ea 0122     		movs	r2, #1
 1765              	.L107:
 1766              	.LVL217:
1011:Source\LwIP\src\core\ipv4/etharp.c ****       /* copy the whole packet into new pbufs */
 1767              		.loc 1 1011 0
 1768 00ec 002A     		cmp	r2, #0
 1769 00ee 10D0     		beq	.L109
1013:Source\LwIP\src\core\ipv4/etharp.c ****       if (p != NULL) {
 1770              		.loc 1 1013 0
 1771 00f0 1989     		ldrh	r1, [r3, #8]
 1772 00f2 0022     		movs	r2, #0
 1773              	.LVL218:
 1774 00f4 0220     		movs	r0, #2
 1775 00f6 FFF7FEFF 		bl	pbuf_alloc
 1776              	.LVL219:
 1777 00fa 051E     		subs	r5, r0, #0
 1778              	.LVL220:
1014:Source\LwIP\src\core\ipv4/etharp.c ****         if (pbuf_copy(p, q) != ERR_OK) {
 1779              		.loc 1 1014 0
 1780 00fc 0DD0     		beq	.L110
1015:Source\LwIP\src\core\ipv4/etharp.c ****           pbuf_free(p);
 1781              		.loc 1 1015 0
 1782 00fe 3100     		movs	r1, r6
 1783 0100 FFF7FEFF 		bl	pbuf_copy
 1784              	.LVL221:
 1785 0104 0028     		cmp	r0, #0
 1786 0106 08D0     		beq	.L110
1016:Source\LwIP\src\core\ipv4/etharp.c ****           p = NULL;
 1787              		.loc 1 1016 0
 1788 0108 2800     		movs	r0, r5
 1789 010a FFF7FEFF 		bl	pbuf_free
 1790              	.LVL222:
1017:Source\LwIP\src\core\ipv4/etharp.c ****         }
 1791              		.loc 1 1017 0
 1792 010e 0025     		movs	r5, #0
 1793 0110 03E0     		b	.L110
 1794              	.LVL223:
 1795              	.L109:
1023:Source\LwIP\src\core\ipv4/etharp.c ****     }
 1796              		.loc 1 1023 0
ARM GAS  C:\Users\Phuong\AppData\Local\Temp\cczAUGdE.s 			page 56


 1797 0112 3000     		movs	r0, r6
 1798 0114 FFF7FEFF 		bl	pbuf_ref
 1799              	.LVL224:
1022:Source\LwIP\src\core\ipv4/etharp.c ****       pbuf_ref(p);
 1800              		.loc 1 1022 0
 1801 0118 3500     		movs	r5, r6
 1802              	.LVL225:
 1803              	.L110:
1026:Source\LwIP\src\core\ipv4/etharp.c ****       /* queue packet ... */
 1804              		.loc 1 1026 0
 1805 011a 002D     		cmp	r5, #0
 1806 011c 38D0     		beq	.L111
 1807              	.LBB7:
1031:Source\LwIP\src\core\ipv4/etharp.c ****       if (new_entry != NULL) {
 1808              		.loc 1 1031 0
 1809 011e 2C4A     		ldr	r2, .L130+12
 1810 0120 2C49     		ldr	r1, .L130+16
 1811 0122 0A20     		movs	r0, #10
 1812 0124 FFF7FEFF 		bl	memp_malloc_fn
 1813              	.LVL226:
1032:Source\LwIP\src\core\ipv4/etharp.c ****         unsigned int qlen = 0;
 1814              		.loc 1 1032 0
 1815 0128 0028     		cmp	r0, #0
 1816 012a 2BD0     		beq	.L112
 1817              	.LVL227:
 1818              	.LBB8:
1034:Source\LwIP\src\core\ipv4/etharp.c ****         new_entry->p = p;
 1819              		.loc 1 1034 0
 1820 012c 0023     		movs	r3, #0
 1821 012e 0360     		str	r3, [r0]
1035:Source\LwIP\src\core\ipv4/etharp.c ****         if (arp_table[i].q != NULL) {
 1822              		.loc 1 1035 0
 1823 0130 4560     		str	r5, [r0, #4]
1036:Source\LwIP\src\core\ipv4/etharp.c ****           /* queue was already existent, append the new entry to the end */
 1824              		.loc 1 1036 0
 1825 0132 6300     		lsls	r3, r4, #1
 1826 0134 1B19     		adds	r3, r3, r4
 1827 0136 DA00     		lsls	r2, r3, #3
 1828 0138 234B     		ldr	r3, .L130+4
 1829 013a D258     		ldr	r2, [r2, r3]
 1830 013c 002A     		cmp	r2, #0
 1831 013e 03D1     		bne	.L127
 1832 0140 08E0     		b	.L129
 1833              	.LVL228:
 1834              	.L115:
 1835              	.LBB9:
1043:Source\LwIP\src\core\ipv4/etharp.c ****           }
 1836              		.loc 1 1043 0
 1837 0142 0131     		adds	r1, r1, #1
 1838              	.LVL229:
1042:Source\LwIP\src\core\ipv4/etharp.c ****             qlen++;
 1839              		.loc 1 1042 0
 1840 0144 1A00     		movs	r2, r3
 1841 0146 00E0     		b	.L113
 1842              	.LVL230:
 1843              	.L127:
 1844              	.LBE9:
ARM GAS  C:\Users\Phuong\AppData\Local\Temp\cczAUGdE.s 			page 57


 1845 0148 0121     		movs	r1, #1
 1846              	.LVL231:
 1847              	.L113:
 1848              	.LBB10:
1041:Source\LwIP\src\core\ipv4/etharp.c ****             r = r->next;
 1849              		.loc 1 1041 0
 1850 014a 1368     		ldr	r3, [r2]
 1851 014c 002B     		cmp	r3, #0
 1852 014e F8D1     		bne	.L115
1045:Source\LwIP\src\core\ipv4/etharp.c ****         } else {
 1853              		.loc 1 1045 0
 1854 0150 1060     		str	r0, [r2]
 1855              	.LBE10:
 1856 0152 05E0     		b	.L116
 1857              	.LVL232:
 1858              	.L129:
1048:Source\LwIP\src\core\ipv4/etharp.c ****         }
 1859              		.loc 1 1048 0
 1860 0154 6300     		lsls	r3, r4, #1
 1861 0156 1B19     		adds	r3, r3, r4
 1862 0158 DA00     		lsls	r2, r3, #3
 1863 015a 1B4B     		ldr	r3, .L130+4
 1864 015c D050     		str	r0, [r2, r3]
1033:Source\LwIP\src\core\ipv4/etharp.c ****         new_entry->next = 0;
 1865              		.loc 1 1033 0
 1866 015e 0021     		movs	r1, #0
 1867              	.LVL233:
 1868              	.L116:
1051:Source\LwIP\src\core\ipv4/etharp.c ****           struct etharp_q_entry *old;
 1869              		.loc 1 1051 0
 1870 0160 0229     		cmp	r1, #2
 1871 0162 29D9     		bls	.L128
 1872              	.LBB11:
1053:Source\LwIP\src\core\ipv4/etharp.c ****           arp_table[i].q = arp_table[i].q->next;
 1873              		.loc 1 1053 0
 1874 0164 184B     		ldr	r3, .L130+4
 1875 0166 6000     		lsls	r0, r4, #1
 1876              	.LVL234:
 1877 0168 0119     		adds	r1, r0, r4
 1878              	.LVL235:
 1879 016a CA00     		lsls	r2, r1, #3
 1880 016c D558     		ldr	r5, [r2, r3]
 1881              	.LVL236:
1054:Source\LwIP\src\core\ipv4/etharp.c ****           pbuf_free(old->p);
 1882              		.loc 1 1054 0
 1883 016e 2968     		ldr	r1, [r5]
 1884 0170 D150     		str	r1, [r2, r3]
1055:Source\LwIP\src\core\ipv4/etharp.c ****           memp_free(MEMP_ARP_QUEUE, old);
 1885              		.loc 1 1055 0
 1886 0172 6868     		ldr	r0, [r5, #4]
 1887 0174 FFF7FEFF 		bl	pbuf_free
 1888              	.LVL237:
1056:Source\LwIP\src\core\ipv4/etharp.c ****         }
 1889              		.loc 1 1056 0
 1890 0178 2900     		movs	r1, r5
 1891 017a 0A20     		movs	r0, #10
 1892 017c FFF7FEFF 		bl	memp_free
ARM GAS  C:\Users\Phuong\AppData\Local\Temp\cczAUGdE.s 			page 58


 1893              	.LVL238:
 1894              	.LBE11:
1060:Source\LwIP\src\core\ipv4/etharp.c ****       } else {
 1895              		.loc 1 1060 0
 1896 0180 0020     		movs	r0, #0
 1897 0182 1AE0     		b	.L100
 1898              	.LVL239:
 1899              	.L112:
 1900              	.LBE8:
1063:Source\LwIP\src\core\ipv4/etharp.c ****         LWIP_DEBUGF(ETHARP_DEBUG | LWIP_DBG_TRACE, ("etharp_query: could not queue a copy of PBUF_R
 1901              		.loc 1 1063 0
 1902 0184 2800     		movs	r0, r5
 1903              	.LVL240:
 1904 0186 FFF7FEFF 		bl	pbuf_free
 1905              	.LVL241:
1065:Source\LwIP\src\core\ipv4/etharp.c ****       }
 1906              		.loc 1 1065 0
 1907 018a 0120     		movs	r0, #1
 1908 018c 4042     		rsbs	r0, r0, #0
 1909 018e 14E0     		b	.L100
 1910              	.LVL242:
 1911              	.L111:
 1912              	.LBE7:
1078:Source\LwIP\src\core\ipv4/etharp.c ****       LWIP_DEBUGF(ETHARP_DEBUG | LWIP_DBG_TRACE, ("etharp_query: could not queue a copy of PBUF_REF
 1913              		.loc 1 1078 0
 1914 0190 0C4A     		ldr	r2, .L130
 1915 0192 938C     		ldrh	r3, [r2, #36]
 1916 0194 0133     		adds	r3, r3, #1
 1917 0196 9384     		strh	r3, [r2, #36]
 1918              	.LVL243:
1080:Source\LwIP\src\core\ipv4/etharp.c ****     }
 1919              		.loc 1 1080 0
 1920 0198 0120     		movs	r0, #1
 1921 019a 4042     		rsbs	r0, r0, #0
 1922 019c 0DE0     		b	.L100
 1923              	.LVL244:
 1924              	.L117:
 1925              	.LBE14:
 942:Source\LwIP\src\core\ipv4/etharp.c ****   }
 1926              		.loc 1 942 0
 1927 019e 1020     		movs	r0, #16
 1928 01a0 4042     		rsbs	r0, r0, #0
 1929 01a2 0AE0     		b	.L100
 1930              	.L118:
 1931 01a4 1020     		movs	r0, #16
 1932 01a6 4042     		rsbs	r0, r0, #0
 1933 01a8 07E0     		b	.L100
 1934              	.L119:
 1935 01aa 1020     		movs	r0, #16
 1936 01ac 4042     		rsbs	r0, r0, #0
 1937 01ae 04E0     		b	.L100
 1938              	.L120:
 1939 01b0 1020     		movs	r0, #16
 1940 01b2 4042     		rsbs	r0, r0, #0
 1941 01b4 01E0     		b	.L100
 1942              	.LVL245:
 1943              	.L121:
ARM GAS  C:\Users\Phuong\AppData\Local\Temp\cczAUGdE.s 			page 59


 1944 01b6 00E0     		b	.L100
 1945              	.LVL246:
 1946              	.L128:
 1947              	.LBB15:
 1948              	.LBB13:
 1949              	.LBB12:
1060:Source\LwIP\src\core\ipv4/etharp.c ****       } else {
 1950              		.loc 1 1060 0
 1951 01b8 0020     		movs	r0, #0
 1952              	.LVL247:
 1953              	.L100:
 1954              	.LBE12:
 1955              	.LBE13:
 1956              	.LBE15:
1084:Source\LwIP\src\core\ipv4/etharp.c **** 
 1957              		.loc 1 1084 0
 1958 01ba 02B0     		add	sp, sp, #8
 1959              		@ sp needed
 1960              	.LVL248:
 1961              	.LVL249:
 1962              	.LVL250:
 1963 01bc 04BC     		pop	{r2}
 1964 01be 9046     		mov	r8, r2
 1965 01c0 F0BD     		pop	{r4, r5, r6, r7, pc}
 1966              	.L131:
 1967 01c2 C046     		.align	2
 1968              	.L130:
 1969 01c4 00000000 		.word	lwip_stats
 1970 01c8 00000000 		.word	.LANCHOR0
 1971 01cc 80000000 		.word	.LANCHOR1
 1972 01d0 07040000 		.word	1031
 1973 01d4 00000000 		.word	.LC16
 1974              		.cfi_endproc
 1975              	.LFE64:
 1976              		.size	etharp_query, .-etharp_query
 1977              		.section	.text.etharp_output,"ax",%progbits
 1978              		.align	2
 1979              		.global	etharp_output
 1980              		.code	16
 1981              		.thumb_func
 1982              		.type	etharp_output, %function
 1983              	etharp_output:
 1984              	.LFB63:
 790:Source\LwIP\src\core\ipv4/etharp.c ****   const struct eth_addr *dest;
 1985              		.loc 1 790 0
 1986              		.cfi_startproc
 1987              		@ args = 0, pretend = 0, frame = 8
 1988              		@ frame_needed = 0, uses_anonymous_args = 0
 1989              	.LVL251:
 1990 0000 70B5     		push	{r4, r5, r6, lr}
 1991              		.cfi_def_cfa_offset 16
 1992              		.cfi_offset 4, -16
 1993              		.cfi_offset 5, -12
 1994              		.cfi_offset 6, -8
 1995              		.cfi_offset 14, -4
 1996 0002 84B0     		sub	sp, sp, #16
 1997              		.cfi_def_cfa_offset 32
ARM GAS  C:\Users\Phuong\AppData\Local\Temp\cczAUGdE.s 			page 60


 1998 0004 0600     		movs	r6, r0
 1999 0006 0C00     		movs	r4, r1
 2000 0008 1500     		movs	r5, r2
 2001              	.LVL252:
 803:Source\LwIP\src\core\ipv4/etharp.c ****     /* broadcast on Ethernet also */
 2002              		.loc 1 803 0
 2003 000a 0100     		movs	r1, r0
 2004              	.LVL253:
 2005 000c 1068     		ldr	r0, [r2]
 2006              	.LVL254:
 2007 000e FFF7FEFF 		bl	ip4_addr_isbroadcast_u32
 2008              	.LVL255:
 2009 0012 0028     		cmp	r0, #0
 2010 0014 68D1     		bne	.L140
 807:Source\LwIP\src\core\ipv4/etharp.c ****     /* Hash IP multicast address to MAC address.*/
 2011              		.loc 1 807 0
 2012 0016 2B68     		ldr	r3, [r5]
 2013 0018 F022     		movs	r2, #240
 2014 001a 1A40     		ands	r2, r3
 2015 001c E02A     		cmp	r2, #224
 2016 001e 0FD1     		bne	.L134
 809:Source\LwIP\src\core\ipv4/etharp.c ****     mcastaddr.addr[1] = LL_IP4_MULTICAST_ADDR_1;
 2017              		.loc 1 809 0
 2018 0020 02AB     		add	r3, sp, #8
 2019 0022 DF3A     		subs	r2, r2, #223
 2020 0024 1A70     		strb	r2, [r3]
 810:Source\LwIP\src\core\ipv4/etharp.c ****     mcastaddr.addr[2] = LL_IP4_MULTICAST_ADDR_2;
 2021              		.loc 1 810 0
 2022 0026 0022     		movs	r2, #0
 2023 0028 5A70     		strb	r2, [r3, #1]
 811:Source\LwIP\src\core\ipv4/etharp.c ****     mcastaddr.addr[3] = ip4_addr2(ipaddr) & 0x7f;
 2024              		.loc 1 811 0
 2025 002a 5E32     		adds	r2, r2, #94
 2026 002c 9A70     		strb	r2, [r3, #2]
 812:Source\LwIP\src\core\ipv4/etharp.c ****     mcastaddr.addr[4] = ip4_addr3(ipaddr);
 2027              		.loc 1 812 0
 2028 002e 6A78     		ldrb	r2, [r5, #1]
 2029 0030 7F21     		movs	r1, #127
 2030 0032 0A40     		ands	r2, r1
 2031 0034 DA70     		strb	r2, [r3, #3]
 813:Source\LwIP\src\core\ipv4/etharp.c ****     mcastaddr.addr[5] = ip4_addr4(ipaddr);
 2032              		.loc 1 813 0
 2033 0036 AA78     		ldrb	r2, [r5, #2]
 2034 0038 1A71     		strb	r2, [r3, #4]
 814:Source\LwIP\src\core\ipv4/etharp.c ****     /* destination Ethernet address is multicast */
 2035              		.loc 1 814 0
 2036 003a EA78     		ldrb	r2, [r5, #3]
 2037 003c 5A71     		strb	r2, [r3, #5]
 2038              	.LVL256:
 2039 003e 54E0     		b	.L133
 2040              	.LVL257:
 2041              	.L134:
 2042              	.LBB16:
 822:Source\LwIP\src\core\ipv4/etharp.c ****         !ip4_addr_islinklocal(ipaddr)) {
 2043              		.loc 1 822 0
 2044 0040 7268     		ldr	r2, [r6, #4]
 2045 0042 5A40     		eors	r2, r3
ARM GAS  C:\Users\Phuong\AppData\Local\Temp\cczAUGdE.s 			page 61


 2046 0044 B168     		ldr	r1, [r6, #8]
 2047 0046 1142     		tst	r1, r2
 2048 0048 09D0     		beq	.L135
 823:Source\LwIP\src\core\ipv4/etharp.c **** #if LWIP_AUTOIP
 2049              		.loc 1 823 0 discriminator 1
 2050 004a 1B04     		lsls	r3, r3, #16
 2051 004c 1B0C     		lsrs	r3, r3, #16
 822:Source\LwIP\src\core\ipv4/etharp.c ****         !ip4_addr_islinklocal(ipaddr)) {
 2052              		.loc 1 822 0 discriminator 1
 2053 004e 2E4A     		ldr	r2, .L144
 2054 0050 9342     		cmp	r3, r2
 2055 0052 04D0     		beq	.L135
 841:Source\LwIP\src\core\ipv4/etharp.c ****             /* send to hardware address of default gateway IP address */
 2056              		.loc 1 841 0
 2057 0054 F368     		ldr	r3, [r6, #12]
 2058 0056 002B     		cmp	r3, #0
 2059 0058 51D0     		beq	.L141
 843:Source\LwIP\src\core\ipv4/etharp.c ****           /* no default gateway available */
 2060              		.loc 1 843 0
 2061 005a 3500     		movs	r5, r6
 2062              	.LVL258:
 2063 005c 0C35     		adds	r5, r5, #12
 2064              	.LVL259:
 2065              	.L135:
 858:Source\LwIP\src\core\ipv4/etharp.c **** #if ETHARP_TABLE_MATCH_NETIF
 2066              		.loc 1 858 0
 2067 005e 7023     		movs	r3, #112
 2068 0060 2A4A     		ldr	r2, .L144+4
 2069 0062 D25C     		ldrb	r2, [r2, r3]
 2070 0064 5100     		lsls	r1, r2, #1
 2071 0066 8918     		adds	r1, r1, r2
 2072 0068 CB00     		lsls	r3, r1, #3
 2073 006a 2949     		ldr	r1, .L144+8
 2074 006c CB18     		adds	r3, r1, r3
 2075 006e 1B7D     		ldrb	r3, [r3, #20]
 2076 0070 012B     		cmp	r3, #1
 2077 0072 2ED9     		bls	.L142
 862:Source\LwIP\src\core\ipv4/etharp.c ****           /* the per-pcb-cached entry is stable and the right one! */
 2078              		.loc 1 862 0 discriminator 1
 2079 0074 5100     		lsls	r1, r2, #1
 2080 0076 8918     		adds	r1, r1, r2
 2081 0078 CB00     		lsls	r3, r1, #3
 2082 007a 2549     		ldr	r1, .L144+8
 2083 007c CB18     		adds	r3, r1, r3
 2084 007e 5B68     		ldr	r3, [r3, #4]
 858:Source\LwIP\src\core\ipv4/etharp.c **** #if ETHARP_TABLE_MATCH_NETIF
 2085              		.loc 1 858 0 discriminator 1
 2086 0080 2968     		ldr	r1, [r5]
 2087 0082 9942     		cmp	r1, r3
 2088 0084 27D1     		bne	.L143
 864:Source\LwIP\src\core\ipv4/etharp.c ****           return etharp_output_to_arp_index(netif, q, etharp_cached_entry);
 2089              		.loc 1 864 0
 2090 0086 2349     		ldr	r1, .L144+12
 2091 0088 CB8D     		ldrh	r3, [r1, #46]
 2092 008a 0133     		adds	r3, r3, #1
 2093 008c CB85     		strh	r3, [r1, #46]
 865:Source\LwIP\src\core\ipv4/etharp.c ****         }
ARM GAS  C:\Users\Phuong\AppData\Local\Temp\cczAUGdE.s 			page 62


 2094              		.loc 1 865 0
 2095 008e 2100     		movs	r1, r4
 2096 0090 3000     		movs	r0, r6
 2097 0092 FFF7FEFF 		bl	etharp_output_to_arp_index
 2098              	.LVL260:
 2099 0096 34E0     		b	.L136
 2100              	.LVL261:
 2101              	.L139:
 875:Source\LwIP\src\core\ipv4/etharp.c **** #if ETHARP_TABLE_MATCH_NETIF
 2102              		.loc 1 875 0
 2103 0098 5100     		lsls	r1, r2, #1
 2104 009a 8918     		adds	r1, r1, r2
 2105 009c CB00     		lsls	r3, r1, #3
 2106 009e 1C49     		ldr	r1, .L144+8
 2107 00a0 CB18     		adds	r3, r1, r3
 2108 00a2 1B7D     		ldrb	r3, [r3, #20]
 2109 00a4 012B     		cmp	r3, #1
 2110 00a6 11D9     		bls	.L138
 879:Source\LwIP\src\core\ipv4/etharp.c ****         /* found an existing, stable entry */
 2111              		.loc 1 879 0 discriminator 1
 2112 00a8 5100     		lsls	r1, r2, #1
 2113 00aa 8918     		adds	r1, r1, r2
 2114 00ac CB00     		lsls	r3, r1, #3
 2115 00ae 1849     		ldr	r1, .L144+8
 2116 00b0 CB18     		adds	r3, r1, r3
 2117 00b2 5B68     		ldr	r3, [r3, #4]
 875:Source\LwIP\src\core\ipv4/etharp.c **** #if ETHARP_TABLE_MATCH_NETIF
 2118              		.loc 1 875 0 discriminator 1
 2119 00b4 2968     		ldr	r1, [r5]
 2120 00b6 9942     		cmp	r1, r3
 2121 00b8 08D1     		bne	.L138
 881:Source\LwIP\src\core\ipv4/etharp.c ****         return etharp_output_to_arp_index(netif, q, i);
 2122              		.loc 1 881 0
 2123 00ba D2B2     		uxtb	r2, r2
 2124 00bc 7023     		movs	r3, #112
 2125 00be 1349     		ldr	r1, .L144+4
 2126 00c0 CA54     		strb	r2, [r1, r3]
 882:Source\LwIP\src\core\ipv4/etharp.c ****       }
 2127              		.loc 1 882 0
 2128 00c2 2100     		movs	r1, r4
 2129 00c4 3000     		movs	r0, r6
 2130 00c6 FFF7FEFF 		bl	etharp_output_to_arp_index
 2131              	.LVL262:
 2132 00ca 1AE0     		b	.L136
 2133              	.LVL263:
 2134              	.L138:
 874:Source\LwIP\src\core\ipv4/etharp.c ****       if ((arp_table[i].state >= ETHARP_STATE_STABLE) &&
 2135              		.loc 1 874 0 discriminator 2
 2136 00cc 0132     		adds	r2, r2, #1
 2137              	.LVL264:
 2138 00ce 52B2     		sxtb	r2, r2
 2139              	.LVL265:
 2140 00d0 02E0     		b	.L137
 2141              	.LVL266:
 2142              	.L142:
 2143 00d2 0022     		movs	r2, #0
 2144 00d4 00E0     		b	.L137
ARM GAS  C:\Users\Phuong\AppData\Local\Temp\cczAUGdE.s 			page 63


 2145              	.L143:
 2146 00d6 0022     		movs	r2, #0
 2147              	.L137:
 2148              	.LVL267:
 874:Source\LwIP\src\core\ipv4/etharp.c ****       if ((arp_table[i].state >= ETHARP_STATE_STABLE) &&
 2149              		.loc 1 874 0 is_stmt 0 discriminator 1
 2150 00d8 092A     		cmp	r2, #9
 2151 00da DDDD     		ble	.L139
 887:Source\LwIP\src\core\ipv4/etharp.c ****   }
 2152              		.loc 1 887 0 is_stmt 1
 2153 00dc 2200     		movs	r2, r4
 2154              	.LVL268:
 2155 00de 2900     		movs	r1, r5
 2156 00e0 3000     		movs	r0, r6
 2157 00e2 FFF7FEFF 		bl	etharp_query
 2158              	.LVL269:
 2159 00e6 0CE0     		b	.L136
 2160              	.LVL270:
 2161              	.L140:
 2162              	.LBE16:
 805:Source\LwIP\src\core\ipv4/etharp.c ****   /* multicast destination IP address? */
 2163              		.loc 1 805 0
 2164 00e8 0B4B     		ldr	r3, .L144+16
 2165              	.L133:
 2166              	.LVL271:
 893:Source\LwIP\src\core\ipv4/etharp.c **** }
 2167              		.loc 1 893 0
 2168 00ea 3200     		movs	r2, r6
 2169 00ec 3732     		adds	r2, r2, #55
 2170 00ee 8021     		movs	r1, #128
 2171 00f0 0901     		lsls	r1, r1, #4
 2172 00f2 0091     		str	r1, [sp]
 2173 00f4 2100     		movs	r1, r4
 2174 00f6 3000     		movs	r0, r6
 2175 00f8 FFF7FEFF 		bl	ethernet_output
 2176              	.LVL272:
 2177 00fc 01E0     		b	.L136
 2178              	.L141:
 2179              	.LBB17:
 847:Source\LwIP\src\core\ipv4/etharp.c ****           }
 2180              		.loc 1 847 0
 2181 00fe 0420     		movs	r0, #4
 2182 0100 4042     		rsbs	r0, r0, #0
 2183              	.LVL273:
 2184              	.L136:
 2185              	.LBE17:
 894:Source\LwIP\src\core\ipv4/etharp.c **** 
 2186              		.loc 1 894 0
 2187 0102 04B0     		add	sp, sp, #16
 2188              		@ sp needed
 2189              	.LVL274:
 2190              	.LVL275:
 2191              	.LVL276:
 2192 0104 70BD     		pop	{r4, r5, r6, pc}
 2193              	.L145:
 2194 0106 C046     		.align	2
 2195              	.L144:
ARM GAS  C:\Users\Phuong\AppData\Local\Temp\cczAUGdE.s 			page 64


 2196 0108 A9FE0000 		.word	65193
 2197 010c 80000000 		.word	.LANCHOR1
 2198 0110 00000000 		.word	.LANCHOR0
 2199 0114 00000000 		.word	lwip_stats
 2200 0118 00000000 		.word	ethbroadcast
 2201              		.cfi_endproc
 2202              	.LFE63:
 2203              		.size	etharp_output, .-etharp_output
 2204              		.section	.rodata.str1.4,"aMS",%progbits,1
 2205              		.align	2
 2206              	.LC16:
 2207 0000 536F7572 		.ascii	"Source\\LwIP\\src\\core\\ipv4\\etharp.c\000"
 2207      63655C4C 
 2207      7749505C 
 2207      7372635C 
 2207      636F7265 
 2208              		.bss
 2209              		.align	2
 2210              		.set	.LANCHOR0,. + 0
 2211              		.set	.LANCHOR1,. + 128
 2212              		.type	arp_table, %object
 2213              		.size	arp_table, 240
 2214              	arp_table:
 2215 0000 00000000 		.space	240
 2215      00000000 
 2215      00000000 
 2215      00000000 
 2215      00000000 
 2216              		.type	etharp_cached_entry, %object
 2217              		.size	etharp_cached_entry, 1
 2218              	etharp_cached_entry:
 2219 00f0 00       		.space	1
 2220              		.text
 2221              	.Letext0:
 2222              		.file 2 "c:\\program files (x86)\\cypress\\psoc creator\\4.2\\psoc creator\\import\\gnu\\arm\\5.4.
 2223              		.file 3 "c:\\program files (x86)\\cypress\\psoc creator\\4.2\\psoc creator\\import\\gnu\\arm\\5.4.
 2224              		.file 4 "c:\\program files (x86)\\cypress\\psoc creator\\4.2\\psoc creator\\import\\gnu\\arm\\5.4.
 2225              		.file 5 ".\\Source\\LwIP\\src\\include/arch/cc.h"
 2226              		.file 6 ".\\Source\\LwIP\\src\\include/lwip/err.h"
 2227              		.file 7 ".\\Source\\LwIP\\src\\include/lwip/pbuf.h"
 2228              		.file 8 ".\\Source\\LwIP\\src\\include/lwip/ip4_addr.h"
 2229              		.file 9 ".\\Source\\LwIP\\src\\include/lwip/ip_addr.h"
 2230              		.file 10 ".\\Source\\LwIP\\src\\include/lwip/mem.h"
 2231              		.file 11 ".\\Source\\LwIP\\src\\include/lwip/memp.h"
 2232              		.file 12 ".\\Source\\LwIP\\src\\include/lwip/stats.h"
 2233              		.file 13 ".\\Source\\LwIP\\src\\include/lwip/netif.h"
 2234              		.file 14 ".\\Source\\LwIP\\src\\include/lwip/prot/ethernet.h"
 2235              		.file 15 ".\\Source\\LwIP\\src\\include/lwip/prot/etharp.h"
 2236              		.file 16 ".\\Source\\LwIP\\src\\include/lwip/etharp.h"
 2237              		.file 17 ".\\Source\\LwIP\\src\\include/netif/ethernet.h"
 2238              		.file 18 ".\\Source\\LwIP\\src\\include/lwip/def.h"
 2239              		.section	.debug_info,"",%progbits
 2240              	.Ldebug_info0:
 2241 0000 1C170000 		.4byte	0x171c
 2242 0004 0400     		.2byte	0x4
 2243 0006 00000000 		.4byte	.Ldebug_abbrev0
 2244 000a 04       		.byte	0x4
ARM GAS  C:\Users\Phuong\AppData\Local\Temp\cczAUGdE.s 			page 65


 2245 000b 01       		.uleb128 0x1
 2246 000c 53020000 		.4byte	.LASF240
 2247 0010 0C       		.byte	0xc
 2248 0011 27030000 		.4byte	.LASF241
 2249 0015 EF030000 		.4byte	.LASF242
 2250 0019 80000000 		.4byte	.Ldebug_ranges0+0x80
 2251 001d 00000000 		.4byte	0
 2252 0021 00000000 		.4byte	.Ldebug_line0
 2253 0025 02       		.uleb128 0x2
 2254 0026 01       		.byte	0x1
 2255 0027 06       		.byte	0x6
 2256 0028 6E0B0000 		.4byte	.LASF0
 2257 002c 02       		.uleb128 0x2
 2258 002d 01       		.byte	0x1
 2259 002e 08       		.byte	0x8
 2260 002f F0070000 		.4byte	.LASF1
 2261 0033 02       		.uleb128 0x2
 2262 0034 02       		.byte	0x2
 2263 0035 05       		.byte	0x5
 2264 0036 44080000 		.4byte	.LASF2
 2265 003a 02       		.uleb128 0x2
 2266 003b 02       		.byte	0x2
 2267 003c 07       		.byte	0x7
 2268 003d 7A0B0000 		.4byte	.LASF3
 2269 0041 02       		.uleb128 0x2
 2270 0042 04       		.byte	0x4
 2271 0043 05       		.byte	0x5
 2272 0044 53080000 		.4byte	.LASF4
 2273 0048 03       		.uleb128 0x3
 2274 0049 E5070000 		.4byte	.LASF9
 2275 004d 02       		.byte	0x2
 2276 004e 41       		.byte	0x41
 2277 004f 53000000 		.4byte	0x53
 2278 0053 02       		.uleb128 0x2
 2279 0054 04       		.byte	0x4
 2280 0055 07       		.byte	0x7
 2281 0056 C4090000 		.4byte	.LASF5
 2282 005a 02       		.uleb128 0x2
 2283 005b 08       		.byte	0x8
 2284 005c 05       		.byte	0x5
 2285 005d D0060000 		.4byte	.LASF6
 2286 0061 02       		.uleb128 0x2
 2287 0062 08       		.byte	0x8
 2288 0063 07       		.byte	0x7
 2289 0064 6C030000 		.4byte	.LASF7
 2290 0068 04       		.uleb128 0x4
 2291 0069 04       		.byte	0x4
 2292 006a 05       		.byte	0x5
 2293 006b 696E7400 		.ascii	"int\000"
 2294 006f 02       		.uleb128 0x2
 2295 0070 04       		.byte	0x4
 2296 0071 07       		.byte	0x7
 2297 0072 38090000 		.4byte	.LASF8
 2298 0076 03       		.uleb128 0x3
 2299 0077 E9040000 		.4byte	.LASF10
 2300 007b 03       		.byte	0x3
 2301 007c D8       		.byte	0xd8
ARM GAS  C:\Users\Phuong\AppData\Local\Temp\cczAUGdE.s 			page 66


 2302 007d 6F000000 		.4byte	0x6f
 2303 0081 02       		.uleb128 0x2
 2304 0082 08       		.byte	0x8
 2305 0083 04       		.byte	0x4
 2306 0084 CF070000 		.4byte	.LASF11
 2307 0088 05       		.uleb128 0x5
 2308 0089 04       		.byte	0x4
 2309 008a 02       		.uleb128 0x2
 2310 008b 04       		.byte	0x4
 2311 008c 07       		.byte	0x7
 2312 008d AE090000 		.4byte	.LASF12
 2313 0091 02       		.uleb128 0x2
 2314 0092 01       		.byte	0x1
 2315 0093 08       		.byte	0x8
 2316 0094 5A000000 		.4byte	.LASF13
 2317 0098 06       		.uleb128 0x6
 2318 0099 04       		.byte	0x4
 2319 009a 9E000000 		.4byte	0x9e
 2320 009e 07       		.uleb128 0x7
 2321 009f 91000000 		.4byte	0x91
 2322 00a3 03       		.uleb128 0x3
 2323 00a4 E2010000 		.4byte	.LASF14
 2324 00a8 04       		.byte	0x4
 2325 00a9 30       		.byte	0x30
 2326 00aa 48000000 		.4byte	0x48
 2327 00ae 02       		.uleb128 0x2
 2328 00af 04       		.byte	0x4
 2329 00b0 04       		.byte	0x4
 2330 00b1 3A020000 		.4byte	.LASF15
 2331 00b5 02       		.uleb128 0x2
 2332 00b6 08       		.byte	0x8
 2333 00b7 04       		.byte	0x4
 2334 00b8 B60B0000 		.4byte	.LASF16
 2335 00bc 08       		.uleb128 0x8
 2336 00bd 88000000 		.4byte	0x88
 2337 00c1 CC000000 		.4byte	0xcc
 2338 00c5 09       		.uleb128 0x9
 2339 00c6 8A000000 		.4byte	0x8a
 2340 00ca 01       		.byte	0x1
 2341 00cb 00       		.byte	0
 2342 00cc 03       		.uleb128 0x3
 2343 00cd 27070000 		.4byte	.LASF17
 2344 00d1 05       		.byte	0x5
 2345 00d2 31       		.byte	0x31
 2346 00d3 2C000000 		.4byte	0x2c
 2347 00d7 03       		.uleb128 0x3
 2348 00d8 49050000 		.4byte	.LASF18
 2349 00dc 05       		.byte	0x5
 2350 00dd 32       		.byte	0x32
 2351 00de 25000000 		.4byte	0x25
 2352 00e2 03       		.uleb128 0x3
 2353 00e3 32010000 		.4byte	.LASF19
 2354 00e7 05       		.byte	0x5
 2355 00e8 33       		.byte	0x33
 2356 00e9 3A000000 		.4byte	0x3a
 2357 00ed 03       		.uleb128 0x3
 2358 00ee 060A0000 		.4byte	.LASF20
ARM GAS  C:\Users\Phuong\AppData\Local\Temp\cczAUGdE.s 			page 67


 2359 00f2 05       		.byte	0x5
 2360 00f3 34       		.byte	0x34
 2361 00f4 33000000 		.4byte	0x33
 2362 00f8 03       		.uleb128 0x3
 2363 00f9 3E080000 		.4byte	.LASF21
 2364 00fd 05       		.byte	0x5
 2365 00fe 35       		.byte	0x35
 2366 00ff 53000000 		.4byte	0x53
 2367 0103 03       		.uleb128 0x3
 2368 0104 07010000 		.4byte	.LASF22
 2369 0108 06       		.byte	0x6
 2370 0109 39       		.byte	0x39
 2371 010a D7000000 		.4byte	0xd7
 2372 010e 0A       		.uleb128 0xa
 2373 010f 01       		.byte	0x1
 2374 0110 25000000 		.4byte	0x25
 2375 0114 06       		.byte	0x6
 2376 0115 3D       		.byte	0x3d
 2377 0116 81010000 		.4byte	0x181
 2378 011a 0B       		.uleb128 0xb
 2379 011b 360B0000 		.4byte	.LASF23
 2380 011f 00       		.byte	0
 2381 0120 0C       		.uleb128 0xc
 2382 0121 020C0000 		.4byte	.LASF24
 2383 0125 7F       		.sleb128 -1
 2384 0126 0C       		.uleb128 0xc
 2385 0127 16080000 		.4byte	.LASF25
 2386 012b 7E       		.sleb128 -2
 2387 012c 0C       		.uleb128 0xc
 2388 012d 84050000 		.4byte	.LASF26
 2389 0131 7D       		.sleb128 -3
 2390 0132 0C       		.uleb128 0xc
 2391 0133 AE0B0000 		.4byte	.LASF27
 2392 0137 7C       		.sleb128 -4
 2393 0138 0C       		.uleb128 0xc
 2394 0139 A2080000 		.4byte	.LASF28
 2395 013d 7B       		.sleb128 -5
 2396 013e 0C       		.uleb128 0xc
 2397 013f D9030000 		.4byte	.LASF29
 2398 0143 7A       		.sleb128 -6
 2399 0144 0C       		.uleb128 0xc
 2400 0145 75050000 		.4byte	.LASF30
 2401 0149 79       		.sleb128 -7
 2402 014a 0C       		.uleb128 0xc
 2403 014b C4000000 		.4byte	.LASF31
 2404 014f 78       		.sleb128 -8
 2405 0150 0C       		.uleb128 0xc
 2406 0151 B9010000 		.4byte	.LASF32
 2407 0155 77       		.sleb128 -9
 2408 0156 0C       		.uleb128 0xc
 2409 0157 42010000 		.4byte	.LASF33
 2410 015b 76       		.sleb128 -10
 2411 015c 0C       		.uleb128 0xc
 2412 015d 9F0B0000 		.4byte	.LASF34
 2413 0161 75       		.sleb128 -11
 2414 0162 0C       		.uleb128 0xc
 2415 0163 DE060000 		.4byte	.LASF35
ARM GAS  C:\Users\Phuong\AppData\Local\Temp\cczAUGdE.s 			page 68


 2416 0167 74       		.sleb128 -12
 2417 0168 0C       		.uleb128 0xc
 2418 0169 65000000 		.4byte	.LASF36
 2419 016d 73       		.sleb128 -13
 2420 016e 0C       		.uleb128 0xc
 2421 016f 140B0000 		.4byte	.LASF37
 2422 0173 72       		.sleb128 -14
 2423 0174 0C       		.uleb128 0xc
 2424 0175 BB000000 		.4byte	.LASF38
 2425 0179 71       		.sleb128 -15
 2426 017a 0C       		.uleb128 0xc
 2427 017b CC000000 		.4byte	.LASF39
 2428 017f 70       		.sleb128 -16
 2429 0180 00       		.byte	0
 2430 0181 0A       		.uleb128 0xa
 2431 0182 01       		.byte	0x1
 2432 0183 2C000000 		.4byte	0x2c
 2433 0187 07       		.byte	0x7
 2434 0188 48       		.byte	0x48
 2435 0189 AC010000 		.4byte	0x1ac
 2436 018d 0B       		.uleb128 0xb
 2437 018e AA010000 		.4byte	.LASF40
 2438 0192 00       		.byte	0
 2439 0193 0B       		.uleb128 0xb
 2440 0194 0D050000 		.4byte	.LASF41
 2441 0198 01       		.byte	0x1
 2442 0199 0B       		.uleb128 0xb
 2443 019a 91070000 		.4byte	.LASF42
 2444 019e 02       		.byte	0x2
 2445 019f 0B       		.uleb128 0xb
 2446 01a0 DC0B0000 		.4byte	.LASF43
 2447 01a4 03       		.byte	0x3
 2448 01a5 0B       		.uleb128 0xb
 2449 01a6 AC000000 		.4byte	.LASF44
 2450 01aa 04       		.byte	0x4
 2451 01ab 00       		.byte	0
 2452 01ac 0A       		.uleb128 0xa
 2453 01ad 01       		.byte	0x1
 2454 01ae 2C000000 		.4byte	0x2c
 2455 01b2 07       		.byte	0x7
 2456 01b3 65       		.byte	0x65
 2457 01b4 D1010000 		.4byte	0x1d1
 2458 01b8 0B       		.uleb128 0xb
 2459 01b9 81000000 		.4byte	.LASF45
 2460 01bd 00       		.byte	0
 2461 01be 0B       		.uleb128 0xb
 2462 01bf E80B0000 		.4byte	.LASF46
 2463 01c3 01       		.byte	0x1
 2464 01c4 0B       		.uleb128 0xb
 2465 01c5 A9040000 		.4byte	.LASF47
 2466 01c9 02       		.byte	0x2
 2467 01ca 0B       		.uleb128 0xb
 2468 01cb 36050000 		.4byte	.LASF48
 2469 01cf 03       		.byte	0x3
 2470 01d0 00       		.byte	0
 2471 01d1 0D       		.uleb128 0xd
 2472 01d2 480A0000 		.4byte	.LASF54
ARM GAS  C:\Users\Phuong\AppData\Local\Temp\cczAUGdE.s 			page 69


 2473 01d6 10       		.byte	0x10
 2474 01d7 07       		.byte	0x7
 2475 01d8 8E       		.byte	0x8e
 2476 01d9 32020000 		.4byte	0x232
 2477 01dd 0E       		.uleb128 0xe
 2478 01de F6000000 		.4byte	.LASF49
 2479 01e2 07       		.byte	0x7
 2480 01e3 90       		.byte	0x90
 2481 01e4 32020000 		.4byte	0x232
 2482 01e8 00       		.byte	0
 2483 01e9 0E       		.uleb128 0xe
 2484 01ea F0040000 		.4byte	.LASF50
 2485 01ee 07       		.byte	0x7
 2486 01ef 93       		.byte	0x93
 2487 01f0 88000000 		.4byte	0x88
 2488 01f4 04       		.byte	0x4
 2489 01f5 0E       		.uleb128 0xe
 2490 01f6 DA040000 		.4byte	.LASF51
 2491 01fa 07       		.byte	0x7
 2492 01fb 9C       		.byte	0x9c
 2493 01fc E2000000 		.4byte	0xe2
 2494 0200 08       		.byte	0x8
 2495 0201 0F       		.uleb128 0xf
 2496 0202 6C656E00 		.ascii	"len\000"
 2497 0206 07       		.byte	0x7
 2498 0207 9F       		.byte	0x9f
 2499 0208 E2000000 		.4byte	0xe2
 2500 020c 0A       		.byte	0xa
 2501 020d 0E       		.uleb128 0xe
 2502 020e 390A0000 		.4byte	.LASF52
 2503 0212 07       		.byte	0x7
 2504 0213 A2       		.byte	0xa2
 2505 0214 CC000000 		.4byte	0xcc
 2506 0218 0C       		.byte	0xc
 2507 0219 0E       		.uleb128 0xe
 2508 021a B5000000 		.4byte	.LASF53
 2509 021e 07       		.byte	0x7
 2510 021f A5       		.byte	0xa5
 2511 0220 CC000000 		.4byte	0xcc
 2512 0224 0D       		.byte	0xd
 2513 0225 0F       		.uleb128 0xf
 2514 0226 72656600 		.ascii	"ref\000"
 2515 022a 07       		.byte	0x7
 2516 022b AC       		.byte	0xac
 2517 022c E2000000 		.4byte	0xe2
 2518 0230 0E       		.byte	0xe
 2519 0231 00       		.byte	0
 2520 0232 06       		.uleb128 0x6
 2521 0233 04       		.byte	0x4
 2522 0234 D1010000 		.4byte	0x1d1
 2523 0238 0D       		.uleb128 0xd
 2524 0239 C0080000 		.4byte	.LASF55
 2525 023d 04       		.byte	0x4
 2526 023e 08       		.byte	0x8
 2527 023f 33       		.byte	0x33
 2528 0240 51020000 		.4byte	0x251
 2529 0244 0E       		.uleb128 0xe
ARM GAS  C:\Users\Phuong\AppData\Local\Temp\cczAUGdE.s 			page 70


 2530 0245 C10A0000 		.4byte	.LASF56
 2531 0249 08       		.byte	0x8
 2532 024a 34       		.byte	0x34
 2533 024b F8000000 		.4byte	0xf8
 2534 024f 00       		.byte	0
 2535 0250 00       		.byte	0
 2536 0251 03       		.uleb128 0x3
 2537 0252 A7030000 		.4byte	.LASF57
 2538 0256 08       		.byte	0x8
 2539 0257 39       		.byte	0x39
 2540 0258 38020000 		.4byte	0x238
 2541 025c 0D       		.uleb128 0xd
 2542 025d D8050000 		.4byte	.LASF58
 2543 0261 04       		.byte	0x4
 2544 0262 08       		.byte	0x8
 2545 0263 43       		.byte	0x43
 2546 0264 75020000 		.4byte	0x275
 2547 0268 0E       		.uleb128 0xe
 2548 0269 2C010000 		.4byte	.LASF59
 2549 026d 08       		.byte	0x8
 2550 026e 44       		.byte	0x44
 2551 026f 75020000 		.4byte	0x275
 2552 0273 00       		.byte	0
 2553 0274 00       		.byte	0
 2554 0275 08       		.uleb128 0x8
 2555 0276 E2000000 		.4byte	0xe2
 2556 027a 85020000 		.4byte	0x285
 2557 027e 09       		.uleb128 0x9
 2558 027f 8A000000 		.4byte	0x8a
 2559 0283 01       		.byte	0x1
 2560 0284 00       		.byte	0
 2561 0285 03       		.uleb128 0x3
 2562 0286 BD0B0000 		.4byte	.LASF60
 2563 028a 09       		.byte	0x9
 2564 028b F4       		.byte	0xf4
 2565 028c 51020000 		.4byte	0x251
 2566 0290 03       		.uleb128 0x3
 2567 0291 06060000 		.4byte	.LASF61
 2568 0295 0A       		.byte	0xa
 2569 0296 32       		.byte	0x32
 2570 0297 76000000 		.4byte	0x76
 2571 029b 0A       		.uleb128 0xa
 2572 029c 01       		.byte	0x1
 2573 029d 2C000000 		.4byte	0x2c
 2574 02a1 0B       		.byte	0xb
 2575 02a2 34       		.byte	0x34
 2576 02a3 0E030000 		.4byte	0x30e
 2577 02a7 0B       		.uleb128 0xb
 2578 02a8 1E080000 		.4byte	.LASF62
 2579 02ac 00       		.byte	0
 2580 02ad 0B       		.uleb128 0xb
 2581 02ae 82080000 		.4byte	.LASF63
 2582 02b2 01       		.byte	0x1
 2583 02b3 0B       		.uleb128 0xb
 2584 02b4 1A070000 		.4byte	.LASF64
 2585 02b8 02       		.byte	0x2
 2586 02b9 0B       		.uleb128 0xb
ARM GAS  C:\Users\Phuong\AppData\Local\Temp\cczAUGdE.s 			page 71


 2587 02ba 40000000 		.4byte	.LASF65
 2588 02be 03       		.byte	0x3
 2589 02bf 0B       		.uleb128 0xb
 2590 02c0 8B0A0000 		.4byte	.LASF66
 2591 02c4 04       		.byte	0x4
 2592 02c5 0B       		.uleb128 0xb
 2593 02c6 5E070000 		.4byte	.LASF67
 2594 02ca 05       		.byte	0x5
 2595 02cb 0B       		.uleb128 0xb
 2596 02cc BC060000 		.4byte	.LASF68
 2597 02d0 06       		.byte	0x6
 2598 02d1 0B       		.uleb128 0xb
 2599 02d2 EB010000 		.4byte	.LASF69
 2600 02d6 07       		.byte	0x7
 2601 02d7 0B       		.uleb128 0xb
 2602 02d8 08020000 		.4byte	.LASF70
 2603 02dc 08       		.byte	0x8
 2604 02dd 0B       		.uleb128 0xb
 2605 02de 94040000 		.4byte	.LASF71
 2606 02e2 09       		.byte	0x9
 2607 02e3 0B       		.uleb128 0xb
 2608 02e4 ED020000 		.4byte	.LASF72
 2609 02e8 0A       		.byte	0xa
 2610 02e9 0B       		.uleb128 0xb
 2611 02ea F8010000 		.4byte	.LASF73
 2612 02ee 0B       		.byte	0xb
 2613 02ef 0B       		.uleb128 0xb
 2614 02f0 68080000 		.4byte	.LASF74
 2615 02f4 0C       		.byte	0xc
 2616 02f5 0B       		.uleb128 0xb
 2617 02f6 C70B0000 		.4byte	.LASF75
 2618 02fa 0D       		.byte	0xd
 2619 02fb 0B       		.uleb128 0xb
 2620 02fc BB050000 		.4byte	.LASF76
 2621 0300 0E       		.byte	0xe
 2622 0301 0B       		.uleb128 0xb
 2623 0302 76010000 		.4byte	.LASF77
 2624 0306 0F       		.byte	0xf
 2625 0307 0B       		.uleb128 0xb
 2626 0308 40050000 		.4byte	.LASF78
 2627 030c 10       		.byte	0x10
 2628 030d 00       		.byte	0
 2629 030e 0D       		.uleb128 0xd
 2630 030f 38010000 		.4byte	.LASF79
 2631 0313 18       		.byte	0x18
 2632 0314 0C       		.byte	0xc
 2633 0315 62       		.byte	0x62
 2634 0316 63030000 		.4byte	0x363
 2635 031a 0E       		.uleb128 0xe
 2636 031b ED080000 		.4byte	.LASF80
 2637 031f 0C       		.byte	0xc
 2638 0320 64       		.byte	0x64
 2639 0321 98000000 		.4byte	0x98
 2640 0325 00       		.byte	0
 2641 0326 0F       		.uleb128 0xf
 2642 0327 65727200 		.ascii	"err\000"
 2643 032b 0C       		.byte	0xc
ARM GAS  C:\Users\Phuong\AppData\Local\Temp\cczAUGdE.s 			page 72


 2644 032c 66       		.byte	0x66
 2645 032d E2000000 		.4byte	0xe2
 2646 0331 04       		.byte	0x4
 2647 0332 0E       		.uleb128 0xe
 2648 0333 62080000 		.4byte	.LASF81
 2649 0337 0C       		.byte	0xc
 2650 0338 67       		.byte	0x67
 2651 0339 90020000 		.4byte	0x290
 2652 033d 08       		.byte	0x8
 2653 033e 0E       		.uleb128 0xe
 2654 033f 45070000 		.4byte	.LASF82
 2655 0343 0C       		.byte	0xc
 2656 0344 68       		.byte	0x68
 2657 0345 90020000 		.4byte	0x290
 2658 0349 0C       		.byte	0xc
 2659 034a 0F       		.uleb128 0xf
 2660 034b 6D617800 		.ascii	"max\000"
 2661 034f 0C       		.byte	0xc
 2662 0350 69       		.byte	0x69
 2663 0351 90020000 		.4byte	0x290
 2664 0355 10       		.byte	0x10
 2665 0356 0E       		.uleb128 0xe
 2666 0357 FE050000 		.4byte	.LASF83
 2667 035b 0C       		.byte	0xc
 2668 035c 6A       		.byte	0x6a
 2669 035d E2000000 		.4byte	0xe2
 2670 0361 14       		.byte	0x14
 2671 0362 00       		.byte	0
 2672 0363 06       		.uleb128 0x6
 2673 0364 04       		.byte	0x4
 2674 0365 0E030000 		.4byte	0x30e
 2675 0369 0D       		.uleb128 0xd
 2676 036a 3A060000 		.4byte	.LASF84
 2677 036e 18       		.byte	0x18
 2678 036f 0C       		.byte	0xc
 2679 0370 40       		.byte	0x40
 2680 0371 05040000 		.4byte	0x405
 2681 0375 0E       		.uleb128 0xe
 2682 0376 CE0A0000 		.4byte	.LASF85
 2683 037a 0C       		.byte	0xc
 2684 037b 41       		.byte	0x41
 2685 037c E2000000 		.4byte	0xe2
 2686 0380 00       		.byte	0
 2687 0381 0E       		.uleb128 0xe
 2688 0382 470B0000 		.4byte	.LASF86
 2689 0386 0C       		.byte	0xc
 2690 0387 42       		.byte	0x42
 2691 0388 E2000000 		.4byte	0xe2
 2692 038c 02       		.byte	0x2
 2693 038d 0F       		.uleb128 0xf
 2694 038e 667700   		.ascii	"fw\000"
 2695 0391 0C       		.byte	0xc
 2696 0392 43       		.byte	0x43
 2697 0393 E2000000 		.4byte	0xe2
 2698 0397 04       		.byte	0x4
 2699 0398 0E       		.uleb128 0xe
 2700 0399 D30A0000 		.4byte	.LASF87
ARM GAS  C:\Users\Phuong\AppData\Local\Temp\cczAUGdE.s 			page 73


 2701 039d 0C       		.byte	0xc
 2702 039e 44       		.byte	0x44
 2703 039f E2000000 		.4byte	0xe2
 2704 03a3 06       		.byte	0x6
 2705 03a4 0E       		.uleb128 0xe
 2706 03a5 57070000 		.4byte	.LASF88
 2707 03a9 0C       		.byte	0xc
 2708 03aa 45       		.byte	0x45
 2709 03ab E2000000 		.4byte	0xe2
 2710 03af 08       		.byte	0x8
 2711 03b0 0E       		.uleb128 0xe
 2712 03b1 9F090000 		.4byte	.LASF89
 2713 03b5 0C       		.byte	0xc
 2714 03b6 46       		.byte	0x46
 2715 03b7 E2000000 		.4byte	0xe2
 2716 03bb 0A       		.byte	0xa
 2717 03bc 0E       		.uleb128 0xe
 2718 03bd 840A0000 		.4byte	.LASF90
 2719 03c1 0C       		.byte	0xc
 2720 03c2 47       		.byte	0x47
 2721 03c3 E2000000 		.4byte	0xe2
 2722 03c7 0C       		.byte	0xc
 2723 03c8 0E       		.uleb128 0xe
 2724 03c9 5C080000 		.4byte	.LASF91
 2725 03cd 0C       		.byte	0xc
 2726 03ce 48       		.byte	0x48
 2727 03cf E2000000 		.4byte	0xe2
 2728 03d3 0E       		.byte	0xe
 2729 03d4 0E       		.uleb128 0xe
 2730 03d5 1C0A0000 		.4byte	.LASF92
 2731 03d9 0C       		.byte	0xc
 2732 03da 49       		.byte	0x49
 2733 03db E2000000 		.4byte	0xe2
 2734 03df 10       		.byte	0x10
 2735 03e0 0E       		.uleb128 0xe
 2736 03e1 1B020000 		.4byte	.LASF93
 2737 03e5 0C       		.byte	0xc
 2738 03e6 4A       		.byte	0x4a
 2739 03e7 E2000000 		.4byte	0xe2
 2740 03eb 12       		.byte	0x12
 2741 03ec 0F       		.uleb128 0xf
 2742 03ed 65727200 		.ascii	"err\000"
 2743 03f1 0C       		.byte	0xc
 2744 03f2 4B       		.byte	0x4b
 2745 03f3 E2000000 		.4byte	0xe2
 2746 03f7 14       		.byte	0x14
 2747 03f8 0E       		.uleb128 0xe
 2748 03f9 D5080000 		.4byte	.LASF94
 2749 03fd 0C       		.byte	0xc
 2750 03fe 4C       		.byte	0x4c
 2751 03ff E2000000 		.4byte	0xe2
 2752 0403 16       		.byte	0x16
 2753 0404 00       		.byte	0
 2754 0405 0D       		.uleb128 0xd
 2755 0406 940B0000 		.4byte	.LASF95
 2756 040a 1C       		.byte	0x1c
 2757 040b 0C       		.byte	0xc
ARM GAS  C:\Users\Phuong\AppData\Local\Temp\cczAUGdE.s 			page 74


 2758 040c 50       		.byte	0x50
 2759 040d BA040000 		.4byte	0x4ba
 2760 0411 0E       		.uleb128 0xe
 2761 0412 CE0A0000 		.4byte	.LASF85
 2762 0416 0C       		.byte	0xc
 2763 0417 51       		.byte	0x51
 2764 0418 E2000000 		.4byte	0xe2
 2765 041c 00       		.byte	0
 2766 041d 0E       		.uleb128 0xe
 2767 041e 470B0000 		.4byte	.LASF86
 2768 0422 0C       		.byte	0xc
 2769 0423 52       		.byte	0x52
 2770 0424 E2000000 		.4byte	0xe2
 2771 0428 02       		.byte	0x2
 2772 0429 0E       		.uleb128 0xe
 2773 042a D30A0000 		.4byte	.LASF87
 2774 042e 0C       		.byte	0xc
 2775 042f 53       		.byte	0x53
 2776 0430 E2000000 		.4byte	0xe2
 2777 0434 04       		.byte	0x4
 2778 0435 0E       		.uleb128 0xe
 2779 0436 57070000 		.4byte	.LASF88
 2780 043a 0C       		.byte	0xc
 2781 043b 54       		.byte	0x54
 2782 043c E2000000 		.4byte	0xe2
 2783 0440 06       		.byte	0x6
 2784 0441 0E       		.uleb128 0xe
 2785 0442 9F090000 		.4byte	.LASF89
 2786 0446 0C       		.byte	0xc
 2787 0447 55       		.byte	0x55
 2788 0448 E2000000 		.4byte	0xe2
 2789 044c 08       		.byte	0x8
 2790 044d 0E       		.uleb128 0xe
 2791 044e 840A0000 		.4byte	.LASF90
 2792 0452 0C       		.byte	0xc
 2793 0453 56       		.byte	0x56
 2794 0454 E2000000 		.4byte	0xe2
 2795 0458 0A       		.byte	0xa
 2796 0459 0E       		.uleb128 0xe
 2797 045a 1C0A0000 		.4byte	.LASF92
 2798 045e 0C       		.byte	0xc
 2799 045f 57       		.byte	0x57
 2800 0460 E2000000 		.4byte	0xe2
 2801 0464 0C       		.byte	0xc
 2802 0465 0E       		.uleb128 0xe
 2803 0466 83030000 		.4byte	.LASF96
 2804 046a 0C       		.byte	0xc
 2805 046b 58       		.byte	0x58
 2806 046c E2000000 		.4byte	0xe2
 2807 0470 0E       		.byte	0xe
 2808 0471 0E       		.uleb128 0xe
 2809 0472 240A0000 		.4byte	.LASF97
 2810 0476 0C       		.byte	0xc
 2811 0477 59       		.byte	0x59
 2812 0478 E2000000 		.4byte	0xe2
 2813 047c 10       		.byte	0x10
 2814 047d 0E       		.uleb128 0xe
ARM GAS  C:\Users\Phuong\AppData\Local\Temp\cczAUGdE.s 			page 75


 2815 047e 9B070000 		.4byte	.LASF98
 2816 0482 0C       		.byte	0xc
 2817 0483 5A       		.byte	0x5a
 2818 0484 E2000000 		.4byte	0xe2
 2819 0488 12       		.byte	0x12
 2820 0489 0E       		.uleb128 0xe
 2821 048a 6B050000 		.4byte	.LASF99
 2822 048e 0C       		.byte	0xc
 2823 048f 5B       		.byte	0x5b
 2824 0490 E2000000 		.4byte	0xe2
 2825 0494 14       		.byte	0x14
 2826 0495 0E       		.uleb128 0xe
 2827 0496 C60A0000 		.4byte	.LASF100
 2828 049a 0C       		.byte	0xc
 2829 049b 5C       		.byte	0x5c
 2830 049c E2000000 		.4byte	0xe2
 2831 04a0 16       		.byte	0x16
 2832 04a1 0E       		.uleb128 0xe
 2833 04a2 6D070000 		.4byte	.LASF101
 2834 04a6 0C       		.byte	0xc
 2835 04a7 5D       		.byte	0x5d
 2836 04a8 E2000000 		.4byte	0xe2
 2837 04ac 18       		.byte	0x18
 2838 04ad 0E       		.uleb128 0xe
 2839 04ae D20B0000 		.4byte	.LASF102
 2840 04b2 0C       		.byte	0xc
 2841 04b3 5E       		.byte	0x5e
 2842 04b4 E2000000 		.4byte	0xe2
 2843 04b8 1A       		.byte	0x1a
 2844 04b9 00       		.byte	0
 2845 04ba 0D       		.uleb128 0xd
 2846 04bb C5010000 		.4byte	.LASF103
 2847 04bf 06       		.byte	0x6
 2848 04c0 0C       		.byte	0xc
 2849 04c1 6E       		.byte	0x6e
 2850 04c2 EB040000 		.4byte	0x4eb
 2851 04c6 0E       		.uleb128 0xe
 2852 04c7 45070000 		.4byte	.LASF82
 2853 04cb 0C       		.byte	0xc
 2854 04cc 6F       		.byte	0x6f
 2855 04cd E2000000 		.4byte	0xe2
 2856 04d1 00       		.byte	0
 2857 04d2 0F       		.uleb128 0xf
 2858 04d3 6D617800 		.ascii	"max\000"
 2859 04d7 0C       		.byte	0xc
 2860 04d8 70       		.byte	0x70
 2861 04d9 E2000000 		.4byte	0xe2
 2862 04dd 02       		.byte	0x2
 2863 04de 0F       		.uleb128 0xf
 2864 04df 65727200 		.ascii	"err\000"
 2865 04e3 0C       		.byte	0xc
 2866 04e4 71       		.byte	0x71
 2867 04e5 E2000000 		.4byte	0xe2
 2868 04e9 04       		.byte	0x4
 2869 04ea 00       		.byte	0
 2870 04eb 0D       		.uleb128 0xd
 2871 04ec 3E0A0000 		.4byte	.LASF104
ARM GAS  C:\Users\Phuong\AppData\Local\Temp\cczAUGdE.s 			page 76


 2872 04f0 12       		.byte	0x12
 2873 04f1 0C       		.byte	0xc
 2874 04f2 75       		.byte	0x75
 2875 04f3 1C050000 		.4byte	0x51c
 2876 04f7 0F       		.uleb128 0xf
 2877 04f8 73656D00 		.ascii	"sem\000"
 2878 04fc 0C       		.byte	0xc
 2879 04fd 76       		.byte	0x76
 2880 04fe BA040000 		.4byte	0x4ba
 2881 0502 00       		.byte	0
 2882 0503 0E       		.uleb128 0xe
 2883 0504 40020000 		.4byte	.LASF105
 2884 0508 0C       		.byte	0xc
 2885 0509 77       		.byte	0x77
 2886 050a BA040000 		.4byte	0x4ba
 2887 050e 06       		.byte	0x6
 2888 050f 0E       		.uleb128 0xe
 2889 0510 90050000 		.4byte	.LASF106
 2890 0514 0C       		.byte	0xc
 2891 0515 78       		.byte	0x78
 2892 0516 BA040000 		.4byte	0x4ba
 2893 051a 0C       		.byte	0xc
 2894 051b 00       		.byte	0
 2895 051c 10       		.uleb128 0x10
 2896 051d BC040000 		.4byte	.LASF107
 2897 0521 1801     		.2byte	0x118
 2898 0523 0C       		.byte	0xc
 2899 0524 E8       		.byte	0xe8
 2900 0525 A6050000 		.4byte	0x5a6
 2901 0529 0E       		.uleb128 0xe
 2902 052a B10A0000 		.4byte	.LASF108
 2903 052e 0C       		.byte	0xc
 2904 052f EB       		.byte	0xeb
 2905 0530 69030000 		.4byte	0x369
 2906 0534 00       		.byte	0
 2907 0535 0E       		.uleb128 0xe
 2908 0536 65030000 		.4byte	.LASF109
 2909 053a 0C       		.byte	0xc
 2910 053b EF       		.byte	0xef
 2911 053c 69030000 		.4byte	0x369
 2912 0540 18       		.byte	0x18
 2913 0541 0E       		.uleb128 0xe
 2914 0542 E5020000 		.4byte	.LASF110
 2915 0546 0C       		.byte	0xc
 2916 0547 F3       		.byte	0xf3
 2917 0548 69030000 		.4byte	0x369
 2918 054c 30       		.byte	0x30
 2919 054d 0F       		.uleb128 0xf
 2920 054e 697000   		.ascii	"ip\000"
 2921 0551 0C       		.byte	0xc
 2922 0552 F7       		.byte	0xf7
 2923 0553 69030000 		.4byte	0x369
 2924 0557 48       		.byte	0x48
 2925 0558 0E       		.uleb128 0xe
 2926 0559 4E080000 		.4byte	.LASF111
 2927 055d 0C       		.byte	0xc
 2928 055e FB       		.byte	0xfb
ARM GAS  C:\Users\Phuong\AppData\Local\Temp\cczAUGdE.s 			page 77


 2929 055f 69030000 		.4byte	0x369
 2930 0563 60       		.byte	0x60
 2931 0564 0E       		.uleb128 0xe
 2932 0565 89030000 		.4byte	.LASF112
 2933 0569 0C       		.byte	0xc
 2934 056a FF       		.byte	0xff
 2935 056b 05040000 		.4byte	0x405
 2936 056f 78       		.byte	0x78
 2937 0570 11       		.uleb128 0x11
 2938 0571 75647000 		.ascii	"udp\000"
 2939 0575 0C       		.byte	0xc
 2940 0576 0301     		.2byte	0x103
 2941 0578 69030000 		.4byte	0x369
 2942 057c 94       		.byte	0x94
 2943 057d 11       		.uleb128 0x11
 2944 057e 74637000 		.ascii	"tcp\000"
 2945 0582 0C       		.byte	0xc
 2946 0583 0701     		.2byte	0x107
 2947 0585 69030000 		.4byte	0x369
 2948 0589 AC       		.byte	0xac
 2949 058a 12       		.uleb128 0x12
 2950 058b 8F090000 		.4byte	.LASF113
 2951 058f 0C       		.byte	0xc
 2952 0590 0F01     		.2byte	0x10f
 2953 0592 A6050000 		.4byte	0x5a6
 2954 0596 C4       		.byte	0xc4
 2955 0597 13       		.uleb128 0x13
 2956 0598 73797300 		.ascii	"sys\000"
 2957 059c 0C       		.byte	0xc
 2958 059d 1301     		.2byte	0x113
 2959 059f EB040000 		.4byte	0x4eb
 2960 05a3 0401     		.2byte	0x104
 2961 05a5 00       		.byte	0
 2962 05a6 08       		.uleb128 0x8
 2963 05a7 63030000 		.4byte	0x363
 2964 05ab B6050000 		.4byte	0x5b6
 2965 05af 09       		.uleb128 0x9
 2966 05b0 8A000000 		.4byte	0x8a
 2967 05b4 0F       		.byte	0xf
 2968 05b5 00       		.byte	0
 2969 05b6 14       		.uleb128 0x14
 2970 05b7 4D0A0000 		.4byte	.LASF117
 2971 05bb 01       		.byte	0x1
 2972 05bc 2C000000 		.4byte	0x2c
 2973 05c0 0D       		.byte	0xd
 2974 05c1 6B       		.byte	0x6b
 2975 05c2 D9050000 		.4byte	0x5d9
 2976 05c6 0B       		.uleb128 0xb
 2977 05c7 4C0B0000 		.4byte	.LASF114
 2978 05cb 00       		.byte	0
 2979 05cc 0B       		.uleb128 0xb
 2980 05cd 8A000000 		.4byte	.LASF115
 2981 05d1 01       		.byte	0x1
 2982 05d2 0B       		.uleb128 0xb
 2983 05d3 DE0A0000 		.4byte	.LASF116
 2984 05d7 02       		.byte	0x2
 2985 05d8 00       		.byte	0
ARM GAS  C:\Users\Phuong\AppData\Local\Temp\cczAUGdE.s 			page 78


 2986 05d9 14       		.uleb128 0x14
 2987 05da D6090000 		.4byte	.LASF118
 2988 05de 01       		.byte	0x1
 2989 05df 2C000000 		.4byte	0x2c
 2990 05e3 0D       		.byte	0xd
 2991 05e4 8F       		.byte	0x8f
 2992 05e5 F6050000 		.4byte	0x5f6
 2993 05e9 0B       		.uleb128 0xb
 2994 05ea BA070000 		.4byte	.LASF119
 2995 05ee 00       		.byte	0
 2996 05ef 0B       		.uleb128 0xb
 2997 05f0 60060000 		.4byte	.LASF120
 2998 05f4 01       		.byte	0x1
 2999 05f5 00       		.byte	0
 3000 05f6 06       		.uleb128 0x6
 3001 05f7 04       		.byte	0x4
 3002 05f8 FC050000 		.4byte	0x5fc
 3003 05fc 0D       		.uleb128 0xd
 3004 05fd 54000000 		.4byte	.LASF121
 3005 0601 48       		.byte	0x48
 3006 0602 0D       		.byte	0xd
 3007 0603 E1       		.byte	0xe1
 3008 0604 F8060000 		.4byte	0x6f8
 3009 0608 0E       		.uleb128 0xe
 3010 0609 F6000000 		.4byte	.LASF49
 3011 060d 0D       		.byte	0xd
 3012 060e E3       		.byte	0xe3
 3013 060f F6050000 		.4byte	0x5f6
 3014 0613 00       		.byte	0
 3015 0614 0E       		.uleb128 0xe
 3016 0615 290C0000 		.4byte	.LASF122
 3017 0619 0D       		.byte	0xd
 3018 061a E7       		.byte	0xe7
 3019 061b 85020000 		.4byte	0x285
 3020 061f 04       		.byte	0x4
 3021 0620 0E       		.uleb128 0xe
 3022 0621 C8060000 		.4byte	.LASF123
 3023 0625 0D       		.byte	0xd
 3024 0626 E8       		.byte	0xe8
 3025 0627 85020000 		.4byte	0x285
 3026 062b 08       		.byte	0x8
 3027 062c 0F       		.uleb128 0xf
 3028 062d 677700   		.ascii	"gw\000"
 3029 0630 0D       		.byte	0xd
 3030 0631 E9       		.byte	0xe9
 3031 0632 85020000 		.4byte	0x285
 3032 0636 0C       		.byte	0xc
 3033 0637 0E       		.uleb128 0xe
 3034 0638 5F000000 		.4byte	.LASF124
 3035 063c 0D       		.byte	0xd
 3036 063d F4       		.byte	0xf4
 3037 063e F8060000 		.4byte	0x6f8
 3038 0642 10       		.byte	0x10
 3039 0643 0E       		.uleb128 0xe
 3040 0644 15050000 		.4byte	.LASF125
 3041 0648 0D       		.byte	0xd
 3042 0649 FA       		.byte	0xfa
ARM GAS  C:\Users\Phuong\AppData\Local\Temp\cczAUGdE.s 			page 79


 3043 064a 1D070000 		.4byte	0x71d
 3044 064e 14       		.byte	0x14
 3045 064f 0E       		.uleb128 0xe
 3046 0650 15010000 		.4byte	.LASF126
 3047 0654 0D       		.byte	0xd
 3048 0655 FF       		.byte	0xff
 3049 0656 52070000 		.4byte	0x752
 3050 065a 18       		.byte	0x18
 3051 065b 12       		.uleb128 0x12
 3052 065c E5060000 		.4byte	.LASF127
 3053 0660 0D       		.byte	0xd
 3054 0661 0A01     		.2byte	0x10a
 3055 0663 77070000 		.4byte	0x777
 3056 0667 1C       		.byte	0x1c
 3057 0668 12       		.uleb128 0x12
 3058 0669 D80A0000 		.4byte	.LASF128
 3059 066d 0D       		.byte	0xd
 3060 066e 1701     		.2byte	0x117
 3061 0670 88000000 		.4byte	0x88
 3062 0674 20       		.byte	0x20
 3063 0675 12       		.uleb128 0x12
 3064 0676 CC050000 		.4byte	.LASF129
 3065 067a 0D       		.byte	0xd
 3066 067b 1901     		.2byte	0x119
 3067 067d BC000000 		.4byte	0xbc
 3068 0681 24       		.byte	0x24
 3069 0682 12       		.uleb128 0x12
 3070 0683 59090000 		.4byte	.LASF130
 3071 0687 0D       		.byte	0xd
 3072 0688 2101     		.2byte	0x121
 3073 068a CC000000 		.4byte	0xcc
 3074 068e 2C       		.byte	0x2c
 3075 068f 12       		.uleb128 0x12
 3076 0690 79080000 		.4byte	.LASF131
 3077 0694 0D       		.byte	0xd
 3078 0695 2501     		.2byte	0x125
 3079 0697 98000000 		.4byte	0x98
 3080 069b 30       		.byte	0x30
 3081 069c 11       		.uleb128 0x11
 3082 069d 6D747500 		.ascii	"mtu\000"
 3083 06a1 0D       		.byte	0xd
 3084 06a2 2B01     		.2byte	0x12b
 3085 06a4 E2000000 		.4byte	0xe2
 3086 06a8 34       		.byte	0x34
 3087 06a9 12       		.uleb128 0x12
 3088 06aa B2030000 		.4byte	.LASF132
 3089 06ae 0D       		.byte	0xd
 3090 06af 2D01     		.2byte	0x12d
 3091 06b1 CC000000 		.4byte	0xcc
 3092 06b5 36       		.byte	0x36
 3093 06b6 12       		.uleb128 0x12
 3094 06b7 5E030000 		.4byte	.LASF133
 3095 06bb 0D       		.byte	0xd
 3096 06bc 2F01     		.2byte	0x12f
 3097 06be BD070000 		.4byte	0x7bd
 3098 06c2 37       		.byte	0x37
 3099 06c3 12       		.uleb128 0x12
ARM GAS  C:\Users\Phuong\AppData\Local\Temp\cczAUGdE.s 			page 80


 3100 06c4 B5000000 		.4byte	.LASF53
 3101 06c8 0D       		.byte	0xd
 3102 06c9 3101     		.2byte	0x131
 3103 06cb CC000000 		.4byte	0xcc
 3104 06cf 3D       		.byte	0x3d
 3105 06d0 12       		.uleb128 0x12
 3106 06d1 ED080000 		.4byte	.LASF80
 3107 06d5 0D       		.byte	0xd
 3108 06d6 3301     		.2byte	0x133
 3109 06d8 CD070000 		.4byte	0x7cd
 3110 06dc 3E       		.byte	0x3e
 3111 06dd 11       		.uleb128 0x11
 3112 06de 6E756D00 		.ascii	"num\000"
 3113 06e2 0D       		.byte	0xd
 3114 06e3 3501     		.2byte	0x135
 3115 06e5 CC000000 		.4byte	0xcc
 3116 06e9 40       		.byte	0x40
 3117 06ea 12       		.uleb128 0x12
 3118 06eb 2A060000 		.4byte	.LASF134
 3119 06ef 0D       		.byte	0xd
 3120 06f0 4301     		.2byte	0x143
 3121 06f2 93070000 		.4byte	0x793
 3122 06f6 44       		.byte	0x44
 3123 06f7 00       		.byte	0
 3124 06f8 03       		.uleb128 0x3
 3125 06f9 D3010000 		.4byte	.LASF135
 3126 06fd 0D       		.byte	0xd
 3127 06fe A2       		.byte	0xa2
 3128 06ff 03070000 		.4byte	0x703
 3129 0703 06       		.uleb128 0x6
 3130 0704 04       		.byte	0x4
 3131 0705 09070000 		.4byte	0x709
 3132 0709 15       		.uleb128 0x15
 3133 070a 03010000 		.4byte	0x103
 3134 070e 1D070000 		.4byte	0x71d
 3135 0712 16       		.uleb128 0x16
 3136 0713 32020000 		.4byte	0x232
 3137 0717 16       		.uleb128 0x16
 3138 0718 F6050000 		.4byte	0x5f6
 3139 071c 00       		.byte	0
 3140 071d 03       		.uleb128 0x3
 3141 071e 5A010000 		.4byte	.LASF136
 3142 0722 0D       		.byte	0xd
 3143 0723 AD       		.byte	0xad
 3144 0724 28070000 		.4byte	0x728
 3145 0728 06       		.uleb128 0x6
 3146 0729 04       		.byte	0x4
 3147 072a 2E070000 		.4byte	0x72e
 3148 072e 15       		.uleb128 0x15
 3149 072f 03010000 		.4byte	0x103
 3150 0733 47070000 		.4byte	0x747
 3151 0737 16       		.uleb128 0x16
 3152 0738 F6050000 		.4byte	0x5f6
 3153 073c 16       		.uleb128 0x16
 3154 073d 32020000 		.4byte	0x232
 3155 0741 16       		.uleb128 0x16
 3156 0742 47070000 		.4byte	0x747
ARM GAS  C:\Users\Phuong\AppData\Local\Temp\cczAUGdE.s 			page 81


 3157 0746 00       		.byte	0
 3158 0747 06       		.uleb128 0x6
 3159 0748 04       		.byte	0x4
 3160 0749 4D070000 		.4byte	0x74d
 3161 074d 07       		.uleb128 0x7
 3162 074e 51020000 		.4byte	0x251
 3163 0752 03       		.uleb128 0x3
 3164 0753 45090000 		.4byte	.LASF137
 3165 0757 0D       		.byte	0xd
 3166 0758 C4       		.byte	0xc4
 3167 0759 5D070000 		.4byte	0x75d
 3168 075d 06       		.uleb128 0x6
 3169 075e 04       		.byte	0x4
 3170 075f 63070000 		.4byte	0x763
 3171 0763 15       		.uleb128 0x15
 3172 0764 03010000 		.4byte	0x103
 3173 0768 77070000 		.4byte	0x777
 3174 076c 16       		.uleb128 0x16
 3175 076d F6050000 		.4byte	0x5f6
 3176 0771 16       		.uleb128 0x16
 3177 0772 32020000 		.4byte	0x232
 3178 0776 00       		.byte	0
 3179 0777 03       		.uleb128 0x3
 3180 0778 980A0000 		.4byte	.LASF138
 3181 077c 0D       		.byte	0xd
 3182 077d C6       		.byte	0xc6
 3183 077e 82070000 		.4byte	0x782
 3184 0782 06       		.uleb128 0x6
 3185 0783 04       		.byte	0x4
 3186 0784 88070000 		.4byte	0x788
 3187 0788 17       		.uleb128 0x17
 3188 0789 93070000 		.4byte	0x793
 3189 078d 16       		.uleb128 0x16
 3190 078e F6050000 		.4byte	0x5f6
 3191 0792 00       		.byte	0
 3192 0793 03       		.uleb128 0x3
 3193 0794 11060000 		.4byte	.LASF139
 3194 0798 0D       		.byte	0xd
 3195 0799 C9       		.byte	0xc9
 3196 079a 9E070000 		.4byte	0x79e
 3197 079e 06       		.uleb128 0x6
 3198 079f 04       		.byte	0x4
 3199 07a0 A4070000 		.4byte	0x7a4
 3200 07a4 15       		.uleb128 0x15
 3201 07a5 03010000 		.4byte	0x103
 3202 07a9 BD070000 		.4byte	0x7bd
 3203 07ad 16       		.uleb128 0x16
 3204 07ae F6050000 		.4byte	0x5f6
 3205 07b2 16       		.uleb128 0x16
 3206 07b3 47070000 		.4byte	0x747
 3207 07b7 16       		.uleb128 0x16
 3208 07b8 D9050000 		.4byte	0x5d9
 3209 07bc 00       		.byte	0
 3210 07bd 08       		.uleb128 0x8
 3211 07be CC000000 		.4byte	0xcc
 3212 07c2 CD070000 		.4byte	0x7cd
 3213 07c6 09       		.uleb128 0x9
ARM GAS  C:\Users\Phuong\AppData\Local\Temp\cczAUGdE.s 			page 82


 3214 07c7 8A000000 		.4byte	0x8a
 3215 07cb 05       		.byte	0x5
 3216 07cc 00       		.byte	0
 3217 07cd 08       		.uleb128 0x8
 3218 07ce 91000000 		.4byte	0x91
 3219 07d2 DD070000 		.4byte	0x7dd
 3220 07d6 09       		.uleb128 0x9
 3221 07d7 8A000000 		.4byte	0x8a
 3222 07db 01       		.byte	0x1
 3223 07dc 00       		.byte	0
 3224 07dd 0D       		.uleb128 0xd
 3225 07de 10000000 		.4byte	.LASF140
 3226 07e2 06       		.byte	0x6
 3227 07e3 0E       		.byte	0xe
 3228 07e4 3A       		.byte	0x3a
 3229 07e5 F6070000 		.4byte	0x7f6
 3230 07e9 0E       		.uleb128 0xe
 3231 07ea C10A0000 		.4byte	.LASF56
 3232 07ee 0E       		.byte	0xe
 3233 07ef 3B       		.byte	0x3b
 3234 07f0 BD070000 		.4byte	0x7bd
 3235 07f4 00       		.byte	0
 3236 07f5 00       		.byte	0
 3237 07f6 14       		.uleb128 0x14
 3238 07f7 ED000000 		.4byte	.LASF141
 3239 07fb 02       		.byte	0x2
 3240 07fc 3A000000 		.4byte	0x3a
 3241 0800 0E       		.byte	0xe
 3242 0801 6C       		.byte	0x6c
 3243 0802 77080000 		.4byte	0x877
 3244 0806 18       		.uleb128 0x18
 3245 0807 B60A0000 		.4byte	.LASF142
 3246 080b 0008     		.2byte	0x800
 3247 080d 18       		.uleb128 0x18
 3248 080e 34000000 		.4byte	.LASF143
 3249 0812 0608     		.2byte	0x806
 3250 0814 18       		.uleb128 0x18
 3251 0815 85070000 		.4byte	.LASF144
 3252 0819 4208     		.2byte	0x842
 3253 081b 18       		.uleb128 0x18
 3254 081c 1A030000 		.4byte	.LASF145
 3255 0820 3580     		.2byte	0x8035
 3256 0822 18       		.uleb128 0x18
 3257 0823 B7090000 		.4byte	.LASF146
 3258 0827 0081     		.2byte	0x8100
 3259 0829 18       		.uleb128 0x18
 3260 082a FC020000 		.4byte	.LASF147
 3261 082e DD86     		.2byte	0x86dd
 3262 0830 18       		.uleb128 0x18
 3263 0831 08070000 		.4byte	.LASF148
 3264 0835 6388     		.2byte	0x8863
 3265 0837 18       		.uleb128 0x18
 3266 0838 28050000 		.4byte	.LASF149
 3267 083c 6488     		.2byte	0x8864
 3268 083e 18       		.uleb128 0x18
 3269 083f E1030000 		.4byte	.LASF150
 3270 0843 7088     		.2byte	0x8870
ARM GAS  C:\Users\Phuong\AppData\Local\Temp\cczAUGdE.s 			page 83


 3271 0845 18       		.uleb128 0x18
 3272 0846 88060000 		.4byte	.LASF151
 3273 084a 9288     		.2byte	0x8892
 3274 084c 18       		.uleb128 0x18
 3275 084d 09030000 		.4byte	.LASF152
 3276 0851 A488     		.2byte	0x88a4
 3277 0853 18       		.uleb128 0x18
 3278 0854 46020000 		.4byte	.LASF153
 3279 0858 CC88     		.2byte	0x88cc
 3280 085a 18       		.uleb128 0x18
 3281 085b 80090000 		.4byte	.LASF154
 3282 085f CD88     		.2byte	0x88cd
 3283 0861 18       		.uleb128 0x18
 3284 0862 2D0A0000 		.4byte	.LASF155
 3285 0866 E388     		.2byte	0x88e3
 3286 0868 18       		.uleb128 0x18
 3287 0869 6A010000 		.4byte	.LASF156
 3288 086d F788     		.2byte	0x88f7
 3289 086f 18       		.uleb128 0x18
 3290 0870 4A070000 		.4byte	.LASF157
 3291 0874 0091     		.2byte	0x9100
 3292 0876 00       		.byte	0
 3293 0877 0D       		.uleb128 0xd
 3294 0878 29000000 		.4byte	.LASF158
 3295 087c 1C       		.byte	0x1c
 3296 087d 0F       		.byte	0xf
 3297 087e 39       		.byte	0x39
 3298 087f F0080000 		.4byte	0x8f0
 3299 0883 0E       		.uleb128 0xe
 3300 0884 C5050000 		.4byte	.LASF159
 3301 0888 0F       		.byte	0xf
 3302 0889 3A       		.byte	0x3a
 3303 088a E2000000 		.4byte	0xe2
 3304 088e 00       		.byte	0
 3305 088f 0E       		.uleb128 0xe
 3306 0890 46060000 		.4byte	.LASF160
 3307 0894 0F       		.byte	0xf
 3308 0895 3B       		.byte	0x3b
 3309 0896 E2000000 		.4byte	0xe2
 3310 089a 02       		.byte	0x2
 3311 089b 0E       		.uleb128 0xe
 3312 089c A80B0000 		.4byte	.LASF161
 3313 08a0 0F       		.byte	0xf
 3314 08a1 3C       		.byte	0x3c
 3315 08a2 CC000000 		.4byte	0xcc
 3316 08a6 04       		.byte	0x4
 3317 08a7 0E       		.uleb128 0xe
 3318 08a8 78000000 		.4byte	.LASF162
 3319 08ac 0F       		.byte	0xf
 3320 08ad 3D       		.byte	0x3d
 3321 08ae CC000000 		.4byte	0xcc
 3322 08b2 05       		.byte	0x5
 3323 08b3 0E       		.uleb128 0xe
 3324 08b4 4C060000 		.4byte	.LASF163
 3325 08b8 0F       		.byte	0xf
 3326 08b9 3E       		.byte	0x3e
 3327 08ba E2000000 		.4byte	0xe2
ARM GAS  C:\Users\Phuong\AppData\Local\Temp\cczAUGdE.s 			page 84


 3328 08be 06       		.byte	0x6
 3329 08bf 0E       		.uleb128 0xe
 3330 08c0 58050000 		.4byte	.LASF164
 3331 08c4 0F       		.byte	0xf
 3332 08c5 3F       		.byte	0x3f
 3333 08c6 DD070000 		.4byte	0x7dd
 3334 08ca 08       		.byte	0x8
 3335 08cb 0E       		.uleb128 0xe
 3336 08cc 21000000 		.4byte	.LASF165
 3337 08d0 0F       		.byte	0xf
 3338 08d1 40       		.byte	0x40
 3339 08d2 5C020000 		.4byte	0x25c
 3340 08d6 0E       		.byte	0xe
 3341 08d7 0E       		.uleb128 0xe
 3342 08d8 19000000 		.4byte	.LASF166
 3343 08dc 0F       		.byte	0xf
 3344 08dd 41       		.byte	0x41
 3345 08de DD070000 		.4byte	0x7dd
 3346 08e2 12       		.byte	0x12
 3347 08e3 0E       		.uleb128 0xe
 3348 08e4 0D010000 		.4byte	.LASF167
 3349 08e8 0F       		.byte	0xf
 3350 08e9 42       		.byte	0x42
 3351 08ea 5C020000 		.4byte	0x25c
 3352 08ee 18       		.byte	0x18
 3353 08ef 00       		.byte	0
 3354 08f0 14       		.uleb128 0x14
 3355 08f1 9C010000 		.4byte	.LASF168
 3356 08f5 01       		.byte	0x1
 3357 08f6 2C000000 		.4byte	0x2c
 3358 08fa 0F       		.byte	0xf
 3359 08fb 4C       		.byte	0x4c
 3360 08fc 07090000 		.4byte	0x907
 3361 0900 0B       		.uleb128 0xb
 3362 0901 0F0C0000 		.4byte	.LASF169
 3363 0905 01       		.byte	0x1
 3364 0906 00       		.byte	0
 3365 0907 14       		.uleb128 0x14
 3366 0908 C3040000 		.4byte	.LASF170
 3367 090c 01       		.byte	0x1
 3368 090d 2C000000 		.4byte	0x2c
 3369 0911 0F       		.byte	0xf
 3370 0912 52       		.byte	0x52
 3371 0913 24090000 		.4byte	0x924
 3372 0917 0B       		.uleb128 0xb
 3373 0918 C9080000 		.4byte	.LASF171
 3374 091c 01       		.byte	0x1
 3375 091d 0B       		.uleb128 0xb
 3376 091e DB070000 		.4byte	.LASF172
 3377 0922 02       		.byte	0x2
 3378 0923 00       		.byte	0
 3379 0924 0D       		.uleb128 0xd
 3380 0925 76070000 		.4byte	.LASF173
 3381 0929 08       		.byte	0x8
 3382 092a 10       		.byte	0x10
 3383 092b 46       		.byte	0x46
 3384 092c 47090000 		.4byte	0x947
ARM GAS  C:\Users\Phuong\AppData\Local\Temp\cczAUGdE.s 			page 85


 3385 0930 0E       		.uleb128 0xe
 3386 0931 F6000000 		.4byte	.LASF49
 3387 0935 10       		.byte	0x10
 3388 0936 47       		.byte	0x47
 3389 0937 47090000 		.4byte	0x947
 3390 093b 00       		.byte	0
 3391 093c 0F       		.uleb128 0xf
 3392 093d 7000     		.ascii	"p\000"
 3393 093f 10       		.byte	0x10
 3394 0940 48       		.byte	0x48
 3395 0941 32020000 		.4byte	0x232
 3396 0945 04       		.byte	0x4
 3397 0946 00       		.byte	0
 3398 0947 06       		.uleb128 0x6
 3399 0948 04       		.byte	0x4
 3400 0949 24090000 		.4byte	0x924
 3401 094d 14       		.uleb128 0x14
 3402 094e 95050000 		.4byte	.LASF174
 3403 0952 01       		.byte	0x1
 3404 0953 2C000000 		.4byte	0x2c
 3405 0957 01       		.byte	0x1
 3406 0958 50       		.byte	0x50
 3407 0959 7C090000 		.4byte	0x97c
 3408 095d 0B       		.uleb128 0xb
 3409 095e 94030000 		.4byte	.LASF175
 3410 0962 00       		.byte	0
 3411 0963 0B       		.uleb128 0xb
 3412 0964 6B090000 		.4byte	.LASF176
 3413 0968 01       		.byte	0x1
 3414 0969 0B       		.uleb128 0xb
 3415 096a A6070000 		.4byte	.LASF177
 3416 096e 02       		.byte	0x2
 3417 096f 0B       		.uleb128 0xb
 3418 0970 F2080000 		.4byte	.LASF178
 3419 0974 03       		.byte	0x3
 3420 0975 0B       		.uleb128 0xb
 3421 0976 15090000 		.4byte	.LASF179
 3422 097a 04       		.byte	0x4
 3423 097b 00       		.byte	0
 3424 097c 0D       		.uleb128 0xd
 3425 097d 4A030000 		.4byte	.LASF180
 3426 0981 18       		.byte	0x18
 3427 0982 01       		.byte	0x1
 3428 0983 5B       		.byte	0x5b
 3429 0984 CF090000 		.4byte	0x9cf
 3430 0988 0F       		.uleb128 0xf
 3431 0989 7100     		.ascii	"q\000"
 3432 098b 01       		.byte	0x1
 3433 098c 5E       		.byte	0x5e
 3434 098d 47090000 		.4byte	0x947
 3435 0991 00       		.byte	0
 3436 0992 0E       		.uleb128 0xe
 3437 0993 E2040000 		.4byte	.LASF181
 3438 0997 01       		.byte	0x1
 3439 0998 63       		.byte	0x63
 3440 0999 51020000 		.4byte	0x251
 3441 099d 04       		.byte	0x4
ARM GAS  C:\Users\Phuong\AppData\Local\Temp\cczAUGdE.s 			page 86


 3442 099e 0E       		.uleb128 0xe
 3443 099f 54000000 		.4byte	.LASF121
 3444 09a3 01       		.byte	0x1
 3445 09a4 64       		.byte	0x64
 3446 09a5 F6050000 		.4byte	0x5f6
 3447 09a9 08       		.byte	0x8
 3448 09aa 0E       		.uleb128 0xe
 3449 09ab 8F080000 		.4byte	.LASF182
 3450 09af 01       		.byte	0x1
 3451 09b0 65       		.byte	0x65
 3452 09b1 DD070000 		.4byte	0x7dd
 3453 09b5 0C       		.byte	0xc
 3454 09b6 0E       		.uleb128 0xe
 3455 09b7 8E030000 		.4byte	.LASF183
 3456 09bb 01       		.byte	0x1
 3457 09bc 66       		.byte	0x66
 3458 09bd E2000000 		.4byte	0xe2
 3459 09c1 12       		.byte	0x12
 3460 09c2 0E       		.uleb128 0xe
 3461 09c3 D80A0000 		.4byte	.LASF128
 3462 09c7 01       		.byte	0x1
 3463 09c8 67       		.byte	0x67
 3464 09c9 CC000000 		.4byte	0xcc
 3465 09cd 14       		.byte	0x14
 3466 09ce 00       		.byte	0
 3467 09cf 19       		.uleb128 0x19
 3468 09d0 AE060000 		.4byte	.LASF184
 3469 09d4 01       		.byte	0x1
 3470 09d5 94       		.byte	0x94
 3471 09d6 00000000 		.4byte	.LFB53
 3472 09da 1E000000 		.4byte	.LFE53-.LFB53
 3473 09de 01       		.uleb128 0x1
 3474 09df 9C       		.byte	0x9c
 3475 09e0 1D0A0000 		.4byte	0xa1d
 3476 09e4 1A       		.uleb128 0x1a
 3477 09e5 7100     		.ascii	"q\000"
 3478 09e7 01       		.byte	0x1
 3479 09e8 94       		.byte	0x94
 3480 09e9 47090000 		.4byte	0x947
 3481 09ed 00000000 		.4byte	.LLST0
 3482 09f1 1B       		.uleb128 0x1b
 3483 09f2 7200     		.ascii	"r\000"
 3484 09f4 01       		.byte	0x1
 3485 09f5 96       		.byte	0x96
 3486 09f6 47090000 		.4byte	0x947
 3487 09fa 34000000 		.4byte	.LLST1
 3488 09fe 1C       		.uleb128 0x1c
 3489 09ff 0E000000 		.4byte	.LVL3
 3490 0a03 B3160000 		.4byte	0x16b3
 3491 0a07 1D       		.uleb128 0x1d
 3492 0a08 16000000 		.4byte	.LVL4
 3493 0a0c BE160000 		.4byte	0x16be
 3494 0a10 1E       		.uleb128 0x1e
 3495 0a11 01       		.uleb128 0x1
 3496 0a12 50       		.byte	0x50
 3497 0a13 01       		.uleb128 0x1
 3498 0a14 3A       		.byte	0x3a
ARM GAS  C:\Users\Phuong\AppData\Local\Temp\cczAUGdE.s 			page 87


 3499 0a15 1E       		.uleb128 0x1e
 3500 0a16 01       		.uleb128 0x1
 3501 0a17 51       		.byte	0x51
 3502 0a18 02       		.uleb128 0x2
 3503 0a19 74       		.byte	0x74
 3504 0a1a 00       		.sleb128 0
 3505 0a1b 00       		.byte	0
 3506 0a1c 00       		.byte	0
 3507 0a1d 19       		.uleb128 0x19
 3508 0a1e BD030000 		.4byte	.LASF185
 3509 0a22 01       		.byte	0x1
 3510 0a23 AA       		.byte	0xaa
 3511 0a24 00000000 		.4byte	.LFB54
 3512 0a28 54000000 		.4byte	.LFE54-.LFB54
 3513 0a2c 01       		.uleb128 0x1
 3514 0a2d 9C       		.byte	0x9c
 3515 0a2e 660A0000 		.4byte	0xa66
 3516 0a32 1A       		.uleb128 0x1a
 3517 0a33 6900     		.ascii	"i\000"
 3518 0a35 01       		.byte	0x1
 3519 0a36 AA       		.byte	0xaa
 3520 0a37 68000000 		.4byte	0x68
 3521 0a3b 47000000 		.4byte	.LLST2
 3522 0a3f 1C       		.uleb128 0x1c
 3523 0a40 16000000 		.4byte	.LVL9
 3524 0a44 CF090000 		.4byte	0x9cf
 3525 0a48 1D       		.uleb128 0x1d
 3526 0a49 48000000 		.4byte	.LVL11
 3527 0a4d C9160000 		.4byte	0x16c9
 3528 0a51 1E       		.uleb128 0x1e
 3529 0a52 01       		.uleb128 0x1
 3530 0a53 50       		.byte	0x50
 3531 0a54 0A       		.uleb128 0xa
 3532 0a55 74       		.byte	0x74
 3533 0a56 00       		.sleb128 0
 3534 0a57 33       		.byte	0x33
 3535 0a58 24       		.byte	0x24
 3536 0a59 03       		.byte	0x3
 3537 0a5a 0C000000 		.4byte	.LANCHOR0+12
 3538 0a5e 22       		.byte	0x22
 3539 0a5f 1E       		.uleb128 0x1e
 3540 0a60 01       		.uleb128 0x1
 3541 0a61 52       		.byte	0x52
 3542 0a62 01       		.uleb128 0x1
 3543 0a63 36       		.byte	0x36
 3544 0a64 00       		.byte	0
 3545 0a65 00       		.byte	0
 3546 0a66 1F       		.uleb128 0x1f
 3547 0a67 A2050000 		.4byte	.LASF193
 3548 0a6b 01       		.byte	0x1
 3549 0a6c 0201     		.2byte	0x102
 3550 0a6e D7000000 		.4byte	0xd7
 3551 0a72 00000000 		.4byte	.LFB56
 3552 0a76 54010000 		.4byte	.LFE56-.LFB56
 3553 0a7a 01       		.uleb128 0x1
 3554 0a7b 9C       		.byte	0x9c
 3555 0a7c 5D0B0000 		.4byte	0xb5d
ARM GAS  C:\Users\Phuong\AppData\Local\Temp\cczAUGdE.s 			page 88


 3556 0a80 20       		.uleb128 0x20
 3557 0a81 E2040000 		.4byte	.LASF181
 3558 0a85 01       		.byte	0x1
 3559 0a86 0201     		.2byte	0x102
 3560 0a88 47070000 		.4byte	0x747
 3561 0a8c 73000000 		.4byte	.LLST3
 3562 0a90 20       		.uleb128 0x20
 3563 0a91 B5000000 		.4byte	.LASF53
 3564 0a95 01       		.byte	0x1
 3565 0a96 0201     		.2byte	0x102
 3566 0a98 CC000000 		.4byte	0xcc
 3567 0a9c 9F000000 		.4byte	.LLST4
 3568 0aa0 20       		.uleb128 0x20
 3569 0aa1 54000000 		.4byte	.LASF121
 3570 0aa5 01       		.byte	0x1
 3571 0aa6 0201     		.2byte	0x102
 3572 0aa8 F6050000 		.4byte	0x5f6
 3573 0aac C0000000 		.4byte	.LLST5
 3574 0ab0 21       		.uleb128 0x21
 3575 0ab1 1C050000 		.4byte	.LASF186
 3576 0ab5 01       		.byte	0x1
 3577 0ab6 0401     		.2byte	0x104
 3578 0ab8 D7000000 		.4byte	0xd7
 3579 0abc E1000000 		.4byte	.LLST6
 3580 0ac0 21       		.uleb128 0x21
 3581 0ac1 00000000 		.4byte	.LASF187
 3582 0ac5 01       		.byte	0x1
 3583 0ac6 0401     		.2byte	0x104
 3584 0ac8 D7000000 		.4byte	0xd7
 3585 0acc 00010000 		.4byte	.LLST7
 3586 0ad0 21       		.uleb128 0x21
 3587 0ad1 000A0000 		.4byte	.LASF188
 3588 0ad5 01       		.byte	0x1
 3589 0ad6 0501     		.2byte	0x105
 3590 0ad8 D7000000 		.4byte	0xd7
 3591 0adc 2A010000 		.4byte	.LLST8
 3592 0ae0 22       		.uleb128 0x22
 3593 0ae1 6900     		.ascii	"i\000"
 3594 0ae3 01       		.byte	0x1
 3595 0ae4 0601     		.2byte	0x106
 3596 0ae6 CC000000 		.4byte	0xcc
 3597 0aea 6A010000 		.4byte	.LLST9
 3598 0aee 21       		.uleb128 0x21
 3599 0aef 4E050000 		.4byte	.LASF189
 3600 0af3 01       		.byte	0x1
 3601 0af4 0801     		.2byte	0x108
 3602 0af6 D7000000 		.4byte	0xd7
 3603 0afa 02020000 		.4byte	.LLST10
 3604 0afe 21       		.uleb128 0x21
 3605 0aff 6E000000 		.4byte	.LASF190
 3606 0b03 01       		.byte	0x1
 3607 0b04 0A01     		.2byte	0x10a
 3608 0b06 E2000000 		.4byte	0xe2
 3609 0b0a 21020000 		.4byte	.LLST11
 3610 0b0e 21       		.uleb128 0x21
 3611 0b0f 1C0B0000 		.4byte	.LASF191
 3612 0b13 01       		.byte	0x1
ARM GAS  C:\Users\Phuong\AppData\Local\Temp\cczAUGdE.s 			page 89


 3613 0b14 0A01     		.2byte	0x10a
 3614 0b16 E2000000 		.4byte	0xe2
 3615 0b1a 56020000 		.4byte	.LLST12
 3616 0b1e 21       		.uleb128 0x21
 3617 0b1f FE070000 		.4byte	.LASF192
 3618 0b23 01       		.byte	0x1
 3619 0b24 0A01     		.2byte	0x10a
 3620 0b26 E2000000 		.4byte	0xe2
 3621 0b2a 8B020000 		.4byte	.LLST13
 3622 0b2e 23       		.uleb128 0x23
 3623 0b2f 28000000 		.4byte	.LBB2
 3624 0b33 90000000 		.4byte	.LBE2-.LBB2
 3625 0b37 4C0B0000 		.4byte	0xb4c
 3626 0b3b 21       		.uleb128 0x21
 3627 0b3c D80A0000 		.4byte	.LASF128
 3628 0b40 01       		.byte	0x1
 3629 0b41 1E01     		.2byte	0x11e
 3630 0b43 CC000000 		.4byte	0xcc
 3631 0b47 CB020000 		.4byte	.LLST14
 3632 0b4b 00       		.byte	0
 3633 0b4c 1D       		.uleb128 0x1d
 3634 0b4d 0C010000 		.4byte	.LVL44
 3635 0b51 1D0A0000 		.4byte	0xa1d
 3636 0b55 1E       		.uleb128 0x1e
 3637 0b56 01       		.uleb128 0x1
 3638 0b57 50       		.byte	0x50
 3639 0b58 02       		.uleb128 0x2
 3640 0b59 76       		.byte	0x76
 3641 0b5a 00       		.sleb128 0
 3642 0b5b 00       		.byte	0
 3643 0b5c 00       		.byte	0
 3644 0b5d 1F       		.uleb128 0x1f
 3645 0b5e 22020000 		.4byte	.LASF194
 3646 0b62 01       		.byte	0x1
 3647 0b63 A801     		.2byte	0x1a8
 3648 0b65 03010000 		.4byte	0x103
 3649 0b69 00000000 		.4byte	.LFB57
 3650 0b6d C0000000 		.4byte	.LFE57-.LFB57
 3651 0b71 01       		.uleb128 0x1
 3652 0b72 9C       		.byte	0x9c
 3653 0b73 9D0C0000 		.4byte	0xc9d
 3654 0b77 20       		.uleb128 0x20
 3655 0b78 54000000 		.4byte	.LASF121
 3656 0b7c 01       		.byte	0x1
 3657 0b7d A801     		.2byte	0x1a8
 3658 0b7f F6050000 		.4byte	0x5f6
 3659 0b83 F8030000 		.4byte	.LLST15
 3660 0b87 20       		.uleb128 0x20
 3661 0b88 E2040000 		.4byte	.LASF181
 3662 0b8c 01       		.byte	0x1
 3663 0b8d A801     		.2byte	0x1a8
 3664 0b8f 47070000 		.4byte	0x747
 3665 0b93 3A040000 		.4byte	.LLST16
 3666 0b97 20       		.uleb128 0x20
 3667 0b98 8F080000 		.4byte	.LASF182
 3668 0b9c 01       		.byte	0x1
 3669 0b9d A801     		.2byte	0x1a8
ARM GAS  C:\Users\Phuong\AppData\Local\Temp\cczAUGdE.s 			page 90


 3670 0b9f 9D0C0000 		.4byte	0xc9d
 3671 0ba3 8A040000 		.4byte	.LLST17
 3672 0ba7 20       		.uleb128 0x20
 3673 0ba8 B5000000 		.4byte	.LASF53
 3674 0bac 01       		.byte	0x1
 3675 0bad A801     		.2byte	0x1a8
 3676 0baf CC000000 		.4byte	0xcc
 3677 0bb3 CC040000 		.4byte	.LLST18
 3678 0bb7 22       		.uleb128 0x22
 3679 0bb8 6900     		.ascii	"i\000"
 3680 0bba 01       		.byte	0x1
 3681 0bbb AA01     		.2byte	0x1aa
 3682 0bbd D7000000 		.4byte	0xd7
 3683 0bc1 06050000 		.4byte	.LLST19
 3684 0bc5 23       		.uleb128 0x23
 3685 0bc6 62000000 		.4byte	.LBB3
 3686 0bca 2E000000 		.4byte	.LBE3-.LBB3
 3687 0bce 400C0000 		.4byte	0xc40
 3688 0bd2 22       		.uleb128 0x22
 3689 0bd3 7000     		.ascii	"p\000"
 3690 0bd5 01       		.byte	0x1
 3691 0bd6 D901     		.2byte	0x1d9
 3692 0bd8 32020000 		.4byte	0x232
 3693 0bdc 19050000 		.4byte	.LLST20
 3694 0be0 22       		.uleb128 0x22
 3695 0be1 7100     		.ascii	"q\000"
 3696 0be3 01       		.byte	0x1
 3697 0be4 DB01     		.2byte	0x1db
 3698 0be6 47090000 		.4byte	0x947
 3699 0bea 2C050000 		.4byte	.LLST21
 3700 0bee 24       		.uleb128 0x24
 3701 0bef 76000000 		.4byte	.LVL67
 3702 0bf3 BE160000 		.4byte	0x16be
 3703 0bf7 010C0000 		.4byte	0xc01
 3704 0bfb 1E       		.uleb128 0x1e
 3705 0bfc 01       		.uleb128 0x1
 3706 0bfd 50       		.byte	0x50
 3707 0bfe 01       		.uleb128 0x1
 3708 0bff 3A       		.byte	0x3a
 3709 0c00 00       		.byte	0
 3710 0c01 24       		.uleb128 0x24
 3711 0c02 8A000000 		.4byte	.LVL68
 3712 0c06 D2160000 		.4byte	0x16d2
 3713 0c0a 2F0C0000 		.4byte	0xc2f
 3714 0c0e 1E       		.uleb128 0x1e
 3715 0c0f 01       		.uleb128 0x1
 3716 0c10 50       		.byte	0x50
 3717 0c11 02       		.uleb128 0x2
 3718 0c12 74       		.byte	0x74
 3719 0c13 00       		.sleb128 0
 3720 0c14 1E       		.uleb128 0x1e
 3721 0c15 01       		.uleb128 0x1
 3722 0c16 51       		.byte	0x51
 3723 0c17 02       		.uleb128 0x2
 3724 0c18 76       		.byte	0x76
 3725 0c19 00       		.sleb128 0
 3726 0c1a 1E       		.uleb128 0x1e
ARM GAS  C:\Users\Phuong\AppData\Local\Temp\cczAUGdE.s 			page 91


 3727 0c1b 01       		.uleb128 0x1
 3728 0c1c 52       		.byte	0x52
 3729 0c1d 02       		.uleb128 0x2
 3730 0c1e 74       		.byte	0x74
 3731 0c1f 37       		.sleb128 55
 3732 0c20 1E       		.uleb128 0x1e
 3733 0c21 01       		.uleb128 0x1
 3734 0c22 53       		.byte	0x53
 3735 0c23 02       		.uleb128 0x2
 3736 0c24 75       		.byte	0x75
 3737 0c25 00       		.sleb128 0
 3738 0c26 1E       		.uleb128 0x1e
 3739 0c27 02       		.uleb128 0x2
 3740 0c28 7D       		.byte	0x7d
 3741 0c29 00       		.sleb128 0
 3742 0c2a 03       		.uleb128 0x3
 3743 0c2b 0A       		.byte	0xa
 3744 0c2c 0008     		.2byte	0x800
 3745 0c2e 00       		.byte	0
 3746 0c2f 1D       		.uleb128 0x1d
 3747 0c30 90000000 		.4byte	.LVL69
 3748 0c34 B3160000 		.4byte	0x16b3
 3749 0c38 1E       		.uleb128 0x1e
 3750 0c39 01       		.uleb128 0x1
 3751 0c3a 50       		.byte	0x50
 3752 0c3b 02       		.uleb128 0x2
 3753 0c3c 76       		.byte	0x76
 3754 0c3d 00       		.sleb128 0
 3755 0c3e 00       		.byte	0
 3756 0c3f 00       		.byte	0
 3757 0c40 24       		.uleb128 0x24
 3758 0c41 1C000000 		.4byte	.LVL60
 3759 0c45 DD160000 		.4byte	0x16dd
 3760 0c49 540C0000 		.4byte	0xc54
 3761 0c4d 1E       		.uleb128 0x1e
 3762 0c4e 01       		.uleb128 0x1
 3763 0c4f 51       		.byte	0x51
 3764 0c50 02       		.uleb128 0x2
 3765 0c51 74       		.byte	0x74
 3766 0c52 00       		.sleb128 0
 3767 0c53 00       		.byte	0
 3768 0c54 24       		.uleb128 0x24
 3769 0c55 34000000 		.4byte	.LVL61
 3770 0c59 660A0000 		.4byte	0xa66
 3771 0c5d 740C0000 		.4byte	0xc74
 3772 0c61 1E       		.uleb128 0x1e
 3773 0c62 01       		.uleb128 0x1
 3774 0c63 50       		.byte	0x50
 3775 0c64 02       		.uleb128 0x2
 3776 0c65 76       		.byte	0x76
 3777 0c66 00       		.sleb128 0
 3778 0c67 1E       		.uleb128 0x1e
 3779 0c68 01       		.uleb128 0x1
 3780 0c69 51       		.byte	0x51
 3781 0c6a 02       		.uleb128 0x2
 3782 0c6b 77       		.byte	0x77
 3783 0c6c 00       		.sleb128 0
ARM GAS  C:\Users\Phuong\AppData\Local\Temp\cczAUGdE.s 			page 92


 3784 0c6d 1E       		.uleb128 0x1e
 3785 0c6e 01       		.uleb128 0x1
 3786 0c6f 52       		.byte	0x52
 3787 0c70 02       		.uleb128 0x2
 3788 0c71 74       		.byte	0x74
 3789 0c72 00       		.sleb128 0
 3790 0c73 00       		.byte	0
 3791 0c74 1D       		.uleb128 0x1d
 3792 0c75 5C000000 		.4byte	.LVL64
 3793 0c79 C9160000 		.4byte	0x16c9
 3794 0c7d 1E       		.uleb128 0x1e
 3795 0c7e 01       		.uleb128 0x1
 3796 0c7f 50       		.byte	0x50
 3797 0c80 0F       		.uleb128 0xf
 3798 0c81 77       		.byte	0x77
 3799 0c82 00       		.sleb128 0
 3800 0c83 31       		.byte	0x31
 3801 0c84 24       		.byte	0x24
 3802 0c85 77       		.byte	0x77
 3803 0c86 00       		.sleb128 0
 3804 0c87 22       		.byte	0x22
 3805 0c88 33       		.byte	0x33
 3806 0c89 24       		.byte	0x24
 3807 0c8a 03       		.byte	0x3
 3808 0c8b 0C000000 		.4byte	.LANCHOR0+12
 3809 0c8f 22       		.byte	0x22
 3810 0c90 1E       		.uleb128 0x1e
 3811 0c91 01       		.uleb128 0x1
 3812 0c92 51       		.byte	0x51
 3813 0c93 02       		.uleb128 0x2
 3814 0c94 75       		.byte	0x75
 3815 0c95 00       		.sleb128 0
 3816 0c96 1E       		.uleb128 0x1e
 3817 0c97 01       		.uleb128 0x1
 3818 0c98 52       		.byte	0x52
 3819 0c99 01       		.uleb128 0x1
 3820 0c9a 36       		.byte	0x36
 3821 0c9b 00       		.byte	0
 3822 0c9c 00       		.byte	0
 3823 0c9d 06       		.uleb128 0x6
 3824 0c9e 04       		.byte	0x4
 3825 0c9f DD070000 		.4byte	0x7dd
 3826 0ca3 1F       		.uleb128 0x1f
 3827 0ca4 EE090000 		.4byte	.LASF195
 3828 0ca8 01       		.byte	0x1
 3829 0ca9 4E04     		.2byte	0x44e
 3830 0cab 03010000 		.4byte	0x103
 3831 0caf 00000000 		.4byte	.LFB65
 3832 0cb3 B0000000 		.4byte	.LFE65-.LFB65
 3833 0cb7 01       		.uleb128 0x1
 3834 0cb8 9C       		.byte	0x9c
 3835 0cb9 570E0000 		.4byte	0xe57
 3836 0cbd 20       		.uleb128 0x20
 3837 0cbe 54000000 		.4byte	.LASF121
 3838 0cc2 01       		.byte	0x1
 3839 0cc3 4E04     		.2byte	0x44e
 3840 0cc5 F6050000 		.4byte	0x5f6
ARM GAS  C:\Users\Phuong\AppData\Local\Temp\cczAUGdE.s 			page 93


 3841 0cc9 3F050000 		.4byte	.LLST22
 3842 0ccd 20       		.uleb128 0x20
 3843 0cce 90010000 		.4byte	.LASF196
 3844 0cd2 01       		.byte	0x1
 3845 0cd3 4E04     		.2byte	0x44e
 3846 0cd5 570E0000 		.4byte	0xe57
 3847 0cd9 5E050000 		.4byte	.LLST23
 3848 0cdd 20       		.uleb128 0x20
 3849 0cde 2C070000 		.4byte	.LASF197
 3850 0ce2 01       		.byte	0x1
 3851 0ce3 4F04     		.2byte	0x44f
 3852 0ce5 570E0000 		.4byte	0xe57
 3853 0ce9 7D050000 		.4byte	.LLST24
 3854 0ced 20       		.uleb128 0x20
 3855 0cee F5060000 		.4byte	.LASF198
 3856 0cf2 01       		.byte	0x1
 3857 0cf3 5004     		.2byte	0x450
 3858 0cf5 570E0000 		.4byte	0xe57
 3859 0cf9 9C050000 		.4byte	.LLST25
 3860 0cfd 25       		.uleb128 0x25
 3861 0cfe 97080000 		.4byte	.LASF199
 3862 0d02 01       		.byte	0x1
 3863 0d03 5004     		.2byte	0x450
 3864 0d05 47070000 		.4byte	0x747
 3865 0d09 02       		.uleb128 0x2
 3866 0d0a 91       		.byte	0x91
 3867 0d0b 00       		.sleb128 0
 3868 0d0c 25       		.uleb128 0x25
 3869 0d0d FF0A0000 		.4byte	.LASF200
 3870 0d11 01       		.byte	0x1
 3871 0d12 5104     		.2byte	0x451
 3872 0d14 570E0000 		.4byte	0xe57
 3873 0d18 02       		.uleb128 0x2
 3874 0d19 91       		.byte	0x91
 3875 0d1a 04       		.sleb128 4
 3876 0d1b 25       		.uleb128 0x25
 3877 0d1c 94090000 		.4byte	.LASF201
 3878 0d20 01       		.byte	0x1
 3879 0d21 5104     		.2byte	0x451
 3880 0d23 47070000 		.4byte	0x747
 3881 0d27 02       		.uleb128 0x2
 3882 0d28 91       		.byte	0x91
 3883 0d29 08       		.sleb128 8
 3884 0d2a 20       		.uleb128 0x20
 3885 0d2b 4C060000 		.4byte	.LASF163
 3886 0d2f 01       		.byte	0x1
 3887 0d30 5204     		.2byte	0x452
 3888 0d32 620E0000 		.4byte	0xe62
 3889 0d36 C8050000 		.4byte	.LLST26
 3890 0d3a 22       		.uleb128 0x22
 3891 0d3b 7000     		.ascii	"p\000"
 3892 0d3d 01       		.byte	0x1
 3893 0d3e 5404     		.2byte	0x454
 3894 0d40 32020000 		.4byte	0x232
 3895 0d44 F4050000 		.4byte	.LLST27
 3896 0d48 26       		.uleb128 0x26
 3897 0d49 57030000 		.4byte	.LASF202
ARM GAS  C:\Users\Phuong\AppData\Local\Temp\cczAUGdE.s 			page 94


 3898 0d4d 01       		.byte	0x1
 3899 0d4e 5504     		.2byte	0x455
 3900 0d50 03010000 		.4byte	0x103
 3901 0d54 00       		.byte	0
 3902 0d55 22       		.uleb128 0x22
 3903 0d56 68647200 		.ascii	"hdr\000"
 3904 0d5a 01       		.byte	0x1
 3905 0d5b 5604     		.2byte	0x456
 3906 0d5d 670E0000 		.4byte	0xe67
 3907 0d61 34060000 		.4byte	.LLST28
 3908 0d65 24       		.uleb128 0x24
 3909 0d66 1A000000 		.4byte	.LVL82
 3910 0d6a E8160000 		.4byte	0x16e8
 3911 0d6e 820D0000 		.4byte	0xd82
 3912 0d72 1E       		.uleb128 0x1e
 3913 0d73 01       		.uleb128 0x1
 3914 0d74 50       		.byte	0x50
 3915 0d75 01       		.uleb128 0x1
 3916 0d76 32       		.byte	0x32
 3917 0d77 1E       		.uleb128 0x1e
 3918 0d78 01       		.uleb128 0x1
 3919 0d79 51       		.byte	0x51
 3920 0d7a 01       		.uleb128 0x1
 3921 0d7b 4C       		.byte	0x4c
 3922 0d7c 1E       		.uleb128 0x1e
 3923 0d7d 01       		.uleb128 0x1
 3924 0d7e 52       		.byte	0x52
 3925 0d7f 01       		.uleb128 0x1
 3926 0d80 30       		.byte	0x30
 3927 0d81 00       		.byte	0
 3928 0d82 24       		.uleb128 0x24
 3929 0d83 34000000 		.4byte	.LVL88
 3930 0d87 F3160000 		.4byte	0x16f3
 3931 0d8b 960D0000 		.4byte	0xd96
 3932 0d8f 1E       		.uleb128 0x1e
 3933 0d90 01       		.uleb128 0x1
 3934 0d91 50       		.byte	0x50
 3935 0d92 02       		.uleb128 0x2
 3936 0d93 76       		.byte	0x76
 3937 0d94 00       		.sleb128 0
 3938 0d95 00       		.byte	0
 3939 0d96 24       		.uleb128 0x24
 3940 0d97 46000000 		.4byte	.LVL89
 3941 0d9b C9160000 		.4byte	0x16c9
 3942 0d9f B50D0000 		.4byte	0xdb5
 3943 0da3 1E       		.uleb128 0x1e
 3944 0da4 01       		.uleb128 0x1
 3945 0da5 50       		.byte	0x50
 3946 0da6 02       		.uleb128 0x2
 3947 0da7 75       		.byte	0x75
 3948 0da8 08       		.sleb128 8
 3949 0da9 1E       		.uleb128 0x1e
 3950 0daa 01       		.uleb128 0x1
 3951 0dab 51       		.byte	0x51
 3952 0dac 02       		.uleb128 0x2
 3953 0dad 77       		.byte	0x77
 3954 0dae 00       		.sleb128 0
ARM GAS  C:\Users\Phuong\AppData\Local\Temp\cczAUGdE.s 			page 95


 3955 0daf 1E       		.uleb128 0x1e
 3956 0db0 01       		.uleb128 0x1
 3957 0db1 52       		.byte	0x52
 3958 0db2 01       		.uleb128 0x1
 3959 0db3 36       		.byte	0x36
 3960 0db4 00       		.byte	0
 3961 0db5 24       		.uleb128 0x24
 3962 0db6 52000000 		.4byte	.LVL90
 3963 0dba C9160000 		.4byte	0x16c9
 3964 0dbe D50D0000 		.4byte	0xdd5
 3965 0dc2 1E       		.uleb128 0x1e
 3966 0dc3 01       		.uleb128 0x1
 3967 0dc4 50       		.byte	0x50
 3968 0dc5 02       		.uleb128 0x2
 3969 0dc6 75       		.byte	0x75
 3970 0dc7 12       		.sleb128 18
 3971 0dc8 1E       		.uleb128 0x1e
 3972 0dc9 01       		.uleb128 0x1
 3973 0dca 51       		.byte	0x51
 3974 0dcb 03       		.uleb128 0x3
 3975 0dcc 91       		.byte	0x91
 3976 0dcd 04       		.sleb128 4
 3977 0dce 06       		.byte	0x6
 3978 0dcf 1E       		.uleb128 0x1e
 3979 0dd0 01       		.uleb128 0x1
 3980 0dd1 52       		.byte	0x52
 3981 0dd2 01       		.uleb128 0x1
 3982 0dd3 36       		.byte	0x36
 3983 0dd4 00       		.byte	0
 3984 0dd5 24       		.uleb128 0x24
 3985 0dd6 5E000000 		.4byte	.LVL91
 3986 0dda C9160000 		.4byte	0x16c9
 3987 0dde F50D0000 		.4byte	0xdf5
 3988 0de2 1E       		.uleb128 0x1e
 3989 0de3 01       		.uleb128 0x1
 3990 0de4 50       		.byte	0x50
 3991 0de5 02       		.uleb128 0x2
 3992 0de6 75       		.byte	0x75
 3993 0de7 0E       		.sleb128 14
 3994 0de8 1E       		.uleb128 0x1e
 3995 0de9 01       		.uleb128 0x1
 3996 0dea 51       		.byte	0x51
 3997 0deb 03       		.uleb128 0x3
 3998 0dec 91       		.byte	0x91
 3999 0ded 00       		.sleb128 0
 4000 0dee 06       		.byte	0x6
 4001 0def 1E       		.uleb128 0x1e
 4002 0df0 01       		.uleb128 0x1
 4003 0df1 52       		.byte	0x52
 4004 0df2 01       		.uleb128 0x1
 4005 0df3 34       		.byte	0x34
 4006 0df4 00       		.byte	0
 4007 0df5 24       		.uleb128 0x24
 4008 0df6 6A000000 		.4byte	.LVL92
 4009 0dfa C9160000 		.4byte	0x16c9
 4010 0dfe 150E0000 		.4byte	0xe15
 4011 0e02 1E       		.uleb128 0x1e
ARM GAS  C:\Users\Phuong\AppData\Local\Temp\cczAUGdE.s 			page 96


 4012 0e03 01       		.uleb128 0x1
 4013 0e04 50       		.byte	0x50
 4014 0e05 02       		.uleb128 0x2
 4015 0e06 75       		.byte	0x75
 4016 0e07 18       		.sleb128 24
 4017 0e08 1E       		.uleb128 0x1e
 4018 0e09 01       		.uleb128 0x1
 4019 0e0a 51       		.byte	0x51
 4020 0e0b 03       		.uleb128 0x3
 4021 0e0c 91       		.byte	0x91
 4022 0e0d 08       		.sleb128 8
 4023 0e0e 06       		.byte	0x6
 4024 0e0f 1E       		.uleb128 0x1e
 4025 0e10 01       		.uleb128 0x1
 4026 0e11 52       		.byte	0x52
 4027 0e12 01       		.uleb128 0x1
 4028 0e13 34       		.byte	0x34
 4029 0e14 00       		.byte	0
 4030 0e15 24       		.uleb128 0x24
 4031 0e16 92000000 		.4byte	.LVL93
 4032 0e1a D2160000 		.4byte	0x16d2
 4033 0e1e 460E0000 		.4byte	0xe46
 4034 0e22 1E       		.uleb128 0x1e
 4035 0e23 01       		.uleb128 0x1
 4036 0e24 50       		.byte	0x50
 4037 0e25 03       		.uleb128 0x3
 4038 0e26 91       		.byte	0x91
 4039 0e27 5C       		.sleb128 -36
 4040 0e28 06       		.byte	0x6
 4041 0e29 1E       		.uleb128 0x1e
 4042 0e2a 01       		.uleb128 0x1
 4043 0e2b 51       		.byte	0x51
 4044 0e2c 02       		.uleb128 0x2
 4045 0e2d 74       		.byte	0x74
 4046 0e2e 00       		.sleb128 0
 4047 0e2f 1E       		.uleb128 0x1e
 4048 0e30 01       		.uleb128 0x1
 4049 0e31 52       		.byte	0x52
 4050 0e32 03       		.uleb128 0x3
 4051 0e33 91       		.byte	0x91
 4052 0e34 60       		.sleb128 -32
 4053 0e35 06       		.byte	0x6
 4054 0e36 1E       		.uleb128 0x1e
 4055 0e37 01       		.uleb128 0x1
 4056 0e38 53       		.byte	0x53
 4057 0e39 03       		.uleb128 0x3
 4058 0e3a 91       		.byte	0x91
 4059 0e3b 64       		.sleb128 -28
 4060 0e3c 06       		.byte	0x6
 4061 0e3d 1E       		.uleb128 0x1e
 4062 0e3e 02       		.uleb128 0x2
 4063 0e3f 7D       		.byte	0x7d
 4064 0e40 00       		.sleb128 0
 4065 0e41 03       		.uleb128 0x3
 4066 0e42 0A       		.byte	0xa
 4067 0e43 0608     		.2byte	0x806
 4068 0e45 00       		.byte	0
ARM GAS  C:\Users\Phuong\AppData\Local\Temp\cczAUGdE.s 			page 97


 4069 0e46 1D       		.uleb128 0x1d
 4070 0e47 A0000000 		.4byte	.LVL94
 4071 0e4b B3160000 		.4byte	0x16b3
 4072 0e4f 1E       		.uleb128 0x1e
 4073 0e50 01       		.uleb128 0x1
 4074 0e51 50       		.byte	0x50
 4075 0e52 02       		.uleb128 0x2
 4076 0e53 74       		.byte	0x74
 4077 0e54 00       		.sleb128 0
 4078 0e55 00       		.byte	0
 4079 0e56 00       		.byte	0
 4080 0e57 06       		.uleb128 0x6
 4081 0e58 04       		.byte	0x4
 4082 0e59 5D0E0000 		.4byte	0xe5d
 4083 0e5d 07       		.uleb128 0x7
 4084 0e5e DD070000 		.4byte	0x7dd
 4085 0e62 07       		.uleb128 0x7
 4086 0e63 E2000000 		.4byte	0xe2
 4087 0e67 06       		.uleb128 0x6
 4088 0e68 04       		.byte	0x4
 4089 0e69 77080000 		.4byte	0x877
 4090 0e6d 1F       		.uleb128 0x1f
 4091 0e6e 75060000 		.4byte	.LASF203
 4092 0e72 01       		.byte	0x1
 4093 0e73 9E04     		.2byte	0x49e
 4094 0e75 03010000 		.4byte	0x103
 4095 0e79 00000000 		.4byte	.LFB66
 4096 0e7d 28000000 		.4byte	.LFE66-.LFB66
 4097 0e81 01       		.uleb128 0x1
 4098 0e82 9C       		.byte	0x9c
 4099 0e83 F10E0000 		.4byte	0xef1
 4100 0e87 20       		.uleb128 0x20
 4101 0e88 54000000 		.4byte	.LASF121
 4102 0e8c 01       		.byte	0x1
 4103 0e8d 9E04     		.2byte	0x49e
 4104 0e8f F6050000 		.4byte	0x5f6
 4105 0e93 47060000 		.4byte	.LLST29
 4106 0e97 20       		.uleb128 0x20
 4107 0e98 E2040000 		.4byte	.LASF181
 4108 0e9c 01       		.byte	0x1
 4109 0e9d 9E04     		.2byte	0x49e
 4110 0e9f 47070000 		.4byte	0x747
 4111 0ea3 75060000 		.4byte	.LLST30
 4112 0ea7 20       		.uleb128 0x20
 4113 0ea8 20010000 		.4byte	.LASF204
 4114 0eac 01       		.byte	0x1
 4115 0ead 9E04     		.2byte	0x49e
 4116 0eaf 570E0000 		.4byte	0xe57
 4117 0eb3 A2060000 		.4byte	.LLST31
 4118 0eb7 1D       		.uleb128 0x1d
 4119 0eb8 1E000000 		.4byte	.LVL99
 4120 0ebc A30C0000 		.4byte	0xca3
 4121 0ec0 1E       		.uleb128 0x1e
 4122 0ec1 01       		.uleb128 0x1
 4123 0ec2 50       		.byte	0x50
 4124 0ec3 02       		.uleb128 0x2
 4125 0ec4 74       		.byte	0x74
ARM GAS  C:\Users\Phuong\AppData\Local\Temp\cczAUGdE.s 			page 98


 4126 0ec5 49       		.sleb128 -55
 4127 0ec6 1E       		.uleb128 0x1e
 4128 0ec7 01       		.uleb128 0x1
 4129 0ec8 51       		.byte	0x51
 4130 0ec9 02       		.uleb128 0x2
 4131 0eca 74       		.byte	0x74
 4132 0ecb 00       		.sleb128 0
 4133 0ecc 1E       		.uleb128 0x1e
 4134 0ecd 01       		.uleb128 0x1
 4135 0ece 52       		.byte	0x52
 4136 0ecf 03       		.uleb128 0x3
 4137 0ed0 F3       		.byte	0xf3
 4138 0ed1 01       		.uleb128 0x1
 4139 0ed2 52       		.byte	0x52
 4140 0ed3 1E       		.uleb128 0x1e
 4141 0ed4 01       		.uleb128 0x1
 4142 0ed5 53       		.byte	0x53
 4143 0ed6 02       		.uleb128 0x2
 4144 0ed7 74       		.byte	0x74
 4145 0ed8 00       		.sleb128 0
 4146 0ed9 1E       		.uleb128 0x1e
 4147 0eda 02       		.uleb128 0x2
 4148 0edb 7D       		.byte	0x7d
 4149 0edc 00       		.sleb128 0
 4150 0edd 02       		.uleb128 0x2
 4151 0ede 74       		.byte	0x74
 4152 0edf 4D       		.sleb128 -51
 4153 0ee0 1E       		.uleb128 0x1e
 4154 0ee1 02       		.uleb128 0x2
 4155 0ee2 7D       		.byte	0x7d
 4156 0ee3 08       		.sleb128 8
 4157 0ee4 03       		.uleb128 0x3
 4158 0ee5 F3       		.byte	0xf3
 4159 0ee6 01       		.uleb128 0x1
 4160 0ee7 51       		.byte	0x51
 4161 0ee8 1E       		.uleb128 0x1e
 4162 0ee9 02       		.uleb128 0x2
 4163 0eea 7D       		.byte	0x7d
 4164 0eeb 0C       		.sleb128 12
 4165 0eec 02       		.uleb128 0x2
 4166 0eed 75       		.byte	0x75
 4167 0eee 00       		.sleb128 0
 4168 0eef 00       		.byte	0
 4169 0ef0 00       		.byte	0
 4170 0ef1 27       		.uleb128 0x27
 4171 0ef2 F8040000 		.4byte	.LASF209
 4172 0ef6 01       		.byte	0x1
 4173 0ef7 2F02     		.2byte	0x22f
 4174 0ef9 00000000 		.4byte	.LFB58
 4175 0efd 3C000000 		.4byte	.LFE58-.LFB58
 4176 0f01 01       		.uleb128 0x1
 4177 0f02 9C       		.byte	0x9c
 4178 0f03 500F0000 		.4byte	0xf50
 4179 0f07 20       		.uleb128 0x20
 4180 0f08 54000000 		.4byte	.LASF121
 4181 0f0c 01       		.byte	0x1
 4182 0f0d 2F02     		.2byte	0x22f
ARM GAS  C:\Users\Phuong\AppData\Local\Temp\cczAUGdE.s 			page 99


 4183 0f0f F6050000 		.4byte	0x5f6
 4184 0f13 C3060000 		.4byte	.LLST32
 4185 0f17 22       		.uleb128 0x22
 4186 0f18 6900     		.ascii	"i\000"
 4187 0f1a 01       		.byte	0x1
 4188 0f1b 3102     		.2byte	0x231
 4189 0f1d CC000000 		.4byte	0xcc
 4190 0f21 EF060000 		.4byte	.LLST33
 4191 0f25 28       		.uleb128 0x28
 4192 0f26 08000000 		.4byte	.LBB4
 4193 0f2a 26000000 		.4byte	.LBE4-.LBB4
 4194 0f2e 21       		.uleb128 0x21
 4195 0f2f D80A0000 		.4byte	.LASF128
 4196 0f33 01       		.byte	0x1
 4197 0f34 3402     		.2byte	0x234
 4198 0f36 CC000000 		.4byte	0xcc
 4199 0f3a 19070000 		.4byte	.LLST34
 4200 0f3e 1D       		.uleb128 0x1d
 4201 0f3f 2E000000 		.4byte	.LVL109
 4202 0f43 1D0A0000 		.4byte	0xa1d
 4203 0f47 1E       		.uleb128 0x1e
 4204 0f48 01       		.uleb128 0x1
 4205 0f49 50       		.byte	0x50
 4206 0f4a 02       		.uleb128 0x2
 4207 0f4b 74       		.byte	0x74
 4208 0f4c 00       		.sleb128 0
 4209 0f4d 00       		.byte	0
 4210 0f4e 00       		.byte	0
 4211 0f4f 00       		.byte	0
 4212 0f50 29       		.uleb128 0x29
 4213 0f51 F10B0000 		.4byte	.LASF207
 4214 0f55 01       		.byte	0x1
 4215 0f56 4702     		.2byte	0x247
 4216 0f58 D7000000 		.4byte	0xd7
 4217 0f5c 00000000 		.4byte	.LFB59
 4218 0f60 50000000 		.4byte	.LFE59-.LFB59
 4219 0f64 01       		.uleb128 0x1
 4220 0f65 9C       		.byte	0x9c
 4221 0f66 D50F0000 		.4byte	0xfd5
 4222 0f6a 20       		.uleb128 0x20
 4223 0f6b 54000000 		.4byte	.LASF121
 4224 0f6f 01       		.byte	0x1
 4225 0f70 4702     		.2byte	0x247
 4226 0f72 F6050000 		.4byte	0x5f6
 4227 0f76 73070000 		.4byte	.LLST35
 4228 0f7a 20       		.uleb128 0x20
 4229 0f7b E2040000 		.4byte	.LASF181
 4230 0f7f 01       		.byte	0x1
 4231 0f80 4702     		.2byte	0x247
 4232 0f82 47070000 		.4byte	0x747
 4233 0f86 B8070000 		.4byte	.LLST36
 4234 0f8a 20       		.uleb128 0x20
 4235 0f8b 00070000 		.4byte	.LASF205
 4236 0f8f 01       		.byte	0x1
 4237 0f90 4802     		.2byte	0x248
 4238 0f92 D50F0000 		.4byte	0xfd5
 4239 0f96 E4070000 		.4byte	.LLST37
ARM GAS  C:\Users\Phuong\AppData\Local\Temp\cczAUGdE.s 			page 100


 4240 0f9a 20       		.uleb128 0x20
 4241 0f9b B4050000 		.4byte	.LASF206
 4242 0f9f 01       		.byte	0x1
 4243 0fa0 4802     		.2byte	0x248
 4244 0fa2 DB0F0000 		.4byte	0xfdb
 4245 0fa6 10080000 		.4byte	.LLST38
 4246 0faa 22       		.uleb128 0x22
 4247 0fab 6900     		.ascii	"i\000"
 4248 0fad 01       		.byte	0x1
 4249 0fae 4A02     		.2byte	0x24a
 4250 0fb0 D7000000 		.4byte	0xd7
 4251 0fb4 3C080000 		.4byte	.LLST39
 4252 0fb8 1D       		.uleb128 0x1d
 4253 0fb9 12000000 		.4byte	.LVL118
 4254 0fbd 660A0000 		.4byte	0xa66
 4255 0fc1 1E       		.uleb128 0x1e
 4256 0fc2 01       		.uleb128 0x1
 4257 0fc3 50       		.byte	0x50
 4258 0fc4 03       		.uleb128 0x3
 4259 0fc5 F3       		.byte	0xf3
 4260 0fc6 01       		.uleb128 0x1
 4261 0fc7 51       		.byte	0x51
 4262 0fc8 1E       		.uleb128 0x1e
 4263 0fc9 01       		.uleb128 0x1
 4264 0fca 51       		.byte	0x51
 4265 0fcb 01       		.uleb128 0x1
 4266 0fcc 32       		.byte	0x32
 4267 0fcd 1E       		.uleb128 0x1e
 4268 0fce 01       		.uleb128 0x1
 4269 0fcf 52       		.byte	0x52
 4270 0fd0 02       		.uleb128 0x2
 4271 0fd1 76       		.byte	0x76
 4272 0fd2 00       		.sleb128 0
 4273 0fd3 00       		.byte	0
 4274 0fd4 00       		.byte	0
 4275 0fd5 06       		.uleb128 0x6
 4276 0fd6 04       		.byte	0x4
 4277 0fd7 9D0C0000 		.4byte	0xc9d
 4278 0fdb 06       		.uleb128 0x6
 4279 0fdc 04       		.byte	0x4
 4280 0fdd 47070000 		.4byte	0x747
 4281 0fe1 29       		.uleb128 0x29
 4282 0fe2 730A0000 		.4byte	.LASF208
 4283 0fe6 01       		.byte	0x1
 4284 0fe7 6402     		.2byte	0x264
 4285 0fe9 CC000000 		.4byte	0xcc
 4286 0fed 00000000 		.4byte	.LFB60
 4287 0ff1 44000000 		.4byte	.LFE60-.LFB60
 4288 0ff5 01       		.uleb128 0x1
 4289 0ff6 9C       		.byte	0x9c
 4290 0ff7 38100000 		.4byte	0x1038
 4291 0ffb 2A       		.uleb128 0x2a
 4292 0ffc 6900     		.ascii	"i\000"
 4293 0ffe 01       		.byte	0x1
 4294 0fff 6402     		.2byte	0x264
 4295 1001 CC000000 		.4byte	0xcc
 4296 1005 5A080000 		.4byte	.LLST40
ARM GAS  C:\Users\Phuong\AppData\Local\Temp\cczAUGdE.s 			page 101


 4297 1009 20       		.uleb128 0x20
 4298 100a E2040000 		.4byte	.LASF181
 4299 100e 01       		.byte	0x1
 4300 100f 6402     		.2byte	0x264
 4301 1011 38100000 		.4byte	0x1038
 4302 1015 AD080000 		.4byte	.LLST41
 4303 1019 20       		.uleb128 0x20
 4304 101a 54000000 		.4byte	.LASF121
 4305 101e 01       		.byte	0x1
 4306 101f 6402     		.2byte	0x264
 4307 1021 44100000 		.4byte	0x1044
 4308 1025 E7080000 		.4byte	.LLST42
 4309 1029 25       		.uleb128 0x25
 4310 102a 00070000 		.4byte	.LASF205
 4311 102e 01       		.byte	0x1
 4312 102f 6402     		.2byte	0x264
 4313 1031 D50F0000 		.4byte	0xfd5
 4314 1035 01       		.uleb128 0x1
 4315 1036 53       		.byte	0x53
 4316 1037 00       		.byte	0
 4317 1038 06       		.uleb128 0x6
 4318 1039 04       		.byte	0x4
 4319 103a 3E100000 		.4byte	0x103e
 4320 103e 06       		.uleb128 0x6
 4321 103f 04       		.byte	0x4
 4322 1040 51020000 		.4byte	0x251
 4323 1044 06       		.uleb128 0x6
 4324 1045 04       		.byte	0x4
 4325 1046 F6050000 		.4byte	0x5f6
 4326 104a 27       		.uleb128 0x27
 4327 104b 53060000 		.4byte	.LASF210
 4328 104f 01       		.byte	0x1
 4329 1050 8102     		.2byte	0x281
 4330 1052 00000000 		.4byte	.LFB61
 4331 1056 F4000000 		.4byte	.LFE61-.LFB61
 4332 105a 01       		.uleb128 0x1
 4333 105b 9C       		.byte	0x9c
 4334 105c 80110000 		.4byte	0x1180
 4335 1060 2A       		.uleb128 0x2a
 4336 1061 7000     		.ascii	"p\000"
 4337 1063 01       		.byte	0x1
 4338 1064 8102     		.2byte	0x281
 4339 1066 32020000 		.4byte	0x232
 4340 106a 21090000 		.4byte	.LLST43
 4341 106e 20       		.uleb128 0x20
 4342 106f 54000000 		.4byte	.LASF121
 4343 1073 01       		.byte	0x1
 4344 1074 8102     		.2byte	0x281
 4345 1076 F6050000 		.4byte	0x5f6
 4346 107a 63090000 		.4byte	.LLST44
 4347 107e 22       		.uleb128 0x22
 4348 107f 68647200 		.ascii	"hdr\000"
 4349 1083 01       		.byte	0x1
 4350 1084 8302     		.2byte	0x283
 4351 1086 670E0000 		.4byte	0xe67
 4352 108a A5090000 		.4byte	.LLST45
 4353 108e 2B       		.uleb128 0x2b
ARM GAS  C:\Users\Phuong\AppData\Local\Temp\cczAUGdE.s 			page 102


 4354 108f 21000000 		.4byte	.LASF165
 4355 1093 01       		.byte	0x1
 4356 1094 8502     		.2byte	0x285
 4357 1096 51020000 		.4byte	0x251
 4358 109a 02       		.uleb128 0x2
 4359 109b 91       		.byte	0x91
 4360 109c 64       		.sleb128 -28
 4361 109d 2B       		.uleb128 0x2b
 4362 109e 0D010000 		.4byte	.LASF167
 4363 10a2 01       		.byte	0x1
 4364 10a3 8502     		.2byte	0x285
 4365 10a5 51020000 		.4byte	0x251
 4366 10a9 02       		.uleb128 0x2
 4367 10aa 91       		.byte	0x91
 4368 10ab 60       		.sleb128 -32
 4369 10ac 21       		.uleb128 0x21
 4370 10ad F9090000 		.4byte	.LASF211
 4371 10b1 01       		.byte	0x1
 4372 10b2 8602     		.2byte	0x286
 4373 10b4 CC000000 		.4byte	0xcc
 4374 10b8 B8090000 		.4byte	.LLST46
 4375 10bc 24       		.uleb128 0x24
 4376 10bd 4C000000 		.4byte	.LVL138
 4377 10c1 B3160000 		.4byte	0x16b3
 4378 10c5 D0100000 		.4byte	0x10d0
 4379 10c9 1E       		.uleb128 0x1e
 4380 10ca 01       		.uleb128 0x1
 4381 10cb 50       		.byte	0x50
 4382 10cc 02       		.uleb128 0x2
 4383 10cd 74       		.byte	0x74
 4384 10ce 00       		.sleb128 0
 4385 10cf 00       		.byte	0
 4386 10d0 24       		.uleb128 0x24
 4387 10d1 62000000 		.4byte	.LVL142
 4388 10d5 C9160000 		.4byte	0x16c9
 4389 10d9 EF100000 		.4byte	0x10ef
 4390 10dd 1E       		.uleb128 0x1e
 4391 10de 01       		.uleb128 0x1
 4392 10df 50       		.byte	0x50
 4393 10e0 02       		.uleb128 0x2
 4394 10e1 91       		.byte	0x91
 4395 10e2 64       		.sleb128 -28
 4396 10e3 1E       		.uleb128 0x1e
 4397 10e4 01       		.uleb128 0x1
 4398 10e5 51       		.byte	0x51
 4399 10e6 02       		.uleb128 0x2
 4400 10e7 75       		.byte	0x75
 4401 10e8 0E       		.sleb128 14
 4402 10e9 1E       		.uleb128 0x1e
 4403 10ea 01       		.uleb128 0x1
 4404 10eb 52       		.byte	0x52
 4405 10ec 01       		.uleb128 0x1
 4406 10ed 34       		.byte	0x34
 4407 10ee 00       		.byte	0
 4408 10ef 24       		.uleb128 0x24
 4409 10f0 6E000000 		.4byte	.LVL143
 4410 10f4 C9160000 		.4byte	0x16c9
ARM GAS  C:\Users\Phuong\AppData\Local\Temp\cczAUGdE.s 			page 103


 4411 10f8 0E110000 		.4byte	0x110e
 4412 10fc 1E       		.uleb128 0x1e
 4413 10fd 01       		.uleb128 0x1
 4414 10fe 50       		.byte	0x50
 4415 10ff 02       		.uleb128 0x2
 4416 1100 91       		.byte	0x91
 4417 1101 60       		.sleb128 -32
 4418 1102 1E       		.uleb128 0x1e
 4419 1103 01       		.uleb128 0x1
 4420 1104 51       		.byte	0x51
 4421 1105 02       		.uleb128 0x2
 4422 1106 75       		.byte	0x75
 4423 1107 18       		.sleb128 24
 4424 1108 1E       		.uleb128 0x1e
 4425 1109 01       		.uleb128 0x1
 4426 110a 52       		.byte	0x52
 4427 110b 01       		.uleb128 0x1
 4428 110c 34       		.byte	0x34
 4429 110d 00       		.byte	0
 4430 110e 24       		.uleb128 0x24
 4431 110f 9C000000 		.4byte	.LVL147
 4432 1113 5D0B0000 		.4byte	0xb5d
 4433 1117 2E110000 		.4byte	0x112e
 4434 111b 1E       		.uleb128 0x1e
 4435 111c 01       		.uleb128 0x1
 4436 111d 50       		.byte	0x50
 4437 111e 02       		.uleb128 0x2
 4438 111f 76       		.byte	0x76
 4439 1120 00       		.sleb128 0
 4440 1121 1E       		.uleb128 0x1e
 4441 1122 01       		.uleb128 0x1
 4442 1123 51       		.byte	0x51
 4443 1124 02       		.uleb128 0x2
 4444 1125 91       		.byte	0x91
 4445 1126 64       		.sleb128 -28
 4446 1127 1E       		.uleb128 0x1e
 4447 1128 01       		.uleb128 0x1
 4448 1129 52       		.byte	0x52
 4449 112a 02       		.uleb128 0x2
 4450 112b 78       		.byte	0x78
 4451 112c 00       		.sleb128 0
 4452 112d 00       		.byte	0
 4453 112e 24       		.uleb128 0x24
 4454 112f D6000000 		.4byte	.LVL148
 4455 1133 A30C0000 		.4byte	0xca3
 4456 1137 6F110000 		.4byte	0x116f
 4457 113b 1E       		.uleb128 0x1e
 4458 113c 01       		.uleb128 0x1
 4459 113d 50       		.byte	0x50
 4460 113e 02       		.uleb128 0x2
 4461 113f 76       		.byte	0x76
 4462 1140 00       		.sleb128 0
 4463 1141 1E       		.uleb128 0x1e
 4464 1142 01       		.uleb128 0x1
 4465 1143 51       		.byte	0x51
 4466 1144 02       		.uleb128 0x2
 4467 1145 76       		.byte	0x76
ARM GAS  C:\Users\Phuong\AppData\Local\Temp\cczAUGdE.s 			page 104


 4468 1146 37       		.sleb128 55
 4469 1147 1E       		.uleb128 0x1e
 4470 1148 01       		.uleb128 0x1
 4471 1149 52       		.byte	0x52
 4472 114a 02       		.uleb128 0x2
 4473 114b 78       		.byte	0x78
 4474 114c 00       		.sleb128 0
 4475 114d 1E       		.uleb128 0x1e
 4476 114e 01       		.uleb128 0x1
 4477 114f 53       		.byte	0x53
 4478 1150 02       		.uleb128 0x2
 4479 1151 76       		.byte	0x76
 4480 1152 37       		.sleb128 55
 4481 1153 1E       		.uleb128 0x1e
 4482 1154 02       		.uleb128 0x2
 4483 1155 7D       		.byte	0x7d
 4484 1156 00       		.sleb128 0
 4485 1157 02       		.uleb128 0x2
 4486 1158 76       		.byte	0x76
 4487 1159 04       		.sleb128 4
 4488 115a 1E       		.uleb128 0x1e
 4489 115b 02       		.uleb128 0x2
 4490 115c 7D       		.byte	0x7d
 4491 115d 04       		.sleb128 4
 4492 115e 02       		.uleb128 0x2
 4493 115f 78       		.byte	0x78
 4494 1160 00       		.sleb128 0
 4495 1161 1E       		.uleb128 0x1e
 4496 1162 02       		.uleb128 0x2
 4497 1163 7D       		.byte	0x7d
 4498 1164 08       		.sleb128 8
 4499 1165 02       		.uleb128 0x2
 4500 1166 91       		.byte	0x91
 4501 1167 64       		.sleb128 -28
 4502 1168 1E       		.uleb128 0x1e
 4503 1169 02       		.uleb128 0x2
 4504 116a 7D       		.byte	0x7d
 4505 116b 0C       		.sleb128 12
 4506 116c 01       		.uleb128 0x1
 4507 116d 32       		.byte	0x32
 4508 116e 00       		.byte	0
 4509 116f 1D       		.uleb128 0x1d
 4510 1170 E6000000 		.4byte	.LVL149
 4511 1174 B3160000 		.4byte	0x16b3
 4512 1178 1E       		.uleb128 0x1e
 4513 1179 01       		.uleb128 0x1
 4514 117a 50       		.byte	0x50
 4515 117b 02       		.uleb128 0x2
 4516 117c 74       		.byte	0x74
 4517 117d 00       		.sleb128 0
 4518 117e 00       		.byte	0
 4519 117f 00       		.byte	0
 4520 1180 29       		.uleb128 0x29
 4521 1181 B1080000 		.4byte	.LASF212
 4522 1185 01       		.byte	0x1
 4523 1186 AF04     		.2byte	0x4af
 4524 1188 03010000 		.4byte	0x103
ARM GAS  C:\Users\Phuong\AppData\Local\Temp\cczAUGdE.s 			page 105


 4525 118c 00000000 		.4byte	.LFB67
 4526 1190 10000000 		.4byte	.LFE67-.LFB67
 4527 1194 01       		.uleb128 0x1
 4528 1195 9C       		.byte	0x9c
 4529 1196 D3110000 		.4byte	0x11d3
 4530 119a 20       		.uleb128 0x20
 4531 119b 54000000 		.4byte	.LASF121
 4532 119f 01       		.byte	0x1
 4533 11a0 AF04     		.2byte	0x4af
 4534 11a2 F6050000 		.4byte	0x5f6
 4535 11a6 D6090000 		.4byte	.LLST47
 4536 11aa 20       		.uleb128 0x20
 4537 11ab E2040000 		.4byte	.LASF181
 4538 11af 01       		.byte	0x1
 4539 11b0 AF04     		.2byte	0x4af
 4540 11b2 47070000 		.4byte	0x747
 4541 11b6 F7090000 		.4byte	.LLST48
 4542 11ba 1D       		.uleb128 0x1d
 4543 11bb 08000000 		.4byte	.LVL153
 4544 11bf 6D0E0000 		.4byte	0xe6d
 4545 11c3 1E       		.uleb128 0x1e
 4546 11c4 01       		.uleb128 0x1
 4547 11c5 50       		.byte	0x50
 4548 11c6 03       		.uleb128 0x3
 4549 11c7 F3       		.byte	0xf3
 4550 11c8 01       		.uleb128 0x1
 4551 11c9 50       		.byte	0x50
 4552 11ca 1E       		.uleb128 0x1e
 4553 11cb 01       		.uleb128 0x1
 4554 11cc 51       		.byte	0x51
 4555 11cd 03       		.uleb128 0x3
 4556 11ce F3       		.byte	0xf3
 4557 11cf 01       		.uleb128 0x1
 4558 11d0 51       		.byte	0x51
 4559 11d1 00       		.byte	0
 4560 11d2 00       		.byte	0
 4561 11d3 2C       		.uleb128 0x2c
 4562 11d4 60050000 		.4byte	.LASF213
 4563 11d8 01       		.byte	0x1
 4564 11d9 C7       		.byte	0xc7
 4565 11da 00000000 		.4byte	.LFB55
 4566 11de 9C000000 		.4byte	.LFE55-.LFB55
 4567 11e2 01       		.uleb128 0x1
 4568 11e3 9C       		.byte	0x9c
 4569 11e4 30120000 		.4byte	0x1230
 4570 11e8 1B       		.uleb128 0x1b
 4571 11e9 6900     		.ascii	"i\000"
 4572 11eb 01       		.byte	0x1
 4573 11ec C9       		.byte	0xc9
 4574 11ed CC000000 		.4byte	0xcc
 4575 11f1 180A0000 		.4byte	.LLST49
 4576 11f5 28       		.uleb128 0x28
 4577 11f6 06000000 		.4byte	.LBB5
 4578 11fa 88000000 		.4byte	.LBE5-.LBB5
 4579 11fe 2D       		.uleb128 0x2d
 4580 11ff D80A0000 		.4byte	.LASF128
 4581 1203 01       		.byte	0x1
ARM GAS  C:\Users\Phuong\AppData\Local\Temp\cczAUGdE.s 			page 106


 4582 1204 CE       		.byte	0xce
 4583 1205 CC000000 		.4byte	0xcc
 4584 1209 420A0000 		.4byte	.LLST50
 4585 120d 1C       		.uleb128 0x1c
 4586 120e 4A000000 		.4byte	.LVL168
 4587 1212 1D0A0000 		.4byte	0xa1d
 4588 1216 1D       		.uleb128 0x1d
 4589 1217 8E000000 		.4byte	.LVL179
 4590 121b 80110000 		.4byte	0x1180
 4591 121f 1E       		.uleb128 0x1e
 4592 1220 01       		.uleb128 0x1
 4593 1221 51       		.byte	0x51
 4594 1222 0A       		.uleb128 0xa
 4595 1223 75       		.byte	0x75
 4596 1224 00       		.sleb128 0
 4597 1225 33       		.byte	0x33
 4598 1226 24       		.byte	0x24
 4599 1227 03       		.byte	0x3
 4600 1228 04000000 		.4byte	.LANCHOR0+4
 4601 122c 22       		.byte	0x22
 4602 122d 00       		.byte	0
 4603 122e 00       		.byte	0
 4604 122f 00       		.byte	0
 4605 1230 1F       		.uleb128 0x1f
 4606 1231 310C0000 		.4byte	.LASF214
 4607 1235 01       		.byte	0x1
 4608 1236 EA02     		.2byte	0x2ea
 4609 1238 03010000 		.4byte	0x103
 4610 123c 00000000 		.4byte	.LFB62
 4611 1240 B0000000 		.4byte	.LFE62-.LFB62
 4612 1244 01       		.uleb128 0x1
 4613 1245 9C       		.byte	0x9c
 4614 1246 0C130000 		.4byte	0x130c
 4615 124a 20       		.uleb128 0x20
 4616 124b 54000000 		.4byte	.LASF121
 4617 124f 01       		.byte	0x1
 4618 1250 EA02     		.2byte	0x2ea
 4619 1252 F6050000 		.4byte	0x5f6
 4620 1256 B40B0000 		.4byte	.LLST51
 4621 125a 2A       		.uleb128 0x2a
 4622 125b 7100     		.ascii	"q\000"
 4623 125d 01       		.byte	0x1
 4624 125e EA02     		.2byte	0x2ea
 4625 1260 32020000 		.4byte	0x232
 4626 1264 F60B0000 		.4byte	.LLST52
 4627 1268 20       		.uleb128 0x20
 4628 1269 2B080000 		.4byte	.LASF215
 4629 126d 01       		.byte	0x1
 4630 126e EA02     		.2byte	0x2ea
 4631 1270 CC000000 		.4byte	0xcc
 4632 1274 380C0000 		.4byte	.LLST53
 4633 1278 24       		.uleb128 0x24
 4634 1279 3E000000 		.4byte	.LVL186
 4635 127d 80110000 		.4byte	0x1180
 4636 1281 9F120000 		.4byte	0x129f
 4637 1285 1E       		.uleb128 0x1e
 4638 1286 01       		.uleb128 0x1
ARM GAS  C:\Users\Phuong\AppData\Local\Temp\cczAUGdE.s 			page 107


 4639 1287 50       		.byte	0x50
 4640 1288 02       		.uleb128 0x2
 4641 1289 75       		.byte	0x75
 4642 128a 00       		.sleb128 0
 4643 128b 1E       		.uleb128 0x1e
 4644 128c 01       		.uleb128 0x1
 4645 128d 51       		.byte	0x51
 4646 128e 0F       		.uleb128 0xf
 4647 128f 74       		.byte	0x74
 4648 1290 00       		.sleb128 0
 4649 1291 31       		.byte	0x31
 4650 1292 24       		.byte	0x24
 4651 1293 74       		.byte	0x74
 4652 1294 00       		.sleb128 0
 4653 1295 22       		.byte	0x22
 4654 1296 33       		.byte	0x33
 4655 1297 24       		.byte	0x24
 4656 1298 03       		.byte	0x3
 4657 1299 04000000 		.4byte	.LANCHOR0+4
 4658 129d 22       		.byte	0x22
 4659 129e 00       		.byte	0
 4660 129f 24       		.uleb128 0x24
 4661 12a0 74000000 		.4byte	.LVL190
 4662 12a4 6D0E0000 		.4byte	0xe6d
 4663 12a8 D9120000 		.4byte	0x12d9
 4664 12ac 1E       		.uleb128 0x1e
 4665 12ad 01       		.uleb128 0x1
 4666 12ae 50       		.byte	0x50
 4667 12af 02       		.uleb128 0x2
 4668 12b0 75       		.byte	0x75
 4669 12b1 00       		.sleb128 0
 4670 12b2 1E       		.uleb128 0x1e
 4671 12b3 01       		.uleb128 0x1
 4672 12b4 51       		.byte	0x51
 4673 12b5 0F       		.uleb128 0xf
 4674 12b6 74       		.byte	0x74
 4675 12b7 00       		.sleb128 0
 4676 12b8 31       		.byte	0x31
 4677 12b9 24       		.byte	0x24
 4678 12ba 74       		.byte	0x74
 4679 12bb 00       		.sleb128 0
 4680 12bc 22       		.byte	0x22
 4681 12bd 33       		.byte	0x33
 4682 12be 24       		.byte	0x24
 4683 12bf 03       		.byte	0x3
 4684 12c0 04000000 		.4byte	.LANCHOR0+4
 4685 12c4 22       		.byte	0x22
 4686 12c5 1E       		.uleb128 0x1e
 4687 12c6 01       		.uleb128 0x1
 4688 12c7 52       		.byte	0x52
 4689 12c8 0F       		.uleb128 0xf
 4690 12c9 74       		.byte	0x74
 4691 12ca 00       		.sleb128 0
 4692 12cb 31       		.byte	0x31
 4693 12cc 24       		.byte	0x24
 4694 12cd 74       		.byte	0x74
 4695 12ce 00       		.sleb128 0
ARM GAS  C:\Users\Phuong\AppData\Local\Temp\cczAUGdE.s 			page 108


 4696 12cf 22       		.byte	0x22
 4697 12d0 33       		.byte	0x33
 4698 12d1 24       		.byte	0x24
 4699 12d2 03       		.byte	0x3
 4700 12d3 0C000000 		.4byte	.LANCHOR0+12
 4701 12d7 22       		.byte	0x22
 4702 12d8 00       		.byte	0
 4703 12d9 1D       		.uleb128 0x1d
 4704 12da A6000000 		.4byte	.LVL191
 4705 12de D2160000 		.4byte	0x16d2
 4706 12e2 1E       		.uleb128 0x1e
 4707 12e3 01       		.uleb128 0x1
 4708 12e4 50       		.byte	0x50
 4709 12e5 02       		.uleb128 0x2
 4710 12e6 75       		.byte	0x75
 4711 12e7 00       		.sleb128 0
 4712 12e8 1E       		.uleb128 0x1e
 4713 12e9 01       		.uleb128 0x1
 4714 12ea 51       		.byte	0x51
 4715 12eb 02       		.uleb128 0x2
 4716 12ec 76       		.byte	0x76
 4717 12ed 00       		.sleb128 0
 4718 12ee 1E       		.uleb128 0x1e
 4719 12ef 01       		.uleb128 0x1
 4720 12f0 52       		.byte	0x52
 4721 12f1 02       		.uleb128 0x2
 4722 12f2 75       		.byte	0x75
 4723 12f3 37       		.sleb128 55
 4724 12f4 1E       		.uleb128 0x1e
 4725 12f5 01       		.uleb128 0x1
 4726 12f6 53       		.byte	0x53
 4727 12f7 0A       		.uleb128 0xa
 4728 12f8 74       		.byte	0x74
 4729 12f9 00       		.sleb128 0
 4730 12fa 33       		.byte	0x33
 4731 12fb 24       		.byte	0x24
 4732 12fc 03       		.byte	0x3
 4733 12fd 0C000000 		.4byte	.LANCHOR0+12
 4734 1301 22       		.byte	0x22
 4735 1302 1E       		.uleb128 0x1e
 4736 1303 02       		.uleb128 0x2
 4737 1304 7D       		.byte	0x7d
 4738 1305 00       		.sleb128 0
 4739 1306 03       		.uleb128 0x3
 4740 1307 0A       		.byte	0xa
 4741 1308 0008     		.2byte	0x800
 4742 130a 00       		.byte	0
 4743 130b 00       		.byte	0
 4744 130c 29       		.uleb128 0x29
 4745 130d 4D010000 		.4byte	.LASF216
 4746 1311 01       		.byte	0x1
 4747 1312 A203     		.2byte	0x3a2
 4748 1314 03010000 		.4byte	0x103
 4749 1318 00000000 		.4byte	.LFB64
 4750 131c D8010000 		.4byte	.LFE64-.LFB64
 4751 1320 01       		.uleb128 0x1
 4752 1321 9C       		.byte	0x9c
ARM GAS  C:\Users\Phuong\AppData\Local\Temp\cczAUGdE.s 			page 109


 4753 1322 47150000 		.4byte	0x1547
 4754 1326 20       		.uleb128 0x20
 4755 1327 54000000 		.4byte	.LASF121
 4756 132b 01       		.byte	0x1
 4757 132c A203     		.2byte	0x3a2
 4758 132e F6050000 		.4byte	0x5f6
 4759 1332 590C0000 		.4byte	.LLST54
 4760 1336 20       		.uleb128 0x20
 4761 1337 E2040000 		.4byte	.LASF181
 4762 133b 01       		.byte	0x1
 4763 133c A203     		.2byte	0x3a2
 4764 133e 47070000 		.4byte	0x747
 4765 1342 900C0000 		.4byte	.LLST55
 4766 1346 2A       		.uleb128 0x2a
 4767 1347 7100     		.ascii	"q\000"
 4768 1349 01       		.byte	0x1
 4769 134a A203     		.2byte	0x3a2
 4770 134c 32020000 		.4byte	0x232
 4771 1350 EE0C0000 		.4byte	.LLST56
 4772 1354 21       		.uleb128 0x21
 4773 1355 F6050000 		.4byte	.LASF217
 4774 1359 01       		.byte	0x1
 4775 135a A403     		.2byte	0x3a4
 4776 135c 9D0C0000 		.4byte	0xc9d
 4777 1360 1A0D0000 		.4byte	.LLST57
 4778 1364 21       		.uleb128 0x21
 4779 1365 57030000 		.4byte	.LASF202
 4780 1369 01       		.byte	0x1
 4781 136a A503     		.2byte	0x3a5
 4782 136c 03010000 		.4byte	0x103
 4783 1370 3D0D0000 		.4byte	.LLST58
 4784 1374 21       		.uleb128 0x21
 4785 1375 38070000 		.4byte	.LASF218
 4786 1379 01       		.byte	0x1
 4787 137a A603     		.2byte	0x3a6
 4788 137c 68000000 		.4byte	0x68
 4789 1380 B00D0000 		.4byte	.LLST59
 4790 1384 22       		.uleb128 0x22
 4791 1385 6900     		.ascii	"i\000"
 4792 1387 01       		.byte	0x1
 4793 1388 A703     		.2byte	0x3a7
 4794 138a D7000000 		.4byte	0xd7
 4795 138e FE0D0000 		.4byte	.LLST60
 4796 1392 2E       		.uleb128 0x2e
 4797 1393 00000000 		.4byte	.Ldebug_ranges0+0
 4798 1397 C7140000 		.4byte	0x14c7
 4799 139b 22       		.uleb128 0x22
 4800 139c 7000     		.ascii	"p\000"
 4801 139e 01       		.byte	0x1
 4802 139f E503     		.2byte	0x3e5
 4803 13a1 32020000 		.4byte	0x232
 4804 13a5 270E0000 		.4byte	.LLST61
 4805 13a9 21       		.uleb128 0x21
 4806 13aa FB000000 		.4byte	.LASF219
 4807 13ae 01       		.byte	0x1
 4808 13af E603     		.2byte	0x3e6
 4809 13b1 68000000 		.4byte	0x68
ARM GAS  C:\Users\Phuong\AppData\Local\Temp\cczAUGdE.s 			page 110


 4810 13b5 930E0000 		.4byte	.LLST62
 4811 13b9 2E       		.uleb128 0x2e
 4812 13ba 20000000 		.4byte	.Ldebug_ranges0+0x20
 4813 13be 70140000 		.4byte	0x1470
 4814 13c2 21       		.uleb128 0x21
 4815 13c3 1F0C0000 		.4byte	.LASF220
 4816 13c7 01       		.byte	0x1
 4817 13c8 0504     		.2byte	0x405
 4818 13ca 47090000 		.4byte	0x947
 4819 13ce B10E0000 		.4byte	.LLST63
 4820 13d2 2E       		.uleb128 0x2e
 4821 13d3 38000000 		.4byte	.Ldebug_ranges0+0x38
 4822 13d7 3C140000 		.4byte	0x143c
 4823 13db 21       		.uleb128 0x21
 4824 13dc 0B000000 		.4byte	.LASF221
 4825 13e0 01       		.byte	0x1
 4826 13e1 0904     		.2byte	0x409
 4827 13e3 6F000000 		.4byte	0x6f
 4828 13e7 DA0E0000 		.4byte	.LLST64
 4829 13eb 2E       		.uleb128 0x2e
 4830 13ec 50000000 		.4byte	.Ldebug_ranges0+0x50
 4831 13f0 03140000 		.4byte	0x1403
 4832 13f4 22       		.uleb128 0x22
 4833 13f5 7200     		.ascii	"r\000"
 4834 13f7 01       		.byte	0x1
 4835 13f8 0E04     		.2byte	0x40e
 4836 13fa 47090000 		.4byte	0x947
 4837 13fe 320F0000 		.4byte	.LLST65
 4838 1402 00       		.byte	0
 4839 1403 28       		.uleb128 0x28
 4840 1404 64010000 		.4byte	.LBB11
 4841 1408 1C000000 		.4byte	.LBE11-.LBB11
 4842 140c 22       		.uleb128 0x22
 4843 140d 6F6C6400 		.ascii	"old\000"
 4844 1411 01       		.byte	0x1
 4845 1412 1C04     		.2byte	0x41c
 4846 1414 47090000 		.4byte	0x947
 4847 1418 500F0000 		.4byte	.LLST66
 4848 141c 1C       		.uleb128 0x1c
 4849 141d 78010000 		.4byte	.LVL237
 4850 1421 B3160000 		.4byte	0x16b3
 4851 1425 1D       		.uleb128 0x1d
 4852 1426 80010000 		.4byte	.LVL238
 4853 142a BE160000 		.4byte	0x16be
 4854 142e 1E       		.uleb128 0x1e
 4855 142f 01       		.uleb128 0x1
 4856 1430 50       		.byte	0x50
 4857 1431 01       		.uleb128 0x1
 4858 1432 3A       		.byte	0x3a
 4859 1433 1E       		.uleb128 0x1e
 4860 1434 01       		.uleb128 0x1
 4861 1435 51       		.byte	0x51
 4862 1436 02       		.uleb128 0x2
 4863 1437 75       		.byte	0x75
 4864 1438 00       		.sleb128 0
 4865 1439 00       		.byte	0
 4866 143a 00       		.byte	0
ARM GAS  C:\Users\Phuong\AppData\Local\Temp\cczAUGdE.s 			page 111


 4867 143b 00       		.byte	0
 4868 143c 24       		.uleb128 0x24
 4869 143d 28010000 		.4byte	.LVL226
 4870 1441 FE160000 		.4byte	0x16fe
 4871 1445 5F140000 		.4byte	0x145f
 4872 1449 1E       		.uleb128 0x1e
 4873 144a 01       		.uleb128 0x1
 4874 144b 50       		.byte	0x50
 4875 144c 01       		.uleb128 0x1
 4876 144d 3A       		.byte	0x3a
 4877 144e 1E       		.uleb128 0x1e
 4878 144f 01       		.uleb128 0x1
 4879 1450 51       		.byte	0x51
 4880 1451 05       		.uleb128 0x5
 4881 1452 03       		.byte	0x3
 4882 1453 00000000 		.4byte	.LC16
 4883 1457 1E       		.uleb128 0x1e
 4884 1458 01       		.uleb128 0x1
 4885 1459 52       		.byte	0x52
 4886 145a 03       		.uleb128 0x3
 4887 145b 0A       		.byte	0xa
 4888 145c 0704     		.2byte	0x407
 4889 145e 00       		.byte	0
 4890 145f 1D       		.uleb128 0x1d
 4891 1460 8A010000 		.4byte	.LVL241
 4892 1464 B3160000 		.4byte	0x16b3
 4893 1468 1E       		.uleb128 0x1e
 4894 1469 01       		.uleb128 0x1
 4895 146a 50       		.byte	0x50
 4896 146b 02       		.uleb128 0x2
 4897 146c 75       		.byte	0x75
 4898 146d 00       		.sleb128 0
 4899 146e 00       		.byte	0
 4900 146f 00       		.byte	0
 4901 1470 24       		.uleb128 0x24
 4902 1471 FA000000 		.4byte	.LVL219
 4903 1475 E8160000 		.4byte	0x16e8
 4904 1479 88140000 		.4byte	0x1488
 4905 147d 1E       		.uleb128 0x1e
 4906 147e 01       		.uleb128 0x1
 4907 147f 50       		.byte	0x50
 4908 1480 01       		.uleb128 0x1
 4909 1481 32       		.byte	0x32
 4910 1482 1E       		.uleb128 0x1e
 4911 1483 01       		.uleb128 0x1
 4912 1484 52       		.byte	0x52
 4913 1485 01       		.uleb128 0x1
 4914 1486 30       		.byte	0x30
 4915 1487 00       		.byte	0
 4916 1488 24       		.uleb128 0x24
 4917 1489 04010000 		.4byte	.LVL221
 4918 148d 09170000 		.4byte	0x1709
 4919 1491 A2140000 		.4byte	0x14a2
 4920 1495 1E       		.uleb128 0x1e
 4921 1496 01       		.uleb128 0x1
 4922 1497 50       		.byte	0x50
 4923 1498 02       		.uleb128 0x2
ARM GAS  C:\Users\Phuong\AppData\Local\Temp\cczAUGdE.s 			page 112


 4924 1499 75       		.byte	0x75
 4925 149a 00       		.sleb128 0
 4926 149b 1E       		.uleb128 0x1e
 4927 149c 01       		.uleb128 0x1
 4928 149d 51       		.byte	0x51
 4929 149e 02       		.uleb128 0x2
 4930 149f 76       		.byte	0x76
 4931 14a0 00       		.sleb128 0
 4932 14a1 00       		.byte	0
 4933 14a2 24       		.uleb128 0x24
 4934 14a3 0E010000 		.4byte	.LVL222
 4935 14a7 B3160000 		.4byte	0x16b3
 4936 14ab B6140000 		.4byte	0x14b6
 4937 14af 1E       		.uleb128 0x1e
 4938 14b0 01       		.uleb128 0x1
 4939 14b1 50       		.byte	0x50
 4940 14b2 02       		.uleb128 0x2
 4941 14b3 75       		.byte	0x75
 4942 14b4 00       		.sleb128 0
 4943 14b5 00       		.byte	0
 4944 14b6 1D       		.uleb128 0x1d
 4945 14b7 18010000 		.4byte	.LVL224
 4946 14bb 14170000 		.4byte	0x1714
 4947 14bf 1E       		.uleb128 0x1e
 4948 14c0 01       		.uleb128 0x1
 4949 14c1 50       		.byte	0x50
 4950 14c2 02       		.uleb128 0x2
 4951 14c3 76       		.byte	0x76
 4952 14c4 00       		.sleb128 0
 4953 14c5 00       		.byte	0
 4954 14c6 00       		.byte	0
 4955 14c7 24       		.uleb128 0x24
 4956 14c8 1C000000 		.4byte	.LVL198
 4957 14cc DD160000 		.4byte	0x16dd
 4958 14d0 DB140000 		.4byte	0x14db
 4959 14d4 1E       		.uleb128 0x1e
 4960 14d5 01       		.uleb128 0x1
 4961 14d6 51       		.byte	0x51
 4962 14d7 02       		.uleb128 0x2
 4963 14d8 77       		.byte	0x77
 4964 14d9 00       		.sleb128 0
 4965 14da 00       		.byte	0
 4966 14db 24       		.uleb128 0x24
 4967 14dc 44000000 		.4byte	.LVL199
 4968 14e0 660A0000 		.4byte	0xa66
 4969 14e4 FA140000 		.4byte	0x14fa
 4970 14e8 1E       		.uleb128 0x1e
 4971 14e9 01       		.uleb128 0x1
 4972 14ea 50       		.byte	0x50
 4973 14eb 02       		.uleb128 0x2
 4974 14ec 75       		.byte	0x75
 4975 14ed 00       		.sleb128 0
 4976 14ee 1E       		.uleb128 0x1e
 4977 14ef 01       		.uleb128 0x1
 4978 14f0 51       		.byte	0x51
 4979 14f1 01       		.uleb128 0x1
 4980 14f2 31       		.byte	0x31
ARM GAS  C:\Users\Phuong\AppData\Local\Temp\cczAUGdE.s 			page 113


 4981 14f3 1E       		.uleb128 0x1e
 4982 14f4 01       		.uleb128 0x1
 4983 14f5 52       		.byte	0x52
 4984 14f6 02       		.uleb128 0x2
 4985 14f7 77       		.byte	0x77
 4986 14f8 00       		.sleb128 0
 4987 14f9 00       		.byte	0
 4988 14fa 24       		.uleb128 0x24
 4989 14fb 8E000000 		.4byte	.LVL205
 4990 14ff 80110000 		.4byte	0x1180
 4991 1503 14150000 		.4byte	0x1514
 4992 1507 1E       		.uleb128 0x1e
 4993 1508 01       		.uleb128 0x1
 4994 1509 50       		.byte	0x50
 4995 150a 02       		.uleb128 0x2
 4996 150b 77       		.byte	0x77
 4997 150c 00       		.sleb128 0
 4998 150d 1E       		.uleb128 0x1e
 4999 150e 01       		.uleb128 0x1
 5000 150f 51       		.byte	0x51
 5001 1510 02       		.uleb128 0x2
 5002 1511 75       		.byte	0x75
 5003 1512 00       		.sleb128 0
 5004 1513 00       		.byte	0
 5005 1514 1D       		.uleb128 0x1d
 5006 1515 CC000000 		.4byte	.LVL211
 5007 1519 D2160000 		.4byte	0x16d2
 5008 151d 1E       		.uleb128 0x1e
 5009 151e 01       		.uleb128 0x1
 5010 151f 50       		.byte	0x50
 5011 1520 02       		.uleb128 0x2
 5012 1521 77       		.byte	0x77
 5013 1522 00       		.sleb128 0
 5014 1523 1E       		.uleb128 0x1e
 5015 1524 01       		.uleb128 0x1
 5016 1525 51       		.byte	0x51
 5017 1526 02       		.uleb128 0x2
 5018 1527 76       		.byte	0x76
 5019 1528 00       		.sleb128 0
 5020 1529 1E       		.uleb128 0x1e
 5021 152a 01       		.uleb128 0x1
 5022 152b 52       		.byte	0x52
 5023 152c 02       		.uleb128 0x2
 5024 152d 78       		.byte	0x78
 5025 152e 00       		.sleb128 0
 5026 152f 1E       		.uleb128 0x1e
 5027 1530 01       		.uleb128 0x1
 5028 1531 53       		.byte	0x53
 5029 1532 0A       		.uleb128 0xa
 5030 1533 74       		.byte	0x74
 5031 1534 00       		.sleb128 0
 5032 1535 33       		.byte	0x33
 5033 1536 24       		.byte	0x24
 5034 1537 03       		.byte	0x3
 5035 1538 0C000000 		.4byte	.LANCHOR0+12
 5036 153c 22       		.byte	0x22
 5037 153d 1E       		.uleb128 0x1e
ARM GAS  C:\Users\Phuong\AppData\Local\Temp\cczAUGdE.s 			page 114


 5038 153e 02       		.uleb128 0x2
 5039 153f 7D       		.byte	0x7d
 5040 1540 00       		.sleb128 0
 5041 1541 03       		.uleb128 0x3
 5042 1542 0A       		.byte	0xa
 5043 1543 0008     		.2byte	0x800
 5044 1545 00       		.byte	0
 5045 1546 00       		.byte	0
 5046 1547 29       		.uleb128 0x29
 5047 1548 280B0000 		.4byte	.LASF222
 5048 154c 01       		.byte	0x1
 5049 154d 1503     		.2byte	0x315
 5050 154f 03010000 		.4byte	0x103
 5051 1553 00000000 		.4byte	.LFB63
 5052 1557 1C010000 		.4byte	.LFE63-.LFB63
 5053 155b 01       		.uleb128 0x1
 5054 155c 9C       		.byte	0x9c
 5055 155d 5F160000 		.4byte	0x165f
 5056 1561 20       		.uleb128 0x20
 5057 1562 54000000 		.4byte	.LASF121
 5058 1566 01       		.byte	0x1
 5059 1567 1503     		.2byte	0x315
 5060 1569 F6050000 		.4byte	0x5f6
 5061 156d 630F0000 		.4byte	.LLST67
 5062 1571 2A       		.uleb128 0x2a
 5063 1572 7100     		.ascii	"q\000"
 5064 1574 01       		.byte	0x1
 5065 1575 1503     		.2byte	0x315
 5066 1577 32020000 		.4byte	0x232
 5067 157b 9A0F0000 		.4byte	.LLST68
 5068 157f 20       		.uleb128 0x20
 5069 1580 E2040000 		.4byte	.LASF181
 5070 1584 01       		.byte	0x1
 5071 1585 1503     		.2byte	0x315
 5072 1587 47070000 		.4byte	0x747
 5073 158b C60F0000 		.4byte	.LLST69
 5074 158f 21       		.uleb128 0x21
 5075 1590 0A0C0000 		.4byte	.LASF223
 5076 1594 01       		.byte	0x1
 5077 1595 1703     		.2byte	0x317
 5078 1597 570E0000 		.4byte	0xe57
 5079 159b 0B100000 		.4byte	.LLST70
 5080 159f 2B       		.uleb128 0x2b
 5081 15a0 0A0B0000 		.4byte	.LASF224
 5082 15a4 01       		.byte	0x1
 5083 15a5 1803     		.2byte	0x318
 5084 15a7 DD070000 		.4byte	0x7dd
 5085 15ab 02       		.uleb128 0x2
 5086 15ac 91       		.byte	0x91
 5087 15ad 68       		.sleb128 -24
 5088 15ae 21       		.uleb128 0x21
 5089 15af D1040000 		.4byte	.LASF225
 5090 15b3 01       		.byte	0x1
 5091 15b4 1903     		.2byte	0x319
 5092 15b6 47070000 		.4byte	0x747
 5093 15ba 29100000 		.4byte	.LLST71
 5094 15be 2E       		.uleb128 0x2e
ARM GAS  C:\Users\Phuong\AppData\Local\Temp\cczAUGdE.s 			page 115


 5095 15bf 68000000 		.4byte	.Ldebug_ranges0+0x68
 5096 15c3 26160000 		.4byte	0x1626
 5097 15c7 22       		.uleb128 0x22
 5098 15c8 6900     		.ascii	"i\000"
 5099 15ca 01       		.byte	0x1
 5100 15cb 3303     		.2byte	0x333
 5101 15cd D7000000 		.4byte	0xd7
 5102 15d1 60100000 		.4byte	.LLST72
 5103 15d5 24       		.uleb128 0x24
 5104 15d6 96000000 		.4byte	.LVL260
 5105 15da 30120000 		.4byte	0x1230
 5106 15de EF150000 		.4byte	0x15ef
 5107 15e2 1E       		.uleb128 0x1e
 5108 15e3 01       		.uleb128 0x1
 5109 15e4 50       		.byte	0x50
 5110 15e5 02       		.uleb128 0x2
 5111 15e6 76       		.byte	0x76
 5112 15e7 00       		.sleb128 0
 5113 15e8 1E       		.uleb128 0x1e
 5114 15e9 01       		.uleb128 0x1
 5115 15ea 51       		.byte	0x51
 5116 15eb 02       		.uleb128 0x2
 5117 15ec 74       		.byte	0x74
 5118 15ed 00       		.sleb128 0
 5119 15ee 00       		.byte	0
 5120 15ef 24       		.uleb128 0x24
 5121 15f0 CA000000 		.4byte	.LVL262
 5122 15f4 30120000 		.4byte	0x1230
 5123 15f8 09160000 		.4byte	0x1609
 5124 15fc 1E       		.uleb128 0x1e
 5125 15fd 01       		.uleb128 0x1
 5126 15fe 50       		.byte	0x50
 5127 15ff 02       		.uleb128 0x2
 5128 1600 76       		.byte	0x76
 5129 1601 00       		.sleb128 0
 5130 1602 1E       		.uleb128 0x1e
 5131 1603 01       		.uleb128 0x1
 5132 1604 51       		.byte	0x51
 5133 1605 02       		.uleb128 0x2
 5134 1606 74       		.byte	0x74
 5135 1607 00       		.sleb128 0
 5136 1608 00       		.byte	0
 5137 1609 1D       		.uleb128 0x1d
 5138 160a E6000000 		.4byte	.LVL269
 5139 160e 0C130000 		.4byte	0x130c
 5140 1612 1E       		.uleb128 0x1e
 5141 1613 01       		.uleb128 0x1
 5142 1614 50       		.byte	0x50
 5143 1615 02       		.uleb128 0x2
 5144 1616 76       		.byte	0x76
 5145 1617 00       		.sleb128 0
 5146 1618 1E       		.uleb128 0x1e
 5147 1619 01       		.uleb128 0x1
 5148 161a 51       		.byte	0x51
 5149 161b 02       		.uleb128 0x2
 5150 161c 75       		.byte	0x75
 5151 161d 00       		.sleb128 0
ARM GAS  C:\Users\Phuong\AppData\Local\Temp\cczAUGdE.s 			page 116


 5152 161e 1E       		.uleb128 0x1e
 5153 161f 01       		.uleb128 0x1
 5154 1620 52       		.byte	0x52
 5155 1621 02       		.uleb128 0x2
 5156 1622 74       		.byte	0x74
 5157 1623 00       		.sleb128 0
 5158 1624 00       		.byte	0
 5159 1625 00       		.byte	0
 5160 1626 24       		.uleb128 0x24
 5161 1627 12000000 		.4byte	.LVL255
 5162 162b DD160000 		.4byte	0x16dd
 5163 162f 3A160000 		.4byte	0x163a
 5164 1633 1E       		.uleb128 0x1e
 5165 1634 01       		.uleb128 0x1
 5166 1635 51       		.byte	0x51
 5167 1636 02       		.uleb128 0x2
 5168 1637 76       		.byte	0x76
 5169 1638 00       		.sleb128 0
 5170 1639 00       		.byte	0
 5171 163a 1D       		.uleb128 0x1d
 5172 163b FC000000 		.4byte	.LVL272
 5173 163f D2160000 		.4byte	0x16d2
 5174 1643 1E       		.uleb128 0x1e
 5175 1644 01       		.uleb128 0x1
 5176 1645 50       		.byte	0x50
 5177 1646 02       		.uleb128 0x2
 5178 1647 76       		.byte	0x76
 5179 1648 00       		.sleb128 0
 5180 1649 1E       		.uleb128 0x1e
 5181 164a 01       		.uleb128 0x1
 5182 164b 51       		.byte	0x51
 5183 164c 02       		.uleb128 0x2
 5184 164d 74       		.byte	0x74
 5185 164e 00       		.sleb128 0
 5186 164f 1E       		.uleb128 0x1e
 5187 1650 01       		.uleb128 0x1
 5188 1651 52       		.byte	0x52
 5189 1652 02       		.uleb128 0x2
 5190 1653 76       		.byte	0x76
 5191 1654 37       		.sleb128 55
 5192 1655 1E       		.uleb128 0x1e
 5193 1656 02       		.uleb128 0x2
 5194 1657 7D       		.byte	0x7d
 5195 1658 00       		.sleb128 0
 5196 1659 03       		.uleb128 0x3
 5197 165a 0A       		.byte	0xa
 5198 165b 0008     		.2byte	0x800
 5199 165d 00       		.byte	0
 5200 165e 00       		.byte	0
 5201 165f 08       		.uleb128 0x8
 5202 1660 7C090000 		.4byte	0x97c
 5203 1664 6F160000 		.4byte	0x166f
 5204 1668 09       		.uleb128 0x9
 5205 1669 8A000000 		.4byte	0x8a
 5206 166d 09       		.byte	0x9
 5207 166e 00       		.byte	0
 5208 166f 2F       		.uleb128 0x2f
ARM GAS  C:\Users\Phuong\AppData\Local\Temp\cczAUGdE.s 			page 117


 5209 1670 CF030000 		.4byte	.LASF226
 5210 1674 01       		.byte	0x1
 5211 1675 6A       		.byte	0x6a
 5212 1676 5F160000 		.4byte	0x165f
 5213 167a 05       		.uleb128 0x5
 5214 167b 03       		.byte	0x3
 5215 167c 00000000 		.4byte	arp_table
 5216 1680 2F       		.uleb128 0x2f
 5217 1681 E2050000 		.4byte	.LASF227
 5218 1685 01       		.byte	0x1
 5219 1686 6D       		.byte	0x6d
 5220 1687 CC000000 		.4byte	0xcc
 5221 168b 05       		.uleb128 0x5
 5222 168c 03       		.byte	0x3
 5223 168d F0000000 		.4byte	etharp_cached_entry
 5224 1691 30       		.uleb128 0x30
 5225 1692 85010000 		.4byte	.LASF228
 5226 1696 0C       		.byte	0xc
 5227 1697 3001     		.2byte	0x130
 5228 1699 1C050000 		.4byte	0x51c
 5229 169d 31       		.uleb128 0x31
 5230 169e 09080000 		.4byte	.LASF229
 5231 16a2 11       		.byte	0x11
 5232 16a3 45       		.byte	0x45
 5233 16a4 5D0E0000 		.4byte	0xe5d
 5234 16a8 31       		.uleb128 0x31
 5235 16a9 A6090000 		.4byte	.LASF230
 5236 16ad 11       		.byte	0x11
 5237 16ae 45       		.byte	0x45
 5238 16af 5D0E0000 		.4byte	0xe5d
 5239 16b3 32       		.uleb128 0x32
 5240 16b4 A4060000 		.4byte	.LASF231
 5241 16b8 A4060000 		.4byte	.LASF231
 5242 16bc 07       		.byte	0x7
 5243 16bd E9       		.byte	0xe9
 5244 16be 32       		.uleb128 0x32
 5245 16bf 3D0B0000 		.4byte	.LASF232
 5246 16c3 3D0B0000 		.4byte	.LASF232
 5247 16c7 0B       		.byte	0xb
 5248 16c8 95       		.byte	0x95
 5249 16c9 33       		.uleb128 0x33
 5250 16ca 8D0B0000 		.4byte	.LASF243
 5251 16ce 8D0B0000 		.4byte	.LASF243
 5252 16d2 32       		.uleb128 0x32
 5253 16d3 0C0A0000 		.4byte	.LASF233
 5254 16d7 0C0A0000 		.4byte	.LASF233
 5255 16db 11       		.byte	0x11
 5256 16dc 43       		.byte	0x43
 5257 16dd 32       		.uleb128 0x32
 5258 16de D4000000 		.4byte	.LASF234
 5259 16e2 D4000000 		.4byte	.LASF234
 5260 16e6 08       		.byte	0x8
 5261 16e7 AE       		.byte	0xae
 5262 16e8 32       		.uleb128 0x32
 5263 16e9 99060000 		.4byte	.LASF235
 5264 16ed 99060000 		.4byte	.LASF235
 5265 16f1 07       		.byte	0x7
ARM GAS  C:\Users\Phuong\AppData\Local\Temp\cczAUGdE.s 			page 118


 5266 16f2 DF       		.byte	0xdf
 5267 16f3 32       		.uleb128 0x32
 5268 16f4 33080000 		.4byte	.LASF236
 5269 16f8 33080000 		.4byte	.LASF236
 5270 16fc 12       		.byte	0x12
 5271 16fd 55       		.byte	0x55
 5272 16fe 32       		.uleb128 0x32
 5273 16ff DE080000 		.4byte	.LASF237
 5274 1703 DE080000 		.4byte	.LASF237
 5275 1707 0B       		.byte	0xb
 5276 1708 90       		.byte	0x90
 5277 1709 32       		.uleb128 0x32
 5278 170a B2040000 		.4byte	.LASF238
 5279 170e B2040000 		.4byte	.LASF238
 5280 1712 07       		.byte	0x7
 5281 1713 EE       		.byte	0xee
 5282 1714 32       		.uleb128 0x32
 5283 1715 62090000 		.4byte	.LASF239
 5284 1719 62090000 		.4byte	.LASF239
 5285 171d 07       		.byte	0x7
 5286 171e E8       		.byte	0xe8
 5287 171f 00       		.byte	0
 5288              		.section	.debug_abbrev,"",%progbits
 5289              	.Ldebug_abbrev0:
 5290 0000 01       		.uleb128 0x1
 5291 0001 11       		.uleb128 0x11
 5292 0002 01       		.byte	0x1
 5293 0003 25       		.uleb128 0x25
 5294 0004 0E       		.uleb128 0xe
 5295 0005 13       		.uleb128 0x13
 5296 0006 0B       		.uleb128 0xb
 5297 0007 03       		.uleb128 0x3
 5298 0008 0E       		.uleb128 0xe
 5299 0009 1B       		.uleb128 0x1b
 5300 000a 0E       		.uleb128 0xe
 5301 000b 55       		.uleb128 0x55
 5302 000c 17       		.uleb128 0x17
 5303 000d 11       		.uleb128 0x11
 5304 000e 01       		.uleb128 0x1
 5305 000f 10       		.uleb128 0x10
 5306 0010 17       		.uleb128 0x17
 5307 0011 00       		.byte	0
 5308 0012 00       		.byte	0
 5309 0013 02       		.uleb128 0x2
 5310 0014 24       		.uleb128 0x24
 5311 0015 00       		.byte	0
 5312 0016 0B       		.uleb128 0xb
 5313 0017 0B       		.uleb128 0xb
 5314 0018 3E       		.uleb128 0x3e
 5315 0019 0B       		.uleb128 0xb
 5316 001a 03       		.uleb128 0x3
 5317 001b 0E       		.uleb128 0xe
 5318 001c 00       		.byte	0
 5319 001d 00       		.byte	0
 5320 001e 03       		.uleb128 0x3
 5321 001f 16       		.uleb128 0x16
 5322 0020 00       		.byte	0
ARM GAS  C:\Users\Phuong\AppData\Local\Temp\cczAUGdE.s 			page 119


 5323 0021 03       		.uleb128 0x3
 5324 0022 0E       		.uleb128 0xe
 5325 0023 3A       		.uleb128 0x3a
 5326 0024 0B       		.uleb128 0xb
 5327 0025 3B       		.uleb128 0x3b
 5328 0026 0B       		.uleb128 0xb
 5329 0027 49       		.uleb128 0x49
 5330 0028 13       		.uleb128 0x13
 5331 0029 00       		.byte	0
 5332 002a 00       		.byte	0
 5333 002b 04       		.uleb128 0x4
 5334 002c 24       		.uleb128 0x24
 5335 002d 00       		.byte	0
 5336 002e 0B       		.uleb128 0xb
 5337 002f 0B       		.uleb128 0xb
 5338 0030 3E       		.uleb128 0x3e
 5339 0031 0B       		.uleb128 0xb
 5340 0032 03       		.uleb128 0x3
 5341 0033 08       		.uleb128 0x8
 5342 0034 00       		.byte	0
 5343 0035 00       		.byte	0
 5344 0036 05       		.uleb128 0x5
 5345 0037 0F       		.uleb128 0xf
 5346 0038 00       		.byte	0
 5347 0039 0B       		.uleb128 0xb
 5348 003a 0B       		.uleb128 0xb
 5349 003b 00       		.byte	0
 5350 003c 00       		.byte	0
 5351 003d 06       		.uleb128 0x6
 5352 003e 0F       		.uleb128 0xf
 5353 003f 00       		.byte	0
 5354 0040 0B       		.uleb128 0xb
 5355 0041 0B       		.uleb128 0xb
 5356 0042 49       		.uleb128 0x49
 5357 0043 13       		.uleb128 0x13
 5358 0044 00       		.byte	0
 5359 0045 00       		.byte	0
 5360 0046 07       		.uleb128 0x7
 5361 0047 26       		.uleb128 0x26
 5362 0048 00       		.byte	0
 5363 0049 49       		.uleb128 0x49
 5364 004a 13       		.uleb128 0x13
 5365 004b 00       		.byte	0
 5366 004c 00       		.byte	0
 5367 004d 08       		.uleb128 0x8
 5368 004e 01       		.uleb128 0x1
 5369 004f 01       		.byte	0x1
 5370 0050 49       		.uleb128 0x49
 5371 0051 13       		.uleb128 0x13
 5372 0052 01       		.uleb128 0x1
 5373 0053 13       		.uleb128 0x13
 5374 0054 00       		.byte	0
 5375 0055 00       		.byte	0
 5376 0056 09       		.uleb128 0x9
 5377 0057 21       		.uleb128 0x21
 5378 0058 00       		.byte	0
 5379 0059 49       		.uleb128 0x49
ARM GAS  C:\Users\Phuong\AppData\Local\Temp\cczAUGdE.s 			page 120


 5380 005a 13       		.uleb128 0x13
 5381 005b 2F       		.uleb128 0x2f
 5382 005c 0B       		.uleb128 0xb
 5383 005d 00       		.byte	0
 5384 005e 00       		.byte	0
 5385 005f 0A       		.uleb128 0xa
 5386 0060 04       		.uleb128 0x4
 5387 0061 01       		.byte	0x1
 5388 0062 0B       		.uleb128 0xb
 5389 0063 0B       		.uleb128 0xb
 5390 0064 49       		.uleb128 0x49
 5391 0065 13       		.uleb128 0x13
 5392 0066 3A       		.uleb128 0x3a
 5393 0067 0B       		.uleb128 0xb
 5394 0068 3B       		.uleb128 0x3b
 5395 0069 0B       		.uleb128 0xb
 5396 006a 01       		.uleb128 0x1
 5397 006b 13       		.uleb128 0x13
 5398 006c 00       		.byte	0
 5399 006d 00       		.byte	0
 5400 006e 0B       		.uleb128 0xb
 5401 006f 28       		.uleb128 0x28
 5402 0070 00       		.byte	0
 5403 0071 03       		.uleb128 0x3
 5404 0072 0E       		.uleb128 0xe
 5405 0073 1C       		.uleb128 0x1c
 5406 0074 0B       		.uleb128 0xb
 5407 0075 00       		.byte	0
 5408 0076 00       		.byte	0
 5409 0077 0C       		.uleb128 0xc
 5410 0078 28       		.uleb128 0x28
 5411 0079 00       		.byte	0
 5412 007a 03       		.uleb128 0x3
 5413 007b 0E       		.uleb128 0xe
 5414 007c 1C       		.uleb128 0x1c
 5415 007d 0D       		.uleb128 0xd
 5416 007e 00       		.byte	0
 5417 007f 00       		.byte	0
 5418 0080 0D       		.uleb128 0xd
 5419 0081 13       		.uleb128 0x13
 5420 0082 01       		.byte	0x1
 5421 0083 03       		.uleb128 0x3
 5422 0084 0E       		.uleb128 0xe
 5423 0085 0B       		.uleb128 0xb
 5424 0086 0B       		.uleb128 0xb
 5425 0087 3A       		.uleb128 0x3a
 5426 0088 0B       		.uleb128 0xb
 5427 0089 3B       		.uleb128 0x3b
 5428 008a 0B       		.uleb128 0xb
 5429 008b 01       		.uleb128 0x1
 5430 008c 13       		.uleb128 0x13
 5431 008d 00       		.byte	0
 5432 008e 00       		.byte	0
 5433 008f 0E       		.uleb128 0xe
 5434 0090 0D       		.uleb128 0xd
 5435 0091 00       		.byte	0
 5436 0092 03       		.uleb128 0x3
ARM GAS  C:\Users\Phuong\AppData\Local\Temp\cczAUGdE.s 			page 121


 5437 0093 0E       		.uleb128 0xe
 5438 0094 3A       		.uleb128 0x3a
 5439 0095 0B       		.uleb128 0xb
 5440 0096 3B       		.uleb128 0x3b
 5441 0097 0B       		.uleb128 0xb
 5442 0098 49       		.uleb128 0x49
 5443 0099 13       		.uleb128 0x13
 5444 009a 38       		.uleb128 0x38
 5445 009b 0B       		.uleb128 0xb
 5446 009c 00       		.byte	0
 5447 009d 00       		.byte	0
 5448 009e 0F       		.uleb128 0xf
 5449 009f 0D       		.uleb128 0xd
 5450 00a0 00       		.byte	0
 5451 00a1 03       		.uleb128 0x3
 5452 00a2 08       		.uleb128 0x8
 5453 00a3 3A       		.uleb128 0x3a
 5454 00a4 0B       		.uleb128 0xb
 5455 00a5 3B       		.uleb128 0x3b
 5456 00a6 0B       		.uleb128 0xb
 5457 00a7 49       		.uleb128 0x49
 5458 00a8 13       		.uleb128 0x13
 5459 00a9 38       		.uleb128 0x38
 5460 00aa 0B       		.uleb128 0xb
 5461 00ab 00       		.byte	0
 5462 00ac 00       		.byte	0
 5463 00ad 10       		.uleb128 0x10
 5464 00ae 13       		.uleb128 0x13
 5465 00af 01       		.byte	0x1
 5466 00b0 03       		.uleb128 0x3
 5467 00b1 0E       		.uleb128 0xe
 5468 00b2 0B       		.uleb128 0xb
 5469 00b3 05       		.uleb128 0x5
 5470 00b4 3A       		.uleb128 0x3a
 5471 00b5 0B       		.uleb128 0xb
 5472 00b6 3B       		.uleb128 0x3b
 5473 00b7 0B       		.uleb128 0xb
 5474 00b8 01       		.uleb128 0x1
 5475 00b9 13       		.uleb128 0x13
 5476 00ba 00       		.byte	0
 5477 00bb 00       		.byte	0
 5478 00bc 11       		.uleb128 0x11
 5479 00bd 0D       		.uleb128 0xd
 5480 00be 00       		.byte	0
 5481 00bf 03       		.uleb128 0x3
 5482 00c0 08       		.uleb128 0x8
 5483 00c1 3A       		.uleb128 0x3a
 5484 00c2 0B       		.uleb128 0xb
 5485 00c3 3B       		.uleb128 0x3b
 5486 00c4 05       		.uleb128 0x5
 5487 00c5 49       		.uleb128 0x49
 5488 00c6 13       		.uleb128 0x13
 5489 00c7 38       		.uleb128 0x38
 5490 00c8 0B       		.uleb128 0xb
 5491 00c9 00       		.byte	0
 5492 00ca 00       		.byte	0
 5493 00cb 12       		.uleb128 0x12
ARM GAS  C:\Users\Phuong\AppData\Local\Temp\cczAUGdE.s 			page 122


 5494 00cc 0D       		.uleb128 0xd
 5495 00cd 00       		.byte	0
 5496 00ce 03       		.uleb128 0x3
 5497 00cf 0E       		.uleb128 0xe
 5498 00d0 3A       		.uleb128 0x3a
 5499 00d1 0B       		.uleb128 0xb
 5500 00d2 3B       		.uleb128 0x3b
 5501 00d3 05       		.uleb128 0x5
 5502 00d4 49       		.uleb128 0x49
 5503 00d5 13       		.uleb128 0x13
 5504 00d6 38       		.uleb128 0x38
 5505 00d7 0B       		.uleb128 0xb
 5506 00d8 00       		.byte	0
 5507 00d9 00       		.byte	0
 5508 00da 13       		.uleb128 0x13
 5509 00db 0D       		.uleb128 0xd
 5510 00dc 00       		.byte	0
 5511 00dd 03       		.uleb128 0x3
 5512 00de 08       		.uleb128 0x8
 5513 00df 3A       		.uleb128 0x3a
 5514 00e0 0B       		.uleb128 0xb
 5515 00e1 3B       		.uleb128 0x3b
 5516 00e2 05       		.uleb128 0x5
 5517 00e3 49       		.uleb128 0x49
 5518 00e4 13       		.uleb128 0x13
 5519 00e5 38       		.uleb128 0x38
 5520 00e6 05       		.uleb128 0x5
 5521 00e7 00       		.byte	0
 5522 00e8 00       		.byte	0
 5523 00e9 14       		.uleb128 0x14
 5524 00ea 04       		.uleb128 0x4
 5525 00eb 01       		.byte	0x1
 5526 00ec 03       		.uleb128 0x3
 5527 00ed 0E       		.uleb128 0xe
 5528 00ee 0B       		.uleb128 0xb
 5529 00ef 0B       		.uleb128 0xb
 5530 00f0 49       		.uleb128 0x49
 5531 00f1 13       		.uleb128 0x13
 5532 00f2 3A       		.uleb128 0x3a
 5533 00f3 0B       		.uleb128 0xb
 5534 00f4 3B       		.uleb128 0x3b
 5535 00f5 0B       		.uleb128 0xb
 5536 00f6 01       		.uleb128 0x1
 5537 00f7 13       		.uleb128 0x13
 5538 00f8 00       		.byte	0
 5539 00f9 00       		.byte	0
 5540 00fa 15       		.uleb128 0x15
 5541 00fb 15       		.uleb128 0x15
 5542 00fc 01       		.byte	0x1
 5543 00fd 27       		.uleb128 0x27
 5544 00fe 19       		.uleb128 0x19
 5545 00ff 49       		.uleb128 0x49
 5546 0100 13       		.uleb128 0x13
 5547 0101 01       		.uleb128 0x1
 5548 0102 13       		.uleb128 0x13
 5549 0103 00       		.byte	0
 5550 0104 00       		.byte	0
ARM GAS  C:\Users\Phuong\AppData\Local\Temp\cczAUGdE.s 			page 123


 5551 0105 16       		.uleb128 0x16
 5552 0106 05       		.uleb128 0x5
 5553 0107 00       		.byte	0
 5554 0108 49       		.uleb128 0x49
 5555 0109 13       		.uleb128 0x13
 5556 010a 00       		.byte	0
 5557 010b 00       		.byte	0
 5558 010c 17       		.uleb128 0x17
 5559 010d 15       		.uleb128 0x15
 5560 010e 01       		.byte	0x1
 5561 010f 27       		.uleb128 0x27
 5562 0110 19       		.uleb128 0x19
 5563 0111 01       		.uleb128 0x1
 5564 0112 13       		.uleb128 0x13
 5565 0113 00       		.byte	0
 5566 0114 00       		.byte	0
 5567 0115 18       		.uleb128 0x18
 5568 0116 28       		.uleb128 0x28
 5569 0117 00       		.byte	0
 5570 0118 03       		.uleb128 0x3
 5571 0119 0E       		.uleb128 0xe
 5572 011a 1C       		.uleb128 0x1c
 5573 011b 05       		.uleb128 0x5
 5574 011c 00       		.byte	0
 5575 011d 00       		.byte	0
 5576 011e 19       		.uleb128 0x19
 5577 011f 2E       		.uleb128 0x2e
 5578 0120 01       		.byte	0x1
 5579 0121 03       		.uleb128 0x3
 5580 0122 0E       		.uleb128 0xe
 5581 0123 3A       		.uleb128 0x3a
 5582 0124 0B       		.uleb128 0xb
 5583 0125 3B       		.uleb128 0x3b
 5584 0126 0B       		.uleb128 0xb
 5585 0127 27       		.uleb128 0x27
 5586 0128 19       		.uleb128 0x19
 5587 0129 11       		.uleb128 0x11
 5588 012a 01       		.uleb128 0x1
 5589 012b 12       		.uleb128 0x12
 5590 012c 06       		.uleb128 0x6
 5591 012d 40       		.uleb128 0x40
 5592 012e 18       		.uleb128 0x18
 5593 012f 9742     		.uleb128 0x2117
 5594 0131 19       		.uleb128 0x19
 5595 0132 01       		.uleb128 0x1
 5596 0133 13       		.uleb128 0x13
 5597 0134 00       		.byte	0
 5598 0135 00       		.byte	0
 5599 0136 1A       		.uleb128 0x1a
 5600 0137 05       		.uleb128 0x5
 5601 0138 00       		.byte	0
 5602 0139 03       		.uleb128 0x3
 5603 013a 08       		.uleb128 0x8
 5604 013b 3A       		.uleb128 0x3a
 5605 013c 0B       		.uleb128 0xb
 5606 013d 3B       		.uleb128 0x3b
 5607 013e 0B       		.uleb128 0xb
ARM GAS  C:\Users\Phuong\AppData\Local\Temp\cczAUGdE.s 			page 124


 5608 013f 49       		.uleb128 0x49
 5609 0140 13       		.uleb128 0x13
 5610 0141 02       		.uleb128 0x2
 5611 0142 17       		.uleb128 0x17
 5612 0143 00       		.byte	0
 5613 0144 00       		.byte	0
 5614 0145 1B       		.uleb128 0x1b
 5615 0146 34       		.uleb128 0x34
 5616 0147 00       		.byte	0
 5617 0148 03       		.uleb128 0x3
 5618 0149 08       		.uleb128 0x8
 5619 014a 3A       		.uleb128 0x3a
 5620 014b 0B       		.uleb128 0xb
 5621 014c 3B       		.uleb128 0x3b
 5622 014d 0B       		.uleb128 0xb
 5623 014e 49       		.uleb128 0x49
 5624 014f 13       		.uleb128 0x13
 5625 0150 02       		.uleb128 0x2
 5626 0151 17       		.uleb128 0x17
 5627 0152 00       		.byte	0
 5628 0153 00       		.byte	0
 5629 0154 1C       		.uleb128 0x1c
 5630 0155 898201   		.uleb128 0x4109
 5631 0158 00       		.byte	0
 5632 0159 11       		.uleb128 0x11
 5633 015a 01       		.uleb128 0x1
 5634 015b 31       		.uleb128 0x31
 5635 015c 13       		.uleb128 0x13
 5636 015d 00       		.byte	0
 5637 015e 00       		.byte	0
 5638 015f 1D       		.uleb128 0x1d
 5639 0160 898201   		.uleb128 0x4109
 5640 0163 01       		.byte	0x1
 5641 0164 11       		.uleb128 0x11
 5642 0165 01       		.uleb128 0x1
 5643 0166 31       		.uleb128 0x31
 5644 0167 13       		.uleb128 0x13
 5645 0168 00       		.byte	0
 5646 0169 00       		.byte	0
 5647 016a 1E       		.uleb128 0x1e
 5648 016b 8A8201   		.uleb128 0x410a
 5649 016e 00       		.byte	0
 5650 016f 02       		.uleb128 0x2
 5651 0170 18       		.uleb128 0x18
 5652 0171 9142     		.uleb128 0x2111
 5653 0173 18       		.uleb128 0x18
 5654 0174 00       		.byte	0
 5655 0175 00       		.byte	0
 5656 0176 1F       		.uleb128 0x1f
 5657 0177 2E       		.uleb128 0x2e
 5658 0178 01       		.byte	0x1
 5659 0179 03       		.uleb128 0x3
 5660 017a 0E       		.uleb128 0xe
 5661 017b 3A       		.uleb128 0x3a
 5662 017c 0B       		.uleb128 0xb
 5663 017d 3B       		.uleb128 0x3b
 5664 017e 05       		.uleb128 0x5
ARM GAS  C:\Users\Phuong\AppData\Local\Temp\cczAUGdE.s 			page 125


 5665 017f 27       		.uleb128 0x27
 5666 0180 19       		.uleb128 0x19
 5667 0181 49       		.uleb128 0x49
 5668 0182 13       		.uleb128 0x13
 5669 0183 11       		.uleb128 0x11
 5670 0184 01       		.uleb128 0x1
 5671 0185 12       		.uleb128 0x12
 5672 0186 06       		.uleb128 0x6
 5673 0187 40       		.uleb128 0x40
 5674 0188 18       		.uleb128 0x18
 5675 0189 9742     		.uleb128 0x2117
 5676 018b 19       		.uleb128 0x19
 5677 018c 01       		.uleb128 0x1
 5678 018d 13       		.uleb128 0x13
 5679 018e 00       		.byte	0
 5680 018f 00       		.byte	0
 5681 0190 20       		.uleb128 0x20
 5682 0191 05       		.uleb128 0x5
 5683 0192 00       		.byte	0
 5684 0193 03       		.uleb128 0x3
 5685 0194 0E       		.uleb128 0xe
 5686 0195 3A       		.uleb128 0x3a
 5687 0196 0B       		.uleb128 0xb
 5688 0197 3B       		.uleb128 0x3b
 5689 0198 05       		.uleb128 0x5
 5690 0199 49       		.uleb128 0x49
 5691 019a 13       		.uleb128 0x13
 5692 019b 02       		.uleb128 0x2
 5693 019c 17       		.uleb128 0x17
 5694 019d 00       		.byte	0
 5695 019e 00       		.byte	0
 5696 019f 21       		.uleb128 0x21
 5697 01a0 34       		.uleb128 0x34
 5698 01a1 00       		.byte	0
 5699 01a2 03       		.uleb128 0x3
 5700 01a3 0E       		.uleb128 0xe
 5701 01a4 3A       		.uleb128 0x3a
 5702 01a5 0B       		.uleb128 0xb
 5703 01a6 3B       		.uleb128 0x3b
 5704 01a7 05       		.uleb128 0x5
 5705 01a8 49       		.uleb128 0x49
 5706 01a9 13       		.uleb128 0x13
 5707 01aa 02       		.uleb128 0x2
 5708 01ab 17       		.uleb128 0x17
 5709 01ac 00       		.byte	0
 5710 01ad 00       		.byte	0
 5711 01ae 22       		.uleb128 0x22
 5712 01af 34       		.uleb128 0x34
 5713 01b0 00       		.byte	0
 5714 01b1 03       		.uleb128 0x3
 5715 01b2 08       		.uleb128 0x8
 5716 01b3 3A       		.uleb128 0x3a
 5717 01b4 0B       		.uleb128 0xb
 5718 01b5 3B       		.uleb128 0x3b
 5719 01b6 05       		.uleb128 0x5
 5720 01b7 49       		.uleb128 0x49
 5721 01b8 13       		.uleb128 0x13
ARM GAS  C:\Users\Phuong\AppData\Local\Temp\cczAUGdE.s 			page 126


 5722 01b9 02       		.uleb128 0x2
 5723 01ba 17       		.uleb128 0x17
 5724 01bb 00       		.byte	0
 5725 01bc 00       		.byte	0
 5726 01bd 23       		.uleb128 0x23
 5727 01be 0B       		.uleb128 0xb
 5728 01bf 01       		.byte	0x1
 5729 01c0 11       		.uleb128 0x11
 5730 01c1 01       		.uleb128 0x1
 5731 01c2 12       		.uleb128 0x12
 5732 01c3 06       		.uleb128 0x6
 5733 01c4 01       		.uleb128 0x1
 5734 01c5 13       		.uleb128 0x13
 5735 01c6 00       		.byte	0
 5736 01c7 00       		.byte	0
 5737 01c8 24       		.uleb128 0x24
 5738 01c9 898201   		.uleb128 0x4109
 5739 01cc 01       		.byte	0x1
 5740 01cd 11       		.uleb128 0x11
 5741 01ce 01       		.uleb128 0x1
 5742 01cf 31       		.uleb128 0x31
 5743 01d0 13       		.uleb128 0x13
 5744 01d1 01       		.uleb128 0x1
 5745 01d2 13       		.uleb128 0x13
 5746 01d3 00       		.byte	0
 5747 01d4 00       		.byte	0
 5748 01d5 25       		.uleb128 0x25
 5749 01d6 05       		.uleb128 0x5
 5750 01d7 00       		.byte	0
 5751 01d8 03       		.uleb128 0x3
 5752 01d9 0E       		.uleb128 0xe
 5753 01da 3A       		.uleb128 0x3a
 5754 01db 0B       		.uleb128 0xb
 5755 01dc 3B       		.uleb128 0x3b
 5756 01dd 05       		.uleb128 0x5
 5757 01de 49       		.uleb128 0x49
 5758 01df 13       		.uleb128 0x13
 5759 01e0 02       		.uleb128 0x2
 5760 01e1 18       		.uleb128 0x18
 5761 01e2 00       		.byte	0
 5762 01e3 00       		.byte	0
 5763 01e4 26       		.uleb128 0x26
 5764 01e5 34       		.uleb128 0x34
 5765 01e6 00       		.byte	0
 5766 01e7 03       		.uleb128 0x3
 5767 01e8 0E       		.uleb128 0xe
 5768 01e9 3A       		.uleb128 0x3a
 5769 01ea 0B       		.uleb128 0xb
 5770 01eb 3B       		.uleb128 0x3b
 5771 01ec 05       		.uleb128 0x5
 5772 01ed 49       		.uleb128 0x49
 5773 01ee 13       		.uleb128 0x13
 5774 01ef 1C       		.uleb128 0x1c
 5775 01f0 0B       		.uleb128 0xb
 5776 01f1 00       		.byte	0
 5777 01f2 00       		.byte	0
 5778 01f3 27       		.uleb128 0x27
ARM GAS  C:\Users\Phuong\AppData\Local\Temp\cczAUGdE.s 			page 127


 5779 01f4 2E       		.uleb128 0x2e
 5780 01f5 01       		.byte	0x1
 5781 01f6 3F       		.uleb128 0x3f
 5782 01f7 19       		.uleb128 0x19
 5783 01f8 03       		.uleb128 0x3
 5784 01f9 0E       		.uleb128 0xe
 5785 01fa 3A       		.uleb128 0x3a
 5786 01fb 0B       		.uleb128 0xb
 5787 01fc 3B       		.uleb128 0x3b
 5788 01fd 05       		.uleb128 0x5
 5789 01fe 27       		.uleb128 0x27
 5790 01ff 19       		.uleb128 0x19
 5791 0200 11       		.uleb128 0x11
 5792 0201 01       		.uleb128 0x1
 5793 0202 12       		.uleb128 0x12
 5794 0203 06       		.uleb128 0x6
 5795 0204 40       		.uleb128 0x40
 5796 0205 18       		.uleb128 0x18
 5797 0206 9742     		.uleb128 0x2117
 5798 0208 19       		.uleb128 0x19
 5799 0209 01       		.uleb128 0x1
 5800 020a 13       		.uleb128 0x13
 5801 020b 00       		.byte	0
 5802 020c 00       		.byte	0
 5803 020d 28       		.uleb128 0x28
 5804 020e 0B       		.uleb128 0xb
 5805 020f 01       		.byte	0x1
 5806 0210 11       		.uleb128 0x11
 5807 0211 01       		.uleb128 0x1
 5808 0212 12       		.uleb128 0x12
 5809 0213 06       		.uleb128 0x6
 5810 0214 00       		.byte	0
 5811 0215 00       		.byte	0
 5812 0216 29       		.uleb128 0x29
 5813 0217 2E       		.uleb128 0x2e
 5814 0218 01       		.byte	0x1
 5815 0219 3F       		.uleb128 0x3f
 5816 021a 19       		.uleb128 0x19
 5817 021b 03       		.uleb128 0x3
 5818 021c 0E       		.uleb128 0xe
 5819 021d 3A       		.uleb128 0x3a
 5820 021e 0B       		.uleb128 0xb
 5821 021f 3B       		.uleb128 0x3b
 5822 0220 05       		.uleb128 0x5
 5823 0221 27       		.uleb128 0x27
 5824 0222 19       		.uleb128 0x19
 5825 0223 49       		.uleb128 0x49
 5826 0224 13       		.uleb128 0x13
 5827 0225 11       		.uleb128 0x11
 5828 0226 01       		.uleb128 0x1
 5829 0227 12       		.uleb128 0x12
 5830 0228 06       		.uleb128 0x6
 5831 0229 40       		.uleb128 0x40
 5832 022a 18       		.uleb128 0x18
 5833 022b 9742     		.uleb128 0x2117
 5834 022d 19       		.uleb128 0x19
 5835 022e 01       		.uleb128 0x1
ARM GAS  C:\Users\Phuong\AppData\Local\Temp\cczAUGdE.s 			page 128


 5836 022f 13       		.uleb128 0x13
 5837 0230 00       		.byte	0
 5838 0231 00       		.byte	0
 5839 0232 2A       		.uleb128 0x2a
 5840 0233 05       		.uleb128 0x5
 5841 0234 00       		.byte	0
 5842 0235 03       		.uleb128 0x3
 5843 0236 08       		.uleb128 0x8
 5844 0237 3A       		.uleb128 0x3a
 5845 0238 0B       		.uleb128 0xb
 5846 0239 3B       		.uleb128 0x3b
 5847 023a 05       		.uleb128 0x5
 5848 023b 49       		.uleb128 0x49
 5849 023c 13       		.uleb128 0x13
 5850 023d 02       		.uleb128 0x2
 5851 023e 17       		.uleb128 0x17
 5852 023f 00       		.byte	0
 5853 0240 00       		.byte	0
 5854 0241 2B       		.uleb128 0x2b
 5855 0242 34       		.uleb128 0x34
 5856 0243 00       		.byte	0
 5857 0244 03       		.uleb128 0x3
 5858 0245 0E       		.uleb128 0xe
 5859 0246 3A       		.uleb128 0x3a
 5860 0247 0B       		.uleb128 0xb
 5861 0248 3B       		.uleb128 0x3b
 5862 0249 05       		.uleb128 0x5
 5863 024a 49       		.uleb128 0x49
 5864 024b 13       		.uleb128 0x13
 5865 024c 02       		.uleb128 0x2
 5866 024d 18       		.uleb128 0x18
 5867 024e 00       		.byte	0
 5868 024f 00       		.byte	0
 5869 0250 2C       		.uleb128 0x2c
 5870 0251 2E       		.uleb128 0x2e
 5871 0252 01       		.byte	0x1
 5872 0253 3F       		.uleb128 0x3f
 5873 0254 19       		.uleb128 0x19
 5874 0255 03       		.uleb128 0x3
 5875 0256 0E       		.uleb128 0xe
 5876 0257 3A       		.uleb128 0x3a
 5877 0258 0B       		.uleb128 0xb
 5878 0259 3B       		.uleb128 0x3b
 5879 025a 0B       		.uleb128 0xb
 5880 025b 27       		.uleb128 0x27
 5881 025c 19       		.uleb128 0x19
 5882 025d 11       		.uleb128 0x11
 5883 025e 01       		.uleb128 0x1
 5884 025f 12       		.uleb128 0x12
 5885 0260 06       		.uleb128 0x6
 5886 0261 40       		.uleb128 0x40
 5887 0262 18       		.uleb128 0x18
 5888 0263 9742     		.uleb128 0x2117
 5889 0265 19       		.uleb128 0x19
 5890 0266 01       		.uleb128 0x1
 5891 0267 13       		.uleb128 0x13
 5892 0268 00       		.byte	0
ARM GAS  C:\Users\Phuong\AppData\Local\Temp\cczAUGdE.s 			page 129


 5893 0269 00       		.byte	0
 5894 026a 2D       		.uleb128 0x2d
 5895 026b 34       		.uleb128 0x34
 5896 026c 00       		.byte	0
 5897 026d 03       		.uleb128 0x3
 5898 026e 0E       		.uleb128 0xe
 5899 026f 3A       		.uleb128 0x3a
 5900 0270 0B       		.uleb128 0xb
 5901 0271 3B       		.uleb128 0x3b
 5902 0272 0B       		.uleb128 0xb
 5903 0273 49       		.uleb128 0x49
 5904 0274 13       		.uleb128 0x13
 5905 0275 02       		.uleb128 0x2
 5906 0276 17       		.uleb128 0x17
 5907 0277 00       		.byte	0
 5908 0278 00       		.byte	0
 5909 0279 2E       		.uleb128 0x2e
 5910 027a 0B       		.uleb128 0xb
 5911 027b 01       		.byte	0x1
 5912 027c 55       		.uleb128 0x55
 5913 027d 17       		.uleb128 0x17
 5914 027e 01       		.uleb128 0x1
 5915 027f 13       		.uleb128 0x13
 5916 0280 00       		.byte	0
 5917 0281 00       		.byte	0
 5918 0282 2F       		.uleb128 0x2f
 5919 0283 34       		.uleb128 0x34
 5920 0284 00       		.byte	0
 5921 0285 03       		.uleb128 0x3
 5922 0286 0E       		.uleb128 0xe
 5923 0287 3A       		.uleb128 0x3a
 5924 0288 0B       		.uleb128 0xb
 5925 0289 3B       		.uleb128 0x3b
 5926 028a 0B       		.uleb128 0xb
 5927 028b 49       		.uleb128 0x49
 5928 028c 13       		.uleb128 0x13
 5929 028d 02       		.uleb128 0x2
 5930 028e 18       		.uleb128 0x18
 5931 028f 00       		.byte	0
 5932 0290 00       		.byte	0
 5933 0291 30       		.uleb128 0x30
 5934 0292 34       		.uleb128 0x34
 5935 0293 00       		.byte	0
 5936 0294 03       		.uleb128 0x3
 5937 0295 0E       		.uleb128 0xe
 5938 0296 3A       		.uleb128 0x3a
 5939 0297 0B       		.uleb128 0xb
 5940 0298 3B       		.uleb128 0x3b
 5941 0299 05       		.uleb128 0x5
 5942 029a 49       		.uleb128 0x49
 5943 029b 13       		.uleb128 0x13
 5944 029c 3F       		.uleb128 0x3f
 5945 029d 19       		.uleb128 0x19
 5946 029e 3C       		.uleb128 0x3c
 5947 029f 19       		.uleb128 0x19
 5948 02a0 00       		.byte	0
 5949 02a1 00       		.byte	0
ARM GAS  C:\Users\Phuong\AppData\Local\Temp\cczAUGdE.s 			page 130


 5950 02a2 31       		.uleb128 0x31
 5951 02a3 34       		.uleb128 0x34
 5952 02a4 00       		.byte	0
 5953 02a5 03       		.uleb128 0x3
 5954 02a6 0E       		.uleb128 0xe
 5955 02a7 3A       		.uleb128 0x3a
 5956 02a8 0B       		.uleb128 0xb
 5957 02a9 3B       		.uleb128 0x3b
 5958 02aa 0B       		.uleb128 0xb
 5959 02ab 49       		.uleb128 0x49
 5960 02ac 13       		.uleb128 0x13
 5961 02ad 3F       		.uleb128 0x3f
 5962 02ae 19       		.uleb128 0x19
 5963 02af 3C       		.uleb128 0x3c
 5964 02b0 19       		.uleb128 0x19
 5965 02b1 00       		.byte	0
 5966 02b2 00       		.byte	0
 5967 02b3 32       		.uleb128 0x32
 5968 02b4 2E       		.uleb128 0x2e
 5969 02b5 00       		.byte	0
 5970 02b6 3F       		.uleb128 0x3f
 5971 02b7 19       		.uleb128 0x19
 5972 02b8 3C       		.uleb128 0x3c
 5973 02b9 19       		.uleb128 0x19
 5974 02ba 6E       		.uleb128 0x6e
 5975 02bb 0E       		.uleb128 0xe
 5976 02bc 03       		.uleb128 0x3
 5977 02bd 0E       		.uleb128 0xe
 5978 02be 3A       		.uleb128 0x3a
 5979 02bf 0B       		.uleb128 0xb
 5980 02c0 3B       		.uleb128 0x3b
 5981 02c1 0B       		.uleb128 0xb
 5982 02c2 00       		.byte	0
 5983 02c3 00       		.byte	0
 5984 02c4 33       		.uleb128 0x33
 5985 02c5 2E       		.uleb128 0x2e
 5986 02c6 00       		.byte	0
 5987 02c7 3F       		.uleb128 0x3f
 5988 02c8 19       		.uleb128 0x19
 5989 02c9 3C       		.uleb128 0x3c
 5990 02ca 19       		.uleb128 0x19
 5991 02cb 6E       		.uleb128 0x6e
 5992 02cc 0E       		.uleb128 0xe
 5993 02cd 03       		.uleb128 0x3
 5994 02ce 0E       		.uleb128 0xe
 5995 02cf 00       		.byte	0
 5996 02d0 00       		.byte	0
 5997 02d1 00       		.byte	0
 5998              		.section	.debug_loc,"",%progbits
 5999              	.Ldebug_loc0:
 6000              	.LLST0:
 6001 0000 00000000 		.4byte	.LVL0
 6002 0004 06000000 		.4byte	.LVL1
 6003 0008 0100     		.2byte	0x1
 6004 000a 50       		.byte	0x50
 6005 000b 06000000 		.4byte	.LVL1
 6006 000f 08000000 		.4byte	.LVL2
ARM GAS  C:\Users\Phuong\AppData\Local\Temp\cczAUGdE.s 			page 131


 6007 0013 0100     		.2byte	0x1
 6008 0015 54       		.byte	0x54
 6009 0016 08000000 		.4byte	.LVL2
 6010 001a 18000000 		.4byte	.LVL5
 6011 001e 0100     		.2byte	0x1
 6012 0020 55       		.byte	0x55
 6013 0021 18000000 		.4byte	.LVL5
 6014 0025 1C000000 		.4byte	.LVL6
 6015 0029 0100     		.2byte	0x1
 6016 002b 54       		.byte	0x54
 6017 002c 00000000 		.4byte	0
 6018 0030 00000000 		.4byte	0
 6019              	.LLST1:
 6020 0034 06000000 		.4byte	.LVL1
 6021 0038 18000000 		.4byte	.LVL5
 6022 003c 0100     		.2byte	0x1
 6023 003e 54       		.byte	0x54
 6024 003f 00000000 		.4byte	0
 6025 0043 00000000 		.4byte	0
 6026              	.LLST2:
 6027 0047 00000000 		.4byte	.LVL7
 6028 004b 0E000000 		.4byte	.LVL8
 6029 004f 0100     		.2byte	0x1
 6030 0051 50       		.byte	0x50
 6031 0052 0E000000 		.4byte	.LVL8
 6032 0056 38000000 		.4byte	.LVL10
 6033 005a 0100     		.2byte	0x1
 6034 005c 54       		.byte	0x54
 6035 005d 38000000 		.4byte	.LVL10
 6036 0061 54000000 		.4byte	.LFE54
 6037 0065 0400     		.2byte	0x4
 6038 0067 F3       		.byte	0xf3
 6039 0068 01       		.uleb128 0x1
 6040 0069 50       		.byte	0x50
 6041 006a 9F       		.byte	0x9f
 6042 006b 00000000 		.4byte	0
 6043 006f 00000000 		.4byte	0
 6044              	.LLST3:
 6045 0073 00000000 		.4byte	.LVL12
 6046 0077 20000000 		.4byte	.LVL15
 6047 007b 0100     		.2byte	0x1
 6048 007d 50       		.byte	0x50
 6049 007e 20000000 		.4byte	.LVL15
 6050 0082 44010000 		.4byte	.LVL52
 6051 0086 0100     		.2byte	0x1
 6052 0088 57       		.byte	0x57
 6053 0089 44010000 		.4byte	.LVL52
 6054 008d 54010000 		.4byte	.LFE56
 6055 0091 0400     		.2byte	0x4
 6056 0093 F3       		.byte	0xf3
 6057 0094 01       		.uleb128 0x1
 6058 0095 50       		.byte	0x50
 6059 0096 9F       		.byte	0x9f
 6060 0097 00000000 		.4byte	0
 6061 009b 00000000 		.4byte	0
 6062              	.LLST4:
 6063 009f 00000000 		.4byte	.LVL12
ARM GAS  C:\Users\Phuong\AppData\Local\Temp\cczAUGdE.s 			page 132


 6064 00a3 14000000 		.4byte	.LVL14
 6065 00a7 0100     		.2byte	0x1
 6066 00a9 51       		.byte	0x51
 6067 00aa 14000000 		.4byte	.LVL14
 6068 00ae 54010000 		.4byte	.LFE56
 6069 00b2 0400     		.2byte	0x4
 6070 00b4 F3       		.byte	0xf3
 6071 00b5 01       		.uleb128 0x1
 6072 00b6 51       		.byte	0x51
 6073 00b7 9F       		.byte	0x9f
 6074 00b8 00000000 		.4byte	0
 6075 00bc 00000000 		.4byte	0
 6076              	.LLST5:
 6077 00c0 00000000 		.4byte	.LVL12
 6078 00c4 28000000 		.4byte	.LVL16
 6079 00c8 0100     		.2byte	0x1
 6080 00ca 52       		.byte	0x52
 6081 00cb 28000000 		.4byte	.LVL16
 6082 00cf 54010000 		.4byte	.LFE56
 6083 00d3 0400     		.2byte	0x4
 6084 00d5 F3       		.byte	0xf3
 6085 00d6 01       		.uleb128 0x1
 6086 00d7 52       		.byte	0x52
 6087 00d8 9F       		.byte	0x9f
 6088 00d9 00000000 		.4byte	0
 6089 00dd 00000000 		.4byte	0
 6090              	.LLST6:
 6091 00e1 12000000 		.4byte	.LVL13
 6092 00e5 28000000 		.4byte	.LVL16
 6093 00e9 0200     		.2byte	0x2
 6094 00eb 3A       		.byte	0x3a
 6095 00ec 9F       		.byte	0x9f
 6096 00ed 28000000 		.4byte	.LVL16
 6097 00f1 44010000 		.4byte	.LVL56
 6098 00f5 0100     		.2byte	0x1
 6099 00f7 5B       		.byte	0x5b
 6100 00f8 00000000 		.4byte	0
 6101 00fc 00000000 		.4byte	0
 6102              	.LLST7:
 6103 0100 12000000 		.4byte	.LVL13
 6104 0104 28000000 		.4byte	.LVL16
 6105 0108 0200     		.2byte	0x2
 6106 010a 3A       		.byte	0x3a
 6107 010b 9F       		.byte	0x9f
 6108 010c 28000000 		.4byte	.LVL16
 6109 0110 0B010000 		.4byte	.LVL44-1
 6110 0114 0100     		.2byte	0x1
 6111 0116 5C       		.byte	0x5c
 6112 0117 32010000 		.4byte	.LVL45
 6113 011b 42010000 		.4byte	.LVL51
 6114 011f 0100     		.2byte	0x1
 6115 0121 5C       		.byte	0x5c
 6116 0122 00000000 		.4byte	0
 6117 0126 00000000 		.4byte	0
 6118              	.LLST8:
 6119 012a 12000000 		.4byte	.LVL13
 6120 012e 28000000 		.4byte	.LVL16
ARM GAS  C:\Users\Phuong\AppData\Local\Temp\cczAUGdE.s 			page 133


 6121 0132 0200     		.2byte	0x2
 6122 0134 3A       		.byte	0x3a
 6123 0135 9F       		.byte	0x9f
 6124 0136 28000000 		.4byte	.LVL16
 6125 013a E6000000 		.4byte	.LVL39
 6126 013e 0100     		.2byte	0x1
 6127 0140 56       		.byte	0x56
 6128 0141 E8000000 		.4byte	.LVL40
 6129 0145 F6000000 		.4byte	.LVL41
 6130 0149 0100     		.2byte	0x1
 6131 014b 56       		.byte	0x56
 6132 014c F8000000 		.4byte	.LVL42
 6133 0150 06010000 		.4byte	.LVL43
 6134 0154 0100     		.2byte	0x1
 6135 0156 56       		.byte	0x56
 6136 0157 32010000 		.4byte	.LVL45
 6137 015b 42010000 		.4byte	.LVL51
 6138 015f 0100     		.2byte	0x1
 6139 0161 56       		.byte	0x56
 6140 0162 00000000 		.4byte	0
 6141 0166 00000000 		.4byte	0
 6142              	.LLST9:
 6143 016a 12000000 		.4byte	.LVL13
 6144 016e 28000000 		.4byte	.LVL16
 6145 0172 0200     		.2byte	0x2
 6146 0174 30       		.byte	0x30
 6147 0175 9F       		.byte	0x9f
 6148 0176 28000000 		.4byte	.LVL16
 6149 017a BA000000 		.4byte	.LVL35
 6150 017e 0100     		.2byte	0x1
 6151 0180 50       		.byte	0x50
 6152 0181 BC000000 		.4byte	.LVL36
 6153 0185 D6000000 		.4byte	.LVL37
 6154 0189 0100     		.2byte	0x1
 6155 018b 50       		.byte	0x50
 6156 018c D6000000 		.4byte	.LVL37
 6157 0190 D8000000 		.4byte	.LVL38
 6158 0194 0100     		.2byte	0x1
 6159 0196 56       		.byte	0x56
 6160 0197 D8000000 		.4byte	.LVL38
 6161 019b E6000000 		.4byte	.LVL39
 6162 019f 0100     		.2byte	0x1
 6163 01a1 50       		.byte	0x50
 6164 01a2 E6000000 		.4byte	.LVL39
 6165 01a6 E8000000 		.4byte	.LVL40
 6166 01aa 0100     		.2byte	0x1
 6167 01ac 56       		.byte	0x56
 6168 01ad E8000000 		.4byte	.LVL40
 6169 01b1 F6000000 		.4byte	.LVL41
 6170 01b5 0100     		.2byte	0x1
 6171 01b7 50       		.byte	0x50
 6172 01b8 F6000000 		.4byte	.LVL41
 6173 01bc F8000000 		.4byte	.LVL42
 6174 01c0 0100     		.2byte	0x1
 6175 01c2 56       		.byte	0x56
 6176 01c3 F8000000 		.4byte	.LVL42
 6177 01c7 06010000 		.4byte	.LVL43
ARM GAS  C:\Users\Phuong\AppData\Local\Temp\cczAUGdE.s 			page 134


 6178 01cb 0100     		.2byte	0x1
 6179 01cd 50       		.byte	0x50
 6180 01ce 06010000 		.4byte	.LVL43
 6181 01d2 32010000 		.4byte	.LVL45
 6182 01d6 0100     		.2byte	0x1
 6183 01d8 56       		.byte	0x56
 6184 01d9 32010000 		.4byte	.LVL45
 6185 01dd 34010000 		.4byte	.LVL46
 6186 01e1 0100     		.2byte	0x1
 6187 01e3 50       		.byte	0x50
 6188 01e4 38010000 		.4byte	.LVL47
 6189 01e8 3A010000 		.4byte	.LVL48
 6190 01ec 0100     		.2byte	0x1
 6191 01ee 50       		.byte	0x50
 6192 01ef 3E010000 		.4byte	.LVL49
 6193 01f3 40010000 		.4byte	.LVL50
 6194 01f7 0100     		.2byte	0x1
 6195 01f9 50       		.byte	0x50
 6196 01fa 00000000 		.4byte	0
 6197 01fe 00000000 		.4byte	0
 6198              	.LLST10:
 6199 0202 12000000 		.4byte	.LVL13
 6200 0206 28000000 		.4byte	.LVL16
 6201 020a 0200     		.2byte	0x2
 6202 020c 3A       		.byte	0x3a
 6203 020d 9F       		.byte	0x9f
 6204 020e 28000000 		.4byte	.LVL16
 6205 0212 44010000 		.4byte	.LVL55
 6206 0216 0100     		.2byte	0x1
 6207 0218 5A       		.byte	0x5a
 6208 0219 00000000 		.4byte	0
 6209 021d 00000000 		.4byte	0
 6210              	.LLST11:
 6211 0221 12000000 		.4byte	.LVL13
 6212 0225 28000000 		.4byte	.LVL16
 6213 0229 0200     		.2byte	0x2
 6214 022b 30       		.byte	0x30
 6215 022c 9F       		.byte	0x9f
 6216 022d 28000000 		.4byte	.LVL16
 6217 0231 82000000 		.4byte	.LVL24
 6218 0235 0100     		.2byte	0x1
 6219 0237 58       		.byte	0x58
 6220 0238 82000000 		.4byte	.LVL24
 6221 023c 86000000 		.4byte	.LVL25
 6222 0240 0100     		.2byte	0x1
 6223 0242 53       		.byte	0x53
 6224 0243 86000000 		.4byte	.LVL25
 6225 0247 44010000 		.4byte	.LVL53
 6226 024b 0100     		.2byte	0x1
 6227 024d 58       		.byte	0x58
 6228 024e 00000000 		.4byte	0
 6229 0252 00000000 		.4byte	0
 6230              	.LLST12:
 6231 0256 12000000 		.4byte	.LVL13
 6232 025a 28000000 		.4byte	.LVL16
 6233 025e 0200     		.2byte	0x2
 6234 0260 30       		.byte	0x30
ARM GAS  C:\Users\Phuong\AppData\Local\Temp\cczAUGdE.s 			page 135


 6235 0261 9F       		.byte	0x9f
 6236 0262 28000000 		.4byte	.LVL16
 6237 0266 9A000000 		.4byte	.LVL28
 6238 026a 0100     		.2byte	0x1
 6239 026c 59       		.byte	0x59
 6240 026d 9A000000 		.4byte	.LVL28
 6241 0271 9E000000 		.4byte	.LVL29
 6242 0275 0100     		.2byte	0x1
 6243 0277 53       		.byte	0x53
 6244 0278 9E000000 		.4byte	.LVL29
 6245 027c 44010000 		.4byte	.LVL54
 6246 0280 0100     		.2byte	0x1
 6247 0282 59       		.byte	0x59
 6248 0283 00000000 		.4byte	0
 6249 0287 00000000 		.4byte	0
 6250              	.LLST13:
 6251 028b 12000000 		.4byte	.LVL13
 6252 028f 28000000 		.4byte	.LVL16
 6253 0293 0200     		.2byte	0x2
 6254 0295 30       		.byte	0x30
 6255 0296 9F       		.byte	0x9f
 6256 0297 28000000 		.4byte	.LVL16
 6257 029b B6000000 		.4byte	.LVL33
 6258 029f 0100     		.2byte	0x1
 6259 02a1 51       		.byte	0x51
 6260 02a2 B6000000 		.4byte	.LVL33
 6261 02a6 B8000000 		.4byte	.LVL34
 6262 02aa 0100     		.2byte	0x1
 6263 02ac 53       		.byte	0x53
 6264 02ad B8000000 		.4byte	.LVL34
 6265 02b1 0B010000 		.4byte	.LVL44-1
 6266 02b5 0100     		.2byte	0x1
 6267 02b7 51       		.byte	0x51
 6268 02b8 32010000 		.4byte	.LVL45
 6269 02bc 42010000 		.4byte	.LVL51
 6270 02c0 0100     		.2byte	0x1
 6271 02c2 51       		.byte	0x51
 6272 02c3 00000000 		.4byte	0
 6273 02c7 00000000 		.4byte	0
 6274              	.LLST14:
 6275 02cb 36000000 		.4byte	.LVL17
 6276 02cf 66000000 		.4byte	.LVL19
 6277 02d3 0100     		.2byte	0x1
 6278 02d5 53       		.byte	0x53
 6279 02d6 66000000 		.4byte	.LVL19
 6280 02da 6C000000 		.4byte	.LVL20
 6281 02de 0F00     		.2byte	0xf
 6282 02e0 70       		.byte	0x70
 6283 02e1 00       		.sleb128 0
 6284 02e2 31       		.byte	0x31
 6285 02e3 24       		.byte	0x24
 6286 02e4 70       		.byte	0x70
 6287 02e5 00       		.sleb128 0
 6288 02e6 22       		.byte	0x22
 6289 02e7 33       		.byte	0x33
 6290 02e8 24       		.byte	0x24
 6291 02e9 03       		.byte	0x3
ARM GAS  C:\Users\Phuong\AppData\Local\Temp\cczAUGdE.s 			page 136


 6292 02ea 14000000 		.4byte	.LANCHOR0+20
 6293 02ee 22       		.byte	0x22
 6294 02ef 6C000000 		.4byte	.LVL20
 6295 02f3 6E000000 		.4byte	.LVL21
 6296 02f7 0E00     		.2byte	0xe
 6297 02f9 70       		.byte	0x70
 6298 02fa 00       		.sleb128 0
 6299 02fb 31       		.byte	0x31
 6300 02fc 24       		.byte	0x24
 6301 02fd 70       		.byte	0x70
 6302 02fe 00       		.sleb128 0
 6303 02ff 22       		.byte	0x22
 6304 0300 33       		.byte	0x33
 6305 0301 24       		.byte	0x24
 6306 0302 73       		.byte	0x73
 6307 0303 00       		.sleb128 0
 6308 0304 22       		.byte	0x22
 6309 0305 23       		.byte	0x23
 6310 0306 14       		.uleb128 0x14
 6311 0307 6E000000 		.4byte	.LVL21
 6312 030b 76000000 		.4byte	.LVL22
 6313 030f 0F00     		.2byte	0xf
 6314 0311 70       		.byte	0x70
 6315 0312 00       		.sleb128 0
 6316 0313 31       		.byte	0x31
 6317 0314 24       		.byte	0x24
 6318 0315 70       		.byte	0x70
 6319 0316 00       		.sleb128 0
 6320 0317 22       		.byte	0x22
 6321 0318 33       		.byte	0x33
 6322 0319 24       		.byte	0x24
 6323 031a 03       		.byte	0x3
 6324 031b 14000000 		.4byte	.LANCHOR0+20
 6325 031f 22       		.byte	0x22
 6326 0320 76000000 		.4byte	.LVL22
 6327 0324 80000000 		.4byte	.LVL23
 6328 0328 0E00     		.2byte	0xe
 6329 032a 70       		.byte	0x70
 6330 032b 00       		.sleb128 0
 6331 032c 31       		.byte	0x31
 6332 032d 24       		.byte	0x24
 6333 032e 70       		.byte	0x70
 6334 032f 00       		.sleb128 0
 6335 0330 22       		.byte	0x22
 6336 0331 33       		.byte	0x33
 6337 0332 24       		.byte	0x24
 6338 0333 72       		.byte	0x72
 6339 0334 00       		.sleb128 0
 6340 0335 22       		.byte	0x22
 6341 0336 23       		.byte	0x23
 6342 0337 14       		.uleb128 0x14
 6343 0338 80000000 		.4byte	.LVL23
 6344 033c 8E000000 		.4byte	.LVL26
 6345 0340 0F00     		.2byte	0xf
 6346 0342 70       		.byte	0x70
 6347 0343 00       		.sleb128 0
 6348 0344 31       		.byte	0x31
ARM GAS  C:\Users\Phuong\AppData\Local\Temp\cczAUGdE.s 			page 137


 6349 0345 24       		.byte	0x24
 6350 0346 70       		.byte	0x70
 6351 0347 00       		.sleb128 0
 6352 0348 22       		.byte	0x22
 6353 0349 33       		.byte	0x33
 6354 034a 24       		.byte	0x24
 6355 034b 03       		.byte	0x3
 6356 034c 14000000 		.4byte	.LANCHOR0+20
 6357 0350 22       		.byte	0x22
 6358 0351 8E000000 		.4byte	.LVL26
 6359 0355 98000000 		.4byte	.LVL27
 6360 0359 0E00     		.2byte	0xe
 6361 035b 70       		.byte	0x70
 6362 035c 00       		.sleb128 0
 6363 035d 31       		.byte	0x31
 6364 035e 24       		.byte	0x24
 6365 035f 70       		.byte	0x70
 6366 0360 00       		.sleb128 0
 6367 0361 22       		.byte	0x22
 6368 0362 33       		.byte	0x33
 6369 0363 24       		.byte	0x24
 6370 0364 72       		.byte	0x72
 6371 0365 00       		.sleb128 0
 6372 0366 22       		.byte	0x22
 6373 0367 23       		.byte	0x23
 6374 0368 14       		.uleb128 0x14
 6375 0369 98000000 		.4byte	.LVL27
 6376 036d 9E000000 		.4byte	.LVL29
 6377 0371 0F00     		.2byte	0xf
 6378 0373 70       		.byte	0x70
 6379 0374 00       		.sleb128 0
 6380 0375 31       		.byte	0x31
 6381 0376 24       		.byte	0x24
 6382 0377 70       		.byte	0x70
 6383 0378 00       		.sleb128 0
 6384 0379 22       		.byte	0x22
 6385 037a 33       		.byte	0x33
 6386 037b 24       		.byte	0x24
 6387 037c 03       		.byte	0x3
 6388 037d 14000000 		.4byte	.LANCHOR0+20
 6389 0381 22       		.byte	0x22
 6390 0382 9E000000 		.4byte	.LVL29
 6391 0386 A4000000 		.4byte	.LVL30
 6392 038a 0100     		.2byte	0x1
 6393 038c 53       		.byte	0x53
 6394 038d A4000000 		.4byte	.LVL30
 6395 0391 AA000000 		.4byte	.LVL31
 6396 0395 0F00     		.2byte	0xf
 6397 0397 70       		.byte	0x70
 6398 0398 00       		.sleb128 0
 6399 0399 31       		.byte	0x31
 6400 039a 24       		.byte	0x24
 6401 039b 70       		.byte	0x70
 6402 039c 00       		.sleb128 0
 6403 039d 22       		.byte	0x22
 6404 039e 33       		.byte	0x33
 6405 039f 24       		.byte	0x24
ARM GAS  C:\Users\Phuong\AppData\Local\Temp\cczAUGdE.s 			page 138


 6406 03a0 03       		.byte	0x3
 6407 03a1 14000000 		.4byte	.LANCHOR0+20
 6408 03a5 22       		.byte	0x22
 6409 03a6 AA000000 		.4byte	.LVL31
 6410 03aa B4000000 		.4byte	.LVL32
 6411 03ae 0E00     		.2byte	0xe
 6412 03b0 70       		.byte	0x70
 6413 03b1 00       		.sleb128 0
 6414 03b2 31       		.byte	0x31
 6415 03b3 24       		.byte	0x24
 6416 03b4 70       		.byte	0x70
 6417 03b5 00       		.sleb128 0
 6418 03b6 22       		.byte	0x22
 6419 03b7 33       		.byte	0x33
 6420 03b8 24       		.byte	0x24
 6421 03b9 72       		.byte	0x72
 6422 03ba 00       		.sleb128 0
 6423 03bb 22       		.byte	0x22
 6424 03bc 23       		.byte	0x23
 6425 03bd 14       		.uleb128 0x14
 6426 03be B4000000 		.4byte	.LVL32
 6427 03c2 BA000000 		.4byte	.LVL35
 6428 03c6 0F00     		.2byte	0xf
 6429 03c8 70       		.byte	0x70
 6430 03c9 00       		.sleb128 0
 6431 03ca 31       		.byte	0x31
 6432 03cb 24       		.byte	0x24
 6433 03cc 70       		.byte	0x70
 6434 03cd 00       		.sleb128 0
 6435 03ce 22       		.byte	0x22
 6436 03cf 33       		.byte	0x33
 6437 03d0 24       		.byte	0x24
 6438 03d1 03       		.byte	0x3
 6439 03d2 14000000 		.4byte	.LANCHOR0+20
 6440 03d6 22       		.byte	0x22
 6441 03d7 BA000000 		.4byte	.LVL35
 6442 03db BC000000 		.4byte	.LVL36
 6443 03df 0F00     		.2byte	0xf
 6444 03e1 70       		.byte	0x70
 6445 03e2 7F       		.sleb128 -1
 6446 03e3 70       		.byte	0x70
 6447 03e4 7F       		.sleb128 -1
 6448 03e5 31       		.byte	0x31
 6449 03e6 24       		.byte	0x24
 6450 03e7 22       		.byte	0x22
 6451 03e8 33       		.byte	0x33
 6452 03e9 24       		.byte	0x24
 6453 03ea 03       		.byte	0x3
 6454 03eb 14000000 		.4byte	.LANCHOR0+20
 6455 03ef 22       		.byte	0x22
 6456 03f0 00000000 		.4byte	0
 6457 03f4 00000000 		.4byte	0
 6458              	.LLST15:
 6459 03f8 00000000 		.4byte	.LVL57
 6460 03fc 12000000 		.4byte	.LVL58
 6461 0400 0100     		.2byte	0x1
 6462 0402 50       		.byte	0x50
ARM GAS  C:\Users\Phuong\AppData\Local\Temp\cczAUGdE.s 			page 139


 6463 0403 12000000 		.4byte	.LVL58
 6464 0407 A2000000 		.4byte	.LVL70
 6465 040b 0100     		.2byte	0x1
 6466 040d 54       		.byte	0x54
 6467 040e A2000000 		.4byte	.LVL70
 6468 0412 A4000000 		.4byte	.LVL71
 6469 0416 0100     		.2byte	0x1
 6470 0418 50       		.byte	0x50
 6471 0419 A4000000 		.4byte	.LVL71
 6472 041d BA000000 		.4byte	.LVL74
 6473 0421 0100     		.2byte	0x1
 6474 0423 54       		.byte	0x54
 6475 0424 BA000000 		.4byte	.LVL74
 6476 0428 C0000000 		.4byte	.LFE57
 6477 042c 0400     		.2byte	0x4
 6478 042e F3       		.byte	0xf3
 6479 042f 01       		.uleb128 0x1
 6480 0430 50       		.byte	0x50
 6481 0431 9F       		.byte	0x9f
 6482 0432 00000000 		.4byte	0
 6483 0436 00000000 		.4byte	0
 6484              	.LLST16:
 6485 043a 00000000 		.4byte	.LVL57
 6486 043e 18000000 		.4byte	.LVL59
 6487 0442 0100     		.2byte	0x1
 6488 0444 51       		.byte	0x51
 6489 0445 18000000 		.4byte	.LVL59
 6490 0449 42000000 		.4byte	.LVL62
 6491 044d 0100     		.2byte	0x1
 6492 044f 56       		.byte	0x56
 6493 0450 42000000 		.4byte	.LVL62
 6494 0454 A2000000 		.4byte	.LVL70
 6495 0458 0400     		.2byte	0x4
 6496 045a F3       		.byte	0xf3
 6497 045b 01       		.uleb128 0x1
 6498 045c 51       		.byte	0x51
 6499 045d 9F       		.byte	0x9f
 6500 045e A2000000 		.4byte	.LVL70
 6501 0462 AE000000 		.4byte	.LVL72
 6502 0466 0100     		.2byte	0x1
 6503 0468 51       		.byte	0x51
 6504 0469 AE000000 		.4byte	.LVL72
 6505 046d B8000000 		.4byte	.LVL73
 6506 0471 0100     		.2byte	0x1
 6507 0473 56       		.byte	0x56
 6508 0474 B8000000 		.4byte	.LVL73
 6509 0478 C0000000 		.4byte	.LFE57
 6510 047c 0400     		.2byte	0x4
 6511 047e F3       		.byte	0xf3
 6512 047f 01       		.uleb128 0x1
 6513 0480 51       		.byte	0x51
 6514 0481 9F       		.byte	0x9f
 6515 0482 00000000 		.4byte	0
 6516 0486 00000000 		.4byte	0
 6517              	.LLST17:
 6518 048a 00000000 		.4byte	.LVL57
 6519 048e 1B000000 		.4byte	.LVL60-1
ARM GAS  C:\Users\Phuong\AppData\Local\Temp\cczAUGdE.s 			page 140


 6520 0492 0100     		.2byte	0x1
 6521 0494 52       		.byte	0x52
 6522 0495 1B000000 		.4byte	.LVL60-1
 6523 0499 A2000000 		.4byte	.LVL70
 6524 049d 0100     		.2byte	0x1
 6525 049f 55       		.byte	0x55
 6526 04a0 A2000000 		.4byte	.LVL70
 6527 04a4 AE000000 		.4byte	.LVL72
 6528 04a8 0100     		.2byte	0x1
 6529 04aa 52       		.byte	0x52
 6530 04ab AE000000 		.4byte	.LVL72
 6531 04af BA000000 		.4byte	.LVL75
 6532 04b3 0100     		.2byte	0x1
 6533 04b5 55       		.byte	0x55
 6534 04b6 BA000000 		.4byte	.LVL75
 6535 04ba C0000000 		.4byte	.LFE57
 6536 04be 0400     		.2byte	0x4
 6537 04c0 F3       		.byte	0xf3
 6538 04c1 01       		.uleb128 0x1
 6539 04c2 52       		.byte	0x52
 6540 04c3 9F       		.byte	0x9f
 6541 04c4 00000000 		.4byte	0
 6542 04c8 00000000 		.4byte	0
 6543              	.LLST18:
 6544 04cc 00000000 		.4byte	.LVL57
 6545 04d0 1B000000 		.4byte	.LVL60-1
 6546 04d4 0100     		.2byte	0x1
 6547 04d6 53       		.byte	0x53
 6548 04d7 1B000000 		.4byte	.LVL60-1
 6549 04db A2000000 		.4byte	.LVL70
 6550 04df 0400     		.2byte	0x4
 6551 04e1 F3       		.byte	0xf3
 6552 04e2 01       		.uleb128 0x1
 6553 04e3 53       		.byte	0x53
 6554 04e4 9F       		.byte	0x9f
 6555 04e5 A2000000 		.4byte	.LVL70
 6556 04e9 AE000000 		.4byte	.LVL72
 6557 04ed 0100     		.2byte	0x1
 6558 04ef 53       		.byte	0x53
 6559 04f0 AE000000 		.4byte	.LVL72
 6560 04f4 C0000000 		.4byte	.LFE57
 6561 04f8 0400     		.2byte	0x4
 6562 04fa F3       		.byte	0xf3
 6563 04fb 01       		.uleb128 0x1
 6564 04fc 53       		.byte	0x53
 6565 04fd 9F       		.byte	0x9f
 6566 04fe 00000000 		.4byte	0
 6567 0502 00000000 		.4byte	0
 6568              	.LLST19:
 6569 0506 34000000 		.4byte	.LVL61
 6570 050a 4C000000 		.4byte	.LVL63
 6571 050e 0100     		.2byte	0x1
 6572 0510 50       		.byte	0x50
 6573 0511 00000000 		.4byte	0
 6574 0515 00000000 		.4byte	0
 6575              	.LLST20:
 6576 0519 70000000 		.4byte	.LVL66
ARM GAS  C:\Users\Phuong\AppData\Local\Temp\cczAUGdE.s 			page 141


 6577 051d 90000000 		.4byte	.LVL69
 6578 0521 0100     		.2byte	0x1
 6579 0523 56       		.byte	0x56
 6580 0524 00000000 		.4byte	0
 6581 0528 00000000 		.4byte	0
 6582              	.LLST21:
 6583 052c 62000000 		.4byte	.LVL65
 6584 0530 75000000 		.4byte	.LVL67-1
 6585 0534 0100     		.2byte	0x1
 6586 0536 51       		.byte	0x51
 6587 0537 00000000 		.4byte	0
 6588 053b 00000000 		.4byte	0
 6589              	.LLST22:
 6590 053f 00000000 		.4byte	.LVL76
 6591 0543 16000000 		.4byte	.LVL81
 6592 0547 0100     		.2byte	0x1
 6593 0549 50       		.byte	0x50
 6594 054a 16000000 		.4byte	.LVL81
 6595 054e B0000000 		.4byte	.LFE65
 6596 0552 0200     		.2byte	0x2
 6597 0554 91       		.byte	0x91
 6598 0555 5C       		.sleb128 -36
 6599 0556 00000000 		.4byte	0
 6600 055a 00000000 		.4byte	0
 6601              	.LLST23:
 6602 055e 00000000 		.4byte	.LVL76
 6603 0562 14000000 		.4byte	.LVL80
 6604 0566 0100     		.2byte	0x1
 6605 0568 51       		.byte	0x51
 6606 0569 14000000 		.4byte	.LVL80
 6607 056d B0000000 		.4byte	.LFE65
 6608 0571 0200     		.2byte	0x2
 6609 0573 91       		.byte	0x91
 6610 0574 60       		.sleb128 -32
 6611 0575 00000000 		.4byte	0
 6612 0579 00000000 		.4byte	0
 6613              	.LLST24:
 6614 057d 00000000 		.4byte	.LVL76
 6615 0581 12000000 		.4byte	.LVL79
 6616 0585 0100     		.2byte	0x1
 6617 0587 52       		.byte	0x52
 6618 0588 12000000 		.4byte	.LVL79
 6619 058c B0000000 		.4byte	.LFE65
 6620 0590 0200     		.2byte	0x2
 6621 0592 91       		.byte	0x91
 6622 0593 64       		.sleb128 -28
 6623 0594 00000000 		.4byte	0
 6624 0598 00000000 		.4byte	0
 6625              	.LLST25:
 6626 059c 00000000 		.4byte	.LVL76
 6627 05a0 0E000000 		.4byte	.LVL77
 6628 05a4 0100     		.2byte	0x1
 6629 05a6 53       		.byte	0x53
 6630 05a7 0E000000 		.4byte	.LVL77
 6631 05ab A4000000 		.4byte	.LVL96
 6632 05af 0100     		.2byte	0x1
 6633 05b1 57       		.byte	0x57
ARM GAS  C:\Users\Phuong\AppData\Local\Temp\cczAUGdE.s 			page 142


 6634 05b2 A4000000 		.4byte	.LVL96
 6635 05b6 B0000000 		.4byte	.LFE65
 6636 05ba 0400     		.2byte	0x4
 6637 05bc F3       		.byte	0xf3
 6638 05bd 01       		.uleb128 0x1
 6639 05be 53       		.byte	0x53
 6640 05bf 9F       		.byte	0x9f
 6641 05c0 00000000 		.4byte	0
 6642 05c4 00000000 		.4byte	0
 6643              	.LLST26:
 6644 05c8 00000000 		.4byte	.LVL76
 6645 05cc 0E000000 		.4byte	.LVL77
 6646 05d0 0200     		.2byte	0x2
 6647 05d2 91       		.byte	0x91
 6648 05d3 0C       		.sleb128 12
 6649 05d4 0E000000 		.4byte	.LVL77
 6650 05d8 19000000 		.4byte	.LVL82-1
 6651 05dc 0200     		.2byte	0x2
 6652 05de 73       		.byte	0x73
 6653 05df 00       		.sleb128 0
 6654 05e0 19000000 		.4byte	.LVL82-1
 6655 05e4 B0000000 		.4byte	.LFE65
 6656 05e8 0200     		.2byte	0x2
 6657 05ea 91       		.byte	0x91
 6658 05eb 0C       		.sleb128 12
 6659 05ec 00000000 		.4byte	0
 6660 05f0 00000000 		.4byte	0
 6661              	.LLST27:
 6662 05f4 1C000000 		.4byte	.LVL83
 6663 05f8 28000000 		.4byte	.LVL84
 6664 05fc 0100     		.2byte	0x1
 6665 05fe 50       		.byte	0x50
 6666 05ff 28000000 		.4byte	.LVL84
 6667 0603 2C000000 		.4byte	.LVL85
 6668 0607 0100     		.2byte	0x1
 6669 0609 54       		.byte	0x54
 6670 060a 2C000000 		.4byte	.LVL85
 6671 060e 30000000 		.4byte	.LVL87
 6672 0612 0100     		.2byte	0x1
 6673 0614 50       		.byte	0x50
 6674 0615 30000000 		.4byte	.LVL87
 6675 0619 A0000000 		.4byte	.LVL94
 6676 061d 0100     		.2byte	0x1
 6677 061f 54       		.byte	0x54
 6678 0620 A0000000 		.4byte	.LVL94
 6679 0624 A2000000 		.4byte	.LVL95
 6680 0628 0200     		.2byte	0x2
 6681 062a 30       		.byte	0x30
 6682 062b 9F       		.byte	0x9f
 6683 062c 00000000 		.4byte	0
 6684 0630 00000000 		.4byte	0
 6685              	.LLST28:
 6686 0634 2E000000 		.4byte	.LVL86
 6687 0638 A2000000 		.4byte	.LVL95
 6688 063c 0100     		.2byte	0x1
 6689 063e 55       		.byte	0x55
 6690 063f 00000000 		.4byte	0
ARM GAS  C:\Users\Phuong\AppData\Local\Temp\cczAUGdE.s 			page 143


 6691 0643 00000000 		.4byte	0
 6692              	.LLST29:
 6693 0647 00000000 		.4byte	.LVL97
 6694 064b 1D000000 		.4byte	.LVL99-1
 6695 064f 0100     		.2byte	0x1
 6696 0651 50       		.byte	0x50
 6697 0652 1D000000 		.4byte	.LVL99-1
 6698 0656 20000000 		.4byte	.LVL100
 6699 065a 0300     		.2byte	0x3
 6700 065c 74       		.byte	0x74
 6701 065d 49       		.sleb128 -55
 6702 065e 9F       		.byte	0x9f
 6703 065f 20000000 		.4byte	.LVL100
 6704 0663 28000000 		.4byte	.LFE66
 6705 0667 0400     		.2byte	0x4
 6706 0669 F3       		.byte	0xf3
 6707 066a 01       		.uleb128 0x1
 6708 066b 50       		.byte	0x50
 6709 066c 9F       		.byte	0x9f
 6710 066d 00000000 		.4byte	0
 6711 0671 00000000 		.4byte	0
 6712              	.LLST30:
 6713 0675 00000000 		.4byte	.LVL97
 6714 0679 12000000 		.4byte	.LVL98
 6715 067d 0100     		.2byte	0x1
 6716 067f 51       		.byte	0x51
 6717 0680 12000000 		.4byte	.LVL98
 6718 0684 1D000000 		.4byte	.LVL99-1
 6719 0688 0200     		.2byte	0x2
 6720 068a 91       		.byte	0x91
 6721 068b 68       		.sleb128 -24
 6722 068c 1D000000 		.4byte	.LVL99-1
 6723 0690 28000000 		.4byte	.LFE66
 6724 0694 0400     		.2byte	0x4
 6725 0696 F3       		.byte	0xf3
 6726 0697 01       		.uleb128 0x1
 6727 0698 51       		.byte	0x51
 6728 0699 9F       		.byte	0x9f
 6729 069a 00000000 		.4byte	0
 6730 069e 00000000 		.4byte	0
 6731              	.LLST31:
 6732 06a2 00000000 		.4byte	.LVL97
 6733 06a6 1D000000 		.4byte	.LVL99-1
 6734 06aa 0100     		.2byte	0x1
 6735 06ac 52       		.byte	0x52
 6736 06ad 1D000000 		.4byte	.LVL99-1
 6737 06b1 28000000 		.4byte	.LFE66
 6738 06b5 0400     		.2byte	0x4
 6739 06b7 F3       		.byte	0xf3
 6740 06b8 01       		.uleb128 0x1
 6741 06b9 52       		.byte	0x52
 6742 06ba 9F       		.byte	0x9f
 6743 06bb 00000000 		.4byte	0
 6744 06bf 00000000 		.4byte	0
 6745              	.LLST32:
 6746 06c3 00000000 		.4byte	.LVL101
 6747 06c7 08000000 		.4byte	.LVL103
ARM GAS  C:\Users\Phuong\AppData\Local\Temp\cczAUGdE.s 			page 144


 6748 06cb 0100     		.2byte	0x1
 6749 06cd 50       		.byte	0x50
 6750 06ce 08000000 		.4byte	.LVL103
 6751 06d2 36000000 		.4byte	.LVL113
 6752 06d6 0100     		.2byte	0x1
 6753 06d8 55       		.byte	0x55
 6754 06d9 36000000 		.4byte	.LVL113
 6755 06dd 3C000000 		.4byte	.LFE58
 6756 06e1 0400     		.2byte	0x4
 6757 06e3 F3       		.byte	0xf3
 6758 06e4 01       		.uleb128 0x1
 6759 06e5 50       		.byte	0x50
 6760 06e6 9F       		.byte	0x9f
 6761 06e7 00000000 		.4byte	0
 6762 06eb 00000000 		.4byte	0
 6763              	.LLST33:
 6764 06ef 04000000 		.4byte	.LVL102
 6765 06f3 08000000 		.4byte	.LVL103
 6766 06f7 0200     		.2byte	0x2
 6767 06f9 30       		.byte	0x30
 6768 06fa 9F       		.byte	0x9f
 6769 06fb 08000000 		.4byte	.LVL103
 6770 06ff 30000000 		.4byte	.LVL110
 6771 0703 0100     		.2byte	0x1
 6772 0705 54       		.byte	0x54
 6773 0706 32000000 		.4byte	.LVL111
 6774 070a 36000000 		.4byte	.LVL112
 6775 070e 0100     		.2byte	0x1
 6776 0710 54       		.byte	0x54
 6777 0711 00000000 		.4byte	0
 6778 0715 00000000 		.4byte	0
 6779              	.LLST34:
 6780 0719 16000000 		.4byte	.LVL104
 6781 071d 20000000 		.4byte	.LVL105
 6782 0721 0100     		.2byte	0x1
 6783 0723 53       		.byte	0x53
 6784 0724 20000000 		.4byte	.LVL105
 6785 0728 22000000 		.4byte	.LVL106
 6786 072c 0800     		.2byte	0x8
 6787 072e 73       		.byte	0x73
 6788 072f 00       		.sleb128 0
 6789 0730 03       		.byte	0x3
 6790 0731 14000000 		.4byte	.LANCHOR0+20
 6791 0735 22       		.byte	0x22
 6792 0736 22000000 		.4byte	.LVL106
 6793 073a 24000000 		.4byte	.LVL107
 6794 073e 0700     		.2byte	0x7
 6795 0740 72       		.byte	0x72
 6796 0741 00       		.sleb128 0
 6797 0742 73       		.byte	0x73
 6798 0743 00       		.sleb128 0
 6799 0744 22       		.byte	0x22
 6800 0745 23       		.byte	0x23
 6801 0746 14       		.uleb128 0x14
 6802 0747 24000000 		.4byte	.LVL107
 6803 074b 26000000 		.4byte	.LVL108
 6804 074f 0200     		.2byte	0x2
ARM GAS  C:\Users\Phuong\AppData\Local\Temp\cczAUGdE.s 			page 145


 6805 0751 73       		.byte	0x73
 6806 0752 14       		.sleb128 20
 6807 0753 26000000 		.4byte	.LVL108
 6808 0757 2D000000 		.4byte	.LVL109-1
 6809 075b 0E00     		.2byte	0xe
 6810 075d 70       		.byte	0x70
 6811 075e 00       		.sleb128 0
 6812 075f 31       		.byte	0x31
 6813 0760 24       		.byte	0x24
 6814 0761 70       		.byte	0x70
 6815 0762 00       		.sleb128 0
 6816 0763 22       		.byte	0x22
 6817 0764 33       		.byte	0x33
 6818 0765 24       		.byte	0x24
 6819 0766 72       		.byte	0x72
 6820 0767 00       		.sleb128 0
 6821 0768 22       		.byte	0x22
 6822 0769 23       		.byte	0x23
 6823 076a 14       		.uleb128 0x14
 6824 076b 00000000 		.4byte	0
 6825 076f 00000000 		.4byte	0
 6826              	.LLST35:
 6827 0773 00000000 		.4byte	.LVL114
 6828 0777 06000000 		.4byte	.LVL115
 6829 077b 0100     		.2byte	0x1
 6830 077d 50       		.byte	0x50
 6831 077e 06000000 		.4byte	.LVL115
 6832 0782 2C000000 		.4byte	.LVL119
 6833 0786 0100     		.2byte	0x1
 6834 0788 56       		.byte	0x56
 6835 0789 2C000000 		.4byte	.LVL119
 6836 078d 40000000 		.4byte	.LVL120
 6837 0791 0400     		.2byte	0x4
 6838 0793 F3       		.byte	0xf3
 6839 0794 01       		.uleb128 0x1
 6840 0795 50       		.byte	0x50
 6841 0796 9F       		.byte	0x9f
 6842 0797 40000000 		.4byte	.LVL120
 6843 079b 4A000000 		.4byte	.LVL124
 6844 079f 0100     		.2byte	0x1
 6845 07a1 56       		.byte	0x56
 6846 07a2 4A000000 		.4byte	.LVL124
 6847 07a6 50000000 		.4byte	.LFE59
 6848 07aa 0400     		.2byte	0x4
 6849 07ac F3       		.byte	0xf3
 6850 07ad 01       		.uleb128 0x1
 6851 07ae 50       		.byte	0x50
 6852 07af 9F       		.byte	0x9f
 6853 07b0 00000000 		.4byte	0
 6854 07b4 00000000 		.4byte	0
 6855              	.LLST36:
 6856 07b8 00000000 		.4byte	.LVL114
 6857 07bc 0E000000 		.4byte	.LVL117
 6858 07c0 0100     		.2byte	0x1
 6859 07c2 51       		.byte	0x51
 6860 07c3 0E000000 		.4byte	.LVL117
 6861 07c7 11000000 		.4byte	.LVL118-1
ARM GAS  C:\Users\Phuong\AppData\Local\Temp\cczAUGdE.s 			page 146


 6862 07cb 0100     		.2byte	0x1
 6863 07cd 50       		.byte	0x50
 6864 07ce 11000000 		.4byte	.LVL118-1
 6865 07d2 50000000 		.4byte	.LFE59
 6866 07d6 0400     		.2byte	0x4
 6867 07d8 F3       		.byte	0xf3
 6868 07d9 01       		.uleb128 0x1
 6869 07da 51       		.byte	0x51
 6870 07db 9F       		.byte	0x9f
 6871 07dc 00000000 		.4byte	0
 6872 07e0 00000000 		.4byte	0
 6873              	.LLST37:
 6874 07e4 00000000 		.4byte	.LVL114
 6875 07e8 0C000000 		.4byte	.LVL116
 6876 07ec 0100     		.2byte	0x1
 6877 07ee 52       		.byte	0x52
 6878 07ef 0C000000 		.4byte	.LVL116
 6879 07f3 4A000000 		.4byte	.LVL126
 6880 07f7 0100     		.2byte	0x1
 6881 07f9 55       		.byte	0x55
 6882 07fa 4A000000 		.4byte	.LVL126
 6883 07fe 50000000 		.4byte	.LFE59
 6884 0802 0400     		.2byte	0x4
 6885 0804 F3       		.byte	0xf3
 6886 0805 01       		.uleb128 0x1
 6887 0806 52       		.byte	0x52
 6888 0807 9F       		.byte	0x9f
 6889 0808 00000000 		.4byte	0
 6890 080c 00000000 		.4byte	0
 6891              	.LLST38:
 6892 0810 00000000 		.4byte	.LVL114
 6893 0814 11000000 		.4byte	.LVL118-1
 6894 0818 0100     		.2byte	0x1
 6895 081a 53       		.byte	0x53
 6896 081b 11000000 		.4byte	.LVL118-1
 6897 081f 4A000000 		.4byte	.LVL125
 6898 0823 0100     		.2byte	0x1
 6899 0825 54       		.byte	0x54
 6900 0826 4A000000 		.4byte	.LVL125
 6901 082a 50000000 		.4byte	.LFE59
 6902 082e 0400     		.2byte	0x4
 6903 0830 F3       		.byte	0xf3
 6904 0831 01       		.uleb128 0x1
 6905 0832 53       		.byte	0x53
 6906 0833 9F       		.byte	0x9f
 6907 0834 00000000 		.4byte	0
 6908 0838 00000000 		.4byte	0
 6909              	.LLST39:
 6910 083c 12000000 		.4byte	.LVL118
 6911 0840 42000000 		.4byte	.LVL121
 6912 0844 0100     		.2byte	0x1
 6913 0846 50       		.byte	0x50
 6914 0847 46000000 		.4byte	.LVL122
 6915 084b 48000000 		.4byte	.LVL123
 6916 084f 0100     		.2byte	0x1
 6917 0851 50       		.byte	0x50
 6918 0852 00000000 		.4byte	0
ARM GAS  C:\Users\Phuong\AppData\Local\Temp\cczAUGdE.s 			page 147


 6919 0856 00000000 		.4byte	0
 6920              	.LLST40:
 6921 085a 00000000 		.4byte	.LVL127
 6922 085e 28000000 		.4byte	.LVL129
 6923 0862 0100     		.2byte	0x1
 6924 0864 50       		.byte	0x50
 6925 0865 28000000 		.4byte	.LVL129
 6926 0869 36000000 		.4byte	.LVL131
 6927 086d 0400     		.2byte	0x4
 6928 086f F3       		.byte	0xf3
 6929 0870 01       		.uleb128 0x1
 6930 0871 50       		.byte	0x50
 6931 0872 9F       		.byte	0x9f
 6932 0873 36000000 		.4byte	.LVL131
 6933 0877 38000000 		.4byte	.LVL132
 6934 087b 0100     		.2byte	0x1
 6935 087d 50       		.byte	0x50
 6936 087e 38000000 		.4byte	.LVL132
 6937 0882 3A000000 		.4byte	.LVL133
 6938 0886 0400     		.2byte	0x4
 6939 0888 F3       		.byte	0xf3
 6940 0889 01       		.uleb128 0x1
 6941 088a 50       		.byte	0x50
 6942 088b 9F       		.byte	0x9f
 6943 088c 3A000000 		.4byte	.LVL133
 6944 0890 3C000000 		.4byte	.LVL134
 6945 0894 0100     		.2byte	0x1
 6946 0896 50       		.byte	0x50
 6947 0897 3C000000 		.4byte	.LVL134
 6948 089b 44000000 		.4byte	.LFE60
 6949 089f 0400     		.2byte	0x4
 6950 08a1 F3       		.byte	0xf3
 6951 08a2 01       		.uleb128 0x1
 6952 08a3 50       		.byte	0x50
 6953 08a4 9F       		.byte	0x9f
 6954 08a5 00000000 		.4byte	0
 6955 08a9 00000000 		.4byte	0
 6956              	.LLST41:
 6957 08ad 00000000 		.4byte	.LVL127
 6958 08b1 24000000 		.4byte	.LVL128
 6959 08b5 0100     		.2byte	0x1
 6960 08b7 51       		.byte	0x51
 6961 08b8 24000000 		.4byte	.LVL128
 6962 08bc 36000000 		.4byte	.LVL131
 6963 08c0 0400     		.2byte	0x4
 6964 08c2 F3       		.byte	0xf3
 6965 08c3 01       		.uleb128 0x1
 6966 08c4 51       		.byte	0x51
 6967 08c5 9F       		.byte	0x9f
 6968 08c6 36000000 		.4byte	.LVL131
 6969 08ca 3C000000 		.4byte	.LVL134
 6970 08ce 0100     		.2byte	0x1
 6971 08d0 51       		.byte	0x51
 6972 08d1 3C000000 		.4byte	.LVL134
 6973 08d5 44000000 		.4byte	.LFE60
 6974 08d9 0400     		.2byte	0x4
 6975 08db F3       		.byte	0xf3
ARM GAS  C:\Users\Phuong\AppData\Local\Temp\cczAUGdE.s 			page 148


 6976 08dc 01       		.uleb128 0x1
 6977 08dd 51       		.byte	0x51
 6978 08de 9F       		.byte	0x9f
 6979 08df 00000000 		.4byte	0
 6980 08e3 00000000 		.4byte	0
 6981              	.LLST42:
 6982 08e7 00000000 		.4byte	.LVL127
 6983 08eb 2A000000 		.4byte	.LVL130
 6984 08ef 0100     		.2byte	0x1
 6985 08f1 52       		.byte	0x52
 6986 08f2 2A000000 		.4byte	.LVL130
 6987 08f6 36000000 		.4byte	.LVL131
 6988 08fa 0400     		.2byte	0x4
 6989 08fc F3       		.byte	0xf3
 6990 08fd 01       		.uleb128 0x1
 6991 08fe 52       		.byte	0x52
 6992 08ff 9F       		.byte	0x9f
 6993 0900 36000000 		.4byte	.LVL131
 6994 0904 3C000000 		.4byte	.LVL134
 6995 0908 0100     		.2byte	0x1
 6996 090a 52       		.byte	0x52
 6997 090b 3C000000 		.4byte	.LVL134
 6998 090f 44000000 		.4byte	.LFE60
 6999 0913 0400     		.2byte	0x4
 7000 0915 F3       		.byte	0xf3
 7001 0916 01       		.uleb128 0x1
 7002 0917 52       		.byte	0x52
 7003 0918 9F       		.byte	0x9f
 7004 0919 00000000 		.4byte	0
 7005 091d 00000000 		.4byte	0
 7006              	.LLST43:
 7007 0921 00000000 		.4byte	.LVL135
 7008 0925 48000000 		.4byte	.LVL137
 7009 0929 0100     		.2byte	0x1
 7010 092b 50       		.byte	0x50
 7011 092c 48000000 		.4byte	.LVL137
 7012 0930 4E000000 		.4byte	.LVL139
 7013 0934 0100     		.2byte	0x1
 7014 0936 54       		.byte	0x54
 7015 0937 4E000000 		.4byte	.LVL139
 7016 093b 5E000000 		.4byte	.LVL141
 7017 093f 0100     		.2byte	0x1
 7018 0941 50       		.byte	0x50
 7019 0942 5E000000 		.4byte	.LVL141
 7020 0946 E8000000 		.4byte	.LVL150
 7021 094a 0100     		.2byte	0x1
 7022 094c 54       		.byte	0x54
 7023 094d E8000000 		.4byte	.LVL150
 7024 0951 F4000000 		.4byte	.LFE61
 7025 0955 0400     		.2byte	0x4
 7026 0957 F3       		.byte	0xf3
 7027 0958 01       		.uleb128 0x1
 7028 0959 50       		.byte	0x50
 7029 095a 9F       		.byte	0x9f
 7030 095b 00000000 		.4byte	0
 7031 095f 00000000 		.4byte	0
 7032              	.LLST44:
ARM GAS  C:\Users\Phuong\AppData\Local\Temp\cczAUGdE.s 			page 149


 7033 0963 00000000 		.4byte	.LVL135
 7034 0967 4B000000 		.4byte	.LVL138-1
 7035 096b 0100     		.2byte	0x1
 7036 096d 51       		.byte	0x51
 7037 096e 4B000000 		.4byte	.LVL138-1
 7038 0972 4E000000 		.4byte	.LVL139
 7039 0976 0100     		.2byte	0x1
 7040 0978 56       		.byte	0x56
 7041 0979 4E000000 		.4byte	.LVL139
 7042 097d 5A000000 		.4byte	.LVL140
 7043 0981 0100     		.2byte	0x1
 7044 0983 51       		.byte	0x51
 7045 0984 5A000000 		.4byte	.LVL140
 7046 0988 E8000000 		.4byte	.LVL151
 7047 098c 0100     		.2byte	0x1
 7048 098e 56       		.byte	0x56
 7049 098f E8000000 		.4byte	.LVL151
 7050 0993 F4000000 		.4byte	.LFE61
 7051 0997 0400     		.2byte	0x4
 7052 0999 F3       		.byte	0xf3
 7053 099a 01       		.uleb128 0x1
 7054 099b 51       		.byte	0x51
 7055 099c 9F       		.byte	0x9f
 7056 099d 00000000 		.4byte	0
 7057 09a1 00000000 		.4byte	0
 7058              	.LLST45:
 7059 09a5 10000000 		.4byte	.LVL136
 7060 09a9 E6000000 		.4byte	.LVL149
 7061 09ad 0100     		.2byte	0x1
 7062 09af 55       		.byte	0x55
 7063 09b0 00000000 		.4byte	0
 7064 09b4 00000000 		.4byte	0
 7065              	.LLST46:
 7066 09b8 7E000000 		.4byte	.LVL144
 7067 09bc 80000000 		.4byte	.LVL145
 7068 09c0 0100     		.2byte	0x1
 7069 09c2 57       		.byte	0x57
 7070 09c3 82000000 		.4byte	.LVL146
 7071 09c7 E6000000 		.4byte	.LVL149
 7072 09cb 0100     		.2byte	0x1
 7073 09cd 57       		.byte	0x57
 7074 09ce 00000000 		.4byte	0
 7075 09d2 00000000 		.4byte	0
 7076              	.LLST47:
 7077 09d6 00000000 		.4byte	.LVL152
 7078 09da 07000000 		.4byte	.LVL153-1
 7079 09de 0100     		.2byte	0x1
 7080 09e0 50       		.byte	0x50
 7081 09e1 07000000 		.4byte	.LVL153-1
 7082 09e5 10000000 		.4byte	.LFE67
 7083 09e9 0400     		.2byte	0x4
 7084 09eb F3       		.byte	0xf3
 7085 09ec 01       		.uleb128 0x1
 7086 09ed 50       		.byte	0x50
 7087 09ee 9F       		.byte	0x9f
 7088 09ef 00000000 		.4byte	0
 7089 09f3 00000000 		.4byte	0
ARM GAS  C:\Users\Phuong\AppData\Local\Temp\cczAUGdE.s 			page 150


 7090              	.LLST48:
 7091 09f7 00000000 		.4byte	.LVL152
 7092 09fb 07000000 		.4byte	.LVL153-1
 7093 09ff 0100     		.2byte	0x1
 7094 0a01 51       		.byte	0x51
 7095 0a02 07000000 		.4byte	.LVL153-1
 7096 0a06 10000000 		.4byte	.LFE67
 7097 0a0a 0400     		.2byte	0x4
 7098 0a0c F3       		.byte	0xf3
 7099 0a0d 01       		.uleb128 0x1
 7100 0a0e 51       		.byte	0x51
 7101 0a0f 9F       		.byte	0x9f
 7102 0a10 00000000 		.4byte	0
 7103 0a14 00000000 		.4byte	0
 7104              	.LLST49:
 7105 0a18 02000000 		.4byte	.LVL154
 7106 0a1c 06000000 		.4byte	.LVL155
 7107 0a20 0200     		.2byte	0x2
 7108 0a22 30       		.byte	0x30
 7109 0a23 9F       		.byte	0x9f
 7110 0a24 06000000 		.4byte	.LVL155
 7111 0a28 90000000 		.4byte	.LVL180
 7112 0a2c 0100     		.2byte	0x1
 7113 0a2e 54       		.byte	0x54
 7114 0a2f 92000000 		.4byte	.LVL181
 7115 0a33 96000000 		.4byte	.LVL182
 7116 0a37 0100     		.2byte	0x1
 7117 0a39 54       		.byte	0x54
 7118 0a3a 00000000 		.4byte	0
 7119 0a3e 00000000 		.4byte	0
 7120              	.LLST50:
 7121 0a42 14000000 		.4byte	.LVL156
 7122 0a46 1E000000 		.4byte	.LVL157
 7123 0a4a 0100     		.2byte	0x1
 7124 0a4c 53       		.byte	0x53
 7125 0a4d 1E000000 		.4byte	.LVL157
 7126 0a51 20000000 		.4byte	.LVL158
 7127 0a55 0800     		.2byte	0x8
 7128 0a57 73       		.byte	0x73
 7129 0a58 00       		.sleb128 0
 7130 0a59 03       		.byte	0x3
 7131 0a5a 14000000 		.4byte	.LANCHOR0+20
 7132 0a5e 22       		.byte	0x22
 7133 0a5f 20000000 		.4byte	.LVL158
 7134 0a63 22000000 		.4byte	.LVL159
 7135 0a67 0700     		.2byte	0x7
 7136 0a69 72       		.byte	0x72
 7137 0a6a 00       		.sleb128 0
 7138 0a6b 73       		.byte	0x73
 7139 0a6c 00       		.sleb128 0
 7140 0a6d 22       		.byte	0x22
 7141 0a6e 23       		.byte	0x23
 7142 0a6f 14       		.uleb128 0x14
 7143 0a70 22000000 		.4byte	.LVL159
 7144 0a74 2C000000 		.4byte	.LVL160
 7145 0a78 0200     		.2byte	0x2
 7146 0a7a 72       		.byte	0x72
ARM GAS  C:\Users\Phuong\AppData\Local\Temp\cczAUGdE.s 			page 151


 7147 0a7b 14       		.sleb128 20
 7148 0a7c 2C000000 		.4byte	.LVL160
 7149 0a80 34000000 		.4byte	.LVL161
 7150 0a84 0F00     		.2byte	0xf
 7151 0a86 70       		.byte	0x70
 7152 0a87 00       		.sleb128 0
 7153 0a88 31       		.byte	0x31
 7154 0a89 24       		.byte	0x24
 7155 0a8a 70       		.byte	0x70
 7156 0a8b 00       		.sleb128 0
 7157 0a8c 22       		.byte	0x22
 7158 0a8d 33       		.byte	0x33
 7159 0a8e 24       		.byte	0x24
 7160 0a8f 03       		.byte	0x3
 7161 0a90 14000000 		.4byte	.LANCHOR0+20
 7162 0a94 22       		.byte	0x22
 7163 0a95 34000000 		.4byte	.LVL161
 7164 0a99 36000000 		.4byte	.LVL162
 7165 0a9d 0D00     		.2byte	0xd
 7166 0a9f 71       		.byte	0x71
 7167 0aa0 00       		.sleb128 0
 7168 0aa1 70       		.byte	0x70
 7169 0aa2 00       		.sleb128 0
 7170 0aa3 22       		.byte	0x22
 7171 0aa4 33       		.byte	0x33
 7172 0aa5 24       		.byte	0x24
 7173 0aa6 03       		.byte	0x3
 7174 0aa7 14000000 		.4byte	.LANCHOR0+20
 7175 0aab 22       		.byte	0x22
 7176 0aac 36000000 		.4byte	.LVL162
 7177 0ab0 38000000 		.4byte	.LVL163
 7178 0ab4 0A00     		.2byte	0xa
 7179 0ab6 71       		.byte	0x71
 7180 0ab7 00       		.sleb128 0
 7181 0ab8 33       		.byte	0x33
 7182 0ab9 24       		.byte	0x24
 7183 0aba 03       		.byte	0x3
 7184 0abb 14000000 		.4byte	.LANCHOR0+20
 7185 0abf 22       		.byte	0x22
 7186 0ac0 38000000 		.4byte	.LVL163
 7187 0ac4 3A000000 		.4byte	.LVL164
 7188 0ac8 0800     		.2byte	0x8
 7189 0aca 72       		.byte	0x72
 7190 0acb 00       		.sleb128 0
 7191 0acc 03       		.byte	0x3
 7192 0acd 14000000 		.4byte	.LANCHOR0+20
 7193 0ad1 22       		.byte	0x22
 7194 0ad2 3A000000 		.4byte	.LVL164
 7195 0ad6 3C000000 		.4byte	.LVL165
 7196 0ada 0700     		.2byte	0x7
 7197 0adc 71       		.byte	0x71
 7198 0add 00       		.sleb128 0
 7199 0ade 72       		.byte	0x72
 7200 0adf 00       		.sleb128 0
 7201 0ae0 22       		.byte	0x22
 7202 0ae1 23       		.byte	0x23
 7203 0ae2 14       		.uleb128 0x14
ARM GAS  C:\Users\Phuong\AppData\Local\Temp\cczAUGdE.s 			page 152


 7204 0ae3 3C000000 		.4byte	.LVL165
 7205 0ae7 3E000000 		.4byte	.LVL166
 7206 0aeb 0200     		.2byte	0x2
 7207 0aed 72       		.byte	0x72
 7208 0aee 14       		.sleb128 20
 7209 0aef 3E000000 		.4byte	.LVL166
 7210 0af3 46000000 		.4byte	.LVL167
 7211 0af7 0100     		.2byte	0x1
 7212 0af9 52       		.byte	0x52
 7213 0afa 46000000 		.4byte	.LVL167
 7214 0afe 49000000 		.4byte	.LVL168-1
 7215 0b02 0F00     		.2byte	0xf
 7216 0b04 70       		.byte	0x70
 7217 0b05 00       		.sleb128 0
 7218 0b06 31       		.byte	0x31
 7219 0b07 24       		.byte	0x24
 7220 0b08 70       		.byte	0x70
 7221 0b09 00       		.sleb128 0
 7222 0b0a 22       		.byte	0x22
 7223 0b0b 33       		.byte	0x33
 7224 0b0c 24       		.byte	0x24
 7225 0b0d 03       		.byte	0x3
 7226 0b0e 14000000 		.4byte	.LANCHOR0+20
 7227 0b12 22       		.byte	0x22
 7228 0b13 4C000000 		.4byte	.LVL169
 7229 0b17 58000000 		.4byte	.LVL170
 7230 0b1b 0100     		.2byte	0x1
 7231 0b1d 52       		.byte	0x52
 7232 0b1e 58000000 		.4byte	.LVL170
 7233 0b22 5E000000 		.4byte	.LVL171
 7234 0b26 0E00     		.2byte	0xe
 7235 0b28 74       		.byte	0x74
 7236 0b29 00       		.sleb128 0
 7237 0b2a 31       		.byte	0x31
 7238 0b2b 24       		.byte	0x24
 7239 0b2c 74       		.byte	0x74
 7240 0b2d 00       		.sleb128 0
 7241 0b2e 22       		.byte	0x22
 7242 0b2f 33       		.byte	0x33
 7243 0b30 24       		.byte	0x24
 7244 0b31 71       		.byte	0x71
 7245 0b32 00       		.sleb128 0
 7246 0b33 22       		.byte	0x22
 7247 0b34 23       		.byte	0x23
 7248 0b35 14       		.uleb128 0x14
 7249 0b36 60000000 		.4byte	.LVL172
 7250 0b3a 6C000000 		.4byte	.LVL173
 7251 0b3e 0100     		.2byte	0x1
 7252 0b40 52       		.byte	0x52
 7253 0b41 6C000000 		.4byte	.LVL173
 7254 0b45 72000000 		.4byte	.LVL174
 7255 0b49 0E00     		.2byte	0xe
 7256 0b4b 74       		.byte	0x74
 7257 0b4c 00       		.sleb128 0
 7258 0b4d 31       		.byte	0x31
 7259 0b4e 24       		.byte	0x24
 7260 0b4f 74       		.byte	0x74
ARM GAS  C:\Users\Phuong\AppData\Local\Temp\cczAUGdE.s 			page 153


 7261 0b50 00       		.sleb128 0
 7262 0b51 22       		.byte	0x22
 7263 0b52 33       		.byte	0x33
 7264 0b53 24       		.byte	0x24
 7265 0b54 71       		.byte	0x71
 7266 0b55 00       		.sleb128 0
 7267 0b56 22       		.byte	0x22
 7268 0b57 23       		.byte	0x23
 7269 0b58 14       		.uleb128 0x14
 7270 0b59 74000000 		.4byte	.LVL175
 7271 0b5d 7A000000 		.4byte	.LVL176
 7272 0b61 0100     		.2byte	0x1
 7273 0b63 52       		.byte	0x52
 7274 0b64 7A000000 		.4byte	.LVL176
 7275 0b68 80000000 		.4byte	.LVL177
 7276 0b6c 0E00     		.2byte	0xe
 7277 0b6e 70       		.byte	0x70
 7278 0b6f 00       		.sleb128 0
 7279 0b70 31       		.byte	0x31
 7280 0b71 24       		.byte	0x24
 7281 0b72 70       		.byte	0x70
 7282 0b73 00       		.sleb128 0
 7283 0b74 22       		.byte	0x22
 7284 0b75 33       		.byte	0x33
 7285 0b76 24       		.byte	0x24
 7286 0b77 71       		.byte	0x71
 7287 0b78 00       		.sleb128 0
 7288 0b79 22       		.byte	0x22
 7289 0b7a 23       		.byte	0x23
 7290 0b7b 14       		.uleb128 0x14
 7291 0b7c 80000000 		.4byte	.LVL177
 7292 0b80 8A000000 		.4byte	.LVL178
 7293 0b84 0E00     		.2byte	0xe
 7294 0b86 70       		.byte	0x70
 7295 0b87 00       		.sleb128 0
 7296 0b88 31       		.byte	0x31
 7297 0b89 24       		.byte	0x24
 7298 0b8a 70       		.byte	0x70
 7299 0b8b 00       		.sleb128 0
 7300 0b8c 22       		.byte	0x22
 7301 0b8d 33       		.byte	0x33
 7302 0b8e 24       		.byte	0x24
 7303 0b8f 72       		.byte	0x72
 7304 0b90 00       		.sleb128 0
 7305 0b91 22       		.byte	0x22
 7306 0b92 23       		.byte	0x23
 7307 0b93 14       		.uleb128 0x14
 7308 0b94 8A000000 		.4byte	.LVL178
 7309 0b98 8D000000 		.4byte	.LVL179-1
 7310 0b9c 0E00     		.2byte	0xe
 7311 0b9e 74       		.byte	0x74
 7312 0b9f 00       		.sleb128 0
 7313 0ba0 31       		.byte	0x31
 7314 0ba1 24       		.byte	0x24
 7315 0ba2 74       		.byte	0x74
 7316 0ba3 00       		.sleb128 0
 7317 0ba4 22       		.byte	0x22
ARM GAS  C:\Users\Phuong\AppData\Local\Temp\cczAUGdE.s 			page 154


 7318 0ba5 33       		.byte	0x33
 7319 0ba6 24       		.byte	0x24
 7320 0ba7 72       		.byte	0x72
 7321 0ba8 00       		.sleb128 0
 7322 0ba9 22       		.byte	0x22
 7323 0baa 23       		.byte	0x23
 7324 0bab 14       		.uleb128 0x14
 7325 0bac 00000000 		.4byte	0
 7326 0bb0 00000000 		.4byte	0
 7327              	.LLST51:
 7328 0bb4 00000000 		.4byte	.LVL183
 7329 0bb8 3D000000 		.4byte	.LVL186-1
 7330 0bbc 0100     		.2byte	0x1
 7331 0bbe 50       		.byte	0x50
 7332 0bbf 3D000000 		.4byte	.LVL186-1
 7333 0bc3 52000000 		.4byte	.LVL187
 7334 0bc7 0100     		.2byte	0x1
 7335 0bc9 55       		.byte	0x55
 7336 0bca 52000000 		.4byte	.LVL187
 7337 0bce 5E000000 		.4byte	.LVL188
 7338 0bd2 0100     		.2byte	0x1
 7339 0bd4 50       		.byte	0x50
 7340 0bd5 5E000000 		.4byte	.LVL188
 7341 0bd9 A8000000 		.4byte	.LVL192
 7342 0bdd 0100     		.2byte	0x1
 7343 0bdf 55       		.byte	0x55
 7344 0be0 A8000000 		.4byte	.LVL192
 7345 0be4 B0000000 		.4byte	.LFE62
 7346 0be8 0400     		.2byte	0x4
 7347 0bea F3       		.byte	0xf3
 7348 0beb 01       		.uleb128 0x1
 7349 0bec 50       		.byte	0x50
 7350 0bed 9F       		.byte	0x9f
 7351 0bee 00000000 		.4byte	0
 7352 0bf2 00000000 		.4byte	0
 7353              	.LLST52:
 7354 0bf6 00000000 		.4byte	.LVL183
 7355 0bfa 36000000 		.4byte	.LVL185
 7356 0bfe 0100     		.2byte	0x1
 7357 0c00 51       		.byte	0x51
 7358 0c01 36000000 		.4byte	.LVL185
 7359 0c05 52000000 		.4byte	.LVL187
 7360 0c09 0100     		.2byte	0x1
 7361 0c0b 56       		.byte	0x56
 7362 0c0c 52000000 		.4byte	.LVL187
 7363 0c10 62000000 		.4byte	.LVL189
 7364 0c14 0100     		.2byte	0x1
 7365 0c16 51       		.byte	0x51
 7366 0c17 62000000 		.4byte	.LVL189
 7367 0c1b A8000000 		.4byte	.LVL193
 7368 0c1f 0100     		.2byte	0x1
 7369 0c21 56       		.byte	0x56
 7370 0c22 A8000000 		.4byte	.LVL193
 7371 0c26 B0000000 		.4byte	.LFE62
 7372 0c2a 0400     		.2byte	0x4
 7373 0c2c F3       		.byte	0xf3
 7374 0c2d 01       		.uleb128 0x1
ARM GAS  C:\Users\Phuong\AppData\Local\Temp\cczAUGdE.s 			page 155


 7375 0c2e 51       		.byte	0x51
 7376 0c2f 9F       		.byte	0x9f
 7377 0c30 00000000 		.4byte	0
 7378 0c34 00000000 		.4byte	0
 7379              	.LLST53:
 7380 0c38 00000000 		.4byte	.LVL183
 7381 0c3c 0C000000 		.4byte	.LVL184
 7382 0c40 0100     		.2byte	0x1
 7383 0c42 52       		.byte	0x52
 7384 0c43 0C000000 		.4byte	.LVL184
 7385 0c47 B0000000 		.4byte	.LFE62
 7386 0c4b 0400     		.2byte	0x4
 7387 0c4d F3       		.byte	0xf3
 7388 0c4e 01       		.uleb128 0x1
 7389 0c4f 52       		.byte	0x52
 7390 0c50 9F       		.byte	0x9f
 7391 0c51 00000000 		.4byte	0
 7392 0c55 00000000 		.4byte	0
 7393              	.LLST54:
 7394 0c59 00000000 		.4byte	.LVL194
 7395 0c5d 18000000 		.4byte	.LVL197
 7396 0c61 0100     		.2byte	0x1
 7397 0c63 50       		.byte	0x50
 7398 0c64 18000000 		.4byte	.LVL197
 7399 0c68 1B000000 		.4byte	.LVL198-1
 7400 0c6c 0100     		.2byte	0x1
 7401 0c6e 51       		.byte	0x51
 7402 0c6f 1B000000 		.4byte	.LVL198-1
 7403 0c73 BC010000 		.4byte	.LVL249
 7404 0c77 0100     		.2byte	0x1
 7405 0c79 57       		.byte	0x57
 7406 0c7a BC010000 		.4byte	.LVL249
 7407 0c7e D8010000 		.4byte	.LFE64
 7408 0c82 0400     		.2byte	0x4
 7409 0c84 F3       		.byte	0xf3
 7410 0c85 01       		.uleb128 0x1
 7411 0c86 50       		.byte	0x50
 7412 0c87 9F       		.byte	0x9f
 7413 0c88 00000000 		.4byte	0
 7414 0c8c 00000000 		.4byte	0
 7415              	.LLST55:
 7416 0c90 00000000 		.4byte	.LVL194
 7417 0c94 16000000 		.4byte	.LVL196
 7418 0c98 0100     		.2byte	0x1
 7419 0c9a 51       		.byte	0x51
 7420 0c9b 16000000 		.4byte	.LVL196
 7421 0c9f FC000000 		.4byte	.LVL220
 7422 0ca3 0100     		.2byte	0x1
 7423 0ca5 55       		.byte	0x55
 7424 0ca6 FC000000 		.4byte	.LVL220
 7425 0caa 12010000 		.4byte	.LVL223
 7426 0cae 0400     		.2byte	0x4
 7427 0cb0 F3       		.byte	0xf3
 7428 0cb1 01       		.uleb128 0x1
 7429 0cb2 51       		.byte	0x51
 7430 0cb3 9F       		.byte	0x9f
 7431 0cb4 12010000 		.4byte	.LVL223
ARM GAS  C:\Users\Phuong\AppData\Local\Temp\cczAUGdE.s 			page 156


 7432 0cb8 1A010000 		.4byte	.LVL225
 7433 0cbc 0100     		.2byte	0x1
 7434 0cbe 55       		.byte	0x55
 7435 0cbf 1A010000 		.4byte	.LVL225
 7436 0cc3 9E010000 		.4byte	.LVL244
 7437 0cc7 0400     		.2byte	0x4
 7438 0cc9 F3       		.byte	0xf3
 7439 0cca 01       		.uleb128 0x1
 7440 0ccb 51       		.byte	0x51
 7441 0ccc 9F       		.byte	0x9f
 7442 0ccd 9E010000 		.4byte	.LVL244
 7443 0cd1 B8010000 		.4byte	.LVL246
 7444 0cd5 0100     		.2byte	0x1
 7445 0cd7 55       		.byte	0x55
 7446 0cd8 B8010000 		.4byte	.LVL246
 7447 0cdc D8010000 		.4byte	.LFE64
 7448 0ce0 0400     		.2byte	0x4
 7449 0ce2 F3       		.byte	0xf3
 7450 0ce3 01       		.uleb128 0x1
 7451 0ce4 51       		.byte	0x51
 7452 0ce5 9F       		.byte	0x9f
 7453 0ce6 00000000 		.4byte	0
 7454 0cea 00000000 		.4byte	0
 7455              	.LLST56:
 7456 0cee 00000000 		.4byte	.LVL194
 7457 0cf2 1B000000 		.4byte	.LVL198-1
 7458 0cf6 0100     		.2byte	0x1
 7459 0cf8 52       		.byte	0x52
 7460 0cf9 1B000000 		.4byte	.LVL198-1
 7461 0cfd BC010000 		.4byte	.LVL248
 7462 0d01 0100     		.2byte	0x1
 7463 0d03 56       		.byte	0x56
 7464 0d04 BC010000 		.4byte	.LVL248
 7465 0d08 D8010000 		.4byte	.LFE64
 7466 0d0c 0400     		.2byte	0x4
 7467 0d0e F3       		.byte	0xf3
 7468 0d0f 01       		.uleb128 0x1
 7469 0d10 52       		.byte	0x52
 7470 0d11 9F       		.byte	0x9f
 7471 0d12 00000000 		.4byte	0
 7472 0d16 00000000 		.4byte	0
 7473              	.LLST57:
 7474 0d1a 14000000 		.4byte	.LVL195
 7475 0d1e BC010000 		.4byte	.LVL250
 7476 0d22 0100     		.2byte	0x1
 7477 0d24 58       		.byte	0x58
 7478 0d25 BC010000 		.4byte	.LVL250
 7479 0d29 D8010000 		.4byte	.LFE64
 7480 0d2d 0600     		.2byte	0x6
 7481 0d2f F3       		.byte	0xf3
 7482 0d30 01       		.uleb128 0x1
 7483 0d31 50       		.byte	0x50
 7484 0d32 23       		.byte	0x23
 7485 0d33 37       		.uleb128 0x37
 7486 0d34 9F       		.byte	0x9f
 7487 0d35 00000000 		.4byte	0
 7488 0d39 00000000 		.4byte	0
ARM GAS  C:\Users\Phuong\AppData\Local\Temp\cczAUGdE.s 			page 157


 7489              	.LLST58:
 7490 0d3d 14000000 		.4byte	.LVL195
 7491 0d41 90000000 		.4byte	.LVL206
 7492 0d45 0300     		.2byte	0x3
 7493 0d47 09       		.byte	0x9
 7494 0d48 FF       		.byte	0xff
 7495 0d49 9F       		.byte	0x9f
 7496 0d4a 90000000 		.4byte	.LVL206
 7497 0d4e 96000000 		.4byte	.LVL207
 7498 0d52 0100     		.2byte	0x1
 7499 0d54 50       		.byte	0x50
 7500 0d55 96000000 		.4byte	.LVL207
 7501 0d59 9A000000 		.4byte	.LVL209
 7502 0d5d 0300     		.2byte	0x3
 7503 0d5f 09       		.byte	0x9
 7504 0d60 FF       		.byte	0xff
 7505 0d61 9F       		.byte	0x9f
 7506 0d62 9A000000 		.4byte	.LVL209
 7507 0d66 AC000000 		.4byte	.LVL210
 7508 0d6a 0100     		.2byte	0x1
 7509 0d6c 53       		.byte	0x53
 7510 0d6d CC000000 		.4byte	.LVL211
 7511 0d71 CE000000 		.4byte	.LVL212
 7512 0d75 0100     		.2byte	0x1
 7513 0d77 50       		.byte	0x50
 7514 0d78 CE000000 		.4byte	.LVL212
 7515 0d7c D6000000 		.4byte	.LVL213
 7516 0d80 0100     		.2byte	0x1
 7517 0d82 53       		.byte	0x53
 7518 0d83 E0000000 		.4byte	.LVL215
 7519 0d87 E2000000 		.4byte	.LVL216
 7520 0d8b 0100     		.2byte	0x1
 7521 0d8d 53       		.byte	0x53
 7522 0d8e 8A010000 		.4byte	.LVL241
 7523 0d92 90010000 		.4byte	.LVL242
 7524 0d96 0300     		.2byte	0x3
 7525 0d98 09       		.byte	0x9
 7526 0d99 FF       		.byte	0xff
 7527 0d9a 9F       		.byte	0x9f
 7528 0d9b 98010000 		.4byte	.LVL243
 7529 0d9f B8010000 		.4byte	.LVL246
 7530 0da3 0300     		.2byte	0x3
 7531 0da5 09       		.byte	0x9
 7532 0da6 FF       		.byte	0xff
 7533 0da7 9F       		.byte	0x9f
 7534 0da8 00000000 		.4byte	0
 7535 0dac 00000000 		.4byte	0
 7536              	.LLST59:
 7537 0db0 14000000 		.4byte	.LVL195
 7538 0db4 68000000 		.4byte	.LVL201
 7539 0db8 0200     		.2byte	0x2
 7540 0dba 30       		.byte	0x30
 7541 0dbb 9F       		.byte	0x9f
 7542 0dbc 68000000 		.4byte	.LVL201
 7543 0dc0 7C000000 		.4byte	.LVL202
 7544 0dc4 0200     		.2byte	0x2
 7545 0dc6 31       		.byte	0x31
ARM GAS  C:\Users\Phuong\AppData\Local\Temp\cczAUGdE.s 			page 158


 7546 0dc7 9F       		.byte	0x9f
 7547 0dc8 7C000000 		.4byte	.LVL202
 7548 0dcc 7E000000 		.4byte	.LVL203
 7549 0dd0 0200     		.2byte	0x2
 7550 0dd2 30       		.byte	0x30
 7551 0dd3 9F       		.byte	0x9f
 7552 0dd4 7E000000 		.4byte	.LVL203
 7553 0dd8 8D000000 		.4byte	.LVL205-1
 7554 0ddc 0100     		.2byte	0x1
 7555 0dde 53       		.byte	0x53
 7556 0ddf 96000000 		.4byte	.LVL207
 7557 0de3 98000000 		.4byte	.LVL208
 7558 0de7 0100     		.2byte	0x1
 7559 0de9 53       		.byte	0x53
 7560 0dea 9E010000 		.4byte	.LVL244
 7561 0dee B8010000 		.4byte	.LVL246
 7562 0df2 0200     		.2byte	0x2
 7563 0df4 30       		.byte	0x30
 7564 0df5 9F       		.byte	0x9f
 7565 0df6 00000000 		.4byte	0
 7566 0dfa 00000000 		.4byte	0
 7567              	.LLST60:
 7568 0dfe 46000000 		.4byte	.LVL200
 7569 0e02 8A000000 		.4byte	.LVL204
 7570 0e06 0100     		.2byte	0x1
 7571 0e08 50       		.byte	0x50
 7572 0e09 96000000 		.4byte	.LVL207
 7573 0e0d 9A000000 		.4byte	.LVL209
 7574 0e11 0100     		.2byte	0x1
 7575 0e13 50       		.byte	0x50
 7576 0e14 B6010000 		.4byte	.LVL245
 7577 0e18 B8010000 		.4byte	.LVL246
 7578 0e1c 0100     		.2byte	0x1
 7579 0e1e 50       		.byte	0x50
 7580 0e1f 00000000 		.4byte	0
 7581 0e23 00000000 		.4byte	0
 7582              	.LLST61:
 7583 0e27 D6000000 		.4byte	.LVL213
 7584 0e2b E0000000 		.4byte	.LVL215
 7585 0e2f 0100     		.2byte	0x1
 7586 0e31 53       		.byte	0x53
 7587 0e32 E2000000 		.4byte	.LVL216
 7588 0e36 F9000000 		.4byte	.LVL219-1
 7589 0e3a 0100     		.2byte	0x1
 7590 0e3c 53       		.byte	0x53
 7591 0e3d FC000000 		.4byte	.LVL220
 7592 0e41 03010000 		.4byte	.LVL221-1
 7593 0e45 0100     		.2byte	0x1
 7594 0e47 50       		.byte	0x50
 7595 0e48 03010000 		.4byte	.LVL221-1
 7596 0e4c 0E010000 		.4byte	.LVL222
 7597 0e50 0100     		.2byte	0x1
 7598 0e52 55       		.byte	0x55
 7599 0e53 0E010000 		.4byte	.LVL222
 7600 0e57 12010000 		.4byte	.LVL223
 7601 0e5b 0200     		.2byte	0x2
 7602 0e5d 30       		.byte	0x30
ARM GAS  C:\Users\Phuong\AppData\Local\Temp\cczAUGdE.s 			page 159


 7603 0e5e 9F       		.byte	0x9f
 7604 0e5f 12010000 		.4byte	.LVL223
 7605 0e63 1A010000 		.4byte	.LVL225
 7606 0e67 0100     		.2byte	0x1
 7607 0e69 56       		.byte	0x56
 7608 0e6a 1A010000 		.4byte	.LVL225
 7609 0e6e 6E010000 		.4byte	.LVL236
 7610 0e72 0100     		.2byte	0x1
 7611 0e74 55       		.byte	0x55
 7612 0e75 84010000 		.4byte	.LVL239
 7613 0e79 9E010000 		.4byte	.LVL244
 7614 0e7d 0100     		.2byte	0x1
 7615 0e7f 55       		.byte	0x55
 7616 0e80 B8010000 		.4byte	.LVL246
 7617 0e84 BA010000 		.4byte	.LVL247
 7618 0e88 0100     		.2byte	0x1
 7619 0e8a 55       		.byte	0x55
 7620 0e8b 00000000 		.4byte	0
 7621 0e8f 00000000 		.4byte	0
 7622              	.LLST62:
 7623 0e93 EC000000 		.4byte	.LVL217
 7624 0e97 F4000000 		.4byte	.LVL218
 7625 0e9b 0100     		.2byte	0x1
 7626 0e9d 52       		.byte	0x52
 7627 0e9e 12010000 		.4byte	.LVL223
 7628 0ea2 17010000 		.4byte	.LVL224-1
 7629 0ea6 0100     		.2byte	0x1
 7630 0ea8 52       		.byte	0x52
 7631 0ea9 00000000 		.4byte	0
 7632 0ead 00000000 		.4byte	0
 7633              	.LLST63:
 7634 0eb1 28010000 		.4byte	.LVL226
 7635 0eb5 68010000 		.4byte	.LVL234
 7636 0eb9 0100     		.2byte	0x1
 7637 0ebb 50       		.byte	0x50
 7638 0ebc 84010000 		.4byte	.LVL239
 7639 0ec0 86010000 		.4byte	.LVL240
 7640 0ec4 0100     		.2byte	0x1
 7641 0ec6 50       		.byte	0x50
 7642 0ec7 B8010000 		.4byte	.LVL246
 7643 0ecb BA010000 		.4byte	.LVL247
 7644 0ecf 0100     		.2byte	0x1
 7645 0ed1 50       		.byte	0x50
 7646 0ed2 00000000 		.4byte	0
 7647 0ed6 00000000 		.4byte	0
 7648              	.LLST64:
 7649 0eda 2C010000 		.4byte	.LVL227
 7650 0ede 42010000 		.4byte	.LVL228
 7651 0ee2 0200     		.2byte	0x2
 7652 0ee4 30       		.byte	0x30
 7653 0ee5 9F       		.byte	0x9f
 7654 0ee6 42010000 		.4byte	.LVL228
 7655 0eea 48010000 		.4byte	.LVL230
 7656 0eee 0100     		.2byte	0x1
 7657 0ef0 51       		.byte	0x51
 7658 0ef1 48010000 		.4byte	.LVL230
 7659 0ef5 4A010000 		.4byte	.LVL231
ARM GAS  C:\Users\Phuong\AppData\Local\Temp\cczAUGdE.s 			page 160


 7660 0ef9 0200     		.2byte	0x2
 7661 0efb 30       		.byte	0x30
 7662 0efc 9F       		.byte	0x9f
 7663 0efd 4A010000 		.4byte	.LVL231
 7664 0f01 54010000 		.4byte	.LVL232
 7665 0f05 0100     		.2byte	0x1
 7666 0f07 51       		.byte	0x51
 7667 0f08 54010000 		.4byte	.LVL232
 7668 0f0c 60010000 		.4byte	.LVL233
 7669 0f10 0200     		.2byte	0x2
 7670 0f12 30       		.byte	0x30
 7671 0f13 9F       		.byte	0x9f
 7672 0f14 60010000 		.4byte	.LVL233
 7673 0f18 6A010000 		.4byte	.LVL235
 7674 0f1c 0100     		.2byte	0x1
 7675 0f1e 51       		.byte	0x51
 7676 0f1f B8010000 		.4byte	.LVL246
 7677 0f23 BA010000 		.4byte	.LVL247
 7678 0f27 0100     		.2byte	0x1
 7679 0f29 51       		.byte	0x51
 7680 0f2a 00000000 		.4byte	0
 7681 0f2e 00000000 		.4byte	0
 7682              	.LLST65:
 7683 0f32 42010000 		.4byte	.LVL228
 7684 0f36 48010000 		.4byte	.LVL230
 7685 0f3a 0100     		.2byte	0x1
 7686 0f3c 53       		.byte	0x53
 7687 0f3d 4A010000 		.4byte	.LVL231
 7688 0f41 54010000 		.4byte	.LVL232
 7689 0f45 0100     		.2byte	0x1
 7690 0f47 52       		.byte	0x52
 7691 0f48 00000000 		.4byte	0
 7692 0f4c 00000000 		.4byte	0
 7693              	.LLST66:
 7694 0f50 6E010000 		.4byte	.LVL236
 7695 0f54 84010000 		.4byte	.LVL239
 7696 0f58 0100     		.2byte	0x1
 7697 0f5a 55       		.byte	0x55
 7698 0f5b 00000000 		.4byte	0
 7699 0f5f 00000000 		.4byte	0
 7700              	.LLST67:
 7701 0f63 00000000 		.4byte	.LVL251
 7702 0f67 0E000000 		.4byte	.LVL254
 7703 0f6b 0100     		.2byte	0x1
 7704 0f6d 50       		.byte	0x50
 7705 0f6e 0E000000 		.4byte	.LVL254
 7706 0f72 11000000 		.4byte	.LVL255-1
 7707 0f76 0100     		.2byte	0x1
 7708 0f78 51       		.byte	0x51
 7709 0f79 11000000 		.4byte	.LVL255-1
 7710 0f7d 04010000 		.4byte	.LVL276
 7711 0f81 0100     		.2byte	0x1
 7712 0f83 56       		.byte	0x56
 7713 0f84 04010000 		.4byte	.LVL276
 7714 0f88 1C010000 		.4byte	.LFE63
 7715 0f8c 0400     		.2byte	0x4
 7716 0f8e F3       		.byte	0xf3
ARM GAS  C:\Users\Phuong\AppData\Local\Temp\cczAUGdE.s 			page 161


 7717 0f8f 01       		.uleb128 0x1
 7718 0f90 50       		.byte	0x50
 7719 0f91 9F       		.byte	0x9f
 7720 0f92 00000000 		.4byte	0
 7721 0f96 00000000 		.4byte	0
 7722              	.LLST68:
 7723 0f9a 00000000 		.4byte	.LVL251
 7724 0f9e 0C000000 		.4byte	.LVL253
 7725 0fa2 0100     		.2byte	0x1
 7726 0fa4 51       		.byte	0x51
 7727 0fa5 0C000000 		.4byte	.LVL253
 7728 0fa9 04010000 		.4byte	.LVL274
 7729 0fad 0100     		.2byte	0x1
 7730 0faf 54       		.byte	0x54
 7731 0fb0 04010000 		.4byte	.LVL274
 7732 0fb4 1C010000 		.4byte	.LFE63
 7733 0fb8 0400     		.2byte	0x4
 7734 0fba F3       		.byte	0xf3
 7735 0fbb 01       		.uleb128 0x1
 7736 0fbc 51       		.byte	0x51
 7737 0fbd 9F       		.byte	0x9f
 7738 0fbe 00000000 		.4byte	0
 7739 0fc2 00000000 		.4byte	0
 7740              	.LLST69:
 7741 0fc6 00000000 		.4byte	.LVL251
 7742 0fca 11000000 		.4byte	.LVL255-1
 7743 0fce 0100     		.2byte	0x1
 7744 0fd0 52       		.byte	0x52
 7745 0fd1 11000000 		.4byte	.LVL255-1
 7746 0fd5 5C000000 		.4byte	.LVL258
 7747 0fd9 0100     		.2byte	0x1
 7748 0fdb 55       		.byte	0x55
 7749 0fdc 5C000000 		.4byte	.LVL258
 7750 0fe0 E8000000 		.4byte	.LVL270
 7751 0fe4 0400     		.2byte	0x4
 7752 0fe6 F3       		.byte	0xf3
 7753 0fe7 01       		.uleb128 0x1
 7754 0fe8 52       		.byte	0x52
 7755 0fe9 9F       		.byte	0x9f
 7756 0fea E8000000 		.4byte	.LVL270
 7757 0fee 02010000 		.4byte	.LVL273
 7758 0ff2 0100     		.2byte	0x1
 7759 0ff4 55       		.byte	0x55
 7760 0ff5 02010000 		.4byte	.LVL273
 7761 0ff9 1C010000 		.4byte	.LFE63
 7762 0ffd 0400     		.2byte	0x4
 7763 0fff F3       		.byte	0xf3
 7764 1000 01       		.uleb128 0x1
 7765 1001 52       		.byte	0x52
 7766 1002 9F       		.byte	0x9f
 7767 1003 00000000 		.4byte	0
 7768 1007 00000000 		.4byte	0
 7769              	.LLST70:
 7770 100b 3E000000 		.4byte	.LVL256
 7771 100f 40000000 		.4byte	.LVL257
 7772 1013 0100     		.2byte	0x1
 7773 1015 53       		.byte	0x53
ARM GAS  C:\Users\Phuong\AppData\Local\Temp\cczAUGdE.s 			page 162


 7774 1016 EA000000 		.4byte	.LVL271
 7775 101a FB000000 		.4byte	.LVL272-1
 7776 101e 0100     		.2byte	0x1
 7777 1020 53       		.byte	0x53
 7778 1021 00000000 		.4byte	0
 7779 1025 00000000 		.4byte	0
 7780              	.LLST71:
 7781 1029 0A000000 		.4byte	.LVL252
 7782 102d 11000000 		.4byte	.LVL255-1
 7783 1031 0100     		.2byte	0x1
 7784 1033 52       		.byte	0x52
 7785 1034 11000000 		.4byte	.LVL255-1
 7786 1038 5C000000 		.4byte	.LVL258
 7787 103c 0100     		.2byte	0x1
 7788 103e 55       		.byte	0x55
 7789 103f 5C000000 		.4byte	.LVL258
 7790 1043 5E000000 		.4byte	.LVL259
 7791 1047 0400     		.2byte	0x4
 7792 1049 F3       		.byte	0xf3
 7793 104a 01       		.uleb128 0x1
 7794 104b 52       		.byte	0x52
 7795 104c 9F       		.byte	0x9f
 7796 104d 5E000000 		.4byte	.LVL259
 7797 1051 04010000 		.4byte	.LVL275
 7798 1055 0100     		.2byte	0x1
 7799 1057 55       		.byte	0x55
 7800 1058 00000000 		.4byte	0
 7801 105c 00000000 		.4byte	0
 7802              	.LLST72:
 7803 1060 98000000 		.4byte	.LVL261
 7804 1064 C9000000 		.4byte	.LVL262-1
 7805 1068 0100     		.2byte	0x1
 7806 106a 52       		.byte	0x52
 7807 106b CC000000 		.4byte	.LVL263
 7808 106f CE000000 		.4byte	.LVL264
 7809 1073 0100     		.2byte	0x1
 7810 1075 52       		.byte	0x52
 7811 1076 D0000000 		.4byte	.LVL265
 7812 107a D2000000 		.4byte	.LVL266
 7813 107e 0100     		.2byte	0x1
 7814 1080 52       		.byte	0x52
 7815 1081 D8000000 		.4byte	.LVL267
 7816 1085 DE000000 		.4byte	.LVL268
 7817 1089 0100     		.2byte	0x1
 7818 108b 52       		.byte	0x52
 7819 108c 00000000 		.4byte	0
 7820 1090 00000000 		.4byte	0
 7821              		.section	.debug_aranges,"",%progbits
 7822 0000 8C000000 		.4byte	0x8c
 7823 0004 0200     		.2byte	0x2
 7824 0006 00000000 		.4byte	.Ldebug_info0
 7825 000a 04       		.byte	0x4
 7826 000b 00       		.byte	0
 7827 000c 0000     		.2byte	0
 7828 000e 0000     		.2byte	0
 7829 0010 00000000 		.4byte	.LFB53
 7830 0014 1E000000 		.4byte	.LFE53-.LFB53
ARM GAS  C:\Users\Phuong\AppData\Local\Temp\cczAUGdE.s 			page 163


 7831 0018 00000000 		.4byte	.LFB54
 7832 001c 54000000 		.4byte	.LFE54-.LFB54
 7833 0020 00000000 		.4byte	.LFB56
 7834 0024 54010000 		.4byte	.LFE56-.LFB56
 7835 0028 00000000 		.4byte	.LFB57
 7836 002c C0000000 		.4byte	.LFE57-.LFB57
 7837 0030 00000000 		.4byte	.LFB65
 7838 0034 B0000000 		.4byte	.LFE65-.LFB65
 7839 0038 00000000 		.4byte	.LFB66
 7840 003c 28000000 		.4byte	.LFE66-.LFB66
 7841 0040 00000000 		.4byte	.LFB58
 7842 0044 3C000000 		.4byte	.LFE58-.LFB58
 7843 0048 00000000 		.4byte	.LFB59
 7844 004c 50000000 		.4byte	.LFE59-.LFB59
 7845 0050 00000000 		.4byte	.LFB60
 7846 0054 44000000 		.4byte	.LFE60-.LFB60
 7847 0058 00000000 		.4byte	.LFB61
 7848 005c F4000000 		.4byte	.LFE61-.LFB61
 7849 0060 00000000 		.4byte	.LFB67
 7850 0064 10000000 		.4byte	.LFE67-.LFB67
 7851 0068 00000000 		.4byte	.LFB55
 7852 006c 9C000000 		.4byte	.LFE55-.LFB55
 7853 0070 00000000 		.4byte	.LFB62
 7854 0074 B0000000 		.4byte	.LFE62-.LFB62
 7855 0078 00000000 		.4byte	.LFB64
 7856 007c D8010000 		.4byte	.LFE64-.LFB64
 7857 0080 00000000 		.4byte	.LFB63
 7858 0084 1C010000 		.4byte	.LFE63-.LFB63
 7859 0088 00000000 		.4byte	0
 7860 008c 00000000 		.4byte	0
 7861              		.section	.debug_ranges,"",%progbits
 7862              	.Ldebug_ranges0:
 7863 0000 D2000000 		.4byte	.LBB6
 7864 0004 E0000000 		.4byte	.LBE6
 7865 0008 E2000000 		.4byte	.LBB14
 7866 000c 9E010000 		.4byte	.LBE14
 7867 0010 B8010000 		.4byte	.LBB15
 7868 0014 BA010000 		.4byte	.LBE15
 7869 0018 00000000 		.4byte	0
 7870 001c 00000000 		.4byte	0
 7871 0020 1E010000 		.4byte	.LBB7
 7872 0024 90010000 		.4byte	.LBE7
 7873 0028 B8010000 		.4byte	.LBB13
 7874 002c BA010000 		.4byte	.LBE13
 7875 0030 00000000 		.4byte	0
 7876 0034 00000000 		.4byte	0
 7877 0038 2C010000 		.4byte	.LBB8
 7878 003c 84010000 		.4byte	.LBE8
 7879 0040 B8010000 		.4byte	.LBB12
 7880 0044 BA010000 		.4byte	.LBE12
 7881 0048 00000000 		.4byte	0
 7882 004c 00000000 		.4byte	0
 7883 0050 42010000 		.4byte	.LBB9
 7884 0054 48010000 		.4byte	.LBE9
 7885 0058 4A010000 		.4byte	.LBB10
 7886 005c 52010000 		.4byte	.LBE10
 7887 0060 00000000 		.4byte	0
ARM GAS  C:\Users\Phuong\AppData\Local\Temp\cczAUGdE.s 			page 164


 7888 0064 00000000 		.4byte	0
 7889 0068 40000000 		.4byte	.LBB16
 7890 006c E8000000 		.4byte	.LBE16
 7891 0070 FE000000 		.4byte	.LBB17
 7892 0074 02010000 		.4byte	.LBE17
 7893 0078 00000000 		.4byte	0
 7894 007c 00000000 		.4byte	0
 7895 0080 00000000 		.4byte	.LFB53
 7896 0084 1E000000 		.4byte	.LFE53
 7897 0088 00000000 		.4byte	.LFB54
 7898 008c 54000000 		.4byte	.LFE54
 7899 0090 00000000 		.4byte	.LFB56
 7900 0094 54010000 		.4byte	.LFE56
 7901 0098 00000000 		.4byte	.LFB57
 7902 009c C0000000 		.4byte	.LFE57
 7903 00a0 00000000 		.4byte	.LFB65
 7904 00a4 B0000000 		.4byte	.LFE65
 7905 00a8 00000000 		.4byte	.LFB66
 7906 00ac 28000000 		.4byte	.LFE66
 7907 00b0 00000000 		.4byte	.LFB58
 7908 00b4 3C000000 		.4byte	.LFE58
 7909 00b8 00000000 		.4byte	.LFB59
 7910 00bc 50000000 		.4byte	.LFE59
 7911 00c0 00000000 		.4byte	.LFB60
 7912 00c4 44000000 		.4byte	.LFE60
 7913 00c8 00000000 		.4byte	.LFB61
 7914 00cc F4000000 		.4byte	.LFE61
 7915 00d0 00000000 		.4byte	.LFB67
 7916 00d4 10000000 		.4byte	.LFE67
 7917 00d8 00000000 		.4byte	.LFB55
 7918 00dc 9C000000 		.4byte	.LFE55
 7919 00e0 00000000 		.4byte	.LFB62
 7920 00e4 B0000000 		.4byte	.LFE62
 7921 00e8 00000000 		.4byte	.LFB64
 7922 00ec D8010000 		.4byte	.LFE64
 7923 00f0 00000000 		.4byte	.LFB63
 7924 00f4 1C010000 		.4byte	.LFE63
 7925 00f8 00000000 		.4byte	0
 7926 00fc 00000000 		.4byte	0
 7927              		.section	.debug_line,"",%progbits
 7928              	.Ldebug_line0:
 7929 0000 DE050000 		.section	.debug_str,"MS",%progbits,1
 7929      0200D602 
 7929      00000201 
 7929      FB0E0D00 
 7929      01010101 
 7930              	.LASF187:
 7931 0000 6F6C645F 		.ascii	"old_stable\000"
 7931      73746162 
 7931      6C6500
 7932              	.LASF221:
 7933 000b 716C656E 		.ascii	"qlen\000"
 7933      00
 7934              	.LASF140:
 7935 0010 6574685F 		.ascii	"eth_addr\000"
 7935      61646472 
 7935      00
ARM GAS  C:\Users\Phuong\AppData\Local\Temp\cczAUGdE.s 			page 165


 7936              	.LASF166:
 7937 0019 64687761 		.ascii	"dhwaddr\000"
 7937      64647200 
 7938              	.LASF165:
 7939 0021 73697061 		.ascii	"sipaddr\000"
 7939      64647200 
 7940              	.LASF158:
 7941 0029 65746861 		.ascii	"etharp_hdr\000"
 7941      72705F68 
 7941      647200
 7942              	.LASF143:
 7943 0034 45544854 		.ascii	"ETHTYPE_ARP\000"
 7943      5950455F 
 7943      41525000 
 7944              	.LASF65:
 7945 0040 4D454D50 		.ascii	"MEMP_TCP_PCB_LISTEN\000"
 7945      5F544350 
 7945      5F504342 
 7945      5F4C4953 
 7945      54454E00 
 7946              	.LASF121:
 7947 0054 6E657469 		.ascii	"netif\000"
 7947      6600
 7948              	.LASF13:
 7949 005a 63686172 		.ascii	"char\000"
 7949      00
 7950              	.LASF124:
 7951 005f 696E7075 		.ascii	"input\000"
 7951      7400
 7952              	.LASF36:
 7953 0065 4552525F 		.ascii	"ERR_ABRT\000"
 7953      41425254 
 7953      00
 7954              	.LASF190:
 7955 006e 6167655F 		.ascii	"age_queue\000"
 7955      71756575 
 7955      6500
 7956              	.LASF162:
 7957 0078 70726F74 		.ascii	"protolen\000"
 7957      6F6C656E 
 7957      00
 7958              	.LASF45:
 7959 0081 50425546 		.ascii	"PBUF_RAM\000"
 7959      5F52414D 
 7959      00
 7960              	.LASF115:
 7961 008a 4C574950 		.ascii	"LWIP_NETIF_CLIENT_DATA_INDEX_IGMP\000"
 7961      5F4E4554 
 7961      49465F43 
 7961      4C49454E 
 7961      545F4441 
 7962              	.LASF44:
 7963 00ac 50425546 		.ascii	"PBUF_RAW\000"
 7963      5F524157 
 7963      00
 7964              	.LASF53:
 7965 00b5 666C6167 		.ascii	"flags\000"
ARM GAS  C:\Users\Phuong\AppData\Local\Temp\cczAUGdE.s 			page 166


 7965      7300
 7966              	.LASF38:
 7967 00bb 4552525F 		.ascii	"ERR_CLSD\000"
 7967      434C5344 
 7967      00
 7968              	.LASF31:
 7969 00c4 4552525F 		.ascii	"ERR_USE\000"
 7969      55534500 
 7970              	.LASF39:
 7971 00cc 4552525F 		.ascii	"ERR_ARG\000"
 7971      41524700 
 7972              	.LASF234:
 7973 00d4 6970345F 		.ascii	"ip4_addr_isbroadcast_u32\000"
 7973      61646472 
 7973      5F697362 
 7973      726F6164 
 7973      63617374 
 7974              	.LASF141:
 7975 00ed 6574685F 		.ascii	"eth_type\000"
 7975      74797065 
 7975      00
 7976              	.LASF49:
 7977 00f6 6E657874 		.ascii	"next\000"
 7977      00
 7978              	.LASF219:
 7979 00fb 636F7079 		.ascii	"copy_needed\000"
 7979      5F6E6565 
 7979      64656400 
 7980              	.LASF22:
 7981 0107 6572725F 		.ascii	"err_t\000"
 7981      7400
 7982              	.LASF167:
 7983 010d 64697061 		.ascii	"dipaddr\000"
 7983      64647200 
 7984              	.LASF126:
 7985 0115 6C696E6B 		.ascii	"linkoutput\000"
 7985      6F757470 
 7985      757400
 7986              	.LASF204:
 7987 0120 68775F64 		.ascii	"hw_dst_addr\000"
 7987      73745F61 
 7987      64647200 
 7988              	.LASF59:
 7989 012c 61646472 		.ascii	"addrw\000"
 7989      7700
 7990              	.LASF19:
 7991 0132 7531365F 		.ascii	"u16_t\000"
 7991      7400
 7992              	.LASF79:
 7993 0138 73746174 		.ascii	"stats_mem\000"
 7993      735F6D65 
 7993      6D00
 7994              	.LASF33:
 7995 0142 4552525F 		.ascii	"ERR_ISCONN\000"
 7995      4953434F 
 7995      4E4E00
 7996              	.LASF216:
ARM GAS  C:\Users\Phuong\AppData\Local\Temp\cczAUGdE.s 			page 167


 7997 014d 65746861 		.ascii	"etharp_query\000"
 7997      72705F71 
 7997      75657279 
 7997      00
 7998              	.LASF136:
 7999 015a 6E657469 		.ascii	"netif_output_fn\000"
 7999      665F6F75 
 7999      74707574 
 7999      5F666E00 
 8000              	.LASF156:
 8001 016a 45544854 		.ascii	"ETHTYPE_PTP\000"
 8001      5950455F 
 8001      50545000 
 8002              	.LASF77:
 8003 0176 4D454D50 		.ascii	"MEMP_PBUF_POOL\000"
 8003      5F504255 
 8003      465F504F 
 8003      4F4C00
 8004              	.LASF228:
 8005 0185 6C776970 		.ascii	"lwip_stats\000"
 8005      5F737461 
 8005      747300
 8006              	.LASF196:
 8007 0190 65746873 		.ascii	"ethsrc_addr\000"
 8007      72635F61 
 8007      64647200 
 8008              	.LASF168:
 8009 019c 65746861 		.ascii	"etharp_hwtype\000"
 8009      72705F68 
 8009      77747970 
 8009      6500
 8010              	.LASF40:
 8011 01aa 50425546 		.ascii	"PBUF_TRANSPORT\000"
 8011      5F545241 
 8011      4E53504F 
 8011      525400
 8012              	.LASF32:
 8013 01b9 4552525F 		.ascii	"ERR_ALREADY\000"
 8013      414C5245 
 8013      41445900 
 8014              	.LASF103:
 8015 01c5 73746174 		.ascii	"stats_syselem\000"
 8015      735F7379 
 8015      73656C65 
 8015      6D00
 8016              	.LASF135:
 8017 01d3 6E657469 		.ascii	"netif_input_fn\000"
 8017      665F696E 
 8017      7075745F 
 8017      666E00
 8018              	.LASF14:
 8019 01e2 75696E74 		.ascii	"uint32_t\000"
 8019      33325F74 
 8019      00
 8020              	.LASF69:
 8021 01eb 4D454D50 		.ascii	"MEMP_NETCONN\000"
 8021      5F4E4554 
ARM GAS  C:\Users\Phuong\AppData\Local\Temp\cczAUGdE.s 			page 168


 8021      434F4E4E 
 8021      00
 8022              	.LASF73:
 8023 01f8 4D454D50 		.ascii	"MEMP_IGMP_GROUP\000"
 8023      5F49474D 
 8023      505F4752 
 8023      4F555000 
 8024              	.LASF70:
 8025 0208 4D454D50 		.ascii	"MEMP_TCPIP_MSG_API\000"
 8025      5F544350 
 8025      49505F4D 
 8025      53475F41 
 8025      504900
 8026              	.LASF93:
 8027 021b 6F707465 		.ascii	"opterr\000"
 8027      727200
 8028              	.LASF194:
 8029 0222 65746861 		.ascii	"etharp_update_arp_entry\000"
 8029      72705F75 
 8029      70646174 
 8029      655F6172 
 8029      705F656E 
 8030              	.LASF15:
 8031 023a 666C6F61 		.ascii	"float\000"
 8031      7400
 8032              	.LASF105:
 8033 0240 6D757465 		.ascii	"mutex\000"
 8033      7800
 8034              	.LASF153:
 8035 0246 45544854 		.ascii	"ETHTYPE_LLDP\000"
 8035      5950455F 
 8035      4C4C4450 
 8035      00
 8036              	.LASF240:
 8037 0253 474E5520 		.ascii	"GNU C11 5.4.1 20160609 (release) [ARM/embedded-5-br"
 8037      43313120 
 8037      352E342E 
 8037      31203230 
 8037      31363036 
 8038 0286 616E6368 		.ascii	"anch revision 237715] -mcpu=cortex-m0plus -mthumb -"
 8038      20726576 
 8038      6973696F 
 8038      6E203233 
 8038      37373135 
 8039 02b9 67202D4F 		.ascii	"g -Og -ffunction-sections -ffat-lto-objects\000"
 8039      67202D66 
 8039      66756E63 
 8039      74696F6E 
 8039      2D736563 
 8040              	.LASF110:
 8041 02e5 69705F66 		.ascii	"ip_frag\000"
 8041      72616700 
 8042              	.LASF72:
 8043 02ed 4D454D50 		.ascii	"MEMP_ARP_QUEUE\000"
 8043      5F415250 
 8043      5F515545 
 8043      554500
ARM GAS  C:\Users\Phuong\AppData\Local\Temp\cczAUGdE.s 			page 169


 8044              	.LASF147:
 8045 02fc 45544854 		.ascii	"ETHTYPE_IPV6\000"
 8045      5950455F 
 8045      49505636 
 8045      00
 8046              	.LASF152:
 8047 0309 45544854 		.ascii	"ETHTYPE_ETHERCAT\000"
 8047      5950455F 
 8047      45544845 
 8047      52434154 
 8047      00
 8048              	.LASF145:
 8049 031a 45544854 		.ascii	"ETHTYPE_RARP\000"
 8049      5950455F 
 8049      52415250 
 8049      00
 8050              	.LASF241:
 8051 0327 536F7572 		.ascii	"Source\\LwIP\\src\\core\\ipv4\\etharp.c\000"
 8051      63655C4C 
 8051      7749505C 
 8051      7372635C 
 8051      636F7265 
 8052              	.LASF180:
 8053 034a 65746861 		.ascii	"etharp_entry\000"
 8053      72705F65 
 8053      6E747279 
 8053      00
 8054              	.LASF202:
 8055 0357 72657375 		.ascii	"result\000"
 8055      6C7400
 8056              	.LASF133:
 8057 035e 68776164 		.ascii	"hwaddr\000"
 8057      647200
 8058              	.LASF109:
 8059 0365 65746861 		.ascii	"etharp\000"
 8059      727000
 8060              	.LASF7:
 8061 036c 6C6F6E67 		.ascii	"long long unsigned int\000"
 8061      206C6F6E 
 8061      6720756E 
 8061      7369676E 
 8061      65642069 
 8062              	.LASF96:
 8063 0383 72785F76 		.ascii	"rx_v1\000"
 8063      3100
 8064              	.LASF112:
 8065 0389 69676D70 		.ascii	"igmp\000"
 8065      00
 8066              	.LASF183:
 8067 038e 6374696D 		.ascii	"ctime\000"
 8067      6500
 8068              	.LASF175:
 8069 0394 45544841 		.ascii	"ETHARP_STATE_EMPTY\000"
 8069      52505F53 
 8069      54415445 
 8069      5F454D50 
 8069      545900
ARM GAS  C:\Users\Phuong\AppData\Local\Temp\cczAUGdE.s 			page 170


 8070              	.LASF57:
 8071 03a7 6970345F 		.ascii	"ip4_addr_t\000"
 8071      61646472 
 8071      5F7400
 8072              	.LASF132:
 8073 03b2 68776164 		.ascii	"hwaddr_len\000"
 8073      64725F6C 
 8073      656E00
 8074              	.LASF185:
 8075 03bd 65746861 		.ascii	"etharp_free_entry\000"
 8075      72705F66 
 8075      7265655F 
 8075      656E7472 
 8075      7900
 8076              	.LASF226:
 8077 03cf 6172705F 		.ascii	"arp_table\000"
 8077      7461626C 
 8077      6500
 8078              	.LASF29:
 8079 03d9 4552525F 		.ascii	"ERR_VAL\000"
 8079      56414C00 
 8080              	.LASF150:
 8081 03e1 45544854 		.ascii	"ETHTYPE_JUMBO\000"
 8081      5950455F 
 8081      4A554D42 
 8081      4F00
 8082              	.LASF242:
 8083 03ef 433A5C55 		.ascii	"C:\\Users\\Phuong\\Documents\\PSoC Creator\\Dec0820"
 8083      73657273 
 8083      5C506875 
 8083      6F6E675C 
 8083      446F6375 
 8084 041d 31385C69 		.ascii	"18\\iot-sdk-iot-dev\\PSOC6_FreeRTOS+LwIP+MbedTLS_Az"
 8084      6F742D73 
 8084      646B2D69 
 8084      6F742D64 
 8084      65765C50 
 8085 044e 7572652D 		.ascii	"ure-IOT-Hub-Demo\\PSOC6_FreeRTOS+LwIP+MbedTLS_Azure"
 8085      494F542D 
 8085      4875622D 
 8085      44656D6F 
 8085      5C50534F 
 8086 0480 2D494F54 		.ascii	"-IOT-Hub-Demo.cydsn\000"
 8086      2D487562 
 8086      2D44656D 
 8086      6F2E6379 
 8086      64736E00 
 8087              	.LASF71:
 8088 0494 4D454D50 		.ascii	"MEMP_TCPIP_MSG_INPKT\000"
 8088      5F544350 
 8088      49505F4D 
 8088      53475F49 
 8088      4E504B54 
 8089              	.LASF47:
 8090 04a9 50425546 		.ascii	"PBUF_REF\000"
 8090      5F524546 
 8090      00
ARM GAS  C:\Users\Phuong\AppData\Local\Temp\cczAUGdE.s 			page 171


 8091              	.LASF238:
 8092 04b2 70627566 		.ascii	"pbuf_copy\000"
 8092      5F636F70 
 8092      7900
 8093              	.LASF107:
 8094 04bc 73746174 		.ascii	"stats_\000"
 8094      735F00
 8095              	.LASF170:
 8096 04c3 65746861 		.ascii	"etharp_opcode\000"
 8096      72705F6F 
 8096      70636F64 
 8096      6500
 8097              	.LASF225:
 8098 04d1 6473745F 		.ascii	"dst_addr\000"
 8098      61646472 
 8098      00
 8099              	.LASF51:
 8100 04da 746F745F 		.ascii	"tot_len\000"
 8100      6C656E00 
 8101              	.LASF181:
 8102 04e2 69706164 		.ascii	"ipaddr\000"
 8102      647200
 8103              	.LASF10:
 8104 04e9 73697A65 		.ascii	"size_t\000"
 8104      5F7400
 8105              	.LASF50:
 8106 04f0 7061796C 		.ascii	"payload\000"
 8106      6F616400 
 8107              	.LASF209:
 8108 04f8 65746861 		.ascii	"etharp_cleanup_netif\000"
 8108      72705F63 
 8108      6C65616E 
 8108      75705F6E 
 8108      65746966 
 8109              	.LASF41:
 8110 050d 50425546 		.ascii	"PBUF_IP\000"
 8110      5F495000 
 8111              	.LASF125:
 8112 0515 6F757470 		.ascii	"output\000"
 8112      757400
 8113              	.LASF186:
 8114 051c 6F6C645F 		.ascii	"old_pending\000"
 8114      70656E64 
 8114      696E6700 
 8115              	.LASF149:
 8116 0528 45544854 		.ascii	"ETHTYPE_PPPOE\000"
 8116      5950455F 
 8116      5050504F 
 8116      4500
 8117              	.LASF48:
 8118 0536 50425546 		.ascii	"PBUF_POOL\000"
 8118      5F504F4F 
 8118      4C00
 8119              	.LASF78:
 8120 0540 4D454D50 		.ascii	"MEMP_MAX\000"
 8120      5F4D4158 
 8120      00
ARM GAS  C:\Users\Phuong\AppData\Local\Temp\cczAUGdE.s 			page 172


 8121              	.LASF18:
 8122 0549 73385F74 		.ascii	"s8_t\000"
 8122      00
 8123              	.LASF189:
 8124 054e 6F6C645F 		.ascii	"old_queue\000"
 8124      71756575 
 8124      6500
 8125              	.LASF164:
 8126 0558 73687761 		.ascii	"shwaddr\000"
 8126      64647200 
 8127              	.LASF213:
 8128 0560 65746861 		.ascii	"etharp_tmr\000"
 8128      72705F74 
 8128      6D7200
 8129              	.LASF99:
 8130 056b 72785F72 		.ascii	"rx_report\000"
 8130      65706F72 
 8130      7400
 8131              	.LASF30:
 8132 0575 4552525F 		.ascii	"ERR_WOULDBLOCK\000"
 8132      574F554C 
 8132      44424C4F 
 8132      434B00
 8133              	.LASF26:
 8134 0584 4552525F 		.ascii	"ERR_TIMEOUT\000"
 8134      54494D45 
 8134      4F555400 
 8135              	.LASF106:
 8136 0590 6D626F78 		.ascii	"mbox\000"
 8136      00
 8137              	.LASF174:
 8138 0595 65746861 		.ascii	"etharp_state\000"
 8138      72705F73 
 8138      74617465 
 8138      00
 8139              	.LASF193:
 8140 05a2 65746861 		.ascii	"etharp_find_entry\000"
 8140      72705F66 
 8140      696E645F 
 8140      656E7472 
 8140      7900
 8141              	.LASF206:
 8142 05b4 69705F72 		.ascii	"ip_ret\000"
 8142      657400
 8143              	.LASF76:
 8144 05bb 4D454D50 		.ascii	"MEMP_PBUF\000"
 8144      5F504255 
 8144      4600
 8145              	.LASF159:
 8146 05c5 68777479 		.ascii	"hwtype\000"
 8146      706500
 8147              	.LASF129:
 8148 05cc 636C6965 		.ascii	"client_data\000"
 8148      6E745F64 
 8148      61746100 
 8149              	.LASF58:
 8150 05d8 6970345F 		.ascii	"ip4_addr2\000"
ARM GAS  C:\Users\Phuong\AppData\Local\Temp\cczAUGdE.s 			page 173


 8150      61646472 
 8150      3200
 8151              	.LASF227:
 8152 05e2 65746861 		.ascii	"etharp_cached_entry\000"
 8152      72705F63 
 8152      61636865 
 8152      645F656E 
 8152      74727900 
 8153              	.LASF217:
 8154 05f6 73726361 		.ascii	"srcaddr\000"
 8154      64647200 
 8155              	.LASF83:
 8156 05fe 696C6C65 		.ascii	"illegal\000"
 8156      67616C00 
 8157              	.LASF61:
 8158 0606 6D656D5F 		.ascii	"mem_size_t\000"
 8158      73697A65 
 8158      5F7400
 8159              	.LASF139:
 8160 0611 6E657469 		.ascii	"netif_igmp_mac_filter_fn\000"
 8160      665F6967 
 8160      6D705F6D 
 8160      61635F66 
 8160      696C7465 
 8161              	.LASF134:
 8162 062a 69676D70 		.ascii	"igmp_mac_filter\000"
 8162      5F6D6163 
 8162      5F66696C 
 8162      74657200 
 8163              	.LASF84:
 8164 063a 73746174 		.ascii	"stats_proto\000"
 8164      735F7072 
 8164      6F746F00 
 8165              	.LASF160:
 8166 0646 70726F74 		.ascii	"proto\000"
 8166      6F00
 8167              	.LASF163:
 8168 064c 6F70636F 		.ascii	"opcode\000"
 8168      646500
 8169              	.LASF210:
 8170 0653 65746861 		.ascii	"etharp_input\000"
 8170      72705F69 
 8170      6E707574 
 8170      00
 8171              	.LASF120:
 8172 0660 4E455449 		.ascii	"NETIF_ADD_MAC_FILTER\000"
 8172      465F4144 
 8172      445F4D41 
 8172      435F4649 
 8172      4C544552 
 8173              	.LASF203:
 8174 0675 65746861 		.ascii	"etharp_request_dst\000"
 8174      72705F72 
 8174      65717565 
 8174      73745F64 
 8174      737400
 8175              	.LASF151:
ARM GAS  C:\Users\Phuong\AppData\Local\Temp\cczAUGdE.s 			page 174


 8176 0688 45544854 		.ascii	"ETHTYPE_PROFINET\000"
 8176      5950455F 
 8176      50524F46 
 8176      494E4554 
 8176      00
 8177              	.LASF235:
 8178 0699 70627566 		.ascii	"pbuf_alloc\000"
 8178      5F616C6C 
 8178      6F6300
 8179              	.LASF231:
 8180 06a4 70627566 		.ascii	"pbuf_free\000"
 8180      5F667265 
 8180      6500
 8181              	.LASF184:
 8182 06ae 66726565 		.ascii	"free_etharp_q\000"
 8182      5F657468 
 8182      6172705F 
 8182      7100
 8183              	.LASF68:
 8184 06bc 4D454D50 		.ascii	"MEMP_NETBUF\000"
 8184      5F4E4554 
 8184      42554600 
 8185              	.LASF123:
 8186 06c8 6E65746D 		.ascii	"netmask\000"
 8186      61736B00 
 8187              	.LASF6:
 8188 06d0 6C6F6E67 		.ascii	"long long int\000"
 8188      206C6F6E 
 8188      6720696E 
 8188      7400
 8189              	.LASF35:
 8190 06de 4552525F 		.ascii	"ERR_IF\000"
 8190      494600
 8191              	.LASF127:
 8192 06e5 73746174 		.ascii	"status_callback\000"
 8192      75735F63 
 8192      616C6C62 
 8192      61636B00 
 8193              	.LASF198:
 8194 06f5 68777372 		.ascii	"hwsrc_addr\000"
 8194      635F6164 
 8194      647200
 8195              	.LASF205:
 8196 0700 6574685F 		.ascii	"eth_ret\000"
 8196      72657400 
 8197              	.LASF148:
 8198 0708 45544854 		.ascii	"ETHTYPE_PPPOEDISC\000"
 8198      5950455F 
 8198      5050504F 
 8198      45444953 
 8198      4300
 8199              	.LASF64:
 8200 071a 4D454D50 		.ascii	"MEMP_TCP_PCB\000"
 8200      5F544350 
 8200      5F504342 
 8200      00
 8201              	.LASF17:
ARM GAS  C:\Users\Phuong\AppData\Local\Temp\cczAUGdE.s 			page 175


 8202 0727 75385F74 		.ascii	"u8_t\000"
 8202      00
 8203              	.LASF197:
 8204 072c 65746864 		.ascii	"ethdst_addr\000"
 8204      73745F61 
 8204      64647200 
 8205              	.LASF218:
 8206 0738 69735F6E 		.ascii	"is_new_entry\000"
 8206      65775F65 
 8206      6E747279 
 8206      00
 8207              	.LASF82:
 8208 0745 75736564 		.ascii	"used\000"
 8208      00
 8209              	.LASF157:
 8210 074a 45544854 		.ascii	"ETHTYPE_QINQ\000"
 8210      5950455F 
 8210      51494E51 
 8210      00
 8211              	.LASF88:
 8212 0757 63686B65 		.ascii	"chkerr\000"
 8212      727200
 8213              	.LASF67:
 8214 075e 4D454D50 		.ascii	"MEMP_REASSDATA\000"
 8214      5F524541 
 8214      53534441 
 8214      544100
 8215              	.LASF101:
 8216 076d 74785F6C 		.ascii	"tx_leave\000"
 8216      65617665 
 8216      00
 8217              	.LASF173:
 8218 0776 65746861 		.ascii	"etharp_q_entry\000"
 8218      72705F71 
 8218      5F656E74 
 8218      727900
 8219              	.LASF144:
 8220 0785 45544854 		.ascii	"ETHTYPE_WOL\000"
 8220      5950455F 
 8220      574F4C00 
 8221              	.LASF42:
 8222 0791 50425546 		.ascii	"PBUF_LINK\000"
 8222      5F4C494E 
 8222      4B00
 8223              	.LASF98:
 8224 079b 72785F67 		.ascii	"rx_general\000"
 8224      656E6572 
 8224      616C00
 8225              	.LASF177:
 8226 07a6 45544841 		.ascii	"ETHARP_STATE_STABLE\000"
 8226      52505F53 
 8226      54415445 
 8226      5F535441 
 8226      424C4500 
 8227              	.LASF119:
 8228 07ba 4E455449 		.ascii	"NETIF_DEL_MAC_FILTER\000"
 8228      465F4445 
ARM GAS  C:\Users\Phuong\AppData\Local\Temp\cczAUGdE.s 			page 176


 8228      4C5F4D41 
 8228      435F4649 
 8228      4C544552 
 8229              	.LASF11:
 8230 07cf 6C6F6E67 		.ascii	"long double\000"
 8230      20646F75 
 8230      626C6500 
 8231              	.LASF172:
 8232 07db 4152505F 		.ascii	"ARP_REPLY\000"
 8232      5245504C 
 8232      5900
 8233              	.LASF9:
 8234 07e5 5F5F7569 		.ascii	"__uint32_t\000"
 8234      6E743332 
 8234      5F7400
 8235              	.LASF1:
 8236 07f0 756E7369 		.ascii	"unsigned char\000"
 8236      676E6564 
 8236      20636861 
 8236      7200
 8237              	.LASF192:
 8238 07fe 6167655F 		.ascii	"age_stable\000"
 8238      73746162 
 8238      6C6500
 8239              	.LASF229:
 8240 0809 65746862 		.ascii	"ethbroadcast\000"
 8240      726F6164 
 8240      63617374 
 8240      00
 8241              	.LASF25:
 8242 0816 4552525F 		.ascii	"ERR_BUF\000"
 8242      42554600 
 8243              	.LASF62:
 8244 081e 4D454D50 		.ascii	"MEMP_RAW_PCB\000"
 8244      5F524157 
 8244      5F504342 
 8244      00
 8245              	.LASF215:
 8246 082b 6172705F 		.ascii	"arp_idx\000"
 8246      69647800 
 8247              	.LASF236:
 8248 0833 6C776970 		.ascii	"lwip_htons\000"
 8248      5F68746F 
 8248      6E7300
 8249              	.LASF21:
 8250 083e 7533325F 		.ascii	"u32_t\000"
 8250      7400
 8251              	.LASF2:
 8252 0844 73686F72 		.ascii	"short int\000"
 8252      7420696E 
 8252      7400
 8253              	.LASF111:
 8254 084e 69636D70 		.ascii	"icmp\000"
 8254      00
 8255              	.LASF4:
 8256 0853 6C6F6E67 		.ascii	"long int\000"
 8256      20696E74 
ARM GAS  C:\Users\Phuong\AppData\Local\Temp\cczAUGdE.s 			page 177


 8256      00
 8257              	.LASF91:
 8258 085c 72746572 		.ascii	"rterr\000"
 8258      7200
 8259              	.LASF81:
 8260 0862 61766169 		.ascii	"avail\000"
 8260      6C00
 8261              	.LASF74:
 8262 0868 4D454D50 		.ascii	"MEMP_SYS_TIMEOUT\000"
 8262      5F535953 
 8262      5F54494D 
 8262      454F5554 
 8262      00
 8263              	.LASF131:
 8264 0879 686F7374 		.ascii	"hostname\000"
 8264      6E616D65 
 8264      00
 8265              	.LASF63:
 8266 0882 4D454D50 		.ascii	"MEMP_UDP_PCB\000"
 8266      5F554450 
 8266      5F504342 
 8266      00
 8267              	.LASF182:
 8268 088f 65746861 		.ascii	"ethaddr\000"
 8268      64647200 
 8269              	.LASF199:
 8270 0897 69707372 		.ascii	"ipsrc_addr\000"
 8270      635F6164 
 8270      647200
 8271              	.LASF28:
 8272 08a2 4552525F 		.ascii	"ERR_INPROGRESS\000"
 8272      494E5052 
 8272      4F475245 
 8272      535300
 8273              	.LASF212:
 8274 08b1 65746861 		.ascii	"etharp_request\000"
 8274      72705F72 
 8274      65717565 
 8274      737400
 8275              	.LASF55:
 8276 08c0 6970345F 		.ascii	"ip4_addr\000"
 8276      61646472 
 8276      00
 8277              	.LASF171:
 8278 08c9 4152505F 		.ascii	"ARP_REQUEST\000"
 8278      52455155 
 8278      45535400 
 8279              	.LASF94:
 8280 08d5 63616368 		.ascii	"cachehit\000"
 8280      65686974 
 8280      00
 8281              	.LASF237:
 8282 08de 6D656D70 		.ascii	"memp_malloc_fn\000"
 8282      5F6D616C 
 8282      6C6F635F 
 8282      666E00
 8283              	.LASF80:
ARM GAS  C:\Users\Phuong\AppData\Local\Temp\cczAUGdE.s 			page 178


 8284 08ed 6E616D65 		.ascii	"name\000"
 8284      00
 8285              	.LASF178:
 8286 08f2 45544841 		.ascii	"ETHARP_STATE_STABLE_REREQUESTING_1\000"
 8286      52505F53 
 8286      54415445 
 8286      5F535441 
 8286      424C455F 
 8287              	.LASF179:
 8288 0915 45544841 		.ascii	"ETHARP_STATE_STABLE_REREQUESTING_2\000"
 8288      52505F53 
 8288      54415445 
 8288      5F535441 
 8288      424C455F 
 8289              	.LASF8:
 8290 0938 756E7369 		.ascii	"unsigned int\000"
 8290      676E6564 
 8290      20696E74 
 8290      00
 8291              	.LASF137:
 8292 0945 6E657469 		.ascii	"netif_linkoutput_fn\000"
 8292      665F6C69 
 8292      6E6B6F75 
 8292      74707574 
 8292      5F666E00 
 8293              	.LASF130:
 8294 0959 72735F63 		.ascii	"rs_count\000"
 8294      6F756E74 
 8294      00
 8295              	.LASF239:
 8296 0962 70627566 		.ascii	"pbuf_ref\000"
 8296      5F726566 
 8296      00
 8297              	.LASF176:
 8298 096b 45544841 		.ascii	"ETHARP_STATE_PENDING\000"
 8298      52505F53 
 8298      54415445 
 8298      5F50454E 
 8298      44494E47 
 8299              	.LASF154:
 8300 0980 45544854 		.ascii	"ETHTYPE_SERCOS\000"
 8300      5950455F 
 8300      53455243 
 8300      4F5300
 8301              	.LASF113:
 8302 098f 6D656D70 		.ascii	"memp\000"
 8302      00
 8303              	.LASF201:
 8304 0994 69706473 		.ascii	"ipdst_addr\000"
 8304      745F6164 
 8304      647200
 8305              	.LASF89:
 8306 099f 6C656E65 		.ascii	"lenerr\000"
 8306      727200
 8307              	.LASF230:
 8308 09a6 6574687A 		.ascii	"ethzero\000"
 8308      65726F00 
ARM GAS  C:\Users\Phuong\AppData\Local\Temp\cczAUGdE.s 			page 179


 8309              	.LASF12:
 8310 09ae 73697A65 		.ascii	"sizetype\000"
 8310      74797065 
 8310      00
 8311              	.LASF146:
 8312 09b7 45544854 		.ascii	"ETHTYPE_VLAN\000"
 8312      5950455F 
 8312      564C414E 
 8312      00
 8313              	.LASF5:
 8314 09c4 6C6F6E67 		.ascii	"long unsigned int\000"
 8314      20756E73 
 8314      69676E65 
 8314      6420696E 
 8314      7400
 8315              	.LASF118:
 8316 09d6 6E657469 		.ascii	"netif_mac_filter_action\000"
 8316      665F6D61 
 8316      635F6669 
 8316      6C746572 
 8316      5F616374 
 8317              	.LASF195:
 8318 09ee 65746861 		.ascii	"etharp_raw\000"
 8318      72705F72 
 8318      617700
 8319              	.LASF211:
 8320 09f9 666F725F 		.ascii	"for_us\000"
 8320      757300
 8321              	.LASF188:
 8322 0a00 656D7074 		.ascii	"empty\000"
 8322      7900
 8323              	.LASF20:
 8324 0a06 7331365F 		.ascii	"s16_t\000"
 8324      7400
 8325              	.LASF233:
 8326 0a0c 65746865 		.ascii	"ethernet_output\000"
 8326      726E6574 
 8326      5F6F7574 
 8326      70757400 
 8327              	.LASF92:
 8328 0a1c 70726F74 		.ascii	"proterr\000"
 8328      65727200 
 8329              	.LASF97:
 8330 0a24 72785F67 		.ascii	"rx_group\000"
 8330      726F7570 
 8330      00
 8331              	.LASF155:
 8332 0a2d 45544854 		.ascii	"ETHTYPE_MRP\000"
 8332      5950455F 
 8332      4D525000 
 8333              	.LASF52:
 8334 0a39 74797065 		.ascii	"type\000"
 8334      00
 8335              	.LASF104:
 8336 0a3e 73746174 		.ascii	"stats_sys\000"
 8336      735F7379 
 8336      7300
ARM GAS  C:\Users\Phuong\AppData\Local\Temp\cczAUGdE.s 			page 180


 8337              	.LASF54:
 8338 0a48 70627566 		.ascii	"pbuf\000"
 8338      00
 8339              	.LASF117:
 8340 0a4d 6C776970 		.ascii	"lwip_internal_netif_client_data_index\000"
 8340      5F696E74 
 8340      65726E61 
 8340      6C5F6E65 
 8340      7469665F 
 8341              	.LASF208:
 8342 0a73 65746861 		.ascii	"etharp_get_entry\000"
 8342      72705F67 
 8342      65745F65 
 8342      6E747279 
 8342      00
 8343              	.LASF90:
 8344 0a84 6D656D65 		.ascii	"memerr\000"
 8344      727200
 8345              	.LASF66:
 8346 0a8b 4D454D50 		.ascii	"MEMP_TCP_SEG\000"
 8346      5F544350 
 8346      5F534547 
 8346      00
 8347              	.LASF138:
 8348 0a98 6E657469 		.ascii	"netif_status_callback_fn\000"
 8348      665F7374 
 8348      61747573 
 8348      5F63616C 
 8348      6C626163 
 8349              	.LASF108:
 8350 0ab1 6C696E6B 		.ascii	"link\000"
 8350      00
 8351              	.LASF142:
 8352 0ab6 45544854 		.ascii	"ETHTYPE_IP\000"
 8352      5950455F 
 8352      495000
 8353              	.LASF56:
 8354 0ac1 61646472 		.ascii	"addr\000"
 8354      00
 8355              	.LASF100:
 8356 0ac6 74785F6A 		.ascii	"tx_join\000"
 8356      6F696E00 
 8357              	.LASF85:
 8358 0ace 786D6974 		.ascii	"xmit\000"
 8358      00
 8359              	.LASF87:
 8360 0ad3 64726F70 		.ascii	"drop\000"
 8360      00
 8361              	.LASF128:
 8362 0ad8 73746174 		.ascii	"state\000"
 8362      6500
 8363              	.LASF116:
 8364 0ade 4C574950 		.ascii	"LWIP_NETIF_CLIENT_DATA_INDEX_MAX\000"
 8364      5F4E4554 
 8364      49465F43 
 8364      4C49454E 
 8364      545F4441 
ARM GAS  C:\Users\Phuong\AppData\Local\Temp\cczAUGdE.s 			page 181


 8365              	.LASF200:
 8366 0aff 68776473 		.ascii	"hwdst_addr\000"
 8366      745F6164 
 8366      647200
 8367              	.LASF224:
 8368 0b0a 6D636173 		.ascii	"mcastaddr\000"
 8368      74616464 
 8368      7200
 8369              	.LASF37:
 8370 0b14 4552525F 		.ascii	"ERR_RST\000"
 8370      52535400 
 8371              	.LASF191:
 8372 0b1c 6167655F 		.ascii	"age_pending\000"
 8372      70656E64 
 8372      696E6700 
 8373              	.LASF222:
 8374 0b28 65746861 		.ascii	"etharp_output\000"
 8374      72705F6F 
 8374      75747075 
 8374      7400
 8375              	.LASF23:
 8376 0b36 4552525F 		.ascii	"ERR_OK\000"
 8376      4F4B00
 8377              	.LASF232:
 8378 0b3d 6D656D70 		.ascii	"memp_free\000"
 8378      5F667265 
 8378      6500
 8379              	.LASF86:
 8380 0b47 72656376 		.ascii	"recv\000"
 8380      00
 8381              	.LASF114:
 8382 0b4c 4C574950 		.ascii	"LWIP_NETIF_CLIENT_DATA_INDEX_DHCP\000"
 8382      5F4E4554 
 8382      49465F43 
 8382      4C49454E 
 8382      545F4441 
 8383              	.LASF0:
 8384 0b6e 7369676E 		.ascii	"signed char\000"
 8384      65642063 
 8384      68617200 
 8385              	.LASF3:
 8386 0b7a 73686F72 		.ascii	"short unsigned int\000"
 8386      7420756E 
 8386      7369676E 
 8386      65642069 
 8386      6E7400
 8387              	.LASF243:
 8388 0b8d 6D656D63 		.ascii	"memcpy\000"
 8388      707900
 8389              	.LASF95:
 8390 0b94 73746174 		.ascii	"stats_igmp\000"
 8390      735F6967 
 8390      6D7000
 8391              	.LASF34:
 8392 0b9f 4552525F 		.ascii	"ERR_CONN\000"
 8392      434F4E4E 
 8392      00
ARM GAS  C:\Users\Phuong\AppData\Local\Temp\cczAUGdE.s 			page 182


 8393              	.LASF161:
 8394 0ba8 68776C65 		.ascii	"hwlen\000"
 8394      6E00
 8395              	.LASF27:
 8396 0bae 4552525F 		.ascii	"ERR_RTE\000"
 8396      52544500 
 8397              	.LASF16:
 8398 0bb6 646F7562 		.ascii	"double\000"
 8398      6C6500
 8399              	.LASF60:
 8400 0bbd 69705F61 		.ascii	"ip_addr_t\000"
 8400      6464725F 
 8400      7400
 8401              	.LASF75:
 8402 0bc7 4D454D50 		.ascii	"MEMP_NETDB\000"
 8402      5F4E4554 
 8402      444200
 8403              	.LASF102:
 8404 0bd2 74785F72 		.ascii	"tx_report\000"
 8404      65706F72 
 8404      7400
 8405              	.LASF43:
 8406 0bdc 50425546 		.ascii	"PBUF_RAW_TX\000"
 8406      5F524157 
 8406      5F545800 
 8407              	.LASF46:
 8408 0be8 50425546 		.ascii	"PBUF_ROM\000"
 8408      5F524F4D 
 8408      00
 8409              	.LASF207:
 8410 0bf1 65746861 		.ascii	"etharp_find_addr\000"
 8410      72705F66 
 8410      696E645F 
 8410      61646472 
 8410      00
 8411              	.LASF24:
 8412 0c02 4552525F 		.ascii	"ERR_MEM\000"
 8412      4D454D00 
 8413              	.LASF223:
 8414 0c0a 64657374 		.ascii	"dest\000"
 8414      00
 8415              	.LASF169:
 8416 0c0f 48575459 		.ascii	"HWTYPE_ETHERNET\000"
 8416      50455F45 
 8416      54484552 
 8416      4E455400 
 8417              	.LASF220:
 8418 0c1f 6E65775F 		.ascii	"new_entry\000"
 8418      656E7472 
 8418      7900
 8419              	.LASF122:
 8420 0c29 69705F61 		.ascii	"ip_addr\000"
 8420      64647200 
 8421              	.LASF214:
 8422 0c31 65746861 		.ascii	"etharp_output_to_arp_index\000"
 8422      72705F6F 
 8422      75747075 
ARM GAS  C:\Users\Phuong\AppData\Local\Temp\cczAUGdE.s 			page 183


 8422      745F746F 
 8422      5F617270 
 8423              		.ident	"GCC: (GNU Tools for ARM Embedded Processors) 5.4.1 20160609 (release) [ARM/embedded-5-bran
