ARM GAS  C:\Users\Phuong\AppData\Local\Temp\cczAUGdE.s 			page 1


   1              		.syntax unified
   2              		.cpu cortex-m0plus
   3              		.fpu softvfp
   4              		.eabi_attribute 20, 1
   5              		.eabi_attribute 21, 1
   6              		.eabi_attribute 23, 3
   7              		.eabi_attribute 24, 1
   8              		.eabi_attribute 25, 1
   9              		.eabi_attribute 26, 1
  10              		.eabi_attribute 30, 1
  11              		.eabi_attribute 34, 0
  12              		.eabi_attribute 18, 4
  13              		.thumb
  14              		.syntax unified
  15              		.file	"etharp.c"
  16              		.text
  17              	.Ltext0:
  18              		.cfi_sections	.debug_frame
  19              		.section	.text.free_etharp_q,"ax",%progbits
  20              		.align	2
  21              		.code	16
  22              		.thumb_func
  23              		.type	free_etharp_q, %function
  24              	free_etharp_q:
  25              	.LFB53:
  26              		.file 1 "Source\\LwIP\\src\\core\\ipv4\\etharp.c"
   1:Source\LwIP\src\core\ipv4/etharp.c **** /**
   2:Source\LwIP\src\core\ipv4/etharp.c ****  * @file
   3:Source\LwIP\src\core\ipv4/etharp.c ****  * Address Resolution Protocol module for IP over Ethernet
   4:Source\LwIP\src\core\ipv4/etharp.c ****  *
   5:Source\LwIP\src\core\ipv4/etharp.c ****  * Functionally, ARP is divided into two parts. The first maps an IP address
   6:Source\LwIP\src\core\ipv4/etharp.c ****  * to a physical address when sending a packet, and the second part answers
   7:Source\LwIP\src\core\ipv4/etharp.c ****  * requests from other machines for our physical address.
   8:Source\LwIP\src\core\ipv4/etharp.c ****  *
   9:Source\LwIP\src\core\ipv4/etharp.c ****  * This implementation complies with RFC 826 (Ethernet ARP). It supports
  10:Source\LwIP\src\core\ipv4/etharp.c ****  * Gratuitious ARP from RFC3220 (IP Mobility Support for IPv4) section 4.6
  11:Source\LwIP\src\core\ipv4/etharp.c ****  * if an interface calls etharp_gratuitous(our_netif) upon address change.
  12:Source\LwIP\src\core\ipv4/etharp.c ****  */
  13:Source\LwIP\src\core\ipv4/etharp.c **** 
  14:Source\LwIP\src\core\ipv4/etharp.c **** /*
  15:Source\LwIP\src\core\ipv4/etharp.c ****  * Copyright (c) 2001-2003 Swedish Institute of Computer Science.
  16:Source\LwIP\src\core\ipv4/etharp.c ****  * Copyright (c) 2003-2004 Leon Woestenberg <leon.woestenberg@axon.tv>
  17:Source\LwIP\src\core\ipv4/etharp.c ****  * Copyright (c) 2003-2004 Axon Digital Design B.V., The Netherlands.
  18:Source\LwIP\src\core\ipv4/etharp.c ****  * All rights reserved.
  19:Source\LwIP\src\core\ipv4/etharp.c ****  *
  20:Source\LwIP\src\core\ipv4/etharp.c ****  * Redistribution and use in source and binary forms, with or without modification,
  21:Source\LwIP\src\core\ipv4/etharp.c ****  * are permitted provided that the following conditions are met:
  22:Source\LwIP\src\core\ipv4/etharp.c ****  *
  23:Source\LwIP\src\core\ipv4/etharp.c ****  * 1. Redistributions of source code must retain the above copyright notice,
  24:Source\LwIP\src\core\ipv4/etharp.c ****  *    this list of conditions and the following disclaimer.
  25:Source\LwIP\src\core\ipv4/etharp.c ****  * 2. Redistributions in binary form must reproduce the above copyright notice,
  26:Source\LwIP\src\core\ipv4/etharp.c ****  *    this list of conditions and the following disclaimer in the documentation
  27:Source\LwIP\src\core\ipv4/etharp.c ****  *    and/or other materials provided with the distribution.
  28:Source\LwIP\src\core\ipv4/etharp.c ****  * 3. The name of the author may not be used to endorse or promote products
  29:Source\LwIP\src\core\ipv4/etharp.c ****  *    derived from this software without specific prior written permission.
  30:Source\LwIP\src\core\ipv4/etharp.c ****  *
  31:Source\LwIP\src\core\ipv4/etharp.c ****  * THIS SOFTWARE IS PROVIDED BY THE AUTHOR ``AS IS'' AND ANY EXPRESS OR IMPLIED
ARM GAS  C:\Users\Phuong\AppData\Local\Temp\cczAUGdE.s 			page 2


  32:Source\LwIP\src\core\ipv4/etharp.c ****  * WARRANTIES, INCLUDING, BUT NOT LIMITED TO, THE IMPLIED WARRANTIES OF
  33:Source\LwIP\src\core\ipv4/etharp.c ****  * MERCHANTABILITY AND FITNESS FOR A PARTICULAR PURPOSE ARE DISCLAIMED. IN NO EVENT
  34:Source\LwIP\src\core\ipv4/etharp.c ****  * SHALL THE AUTHOR BE LIABLE FOR ANY DIRECT, INDIRECT, INCIDENTAL, SPECIAL,
  35:Source\LwIP\src\core\ipv4/etharp.c ****  * EXEMPLARY, OR CONSEQUENTIAL DAMAGES (INCLUDING, BUT NOT LIMITED TO, PROCUREMENT
  36:Source\LwIP\src\core\ipv4/etharp.c ****  * OF SUBSTITUTE GOODS OR SERVICES; LOSS OF USE, DATA, OR PROFITS; OR BUSINESS
  37:Source\LwIP\src\core\ipv4/etharp.c ****  * INTERRUPTION) HOWEVER CAUSED AND ON ANY THEORY OF LIABILITY, WHETHER IN
  38:Source\LwIP\src\core\ipv4/etharp.c ****  * CONTRACT, STRICT LIABILITY, OR TORT (INCLUDING NEGLIGENCE OR OTHERWISE) ARISING
  39:Source\LwIP\src\core\ipv4/etharp.c ****  * IN ANY WAY OUT OF THE USE OF THIS SOFTWARE, EVEN IF ADVISED OF THE POSSIBILITY
  40:Source\LwIP\src\core\ipv4/etharp.c ****  * OF SUCH DAMAGE.
  41:Source\LwIP\src\core\ipv4/etharp.c ****  *
  42:Source\LwIP\src\core\ipv4/etharp.c ****  * This file is part of the lwIP TCP/IP stack.
  43:Source\LwIP\src\core\ipv4/etharp.c ****  *
  44:Source\LwIP\src\core\ipv4/etharp.c ****  */
  45:Source\LwIP\src\core\ipv4/etharp.c **** 
  46:Source\LwIP\src\core\ipv4/etharp.c **** #include "lwip/opt.h"
  47:Source\LwIP\src\core\ipv4/etharp.c **** 
  48:Source\LwIP\src\core\ipv4/etharp.c **** #if LWIP_ARP || LWIP_ETHERNET
  49:Source\LwIP\src\core\ipv4/etharp.c **** 
  50:Source\LwIP\src\core\ipv4/etharp.c **** #include "lwip/etharp.h"
  51:Source\LwIP\src\core\ipv4/etharp.c **** #include "lwip/stats.h"
  52:Source\LwIP\src\core\ipv4/etharp.c **** #include "lwip/snmp.h"
  53:Source\LwIP\src\core\ipv4/etharp.c **** #include "lwip/dhcp.h"
  54:Source\LwIP\src\core\ipv4/etharp.c **** #include "lwip/autoip.h"
  55:Source\LwIP\src\core\ipv4/etharp.c **** #include "netif/ethernet.h"
  56:Source\LwIP\src\core\ipv4/etharp.c **** 
  57:Source\LwIP\src\core\ipv4/etharp.c **** #include <string.h>
  58:Source\LwIP\src\core\ipv4/etharp.c **** 
  59:Source\LwIP\src\core\ipv4/etharp.c **** #ifdef LWIP_HOOK_FILENAME
  60:Source\LwIP\src\core\ipv4/etharp.c **** #include LWIP_HOOK_FILENAME
  61:Source\LwIP\src\core\ipv4/etharp.c **** #endif
  62:Source\LwIP\src\core\ipv4/etharp.c **** 
  63:Source\LwIP\src\core\ipv4/etharp.c **** #if LWIP_IPV4 && LWIP_ARP /* don't build if not configured for use in lwipopts.h */
  64:Source\LwIP\src\core\ipv4/etharp.c **** 
  65:Source\LwIP\src\core\ipv4/etharp.c **** /** Re-request a used ARP entry 1 minute before it would expire to prevent
  66:Source\LwIP\src\core\ipv4/etharp.c ****  *  breaking a steadily used connection because the ARP entry timed out. */
  67:Source\LwIP\src\core\ipv4/etharp.c **** #define ARP_AGE_REREQUEST_USED_UNICAST   (ARP_MAXAGE - 30)
  68:Source\LwIP\src\core\ipv4/etharp.c **** #define ARP_AGE_REREQUEST_USED_BROADCAST (ARP_MAXAGE - 15)
  69:Source\LwIP\src\core\ipv4/etharp.c **** 
  70:Source\LwIP\src\core\ipv4/etharp.c **** /** the time an ARP entry stays pending after first request,
  71:Source\LwIP\src\core\ipv4/etharp.c ****  *  for ARP_TMR_INTERVAL = 1000, this is
  72:Source\LwIP\src\core\ipv4/etharp.c ****  *  10 seconds.
  73:Source\LwIP\src\core\ipv4/etharp.c ****  *
  74:Source\LwIP\src\core\ipv4/etharp.c ****  *  @internal Keep this number at least 2, otherwise it might
  75:Source\LwIP\src\core\ipv4/etharp.c ****  *  run out instantly if the timeout occurs directly after a request.
  76:Source\LwIP\src\core\ipv4/etharp.c ****  */
  77:Source\LwIP\src\core\ipv4/etharp.c **** #define ARP_MAXPENDING 5
  78:Source\LwIP\src\core\ipv4/etharp.c **** 
  79:Source\LwIP\src\core\ipv4/etharp.c **** /** ARP states */
  80:Source\LwIP\src\core\ipv4/etharp.c **** enum etharp_state {
  81:Source\LwIP\src\core\ipv4/etharp.c ****   ETHARP_STATE_EMPTY = 0,
  82:Source\LwIP\src\core\ipv4/etharp.c ****   ETHARP_STATE_PENDING,
  83:Source\LwIP\src\core\ipv4/etharp.c ****   ETHARP_STATE_STABLE,
  84:Source\LwIP\src\core\ipv4/etharp.c ****   ETHARP_STATE_STABLE_REREQUESTING_1,
  85:Source\LwIP\src\core\ipv4/etharp.c ****   ETHARP_STATE_STABLE_REREQUESTING_2
  86:Source\LwIP\src\core\ipv4/etharp.c **** #if ETHARP_SUPPORT_STATIC_ENTRIES
  87:Source\LwIP\src\core\ipv4/etharp.c ****   ,ETHARP_STATE_STATIC
  88:Source\LwIP\src\core\ipv4/etharp.c **** #endif /* ETHARP_SUPPORT_STATIC_ENTRIES */
ARM GAS  C:\Users\Phuong\AppData\Local\Temp\cczAUGdE.s 			page 3


  89:Source\LwIP\src\core\ipv4/etharp.c **** };
  90:Source\LwIP\src\core\ipv4/etharp.c **** 
  91:Source\LwIP\src\core\ipv4/etharp.c **** struct etharp_entry {
  92:Source\LwIP\src\core\ipv4/etharp.c **** #if ARP_QUEUEING
  93:Source\LwIP\src\core\ipv4/etharp.c ****   /** Pointer to queue of pending outgoing packets on this ARP entry. */
  94:Source\LwIP\src\core\ipv4/etharp.c ****   struct etharp_q_entry *q;
  95:Source\LwIP\src\core\ipv4/etharp.c **** #else /* ARP_QUEUEING */
  96:Source\LwIP\src\core\ipv4/etharp.c ****   /** Pointer to a single pending outgoing packet on this ARP entry. */
  97:Source\LwIP\src\core\ipv4/etharp.c ****   struct pbuf *q;
  98:Source\LwIP\src\core\ipv4/etharp.c **** #endif /* ARP_QUEUEING */
  99:Source\LwIP\src\core\ipv4/etharp.c ****   ip4_addr_t ipaddr;
 100:Source\LwIP\src\core\ipv4/etharp.c ****   struct netif *netif;
 101:Source\LwIP\src\core\ipv4/etharp.c ****   struct eth_addr ethaddr;
 102:Source\LwIP\src\core\ipv4/etharp.c ****   u16_t ctime;
 103:Source\LwIP\src\core\ipv4/etharp.c ****   u8_t state;
 104:Source\LwIP\src\core\ipv4/etharp.c **** };
 105:Source\LwIP\src\core\ipv4/etharp.c **** 
 106:Source\LwIP\src\core\ipv4/etharp.c **** static struct etharp_entry arp_table[ARP_TABLE_SIZE];
 107:Source\LwIP\src\core\ipv4/etharp.c **** 
 108:Source\LwIP\src\core\ipv4/etharp.c **** #if !LWIP_NETIF_HWADDRHINT
 109:Source\LwIP\src\core\ipv4/etharp.c **** static u8_t etharp_cached_entry;
 110:Source\LwIP\src\core\ipv4/etharp.c **** #endif /* !LWIP_NETIF_HWADDRHINT */
 111:Source\LwIP\src\core\ipv4/etharp.c **** 
 112:Source\LwIP\src\core\ipv4/etharp.c **** /** Try hard to create a new entry - we want the IP address to appear in
 113:Source\LwIP\src\core\ipv4/etharp.c ****     the cache (even if this means removing an active entry or so). */
 114:Source\LwIP\src\core\ipv4/etharp.c **** #define ETHARP_FLAG_TRY_HARD     1
 115:Source\LwIP\src\core\ipv4/etharp.c **** #define ETHARP_FLAG_FIND_ONLY    2
 116:Source\LwIP\src\core\ipv4/etharp.c **** #if ETHARP_SUPPORT_STATIC_ENTRIES
 117:Source\LwIP\src\core\ipv4/etharp.c **** #define ETHARP_FLAG_STATIC_ENTRY 4
 118:Source\LwIP\src\core\ipv4/etharp.c **** #endif /* ETHARP_SUPPORT_STATIC_ENTRIES */
 119:Source\LwIP\src\core\ipv4/etharp.c **** 
 120:Source\LwIP\src\core\ipv4/etharp.c **** #if LWIP_NETIF_HWADDRHINT
 121:Source\LwIP\src\core\ipv4/etharp.c **** #define ETHARP_SET_HINT(netif, hint)  if (((netif) != NULL) && ((netif)->addr_hint != NULL))  \
 122:Source\LwIP\src\core\ipv4/etharp.c ****                                       *((netif)->addr_hint) = (hint);
 123:Source\LwIP\src\core\ipv4/etharp.c **** #else /* LWIP_NETIF_HWADDRHINT */
 124:Source\LwIP\src\core\ipv4/etharp.c **** #define ETHARP_SET_HINT(netif, hint)  (etharp_cached_entry = (hint))
 125:Source\LwIP\src\core\ipv4/etharp.c **** #endif /* LWIP_NETIF_HWADDRHINT */
 126:Source\LwIP\src\core\ipv4/etharp.c **** 
 127:Source\LwIP\src\core\ipv4/etharp.c **** 
 128:Source\LwIP\src\core\ipv4/etharp.c **** /* Some checks, instead of etharp_init(): */
 129:Source\LwIP\src\core\ipv4/etharp.c **** #if (LWIP_ARP && (ARP_TABLE_SIZE > 0x7f))
 130:Source\LwIP\src\core\ipv4/etharp.c ****   #error "ARP_TABLE_SIZE must fit in an s8_t, you have to reduce it in your lwipopts.h"
 131:Source\LwIP\src\core\ipv4/etharp.c **** #endif
 132:Source\LwIP\src\core\ipv4/etharp.c **** 
 133:Source\LwIP\src\core\ipv4/etharp.c **** 
 134:Source\LwIP\src\core\ipv4/etharp.c **** static err_t etharp_request_dst(struct netif *netif, const ip4_addr_t *ipaddr, const struct eth_add
 135:Source\LwIP\src\core\ipv4/etharp.c **** static err_t etharp_raw(struct netif *netif,
 136:Source\LwIP\src\core\ipv4/etharp.c ****                         const struct eth_addr *ethsrc_addr, const struct eth_addr *ethdst_addr,
 137:Source\LwIP\src\core\ipv4/etharp.c ****                         const struct eth_addr *hwsrc_addr, const ip4_addr_t *ipsrc_addr,
 138:Source\LwIP\src\core\ipv4/etharp.c ****                         const struct eth_addr *hwdst_addr, const ip4_addr_t *ipdst_addr,
 139:Source\LwIP\src\core\ipv4/etharp.c ****                         const u16_t opcode);
 140:Source\LwIP\src\core\ipv4/etharp.c **** 
 141:Source\LwIP\src\core\ipv4/etharp.c **** #if ARP_QUEUEING
 142:Source\LwIP\src\core\ipv4/etharp.c **** /**
 143:Source\LwIP\src\core\ipv4/etharp.c ****  * Free a complete queue of etharp entries
 144:Source\LwIP\src\core\ipv4/etharp.c ****  *
 145:Source\LwIP\src\core\ipv4/etharp.c ****  * @param q a qeueue of etharp_q_entry's to free
ARM GAS  C:\Users\Phuong\AppData\Local\Temp\cczAUGdE.s 			page 4


 146:Source\LwIP\src\core\ipv4/etharp.c ****  */
 147:Source\LwIP\src\core\ipv4/etharp.c **** static void
 148:Source\LwIP\src\core\ipv4/etharp.c **** free_etharp_q(struct etharp_q_entry *q)
 149:Source\LwIP\src\core\ipv4/etharp.c **** {
  27              		.loc 1 149 0
  28              		.cfi_startproc
  29              		@ args = 0, pretend = 0, frame = 0
  30              		@ frame_needed = 0, uses_anonymous_args = 0
  31              	.LVL0:
  32 0000 70B5     		push	{r4, r5, r6, lr}
  33              		.cfi_def_cfa_offset 16
  34              		.cfi_offset 4, -16
  35              		.cfi_offset 5, -12
  36              		.cfi_offset 6, -8
  37              		.cfi_offset 14, -4
  38 0002 0400     		movs	r4, r0
  39 0004 08E0     		b	.L2
  40              	.LVL1:
  41              	.L3:
 150:Source\LwIP\src\core\ipv4/etharp.c ****   struct etharp_q_entry *r;
 151:Source\LwIP\src\core\ipv4/etharp.c ****   LWIP_ASSERT("q != NULL", q != NULL);
 152:Source\LwIP\src\core\ipv4/etharp.c ****   LWIP_ASSERT("q->p != NULL", q->p != NULL);
 153:Source\LwIP\src\core\ipv4/etharp.c ****   while (q) {
 154:Source\LwIP\src\core\ipv4/etharp.c ****     r = q;
 155:Source\LwIP\src\core\ipv4/etharp.c ****     q = q->next;
  42              		.loc 1 155 0
  43 0006 2568     		ldr	r5, [r4]
  44              	.LVL2:
 156:Source\LwIP\src\core\ipv4/etharp.c ****     LWIP_ASSERT("r->p != NULL", (r->p != NULL));
 157:Source\LwIP\src\core\ipv4/etharp.c ****     pbuf_free(r->p);
  45              		.loc 1 157 0
  46 0008 6068     		ldr	r0, [r4, #4]
  47 000a FFF7FEFF 		bl	pbuf_free
  48              	.LVL3:
 158:Source\LwIP\src\core\ipv4/etharp.c ****     memp_free(MEMP_ARP_QUEUE, r);
  49              		.loc 1 158 0
  50 000e 2100     		movs	r1, r4
  51 0010 0A20     		movs	r0, #10
  52 0012 FFF7FEFF 		bl	memp_free
  53              	.LVL4:
 155:Source\LwIP\src\core\ipv4/etharp.c ****     LWIP_ASSERT("r->p != NULL", (r->p != NULL));
  54              		.loc 1 155 0
  55 0016 2C00     		movs	r4, r5
  56              	.LVL5:
  57              	.L2:
 153:Source\LwIP\src\core\ipv4/etharp.c ****     r = q;
  58              		.loc 1 153 0
  59 0018 002C     		cmp	r4, #0
  60 001a F4D1     		bne	.L3
 159:Source\LwIP\src\core\ipv4/etharp.c ****   }
 160:Source\LwIP\src\core\ipv4/etharp.c **** }
  61              		.loc 1 160 0
  62              		@ sp needed
  63              	.LVL6:
  64 001c 70BD     		pop	{r4, r5, r6, pc}
  65              		.cfi_endproc
  66              	.LFE53:
ARM GAS  C:\Users\Phuong\AppData\Local\Temp\cczAUGdE.s 			page 5


  67              		.size	free_etharp_q, .-free_etharp_q
  68 001e C046     		.section	.text.etharp_free_entry,"ax",%progbits
  69              		.align	2
  70              		.code	16
  71              		.thumb_func
  72              		.type	etharp_free_entry, %function
  73              	etharp_free_entry:
  74              	.LFB54:
 161:Source\LwIP\src\core\ipv4/etharp.c **** #else /* ARP_QUEUEING */
 162:Source\LwIP\src\core\ipv4/etharp.c **** 
 163:Source\LwIP\src\core\ipv4/etharp.c **** /** Compatibility define: free the queued pbuf */
 164:Source\LwIP\src\core\ipv4/etharp.c **** #define free_etharp_q(q) pbuf_free(q)
 165:Source\LwIP\src\core\ipv4/etharp.c **** 
 166:Source\LwIP\src\core\ipv4/etharp.c **** #endif /* ARP_QUEUEING */
 167:Source\LwIP\src\core\ipv4/etharp.c **** 
 168:Source\LwIP\src\core\ipv4/etharp.c **** /** Clean up ARP table entries */
 169:Source\LwIP\src\core\ipv4/etharp.c **** static void
 170:Source\LwIP\src\core\ipv4/etharp.c **** etharp_free_entry(int i)
 171:Source\LwIP\src\core\ipv4/etharp.c **** {
  75              		.loc 1 171 0
  76              		.cfi_startproc
  77              		@ args = 0, pretend = 0, frame = 0
  78              		@ frame_needed = 0, uses_anonymous_args = 0
  79              	.LVL7:
  80 0000 10B5     		push	{r4, lr}
  81              		.cfi_def_cfa_offset 8
  82              		.cfi_offset 4, -8
  83              		.cfi_offset 14, -4
  84 0002 0400     		movs	r4, r0
 172:Source\LwIP\src\core\ipv4/etharp.c ****   /* remove from SNMP ARP index tree */
 173:Source\LwIP\src\core\ipv4/etharp.c ****   mib2_remove_arp_entry(arp_table[i].netif, &arp_table[i].ipaddr);
 174:Source\LwIP\src\core\ipv4/etharp.c ****   /* and empty packet queue */
 175:Source\LwIP\src\core\ipv4/etharp.c ****   if (arp_table[i].q != NULL) {
  85              		.loc 1 175 0
  86 0004 4300     		lsls	r3, r0, #1
  87 0006 1B18     		adds	r3, r3, r0
  88 0008 DA00     		lsls	r2, r3, #3
  89 000a 104B     		ldr	r3, .L6
  90 000c D058     		ldr	r0, [r2, r3]
  91              	.LVL8:
  92 000e 0028     		cmp	r0, #0
  93 0010 07D0     		beq	.L5
 176:Source\LwIP\src\core\ipv4/etharp.c ****     /* remove all queued packets */
 177:Source\LwIP\src\core\ipv4/etharp.c ****     LWIP_DEBUGF(ETHARP_DEBUG, ("etharp_free_entry: freeing entry %"U16_F", packet queue %p.\n", (u1
 178:Source\LwIP\src\core\ipv4/etharp.c ****     free_etharp_q(arp_table[i].q);
  94              		.loc 1 178 0
  95 0012 FFF7FEFF 		bl	free_etharp_q
  96              	.LVL9:
 179:Source\LwIP\src\core\ipv4/etharp.c ****     arp_table[i].q = NULL;
  97              		.loc 1 179 0
  98 0016 6300     		lsls	r3, r4, #1
  99 0018 1B19     		adds	r3, r3, r4
 100 001a DA00     		lsls	r2, r3, #3
 101 001c 0021     		movs	r1, #0
 102 001e 0B4B     		ldr	r3, .L6
 103 0020 D150     		str	r1, [r2, r3]
 104              	.L5:
ARM GAS  C:\Users\Phuong\AppData\Local\Temp\cczAUGdE.s 			page 6


 180:Source\LwIP\src\core\ipv4/etharp.c ****   }
 181:Source\LwIP\src\core\ipv4/etharp.c ****   /* recycle entry for re-use */
 182:Source\LwIP\src\core\ipv4/etharp.c ****   arp_table[i].state = ETHARP_STATE_EMPTY;
 105              		.loc 1 182 0
 106 0022 0A48     		ldr	r0, .L6
 107 0024 6100     		lsls	r1, r4, #1
 108 0026 0A19     		adds	r2, r1, r4
 109 0028 D300     		lsls	r3, r2, #3
 110 002a C318     		adds	r3, r0, r3
 111 002c 0022     		movs	r2, #0
 112 002e 1A75     		strb	r2, [r3, #20]
 183:Source\LwIP\src\core\ipv4/etharp.c **** #ifdef LWIP_DEBUG
 184:Source\LwIP\src\core\ipv4/etharp.c ****   /* for debugging, clean out the complete entry */
 185:Source\LwIP\src\core\ipv4/etharp.c ****   arp_table[i].ctime = 0;
 113              		.loc 1 185 0
 114 0030 5A82     		strh	r2, [r3, #18]
 186:Source\LwIP\src\core\ipv4/etharp.c ****   arp_table[i].netif = NULL;
 115              		.loc 1 186 0
 116 0032 9A60     		str	r2, [r3, #8]
 187:Source\LwIP\src\core\ipv4/etharp.c ****   ip4_addr_set_zero(&arp_table[i].ipaddr);
 117              		.loc 1 187 0
 118 0034 5A60     		str	r2, [r3, #4]
 188:Source\LwIP\src\core\ipv4/etharp.c ****   arp_table[i].ethaddr = ethzero;
 119              		.loc 1 188 0
 120 0036 0C19     		adds	r4, r1, r4
 121              	.LVL10:
 122 0038 E300     		lsls	r3, r4, #3
 123 003a C318     		adds	r3, r0, r3
 124 003c 0C33     		adds	r3, r3, #12
 125 003e 1800     		movs	r0, r3
 126 0040 0632     		adds	r2, r2, #6
 127 0042 0349     		ldr	r1, .L6+4
 128 0044 FFF7FEFF 		bl	memcpy
 129              	.LVL11:
 189:Source\LwIP\src\core\ipv4/etharp.c **** #endif /* LWIP_DEBUG */
 190:Source\LwIP\src\core\ipv4/etharp.c **** }
 130              		.loc 1 190 0
 131              		@ sp needed
 132 0048 10BD     		pop	{r4, pc}
 133              	.L7:
 134 004a C046     		.align	2
 135              	.L6:
 136 004c 00000000 		.word	.LANCHOR0
 137 0050 00000000 		.word	ethzero
 138              		.cfi_endproc
 139              	.LFE54:
 140              		.size	etharp_free_entry, .-etharp_free_entry
 141              		.section	.text.etharp_find_entry,"ax",%progbits
 142              		.align	2
 143              		.code	16
 144              		.thumb_func
 145              		.type	etharp_find_entry, %function
 146              	etharp_find_entry:
 147              	.LFB56:
 191:Source\LwIP\src\core\ipv4/etharp.c **** 
 192:Source\LwIP\src\core\ipv4/etharp.c **** /**
 193:Source\LwIP\src\core\ipv4/etharp.c ****  * Clears expired entries in the ARP table.
ARM GAS  C:\Users\Phuong\AppData\Local\Temp\cczAUGdE.s 			page 7


 194:Source\LwIP\src\core\ipv4/etharp.c ****  *
 195:Source\LwIP\src\core\ipv4/etharp.c ****  * This function should be called every ARP_TMR_INTERVAL milliseconds (1 second),
 196:Source\LwIP\src\core\ipv4/etharp.c ****  * in order to expire entries in the ARP table.
 197:Source\LwIP\src\core\ipv4/etharp.c ****  */
 198:Source\LwIP\src\core\ipv4/etharp.c **** void
 199:Source\LwIP\src\core\ipv4/etharp.c **** etharp_tmr(void)
 200:Source\LwIP\src\core\ipv4/etharp.c **** {
 201:Source\LwIP\src\core\ipv4/etharp.c ****   u8_t i;
 202:Source\LwIP\src\core\ipv4/etharp.c **** 
 203:Source\LwIP\src\core\ipv4/etharp.c ****   LWIP_DEBUGF(ETHARP_DEBUG, ("etharp_timer\n"));
 204:Source\LwIP\src\core\ipv4/etharp.c ****   /* remove expired entries from the ARP table */
 205:Source\LwIP\src\core\ipv4/etharp.c ****   for (i = 0; i < ARP_TABLE_SIZE; ++i) {
 206:Source\LwIP\src\core\ipv4/etharp.c ****     u8_t state = arp_table[i].state;
 207:Source\LwIP\src\core\ipv4/etharp.c ****     if (state != ETHARP_STATE_EMPTY
 208:Source\LwIP\src\core\ipv4/etharp.c **** #if ETHARP_SUPPORT_STATIC_ENTRIES
 209:Source\LwIP\src\core\ipv4/etharp.c ****       && (state != ETHARP_STATE_STATIC)
 210:Source\LwIP\src\core\ipv4/etharp.c **** #endif /* ETHARP_SUPPORT_STATIC_ENTRIES */
 211:Source\LwIP\src\core\ipv4/etharp.c ****       ) {
 212:Source\LwIP\src\core\ipv4/etharp.c ****       arp_table[i].ctime++;
 213:Source\LwIP\src\core\ipv4/etharp.c ****       if ((arp_table[i].ctime >= ARP_MAXAGE) ||
 214:Source\LwIP\src\core\ipv4/etharp.c ****           ((arp_table[i].state == ETHARP_STATE_PENDING)  &&
 215:Source\LwIP\src\core\ipv4/etharp.c ****            (arp_table[i].ctime >= ARP_MAXPENDING))) {
 216:Source\LwIP\src\core\ipv4/etharp.c ****         /* pending or stable entry has become old! */
 217:Source\LwIP\src\core\ipv4/etharp.c ****         LWIP_DEBUGF(ETHARP_DEBUG, ("etharp_timer: expired %s entry %"U16_F".\n",
 218:Source\LwIP\src\core\ipv4/etharp.c ****              arp_table[i].state >= ETHARP_STATE_STABLE ? "stable" : "pending", (u16_t)i));
 219:Source\LwIP\src\core\ipv4/etharp.c ****         /* clean up entries that have just been expired */
 220:Source\LwIP\src\core\ipv4/etharp.c ****         etharp_free_entry(i);
 221:Source\LwIP\src\core\ipv4/etharp.c ****       } else if (arp_table[i].state == ETHARP_STATE_STABLE_REREQUESTING_1) {
 222:Source\LwIP\src\core\ipv4/etharp.c ****         /* Don't send more than one request every 2 seconds. */
 223:Source\LwIP\src\core\ipv4/etharp.c ****         arp_table[i].state = ETHARP_STATE_STABLE_REREQUESTING_2;
 224:Source\LwIP\src\core\ipv4/etharp.c ****       } else if (arp_table[i].state == ETHARP_STATE_STABLE_REREQUESTING_2) {
 225:Source\LwIP\src\core\ipv4/etharp.c ****         /* Reset state to stable, so that the next transmitted packet will
 226:Source\LwIP\src\core\ipv4/etharp.c ****            re-send an ARP request. */
 227:Source\LwIP\src\core\ipv4/etharp.c ****         arp_table[i].state = ETHARP_STATE_STABLE;
 228:Source\LwIP\src\core\ipv4/etharp.c ****       } else if (arp_table[i].state == ETHARP_STATE_PENDING) {
 229:Source\LwIP\src\core\ipv4/etharp.c ****         /* still pending, resend an ARP query */
 230:Source\LwIP\src\core\ipv4/etharp.c ****         etharp_request(arp_table[i].netif, &arp_table[i].ipaddr);
 231:Source\LwIP\src\core\ipv4/etharp.c ****       }
 232:Source\LwIP\src\core\ipv4/etharp.c ****     }
 233:Source\LwIP\src\core\ipv4/etharp.c ****   }
 234:Source\LwIP\src\core\ipv4/etharp.c **** }
 235:Source\LwIP\src\core\ipv4/etharp.c **** 
 236:Source\LwIP\src\core\ipv4/etharp.c **** /**
 237:Source\LwIP\src\core\ipv4/etharp.c ****  * Search the ARP table for a matching or new entry.
 238:Source\LwIP\src\core\ipv4/etharp.c ****  *
 239:Source\LwIP\src\core\ipv4/etharp.c ****  * If an IP address is given, return a pending or stable ARP entry that matches
 240:Source\LwIP\src\core\ipv4/etharp.c ****  * the address. If no match is found, create a new entry with this address set,
 241:Source\LwIP\src\core\ipv4/etharp.c ****  * but in state ETHARP_EMPTY. The caller must check and possibly change the
 242:Source\LwIP\src\core\ipv4/etharp.c ****  * state of the returned entry.
 243:Source\LwIP\src\core\ipv4/etharp.c ****  *
 244:Source\LwIP\src\core\ipv4/etharp.c ****  * If ipaddr is NULL, return a initialized new entry in state ETHARP_EMPTY.
 245:Source\LwIP\src\core\ipv4/etharp.c ****  *
 246:Source\LwIP\src\core\ipv4/etharp.c ****  * In all cases, attempt to create new entries from an empty entry. If no
 247:Source\LwIP\src\core\ipv4/etharp.c ****  * empty entries are available and ETHARP_FLAG_TRY_HARD flag is set, recycle
 248:Source\LwIP\src\core\ipv4/etharp.c ****  * old entries. Heuristic choose the least important entry for recycling.
 249:Source\LwIP\src\core\ipv4/etharp.c ****  *
 250:Source\LwIP\src\core\ipv4/etharp.c ****  * @param ipaddr IP address to find in ARP cache, or to add if not found.
ARM GAS  C:\Users\Phuong\AppData\Local\Temp\cczAUGdE.s 			page 8


 251:Source\LwIP\src\core\ipv4/etharp.c ****  * @param flags See @ref etharp_state
 252:Source\LwIP\src\core\ipv4/etharp.c ****  * @param netif netif related to this address (used for NETIF_HWADDRHINT)
 253:Source\LwIP\src\core\ipv4/etharp.c ****  *
 254:Source\LwIP\src\core\ipv4/etharp.c ****  * @return The ARP entry index that matched or is created, ERR_MEM if no
 255:Source\LwIP\src\core\ipv4/etharp.c ****  * entry is found or could be recycled.
 256:Source\LwIP\src\core\ipv4/etharp.c ****  */
 257:Source\LwIP\src\core\ipv4/etharp.c **** static s8_t
 258:Source\LwIP\src\core\ipv4/etharp.c **** etharp_find_entry(const ip4_addr_t *ipaddr, u8_t flags, struct netif* netif)
 259:Source\LwIP\src\core\ipv4/etharp.c **** {
 148              		.loc 1 259 0
 149              		.cfi_startproc
 150              		@ args = 0, pretend = 0, frame = 8
 151              		@ frame_needed = 0, uses_anonymous_args = 0
 152              	.LVL12:
 153 0000 F0B5     		push	{r4, r5, r6, r7, lr}
 154              		.cfi_def_cfa_offset 20
 155              		.cfi_offset 4, -20
 156              		.cfi_offset 5, -16
 157              		.cfi_offset 6, -12
 158              		.cfi_offset 7, -8
 159              		.cfi_offset 14, -4
 160 0002 5F46     		mov	r7, fp
 161 0004 5646     		mov	r6, r10
 162 0006 4D46     		mov	r5, r9
 163 0008 4446     		mov	r4, r8
 164 000a F0B4     		push	{r4, r5, r6, r7}
 165              		.cfi_def_cfa_offset 36
 166              		.cfi_offset 8, -36
 167              		.cfi_offset 9, -32
 168              		.cfi_offset 10, -28
 169              		.cfi_offset 11, -24
 170 000c 83B0     		sub	sp, sp, #12
 171              		.cfi_def_cfa_offset 48
 172 000e 0700     		movs	r7, r0
 173 0010 0191     		str	r1, [sp, #4]
 174              	.LVL13:
 260:Source\LwIP\src\core\ipv4/etharp.c ****   s8_t old_pending = ARP_TABLE_SIZE, old_stable = ARP_TABLE_SIZE;
 261:Source\LwIP\src\core\ipv4/etharp.c ****   s8_t empty = ARP_TABLE_SIZE;
 262:Source\LwIP\src\core\ipv4/etharp.c ****   u8_t i = 0;
 263:Source\LwIP\src\core\ipv4/etharp.c ****   /* oldest entry with packets on queue */
 264:Source\LwIP\src\core\ipv4/etharp.c ****   s8_t old_queue = ARP_TABLE_SIZE;
 265:Source\LwIP\src\core\ipv4/etharp.c ****   /* its age */
 266:Source\LwIP\src\core\ipv4/etharp.c ****   u16_t age_queue = 0, age_pending = 0, age_stable = 0;
 175              		.loc 1 266 0
 176 0012 0021     		movs	r1, #0
 177              	.LVL14:
 178 0014 0023     		movs	r3, #0
 179 0016 9946     		mov	r9, r3
 180 0018 9846     		mov	r8, r3
 264:Source\LwIP\src\core\ipv4/etharp.c ****   /* its age */
 181              		.loc 1 264 0
 182 001a 0A33     		adds	r3, r3, #10
 183 001c 9A46     		mov	r10, r3
 267:Source\LwIP\src\core\ipv4/etharp.c **** 
 268:Source\LwIP\src\core\ipv4/etharp.c ****   LWIP_UNUSED_ARG(netif);
 269:Source\LwIP\src\core\ipv4/etharp.c **** 
 270:Source\LwIP\src\core\ipv4/etharp.c ****   /**
ARM GAS  C:\Users\Phuong\AppData\Local\Temp\cczAUGdE.s 			page 9


 271:Source\LwIP\src\core\ipv4/etharp.c ****    * a) do a search through the cache, remember candidates
 272:Source\LwIP\src\core\ipv4/etharp.c ****    * b) select candidate entry
 273:Source\LwIP\src\core\ipv4/etharp.c ****    * c) create new entry
 274:Source\LwIP\src\core\ipv4/etharp.c ****    */
 275:Source\LwIP\src\core\ipv4/etharp.c **** 
 276:Source\LwIP\src\core\ipv4/etharp.c ****   /* a) in a single search sweep, do all of this
 277:Source\LwIP\src\core\ipv4/etharp.c ****    * 1) remember the first empty entry (if any)
 278:Source\LwIP\src\core\ipv4/etharp.c ****    * 2) remember the oldest stable entry (if any)
 279:Source\LwIP\src\core\ipv4/etharp.c ****    * 3) remember the oldest pending entry without queued packets (if any)
 280:Source\LwIP\src\core\ipv4/etharp.c ****    * 4) remember the oldest pending entry with queued packets (if any)
 281:Source\LwIP\src\core\ipv4/etharp.c ****    * 5) search for a matching IP entry, either pending or stable
 282:Source\LwIP\src\core\ipv4/etharp.c ****    *    until 5 matches, or all entries are searched for.
 283:Source\LwIP\src\core\ipv4/etharp.c ****    */
 284:Source\LwIP\src\core\ipv4/etharp.c **** 
 285:Source\LwIP\src\core\ipv4/etharp.c ****   for (i = 0; i < ARP_TABLE_SIZE; ++i) {
 184              		.loc 1 285 0
 185 001e 0020     		movs	r0, #0
 186              	.LVL15:
 261:Source\LwIP\src\core\ipv4/etharp.c ****   u8_t i = 0;
 187              		.loc 1 261 0
 188 0020 0A26     		movs	r6, #10
 260:Source\LwIP\src\core\ipv4/etharp.c ****   s8_t empty = ARP_TABLE_SIZE;
 189              		.loc 1 260 0
 190 0022 9C46     		mov	ip, r3
 191 0024 9B46     		mov	fp, r3
 192              		.loc 1 285 0
 193 0026 49E0     		b	.L9
 194              	.LVL16:
 195              	.L16:
 196              	.LBB2:
 286:Source\LwIP\src\core\ipv4/etharp.c ****     u8_t state = arp_table[i].state;
 197              		.loc 1 286 0
 198 0028 0400     		movs	r4, r0
 199 002a 4200     		lsls	r2, r0, #1
 200 002c 1218     		adds	r2, r2, r0
 201 002e D300     		lsls	r3, r2, #3
 202 0030 474A     		ldr	r2, .L27
 203 0032 D318     		adds	r3, r2, r3
 204 0034 1B7D     		ldrb	r3, [r3, #20]
 205              	.LVL17:
 287:Source\LwIP\src\core\ipv4/etharp.c ****     /* no empty entry found yet and now we do find one? */
 288:Source\LwIP\src\core\ipv4/etharp.c ****     if ((empty == ARP_TABLE_SIZE) && (state == ETHARP_STATE_EMPTY)) {
 206              		.loc 1 288 0
 207 0036 0A2E     		cmp	r6, #10
 208 0038 03D1     		bne	.L10
 209              		.loc 1 288 0 is_stmt 0 discriminator 1
 210 003a 002B     		cmp	r3, #0
 211 003c 01D1     		bne	.L10
 289:Source\LwIP\src\core\ipv4/etharp.c ****       LWIP_DEBUGF(ETHARP_DEBUG, ("etharp_find_entry: found empty entry %"U16_F"\n", (u16_t)i));
 290:Source\LwIP\src\core\ipv4/etharp.c ****       /* remember first empty entry */
 291:Source\LwIP\src\core\ipv4/etharp.c ****       empty = i;
 212              		.loc 1 291 0 is_stmt 1
 213 003e 46B2     		sxtb	r6, r0
 214              	.LVL18:
 215 0040 3AE0     		b	.L11
 216              	.L10:
 292:Source\LwIP\src\core\ipv4/etharp.c ****     } else if (state != ETHARP_STATE_EMPTY) {
ARM GAS  C:\Users\Phuong\AppData\Local\Temp\cczAUGdE.s 			page 10


 217              		.loc 1 292 0
 218 0042 002B     		cmp	r3, #0
 219 0044 38D0     		beq	.L11
 293:Source\LwIP\src\core\ipv4/etharp.c ****       LWIP_ASSERT("state == ETHARP_STATE_PENDING || state >= ETHARP_STATE_STABLE",
 294:Source\LwIP\src\core\ipv4/etharp.c ****         state == ETHARP_STATE_PENDING || state >= ETHARP_STATE_STABLE);
 295:Source\LwIP\src\core\ipv4/etharp.c ****       /* if given, does IP address match IP address in ARP entry? */
 296:Source\LwIP\src\core\ipv4/etharp.c ****       if (ipaddr && ip4_addr_cmp(ipaddr, &arp_table[i].ipaddr)
 220              		.loc 1 296 0
 221 0046 002F     		cmp	r7, #0
 222 0048 0AD0     		beq	.L12
 223              		.loc 1 296 0 is_stmt 0 discriminator 1
 224 004a 6200     		lsls	r2, r4, #1
 225 004c 1519     		adds	r5, r2, r4
 226 004e EA00     		lsls	r2, r5, #3
 227 0050 3F4D     		ldr	r5, .L27
 228 0052 AA18     		adds	r2, r5, r2
 229 0054 5268     		ldr	r2, [r2, #4]
 230 0056 3D68     		ldr	r5, [r7]
 231 0058 9542     		cmp	r5, r2
 232 005a 01D1     		bne	.L12
 297:Source\LwIP\src\core\ipv4/etharp.c **** #if ETHARP_TABLE_MATCH_NETIF
 298:Source\LwIP\src\core\ipv4/etharp.c ****           && ((netif == NULL) || (netif == arp_table[i].netif))
 299:Source\LwIP\src\core\ipv4/etharp.c **** #endif /* ETHARP_TABLE_MATCH_NETIF */
 300:Source\LwIP\src\core\ipv4/etharp.c ****         ) {
 301:Source\LwIP\src\core\ipv4/etharp.c ****         LWIP_DEBUGF(ETHARP_DEBUG | LWIP_DBG_TRACE, ("etharp_find_entry: found matching entry %"U16_
 302:Source\LwIP\src\core\ipv4/etharp.c ****         /* found exact IP address match, simply bail out */
 303:Source\LwIP\src\core\ipv4/etharp.c ****         return i;
 233              		.loc 1 303 0 is_stmt 1
 234 005c 40B2     		sxtb	r0, r0
 235 005e 70E0     		b	.L13
 236              	.L12:
 304:Source\LwIP\src\core\ipv4/etharp.c ****       }
 305:Source\LwIP\src\core\ipv4/etharp.c ****       /* pending entry? */
 306:Source\LwIP\src\core\ipv4/etharp.c ****       if (state == ETHARP_STATE_PENDING) {
 237              		.loc 1 306 0
 238 0060 012B     		cmp	r3, #1
 239 0062 1CD1     		bne	.L14
 307:Source\LwIP\src\core\ipv4/etharp.c ****         /* pending with queued packets? */
 308:Source\LwIP\src\core\ipv4/etharp.c ****         if (arp_table[i].q != NULL) {
 240              		.loc 1 308 0
 241 0064 6300     		lsls	r3, r4, #1
 242              	.LVL19:
 243 0066 1B19     		adds	r3, r3, r4
 244 0068 DA00     		lsls	r2, r3, #3
 245 006a 394B     		ldr	r3, .L27
 246              	.LVL20:
 247 006c D358     		ldr	r3, [r2, r3]
 248              	.LVL21:
 249 006e 002B     		cmp	r3, #0
 250 0070 09D0     		beq	.L15
 309:Source\LwIP\src\core\ipv4/etharp.c ****           if (arp_table[i].ctime >= age_queue) {
 251              		.loc 1 309 0
 252 0072 1300     		movs	r3, r2
 253 0074 364A     		ldr	r2, .L27
 254              	.LVL22:
 255 0076 D318     		adds	r3, r2, r3
 256 0078 5B8A     		ldrh	r3, [r3, #18]
ARM GAS  C:\Users\Phuong\AppData\Local\Temp\cczAUGdE.s 			page 11


 257 007a 9845     		cmp	r8, r3
 258 007c 1CD8     		bhi	.L11
 310:Source\LwIP\src\core\ipv4/etharp.c ****             old_queue = i;
 259              		.loc 1 310 0
 260 007e 42B2     		sxtb	r2, r0
 261              	.LVL23:
 262 0080 9246     		mov	r10, r2
 263              	.LVL24:
 311:Source\LwIP\src\core\ipv4/etharp.c ****             age_queue = arp_table[i].ctime;
 264              		.loc 1 311 0
 265 0082 9846     		mov	r8, r3
 266 0084 18E0     		b	.L11
 267              	.LVL25:
 268              	.L15:
 312:Source\LwIP\src\core\ipv4/etharp.c ****           }
 313:Source\LwIP\src\core\ipv4/etharp.c ****         } else
 314:Source\LwIP\src\core\ipv4/etharp.c ****         /* pending without queued packets? */
 315:Source\LwIP\src\core\ipv4/etharp.c ****         {
 316:Source\LwIP\src\core\ipv4/etharp.c ****           if (arp_table[i].ctime >= age_pending) {
 269              		.loc 1 316 0
 270 0086 6300     		lsls	r3, r4, #1
 271 0088 1C19     		adds	r4, r3, r4
 272 008a E300     		lsls	r3, r4, #3
 273 008c 304A     		ldr	r2, .L27
 274              	.LVL26:
 275 008e D318     		adds	r3, r2, r3
 276 0090 5B8A     		ldrh	r3, [r3, #18]
 277 0092 9945     		cmp	r9, r3
 278 0094 10D8     		bhi	.L11
 317:Source\LwIP\src\core\ipv4/etharp.c ****             old_pending = i;
 279              		.loc 1 317 0
 280 0096 42B2     		sxtb	r2, r0
 281              	.LVL27:
 282 0098 9346     		mov	fp, r2
 283              	.LVL28:
 318:Source\LwIP\src\core\ipv4/etharp.c ****             age_pending = arp_table[i].ctime;
 284              		.loc 1 318 0
 285 009a 9946     		mov	r9, r3
 286 009c 0CE0     		b	.L11
 287              	.LVL29:
 288              	.L14:
 319:Source\LwIP\src\core\ipv4/etharp.c ****           }
 320:Source\LwIP\src\core\ipv4/etharp.c ****         }
 321:Source\LwIP\src\core\ipv4/etharp.c ****       /* stable entry? */
 322:Source\LwIP\src\core\ipv4/etharp.c ****       } else if (state >= ETHARP_STATE_STABLE) {
 289              		.loc 1 322 0
 290 009e 012B     		cmp	r3, #1
 291 00a0 0AD9     		bls	.L11
 323:Source\LwIP\src\core\ipv4/etharp.c **** #if ETHARP_SUPPORT_STATIC_ENTRIES
 324:Source\LwIP\src\core\ipv4/etharp.c ****         /* don't record old_stable for static entries since they never expire */
 325:Source\LwIP\src\core\ipv4/etharp.c ****         if (state < ETHARP_STATE_STATIC)
 326:Source\LwIP\src\core\ipv4/etharp.c **** #endif /* ETHARP_SUPPORT_STATIC_ENTRIES */
 327:Source\LwIP\src\core\ipv4/etharp.c ****         {
 328:Source\LwIP\src\core\ipv4/etharp.c ****           /* remember entry with oldest stable entry in oldest, its age in maxtime */
 329:Source\LwIP\src\core\ipv4/etharp.c ****           if (arp_table[i].ctime >= age_stable) {
 292              		.loc 1 329 0
 293 00a2 6300     		lsls	r3, r4, #1
ARM GAS  C:\Users\Phuong\AppData\Local\Temp\cczAUGdE.s 			page 12


 294              	.LVL30:
 295 00a4 1C19     		adds	r4, r3, r4
 296 00a6 E300     		lsls	r3, r4, #3
 297 00a8 294A     		ldr	r2, .L27
 298              	.LVL31:
 299 00aa D318     		adds	r3, r2, r3
 300 00ac 5B8A     		ldrh	r3, [r3, #18]
 301 00ae 9942     		cmp	r1, r3
 302 00b0 02D8     		bhi	.L11
 330:Source\LwIP\src\core\ipv4/etharp.c ****             old_stable = i;
 303              		.loc 1 330 0
 304 00b2 42B2     		sxtb	r2, r0
 305              	.LVL32:
 306 00b4 9446     		mov	ip, r2
 307              	.LVL33:
 331:Source\LwIP\src\core\ipv4/etharp.c ****             age_stable = arp_table[i].ctime;
 308              		.loc 1 331 0
 309 00b6 1900     		movs	r1, r3
 310              	.LVL34:
 311              	.L11:
 312              	.LBE2:
 285:Source\LwIP\src\core\ipv4/etharp.c ****     u8_t state = arp_table[i].state;
 313              		.loc 1 285 0 discriminator 2
 314 00b8 0130     		adds	r0, r0, #1
 315              	.LVL35:
 316 00ba C0B2     		uxtb	r0, r0
 317              	.LVL36:
 318              	.L9:
 285:Source\LwIP\src\core\ipv4/etharp.c ****     u8_t state = arp_table[i].state;
 319              		.loc 1 285 0 is_stmt 0 discriminator 1
 320 00bc 0928     		cmp	r0, #9
 321 00be B3D9     		bls	.L16
 332:Source\LwIP\src\core\ipv4/etharp.c ****           }
 333:Source\LwIP\src\core\ipv4/etharp.c ****         }
 334:Source\LwIP\src\core\ipv4/etharp.c ****       }
 335:Source\LwIP\src\core\ipv4/etharp.c ****     }
 336:Source\LwIP\src\core\ipv4/etharp.c ****   }
 337:Source\LwIP\src\core\ipv4/etharp.c ****   /* { we have no match } => try to create a new entry */
 338:Source\LwIP\src\core\ipv4/etharp.c **** 
 339:Source\LwIP\src\core\ipv4/etharp.c ****   /* don't create new entry, only search? */
 340:Source\LwIP\src\core\ipv4/etharp.c ****   if (((flags & ETHARP_FLAG_FIND_ONLY) != 0) ||
 322              		.loc 1 340 0 is_stmt 1
 323 00c0 019B     		ldr	r3, [sp, #4]
 324 00c2 9B07     		lsls	r3, r3, #30
 325 00c4 35D4     		bmi	.L24
 326              		.loc 1 340 0 is_stmt 0 discriminator 1
 327 00c6 0A2E     		cmp	r6, #10
 328 00c8 02D1     		bne	.L17
 341:Source\LwIP\src\core\ipv4/etharp.c ****       /* or no empty entry found and not allowed to recycle? */
 342:Source\LwIP\src\core\ipv4/etharp.c ****       ((empty == ARP_TABLE_SIZE) && ((flags & ETHARP_FLAG_TRY_HARD) == 0))) {
 329              		.loc 1 342 0 is_stmt 1
 330 00ca 019B     		ldr	r3, [sp, #4]
 331 00cc DB07     		lsls	r3, r3, #31
 332 00ce 33D5     		bpl	.L25
 333              	.L17:
 343:Source\LwIP\src\core\ipv4/etharp.c ****     LWIP_DEBUGF(ETHARP_DEBUG | LWIP_DBG_TRACE, ("etharp_find_entry: no empty entry found and not al
 344:Source\LwIP\src\core\ipv4/etharp.c ****     return (s8_t)ERR_MEM;
ARM GAS  C:\Users\Phuong\AppData\Local\Temp\cczAUGdE.s 			page 13


 345:Source\LwIP\src\core\ipv4/etharp.c ****   }
 346:Source\LwIP\src\core\ipv4/etharp.c **** 
 347:Source\LwIP\src\core\ipv4/etharp.c ****   /* b) choose the least destructive entry to recycle:
 348:Source\LwIP\src\core\ipv4/etharp.c ****    * 1) empty entry
 349:Source\LwIP\src\core\ipv4/etharp.c ****    * 2) oldest stable entry
 350:Source\LwIP\src\core\ipv4/etharp.c ****    * 3) oldest pending entry without queued packets
 351:Source\LwIP\src\core\ipv4/etharp.c ****    * 4) oldest pending entry with queued packets
 352:Source\LwIP\src\core\ipv4/etharp.c ****    *
 353:Source\LwIP\src\core\ipv4/etharp.c ****    * { ETHARP_FLAG_TRY_HARD is set at this point }
 354:Source\LwIP\src\core\ipv4/etharp.c ****    */
 355:Source\LwIP\src\core\ipv4/etharp.c **** 
 356:Source\LwIP\src\core\ipv4/etharp.c ****   /* 1) empty entry available? */
 357:Source\LwIP\src\core\ipv4/etharp.c ****   if (empty < ARP_TABLE_SIZE) {
 334              		.loc 1 357 0
 335 00d0 092E     		cmp	r6, #9
 336 00d2 01DC     		bgt	.L18
 358:Source\LwIP\src\core\ipv4/etharp.c ****     i = empty;
 337              		.loc 1 358 0
 338 00d4 F6B2     		uxtb	r6, r6
 339              	.LVL37:
 340 00d6 19E0     		b	.L19
 341              	.LVL38:
 342              	.L18:
 359:Source\LwIP\src\core\ipv4/etharp.c ****     LWIP_DEBUGF(ETHARP_DEBUG | LWIP_DBG_TRACE, ("etharp_find_entry: selecting empty entry %"U16_F"\
 360:Source\LwIP\src\core\ipv4/etharp.c ****   } else {
 361:Source\LwIP\src\core\ipv4/etharp.c ****     /* 2) found recyclable stable entry? */
 362:Source\LwIP\src\core\ipv4/etharp.c ****     if (old_stable < ARP_TABLE_SIZE) {
 343              		.loc 1 362 0
 344 00d8 6346     		mov	r3, ip
 345 00da 092B     		cmp	r3, #9
 346 00dc 04DC     		bgt	.L20
 363:Source\LwIP\src\core\ipv4/etharp.c ****       /* recycle oldest stable*/
 364:Source\LwIP\src\core\ipv4/etharp.c ****       i = old_stable;
 347              		.loc 1 364 0
 348 00de 6346     		mov	r3, ip
 349 00e0 6A46     		mov	r2, sp
 350 00e2 1371     		strb	r3, [r2, #4]
 351 00e4 1679     		ldrb	r6, [r2, #4]
 352              	.LVL39:
 353 00e6 0EE0     		b	.L21
 354              	.LVL40:
 355              	.L20:
 365:Source\LwIP\src\core\ipv4/etharp.c ****       LWIP_DEBUGF(ETHARP_DEBUG | LWIP_DBG_TRACE, ("etharp_find_entry: selecting oldest stable entry
 366:Source\LwIP\src\core\ipv4/etharp.c ****       /* no queued packets should exist on stable entries */
 367:Source\LwIP\src\core\ipv4/etharp.c ****       LWIP_ASSERT("arp_table[i].q == NULL", arp_table[i].q == NULL);
 368:Source\LwIP\src\core\ipv4/etharp.c ****     /* 3) found recyclable pending entry without queued packets? */
 369:Source\LwIP\src\core\ipv4/etharp.c ****     } else if (old_pending < ARP_TABLE_SIZE) {
 356              		.loc 1 369 0
 357 00e8 5B46     		mov	r3, fp
 358 00ea 092B     		cmp	r3, #9
 359 00ec 04DC     		bgt	.L22
 370:Source\LwIP\src\core\ipv4/etharp.c ****       /* recycle oldest pending */
 371:Source\LwIP\src\core\ipv4/etharp.c ****       i = old_pending;
 360              		.loc 1 371 0
 361 00ee 5B46     		mov	r3, fp
 362 00f0 6A46     		mov	r2, sp
 363 00f2 1371     		strb	r3, [r2, #4]
ARM GAS  C:\Users\Phuong\AppData\Local\Temp\cczAUGdE.s 			page 14


 364 00f4 1679     		ldrb	r6, [r2, #4]
 365              	.LVL41:
 366 00f6 06E0     		b	.L21
 367              	.LVL42:
 368              	.L22:
 372:Source\LwIP\src\core\ipv4/etharp.c ****       LWIP_DEBUGF(ETHARP_DEBUG | LWIP_DBG_TRACE, ("etharp_find_entry: selecting oldest pending entr
 373:Source\LwIP\src\core\ipv4/etharp.c ****     /* 4) found recyclable pending entry with queued packets? */
 374:Source\LwIP\src\core\ipv4/etharp.c ****     } else if (old_queue < ARP_TABLE_SIZE) {
 369              		.loc 1 374 0
 370 00f8 5346     		mov	r3, r10
 371 00fa 092B     		cmp	r3, #9
 372 00fc 1FDC     		bgt	.L26
 375:Source\LwIP\src\core\ipv4/etharp.c ****       /* recycle oldest pending (queued packets are free in etharp_free_entry) */
 376:Source\LwIP\src\core\ipv4/etharp.c ****       i = old_queue;
 373              		.loc 1 376 0
 374 00fe 5346     		mov	r3, r10
 375 0100 6A46     		mov	r2, sp
 376 0102 1371     		strb	r3, [r2, #4]
 377 0104 1679     		ldrb	r6, [r2, #4]
 378              	.LVL43:
 379              	.L21:
 377:Source\LwIP\src\core\ipv4/etharp.c ****       LWIP_DEBUGF(ETHARP_DEBUG | LWIP_DBG_TRACE, ("etharp_find_entry: selecting oldest pending entr
 378:Source\LwIP\src\core\ipv4/etharp.c ****       /* no empty or recyclable entries found */
 379:Source\LwIP\src\core\ipv4/etharp.c ****     } else {
 380:Source\LwIP\src\core\ipv4/etharp.c ****       LWIP_DEBUGF(ETHARP_DEBUG | LWIP_DBG_TRACE, ("etharp_find_entry: no empty or recyclable entrie
 381:Source\LwIP\src\core\ipv4/etharp.c ****       return (s8_t)ERR_MEM;
 382:Source\LwIP\src\core\ipv4/etharp.c ****     }
 383:Source\LwIP\src\core\ipv4/etharp.c **** 
 384:Source\LwIP\src\core\ipv4/etharp.c ****     /* { empty or recyclable entry found } */
 385:Source\LwIP\src\core\ipv4/etharp.c ****     LWIP_ASSERT("i < ARP_TABLE_SIZE", i < ARP_TABLE_SIZE);
 386:Source\LwIP\src\core\ipv4/etharp.c ****     etharp_free_entry(i);
 380              		.loc 1 386 0
 381 0106 3000     		movs	r0, r6
 382 0108 FFF7FEFF 		bl	etharp_free_entry
 383              	.LVL44:
 384              	.L19:
 387:Source\LwIP\src\core\ipv4/etharp.c ****   }
 388:Source\LwIP\src\core\ipv4/etharp.c **** 
 389:Source\LwIP\src\core\ipv4/etharp.c ****   LWIP_ASSERT("i < ARP_TABLE_SIZE", i < ARP_TABLE_SIZE);
 390:Source\LwIP\src\core\ipv4/etharp.c ****   LWIP_ASSERT("arp_table[i].state == ETHARP_STATE_EMPTY",
 385              		.loc 1 390 0
 386 010c 3300     		movs	r3, r6
 391:Source\LwIP\src\core\ipv4/etharp.c ****     arp_table[i].state == ETHARP_STATE_EMPTY);
 392:Source\LwIP\src\core\ipv4/etharp.c **** 
 393:Source\LwIP\src\core\ipv4/etharp.c ****   /* IP address given? */
 394:Source\LwIP\src\core\ipv4/etharp.c ****   if (ipaddr != NULL) {
 387              		.loc 1 394 0
 388 010e 002F     		cmp	r7, #0
 389 0110 06D0     		beq	.L23
 395:Source\LwIP\src\core\ipv4/etharp.c ****     /* set IP address */
 396:Source\LwIP\src\core\ipv4/etharp.c ****     ip4_addr_copy(arp_table[i].ipaddr, *ipaddr);
 390              		.loc 1 396 0
 391 0112 3868     		ldr	r0, [r7]
 392 0114 7100     		lsls	r1, r6, #1
 393 0116 8919     		adds	r1, r1, r6
 394 0118 CA00     		lsls	r2, r1, #3
 395 011a 0D49     		ldr	r1, .L27
ARM GAS  C:\Users\Phuong\AppData\Local\Temp\cczAUGdE.s 			page 15


 396 011c 8A18     		adds	r2, r1, r2
 397 011e 5060     		str	r0, [r2, #4]
 398              	.L23:
 397:Source\LwIP\src\core\ipv4/etharp.c ****   }
 398:Source\LwIP\src\core\ipv4/etharp.c ****   arp_table[i].ctime = 0;
 399              		.loc 1 398 0
 400 0120 5A00     		lsls	r2, r3, #1
 401 0122 D318     		adds	r3, r2, r3
 402 0124 DA00     		lsls	r2, r3, #3
 403 0126 0A4B     		ldr	r3, .L27
 404 0128 9A18     		adds	r2, r3, r2
 405 012a 0023     		movs	r3, #0
 406 012c 5382     		strh	r3, [r2, #18]
 399:Source\LwIP\src\core\ipv4/etharp.c **** #if ETHARP_TABLE_MATCH_NETIF
 400:Source\LwIP\src\core\ipv4/etharp.c ****   arp_table[i].netif = netif;
 401:Source\LwIP\src\core\ipv4/etharp.c **** #endif /* ETHARP_TABLE_MATCH_NETIF*/
 402:Source\LwIP\src\core\ipv4/etharp.c ****   return (err_t)i;
 407              		.loc 1 402 0
 408 012e 70B2     		sxtb	r0, r6
 409 0130 07E0     		b	.L13
 410              	.LVL45:
 411              	.L24:
 344:Source\LwIP\src\core\ipv4/etharp.c ****   }
 412              		.loc 1 344 0
 413 0132 0120     		movs	r0, #1
 414              	.LVL46:
 415 0134 4042     		rsbs	r0, r0, #0
 416 0136 04E0     		b	.L13
 417              	.LVL47:
 418              	.L25:
 419 0138 0120     		movs	r0, #1
 420              	.LVL48:
 421 013a 4042     		rsbs	r0, r0, #0
 422 013c 01E0     		b	.L13
 423              	.LVL49:
 424              	.L26:
 381:Source\LwIP\src\core\ipv4/etharp.c ****     }
 425              		.loc 1 381 0
 426 013e 0120     		movs	r0, #1
 427              	.LVL50:
 428 0140 4042     		rsbs	r0, r0, #0
 429              	.LVL51:
 430              	.L13:
 403:Source\LwIP\src\core\ipv4/etharp.c **** }
 431              		.loc 1 403 0
 432 0142 03B0     		add	sp, sp, #12
 433              		@ sp needed
 434              	.LVL52:
 435              	.LVL53:
 436              	.LVL54:
 437              	.LVL55:
 438              	.LVL56:
 439 0144 3CBC     		pop	{r2, r3, r4, r5}
 440 0146 9046     		mov	r8, r2
 441 0148 9946     		mov	r9, r3
 442 014a A246     		mov	r10, r4
 443 014c AB46     		mov	fp, r5
ARM GAS  C:\Users\Phuong\AppData\Local\Temp\cczAUGdE.s 			page 16


 444 014e F0BD     		pop	{r4, r5, r6, r7, pc}
 445              	.L28:
 446              		.align	2
 447              	.L27:
 448 0150 00000000 		.word	.LANCHOR0
 449              		.cfi_endproc
 450              	.LFE56:
 451              		.size	etharp_find_entry, .-etharp_find_entry
 452              		.section	.text.etharp_update_arp_entry,"ax",%progbits
 453              		.align	2
 454              		.code	16
 455              		.thumb_func
 456              		.type	etharp_update_arp_entry, %function
 457              	etharp_update_arp_entry:
 458              	.LFB57:
 404:Source\LwIP\src\core\ipv4/etharp.c **** 
 405:Source\LwIP\src\core\ipv4/etharp.c **** /**
 406:Source\LwIP\src\core\ipv4/etharp.c ****  * Update (or insert) a IP/MAC address pair in the ARP cache.
 407:Source\LwIP\src\core\ipv4/etharp.c ****  *
 408:Source\LwIP\src\core\ipv4/etharp.c ****  * If a pending entry is resolved, any queued packets will be sent
 409:Source\LwIP\src\core\ipv4/etharp.c ****  * at this point.
 410:Source\LwIP\src\core\ipv4/etharp.c ****  *
 411:Source\LwIP\src\core\ipv4/etharp.c ****  * @param netif netif related to this entry (used for NETIF_ADDRHINT)
 412:Source\LwIP\src\core\ipv4/etharp.c ****  * @param ipaddr IP address of the inserted ARP entry.
 413:Source\LwIP\src\core\ipv4/etharp.c ****  * @param ethaddr Ethernet address of the inserted ARP entry.
 414:Source\LwIP\src\core\ipv4/etharp.c ****  * @param flags See @ref etharp_state
 415:Source\LwIP\src\core\ipv4/etharp.c ****  *
 416:Source\LwIP\src\core\ipv4/etharp.c ****  * @return
 417:Source\LwIP\src\core\ipv4/etharp.c ****  * - ERR_OK Successfully updated ARP cache.
 418:Source\LwIP\src\core\ipv4/etharp.c ****  * - ERR_MEM If we could not add a new ARP entry when ETHARP_FLAG_TRY_HARD was set.
 419:Source\LwIP\src\core\ipv4/etharp.c ****  * - ERR_ARG Non-unicast address given, those will not appear in ARP cache.
 420:Source\LwIP\src\core\ipv4/etharp.c ****  *
 421:Source\LwIP\src\core\ipv4/etharp.c ****  * @see pbuf_free()
 422:Source\LwIP\src\core\ipv4/etharp.c ****  */
 423:Source\LwIP\src\core\ipv4/etharp.c **** static err_t
 424:Source\LwIP\src\core\ipv4/etharp.c **** etharp_update_arp_entry(struct netif *netif, const ip4_addr_t *ipaddr, struct eth_addr *ethaddr, u8
 425:Source\LwIP\src\core\ipv4/etharp.c **** {
 459              		.loc 1 425 0
 460              		.cfi_startproc
 461              		@ args = 0, pretend = 0, frame = 0
 462              		@ frame_needed = 0, uses_anonymous_args = 0
 463              	.LVL57:
 464 0000 F0B5     		push	{r4, r5, r6, r7, lr}
 465              		.cfi_def_cfa_offset 20
 466              		.cfi_offset 4, -20
 467              		.cfi_offset 5, -16
 468              		.cfi_offset 6, -12
 469              		.cfi_offset 7, -8
 470              		.cfi_offset 14, -4
 471 0002 83B0     		sub	sp, sp, #12
 472              		.cfi_def_cfa_offset 32
 473 0004 0400     		movs	r4, r0
 474 0006 0E00     		movs	r6, r1
 475 0008 1500     		movs	r5, r2
 476 000a 1F00     		movs	r7, r3
 426:Source\LwIP\src\core\ipv4/etharp.c ****   s8_t i;
 427:Source\LwIP\src\core\ipv4/etharp.c ****   LWIP_ASSERT("netif->hwaddr_len == ETH_HWADDR_LEN", netif->hwaddr_len == ETH_HWADDR_LEN);
ARM GAS  C:\Users\Phuong\AppData\Local\Temp\cczAUGdE.s 			page 17


 428:Source\LwIP\src\core\ipv4/etharp.c ****   LWIP_DEBUGF(ETHARP_DEBUG | LWIP_DBG_TRACE, ("etharp_update_arp_entry: %"U16_F".%"U16_F".%"U16_F".
 429:Source\LwIP\src\core\ipv4/etharp.c ****     ip4_addr1_16(ipaddr), ip4_addr2_16(ipaddr), ip4_addr3_16(ipaddr), ip4_addr4_16(ipaddr),
 430:Source\LwIP\src\core\ipv4/etharp.c ****     (u16_t)ethaddr->addr[0], (u16_t)ethaddr->addr[1], (u16_t)ethaddr->addr[2],
 431:Source\LwIP\src\core\ipv4/etharp.c ****     (u16_t)ethaddr->addr[3], (u16_t)ethaddr->addr[4], (u16_t)ethaddr->addr[5]));
 432:Source\LwIP\src\core\ipv4/etharp.c ****   /* non-unicast address? */
 433:Source\LwIP\src\core\ipv4/etharp.c ****   if (ip4_addr_isany(ipaddr) ||
 477              		.loc 1 433 0
 478 000c 0029     		cmp	r1, #0
 479 000e 48D0     		beq	.L33
 480              		.loc 1 433 0 is_stmt 0 discriminator 1
 481 0010 0868     		ldr	r0, [r1]
 482              	.LVL58:
 483 0012 0028     		cmp	r0, #0
 484 0014 48D0     		beq	.L34
 434:Source\LwIP\src\core\ipv4/etharp.c ****       ip4_addr_isbroadcast(ipaddr, netif) ||
 485              		.loc 1 434 0 is_stmt 1 discriminator 2
 486 0016 2100     		movs	r1, r4
 487              	.LVL59:
 488 0018 FFF7FEFF 		bl	ip4_addr_isbroadcast_u32
 489              	.LVL60:
 433:Source\LwIP\src\core\ipv4/etharp.c ****       ip4_addr_isbroadcast(ipaddr, netif) ||
 490              		.loc 1 433 0 discriminator 2
 491 001c 0028     		cmp	r0, #0
 492 001e 46D1     		bne	.L35
 435:Source\LwIP\src\core\ipv4/etharp.c ****       ip4_addr_ismulticast(ipaddr)) {
 493              		.loc 1 435 0
 494 0020 F023     		movs	r3, #240
 495 0022 3268     		ldr	r2, [r6]
 496 0024 1340     		ands	r3, r2
 434:Source\LwIP\src\core\ipv4/etharp.c ****       ip4_addr_isbroadcast(ipaddr, netif) ||
 497              		.loc 1 434 0
 498 0026 E02B     		cmp	r3, #224
 499 0028 44D0     		beq	.L36
 436:Source\LwIP\src\core\ipv4/etharp.c ****     LWIP_DEBUGF(ETHARP_DEBUG | LWIP_DBG_TRACE, ("etharp_update_arp_entry: will not add non-unicast 
 437:Source\LwIP\src\core\ipv4/etharp.c ****     return ERR_ARG;
 438:Source\LwIP\src\core\ipv4/etharp.c ****   }
 439:Source\LwIP\src\core\ipv4/etharp.c ****   /* find or create ARP entry */
 440:Source\LwIP\src\core\ipv4/etharp.c ****   i = etharp_find_entry(ipaddr, flags, netif);
 500              		.loc 1 440 0
 501 002a 2200     		movs	r2, r4
 502 002c 3900     		movs	r1, r7
 503 002e 3000     		movs	r0, r6
 504 0030 FFF7FEFF 		bl	etharp_find_entry
 505              	.LVL61:
 441:Source\LwIP\src\core\ipv4/etharp.c ****   /* bail out if no entry could be found */
 442:Source\LwIP\src\core\ipv4/etharp.c ****   if (i < 0) {
 506              		.loc 1 442 0
 507 0034 0028     		cmp	r0, #0
 508 0036 3FDB     		blt	.L30
 443:Source\LwIP\src\core\ipv4/etharp.c ****     return (err_t)i;
 444:Source\LwIP\src\core\ipv4/etharp.c ****   }
 445:Source\LwIP\src\core\ipv4/etharp.c **** 
 446:Source\LwIP\src\core\ipv4/etharp.c **** #if ETHARP_SUPPORT_STATIC_ENTRIES
 447:Source\LwIP\src\core\ipv4/etharp.c ****   if (flags & ETHARP_FLAG_STATIC_ENTRY) {
 448:Source\LwIP\src\core\ipv4/etharp.c ****     /* record static type */
 449:Source\LwIP\src\core\ipv4/etharp.c ****     arp_table[i].state = ETHARP_STATE_STATIC;
 450:Source\LwIP\src\core\ipv4/etharp.c ****   } else if (arp_table[i].state == ETHARP_STATE_STATIC) {
ARM GAS  C:\Users\Phuong\AppData\Local\Temp\cczAUGdE.s 			page 18


 451:Source\LwIP\src\core\ipv4/etharp.c ****     /* found entry is a static type, don't overwrite it */
 452:Source\LwIP\src\core\ipv4/etharp.c ****     return ERR_VAL;
 453:Source\LwIP\src\core\ipv4/etharp.c ****   } else
 454:Source\LwIP\src\core\ipv4/etharp.c **** #endif /* ETHARP_SUPPORT_STATIC_ENTRIES */
 455:Source\LwIP\src\core\ipv4/etharp.c ****   {
 456:Source\LwIP\src\core\ipv4/etharp.c ****     /* mark it stable */
 457:Source\LwIP\src\core\ipv4/etharp.c ****     arp_table[i].state = ETHARP_STATE_STABLE;
 509              		.loc 1 457 0
 510 0038 0700     		movs	r7, r0
 511 003a 204A     		ldr	r2, .L38
 512 003c 4300     		lsls	r3, r0, #1
 513 003e 1918     		adds	r1, r3, r0
 514 0040 CE00     		lsls	r6, r1, #3
 515              	.LVL62:
 516 0042 9619     		adds	r6, r2, r6
 517 0044 0221     		movs	r1, #2
 518 0046 3175     		strb	r1, [r6, #20]
 458:Source\LwIP\src\core\ipv4/etharp.c ****   }
 459:Source\LwIP\src\core\ipv4/etharp.c **** 
 460:Source\LwIP\src\core\ipv4/etharp.c ****   /* record network interface */
 461:Source\LwIP\src\core\ipv4/etharp.c ****   arp_table[i].netif = netif;
 519              		.loc 1 461 0
 520 0048 B460     		str	r4, [r6, #8]
 462:Source\LwIP\src\core\ipv4/etharp.c ****   /* insert in SNMP ARP index tree */
 463:Source\LwIP\src\core\ipv4/etharp.c ****   mib2_add_arp_entry(netif, &arp_table[i].ipaddr);
 464:Source\LwIP\src\core\ipv4/etharp.c **** 
 465:Source\LwIP\src\core\ipv4/etharp.c ****   LWIP_DEBUGF(ETHARP_DEBUG | LWIP_DBG_TRACE, ("etharp_update_arp_entry: updating stable entry %"S16
 466:Source\LwIP\src\core\ipv4/etharp.c ****   /* update address */
 467:Source\LwIP\src\core\ipv4/etharp.c ****   ETHADDR32_COPY(&arp_table[i].ethaddr, ethaddr);
 521              		.loc 1 467 0
 522 004a 1818     		adds	r0, r3, r0
 523              	.LVL63:
 524 004c C300     		lsls	r3, r0, #3
 525 004e 0833     		adds	r3, r3, #8
 526 0050 D318     		adds	r3, r2, r3
 527 0052 181D     		adds	r0, r3, #4
 528 0054 0622     		movs	r2, #6
 529 0056 2900     		movs	r1, r5
 530 0058 FFF7FEFF 		bl	memcpy
 531              	.LVL64:
 468:Source\LwIP\src\core\ipv4/etharp.c ****   /* reset time stamp */
 469:Source\LwIP\src\core\ipv4/etharp.c ****   arp_table[i].ctime = 0;
 532              		.loc 1 469 0
 533 005c 0023     		movs	r3, #0
 534 005e 7382     		strh	r3, [r6, #18]
 470:Source\LwIP\src\core\ipv4/etharp.c ****   /* this is where we will send out queued packets! */
 471:Source\LwIP\src\core\ipv4/etharp.c **** #if ARP_QUEUEING
 472:Source\LwIP\src\core\ipv4/etharp.c ****   while (arp_table[i].q != NULL) {
 535              		.loc 1 472 0
 536 0060 16E0     		b	.L31
 537              	.L32:
 538              	.LVL65:
 539              	.LBB3:
 473:Source\LwIP\src\core\ipv4/etharp.c ****     struct pbuf *p;
 474:Source\LwIP\src\core\ipv4/etharp.c ****     /* remember remainder of queue */
 475:Source\LwIP\src\core\ipv4/etharp.c ****     struct etharp_q_entry *q = arp_table[i].q;
 476:Source\LwIP\src\core\ipv4/etharp.c ****     /* pop first item off the queue */
ARM GAS  C:\Users\Phuong\AppData\Local\Temp\cczAUGdE.s 			page 19


 477:Source\LwIP\src\core\ipv4/etharp.c ****     arp_table[i].q = q->next;
 540              		.loc 1 477 0
 541 0062 7B00     		lsls	r3, r7, #1
 542 0064 DB19     		adds	r3, r3, r7
 543 0066 DA00     		lsls	r2, r3, #3
 544 0068 144B     		ldr	r3, .L38
 545 006a 0868     		ldr	r0, [r1]
 546 006c D050     		str	r0, [r2, r3]
 478:Source\LwIP\src\core\ipv4/etharp.c ****     /* get the packet pointer */
 479:Source\LwIP\src\core\ipv4/etharp.c ****     p = q->p;
 547              		.loc 1 479 0
 548 006e 4E68     		ldr	r6, [r1, #4]
 549              	.LVL66:
 480:Source\LwIP\src\core\ipv4/etharp.c ****     /* now queue entry can be freed */
 481:Source\LwIP\src\core\ipv4/etharp.c ****     memp_free(MEMP_ARP_QUEUE, q);
 550              		.loc 1 481 0
 551 0070 0A20     		movs	r0, #10
 552 0072 FFF7FEFF 		bl	memp_free
 553              	.LVL67:
 482:Source\LwIP\src\core\ipv4/etharp.c **** #else /* ARP_QUEUEING */
 483:Source\LwIP\src\core\ipv4/etharp.c ****   if (arp_table[i].q != NULL) {
 484:Source\LwIP\src\core\ipv4/etharp.c ****     struct pbuf *p = arp_table[i].q;
 485:Source\LwIP\src\core\ipv4/etharp.c ****     arp_table[i].q = NULL;
 486:Source\LwIP\src\core\ipv4/etharp.c **** #endif /* ARP_QUEUEING */
 487:Source\LwIP\src\core\ipv4/etharp.c ****     /* send the queued IP packet */
 488:Source\LwIP\src\core\ipv4/etharp.c ****     ethernet_output(netif, p, (struct eth_addr*)(netif->hwaddr), ethaddr, ETHTYPE_IP);
 554              		.loc 1 488 0
 555 0076 8023     		movs	r3, #128
 556 0078 1B01     		lsls	r3, r3, #4
 557 007a 0093     		str	r3, [sp]
 558 007c 2B00     		movs	r3, r5
 559 007e 2200     		movs	r2, r4
 560 0080 3732     		adds	r2, r2, #55
 561 0082 3100     		movs	r1, r6
 562 0084 2000     		movs	r0, r4
 563 0086 FFF7FEFF 		bl	ethernet_output
 564              	.LVL68:
 489:Source\LwIP\src\core\ipv4/etharp.c ****     /* free the queued IP packet */
 490:Source\LwIP\src\core\ipv4/etharp.c ****     pbuf_free(p);
 565              		.loc 1 490 0
 566 008a 3000     		movs	r0, r6
 567 008c FFF7FEFF 		bl	pbuf_free
 568              	.LVL69:
 569              	.L31:
 570              	.LBE3:
 472:Source\LwIP\src\core\ipv4/etharp.c ****     struct pbuf *p;
 571              		.loc 1 472 0
 572 0090 7B00     		lsls	r3, r7, #1
 573 0092 DB19     		adds	r3, r3, r7
 574 0094 DA00     		lsls	r2, r3, #3
 575 0096 094B     		ldr	r3, .L38
 576 0098 D158     		ldr	r1, [r2, r3]
 577 009a 0029     		cmp	r1, #0
 578 009c E1D1     		bne	.L32
 491:Source\LwIP\src\core\ipv4/etharp.c ****   }
 492:Source\LwIP\src\core\ipv4/etharp.c ****   return ERR_OK;
 579              		.loc 1 492 0
ARM GAS  C:\Users\Phuong\AppData\Local\Temp\cczAUGdE.s 			page 20


 580 009e 0020     		movs	r0, #0
 581 00a0 0AE0     		b	.L30
 582              	.LVL70:
 583              	.L33:
 437:Source\LwIP\src\core\ipv4/etharp.c ****   }
 584              		.loc 1 437 0
 585 00a2 1020     		movs	r0, #16
 586              	.LVL71:
 587 00a4 4042     		rsbs	r0, r0, #0
 588 00a6 07E0     		b	.L30
 589              	.L34:
 590 00a8 1020     		movs	r0, #16
 591 00aa 4042     		rsbs	r0, r0, #0
 592 00ac 04E0     		b	.L30
 593              	.LVL72:
 594              	.L35:
 595 00ae 1020     		movs	r0, #16
 596 00b0 4042     		rsbs	r0, r0, #0
 597 00b2 01E0     		b	.L30
 598              	.L36:
 599 00b4 1020     		movs	r0, #16
 600 00b6 4042     		rsbs	r0, r0, #0
 601              	.LVL73:
 602              	.L30:
 493:Source\LwIP\src\core\ipv4/etharp.c **** }
 603              		.loc 1 493 0
 604 00b8 03B0     		add	sp, sp, #12
 605              		@ sp needed
 606              	.LVL74:
 607              	.LVL75:
 608 00ba F0BD     		pop	{r4, r5, r6, r7, pc}
 609              	.L39:
 610              		.align	2
 611              	.L38:
 612 00bc 00000000 		.word	.LANCHOR0
 613              		.cfi_endproc
 614              	.LFE57:
 615              		.size	etharp_update_arp_entry, .-etharp_update_arp_entry
 616              		.section	.text.etharp_raw,"ax",%progbits
 617              		.align	2
 618              		.code	16
 619              		.thumb_func
 620              		.type	etharp_raw, %function
 621              	etharp_raw:
 622              	.LFB65:
 494:Source\LwIP\src\core\ipv4/etharp.c **** 
 495:Source\LwIP\src\core\ipv4/etharp.c **** #if ETHARP_SUPPORT_STATIC_ENTRIES
 496:Source\LwIP\src\core\ipv4/etharp.c **** /** Add a new static entry to the ARP table. If an entry exists for the
 497:Source\LwIP\src\core\ipv4/etharp.c ****  * specified IP address, this entry is overwritten.
 498:Source\LwIP\src\core\ipv4/etharp.c ****  * If packets are queued for the specified IP address, they are sent out.
 499:Source\LwIP\src\core\ipv4/etharp.c ****  *
 500:Source\LwIP\src\core\ipv4/etharp.c ****  * @param ipaddr IP address for the new static entry
 501:Source\LwIP\src\core\ipv4/etharp.c ****  * @param ethaddr ethernet address for the new static entry
 502:Source\LwIP\src\core\ipv4/etharp.c ****  * @return See return values of etharp_add_static_entry
 503:Source\LwIP\src\core\ipv4/etharp.c ****  */
 504:Source\LwIP\src\core\ipv4/etharp.c **** err_t
 505:Source\LwIP\src\core\ipv4/etharp.c **** etharp_add_static_entry(const ip4_addr_t *ipaddr, struct eth_addr *ethaddr)
ARM GAS  C:\Users\Phuong\AppData\Local\Temp\cczAUGdE.s 			page 21


 506:Source\LwIP\src\core\ipv4/etharp.c **** {
 507:Source\LwIP\src\core\ipv4/etharp.c ****   struct netif *netif;
 508:Source\LwIP\src\core\ipv4/etharp.c ****   LWIP_DEBUGF(ETHARP_DEBUG | LWIP_DBG_TRACE, ("etharp_add_static_entry: %"U16_F".%"U16_F".%"U16_F".
 509:Source\LwIP\src\core\ipv4/etharp.c ****     ip4_addr1_16(ipaddr), ip4_addr2_16(ipaddr), ip4_addr3_16(ipaddr), ip4_addr4_16(ipaddr),
 510:Source\LwIP\src\core\ipv4/etharp.c ****     (u16_t)ethaddr->addr[0], (u16_t)ethaddr->addr[1], (u16_t)ethaddr->addr[2],
 511:Source\LwIP\src\core\ipv4/etharp.c ****     (u16_t)ethaddr->addr[3], (u16_t)ethaddr->addr[4], (u16_t)ethaddr->addr[5]));
 512:Source\LwIP\src\core\ipv4/etharp.c **** 
 513:Source\LwIP\src\core\ipv4/etharp.c ****   netif = ip4_route(ipaddr);
 514:Source\LwIP\src\core\ipv4/etharp.c ****   if (netif == NULL) {
 515:Source\LwIP\src\core\ipv4/etharp.c ****     return ERR_RTE;
 516:Source\LwIP\src\core\ipv4/etharp.c ****   }
 517:Source\LwIP\src\core\ipv4/etharp.c **** 
 518:Source\LwIP\src\core\ipv4/etharp.c ****   return etharp_update_arp_entry(netif, ipaddr, ethaddr, ETHARP_FLAG_TRY_HARD | ETHARP_FLAG_STATIC_
 519:Source\LwIP\src\core\ipv4/etharp.c **** }
 520:Source\LwIP\src\core\ipv4/etharp.c **** 
 521:Source\LwIP\src\core\ipv4/etharp.c **** /** Remove a static entry from the ARP table previously added with a call to
 522:Source\LwIP\src\core\ipv4/etharp.c ****  * etharp_add_static_entry.
 523:Source\LwIP\src\core\ipv4/etharp.c ****  *
 524:Source\LwIP\src\core\ipv4/etharp.c ****  * @param ipaddr IP address of the static entry to remove
 525:Source\LwIP\src\core\ipv4/etharp.c ****  * @return ERR_OK: entry removed
 526:Source\LwIP\src\core\ipv4/etharp.c ****  *         ERR_MEM: entry wasn't found
 527:Source\LwIP\src\core\ipv4/etharp.c ****  *         ERR_ARG: entry wasn't a static entry but a dynamic one
 528:Source\LwIP\src\core\ipv4/etharp.c ****  */
 529:Source\LwIP\src\core\ipv4/etharp.c **** err_t
 530:Source\LwIP\src\core\ipv4/etharp.c **** etharp_remove_static_entry(const ip4_addr_t *ipaddr)
 531:Source\LwIP\src\core\ipv4/etharp.c **** {
 532:Source\LwIP\src\core\ipv4/etharp.c ****   s8_t i;
 533:Source\LwIP\src\core\ipv4/etharp.c ****   LWIP_DEBUGF(ETHARP_DEBUG | LWIP_DBG_TRACE, ("etharp_remove_static_entry: %"U16_F".%"U16_F".%"U16_
 534:Source\LwIP\src\core\ipv4/etharp.c ****     ip4_addr1_16(ipaddr), ip4_addr2_16(ipaddr), ip4_addr3_16(ipaddr), ip4_addr4_16(ipaddr)));
 535:Source\LwIP\src\core\ipv4/etharp.c **** 
 536:Source\LwIP\src\core\ipv4/etharp.c ****   /* find or create ARP entry */
 537:Source\LwIP\src\core\ipv4/etharp.c ****   i = etharp_find_entry(ipaddr, ETHARP_FLAG_FIND_ONLY, NULL);
 538:Source\LwIP\src\core\ipv4/etharp.c ****   /* bail out if no entry could be found */
 539:Source\LwIP\src\core\ipv4/etharp.c ****   if (i < 0) {
 540:Source\LwIP\src\core\ipv4/etharp.c ****     return (err_t)i;
 541:Source\LwIP\src\core\ipv4/etharp.c ****   }
 542:Source\LwIP\src\core\ipv4/etharp.c **** 
 543:Source\LwIP\src\core\ipv4/etharp.c ****   if (arp_table[i].state != ETHARP_STATE_STATIC) {
 544:Source\LwIP\src\core\ipv4/etharp.c ****     /* entry wasn't a static entry, cannot remove it */
 545:Source\LwIP\src\core\ipv4/etharp.c ****     return ERR_ARG;
 546:Source\LwIP\src\core\ipv4/etharp.c ****   }
 547:Source\LwIP\src\core\ipv4/etharp.c ****   /* entry found, free it */
 548:Source\LwIP\src\core\ipv4/etharp.c ****   etharp_free_entry(i);
 549:Source\LwIP\src\core\ipv4/etharp.c ****   return ERR_OK;
 550:Source\LwIP\src\core\ipv4/etharp.c **** }
 551:Source\LwIP\src\core\ipv4/etharp.c **** #endif /* ETHARP_SUPPORT_STATIC_ENTRIES */
 552:Source\LwIP\src\core\ipv4/etharp.c **** 
 553:Source\LwIP\src\core\ipv4/etharp.c **** /**
 554:Source\LwIP\src\core\ipv4/etharp.c ****  * Remove all ARP table entries of the specified netif.
 555:Source\LwIP\src\core\ipv4/etharp.c ****  *
 556:Source\LwIP\src\core\ipv4/etharp.c ****  * @param netif points to a network interface
 557:Source\LwIP\src\core\ipv4/etharp.c ****  */
 558:Source\LwIP\src\core\ipv4/etharp.c **** void
 559:Source\LwIP\src\core\ipv4/etharp.c **** etharp_cleanup_netif(struct netif *netif)
 560:Source\LwIP\src\core\ipv4/etharp.c **** {
 561:Source\LwIP\src\core\ipv4/etharp.c ****   u8_t i;
 562:Source\LwIP\src\core\ipv4/etharp.c **** 
ARM GAS  C:\Users\Phuong\AppData\Local\Temp\cczAUGdE.s 			page 22


 563:Source\LwIP\src\core\ipv4/etharp.c ****   for (i = 0; i < ARP_TABLE_SIZE; ++i) {
 564:Source\LwIP\src\core\ipv4/etharp.c ****     u8_t state = arp_table[i].state;
 565:Source\LwIP\src\core\ipv4/etharp.c ****     if ((state != ETHARP_STATE_EMPTY) && (arp_table[i].netif == netif)) {
 566:Source\LwIP\src\core\ipv4/etharp.c ****       etharp_free_entry(i);
 567:Source\LwIP\src\core\ipv4/etharp.c ****     }
 568:Source\LwIP\src\core\ipv4/etharp.c ****   }
 569:Source\LwIP\src\core\ipv4/etharp.c **** }
 570:Source\LwIP\src\core\ipv4/etharp.c **** 
 571:Source\LwIP\src\core\ipv4/etharp.c **** /**
 572:Source\LwIP\src\core\ipv4/etharp.c ****  * Finds (stable) ethernet/IP address pair from ARP table
 573:Source\LwIP\src\core\ipv4/etharp.c ****  * using interface and IP address index.
 574:Source\LwIP\src\core\ipv4/etharp.c ****  * @note the addresses in the ARP table are in network order!
 575:Source\LwIP\src\core\ipv4/etharp.c ****  *
 576:Source\LwIP\src\core\ipv4/etharp.c ****  * @param netif points to interface index
 577:Source\LwIP\src\core\ipv4/etharp.c ****  * @param ipaddr points to the (network order) IP address index
 578:Source\LwIP\src\core\ipv4/etharp.c ****  * @param eth_ret points to return pointer
 579:Source\LwIP\src\core\ipv4/etharp.c ****  * @param ip_ret points to return pointer
 580:Source\LwIP\src\core\ipv4/etharp.c ****  * @return table index if found, -1 otherwise
 581:Source\LwIP\src\core\ipv4/etharp.c ****  */
 582:Source\LwIP\src\core\ipv4/etharp.c **** s8_t
 583:Source\LwIP\src\core\ipv4/etharp.c **** etharp_find_addr(struct netif *netif, const ip4_addr_t *ipaddr,
 584:Source\LwIP\src\core\ipv4/etharp.c ****          struct eth_addr **eth_ret, const ip4_addr_t **ip_ret)
 585:Source\LwIP\src\core\ipv4/etharp.c **** {
 586:Source\LwIP\src\core\ipv4/etharp.c ****   s8_t i;
 587:Source\LwIP\src\core\ipv4/etharp.c **** 
 588:Source\LwIP\src\core\ipv4/etharp.c ****   LWIP_ASSERT("eth_ret != NULL && ip_ret != NULL",
 589:Source\LwIP\src\core\ipv4/etharp.c ****     eth_ret != NULL && ip_ret != NULL);
 590:Source\LwIP\src\core\ipv4/etharp.c **** 
 591:Source\LwIP\src\core\ipv4/etharp.c ****   LWIP_UNUSED_ARG(netif);
 592:Source\LwIP\src\core\ipv4/etharp.c **** 
 593:Source\LwIP\src\core\ipv4/etharp.c ****   i = etharp_find_entry(ipaddr, ETHARP_FLAG_FIND_ONLY, netif);
 594:Source\LwIP\src\core\ipv4/etharp.c ****   if ((i >= 0) && (arp_table[i].state >= ETHARP_STATE_STABLE)) {
 595:Source\LwIP\src\core\ipv4/etharp.c ****       *eth_ret = &arp_table[i].ethaddr;
 596:Source\LwIP\src\core\ipv4/etharp.c ****       *ip_ret = &arp_table[i].ipaddr;
 597:Source\LwIP\src\core\ipv4/etharp.c ****       return i;
 598:Source\LwIP\src\core\ipv4/etharp.c ****   }
 599:Source\LwIP\src\core\ipv4/etharp.c ****   return -1;
 600:Source\LwIP\src\core\ipv4/etharp.c **** }
 601:Source\LwIP\src\core\ipv4/etharp.c **** 
 602:Source\LwIP\src\core\ipv4/etharp.c **** /**
 603:Source\LwIP\src\core\ipv4/etharp.c ****  * Possibility to iterate over stable ARP table entries
 604:Source\LwIP\src\core\ipv4/etharp.c ****  *
 605:Source\LwIP\src\core\ipv4/etharp.c ****  * @param i entry number, 0 to ARP_TABLE_SIZE
 606:Source\LwIP\src\core\ipv4/etharp.c ****  * @param ipaddr return value: IP address
 607:Source\LwIP\src\core\ipv4/etharp.c ****  * @param netif return value: points to interface
 608:Source\LwIP\src\core\ipv4/etharp.c ****  * @param eth_ret return value: ETH address
 609:Source\LwIP\src\core\ipv4/etharp.c ****  * @return 1 on valid index, 0 otherwise
 610:Source\LwIP\src\core\ipv4/etharp.c ****  */
 611:Source\LwIP\src\core\ipv4/etharp.c **** u8_t
 612:Source\LwIP\src\core\ipv4/etharp.c **** etharp_get_entry(u8_t i, ip4_addr_t **ipaddr, struct netif **netif, struct eth_addr **eth_ret)
 613:Source\LwIP\src\core\ipv4/etharp.c **** {
 614:Source\LwIP\src\core\ipv4/etharp.c ****   LWIP_ASSERT("ipaddr != NULL", ipaddr != NULL);
 615:Source\LwIP\src\core\ipv4/etharp.c ****   LWIP_ASSERT("netif != NULL", netif != NULL);
 616:Source\LwIP\src\core\ipv4/etharp.c ****   LWIP_ASSERT("eth_ret != NULL", eth_ret != NULL);
 617:Source\LwIP\src\core\ipv4/etharp.c **** 
 618:Source\LwIP\src\core\ipv4/etharp.c ****   if((i < ARP_TABLE_SIZE) && (arp_table[i].state >= ETHARP_STATE_STABLE)) {
 619:Source\LwIP\src\core\ipv4/etharp.c ****     *ipaddr  = &arp_table[i].ipaddr;
ARM GAS  C:\Users\Phuong\AppData\Local\Temp\cczAUGdE.s 			page 23


 620:Source\LwIP\src\core\ipv4/etharp.c ****     *netif   = arp_table[i].netif;
 621:Source\LwIP\src\core\ipv4/etharp.c ****     *eth_ret = &arp_table[i].ethaddr;
 622:Source\LwIP\src\core\ipv4/etharp.c ****     return 1;
 623:Source\LwIP\src\core\ipv4/etharp.c ****   } else {
 624:Source\LwIP\src\core\ipv4/etharp.c ****     return 0;
 625:Source\LwIP\src\core\ipv4/etharp.c ****   }
 626:Source\LwIP\src\core\ipv4/etharp.c **** }
 627:Source\LwIP\src\core\ipv4/etharp.c **** 
 628:Source\LwIP\src\core\ipv4/etharp.c **** /**
 629:Source\LwIP\src\core\ipv4/etharp.c ****  * Responds to ARP requests to us. Upon ARP replies to us, add entry to cache
 630:Source\LwIP\src\core\ipv4/etharp.c ****  * send out queued IP packets. Updates cache with snooped address pairs.
 631:Source\LwIP\src\core\ipv4/etharp.c ****  *
 632:Source\LwIP\src\core\ipv4/etharp.c ****  * Should be called for incoming ARP packets. The pbuf in the argument
 633:Source\LwIP\src\core\ipv4/etharp.c ****  * is freed by this function.
 634:Source\LwIP\src\core\ipv4/etharp.c ****  *
 635:Source\LwIP\src\core\ipv4/etharp.c ****  * @param p The ARP packet that arrived on netif. Is freed by this function.
 636:Source\LwIP\src\core\ipv4/etharp.c ****  * @param netif The lwIP network interface on which the ARP packet pbuf arrived.
 637:Source\LwIP\src\core\ipv4/etharp.c ****  *
 638:Source\LwIP\src\core\ipv4/etharp.c ****  * @see pbuf_free()
 639:Source\LwIP\src\core\ipv4/etharp.c ****  */
 640:Source\LwIP\src\core\ipv4/etharp.c **** void
 641:Source\LwIP\src\core\ipv4/etharp.c **** etharp_input(struct pbuf *p, struct netif *netif)
 642:Source\LwIP\src\core\ipv4/etharp.c **** {
 643:Source\LwIP\src\core\ipv4/etharp.c ****   struct etharp_hdr *hdr;
 644:Source\LwIP\src\core\ipv4/etharp.c ****   /* these are aligned properly, whereas the ARP header fields might not be */
 645:Source\LwIP\src\core\ipv4/etharp.c ****   ip4_addr_t sipaddr, dipaddr;
 646:Source\LwIP\src\core\ipv4/etharp.c ****   u8_t for_us;
 647:Source\LwIP\src\core\ipv4/etharp.c **** 
 648:Source\LwIP\src\core\ipv4/etharp.c ****   LWIP_ERROR("netif != NULL", (netif != NULL), return;);
 649:Source\LwIP\src\core\ipv4/etharp.c **** 
 650:Source\LwIP\src\core\ipv4/etharp.c ****   hdr = (struct etharp_hdr *)p->payload;
 651:Source\LwIP\src\core\ipv4/etharp.c **** 
 652:Source\LwIP\src\core\ipv4/etharp.c ****   /* RFC 826 "Packet Reception": */
 653:Source\LwIP\src\core\ipv4/etharp.c ****   if ((hdr->hwtype != PP_HTONS(HWTYPE_ETHERNET)) ||
 654:Source\LwIP\src\core\ipv4/etharp.c ****       (hdr->hwlen != ETH_HWADDR_LEN) ||
 655:Source\LwIP\src\core\ipv4/etharp.c ****       (hdr->protolen != sizeof(ip4_addr_t)) ||
 656:Source\LwIP\src\core\ipv4/etharp.c ****       (hdr->proto != PP_HTONS(ETHTYPE_IP)))  {
 657:Source\LwIP\src\core\ipv4/etharp.c ****     LWIP_DEBUGF(ETHARP_DEBUG | LWIP_DBG_TRACE | LWIP_DBG_LEVEL_WARNING,
 658:Source\LwIP\src\core\ipv4/etharp.c ****       ("etharp_input: packet dropped, wrong hw type, hwlen, proto, protolen or ethernet type (%"U16
 659:Source\LwIP\src\core\ipv4/etharp.c ****       hdr->hwtype, (u16_t)hdr->hwlen, hdr->proto, (u16_t)hdr->protolen));
 660:Source\LwIP\src\core\ipv4/etharp.c ****     ETHARP_STATS_INC(etharp.proterr);
 661:Source\LwIP\src\core\ipv4/etharp.c ****     ETHARP_STATS_INC(etharp.drop);
 662:Source\LwIP\src\core\ipv4/etharp.c ****     pbuf_free(p);
 663:Source\LwIP\src\core\ipv4/etharp.c ****     return;
 664:Source\LwIP\src\core\ipv4/etharp.c ****   }
 665:Source\LwIP\src\core\ipv4/etharp.c ****   ETHARP_STATS_INC(etharp.recv);
 666:Source\LwIP\src\core\ipv4/etharp.c **** 
 667:Source\LwIP\src\core\ipv4/etharp.c **** #if LWIP_AUTOIP
 668:Source\LwIP\src\core\ipv4/etharp.c ****   /* We have to check if a host already has configured our random
 669:Source\LwIP\src\core\ipv4/etharp.c ****    * created link local address and continuously check if there is
 670:Source\LwIP\src\core\ipv4/etharp.c ****    * a host with this IP-address so we can detect collisions */
 671:Source\LwIP\src\core\ipv4/etharp.c ****   autoip_arp_reply(netif, hdr);
 672:Source\LwIP\src\core\ipv4/etharp.c **** #endif /* LWIP_AUTOIP */
 673:Source\LwIP\src\core\ipv4/etharp.c **** 
 674:Source\LwIP\src\core\ipv4/etharp.c ****   /* Copy struct ip4_addr2 to aligned ip4_addr, to support compilers without
 675:Source\LwIP\src\core\ipv4/etharp.c ****    * structure packing (not using structure copy which breaks strict-aliasing rules). */
 676:Source\LwIP\src\core\ipv4/etharp.c ****   IPADDR2_COPY(&sipaddr, &hdr->sipaddr);
ARM GAS  C:\Users\Phuong\AppData\Local\Temp\cczAUGdE.s 			page 24


 677:Source\LwIP\src\core\ipv4/etharp.c ****   IPADDR2_COPY(&dipaddr, &hdr->dipaddr);
 678:Source\LwIP\src\core\ipv4/etharp.c **** 
 679:Source\LwIP\src\core\ipv4/etharp.c ****   /* this interface is not configured? */
 680:Source\LwIP\src\core\ipv4/etharp.c ****   if (ip4_addr_isany_val(*netif_ip4_addr(netif))) {
 681:Source\LwIP\src\core\ipv4/etharp.c ****     for_us = 0;
 682:Source\LwIP\src\core\ipv4/etharp.c ****   } else {
 683:Source\LwIP\src\core\ipv4/etharp.c ****     /* ARP packet directed to us? */
 684:Source\LwIP\src\core\ipv4/etharp.c ****     for_us = (u8_t)ip4_addr_cmp(&dipaddr, netif_ip4_addr(netif));
 685:Source\LwIP\src\core\ipv4/etharp.c ****   }
 686:Source\LwIP\src\core\ipv4/etharp.c **** 
 687:Source\LwIP\src\core\ipv4/etharp.c ****   /* ARP message directed to us?
 688:Source\LwIP\src\core\ipv4/etharp.c ****       -> add IP address in ARP cache; assume requester wants to talk to us,
 689:Source\LwIP\src\core\ipv4/etharp.c ****          can result in directly sending the queued packets for this host.
 690:Source\LwIP\src\core\ipv4/etharp.c ****      ARP message not directed to us?
 691:Source\LwIP\src\core\ipv4/etharp.c ****       ->  update the source IP address in the cache, if present */
 692:Source\LwIP\src\core\ipv4/etharp.c ****   etharp_update_arp_entry(netif, &sipaddr, &(hdr->shwaddr),
 693:Source\LwIP\src\core\ipv4/etharp.c ****                    for_us ? ETHARP_FLAG_TRY_HARD : ETHARP_FLAG_FIND_ONLY);
 694:Source\LwIP\src\core\ipv4/etharp.c **** 
 695:Source\LwIP\src\core\ipv4/etharp.c ****   /* now act on the message itself */
 696:Source\LwIP\src\core\ipv4/etharp.c ****   switch (hdr->opcode) {
 697:Source\LwIP\src\core\ipv4/etharp.c ****   /* ARP request? */
 698:Source\LwIP\src\core\ipv4/etharp.c ****   case PP_HTONS(ARP_REQUEST):
 699:Source\LwIP\src\core\ipv4/etharp.c ****     /* ARP request. If it asked for our address, we send out a
 700:Source\LwIP\src\core\ipv4/etharp.c ****      * reply. In any case, we time-stamp any existing ARP entry,
 701:Source\LwIP\src\core\ipv4/etharp.c ****      * and possibly send out an IP packet that was queued on it. */
 702:Source\LwIP\src\core\ipv4/etharp.c **** 
 703:Source\LwIP\src\core\ipv4/etharp.c ****     LWIP_DEBUGF (ETHARP_DEBUG | LWIP_DBG_TRACE, ("etharp_input: incoming ARP request\n"));
 704:Source\LwIP\src\core\ipv4/etharp.c ****     /* ARP request for our address? */
 705:Source\LwIP\src\core\ipv4/etharp.c ****     if (for_us) {
 706:Source\LwIP\src\core\ipv4/etharp.c ****       /* send ARP response */
 707:Source\LwIP\src\core\ipv4/etharp.c ****       etharp_raw(netif,
 708:Source\LwIP\src\core\ipv4/etharp.c ****                  (struct eth_addr *)netif->hwaddr, &hdr->shwaddr,
 709:Source\LwIP\src\core\ipv4/etharp.c ****                  (struct eth_addr *)netif->hwaddr, netif_ip4_addr(netif),
 710:Source\LwIP\src\core\ipv4/etharp.c ****                  &hdr->shwaddr, &sipaddr,
 711:Source\LwIP\src\core\ipv4/etharp.c ****                  ARP_REPLY);
 712:Source\LwIP\src\core\ipv4/etharp.c ****     /* we are not configured? */
 713:Source\LwIP\src\core\ipv4/etharp.c ****     } else if (ip4_addr_isany_val(*netif_ip4_addr(netif))) {
 714:Source\LwIP\src\core\ipv4/etharp.c ****       /* { for_us == 0 and netif->ip_addr.addr == 0 } */
 715:Source\LwIP\src\core\ipv4/etharp.c ****       LWIP_DEBUGF(ETHARP_DEBUG | LWIP_DBG_TRACE, ("etharp_input: we are unconfigured, ARP request i
 716:Source\LwIP\src\core\ipv4/etharp.c ****     /* request was not directed to us */
 717:Source\LwIP\src\core\ipv4/etharp.c ****     } else {
 718:Source\LwIP\src\core\ipv4/etharp.c ****       /* { for_us == 0 and netif->ip_addr.addr != 0 } */
 719:Source\LwIP\src\core\ipv4/etharp.c ****       LWIP_DEBUGF(ETHARP_DEBUG | LWIP_DBG_TRACE, ("etharp_input: ARP request was not for us.\n"));
 720:Source\LwIP\src\core\ipv4/etharp.c ****     }
 721:Source\LwIP\src\core\ipv4/etharp.c ****     break;
 722:Source\LwIP\src\core\ipv4/etharp.c ****   case PP_HTONS(ARP_REPLY):
 723:Source\LwIP\src\core\ipv4/etharp.c ****     /* ARP reply. We already updated the ARP cache earlier. */
 724:Source\LwIP\src\core\ipv4/etharp.c ****     LWIP_DEBUGF(ETHARP_DEBUG | LWIP_DBG_TRACE, ("etharp_input: incoming ARP reply\n"));
 725:Source\LwIP\src\core\ipv4/etharp.c **** #if (LWIP_DHCP && DHCP_DOES_ARP_CHECK)
 726:Source\LwIP\src\core\ipv4/etharp.c ****     /* DHCP wants to know about ARP replies from any host with an
 727:Source\LwIP\src\core\ipv4/etharp.c ****      * IP address also offered to us by the DHCP server. We do not
 728:Source\LwIP\src\core\ipv4/etharp.c ****      * want to take a duplicate IP address on a single network.
 729:Source\LwIP\src\core\ipv4/etharp.c ****      * @todo How should we handle redundant (fail-over) interfaces? */
 730:Source\LwIP\src\core\ipv4/etharp.c ****     dhcp_arp_reply(netif, &sipaddr);
 731:Source\LwIP\src\core\ipv4/etharp.c **** #endif /* (LWIP_DHCP && DHCP_DOES_ARP_CHECK) */
 732:Source\LwIP\src\core\ipv4/etharp.c ****     break;
 733:Source\LwIP\src\core\ipv4/etharp.c ****   default:
ARM GAS  C:\Users\Phuong\AppData\Local\Temp\cczAUGdE.s 			page 25


 734:Source\LwIP\src\core\ipv4/etharp.c ****     LWIP_DEBUGF(ETHARP_DEBUG | LWIP_DBG_TRACE, ("etharp_input: ARP unknown opcode type %"S16_F"\n",
 735:Source\LwIP\src\core\ipv4/etharp.c ****     ETHARP_STATS_INC(etharp.err);
 736:Source\LwIP\src\core\ipv4/etharp.c ****     break;
 737:Source\LwIP\src\core\ipv4/etharp.c ****   }
 738:Source\LwIP\src\core\ipv4/etharp.c ****   /* free ARP packet */
 739:Source\LwIP\src\core\ipv4/etharp.c ****   pbuf_free(p);
 740:Source\LwIP\src\core\ipv4/etharp.c **** }
 741:Source\LwIP\src\core\ipv4/etharp.c **** 
 742:Source\LwIP\src\core\ipv4/etharp.c **** /** Just a small helper function that sends a pbuf to an ethernet address
 743:Source\LwIP\src\core\ipv4/etharp.c ****  * in the arp_table specified by the index 'arp_idx'.
 744:Source\LwIP\src\core\ipv4/etharp.c ****  */
 745:Source\LwIP\src\core\ipv4/etharp.c **** static err_t
 746:Source\LwIP\src\core\ipv4/etharp.c **** etharp_output_to_arp_index(struct netif *netif, struct pbuf *q, u8_t arp_idx)
 747:Source\LwIP\src\core\ipv4/etharp.c **** {
 748:Source\LwIP\src\core\ipv4/etharp.c ****   LWIP_ASSERT("arp_table[arp_idx].state >= ETHARP_STATE_STABLE",
 749:Source\LwIP\src\core\ipv4/etharp.c ****               arp_table[arp_idx].state >= ETHARP_STATE_STABLE);
 750:Source\LwIP\src\core\ipv4/etharp.c ****   /* if arp table entry is about to expire: re-request it,
 751:Source\LwIP\src\core\ipv4/etharp.c ****      but only if its state is ETHARP_STATE_STABLE to prevent flooding the
 752:Source\LwIP\src\core\ipv4/etharp.c ****      network with ARP requests if this address is used frequently. */
 753:Source\LwIP\src\core\ipv4/etharp.c ****   if (arp_table[arp_idx].state == ETHARP_STATE_STABLE) {
 754:Source\LwIP\src\core\ipv4/etharp.c ****     if (arp_table[arp_idx].ctime >= ARP_AGE_REREQUEST_USED_BROADCAST) {
 755:Source\LwIP\src\core\ipv4/etharp.c ****       /* issue a standard request using broadcast */
 756:Source\LwIP\src\core\ipv4/etharp.c ****       if (etharp_request(netif, &arp_table[arp_idx].ipaddr) == ERR_OK) {
 757:Source\LwIP\src\core\ipv4/etharp.c ****         arp_table[arp_idx].state = ETHARP_STATE_STABLE_REREQUESTING_1;
 758:Source\LwIP\src\core\ipv4/etharp.c ****       }
 759:Source\LwIP\src\core\ipv4/etharp.c ****     } else if (arp_table[arp_idx].ctime >= ARP_AGE_REREQUEST_USED_UNICAST) {
 760:Source\LwIP\src\core\ipv4/etharp.c ****       /* issue a unicast request (for 15 seconds) to prevent unnecessary broadcast */
 761:Source\LwIP\src\core\ipv4/etharp.c ****       if (etharp_request_dst(netif, &arp_table[arp_idx].ipaddr, &arp_table[arp_idx].ethaddr) == ERR
 762:Source\LwIP\src\core\ipv4/etharp.c ****         arp_table[arp_idx].state = ETHARP_STATE_STABLE_REREQUESTING_1;
 763:Source\LwIP\src\core\ipv4/etharp.c ****       }
 764:Source\LwIP\src\core\ipv4/etharp.c ****     }
 765:Source\LwIP\src\core\ipv4/etharp.c ****   }
 766:Source\LwIP\src\core\ipv4/etharp.c **** 
 767:Source\LwIP\src\core\ipv4/etharp.c ****   return ethernet_output(netif, q, (struct eth_addr*)(netif->hwaddr), &arp_table[arp_idx].ethaddr, 
 768:Source\LwIP\src\core\ipv4/etharp.c **** }
 769:Source\LwIP\src\core\ipv4/etharp.c **** 
 770:Source\LwIP\src\core\ipv4/etharp.c **** /**
 771:Source\LwIP\src\core\ipv4/etharp.c ****  * Resolve and fill-in Ethernet address header for outgoing IP packet.
 772:Source\LwIP\src\core\ipv4/etharp.c ****  *
 773:Source\LwIP\src\core\ipv4/etharp.c ****  * For IP multicast and broadcast, corresponding Ethernet addresses
 774:Source\LwIP\src\core\ipv4/etharp.c ****  * are selected and the packet is transmitted on the link.
 775:Source\LwIP\src\core\ipv4/etharp.c ****  *
 776:Source\LwIP\src\core\ipv4/etharp.c ****  * For unicast addresses, the packet is submitted to etharp_query(). In
 777:Source\LwIP\src\core\ipv4/etharp.c ****  * case the IP address is outside the local network, the IP address of
 778:Source\LwIP\src\core\ipv4/etharp.c ****  * the gateway is used.
 779:Source\LwIP\src\core\ipv4/etharp.c ****  *
 780:Source\LwIP\src\core\ipv4/etharp.c ****  * @param netif The lwIP network interface which the IP packet will be sent on.
 781:Source\LwIP\src\core\ipv4/etharp.c ****  * @param q The pbuf(s) containing the IP packet to be sent.
 782:Source\LwIP\src\core\ipv4/etharp.c ****  * @param ipaddr The IP address of the packet destination.
 783:Source\LwIP\src\core\ipv4/etharp.c ****  *
 784:Source\LwIP\src\core\ipv4/etharp.c ****  * @return
 785:Source\LwIP\src\core\ipv4/etharp.c ****  * - ERR_RTE No route to destination (no gateway to external networks),
 786:Source\LwIP\src\core\ipv4/etharp.c ****  * or the return type of either etharp_query() or ethernet_output().
 787:Source\LwIP\src\core\ipv4/etharp.c ****  */
 788:Source\LwIP\src\core\ipv4/etharp.c **** err_t
 789:Source\LwIP\src\core\ipv4/etharp.c **** etharp_output(struct netif *netif, struct pbuf *q, const ip4_addr_t *ipaddr)
 790:Source\LwIP\src\core\ipv4/etharp.c **** {
ARM GAS  C:\Users\Phuong\AppData\Local\Temp\cczAUGdE.s 			page 26


 791:Source\LwIP\src\core\ipv4/etharp.c ****   const struct eth_addr *dest;
 792:Source\LwIP\src\core\ipv4/etharp.c ****   struct eth_addr mcastaddr;
 793:Source\LwIP\src\core\ipv4/etharp.c ****   const ip4_addr_t *dst_addr = ipaddr;
 794:Source\LwIP\src\core\ipv4/etharp.c **** 
 795:Source\LwIP\src\core\ipv4/etharp.c ****   LWIP_ASSERT("netif != NULL", netif != NULL);
 796:Source\LwIP\src\core\ipv4/etharp.c ****   LWIP_ASSERT("q != NULL", q != NULL);
 797:Source\LwIP\src\core\ipv4/etharp.c ****   LWIP_ASSERT("ipaddr != NULL", ipaddr != NULL);
 798:Source\LwIP\src\core\ipv4/etharp.c **** 
 799:Source\LwIP\src\core\ipv4/etharp.c ****   /* Determine on destination hardware address. Broadcasts and multicasts
 800:Source\LwIP\src\core\ipv4/etharp.c ****    * are special, other IP addresses are looked up in the ARP table. */
 801:Source\LwIP\src\core\ipv4/etharp.c **** 
 802:Source\LwIP\src\core\ipv4/etharp.c ****   /* broadcast destination IP address? */
 803:Source\LwIP\src\core\ipv4/etharp.c ****   if (ip4_addr_isbroadcast(ipaddr, netif)) {
 804:Source\LwIP\src\core\ipv4/etharp.c ****     /* broadcast on Ethernet also */
 805:Source\LwIP\src\core\ipv4/etharp.c ****     dest = (const struct eth_addr *)&ethbroadcast;
 806:Source\LwIP\src\core\ipv4/etharp.c ****   /* multicast destination IP address? */
 807:Source\LwIP\src\core\ipv4/etharp.c ****   } else if (ip4_addr_ismulticast(ipaddr)) {
 808:Source\LwIP\src\core\ipv4/etharp.c ****     /* Hash IP multicast address to MAC address.*/
 809:Source\LwIP\src\core\ipv4/etharp.c ****     mcastaddr.addr[0] = LL_IP4_MULTICAST_ADDR_0;
 810:Source\LwIP\src\core\ipv4/etharp.c ****     mcastaddr.addr[1] = LL_IP4_MULTICAST_ADDR_1;
 811:Source\LwIP\src\core\ipv4/etharp.c ****     mcastaddr.addr[2] = LL_IP4_MULTICAST_ADDR_2;
 812:Source\LwIP\src\core\ipv4/etharp.c ****     mcastaddr.addr[3] = ip4_addr2(ipaddr) & 0x7f;
 813:Source\LwIP\src\core\ipv4/etharp.c ****     mcastaddr.addr[4] = ip4_addr3(ipaddr);
 814:Source\LwIP\src\core\ipv4/etharp.c ****     mcastaddr.addr[5] = ip4_addr4(ipaddr);
 815:Source\LwIP\src\core\ipv4/etharp.c ****     /* destination Ethernet address is multicast */
 816:Source\LwIP\src\core\ipv4/etharp.c ****     dest = &mcastaddr;
 817:Source\LwIP\src\core\ipv4/etharp.c ****   /* unicast destination IP address? */
 818:Source\LwIP\src\core\ipv4/etharp.c ****   } else {
 819:Source\LwIP\src\core\ipv4/etharp.c ****     s8_t i;
 820:Source\LwIP\src\core\ipv4/etharp.c ****     /* outside local network? if so, this can neither be a global broadcast nor
 821:Source\LwIP\src\core\ipv4/etharp.c ****        a subnet broadcast. */
 822:Source\LwIP\src\core\ipv4/etharp.c ****     if (!ip4_addr_netcmp(ipaddr, netif_ip4_addr(netif), netif_ip4_netmask(netif)) &&
 823:Source\LwIP\src\core\ipv4/etharp.c ****         !ip4_addr_islinklocal(ipaddr)) {
 824:Source\LwIP\src\core\ipv4/etharp.c **** #if LWIP_AUTOIP
 825:Source\LwIP\src\core\ipv4/etharp.c ****       struct ip_hdr *iphdr = LWIP_ALIGNMENT_CAST(struct ip_hdr*, q->payload);
 826:Source\LwIP\src\core\ipv4/etharp.c ****       /* According to RFC 3297, chapter 2.6.2 (Forwarding Rules), a packet with
 827:Source\LwIP\src\core\ipv4/etharp.c ****          a link-local source address must always be "directly to its destination
 828:Source\LwIP\src\core\ipv4/etharp.c ****          on the same physical link. The host MUST NOT send the packet to any
 829:Source\LwIP\src\core\ipv4/etharp.c ****          router for forwarding". */
 830:Source\LwIP\src\core\ipv4/etharp.c ****       if (!ip4_addr_islinklocal(&iphdr->src))
 831:Source\LwIP\src\core\ipv4/etharp.c **** #endif /* LWIP_AUTOIP */
 832:Source\LwIP\src\core\ipv4/etharp.c ****       {
 833:Source\LwIP\src\core\ipv4/etharp.c **** #ifdef LWIP_HOOK_ETHARP_GET_GW
 834:Source\LwIP\src\core\ipv4/etharp.c ****         /* For advanced routing, a single default gateway might not be enough, so get
 835:Source\LwIP\src\core\ipv4/etharp.c ****            the IP address of the gateway to handle the current destination address. */
 836:Source\LwIP\src\core\ipv4/etharp.c ****         dst_addr = LWIP_HOOK_ETHARP_GET_GW(netif, ipaddr);
 837:Source\LwIP\src\core\ipv4/etharp.c ****         if (dst_addr == NULL)
 838:Source\LwIP\src\core\ipv4/etharp.c **** #endif /* LWIP_HOOK_ETHARP_GET_GW */
 839:Source\LwIP\src\core\ipv4/etharp.c ****         {
 840:Source\LwIP\src\core\ipv4/etharp.c ****           /* interface has default gateway? */
 841:Source\LwIP\src\core\ipv4/etharp.c ****           if (!ip4_addr_isany_val(*netif_ip4_gw(netif))) {
 842:Source\LwIP\src\core\ipv4/etharp.c ****             /* send to hardware address of default gateway IP address */
 843:Source\LwIP\src\core\ipv4/etharp.c ****             dst_addr = netif_ip4_gw(netif);
 844:Source\LwIP\src\core\ipv4/etharp.c ****           /* no default gateway available */
 845:Source\LwIP\src\core\ipv4/etharp.c ****           } else {
 846:Source\LwIP\src\core\ipv4/etharp.c ****             /* no route to destination error (default gateway missing) */
 847:Source\LwIP\src\core\ipv4/etharp.c ****             return ERR_RTE;
ARM GAS  C:\Users\Phuong\AppData\Local\Temp\cczAUGdE.s 			page 27


 848:Source\LwIP\src\core\ipv4/etharp.c ****           }
 849:Source\LwIP\src\core\ipv4/etharp.c ****         }
 850:Source\LwIP\src\core\ipv4/etharp.c ****       }
 851:Source\LwIP\src\core\ipv4/etharp.c ****     }
 852:Source\LwIP\src\core\ipv4/etharp.c **** #if LWIP_NETIF_HWADDRHINT
 853:Source\LwIP\src\core\ipv4/etharp.c ****     if (netif->addr_hint != NULL) {
 854:Source\LwIP\src\core\ipv4/etharp.c ****       /* per-pcb cached entry was given */
 855:Source\LwIP\src\core\ipv4/etharp.c ****       u8_t etharp_cached_entry = *(netif->addr_hint);
 856:Source\LwIP\src\core\ipv4/etharp.c ****       if (etharp_cached_entry < ARP_TABLE_SIZE) {
 857:Source\LwIP\src\core\ipv4/etharp.c **** #endif /* LWIP_NETIF_HWADDRHINT */
 858:Source\LwIP\src\core\ipv4/etharp.c ****         if ((arp_table[etharp_cached_entry].state >= ETHARP_STATE_STABLE) &&
 859:Source\LwIP\src\core\ipv4/etharp.c **** #if ETHARP_TABLE_MATCH_NETIF
 860:Source\LwIP\src\core\ipv4/etharp.c ****             (arp_table[etharp_cached_entry].netif == netif) &&
 861:Source\LwIP\src\core\ipv4/etharp.c **** #endif
 862:Source\LwIP\src\core\ipv4/etharp.c ****             (ip4_addr_cmp(dst_addr, &arp_table[etharp_cached_entry].ipaddr))) {
 863:Source\LwIP\src\core\ipv4/etharp.c ****           /* the per-pcb-cached entry is stable and the right one! */
 864:Source\LwIP\src\core\ipv4/etharp.c ****           ETHARP_STATS_INC(etharp.cachehit);
 865:Source\LwIP\src\core\ipv4/etharp.c ****           return etharp_output_to_arp_index(netif, q, etharp_cached_entry);
 866:Source\LwIP\src\core\ipv4/etharp.c ****         }
 867:Source\LwIP\src\core\ipv4/etharp.c **** #if LWIP_NETIF_HWADDRHINT
 868:Source\LwIP\src\core\ipv4/etharp.c ****       }
 869:Source\LwIP\src\core\ipv4/etharp.c ****     }
 870:Source\LwIP\src\core\ipv4/etharp.c **** #endif /* LWIP_NETIF_HWADDRHINT */
 871:Source\LwIP\src\core\ipv4/etharp.c **** 
 872:Source\LwIP\src\core\ipv4/etharp.c ****     /* find stable entry: do this here since this is a critical path for
 873:Source\LwIP\src\core\ipv4/etharp.c ****        throughput and etharp_find_entry() is kind of slow */
 874:Source\LwIP\src\core\ipv4/etharp.c ****     for (i = 0; i < ARP_TABLE_SIZE; i++) {
 875:Source\LwIP\src\core\ipv4/etharp.c ****       if ((arp_table[i].state >= ETHARP_STATE_STABLE) &&
 876:Source\LwIP\src\core\ipv4/etharp.c **** #if ETHARP_TABLE_MATCH_NETIF
 877:Source\LwIP\src\core\ipv4/etharp.c ****           (arp_table[i].netif == netif) &&
 878:Source\LwIP\src\core\ipv4/etharp.c **** #endif
 879:Source\LwIP\src\core\ipv4/etharp.c ****           (ip4_addr_cmp(dst_addr, &arp_table[i].ipaddr))) {
 880:Source\LwIP\src\core\ipv4/etharp.c ****         /* found an existing, stable entry */
 881:Source\LwIP\src\core\ipv4/etharp.c ****         ETHARP_SET_HINT(netif, i);
 882:Source\LwIP\src\core\ipv4/etharp.c ****         return etharp_output_to_arp_index(netif, q, i);
 883:Source\LwIP\src\core\ipv4/etharp.c ****       }
 884:Source\LwIP\src\core\ipv4/etharp.c ****     }
 885:Source\LwIP\src\core\ipv4/etharp.c ****     /* no stable entry found, use the (slower) query function:
 886:Source\LwIP\src\core\ipv4/etharp.c ****        queue on destination Ethernet address belonging to ipaddr */
 887:Source\LwIP\src\core\ipv4/etharp.c ****     return etharp_query(netif, dst_addr, q);
 888:Source\LwIP\src\core\ipv4/etharp.c ****   }
 889:Source\LwIP\src\core\ipv4/etharp.c **** 
 890:Source\LwIP\src\core\ipv4/etharp.c ****   /* continuation for multicast/broadcast destinations */
 891:Source\LwIP\src\core\ipv4/etharp.c ****   /* obtain source Ethernet address of the given interface */
 892:Source\LwIP\src\core\ipv4/etharp.c ****   /* send packet directly on the link */
 893:Source\LwIP\src\core\ipv4/etharp.c ****   return ethernet_output(netif, q, (struct eth_addr*)(netif->hwaddr), dest, ETHTYPE_IP);
 894:Source\LwIP\src\core\ipv4/etharp.c **** }
 895:Source\LwIP\src\core\ipv4/etharp.c **** 
 896:Source\LwIP\src\core\ipv4/etharp.c **** /**
 897:Source\LwIP\src\core\ipv4/etharp.c ****  * Send an ARP request for the given IP address and/or queue a packet.
 898:Source\LwIP\src\core\ipv4/etharp.c ****  *
 899:Source\LwIP\src\core\ipv4/etharp.c ****  * If the IP address was not yet in the cache, a pending ARP cache entry
 900:Source\LwIP\src\core\ipv4/etharp.c ****  * is added and an ARP request is sent for the given address. The packet
 901:Source\LwIP\src\core\ipv4/etharp.c ****  * is queued on this entry.
 902:Source\LwIP\src\core\ipv4/etharp.c ****  *
 903:Source\LwIP\src\core\ipv4/etharp.c ****  * If the IP address was already pending in the cache, a new ARP request
 904:Source\LwIP\src\core\ipv4/etharp.c ****  * is sent for the given address. The packet is queued on this entry.
ARM GAS  C:\Users\Phuong\AppData\Local\Temp\cczAUGdE.s 			page 28


 905:Source\LwIP\src\core\ipv4/etharp.c ****  *
 906:Source\LwIP\src\core\ipv4/etharp.c ****  * If the IP address was already stable in the cache, and a packet is
 907:Source\LwIP\src\core\ipv4/etharp.c ****  * given, it is directly sent and no ARP request is sent out.
 908:Source\LwIP\src\core\ipv4/etharp.c ****  *
 909:Source\LwIP\src\core\ipv4/etharp.c ****  * If the IP address was already stable in the cache, and no packet is
 910:Source\LwIP\src\core\ipv4/etharp.c ****  * given, an ARP request is sent out.
 911:Source\LwIP\src\core\ipv4/etharp.c ****  *
 912:Source\LwIP\src\core\ipv4/etharp.c ****  * @param netif The lwIP network interface on which ipaddr
 913:Source\LwIP\src\core\ipv4/etharp.c ****  * must be queried for.
 914:Source\LwIP\src\core\ipv4/etharp.c ****  * @param ipaddr The IP address to be resolved.
 915:Source\LwIP\src\core\ipv4/etharp.c ****  * @param q If non-NULL, a pbuf that must be delivered to the IP address.
 916:Source\LwIP\src\core\ipv4/etharp.c ****  * q is not freed by this function.
 917:Source\LwIP\src\core\ipv4/etharp.c ****  *
 918:Source\LwIP\src\core\ipv4/etharp.c ****  * @note q must only be ONE packet, not a packet queue!
 919:Source\LwIP\src\core\ipv4/etharp.c ****  *
 920:Source\LwIP\src\core\ipv4/etharp.c ****  * @return
 921:Source\LwIP\src\core\ipv4/etharp.c ****  * - ERR_BUF Could not make room for Ethernet header.
 922:Source\LwIP\src\core\ipv4/etharp.c ****  * - ERR_MEM Hardware address unknown, and no more ARP entries available
 923:Source\LwIP\src\core\ipv4/etharp.c ****  *   to query for address or queue the packet.
 924:Source\LwIP\src\core\ipv4/etharp.c ****  * - ERR_MEM Could not queue packet due to memory shortage.
 925:Source\LwIP\src\core\ipv4/etharp.c ****  * - ERR_RTE No route to destination (no gateway to external networks).
 926:Source\LwIP\src\core\ipv4/etharp.c ****  * - ERR_ARG Non-unicast address given, those will not appear in ARP cache.
 927:Source\LwIP\src\core\ipv4/etharp.c ****  *
 928:Source\LwIP\src\core\ipv4/etharp.c ****  */
 929:Source\LwIP\src\core\ipv4/etharp.c **** err_t
 930:Source\LwIP\src\core\ipv4/etharp.c **** etharp_query(struct netif *netif, const ip4_addr_t *ipaddr, struct pbuf *q)
 931:Source\LwIP\src\core\ipv4/etharp.c **** {
 932:Source\LwIP\src\core\ipv4/etharp.c ****   struct eth_addr * srcaddr = (struct eth_addr *)netif->hwaddr;
 933:Source\LwIP\src\core\ipv4/etharp.c ****   err_t result = ERR_MEM;
 934:Source\LwIP\src\core\ipv4/etharp.c ****   int is_new_entry = 0;
 935:Source\LwIP\src\core\ipv4/etharp.c ****   s8_t i; /* ARP entry index */
 936:Source\LwIP\src\core\ipv4/etharp.c **** 
 937:Source\LwIP\src\core\ipv4/etharp.c ****   /* non-unicast address? */
 938:Source\LwIP\src\core\ipv4/etharp.c ****   if (ip4_addr_isbroadcast(ipaddr, netif) ||
 939:Source\LwIP\src\core\ipv4/etharp.c ****       ip4_addr_ismulticast(ipaddr) ||
 940:Source\LwIP\src\core\ipv4/etharp.c ****       ip4_addr_isany(ipaddr)) {
 941:Source\LwIP\src\core\ipv4/etharp.c ****     LWIP_DEBUGF(ETHARP_DEBUG | LWIP_DBG_TRACE, ("etharp_query: will not add non-unicast IP address 
 942:Source\LwIP\src\core\ipv4/etharp.c ****     return ERR_ARG;
 943:Source\LwIP\src\core\ipv4/etharp.c ****   }
 944:Source\LwIP\src\core\ipv4/etharp.c **** 
 945:Source\LwIP\src\core\ipv4/etharp.c ****   /* find entry in ARP cache, ask to create entry if queueing packet */
 946:Source\LwIP\src\core\ipv4/etharp.c ****   i = etharp_find_entry(ipaddr, ETHARP_FLAG_TRY_HARD, netif);
 947:Source\LwIP\src\core\ipv4/etharp.c **** 
 948:Source\LwIP\src\core\ipv4/etharp.c ****   /* could not find or create entry? */
 949:Source\LwIP\src\core\ipv4/etharp.c ****   if (i < 0) {
 950:Source\LwIP\src\core\ipv4/etharp.c ****     LWIP_DEBUGF(ETHARP_DEBUG | LWIP_DBG_TRACE, ("etharp_query: could not create ARP entry\n"));
 951:Source\LwIP\src\core\ipv4/etharp.c ****     if (q) {
 952:Source\LwIP\src\core\ipv4/etharp.c ****       LWIP_DEBUGF(ETHARP_DEBUG | LWIP_DBG_TRACE, ("etharp_query: packet dropped\n"));
 953:Source\LwIP\src\core\ipv4/etharp.c ****       ETHARP_STATS_INC(etharp.memerr);
 954:Source\LwIP\src\core\ipv4/etharp.c ****     }
 955:Source\LwIP\src\core\ipv4/etharp.c ****     return (err_t)i;
 956:Source\LwIP\src\core\ipv4/etharp.c ****   }
 957:Source\LwIP\src\core\ipv4/etharp.c **** 
 958:Source\LwIP\src\core\ipv4/etharp.c ****   /* mark a fresh entry as pending (we just sent a request) */
 959:Source\LwIP\src\core\ipv4/etharp.c ****   if (arp_table[i].state == ETHARP_STATE_EMPTY) {
 960:Source\LwIP\src\core\ipv4/etharp.c ****     is_new_entry = 1;
 961:Source\LwIP\src\core\ipv4/etharp.c ****     arp_table[i].state = ETHARP_STATE_PENDING;
ARM GAS  C:\Users\Phuong\AppData\Local\Temp\cczAUGdE.s 			page 29


 962:Source\LwIP\src\core\ipv4/etharp.c ****     /* record network interface for re-sending arp request in etharp_tmr */
 963:Source\LwIP\src\core\ipv4/etharp.c ****     arp_table[i].netif = netif;
 964:Source\LwIP\src\core\ipv4/etharp.c ****   }
 965:Source\LwIP\src\core\ipv4/etharp.c **** 
 966:Source\LwIP\src\core\ipv4/etharp.c ****   /* { i is either a STABLE or (new or existing) PENDING entry } */
 967:Source\LwIP\src\core\ipv4/etharp.c ****   LWIP_ASSERT("arp_table[i].state == PENDING or STABLE",
 968:Source\LwIP\src\core\ipv4/etharp.c ****   ((arp_table[i].state == ETHARP_STATE_PENDING) ||
 969:Source\LwIP\src\core\ipv4/etharp.c ****    (arp_table[i].state >= ETHARP_STATE_STABLE)));
 970:Source\LwIP\src\core\ipv4/etharp.c **** 
 971:Source\LwIP\src\core\ipv4/etharp.c ****   /* do we have a new entry? or an implicit query request? */
 972:Source\LwIP\src\core\ipv4/etharp.c ****   if (is_new_entry || (q == NULL)) {
 973:Source\LwIP\src\core\ipv4/etharp.c ****     /* try to resolve it; send out ARP request */
 974:Source\LwIP\src\core\ipv4/etharp.c ****     result = etharp_request(netif, ipaddr);
 975:Source\LwIP\src\core\ipv4/etharp.c ****     if (result != ERR_OK) {
 976:Source\LwIP\src\core\ipv4/etharp.c ****       /* ARP request couldn't be sent */
 977:Source\LwIP\src\core\ipv4/etharp.c ****       /* We don't re-send arp request in etharp_tmr, but we still queue packets,
 978:Source\LwIP\src\core\ipv4/etharp.c ****          since this failure could be temporary, and the next packet calling
 979:Source\LwIP\src\core\ipv4/etharp.c ****          etharp_query again could lead to sending the queued packets. */
 980:Source\LwIP\src\core\ipv4/etharp.c ****     }
 981:Source\LwIP\src\core\ipv4/etharp.c ****     if (q == NULL) {
 982:Source\LwIP\src\core\ipv4/etharp.c ****       return result;
 983:Source\LwIP\src\core\ipv4/etharp.c ****     }
 984:Source\LwIP\src\core\ipv4/etharp.c ****   }
 985:Source\LwIP\src\core\ipv4/etharp.c **** 
 986:Source\LwIP\src\core\ipv4/etharp.c ****   /* packet given? */
 987:Source\LwIP\src\core\ipv4/etharp.c ****   LWIP_ASSERT("q != NULL", q != NULL);
 988:Source\LwIP\src\core\ipv4/etharp.c ****   /* stable entry? */
 989:Source\LwIP\src\core\ipv4/etharp.c ****   if (arp_table[i].state >= ETHARP_STATE_STABLE) {
 990:Source\LwIP\src\core\ipv4/etharp.c ****     /* we have a valid IP->Ethernet address mapping */
 991:Source\LwIP\src\core\ipv4/etharp.c ****     ETHARP_SET_HINT(netif, i);
 992:Source\LwIP\src\core\ipv4/etharp.c ****     /* send the packet */
 993:Source\LwIP\src\core\ipv4/etharp.c ****     result = ethernet_output(netif, q, srcaddr, &(arp_table[i].ethaddr), ETHTYPE_IP);
 994:Source\LwIP\src\core\ipv4/etharp.c ****   /* pending entry? (either just created or already pending */
 995:Source\LwIP\src\core\ipv4/etharp.c ****   } else if (arp_table[i].state == ETHARP_STATE_PENDING) {
 996:Source\LwIP\src\core\ipv4/etharp.c ****     /* entry is still pending, queue the given packet 'q' */
 997:Source\LwIP\src\core\ipv4/etharp.c ****     struct pbuf *p;
 998:Source\LwIP\src\core\ipv4/etharp.c ****     int copy_needed = 0;
 999:Source\LwIP\src\core\ipv4/etharp.c ****     /* IF q includes a PBUF_REF, PBUF_POOL or PBUF_RAM, we have no choice but
1000:Source\LwIP\src\core\ipv4/etharp.c ****      * to copy the whole queue into a new PBUF_RAM (see bug #11400)
1001:Source\LwIP\src\core\ipv4/etharp.c ****      * PBUF_ROMs can be left as they are, since ROM must not get changed. */
1002:Source\LwIP\src\core\ipv4/etharp.c ****     p = q;
1003:Source\LwIP\src\core\ipv4/etharp.c ****     while (p) {
1004:Source\LwIP\src\core\ipv4/etharp.c ****       LWIP_ASSERT("no packet queues allowed!", (p->len != p->tot_len) || (p->next == 0));
1005:Source\LwIP\src\core\ipv4/etharp.c ****       if (p->type != PBUF_ROM) {
1006:Source\LwIP\src\core\ipv4/etharp.c ****         copy_needed = 1;
1007:Source\LwIP\src\core\ipv4/etharp.c ****         break;
1008:Source\LwIP\src\core\ipv4/etharp.c ****       }
1009:Source\LwIP\src\core\ipv4/etharp.c ****       p = p->next;
1010:Source\LwIP\src\core\ipv4/etharp.c ****     }
1011:Source\LwIP\src\core\ipv4/etharp.c ****     if (copy_needed) {
1012:Source\LwIP\src\core\ipv4/etharp.c ****       /* copy the whole packet into new pbufs */
1013:Source\LwIP\src\core\ipv4/etharp.c ****       p = pbuf_alloc(PBUF_LINK, p->tot_len, PBUF_RAM);
1014:Source\LwIP\src\core\ipv4/etharp.c ****       if (p != NULL) {
1015:Source\LwIP\src\core\ipv4/etharp.c ****         if (pbuf_copy(p, q) != ERR_OK) {
1016:Source\LwIP\src\core\ipv4/etharp.c ****           pbuf_free(p);
1017:Source\LwIP\src\core\ipv4/etharp.c ****           p = NULL;
1018:Source\LwIP\src\core\ipv4/etharp.c ****         }
ARM GAS  C:\Users\Phuong\AppData\Local\Temp\cczAUGdE.s 			page 30


1019:Source\LwIP\src\core\ipv4/etharp.c ****       }
1020:Source\LwIP\src\core\ipv4/etharp.c ****     } else {
1021:Source\LwIP\src\core\ipv4/etharp.c ****       /* referencing the old pbuf is enough */
1022:Source\LwIP\src\core\ipv4/etharp.c ****       p = q;
1023:Source\LwIP\src\core\ipv4/etharp.c ****       pbuf_ref(p);
1024:Source\LwIP\src\core\ipv4/etharp.c ****     }
1025:Source\LwIP\src\core\ipv4/etharp.c ****     /* packet could be taken over? */
1026:Source\LwIP\src\core\ipv4/etharp.c ****     if (p != NULL) {
1027:Source\LwIP\src\core\ipv4/etharp.c ****       /* queue packet ... */
1028:Source\LwIP\src\core\ipv4/etharp.c **** #if ARP_QUEUEING
1029:Source\LwIP\src\core\ipv4/etharp.c ****       struct etharp_q_entry *new_entry;
1030:Source\LwIP\src\core\ipv4/etharp.c ****       /* allocate a new arp queue entry */
1031:Source\LwIP\src\core\ipv4/etharp.c ****       new_entry = (struct etharp_q_entry *)memp_malloc(MEMP_ARP_QUEUE);
1032:Source\LwIP\src\core\ipv4/etharp.c ****       if (new_entry != NULL) {
1033:Source\LwIP\src\core\ipv4/etharp.c ****         unsigned int qlen = 0;
1034:Source\LwIP\src\core\ipv4/etharp.c ****         new_entry->next = 0;
1035:Source\LwIP\src\core\ipv4/etharp.c ****         new_entry->p = p;
1036:Source\LwIP\src\core\ipv4/etharp.c ****         if (arp_table[i].q != NULL) {
1037:Source\LwIP\src\core\ipv4/etharp.c ****           /* queue was already existent, append the new entry to the end */
1038:Source\LwIP\src\core\ipv4/etharp.c ****           struct etharp_q_entry *r;
1039:Source\LwIP\src\core\ipv4/etharp.c ****           r = arp_table[i].q;
1040:Source\LwIP\src\core\ipv4/etharp.c ****           qlen++;
1041:Source\LwIP\src\core\ipv4/etharp.c ****           while (r->next != NULL) {
1042:Source\LwIP\src\core\ipv4/etharp.c ****             r = r->next;
1043:Source\LwIP\src\core\ipv4/etharp.c ****             qlen++;
1044:Source\LwIP\src\core\ipv4/etharp.c ****           }
1045:Source\LwIP\src\core\ipv4/etharp.c ****           r->next = new_entry;
1046:Source\LwIP\src\core\ipv4/etharp.c ****         } else {
1047:Source\LwIP\src\core\ipv4/etharp.c ****           /* queue did not exist, first item in queue */
1048:Source\LwIP\src\core\ipv4/etharp.c ****           arp_table[i].q = new_entry;
1049:Source\LwIP\src\core\ipv4/etharp.c ****         }
1050:Source\LwIP\src\core\ipv4/etharp.c **** #if ARP_QUEUE_LEN
1051:Source\LwIP\src\core\ipv4/etharp.c ****         if (qlen >= ARP_QUEUE_LEN) {
1052:Source\LwIP\src\core\ipv4/etharp.c ****           struct etharp_q_entry *old;
1053:Source\LwIP\src\core\ipv4/etharp.c ****           old = arp_table[i].q;
1054:Source\LwIP\src\core\ipv4/etharp.c ****           arp_table[i].q = arp_table[i].q->next;
1055:Source\LwIP\src\core\ipv4/etharp.c ****           pbuf_free(old->p);
1056:Source\LwIP\src\core\ipv4/etharp.c ****           memp_free(MEMP_ARP_QUEUE, old);
1057:Source\LwIP\src\core\ipv4/etharp.c ****         }
1058:Source\LwIP\src\core\ipv4/etharp.c **** #endif
1059:Source\LwIP\src\core\ipv4/etharp.c ****         LWIP_DEBUGF(ETHARP_DEBUG | LWIP_DBG_TRACE, ("etharp_query: queued packet %p on ARP entry %"
1060:Source\LwIP\src\core\ipv4/etharp.c ****         result = ERR_OK;
1061:Source\LwIP\src\core\ipv4/etharp.c ****       } else {
1062:Source\LwIP\src\core\ipv4/etharp.c ****         /* the pool MEMP_ARP_QUEUE is empty */
1063:Source\LwIP\src\core\ipv4/etharp.c ****         pbuf_free(p);
1064:Source\LwIP\src\core\ipv4/etharp.c ****         LWIP_DEBUGF(ETHARP_DEBUG | LWIP_DBG_TRACE, ("etharp_query: could not queue a copy of PBUF_R
1065:Source\LwIP\src\core\ipv4/etharp.c ****         result = ERR_MEM;
1066:Source\LwIP\src\core\ipv4/etharp.c ****       }
1067:Source\LwIP\src\core\ipv4/etharp.c **** #else /* ARP_QUEUEING */
1068:Source\LwIP\src\core\ipv4/etharp.c ****       /* always queue one packet per ARP request only, freeing a previously queued packet */
1069:Source\LwIP\src\core\ipv4/etharp.c ****       if (arp_table[i].q != NULL) {
1070:Source\LwIP\src\core\ipv4/etharp.c ****         LWIP_DEBUGF(ETHARP_DEBUG | LWIP_DBG_TRACE, ("etharp_query: dropped previously queued packet
1071:Source\LwIP\src\core\ipv4/etharp.c ****         pbuf_free(arp_table[i].q);
1072:Source\LwIP\src\core\ipv4/etharp.c ****       }
1073:Source\LwIP\src\core\ipv4/etharp.c ****       arp_table[i].q = p;
1074:Source\LwIP\src\core\ipv4/etharp.c ****       result = ERR_OK;
1075:Source\LwIP\src\core\ipv4/etharp.c ****       LWIP_DEBUGF(ETHARP_DEBUG | LWIP_DBG_TRACE, ("etharp_query: queued packet %p on ARP entry %"S1
ARM GAS  C:\Users\Phuong\AppData\Local\Temp\cczAUGdE.s 			page 31


1076:Source\LwIP\src\core\ipv4/etharp.c **** #endif /* ARP_QUEUEING */
1077:Source\LwIP\src\core\ipv4/etharp.c ****     } else {
1078:Source\LwIP\src\core\ipv4/etharp.c ****       ETHARP_STATS_INC(etharp.memerr);
1079:Source\LwIP\src\core\ipv4/etharp.c ****       LWIP_DEBUGF(ETHARP_DEBUG | LWIP_DBG_TRACE, ("etharp_query: could not queue a copy of PBUF_REF
1080:Source\LwIP\src\core\ipv4/etharp.c ****       result = ERR_MEM;
1081:Source\LwIP\src\core\ipv4/etharp.c ****     }
1082:Source\LwIP\src\core\ipv4/etharp.c ****   }
1083:Source\LwIP\src\core\ipv4/etharp.c ****   return result;
1084:Source\LwIP\src\core\ipv4/etharp.c **** }
1085:Source\LwIP\src\core\ipv4/etharp.c **** 
1086:Source\LwIP\src\core\ipv4/etharp.c **** /**
1087:Source\LwIP\src\core\ipv4/etharp.c ****  * Send a raw ARP packet (opcode and all addresses can be modified)
1088:Source\LwIP\src\core\ipv4/etharp.c ****  *
1089:Source\LwIP\src\core\ipv4/etharp.c ****  * @param netif the lwip network interface on which to send the ARP packet
1090:Source\LwIP\src\core\ipv4/etharp.c ****  * @param ethsrc_addr the source MAC address for the ethernet header
1091:Source\LwIP\src\core\ipv4/etharp.c ****  * @param ethdst_addr the destination MAC address for the ethernet header
1092:Source\LwIP\src\core\ipv4/etharp.c ****  * @param hwsrc_addr the source MAC address for the ARP protocol header
1093:Source\LwIP\src\core\ipv4/etharp.c ****  * @param ipsrc_addr the source IP address for the ARP protocol header
1094:Source\LwIP\src\core\ipv4/etharp.c ****  * @param hwdst_addr the destination MAC address for the ARP protocol header
1095:Source\LwIP\src\core\ipv4/etharp.c ****  * @param ipdst_addr the destination IP address for the ARP protocol header
1096:Source\LwIP\src\core\ipv4/etharp.c ****  * @param opcode the type of the ARP packet
1097:Source\LwIP\src\core\ipv4/etharp.c ****  * @return ERR_OK if the ARP packet has been sent
1098:Source\LwIP\src\core\ipv4/etharp.c ****  *         ERR_MEM if the ARP packet couldn't be allocated
1099:Source\LwIP\src\core\ipv4/etharp.c ****  *         any other err_t on failure
1100:Source\LwIP\src\core\ipv4/etharp.c ****  */
1101:Source\LwIP\src\core\ipv4/etharp.c **** static err_t
1102:Source\LwIP\src\core\ipv4/etharp.c **** etharp_raw(struct netif *netif, const struct eth_addr *ethsrc_addr,
1103:Source\LwIP\src\core\ipv4/etharp.c ****            const struct eth_addr *ethdst_addr,
1104:Source\LwIP\src\core\ipv4/etharp.c ****            const struct eth_addr *hwsrc_addr, const ip4_addr_t *ipsrc_addr,
1105:Source\LwIP\src\core\ipv4/etharp.c ****            const struct eth_addr *hwdst_addr, const ip4_addr_t *ipdst_addr,
1106:Source\LwIP\src\core\ipv4/etharp.c ****            const u16_t opcode)
1107:Source\LwIP\src\core\ipv4/etharp.c **** {
 623              		.loc 1 1107 0
 624              		.cfi_startproc
 625              		@ args = 16, pretend = 0, frame = 16
 626              		@ frame_needed = 0, uses_anonymous_args = 0
 627              	.LVL76:
 628 0000 F0B5     		push	{r4, r5, r6, r7, lr}
 629              		.cfi_def_cfa_offset 20
 630              		.cfi_offset 4, -20
 631              		.cfi_offset 5, -16
 632              		.cfi_offset 6, -12
 633              		.cfi_offset 7, -8
 634              		.cfi_offset 14, -4
 635 0002 87B0     		sub	sp, sp, #28
 636              		.cfi_def_cfa_offset 48
 637 0004 0390     		str	r0, [sp, #12]
 638 0006 0491     		str	r1, [sp, #16]
 639 0008 0592     		str	r2, [sp, #20]
 640 000a 1F00     		movs	r7, r3
 641 000c 0FAB     		add	r3, sp, #60
 642              	.LVL77:
 643 000e 1E88     		ldrh	r6, [r3]
 644              	.LVL78:
1108:Source\LwIP\src\core\ipv4/etharp.c ****   struct pbuf *p;
1109:Source\LwIP\src\core\ipv4/etharp.c ****   err_t result = ERR_OK;
1110:Source\LwIP\src\core\ipv4/etharp.c ****   struct etharp_hdr *hdr;
ARM GAS  C:\Users\Phuong\AppData\Local\Temp\cczAUGdE.s 			page 32


1111:Source\LwIP\src\core\ipv4/etharp.c **** 
1112:Source\LwIP\src\core\ipv4/etharp.c ****   LWIP_ASSERT("netif != NULL", netif != NULL);
1113:Source\LwIP\src\core\ipv4/etharp.c **** 
1114:Source\LwIP\src\core\ipv4/etharp.c ****   /* allocate a pbuf for the outgoing ARP request packet */
1115:Source\LwIP\src\core\ipv4/etharp.c ****   p = pbuf_alloc(PBUF_LINK, SIZEOF_ETHARP_HDR, PBUF_RAM);
 645              		.loc 1 1115 0
 646 0010 0022     		movs	r2, #0
 647              	.LVL79:
 648 0012 1C21     		movs	r1, #28
 649              	.LVL80:
 650 0014 0220     		movs	r0, #2
 651              	.LVL81:
 652 0016 FFF7FEFF 		bl	pbuf_alloc
 653              	.LVL82:
 654 001a 041E     		subs	r4, r0, #0
 655              	.LVL83:
1116:Source\LwIP\src\core\ipv4/etharp.c ****   /* could allocate a pbuf for an ARP request? */
1117:Source\LwIP\src\core\ipv4/etharp.c ****   if (p == NULL) {
 656              		.loc 1 1117 0
 657 001c 06D1     		bne	.L41
1118:Source\LwIP\src\core\ipv4/etharp.c ****     LWIP_DEBUGF(ETHARP_DEBUG | LWIP_DBG_TRACE | LWIP_DBG_LEVEL_SERIOUS,
1119:Source\LwIP\src\core\ipv4/etharp.c ****       ("etharp_raw: could not allocate pbuf for ARP request.\n"));
1120:Source\LwIP\src\core\ipv4/etharp.c ****     ETHARP_STATS_INC(etharp.memerr);
 658              		.loc 1 1120 0
 659 001e 224A     		ldr	r2, .L43
 660 0020 938C     		ldrh	r3, [r2, #36]
 661 0022 0133     		adds	r3, r3, #1
 662 0024 9384     		strh	r3, [r2, #36]
1121:Source\LwIP\src\core\ipv4/etharp.c ****     return ERR_MEM;
 663              		.loc 1 1121 0
 664 0026 0120     		movs	r0, #1
 665              	.LVL84:
 666 0028 4042     		rsbs	r0, r0, #0
 667 002a 3AE0     		b	.L42
 668              	.LVL85:
 669              	.L41:
1122:Source\LwIP\src\core\ipv4/etharp.c ****   }
1123:Source\LwIP\src\core\ipv4/etharp.c ****   LWIP_ASSERT("check that first pbuf can hold struct etharp_hdr",
1124:Source\LwIP\src\core\ipv4/etharp.c ****               (p->len >= SIZEOF_ETHARP_HDR));
1125:Source\LwIP\src\core\ipv4/etharp.c **** 
1126:Source\LwIP\src\core\ipv4/etharp.c ****   hdr = (struct etharp_hdr *)p->payload;
 670              		.loc 1 1126 0
 671 002c 4568     		ldr	r5, [r0, #4]
 672              	.LVL86:
1127:Source\LwIP\src\core\ipv4/etharp.c ****   LWIP_DEBUGF(ETHARP_DEBUG | LWIP_DBG_TRACE, ("etharp_raw: sending raw ARP packet.\n"));
1128:Source\LwIP\src\core\ipv4/etharp.c ****   hdr->opcode = lwip_htons(opcode);
 673              		.loc 1 1128 0
 674 002e 3000     		movs	r0, r6
 675              	.LVL87:
 676 0030 FFF7FEFF 		bl	lwip_htons
 677              	.LVL88:
 678 0034 A871     		strb	r0, [r5, #6]
 679 0036 000A     		lsrs	r0, r0, #8
 680 0038 E871     		strb	r0, [r5, #7]
1129:Source\LwIP\src\core\ipv4/etharp.c **** 
1130:Source\LwIP\src\core\ipv4/etharp.c ****   LWIP_ASSERT("netif->hwaddr_len must be the same as ETH_HWADDR_LEN for etharp!",
1131:Source\LwIP\src\core\ipv4/etharp.c ****               (netif->hwaddr_len == ETH_HWADDR_LEN));
ARM GAS  C:\Users\Phuong\AppData\Local\Temp\cczAUGdE.s 			page 33


1132:Source\LwIP\src\core\ipv4/etharp.c **** 
1133:Source\LwIP\src\core\ipv4/etharp.c ****   /* Write the ARP MAC-Addresses */
1134:Source\LwIP\src\core\ipv4/etharp.c ****   ETHADDR16_COPY(&hdr->shwaddr, hwsrc_addr);
 681              		.loc 1 1134 0
 682 003a 2800     		movs	r0, r5
 683 003c 0830     		adds	r0, r0, #8
 684 003e 0622     		movs	r2, #6
 685 0040 3900     		movs	r1, r7
 686 0042 FFF7FEFF 		bl	memcpy
 687              	.LVL89:
1135:Source\LwIP\src\core\ipv4/etharp.c ****   ETHADDR16_COPY(&hdr->dhwaddr, hwdst_addr);
 688              		.loc 1 1135 0
 689 0046 2800     		movs	r0, r5
 690 0048 1230     		adds	r0, r0, #18
 691 004a 0622     		movs	r2, #6
 692 004c 0D99     		ldr	r1, [sp, #52]
 693 004e FFF7FEFF 		bl	memcpy
 694              	.LVL90:
1136:Source\LwIP\src\core\ipv4/etharp.c ****   /* Copy struct ip4_addr2 to aligned ip4_addr, to support compilers without
1137:Source\LwIP\src\core\ipv4/etharp.c ****    * structure packing. */
1138:Source\LwIP\src\core\ipv4/etharp.c ****   IPADDR2_COPY(&hdr->sipaddr, ipsrc_addr);
 695              		.loc 1 1138 0
 696 0052 2800     		movs	r0, r5
 697 0054 0E30     		adds	r0, r0, #14
 698 0056 0422     		movs	r2, #4
 699 0058 0C99     		ldr	r1, [sp, #48]
 700 005a FFF7FEFF 		bl	memcpy
 701              	.LVL91:
1139:Source\LwIP\src\core\ipv4/etharp.c ****   IPADDR2_COPY(&hdr->dipaddr, ipdst_addr);
 702              		.loc 1 1139 0
 703 005e 2800     		movs	r0, r5
 704 0060 1830     		adds	r0, r0, #24
 705 0062 0422     		movs	r2, #4
 706 0064 0E99     		ldr	r1, [sp, #56]
 707 0066 FFF7FEFF 		bl	memcpy
 708              	.LVL92:
1140:Source\LwIP\src\core\ipv4/etharp.c **** 
1141:Source\LwIP\src\core\ipv4/etharp.c ****   hdr->hwtype = PP_HTONS(HWTYPE_ETHERNET);
 709              		.loc 1 1141 0
 710 006a 0023     		movs	r3, #0
 711 006c 2B70     		strb	r3, [r5]
 712 006e 0133     		adds	r3, r3, #1
 713 0070 6B70     		strb	r3, [r5, #1]
1142:Source\LwIP\src\core\ipv4/etharp.c ****   hdr->proto = PP_HTONS(ETHTYPE_IP);
 714              		.loc 1 1142 0
 715 0072 0733     		adds	r3, r3, #7
 716 0074 AB70     		strb	r3, [r5, #2]
 717 0076 0023     		movs	r3, #0
 718 0078 EB70     		strb	r3, [r5, #3]
1143:Source\LwIP\src\core\ipv4/etharp.c ****   /* set hwlen and protolen */
1144:Source\LwIP\src\core\ipv4/etharp.c ****   hdr->hwlen = ETH_HWADDR_LEN;
 719              		.loc 1 1144 0
 720 007a 0633     		adds	r3, r3, #6
 721 007c 2B71     		strb	r3, [r5, #4]
1145:Source\LwIP\src\core\ipv4/etharp.c ****   hdr->protolen = sizeof(ip4_addr_t);
 722              		.loc 1 1145 0
 723 007e 023B     		subs	r3, r3, #2
ARM GAS  C:\Users\Phuong\AppData\Local\Temp\cczAUGdE.s 			page 34


 724 0080 6B71     		strb	r3, [r5, #5]
1146:Source\LwIP\src\core\ipv4/etharp.c **** 
1147:Source\LwIP\src\core\ipv4/etharp.c ****   /* send ARP query */
1148:Source\LwIP\src\core\ipv4/etharp.c **** #if LWIP_AUTOIP
1149:Source\LwIP\src\core\ipv4/etharp.c ****   /* If we are using Link-Local, all ARP packets that contain a Link-Local
1150:Source\LwIP\src\core\ipv4/etharp.c ****    * 'sender IP address' MUST be sent using link-layer broadcast instead of
1151:Source\LwIP\src\core\ipv4/etharp.c ****    * link-layer unicast. (See RFC3927 Section 2.5, last paragraph) */
1152:Source\LwIP\src\core\ipv4/etharp.c ****   if(ip4_addr_islinklocal(ipsrc_addr)) {
1153:Source\LwIP\src\core\ipv4/etharp.c ****     ethernet_output(netif, p, ethsrc_addr, &ethbroadcast, ETHTYPE_ARP);
1154:Source\LwIP\src\core\ipv4/etharp.c ****   } else
1155:Source\LwIP\src\core\ipv4/etharp.c **** #endif /* LWIP_AUTOIP */
1156:Source\LwIP\src\core\ipv4/etharp.c ****   {
1157:Source\LwIP\src\core\ipv4/etharp.c ****     ethernet_output(netif, p, ethsrc_addr, ethdst_addr, ETHTYPE_ARP);
 725              		.loc 1 1157 0
 726 0082 0A4B     		ldr	r3, .L43+4
 727 0084 0093     		str	r3, [sp]
 728 0086 059B     		ldr	r3, [sp, #20]
 729 0088 049A     		ldr	r2, [sp, #16]
 730 008a 2100     		movs	r1, r4
 731 008c 0398     		ldr	r0, [sp, #12]
 732 008e FFF7FEFF 		bl	ethernet_output
 733              	.LVL93:
1158:Source\LwIP\src\core\ipv4/etharp.c ****   }
1159:Source\LwIP\src\core\ipv4/etharp.c **** 
1160:Source\LwIP\src\core\ipv4/etharp.c ****   ETHARP_STATS_INC(etharp.xmit);
 734              		.loc 1 1160 0
 735 0092 054A     		ldr	r2, .L43
 736 0094 138B     		ldrh	r3, [r2, #24]
 737 0096 0133     		adds	r3, r3, #1
 738 0098 1383     		strh	r3, [r2, #24]
1161:Source\LwIP\src\core\ipv4/etharp.c ****   /* free ARP query packet */
1162:Source\LwIP\src\core\ipv4/etharp.c ****   pbuf_free(p);
 739              		.loc 1 1162 0
 740 009a 2000     		movs	r0, r4
 741 009c FFF7FEFF 		bl	pbuf_free
 742              	.LVL94:
1163:Source\LwIP\src\core\ipv4/etharp.c ****   p = NULL;
1164:Source\LwIP\src\core\ipv4/etharp.c ****   /* could not allocate pbuf for ARP request */
1165:Source\LwIP\src\core\ipv4/etharp.c **** 
1166:Source\LwIP\src\core\ipv4/etharp.c ****   return result;
 743              		.loc 1 1166 0
 744 00a0 0020     		movs	r0, #0
 745              	.LVL95:
 746              	.L42:
1167:Source\LwIP\src\core\ipv4/etharp.c **** }
 747              		.loc 1 1167 0
 748 00a2 07B0     		add	sp, sp, #28
 749              		@ sp needed
 750              	.LVL96:
 751 00a4 F0BD     		pop	{r4, r5, r6, r7, pc}
 752              	.L44:
 753 00a6 C046     		.align	2
 754              	.L43:
 755 00a8 00000000 		.word	lwip_stats
 756 00ac 06080000 		.word	2054
 757              		.cfi_endproc
 758              	.LFE65:
ARM GAS  C:\Users\Phuong\AppData\Local\Temp\cczAUGdE.s 			page 35


 759              		.size	etharp_raw, .-etharp_raw
 760              		.section	.text.etharp_request_dst,"ax",%progbits
 761              		.align	2
 762              		.code	16
 763              		.thumb_func
 764              		.type	etharp_request_dst, %function
 765              	etharp_request_dst:
 766              	.LFB66:
1168:Source\LwIP\src\core\ipv4/etharp.c **** 
1169:Source\LwIP\src\core\ipv4/etharp.c **** /**
1170:Source\LwIP\src\core\ipv4/etharp.c ****  * Send an ARP request packet asking for ipaddr to a specific eth address.
1171:Source\LwIP\src\core\ipv4/etharp.c ****  * Used to send unicast request to refresh the ARP table just before an entry
1172:Source\LwIP\src\core\ipv4/etharp.c ****  * times out
1173:Source\LwIP\src\core\ipv4/etharp.c ****  *
1174:Source\LwIP\src\core\ipv4/etharp.c ****  * @param netif the lwip network interface on which to send the request
1175:Source\LwIP\src\core\ipv4/etharp.c ****  * @param ipaddr the IP address for which to ask
1176:Source\LwIP\src\core\ipv4/etharp.c ****  * @param hw_dst_addr the ethernet address to send this packet to
1177:Source\LwIP\src\core\ipv4/etharp.c ****  * @return ERR_OK if the request has been sent
1178:Source\LwIP\src\core\ipv4/etharp.c ****  *         ERR_MEM if the ARP packet couldn't be allocated
1179:Source\LwIP\src\core\ipv4/etharp.c ****  *         any other err_t on failure
1180:Source\LwIP\src\core\ipv4/etharp.c ****  */
1181:Source\LwIP\src\core\ipv4/etharp.c **** static err_t
1182:Source\LwIP\src\core\ipv4/etharp.c **** etharp_request_dst(struct netif *netif, const ip4_addr_t *ipaddr, const struct eth_addr* hw_dst_add
1183:Source\LwIP\src\core\ipv4/etharp.c **** {
 767              		.loc 1 1183 0
 768              		.cfi_startproc
 769              		@ args = 0, pretend = 0, frame = 0
 770              		@ frame_needed = 0, uses_anonymous_args = 0
 771              	.LVL97:
 772 0000 30B5     		push	{r4, r5, lr}
 773              		.cfi_def_cfa_offset 12
 774              		.cfi_offset 4, -12
 775              		.cfi_offset 5, -8
 776              		.cfi_offset 14, -4
 777 0002 85B0     		sub	sp, sp, #20
 778              		.cfi_def_cfa_offset 32
1184:Source\LwIP\src\core\ipv4/etharp.c ****   return etharp_raw(netif, (struct eth_addr *)netif->hwaddr, hw_dst_addr,
1185:Source\LwIP\src\core\ipv4/etharp.c ****                     (struct eth_addr *)netif->hwaddr, netif_ip4_addr(netif), &ethzero,
 779              		.loc 1 1185 0
 780 0004 0400     		movs	r4, r0
 781 0006 3734     		adds	r4, r4, #55
 782 0008 031D     		adds	r3, r0, #4
1184:Source\LwIP\src\core\ipv4/etharp.c ****   return etharp_raw(netif, (struct eth_addr *)netif->hwaddr, hw_dst_addr,
 783              		.loc 1 1184 0
 784 000a 0125     		movs	r5, #1
 785 000c 0395     		str	r5, [sp, #12]
 786 000e 0291     		str	r1, [sp, #8]
 787 0010 0449     		ldr	r1, .L46
 788              	.LVL98:
 789 0012 0191     		str	r1, [sp, #4]
 790 0014 0093     		str	r3, [sp]
 791 0016 2300     		movs	r3, r4
 792 0018 2100     		movs	r1, r4
 793 001a FFF7FEFF 		bl	etharp_raw
 794              	.LVL99:
1186:Source\LwIP\src\core\ipv4/etharp.c ****                     ipaddr, ARP_REQUEST);
1187:Source\LwIP\src\core\ipv4/etharp.c **** }
ARM GAS  C:\Users\Phuong\AppData\Local\Temp\cczAUGdE.s 			page 36


 795              		.loc 1 1187 0
 796 001e 05B0     		add	sp, sp, #20
 797              		@ sp needed
 798              	.LVL100:
 799 0020 30BD     		pop	{r4, r5, pc}
 800              	.L47:
 801 0022 C046     		.align	2
 802              	.L46:
 803 0024 00000000 		.word	ethzero
 804              		.cfi_endproc
 805              	.LFE66:
 806              		.size	etharp_request_dst, .-etharp_request_dst
 807              		.section	.text.etharp_cleanup_netif,"ax",%progbits
 808              		.align	2
 809              		.global	etharp_cleanup_netif
 810              		.code	16
 811              		.thumb_func
 812              		.type	etharp_cleanup_netif, %function
 813              	etharp_cleanup_netif:
 814              	.LFB58:
 560:Source\LwIP\src\core\ipv4/etharp.c ****   u8_t i;
 815              		.loc 1 560 0
 816              		.cfi_startproc
 817              		@ args = 0, pretend = 0, frame = 0
 818              		@ frame_needed = 0, uses_anonymous_args = 0
 819              	.LVL101:
 820 0000 70B5     		push	{r4, r5, r6, lr}
 821              		.cfi_def_cfa_offset 16
 822              		.cfi_offset 4, -16
 823              		.cfi_offset 5, -12
 824              		.cfi_offset 6, -8
 825              		.cfi_offset 14, -4
 826 0002 0500     		movs	r5, r0
 827              	.LVL102:
 563:Source\LwIP\src\core\ipv4/etharp.c ****     u8_t state = arp_table[i].state;
 828              		.loc 1 563 0
 829 0004 0024     		movs	r4, #0
 830 0006 14E0     		b	.L49
 831              	.LVL103:
 832              	.L51:
 833              	.LBB4:
 564:Source\LwIP\src\core\ipv4/etharp.c ****     if ((state != ETHARP_STATE_EMPTY) && (arp_table[i].netif == netif)) {
 834              		.loc 1 564 0
 835 0008 2000     		movs	r0, r4
 836 000a 6200     		lsls	r2, r4, #1
 837 000c 1219     		adds	r2, r2, r4
 838 000e D300     		lsls	r3, r2, #3
 839 0010 094A     		ldr	r2, .L52
 840 0012 D318     		adds	r3, r2, r3
 841 0014 1B7D     		ldrb	r3, [r3, #20]
 842              	.LVL104:
 565:Source\LwIP\src\core\ipv4/etharp.c ****       etharp_free_entry(i);
 843              		.loc 1 565 0
 844 0016 002B     		cmp	r3, #0
 845 0018 09D0     		beq	.L50
 565:Source\LwIP\src\core\ipv4/etharp.c ****       etharp_free_entry(i);
 846              		.loc 1 565 0 is_stmt 0 discriminator 1
ARM GAS  C:\Users\Phuong\AppData\Local\Temp\cczAUGdE.s 			page 37


 847 001a 6200     		lsls	r2, r4, #1
 848 001c 1219     		adds	r2, r2, r4
 849 001e D300     		lsls	r3, r2, #3
 850              	.LVL105:
 851 0020 054A     		ldr	r2, .L52
 852              	.LVL106:
 853 0022 D318     		adds	r3, r2, r3
 854              	.LVL107:
 855 0024 9B68     		ldr	r3, [r3, #8]
 856              	.LVL108:
 857 0026 AB42     		cmp	r3, r5
 858 0028 01D1     		bne	.L50
 566:Source\LwIP\src\core\ipv4/etharp.c ****     }
 859              		.loc 1 566 0 is_stmt 1
 860 002a FFF7FEFF 		bl	etharp_free_entry
 861              	.LVL109:
 862              	.L50:
 863              	.LBE4:
 563:Source\LwIP\src\core\ipv4/etharp.c ****     u8_t state = arp_table[i].state;
 864              		.loc 1 563 0 discriminator 2
 865 002e 0134     		adds	r4, r4, #1
 866              	.LVL110:
 867 0030 E4B2     		uxtb	r4, r4
 868              	.LVL111:
 869              	.L49:
 563:Source\LwIP\src\core\ipv4/etharp.c ****     u8_t state = arp_table[i].state;
 870              		.loc 1 563 0 is_stmt 0 discriminator 1
 871 0032 092C     		cmp	r4, #9
 872 0034 E8D9     		bls	.L51
 569:Source\LwIP\src\core\ipv4/etharp.c **** 
 873              		.loc 1 569 0 is_stmt 1
 874              		@ sp needed
 875              	.LVL112:
 876              	.LVL113:
 877 0036 70BD     		pop	{r4, r5, r6, pc}
 878              	.L53:
 879              		.align	2
 880              	.L52:
 881 0038 00000000 		.word	.LANCHOR0
 882              		.cfi_endproc
 883              	.LFE58:
 884              		.size	etharp_cleanup_netif, .-etharp_cleanup_netif
 885              		.section	.text.etharp_find_addr,"ax",%progbits
 886              		.align	2
 887              		.global	etharp_find_addr
 888              		.code	16
 889              		.thumb_func
 890              		.type	etharp_find_addr, %function
 891              	etharp_find_addr:
 892              	.LFB59:
 585:Source\LwIP\src\core\ipv4/etharp.c ****   s8_t i;
 893              		.loc 1 585 0
 894              		.cfi_startproc
 895              		@ args = 0, pretend = 0, frame = 0
 896              		@ frame_needed = 0, uses_anonymous_args = 0
 897              	.LVL114:
 898 0000 70B5     		push	{r4, r5, r6, lr}
ARM GAS  C:\Users\Phuong\AppData\Local\Temp\cczAUGdE.s 			page 38


 899              		.cfi_def_cfa_offset 16
 900              		.cfi_offset 4, -16
 901              		.cfi_offset 5, -12
 902              		.cfi_offset 6, -8
 903              		.cfi_offset 14, -4
 904 0002 0600     		movs	r6, r0
 905 0004 0800     		movs	r0, r1
 906              	.LVL115:
 907 0006 1500     		movs	r5, r2
 908 0008 1C00     		movs	r4, r3
 593:Source\LwIP\src\core\ipv4/etharp.c ****   if ((i >= 0) && (arp_table[i].state >= ETHARP_STATE_STABLE)) {
 909              		.loc 1 593 0
 910 000a 3200     		movs	r2, r6
 911              	.LVL116:
 912 000c 0221     		movs	r1, #2
 913              	.LVL117:
 914 000e FFF7FEFF 		bl	etharp_find_entry
 915              	.LVL118:
 594:Source\LwIP\src\core\ipv4/etharp.c ****       *eth_ret = &arp_table[i].ethaddr;
 916              		.loc 1 594 0
 917 0012 0028     		cmp	r0, #0
 918 0014 14DB     		blt	.L56
 594:Source\LwIP\src\core\ipv4/etharp.c ****       *eth_ret = &arp_table[i].ethaddr;
 919              		.loc 1 594 0 is_stmt 0 discriminator 1
 920 0016 4200     		lsls	r2, r0, #1
 921 0018 1218     		adds	r2, r2, r0
 922 001a D300     		lsls	r3, r2, #3
 923 001c 0B4A     		ldr	r2, .L58
 924 001e D318     		adds	r3, r2, r3
 925 0020 1B7D     		ldrb	r3, [r3, #20]
 926 0022 012B     		cmp	r3, #1
 927 0024 0FD9     		bls	.L57
 595:Source\LwIP\src\core\ipv4/etharp.c ****       *ip_ret = &arp_table[i].ipaddr;
 928              		.loc 1 595 0 is_stmt 1
 929 0026 1100     		movs	r1, r2
 930 0028 4200     		lsls	r2, r0, #1
 931 002a 1618     		adds	r6, r2, r0
 932              	.LVL119:
 933 002c F300     		lsls	r3, r6, #3
 934 002e 0833     		adds	r3, r3, #8
 935 0030 CB18     		adds	r3, r1, r3
 936 0032 0433     		adds	r3, r3, #4
 937 0034 2B60     		str	r3, [r5]
 596:Source\LwIP\src\core\ipv4/etharp.c ****       return i;
 938              		.loc 1 596 0
 939 0036 F300     		lsls	r3, r6, #3
 940 0038 CB18     		adds	r3, r1, r3
 941 003a 0433     		adds	r3, r3, #4
 942 003c 2360     		str	r3, [r4]
 597:Source\LwIP\src\core\ipv4/etharp.c ****   }
 943              		.loc 1 597 0
 944 003e 04E0     		b	.L55
 945              	.LVL120:
 946              	.L56:
 599:Source\LwIP\src\core\ipv4/etharp.c **** }
 947              		.loc 1 599 0
 948 0040 0120     		movs	r0, #1
ARM GAS  C:\Users\Phuong\AppData\Local\Temp\cczAUGdE.s 			page 39


 949              	.LVL121:
 950 0042 4042     		rsbs	r0, r0, #0
 951 0044 01E0     		b	.L55
 952              	.LVL122:
 953              	.L57:
 954 0046 0120     		movs	r0, #1
 955              	.LVL123:
 956 0048 4042     		rsbs	r0, r0, #0
 957              	.LVL124:
 958              	.L55:
 600:Source\LwIP\src\core\ipv4/etharp.c **** 
 959              		.loc 1 600 0
 960              		@ sp needed
 961              	.LVL125:
 962              	.LVL126:
 963 004a 70BD     		pop	{r4, r5, r6, pc}
 964              	.L59:
 965              		.align	2
 966              	.L58:
 967 004c 00000000 		.word	.LANCHOR0
 968              		.cfi_endproc
 969              	.LFE59:
 970              		.size	etharp_find_addr, .-etharp_find_addr
 971              		.section	.text.etharp_get_entry,"ax",%progbits
 972              		.align	2
 973              		.global	etharp_get_entry
 974              		.code	16
 975              		.thumb_func
 976              		.type	etharp_get_entry, %function
 977              	etharp_get_entry:
 978              	.LFB60:
 613:Source\LwIP\src\core\ipv4/etharp.c ****   LWIP_ASSERT("ipaddr != NULL", ipaddr != NULL);
 979              		.loc 1 613 0
 980              		.cfi_startproc
 981              		@ args = 0, pretend = 0, frame = 0
 982              		@ frame_needed = 0, uses_anonymous_args = 0
 983              	.LVL127:
 984 0000 F0B5     		push	{r4, r5, r6, r7, lr}
 985              		.cfi_def_cfa_offset 20
 986              		.cfi_offset 4, -20
 987              		.cfi_offset 5, -16
 988              		.cfi_offset 6, -12
 989              		.cfi_offset 7, -8
 990              		.cfi_offset 14, -4
 618:Source\LwIP\src\core\ipv4/etharp.c ****     *ipaddr  = &arp_table[i].ipaddr;
 991              		.loc 1 618 0
 992 0002 0928     		cmp	r0, #9
 993 0004 17D8     		bhi	.L62
 618:Source\LwIP\src\core\ipv4/etharp.c ****     *ipaddr  = &arp_table[i].ipaddr;
 994              		.loc 1 618 0 is_stmt 0 discriminator 1
 995 0006 4500     		lsls	r5, r0, #1
 996 0008 2D18     		adds	r5, r5, r0
 997 000a EC00     		lsls	r4, r5, #3
 998 000c 0C4D     		ldr	r5, .L64
 999 000e 2C19     		adds	r4, r5, r4
 1000 0010 247D     		ldrb	r4, [r4, #20]
 1001 0012 012C     		cmp	r4, #1
ARM GAS  C:\Users\Phuong\AppData\Local\Temp\cczAUGdE.s 			page 40


 1002 0014 11D9     		bls	.L63
 619:Source\LwIP\src\core\ipv4/etharp.c ****     *netif   = arp_table[i].netif;
 1003              		.loc 1 619 0 is_stmt 1
 1004 0016 4600     		lsls	r6, r0, #1
 1005 0018 3718     		adds	r7, r6, r0
 1006 001a FC00     		lsls	r4, r7, #3
 1007 001c 2C19     		adds	r4, r5, r4
 1008 001e 271D     		adds	r7, r4, #4
 1009 0020 0F60     		str	r7, [r1]
 620:Source\LwIP\src\core\ipv4/etharp.c ****     *eth_ret = &arp_table[i].ethaddr;
 1010              		.loc 1 620 0
 1011 0022 A168     		ldr	r1, [r4, #8]
 1012              	.LVL128:
 1013 0024 1160     		str	r1, [r2]
 621:Source\LwIP\src\core\ipv4/etharp.c ****     return 1;
 1014              		.loc 1 621 0
 1015 0026 3018     		adds	r0, r6, r0
 1016              	.LVL129:
 1017 0028 C200     		lsls	r2, r0, #3
 1018              	.LVL130:
 1019 002a 0832     		adds	r2, r2, #8
 1020 002c AA18     		adds	r2, r5, r2
 1021 002e 0432     		adds	r2, r2, #4
 1022 0030 1A60     		str	r2, [r3]
 622:Source\LwIP\src\core\ipv4/etharp.c ****   } else {
 1023              		.loc 1 622 0
 1024 0032 0120     		movs	r0, #1
 1025 0034 02E0     		b	.L61
 1026              	.LVL131:
 1027              	.L62:
 624:Source\LwIP\src\core\ipv4/etharp.c ****   }
 1028              		.loc 1 624 0
 1029 0036 0020     		movs	r0, #0
 1030              	.LVL132:
 1031 0038 00E0     		b	.L61
 1032              	.LVL133:
 1033              	.L63:
 1034 003a 0020     		movs	r0, #0
 1035              	.LVL134:
 1036              	.L61:
 626:Source\LwIP\src\core\ipv4/etharp.c **** 
 1037              		.loc 1 626 0
 1038              		@ sp needed
 1039 003c F0BD     		pop	{r4, r5, r6, r7, pc}
 1040              	.L65:
 1041 003e C046     		.align	2
 1042              	.L64:
 1043 0040 00000000 		.word	.LANCHOR0
 1044              		.cfi_endproc
 1045              	.LFE60:
 1046              		.size	etharp_get_entry, .-etharp_get_entry
 1047              		.section	.text.etharp_input,"ax",%progbits
 1048              		.align	2
 1049              		.global	etharp_input
 1050              		.code	16
 1051              		.thumb_func
 1052              		.type	etharp_input, %function
ARM GAS  C:\Users\Phuong\AppData\Local\Temp\cczAUGdE.s 			page 41


 1053              	etharp_input:
 1054              	.LFB61:
 642:Source\LwIP\src\core\ipv4/etharp.c ****   struct etharp_hdr *hdr;
 1055              		.loc 1 642 0
 1056              		.cfi_startproc
 1057              		@ args = 0, pretend = 0, frame = 8
 1058              		@ frame_needed = 0, uses_anonymous_args = 0
 1059              	.LVL135:
 1060 0000 F0B5     		push	{r4, r5, r6, r7, lr}
 1061              		.cfi_def_cfa_offset 20
 1062              		.cfi_offset 4, -20
 1063              		.cfi_offset 5, -16
 1064              		.cfi_offset 6, -12
 1065              		.cfi_offset 7, -8
 1066              		.cfi_offset 14, -4
 1067 0002 4746     		mov	r7, r8
 1068 0004 80B4     		push	{r7}
 1069              		.cfi_def_cfa_offset 24
 1070              		.cfi_offset 8, -24
 1071 0006 86B0     		sub	sp, sp, #24
 1072              		.cfi_def_cfa_offset 48
 1073 0008 0400     		movs	r4, r0
 1074 000a 0E1E     		subs	r6, r1, #0
 648:Source\LwIP\src\core\ipv4/etharp.c **** 
 1075              		.loc 1 648 0
 1076 000c 6BD0     		beq	.L66
 650:Source\LwIP\src\core\ipv4/etharp.c **** 
 1077              		.loc 1 650 0
 1078 000e 4568     		ldr	r5, [r0, #4]
 1079              	.LVL136:
 653:Source\LwIP\src\core\ipv4/etharp.c ****       (hdr->hwlen != ETH_HWADDR_LEN) ||
 1080              		.loc 1 653 0
 1081 0010 2A78     		ldrb	r2, [r5]
 1082 0012 6B78     		ldrb	r3, [r5, #1]
 1083 0014 1B02     		lsls	r3, r3, #8
 1084 0016 1343     		orrs	r3, r2
 1085 0018 8022     		movs	r2, #128
 1086 001a 5200     		lsls	r2, r2, #1
 1087 001c 9342     		cmp	r3, r2
 1088 001e 0BD1     		bne	.L68
 654:Source\LwIP\src\core\ipv4/etharp.c ****       (hdr->protolen != sizeof(ip4_addr_t)) ||
 1089              		.loc 1 654 0 discriminator 1
 1090 0020 2B79     		ldrb	r3, [r5, #4]
 653:Source\LwIP\src\core\ipv4/etharp.c ****       (hdr->hwlen != ETH_HWADDR_LEN) ||
 1091              		.loc 1 653 0 discriminator 1
 1092 0022 062B     		cmp	r3, #6
 1093 0024 08D1     		bne	.L68
 655:Source\LwIP\src\core\ipv4/etharp.c ****       (hdr->proto != PP_HTONS(ETHTYPE_IP)))  {
 1094              		.loc 1 655 0
 1095 0026 6B79     		ldrb	r3, [r5, #5]
 654:Source\LwIP\src\core\ipv4/etharp.c ****       (hdr->protolen != sizeof(ip4_addr_t)) ||
 1096              		.loc 1 654 0
 1097 0028 042B     		cmp	r3, #4
 1098 002a 05D1     		bne	.L68
 656:Source\LwIP\src\core\ipv4/etharp.c ****     LWIP_DEBUGF(ETHARP_DEBUG | LWIP_DBG_TRACE | LWIP_DBG_LEVEL_WARNING,
 1099              		.loc 1 656 0
 1100 002c AA78     		ldrb	r2, [r5, #2]
ARM GAS  C:\Users\Phuong\AppData\Local\Temp\cczAUGdE.s 			page 42


 1101 002e EB78     		ldrb	r3, [r5, #3]
 1102 0030 1B02     		lsls	r3, r3, #8
 1103 0032 1343     		orrs	r3, r2
 655:Source\LwIP\src\core\ipv4/etharp.c ****       (hdr->proto != PP_HTONS(ETHTYPE_IP)))  {
 1104              		.loc 1 655 0
 1105 0034 082B     		cmp	r3, #8
 1106 0036 0AD0     		beq	.L69
 1107              	.L68:
 660:Source\LwIP\src\core\ipv4/etharp.c ****     ETHARP_STATS_INC(etharp.drop);
 1108              		.loc 1 660 0
 1109 0038 2D4B     		ldr	r3, .L79
 1110 003a 1A8D     		ldrh	r2, [r3, #40]
 1111 003c 0132     		adds	r2, r2, #1
 1112 003e 1A85     		strh	r2, [r3, #40]
 661:Source\LwIP\src\core\ipv4/etharp.c ****     pbuf_free(p);
 1113              		.loc 1 661 0
 1114 0040 DA8B     		ldrh	r2, [r3, #30]
 1115 0042 0132     		adds	r2, r2, #1
 1116 0044 DA83     		strh	r2, [r3, #30]
 662:Source\LwIP\src\core\ipv4/etharp.c ****     return;
 1117              		.loc 1 662 0
 1118 0046 2000     		movs	r0, r4
 1119              	.LVL137:
 1120 0048 FFF7FEFF 		bl	pbuf_free
 1121              	.LVL138:
 663:Source\LwIP\src\core\ipv4/etharp.c ****   }
 1122              		.loc 1 663 0
 1123 004c 4BE0     		b	.L66
 1124              	.LVL139:
 1125              	.L69:
 665:Source\LwIP\src\core\ipv4/etharp.c **** 
 1126              		.loc 1 665 0
 1127 004e 284A     		ldr	r2, .L79
 1128 0050 538B     		ldrh	r3, [r2, #26]
 1129 0052 0133     		adds	r3, r3, #1
 1130 0054 5383     		strh	r3, [r2, #26]
 676:Source\LwIP\src\core\ipv4/etharp.c ****   IPADDR2_COPY(&dipaddr, &hdr->dipaddr);
 1131              		.loc 1 676 0
 1132 0056 0422     		movs	r2, #4
 1133 0058 2900     		movs	r1, r5
 1134              	.LVL140:
 1135 005a 0E31     		adds	r1, r1, #14
 1136 005c 05A8     		add	r0, sp, #20
 1137              	.LVL141:
 1138 005e FFF7FEFF 		bl	memcpy
 1139              	.LVL142:
 677:Source\LwIP\src\core\ipv4/etharp.c **** 
 1140              		.loc 1 677 0
 1141 0062 2900     		movs	r1, r5
 1142 0064 1831     		adds	r1, r1, #24
 1143 0066 0422     		movs	r2, #4
 1144 0068 04A8     		add	r0, sp, #16
 1145 006a FFF7FEFF 		bl	memcpy
 1146              	.LVL143:
 680:Source\LwIP\src\core\ipv4/etharp.c ****     for_us = 0;
 1147              		.loc 1 680 0
 1148 006e 7368     		ldr	r3, [r6, #4]
ARM GAS  C:\Users\Phuong\AppData\Local\Temp\cczAUGdE.s 			page 43


 1149 0070 002B     		cmp	r3, #0
 1150 0072 05D0     		beq	.L76
 684:Source\LwIP\src\core\ipv4/etharp.c ****   }
 1151              		.loc 1 684 0
 1152 0074 049A     		ldr	r2, [sp, #16]
 1153 0076 9F1A     		subs	r7, r3, r2
 1154 0078 7B42     		rsbs	r3, r7, #0
 1155 007a 5F41     		adcs	r7, r7, r3
 1156 007c FFB2     		uxtb	r7, r7
 1157              	.LVL144:
 1158 007e 00E0     		b	.L70
 1159              	.LVL145:
 1160              	.L76:
 681:Source\LwIP\src\core\ipv4/etharp.c ****   } else {
 1161              		.loc 1 681 0
 1162 0080 0027     		movs	r7, #0
 1163              	.L70:
 1164              	.LVL146:
 692:Source\LwIP\src\core\ipv4/etharp.c ****                    for_us ? ETHARP_FLAG_TRY_HARD : ETHARP_FLAG_FIND_ONLY);
 1165              		.loc 1 692 0
 1166 0082 0823     		movs	r3, #8
 1167 0084 9846     		mov	r8, r3
 1168 0086 A844     		add	r8, r8, r5
 1169 0088 002F     		cmp	r7, #0
 1170 008a 01D0     		beq	.L77
 1171 008c 073B     		subs	r3, r3, #7
 1172 008e 00E0     		b	.L71
 1173              	.L77:
 1174 0090 0223     		movs	r3, #2
 1175              	.L71:
 692:Source\LwIP\src\core\ipv4/etharp.c ****                    for_us ? ETHARP_FLAG_TRY_HARD : ETHARP_FLAG_FIND_ONLY);
 1176              		.loc 1 692 0 is_stmt 0 discriminator 4
 1177 0092 4246     		mov	r2, r8
 1178 0094 05A9     		add	r1, sp, #20
 1179 0096 3000     		movs	r0, r6
 1180 0098 FFF7FEFF 		bl	etharp_update_arp_entry
 1181              	.LVL147:
 696:Source\LwIP\src\core\ipv4/etharp.c ****   /* ARP request? */
 1182              		.loc 1 696 0 is_stmt 1 discriminator 4
 1183 009c AA79     		ldrb	r2, [r5, #6]
 1184 009e EB79     		ldrb	r3, [r5, #7]
 1185 00a0 1B02     		lsls	r3, r3, #8
 1186 00a2 1343     		orrs	r3, r2
 1187 00a4 8022     		movs	r2, #128
 1188 00a6 5200     		lsls	r2, r2, #1
 1189 00a8 9342     		cmp	r3, r2
 1190 00aa 04D0     		beq	.L73
 1191 00ac 0132     		adds	r2, r2, #1
 1192 00ae FF32     		adds	r2, r2, #255
 1193 00b0 9342     		cmp	r3, r2
 1194 00b2 15D0     		beq	.L74
 1195 00b4 10E0     		b	.L78
 1196              	.L73:
 705:Source\LwIP\src\core\ipv4/etharp.c ****       /* send ARP response */
 1197              		.loc 1 705 0
 1198 00b6 002F     		cmp	r7, #0
 1199 00b8 12D0     		beq	.L74
ARM GAS  C:\Users\Phuong\AppData\Local\Temp\cczAUGdE.s 			page 44


 709:Source\LwIP\src\core\ipv4/etharp.c ****                  &hdr->shwaddr, &sipaddr,
 1200              		.loc 1 709 0
 1201 00ba 3100     		movs	r1, r6
 1202 00bc 3731     		adds	r1, r1, #55
 1203 00be 331D     		adds	r3, r6, #4
 707:Source\LwIP\src\core\ipv4/etharp.c ****                  (struct eth_addr *)netif->hwaddr, &hdr->shwaddr,
 1204              		.loc 1 707 0
 1205 00c0 0222     		movs	r2, #2
 1206 00c2 0392     		str	r2, [sp, #12]
 1207 00c4 05AA     		add	r2, sp, #20
 1208 00c6 0292     		str	r2, [sp, #8]
 1209 00c8 4246     		mov	r2, r8
 1210 00ca 0192     		str	r2, [sp, #4]
 1211 00cc 0093     		str	r3, [sp]
 1212 00ce 0B00     		movs	r3, r1
 1213 00d0 3000     		movs	r0, r6
 1214 00d2 FFF7FEFF 		bl	etharp_raw
 1215              	.LVL148:
 1216 00d6 03E0     		b	.L74
 1217              	.L78:
 735:Source\LwIP\src\core\ipv4/etharp.c ****     break;
 1218              		.loc 1 735 0
 1219 00d8 054A     		ldr	r2, .L79
 1220 00da 938D     		ldrh	r3, [r2, #44]
 1221 00dc 0133     		adds	r3, r3, #1
 1222 00de 9385     		strh	r3, [r2, #44]
 1223              	.L74:
 739:Source\LwIP\src\core\ipv4/etharp.c **** }
 1224              		.loc 1 739 0 discriminator 6
 1225 00e0 2000     		movs	r0, r4
 1226 00e2 FFF7FEFF 		bl	pbuf_free
 1227              	.LVL149:
 1228              	.L66:
 740:Source\LwIP\src\core\ipv4/etharp.c **** 
 1229              		.loc 1 740 0
 1230 00e6 06B0     		add	sp, sp, #24
 1231              		@ sp needed
 1232              	.LVL150:
 1233              	.LVL151:
 1234 00e8 04BC     		pop	{r2}
 1235 00ea 9046     		mov	r8, r2
 1236 00ec F0BD     		pop	{r4, r5, r6, r7, pc}
 1237              	.L80:
 1238 00ee C046     		.align	2
 1239              	.L79:
 1240 00f0 00000000 		.word	lwip_stats
 1241              		.cfi_endproc
 1242              	.LFE61:
 1243              		.size	etharp_input, .-etharp_input
 1244              		.section	.text.etharp_request,"ax",%progbits
 1245              		.align	2
 1246              		.global	etharp_request
 1247              		.code	16
 1248              		.thumb_func
 1249              		.type	etharp_request, %function
 1250              	etharp_request:
 1251              	.LFB67:
ARM GAS  C:\Users\Phuong\AppData\Local\Temp\cczAUGdE.s 			page 45


1188:Source\LwIP\src\core\ipv4/etharp.c **** 
1189:Source\LwIP\src\core\ipv4/etharp.c **** /**
1190:Source\LwIP\src\core\ipv4/etharp.c ****  * Send an ARP request packet asking for ipaddr.
1191:Source\LwIP\src\core\ipv4/etharp.c ****  *
1192:Source\LwIP\src\core\ipv4/etharp.c ****  * @param netif the lwip network interface on which to send the request
1193:Source\LwIP\src\core\ipv4/etharp.c ****  * @param ipaddr the IP address for which to ask
1194:Source\LwIP\src\core\ipv4/etharp.c ****  * @return ERR_OK if the request has been sent
1195:Source\LwIP\src\core\ipv4/etharp.c ****  *         ERR_MEM if the ARP packet couldn't be allocated
1196:Source\LwIP\src\core\ipv4/etharp.c ****  *         any other err_t on failure
1197:Source\LwIP\src\core\ipv4/etharp.c ****  */
1198:Source\LwIP\src\core\ipv4/etharp.c **** err_t
1199:Source\LwIP\src\core\ipv4/etharp.c **** etharp_request(struct netif *netif, const ip4_addr_t *ipaddr)
1200:Source\LwIP\src\core\ipv4/etharp.c **** {
 1252              		.loc 1 1200 0
 1253              		.cfi_startproc
 1254              		@ args = 0, pretend = 0, frame = 0
 1255              		@ frame_needed = 0, uses_anonymous_args = 0
 1256              	.LVL152:
 1257 0000 10B5     		push	{r4, lr}
 1258              		.cfi_def_cfa_offset 8
 1259              		.cfi_offset 4, -8
 1260              		.cfi_offset 14, -4
1201:Source\LwIP\src\core\ipv4/etharp.c ****   LWIP_DEBUGF(ETHARP_DEBUG | LWIP_DBG_TRACE, ("etharp_request: sending ARP request.\n"));
1202:Source\LwIP\src\core\ipv4/etharp.c ****   return etharp_request_dst(netif, ipaddr, &ethbroadcast);
 1261              		.loc 1 1202 0
 1262 0002 024A     		ldr	r2, .L82
 1263 0004 FFF7FEFF 		bl	etharp_request_dst
 1264              	.LVL153:
1203:Source\LwIP\src\core\ipv4/etharp.c **** }
 1265              		.loc 1 1203 0
 1266              		@ sp needed
 1267 0008 10BD     		pop	{r4, pc}
 1268              	.L83:
 1269 000a C046     		.align	2
 1270              	.L82:
 1271 000c 00000000 		.word	ethbroadcast
 1272              		.cfi_endproc
 1273              	.LFE67:
 1274              		.size	etharp_request, .-etharp_request
 1275              		.section	.text.etharp_tmr,"ax",%progbits
 1276              		.align	2
 1277              		.global	etharp_tmr
 1278              		.code	16
 1279              		.thumb_func
 1280              		.type	etharp_tmr, %function
 1281              	etharp_tmr:
 1282              	.LFB55:
 200:Source\LwIP\src\core\ipv4/etharp.c ****   u8_t i;
 1283              		.loc 1 200 0
 1284              		.cfi_startproc
 1285              		@ args = 0, pretend = 0, frame = 0
 1286              		@ frame_needed = 0, uses_anonymous_args = 0
 1287 0000 70B5     		push	{r4, r5, r6, lr}
 1288              		.cfi_def_cfa_offset 16
 1289              		.cfi_offset 4, -16
 1290              		.cfi_offset 5, -12
 1291              		.cfi_offset 6, -8
ARM GAS  C:\Users\Phuong\AppData\Local\Temp\cczAUGdE.s 			page 46


 1292              		.cfi_offset 14, -4
 1293              	.LVL154:
 205:Source\LwIP\src\core\ipv4/etharp.c ****     u8_t state = arp_table[i].state;
 1294              		.loc 1 205 0
 1295 0002 0024     		movs	r4, #0
 1296 0004 45E0     		b	.L85
 1297              	.LVL155:
 1298              	.L91:
 1299              	.LBB5:
 206:Source\LwIP\src\core\ipv4/etharp.c ****     if (state != ETHARP_STATE_EMPTY
 1300              		.loc 1 206 0
 1301 0006 2000     		movs	r0, r4
 1302 0008 6200     		lsls	r2, r4, #1
 1303 000a 1219     		adds	r2, r2, r4
 1304 000c D300     		lsls	r3, r2, #3
 1305 000e 224A     		ldr	r2, .L92
 1306 0010 D318     		adds	r3, r2, r3
 1307 0012 1B7D     		ldrb	r3, [r3, #20]
 1308              	.LVL156:
 207:Source\LwIP\src\core\ipv4/etharp.c **** #if ETHARP_SUPPORT_STATIC_ENTRIES
 1309              		.loc 1 207 0
 1310 0014 002B     		cmp	r3, #0
 1311 0016 3AD0     		beq	.L86
 212:Source\LwIP\src\core\ipv4/etharp.c ****       if ((arp_table[i].ctime >= ARP_MAXAGE) ||
 1312              		.loc 1 212 0
 1313 0018 6200     		lsls	r2, r4, #1
 1314 001a 1219     		adds	r2, r2, r4
 1315 001c D300     		lsls	r3, r2, #3
 1316              	.LVL157:
 1317 001e 1E4A     		ldr	r2, .L92
 1318              	.LVL158:
 1319 0020 D218     		adds	r2, r2, r3
 1320              	.LVL159:
 1321 0022 538A     		ldrh	r3, [r2, #18]
 1322 0024 0133     		adds	r3, r3, #1
 1323 0026 9BB2     		uxth	r3, r3
 1324 0028 5382     		strh	r3, [r2, #18]
 213:Source\LwIP\src\core\ipv4/etharp.c ****           ((arp_table[i].state == ETHARP_STATE_PENDING)  &&
 1325              		.loc 1 213 0
 1326 002a 2C22     		movs	r2, #44
 1327              	.LVL160:
 1328 002c FF32     		adds	r2, r2, #255
 1329 002e 9342     		cmp	r3, r2
 1330 0030 09D8     		bhi	.L87
 214:Source\LwIP\src\core\ipv4/etharp.c ****            (arp_table[i].ctime >= ARP_MAXPENDING))) {
 1331              		.loc 1 214 0 discriminator 1
 1332 0032 6100     		lsls	r1, r4, #1
 1333              	.LVL161:
 1334 0034 0919     		adds	r1, r1, r4
 1335              	.LVL162:
 1336 0036 CA00     		lsls	r2, r1, #3
 1337              	.LVL163:
 1338 0038 1749     		ldr	r1, .L92
 1339              	.LVL164:
 1340 003a 8A18     		adds	r2, r1, r2
 1341              	.LVL165:
 1342 003c 127D     		ldrb	r2, [r2, #20]
ARM GAS  C:\Users\Phuong\AppData\Local\Temp\cczAUGdE.s 			page 47


 1343              	.LVL166:
 213:Source\LwIP\src\core\ipv4/etharp.c ****           ((arp_table[i].state == ETHARP_STATE_PENDING)  &&
 1344              		.loc 1 213 0 discriminator 1
 1345 003e 012A     		cmp	r2, #1
 1346 0040 04D1     		bne	.L88
 214:Source\LwIP\src\core\ipv4/etharp.c ****            (arp_table[i].ctime >= ARP_MAXPENDING))) {
 1347              		.loc 1 214 0
 1348 0042 042B     		cmp	r3, #4
 1349 0044 02D9     		bls	.L88
 1350              	.LVL167:
 1351              	.L87:
 220:Source\LwIP\src\core\ipv4/etharp.c ****       } else if (arp_table[i].state == ETHARP_STATE_STABLE_REREQUESTING_1) {
 1352              		.loc 1 220 0
 1353 0046 FFF7FEFF 		bl	etharp_free_entry
 1354              	.LVL168:
 1355 004a 20E0     		b	.L86
 1356              	.LVL169:
 1357              	.L88:
 221:Source\LwIP\src\core\ipv4/etharp.c ****         /* Don't send more than one request every 2 seconds. */
 1358              		.loc 1 221 0
 1359 004c 032A     		cmp	r2, #3
 1360 004e 07D1     		bne	.L89
 223:Source\LwIP\src\core\ipv4/etharp.c ****       } else if (arp_table[i].state == ETHARP_STATE_STABLE_REREQUESTING_2) {
 1361              		.loc 1 223 0
 1362 0050 4300     		lsls	r3, r0, #1
 1363 0052 1818     		adds	r0, r3, r0
 1364 0054 C300     		lsls	r3, r0, #3
 1365 0056 104A     		ldr	r2, .L92
 1366              	.LVL170:
 1367 0058 D318     		adds	r3, r2, r3
 1368 005a 0422     		movs	r2, #4
 1369 005c 1A75     		strb	r2, [r3, #20]
 1370              	.LVL171:
 1371 005e 16E0     		b	.L86
 1372              	.LVL172:
 1373              	.L89:
 224:Source\LwIP\src\core\ipv4/etharp.c ****         /* Reset state to stable, so that the next transmitted packet will
 1374              		.loc 1 224 0
 1375 0060 042A     		cmp	r2, #4
 1376 0062 07D1     		bne	.L90
 227:Source\LwIP\src\core\ipv4/etharp.c ****       } else if (arp_table[i].state == ETHARP_STATE_PENDING) {
 1377              		.loc 1 227 0
 1378 0064 4300     		lsls	r3, r0, #1
 1379 0066 1818     		adds	r0, r3, r0
 1380 0068 C300     		lsls	r3, r0, #3
 1381 006a 0B4A     		ldr	r2, .L92
 1382              	.LVL173:
 1383 006c D318     		adds	r3, r2, r3
 1384 006e 0222     		movs	r2, #2
 1385 0070 1A75     		strb	r2, [r3, #20]
 1386              	.LVL174:
 1387 0072 0CE0     		b	.L86
 1388              	.LVL175:
 1389              	.L90:
 228:Source\LwIP\src\core\ipv4/etharp.c ****         /* still pending, resend an ARP query */
 1390              		.loc 1 228 0
 1391 0074 012A     		cmp	r2, #1
ARM GAS  C:\Users\Phuong\AppData\Local\Temp\cczAUGdE.s 			page 48


 1392 0076 0AD1     		bne	.L86
 230:Source\LwIP\src\core\ipv4/etharp.c ****       }
 1393              		.loc 1 230 0
 1394 0078 074A     		ldr	r2, .L92
 1395              	.LVL176:
 1396 007a 4300     		lsls	r3, r0, #1
 1397 007c 1D18     		adds	r5, r3, r0
 1398 007e E900     		lsls	r1, r5, #3
 1399              	.LVL177:
 1400 0080 5118     		adds	r1, r2, r1
 1401 0082 0431     		adds	r1, r1, #4
 1402 0084 EB00     		lsls	r3, r5, #3
 1403 0086 D318     		adds	r3, r2, r3
 1404 0088 9868     		ldr	r0, [r3, #8]
 1405              	.LVL178:
 1406 008a FFF7FEFF 		bl	etharp_request
 1407              	.LVL179:
 1408              	.L86:
 1409              	.LBE5:
 205:Source\LwIP\src\core\ipv4/etharp.c ****     u8_t state = arp_table[i].state;
 1410              		.loc 1 205 0 discriminator 2
 1411 008e 0134     		adds	r4, r4, #1
 1412              	.LVL180:
 1413 0090 E4B2     		uxtb	r4, r4
 1414              	.LVL181:
 1415              	.L85:
 205:Source\LwIP\src\core\ipv4/etharp.c ****     u8_t state = arp_table[i].state;
 1416              		.loc 1 205 0 is_stmt 0 discriminator 1
 1417 0092 092C     		cmp	r4, #9
 1418 0094 B7D9     		bls	.L91
 234:Source\LwIP\src\core\ipv4/etharp.c **** 
 1419              		.loc 1 234 0 is_stmt 1
 1420              		@ sp needed
 1421              	.LVL182:
 1422 0096 70BD     		pop	{r4, r5, r6, pc}
 1423              	.L93:
 1424              		.align	2
 1425              	.L92:
 1426 0098 00000000 		.word	.LANCHOR0
 1427              		.cfi_endproc
 1428              	.LFE55:
 1429              		.size	etharp_tmr, .-etharp_tmr
 1430              		.section	.text.etharp_output_to_arp_index,"ax",%progbits
 1431              		.align	2
 1432              		.code	16
 1433              		.thumb_func
 1434              		.type	etharp_output_to_arp_index, %function
 1435              	etharp_output_to_arp_index:
 1436              	.LFB62:
 747:Source\LwIP\src\core\ipv4/etharp.c ****   LWIP_ASSERT("arp_table[arp_idx].state >= ETHARP_STATE_STABLE",
 1437              		.loc 1 747 0
 1438              		.cfi_startproc
 1439              		@ args = 0, pretend = 0, frame = 0
 1440              		@ frame_needed = 0, uses_anonymous_args = 0
 1441              	.LVL183:
 1442 0000 70B5     		push	{r4, r5, r6, lr}
 1443              		.cfi_def_cfa_offset 16
ARM GAS  C:\Users\Phuong\AppData\Local\Temp\cczAUGdE.s 			page 49


 1444              		.cfi_offset 4, -16
 1445              		.cfi_offset 5, -12
 1446              		.cfi_offset 6, -8
 1447              		.cfi_offset 14, -4
 1448 0002 82B0     		sub	sp, sp, #8
 1449              		.cfi_def_cfa_offset 24
 1450 0004 0500     		movs	r5, r0
 1451 0006 0E00     		movs	r6, r1
 1452 0008 1400     		movs	r4, r2
 753:Source\LwIP\src\core\ipv4/etharp.c ****     if (arp_table[arp_idx].ctime >= ARP_AGE_REREQUEST_USED_BROADCAST) {
 1453              		.loc 1 753 0
 1454 000a 5200     		lsls	r2, r2, #1
 1455              	.LVL184:
 1456 000c 1219     		adds	r2, r2, r4
 1457 000e D300     		lsls	r3, r2, #3
 1458 0010 264A     		ldr	r2, .L97
 1459 0012 D318     		adds	r3, r2, r3
 1460 0014 1B7D     		ldrb	r3, [r3, #20]
 1461 0016 022B     		cmp	r3, #2
 1462 0018 35D1     		bne	.L95
 754:Source\LwIP\src\core\ipv4/etharp.c ****       /* issue a standard request using broadcast */
 1463              		.loc 1 754 0
 1464 001a 6200     		lsls	r2, r4, #1
 1465 001c 1219     		adds	r2, r2, r4
 1466 001e D300     		lsls	r3, r2, #3
 1467 0020 224A     		ldr	r2, .L97
 1468 0022 D318     		adds	r3, r2, r3
 1469 0024 5B8A     		ldrh	r3, [r3, #18]
 1470 0026 8E22     		movs	r2, #142
 1471 0028 5200     		lsls	r2, r2, #1
 1472 002a 9342     		cmp	r3, r2
 1473 002c 11D9     		bls	.L96
 756:Source\LwIP\src\core\ipv4/etharp.c ****         arp_table[arp_idx].state = ETHARP_STATE_STABLE_REREQUESTING_1;
 1474              		.loc 1 756 0
 1475 002e 6200     		lsls	r2, r4, #1
 1476 0030 1219     		adds	r2, r2, r4
 1477 0032 D300     		lsls	r3, r2, #3
 1478 0034 1D49     		ldr	r1, .L97
 1479              	.LVL185:
 1480 0036 CB18     		adds	r3, r1, r3
 1481 0038 191D     		adds	r1, r3, #4
 1482 003a FFF7FEFF 		bl	etharp_request
 1483              	.LVL186:
 1484 003e 0028     		cmp	r0, #0
 1485 0040 21D1     		bne	.L95
 757:Source\LwIP\src\core\ipv4/etharp.c ****       }
 1486              		.loc 1 757 0
 1487 0042 6200     		lsls	r2, r4, #1
 1488 0044 1219     		adds	r2, r2, r4
 1489 0046 D300     		lsls	r3, r2, #3
 1490 0048 184A     		ldr	r2, .L97
 1491 004a D318     		adds	r3, r2, r3
 1492 004c 0322     		movs	r2, #3
 1493 004e 1A75     		strb	r2, [r3, #20]
 1494 0050 19E0     		b	.L95
 1495              	.LVL187:
 1496              	.L96:
ARM GAS  C:\Users\Phuong\AppData\Local\Temp\cczAUGdE.s 			page 50


 759:Source\LwIP\src\core\ipv4/etharp.c ****       /* issue a unicast request (for 15 seconds) to prevent unnecessary broadcast */
 1497              		.loc 1 759 0
 1498 0052 0E22     		movs	r2, #14
 1499 0054 FF32     		adds	r2, r2, #255
 1500 0056 9342     		cmp	r3, r2
 1501 0058 15D9     		bls	.L95
 761:Source\LwIP\src\core\ipv4/etharp.c ****         arp_table[arp_idx].state = ETHARP_STATE_STABLE_REREQUESTING_1;
 1502              		.loc 1 761 0
 1503 005a 144A     		ldr	r2, .L97
 1504 005c 6000     		lsls	r0, r4, #1
 1505              	.LVL188:
 1506 005e 0319     		adds	r3, r0, r4
 1507 0060 D900     		lsls	r1, r3, #3
 1508              	.LVL189:
 1509 0062 0B00     		movs	r3, r1
 1510 0064 5118     		adds	r1, r2, r1
 1511 0066 0431     		adds	r1, r1, #4
 1512 0068 0833     		adds	r3, r3, #8
 1513 006a D318     		adds	r3, r2, r3
 1514 006c 1A1D     		adds	r2, r3, #4
 1515 006e 2800     		movs	r0, r5
 1516 0070 FFF7FEFF 		bl	etharp_request_dst
 1517              	.LVL190:
 1518 0074 0028     		cmp	r0, #0
 1519 0076 06D1     		bne	.L95
 762:Source\LwIP\src\core\ipv4/etharp.c ****       }
 1520              		.loc 1 762 0
 1521 0078 6200     		lsls	r2, r4, #1
 1522 007a 1219     		adds	r2, r2, r4
 1523 007c D300     		lsls	r3, r2, #3
 1524 007e 0B4A     		ldr	r2, .L97
 1525 0080 D318     		adds	r3, r2, r3
 1526 0082 0322     		movs	r2, #3
 1527 0084 1A75     		strb	r2, [r3, #20]
 1528              	.L95:
 767:Source\LwIP\src\core\ipv4/etharp.c **** }
 1529              		.loc 1 767 0
 1530 0086 2A00     		movs	r2, r5
 1531 0088 3732     		adds	r2, r2, #55
 1532 008a 6300     		lsls	r3, r4, #1
 1533 008c 1C19     		adds	r4, r3, r4
 1534 008e E300     		lsls	r3, r4, #3
 1535 0090 0833     		adds	r3, r3, #8
 1536 0092 0649     		ldr	r1, .L97
 1537 0094 CB18     		adds	r3, r1, r3
 1538 0096 0433     		adds	r3, r3, #4
 1539 0098 8021     		movs	r1, #128
 1540 009a 0901     		lsls	r1, r1, #4
 1541 009c 0091     		str	r1, [sp]
 1542 009e 3100     		movs	r1, r6
 1543 00a0 2800     		movs	r0, r5
 1544 00a2 FFF7FEFF 		bl	ethernet_output
 1545              	.LVL191:
 768:Source\LwIP\src\core\ipv4/etharp.c **** 
 1546              		.loc 1 768 0
 1547 00a6 02B0     		add	sp, sp, #8
 1548              		@ sp needed
ARM GAS  C:\Users\Phuong\AppData\Local\Temp\cczAUGdE.s 			page 51


 1549              	.LVL192:
 1550              	.LVL193:
 1551 00a8 70BD     		pop	{r4, r5, r6, pc}
 1552              	.L98:
 1553 00aa C046     		.align	2
 1554              	.L97:
 1555 00ac 00000000 		.word	.LANCHOR0
 1556              		.cfi_endproc
 1557              	.LFE62:
 1558              		.size	etharp_output_to_arp_index, .-etharp_output_to_arp_index
 1559              		.section	.text.etharp_query,"ax",%progbits
 1560              		.align	2
 1561              		.global	etharp_query
 1562              		.code	16
 1563              		.thumb_func
 1564              		.type	etharp_query, %function
 1565              	etharp_query:
 1566              	.LFB64:
 931:Source\LwIP\src\core\ipv4/etharp.c ****   struct eth_addr * srcaddr = (struct eth_addr *)netif->hwaddr;
 1567              		.loc 1 931 0
 1568              		.cfi_startproc
 1569              		@ args = 0, pretend = 0, frame = 0
 1570              		@ frame_needed = 0, uses_anonymous_args = 0
 1571              	.LVL194:
 1572 0000 F0B5     		push	{r4, r5, r6, r7, lr}
 1573              		.cfi_def_cfa_offset 20
 1574              		.cfi_offset 4, -20
 1575              		.cfi_offset 5, -16
 1576              		.cfi_offset 6, -12
 1577              		.cfi_offset 7, -8
 1578              		.cfi_offset 14, -4
 1579 0002 4746     		mov	r7, r8
 1580 0004 80B4     		push	{r7}
 1581              		.cfi_def_cfa_offset 24
 1582              		.cfi_offset 8, -24
 1583 0006 82B0     		sub	sp, sp, #8
 1584              		.cfi_def_cfa_offset 32
 1585 0008 0700     		movs	r7, r0
 1586 000a 0D00     		movs	r5, r1
 1587 000c 1600     		movs	r6, r2
 932:Source\LwIP\src\core\ipv4/etharp.c ****   err_t result = ERR_MEM;
 1588              		.loc 1 932 0
 1589 000e 3723     		movs	r3, #55
 1590 0010 9846     		mov	r8, r3
 1591 0012 8044     		add	r8, r8, r0
 1592              	.LVL195:
 938:Source\LwIP\src\core\ipv4/etharp.c ****       ip4_addr_ismulticast(ipaddr) ||
 1593              		.loc 1 938 0
 1594 0014 0100     		movs	r1, r0
 1595              	.LVL196:
 1596 0016 2868     		ldr	r0, [r5]
 1597              	.LVL197:
 1598 0018 FFF7FEFF 		bl	ip4_addr_isbroadcast_u32
 1599              	.LVL198:
 1600 001c 0028     		cmp	r0, #0
 1601 001e 00D0     		beq	.LCB1664
 1602 0020 BDE0     		b	.L117	@long jump
ARM GAS  C:\Users\Phuong\AppData\Local\Temp\cczAUGdE.s 			page 52


 1603              	.LCB1664:
 939:Source\LwIP\src\core\ipv4/etharp.c ****       ip4_addr_isany(ipaddr)) {
 1604              		.loc 1 939 0 discriminator 1
 1605 0022 2A68     		ldr	r2, [r5]
 1606 0024 F023     		movs	r3, #240
 1607 0026 1340     		ands	r3, r2
 938:Source\LwIP\src\core\ipv4/etharp.c ****       ip4_addr_ismulticast(ipaddr) ||
 1608              		.loc 1 938 0 discriminator 1
 1609 0028 E02B     		cmp	r3, #224
 1610 002a 00D1     		bne	.LCB1669
 1611 002c BAE0     		b	.L118	@long jump
 1612              	.LCB1669:
 939:Source\LwIP\src\core\ipv4/etharp.c ****       ip4_addr_isany(ipaddr)) {
 1613              		.loc 1 939 0
 1614 002e 002D     		cmp	r5, #0
 1615 0030 00D1     		bne	.LCB1671
 1616 0032 BAE0     		b	.L119	@long jump
 1617              	.LCB1671:
 940:Source\LwIP\src\core\ipv4/etharp.c ****     LWIP_DEBUGF(ETHARP_DEBUG | LWIP_DBG_TRACE, ("etharp_query: will not add non-unicast IP address 
 1618              		.loc 1 940 0
 1619 0034 002A     		cmp	r2, #0
 1620 0036 00D1     		bne	.LCB1673
 1621 0038 BAE0     		b	.L120	@long jump
 1622              	.LCB1673:
 946:Source\LwIP\src\core\ipv4/etharp.c **** 
 1623              		.loc 1 946 0
 1624 003a 3A00     		movs	r2, r7
 1625 003c 0121     		movs	r1, #1
 1626 003e 2800     		movs	r0, r5
 1627 0040 FFF7FEFF 		bl	etharp_find_entry
 1628              	.LVL199:
 1629 0044 041E     		subs	r4, r0, #0
 1630              	.LVL200:
 949:Source\LwIP\src\core\ipv4/etharp.c ****     LWIP_DEBUGF(ETHARP_DEBUG | LWIP_DBG_TRACE, ("etharp_query: could not create ARP entry\n"));
 1631              		.loc 1 949 0
 1632 0046 07DA     		bge	.L101
 951:Source\LwIP\src\core\ipv4/etharp.c ****       LWIP_DEBUGF(ETHARP_DEBUG | LWIP_DBG_TRACE, ("etharp_query: packet dropped\n"));
 1633              		.loc 1 951 0
 1634 0048 002E     		cmp	r6, #0
 1635 004a 00D1     		bne	.LCB1685
 1636 004c B3E0     		b	.L121	@long jump
 1637              	.LCB1685:
 953:Source\LwIP\src\core\ipv4/etharp.c ****     }
 1638              		.loc 1 953 0
 1639 004e 5D4A     		ldr	r2, .L130
 1640 0050 938C     		ldrh	r3, [r2, #36]
 1641 0052 0133     		adds	r3, r3, #1
 1642 0054 9384     		strh	r3, [r2, #36]
 1643 0056 B0E0     		b	.L100
 1644              	.L101:
 959:Source\LwIP\src\core\ipv4/etharp.c ****     is_new_entry = 1;
 1645              		.loc 1 959 0
 1646 0058 4200     		lsls	r2, r0, #1
 1647 005a 1218     		adds	r2, r2, r0
 1648 005c D300     		lsls	r3, r2, #3
 1649 005e 5A4A     		ldr	r2, .L130+4
 1650 0060 D318     		adds	r3, r2, r3
ARM GAS  C:\Users\Phuong\AppData\Local\Temp\cczAUGdE.s 			page 53


 1651 0062 1B7D     		ldrb	r3, [r3, #20]
 1652 0064 002B     		cmp	r3, #0
 1653 0066 09D1     		bne	.L122
 1654              	.LVL201:
 961:Source\LwIP\src\core\ipv4/etharp.c ****     /* record network interface for re-sending arp request in etharp_tmr */
 1655              		.loc 1 961 0
 1656 0068 4200     		lsls	r2, r0, #1
 1657 006a 1218     		adds	r2, r2, r0
 1658 006c D300     		lsls	r3, r2, #3
 1659 006e 564A     		ldr	r2, .L130+4
 1660 0070 D318     		adds	r3, r2, r3
 1661 0072 0122     		movs	r2, #1
 1662 0074 1A75     		strb	r2, [r3, #20]
 963:Source\LwIP\src\core\ipv4/etharp.c ****   }
 1663              		.loc 1 963 0
 1664 0076 9F60     		str	r7, [r3, #8]
 960:Source\LwIP\src\core\ipv4/etharp.c ****     arp_table[i].state = ETHARP_STATE_PENDING;
 1665              		.loc 1 960 0
 1666 0078 0123     		movs	r3, #1
 1667 007a 00E0     		b	.L102
 1668              	.LVL202:
 1669              	.L122:
 934:Source\LwIP\src\core\ipv4/etharp.c ****   s8_t i; /* ARP entry index */
 1670              		.loc 1 934 0
 1671 007c 0023     		movs	r3, #0
 1672              	.LVL203:
 1673              	.L102:
 972:Source\LwIP\src\core\ipv4/etharp.c ****     /* try to resolve it; send out ARP request */
 1674              		.loc 1 972 0
 1675 007e 002B     		cmp	r3, #0
 1676 0080 01D1     		bne	.L103
 972:Source\LwIP\src\core\ipv4/etharp.c ****     /* try to resolve it; send out ARP request */
 1677              		.loc 1 972 0 is_stmt 0 discriminator 1
 1678 0082 002E     		cmp	r6, #0
 1679 0084 07D1     		bne	.L123
 1680              	.L103:
 974:Source\LwIP\src\core\ipv4/etharp.c ****     if (result != ERR_OK) {
 1681              		.loc 1 974 0 is_stmt 1
 1682 0086 2900     		movs	r1, r5
 1683 0088 3800     		movs	r0, r7
 1684              	.LVL204:
 1685 008a FFF7FEFF 		bl	etharp_request
 1686              	.LVL205:
 1687 008e 0300     		movs	r3, r0
 1688              	.LVL206:
 981:Source\LwIP\src\core\ipv4/etharp.c ****       return result;
 1689              		.loc 1 981 0
 1690 0090 002E     		cmp	r6, #0
 1691 0092 02D1     		bne	.L104
 1692 0094 91E0     		b	.L100
 1693              	.LVL207:
 1694              	.L123:
 933:Source\LwIP\src\core\ipv4/etharp.c ****   int is_new_entry = 0;
 1695              		.loc 1 933 0
 1696 0096 0123     		movs	r3, #1
 1697              	.LVL208:
 1698 0098 5B42     		rsbs	r3, r3, #0
ARM GAS  C:\Users\Phuong\AppData\Local\Temp\cczAUGdE.s 			page 54


 1699              	.LVL209:
 1700              	.L104:
 989:Source\LwIP\src\core\ipv4/etharp.c ****     /* we have a valid IP->Ethernet address mapping */
 1701              		.loc 1 989 0
 1702 009a 6100     		lsls	r1, r4, #1
 1703 009c 0919     		adds	r1, r1, r4
 1704 009e CA00     		lsls	r2, r1, #3
 1705 00a0 4949     		ldr	r1, .L130+4
 1706 00a2 8A18     		adds	r2, r1, r2
 1707 00a4 127D     		ldrb	r2, [r2, #20]
 1708 00a6 012A     		cmp	r2, #1
 1709 00a8 11D9     		bls	.L105
 991:Source\LwIP\src\core\ipv4/etharp.c ****     /* send the packet */
 1710              		.loc 1 991 0
 1711 00aa 7023     		movs	r3, #112
 1712              	.LVL210:
 1713 00ac 474A     		ldr	r2, .L130+8
 1714 00ae D454     		strb	r4, [r2, r3]
 993:Source\LwIP\src\core\ipv4/etharp.c ****   /* pending entry? (either just created or already pending */
 1715              		.loc 1 993 0
 1716 00b0 6000     		lsls	r0, r4, #1
 1717 00b2 0419     		adds	r4, r0, r4
 1718 00b4 E300     		lsls	r3, r4, #3
 1719 00b6 0833     		adds	r3, r3, #8
 1720 00b8 CB18     		adds	r3, r1, r3
 1721 00ba 0433     		adds	r3, r3, #4
 1722 00bc 8022     		movs	r2, #128
 1723 00be 1201     		lsls	r2, r2, #4
 1724 00c0 0092     		str	r2, [sp]
 1725 00c2 4246     		mov	r2, r8
 1726 00c4 3100     		movs	r1, r6
 1727 00c6 3800     		movs	r0, r7
 1728 00c8 FFF7FEFF 		bl	ethernet_output
 1729              	.LVL211:
 1730 00cc 75E0     		b	.L100
 1731              	.LVL212:
 1732              	.L105:
 995:Source\LwIP\src\core\ipv4/etharp.c ****     /* entry is still pending, queue the given packet 'q' */
 1733              		.loc 1 995 0
 1734 00ce 012A     		cmp	r2, #1
 1735 00d0 06D0     		beq	.L125
 1736              	.LBB6:
 1737 00d2 1800     		movs	r0, r3
 1738 00d4 71E0     		b	.L100
 1739              	.LVL213:
 1740              	.L108:
1005:Source\LwIP\src\core\ipv4/etharp.c ****         copy_needed = 1;
 1741              		.loc 1 1005 0
 1742 00d6 1A7B     		ldrb	r2, [r3, #12]
 1743 00d8 012A     		cmp	r2, #1
 1744 00da 06D1     		bne	.L126
1009:Source\LwIP\src\core\ipv4/etharp.c ****     }
 1745              		.loc 1 1009 0
 1746 00dc 1B68     		ldr	r3, [r3]
 1747              	.LVL214:
 1748 00de 00E0     		b	.L106
 1749              	.LVL215:
ARM GAS  C:\Users\Phuong\AppData\Local\Temp\cczAUGdE.s 			page 55


 1750              	.L125:
 1751              	.LBE6:
 1752 00e0 3300     		movs	r3, r6
 1753              	.LVL216:
 1754              	.L106:
 1755              	.LBB14:
1003:Source\LwIP\src\core\ipv4/etharp.c ****       LWIP_ASSERT("no packet queues allowed!", (p->len != p->tot_len) || (p->next == 0));
 1756              		.loc 1 1003 0
 1757 00e2 002B     		cmp	r3, #0
 1758 00e4 F7D1     		bne	.L108
 998:Source\LwIP\src\core\ipv4/etharp.c ****     /* IF q includes a PBUF_REF, PBUF_POOL or PBUF_RAM, we have no choice but
 1759              		.loc 1 998 0
 1760 00e6 0022     		movs	r2, #0
 1761 00e8 00E0     		b	.L107
 1762              	.L126:
1006:Source\LwIP\src\core\ipv4/etharp.c ****         break;
 1763              		.loc 1 1006 0
 1764 00ea 0122     		movs	r2, #1
 1765              	.L107:
 1766              	.LVL217:
1011:Source\LwIP\src\core\ipv4/etharp.c ****       /* copy the whole packet into new pbufs */
 1767              		.loc 1 1011 0
 1768 00ec 002A     		cmp	r2, #0
 1769 00ee 10D0     		beq	.L109
1013:Source\LwIP\src\core\ipv4/etharp.c ****       if (p != NULL) {
 1770              		.loc 1 1013 0
 1771 00f0 1989     		ldrh	r1, [r3, #8]
 1772 00f2 0022     		movs	r2, #0
 1773              	.LVL218:
 1774 00f4 0220     		movs	r0, #2
 1775 00f6 FFF7FEFF 		bl	pbuf_alloc
 1776              	.LVL219:
 1777 00fa 051E     		subs	r5, r0, #0
 1778              	.LVL220:
1014:Source\LwIP\src\core\ipv4/etharp.c ****         if (pbuf_copy(p, q) != ERR_OK) {
 1779              		.loc 1 1014 0
 1780 00fc 0DD0     		beq	.L110
1015:Source\LwIP\src\core\ipv4/etharp.c ****           pbuf_free(p);
 1781              		.loc 1 1015 0
 1782 00fe 3100     		movs	r1, r6
 1783 0100 FFF7FEFF 		bl	pbuf_copy
 1784              	.LVL221:
 1785 0104 0028     		cmp	r0, #0
 1786 0106 08D0     		beq	.L110
1016:Source\LwIP\src\core\ipv4/etharp.c ****           p = NULL;
 1787              		.loc 1 1016 0
 1788 0108 2800     		movs	r0, r5
 1789 010a FFF7FEFF 		bl	pbuf_free
 1790              	.LVL222:
1017:Source\LwIP\src\core\ipv4/etharp.c ****         }
 1791              		.loc 1 1017 0
 1792 010e 0025     		movs	r5, #0
 1793 0110 03E0     		b	.L110
 1794              	.LVL223:
 1795              	.L109:
1023:Source\LwIP\src\core\ipv4/etharp.c ****     }
 1796              		.loc 1 1023 0
ARM GAS  C:\Users\Phuong\AppData\Local\Temp\cczAUGdE.s 			page 56


 1797 0112 3000     		movs	r0, r6
 1798 0114 FFF7FEFF 		bl	pbuf_ref
 1799              	.LVL224:
1022:Source\LwIP\src\core\ipv4/etharp.c ****       pbuf_ref(p);
 1800              		.loc 1 1022 0
 1801 0118 3500     		movs	r5, r6
 1802              	.LVL225:
 1803              	.L110:
1026:Source\LwIP\src\core\ipv4/etharp.c ****       /* queue packet ... */
 1804              		.loc 1 1026 0
 1805 011a 002D     		cmp	r5, #0
 1806 011c 38D0     		beq	.L111
 1807              	.LBB7:
1031:Source\LwIP\src\core\ipv4/etharp.c ****       if (new_entry != NULL) {
 1808              		.loc 1 1031 0
 1809 011e 2C4A     		ldr	r2, .L130+12
 1810 0120 2C49     		ldr	r1, .L130+16
 1811 0122 0A20     		movs	r0, #10
 1812 0124 FFF7FEFF 		bl	memp_malloc_fn
 1813              	.LVL226:
1032:Source\LwIP\src\core\ipv4/etharp.c ****         unsigned int qlen = 0;
 1814              		.loc 1 1032 0
 1815 0128 0028     		cmp	r0, #0
 1816 012a 2BD0     		beq	.L112
 1817              	.LVL227:
 1818              	.LBB8:
1034:Source\LwIP\src\core\ipv4/etharp.c ****         new_entry->p = p;
 1819              		.loc 1 1034 0
 1820 012c 0023     		movs	r3, #0
 1821 012e 0360     		str	r3, [r0]
1035:Source\LwIP\src\core\ipv4/etharp.c ****         if (arp_table[i].q != NULL) {
 1822              		.loc 1 1035 0
 1823 0130 4560     		str	r5, [r0, #4]
1036:Source\LwIP\src\core\ipv4/etharp.c ****           /* queue was already existent, append the new entry to the end */
 1824              		.loc 1 1036 0
 1825 0132 6300     		lsls	r3, r4, #1
 1826 0134 1B19     		adds	r3, r3, r4
 1827 0136 DA00     		lsls	r2, r3, #3
 1828 0138 234B     		ldr	r3, .L130+4
 1829 013a D258     		ldr	r2, [r2, r3]
 1830 013c 002A     		cmp	r2, #0
 1831 013e 03D1     		bne	.L127
 1832 0140 08E0     		b	.L129
 1833              	.LVL228:
 1834              	.L115:
 1835              	.LBB9:
1043:Source\LwIP\src\core\ipv4/etharp.c ****           }
 1836              		.loc 1 1043 0
 1837 0142 0131     		adds	r1, r1, #1
 1838              	.LVL229:
1042:Source\LwIP\src\core\ipv4/etharp.c ****             qlen++;
 1839              		.loc 1 1042 0
 1840 0144 1A00     		movs	r2, r3
 1841 0146 00E0     		b	.L113
 1842              	.LVL230:
 1843              	.L127:
 1844              	.LBE9:
ARM GAS  C:\Users\Phuong\AppData\Local\Temp\cczAUGdE.s 			page 57


 1845 0148 0121     		movs	r1, #1
 1846              	.LVL231:
 1847              	.L113:
 1848              	.LBB10:
1041:Source\LwIP\src\core\ipv4/etharp.c ****             r = r->next;
 1849              		.loc 1 1041 0
 1850 014a 1368     		ldr	r3, [r2]
 1851 014c 002B     		cmp	r3, #0
 1852 014e F8D1     		bne	.L115
1045:Source\LwIP\src\core\ipv4/etharp.c ****         } else {
 1853              		.loc 1 1045 0
 1854 0150 1060     		str	r0, [r2]
 1855              	.LBE10:
 1856 0152 05E0     		b	.L116
 1857              	.LVL232:
 1858              	.L129:
1048:Source\LwIP\src\core\ipv4/etharp.c ****         }
 1859              		.loc 1 1048 0
 1860 0154 6300     		lsls	r3, r4, #1
 1861 0156 1B19     		adds	r3, r3, r4
 1862 0158 DA00     		lsls	r2, r3, #3
 1863 015a 1B4B     		ldr	r3, .L130+4
 1864 015c D050     		str	r0, [r2, r3]
1033:Source\LwIP\src\core\ipv4/etharp.c ****         new_entry->next = 0;
 1865              		.loc 1 1033 0
 1866 015e 0021     		movs	r1, #0
 1867              	.LVL233:
 1868              	.L116:
1051:Source\LwIP\src\core\ipv4/etharp.c ****           struct etharp_q_entry *old;
 1869              		.loc 1 1051 0
 1870 0160 0229     		cmp	r1, #2
 1871 0162 29D9     		bls	.L128
 1872              	.LBB11:
1053:Source\LwIP\src\core\ipv4/etharp.c ****           arp_table[i].q = arp_table[i].q->next;
 1873              		.loc 1 1053 0
 1874 0164 184B     		ldr	r3, .L130+4
 1875 0166 6000     		lsls	r0, r4, #1
 1876              	.LVL234:
 1877 0168 0119     		adds	r1, r0, r4
 1878              	.LVL235:
 1879 016a CA00     		lsls	r2, r1, #3
 1880 016c D558     		ldr	r5, [r2, r3]
 1881              	.LVL236:
1054:Source\LwIP\src\core\ipv4/etharp.c ****           pbuf_free(old->p);
 1882              		.loc 1 1054 0
 1883 016e 2968     		ldr	r1, [r5]
 1884 0170 D150     		str	r1, [r2, r3]
1055:Source\LwIP\src\core\ipv4/etharp.c ****           memp_free(MEMP_ARP_QUEUE, old);
 1885              		.loc 1 1055 0
 1886 0172 6868     		ldr	r0, [r5, #4]
 1887 0174 FFF7FEFF 		bl	pbuf_free
 1888              	.LVL237:
1056:Source\LwIP\src\core\ipv4/etharp.c ****         }
 1889              		.loc 1 1056 0
 1890 0178 2900     		movs	r1, r5
 1891 017a 0A20     		movs	r0, #10
 1892 017c FFF7FEFF 		bl	memp_free
ARM GAS  C:\Users\Phuong\AppData\Local\Temp\cczAUGdE.s 			page 58


 1893              	.LVL238:
 1894              	.LBE11:
1060:Source\LwIP\src\core\ipv4/etharp.c ****       } else {
 1895              		.loc 1 1060 0
 1896 0180 0020     		movs	r0, #0
 1897 0182 1AE0     		b	.L100
 1898              	.LVL239:
 1899              	.L112:
 1900              	.LBE8:
1063:Source\LwIP\src\core\ipv4/etharp.c ****         LWIP_DEBUGF(ETHARP_DEBUG | LWIP_DBG_TRACE, ("etharp_query: could not queue a copy of PBUF_R
 1901              		.loc 1 1063 0
 1902 0184 2800     		movs	r0, r5
 1903              	.LVL240:
 1904 0186 FFF7FEFF 		bl	pbuf_free
 1905              	.LVL241:
1065:Source\LwIP\src\core\ipv4/etharp.c ****       }
 1906              		.loc 1 1065 0
 1907 018a 0120     		movs	r0, #1
 1908 018c 4042     		rsbs	r0, r0, #0
 1909 018e 14E0     		b	.L100
 1910              	.LVL242:
 1911              	.L111:
 1912              	.LBE7:
1078:Source\LwIP\src\core\ipv4/etharp.c ****       LWIP_DEBUGF(ETHARP_DEBUG | LWIP_DBG_TRACE, ("etharp_query: could not queue a copy of PBUF_REF
 1913              		.loc 1 1078 0
 1914 0190 0C4A     		ldr	r2, .L130
 1915 0192 938C     		ldrh	r3, [r2, #36]
 1916 0194 0133     		adds	r3, r3, #1
 1917 0196 9384     		strh	r3, [r2, #36]
 1918              	.LVL243:
1080:Source\LwIP\src\core\ipv4/etharp.c ****     }
 1919              		.loc 1 1080 0
 1920 0198 0120     		movs	r0, #1
 1921 019a 4042     		rsbs	r0, r0, #0
 1922 019c 0DE0     		b	.L100
 1923              	.LVL244:
 1924              	.L117:
 1925              	.LBE14:
 942:Source\LwIP\src\core\ipv4/etharp.c ****   }
 1926              		.loc 1 942 0
 1927 019e 1020     		movs	r0, #16
 1928 01a0 4042     		rsbs	r0, r0, #0
 1929 01a2 0AE0     		b	.L100
 1930              	.L118:
 1931 01a4 1020     		movs	r0, #16
 1932 01a6 4042     		rsbs	r0, r0, #0
 1933 01a8 07E0     		b	.L100
 1934              	.L119:
 1935 01aa 1020     		movs	r0, #16
 1936 01ac 4042     		rsbs	r0, r0, #0
 1937 01ae 04E0     		b	.L100
 1938              	.L120:
 1939 01b0 1020     		movs	r0, #16
 1940 01b2 4042     		rsbs	r0, r0, #0
 1941 01b4 01E0     		b	.L100
 1942              	.LVL245:
 1943              	.L121:
ARM GAS  C:\Users\Phuong\AppData\Local\Temp\cczAUGdE.s 			page 59


 1944 01b6 00E0     		b	.L100
 1945              	.LVL246:
 1946              	.L128:
 1947              	.LBB15:
 1948              	.LBB13:
 1949              	.LBB12:
1060:Source\LwIP\src\core\ipv4/etharp.c ****       } else {
 1950              		.loc 1 1060 0
 1951 01b8 0020     		movs	r0, #0
 1952              	.LVL247:
 1953              	.L100:
 1954              	.LBE12:
 1955              	.LBE13:
 1956              	.LBE15:
1084:Source\LwIP\src\core\ipv4/etharp.c **** 
 1957              		.loc 1 1084 0
 1958 01ba 02B0     		add	sp, sp, #8
 1959              		@ sp needed
 1960              	.LVL248:
 1961              	.LVL249:
 1962              	.LVL250:
 1963 01bc 04BC     		pop	{r2}
 1964 01be 9046     		mov	r8, r2
 1965 01c0 F0BD     		pop	{r4, r5, r6, r7, pc}
 1966              	.L131:
 1967 01c2 C046     		.align	2
 1968              	.L130:
 1969 01c4 00000000 		.word	lwip_stats
 1970 01c8 00000000 		.word	.LANCHOR0
 1971 01cc 80000000 		.word	.LANCHOR1
 1972 01d0 07040000 		.word	1031
 1973 01d4 00000000 		.word	.LC16
 1974              		.cfi_endproc
 1975              	.LFE64:
 1976              		.size	etharp_query, .-etharp_query
 1977              		.section	.text.etharp_output,"ax",%progbits
 1978              		.align	2
 1979              		.global	etharp_output
 1980              		.code	16
 1981              		.thumb_func
 1982              		.type	etharp_output, %function
 1983              	etharp_output:
 1984              	.LFB63:
 790:Source\LwIP\src\core\ipv4/etharp.c ****   const struct eth_addr *dest;
 1985              		.loc 1 790 0
 1986              		.cfi_startproc
 1987              		@ args = 0, pretend = 0, frame = 8
 1988              		@ frame_needed = 0, uses_anonymous_args = 0
 1989              	.LVL251:
 1990 0000 70B5     		push	{r4, r5, r6, lr}
 1991              		.cfi_def_cfa_offset 16
 1992              		.cfi_offset 4, -16
 1993              		.cfi_offset 5, -12
 1994              		.cfi_offset 6, -8
 1995              		.cfi_offset 14, -4
 1996 0002 84B0     		sub	sp, sp, #16
 1997              		.cfi_def_cfa_offset 32
ARM GAS  C:\Users\Phuong\AppData\Local\Temp\cczAUGdE.s 			page 60


 1998 0004 0600     		movs	r6, r0
 1999 0006 0C00     		movs	r4, r1
 2000 0008 1500     		movs	r5, r2
 2001              	.LVL252:
 803:Source\LwIP\src\core\ipv4/etharp.c ****     /* broadcast on Ethernet also */
 2002              		.loc 1 803 0
 2003 000a 0100     		movs	r1, r0
 2004              	.LVL253:
 2005 000c 1068     		ldr	r0, [r2]
 2006              	.LVL254:
 2007 000e FFF7FEFF 		bl	ip4_addr_isbroadcast_u32
 2008              	.LVL255:
 2009 0012 0028     		cmp	r0, #0
 2010 0014 68D1     		bne	.L140
 807:Source\LwIP\src\core\ipv4/etharp.c ****     /* Hash IP multicast address to MAC address.*/
 2011              		.loc 1 807 0
 2012 0016 2B68     		ldr	r3, [r5]
 2013 0018 F022     		movs	r2, #240
 2014 001a 1A40     		ands	r2, r3
 2015 001c E02A     		cmp	r2, #224
 2016 001e 0FD1     		bne	.L134
 809:Source\LwIP\src\core\ipv4/etharp.c ****     mcastaddr.addr[1] = LL_IP4_MULTICAST_ADDR_1;
 2017              		.loc 1 809 0
 2018 0020 02AB     		add	r3, sp, #8
 2019 0022 DF3A     		subs	r2, r2, #223
 2020 0024 1A70     		strb	r2, [r3]
 810:Source\LwIP\src\core\ipv4/etharp.c ****     mcastaddr.addr[2] = LL_IP4_MULTICAST_ADDR_2;
 2021              		.loc 1 810 0
 2022 0026 0022     		movs	r2, #0
 2023 0028 5A70     		strb	r2, [r3, #1]
 811:Source\LwIP\src\core\ipv4/etharp.c ****     mcastaddr.addr[3] = ip4_addr2(ipaddr) & 0x7f;
 2024              		.loc 1 811 0
 2025 002a 5E32     		adds	r2, r2, #94
 2026 002c 9A70     		strb	r2, [r3, #2]
 812:Source\LwIP\src\core\ipv4/etharp.c ****     mcastaddr.addr[4] = ip4_addr3(ipaddr);
 2027              		.loc 1 812 0
 2028 002e 6A78     		ldrb	r2, [r5, #1]
 2029 0030 7F21     		movs	r1, #127
 2030 0032 0A40     		ands	r2, r1
 2031 0034 DA70     		strb	r2, [r3, #3]
 813:Source\LwIP\src\core\ipv4/etharp.c ****     mcastaddr.addr[5] = ip4_addr4(ipaddr);
 2032              		.loc 1 813 0
 2033 0036 AA78     		ldrb	r2, [r5, #2]
 2034 0038 1A71     		strb	r2, [r3, #4]
 814:Source\LwIP\src\core\ipv4/etharp.c ****     /* destination Ethernet address is multicast */
 2035              		.loc 1 814 0
 2036 003a EA78     		ldrb	r2, [r5, #3]
 2037 003c 5A71     		strb	r2, [r3, #5]
 2038              	.LVL256:
 2039 003e 54E0     		b	.L133
 2040              	.LVL257:
 2041              	.L134:
 2042              	.LBB16:
 822:Source\LwIP\src\core\ipv4/etharp.c ****         !ip4_addr_islinklocal(ipaddr)) {
 2043              		.loc 1 822 0
 2044 0040 7268     		ldr	r2, [r6, #4]
 2045 0042 5A40     		eors	r2, r3
ARM GAS  C:\Users\Phuong\AppData\Local\Temp\cczAUGdE.s 			page 61


 2046 0044 B168     		ldr	r1, [r6, #8]
 2047 0046 1142     		tst	r1, r2
 2048 0048 09D0     		beq	.L135
 823:Source\LwIP\src\core\ipv4/etharp.c **** #if LWIP_AUTOIP
 2049              		.loc 1 823 0 discriminator 1
 2050 004a 1B04     		lsls	r3, r3, #16
 2051 004c 1B0C     		lsrs	r3, r3, #16
 822:Source\LwIP\src\core\ipv4/etharp.c ****         !ip4_addr_islinklocal(ipaddr)) {
 2052              		.loc 1 822 0 discriminator 1
 2053 004e 2E4A     		ldr	r2, .L144
 2054 0050 9342     		cmp	r3, r2
 2055 0052 04D0     		beq	.L135
 841:Source\LwIP\src\core\ipv4/etharp.c ****             /* send to hardware address of default gateway IP address */
 2056              		.loc 1 841 0
 2057 0054 F368     		ldr	r3, [r6, #12]
 2058 0056 002B     		cmp	r3, #0
 2059 0058 51D0     		beq	.L141
 843:Source\LwIP\src\core\ipv4/etharp.c ****           /* no default gateway available */
 2060              		.loc 1 843 0
 2061 005a 3500     		movs	r5, r6
 2062              	.LVL258:
 2063 005c 0C35     		adds	r5, r5, #12
 2064              	.LVL259:
 2065              	.L135:
 858:Source\LwIP\src\core\ipv4/etharp.c **** #if ETHARP_TABLE_MATCH_NETIF
 2066              		.loc 1 858 0
 2067 005e 7023     		movs	r3, #112
 2068 0060 2A4A     		ldr	r2, .L144+4
 2069 0062 D25C     		ldrb	r2, [r2, r3]
 2070 0064 5100     		lsls	r1, r2, #1
 2071 0066 8918     		adds	r1, r1, r2
 2072 0068 CB00     		lsls	r3, r1, #3
 2073 006a 2949     		ldr	r1, .L144+8
 2074 006c CB18     		adds	r3, r1, r3
 2075 006e 1B7D     		ldrb	r3, [r3, #20]
 2076 0070 012B     		cmp	r3, #1
 2077 0072 2ED9     		bls	.L142
 862:Source\LwIP\src\core\ipv4/etharp.c ****           /* the per-pcb-cached entry is stable and the right one! */
 2078              		.loc 1 862 0 discriminator 1
 2079 0074 5100     		lsls	r1, r2, #1
 2080 0076 8918     		adds	r1, r1, r2
 2081 0078 CB00     		lsls	r3, r1, #3
 2082 007a 2549     		ldr	r1, .L144+8
 2083 007c CB18     		adds	r3, r1, r3
 2084 007e 5B68     		ldr	r3, [r3, #4]
 858:Source\LwIP\src\core\ipv4/etharp.c **** #if ETHARP_TABLE_MATCH_NETIF
 2085              		.loc 1 858 0 discriminator 1
 2086 0080 2968     		ldr	r1, [r5]
 2087 0082 9942     		cmp	r1, r3
 2088 0084 27D1     		bne	.L143
 864:Source\LwIP\src\core\ipv4/etharp.c ****           return etharp_output_to_arp_index(netif, q, etharp_cached_entry);
 2089              		.loc 1 864 0
 2090 0086 2349     		ldr	r1, .L144+12
 2091 0088 CB8D     		ldrh	r3, [r1, #46]
 2092 008a 0133     		adds	r3, r3, #1
 2093 008c CB85     		strh	r3, [r1, #46]
 865:Source\LwIP\src\core\ipv4/etharp.c ****         }
ARM GAS  C:\Users\Phuong\AppData\Local\Temp\cczAUGdE.s 			page 62


 2094              		.loc 1 865 0
 2095 008e 2100     		movs	r1, r4
 2096 0090 3000     		movs	r0, r6
 2097 0092 FFF7FEFF 		bl	etharp_output_to_arp_index
 2098              	.LVL260:
 2099 0096 34E0     		b	.L136
 2100              	.LVL261:
 2101              	.L139:
 875:Source\LwIP\src\core\ipv4/etharp.c **** #if ETHARP_TABLE_MATCH_NETIF
 2102              		.loc 1 875 0
 2103 0098 5100     		lsls	r1, r2, #1
 2104 009a 8918     		adds	r1, r1, r2
 2105 009c CB00     		lsls	r3, r1, #3
 2106 009e 1C49     		ldr	r1, .L144+8
 2107 00a0 CB18     		adds	r3, r1, r3
 2108 00a2 1B7D     		ldrb	r3, [r3, #20]
 2109 00a4 012B     		cmp	r3, #1
 2110 00a6 11D9     		bls	.L138
 879:Source\LwIP\src\core\ipv4/etharp.c ****         /* found an existing, stable entry */
 2111              		.loc 1 879 0 discriminator 1
 2112 00a8 5100     		lsls	r1, r2, #1
 2113 00aa 8918     		adds	r1, r1, r2
 2114 00ac CB00     		lsls	r3, r1, #3
 2115 00ae 1849     		ldr	r1, .L144+8
 2116 00b0 CB18     		adds	r3, r1, r3
 2117 00b2 5B68     		ldr	r3, [r3, #4]
 875:Source\LwIP\src\core\ipv4/etharp.c **** #if ETHARP_TABLE_MATCH_NETIF
 2118              		.loc 1 875 0 discriminator 1
 2119 00b4 2968     		ldr	r1, [r5]
 2120 00b6 9942     		cmp	r1, r3
 2121 00b8 08D1     		bne	.L138
 881:Source\LwIP\src\core\ipv4/etharp.c ****         return etharp_output_to_arp_index(netif, q, i);
 2122              		.loc 1 881 0
 2123 00ba D2B2     		uxtb	r2, r2
 2124 00bc 7023     		movs	r3, #112
 2125 00be 1349     		ldr	r1, .L144+4
 2126 00c0 CA54     		strb	r2, [r1, r3]
 882:Source\LwIP\src\core\ipv4/etharp.c ****       }
 2127              		.loc 1 882 0
 2128 00c2 2100     		movs	r1, r4
 2129 00c4 3000     		movs	r0, r6
 2130 00c6 FFF7FEFF 		bl	etharp_output_to_arp_index
 2131              	.LVL262:
 2132 00ca 1AE0     		b	.L136
 2133              	.LVL263:
 2134              	.L138:
 874:Source\LwIP\src\core\ipv4/etharp.c ****       if ((arp_table[i].state >= ETHARP_STATE_STABLE) &&
 2135              		.loc 1 874 0 discriminator 2
 2136 00cc 0132     		adds	r2, r2, #1
 2137              	.LVL264:
 2138 00ce 52B2     		sxtb	r2, r2
 2139              	.LVL265:
 2140 00d0 02E0     		b	.L137
 2141              	.LVL266:
 2142              	.L142:
 2143 00d2 0022     		movs	r2, #0
 2144 00d4 00E0     		b	.L137
ARM GAS  C:\Users\Phuong\AppData\Local\Temp\cczAUGdE.s 			page 63


 2145              	.L143:
 2146 00d6 0022     		movs	r2, #0
 2147              	.L137:
 2148              	.LVL267:
 874:Source\LwIP\src\core\ipv4/etharp.c ****       if ((arp_table[i].state >= ETHARP_STATE_STABLE) &&
 2149              		.loc 1 874 0 is_stmt 0 discriminator 1
 2150 00d8 092A     		cmp	r2, #9
 2151 00da DDDD     		ble	.L139
 887:Source\LwIP\src\core\ipv4/etharp.c ****   }
 2152              		.loc 1 887 0 is_stmt 1
 2153 00dc 2200     		movs	r2, r4
 2154              	.LVL268:
 2155 00de 2900     		movs	r1, r5
 2156 00e0 3000     		movs	r0, r6
 2157 00e2 FFF7FEFF 		bl	etharp_query
 2158              	.LVL269:
 2159 00e6 0CE0     		b	.L136
 2160              	.LVL270:
 2161              	.L140:
 2162              	.LBE16:
 805:Source\LwIP\src\core\ipv4/etharp.c ****   /* multicast destination IP address? */
 2163              		.loc 1 805 0
 2164 00e8 0B4B     		ldr	r3, .L144+16
 2165              	.L133:
 2166              	.LVL271:
 893:Source\LwIP\src\core\ipv4/etharp.c **** }
 2167              		.loc 1 893 0
 2168 00ea 3200     		movs	r2, r6
 2169 00ec 3732     		adds	r2, r2, #55
 2170 00ee 8021     		movs	r1, #128
 2171 00f0 0901     		lsls	r1, r1, #4
 2172 00f2 0091     		str	r1, [sp]
 2173 00f4 2100     		movs	r1, r4
 2174 00f6 3000     		movs	r0, r6
 2175 00f8 FFF7FEFF 		bl	ethernet_output
 2176              	.LVL272:
 2177 00fc 01E0     		b	.L136
 2178              	.L141:
 2179              	.LBB17:
 847:Source\LwIP\src\core\ipv4/etharp.c ****           }
 2180              		.loc 1 847 0
 2181 00fe 0420     		movs	r0, #4
 2182 0100 4042     		rsbs	r0, r0, #0
 2183              	.LVL273:
 2184              	.L136:
 2185              	.LBE17:
 894:Source\LwIP\src\core\ipv4/etharp.c **** 
 2186              		.loc 1 894 0
 2187 0102 04B0     		add	sp, sp, #16
 2188              		@ sp needed
 2189              	.LVL274:
 2190              	.LVL275:
 2191              	.LVL276:
 2192 0104 70BD     		pop	{r4, r5, r6, pc}
 2193              	.L145:
 2194 0106 C046     		.align	2
 2195              	.L144:
ARM GAS  C:\Users\Phuong\AppData\Local\Temp\cczAUGdE.s 			page 64


 2196 0108 A9FE0000 		.word	65193
 2197 010c 80000000 		.word	.LANCHOR1
 2198 0110 00000000 		.word	.LANCHOR0
 2199 0114 00000000 		.word	lwip_stats
 2200 0118 00000000 		.word	ethbroadcast
 2201              		.cfi_endproc
 2202              	.LFE63:
 2203              		.size	etharp_output, .-etharp_output
 2204              		.section	.rodata.str1.4,"aMS",%progbits,1
 2205              		.align	2
 2206              	.LC16:
 2207 0000 536F7572 		.ascii	"Source\\LwIP\\src\\core\\ipv4\\etharp.c\000"
 2207      63655C4C 
 2207      7749505C 
 2207      7372635C 
 2207      636F7265 
 2208              		.bss
 2209              		.align	2
 2210              		.set	.LANCHOR0,. + 0
 2211              		.set	.LANCHOR1,. + 128
 2212              		.type	arp_table, %object
 2213              		.size	arp_table, 240
 2214              	arp_table:
 2215 0000 00000000 		.space	240
 2215      00000000 
 2215      00000000 
 2215      00000000 
 2215      00000000 
 2216              		.type	etharp_cached_entry, %object
 2217              		.size	etharp_cached_entry, 1
 2218              	etharp_cached_entry:
 2219 00f0 00       		.space	1
 2220              		.text
 2221              	.Letext0:
 2222              		.file 2 "c:\\program files (x86)\\cypress\\psoc creator\\4.2\\psoc creator\\import\\gnu\\arm\\5.4.
 2223              		.file 3 "c:\\program files (x86)\\cypress\\psoc creator\\4.2\\psoc creator\\import\\gnu\\arm\\5.4.
 2224              		.file 4 "c:\\program files (x86)\\cypress\\psoc creator\\4.2\\psoc creator\\import\\gnu\\arm\\5.4.
 2225              		.file 5 ".\\Source\\LwIP\\src\\include/arch/cc.h"
 2226              		.file 6 ".\\Source\\LwIP\\src\\include/lwip/err.h"
 2227              		.file 7 ".\\Source\\LwIP\\src\\include/lwip/pbuf.h"
 2228              		.file 8 ".\\Source\\LwIP\\src\\include/lwip/ip4_addr.h"
 2229              		.file 9 ".\\Source\\LwIP\\src\\include/lwip/ip_addr.h"
 2230              		.file 10 ".\\Source\\LwIP\\src\\include/lwip/mem.h"
 2231              		.file 11 ".\\Source\\LwIP\\src\\include/lwip/memp.h"
 2232              		.file 12 ".\\Source\\LwIP\\src\\include/lwip/stats.h"
 2233              		.file 13 ".\\Source\\LwIP\\src\\include/lwip/netif.h"
 2234              		.file 14 ".\\Source\\LwIP\\src\\include/lwip/prot/ethernet.h"
 2235              		.file 15 ".\\Source\\LwIP\\src\\include/lwip/prot/etharp.h"
 2236              		.file 16 ".\\Source\\LwIP\\src\\include/lwip/etharp.h"
 2237              		.file 17 ".\\Source\\LwIP\\src\\include/netif/ethernet.h"
 2238              		.file 18 ".\\Source\\LwIP\\src\\include/lwip/def.h"