ARM GAS  C:\Users\Phuong\AppData\Local\Temp\ccwlLpq6.s 			page 1


   1              		.syntax unified
   2              		.cpu cortex-m0plus
   3              		.fpu softvfp
   4              		.eabi_attribute 20, 1
   5              		.eabi_attribute 21, 1
   6              		.eabi_attribute 23, 3
   7              		.eabi_attribute 24, 1
   8              		.eabi_attribute 25, 1
   9              		.eabi_attribute 26, 1
  10              		.eabi_attribute 30, 1
  11              		.eabi_attribute 34, 0
  12              		.eabi_attribute 18, 4
  13              		.thumb
  14              		.syntax unified
  15              		.file	"ethernet.c"
  16              		.text
  17              	.Ltext0:
  18              		.cfi_sections	.debug_frame
  19              		.section	.text.ethernet_input,"ax",%progbits
  20              		.align	2
  21              		.global	ethernet_input
  22              		.code	16
  23              		.thumb_func
  24              		.type	ethernet_input, %function
  25              	ethernet_input:
  26              	.LFB53:
  27              		.file 1 "Source\\LwIP\\src\\netif\\ethernet.c"
   1:Source\LwIP\src\netif/ethernet.c **** /**
   2:Source\LwIP\src\netif/ethernet.c ****  * @file
   3:Source\LwIP\src\netif/ethernet.c ****  * Ethernet common functions
   4:Source\LwIP\src\netif/ethernet.c ****  * 
   5:Source\LwIP\src\netif/ethernet.c ****  * @defgroup ethernet Ethernet
   6:Source\LwIP\src\netif/ethernet.c ****  * @ingroup callbackstyle_api
   7:Source\LwIP\src\netif/ethernet.c ****  */
   8:Source\LwIP\src\netif/ethernet.c **** 
   9:Source\LwIP\src\netif/ethernet.c **** /*
  10:Source\LwIP\src\netif/ethernet.c ****  * Copyright (c) 2001-2003 Swedish Institute of Computer Science.
  11:Source\LwIP\src\netif/ethernet.c ****  * Copyright (c) 2003-2004 Leon Woestenberg <leon.woestenberg@axon.tv>
  12:Source\LwIP\src\netif/ethernet.c ****  * Copyright (c) 2003-2004 Axon Digital Design B.V., The Netherlands.
  13:Source\LwIP\src\netif/ethernet.c ****  * All rights reserved.
  14:Source\LwIP\src\netif/ethernet.c ****  *
  15:Source\LwIP\src\netif/ethernet.c ****  * Redistribution and use in source and binary forms, with or without modification,
  16:Source\LwIP\src\netif/ethernet.c ****  * are permitted provided that the following conditions are met:
  17:Source\LwIP\src\netif/ethernet.c ****  *
  18:Source\LwIP\src\netif/ethernet.c ****  * 1. Redistributions of source code must retain the above copyright notice,
  19:Source\LwIP\src\netif/ethernet.c ****  *    this list of conditions and the following disclaimer.
  20:Source\LwIP\src\netif/ethernet.c ****  * 2. Redistributions in binary form must reproduce the above copyright notice,
  21:Source\LwIP\src\netif/ethernet.c ****  *    this list of conditions and the following disclaimer in the documentation
  22:Source\LwIP\src\netif/ethernet.c ****  *    and/or other materials provided with the distribution.
  23:Source\LwIP\src\netif/ethernet.c ****  * 3. The name of the author may not be used to endorse or promote products
  24:Source\LwIP\src\netif/ethernet.c ****  *    derived from this software without specific prior written permission.
  25:Source\LwIP\src\netif/ethernet.c ****  *
  26:Source\LwIP\src\netif/ethernet.c ****  * THIS SOFTWARE IS PROVIDED BY THE AUTHOR ``AS IS'' AND ANY EXPRESS OR IMPLIED
  27:Source\LwIP\src\netif/ethernet.c ****  * WARRANTIES, INCLUDING, BUT NOT LIMITED TO, THE IMPLIED WARRANTIES OF
  28:Source\LwIP\src\netif/ethernet.c ****  * MERCHANTABILITY AND FITNESS FOR A PARTICULAR PURPOSE ARE DISCLAIMED. IN NO EVENT
  29:Source\LwIP\src\netif/ethernet.c ****  * SHALL THE AUTHOR BE LIABLE FOR ANY DIRECT, INDIRECT, INCIDENTAL, SPECIAL,
  30:Source\LwIP\src\netif/ethernet.c ****  * EXEMPLARY, OR CONSEQUENTIAL DAMAGES (INCLUDING, BUT NOT LIMITED TO, PROCUREMENT
ARM GAS  C:\Users\Phuong\AppData\Local\Temp\ccwlLpq6.s 			page 2


  31:Source\LwIP\src\netif/ethernet.c ****  * OF SUBSTITUTE GOODS OR SERVICES; LOSS OF USE, DATA, OR PROFITS; OR BUSINESS
  32:Source\LwIP\src\netif/ethernet.c ****  * INTERRUPTION) HOWEVER CAUSED AND ON ANY THEORY OF LIABILITY, WHETHER IN
  33:Source\LwIP\src\netif/ethernet.c ****  * CONTRACT, STRICT LIABILITY, OR TORT (INCLUDING NEGLIGENCE OR OTHERWISE) ARISING
  34:Source\LwIP\src\netif/ethernet.c ****  * IN ANY WAY OUT OF THE USE OF THIS SOFTWARE, EVEN IF ADVISED OF THE POSSIBILITY
  35:Source\LwIP\src\netif/ethernet.c ****  * OF SUCH DAMAGE.
  36:Source\LwIP\src\netif/ethernet.c ****  *
  37:Source\LwIP\src\netif/ethernet.c ****  * This file is part of the lwIP TCP/IP stack.
  38:Source\LwIP\src\netif/ethernet.c ****  *
  39:Source\LwIP\src\netif/ethernet.c ****  */
  40:Source\LwIP\src\netif/ethernet.c **** 
  41:Source\LwIP\src\netif/ethernet.c **** #include "lwip/opt.h"
  42:Source\LwIP\src\netif/ethernet.c **** 
  43:Source\LwIP\src\netif/ethernet.c **** #if LWIP_ARP || LWIP_ETHERNET
  44:Source\LwIP\src\netif/ethernet.c **** 
  45:Source\LwIP\src\netif/ethernet.c **** #include "netif/ethernet.h"
  46:Source\LwIP\src\netif/ethernet.c **** #include "lwip/def.h"
  47:Source\LwIP\src\netif/ethernet.c **** #include "lwip/stats.h"
  48:Source\LwIP\src\netif/ethernet.c **** #include "lwip/etharp.h"
  49:Source\LwIP\src\netif/ethernet.c **** #include "lwip/ip.h"
  50:Source\LwIP\src\netif/ethernet.c **** #include "lwip/snmp.h"
  51:Source\LwIP\src\netif/ethernet.c **** 
  52:Source\LwIP\src\netif/ethernet.c **** #include <string.h>
  53:Source\LwIP\src\netif/ethernet.c **** 
  54:Source\LwIP\src\netif/ethernet.c **** #include "netif/ppp/ppp_opts.h"
  55:Source\LwIP\src\netif/ethernet.c **** #if PPPOE_SUPPORT
  56:Source\LwIP\src\netif/ethernet.c **** #include "netif/ppp/pppoe.h"
  57:Source\LwIP\src\netif/ethernet.c **** #endif /* PPPOE_SUPPORT */
  58:Source\LwIP\src\netif/ethernet.c **** 
  59:Source\LwIP\src\netif/ethernet.c **** #ifdef LWIP_HOOK_FILENAME
  60:Source\LwIP\src\netif/ethernet.c **** #include LWIP_HOOK_FILENAME
  61:Source\LwIP\src\netif/ethernet.c **** #endif
  62:Source\LwIP\src\netif/ethernet.c **** 
  63:Source\LwIP\src\netif/ethernet.c **** const struct eth_addr ethbroadcast = {{0xff,0xff,0xff,0xff,0xff,0xff}};
  64:Source\LwIP\src\netif/ethernet.c **** const struct eth_addr ethzero = {{0,0,0,0,0,0}};
  65:Source\LwIP\src\netif/ethernet.c **** 
  66:Source\LwIP\src\netif/ethernet.c **** /**
  67:Source\LwIP\src\netif/ethernet.c ****  * @ingroup lwip_nosys
  68:Source\LwIP\src\netif/ethernet.c ****  * Process received ethernet frames. Using this function instead of directly
  69:Source\LwIP\src\netif/ethernet.c ****  * calling ip_input and passing ARP frames through etharp in ethernetif_input,
  70:Source\LwIP\src\netif/ethernet.c ****  * the ARP cache is protected from concurrent access.\n
  71:Source\LwIP\src\netif/ethernet.c ****  * Don't call directly, pass to netif_add() and call netif->input().
  72:Source\LwIP\src\netif/ethernet.c ****  *
  73:Source\LwIP\src\netif/ethernet.c ****  * @param p the received packet, p->payload pointing to the ethernet header
  74:Source\LwIP\src\netif/ethernet.c ****  * @param netif the network interface on which the packet was received
  75:Source\LwIP\src\netif/ethernet.c ****  * 
  76:Source\LwIP\src\netif/ethernet.c ****  * @see LWIP_HOOK_UNKNOWN_ETH_PROTOCOL
  77:Source\LwIP\src\netif/ethernet.c ****  * @see ETHARP_SUPPORT_VLAN
  78:Source\LwIP\src\netif/ethernet.c ****  * @see LWIP_HOOK_VLAN_CHECK
  79:Source\LwIP\src\netif/ethernet.c ****  */
  80:Source\LwIP\src\netif/ethernet.c **** err_t
  81:Source\LwIP\src\netif/ethernet.c **** ethernet_input(struct pbuf *p, struct netif *netif)
  82:Source\LwIP\src\netif/ethernet.c **** {
  28              		.loc 1 82 0
  29              		.cfi_startproc
  30              		@ args = 0, pretend = 0, frame = 0
  31              		@ frame_needed = 0, uses_anonymous_args = 0
  32              	.LVL0:
ARM GAS  C:\Users\Phuong\AppData\Local\Temp\ccwlLpq6.s 			page 3


  33 0000 F8B5     		push	{r3, r4, r5, r6, r7, lr}
  34              		.cfi_def_cfa_offset 24
  35              		.cfi_offset 3, -24
  36              		.cfi_offset 4, -20
  37              		.cfi_offset 5, -16
  38              		.cfi_offset 6, -12
  39              		.cfi_offset 7, -8
  40              		.cfi_offset 14, -4
  41 0002 0400     		movs	r4, r0
  42 0004 0E00     		movs	r6, r1
  43              	.LVL1:
  83:Source\LwIP\src\netif/ethernet.c ****   struct eth_hdr* ethhdr;
  84:Source\LwIP\src\netif/ethernet.c ****   u16_t type;
  85:Source\LwIP\src\netif/ethernet.c **** #if LWIP_ARP || ETHARP_SUPPORT_VLAN || LWIP_IPV6
  86:Source\LwIP\src\netif/ethernet.c ****   s16_t ip_hdr_offset = SIZEOF_ETH_HDR;
  87:Source\LwIP\src\netif/ethernet.c **** #endif /* LWIP_ARP || ETHARP_SUPPORT_VLAN */
  88:Source\LwIP\src\netif/ethernet.c **** 
  89:Source\LwIP\src\netif/ethernet.c ****   if (p->len <= SIZEOF_ETH_HDR) {
  44              		.loc 1 89 0
  45 0006 4789     		ldrh	r7, [r0, #10]
  46 0008 0E2F     		cmp	r7, #14
  47 000a 07D8     		bhi	.L2
  90:Source\LwIP\src\netif/ethernet.c ****     /* a packet with only an ethernet header (or less) is not valid for us */
  91:Source\LwIP\src\netif/ethernet.c ****     ETHARP_STATS_INC(etharp.proterr);
  48              		.loc 1 91 0
  49 000c 324B     		ldr	r3, .L13
  50 000e 1A8D     		ldrh	r2, [r3, #40]
  51 0010 0132     		adds	r2, r2, #1
  52 0012 1A85     		strh	r2, [r3, #40]
  92:Source\LwIP\src\netif/ethernet.c ****     ETHARP_STATS_INC(etharp.drop);
  53              		.loc 1 92 0
  54 0014 DA8B     		ldrh	r2, [r3, #30]
  55 0016 0132     		adds	r2, r2, #1
  56 0018 DA83     		strh	r2, [r3, #30]
  93:Source\LwIP\src\netif/ethernet.c ****     MIB2_STATS_NETIF_INC(netif, ifinerrors);
  94:Source\LwIP\src\netif/ethernet.c ****     goto free_and_return;
  57              		.loc 1 94 0
  58 001a 58E0     		b	.L3
  59              	.L2:
  95:Source\LwIP\src\netif/ethernet.c ****   }
  96:Source\LwIP\src\netif/ethernet.c **** 
  97:Source\LwIP\src\netif/ethernet.c ****   /* points to packet payload, which starts with an Ethernet header */
  98:Source\LwIP\src\netif/ethernet.c ****   ethhdr = (struct eth_hdr *)p->payload;
  60              		.loc 1 98 0
  61 001c 4068     		ldr	r0, [r0, #4]
  62              	.LVL2:
  99:Source\LwIP\src\netif/ethernet.c ****   LWIP_DEBUGF(ETHARP_DEBUG | LWIP_DBG_TRACE,
 100:Source\LwIP\src\netif/ethernet.c ****     ("ethernet_input: dest:%"X8_F":%"X8_F":%"X8_F":%"X8_F":%"X8_F":%"X8_F", src:%"X8_F":%"X8_F":%"X
 101:Source\LwIP\src\netif/ethernet.c ****      (unsigned)ethhdr->dest.addr[0], (unsigned)ethhdr->dest.addr[1], (unsigned)ethhdr->dest.addr[2]
 102:Source\LwIP\src\netif/ethernet.c ****      (unsigned)ethhdr->dest.addr[3], (unsigned)ethhdr->dest.addr[4], (unsigned)ethhdr->dest.addr[5]
 103:Source\LwIP\src\netif/ethernet.c ****      (unsigned)ethhdr->src.addr[0],  (unsigned)ethhdr->src.addr[1],  (unsigned)ethhdr->src.addr[2],
 104:Source\LwIP\src\netif/ethernet.c ****      (unsigned)ethhdr->src.addr[3],  (unsigned)ethhdr->src.addr[4],  (unsigned)ethhdr->src.addr[5],
 105:Source\LwIP\src\netif/ethernet.c ****      lwip_htons(ethhdr->type)));
 106:Source\LwIP\src\netif/ethernet.c **** 
 107:Source\LwIP\src\netif/ethernet.c ****   type = ethhdr->type;
  63              		.loc 1 107 0
  64 001e 037B     		ldrb	r3, [r0, #12]
ARM GAS  C:\Users\Phuong\AppData\Local\Temp\ccwlLpq6.s 			page 4


  65 0020 457B     		ldrb	r5, [r0, #13]
  66 0022 2D02     		lsls	r5, r5, #8
  67 0024 1D43     		orrs	r5, r3
  68              	.LVL3:
 108:Source\LwIP\src\netif/ethernet.c **** #if ETHARP_SUPPORT_VLAN
 109:Source\LwIP\src\netif/ethernet.c ****   if (type == PP_HTONS(ETHTYPE_VLAN)) {
 110:Source\LwIP\src\netif/ethernet.c ****     struct eth_vlan_hdr *vlan = (struct eth_vlan_hdr*)(((char*)ethhdr) + SIZEOF_ETH_HDR);
 111:Source\LwIP\src\netif/ethernet.c ****     if (p->len <= SIZEOF_ETH_HDR + SIZEOF_VLAN_HDR) {
 112:Source\LwIP\src\netif/ethernet.c ****       /* a packet with only an ethernet/vlan header (or less) is not valid for us */
 113:Source\LwIP\src\netif/ethernet.c ****       ETHARP_STATS_INC(etharp.proterr);
 114:Source\LwIP\src\netif/ethernet.c ****       ETHARP_STATS_INC(etharp.drop);
 115:Source\LwIP\src\netif/ethernet.c ****       MIB2_STATS_NETIF_INC(netif, ifinerrors);
 116:Source\LwIP\src\netif/ethernet.c ****       goto free_and_return;
 117:Source\LwIP\src\netif/ethernet.c ****     }
 118:Source\LwIP\src\netif/ethernet.c **** #if defined(LWIP_HOOK_VLAN_CHECK) || defined(ETHARP_VLAN_CHECK) || defined(ETHARP_VLAN_CHECK_FN) /*
 119:Source\LwIP\src\netif/ethernet.c **** #ifdef LWIP_HOOK_VLAN_CHECK
 120:Source\LwIP\src\netif/ethernet.c ****     if (!LWIP_HOOK_VLAN_CHECK(netif, ethhdr, vlan)) {
 121:Source\LwIP\src\netif/ethernet.c **** #elif defined(ETHARP_VLAN_CHECK_FN)
 122:Source\LwIP\src\netif/ethernet.c ****     if (!ETHARP_VLAN_CHECK_FN(ethhdr, vlan)) {
 123:Source\LwIP\src\netif/ethernet.c **** #elif defined(ETHARP_VLAN_CHECK)
 124:Source\LwIP\src\netif/ethernet.c ****     if (VLAN_ID(vlan) != ETHARP_VLAN_CHECK) {
 125:Source\LwIP\src\netif/ethernet.c **** #endif
 126:Source\LwIP\src\netif/ethernet.c ****       /* silently ignore this packet: not for our VLAN */
 127:Source\LwIP\src\netif/ethernet.c ****       pbuf_free(p);
 128:Source\LwIP\src\netif/ethernet.c ****       return ERR_OK;
 129:Source\LwIP\src\netif/ethernet.c ****     }
 130:Source\LwIP\src\netif/ethernet.c **** #endif /* defined(LWIP_HOOK_VLAN_CHECK) || defined(ETHARP_VLAN_CHECK) || defined(ETHARP_VLAN_CHECK_
 131:Source\LwIP\src\netif/ethernet.c ****     type = vlan->tpid;
 132:Source\LwIP\src\netif/ethernet.c ****     ip_hdr_offset = SIZEOF_ETH_HDR + SIZEOF_VLAN_HDR;
 133:Source\LwIP\src\netif/ethernet.c ****   }
 134:Source\LwIP\src\netif/ethernet.c **** #endif /* ETHARP_SUPPORT_VLAN */
 135:Source\LwIP\src\netif/ethernet.c **** 
 136:Source\LwIP\src\netif/ethernet.c **** #if LWIP_ARP_FILTER_NETIF
 137:Source\LwIP\src\netif/ethernet.c ****   netif = LWIP_ARP_FILTER_NETIF_FN(p, netif, lwip_htons(type));
 138:Source\LwIP\src\netif/ethernet.c **** #endif /* LWIP_ARP_FILTER_NETIF*/
 139:Source\LwIP\src\netif/ethernet.c **** 
 140:Source\LwIP\src\netif/ethernet.c ****   if (ethhdr->dest.addr[0] & 1) {
  69              		.loc 1 140 0
  70 0026 0378     		ldrb	r3, [r0]
  71 0028 DA07     		lsls	r2, r3, #31
  72 002a 16D5     		bpl	.L4
 141:Source\LwIP\src\netif/ethernet.c ****     /* this might be a multicast or broadcast packet */
 142:Source\LwIP\src\netif/ethernet.c ****     if (ethhdr->dest.addr[0] == LL_IP4_MULTICAST_ADDR_0) {
  73              		.loc 1 142 0
  74 002c 012B     		cmp	r3, #1
  75 002e 0AD1     		bne	.L5
 143:Source\LwIP\src\netif/ethernet.c **** #if LWIP_IPV4
 144:Source\LwIP\src\netif/ethernet.c ****       if ((ethhdr->dest.addr[1] == LL_IP4_MULTICAST_ADDR_1) &&
  76              		.loc 1 144 0
  77 0030 4378     		ldrb	r3, [r0, #1]
  78 0032 002B     		cmp	r3, #0
  79 0034 11D1     		bne	.L4
 145:Source\LwIP\src\netif/ethernet.c ****           (ethhdr->dest.addr[2] == LL_IP4_MULTICAST_ADDR_2)) {
  80              		.loc 1 145 0 discriminator 1
  81 0036 8378     		ldrb	r3, [r0, #2]
 144:Source\LwIP\src\netif/ethernet.c ****           (ethhdr->dest.addr[2] == LL_IP4_MULTICAST_ADDR_2)) {
  82              		.loc 1 144 0 discriminator 1
ARM GAS  C:\Users\Phuong\AppData\Local\Temp\ccwlLpq6.s 			page 5


  83 0038 5E2B     		cmp	r3, #94
  84 003a 0ED1     		bne	.L4
 146:Source\LwIP\src\netif/ethernet.c ****         /* mark the pbuf as link-layer multicast */
 147:Source\LwIP\src\netif/ethernet.c ****         p->flags |= PBUF_FLAG_LLMCAST;
  85              		.loc 1 147 0
  86 003c 627B     		ldrb	r2, [r4, #13]
  87 003e 1023     		movs	r3, #16
  88 0040 1343     		orrs	r3, r2
  89 0042 6373     		strb	r3, [r4, #13]
  90 0044 09E0     		b	.L4
  91              	.L5:
 148:Source\LwIP\src\netif/ethernet.c ****       }
 149:Source\LwIP\src\netif/ethernet.c **** #endif /* LWIP_IPV4 */
 150:Source\LwIP\src\netif/ethernet.c ****     }
 151:Source\LwIP\src\netif/ethernet.c **** #if LWIP_IPV6
 152:Source\LwIP\src\netif/ethernet.c ****     else if ((ethhdr->dest.addr[0] == LL_IP6_MULTICAST_ADDR_0) &&
 153:Source\LwIP\src\netif/ethernet.c ****              (ethhdr->dest.addr[1] == LL_IP6_MULTICAST_ADDR_1)) {
 154:Source\LwIP\src\netif/ethernet.c ****         /* mark the pbuf as link-layer multicast */
 155:Source\LwIP\src\netif/ethernet.c ****         p->flags |= PBUF_FLAG_LLMCAST;
 156:Source\LwIP\src\netif/ethernet.c ****     }
 157:Source\LwIP\src\netif/ethernet.c **** #endif /* LWIP_IPV6 */
 158:Source\LwIP\src\netif/ethernet.c ****     else if (eth_addr_cmp(&ethhdr->dest, &ethbroadcast)) {
  92              		.loc 1 158 0
  93 0046 0622     		movs	r2, #6
  94 0048 2449     		ldr	r1, .L13+4
  95              	.LVL4:
  96 004a FFF7FEFF 		bl	memcmp
  97              	.LVL5:
  98 004e 0028     		cmp	r0, #0
  99 0050 03D1     		bne	.L4
 159:Source\LwIP\src\netif/ethernet.c ****       /* mark the pbuf as link-layer broadcast */
 160:Source\LwIP\src\netif/ethernet.c ****       p->flags |= PBUF_FLAG_LLBCAST;
 100              		.loc 1 160 0
 101 0052 627B     		ldrb	r2, [r4, #13]
 102 0054 0823     		movs	r3, #8
 103 0056 1343     		orrs	r3, r2
 104 0058 6373     		strb	r3, [r4, #13]
 105              	.L4:
 161:Source\LwIP\src\netif/ethernet.c ****     }
 162:Source\LwIP\src\netif/ethernet.c ****   }
 163:Source\LwIP\src\netif/ethernet.c **** 
 164:Source\LwIP\src\netif/ethernet.c ****   switch (type) {
 106              		.loc 1 164 0
 107 005a 082D     		cmp	r5, #8
 108 005c 04D0     		beq	.L7
 109 005e C123     		movs	r3, #193
 110 0060 DB00     		lsls	r3, r3, #3
 111 0062 9D42     		cmp	r5, r3
 112 0064 12D0     		beq	.L8
 113 0066 2BE0     		b	.L12
 114              	.L7:
 165:Source\LwIP\src\netif/ethernet.c **** #if LWIP_IPV4 && LWIP_ARP
 166:Source\LwIP\src\netif/ethernet.c ****     /* IP packet? */
 167:Source\LwIP\src\netif/ethernet.c ****     case PP_HTONS(ETHTYPE_IP):
 168:Source\LwIP\src\netif/ethernet.c ****       if (!(netif->flags & NETIF_FLAG_ETHARP)) {
 115              		.loc 1 168 0
 116 0068 3D23     		movs	r3, #61
ARM GAS  C:\Users\Phuong\AppData\Local\Temp\ccwlLpq6.s 			page 6


 117 006a F35C     		ldrb	r3, [r6, r3]
 118 006c 1B07     		lsls	r3, r3, #28
 119 006e 2ED5     		bpl	.L3
 169:Source\LwIP\src\netif/ethernet.c ****         goto free_and_return;
 170:Source\LwIP\src\netif/ethernet.c ****       }
 171:Source\LwIP\src\netif/ethernet.c ****       /* skip Ethernet header */
 172:Source\LwIP\src\netif/ethernet.c ****       if ((p->len < ip_hdr_offset) || pbuf_header(p, (s16_t)-ip_hdr_offset)) {
 120              		.loc 1 172 0
 121 0070 0D2F     		cmp	r7, #13
 122 0072 2CDD     		ble	.L3
 123              		.loc 1 172 0 is_stmt 0 discriminator 1
 124 0074 0E21     		movs	r1, #14
 125 0076 4942     		rsbs	r1, r1, #0
 126 0078 2000     		movs	r0, r4
 127 007a FFF7FEFF 		bl	pbuf_header
 128              	.LVL6:
 129 007e 0028     		cmp	r0, #0
 130 0080 25D1     		bne	.L3
 173:Source\LwIP\src\netif/ethernet.c ****         LWIP_DEBUGF(ETHARP_DEBUG | LWIP_DBG_TRACE | LWIP_DBG_LEVEL_WARNING,
 174:Source\LwIP\src\netif/ethernet.c ****           ("ethernet_input: IPv4 packet dropped, too short (%"S16_F"/%"S16_F")\n",
 175:Source\LwIP\src\netif/ethernet.c ****           p->tot_len, ip_hdr_offset));
 176:Source\LwIP\src\netif/ethernet.c ****         LWIP_DEBUGF(ETHARP_DEBUG | LWIP_DBG_TRACE, ("Can't move over header in packet"));
 177:Source\LwIP\src\netif/ethernet.c ****         goto free_and_return;
 178:Source\LwIP\src\netif/ethernet.c ****       } else {
 179:Source\LwIP\src\netif/ethernet.c ****         /* pass to IP layer */
 180:Source\LwIP\src\netif/ethernet.c ****         ip4_input(p, netif);
 131              		.loc 1 180 0 is_stmt 1
 132 0082 3100     		movs	r1, r6
 133 0084 2000     		movs	r0, r4
 134 0086 FFF7FEFF 		bl	ip4_input
 135              	.LVL7:
 181:Source\LwIP\src\netif/ethernet.c ****       }
 182:Source\LwIP\src\netif/ethernet.c ****       break;
 136              		.loc 1 182 0
 137 008a 23E0     		b	.L9
 138              	.L8:
 183:Source\LwIP\src\netif/ethernet.c **** 
 184:Source\LwIP\src\netif/ethernet.c ****     case PP_HTONS(ETHTYPE_ARP):
 185:Source\LwIP\src\netif/ethernet.c ****       if (!(netif->flags & NETIF_FLAG_ETHARP)) {
 139              		.loc 1 185 0
 140 008c 3D23     		movs	r3, #61
 141 008e F35C     		ldrb	r3, [r6, r3]
 142 0090 1B07     		lsls	r3, r3, #28
 143 0092 1CD5     		bpl	.L3
 186:Source\LwIP\src\netif/ethernet.c ****         goto free_and_return;
 187:Source\LwIP\src\netif/ethernet.c ****       }
 188:Source\LwIP\src\netif/ethernet.c ****       /* skip Ethernet header */
 189:Source\LwIP\src\netif/ethernet.c ****       if ((p->len < ip_hdr_offset) || pbuf_header(p, (s16_t)-ip_hdr_offset)) {
 144              		.loc 1 189 0
 145 0094 0D2F     		cmp	r7, #13
 146 0096 06DD     		ble	.L10
 147              		.loc 1 189 0 is_stmt 0 discriminator 1
 148 0098 0E21     		movs	r1, #14
 149 009a 4942     		rsbs	r1, r1, #0
 150 009c 2000     		movs	r0, r4
 151 009e FFF7FEFF 		bl	pbuf_header
 152              	.LVL8:
ARM GAS  C:\Users\Phuong\AppData\Local\Temp\ccwlLpq6.s 			page 7


 153 00a2 0028     		cmp	r0, #0
 154 00a4 07D0     		beq	.L11
 155              	.L10:
 190:Source\LwIP\src\netif/ethernet.c ****         LWIP_DEBUGF(ETHARP_DEBUG | LWIP_DBG_TRACE | LWIP_DBG_LEVEL_WARNING,
 191:Source\LwIP\src\netif/ethernet.c ****           ("ethernet_input: ARP response packet dropped, too short (%"S16_F"/%"S16_F")\n",
 192:Source\LwIP\src\netif/ethernet.c ****           p->tot_len, ip_hdr_offset));
 193:Source\LwIP\src\netif/ethernet.c ****         LWIP_DEBUGF(ETHARP_DEBUG | LWIP_DBG_TRACE, ("Can't move over header in packet"));
 194:Source\LwIP\src\netif/ethernet.c ****         ETHARP_STATS_INC(etharp.lenerr);
 156              		.loc 1 194 0 is_stmt 1
 157 00a6 0C4B     		ldr	r3, .L13
 158 00a8 5A8C     		ldrh	r2, [r3, #34]
 159 00aa 0132     		adds	r2, r2, #1
 160 00ac 5A84     		strh	r2, [r3, #34]
 195:Source\LwIP\src\netif/ethernet.c ****         ETHARP_STATS_INC(etharp.drop);
 161              		.loc 1 195 0
 162 00ae DA8B     		ldrh	r2, [r3, #30]
 163 00b0 0132     		adds	r2, r2, #1
 164 00b2 DA83     		strh	r2, [r3, #30]
 196:Source\LwIP\src\netif/ethernet.c ****         goto free_and_return;
 165              		.loc 1 196 0
 166 00b4 0BE0     		b	.L3
 167              	.L11:
 197:Source\LwIP\src\netif/ethernet.c ****       } else {
 198:Source\LwIP\src\netif/ethernet.c ****         /* pass p to ARP module */
 199:Source\LwIP\src\netif/ethernet.c ****         etharp_input(p, netif);
 168              		.loc 1 199 0
 169 00b6 3100     		movs	r1, r6
 170 00b8 2000     		movs	r0, r4
 171 00ba FFF7FEFF 		bl	etharp_input
 172              	.LVL9:
 200:Source\LwIP\src\netif/ethernet.c ****       }
 201:Source\LwIP\src\netif/ethernet.c ****       break;
 173              		.loc 1 201 0
 174 00be 09E0     		b	.L9
 175              	.L12:
 202:Source\LwIP\src\netif/ethernet.c **** #endif /* LWIP_IPV4 && LWIP_ARP */
 203:Source\LwIP\src\netif/ethernet.c **** #if PPPOE_SUPPORT
 204:Source\LwIP\src\netif/ethernet.c ****     case PP_HTONS(ETHTYPE_PPPOEDISC): /* PPP Over Ethernet Discovery Stage */
 205:Source\LwIP\src\netif/ethernet.c ****       pppoe_disc_input(netif, p);
 206:Source\LwIP\src\netif/ethernet.c ****       break;
 207:Source\LwIP\src\netif/ethernet.c **** 
 208:Source\LwIP\src\netif/ethernet.c ****     case PP_HTONS(ETHTYPE_PPPOE): /* PPP Over Ethernet Session Stage */
 209:Source\LwIP\src\netif/ethernet.c ****       pppoe_data_input(netif, p);
 210:Source\LwIP\src\netif/ethernet.c ****       break;
 211:Source\LwIP\src\netif/ethernet.c **** #endif /* PPPOE_SUPPORT */
 212:Source\LwIP\src\netif/ethernet.c **** 
 213:Source\LwIP\src\netif/ethernet.c **** #if LWIP_IPV6
 214:Source\LwIP\src\netif/ethernet.c ****     case PP_HTONS(ETHTYPE_IPV6): /* IPv6 */
 215:Source\LwIP\src\netif/ethernet.c ****       /* skip Ethernet header */
 216:Source\LwIP\src\netif/ethernet.c ****       if ((p->len < ip_hdr_offset) || pbuf_header(p, (s16_t)-ip_hdr_offset)) {
 217:Source\LwIP\src\netif/ethernet.c ****         LWIP_DEBUGF(ETHARP_DEBUG | LWIP_DBG_TRACE | LWIP_DBG_LEVEL_WARNING,
 218:Source\LwIP\src\netif/ethernet.c ****           ("ethernet_input: IPv6 packet dropped, too short (%"S16_F"/%"S16_F")\n",
 219:Source\LwIP\src\netif/ethernet.c ****           p->tot_len, ip_hdr_offset));
 220:Source\LwIP\src\netif/ethernet.c ****         goto free_and_return;
 221:Source\LwIP\src\netif/ethernet.c ****       } else {
 222:Source\LwIP\src\netif/ethernet.c ****         /* pass to IPv6 layer */
 223:Source\LwIP\src\netif/ethernet.c ****         ip6_input(p, netif);
ARM GAS  C:\Users\Phuong\AppData\Local\Temp\ccwlLpq6.s 			page 8


 224:Source\LwIP\src\netif/ethernet.c ****       }
 225:Source\LwIP\src\netif/ethernet.c ****       break;
 226:Source\LwIP\src\netif/ethernet.c **** #endif /* LWIP_IPV6 */
 227:Source\LwIP\src\netif/ethernet.c **** 
 228:Source\LwIP\src\netif/ethernet.c ****     default:
 229:Source\LwIP\src\netif/ethernet.c **** #ifdef LWIP_HOOK_UNKNOWN_ETH_PROTOCOL
 230:Source\LwIP\src\netif/ethernet.c ****       if(LWIP_HOOK_UNKNOWN_ETH_PROTOCOL(p, netif) == ERR_OK) {
 231:Source\LwIP\src\netif/ethernet.c ****         break;
 232:Source\LwIP\src\netif/ethernet.c ****       }
 233:Source\LwIP\src\netif/ethernet.c **** #endif
 234:Source\LwIP\src\netif/ethernet.c ****       ETHARP_STATS_INC(etharp.proterr);
 176              		.loc 1 234 0
 177 00c0 054B     		ldr	r3, .L13
 178 00c2 1A8D     		ldrh	r2, [r3, #40]
 179 00c4 0132     		adds	r2, r2, #1
 180 00c6 1A85     		strh	r2, [r3, #40]
 235:Source\LwIP\src\netif/ethernet.c ****       ETHARP_STATS_INC(etharp.drop);
 181              		.loc 1 235 0
 182 00c8 DA8B     		ldrh	r2, [r3, #30]
 183 00ca 0132     		adds	r2, r2, #1
 184 00cc DA83     		strh	r2, [r3, #30]
 185              	.LVL10:
 186              	.L3:
 236:Source\LwIP\src\netif/ethernet.c ****       MIB2_STATS_NETIF_INC(netif, ifinunknownprotos);
 237:Source\LwIP\src\netif/ethernet.c ****       goto free_and_return;
 238:Source\LwIP\src\netif/ethernet.c ****   }
 239:Source\LwIP\src\netif/ethernet.c **** 
 240:Source\LwIP\src\netif/ethernet.c ****   /* This means the pbuf is freed or consumed,
 241:Source\LwIP\src\netif/ethernet.c ****      so the caller doesn't have to free it again */
 242:Source\LwIP\src\netif/ethernet.c ****   return ERR_OK;
 243:Source\LwIP\src\netif/ethernet.c **** 
 244:Source\LwIP\src\netif/ethernet.c **** free_and_return:
 245:Source\LwIP\src\netif/ethernet.c ****   pbuf_free(p);
 187              		.loc 1 245 0
 188 00ce 2000     		movs	r0, r4
 189 00d0 FFF7FEFF 		bl	pbuf_free
 190              	.LVL11:
 191              	.L9:
 246:Source\LwIP\src\netif/ethernet.c ****   return ERR_OK;
 247:Source\LwIP\src\netif/ethernet.c **** }
 192              		.loc 1 247 0
 193 00d4 0020     		movs	r0, #0
 194              		@ sp needed
 195              	.LVL12:
 196              	.LVL13:
 197 00d6 F8BD     		pop	{r3, r4, r5, r6, r7, pc}
 198              	.L14:
 199              		.align	2
 200              	.L13:
 201 00d8 00000000 		.word	lwip_stats
 202 00dc 00000000 		.word	.LANCHOR0
 203              		.cfi_endproc
 204              	.LFE53:
 205              		.size	ethernet_input, .-ethernet_input
 206              		.section	.text.ethernet_output,"ax",%progbits
 207              		.align	2
 208              		.global	ethernet_output
ARM GAS  C:\Users\Phuong\AppData\Local\Temp\ccwlLpq6.s 			page 9


 209              		.code	16
 210              		.thumb_func
 211              		.type	ethernet_output, %function
 212              	ethernet_output:
 213              	.LFB54:
 248:Source\LwIP\src\netif/ethernet.c **** 
 249:Source\LwIP\src\netif/ethernet.c **** /**
 250:Source\LwIP\src\netif/ethernet.c ****  * @ingroup ethernet
 251:Source\LwIP\src\netif/ethernet.c ****  * Send an ethernet packet on the network using netif->linkoutput().
 252:Source\LwIP\src\netif/ethernet.c ****  * The ethernet header is filled in before sending.
 253:Source\LwIP\src\netif/ethernet.c ****  *
 254:Source\LwIP\src\netif/ethernet.c ****  * @see LWIP_HOOK_VLAN_SET
 255:Source\LwIP\src\netif/ethernet.c ****  *
 256:Source\LwIP\src\netif/ethernet.c ****  * @param netif the lwIP network interface on which to send the packet
 257:Source\LwIP\src\netif/ethernet.c ****  * @param p the packet to send. pbuf layer must be @ref PBUF_LINK.
 258:Source\LwIP\src\netif/ethernet.c ****  * @param src the source MAC address to be copied into the ethernet header
 259:Source\LwIP\src\netif/ethernet.c ****  * @param dst the destination MAC address to be copied into the ethernet header
 260:Source\LwIP\src\netif/ethernet.c ****  * @param eth_type ethernet type (@ref eth_type)
 261:Source\LwIP\src\netif/ethernet.c ****  * @return ERR_OK if the packet was sent, any other err_t on failure
 262:Source\LwIP\src\netif/ethernet.c ****  */
 263:Source\LwIP\src\netif/ethernet.c **** err_t
 264:Source\LwIP\src\netif/ethernet.c **** ethernet_output(struct netif* netif, struct pbuf* p,
 265:Source\LwIP\src\netif/ethernet.c ****                 const struct eth_addr* src, const struct eth_addr* dst,
 266:Source\LwIP\src\netif/ethernet.c ****                 u16_t eth_type)
 267:Source\LwIP\src\netif/ethernet.c **** {
 214              		.loc 1 267 0
 215              		.cfi_startproc
 216              		@ args = 4, pretend = 0, frame = 8
 217              		@ frame_needed = 0, uses_anonymous_args = 0
 218              	.LVL14:
 219 0000 F0B5     		push	{r4, r5, r6, r7, lr}
 220              		.cfi_def_cfa_offset 20
 221              		.cfi_offset 4, -20
 222              		.cfi_offset 5, -16
 223              		.cfi_offset 6, -12
 224              		.cfi_offset 7, -8
 225              		.cfi_offset 14, -4
 226 0002 83B0     		sub	sp, sp, #12
 227              		.cfi_def_cfa_offset 32
 228 0004 0600     		movs	r6, r0
 229 0006 0F00     		movs	r7, r1
 230 0008 0092     		str	r2, [sp]
 231 000a 0193     		str	r3, [sp, #4]
 232 000c 08AB     		add	r3, sp, #32
 233              	.LVL15:
 234 000e 1888     		ldrh	r0, [r3]
 235              	.LVL16:
 268:Source\LwIP\src\netif/ethernet.c ****   struct eth_hdr* ethhdr;
 269:Source\LwIP\src\netif/ethernet.c ****   u16_t eth_type_be = lwip_htons(eth_type);
 236              		.loc 1 269 0
 237 0010 FFF7FEFF 		bl	lwip_htons
 238              	.LVL17:
 239 0014 0500     		movs	r5, r0
 240              	.LVL18:
 270:Source\LwIP\src\netif/ethernet.c **** 
 271:Source\LwIP\src\netif/ethernet.c **** #if ETHARP_SUPPORT_VLAN && defined(LWIP_HOOK_VLAN_SET)
 272:Source\LwIP\src\netif/ethernet.c ****   s32_t vlan_prio_vid = LWIP_HOOK_VLAN_SET(netif, p, src, dst, eth_type);
ARM GAS  C:\Users\Phuong\AppData\Local\Temp\ccwlLpq6.s 			page 10


 273:Source\LwIP\src\netif/ethernet.c ****   if (vlan_prio_vid >= 0) {
 274:Source\LwIP\src\netif/ethernet.c ****     struct eth_vlan_hdr* vlanhdr;
 275:Source\LwIP\src\netif/ethernet.c **** 
 276:Source\LwIP\src\netif/ethernet.c ****     LWIP_ASSERT("prio_vid must be <= 0xFFFF", vlan_prio_vid <= 0xFFFF);
 277:Source\LwIP\src\netif/ethernet.c **** 
 278:Source\LwIP\src\netif/ethernet.c ****     if (pbuf_header(p, SIZEOF_ETH_HDR + SIZEOF_VLAN_HDR) != 0) {
 279:Source\LwIP\src\netif/ethernet.c ****       goto pbuf_header_failed;
 280:Source\LwIP\src\netif/ethernet.c ****     }
 281:Source\LwIP\src\netif/ethernet.c ****     vlanhdr = (struct eth_vlan_hdr*)(((u8_t*)p->payload) + SIZEOF_ETH_HDR);
 282:Source\LwIP\src\netif/ethernet.c ****     vlanhdr->tpid     = eth_type_be;
 283:Source\LwIP\src\netif/ethernet.c ****     vlanhdr->prio_vid = lwip_htons((u16_t)vlan_prio_vid);
 284:Source\LwIP\src\netif/ethernet.c **** 
 285:Source\LwIP\src\netif/ethernet.c ****     eth_type_be = PP_HTONS(ETHTYPE_VLAN);
 286:Source\LwIP\src\netif/ethernet.c ****   } else
 287:Source\LwIP\src\netif/ethernet.c **** #endif /* ETHARP_SUPPORT_VLAN && defined(LWIP_HOOK_VLAN_SET) */
 288:Source\LwIP\src\netif/ethernet.c ****   {
 289:Source\LwIP\src\netif/ethernet.c ****     if (pbuf_header(p, SIZEOF_ETH_HDR) != 0) {
 241              		.loc 1 289 0
 242 0016 0E21     		movs	r1, #14
 243 0018 3800     		movs	r0, r7
 244 001a FFF7FEFF 		bl	pbuf_header
 245              	.LVL19:
 246 001e 0028     		cmp	r0, #0
 247 0020 12D1     		bne	.L16
 290:Source\LwIP\src\netif/ethernet.c ****       goto pbuf_header_failed;
 291:Source\LwIP\src\netif/ethernet.c ****     }
 292:Source\LwIP\src\netif/ethernet.c ****   }
 293:Source\LwIP\src\netif/ethernet.c **** 
 294:Source\LwIP\src\netif/ethernet.c ****   ethhdr = (struct eth_hdr*)p->payload;
 248              		.loc 1 294 0
 249 0022 7C68     		ldr	r4, [r7, #4]
 250              	.LVL20:
 295:Source\LwIP\src\netif/ethernet.c ****   ethhdr->type = eth_type_be;
 251              		.loc 1 295 0
 252 0024 2573     		strb	r5, [r4, #12]
 253 0026 2D0A     		lsrs	r5, r5, #8
 254              	.LVL21:
 255 0028 6573     		strb	r5, [r4, #13]
 296:Source\LwIP\src\netif/ethernet.c ****   ETHADDR32_COPY(&ethhdr->dest, dst);
 256              		.loc 1 296 0
 257 002a 0622     		movs	r2, #6
 258 002c 0199     		ldr	r1, [sp, #4]
 259 002e 2000     		movs	r0, r4
 260 0030 FFF7FEFF 		bl	memcpy
 261              	.LVL22:
 297:Source\LwIP\src\netif/ethernet.c ****   ETHADDR16_COPY(&ethhdr->src,  src);
 262              		.loc 1 297 0
 263 0034 A01D     		adds	r0, r4, #6
 264 0036 0622     		movs	r2, #6
 265 0038 0099     		ldr	r1, [sp]
 266 003a FFF7FEFF 		bl	memcpy
 267              	.LVL23:
 298:Source\LwIP\src\netif/ethernet.c **** 
 299:Source\LwIP\src\netif/ethernet.c ****   LWIP_ASSERT("netif->hwaddr_len must be 6 for ethernet_output!",
 300:Source\LwIP\src\netif/ethernet.c ****     (netif->hwaddr_len == ETH_HWADDR_LEN));
 301:Source\LwIP\src\netif/ethernet.c ****   LWIP_DEBUGF(ETHARP_DEBUG | LWIP_DBG_TRACE,
 302:Source\LwIP\src\netif/ethernet.c ****     ("ethernet_output: sending packet %p\n", (void *)p));
ARM GAS  C:\Users\Phuong\AppData\Local\Temp\ccwlLpq6.s 			page 11


 303:Source\LwIP\src\netif/ethernet.c **** 
 304:Source\LwIP\src\netif/ethernet.c ****   /* send the packet */
 305:Source\LwIP\src\netif/ethernet.c ****   return netif->linkoutput(netif, p);
 268              		.loc 1 305 0
 269 003e B369     		ldr	r3, [r6, #24]
 270 0040 3900     		movs	r1, r7
 271 0042 3000     		movs	r0, r6
 272 0044 9847     		blx	r3
 273              	.LVL24:
 274 0046 05E0     		b	.L17
 275              	.LVL25:
 276              	.L16:
 306:Source\LwIP\src\netif/ethernet.c **** 
 307:Source\LwIP\src\netif/ethernet.c **** pbuf_header_failed:
 308:Source\LwIP\src\netif/ethernet.c ****   LWIP_DEBUGF(ETHARP_DEBUG | LWIP_DBG_TRACE | LWIP_DBG_LEVEL_SERIOUS,
 309:Source\LwIP\src\netif/ethernet.c ****     ("ethernet_output: could not allocate room for header.\n"));
 310:Source\LwIP\src\netif/ethernet.c ****   LINK_STATS_INC(link.lenerr);
 277              		.loc 1 310 0
 278 0048 034A     		ldr	r2, .L18
 279 004a 5389     		ldrh	r3, [r2, #10]
 280 004c 0133     		adds	r3, r3, #1
 281 004e 5381     		strh	r3, [r2, #10]
 311:Source\LwIP\src\netif/ethernet.c ****   return ERR_BUF;
 282              		.loc 1 311 0
 283 0050 0220     		movs	r0, #2
 284 0052 4042     		rsbs	r0, r0, #0
 285              	.LVL26:
 286              	.L17:
 312:Source\LwIP\src\netif/ethernet.c **** }
 287              		.loc 1 312 0
 288 0054 03B0     		add	sp, sp, #12
 289              	.LVL27:
 290              		@ sp needed
 291              	.LVL28:
 292              	.LVL29:
 293 0056 F0BD     		pop	{r4, r5, r6, r7, pc}
 294              	.L19:
 295              		.align	2
 296              	.L18:
 297 0058 00000000 		.word	lwip_stats
 298              		.cfi_endproc
 299              	.LFE54:
 300              		.size	ethernet_output, .-ethernet_output
 301              		.global	ethzero
 302              		.global	ethbroadcast
 303              		.section	.rodata
 304              		.align	2
 305              		.set	.LANCHOR0,. + 0
 306              		.type	ethbroadcast, %object
 307              		.size	ethbroadcast, 6
 308              	ethbroadcast:
 309 0000 FF       		.byte	-1
 310 0001 FF       		.byte	-1
 311 0002 FF       		.byte	-1
 312 0003 FF       		.byte	-1
 313 0004 FF       		.byte	-1
 314 0005 FF       		.byte	-1
ARM GAS  C:\Users\Phuong\AppData\Local\Temp\ccwlLpq6.s 			page 12


 315 0006 0000     		.space	2
 316              		.type	ethzero, %object
 317              		.size	ethzero, 6
 318              	ethzero:
 319 0008 00000000 		.space	6
 319      0000
 320              		.text
 321              	.Letext0:
 322              		.file 2 "c:\\program files (x86)\\cypress\\psoc creator\\4.2\\psoc creator\\import\\gnu\\arm\\5.4.
 323              		.file 3 "c:\\program files (x86)\\cypress\\psoc creator\\4.2\\psoc creator\\import\\gnu\\arm\\5.4.
 324              		.file 4 "c:\\program files (x86)\\cypress\\psoc creator\\4.2\\psoc creator\\import\\gnu\\arm\\5.4.
 325              		.file 5 ".\\Source\\LwIP\\src\\include/arch/cc.h"
 326              		.file 6 ".\\Source\\LwIP\\src\\include/lwip/err.h"
 327              		.file 7 ".\\Source\\LwIP\\src\\include/lwip/pbuf.h"
 328              		.file 8 ".\\Source\\LwIP\\src\\include/lwip/ip4_addr.h"
 329              		.file 9 ".\\Source\\LwIP\\src\\include/lwip/ip_addr.h"
 330              		.file 10 ".\\Source\\LwIP\\src\\include/lwip/mem.h"
 331              		.file 11 ".\\Source\\LwIP\\src\\include/lwip/memp.h"
 332              		.file 12 ".\\Source\\LwIP\\src\\include/lwip/stats.h"
 333              		.file 13 ".\\Source\\LwIP\\src\\include/lwip/netif.h"
 334              		.file 14 ".\\Source\\LwIP\\src\\include/lwip/prot/ethernet.h"
 335              		.file 15 "c:\\program files (x86)\\cypress\\psoc creator\\4.2\\psoc creator\\import\\gnu\\arm\\5.4
 336              		.file 16 ".\\Source\\LwIP\\src\\include/lwip/ip4.h"
 337              		.file 17 ".\\Source\\LwIP\\src\\include/lwip/etharp.h"
 338              		.file 18 ".\\Source\\LwIP\\src\\include/lwip/def.h"