ARM GAS  C:\Users\Phuong\AppData\Local\Temp\ccIIJJrV.s 			page 1


   1              		.syntax unified
   2              		.cpu cortex-m0plus
   3              		.fpu softvfp
   4              		.eabi_attribute 20, 1
   5              		.eabi_attribute 21, 1
   6              		.eabi_attribute 23, 3
   7              		.eabi_attribute 24, 1
   8              		.eabi_attribute 25, 1
   9              		.eabi_attribute 26, 1
  10              		.eabi_attribute 30, 1
  11              		.eabi_attribute 34, 0
  12              		.eabi_attribute 18, 4
  13              		.thumb
  14              		.syntax unified
  15              		.file	"frame_codec.c"
  16              		.text
  17              	.Ltext0:
  18              		.cfi_sections	.debug_frame
  19              		.section	.text.find_subscription_by_frame_type,"ax",%progbits
  20              		.align	2
  21              		.code	16
  22              		.thumb_func
  23              		.type	find_subscription_by_frame_type, %function
  24              	find_subscription_by_frame_type:
  25              	.LFB1:
  26              		.file 1 "Source\\azure_iot_sdk\\uamqp\\src\\frame_codec.c"
   1:Source\azure_iot_sdk\uamqp\src/frame_codec.c **** // Copyright (c) Microsoft. All rights reserved.
   2:Source\azure_iot_sdk\uamqp\src/frame_codec.c **** // Licensed under the MIT license. See LICENSE file in the project root for full license informatio
   3:Source\azure_iot_sdk\uamqp\src/frame_codec.c **** 
   4:Source\azure_iot_sdk\uamqp\src/frame_codec.c **** #include <stdlib.h>
   5:Source\azure_iot_sdk\uamqp\src/frame_codec.c **** #include <stdint.h>
   6:Source\azure_iot_sdk\uamqp\src/frame_codec.c **** #include <stdbool.h>
   7:Source\azure_iot_sdk\uamqp\src/frame_codec.c **** #include <string.h>
   8:Source\azure_iot_sdk\uamqp\src/frame_codec.c **** #include <inttypes.h>
   9:Source\azure_iot_sdk\uamqp\src/frame_codec.c **** #include "azure_c_shared_utility/optimize_size.h"
  10:Source\azure_iot_sdk\uamqp\src/frame_codec.c **** #include "azure_c_shared_utility/gballoc.h"
  11:Source\azure_iot_sdk\uamqp\src/frame_codec.c **** #include "azure_c_shared_utility/xlogging.h"
  12:Source\azure_iot_sdk\uamqp\src/frame_codec.c **** #include "azure_c_shared_utility/singlylinkedlist.h"
  13:Source\azure_iot_sdk\uamqp\src/frame_codec.c **** #include "azure_uamqp_c/frame_codec.h"
  14:Source\azure_iot_sdk\uamqp\src/frame_codec.c **** #include "azure_uamqp_c/amqpvalue.h"
  15:Source\azure_iot_sdk\uamqp\src/frame_codec.c **** 
  16:Source\azure_iot_sdk\uamqp\src/frame_codec.c **** #define FRAME_HEADER_SIZE 8
  17:Source\azure_iot_sdk\uamqp\src/frame_codec.c **** #define MAX_TYPE_SPECIFIC_SIZE    ((255 * 4) - 6)
  18:Source\azure_iot_sdk\uamqp\src/frame_codec.c **** 
  19:Source\azure_iot_sdk\uamqp\src/frame_codec.c **** typedef enum RECEIVE_FRAME_STATE_TAG
  20:Source\azure_iot_sdk\uamqp\src/frame_codec.c **** {
  21:Source\azure_iot_sdk\uamqp\src/frame_codec.c ****     RECEIVE_FRAME_STATE_FRAME_SIZE,
  22:Source\azure_iot_sdk\uamqp\src/frame_codec.c ****     RECEIVE_FRAME_STATE_DOFF,
  23:Source\azure_iot_sdk\uamqp\src/frame_codec.c ****     RECEIVE_FRAME_STATE_FRAME_TYPE,
  24:Source\azure_iot_sdk\uamqp\src/frame_codec.c ****     RECEIVE_FRAME_STATE_TYPE_SPECIFIC,
  25:Source\azure_iot_sdk\uamqp\src/frame_codec.c ****     RECEIVE_FRAME_STATE_FRAME_BODY,
  26:Source\azure_iot_sdk\uamqp\src/frame_codec.c ****     RECEIVE_FRAME_STATE_ERROR
  27:Source\azure_iot_sdk\uamqp\src/frame_codec.c **** } RECEIVE_FRAME_STATE;
  28:Source\azure_iot_sdk\uamqp\src/frame_codec.c **** 
  29:Source\azure_iot_sdk\uamqp\src/frame_codec.c **** typedef struct SUBSCRIPTION_TAG
  30:Source\azure_iot_sdk\uamqp\src/frame_codec.c **** {
  31:Source\azure_iot_sdk\uamqp\src/frame_codec.c ****     uint8_t frame_type;
ARM GAS  C:\Users\Phuong\AppData\Local\Temp\ccIIJJrV.s 			page 2


  32:Source\azure_iot_sdk\uamqp\src/frame_codec.c ****     ON_FRAME_RECEIVED on_frame_received;
  33:Source\azure_iot_sdk\uamqp\src/frame_codec.c ****     void* callback_context;
  34:Source\azure_iot_sdk\uamqp\src/frame_codec.c **** } SUBSCRIPTION;
  35:Source\azure_iot_sdk\uamqp\src/frame_codec.c **** 
  36:Source\azure_iot_sdk\uamqp\src/frame_codec.c **** typedef struct FRAME_CODEC_INSTANCE_TAG
  37:Source\azure_iot_sdk\uamqp\src/frame_codec.c **** {
  38:Source\azure_iot_sdk\uamqp\src/frame_codec.c ****     /* subscriptions */
  39:Source\azure_iot_sdk\uamqp\src/frame_codec.c ****     SINGLYLINKEDLIST_HANDLE subscription_list;
  40:Source\azure_iot_sdk\uamqp\src/frame_codec.c **** 
  41:Source\azure_iot_sdk\uamqp\src/frame_codec.c ****     /* decode frame */
  42:Source\azure_iot_sdk\uamqp\src/frame_codec.c ****     RECEIVE_FRAME_STATE receive_frame_state;
  43:Source\azure_iot_sdk\uamqp\src/frame_codec.c ****     size_t receive_frame_pos;
  44:Source\azure_iot_sdk\uamqp\src/frame_codec.c ****     uint32_t receive_frame_size;
  45:Source\azure_iot_sdk\uamqp\src/frame_codec.c ****     uint32_t type_specific_size;
  46:Source\azure_iot_sdk\uamqp\src/frame_codec.c ****     uint8_t receive_frame_doff;
  47:Source\azure_iot_sdk\uamqp\src/frame_codec.c ****     uint8_t receive_frame_type;
  48:Source\azure_iot_sdk\uamqp\src/frame_codec.c ****     SUBSCRIPTION* receive_frame_subscription;
  49:Source\azure_iot_sdk\uamqp\src/frame_codec.c ****     unsigned char* receive_frame_bytes;
  50:Source\azure_iot_sdk\uamqp\src/frame_codec.c ****     ON_FRAME_CODEC_ERROR on_frame_codec_error;
  51:Source\azure_iot_sdk\uamqp\src/frame_codec.c ****     void* on_frame_codec_error_callback_context;
  52:Source\azure_iot_sdk\uamqp\src/frame_codec.c **** 
  53:Source\azure_iot_sdk\uamqp\src/frame_codec.c ****     /* configuration */
  54:Source\azure_iot_sdk\uamqp\src/frame_codec.c ****     uint32_t max_frame_size;
  55:Source\azure_iot_sdk\uamqp\src/frame_codec.c **** } FRAME_CODEC_INSTANCE;
  56:Source\azure_iot_sdk\uamqp\src/frame_codec.c **** 
  57:Source\azure_iot_sdk\uamqp\src/frame_codec.c **** static bool find_subscription_by_frame_type(LIST_ITEM_HANDLE list_item, const void* match_context)
  58:Source\azure_iot_sdk\uamqp\src/frame_codec.c **** {
  27              		.loc 1 58 0
  28              		.cfi_startproc
  29              		@ args = 0, pretend = 0, frame = 0
  30              		@ frame_needed = 0, uses_anonymous_args = 0
  31              	.LVL0:
  32 0000 10B5     		push	{r4, lr}
  33              		.cfi_def_cfa_offset 8
  34              		.cfi_offset 4, -8
  35              		.cfi_offset 14, -4
  36 0002 82B0     		sub	sp, sp, #8
  37              		.cfi_def_cfa_offset 16
  38 0004 0C00     		movs	r4, r1
  59:Source\azure_iot_sdk\uamqp\src/frame_codec.c ****     bool result;
  60:Source\azure_iot_sdk\uamqp\src/frame_codec.c ****     SUBSCRIPTION* subscription = (SUBSCRIPTION*)singlylinkedlist_item_get_value(list_item);
  39              		.loc 1 60 0
  40 0006 FFF7FEFF 		bl	singlylinkedlist_item_get_value
  41              	.LVL1:
  61:Source\azure_iot_sdk\uamqp\src/frame_codec.c **** 
  62:Source\azure_iot_sdk\uamqp\src/frame_codec.c ****     if (subscription == NULL)
  42              		.loc 1 62 0
  43 000a 0028     		cmp	r0, #0
  44 000c 0ED1     		bne	.L2
  45              	.LBB2:
  63:Source\azure_iot_sdk\uamqp\src/frame_codec.c ****     {
  64:Source\azure_iot_sdk\uamqp\src/frame_codec.c ****         LogError("Could not get subscription information from the list item");
  46              		.loc 1 64 0 discriminator 3
  47 000e FFF7FEFF 		bl	xlogging_get_log_function
  48              	.LVL2:
  49 0012 041E     		subs	r4, r0, #0
  50              	.LVL3:
ARM GAS  C:\Users\Phuong\AppData\Local\Temp\ccIIJJrV.s 			page 3


  51 0014 11D0     		beq	.L4
  52              		.loc 1 64 0 is_stmt 0 discriminator 4
  53 0016 0A4B     		ldr	r3, .L5
  54 0018 0193     		str	r3, [sp, #4]
  55 001a 0123     		movs	r3, #1
  56 001c 0093     		str	r3, [sp]
  57 001e 3F33     		adds	r3, r3, #63
  58 0020 084A     		ldr	r2, .L5+4
  59 0022 0949     		ldr	r1, .L5+8
  60 0024 0020     		movs	r0, #0
  61              	.LVL4:
  62 0026 A047     		blx	r4
  63              	.LVL5:
  64              	.LBE2:
  65:Source\azure_iot_sdk\uamqp\src/frame_codec.c ****         result = false;
  65              		.loc 1 65 0 is_stmt 1 discriminator 4
  66 0028 0020     		movs	r0, #0
  67 002a 07E0     		b	.L3
  68              	.LVL6:
  69              	.L2:
  66:Source\azure_iot_sdk\uamqp\src/frame_codec.c ****     }
  67:Source\azure_iot_sdk\uamqp\src/frame_codec.c ****     else
  68:Source\azure_iot_sdk\uamqp\src/frame_codec.c ****     {
  69:Source\azure_iot_sdk\uamqp\src/frame_codec.c ****         result = subscription->frame_type == *((uint8_t*)match_context) ? true : false;
  70              		.loc 1 69 0
  71 002c 0378     		ldrb	r3, [r0]
  72 002e 2078     		ldrb	r0, [r4]
  73              	.LVL7:
  74 0030 181A     		subs	r0, r3, r0
  75 0032 4342     		rsbs	r3, r0, #0
  76 0034 5841     		adcs	r0, r0, r3
  77 0036 C0B2     		uxtb	r0, r0
  78              	.LVL8:
  79 0038 00E0     		b	.L3
  80              	.LVL9:
  81              	.L4:
  65:Source\azure_iot_sdk\uamqp\src/frame_codec.c ****         result = false;
  82              		.loc 1 65 0
  83 003a 0020     		movs	r0, #0
  84              	.LVL10:
  85              	.L3:
  70:Source\azure_iot_sdk\uamqp\src/frame_codec.c ****     }
  71:Source\azure_iot_sdk\uamqp\src/frame_codec.c **** 
  72:Source\azure_iot_sdk\uamqp\src/frame_codec.c ****     return result;
  73:Source\azure_iot_sdk\uamqp\src/frame_codec.c **** }
  86              		.loc 1 73 0
  87 003c 02B0     		add	sp, sp, #8
  88              		@ sp needed
  89 003e 10BD     		pop	{r4, pc}
  90              	.L6:
  91              		.align	2
  92              	.L5:
  93 0040 30000000 		.word	.LC3
  94 0044 14000000 		.word	.LANCHOR0
  95 0048 00000000 		.word	.LC1
  96              		.cfi_endproc
  97              	.LFE1:
ARM GAS  C:\Users\Phuong\AppData\Local\Temp\ccIIJJrV.s 			page 4


  98              		.size	find_subscription_by_frame_type, .-find_subscription_by_frame_type
  99              		.section	.text.frame_codec_create,"ax",%progbits
 100              		.align	2
 101              		.global	frame_codec_create
 102              		.code	16
 103              		.thumb_func
 104              		.type	frame_codec_create, %function
 105              	frame_codec_create:
 106              	.LFB2:
  74:Source\azure_iot_sdk\uamqp\src/frame_codec.c **** 
  75:Source\azure_iot_sdk\uamqp\src/frame_codec.c **** FRAME_CODEC_HANDLE frame_codec_create(ON_FRAME_CODEC_ERROR on_frame_codec_error, void* callback_con
  76:Source\azure_iot_sdk\uamqp\src/frame_codec.c **** {
 107              		.loc 1 76 0
 108              		.cfi_startproc
 109              		@ args = 0, pretend = 0, frame = 0
 110              		@ frame_needed = 0, uses_anonymous_args = 0
 111              	.LVL11:
 112 0000 70B5     		push	{r4, r5, r6, lr}
 113              		.cfi_def_cfa_offset 16
 114              		.cfi_offset 4, -16
 115              		.cfi_offset 5, -12
 116              		.cfi_offset 6, -8
 117              		.cfi_offset 14, -4
 118 0002 82B0     		sub	sp, sp, #8
 119              		.cfi_def_cfa_offset 24
 120 0004 0500     		movs	r5, r0
 121 0006 0E00     		movs	r6, r1
  77:Source\azure_iot_sdk\uamqp\src/frame_codec.c ****     FRAME_CODEC_INSTANCE* result;
  78:Source\azure_iot_sdk\uamqp\src/frame_codec.c **** 
  79:Source\azure_iot_sdk\uamqp\src/frame_codec.c ****     /* Codes_SRS_FRAME_CODEC_01_020: [If the on_frame_codec_error argument is NULL, frame_codec_cre
  80:Source\azure_iot_sdk\uamqp\src/frame_codec.c ****     /* Codes_SRS_FRAME_CODEC_01_104: [The callback_context shall be allowed to be NULL.] */
  81:Source\azure_iot_sdk\uamqp\src/frame_codec.c ****     if (on_frame_codec_error == NULL)
 122              		.loc 1 81 0
 123 0008 0028     		cmp	r0, #0
 124 000a 0FD1     		bne	.L8
 125              	.LBB3:
  82:Source\azure_iot_sdk\uamqp\src/frame_codec.c ****     {
  83:Source\azure_iot_sdk\uamqp\src/frame_codec.c ****         LogError("NULL on_frame_codec_error");
 126              		.loc 1 83 0 discriminator 3
 127 000c FFF7FEFF 		bl	xlogging_get_log_function
 128              	.LVL12:
 129 0010 041E     		subs	r4, r0, #0
 130              	.LVL13:
 131 0012 2DD0     		beq	.L11
 132              		.loc 1 83 0 is_stmt 0 discriminator 4
 133 0014 184B     		ldr	r3, .L12
 134 0016 0193     		str	r3, [sp, #4]
 135 0018 0123     		movs	r3, #1
 136 001a 0093     		str	r3, [sp]
 137 001c 5233     		adds	r3, r3, #82
 138 001e 174A     		ldr	r2, .L12+4
 139 0020 2032     		adds	r2, r2, #32
 140 0022 1749     		ldr	r1, .L12+8
 141 0024 0020     		movs	r0, #0
 142              	.LVL14:
 143 0026 A047     		blx	r4
 144              	.LVL15:
ARM GAS  C:\Users\Phuong\AppData\Local\Temp\ccIIJJrV.s 			page 5


 145              	.LBE3:
  84:Source\azure_iot_sdk\uamqp\src/frame_codec.c ****         result = NULL;
 146              		.loc 1 84 0 is_stmt 1 discriminator 4
 147 0028 0024     		movs	r4, #0
 148              	.LVL16:
 149 002a 22E0     		b	.L9
 150              	.LVL17:
 151              	.L8:
  85:Source\azure_iot_sdk\uamqp\src/frame_codec.c ****     }
  86:Source\azure_iot_sdk\uamqp\src/frame_codec.c ****     else
  87:Source\azure_iot_sdk\uamqp\src/frame_codec.c ****     {
  88:Source\azure_iot_sdk\uamqp\src/frame_codec.c ****         result = (FRAME_CODEC_INSTANCE*)malloc(sizeof(FRAME_CODEC_INSTANCE));
 152              		.loc 1 88 0
 153 002c 2C20     		movs	r0, #44
 154              	.LVL18:
 155 002e FFF7FEFF 		bl	malloc
 156              	.LVL19:
 157 0032 041E     		subs	r4, r0, #0
 158              	.LVL20:
  89:Source\azure_iot_sdk\uamqp\src/frame_codec.c ****         /* Codes_SRS_FRAME_CODEC_01_022: [If allocating memory for the frame_codec instance fails, 
  90:Source\azure_iot_sdk\uamqp\src/frame_codec.c ****         if (result == NULL)
 159              		.loc 1 90 0
 160 0034 0ED1     		bne	.L10
 161              	.LBB4:
  91:Source\azure_iot_sdk\uamqp\src/frame_codec.c ****         {
  92:Source\azure_iot_sdk\uamqp\src/frame_codec.c ****             LogError("Could not allocate frame codec");
 162              		.loc 1 92 0 discriminator 3
 163 0036 FFF7FEFF 		bl	xlogging_get_log_function
 164              	.LVL21:
 165 003a 051E     		subs	r5, r0, #0
 166              	.LVL22:
 167 003c 19D0     		beq	.L9
 168              		.loc 1 92 0 is_stmt 0 discriminator 4
 169 003e 114B     		ldr	r3, .L12+12
 170 0040 0193     		str	r3, [sp, #4]
 171 0042 0123     		movs	r3, #1
 172 0044 0093     		str	r3, [sp]
 173 0046 5B33     		adds	r3, r3, #91
 174 0048 0C4A     		ldr	r2, .L12+4
 175 004a 2032     		adds	r2, r2, #32
 176 004c 0C49     		ldr	r1, .L12+8
 177 004e 0020     		movs	r0, #0
 178              	.LVL23:
 179 0050 A847     		blx	r5
 180              	.LVL24:
 181 0052 0EE0     		b	.L9
 182              	.LVL25:
 183              	.L10:
 184              	.LBE4:
  93:Source\azure_iot_sdk\uamqp\src/frame_codec.c ****         }
  94:Source\azure_iot_sdk\uamqp\src/frame_codec.c ****         else
  95:Source\azure_iot_sdk\uamqp\src/frame_codec.c ****         {
  96:Source\azure_iot_sdk\uamqp\src/frame_codec.c ****             /* Codes_SRS_FRAME_CODEC_01_021: [frame_codec_create shall create a new instance of fra
  97:Source\azure_iot_sdk\uamqp\src/frame_codec.c ****             result->receive_frame_state = RECEIVE_FRAME_STATE_FRAME_SIZE;
 185              		.loc 1 97 0 is_stmt 1
 186 0054 0023     		movs	r3, #0
 187 0056 0371     		strb	r3, [r0, #4]
ARM GAS  C:\Users\Phuong\AppData\Local\Temp\ccIIJJrV.s 			page 6


  98:Source\azure_iot_sdk\uamqp\src/frame_codec.c ****             result->on_frame_codec_error = on_frame_codec_error;
 188              		.loc 1 98 0
 189 0058 0562     		str	r5, [r0, #32]
  99:Source\azure_iot_sdk\uamqp\src/frame_codec.c ****             result->on_frame_codec_error_callback_context = callback_context;
 190              		.loc 1 99 0
 191 005a 4662     		str	r6, [r0, #36]
 100:Source\azure_iot_sdk\uamqp\src/frame_codec.c ****             result->receive_frame_pos = 0;
 192              		.loc 1 100 0
 193 005c 8360     		str	r3, [r0, #8]
 101:Source\azure_iot_sdk\uamqp\src/frame_codec.c ****             result->receive_frame_size = 0;
 194              		.loc 1 101 0
 195 005e C360     		str	r3, [r0, #12]
 102:Source\azure_iot_sdk\uamqp\src/frame_codec.c ****             result->receive_frame_bytes = NULL;
 196              		.loc 1 102 0
 197 0060 C361     		str	r3, [r0, #28]
 103:Source\azure_iot_sdk\uamqp\src/frame_codec.c ****             result->subscription_list = singlylinkedlist_create();
 198              		.loc 1 103 0
 199 0062 FFF7FEFF 		bl	singlylinkedlist_create
 200              	.LVL26:
 201 0066 2060     		str	r0, [r4]
 104:Source\azure_iot_sdk\uamqp\src/frame_codec.c **** 
 105:Source\azure_iot_sdk\uamqp\src/frame_codec.c ****             /* Codes_SRS_FRAME_CODEC_01_082: [The initial max_frame_size_shall be 512.] */
 106:Source\azure_iot_sdk\uamqp\src/frame_codec.c ****             result->max_frame_size = 512;
 202              		.loc 1 106 0
 203 0068 8023     		movs	r3, #128
 204 006a 9B00     		lsls	r3, r3, #2
 205 006c A362     		str	r3, [r4, #40]
 206 006e 00E0     		b	.L9
 207              	.LVL27:
 208              	.L11:
  84:Source\azure_iot_sdk\uamqp\src/frame_codec.c ****     }
 209              		.loc 1 84 0
 210 0070 0024     		movs	r4, #0
 211              	.LVL28:
 212              	.L9:
 107:Source\azure_iot_sdk\uamqp\src/frame_codec.c ****         }
 108:Source\azure_iot_sdk\uamqp\src/frame_codec.c ****     }
 109:Source\azure_iot_sdk\uamqp\src/frame_codec.c **** 
 110:Source\azure_iot_sdk\uamqp\src/frame_codec.c ****     return result;
 111:Source\azure_iot_sdk\uamqp\src/frame_codec.c **** }
 213              		.loc 1 111 0
 214 0072 2000     		movs	r0, r4
 215 0074 02B0     		add	sp, sp, #8
 216              		@ sp needed
 217              	.LVL29:
 218              	.LVL30:
 219 0076 70BD     		pop	{r4, r5, r6, pc}
 220              	.L13:
 221              		.align	2
 222              	.L12:
 223 0078 6C000000 		.word	.LC7
 224 007c 14000000 		.word	.LANCHOR0
 225 0080 00000000 		.word	.LC1
 226 0084 88000000 		.word	.LC9
 227              		.cfi_endproc
 228              	.LFE2:
 229              		.size	frame_codec_create, .-frame_codec_create
ARM GAS  C:\Users\Phuong\AppData\Local\Temp\ccIIJJrV.s 			page 7


 230              		.section	.text.frame_codec_destroy,"ax",%progbits
 231              		.align	2
 232              		.global	frame_codec_destroy
 233              		.code	16
 234              		.thumb_func
 235              		.type	frame_codec_destroy, %function
 236              	frame_codec_destroy:
 237              	.LFB3:
 112:Source\azure_iot_sdk\uamqp\src/frame_codec.c **** 
 113:Source\azure_iot_sdk\uamqp\src/frame_codec.c **** void frame_codec_destroy(FRAME_CODEC_HANDLE frame_codec)
 114:Source\azure_iot_sdk\uamqp\src/frame_codec.c **** {
 238              		.loc 1 114 0
 239              		.cfi_startproc
 240              		@ args = 0, pretend = 0, frame = 0
 241              		@ frame_needed = 0, uses_anonymous_args = 0
 242              	.LVL31:
 243 0000 10B5     		push	{r4, lr}
 244              		.cfi_def_cfa_offset 8
 245              		.cfi_offset 4, -8
 246              		.cfi_offset 14, -4
 247 0002 82B0     		sub	sp, sp, #8
 248              		.cfi_def_cfa_offset 16
 249 0004 041E     		subs	r4, r0, #0
 115:Source\azure_iot_sdk\uamqp\src/frame_codec.c ****     /* Codes_SRS_FRAME_CODEC_01_024: [If frame_codec is NULL, frame_codec_destroy shall do nothing.
 116:Source\azure_iot_sdk\uamqp\src/frame_codec.c ****     if (frame_codec == NULL)
 250              		.loc 1 116 0
 251 0006 0ED1     		bne	.L15
 252              	.LBB5:
 117:Source\azure_iot_sdk\uamqp\src/frame_codec.c ****     {
 118:Source\azure_iot_sdk\uamqp\src/frame_codec.c ****         LogError("NULL frame_codec");
 253              		.loc 1 118 0 discriminator 3
 254 0008 FFF7FEFF 		bl	xlogging_get_log_function
 255              	.LVL32:
 256 000c 041E     		subs	r4, r0, #0
 257              	.LVL33:
 258 000e 15D0     		beq	.L14
 259              		.loc 1 118 0 is_stmt 0 discriminator 4
 260 0010 0B4B     		ldr	r3, .L18
 261 0012 0193     		str	r3, [sp, #4]
 262 0014 0123     		movs	r3, #1
 263 0016 0093     		str	r3, [sp]
 264 0018 7533     		adds	r3, r3, #117
 265 001a 0A4A     		ldr	r2, .L18+4
 266 001c 3432     		adds	r2, r2, #52
 267 001e 0A49     		ldr	r1, .L18+8
 268 0020 0020     		movs	r0, #0
 269              	.LVL34:
 270 0022 A047     		blx	r4
 271              	.LVL35:
 272 0024 0AE0     		b	.L14
 273              	.LVL36:
 274              	.L15:
 275              	.LBE5:
 276              	.LBB6:
 119:Source\azure_iot_sdk\uamqp\src/frame_codec.c ****     }
 120:Source\azure_iot_sdk\uamqp\src/frame_codec.c ****     else
 121:Source\azure_iot_sdk\uamqp\src/frame_codec.c ****     {
ARM GAS  C:\Users\Phuong\AppData\Local\Temp\ccIIJJrV.s 			page 8


 122:Source\azure_iot_sdk\uamqp\src/frame_codec.c ****         FRAME_CODEC_INSTANCE* frame_codec_data = (FRAME_CODEC_INSTANCE*)frame_codec;
 123:Source\azure_iot_sdk\uamqp\src/frame_codec.c **** 
 124:Source\azure_iot_sdk\uamqp\src/frame_codec.c ****         singlylinkedlist_destroy(frame_codec_data->subscription_list);
 277              		.loc 1 124 0 is_stmt 1
 278 0026 0068     		ldr	r0, [r0]
 279              	.LVL37:
 280 0028 FFF7FEFF 		bl	singlylinkedlist_destroy
 281              	.LVL38:
 125:Source\azure_iot_sdk\uamqp\src/frame_codec.c ****         if (frame_codec_data->receive_frame_bytes != NULL)
 282              		.loc 1 125 0
 283 002c E069     		ldr	r0, [r4, #28]
 284 002e 0028     		cmp	r0, #0
 285 0030 01D0     		beq	.L17
 126:Source\azure_iot_sdk\uamqp\src/frame_codec.c ****         {
 127:Source\azure_iot_sdk\uamqp\src/frame_codec.c ****             free(frame_codec_data->receive_frame_bytes);
 286              		.loc 1 127 0
 287 0032 FFF7FEFF 		bl	free
 288              	.LVL39:
 289              	.L17:
 128:Source\azure_iot_sdk\uamqp\src/frame_codec.c ****         }
 129:Source\azure_iot_sdk\uamqp\src/frame_codec.c **** 
 130:Source\azure_iot_sdk\uamqp\src/frame_codec.c ****         /* Codes_SRS_FRAME_CODEC_01_023: [frame_codec_destroy shall free all resources associated w
 131:Source\azure_iot_sdk\uamqp\src/frame_codec.c ****         free(frame_codec);
 290              		.loc 1 131 0
 291 0036 2000     		movs	r0, r4
 292 0038 FFF7FEFF 		bl	free
 293              	.LVL40:
 294              	.L14:
 295              	.LBE6:
 132:Source\azure_iot_sdk\uamqp\src/frame_codec.c ****     }
 133:Source\azure_iot_sdk\uamqp\src/frame_codec.c **** }
 296              		.loc 1 133 0
 297 003c 02B0     		add	sp, sp, #8
 298              		@ sp needed
 299 003e 10BD     		pop	{r4, pc}
 300              	.L19:
 301              		.align	2
 302              	.L18:
 303 0040 A8000000 		.word	.LC13
 304 0044 14000000 		.word	.LANCHOR0
 305 0048 00000000 		.word	.LC1
 306              		.cfi_endproc
 307              	.LFE3:
 308              		.size	frame_codec_destroy, .-frame_codec_destroy
 309              		.section	.text.frame_codec_set_max_frame_size,"ax",%progbits
 310              		.align	2
 311              		.global	frame_codec_set_max_frame_size
 312              		.code	16
 313              		.thumb_func
 314              		.type	frame_codec_set_max_frame_size, %function
 315              	frame_codec_set_max_frame_size:
 316              	.LFB4:
 134:Source\azure_iot_sdk\uamqp\src/frame_codec.c **** 
 135:Source\azure_iot_sdk\uamqp\src/frame_codec.c **** int frame_codec_set_max_frame_size(FRAME_CODEC_HANDLE frame_codec, uint32_t max_frame_size)
 136:Source\azure_iot_sdk\uamqp\src/frame_codec.c **** {
 317              		.loc 1 136 0
 318              		.cfi_startproc
ARM GAS  C:\Users\Phuong\AppData\Local\Temp\ccIIJJrV.s 			page 9


 319              		@ args = 0, pretend = 0, frame = 0
 320              		@ frame_needed = 0, uses_anonymous_args = 0
 321              	.LVL41:
 322 0000 70B5     		push	{r4, r5, r6, lr}
 323              		.cfi_def_cfa_offset 16
 324              		.cfi_offset 4, -16
 325              		.cfi_offset 5, -12
 326              		.cfi_offset 6, -8
 327              		.cfi_offset 14, -4
 328 0002 84B0     		sub	sp, sp, #16
 329              		.cfi_def_cfa_offset 32
 330 0004 0400     		movs	r4, r0
 331 0006 0D00     		movs	r5, r1
 332              	.LVL42:
 137:Source\azure_iot_sdk\uamqp\src/frame_codec.c ****     int result;
 138:Source\azure_iot_sdk\uamqp\src/frame_codec.c ****     FRAME_CODEC_INSTANCE* frame_codec_data = (FRAME_CODEC_INSTANCE*)frame_codec;
 139:Source\azure_iot_sdk\uamqp\src/frame_codec.c **** 
 140:Source\azure_iot_sdk\uamqp\src/frame_codec.c ****     /* Codes_SRS_FRAME_CODEC_01_077: [If frame_codec is NULL, frame_codec_set_max_frame_size shall 
 141:Source\azure_iot_sdk\uamqp\src/frame_codec.c ****     if ((frame_codec == NULL) ||
 333              		.loc 1 141 0
 334 0008 0028     		cmp	r0, #0
 335 000a 07D0     		beq	.L21
 336              		.loc 1 141 0 is_stmt 0 discriminator 1
 337 000c 0729     		cmp	r1, #7
 338 000e 05D9     		bls	.L21
 142:Source\azure_iot_sdk\uamqp\src/frame_codec.c ****         /* Codes_SRS_FRAME_CODEC_01_078: [If max_frame_size is invalid according to the AMQP standa
 143:Source\azure_iot_sdk\uamqp\src/frame_codec.c ****         (max_frame_size < FRAME_HEADER_SIZE) ||
 339              		.loc 1 143 0 is_stmt 1
 340 0010 C368     		ldr	r3, [r0, #12]
 341 0012 9942     		cmp	r1, r3
 342 0014 14D2     		bcs	.L22
 144:Source\azure_iot_sdk\uamqp\src/frame_codec.c ****         /* Codes_SRS_FRAME_CODEC_01_081: [If a frame being decoded already has a size bigger than t
 145:Source\azure_iot_sdk\uamqp\src/frame_codec.c ****         ((max_frame_size < frame_codec_data->receive_frame_size) && (frame_codec_data->receive_fram
 343              		.loc 1 145 0
 344 0016 0379     		ldrb	r3, [r0, #4]
 345 0018 002B     		cmp	r3, #0
 346 001a 11D0     		beq	.L22
 347              	.L21:
 348              	.LBB7:
 146:Source\azure_iot_sdk\uamqp\src/frame_codec.c ****     {
 147:Source\azure_iot_sdk\uamqp\src/frame_codec.c ****         LogError("Bad arguments: frame_codec = %p, max_frame_size = %" PRIu32,
 349              		.loc 1 147 0 discriminator 3
 350 001c FFF7FEFF 		bl	xlogging_get_log_function
 351              	.LVL43:
 352 0020 061E     		subs	r6, r0, #0
 353              	.LVL44:
 354 0022 23D0     		beq	.L25
 355              		.loc 1 147 0 is_stmt 0 discriminator 4
 356 0024 0395     		str	r5, [sp, #12]
 357 0026 0294     		str	r4, [sp, #8]
 358 0028 134B     		ldr	r3, .L27
 359 002a 0193     		str	r3, [sp, #4]
 360 002c 0123     		movs	r3, #1
 361 002e 0093     		str	r3, [sp]
 362 0030 9433     		adds	r3, r3, #148
 363 0032 124A     		ldr	r2, .L27+4
 364 0034 4832     		adds	r2, r2, #72
ARM GAS  C:\Users\Phuong\AppData\Local\Temp\ccIIJJrV.s 			page 10


 365 0036 1249     		ldr	r1, .L27+8
 366 0038 0020     		movs	r0, #0
 367              	.LVL45:
 368 003a B047     		blx	r6
 369              	.LVL46:
 370              	.LBE7:
 148:Source\azure_iot_sdk\uamqp\src/frame_codec.c ****             frame_codec,
 149:Source\azure_iot_sdk\uamqp\src/frame_codec.c ****             max_frame_size);
 150:Source\azure_iot_sdk\uamqp\src/frame_codec.c ****         result = __FAILURE__;
 371              		.loc 1 150 0 is_stmt 1 discriminator 4
 372 003c 9620     		movs	r0, #150
 373 003e 18E0     		b	.L23
 374              	.LVL47:
 375              	.L22:
 151:Source\azure_iot_sdk\uamqp\src/frame_codec.c ****     }
 152:Source\azure_iot_sdk\uamqp\src/frame_codec.c ****     /* Codes_SRS_FRAME_CODEC_01_097: [Setting a frame size on a frame_codec that had a decode error
 153:Source\azure_iot_sdk\uamqp\src/frame_codec.c ****     else if (frame_codec_data->receive_frame_state == RECEIVE_FRAME_STATE_ERROR)
 376              		.loc 1 153 0
 377 0040 2379     		ldrb	r3, [r4, #4]
 378 0042 052B     		cmp	r3, #5
 379 0044 0FD1     		bne	.L24
 380              	.LBB8:
 154:Source\azure_iot_sdk\uamqp\src/frame_codec.c ****     {
 155:Source\azure_iot_sdk\uamqp\src/frame_codec.c ****         LogError("Frame codec in error state");
 381              		.loc 1 155 0 discriminator 3
 382 0046 FFF7FEFF 		bl	xlogging_get_log_function
 383              	.LVL48:
 384 004a 041E     		subs	r4, r0, #0
 385              	.LVL49:
 386 004c 10D0     		beq	.L26
 387              		.loc 1 155 0 is_stmt 0 discriminator 4
 388 004e 0D4B     		ldr	r3, .L27+12
 389 0050 0193     		str	r3, [sp, #4]
 390 0052 0123     		movs	r3, #1
 391 0054 0093     		str	r3, [sp]
 392 0056 9A33     		adds	r3, r3, #154
 393 0058 084A     		ldr	r2, .L27+4
 394 005a 4832     		adds	r2, r2, #72
 395 005c 0849     		ldr	r1, .L27+8
 396 005e 0020     		movs	r0, #0
 397              	.LVL50:
 398 0060 A047     		blx	r4
 399              	.LVL51:
 400              	.LBE8:
 156:Source\azure_iot_sdk\uamqp\src/frame_codec.c ****         result = __FAILURE__;
 401              		.loc 1 156 0 is_stmt 1 discriminator 4
 402 0062 9C20     		movs	r0, #156
 403 0064 05E0     		b	.L23
 404              	.LVL52:
 405              	.L24:
 157:Source\azure_iot_sdk\uamqp\src/frame_codec.c ****     }
 158:Source\azure_iot_sdk\uamqp\src/frame_codec.c ****     else
 159:Source\azure_iot_sdk\uamqp\src/frame_codec.c ****     {
 160:Source\azure_iot_sdk\uamqp\src/frame_codec.c ****         /* Codes_SRS_FRAME_CODEC_01_075: [frame_codec_set_max_frame_size shall set the maximum fram
 161:Source\azure_iot_sdk\uamqp\src/frame_codec.c ****         /* Codes_SRS_FRAME_CODEC_01_079: [The new frame size shall take effect immediately, even fo
 162:Source\azure_iot_sdk\uamqp\src/frame_codec.c ****         frame_codec_data->max_frame_size = max_frame_size;
 406              		.loc 1 162 0
ARM GAS  C:\Users\Phuong\AppData\Local\Temp\ccIIJJrV.s 			page 11


 407 0066 A562     		str	r5, [r4, #40]
 408              	.LVL53:
 163:Source\azure_iot_sdk\uamqp\src/frame_codec.c **** 
 164:Source\azure_iot_sdk\uamqp\src/frame_codec.c ****         /* Codes_SRS_FRAME_CODEC_01_076: [On success, frame_codec_set_max_frame_size shall return 0
 165:Source\azure_iot_sdk\uamqp\src/frame_codec.c ****         result = 0;
 409              		.loc 1 165 0
 410 0068 0020     		movs	r0, #0
 411              	.LVL54:
 412 006a 02E0     		b	.L23
 413              	.LVL55:
 414              	.L25:
 150:Source\azure_iot_sdk\uamqp\src/frame_codec.c ****     }
 415              		.loc 1 150 0
 416 006c 9620     		movs	r0, #150
 417              	.LVL56:
 418 006e 00E0     		b	.L23
 419              	.LVL57:
 420              	.L26:
 156:Source\azure_iot_sdk\uamqp\src/frame_codec.c ****     }
 421              		.loc 1 156 0
 422 0070 9C20     		movs	r0, #156
 423              	.LVL58:
 424              	.L23:
 166:Source\azure_iot_sdk\uamqp\src/frame_codec.c ****     }
 167:Source\azure_iot_sdk\uamqp\src/frame_codec.c **** 
 168:Source\azure_iot_sdk\uamqp\src/frame_codec.c ****     return result;
 169:Source\azure_iot_sdk\uamqp\src/frame_codec.c **** }
 425              		.loc 1 169 0
 426 0072 04B0     		add	sp, sp, #16
 427              		@ sp needed
 428              	.LVL59:
 429 0074 70BD     		pop	{r4, r5, r6, pc}
 430              	.L28:
 431 0076 C046     		.align	2
 432              	.L27:
 433 0078 BC000000 		.word	.LC17
 434 007c 14000000 		.word	.LANCHOR0
 435 0080 00000000 		.word	.LC1
 436 0084 F4000000 		.word	.LC19
 437              		.cfi_endproc
 438              	.LFE4:
 439              		.size	frame_codec_set_max_frame_size, .-frame_codec_set_max_frame_size
 440              		.section	.text.frame_codec_receive_bytes,"ax",%progbits
 441              		.align	2
 442              		.global	frame_codec_receive_bytes
 443              		.code	16
 444              		.thumb_func
 445              		.type	frame_codec_receive_bytes, %function
 446              	frame_codec_receive_bytes:
 447              	.LFB5:
 170:Source\azure_iot_sdk\uamqp\src/frame_codec.c **** 
 171:Source\azure_iot_sdk\uamqp\src/frame_codec.c **** /* Codes_SRS_FRAME_CODEC_01_001: [Frames are divided into three distinct areas: a fixed width frame
 172:Source\azure_iot_sdk\uamqp\src/frame_codec.c **** /* Codes_SRS_FRAME_CODEC_01_002: [frame header The frame header is a fixed size (8 byte) structure 
 173:Source\azure_iot_sdk\uamqp\src/frame_codec.c **** /* Codes_SRS_FRAME_CODEC_01_003: [The frame header includes mandatory information necessary to pars
 174:Source\azure_iot_sdk\uamqp\src/frame_codec.c **** /* Codes_SRS_FRAME_CODEC_01_004: [extended header The extended header is a variable width area prec
 175:Source\azure_iot_sdk\uamqp\src/frame_codec.c **** /* Codes_SRS_FRAME_CODEC_01_007: [frame body The frame body is a variable width sequence of bytes t
 176:Source\azure_iot_sdk\uamqp\src/frame_codec.c **** /* Codes_SRS_FRAME_CODEC_01_028: [The sequence of bytes shall be decoded according to the AMQP ISO.
ARM GAS  C:\Users\Phuong\AppData\Local\Temp\ccIIJJrV.s 			page 12


 177:Source\azure_iot_sdk\uamqp\src/frame_codec.c **** /* Codes_SRS_FRAME_CODEC_01_029: [The sequence of bytes does not have to be a complete frame, frame
 178:Source\azure_iot_sdk\uamqp\src/frame_codec.c **** int frame_codec_receive_bytes(FRAME_CODEC_HANDLE frame_codec, const unsigned char* buffer, size_t s
 179:Source\azure_iot_sdk\uamqp\src/frame_codec.c **** {
 448              		.loc 1 179 0
 449              		.cfi_startproc
 450              		@ args = 0, pretend = 0, frame = 0
 451              		@ frame_needed = 0, uses_anonymous_args = 0
 452              	.LVL60:
 453 0000 F0B5     		push	{r4, r5, r6, r7, lr}
 454              		.cfi_def_cfa_offset 20
 455              		.cfi_offset 4, -20
 456              		.cfi_offset 5, -16
 457              		.cfi_offset 6, -12
 458              		.cfi_offset 7, -8
 459              		.cfi_offset 14, -4
 460 0002 4746     		mov	r7, r8
 461 0004 80B4     		push	{r7}
 462              		.cfi_def_cfa_offset 24
 463              		.cfi_offset 8, -24
 464 0006 86B0     		sub	sp, sp, #24
 465              		.cfi_def_cfa_offset 48
 466 0008 0400     		movs	r4, r0
 467 000a 0E00     		movs	r6, r1
 468 000c 1500     		movs	r5, r2
 469              	.LVL61:
 180:Source\azure_iot_sdk\uamqp\src/frame_codec.c ****     int result = __FAILURE__;
 181:Source\azure_iot_sdk\uamqp\src/frame_codec.c ****     FRAME_CODEC_INSTANCE* frame_codec_data = (FRAME_CODEC_INSTANCE*)frame_codec;
 182:Source\azure_iot_sdk\uamqp\src/frame_codec.c **** 
 183:Source\azure_iot_sdk\uamqp\src/frame_codec.c ****     /* Codes_SRS_FRAME_CODEC_01_026: [If frame_codec or buffer are NULL, frame_codec_receive_bytes 
 184:Source\azure_iot_sdk\uamqp\src/frame_codec.c ****     if ((frame_codec == NULL) ||
 470              		.loc 1 184 0
 471 000e 0028     		cmp	r0, #0
 472 0010 04D0     		beq	.L30
 473              		.loc 1 184 0 is_stmt 0 discriminator 1
 474 0012 0029     		cmp	r1, #0
 475 0014 02D0     		beq	.L30
 185:Source\azure_iot_sdk\uamqp\src/frame_codec.c ****         (buffer == NULL) ||
 476              		.loc 1 185 0 is_stmt 1
 477 0016 002A     		cmp	r2, #0
 478 0018 00D0     		beq	.LCB490
 479 001a 42E1     		b	.L56	@long jump
 480              	.LCB490:
 481              	.L30:
 482              	.LBB9:
 186:Source\azure_iot_sdk\uamqp\src/frame_codec.c ****         /* Codes_SRS_FRAME_CODEC_01_027: [If size is zero, frame_codec_receive_bytes shall return a
 187:Source\azure_iot_sdk\uamqp\src/frame_codec.c ****         (size == 0))
 188:Source\azure_iot_sdk\uamqp\src/frame_codec.c ****     {
 189:Source\azure_iot_sdk\uamqp\src/frame_codec.c ****         LogError("Bad arguments: frame_codec = %p, buffer = %p, size = %u",
 483              		.loc 1 189 0 discriminator 3
 484 001c FFF7FEFF 		bl	xlogging_get_log_function
 485              	.LVL62:
 486 0020 071E     		subs	r7, r0, #0
 487              	.LVL63:
 488 0022 00D1     		bne	.LCB502
 489 0024 42E1     		b	.L57	@long jump
 490              	.LCB502:
 491              		.loc 1 189 0 is_stmt 0 discriminator 4
ARM GAS  C:\Users\Phuong\AppData\Local\Temp\ccIIJJrV.s 			page 13


 492 0026 0495     		str	r5, [sp, #16]
 493 0028 0396     		str	r6, [sp, #12]
 494 002a 0294     		str	r4, [sp, #8]
 495 002c A24B     		ldr	r3, .L67
 496 002e 0193     		str	r3, [sp, #4]
 497 0030 0123     		movs	r3, #1
 498 0032 0093     		str	r3, [sp]
 499 0034 BF33     		adds	r3, r3, #191
 500 0036 A14A     		ldr	r2, .L67+4
 501 0038 6832     		adds	r2, r2, #104
 502 003a A149     		ldr	r1, .L67+8
 503 003c 0020     		movs	r0, #0
 504              	.LVL64:
 505 003e B847     		blx	r7
 506              	.LVL65:
 507              	.LBE9:
 190:Source\azure_iot_sdk\uamqp\src/frame_codec.c ****             frame_codec,
 191:Source\azure_iot_sdk\uamqp\src/frame_codec.c ****             buffer,
 192:Source\azure_iot_sdk\uamqp\src/frame_codec.c ****             (unsigned int)size);
 193:Source\azure_iot_sdk\uamqp\src/frame_codec.c ****         result = __FAILURE__;
 508              		.loc 1 193 0 is_stmt 1 discriminator 4
 509 0040 C120     		movs	r0, #193
 510 0042 34E1     		b	.L32
 511              	.LVL66:
 512              	.L55:
 194:Source\azure_iot_sdk\uamqp\src/frame_codec.c ****     }
 195:Source\azure_iot_sdk\uamqp\src/frame_codec.c ****     else
 196:Source\azure_iot_sdk\uamqp\src/frame_codec.c ****     {
 197:Source\azure_iot_sdk\uamqp\src/frame_codec.c ****         while (size > 0)
 198:Source\azure_iot_sdk\uamqp\src/frame_codec.c ****         {
 199:Source\azure_iot_sdk\uamqp\src/frame_codec.c ****             switch (frame_codec_data->receive_frame_state)
 513              		.loc 1 199 0
 514 0044 2379     		ldrb	r3, [r4, #4]
 515 0046 042B     		cmp	r3, #4
 516 0048 03D8     		bhi	.L33
 517 004a 9B00     		lsls	r3, r3, #2
 518 004c 9D4A     		ldr	r2, .L67+12
 519 004e D358     		ldr	r3, [r2, r3]
 520 0050 9F46     		mov	pc, r3
 521              		.section	.rodata
 522              		.align	2
 523              	.L35:
 524 0000 76000000 		.word	.L34
 525 0004 DA000000 		.word	.L36
 526 0008 1E010000 		.word	.L37
 527 000c A2010000 		.word	.L38
 528 0010 16020000 		.word	.L39
 529              		.section	.text.frame_codec_receive_bytes
 530              	.L33:
 531              	.LBB10:
 200:Source\azure_iot_sdk\uamqp\src/frame_codec.c ****             {
 201:Source\azure_iot_sdk\uamqp\src/frame_codec.c ****             default:
 202:Source\azure_iot_sdk\uamqp\src/frame_codec.c ****             case RECEIVE_FRAME_STATE_ERROR:
 203:Source\azure_iot_sdk\uamqp\src/frame_codec.c ****                 /* Codes_SRS_FRAME_CODEC_01_074: [If a decoding error is detected, any subsequent c
 204:Source\azure_iot_sdk\uamqp\src/frame_codec.c ****                 LogError("Frame codec is in error state");
 532              		.loc 1 204 0 discriminator 3
 533 0052 FFF7FEFF 		bl	xlogging_get_log_function
ARM GAS  C:\Users\Phuong\AppData\Local\Temp\ccIIJJrV.s 			page 14


 534              	.LVL67:
 535 0056 051E     		subs	r5, r0, #0
 536              	.LVL68:
 537 0058 00D1     		bne	.LCB552
 538 005a 11E1     		b	.L58	@long jump
 539              	.LCB552:
 540              		.loc 1 204 0 is_stmt 0 discriminator 4
 541 005c 9A4B     		ldr	r3, .L67+16
 542 005e 0193     		str	r3, [sp, #4]
 543 0060 0123     		movs	r3, #1
 544 0062 0093     		str	r3, [sp]
 545 0064 CB33     		adds	r3, r3, #203
 546 0066 954A     		ldr	r2, .L67+4
 547 0068 6832     		adds	r2, r2, #104
 548 006a 9549     		ldr	r1, .L67+8
 549 006c 0020     		movs	r0, #0
 550              	.LVL69:
 551 006e A847     		blx	r5
 552              	.LVL70:
 553              	.LBE10:
 205:Source\azure_iot_sdk\uamqp\src/frame_codec.c ****                 result = __FAILURE__;
 554              		.loc 1 205 0 is_stmt 1 discriminator 4
 555 0070 CD20     		movs	r0, #205
 206:Source\azure_iot_sdk\uamqp\src/frame_codec.c ****                 size = 0;
 556              		.loc 1 206 0 discriminator 4
 557 0072 0025     		movs	r5, #0
 558              	.LVL71:
 559 0074 16E1     		b	.L31
 560              	.LVL72:
 561              	.L34:
 207:Source\azure_iot_sdk\uamqp\src/frame_codec.c ****                 break;
 208:Source\azure_iot_sdk\uamqp\src/frame_codec.c **** 
 209:Source\azure_iot_sdk\uamqp\src/frame_codec.c ****                 /* Codes_SRS_FRAME_CODEC_01_008: [SIZE Bytes 0-3 of the frame header contain the fr
 210:Source\azure_iot_sdk\uamqp\src/frame_codec.c ****             case RECEIVE_FRAME_STATE_FRAME_SIZE:
 211:Source\azure_iot_sdk\uamqp\src/frame_codec.c ****                 /* Codes_SRS_FRAME_CODEC_01_009: [This is an unsigned 32-bit integer that MUST cont
 212:Source\azure_iot_sdk\uamqp\src/frame_codec.c ****                 frame_codec_data->receive_frame_size += buffer[0] << (24 - frame_codec_data->receiv
 562              		.loc 1 212 0
 563 0076 3078     		ldrb	r0, [r6]
 564              	.LVL73:
 565 0078 A368     		ldr	r3, [r4, #8]
 566 007a 5907     		lsls	r1, r3, #29
 567 007c C91A     		subs	r1, r1, r3
 568 007e CA00     		lsls	r2, r1, #3
 569 0080 1832     		adds	r2, r2, #24
 570 0082 9040     		lsls	r0, r0, r2
 571 0084 0200     		movs	r2, r0
 572 0086 E168     		ldr	r1, [r4, #12]
 573 0088 8C46     		mov	ip, r1
 574 008a 6244     		add	r2, r2, ip
 575 008c E260     		str	r2, [r4, #12]
 213:Source\azure_iot_sdk\uamqp\src/frame_codec.c ****                 buffer++;
 576              		.loc 1 213 0
 577 008e 0136     		adds	r6, r6, #1
 578              	.LVL74:
 214:Source\azure_iot_sdk\uamqp\src/frame_codec.c ****                 size--;
 579              		.loc 1 214 0
 580 0090 013D     		subs	r5, r5, #1
ARM GAS  C:\Users\Phuong\AppData\Local\Temp\ccIIJJrV.s 			page 15


 581              	.LVL75:
 215:Source\azure_iot_sdk\uamqp\src/frame_codec.c ****                 frame_codec_data->receive_frame_pos++;
 582              		.loc 1 215 0
 583 0092 0133     		adds	r3, r3, #1
 584 0094 A360     		str	r3, [r4, #8]
 216:Source\azure_iot_sdk\uamqp\src/frame_codec.c **** 
 217:Source\azure_iot_sdk\uamqp\src/frame_codec.c ****                 if (frame_codec_data->receive_frame_pos == 4)
 585              		.loc 1 217 0
 586 0096 042B     		cmp	r3, #4
 587 0098 00D0     		beq	.LCB599
 588 009a F4E0     		b	.L59	@long jump
 589              	.LCB599:
 218:Source\azure_iot_sdk\uamqp\src/frame_codec.c ****                 {
 219:Source\azure_iot_sdk\uamqp\src/frame_codec.c ****                     /* Codes_SRS_FRAME_CODEC_01_010: [The frame is malformed if the size is less th
 220:Source\azure_iot_sdk\uamqp\src/frame_codec.c ****                     if ((frame_codec_data->receive_frame_size < FRAME_HEADER_SIZE) ||
 590              		.loc 1 220 0
 591 009c 072A     		cmp	r2, #7
 592 009e 02D9     		bls	.L41
 593              		.loc 1 220 0 is_stmt 0 discriminator 1
 594 00a0 A36A     		ldr	r3, [r4, #40]
 595 00a2 9A42     		cmp	r2, r3
 596 00a4 15D9     		bls	.L42
 597              	.L41:
 221:Source\azure_iot_sdk\uamqp\src/frame_codec.c ****                         /* Codes_SRS_FRAME_CODEC_01_096: [If a frame bigger than the current max fr
 222:Source\azure_iot_sdk\uamqp\src/frame_codec.c ****                         (frame_codec_data->receive_frame_size > frame_codec_data->max_frame_size))
 223:Source\azure_iot_sdk\uamqp\src/frame_codec.c ****                     {
 224:Source\azure_iot_sdk\uamqp\src/frame_codec.c ****                         /* Codes_SRS_FRAME_CODEC_01_074: [If a decoding error is detected, any subs
 225:Source\azure_iot_sdk\uamqp\src/frame_codec.c ****                         frame_codec_data->receive_frame_state = RECEIVE_FRAME_STATE_ERROR;
 598              		.loc 1 225 0 is_stmt 1
 599 00a6 0523     		movs	r3, #5
 600 00a8 2371     		strb	r3, [r4, #4]
 226:Source\azure_iot_sdk\uamqp\src/frame_codec.c ****                         /* Codes_SRS_FRAME_CODEC_01_103: [Upon any decode error, if an error callba
 227:Source\azure_iot_sdk\uamqp\src/frame_codec.c ****                         frame_codec_data->on_frame_codec_error(frame_codec_data->on_frame_codec_err
 601              		.loc 1 227 0
 602 00aa 606A     		ldr	r0, [r4, #36]
 603 00ac 236A     		ldr	r3, [r4, #32]
 604 00ae 9847     		blx	r3
 605              	.LVL76:
 606              	.LBB11:
 228:Source\azure_iot_sdk\uamqp\src/frame_codec.c ****                         LogError("Received frame size is too big");
 607              		.loc 1 228 0
 608 00b0 FFF7FEFF 		bl	xlogging_get_log_function
 609              	.LVL77:
 610 00b4 071E     		subs	r7, r0, #0
 611              	.LVL78:
 612 00b6 00D1     		bne	.LCB621
 613 00b8 E7E0     		b	.L60	@long jump
 614              	.LCB621:
 615              		.loc 1 228 0 is_stmt 0 discriminator 4
 616 00ba 844B     		ldr	r3, .L67+20
 617 00bc 0193     		str	r3, [sp, #4]
 618 00be 0123     		movs	r3, #1
 619 00c0 0093     		str	r3, [sp]
 620 00c2 E333     		adds	r3, r3, #227
 621 00c4 7D4A     		ldr	r2, .L67+4
 622 00c6 6832     		adds	r2, r2, #104
 623 00c8 7D49     		ldr	r1, .L67+8
ARM GAS  C:\Users\Phuong\AppData\Local\Temp\ccIIJJrV.s 			page 16


 624 00ca 0020     		movs	r0, #0
 625              	.LVL79:
 626 00cc B847     		blx	r7
 627              	.LVL80:
 628              	.LBE11:
 229:Source\azure_iot_sdk\uamqp\src/frame_codec.c ****                         result = __FAILURE__;
 629              		.loc 1 229 0 is_stmt 1 discriminator 4
 630 00ce E520     		movs	r0, #229
 631 00d0 E8E0     		b	.L31
 632              	.LVL81:
 633              	.L42:
 230:Source\azure_iot_sdk\uamqp\src/frame_codec.c ****                     }
 231:Source\azure_iot_sdk\uamqp\src/frame_codec.c ****                     else
 232:Source\azure_iot_sdk\uamqp\src/frame_codec.c ****                     {
 233:Source\azure_iot_sdk\uamqp\src/frame_codec.c ****                         frame_codec_data->receive_frame_state = RECEIVE_FRAME_STATE_DOFF;
 634              		.loc 1 233 0
 635 00d2 0123     		movs	r3, #1
 636 00d4 2371     		strb	r3, [r4, #4]
 637              	.LVL82:
 234:Source\azure_iot_sdk\uamqp\src/frame_codec.c ****                         result = 0;
 638              		.loc 1 234 0
 639 00d6 0020     		movs	r0, #0
 640 00d8 E4E0     		b	.L31
 641              	.LVL83:
 642              	.L36:
 235:Source\azure_iot_sdk\uamqp\src/frame_codec.c ****                     }
 236:Source\azure_iot_sdk\uamqp\src/frame_codec.c ****                 }
 237:Source\azure_iot_sdk\uamqp\src/frame_codec.c ****                 else
 238:Source\azure_iot_sdk\uamqp\src/frame_codec.c ****                 {
 239:Source\azure_iot_sdk\uamqp\src/frame_codec.c ****                     result = 0;
 240:Source\azure_iot_sdk\uamqp\src/frame_codec.c ****                 }
 241:Source\azure_iot_sdk\uamqp\src/frame_codec.c **** 
 242:Source\azure_iot_sdk\uamqp\src/frame_codec.c ****                 break;
 243:Source\azure_iot_sdk\uamqp\src/frame_codec.c **** 
 244:Source\azure_iot_sdk\uamqp\src/frame_codec.c ****             case RECEIVE_FRAME_STATE_DOFF:
 245:Source\azure_iot_sdk\uamqp\src/frame_codec.c ****                 /* Codes_SRS_FRAME_CODEC_01_011: [DOFF Byte 4 of the frame header is the data offse
 246:Source\azure_iot_sdk\uamqp\src/frame_codec.c ****                 /* Codes_SRS_FRAME_CODEC_01_013: [The value of the data offset is an unsigned, 8-bi
 247:Source\azure_iot_sdk\uamqp\src/frame_codec.c ****                 /* Codes_SRS_FRAME_CODEC_01_012: [This gives the position of the body within the fr
 248:Source\azure_iot_sdk\uamqp\src/frame_codec.c ****                 frame_codec_data->receive_frame_doff = buffer[0];
 643              		.loc 1 248 0
 644 00da 3378     		ldrb	r3, [r6]
 645 00dc 2375     		strb	r3, [r4, #20]
 249:Source\azure_iot_sdk\uamqp\src/frame_codec.c ****                 buffer++;
 646              		.loc 1 249 0
 647 00de 0136     		adds	r6, r6, #1
 648              	.LVL84:
 250:Source\azure_iot_sdk\uamqp\src/frame_codec.c ****                 size--;
 649              		.loc 1 250 0
 650 00e0 013D     		subs	r5, r5, #1
 651              	.LVL85:
 251:Source\azure_iot_sdk\uamqp\src/frame_codec.c **** 
 252:Source\azure_iot_sdk\uamqp\src/frame_codec.c ****                 /* Codes_SRS_FRAME_CODEC_01_014: [Due to the mandatory 8-byte frame header, the fra
 253:Source\azure_iot_sdk\uamqp\src/frame_codec.c ****                 if (frame_codec_data->receive_frame_doff < 2)
 652              		.loc 1 253 0
 653 00e2 012B     		cmp	r3, #1
 654 00e4 17D8     		bhi	.L43
 254:Source\azure_iot_sdk\uamqp\src/frame_codec.c ****                 {
ARM GAS  C:\Users\Phuong\AppData\Local\Temp\ccIIJJrV.s 			page 17


 255:Source\azure_iot_sdk\uamqp\src/frame_codec.c ****                     /* Codes_SRS_FRAME_CODEC_01_074: [If a decoding error is detected, any subseque
 256:Source\azure_iot_sdk\uamqp\src/frame_codec.c ****                     frame_codec_data->receive_frame_state = RECEIVE_FRAME_STATE_ERROR;
 655              		.loc 1 256 0
 656 00e6 0523     		movs	r3, #5
 657 00e8 2371     		strb	r3, [r4, #4]
 257:Source\azure_iot_sdk\uamqp\src/frame_codec.c **** 
 258:Source\azure_iot_sdk\uamqp\src/frame_codec.c ****                     /* Codes_SRS_FRAME_CODEC_01_103: [Upon any decode error, if an error callback h
 259:Source\azure_iot_sdk\uamqp\src/frame_codec.c ****                     frame_codec_data->on_frame_codec_error(frame_codec_data->on_frame_codec_error_c
 658              		.loc 1 259 0
 659 00ea 606A     		ldr	r0, [r4, #36]
 660              	.LVL86:
 661 00ec 236A     		ldr	r3, [r4, #32]
 662 00ee 9847     		blx	r3
 663              	.LVL87:
 664              	.LBB12:
 260:Source\azure_iot_sdk\uamqp\src/frame_codec.c **** 
 261:Source\azure_iot_sdk\uamqp\src/frame_codec.c ****                     LogError("Malformed frame received");
 665              		.loc 1 261 0
 666 00f0 FFF7FEFF 		bl	xlogging_get_log_function
 667              	.LVL88:
 668 00f4 071E     		subs	r7, r0, #0
 669              	.LVL89:
 670 00f6 00D1     		bne	.LCB681
 671 00f8 C9E0     		b	.L61	@long jump
 672              	.LCB681:
 673              		.loc 1 261 0 is_stmt 0 discriminator 4
 674 00fa 754B     		ldr	r3, .L67+24
 675 00fc 0193     		str	r3, [sp, #4]
 676 00fe 0123     		movs	r3, #1
 677 0100 0093     		str	r3, [sp]
 678 0102 0623     		movs	r3, #6
 679 0104 FF33     		adds	r3, r3, #255
 680 0106 6D4A     		ldr	r2, .L67+4
 681 0108 6832     		adds	r2, r2, #104
 682 010a 6D49     		ldr	r1, .L67+8
 683 010c 0020     		movs	r0, #0
 684              	.LVL90:
 685 010e B847     		blx	r7
 686              	.LVL91:
 687              	.LBE12:
 262:Source\azure_iot_sdk\uamqp\src/frame_codec.c ****                     result = __FAILURE__;
 688              		.loc 1 262 0 is_stmt 1 discriminator 4
 689 0110 8320     		movs	r0, #131
 690 0112 4000     		lsls	r0, r0, #1
 691 0114 C6E0     		b	.L31
 692              	.LVL92:
 693              	.L43:
 263:Source\azure_iot_sdk\uamqp\src/frame_codec.c ****                 }
 264:Source\azure_iot_sdk\uamqp\src/frame_codec.c ****                 else
 265:Source\azure_iot_sdk\uamqp\src/frame_codec.c ****                 {
 266:Source\azure_iot_sdk\uamqp\src/frame_codec.c ****                     frame_codec_data->receive_frame_state = RECEIVE_FRAME_STATE_FRAME_TYPE;
 694              		.loc 1 266 0
 695 0116 0223     		movs	r3, #2
 696 0118 2371     		strb	r3, [r4, #4]
 697              	.LVL93:
 267:Source\azure_iot_sdk\uamqp\src/frame_codec.c ****                     result = 0;
 698              		.loc 1 267 0
ARM GAS  C:\Users\Phuong\AppData\Local\Temp\ccIIJJrV.s 			page 18


 699 011a 0020     		movs	r0, #0
 700 011c C2E0     		b	.L31
 701              	.LVL94:
 702              	.L37:
 703              	.LBB13:
 268:Source\azure_iot_sdk\uamqp\src/frame_codec.c ****                 }
 269:Source\azure_iot_sdk\uamqp\src/frame_codec.c **** 
 270:Source\azure_iot_sdk\uamqp\src/frame_codec.c ****                 break;
 271:Source\azure_iot_sdk\uamqp\src/frame_codec.c **** 
 272:Source\azure_iot_sdk\uamqp\src/frame_codec.c ****             case RECEIVE_FRAME_STATE_FRAME_TYPE:
 273:Source\azure_iot_sdk\uamqp\src/frame_codec.c ****             {
 274:Source\azure_iot_sdk\uamqp\src/frame_codec.c ****                 LIST_ITEM_HANDLE item_handle;
 275:Source\azure_iot_sdk\uamqp\src/frame_codec.c ****                 frame_codec_data->type_specific_size = (frame_codec_data->receive_frame_doff * 4) -
 704              		.loc 1 275 0
 705 011e 237D     		ldrb	r3, [r4, #20]
 706 0120 9B00     		lsls	r3, r3, #2
 707 0122 063B     		subs	r3, r3, #6
 708 0124 2361     		str	r3, [r4, #16]
 276:Source\azure_iot_sdk\uamqp\src/frame_codec.c **** 
 277:Source\azure_iot_sdk\uamqp\src/frame_codec.c ****                 /* Codes_SRS_FRAME_CODEC_01_015: [TYPE Byte 5 of the frame header is a type code.] 
 278:Source\azure_iot_sdk\uamqp\src/frame_codec.c ****                 frame_codec_data->receive_frame_type = buffer[0];
 709              		.loc 1 278 0
 710 0126 3378     		ldrb	r3, [r6]
 711 0128 6375     		strb	r3, [r4, #21]
 279:Source\azure_iot_sdk\uamqp\src/frame_codec.c ****                 buffer++;
 712              		.loc 1 279 0
 713 012a 0136     		adds	r6, r6, #1
 714              	.LVL95:
 280:Source\azure_iot_sdk\uamqp\src/frame_codec.c ****                 size--;
 715              		.loc 1 280 0
 716 012c 013D     		subs	r5, r5, #1
 717              	.LVL96:
 281:Source\azure_iot_sdk\uamqp\src/frame_codec.c **** 
 282:Source\azure_iot_sdk\uamqp\src/frame_codec.c ****                 /* Codes_SRS_FRAME_CODEC_01_035: [After successfully registering a callback for a c
 283:Source\azure_iot_sdk\uamqp\src/frame_codec.c ****                 item_handle = singlylinkedlist_find(frame_codec_data->subscription_list, find_subsc
 718              		.loc 1 283 0
 719 012e 2200     		movs	r2, r4
 720 0130 1532     		adds	r2, r2, #21
 721 0132 6849     		ldr	r1, .L67+28
 722 0134 2068     		ldr	r0, [r4]
 723              	.LVL97:
 724 0136 FFF7FEFF 		bl	singlylinkedlist_find
 725              	.LVL98:
 284:Source\azure_iot_sdk\uamqp\src/frame_codec.c ****                 if (item_handle == NULL)
 726              		.loc 1 284 0
 727 013a 0028     		cmp	r0, #0
 728 013c 04D1     		bne	.L44
 285:Source\azure_iot_sdk\uamqp\src/frame_codec.c ****                 {
 286:Source\azure_iot_sdk\uamqp\src/frame_codec.c ****                     frame_codec_data->receive_frame_subscription = NULL;
 729              		.loc 1 286 0
 730 013e 0023     		movs	r3, #0
 731 0140 A361     		str	r3, [r4, #24]
 287:Source\azure_iot_sdk\uamqp\src/frame_codec.c ****                     frame_codec_data->receive_frame_state = RECEIVE_FRAME_STATE_TYPE_SPECIFIC;
 732              		.loc 1 287 0
 733 0142 0333     		adds	r3, r3, #3
 734 0144 2371     		strb	r3, [r4, #4]
 735              	.LVL99:
ARM GAS  C:\Users\Phuong\AppData\Local\Temp\ccIIJJrV.s 			page 19


 288:Source\azure_iot_sdk\uamqp\src/frame_codec.c ****                     result = 0;
 289:Source\azure_iot_sdk\uamqp\src/frame_codec.c ****                     break;
 736              		.loc 1 289 0
 737 0146 ADE0     		b	.L31
 738              	.LVL100:
 739              	.L44:
 290:Source\azure_iot_sdk\uamqp\src/frame_codec.c ****                 }
 291:Source\azure_iot_sdk\uamqp\src/frame_codec.c ****                 else
 292:Source\azure_iot_sdk\uamqp\src/frame_codec.c ****                 {
 293:Source\azure_iot_sdk\uamqp\src/frame_codec.c ****                     frame_codec_data->receive_frame_subscription = (SUBSCRIPTION*)singlylinkedlist_
 740              		.loc 1 293 0
 741 0148 FFF7FEFF 		bl	singlylinkedlist_item_get_value
 742              	.LVL101:
 743 014c A061     		str	r0, [r4, #24]
 294:Source\azure_iot_sdk\uamqp\src/frame_codec.c ****                     if (frame_codec_data->receive_frame_subscription == NULL)
 744              		.loc 1 294 0
 745 014e 0028     		cmp	r0, #0
 746 0150 02D1     		bne	.L45
 295:Source\azure_iot_sdk\uamqp\src/frame_codec.c ****                     {
 296:Source\azure_iot_sdk\uamqp\src/frame_codec.c ****                         frame_codec_data->receive_frame_state = RECEIVE_FRAME_STATE_TYPE_SPECIFIC;
 747              		.loc 1 296 0
 748 0152 0323     		movs	r3, #3
 749 0154 2371     		strb	r3, [r4, #4]
 750              	.LVL102:
 297:Source\azure_iot_sdk\uamqp\src/frame_codec.c ****                         result = 0;
 298:Source\azure_iot_sdk\uamqp\src/frame_codec.c ****                         break;
 751              		.loc 1 298 0
 752 0156 A5E0     		b	.L31
 753              	.LVL103:
 754              	.L45:
 299:Source\azure_iot_sdk\uamqp\src/frame_codec.c ****                     }
 300:Source\azure_iot_sdk\uamqp\src/frame_codec.c ****                     else
 301:Source\azure_iot_sdk\uamqp\src/frame_codec.c ****                     {
 302:Source\azure_iot_sdk\uamqp\src/frame_codec.c ****                         frame_codec_data->receive_frame_pos = 0;
 755              		.loc 1 302 0
 756 0158 0023     		movs	r3, #0
 757 015a A360     		str	r3, [r4, #8]
 303:Source\azure_iot_sdk\uamqp\src/frame_codec.c **** 
 304:Source\azure_iot_sdk\uamqp\src/frame_codec.c ****                         /* Codes_SRS_FRAME_CODEC_01_102: [frame_codec_receive_bytes shall allocate 
 305:Source\azure_iot_sdk\uamqp\src/frame_codec.c ****                         frame_codec_data->receive_frame_bytes = (unsigned char*)malloc(frame_codec_
 758              		.loc 1 305 0
 759 015c E368     		ldr	r3, [r4, #12]
 760 015e 981F     		subs	r0, r3, #6
 761 0160 FFF7FEFF 		bl	malloc
 762              	.LVL104:
 763 0164 E061     		str	r0, [r4, #28]
 306:Source\azure_iot_sdk\uamqp\src/frame_codec.c ****                         if (frame_codec_data->receive_frame_bytes == NULL)
 764              		.loc 1 306 0
 765 0166 0028     		cmp	r0, #0
 766 0168 17D1     		bne	.L46
 307:Source\azure_iot_sdk\uamqp\src/frame_codec.c ****                         {
 308:Source\azure_iot_sdk\uamqp\src/frame_codec.c ****                             /* Codes_SRS_FRAME_CODEC_01_101: [If the memory for the frame_body byte
 309:Source\azure_iot_sdk\uamqp\src/frame_codec.c ****                             /* Codes_SRS_FRAME_CODEC_01_030: [If a decoding error occurs, frame_cod
 310:Source\azure_iot_sdk\uamqp\src/frame_codec.c ****                             /* Codes_SRS_FRAME_CODEC_01_074: [If a decoding error is detected, any 
 311:Source\azure_iot_sdk\uamqp\src/frame_codec.c ****                             frame_codec_data->receive_frame_state = RECEIVE_FRAME_STATE_ERROR;
 767              		.loc 1 311 0
 768 016a 0523     		movs	r3, #5
ARM GAS  C:\Users\Phuong\AppData\Local\Temp\ccIIJJrV.s 			page 20


 769 016c 2371     		strb	r3, [r4, #4]
 312:Source\azure_iot_sdk\uamqp\src/frame_codec.c **** 
 313:Source\azure_iot_sdk\uamqp\src/frame_codec.c ****                             /* Codes_SRS_FRAME_CODEC_01_103: [Upon any decode error, if an error ca
 314:Source\azure_iot_sdk\uamqp\src/frame_codec.c ****                             frame_codec_data->on_frame_codec_error(frame_codec_data->on_frame_codec
 770              		.loc 1 314 0
 771 016e 606A     		ldr	r0, [r4, #36]
 772 0170 236A     		ldr	r3, [r4, #32]
 773 0172 9847     		blx	r3
 774              	.LVL105:
 775              	.LBB14:
 315:Source\azure_iot_sdk\uamqp\src/frame_codec.c **** 
 316:Source\azure_iot_sdk\uamqp\src/frame_codec.c ****                             LogError("Cannot allocate memort for frame bytes");
 776              		.loc 1 316 0
 777 0174 FFF7FEFF 		bl	xlogging_get_log_function
 778              	.LVL106:
 779 0178 071E     		subs	r7, r0, #0
 780              	.LVL107:
 781 017a 00D1     		bne	.LCB789
 782 017c 8AE0     		b	.L62	@long jump
 783              	.LCB789:
 784              		.loc 1 316 0 is_stmt 0 discriminator 4
 785 017e 564B     		ldr	r3, .L67+32
 786 0180 0193     		str	r3, [sp, #4]
 787 0182 0123     		movs	r3, #1
 788 0184 0093     		str	r3, [sp]
 789 0186 3C33     		adds	r3, r3, #60
 790 0188 FF33     		adds	r3, r3, #255
 791 018a 4C4A     		ldr	r2, .L67+4
 792 018c 6832     		adds	r2, r2, #104
 793 018e 4C49     		ldr	r1, .L67+8
 794 0190 0020     		movs	r0, #0
 795              	.LVL108:
 796 0192 B847     		blx	r7
 797              	.LVL109:
 798              	.LBE14:
 317:Source\azure_iot_sdk\uamqp\src/frame_codec.c ****                             result = __FAILURE__;
 799              		.loc 1 317 0 is_stmt 1 discriminator 4
 800 0194 3E20     		movs	r0, #62
 801 0196 FF30     		adds	r0, r0, #255
 802 0198 84E0     		b	.L31
 803              	.LVL110:
 804              	.L46:
 318:Source\azure_iot_sdk\uamqp\src/frame_codec.c ****                             break;
 319:Source\azure_iot_sdk\uamqp\src/frame_codec.c ****                         }
 320:Source\azure_iot_sdk\uamqp\src/frame_codec.c ****                         else
 321:Source\azure_iot_sdk\uamqp\src/frame_codec.c ****                         {
 322:Source\azure_iot_sdk\uamqp\src/frame_codec.c ****                             frame_codec_data->receive_frame_state = RECEIVE_FRAME_STATE_TYPE_SPECIF
 805              		.loc 1 322 0
 806 019a 0323     		movs	r3, #3
 807 019c 2371     		strb	r3, [r4, #4]
 808              	.LVL111:
 323:Source\azure_iot_sdk\uamqp\src/frame_codec.c ****                             result = 0;
 809              		.loc 1 323 0
 810 019e 0020     		movs	r0, #0
 324:Source\azure_iot_sdk\uamqp\src/frame_codec.c ****                             break;
 811              		.loc 1 324 0
 812 01a0 80E0     		b	.L31
ARM GAS  C:\Users\Phuong\AppData\Local\Temp\ccIIJJrV.s 			page 21


 813              	.LVL112:
 814              	.L38:
 815              	.LBE13:
 816              	.LBB15:
 325:Source\azure_iot_sdk\uamqp\src/frame_codec.c ****                         }
 326:Source\azure_iot_sdk\uamqp\src/frame_codec.c ****                     }
 327:Source\azure_iot_sdk\uamqp\src/frame_codec.c ****                 }
 328:Source\azure_iot_sdk\uamqp\src/frame_codec.c ****             }
 329:Source\azure_iot_sdk\uamqp\src/frame_codec.c **** 
 330:Source\azure_iot_sdk\uamqp\src/frame_codec.c ****             case RECEIVE_FRAME_STATE_TYPE_SPECIFIC:
 331:Source\azure_iot_sdk\uamqp\src/frame_codec.c ****             {
 332:Source\azure_iot_sdk\uamqp\src/frame_codec.c ****                 size_t to_copy = frame_codec_data->type_specific_size - frame_codec_data->receive_f
 817              		.loc 1 332 0
 818 01a2 A068     		ldr	r0, [r4, #8]
 819              	.LVL113:
 820 01a4 2369     		ldr	r3, [r4, #16]
 821 01a6 1F1A     		subs	r7, r3, r0
 822              	.LVL114:
 333:Source\azure_iot_sdk\uamqp\src/frame_codec.c ****                 if (to_copy > size)
 823              		.loc 1 333 0
 824 01a8 BD42     		cmp	r5, r7
 825 01aa 00D2     		bcs	.L47
 334:Source\azure_iot_sdk\uamqp\src/frame_codec.c ****                 {
 335:Source\azure_iot_sdk\uamqp\src/frame_codec.c ****                     to_copy = size;
 826              		.loc 1 335 0
 827 01ac 2F00     		movs	r7, r5
 828              	.LVL115:
 829              	.L47:
 336:Source\azure_iot_sdk\uamqp\src/frame_codec.c ****                 }
 337:Source\azure_iot_sdk\uamqp\src/frame_codec.c **** 
 338:Source\azure_iot_sdk\uamqp\src/frame_codec.c ****                 if (frame_codec_data->receive_frame_subscription != NULL)
 830              		.loc 1 338 0
 831 01ae A369     		ldr	r3, [r4, #24]
 832 01b0 002B     		cmp	r3, #0
 833 01b2 0CD0     		beq	.L48
 339:Source\azure_iot_sdk\uamqp\src/frame_codec.c ****                 {
 340:Source\azure_iot_sdk\uamqp\src/frame_codec.c ****                     (void)memcpy(&frame_codec_data->receive_frame_bytes[frame_codec_data->receive_f
 834              		.loc 1 340 0
 835 01b4 E369     		ldr	r3, [r4, #28]
 836 01b6 9C46     		mov	ip, r3
 837 01b8 6044     		add	r0, r0, ip
 838 01ba 3A00     		movs	r2, r7
 839 01bc 3100     		movs	r1, r6
 840 01be FFF7FEFF 		bl	memcpy
 841              	.LVL116:
 341:Source\azure_iot_sdk\uamqp\src/frame_codec.c ****                     frame_codec_data->receive_frame_pos += to_copy;
 842              		.loc 1 341 0
 843 01c2 A368     		ldr	r3, [r4, #8]
 844 01c4 DB19     		adds	r3, r3, r7
 845 01c6 A360     		str	r3, [r4, #8]
 342:Source\azure_iot_sdk\uamqp\src/frame_codec.c ****                     buffer += to_copy;
 846              		.loc 1 342 0
 847 01c8 F619     		adds	r6, r6, r7
 848              	.LVL117:
 343:Source\azure_iot_sdk\uamqp\src/frame_codec.c ****                     size -= to_copy;
 849              		.loc 1 343 0
 850 01ca ED1B     		subs	r5, r5, r7
ARM GAS  C:\Users\Phuong\AppData\Local\Temp\ccIIJJrV.s 			page 22


 851              	.LVL118:
 852 01cc 03E0     		b	.L49
 853              	.L48:
 344:Source\azure_iot_sdk\uamqp\src/frame_codec.c ****                 }
 345:Source\azure_iot_sdk\uamqp\src/frame_codec.c ****                 else
 346:Source\azure_iot_sdk\uamqp\src/frame_codec.c ****                 {
 347:Source\azure_iot_sdk\uamqp\src/frame_codec.c ****                     frame_codec_data->receive_frame_pos += to_copy;
 854              		.loc 1 347 0
 855 01ce 3818     		adds	r0, r7, r0
 856 01d0 A060     		str	r0, [r4, #8]
 348:Source\azure_iot_sdk\uamqp\src/frame_codec.c ****                     buffer += to_copy;
 857              		.loc 1 348 0
 858 01d2 F619     		adds	r6, r6, r7
 859              	.LVL119:
 349:Source\azure_iot_sdk\uamqp\src/frame_codec.c ****                     size -= to_copy;
 860              		.loc 1 349 0
 861 01d4 ED1B     		subs	r5, r5, r7
 862              	.LVL120:
 863              	.L49:
 350:Source\azure_iot_sdk\uamqp\src/frame_codec.c ****                 }
 351:Source\azure_iot_sdk\uamqp\src/frame_codec.c **** 
 352:Source\azure_iot_sdk\uamqp\src/frame_codec.c ****                 if (frame_codec_data->receive_frame_pos == frame_codec_data->type_specific_size)
 864              		.loc 1 352 0
 865 01d6 2269     		ldr	r2, [r4, #16]
 866 01d8 A368     		ldr	r3, [r4, #8]
 867 01da 9342     		cmp	r3, r2
 868 01dc 5DD1     		bne	.L64
 353:Source\azure_iot_sdk\uamqp\src/frame_codec.c ****                 {
 354:Source\azure_iot_sdk\uamqp\src/frame_codec.c ****                     if (frame_codec_data->receive_frame_size == FRAME_HEADER_SIZE)
 869              		.loc 1 354 0
 870 01de E368     		ldr	r3, [r4, #12]
 871 01e0 082B     		cmp	r3, #8
 872 01e2 12D1     		bne	.L50
 355:Source\azure_iot_sdk\uamqp\src/frame_codec.c ****                     {
 356:Source\azure_iot_sdk\uamqp\src/frame_codec.c ****                         if (frame_codec_data->receive_frame_subscription != NULL)
 873              		.loc 1 356 0
 874 01e4 A369     		ldr	r3, [r4, #24]
 875 01e6 002B     		cmp	r3, #0
 876 01e8 0BD0     		beq	.L51
 357:Source\azure_iot_sdk\uamqp\src/frame_codec.c ****                         {
 358:Source\azure_iot_sdk\uamqp\src/frame_codec.c ****                             /* Codes_SRS_FRAME_CODEC_01_031: [When a complete frame is successfully
 359:Source\azure_iot_sdk\uamqp\src/frame_codec.c ****                             /* Codes_SRS_FRAME_CODEC_01_032: [Besides passing the frame information
 360:Source\azure_iot_sdk\uamqp\src/frame_codec.c ****                             /* Codes_SRS_FRAME_CODEC_01_005: [This is an extension point defined fo
 361:Source\azure_iot_sdk\uamqp\src/frame_codec.c ****                             /* Codes_SRS_FRAME_CODEC_01_006: [The treatment of this area depends on
 362:Source\azure_iot_sdk\uamqp\src/frame_codec.c ****                             /* Codes_SRS_FRAME_CODEC_01_100: [If the frame body size is 0, the fram
 363:Source\azure_iot_sdk\uamqp\src/frame_codec.c ****                             frame_codec_data->receive_frame_subscription->on_frame_received(frame_c
 877              		.loc 1 363 0
 878 01ea 5968     		ldr	r1, [r3, #4]
 879 01ec 8846     		mov	r8, r1
 880 01ee 9868     		ldr	r0, [r3, #8]
 881 01f0 0027     		movs	r7, #0
 882              	.LVL121:
 883 01f2 0097     		str	r7, [sp]
 884 01f4 0023     		movs	r3, #0
 885 01f6 E169     		ldr	r1, [r4, #28]
 886 01f8 C047     		blx	r8
 887              	.LVL122:
ARM GAS  C:\Users\Phuong\AppData\Local\Temp\ccIIJJrV.s 			page 23


 364:Source\azure_iot_sdk\uamqp\src/frame_codec.c ****                             free(frame_codec_data->receive_frame_bytes);
 888              		.loc 1 364 0
 889 01fa E069     		ldr	r0, [r4, #28]
 890 01fc FFF7FEFF 		bl	free
 891              	.LVL123:
 365:Source\azure_iot_sdk\uamqp\src/frame_codec.c ****                             frame_codec_data->receive_frame_bytes = NULL;
 892              		.loc 1 365 0
 893 0200 E761     		str	r7, [r4, #28]
 894              	.L51:
 366:Source\azure_iot_sdk\uamqp\src/frame_codec.c ****                         }
 367:Source\azure_iot_sdk\uamqp\src/frame_codec.c **** 
 368:Source\azure_iot_sdk\uamqp\src/frame_codec.c ****                         frame_codec_data->receive_frame_state = RECEIVE_FRAME_STATE_FRAME_SIZE;
 895              		.loc 1 368 0
 896 0202 0023     		movs	r3, #0
 897 0204 2371     		strb	r3, [r4, #4]
 369:Source\azure_iot_sdk\uamqp\src/frame_codec.c ****                         frame_codec_data->receive_frame_size = 0;
 898              		.loc 1 369 0
 899 0206 E360     		str	r3, [r4, #12]
 900 0208 01E0     		b	.L52
 901              	.LVL124:
 902              	.L50:
 370:Source\azure_iot_sdk\uamqp\src/frame_codec.c ****                     }
 371:Source\azure_iot_sdk\uamqp\src/frame_codec.c ****                     else
 372:Source\azure_iot_sdk\uamqp\src/frame_codec.c ****                     {
 373:Source\azure_iot_sdk\uamqp\src/frame_codec.c ****                         frame_codec_data->receive_frame_state = RECEIVE_FRAME_STATE_FRAME_BODY;
 903              		.loc 1 373 0
 904 020a 0423     		movs	r3, #4
 905 020c 2371     		strb	r3, [r4, #4]
 906              	.LVL125:
 907              	.L52:
 374:Source\azure_iot_sdk\uamqp\src/frame_codec.c ****                     }
 375:Source\azure_iot_sdk\uamqp\src/frame_codec.c **** 
 376:Source\azure_iot_sdk\uamqp\src/frame_codec.c ****                     frame_codec_data->receive_frame_pos = 0;
 908              		.loc 1 376 0
 909 020e 0023     		movs	r3, #0
 910 0210 A360     		str	r3, [r4, #8]
 377:Source\azure_iot_sdk\uamqp\src/frame_codec.c ****                 }
 378:Source\azure_iot_sdk\uamqp\src/frame_codec.c **** 
 379:Source\azure_iot_sdk\uamqp\src/frame_codec.c ****                 result = 0;
 911              		.loc 1 379 0
 912 0212 0020     		movs	r0, #0
 913 0214 46E0     		b	.L31
 914              	.LVL126:
 915              	.L39:
 916              	.LBE15:
 917              	.LBB16:
 380:Source\azure_iot_sdk\uamqp\src/frame_codec.c ****                 break;
 381:Source\azure_iot_sdk\uamqp\src/frame_codec.c ****             }
 382:Source\azure_iot_sdk\uamqp\src/frame_codec.c **** 
 383:Source\azure_iot_sdk\uamqp\src/frame_codec.c ****             case RECEIVE_FRAME_STATE_FRAME_BODY:
 384:Source\azure_iot_sdk\uamqp\src/frame_codec.c ****             {
 385:Source\azure_iot_sdk\uamqp\src/frame_codec.c ****                 uint32_t frame_body_size = frame_codec_data->receive_frame_size - (frame_codec_data
 918              		.loc 1 385 0
 919 0216 237D     		ldrb	r3, [r4, #20]
 920 0218 9B00     		lsls	r3, r3, #2
 921 021a E268     		ldr	r2, [r4, #12]
 922 021c D31A     		subs	r3, r2, r3
ARM GAS  C:\Users\Phuong\AppData\Local\Temp\ccIIJJrV.s 			page 24


 923 021e 9846     		mov	r8, r3
 924              	.LVL127:
 386:Source\azure_iot_sdk\uamqp\src/frame_codec.c ****                 size_t to_copy = frame_body_size - frame_codec_data->receive_frame_pos;
 925              		.loc 1 386 0
 926 0220 A068     		ldr	r0, [r4, #8]
 927              	.LVL128:
 928 0222 1F1A     		subs	r7, r3, r0
 929              	.LVL129:
 387:Source\azure_iot_sdk\uamqp\src/frame_codec.c **** 
 388:Source\azure_iot_sdk\uamqp\src/frame_codec.c ****                 if (to_copy > size)
 930              		.loc 1 388 0
 931 0224 BD42     		cmp	r5, r7
 932 0226 00D2     		bcs	.L53
 389:Source\azure_iot_sdk\uamqp\src/frame_codec.c ****                 {
 390:Source\azure_iot_sdk\uamqp\src/frame_codec.c ****                     to_copy = size;
 933              		.loc 1 390 0
 934 0228 2F00     		movs	r7, r5
 935              	.LVL130:
 936              	.L53:
 391:Source\azure_iot_sdk\uamqp\src/frame_codec.c ****                 }
 392:Source\azure_iot_sdk\uamqp\src/frame_codec.c **** 
 393:Source\azure_iot_sdk\uamqp\src/frame_codec.c ****                 (void)memcpy(frame_codec_data->receive_frame_bytes + frame_codec_data->receive_fram
 937              		.loc 1 393 0
 938 022a 2369     		ldr	r3, [r4, #16]
 939              	.LVL131:
 940 022c 9C46     		mov	ip, r3
 941 022e 6044     		add	r0, r0, ip
 942 0230 E369     		ldr	r3, [r4, #28]
 943 0232 9C46     		mov	ip, r3
 944 0234 6044     		add	r0, r0, ip
 945 0236 3A00     		movs	r2, r7
 946 0238 3100     		movs	r1, r6
 947 023a FFF7FEFF 		bl	memcpy
 948              	.LVL132:
 394:Source\azure_iot_sdk\uamqp\src/frame_codec.c **** 
 395:Source\azure_iot_sdk\uamqp\src/frame_codec.c ****                 buffer += to_copy;
 949              		.loc 1 395 0
 950 023e F619     		adds	r6, r6, r7
 951              	.LVL133:
 396:Source\azure_iot_sdk\uamqp\src/frame_codec.c ****                 size -= to_copy;
 952              		.loc 1 396 0
 953 0240 ED1B     		subs	r5, r5, r7
 954              	.LVL134:
 397:Source\azure_iot_sdk\uamqp\src/frame_codec.c ****                 frame_codec_data->receive_frame_pos += to_copy;
 955              		.loc 1 397 0
 956 0242 A368     		ldr	r3, [r4, #8]
 957 0244 9C46     		mov	ip, r3
 958 0246 6744     		add	r7, r7, ip
 959              	.LVL135:
 960 0248 A760     		str	r7, [r4, #8]
 398:Source\azure_iot_sdk\uamqp\src/frame_codec.c **** 
 399:Source\azure_iot_sdk\uamqp\src/frame_codec.c ****                 if (frame_codec_data->receive_frame_pos == frame_body_size)
 961              		.loc 1 399 0
 962 024a B845     		cmp	r8, r7
 963 024c 27D1     		bne	.L66
 400:Source\azure_iot_sdk\uamqp\src/frame_codec.c ****                 {
 401:Source\azure_iot_sdk\uamqp\src/frame_codec.c ****                     if (frame_codec_data->receive_frame_subscription != NULL)
ARM GAS  C:\Users\Phuong\AppData\Local\Temp\ccIIJJrV.s 			page 25


 964              		.loc 1 401 0
 965 024e A269     		ldr	r2, [r4, #24]
 966 0250 002A     		cmp	r2, #0
 967 0252 0FD0     		beq	.L54
 402:Source\azure_iot_sdk\uamqp\src/frame_codec.c ****                     {
 403:Source\azure_iot_sdk\uamqp\src/frame_codec.c ****                         /* Codes_SRS_FRAME_CODEC_01_031: [When a complete frame is successfully dec
 404:Source\azure_iot_sdk\uamqp\src/frame_codec.c ****                         /* Codes_SRS_FRAME_CODEC_01_032: [Besides passing the frame information, th
 405:Source\azure_iot_sdk\uamqp\src/frame_codec.c ****                         /* Codes_SRS_FRAME_CODEC_01_005: [This is an extension point defined for fu
 406:Source\azure_iot_sdk\uamqp\src/frame_codec.c ****                         /* Codes_SRS_FRAME_CODEC_01_006: [The treatment of this area depends on the
 407:Source\azure_iot_sdk\uamqp\src/frame_codec.c ****                         /* Codes_SRS_FRAME_CODEC_01_099: [A pointer to the frame_body bytes shall a
 408:Source\azure_iot_sdk\uamqp\src/frame_codec.c ****                         frame_codec_data->receive_frame_subscription->on_frame_received(frame_codec
 968              		.loc 1 408 0
 969 0254 5768     		ldr	r7, [r2, #4]
 970 0256 E369     		ldr	r3, [r4, #28]
 971 0258 2169     		ldr	r1, [r4, #16]
 972 025a 8C46     		mov	ip, r1
 973 025c 6344     		add	r3, r3, ip
 974 025e 9068     		ldr	r0, [r2, #8]
 975 0260 4246     		mov	r2, r8
 976 0262 0092     		str	r2, [sp]
 977 0264 2269     		ldr	r2, [r4, #16]
 978 0266 E169     		ldr	r1, [r4, #28]
 979 0268 B847     		blx	r7
 980              	.LVL136:
 409:Source\azure_iot_sdk\uamqp\src/frame_codec.c ****                         free(frame_codec_data->receive_frame_bytes);
 981              		.loc 1 409 0
 982 026a E069     		ldr	r0, [r4, #28]
 983 026c FFF7FEFF 		bl	free
 984              	.LVL137:
 410:Source\azure_iot_sdk\uamqp\src/frame_codec.c ****                         frame_codec_data->receive_frame_bytes = NULL;
 985              		.loc 1 410 0
 986 0270 0023     		movs	r3, #0
 987 0272 E361     		str	r3, [r4, #28]
 988              	.L54:
 411:Source\azure_iot_sdk\uamqp\src/frame_codec.c ****                     }
 412:Source\azure_iot_sdk\uamqp\src/frame_codec.c **** 
 413:Source\azure_iot_sdk\uamqp\src/frame_codec.c ****                     frame_codec_data->receive_frame_state = RECEIVE_FRAME_STATE_FRAME_SIZE;
 989              		.loc 1 413 0
 990 0274 0023     		movs	r3, #0
 991 0276 2371     		strb	r3, [r4, #4]
 414:Source\azure_iot_sdk\uamqp\src/frame_codec.c ****                     frame_codec_data->receive_frame_pos = 0;
 992              		.loc 1 414 0
 993 0278 A360     		str	r3, [r4, #8]
 415:Source\azure_iot_sdk\uamqp\src/frame_codec.c ****                     frame_codec_data->receive_frame_size = 0;
 994              		.loc 1 415 0
 995 027a E360     		str	r3, [r4, #12]
 416:Source\azure_iot_sdk\uamqp\src/frame_codec.c ****                 }
 417:Source\azure_iot_sdk\uamqp\src/frame_codec.c ****                 result = 0;
 996              		.loc 1 417 0
 997 027c 0020     		movs	r0, #0
 998 027e 11E0     		b	.L31
 999              	.LVL138:
 1000              	.L58:
 1001              	.LBE16:
 205:Source\azure_iot_sdk\uamqp\src/frame_codec.c ****                 size = 0;
 1002              		.loc 1 205 0
 1003 0280 CD20     		movs	r0, #205
ARM GAS  C:\Users\Phuong\AppData\Local\Temp\ccIIJJrV.s 			page 26


 1004              	.LVL139:
 206:Source\azure_iot_sdk\uamqp\src/frame_codec.c ****                 break;
 1005              		.loc 1 206 0
 1006 0282 0025     		movs	r5, #0
 1007              	.LVL140:
 1008 0284 0EE0     		b	.L31
 1009              	.LVL141:
 1010              	.L59:
 239:Source\azure_iot_sdk\uamqp\src/frame_codec.c ****                 }
 1011              		.loc 1 239 0
 1012 0286 0020     		movs	r0, #0
 1013 0288 0CE0     		b	.L31
 1014              	.LVL142:
 1015              	.L60:
 229:Source\azure_iot_sdk\uamqp\src/frame_codec.c ****                     }
 1016              		.loc 1 229 0
 1017 028a E520     		movs	r0, #229
 1018              	.LVL143:
 1019 028c 0AE0     		b	.L31
 1020              	.LVL144:
 1021              	.L61:
 262:Source\azure_iot_sdk\uamqp\src/frame_codec.c ****                 }
 1022              		.loc 1 262 0
 1023 028e 8320     		movs	r0, #131
 1024              	.LVL145:
 1025 0290 4000     		lsls	r0, r0, #1
 1026 0292 07E0     		b	.L31
 1027              	.LVL146:
 1028              	.L62:
 1029              	.LBB17:
 317:Source\azure_iot_sdk\uamqp\src/frame_codec.c ****                             break;
 1030              		.loc 1 317 0
 1031 0294 3E20     		movs	r0, #62
 1032              	.LVL147:
 1033 0296 FF30     		adds	r0, r0, #255
 1034 0298 04E0     		b	.L31
 1035              	.LVL148:
 1036              	.L64:
 1037              	.LBE17:
 1038              	.LBB18:
 379:Source\azure_iot_sdk\uamqp\src/frame_codec.c ****                 break;
 1039              		.loc 1 379 0
 1040 029a 0020     		movs	r0, #0
 1041 029c 02E0     		b	.L31
 1042              	.LVL149:
 1043              	.L66:
 1044              	.LBE18:
 1045              	.LBB19:
 1046              		.loc 1 417 0
 1047 029e 0020     		movs	r0, #0
 1048 02a0 00E0     		b	.L31
 1049              	.LVL150:
 1050              	.L56:
 1051              	.LBE19:
 1052 02a2 B420     		movs	r0, #180
 1053              	.LVL151:
 1054              	.L31:
ARM GAS  C:\Users\Phuong\AppData\Local\Temp\ccIIJJrV.s 			page 27


 197:Source\azure_iot_sdk\uamqp\src/frame_codec.c ****         {
 1055              		.loc 1 197 0
 1056 02a4 002D     		cmp	r5, #0
 1057 02a6 00D0     		beq	.LCB1142
 1058 02a8 CCE6     		b	.L55	@long jump
 1059              	.LCB1142:
 1060 02aa 00E0     		b	.L32
 1061              	.LVL152:
 1062              	.L57:
 193:Source\azure_iot_sdk\uamqp\src/frame_codec.c ****     }
 1063              		.loc 1 193 0
 1064 02ac C120     		movs	r0, #193
 1065              	.LVL153:
 1066              	.L32:
 418:Source\azure_iot_sdk\uamqp\src/frame_codec.c **** 
 419:Source\azure_iot_sdk\uamqp\src/frame_codec.c ****                 break;
 420:Source\azure_iot_sdk\uamqp\src/frame_codec.c ****             }
 421:Source\azure_iot_sdk\uamqp\src/frame_codec.c ****             }
 422:Source\azure_iot_sdk\uamqp\src/frame_codec.c ****         }
 423:Source\azure_iot_sdk\uamqp\src/frame_codec.c ****     }
 424:Source\azure_iot_sdk\uamqp\src/frame_codec.c **** 
 425:Source\azure_iot_sdk\uamqp\src/frame_codec.c ****     return result;
 426:Source\azure_iot_sdk\uamqp\src/frame_codec.c **** }
 1067              		.loc 1 426 0
 1068 02ae 06B0     		add	sp, sp, #24
 1069              		@ sp needed
 1070              	.LVL154:
 1071              	.LVL155:
 1072              	.LVL156:
 1073 02b0 04BC     		pop	{r2}
 1074 02b2 9046     		mov	r8, r2
 1075 02b4 F0BD     		pop	{r4, r5, r6, r7, pc}
 1076              	.L68:
 1077 02b6 C046     		.align	2
 1078              	.L67:
 1079 02b8 10010000 		.word	.LC23
 1080 02bc 14000000 		.word	.LANCHOR0
 1081 02c0 00000000 		.word	.LC1
 1082 02c4 00000000 		.word	.L35
 1083 02c8 48010000 		.word	.LC26
 1084 02cc 68010000 		.word	.LC28
 1085 02d0 88010000 		.word	.LC30
 1086 02d4 00000000 		.word	find_subscription_by_frame_type
 1087 02d8 A4010000 		.word	.LC33
 1088              		.cfi_endproc
 1089              	.LFE5:
 1090              		.size	frame_codec_receive_bytes, .-frame_codec_receive_bytes
 1091              		.section	.text.frame_codec_subscribe,"ax",%progbits
 1092              		.align	2
 1093              		.global	frame_codec_subscribe
 1094              		.code	16
 1095              		.thumb_func
 1096              		.type	frame_codec_subscribe, %function
 1097              	frame_codec_subscribe:
 1098              	.LFB6:
 427:Source\azure_iot_sdk\uamqp\src/frame_codec.c **** 
 428:Source\azure_iot_sdk\uamqp\src/frame_codec.c **** /* Codes_SRS_FRAME_CODEC_01_033: [frame_codec_subscribe subscribes for a certain type of frame rece
ARM GAS  C:\Users\Phuong\AppData\Local\Temp\ccIIJJrV.s 			page 28


 429:Source\azure_iot_sdk\uamqp\src/frame_codec.c **** int frame_codec_subscribe(FRAME_CODEC_HANDLE frame_codec, uint8_t type, ON_FRAME_RECEIVED on_frame_
 430:Source\azure_iot_sdk\uamqp\src/frame_codec.c **** {
 1099              		.loc 1 430 0
 1100              		.cfi_startproc
 1101              		@ args = 0, pretend = 0, frame = 8
 1102              		@ frame_needed = 0, uses_anonymous_args = 0
 1103              	.LVL157:
 1104 0000 F0B5     		push	{r4, r5, r6, r7, lr}
 1105              		.cfi_def_cfa_offset 20
 1106              		.cfi_offset 4, -20
 1107              		.cfi_offset 5, -16
 1108              		.cfi_offset 6, -12
 1109              		.cfi_offset 7, -8
 1110              		.cfi_offset 14, -4
 1111 0002 87B0     		sub	sp, sp, #28
 1112              		.cfi_def_cfa_offset 48
 1113 0004 0400     		movs	r4, r0
 1114 0006 1500     		movs	r5, r2
 1115 0008 1E00     		movs	r6, r3
 1116 000a 1723     		movs	r3, #23
 1117              	.LVL158:
 1118 000c 6B44     		add	r3, r3, sp
 1119 000e 1970     		strb	r1, [r3]
 431:Source\azure_iot_sdk\uamqp\src/frame_codec.c ****     int result;
 432:Source\azure_iot_sdk\uamqp\src/frame_codec.c **** 
 433:Source\azure_iot_sdk\uamqp\src/frame_codec.c ****     /* Codes_SRS_FRAME_CODEC_01_034: [If any of the frame_codec or on_frame_received arguments is N
 434:Source\azure_iot_sdk\uamqp\src/frame_codec.c ****     if ((frame_codec == NULL) ||
 1120              		.loc 1 434 0
 1121 0010 0028     		cmp	r0, #0
 1122 0012 01D0     		beq	.L70
 1123              		.loc 1 434 0 is_stmt 0 discriminator 1
 1124 0014 002A     		cmp	r2, #0
 1125 0016 12D1     		bne	.L71
 1126              	.L70:
 1127              	.LBB20:
 435:Source\azure_iot_sdk\uamqp\src/frame_codec.c ****         (on_frame_received == NULL))
 436:Source\azure_iot_sdk\uamqp\src/frame_codec.c ****     {
 437:Source\azure_iot_sdk\uamqp\src/frame_codec.c ****         LogError("Bad arguments: frame_codec = %p, on_frame_received = %p",
 1128              		.loc 1 437 0 is_stmt 1 discriminator 3
 1129 0018 FFF7FEFF 		bl	xlogging_get_log_function
 1130              	.LVL159:
 1131 001c 061E     		subs	r6, r0, #0
 1132              	.LVL160:
 1133 001e 69D0     		beq	.L76
 1134              		.loc 1 437 0 is_stmt 0 discriminator 4
 1135 0020 0395     		str	r5, [sp, #12]
 1136 0022 0294     		str	r4, [sp, #8]
 1137 0024 3B4B     		ldr	r3, .L81
 1138 0026 0193     		str	r3, [sp, #4]
 1139 0028 0123     		movs	r3, #1
 1140 002a 0093     		str	r3, [sp]
 1141 002c B633     		adds	r3, r3, #182
 1142 002e FF33     		adds	r3, r3, #255
 1143 0030 394A     		ldr	r2, .L81+4
 1144 0032 3A49     		ldr	r1, .L81+8
 1145 0034 0020     		movs	r0, #0
 1146              	.LVL161:
ARM GAS  C:\Users\Phuong\AppData\Local\Temp\ccIIJJrV.s 			page 29


 1147 0036 B047     		blx	r6
 1148              	.LVL162:
 1149              	.LBE20:
 438:Source\azure_iot_sdk\uamqp\src/frame_codec.c ****             frame_codec, on_frame_received);
 439:Source\azure_iot_sdk\uamqp\src/frame_codec.c ****         result = __FAILURE__;
 1150              		.loc 1 439 0 is_stmt 1 discriminator 4
 1151 0038 B820     		movs	r0, #184
 1152 003a FF30     		adds	r0, r0, #255
 1153 003c 67E0     		b	.L72
 1154              	.LVL163:
 1155              	.L71:
 1156              	.LBB21:
 440:Source\azure_iot_sdk\uamqp\src/frame_codec.c ****     }
 441:Source\azure_iot_sdk\uamqp\src/frame_codec.c ****     else
 442:Source\azure_iot_sdk\uamqp\src/frame_codec.c ****     {
 443:Source\azure_iot_sdk\uamqp\src/frame_codec.c ****         FRAME_CODEC_INSTANCE* frame_codec_data = (FRAME_CODEC_INSTANCE*)frame_codec;
 444:Source\azure_iot_sdk\uamqp\src/frame_codec.c ****         SUBSCRIPTION* subscription;
 445:Source\azure_iot_sdk\uamqp\src/frame_codec.c **** 
 446:Source\azure_iot_sdk\uamqp\src/frame_codec.c ****         /* Codes_SRS_FRAME_CODEC_01_036: [Only one callback pair shall be allowed to be registered 
 447:Source\azure_iot_sdk\uamqp\src/frame_codec.c ****         /* find the subscription for this frame type */
 448:Source\azure_iot_sdk\uamqp\src/frame_codec.c ****         LIST_ITEM_HANDLE list_item = singlylinkedlist_find(frame_codec_data->subscription_list, fin
 1157              		.loc 1 448 0
 1158 003e 1722     		movs	r2, #23
 1159              	.LVL164:
 1160 0040 6A44     		add	r2, r2, sp
 1161 0042 3749     		ldr	r1, .L81+12
 1162              	.LVL165:
 1163 0044 0068     		ldr	r0, [r0]
 1164              	.LVL166:
 1165 0046 FFF7FEFF 		bl	singlylinkedlist_find
 1166              	.LVL167:
 449:Source\azure_iot_sdk\uamqp\src/frame_codec.c ****         if (list_item != NULL)
 1167              		.loc 1 449 0
 1168 004a 0028     		cmp	r0, #0
 1169 004c 1CD0     		beq	.L73
 450:Source\azure_iot_sdk\uamqp\src/frame_codec.c ****         {
 451:Source\azure_iot_sdk\uamqp\src/frame_codec.c ****             subscription = (SUBSCRIPTION*)singlylinkedlist_item_get_value(list_item);
 1170              		.loc 1 451 0
 1171 004e FFF7FEFF 		bl	singlylinkedlist_item_get_value
 1172              	.LVL168:
 452:Source\azure_iot_sdk\uamqp\src/frame_codec.c ****             if (subscription == NULL)
 1173              		.loc 1 452 0
 1174 0052 0028     		cmp	r0, #0
 1175 0054 14D1     		bne	.L74
 1176              	.LBB22:
 453:Source\azure_iot_sdk\uamqp\src/frame_codec.c ****             {
 454:Source\azure_iot_sdk\uamqp\src/frame_codec.c ****                 /* Codes_SRS_FRAME_CODEC_01_037: [If any failure occurs while performing the subscr
 455:Source\azure_iot_sdk\uamqp\src/frame_codec.c ****                 LogError("Cannot retrieve subscription information from the list for type %u", (uns
 1177              		.loc 1 455 0 discriminator 3
 1178 0056 FFF7FEFF 		bl	xlogging_get_log_function
 1179              	.LVL169:
 1180 005a 041E     		subs	r4, r0, #0
 1181              	.LVL170:
 1182 005c 4DD0     		beq	.L77
 1183              		.loc 1 455 0 is_stmt 0 discriminator 4
 1184 005e 1723     		movs	r3, #23
 1185              	.LVL171:
ARM GAS  C:\Users\Phuong\AppData\Local\Temp\ccIIJJrV.s 			page 30


 1186 0060 6B44     		add	r3, r3, sp
 1187              	.LVL172:
 1188 0062 1B78     		ldrb	r3, [r3]
 1189 0064 0293     		str	r3, [sp, #8]
 1190 0066 2F4B     		ldr	r3, .L81+16
 1191 0068 0193     		str	r3, [sp, #4]
 1192 006a 0123     		movs	r3, #1
 1193 006c 0093     		str	r3, [sp]
 1194 006e C823     		movs	r3, #200
 1195 0070 FF33     		adds	r3, r3, #255
 1196 0072 294A     		ldr	r2, .L81+4
 1197 0074 2949     		ldr	r1, .L81+8
 1198 0076 0020     		movs	r0, #0
 1199              	.LVL173:
 1200 0078 A047     		blx	r4
 1201              	.LVL174:
 1202              	.LBE22:
 456:Source\azure_iot_sdk\uamqp\src/frame_codec.c ****                 result = __FAILURE__;
 1203              		.loc 1 456 0 is_stmt 1 discriminator 4
 1204 007a E420     		movs	r0, #228
 1205 007c 4000     		lsls	r0, r0, #1
 1206 007e 46E0     		b	.L72
 1207              	.LVL175:
 1208              	.L74:
 457:Source\azure_iot_sdk\uamqp\src/frame_codec.c ****             }
 458:Source\azure_iot_sdk\uamqp\src/frame_codec.c ****             else
 459:Source\azure_iot_sdk\uamqp\src/frame_codec.c ****             {
 460:Source\azure_iot_sdk\uamqp\src/frame_codec.c ****                 /* a subscription was found */
 461:Source\azure_iot_sdk\uamqp\src/frame_codec.c ****                 subscription->on_frame_received = on_frame_received;
 1209              		.loc 1 461 0
 1210 0080 4560     		str	r5, [r0, #4]
 462:Source\azure_iot_sdk\uamqp\src/frame_codec.c ****                 subscription->callback_context = callback_context;
 1211              		.loc 1 462 0
 1212 0082 8660     		str	r6, [r0, #8]
 1213              	.LVL176:
 463:Source\azure_iot_sdk\uamqp\src/frame_codec.c **** 
 464:Source\azure_iot_sdk\uamqp\src/frame_codec.c ****                 /* Codes_SRS_FRAME_CODEC_01_087: [On success, frame_codec_subscribe shall return ze
 465:Source\azure_iot_sdk\uamqp\src/frame_codec.c ****                 result = 0;
 1214              		.loc 1 465 0
 1215 0084 0020     		movs	r0, #0
 1216              	.LVL177:
 1217 0086 42E0     		b	.L72
 1218              	.LVL178:
 1219              	.L73:
 466:Source\azure_iot_sdk\uamqp\src/frame_codec.c ****             }
 467:Source\azure_iot_sdk\uamqp\src/frame_codec.c ****         }
 468:Source\azure_iot_sdk\uamqp\src/frame_codec.c ****         else
 469:Source\azure_iot_sdk\uamqp\src/frame_codec.c ****         {
 470:Source\azure_iot_sdk\uamqp\src/frame_codec.c ****             /* add a new subscription */
 471:Source\azure_iot_sdk\uamqp\src/frame_codec.c ****             subscription = (SUBSCRIPTION*)malloc(sizeof(SUBSCRIPTION));
 1220              		.loc 1 471 0
 1221 0088 0C20     		movs	r0, #12
 1222              	.LVL179:
 1223 008a FFF7FEFF 		bl	malloc
 1224              	.LVL180:
 1225 008e 071E     		subs	r7, r0, #0
 1226              	.LVL181:
ARM GAS  C:\Users\Phuong\AppData\Local\Temp\ccIIJJrV.s 			page 31


 472:Source\azure_iot_sdk\uamqp\src/frame_codec.c ****             /* Codes_SRS_FRAME_CODEC_01_037: [If any failure occurs while performing the subscribe 
 473:Source\azure_iot_sdk\uamqp\src/frame_codec.c ****             if (subscription == NULL)
 1227              		.loc 1 473 0
 1228 0090 10D1     		bne	.L75
 1229              	.LBB23:
 474:Source\azure_iot_sdk\uamqp\src/frame_codec.c ****             {
 475:Source\azure_iot_sdk\uamqp\src/frame_codec.c ****                 LogError("Cannot allocate memory for new subscription");
 1230              		.loc 1 475 0 discriminator 3
 1231 0092 FFF7FEFF 		bl	xlogging_get_log_function
 1232              	.LVL182:
 1233 0096 041E     		subs	r4, r0, #0
 1234              	.LVL183:
 1235 0098 32D0     		beq	.L78
 1236              		.loc 1 475 0 is_stmt 0 discriminator 4
 1237 009a 234B     		ldr	r3, .L81+20
 1238 009c 0193     		str	r3, [sp, #4]
 1239 009e 0123     		movs	r3, #1
 1240 00a0 0093     		str	r3, [sp]
 1241 00a2 DC23     		movs	r3, #220
 1242 00a4 FF33     		adds	r3, r3, #255
 1243 00a6 1C4A     		ldr	r2, .L81+4
 1244 00a8 1C49     		ldr	r1, .L81+8
 1245 00aa 0020     		movs	r0, #0
 1246              	.LVL184:
 1247 00ac A047     		blx	r4
 1248              	.LVL185:
 1249              	.LBE23:
 476:Source\azure_iot_sdk\uamqp\src/frame_codec.c ****                 result = __FAILURE__;
 1250              		.loc 1 476 0 is_stmt 1 discriminator 4
 1251 00ae EE20     		movs	r0, #238
 1252 00b0 4000     		lsls	r0, r0, #1
 1253 00b2 2CE0     		b	.L72
 1254              	.LVL186:
 1255              	.L75:
 477:Source\azure_iot_sdk\uamqp\src/frame_codec.c ****             }
 478:Source\azure_iot_sdk\uamqp\src/frame_codec.c ****             else
 479:Source\azure_iot_sdk\uamqp\src/frame_codec.c ****             {
 480:Source\azure_iot_sdk\uamqp\src/frame_codec.c ****                 subscription->on_frame_received = on_frame_received;
 1256              		.loc 1 480 0
 1257 00b4 4560     		str	r5, [r0, #4]
 481:Source\azure_iot_sdk\uamqp\src/frame_codec.c ****                 subscription->callback_context = callback_context;
 1258              		.loc 1 481 0
 1259 00b6 8660     		str	r6, [r0, #8]
 482:Source\azure_iot_sdk\uamqp\src/frame_codec.c ****                 subscription->frame_type = type;
 1260              		.loc 1 482 0
 1261 00b8 1723     		movs	r3, #23
 1262              	.LVL187:
 1263 00ba 6B44     		add	r3, r3, sp
 1264              	.LVL188:
 1265 00bc 1B78     		ldrb	r3, [r3]
 1266 00be 0370     		strb	r3, [r0]
 483:Source\azure_iot_sdk\uamqp\src/frame_codec.c **** 
 484:Source\azure_iot_sdk\uamqp\src/frame_codec.c ****                 /* Codes_SRS_FRAME_CODEC_01_037: [If any failure occurs while performing the subscr
 485:Source\azure_iot_sdk\uamqp\src/frame_codec.c ****                 if (singlylinkedlist_add(frame_codec_data->subscription_list, subscription) == NULL
 1267              		.loc 1 485 0
 1268 00c0 2068     		ldr	r0, [r4]
 1269              	.LVL189:
ARM GAS  C:\Users\Phuong\AppData\Local\Temp\ccIIJJrV.s 			page 32


 1270 00c2 3900     		movs	r1, r7
 1271 00c4 FFF7FEFF 		bl	singlylinkedlist_add
 1272              	.LVL190:
 1273 00c8 0028     		cmp	r0, #0
 1274 00ca 1CD1     		bne	.L79
 486:Source\azure_iot_sdk\uamqp\src/frame_codec.c ****                 {
 487:Source\azure_iot_sdk\uamqp\src/frame_codec.c ****                     free(subscription);
 1275              		.loc 1 487 0
 1276 00cc 3800     		movs	r0, r7
 1277 00ce FFF7FEFF 		bl	free
 1278              	.LVL191:
 1279              	.LBB24:
 488:Source\azure_iot_sdk\uamqp\src/frame_codec.c ****                     LogError("Cannot add subscription to list");
 1280              		.loc 1 488 0
 1281 00d2 FFF7FEFF 		bl	xlogging_get_log_function
 1282              	.LVL192:
 1283 00d6 041E     		subs	r4, r0, #0
 1284              	.LVL193:
 1285 00d8 17D0     		beq	.L80
 1286              		.loc 1 488 0 is_stmt 0 discriminator 4
 1287 00da 144B     		ldr	r3, .L81+24
 1288 00dc 0193     		str	r3, [sp, #4]
 1289 00de 0123     		movs	r3, #1
 1290 00e0 0093     		str	r3, [sp]
 1291 00e2 E833     		adds	r3, r3, #232
 1292 00e4 FF33     		adds	r3, r3, #255
 1293 00e6 0C4A     		ldr	r2, .L81+4
 1294 00e8 0C49     		ldr	r1, .L81+8
 1295 00ea 0020     		movs	r0, #0
 1296              	.LVL194:
 1297 00ec A047     		blx	r4
 1298              	.LVL195:
 1299              	.LBE24:
 489:Source\azure_iot_sdk\uamqp\src/frame_codec.c ****                     result = __FAILURE__;
 1300              		.loc 1 489 0 is_stmt 1 discriminator 4
 1301 00ee EA20     		movs	r0, #234
 1302 00f0 FF30     		adds	r0, r0, #255
 1303 00f2 0CE0     		b	.L72
 1304              	.LVL196:
 1305              	.L76:
 1306              	.LBE21:
 439:Source\azure_iot_sdk\uamqp\src/frame_codec.c ****     }
 1307              		.loc 1 439 0
 1308 00f4 B820     		movs	r0, #184
 1309              	.LVL197:
 1310 00f6 FF30     		adds	r0, r0, #255
 1311 00f8 09E0     		b	.L72
 1312              	.LVL198:
 1313              	.L77:
 1314              	.LBB25:
 456:Source\azure_iot_sdk\uamqp\src/frame_codec.c ****             }
 1315              		.loc 1 456 0
 1316 00fa E420     		movs	r0, #228
 1317              	.LVL199:
 1318 00fc 4000     		lsls	r0, r0, #1
 1319 00fe 06E0     		b	.L72
 1320              	.LVL200:
ARM GAS  C:\Users\Phuong\AppData\Local\Temp\ccIIJJrV.s 			page 33


 1321              	.L78:
 476:Source\azure_iot_sdk\uamqp\src/frame_codec.c ****             }
 1322              		.loc 1 476 0
 1323 0100 EE20     		movs	r0, #238
 1324              	.LVL201:
 1325 0102 4000     		lsls	r0, r0, #1
 1326 0104 03E0     		b	.L72
 1327              	.LVL202:
 1328              	.L79:
 490:Source\azure_iot_sdk\uamqp\src/frame_codec.c ****                 }
 491:Source\azure_iot_sdk\uamqp\src/frame_codec.c ****                 else
 492:Source\azure_iot_sdk\uamqp\src/frame_codec.c ****                 {
 493:Source\azure_iot_sdk\uamqp\src/frame_codec.c ****                     /* Codes_SRS_FRAME_CODEC_01_087: [On success, frame_codec_subscribe shall retur
 494:Source\azure_iot_sdk\uamqp\src/frame_codec.c ****                     result = 0;
 1329              		.loc 1 494 0
 1330 0106 0020     		movs	r0, #0
 1331 0108 01E0     		b	.L72
 1332              	.LVL203:
 1333              	.L80:
 489:Source\azure_iot_sdk\uamqp\src/frame_codec.c ****                 }
 1334              		.loc 1 489 0
 1335 010a EA20     		movs	r0, #234
 1336              	.LVL204:
 1337 010c FF30     		adds	r0, r0, #255
 1338              	.LVL205:
 1339              	.L72:
 1340              	.LBE25:
 495:Source\azure_iot_sdk\uamqp\src/frame_codec.c ****                 }
 496:Source\azure_iot_sdk\uamqp\src/frame_codec.c ****             }
 497:Source\azure_iot_sdk\uamqp\src/frame_codec.c ****         }
 498:Source\azure_iot_sdk\uamqp\src/frame_codec.c ****     }
 499:Source\azure_iot_sdk\uamqp\src/frame_codec.c **** 
 500:Source\azure_iot_sdk\uamqp\src/frame_codec.c ****     return result;
 501:Source\azure_iot_sdk\uamqp\src/frame_codec.c **** }
 1341              		.loc 1 501 0
 1342 010e 07B0     		add	sp, sp, #28
 1343              		@ sp needed
 1344              	.LVL206:
 1345 0110 F0BD     		pop	{r4, r5, r6, r7, pc}
 1346              	.L82:
 1347 0112 C046     		.align	2
 1348              	.L81:
 1349 0114 CC010000 		.word	.LC37
 1350 0118 98000000 		.word	.LANCHOR1
 1351 011c 00000000 		.word	.LC1
 1352 0120 00000000 		.word	find_subscription_by_frame_type
 1353 0124 04020000 		.word	.LC40
 1354 0128 48020000 		.word	.LC42
 1355 012c 74020000 		.word	.LC44
 1356              		.cfi_endproc
 1357              	.LFE6:
 1358              		.size	frame_codec_subscribe, .-frame_codec_subscribe
 1359              		.section	.text.frame_codec_unsubscribe,"ax",%progbits
 1360              		.align	2
 1361              		.global	frame_codec_unsubscribe
 1362              		.code	16
 1363              		.thumb_func
ARM GAS  C:\Users\Phuong\AppData\Local\Temp\ccIIJJrV.s 			page 34


 1364              		.type	frame_codec_unsubscribe, %function
 1365              	frame_codec_unsubscribe:
 1366              	.LFB7:
 502:Source\azure_iot_sdk\uamqp\src/frame_codec.c **** 
 503:Source\azure_iot_sdk\uamqp\src/frame_codec.c **** int frame_codec_unsubscribe(FRAME_CODEC_HANDLE frame_codec, uint8_t type)
 504:Source\azure_iot_sdk\uamqp\src/frame_codec.c **** {
 1367              		.loc 1 504 0
 1368              		.cfi_startproc
 1369              		@ args = 0, pretend = 0, frame = 8
 1370              		@ frame_needed = 0, uses_anonymous_args = 0
 1371              	.LVL207:
 1372 0000 30B5     		push	{r4, r5, lr}
 1373              		.cfi_def_cfa_offset 12
 1374              		.cfi_offset 4, -12
 1375              		.cfi_offset 5, -8
 1376              		.cfi_offset 14, -4
 1377 0002 87B0     		sub	sp, sp, #28
 1378              		.cfi_def_cfa_offset 40
 1379 0004 0400     		movs	r4, r0
 1380 0006 1723     		movs	r3, #23
 1381 0008 6B44     		add	r3, r3, sp
 1382 000a 1970     		strb	r1, [r3]
 505:Source\azure_iot_sdk\uamqp\src/frame_codec.c ****     int result;
 506:Source\azure_iot_sdk\uamqp\src/frame_codec.c **** 
 507:Source\azure_iot_sdk\uamqp\src/frame_codec.c ****     /* Codes_SRS_FRAME_CODEC_01_039: [If frame_codec is NULL, frame_codec_unsubscribe shall return 
 508:Source\azure_iot_sdk\uamqp\src/frame_codec.c ****     if (frame_codec == NULL)
 1383              		.loc 1 508 0
 1384 000c 0028     		cmp	r0, #0
 1385 000e 10D1     		bne	.L84
 1386              	.LBB26:
 509:Source\azure_iot_sdk\uamqp\src/frame_codec.c ****     {
 510:Source\azure_iot_sdk\uamqp\src/frame_codec.c ****         LogError("NULL frame_codec");
 1387              		.loc 1 510 0 discriminator 3
 1388 0010 FFF7FEFF 		bl	xlogging_get_log_function
 1389              	.LVL208:
 1390 0014 041E     		subs	r4, r0, #0
 1391              	.LVL209:
 1392 0016 56D0     		beq	.L88
 1393              		.loc 1 510 0 is_stmt 0 discriminator 4
 1394 0018 314B     		ldr	r3, .L93
 1395 001a 0193     		str	r3, [sp, #4]
 1396 001c 0123     		movs	r3, #1
 1397 001e 0093     		str	r3, [sp]
 1398 0020 FE33     		adds	r3, r3, #254
 1399 0022 FF33     		adds	r3, r3, #255
 1400 0024 2F4A     		ldr	r2, .L93+4
 1401 0026 1832     		adds	r2, r2, #24
 1402 0028 2F49     		ldr	r1, .L93+8
 1403 002a 0020     		movs	r0, #0
 1404              	.LVL210:
 1405 002c A047     		blx	r4
 1406              	.LVL211:
 1407              	.LBE26:
 511:Source\azure_iot_sdk\uamqp\src/frame_codec.c ****         result = __FAILURE__;
 1408              		.loc 1 511 0 is_stmt 1 discriminator 4
 1409 002e 2F48     		ldr	r0, .L93+12
 1410 0030 53E0     		b	.L85
ARM GAS  C:\Users\Phuong\AppData\Local\Temp\ccIIJJrV.s 			page 35


 1411              	.LVL212:
 1412              	.L84:
 1413              	.LBB27:
 512:Source\azure_iot_sdk\uamqp\src/frame_codec.c ****     }
 513:Source\azure_iot_sdk\uamqp\src/frame_codec.c ****     else
 514:Source\azure_iot_sdk\uamqp\src/frame_codec.c ****     {
 515:Source\azure_iot_sdk\uamqp\src/frame_codec.c ****         FRAME_CODEC_INSTANCE* frame_codec_data = (FRAME_CODEC_INSTANCE*)frame_codec;
 516:Source\azure_iot_sdk\uamqp\src/frame_codec.c ****         LIST_ITEM_HANDLE list_item = singlylinkedlist_find(frame_codec_data->subscription_list, fin
 1414              		.loc 1 516 0
 1415 0032 1722     		movs	r2, #23
 1416 0034 6A44     		add	r2, r2, sp
 1417 0036 2E49     		ldr	r1, .L93+16
 1418              	.LVL213:
 1419 0038 0068     		ldr	r0, [r0]
 1420              	.LVL214:
 1421 003a FFF7FEFF 		bl	singlylinkedlist_find
 1422              	.LVL215:
 1423 003e 051E     		subs	r5, r0, #0
 1424              	.LVL216:
 517:Source\azure_iot_sdk\uamqp\src/frame_codec.c **** 
 518:Source\azure_iot_sdk\uamqp\src/frame_codec.c ****         if (list_item == NULL)
 1425              		.loc 1 518 0
 1426 0040 13D1     		bne	.L86
 1427              	.LBB28:
 519:Source\azure_iot_sdk\uamqp\src/frame_codec.c ****         {
 520:Source\azure_iot_sdk\uamqp\src/frame_codec.c ****             /* Codes_SRS_FRAME_CODEC_01_040: [If no subscription for the type frame type exists, fr
 521:Source\azure_iot_sdk\uamqp\src/frame_codec.c ****             /* Codes_SRS_FRAME_CODEC_01_041: [If any failure occurs while performing the unsubscrib
 522:Source\azure_iot_sdk\uamqp\src/frame_codec.c ****             LogError("Cannot find subscription for type %u", (unsigned int)type);
 1428              		.loc 1 522 0 discriminator 3
 1429 0042 FFF7FEFF 		bl	xlogging_get_log_function
 1430              	.LVL217:
 1431 0046 041E     		subs	r4, r0, #0
 1432              	.LVL218:
 1433 0048 3FD0     		beq	.L89
 1434              		.loc 1 522 0 is_stmt 0 discriminator 4
 1435 004a 1723     		movs	r3, #23
 1436              	.LVL219:
 1437 004c 6B44     		add	r3, r3, sp
 1438              	.LVL220:
 1439 004e 1B78     		ldrb	r3, [r3]
 1440 0050 0293     		str	r3, [sp, #8]
 1441 0052 284B     		ldr	r3, .L93+20
 1442 0054 0193     		str	r3, [sp, #4]
 1443 0056 0123     		movs	r3, #1
 1444 0058 0093     		str	r3, [sp]
 1445 005a 274B     		ldr	r3, .L93+24
 1446 005c 214A     		ldr	r2, .L93+4
 1447 005e 1832     		adds	r2, r2, #24
 1448 0060 2149     		ldr	r1, .L93+8
 1449 0062 0020     		movs	r0, #0
 1450              	.LVL221:
 1451 0064 A047     		blx	r4
 1452              	.LVL222:
 1453              	.LBE28:
 523:Source\azure_iot_sdk\uamqp\src/frame_codec.c ****             result = __FAILURE__;
 1454              		.loc 1 523 0 is_stmt 1 discriminator 4
 1455 0066 2548     		ldr	r0, .L93+28
ARM GAS  C:\Users\Phuong\AppData\Local\Temp\ccIIJJrV.s 			page 36


 1456 0068 37E0     		b	.L85
 1457              	.LVL223:
 1458              	.L86:
 1459              	.LBB29:
 524:Source\azure_iot_sdk\uamqp\src/frame_codec.c ****         }
 525:Source\azure_iot_sdk\uamqp\src/frame_codec.c ****         else
 526:Source\azure_iot_sdk\uamqp\src/frame_codec.c ****         {
 527:Source\azure_iot_sdk\uamqp\src/frame_codec.c ****             SUBSCRIPTION* subscription = (SUBSCRIPTION*)singlylinkedlist_item_get_value(list_item);
 1460              		.loc 1 527 0
 1461 006a FFF7FEFF 		bl	singlylinkedlist_item_get_value
 1462              	.LVL224:
 528:Source\azure_iot_sdk\uamqp\src/frame_codec.c ****             if (subscription == NULL)
 1463              		.loc 1 528 0
 1464 006e 0028     		cmp	r0, #0
 1465 0070 10D1     		bne	.L87
 1466              	.LBB30:
 529:Source\azure_iot_sdk\uamqp\src/frame_codec.c ****             {
 530:Source\azure_iot_sdk\uamqp\src/frame_codec.c ****                 /* Codes_SRS_FRAME_CODEC_01_041: [If any failure occurs while performing the unsubs
 531:Source\azure_iot_sdk\uamqp\src/frame_codec.c ****                 LogError("singlylinkedlist_item_get_value failed when unsubscribing");
 1467              		.loc 1 531 0 discriminator 3
 1468 0072 FFF7FEFF 		bl	xlogging_get_log_function
 1469              	.LVL225:
 1470 0076 041E     		subs	r4, r0, #0
 1471              	.LVL226:
 1472 0078 29D0     		beq	.L90
 1473              		.loc 1 531 0 is_stmt 0 discriminator 4
 1474 007a 214B     		ldr	r3, .L93+32
 1475 007c 0193     		str	r3, [sp, #4]
 1476 007e 0123     		movs	r3, #1
 1477 0080 0093     		str	r3, [sp]
 1478 0082 204B     		ldr	r3, .L93+36
 1479 0084 174A     		ldr	r2, .L93+4
 1480 0086 1832     		adds	r2, r2, #24
 1481 0088 1749     		ldr	r1, .L93+8
 1482 008a 0020     		movs	r0, #0
 1483              	.LVL227:
 1484 008c A047     		blx	r4
 1485              	.LVL228:
 1486              	.LBE30:
 532:Source\azure_iot_sdk\uamqp\src/frame_codec.c ****                 result = __FAILURE__;
 1487              		.loc 1 532 0 is_stmt 1 discriminator 4
 1488 008e 8520     		movs	r0, #133
 1489 0090 8000     		lsls	r0, r0, #2
 1490 0092 22E0     		b	.L85
 1491              	.LVL229:
 1492              	.L87:
 533:Source\azure_iot_sdk\uamqp\src/frame_codec.c ****             }
 534:Source\azure_iot_sdk\uamqp\src/frame_codec.c ****             else
 535:Source\azure_iot_sdk\uamqp\src/frame_codec.c ****             {
 536:Source\azure_iot_sdk\uamqp\src/frame_codec.c ****                 free(subscription);
 1493              		.loc 1 536 0
 1494 0094 FFF7FEFF 		bl	free
 1495              	.LVL230:
 537:Source\azure_iot_sdk\uamqp\src/frame_codec.c ****                 if (singlylinkedlist_remove(frame_codec_data->subscription_list, list_item) != 0)
 1496              		.loc 1 537 0
 1497 0098 2068     		ldr	r0, [r4]
 1498 009a 2900     		movs	r1, r5
ARM GAS  C:\Users\Phuong\AppData\Local\Temp\ccIIJJrV.s 			page 37


 1499 009c FFF7FEFF 		bl	singlylinkedlist_remove
 1500              	.LVL231:
 1501 00a0 0028     		cmp	r0, #0
 1502 00a2 17D0     		beq	.L91
 1503              	.LBB31:
 538:Source\azure_iot_sdk\uamqp\src/frame_codec.c ****                 {
 539:Source\azure_iot_sdk\uamqp\src/frame_codec.c ****                     /* Codes_SRS_FRAME_CODEC_01_041: [If any failure occurs while performing the un
 540:Source\azure_iot_sdk\uamqp\src/frame_codec.c ****                     LogError("Cannot remove subscription from list");
 1504              		.loc 1 540 0 discriminator 3
 1505 00a4 FFF7FEFF 		bl	xlogging_get_log_function
 1506              	.LVL232:
 1507 00a8 041E     		subs	r4, r0, #0
 1508              	.LVL233:
 1509 00aa 15D0     		beq	.L92
 1510              		.loc 1 540 0 is_stmt 0 discriminator 4
 1511 00ac 164B     		ldr	r3, .L93+40
 1512 00ae 0193     		str	r3, [sp, #4]
 1513 00b0 0123     		movs	r3, #1
 1514 00b2 0093     		str	r3, [sp]
 1515 00b4 8723     		movs	r3, #135
 1516 00b6 9B00     		lsls	r3, r3, #2
 1517 00b8 0A4A     		ldr	r2, .L93+4
 1518 00ba 1832     		adds	r2, r2, #24
 1519 00bc 0A49     		ldr	r1, .L93+8
 1520 00be 0020     		movs	r0, #0
 1521              	.LVL234:
 1522 00c0 A047     		blx	r4
 1523              	.LVL235:
 1524              	.LBE31:
 541:Source\azure_iot_sdk\uamqp\src/frame_codec.c ****                     result = __FAILURE__;
 1525              		.loc 1 541 0 is_stmt 1 discriminator 4
 1526 00c2 1248     		ldr	r0, .L93+44
 1527 00c4 09E0     		b	.L85
 1528              	.LVL236:
 1529              	.L88:
 1530              	.LBE29:
 1531              	.LBE27:
 511:Source\azure_iot_sdk\uamqp\src/frame_codec.c ****     }
 1532              		.loc 1 511 0
 1533 00c6 0948     		ldr	r0, .L93+12
 1534              	.LVL237:
 1535 00c8 07E0     		b	.L85
 1536              	.LVL238:
 1537              	.L89:
 1538              	.LBB33:
 523:Source\azure_iot_sdk\uamqp\src/frame_codec.c ****         }
 1539              		.loc 1 523 0
 1540 00ca 0C48     		ldr	r0, .L93+28
 1541              	.LVL239:
 1542 00cc 05E0     		b	.L85
 1543              	.LVL240:
 1544              	.L90:
 1545              	.LBB32:
 532:Source\azure_iot_sdk\uamqp\src/frame_codec.c ****             }
 1546              		.loc 1 532 0
 1547 00ce 8520     		movs	r0, #133
 1548              	.LVL241:
ARM GAS  C:\Users\Phuong\AppData\Local\Temp\ccIIJJrV.s 			page 38


 1549 00d0 8000     		lsls	r0, r0, #2
 1550 00d2 02E0     		b	.L85
 1551              	.LVL242:
 1552              	.L91:
 542:Source\azure_iot_sdk\uamqp\src/frame_codec.c ****                 }
 543:Source\azure_iot_sdk\uamqp\src/frame_codec.c ****                 else
 544:Source\azure_iot_sdk\uamqp\src/frame_codec.c ****                 {
 545:Source\azure_iot_sdk\uamqp\src/frame_codec.c ****                     /* Codes_SRS_FRAME_CODEC_01_038: [frame_codec_unsubscribe removes a previous su
 546:Source\azure_iot_sdk\uamqp\src/frame_codec.c ****                     result = 0;
 1553              		.loc 1 546 0
 1554 00d4 0020     		movs	r0, #0
 1555 00d6 00E0     		b	.L85
 1556              	.LVL243:
 1557              	.L92:
 541:Source\azure_iot_sdk\uamqp\src/frame_codec.c ****                 }
 1558              		.loc 1 541 0
 1559 00d8 0C48     		ldr	r0, .L93+44
 1560              	.LVL244:
 1561              	.L85:
 1562              	.LBE32:
 1563              	.LBE33:
 547:Source\azure_iot_sdk\uamqp\src/frame_codec.c ****                 }
 548:Source\azure_iot_sdk\uamqp\src/frame_codec.c ****             }
 549:Source\azure_iot_sdk\uamqp\src/frame_codec.c ****         }
 550:Source\azure_iot_sdk\uamqp\src/frame_codec.c ****     }
 551:Source\azure_iot_sdk\uamqp\src/frame_codec.c **** 
 552:Source\azure_iot_sdk\uamqp\src/frame_codec.c ****     return result;
 553:Source\azure_iot_sdk\uamqp\src/frame_codec.c **** }
 1564              		.loc 1 553 0
 1565 00da 07B0     		add	sp, sp, #28
 1566              		@ sp needed
 1567 00dc 30BD     		pop	{r4, r5, pc}
 1568              	.L94:
 1569 00de C046     		.align	2
 1570              	.L93:
 1571 00e0 A8000000 		.word	.LC13
 1572 00e4 98000000 		.word	.LANCHOR1
 1573 00e8 00000000 		.word	.LC1
 1574 00ec FF010000 		.word	511
 1575 00f0 00000000 		.word	find_subscription_by_frame_type
 1576 00f4 94020000 		.word	.LC50
 1577 00f8 0A020000 		.word	522
 1578 00fc 0B020000 		.word	523
 1579 0100 BC020000 		.word	.LC52
 1580 0104 13020000 		.word	531
 1581 0108 F8020000 		.word	.LC54
 1582 010c 1D020000 		.word	541
 1583              		.cfi_endproc
 1584              	.LFE7:
 1585              		.size	frame_codec_unsubscribe, .-frame_codec_unsubscribe
 1586              		.section	.text.frame_codec_encode_frame,"ax",%progbits
 1587              		.align	2
 1588              		.global	frame_codec_encode_frame
 1589              		.code	16
 1590              		.thumb_func
 1591              		.type	frame_codec_encode_frame, %function
 1592              	frame_codec_encode_frame:
ARM GAS  C:\Users\Phuong\AppData\Local\Temp\ccIIJJrV.s 			page 39


 1593              	.LFB8:
 554:Source\azure_iot_sdk\uamqp\src/frame_codec.c **** 
 555:Source\azure_iot_sdk\uamqp\src/frame_codec.c **** int frame_codec_encode_frame(FRAME_CODEC_HANDLE frame_codec, uint8_t type, const PAYLOAD* payloads,
 556:Source\azure_iot_sdk\uamqp\src/frame_codec.c **** {
 1594              		.loc 1 556 0
 1595              		.cfi_startproc
 1596              		@ args = 16, pretend = 0, frame = 24
 1597              		@ frame_needed = 0, uses_anonymous_args = 0
 1598              	.LVL245:
 1599 0000 F0B5     		push	{r4, r5, r6, r7, lr}
 1600              		.cfi_def_cfa_offset 20
 1601              		.cfi_offset 4, -20
 1602              		.cfi_offset 5, -16
 1603              		.cfi_offset 6, -12
 1604              		.cfi_offset 7, -8
 1605              		.cfi_offset 14, -4
 1606 0002 5F46     		mov	r7, fp
 1607 0004 5646     		mov	r6, r10
 1608 0006 4D46     		mov	r5, r9
 1609 0008 4446     		mov	r4, r8
 1610 000a F0B4     		push	{r4, r5, r6, r7}
 1611              		.cfi_def_cfa_offset 36
 1612              		.cfi_offset 8, -36
 1613              		.cfi_offset 9, -32
 1614              		.cfi_offset 10, -28
 1615              		.cfi_offset 11, -24
 1616 000c 8DB0     		sub	sp, sp, #52
 1617              		.cfi_def_cfa_offset 88
 1618 000e 0600     		movs	r6, r0
 1619 0010 0791     		str	r1, [sp, #28]
 1620 0012 1700     		movs	r7, r2
 1621 0014 1D00     		movs	r5, r3
 1622 0016 179C     		ldr	r4, [sp, #92]
 1623              	.LVL246:
 557:Source\azure_iot_sdk\uamqp\src/frame_codec.c ****     int result;
 558:Source\azure_iot_sdk\uamqp\src/frame_codec.c **** 
 559:Source\azure_iot_sdk\uamqp\src/frame_codec.c ****     FRAME_CODEC_INSTANCE* frame_codec_data = (FRAME_CODEC_INSTANCE*)frame_codec;
 560:Source\azure_iot_sdk\uamqp\src/frame_codec.c **** 
 561:Source\azure_iot_sdk\uamqp\src/frame_codec.c ****     /* Codes_SRS_FRAME_CODEC_01_044: [If any of arguments `frame_codec` or `on_bytes_encoded` is NU
 562:Source\azure_iot_sdk\uamqp\src/frame_codec.c ****     if ((frame_codec == NULL) ||
 1624              		.loc 1 562 0
 1625 0018 0028     		cmp	r0, #0
 1626 001a 0AD0     		beq	.L96
 1627              		.loc 1 562 0 is_stmt 0 discriminator 1
 1628 001c 189B     		ldr	r3, [sp, #96]
 1629              	.LVL247:
 1630 001e 002B     		cmp	r3, #0
 1631 0020 07D0     		beq	.L96
 563:Source\azure_iot_sdk\uamqp\src/frame_codec.c ****         (on_bytes_encoded == NULL) ||
 1632              		.loc 1 563 0 is_stmt 1
 1633 0022 002C     		cmp	r4, #0
 1634 0024 02D0     		beq	.L97
 564:Source\azure_iot_sdk\uamqp\src/frame_codec.c ****         /* Codes_SRS_FRAME_CODEC_01_091: [If the argument type_specific_size is greater than 0 and 
 565:Source\azure_iot_sdk\uamqp\src/frame_codec.c ****         ((type_specific_size > 0) && (type_specific_bytes == NULL)) ||
 1635              		.loc 1 565 0
 1636 0026 169B     		ldr	r3, [sp, #88]
 1637 0028 002B     		cmp	r3, #0
ARM GAS  C:\Users\Phuong\AppData\Local\Temp\ccIIJJrV.s 			page 40


 1638 002a 02D0     		beq	.L96
 1639              	.L97:
 1640              		.loc 1 565 0 is_stmt 0 discriminator 1
 1641 002c 744B     		ldr	r3, .L117
 1642 002e 9C42     		cmp	r4, r3
 1643 0030 16D9     		bls	.L98
 1644              	.L96:
 1645              	.LBB34:
 566:Source\azure_iot_sdk\uamqp\src/frame_codec.c ****         /* Codes_SRS_FRAME_CODEC_01_092: [If type_specific_size is too big to allow encoding the fr
 567:Source\azure_iot_sdk\uamqp\src/frame_codec.c ****         (type_specific_size > MAX_TYPE_SPECIFIC_SIZE))
 568:Source\azure_iot_sdk\uamqp\src/frame_codec.c ****     {
 569:Source\azure_iot_sdk\uamqp\src/frame_codec.c ****         LogError("Bad arguments: frame_codec = %p, on_bytes_encoded = %p, type_specific_size = %u, 
 1646              		.loc 1 569 0 is_stmt 1 discriminator 3
 1647 0032 FFF7FEFF 		bl	xlogging_get_log_function
 1648              	.LVL248:
 1649 0036 051E     		subs	r5, r0, #0
 1650              	.LVL249:
 1651 0038 00D1     		bne	.LCB1852
 1652 003a D0E0     		b	.L111	@long jump
 1653              	.LCB1852:
 1654              		.loc 1 569 0 is_stmt 0 discriminator 4
 1655 003c 169B     		ldr	r3, [sp, #88]
 1656 003e 0593     		str	r3, [sp, #20]
 1657 0040 0494     		str	r4, [sp, #16]
 1658 0042 189B     		ldr	r3, [sp, #96]
 1659 0044 0393     		str	r3, [sp, #12]
 1660 0046 0296     		str	r6, [sp, #8]
 1661 0048 6E4B     		ldr	r3, .L117+4
 1662 004a 0193     		str	r3, [sp, #4]
 1663 004c 0123     		movs	r3, #1
 1664 004e 0093     		str	r3, [sp]
 1665 0050 6D4B     		ldr	r3, .L117+8
 1666 0052 6E4A     		ldr	r2, .L117+12
 1667 0054 3032     		adds	r2, r2, #48
 1668 0056 6E49     		ldr	r1, .L117+16
 1669 0058 0020     		movs	r0, #0
 1670              	.LVL250:
 1671 005a A847     		blx	r5
 1672              	.LVL251:
 1673              	.LBE34:
 570:Source\azure_iot_sdk\uamqp\src/frame_codec.c ****             frame_codec, on_bytes_encoded, (unsigned int)type_specific_size, type_specific_bytes);
 571:Source\azure_iot_sdk\uamqp\src/frame_codec.c ****         result = __FAILURE__;
 1674              		.loc 1 571 0 is_stmt 1 discriminator 4
 1675 005c 6D48     		ldr	r0, .L117+20
 1676 005e C8E0     		b	.L99
 1677              	.LVL252:
 1678              	.L98:
 572:Source\azure_iot_sdk\uamqp\src/frame_codec.c ****     }
 573:Source\azure_iot_sdk\uamqp\src/frame_codec.c ****     else if ((payloads == NULL) && (payload_count > 0))
 1679              		.loc 1 573 0
 1680 0060 002F     		cmp	r7, #0
 1681 0062 13D1     		bne	.L100
 1682              		.loc 1 573 0 is_stmt 0 discriminator 1
 1683 0064 002D     		cmp	r5, #0
 1684 0066 11D0     		beq	.L100
 1685              	.LBB35:
 574:Source\azure_iot_sdk\uamqp\src/frame_codec.c ****     {
ARM GAS  C:\Users\Phuong\AppData\Local\Temp\ccIIJJrV.s 			page 41


 575:Source\azure_iot_sdk\uamqp\src/frame_codec.c ****         /* Codes_SRS_FRAME_CODEC_01_107: [If the argument `payloads` is NULL and `payload_count` is
 576:Source\azure_iot_sdk\uamqp\src/frame_codec.c ****         LogError("NULL payloads argument with non-zero payload count");
 1686              		.loc 1 576 0 is_stmt 1 discriminator 3
 1687 0068 FFF7FEFF 		bl	xlogging_get_log_function
 1688              	.LVL253:
 1689 006c 041E     		subs	r4, r0, #0
 1690              	.LVL254:
 1691 006e 00D1     		bne	.LCB1901
 1692 0070 B7E0     		b	.L112	@long jump
 1693              	.LCB1901:
 1694              		.loc 1 576 0 is_stmt 0 discriminator 4
 1695 0072 694B     		ldr	r3, .L117+24
 1696 0074 0193     		str	r3, [sp, #4]
 1697 0076 0123     		movs	r3, #1
 1698 0078 0093     		str	r3, [sp]
 1699 007a 9023     		movs	r3, #144
 1700 007c 9B00     		lsls	r3, r3, #2
 1701 007e 634A     		ldr	r2, .L117+12
 1702 0080 3032     		adds	r2, r2, #48
 1703 0082 6349     		ldr	r1, .L117+16
 1704 0084 0020     		movs	r0, #0
 1705              	.LVL255:
 1706 0086 A047     		blx	r4
 1707              	.LVL256:
 1708              	.LBE35:
 577:Source\azure_iot_sdk\uamqp\src/frame_codec.c ****         result = __FAILURE__;
 1709              		.loc 1 577 0 is_stmt 1 discriminator 4
 1710 0088 6448     		ldr	r0, .L117+28
 1711 008a B2E0     		b	.L99
 1712              	.LVL257:
 1713              	.L100:
 1714              	.LBB36:
 578:Source\azure_iot_sdk\uamqp\src/frame_codec.c ****     }
 579:Source\azure_iot_sdk\uamqp\src/frame_codec.c ****     else
 580:Source\azure_iot_sdk\uamqp\src/frame_codec.c ****     {
 581:Source\azure_iot_sdk\uamqp\src/frame_codec.c ****         /* round up to the 4 bytes for doff */
 582:Source\azure_iot_sdk\uamqp\src/frame_codec.c ****         /* Codes_SRS_FRAME_CODEC_01_067: [The value of the data offset is an unsigned, 8-bit intege
 583:Source\azure_iot_sdk\uamqp\src/frame_codec.c ****         /* Codes_SRS_FRAME_CODEC_01_068: [Due to the mandatory 8-byte frame header, the frame is ma
 584:Source\azure_iot_sdk\uamqp\src/frame_codec.c ****         uint8_t padding_byte_count;
 585:Source\azure_iot_sdk\uamqp\src/frame_codec.c ****         uint32_t frame_body_offset = type_specific_size + 6;
 586:Source\azure_iot_sdk\uamqp\src/frame_codec.c ****         uint8_t doff = (uint8_t)((frame_body_offset + 3) / 4);
 1715              		.loc 1 586 0
 1716 008c 2300     		movs	r3, r4
 1717 008e 0933     		adds	r3, r3, #9
 1718 0090 9B08     		lsrs	r3, r3, #2
 1719 0092 DAB2     		uxtb	r2, r3
 1720              	.LVL258:
 1721 0094 9246     		mov	r10, r2
 1722              	.LVL259:
 587:Source\azure_iot_sdk\uamqp\src/frame_codec.c ****         size_t i;
 588:Source\azure_iot_sdk\uamqp\src/frame_codec.c ****         size_t frame_size;
 589:Source\azure_iot_sdk\uamqp\src/frame_codec.c ****         size_t frame_body_size = 0;
 590:Source\azure_iot_sdk\uamqp\src/frame_codec.c ****         frame_body_offset = doff * 4;
 1723              		.loc 1 590 0
 1724 0096 FF20     		movs	r0, #255
 1725              	.LVL260:
 1726 0098 0340     		ands	r3, r0
ARM GAS  C:\Users\Phuong\AppData\Local\Temp\ccIIJJrV.s 			page 42


 1727 009a 9B00     		lsls	r3, r3, #2
 1728 009c 9C46     		mov	ip, r3
 1729              	.LVL261:
 591:Source\azure_iot_sdk\uamqp\src/frame_codec.c ****         padding_byte_count = (uint8_t)(frame_body_offset - type_specific_size - 6);
 1730              		.loc 1 591 0
 1731 009e 1B1B     		subs	r3, r3, r4
 1732              	.LVL262:
 1733 00a0 DBB2     		uxtb	r3, r3
 1734 00a2 063B     		subs	r3, r3, #6
 1735 00a4 DBB2     		uxtb	r3, r3
 1736 00a6 9946     		mov	r9, r3
 1737              	.LVL263:
 589:Source\azure_iot_sdk\uamqp\src/frame_codec.c ****         frame_body_offset = doff * 4;
 1738              		.loc 1 589 0
 1739 00a8 0022     		movs	r2, #0
 592:Source\azure_iot_sdk\uamqp\src/frame_codec.c **** 
 593:Source\azure_iot_sdk\uamqp\src/frame_codec.c ****         for (i = 0; i < payload_count; i++)
 1740              		.loc 1 593 0
 1741 00aa 0021     		movs	r1, #0
 1742              	.LVL264:
 1743 00ac 09E0     		b	.L101
 1744              	.LVL265:
 1745              	.L103:
 594:Source\azure_iot_sdk\uamqp\src/frame_codec.c ****         {
 595:Source\azure_iot_sdk\uamqp\src/frame_codec.c ****             /* Codes_SRS_FRAME_CODEC_01_110: [ If the `bytes` member of a payload entry is NULL, `f
 596:Source\azure_iot_sdk\uamqp\src/frame_codec.c ****             if ((payloads[i].bytes == NULL) ||
 1746              		.loc 1 596 0
 1747 00ae CB00     		lsls	r3, r1, #3
 1748 00b0 FB18     		adds	r3, r7, r3
 1749 00b2 1868     		ldr	r0, [r3]
 1750 00b4 0028     		cmp	r0, #0
 1751 00b6 06D0     		beq	.L102
 597:Source\azure_iot_sdk\uamqp\src/frame_codec.c ****                 /* Codes_SRS_FRAME_CODEC_01_111: [ If the `length` member of a payload entry is 0, 
 598:Source\azure_iot_sdk\uamqp\src/frame_codec.c ****                 (payloads[i].length == 0))
 1752              		.loc 1 598 0 discriminator 1
 1753 00b8 5B68     		ldr	r3, [r3, #4]
 596:Source\azure_iot_sdk\uamqp\src/frame_codec.c ****                 /* Codes_SRS_FRAME_CODEC_01_111: [ If the `length` member of a payload entry is 0, 
 1754              		.loc 1 596 0 discriminator 1
 1755 00ba 002B     		cmp	r3, #0
 1756 00bc 03D0     		beq	.L102
 599:Source\azure_iot_sdk\uamqp\src/frame_codec.c ****             {
 600:Source\azure_iot_sdk\uamqp\src/frame_codec.c ****                 break;
 601:Source\azure_iot_sdk\uamqp\src/frame_codec.c ****             }
 602:Source\azure_iot_sdk\uamqp\src/frame_codec.c **** 
 603:Source\azure_iot_sdk\uamqp\src/frame_codec.c ****             frame_body_size += payloads[i].length;
 1757              		.loc 1 603 0 discriminator 2
 1758 00be D218     		adds	r2, r2, r3
 1759              	.LVL266:
 593:Source\azure_iot_sdk\uamqp\src/frame_codec.c ****         {
 1760              		.loc 1 593 0 discriminator 2
 1761 00c0 0131     		adds	r1, r1, #1
 1762              	.LVL267:
 1763              	.L101:
 593:Source\azure_iot_sdk\uamqp\src/frame_codec.c ****         {
 1764              		.loc 1 593 0 is_stmt 0 discriminator 1
 1765 00c2 A942     		cmp	r1, r5
 1766 00c4 F3D3     		bcc	.L103
ARM GAS  C:\Users\Phuong\AppData\Local\Temp\ccIIJJrV.s 			page 43


 1767              	.L102:
 604:Source\azure_iot_sdk\uamqp\src/frame_codec.c ****         }
 605:Source\azure_iot_sdk\uamqp\src/frame_codec.c **** 
 606:Source\azure_iot_sdk\uamqp\src/frame_codec.c ****         if (i < payload_count)
 1768              		.loc 1 606 0 is_stmt 1
 1769 00c6 A942     		cmp	r1, r5
 1770 00c8 11D2     		bcs	.L104
 1771              	.LBB37:
 607:Source\azure_iot_sdk\uamqp\src/frame_codec.c ****         {
 608:Source\azure_iot_sdk\uamqp\src/frame_codec.c ****             LogError("Bad payload entry");
 1772              		.loc 1 608 0 discriminator 3
 1773 00ca FFF7FEFF 		bl	xlogging_get_log_function
 1774              	.LVL268:
 1775 00ce 041E     		subs	r4, r0, #0
 1776              	.LVL269:
 1777 00d0 00D1     		bne	.LCB2002
 1778 00d2 88E0     		b	.L113	@long jump
 1779              	.LCB2002:
 1780              		.loc 1 608 0 is_stmt 0 discriminator 4
 1781 00d4 524B     		ldr	r3, .L117+32
 1782 00d6 0193     		str	r3, [sp, #4]
 1783 00d8 0123     		movs	r3, #1
 1784 00da 0093     		str	r3, [sp]
 1785 00dc 9823     		movs	r3, #152
 1786 00de 9B00     		lsls	r3, r3, #2
 1787 00e0 4A4A     		ldr	r2, .L117+12
 1788 00e2 3032     		adds	r2, r2, #48
 1789 00e4 4A49     		ldr	r1, .L117+16
 1790 00e6 0020     		movs	r0, #0
 1791              	.LVL270:
 1792 00e8 A047     		blx	r4
 1793              	.LVL271:
 1794              	.LBE37:
 609:Source\azure_iot_sdk\uamqp\src/frame_codec.c ****             result = __FAILURE__;
 1795              		.loc 1 609 0 is_stmt 1 discriminator 4
 1796 00ea 4E48     		ldr	r0, .L117+36
 1797 00ec 81E0     		b	.L99
 1798              	.LVL272:
 1799              	.L104:
 610:Source\azure_iot_sdk\uamqp\src/frame_codec.c ****         }
 611:Source\azure_iot_sdk\uamqp\src/frame_codec.c ****         else
 612:Source\azure_iot_sdk\uamqp\src/frame_codec.c ****         {
 613:Source\azure_iot_sdk\uamqp\src/frame_codec.c ****             /* Codes_SRS_FRAME_CODEC_01_063: [This is an unsigned 32-bit integer that MUST contain 
 614:Source\azure_iot_sdk\uamqp\src/frame_codec.c ****             frame_size = frame_body_size + frame_body_offset;
 1800              		.loc 1 614 0
 1801 00ee 9346     		mov	fp, r2
 1802 00f0 E344     		add	fp, fp, ip
 1803              	.LVL273:
 615:Source\azure_iot_sdk\uamqp\src/frame_codec.c **** 
 616:Source\azure_iot_sdk\uamqp\src/frame_codec.c ****             if (frame_size > frame_codec_data->max_frame_size)
 1804              		.loc 1 616 0
 1805 00f2 B36A     		ldr	r3, [r6, #40]
 1806 00f4 9B45     		cmp	fp, r3
 1807 00f6 10D9     		bls	.L105
 1808              	.LBB38:
 617:Source\azure_iot_sdk\uamqp\src/frame_codec.c ****             {
 618:Source\azure_iot_sdk\uamqp\src/frame_codec.c ****                 /* Codes_SRS_FRAME_CODEC_01_095: [If the frame_size needed for the frame is bigger 
ARM GAS  C:\Users\Phuong\AppData\Local\Temp\ccIIJJrV.s 			page 44


 619:Source\azure_iot_sdk\uamqp\src/frame_codec.c ****                 LogError("Encoded frame size exceeds the maximum allowed frame size");
 1809              		.loc 1 619 0 discriminator 3
 1810 00f8 FFF7FEFF 		bl	xlogging_get_log_function
 1811              	.LVL274:
 1812 00fc 041E     		subs	r4, r0, #0
 1813              	.LVL275:
 1814 00fe 74D0     		beq	.L114
 1815              		.loc 1 619 0 is_stmt 0 discriminator 4
 1816 0100 494B     		ldr	r3, .L117+40
 1817 0102 0193     		str	r3, [sp, #4]
 1818 0104 0123     		movs	r3, #1
 1819 0106 0093     		str	r3, [sp]
 1820 0108 484B     		ldr	r3, .L117+44
 1821 010a 404A     		ldr	r2, .L117+12
 1822 010c 3032     		adds	r2, r2, #48
 1823 010e 4049     		ldr	r1, .L117+16
 1824 0110 0020     		movs	r0, #0
 1825              	.LVL276:
 1826 0112 A047     		blx	r4
 1827              	.LVL277:
 1828              	.LBE38:
 620:Source\azure_iot_sdk\uamqp\src/frame_codec.c ****                 result = __FAILURE__;
 1829              		.loc 1 620 0 is_stmt 1 discriminator 4
 1830 0114 9B20     		movs	r0, #155
 1831 0116 8000     		lsls	r0, r0, #2
 1832 0118 6BE0     		b	.L99
 1833              	.LVL278:
 1834              	.L105:
 1835              	.LBB39:
 621:Source\azure_iot_sdk\uamqp\src/frame_codec.c ****             }
 622:Source\azure_iot_sdk\uamqp\src/frame_codec.c ****             else
 623:Source\azure_iot_sdk\uamqp\src/frame_codec.c ****             {
 624:Source\azure_iot_sdk\uamqp\src/frame_codec.c ****                 /* Codes_SRS_FRAME_CODEC_01_108: [ Memory shall be allocated to hold the entire fra
 625:Source\azure_iot_sdk\uamqp\src/frame_codec.c ****                 unsigned char* encoded_frame = (unsigned char*)malloc(frame_size);
 1836              		.loc 1 625 0
 1837 011a 5846     		mov	r0, fp
 1838 011c FFF7FEFF 		bl	malloc
 1839              	.LVL279:
 1840 0120 8046     		mov	r8, r0
 1841              	.LVL280:
 626:Source\azure_iot_sdk\uamqp\src/frame_codec.c ****                 if (encoded_frame == NULL)
 1842              		.loc 1 626 0
 1843 0122 0028     		cmp	r0, #0
 1844 0124 0FD1     		bne	.L106
 1845              	.LBB40:
 627:Source\azure_iot_sdk\uamqp\src/frame_codec.c ****                 {
 628:Source\azure_iot_sdk\uamqp\src/frame_codec.c ****                     /* Codes_SRS_FRAME_CODEC_01_109: [ If allocating memory fails, `frame_codec_enc
 629:Source\azure_iot_sdk\uamqp\src/frame_codec.c ****                     LogError("Cannot allocate memory for frame");
 1846              		.loc 1 629 0 discriminator 3
 1847 0126 FFF7FEFF 		bl	xlogging_get_log_function
 1848              	.LVL281:
 1849 012a 041E     		subs	r4, r0, #0
 1850              	.LVL282:
 1851 012c 60D0     		beq	.L115
 1852              		.loc 1 629 0 is_stmt 0 discriminator 4
 1853 012e 404B     		ldr	r3, .L117+48
 1854 0130 0193     		str	r3, [sp, #4]
ARM GAS  C:\Users\Phuong\AppData\Local\Temp\ccIIJJrV.s 			page 45


 1855 0132 0123     		movs	r3, #1
 1856 0134 0093     		str	r3, [sp]
 1857 0136 3F4B     		ldr	r3, .L117+52
 1858 0138 344A     		ldr	r2, .L117+12
 1859 013a 3032     		adds	r2, r2, #48
 1860 013c 3449     		ldr	r1, .L117+16
 1861 013e 0020     		movs	r0, #0
 1862              	.LVL283:
 1863 0140 A047     		blx	r4
 1864              	.LVL284:
 1865              	.LBE40:
 630:Source\azure_iot_sdk\uamqp\src/frame_codec.c ****                     result = __FAILURE__;
 1866              		.loc 1 630 0 is_stmt 1 discriminator 4
 1867 0142 3D48     		ldr	r0, .L117+56
 1868 0144 55E0     		b	.L99
 1869              	.LVL285:
 1870              	.L106:
 1871              	.LBB41:
 631:Source\azure_iot_sdk\uamqp\src/frame_codec.c ****                 }
 632:Source\azure_iot_sdk\uamqp\src/frame_codec.c ****                 else
 633:Source\azure_iot_sdk\uamqp\src/frame_codec.c ****                 {
 634:Source\azure_iot_sdk\uamqp\src/frame_codec.c ****                     /* Codes_SRS_FRAME_CODEC_01_042: [frame_codec_encode_frame encodes the header, 
 635:Source\azure_iot_sdk\uamqp\src/frame_codec.c ****                     /* Codes_SRS_FRAME_CODEC_01_055: [Frames are divided into three distinct areas:
 636:Source\azure_iot_sdk\uamqp\src/frame_codec.c ****                     /* Codes_SRS_FRAME_CODEC_01_056: [frame header The frame header is a fixed size
 637:Source\azure_iot_sdk\uamqp\src/frame_codec.c ****                     /* Codes_SRS_FRAME_CODEC_01_057: [The frame header includes mandatory informati
 638:Source\azure_iot_sdk\uamqp\src/frame_codec.c ****                     /* Codes_SRS_FRAME_CODEC_01_058: [extended header The extended header is a vari
 639:Source\azure_iot_sdk\uamqp\src/frame_codec.c ****                     /* Codes_SRS_FRAME_CODEC_01_059: [This is an extension point defined for future
 640:Source\azure_iot_sdk\uamqp\src/frame_codec.c ****                     /* Codes_SRS_FRAME_CODEC_01_060: [The treatment of this area depends on the fra
 641:Source\azure_iot_sdk\uamqp\src/frame_codec.c ****                     /* Codes_SRS_FRAME_CODEC_01_062: [SIZE Bytes 0-3 of the frame header contain th
 642:Source\azure_iot_sdk\uamqp\src/frame_codec.c ****                     /* Codes_SRS_FRAME_CODEC_01_063: [This is an unsigned 32-bit integer that MUST 
 643:Source\azure_iot_sdk\uamqp\src/frame_codec.c ****                     /* Codes_SRS_FRAME_CODEC_01_064: [The frame is malformed if the size is less th
 644:Source\azure_iot_sdk\uamqp\src/frame_codec.c ****                     unsigned char frame_header[6];
 645:Source\azure_iot_sdk\uamqp\src/frame_codec.c ****                     size_t current_pos = 0;
 646:Source\azure_iot_sdk\uamqp\src/frame_codec.c ****                     /* Codes_SRS_FRAME_CODEC_01_090: [If the type_specific_size - 2 does not divide
 647:Source\azure_iot_sdk\uamqp\src/frame_codec.c ****                     unsigned char padding_bytes[] = { 0x00, 0x00, 0x00 };
 1872              		.loc 1 647 0
 1873 0146 09AB     		add	r3, sp, #36
 1874 0148 0022     		movs	r2, #0
 1875 014a 1A70     		strb	r2, [r3]
 1876 014c 5A70     		strb	r2, [r3, #1]
 1877 014e 9A70     		strb	r2, [r3, #2]
 648:Source\azure_iot_sdk\uamqp\src/frame_codec.c **** 
 649:Source\azure_iot_sdk\uamqp\src/frame_codec.c ****                     frame_header[0] = (frame_size >> 24) & 0xFF;
 1878              		.loc 1 649 0
 1879 0150 5B46     		mov	r3, fp
 1880 0152 1B0E     		lsrs	r3, r3, #24
 1881 0154 0AA9     		add	r1, sp, #40
 1882 0156 0B70     		strb	r3, [r1]
 650:Source\azure_iot_sdk\uamqp\src/frame_codec.c ****                     frame_header[1] = (frame_size >> 16) & 0xFF;
 1883              		.loc 1 650 0
 1884 0158 5B46     		mov	r3, fp
 1885 015a 1B0C     		lsrs	r3, r3, #16
 1886 015c 4B70     		strb	r3, [r1, #1]
 651:Source\azure_iot_sdk\uamqp\src/frame_codec.c ****                     frame_header[2] = (frame_size >> 8) & 0xFF;
 1887              		.loc 1 651 0
 1888 015e 5B46     		mov	r3, fp
 1889 0160 1B0A     		lsrs	r3, r3, #8
ARM GAS  C:\Users\Phuong\AppData\Local\Temp\ccIIJJrV.s 			page 46


 1890 0162 8B70     		strb	r3, [r1, #2]
 652:Source\azure_iot_sdk\uamqp\src/frame_codec.c ****                     frame_header[3] = frame_size & 0xFF;
 1891              		.loc 1 652 0
 1892 0164 5B46     		mov	r3, fp
 1893 0166 CB70     		strb	r3, [r1, #3]
 653:Source\azure_iot_sdk\uamqp\src/frame_codec.c ****                     /* Codes_SRS_FRAME_CODEC_01_065: [DOFF Byte 4 of the frame header is the data o
 654:Source\azure_iot_sdk\uamqp\src/frame_codec.c ****                     frame_header[4] = doff;
 1894              		.loc 1 654 0
 1895 0168 5346     		mov	r3, r10
 1896 016a 0B71     		strb	r3, [r1, #4]
 655:Source\azure_iot_sdk\uamqp\src/frame_codec.c ****                     /* Codes_SRS_FRAME_CODEC_01_069: [TYPE Byte 5 of the frame header is a type cod
 656:Source\azure_iot_sdk\uamqp\src/frame_codec.c ****                     frame_header[5] = type;
 1897              		.loc 1 656 0
 1898 016c 6B46     		mov	r3, sp
 1899 016e 1B7F     		ldrb	r3, [r3, #28]
 1900 0170 4B71     		strb	r3, [r1, #5]
 657:Source\azure_iot_sdk\uamqp\src/frame_codec.c **** 
 658:Source\azure_iot_sdk\uamqp\src/frame_codec.c ****                     (void)memcpy(encoded_frame, frame_header, sizeof(frame_header));
 1901              		.loc 1 658 0
 1902 0172 0632     		adds	r2, r2, #6
 1903 0174 FFF7FEFF 		bl	memcpy
 1904              	.LVL286:
 659:Source\azure_iot_sdk\uamqp\src/frame_codec.c ****                     current_pos += sizeof(frame_header);
 660:Source\azure_iot_sdk\uamqp\src/frame_codec.c **** 
 661:Source\azure_iot_sdk\uamqp\src/frame_codec.c ****                     if (type_specific_size > 0)
 1905              		.loc 1 661 0
 1906 0178 002C     		cmp	r4, #0
 1907 017a 07D0     		beq	.L116
 662:Source\azure_iot_sdk\uamqp\src/frame_codec.c ****                     {
 663:Source\azure_iot_sdk\uamqp\src/frame_codec.c ****                         (void)memcpy(encoded_frame + current_pos, type_specific_bytes, type_specifi
 1908              		.loc 1 663 0
 1909 017c 4346     		mov	r3, r8
 1910 017e 981D     		adds	r0, r3, #6
 1911 0180 2200     		movs	r2, r4
 1912 0182 1699     		ldr	r1, [sp, #88]
 1913 0184 FFF7FEFF 		bl	memcpy
 1914              	.LVL287:
 664:Source\azure_iot_sdk\uamqp\src/frame_codec.c ****                         current_pos += type_specific_size;
 1915              		.loc 1 664 0
 1916 0188 0634     		adds	r4, r4, #6
 1917              	.LVL288:
 1918 018a 00E0     		b	.L107
 1919              	.LVL289:
 1920              	.L116:
 659:Source\azure_iot_sdk\uamqp\src/frame_codec.c ****                     current_pos += sizeof(frame_header);
 1921              		.loc 1 659 0
 1922 018c 0624     		movs	r4, #6
 1923              	.LVL290:
 1924              	.L107:
 665:Source\azure_iot_sdk\uamqp\src/frame_codec.c ****                     }
 666:Source\azure_iot_sdk\uamqp\src/frame_codec.c **** 
 667:Source\azure_iot_sdk\uamqp\src/frame_codec.c ****                     /* send padding bytes */
 668:Source\azure_iot_sdk\uamqp\src/frame_codec.c ****                     if (padding_byte_count > 0)
 1925              		.loc 1 668 0
 1926 018e 4B46     		mov	r3, r9
 1927 0190 002B     		cmp	r3, #0
 1928 0192 06D0     		beq	.L108
ARM GAS  C:\Users\Phuong\AppData\Local\Temp\ccIIJJrV.s 			page 47


 669:Source\azure_iot_sdk\uamqp\src/frame_codec.c ****                     {
 670:Source\azure_iot_sdk\uamqp\src/frame_codec.c ****                         (void)memcpy(encoded_frame + current_pos, padding_bytes, padding_byte_count
 1929              		.loc 1 670 0
 1930 0194 4346     		mov	r3, r8
 1931 0196 1819     		adds	r0, r3, r4
 1932 0198 4A46     		mov	r2, r9
 1933 019a 09A9     		add	r1, sp, #36
 1934 019c FFF7FEFF 		bl	memcpy
 1935              	.LVL291:
 671:Source\azure_iot_sdk\uamqp\src/frame_codec.c ****                         current_pos += padding_byte_count;
 1936              		.loc 1 671 0
 1937 01a0 4C44     		add	r4, r4, r9
 1938              	.LVL292:
 1939              	.L108:
 659:Source\azure_iot_sdk\uamqp\src/frame_codec.c **** 
 1940              		.loc 1 659 0 discriminator 1
 1941 01a2 0023     		movs	r3, #0
 1942 01a4 9946     		mov	r9, r3
 1943              	.LVL293:
 1944 01a6 0DE0     		b	.L109
 1945              	.LVL294:
 1946              	.L110:
 672:Source\azure_iot_sdk\uamqp\src/frame_codec.c ****                     }
 673:Source\azure_iot_sdk\uamqp\src/frame_codec.c **** 
 674:Source\azure_iot_sdk\uamqp\src/frame_codec.c ****                     /* Codes_SRS_FRAME_CODEC_01_106: [All payloads shall be encoded in order as par
 675:Source\azure_iot_sdk\uamqp\src/frame_codec.c ****                     for (i = 0; i < payload_count; i++)
 676:Source\azure_iot_sdk\uamqp\src/frame_codec.c ****                     {
 677:Source\azure_iot_sdk\uamqp\src/frame_codec.c ****                         (void)memcpy(encoded_frame + current_pos, payloads[i].bytes, payloads[i].le
 1947              		.loc 1 677 0 discriminator 3
 1948 01a8 4346     		mov	r3, r8
 1949 01aa 1819     		adds	r0, r3, r4
 1950 01ac 4B46     		mov	r3, r9
 1951 01ae DE00     		lsls	r6, r3, #3
 1952 01b0 BE19     		adds	r6, r7, r6
 1953 01b2 7268     		ldr	r2, [r6, #4]
 1954 01b4 3168     		ldr	r1, [r6]
 1955 01b6 FFF7FEFF 		bl	memcpy
 1956              	.LVL295:
 678:Source\azure_iot_sdk\uamqp\src/frame_codec.c ****                         current_pos += payloads[i].length;
 1957              		.loc 1 678 0 discriminator 3
 1958 01ba 7368     		ldr	r3, [r6, #4]
 1959 01bc E418     		adds	r4, r4, r3
 1960              	.LVL296:
 675:Source\azure_iot_sdk\uamqp\src/frame_codec.c ****                     {
 1961              		.loc 1 675 0 discriminator 3
 1962 01be 0123     		movs	r3, #1
 1963 01c0 9C46     		mov	ip, r3
 1964 01c2 E144     		add	r9, r9, ip
 1965              	.LVL297:
 1966              	.L109:
 675:Source\azure_iot_sdk\uamqp\src/frame_codec.c ****                     {
 1967              		.loc 1 675 0 is_stmt 0 discriminator 1
 1968 01c4 A945     		cmp	r9, r5
 1969 01c6 EFD3     		bcc	.L110
 679:Source\azure_iot_sdk\uamqp\src/frame_codec.c ****                     }
 680:Source\azure_iot_sdk\uamqp\src/frame_codec.c **** 
 681:Source\azure_iot_sdk\uamqp\src/frame_codec.c ****                     /* Codes_SRS_FRAME_CODEC_01_088: [Encoded bytes shall be passed to the `on_byte
ARM GAS  C:\Users\Phuong\AppData\Local\Temp\ccIIJJrV.s 			page 48


 682:Source\azure_iot_sdk\uamqp\src/frame_codec.c ****                     on_bytes_encoded(callback_context, encoded_frame, frame_size, true);
 1970              		.loc 1 682 0 is_stmt 1
 1971 01c8 0123     		movs	r3, #1
 1972 01ca 5A46     		mov	r2, fp
 1973 01cc 4146     		mov	r1, r8
 1974 01ce 1998     		ldr	r0, [sp, #100]
 1975 01d0 189C     		ldr	r4, [sp, #96]
 1976              	.LVL298:
 1977 01d2 A047     		blx	r4
 1978              	.LVL299:
 683:Source\azure_iot_sdk\uamqp\src/frame_codec.c **** 
 684:Source\azure_iot_sdk\uamqp\src/frame_codec.c ****                     free(encoded_frame);
 1979              		.loc 1 684 0
 1980 01d4 4046     		mov	r0, r8
 1981 01d6 FFF7FEFF 		bl	free
 1982              	.LVL300:
 685:Source\azure_iot_sdk\uamqp\src/frame_codec.c **** 
 686:Source\azure_iot_sdk\uamqp\src/frame_codec.c ****                     /* Codes_SRS_FRAME_CODEC_01_043: [On success it shall return 0.] */
 687:Source\azure_iot_sdk\uamqp\src/frame_codec.c ****                     result = 0;
 1983              		.loc 1 687 0
 1984 01da 0020     		movs	r0, #0
 1985 01dc 09E0     		b	.L99
 1986              	.LVL301:
 1987              	.L111:
 1988              	.LBE41:
 1989              	.LBE39:
 1990              	.LBE36:
 571:Source\azure_iot_sdk\uamqp\src/frame_codec.c ****     }
 1991              		.loc 1 571 0
 1992 01de 0D48     		ldr	r0, .L117+20
 1993              	.LVL302:
 1994 01e0 07E0     		b	.L99
 1995              	.LVL303:
 1996              	.L112:
 577:Source\azure_iot_sdk\uamqp\src/frame_codec.c ****     }
 1997              		.loc 1 577 0
 1998 01e2 0E48     		ldr	r0, .L117+28
 1999              	.LVL304:
 2000 01e4 05E0     		b	.L99
 2001              	.LVL305:
 2002              	.L113:
 2003              	.LBB43:
 609:Source\azure_iot_sdk\uamqp\src/frame_codec.c ****         }
 2004              		.loc 1 609 0
 2005 01e6 0F48     		ldr	r0, .L117+36
 2006              	.LVL306:
 2007 01e8 03E0     		b	.L99
 2008              	.LVL307:
 2009              	.L114:
 620:Source\azure_iot_sdk\uamqp\src/frame_codec.c ****             }
 2010              		.loc 1 620 0
 2011 01ea 9B20     		movs	r0, #155
 2012              	.LVL308:
 2013 01ec 8000     		lsls	r0, r0, #2
 2014 01ee 00E0     		b	.L99
 2015              	.LVL309:
 2016              	.L115:
ARM GAS  C:\Users\Phuong\AppData\Local\Temp\ccIIJJrV.s 			page 49


 2017              	.LBB42:
 630:Source\azure_iot_sdk\uamqp\src/frame_codec.c ****                 }
 2018              		.loc 1 630 0
 2019 01f0 1148     		ldr	r0, .L117+56
 2020              	.LVL310:
 2021              	.L99:
 2022              	.LBE42:
 2023              	.LBE43:
 688:Source\azure_iot_sdk\uamqp\src/frame_codec.c ****                 }
 689:Source\azure_iot_sdk\uamqp\src/frame_codec.c ****             }
 690:Source\azure_iot_sdk\uamqp\src/frame_codec.c ****         }
 691:Source\azure_iot_sdk\uamqp\src/frame_codec.c ****     }
 692:Source\azure_iot_sdk\uamqp\src/frame_codec.c **** 
 693:Source\azure_iot_sdk\uamqp\src/frame_codec.c ****     return result;
 694:Source\azure_iot_sdk\uamqp\src/frame_codec.c **** }
 2024              		.loc 1 694 0
 2025 01f2 0DB0     		add	sp, sp, #52
 2026              		@ sp needed
 2027              	.LVL311:
 2028 01f4 3CBC     		pop	{r2, r3, r4, r5}
 2029 01f6 9046     		mov	r8, r2
 2030 01f8 9946     		mov	r9, r3
 2031 01fa A246     		mov	r10, r4
 2032 01fc AB46     		mov	fp, r5
 2033 01fe F0BD     		pop	{r4, r5, r6, r7, pc}
 2034              	.L118:
 2035              		.align	2
 2036              	.L117:
 2037 0200 F6030000 		.word	1014
 2038 0204 20030000 		.word	.LC58
 2039 0208 3A020000 		.word	570
 2040 020c 98000000 		.word	.LANCHOR1
 2041 0210 00000000 		.word	.LC1
 2042 0214 3B020000 		.word	571
 2043 0218 8C030000 		.word	.LC60
 2044 021c 41020000 		.word	577
 2045 0220 C0030000 		.word	.LC62
 2046 0224 61020000 		.word	609
 2047 0228 D4030000 		.word	.LC64
 2048 022c 6B020000 		.word	619
 2049 0230 10040000 		.word	.LC66
 2050 0234 75020000 		.word	629
 2051 0238 76020000 		.word	630
 2052              		.cfi_endproc
 2053              	.LFE8:
 2054              		.size	frame_codec_encode_frame, .-frame_codec_encode_frame
 2055              		.section	.rodata
 2056              		.align	2
 2057              		.set	.LANCHOR0,. + 0
 2058              		.type	__func__.6241, %object
 2059              		.size	__func__.6241, 32
 2060              	__func__.6241:
 2061 0014 66696E64 		.ascii	"find_subscription_by_frame_type\000"
 2061      5F737562 
 2061      73637269 
 2061      7074696F 
 2061      6E5F6279 
ARM GAS  C:\Users\Phuong\AppData\Local\Temp\ccIIJJrV.s 			page 50


 2062              		.type	__func__.6250, %object
 2063              		.size	__func__.6250, 19
 2064              	__func__.6250:
 2065 0034 6672616D 		.ascii	"frame_codec_create\000"
 2065      655F636F 
 2065      6465635F 
 2065      63726561 
 2065      746500
 2066 0047 00       		.space	1
 2067              		.type	__func__.6260, %object
 2068              		.size	__func__.6260, 20
 2069              	__func__.6260:
 2070 0048 6672616D 		.ascii	"frame_codec_destroy\000"
 2070      655F636F 
 2070      6465635F 
 2070      64657374 
 2070      726F7900 
 2071              		.type	__func__.6271, %object
 2072              		.size	__func__.6271, 31
 2073              	__func__.6271:
 2074 005c 6672616D 		.ascii	"frame_codec_set_max_frame_size\000"
 2074      655F636F 
 2074      6465635F 
 2074      7365745F 
 2074      6D61785F 
 2075 007b 00       		.space	1
 2076              		.type	__func__.6285, %object
 2077              		.size	__func__.6285, 26
 2078              	__func__.6285:
 2079 007c 6672616D 		.ascii	"frame_codec_receive_bytes\000"
 2079      655F636F 
 2079      6465635F 
 2079      72656365 
 2079      6976655F 
 2080 0096 0000     		.align	2
 2081              		.set	.LANCHOR1,. + 0
 2082              		.type	__func__.6323, %object
 2083              		.size	__func__.6323, 22
 2084              	__func__.6323:
 2085 0098 6672616D 		.ascii	"frame_codec_subscribe\000"
 2085      655F636F 
 2085      6465635F 
 2085      73756273 
 2085      63726962 
 2086 00ae 0000     		.space	2
 2087              		.type	__func__.6344, %object
 2088              		.size	__func__.6344, 24
 2089              	__func__.6344:
 2090 00b0 6672616D 		.ascii	"frame_codec_unsubscribe\000"
 2090      655F636F 
 2090      6465635F 
 2090      756E7375 
 2090      62736372 
 2091              		.type	__func__.6372, %object
 2092              		.size	__func__.6372, 25
 2093              	__func__.6372:
 2094 00c8 6672616D 		.ascii	"frame_codec_encode_frame\000"
ARM GAS  C:\Users\Phuong\AppData\Local\Temp\ccIIJJrV.s 			page 51


 2094      655F636F 
 2094      6465635F 
 2094      656E636F 
 2094      64655F66 
 2095              		.section	.rodata.str1.4,"aMS",%progbits,1
 2096              		.align	2
 2097              	.LC1:
 2098 0000 536F7572 		.ascii	"Source\\azure_iot_sdk\\uamqp\\src\\frame_codec.c\000"
 2098      63655C61 
 2098      7A757265 
 2098      5F696F74 
 2098      5F73646B 
 2099 002d 000000   		.space	3
 2100              	.LC3:
 2101 0030 436F756C 		.ascii	"Could not get subscription information from the lis"
 2101      64206E6F 
 2101      74206765 
 2101      74207375 
 2101      62736372 
 2102 0063 74206974 		.ascii	"t item\000"
 2102      656D00
 2103 006a 0000     		.space	2
 2104              	.LC7:
 2105 006c 4E554C4C 		.ascii	"NULL on_frame_codec_error\000"
 2105      206F6E5F 
 2105      6672616D 
 2105      655F636F 
 2105      6465635F 
 2106 0086 0000     		.space	2
 2107              	.LC9:
 2108 0088 436F756C 		.ascii	"Could not allocate frame codec\000"
 2108      64206E6F 
 2108      7420616C 
 2108      6C6F6361 
 2108      74652066 
 2109 00a7 00       		.space	1
 2110              	.LC13:
 2111 00a8 4E554C4C 		.ascii	"NULL frame_codec\000"
 2111      20667261 
 2111      6D655F63 
 2111      6F646563 
 2111      00
 2112 00b9 000000   		.space	3
 2113              	.LC17:
 2114 00bc 42616420 		.ascii	"Bad arguments: frame_codec = %p, max_frame_size = %"
 2114      61726775 
 2114      6D656E74 
 2114      733A2066 
 2114      72616D65 
 2115 00ef 6C7500   		.ascii	"lu\000"
 2116 00f2 0000     		.space	2
 2117              	.LC19:
 2118 00f4 4672616D 		.ascii	"Frame codec in error state\000"
 2118      6520636F 
 2118      64656320 
 2118      696E2065 
 2118      72726F72 
ARM GAS  C:\Users\Phuong\AppData\Local\Temp\ccIIJJrV.s 			page 52


 2119 010f 00       		.space	1
 2120              	.LC23:
 2121 0110 42616420 		.ascii	"Bad arguments: frame_codec = %p, buffer = %p, size "
 2121      61726775 
 2121      6D656E74 
 2121      733A2066 
 2121      72616D65 
 2122 0143 3D202575 		.ascii	"= %u\000"
 2122      00
 2123              	.LC26:
 2124 0148 4672616D 		.ascii	"Frame codec is in error state\000"
 2124      6520636F 
 2124      64656320 
 2124      69732069 
 2124      6E206572 
 2125 0166 0000     		.space	2
 2126              	.LC28:
 2127 0168 52656365 		.ascii	"Received frame size is too big\000"
 2127      69766564 
 2127      20667261 
 2127      6D652073 
 2127      697A6520 
 2128 0187 00       		.space	1
 2129              	.LC30:
 2130 0188 4D616C66 		.ascii	"Malformed frame received\000"
 2130      6F726D65 
 2130      64206672 
 2130      616D6520 
 2130      72656365 
 2131 01a1 000000   		.space	3
 2132              	.LC33:
 2133 01a4 43616E6E 		.ascii	"Cannot allocate memort for frame bytes\000"
 2133      6F742061 
 2133      6C6C6F63 
 2133      61746520 
 2133      6D656D6F 
 2134 01cb 00       		.space	1
 2135              	.LC37:
 2136 01cc 42616420 		.ascii	"Bad arguments: frame_codec = %p, on_frame_received "
 2136      61726775 
 2136      6D656E74 
 2136      733A2066 
 2136      72616D65 
 2137 01ff 3D202570 		.ascii	"= %p\000"
 2137      00
 2138              	.LC40:
 2139 0204 43616E6E 		.ascii	"Cannot retrieve subscription information from the l"
 2139      6F742072 
 2139      65747269 
 2139      65766520 
 2139      73756273 
 2140 0237 69737420 		.ascii	"ist for type %u\000"
 2140      666F7220 
 2140      74797065 
 2140      20257500 
 2141 0247 00       		.space	1
 2142              	.LC42:
ARM GAS  C:\Users\Phuong\AppData\Local\Temp\ccIIJJrV.s 			page 53


 2143 0248 43616E6E 		.ascii	"Cannot allocate memory for new subscription\000"
 2143      6F742061 
 2143      6C6C6F63 
 2143      61746520 
 2143      6D656D6F 
 2144              	.LC44:
 2145 0274 43616E6E 		.ascii	"Cannot add subscription to list\000"
 2145      6F742061 
 2145      64642073 
 2145      75627363 
 2145      72697074 
 2146              	.LC50:
 2147 0294 43616E6E 		.ascii	"Cannot find subscription for type %u\000"
 2147      6F742066 
 2147      696E6420 
 2147      73756273 
 2147      63726970 
 2148 02b9 000000   		.space	3
 2149              	.LC52:
 2150 02bc 73696E67 		.ascii	"singlylinkedlist_item_get_value failed when unsubsc"
 2150      6C796C69 
 2150      6E6B6564 
 2150      6C697374 
 2150      5F697465 
 2151 02ef 72696269 		.ascii	"ribing\000"
 2151      6E6700
 2152 02f6 0000     		.space	2
 2153              	.LC54:
 2154 02f8 43616E6E 		.ascii	"Cannot remove subscription from list\000"
 2154      6F742072 
 2154      656D6F76 
 2154      65207375 
 2154      62736372 
 2155 031d 000000   		.space	3
 2156              	.LC58:
 2157 0320 42616420 		.ascii	"Bad arguments: frame_codec = %p, on_bytes_encoded ="
 2157      61726775 
 2157      6D656E74 
 2157      733A2066 
 2157      72616D65 
 2158 0353 2025702C 		.ascii	" %p, type_specific_size = %u, type_specific_bytes ="
 2158      20747970 
 2158      655F7370 
 2158      65636966 
 2158      69635F73 
 2159 0386 20257000 		.ascii	" %p\000"
 2160 038a 0000     		.space	2
 2161              	.LC60:
 2162 038c 4E554C4C 		.ascii	"NULL payloads argument with non-zero payload count\000"
 2162      20706179 
 2162      6C6F6164 
 2162      73206172 
 2162      67756D65 
 2163 03bf 00       		.space	1
 2164              	.LC62:
 2165 03c0 42616420 		.ascii	"Bad payload entry\000"
 2165      7061796C 
ARM GAS  C:\Users\Phuong\AppData\Local\Temp\ccIIJJrV.s 			page 54


 2165      6F616420 
 2165      656E7472 
 2165      7900
 2166 03d2 0000     		.space	2
 2167              	.LC64:
 2168 03d4 456E636F 		.ascii	"Encoded frame size exceeds the maximum allowed fram"
 2168      64656420 
 2168      6672616D 
 2168      65207369 
 2168      7A652065 
 2169 0407 65207369 		.ascii	"e size\000"
 2169      7A6500
 2170 040e 0000     		.space	2
 2171              	.LC66:
 2172 0410 43616E6E 		.ascii	"Cannot allocate memory for frame\000"
 2172      6F742061 
 2172      6C6C6F63 
 2172      61746520 
 2172      6D656D6F 
 2173              		.text
 2174              	.Letext0:
 2175              		.file 2 "c:\\program files (x86)\\cypress\\psoc creator\\4.2\\psoc creator\\import\\gnu\\arm\\5.4.
 2176              		.file 3 "c:\\program files (x86)\\cypress\\psoc creator\\4.2\\psoc creator\\import\\gnu\\arm\\5.4.
 2177              		.file 4 "c:\\program files (x86)\\cypress\\psoc creator\\4.2\\psoc creator\\import\\gnu\\arm\\5.4.
 2178              		.file 5 ".\\Source\\azure_iot_sdk\\c-utility\\inc/azure_c_shared_utility/xlogging.h"
 2179              		.file 6 ".\\Source\\azure_iot_sdk\\c-utility\\inc/azure_c_shared_utility/singlylinkedlist.h"
 2180              		.file 7 ".\\Source\\azure_iot_sdk\\uamqp\\inc/azure_uamqp_c/frame_codec.h"
 2181              		.file 8 "c:\\program files (x86)\\cypress\\psoc creator\\4.2\\psoc creator\\import\\gnu\\arm\\5.4.
 2182              		.section	.debug_info,"",%progbits
 2183              	.Ldebug_info0:
 2184 0000 B3140000 		.4byte	0x14b3
 2185 0004 0400     		.2byte	0x4
 2186 0006 00000000 		.4byte	.Ldebug_abbrev0
 2187 000a 04       		.byte	0x4
 2188 000b 01       		.uleb128 0x1
 2189 000c 1B010000 		.4byte	.LASF103
 2190 0010 0C       		.byte	0xc
 2191 0011 6D020000 		.4byte	.LASF104
 2192 0015 8C040000 		.4byte	.LASF105
 2193 0019 C0000000 		.4byte	.Ldebug_ranges0+0xc0
 2194 001d 00000000 		.4byte	0
 2195 0021 00000000 		.4byte	.Ldebug_line0
 2196 0025 02       		.uleb128 0x2
 2197 0026 B8000000 		.4byte	.LASF4
 2198 002a 02       		.byte	0x2
 2199 002b D8       		.byte	0xd8
 2200 002c 30000000 		.4byte	0x30
 2201 0030 03       		.uleb128 0x3
 2202 0031 04       		.byte	0x4
 2203 0032 07       		.byte	0x7
 2204 0033 C0050000 		.4byte	.LASF0
 2205 0037 04       		.uleb128 0x4
 2206 0038 04       		.byte	0x4
 2207 0039 05       		.byte	0x5
 2208 003a 696E7400 		.ascii	"int\000"
 2209 003e 03       		.uleb128 0x3
 2210 003f 08       		.byte	0x8
ARM GAS  C:\Users\Phuong\AppData\Local\Temp\ccIIJJrV.s 			page 55


 2211 0040 05       		.byte	0x5
 2212 0041 02030000 		.4byte	.LASF1
 2213 0045 03       		.uleb128 0x3
 2214 0046 08       		.byte	0x8
 2215 0047 04       		.byte	0x4
 2216 0048 FA030000 		.4byte	.LASF2
 2217 004c 03       		.uleb128 0x3
 2218 004d 01       		.byte	0x1
 2219 004e 06       		.byte	0x6
 2220 004f 50050000 		.4byte	.LASF3
 2221 0053 02       		.uleb128 0x2
 2222 0054 78030000 		.4byte	.LASF5
 2223 0058 03       		.byte	0x3
 2224 0059 1D       		.byte	0x1d
 2225 005a 5E000000 		.4byte	0x5e
 2226 005e 03       		.uleb128 0x3
 2227 005f 01       		.byte	0x1
 2228 0060 08       		.byte	0x8
 2229 0061 AF030000 		.4byte	.LASF6
 2230 0065 03       		.uleb128 0x3
 2231 0066 02       		.byte	0x2
 2232 0067 05       		.byte	0x5
 2233 0068 AE000000 		.4byte	.LASF7
 2234 006c 03       		.uleb128 0x3
 2235 006d 02       		.byte	0x2
 2236 006e 07       		.byte	0x7
 2237 006f 70060000 		.4byte	.LASF8
 2238 0073 03       		.uleb128 0x3
 2239 0074 04       		.byte	0x4
 2240 0075 05       		.byte	0x5
 2241 0076 2B060000 		.4byte	.LASF9
 2242 007a 02       		.uleb128 0x2
 2243 007b D0010000 		.4byte	.LASF10
 2244 007f 03       		.byte	0x3
 2245 0080 41       		.byte	0x41
 2246 0081 85000000 		.4byte	0x85
 2247 0085 03       		.uleb128 0x3
 2248 0086 04       		.byte	0x4
 2249 0087 07       		.byte	0x7
 2250 0088 EA060000 		.4byte	.LASF11
 2251 008c 03       		.uleb128 0x3
 2252 008d 08       		.byte	0x8
 2253 008e 07       		.byte	0x7
 2254 008f 5C050000 		.4byte	.LASF12
 2255 0093 03       		.uleb128 0x3
 2256 0094 04       		.byte	0x4
 2257 0095 07       		.byte	0x7
 2258 0096 D6070000 		.4byte	.LASF13
 2259 009a 05       		.uleb128 0x5
 2260 009b 04       		.byte	0x4
 2261 009c 03       		.uleb128 0x3
 2262 009d 01       		.byte	0x1
 2263 009e 08       		.byte	0x8
 2264 009f 0B060000 		.4byte	.LASF14
 2265 00a3 06       		.uleb128 0x6
 2266 00a4 04       		.byte	0x4
 2267 00a5 5E000000 		.4byte	0x5e
ARM GAS  C:\Users\Phuong\AppData\Local\Temp\ccIIJJrV.s 			page 56


 2268 00a9 06       		.uleb128 0x6
 2269 00aa 04       		.byte	0x4
 2270 00ab AF000000 		.4byte	0xaf
 2271 00af 07       		.uleb128 0x7
 2272 00b0 9C000000 		.4byte	0x9c
 2273 00b4 08       		.uleb128 0x8
 2274 00b5 5E000000 		.4byte	0x5e
 2275 00b9 C4000000 		.4byte	0xc4
 2276 00bd 09       		.uleb128 0x9
 2277 00be 93000000 		.4byte	0x93
 2278 00c2 02       		.byte	0x2
 2279 00c3 00       		.byte	0
 2280 00c4 06       		.uleb128 0x6
 2281 00c5 04       		.byte	0x4
 2282 00c6 CA000000 		.4byte	0xca
 2283 00ca 0A       		.uleb128 0xa
 2284 00cb 02       		.uleb128 0x2
 2285 00cc A8070000 		.4byte	.LASF15
 2286 00d0 04       		.byte	0x4
 2287 00d1 18       		.byte	0x18
 2288 00d2 53000000 		.4byte	0x53
 2289 00d6 02       		.uleb128 0x2
 2290 00d7 C5020000 		.4byte	.LASF16
 2291 00db 04       		.byte	0x4
 2292 00dc 30       		.byte	0x30
 2293 00dd 7A000000 		.4byte	0x7a
 2294 00e1 0B       		.uleb128 0xb
 2295 00e2 B8060000 		.4byte	.LASF48
 2296 00e6 01       		.byte	0x1
 2297 00e7 5E000000 		.4byte	0x5e
 2298 00eb 05       		.byte	0x5
 2299 00ec 22       		.byte	0x22
 2300 00ed 04010000 		.4byte	0x104
 2301 00f1 0C       		.uleb128 0xc
 2302 00f2 D3000000 		.4byte	.LASF17
 2303 00f6 00       		.byte	0
 2304 00f7 0C       		.uleb128 0xc
 2305 00f8 DE060000 		.4byte	.LASF18
 2306 00fc 01       		.byte	0x1
 2307 00fd 0C       		.uleb128 0xc
 2308 00fe C6000000 		.4byte	.LASF19
 2309 0102 02       		.byte	0x2
 2310 0103 00       		.byte	0
 2311 0104 02       		.uleb128 0x2
 2312 0105 FE050000 		.4byte	.LASF20
 2313 0109 05       		.byte	0x5
 2314 010a 27       		.byte	0x27
 2315 010b E1000000 		.4byte	0xe1
 2316 010f 02       		.uleb128 0x2
 2317 0110 4D080000 		.4byte	.LASF21
 2318 0114 05       		.byte	0x5
 2319 0115 2F       		.byte	0x2f
 2320 0116 1A010000 		.4byte	0x11a
 2321 011a 06       		.uleb128 0x6
 2322 011b 04       		.byte	0x4
 2323 011c 20010000 		.4byte	0x120
 2324 0120 0D       		.uleb128 0xd
ARM GAS  C:\Users\Phuong\AppData\Local\Temp\ccIIJJrV.s 			page 57


 2325 0121 45010000 		.4byte	0x145
 2326 0125 0E       		.uleb128 0xe
 2327 0126 04010000 		.4byte	0x104
 2328 012a 0E       		.uleb128 0xe
 2329 012b A9000000 		.4byte	0xa9
 2330 012f 0E       		.uleb128 0xe
 2331 0130 A9000000 		.4byte	0xa9
 2332 0134 0E       		.uleb128 0xe
 2333 0135 37000000 		.4byte	0x37
 2334 0139 0E       		.uleb128 0xe
 2335 013a 30000000 		.4byte	0x30
 2336 013e 0E       		.uleb128 0xe
 2337 013f A9000000 		.4byte	0xa9
 2338 0143 0F       		.uleb128 0xf
 2339 0144 00       		.byte	0
 2340 0145 02       		.uleb128 0x2
 2341 0146 82030000 		.4byte	.LASF22
 2342 014a 06       		.byte	0x6
 2343 014b 0F       		.byte	0xf
 2344 014c 50010000 		.4byte	0x150
 2345 0150 06       		.uleb128 0x6
 2346 0151 04       		.byte	0x4
 2347 0152 56010000 		.4byte	0x156
 2348 0156 10       		.uleb128 0x10
 2349 0157 DC030000 		.4byte	.LASF24
 2350 015b 02       		.uleb128 0x2
 2351 015c 00000000 		.4byte	.LASF23
 2352 0160 06       		.byte	0x6
 2353 0161 10       		.byte	0x10
 2354 0162 66010000 		.4byte	0x166
 2355 0166 06       		.uleb128 0x6
 2356 0167 04       		.byte	0x4
 2357 0168 6C010000 		.4byte	0x16c
 2358 016c 10       		.uleb128 0x10
 2359 016d AD010000 		.4byte	.LASF25
 2360 0171 03       		.uleb128 0x3
 2361 0172 01       		.byte	0x1
 2362 0173 02       		.byte	0x2
 2363 0174 94060000 		.4byte	.LASF26
 2364 0178 06       		.uleb128 0x6
 2365 0179 04       		.byte	0x4
 2366 017a 7E010000 		.4byte	0x17e
 2367 017e 07       		.uleb128 0x7
 2368 017f 5E000000 		.4byte	0x5e
 2369 0183 11       		.uleb128 0x11
 2370 0184 C4010000 		.4byte	.LASF31
 2371 0188 08       		.byte	0x8
 2372 0189 07       		.byte	0x7
 2373 018a 15       		.byte	0x15
 2374 018b A8010000 		.4byte	0x1a8
 2375 018f 12       		.uleb128 0x12
 2376 0190 FC060000 		.4byte	.LASF27
 2377 0194 07       		.byte	0x7
 2378 0195 17       		.byte	0x17
 2379 0196 78010000 		.4byte	0x178
 2380 019a 00       		.byte	0
 2381 019b 12       		.uleb128 0x12
ARM GAS  C:\Users\Phuong\AppData\Local\Temp\ccIIJJrV.s 			page 58


 2382 019c D3020000 		.4byte	.LASF28
 2383 01a0 07       		.byte	0x7
 2384 01a1 18       		.byte	0x18
 2385 01a2 25000000 		.4byte	0x25
 2386 01a6 04       		.byte	0x4
 2387 01a7 00       		.byte	0
 2388 01a8 02       		.uleb128 0x2
 2389 01a9 ED050000 		.4byte	.LASF29
 2390 01ad 07       		.byte	0x7
 2391 01ae 19       		.byte	0x19
 2392 01af 83010000 		.4byte	0x183
 2393 01b3 02       		.uleb128 0x2
 2394 01b4 BD030000 		.4byte	.LASF30
 2395 01b8 07       		.byte	0x7
 2396 01b9 27       		.byte	0x27
 2397 01ba BE010000 		.4byte	0x1be
 2398 01be 06       		.uleb128 0x6
 2399 01bf 04       		.byte	0x4
 2400 01c0 C4010000 		.4byte	0x1c4
 2401 01c4 11       		.uleb128 0x11
 2402 01c5 E9020000 		.4byte	.LASF32
 2403 01c9 2C       		.byte	0x2c
 2404 01ca 01       		.byte	0x1
 2405 01cb 24       		.byte	0x24
 2406 01cc 61020000 		.4byte	0x261
 2407 01d0 12       		.uleb128 0x12
 2408 01d1 48060000 		.4byte	.LASF33
 2409 01d5 01       		.byte	0x1
 2410 01d6 27       		.byte	0x27
 2411 01d7 45010000 		.4byte	0x145
 2412 01db 00       		.byte	0
 2413 01dc 12       		.uleb128 0x12
 2414 01dd 34060000 		.4byte	.LASF34
 2415 01e1 01       		.byte	0x1
 2416 01e2 2A       		.byte	0x2a
 2417 01e3 0D030000 		.4byte	0x30d
 2418 01e7 04       		.byte	0x4
 2419 01e8 12       		.uleb128 0x12
 2420 01e9 E0000000 		.4byte	.LASF35
 2421 01ed 01       		.byte	0x1
 2422 01ee 2B       		.byte	0x2b
 2423 01ef 25000000 		.4byte	0x25
 2424 01f3 08       		.byte	0x8
 2425 01f4 12       		.uleb128 0x12
 2426 01f5 FE070000 		.4byte	.LASF36
 2427 01f9 01       		.byte	0x1
 2428 01fa 2C       		.byte	0x2c
 2429 01fb D6000000 		.4byte	0xd6
 2430 01ff 0C       		.byte	0xc
 2431 0200 12       		.uleb128 0x12
 2432 0201 3D030000 		.4byte	.LASF37
 2433 0205 01       		.byte	0x1
 2434 0206 2D       		.byte	0x2d
 2435 0207 D6000000 		.4byte	0xd6
 2436 020b 10       		.byte	0x10
 2437 020c 12       		.uleb128 0x12
 2438 020d CD050000 		.4byte	.LASF38
ARM GAS  C:\Users\Phuong\AppData\Local\Temp\ccIIJJrV.s 			page 59


 2439 0211 01       		.byte	0x1
 2440 0212 2E       		.byte	0x2e
 2441 0213 CB000000 		.4byte	0xcb
 2442 0217 14       		.byte	0x14
 2443 0218 12       		.uleb128 0x12
 2444 0219 DB010000 		.4byte	.LASF39
 2445 021d 01       		.byte	0x1
 2446 021e 2F       		.byte	0x2f
 2447 021f CB000000 		.4byte	0xcb
 2448 0223 15       		.byte	0x15
 2449 0224 12       		.uleb128 0x12
 2450 0225 10060000 		.4byte	.LASF40
 2451 0229 01       		.byte	0x1
 2452 022a 30       		.byte	0x30
 2453 022b 54030000 		.4byte	0x354
 2454 022f 18       		.byte	0x18
 2455 0230 12       		.uleb128 0x12
 2456 0231 94070000 		.4byte	.LASF41
 2457 0235 01       		.byte	0x1
 2458 0236 31       		.byte	0x31
 2459 0237 A3000000 		.4byte	0xa3
 2460 023b 1C       		.byte	0x1c
 2461 023c 12       		.uleb128 0x12
 2462 023d 9A030000 		.4byte	.LASF42
 2463 0241 01       		.byte	0x1
 2464 0242 32       		.byte	0x32
 2465 0243 91020000 		.4byte	0x291
 2466 0247 20       		.byte	0x20
 2467 0248 12       		.uleb128 0x12
 2468 0249 7A000000 		.4byte	.LASF43
 2469 024d 01       		.byte	0x1
 2470 024e 33       		.byte	0x33
 2471 024f 9A000000 		.4byte	0x9a
 2472 0253 24       		.byte	0x24
 2473 0254 12       		.uleb128 0x12
 2474 0255 DA020000 		.4byte	.LASF44
 2475 0259 01       		.byte	0x1
 2476 025a 36       		.byte	0x36
 2477 025b D6000000 		.4byte	0xd6
 2478 025f 28       		.byte	0x28
 2479 0260 00       		.byte	0
 2480 0261 02       		.uleb128 0x2
 2481 0262 3B080000 		.4byte	.LASF45
 2482 0266 07       		.byte	0x7
 2483 0267 28       		.byte	0x28
 2484 0268 6C020000 		.4byte	0x26c
 2485 026c 06       		.uleb128 0x6
 2486 026d 04       		.byte	0x4
 2487 026e 72020000 		.4byte	0x272
 2488 0272 0D       		.uleb128 0xd
 2489 0273 91020000 		.4byte	0x291
 2490 0277 0E       		.uleb128 0xe
 2491 0278 9A000000 		.4byte	0x9a
 2492 027c 0E       		.uleb128 0xe
 2493 027d 78010000 		.4byte	0x178
 2494 0281 0E       		.uleb128 0xe
 2495 0282 D6000000 		.4byte	0xd6
ARM GAS  C:\Users\Phuong\AppData\Local\Temp\ccIIJJrV.s 			page 60


 2496 0286 0E       		.uleb128 0xe
 2497 0287 78010000 		.4byte	0x178
 2498 028b 0E       		.uleb128 0xe
 2499 028c D6000000 		.4byte	0xd6
 2500 0290 00       		.byte	0
 2501 0291 02       		.uleb128 0x2
 2502 0292 07020000 		.4byte	.LASF46
 2503 0296 07       		.byte	0x7
 2504 0297 29       		.byte	0x29
 2505 0298 9C020000 		.4byte	0x29c
 2506 029c 06       		.uleb128 0x6
 2507 029d 04       		.byte	0x4
 2508 029e A2020000 		.4byte	0x2a2
 2509 02a2 0D       		.uleb128 0xd
 2510 02a3 AD020000 		.4byte	0x2ad
 2511 02a7 0E       		.uleb128 0xe
 2512 02a8 9A000000 		.4byte	0x9a
 2513 02ac 00       		.byte	0
 2514 02ad 02       		.uleb128 0x2
 2515 02ae 0A010000 		.4byte	.LASF47
 2516 02b2 07       		.byte	0x7
 2517 02b3 2A       		.byte	0x2a
 2518 02b4 B8020000 		.4byte	0x2b8
 2519 02b8 06       		.uleb128 0x6
 2520 02b9 04       		.byte	0x4
 2521 02ba BE020000 		.4byte	0x2be
 2522 02be 0D       		.uleb128 0xd
 2523 02bf D8020000 		.4byte	0x2d8
 2524 02c3 0E       		.uleb128 0xe
 2525 02c4 9A000000 		.4byte	0x9a
 2526 02c8 0E       		.uleb128 0xe
 2527 02c9 78010000 		.4byte	0x178
 2528 02cd 0E       		.uleb128 0xe
 2529 02ce 25000000 		.4byte	0x25
 2530 02d2 0E       		.uleb128 0xe
 2531 02d3 71010000 		.4byte	0x171
 2532 02d7 00       		.byte	0
 2533 02d8 0B       		.uleb128 0xb
 2534 02d9 F2000000 		.4byte	.LASF49
 2535 02dd 01       		.byte	0x1
 2536 02de 5E000000 		.4byte	0x5e
 2537 02e2 01       		.byte	0x1
 2538 02e3 13       		.byte	0x13
 2539 02e4 0D030000 		.4byte	0x30d
 2540 02e8 0C       		.uleb128 0xc
 2541 02e9 28070000 		.4byte	.LASF50
 2542 02ed 00       		.byte	0
 2543 02ee 0C       		.uleb128 0xc
 2544 02ef 7C050000 		.4byte	.LASF51
 2545 02f3 01       		.byte	0x1
 2546 02f4 0C       		.uleb128 0xc
 2547 02f5 31050000 		.4byte	.LASF52
 2548 02f9 02       		.byte	0x2
 2549 02fa 0C       		.uleb128 0xc
 2550 02fb 6A040000 		.4byte	.LASF53
 2551 02ff 03       		.byte	0x3
 2552 0300 0C       		.uleb128 0xc
ARM GAS  C:\Users\Phuong\AppData\Local\Temp\ccIIJJrV.s 			page 61


 2553 0301 DF070000 		.4byte	.LASF54
 2554 0305 04       		.byte	0x4
 2555 0306 0C       		.uleb128 0xc
 2556 0307 95050000 		.4byte	.LASF55
 2557 030b 05       		.byte	0x5
 2558 030c 00       		.byte	0
 2559 030d 02       		.uleb128 0x2
 2560 030e 52000000 		.4byte	.LASF56
 2561 0312 01       		.byte	0x1
 2562 0313 1B       		.byte	0x1b
 2563 0314 D8020000 		.4byte	0x2d8
 2564 0318 11       		.uleb128 0x11
 2565 0319 EE010000 		.4byte	.LASF57
 2566 031d 0C       		.byte	0xc
 2567 031e 01       		.byte	0x1
 2568 031f 1D       		.byte	0x1d
 2569 0320 49030000 		.4byte	0x349
 2570 0324 12       		.uleb128 0x12
 2571 0325 9A020000 		.4byte	.LASF58
 2572 0329 01       		.byte	0x1
 2573 032a 1F       		.byte	0x1f
 2574 032b CB000000 		.4byte	0xcb
 2575 032f 00       		.byte	0
 2576 0330 12       		.uleb128 0x12
 2577 0331 A6060000 		.4byte	.LASF59
 2578 0335 01       		.byte	0x1
 2579 0336 20       		.byte	0x20
 2580 0337 61020000 		.4byte	0x261
 2581 033b 04       		.byte	0x4
 2582 033c 12       		.uleb128 0x12
 2583 033d 2A080000 		.4byte	.LASF60
 2584 0341 01       		.byte	0x1
 2585 0342 21       		.byte	0x21
 2586 0343 9A000000 		.4byte	0x9a
 2587 0347 08       		.byte	0x8
 2588 0348 00       		.byte	0
 2589 0349 02       		.uleb128 0x2
 2590 034a 1C020000 		.4byte	.LASF61
 2591 034e 01       		.byte	0x1
 2592 034f 22       		.byte	0x22
 2593 0350 18030000 		.4byte	0x318
 2594 0354 06       		.uleb128 0x6
 2595 0355 04       		.byte	0x4
 2596 0356 49030000 		.4byte	0x349
 2597 035a 02       		.uleb128 0x2
 2598 035b 10030000 		.4byte	.LASF62
 2599 035f 01       		.byte	0x1
 2600 0360 37       		.byte	0x37
 2601 0361 C4010000 		.4byte	0x1c4
 2602 0365 13       		.uleb128 0x13
 2603 0366 4D020000 		.4byte	.LASF106
 2604 036a 01       		.byte	0x1
 2605 036b 39       		.byte	0x39
 2606 036c 71010000 		.4byte	0x171
 2607 0370 00000000 		.4byte	.LFB1
 2608 0374 4C000000 		.4byte	.LFE1-.LFB1
 2609 0378 01       		.uleb128 0x1
ARM GAS  C:\Users\Phuong\AppData\Local\Temp\ccIIJJrV.s 			page 62


 2610 0379 9C       		.byte	0x9c
 2611 037a 35040000 		.4byte	0x435
 2612 037e 14       		.uleb128 0x14
 2613 037f 48000000 		.4byte	.LASF63
 2614 0383 01       		.byte	0x1
 2615 0384 39       		.byte	0x39
 2616 0385 5B010000 		.4byte	0x15b
 2617 0389 00000000 		.4byte	.LLST0
 2618 038d 14       		.uleb128 0x14
 2619 038e 55030000 		.4byte	.LASF64
 2620 0392 01       		.byte	0x1
 2621 0393 39       		.byte	0x39
 2622 0394 C4000000 		.4byte	0xc4
 2623 0398 21000000 		.4byte	.LLST1
 2624 039c 15       		.uleb128 0x15
 2625 039d 2B000000 		.4byte	.LASF65
 2626 03a1 01       		.byte	0x1
 2627 03a2 3B       		.byte	0x3b
 2628 03a3 71010000 		.4byte	0x171
 2629 03a7 66000000 		.4byte	.LLST2
 2630 03ab 15       		.uleb128 0x15
 2631 03ac 5C070000 		.4byte	.LASF66
 2632 03b0 01       		.byte	0x1
 2633 03b1 3C       		.byte	0x3c
 2634 03b2 54030000 		.4byte	0x354
 2635 03b6 84000000 		.4byte	.LLST3
 2636 03ba 16       		.uleb128 0x16
 2637 03bb F5050000 		.4byte	.LASF67
 2638 03bf 45040000 		.4byte	0x445
 2639 03c3 05       		.uleb128 0x5
 2640 03c4 03       		.byte	0x3
 2641 03c5 14000000 		.4byte	__func__.6241
 2642 03c9 17       		.uleb128 0x17
 2643 03ca 0E000000 		.4byte	.LBB2
 2644 03ce 1A000000 		.4byte	.LBE2-.LBB2
 2645 03d2 23040000 		.4byte	0x423
 2646 03d6 18       		.uleb128 0x18
 2647 03d7 6C00     		.ascii	"l\000"
 2648 03d9 01       		.byte	0x1
 2649 03da 40       		.byte	0x40
 2650 03db 0F010000 		.4byte	0x10f
 2651 03df A2000000 		.4byte	.LLST4
 2652 03e3 19       		.uleb128 0x19
 2653 03e4 12000000 		.4byte	.LVL2
 2654 03e8 4A140000 		.4byte	0x144a
 2655 03ec 1A       		.uleb128 0x1a
 2656 03ed 28000000 		.4byte	.LVL5
 2657 03f1 02       		.uleb128 0x2
 2658 03f2 74       		.byte	0x74
 2659 03f3 00       		.sleb128 0
 2660 03f4 1B       		.uleb128 0x1b
 2661 03f5 01       		.uleb128 0x1
 2662 03f6 50       		.byte	0x50
 2663 03f7 01       		.uleb128 0x1
 2664 03f8 30       		.byte	0x30
 2665 03f9 1B       		.uleb128 0x1b
 2666 03fa 01       		.uleb128 0x1
ARM GAS  C:\Users\Phuong\AppData\Local\Temp\ccIIJJrV.s 			page 63


 2667 03fb 51       		.byte	0x51
 2668 03fc 05       		.uleb128 0x5
 2669 03fd 03       		.byte	0x3
 2670 03fe 00000000 		.4byte	.LC1
 2671 0402 1B       		.uleb128 0x1b
 2672 0403 01       		.uleb128 0x1
 2673 0404 52       		.byte	0x52
 2674 0405 05       		.uleb128 0x5
 2675 0406 03       		.byte	0x3
 2676 0407 14000000 		.4byte	.LANCHOR0
 2677 040b 1B       		.uleb128 0x1b
 2678 040c 01       		.uleb128 0x1
 2679 040d 53       		.byte	0x53
 2680 040e 02       		.uleb128 0x2
 2681 040f 08       		.byte	0x8
 2682 0410 40       		.byte	0x40
 2683 0411 1B       		.uleb128 0x1b
 2684 0412 02       		.uleb128 0x2
 2685 0413 7D       		.byte	0x7d
 2686 0414 00       		.sleb128 0
 2687 0415 01       		.uleb128 0x1
 2688 0416 31       		.byte	0x31
 2689 0417 1B       		.uleb128 0x1b
 2690 0418 02       		.uleb128 0x2
 2691 0419 7D       		.byte	0x7d
 2692 041a 04       		.sleb128 4
 2693 041b 05       		.uleb128 0x5
 2694 041c 03       		.byte	0x3
 2695 041d 30000000 		.4byte	.LC3
 2696 0421 00       		.byte	0
 2697 0422 00       		.byte	0
 2698 0423 1C       		.uleb128 0x1c
 2699 0424 0A000000 		.4byte	.LVL1
 2700 0428 55140000 		.4byte	0x1455
 2701 042c 1B       		.uleb128 0x1b
 2702 042d 01       		.uleb128 0x1
 2703 042e 50       		.byte	0x50
 2704 042f 03       		.uleb128 0x3
 2705 0430 F3       		.byte	0xf3
 2706 0431 01       		.uleb128 0x1
 2707 0432 50       		.byte	0x50
 2708 0433 00       		.byte	0
 2709 0434 00       		.byte	0
 2710 0435 08       		.uleb128 0x8
 2711 0436 AF000000 		.4byte	0xaf
 2712 043a 45040000 		.4byte	0x445
 2713 043e 09       		.uleb128 0x9
 2714 043f 93000000 		.4byte	0x93
 2715 0443 1F       		.byte	0x1f
 2716 0444 00       		.byte	0
 2717 0445 07       		.uleb128 0x7
 2718 0446 35040000 		.4byte	0x435
 2719 044a 1D       		.uleb128 0x1d
 2720 044b 19040000 		.4byte	.LASF70
 2721 044f 01       		.byte	0x1
 2722 0450 4B       		.byte	0x4b
 2723 0451 B3010000 		.4byte	0x1b3
ARM GAS  C:\Users\Phuong\AppData\Local\Temp\ccIIJJrV.s 			page 64


 2724 0455 00000000 		.4byte	.LFB2
 2725 0459 88000000 		.4byte	.LFE2-.LFB2
 2726 045d 01       		.uleb128 0x1
 2727 045e 9C       		.byte	0x9c
 2728 045f 71050000 		.4byte	0x571
 2729 0463 14       		.uleb128 0x14
 2730 0464 9A030000 		.4byte	.LASF42
 2731 0468 01       		.byte	0x1
 2732 0469 4B       		.byte	0x4b
 2733 046a 91020000 		.4byte	0x291
 2734 046e CB000000 		.4byte	.LLST5
 2735 0472 14       		.uleb128 0x14
 2736 0473 2A080000 		.4byte	.LASF60
 2737 0477 01       		.byte	0x1
 2738 0478 4B       		.byte	0x4b
 2739 0479 9A000000 		.4byte	0x9a
 2740 047d 26010000 		.4byte	.LLST6
 2741 0481 15       		.uleb128 0x15
 2742 0482 2B000000 		.4byte	.LASF65
 2743 0486 01       		.byte	0x1
 2744 0487 4D       		.byte	0x4d
 2745 0488 71050000 		.4byte	0x571
 2746 048c 68010000 		.4byte	.LLST7
 2747 0490 16       		.uleb128 0x16
 2748 0491 F5050000 		.4byte	.LASF67
 2749 0495 87050000 		.4byte	0x587
 2750 0499 05       		.uleb128 0x5
 2751 049a 03       		.byte	0x3
 2752 049b 34000000 		.4byte	__func__.6250
 2753 049f 17       		.uleb128 0x17
 2754 04a0 0C000000 		.4byte	.LBB3
 2755 04a4 1C000000 		.4byte	.LBE3-.LBB3
 2756 04a8 F9040000 		.4byte	0x4f9
 2757 04ac 18       		.uleb128 0x18
 2758 04ad 6C00     		.ascii	"l\000"
 2759 04af 01       		.byte	0x1
 2760 04b0 53       		.byte	0x53
 2761 04b1 0F010000 		.4byte	0x10f
 2762 04b5 B2010000 		.4byte	.LLST8
 2763 04b9 19       		.uleb128 0x19
 2764 04ba 10000000 		.4byte	.LVL12
 2765 04be 4A140000 		.4byte	0x144a
 2766 04c2 1A       		.uleb128 0x1a
 2767 04c3 28000000 		.4byte	.LVL15
 2768 04c7 02       		.uleb128 0x2
 2769 04c8 74       		.byte	0x74
 2770 04c9 00       		.sleb128 0
 2771 04ca 1B       		.uleb128 0x1b
 2772 04cb 01       		.uleb128 0x1
 2773 04cc 50       		.byte	0x50
 2774 04cd 01       		.uleb128 0x1
 2775 04ce 30       		.byte	0x30
 2776 04cf 1B       		.uleb128 0x1b
 2777 04d0 01       		.uleb128 0x1
 2778 04d1 51       		.byte	0x51
 2779 04d2 05       		.uleb128 0x5
 2780 04d3 03       		.byte	0x3
ARM GAS  C:\Users\Phuong\AppData\Local\Temp\ccIIJJrV.s 			page 65


 2781 04d4 00000000 		.4byte	.LC1
 2782 04d8 1B       		.uleb128 0x1b
 2783 04d9 01       		.uleb128 0x1
 2784 04da 52       		.byte	0x52
 2785 04db 05       		.uleb128 0x5
 2786 04dc 03       		.byte	0x3
 2787 04dd 34000000 		.4byte	.LANCHOR0+32
 2788 04e1 1B       		.uleb128 0x1b
 2789 04e2 01       		.uleb128 0x1
 2790 04e3 53       		.byte	0x53
 2791 04e4 02       		.uleb128 0x2
 2792 04e5 08       		.byte	0x8
 2793 04e6 53       		.byte	0x53
 2794 04e7 1B       		.uleb128 0x1b
 2795 04e8 02       		.uleb128 0x2
 2796 04e9 7D       		.byte	0x7d
 2797 04ea 00       		.sleb128 0
 2798 04eb 01       		.uleb128 0x1
 2799 04ec 31       		.byte	0x31
 2800 04ed 1B       		.uleb128 0x1b
 2801 04ee 02       		.uleb128 0x2
 2802 04ef 7D       		.byte	0x7d
 2803 04f0 04       		.sleb128 4
 2804 04f1 05       		.uleb128 0x5
 2805 04f2 03       		.byte	0x3
 2806 04f3 6C000000 		.4byte	.LC7
 2807 04f7 00       		.byte	0
 2808 04f8 00       		.byte	0
 2809 04f9 17       		.uleb128 0x17
 2810 04fa 36000000 		.4byte	.LBB4
 2811 04fe 1E000000 		.4byte	.LBE4-.LBB4
 2812 0502 53050000 		.4byte	0x553
 2813 0506 18       		.uleb128 0x18
 2814 0507 6C00     		.ascii	"l\000"
 2815 0509 01       		.byte	0x1
 2816 050a 5C       		.byte	0x5c
 2817 050b 0F010000 		.4byte	0x10f
 2818 050f DB010000 		.4byte	.LLST9
 2819 0513 19       		.uleb128 0x19
 2820 0514 3A000000 		.4byte	.LVL21
 2821 0518 4A140000 		.4byte	0x144a
 2822 051c 1A       		.uleb128 0x1a
 2823 051d 52000000 		.4byte	.LVL24
 2824 0521 02       		.uleb128 0x2
 2825 0522 75       		.byte	0x75
 2826 0523 00       		.sleb128 0
 2827 0524 1B       		.uleb128 0x1b
 2828 0525 01       		.uleb128 0x1
 2829 0526 50       		.byte	0x50
 2830 0527 01       		.uleb128 0x1
 2831 0528 30       		.byte	0x30
 2832 0529 1B       		.uleb128 0x1b
 2833 052a 01       		.uleb128 0x1
 2834 052b 51       		.byte	0x51
 2835 052c 05       		.uleb128 0x5
 2836 052d 03       		.byte	0x3
 2837 052e 00000000 		.4byte	.LC1
ARM GAS  C:\Users\Phuong\AppData\Local\Temp\ccIIJJrV.s 			page 66


 2838 0532 1B       		.uleb128 0x1b
 2839 0533 01       		.uleb128 0x1
 2840 0534 52       		.byte	0x52
 2841 0535 05       		.uleb128 0x5
 2842 0536 03       		.byte	0x3
 2843 0537 34000000 		.4byte	.LANCHOR0+32
 2844 053b 1B       		.uleb128 0x1b
 2845 053c 01       		.uleb128 0x1
 2846 053d 53       		.byte	0x53
 2847 053e 02       		.uleb128 0x2
 2848 053f 08       		.byte	0x8
 2849 0540 5C       		.byte	0x5c
 2850 0541 1B       		.uleb128 0x1b
 2851 0542 02       		.uleb128 0x2
 2852 0543 7D       		.byte	0x7d
 2853 0544 00       		.sleb128 0
 2854 0545 01       		.uleb128 0x1
 2855 0546 31       		.byte	0x31
 2856 0547 1B       		.uleb128 0x1b
 2857 0548 02       		.uleb128 0x2
 2858 0549 7D       		.byte	0x7d
 2859 054a 04       		.sleb128 4
 2860 054b 05       		.uleb128 0x5
 2861 054c 03       		.byte	0x3
 2862 054d 88000000 		.4byte	.LC9
 2863 0551 00       		.byte	0
 2864 0552 00       		.byte	0
 2865 0553 1E       		.uleb128 0x1e
 2866 0554 32000000 		.4byte	.LVL19
 2867 0558 60140000 		.4byte	0x1460
 2868 055c 67050000 		.4byte	0x567
 2869 0560 1B       		.uleb128 0x1b
 2870 0561 01       		.uleb128 0x1
 2871 0562 50       		.byte	0x50
 2872 0563 02       		.uleb128 0x2
 2873 0564 08       		.byte	0x8
 2874 0565 2C       		.byte	0x2c
 2875 0566 00       		.byte	0
 2876 0567 19       		.uleb128 0x19
 2877 0568 66000000 		.4byte	.LVL26
 2878 056c 6B140000 		.4byte	0x146b
 2879 0570 00       		.byte	0
 2880 0571 06       		.uleb128 0x6
 2881 0572 04       		.byte	0x4
 2882 0573 5A030000 		.4byte	0x35a
 2883 0577 08       		.uleb128 0x8
 2884 0578 AF000000 		.4byte	0xaf
 2885 057c 87050000 		.4byte	0x587
 2886 0580 09       		.uleb128 0x9
 2887 0581 93000000 		.4byte	0x93
 2888 0585 12       		.byte	0x12
 2889 0586 00       		.byte	0
 2890 0587 07       		.uleb128 0x7
 2891 0588 77050000 		.4byte	0x577
 2892 058c 1F       		.uleb128 0x1f
 2893 058d 66000000 		.4byte	.LASF107
 2894 0591 01       		.byte	0x1
ARM GAS  C:\Users\Phuong\AppData\Local\Temp\ccIIJJrV.s 			page 67


 2895 0592 71       		.byte	0x71
 2896 0593 00000000 		.4byte	.LFB3
 2897 0597 4C000000 		.4byte	.LFE3-.LFB3
 2898 059b 01       		.uleb128 0x1
 2899 059c 9C       		.byte	0x9c
 2900 059d 55060000 		.4byte	0x655
 2901 05a1 14       		.uleb128 0x14
 2902 05a2 D0030000 		.4byte	.LASF68
 2903 05a6 01       		.byte	0x1
 2904 05a7 71       		.byte	0x71
 2905 05a8 B3010000 		.4byte	0x1b3
 2906 05ac F9010000 		.4byte	.LLST10
 2907 05b0 16       		.uleb128 0x16
 2908 05b1 F5050000 		.4byte	.LASF67
 2909 05b5 65060000 		.4byte	0x665
 2910 05b9 05       		.uleb128 0x5
 2911 05ba 03       		.byte	0x3
 2912 05bb 48000000 		.4byte	__func__.6260
 2913 05bf 17       		.uleb128 0x17
 2914 05c0 08000000 		.4byte	.LBB5
 2915 05c4 1E000000 		.4byte	.LBE5-.LBB5
 2916 05c8 19060000 		.4byte	0x619
 2917 05cc 18       		.uleb128 0x18
 2918 05cd 6C00     		.ascii	"l\000"
 2919 05cf 01       		.byte	0x1
 2920 05d0 76       		.byte	0x76
 2921 05d1 0F010000 		.4byte	0x10f
 2922 05d5 49020000 		.4byte	.LLST11
 2923 05d9 19       		.uleb128 0x19
 2924 05da 0C000000 		.4byte	.LVL32
 2925 05de 4A140000 		.4byte	0x144a
 2926 05e2 1A       		.uleb128 0x1a
 2927 05e3 24000000 		.4byte	.LVL35
 2928 05e7 02       		.uleb128 0x2
 2929 05e8 74       		.byte	0x74
 2930 05e9 00       		.sleb128 0
 2931 05ea 1B       		.uleb128 0x1b
 2932 05eb 01       		.uleb128 0x1
 2933 05ec 50       		.byte	0x50
 2934 05ed 01       		.uleb128 0x1
 2935 05ee 30       		.byte	0x30
 2936 05ef 1B       		.uleb128 0x1b
 2937 05f0 01       		.uleb128 0x1
 2938 05f1 51       		.byte	0x51
 2939 05f2 05       		.uleb128 0x5
 2940 05f3 03       		.byte	0x3
 2941 05f4 00000000 		.4byte	.LC1
 2942 05f8 1B       		.uleb128 0x1b
 2943 05f9 01       		.uleb128 0x1
 2944 05fa 52       		.byte	0x52
 2945 05fb 05       		.uleb128 0x5
 2946 05fc 03       		.byte	0x3
 2947 05fd 48000000 		.4byte	.LANCHOR0+52
 2948 0601 1B       		.uleb128 0x1b
 2949 0602 01       		.uleb128 0x1
 2950 0603 53       		.byte	0x53
 2951 0604 02       		.uleb128 0x2
ARM GAS  C:\Users\Phuong\AppData\Local\Temp\ccIIJJrV.s 			page 68


 2952 0605 08       		.byte	0x8
 2953 0606 76       		.byte	0x76
 2954 0607 1B       		.uleb128 0x1b
 2955 0608 02       		.uleb128 0x2
 2956 0609 7D       		.byte	0x7d
 2957 060a 00       		.sleb128 0
 2958 060b 01       		.uleb128 0x1
 2959 060c 31       		.byte	0x31
 2960 060d 1B       		.uleb128 0x1b
 2961 060e 02       		.uleb128 0x2
 2962 060f 7D       		.byte	0x7d
 2963 0610 04       		.sleb128 4
 2964 0611 05       		.uleb128 0x5
 2965 0612 03       		.byte	0x3
 2966 0613 A8000000 		.4byte	.LC13
 2967 0617 00       		.byte	0
 2968 0618 00       		.byte	0
 2969 0619 20       		.uleb128 0x20
 2970 061a 26000000 		.4byte	.LBB6
 2971 061e 16000000 		.4byte	.LBE6-.LBB6
 2972 0622 15       		.uleb128 0x15
 2973 0623 83060000 		.4byte	.LASF69
 2974 0627 01       		.byte	0x1
 2975 0628 7A       		.byte	0x7a
 2976 0629 71050000 		.4byte	0x571
 2977 062d 67020000 		.4byte	.LLST12
 2978 0631 19       		.uleb128 0x19
 2979 0632 2C000000 		.4byte	.LVL38
 2980 0636 76140000 		.4byte	0x1476
 2981 063a 19       		.uleb128 0x19
 2982 063b 36000000 		.4byte	.LVL39
 2983 063f 81140000 		.4byte	0x1481
 2984 0643 1C       		.uleb128 0x1c
 2985 0644 3C000000 		.4byte	.LVL40
 2986 0648 81140000 		.4byte	0x1481
 2987 064c 1B       		.uleb128 0x1b
 2988 064d 01       		.uleb128 0x1
 2989 064e 50       		.byte	0x50
 2990 064f 02       		.uleb128 0x2
 2991 0650 74       		.byte	0x74
 2992 0651 00       		.sleb128 0
 2993 0652 00       		.byte	0
 2994 0653 00       		.byte	0
 2995 0654 00       		.byte	0
 2996 0655 08       		.uleb128 0x8
 2997 0656 AF000000 		.4byte	0xaf
 2998 065a 65060000 		.4byte	0x665
 2999 065e 09       		.uleb128 0x9
 3000 065f 93000000 		.4byte	0x93
 3001 0663 13       		.byte	0x13
 3002 0664 00       		.byte	0
 3003 0665 07       		.uleb128 0x7
 3004 0666 55060000 		.4byte	0x655
 3005 066a 1D       		.uleb128 0x1d
 3006 066b 75070000 		.4byte	.LASF71
 3007 066f 01       		.byte	0x1
 3008 0670 87       		.byte	0x87
ARM GAS  C:\Users\Phuong\AppData\Local\Temp\ccIIJJrV.s 			page 69


 3009 0671 37000000 		.4byte	0x37
 3010 0675 00000000 		.4byte	.LFB4
 3011 0679 88000000 		.4byte	.LFE4-.LFB4
 3012 067d 01       		.uleb128 0x1
 3013 067e 9C       		.byte	0x9c
 3014 067f 8D070000 		.4byte	0x78d
 3015 0683 14       		.uleb128 0x14
 3016 0684 D0030000 		.4byte	.LASF68
 3017 0688 01       		.byte	0x1
 3018 0689 87       		.byte	0x87
 3019 068a B3010000 		.4byte	0x1b3
 3020 068e 85020000 		.4byte	.LLST13
 3021 0692 14       		.uleb128 0x14
 3022 0693 DA020000 		.4byte	.LASF44
 3023 0697 01       		.byte	0x1
 3024 0698 87       		.byte	0x87
 3025 0699 D6000000 		.4byte	0xd6
 3026 069d EB020000 		.4byte	.LLST14
 3027 06a1 15       		.uleb128 0x15
 3028 06a2 2B000000 		.4byte	.LASF65
 3029 06a6 01       		.byte	0x1
 3030 06a7 89       		.byte	0x89
 3031 06a8 37000000 		.4byte	0x37
 3032 06ac 43030000 		.4byte	.LLST15
 3033 06b0 15       		.uleb128 0x15
 3034 06b1 83060000 		.4byte	.LASF69
 3035 06b5 01       		.byte	0x1
 3036 06b6 8A       		.byte	0x8a
 3037 06b7 71050000 		.4byte	0x571
 3038 06bb 62030000 		.4byte	.LLST16
 3039 06bf 16       		.uleb128 0x16
 3040 06c0 F5050000 		.4byte	.LASF67
 3041 06c4 9D070000 		.4byte	0x79d
 3042 06c8 05       		.uleb128 0x5
 3043 06c9 03       		.byte	0x3
 3044 06ca 5C000000 		.4byte	__func__.6271
 3045 06ce 17       		.uleb128 0x17
 3046 06cf 1C000000 		.4byte	.LBB7
 3047 06d3 20000000 		.4byte	.LBE7-.LBB7
 3048 06d7 36070000 		.4byte	0x736
 3049 06db 18       		.uleb128 0x18
 3050 06dc 6C00     		.ascii	"l\000"
 3051 06de 01       		.byte	0x1
 3052 06df 93       		.byte	0x93
 3053 06e0 0F010000 		.4byte	0x10f
 3054 06e4 C8030000 		.4byte	.LLST17
 3055 06e8 19       		.uleb128 0x19
 3056 06e9 20000000 		.4byte	.LVL43
 3057 06ed 4A140000 		.4byte	0x144a
 3058 06f1 1A       		.uleb128 0x1a
 3059 06f2 3C000000 		.4byte	.LVL46
 3060 06f6 02       		.uleb128 0x2
 3061 06f7 76       		.byte	0x76
 3062 06f8 00       		.sleb128 0
 3063 06f9 1B       		.uleb128 0x1b
 3064 06fa 01       		.uleb128 0x1
 3065 06fb 50       		.byte	0x50
ARM GAS  C:\Users\Phuong\AppData\Local\Temp\ccIIJJrV.s 			page 70


 3066 06fc 01       		.uleb128 0x1
 3067 06fd 30       		.byte	0x30
 3068 06fe 1B       		.uleb128 0x1b
 3069 06ff 01       		.uleb128 0x1
 3070 0700 51       		.byte	0x51
 3071 0701 05       		.uleb128 0x5
 3072 0702 03       		.byte	0x3
 3073 0703 00000000 		.4byte	.LC1
 3074 0707 1B       		.uleb128 0x1b
 3075 0708 01       		.uleb128 0x1
 3076 0709 52       		.byte	0x52
 3077 070a 05       		.uleb128 0x5
 3078 070b 03       		.byte	0x3
 3079 070c 5C000000 		.4byte	.LANCHOR0+72
 3080 0710 1B       		.uleb128 0x1b
 3081 0711 01       		.uleb128 0x1
 3082 0712 53       		.byte	0x53
 3083 0713 02       		.uleb128 0x2
 3084 0714 08       		.byte	0x8
 3085 0715 95       		.byte	0x95
 3086 0716 1B       		.uleb128 0x1b
 3087 0717 02       		.uleb128 0x2
 3088 0718 7D       		.byte	0x7d
 3089 0719 00       		.sleb128 0
 3090 071a 01       		.uleb128 0x1
 3091 071b 31       		.byte	0x31
 3092 071c 1B       		.uleb128 0x1b
 3093 071d 02       		.uleb128 0x2
 3094 071e 7D       		.byte	0x7d
 3095 071f 04       		.sleb128 4
 3096 0720 05       		.uleb128 0x5
 3097 0721 03       		.byte	0x3
 3098 0722 BC000000 		.4byte	.LC17
 3099 0726 1B       		.uleb128 0x1b
 3100 0727 02       		.uleb128 0x2
 3101 0728 7D       		.byte	0x7d
 3102 0729 08       		.sleb128 8
 3103 072a 02       		.uleb128 0x2
 3104 072b 74       		.byte	0x74
 3105 072c 00       		.sleb128 0
 3106 072d 1B       		.uleb128 0x1b
 3107 072e 02       		.uleb128 0x2
 3108 072f 7D       		.byte	0x7d
 3109 0730 0C       		.sleb128 12
 3110 0731 02       		.uleb128 0x2
 3111 0732 75       		.byte	0x75
 3112 0733 00       		.sleb128 0
 3113 0734 00       		.byte	0
 3114 0735 00       		.byte	0
 3115 0736 20       		.uleb128 0x20
 3116 0737 46000000 		.4byte	.LBB8
 3117 073b 1C000000 		.4byte	.LBE8-.LBB8
 3118 073f 18       		.uleb128 0x18
 3119 0740 6C00     		.ascii	"l\000"
 3120 0742 01       		.byte	0x1
 3121 0743 9B       		.byte	0x9b
 3122 0744 0F010000 		.4byte	0x10f
ARM GAS  C:\Users\Phuong\AppData\Local\Temp\ccIIJJrV.s 			page 71


 3123 0748 FC030000 		.4byte	.LLST18
 3124 074c 19       		.uleb128 0x19
 3125 074d 4A000000 		.4byte	.LVL48
 3126 0751 4A140000 		.4byte	0x144a
 3127 0755 1A       		.uleb128 0x1a
 3128 0756 62000000 		.4byte	.LVL51
 3129 075a 02       		.uleb128 0x2
 3130 075b 74       		.byte	0x74
 3131 075c 00       		.sleb128 0
 3132 075d 1B       		.uleb128 0x1b
 3133 075e 01       		.uleb128 0x1
 3134 075f 50       		.byte	0x50
 3135 0760 01       		.uleb128 0x1
 3136 0761 30       		.byte	0x30
 3137 0762 1B       		.uleb128 0x1b
 3138 0763 01       		.uleb128 0x1
 3139 0764 51       		.byte	0x51
 3140 0765 05       		.uleb128 0x5
 3141 0766 03       		.byte	0x3
 3142 0767 00000000 		.4byte	.LC1
 3143 076b 1B       		.uleb128 0x1b
 3144 076c 01       		.uleb128 0x1
 3145 076d 52       		.byte	0x52
 3146 076e 05       		.uleb128 0x5
 3147 076f 03       		.byte	0x3
 3148 0770 5C000000 		.4byte	.LANCHOR0+72
 3149 0774 1B       		.uleb128 0x1b
 3150 0775 01       		.uleb128 0x1
 3151 0776 53       		.byte	0x53
 3152 0777 02       		.uleb128 0x2
 3153 0778 08       		.byte	0x8
 3154 0779 9B       		.byte	0x9b
 3155 077a 1B       		.uleb128 0x1b
 3156 077b 02       		.uleb128 0x2
 3157 077c 7D       		.byte	0x7d
 3158 077d 00       		.sleb128 0
 3159 077e 01       		.uleb128 0x1
 3160 077f 31       		.byte	0x31
 3161 0780 1B       		.uleb128 0x1b
 3162 0781 02       		.uleb128 0x2
 3163 0782 7D       		.byte	0x7d
 3164 0783 04       		.sleb128 4
 3165 0784 05       		.uleb128 0x5
 3166 0785 03       		.byte	0x3
 3167 0786 F4000000 		.4byte	.LC19
 3168 078a 00       		.byte	0
 3169 078b 00       		.byte	0
 3170 078c 00       		.byte	0
 3171 078d 08       		.uleb128 0x8
 3172 078e AF000000 		.4byte	0xaf
 3173 0792 9D070000 		.4byte	0x79d
 3174 0796 09       		.uleb128 0x9
 3175 0797 93000000 		.4byte	0x93
 3176 079b 1E       		.byte	0x1e
 3177 079c 00       		.byte	0
 3178 079d 07       		.uleb128 0x7
 3179 079e 8D070000 		.4byte	0x78d
ARM GAS  C:\Users\Phuong\AppData\Local\Temp\ccIIJJrV.s 			page 72


 3180 07a2 21       		.uleb128 0x21
 3181 07a3 45040000 		.4byte	.LASF72
 3182 07a7 01       		.byte	0x1
 3183 07a8 B2       		.byte	0xb2
 3184 07a9 37000000 		.4byte	0x37
 3185 07ad 00000000 		.4byte	.LFB5
 3186 07b1 DC020000 		.4byte	.LFE5-.LFB5
 3187 07b5 01       		.uleb128 0x1
 3188 07b6 9C       		.byte	0x9c
 3189 07b7 EE0A0000 		.4byte	0xaee
 3190 07bb 14       		.uleb128 0x14
 3191 07bc D0030000 		.4byte	.LASF68
 3192 07c0 01       		.byte	0x1
 3193 07c1 B2       		.byte	0xb2
 3194 07c2 B3010000 		.4byte	0x1b3
 3195 07c6 25040000 		.4byte	.LLST19
 3196 07ca 14       		.uleb128 0x14
 3197 07cb C9060000 		.4byte	.LASF73
 3198 07cf 01       		.byte	0x1
 3199 07d0 B2       		.byte	0xb2
 3200 07d1 78010000 		.4byte	0x178
 3201 07d5 67040000 		.4byte	.LLST20
 3202 07d9 14       		.uleb128 0x14
 3203 07da 57070000 		.4byte	.LASF74
 3204 07de 01       		.byte	0x1
 3205 07df B2       		.byte	0xb2
 3206 07e0 25000000 		.4byte	0x25
 3207 07e4 9B040000 		.4byte	.LLST21
 3208 07e8 15       		.uleb128 0x15
 3209 07e9 2B000000 		.4byte	.LASF65
 3210 07ed 01       		.byte	0x1
 3211 07ee B4       		.byte	0xb4
 3212 07ef 37000000 		.4byte	0x37
 3213 07f3 E5040000 		.4byte	.LLST22
 3214 07f7 15       		.uleb128 0x15
 3215 07f8 83060000 		.4byte	.LASF69
 3216 07fc 01       		.byte	0x1
 3217 07fd B5       		.byte	0xb5
 3218 07fe 71050000 		.4byte	0x571
 3219 0802 B3050000 		.4byte	.LLST23
 3220 0806 16       		.uleb128 0x16
 3221 0807 F5050000 		.4byte	.LASF67
 3222 080b FE0A0000 		.4byte	0xafe
 3223 080f 05       		.uleb128 0x5
 3224 0810 03       		.byte	0x3
 3225 0811 7C000000 		.4byte	__func__.6285
 3226 0815 17       		.uleb128 0x17
 3227 0816 1C000000 		.4byte	.LBB9
 3228 081a 24000000 		.4byte	.LBE9-.LBB9
 3229 081e 84080000 		.4byte	0x884
 3230 0822 18       		.uleb128 0x18
 3231 0823 6C00     		.ascii	"l\000"
 3232 0825 01       		.byte	0x1
 3233 0826 BD       		.byte	0xbd
 3234 0827 0F010000 		.4byte	0x10f
 3235 082b F5050000 		.4byte	.LLST24
 3236 082f 19       		.uleb128 0x19
ARM GAS  C:\Users\Phuong\AppData\Local\Temp\ccIIJJrV.s 			page 73


 3237 0830 20000000 		.4byte	.LVL62
 3238 0834 4A140000 		.4byte	0x144a
 3239 0838 1A       		.uleb128 0x1a
 3240 0839 40000000 		.4byte	.LVL65
 3241 083d 02       		.uleb128 0x2
 3242 083e 77       		.byte	0x77
 3243 083f 00       		.sleb128 0
 3244 0840 1B       		.uleb128 0x1b
 3245 0841 01       		.uleb128 0x1
 3246 0842 50       		.byte	0x50
 3247 0843 01       		.uleb128 0x1
 3248 0844 30       		.byte	0x30
 3249 0845 1B       		.uleb128 0x1b
 3250 0846 01       		.uleb128 0x1
 3251 0847 51       		.byte	0x51
 3252 0848 05       		.uleb128 0x5
 3253 0849 03       		.byte	0x3
 3254 084a 00000000 		.4byte	.LC1
 3255 084e 1B       		.uleb128 0x1b
 3256 084f 01       		.uleb128 0x1
 3257 0850 52       		.byte	0x52
 3258 0851 05       		.uleb128 0x5
 3259 0852 03       		.byte	0x3
 3260 0853 7C000000 		.4byte	.LANCHOR0+104
 3261 0857 1B       		.uleb128 0x1b
 3262 0858 01       		.uleb128 0x1
 3263 0859 53       		.byte	0x53
 3264 085a 02       		.uleb128 0x2
 3265 085b 08       		.byte	0x8
 3266 085c C0       		.byte	0xc0
 3267 085d 1B       		.uleb128 0x1b
 3268 085e 02       		.uleb128 0x2
 3269 085f 7D       		.byte	0x7d
 3270 0860 00       		.sleb128 0
 3271 0861 01       		.uleb128 0x1
 3272 0862 31       		.byte	0x31
 3273 0863 1B       		.uleb128 0x1b
 3274 0864 02       		.uleb128 0x2
 3275 0865 7D       		.byte	0x7d
 3276 0866 04       		.sleb128 4
 3277 0867 05       		.uleb128 0x5
 3278 0868 03       		.byte	0x3
 3279 0869 10010000 		.4byte	.LC23
 3280 086d 1B       		.uleb128 0x1b
 3281 086e 02       		.uleb128 0x2
 3282 086f 7D       		.byte	0x7d
 3283 0870 08       		.sleb128 8
 3284 0871 02       		.uleb128 0x2
 3285 0872 74       		.byte	0x74
 3286 0873 00       		.sleb128 0
 3287 0874 1B       		.uleb128 0x1b
 3288 0875 02       		.uleb128 0x2
 3289 0876 7D       		.byte	0x7d
 3290 0877 0C       		.sleb128 12
 3291 0878 02       		.uleb128 0x2
 3292 0879 76       		.byte	0x76
 3293 087a 00       		.sleb128 0
ARM GAS  C:\Users\Phuong\AppData\Local\Temp\ccIIJJrV.s 			page 74


 3294 087b 1B       		.uleb128 0x1b
 3295 087c 02       		.uleb128 0x2
 3296 087d 7D       		.byte	0x7d
 3297 087e 10       		.sleb128 16
 3298 087f 02       		.uleb128 0x2
 3299 0880 75       		.byte	0x75
 3300 0881 00       		.sleb128 0
 3301 0882 00       		.byte	0
 3302 0883 00       		.byte	0
 3303 0884 17       		.uleb128 0x17
 3304 0885 52000000 		.4byte	.LBB10
 3305 0889 1E000000 		.4byte	.LBE10-.LBB10
 3306 088d DE080000 		.4byte	0x8de
 3307 0891 18       		.uleb128 0x18
 3308 0892 6C00     		.ascii	"l\000"
 3309 0894 01       		.byte	0x1
 3310 0895 CC       		.byte	0xcc
 3311 0896 0F010000 		.4byte	0x10f
 3312 089a 1E060000 		.4byte	.LLST25
 3313 089e 19       		.uleb128 0x19
 3314 089f 56000000 		.4byte	.LVL67
 3315 08a3 4A140000 		.4byte	0x144a
 3316 08a7 1A       		.uleb128 0x1a
 3317 08a8 70000000 		.4byte	.LVL70
 3318 08ac 02       		.uleb128 0x2
 3319 08ad 75       		.byte	0x75
 3320 08ae 00       		.sleb128 0
 3321 08af 1B       		.uleb128 0x1b
 3322 08b0 01       		.uleb128 0x1
 3323 08b1 50       		.byte	0x50
 3324 08b2 01       		.uleb128 0x1
 3325 08b3 30       		.byte	0x30
 3326 08b4 1B       		.uleb128 0x1b
 3327 08b5 01       		.uleb128 0x1
 3328 08b6 51       		.byte	0x51
 3329 08b7 05       		.uleb128 0x5
 3330 08b8 03       		.byte	0x3
 3331 08b9 00000000 		.4byte	.LC1
 3332 08bd 1B       		.uleb128 0x1b
 3333 08be 01       		.uleb128 0x1
 3334 08bf 52       		.byte	0x52
 3335 08c0 05       		.uleb128 0x5
 3336 08c1 03       		.byte	0x3
 3337 08c2 7C000000 		.4byte	.LANCHOR0+104
 3338 08c6 1B       		.uleb128 0x1b
 3339 08c7 01       		.uleb128 0x1
 3340 08c8 53       		.byte	0x53
 3341 08c9 02       		.uleb128 0x2
 3342 08ca 08       		.byte	0x8
 3343 08cb CC       		.byte	0xcc
 3344 08cc 1B       		.uleb128 0x1b
 3345 08cd 02       		.uleb128 0x2
 3346 08ce 7D       		.byte	0x7d
 3347 08cf 00       		.sleb128 0
 3348 08d0 01       		.uleb128 0x1
 3349 08d1 31       		.byte	0x31
 3350 08d2 1B       		.uleb128 0x1b
ARM GAS  C:\Users\Phuong\AppData\Local\Temp\ccIIJJrV.s 			page 75


 3351 08d3 02       		.uleb128 0x2
 3352 08d4 7D       		.byte	0x7d
 3353 08d5 04       		.sleb128 4
 3354 08d6 05       		.uleb128 0x5
 3355 08d7 03       		.byte	0x3
 3356 08d8 48010000 		.4byte	.LC26
 3357 08dc 00       		.byte	0
 3358 08dd 00       		.byte	0
 3359 08de 17       		.uleb128 0x17
 3360 08df B0000000 		.4byte	.LBB11
 3361 08e3 1E000000 		.4byte	.LBE11-.LBB11
 3362 08e7 38090000 		.4byte	0x938
 3363 08eb 18       		.uleb128 0x18
 3364 08ec 6C00     		.ascii	"l\000"
 3365 08ee 01       		.byte	0x1
 3366 08ef E4       		.byte	0xe4
 3367 08f0 0F010000 		.4byte	0x10f
 3368 08f4 52060000 		.4byte	.LLST26
 3369 08f8 19       		.uleb128 0x19
 3370 08f9 B4000000 		.4byte	.LVL77
 3371 08fd 4A140000 		.4byte	0x144a
 3372 0901 1A       		.uleb128 0x1a
 3373 0902 CE000000 		.4byte	.LVL80
 3374 0906 02       		.uleb128 0x2
 3375 0907 77       		.byte	0x77
 3376 0908 00       		.sleb128 0
 3377 0909 1B       		.uleb128 0x1b
 3378 090a 01       		.uleb128 0x1
 3379 090b 50       		.byte	0x50
 3380 090c 01       		.uleb128 0x1
 3381 090d 30       		.byte	0x30
 3382 090e 1B       		.uleb128 0x1b
 3383 090f 01       		.uleb128 0x1
 3384 0910 51       		.byte	0x51
 3385 0911 05       		.uleb128 0x5
 3386 0912 03       		.byte	0x3
 3387 0913 00000000 		.4byte	.LC1
 3388 0917 1B       		.uleb128 0x1b
 3389 0918 01       		.uleb128 0x1
 3390 0919 52       		.byte	0x52
 3391 091a 05       		.uleb128 0x5
 3392 091b 03       		.byte	0x3
 3393 091c 7C000000 		.4byte	.LANCHOR0+104
 3394 0920 1B       		.uleb128 0x1b
 3395 0921 01       		.uleb128 0x1
 3396 0922 53       		.byte	0x53
 3397 0923 02       		.uleb128 0x2
 3398 0924 08       		.byte	0x8
 3399 0925 E4       		.byte	0xe4
 3400 0926 1B       		.uleb128 0x1b
 3401 0927 02       		.uleb128 0x2
 3402 0928 7D       		.byte	0x7d
 3403 0929 00       		.sleb128 0
 3404 092a 01       		.uleb128 0x1
 3405 092b 31       		.byte	0x31
 3406 092c 1B       		.uleb128 0x1b
 3407 092d 02       		.uleb128 0x2
ARM GAS  C:\Users\Phuong\AppData\Local\Temp\ccIIJJrV.s 			page 76


 3408 092e 7D       		.byte	0x7d
 3409 092f 04       		.sleb128 4
 3410 0930 05       		.uleb128 0x5
 3411 0931 03       		.byte	0x3
 3412 0932 68010000 		.4byte	.LC28
 3413 0936 00       		.byte	0
 3414 0937 00       		.byte	0
 3415 0938 17       		.uleb128 0x17
 3416 0939 F0000000 		.4byte	.LBB12
 3417 093d 20000000 		.4byte	.LBE12-.LBB12
 3418 0941 94090000 		.4byte	0x994
 3419 0945 22       		.uleb128 0x22
 3420 0946 6C00     		.ascii	"l\000"
 3421 0948 01       		.byte	0x1
 3422 0949 0501     		.2byte	0x105
 3423 094b 0F010000 		.4byte	0x10f
 3424 094f 86060000 		.4byte	.LLST27
 3425 0953 19       		.uleb128 0x19
 3426 0954 F4000000 		.4byte	.LVL88
 3427 0958 4A140000 		.4byte	0x144a
 3428 095c 1A       		.uleb128 0x1a
 3429 095d 10010000 		.4byte	.LVL91
 3430 0961 02       		.uleb128 0x2
 3431 0962 77       		.byte	0x77
 3432 0963 00       		.sleb128 0
 3433 0964 1B       		.uleb128 0x1b
 3434 0965 01       		.uleb128 0x1
 3435 0966 50       		.byte	0x50
 3436 0967 01       		.uleb128 0x1
 3437 0968 30       		.byte	0x30
 3438 0969 1B       		.uleb128 0x1b
 3439 096a 01       		.uleb128 0x1
 3440 096b 51       		.byte	0x51
 3441 096c 05       		.uleb128 0x5
 3442 096d 03       		.byte	0x3
 3443 096e 00000000 		.4byte	.LC1
 3444 0972 1B       		.uleb128 0x1b
 3445 0973 01       		.uleb128 0x1
 3446 0974 52       		.byte	0x52
 3447 0975 05       		.uleb128 0x5
 3448 0976 03       		.byte	0x3
 3449 0977 7C000000 		.4byte	.LANCHOR0+104
 3450 097b 1B       		.uleb128 0x1b
 3451 097c 01       		.uleb128 0x1
 3452 097d 53       		.byte	0x53
 3453 097e 03       		.uleb128 0x3
 3454 097f 0A       		.byte	0xa
 3455 0980 0501     		.2byte	0x105
 3456 0982 1B       		.uleb128 0x1b
 3457 0983 02       		.uleb128 0x2
 3458 0984 7D       		.byte	0x7d
 3459 0985 00       		.sleb128 0
 3460 0986 01       		.uleb128 0x1
 3461 0987 31       		.byte	0x31
 3462 0988 1B       		.uleb128 0x1b
 3463 0989 02       		.uleb128 0x2
 3464 098a 7D       		.byte	0x7d
ARM GAS  C:\Users\Phuong\AppData\Local\Temp\ccIIJJrV.s 			page 77


 3465 098b 04       		.sleb128 4
 3466 098c 05       		.uleb128 0x5
 3467 098d 03       		.byte	0x3
 3468 098e 88010000 		.4byte	.LC30
 3469 0992 00       		.byte	0
 3470 0993 00       		.byte	0
 3471 0994 23       		.uleb128 0x23
 3472 0995 00000000 		.4byte	.Ldebug_ranges0+0
 3473 0999 390A0000 		.4byte	0xa39
 3474 099d 24       		.uleb128 0x24
 3475 099e 9A060000 		.4byte	.LASF75
 3476 09a2 01       		.byte	0x1
 3477 09a3 1201     		.2byte	0x112
 3478 09a5 5B010000 		.4byte	0x15b
 3479 09a9 BA060000 		.4byte	.LLST28
 3480 09ad 17       		.uleb128 0x17
 3481 09ae 74010000 		.4byte	.LBB14
 3482 09b2 20000000 		.4byte	.LBE14-.LBB14
 3483 09b6 090A0000 		.4byte	0xa09
 3484 09ba 22       		.uleb128 0x22
 3485 09bb 6C00     		.ascii	"l\000"
 3486 09bd 01       		.byte	0x1
 3487 09be 3C01     		.2byte	0x13c
 3488 09c0 0F010000 		.4byte	0x10f
 3489 09c4 CD060000 		.4byte	.LLST29
 3490 09c8 19       		.uleb128 0x19
 3491 09c9 78010000 		.4byte	.LVL106
 3492 09cd 4A140000 		.4byte	0x144a
 3493 09d1 1A       		.uleb128 0x1a
 3494 09d2 94010000 		.4byte	.LVL109
 3495 09d6 02       		.uleb128 0x2
 3496 09d7 77       		.byte	0x77
 3497 09d8 00       		.sleb128 0
 3498 09d9 1B       		.uleb128 0x1b
 3499 09da 01       		.uleb128 0x1
 3500 09db 50       		.byte	0x50
 3501 09dc 01       		.uleb128 0x1
 3502 09dd 30       		.byte	0x30
 3503 09de 1B       		.uleb128 0x1b
 3504 09df 01       		.uleb128 0x1
 3505 09e0 51       		.byte	0x51
 3506 09e1 05       		.uleb128 0x5
 3507 09e2 03       		.byte	0x3
 3508 09e3 00000000 		.4byte	.LC1
 3509 09e7 1B       		.uleb128 0x1b
 3510 09e8 01       		.uleb128 0x1
 3511 09e9 52       		.byte	0x52
 3512 09ea 05       		.uleb128 0x5
 3513 09eb 03       		.byte	0x3
 3514 09ec 7C000000 		.4byte	.LANCHOR0+104
 3515 09f0 1B       		.uleb128 0x1b
 3516 09f1 01       		.uleb128 0x1
 3517 09f2 53       		.byte	0x53
 3518 09f3 03       		.uleb128 0x3
 3519 09f4 0A       		.byte	0xa
 3520 09f5 3C01     		.2byte	0x13c
 3521 09f7 1B       		.uleb128 0x1b
ARM GAS  C:\Users\Phuong\AppData\Local\Temp\ccIIJJrV.s 			page 78


 3522 09f8 02       		.uleb128 0x2
 3523 09f9 7D       		.byte	0x7d
 3524 09fa 00       		.sleb128 0
 3525 09fb 01       		.uleb128 0x1
 3526 09fc 31       		.byte	0x31
 3527 09fd 1B       		.uleb128 0x1b
 3528 09fe 02       		.uleb128 0x2
 3529 09ff 7D       		.byte	0x7d
 3530 0a00 04       		.sleb128 4
 3531 0a01 05       		.uleb128 0x5
 3532 0a02 03       		.byte	0x3
 3533 0a03 A4010000 		.4byte	.LC33
 3534 0a07 00       		.byte	0
 3535 0a08 00       		.byte	0
 3536 0a09 1E       		.uleb128 0x1e
 3537 0a0a 3A010000 		.4byte	.LVL98
 3538 0a0e 8C140000 		.4byte	0x148c
 3539 0a12 260A0000 		.4byte	0xa26
 3540 0a16 1B       		.uleb128 0x1b
 3541 0a17 01       		.uleb128 0x1
 3542 0a18 51       		.byte	0x51
 3543 0a19 05       		.uleb128 0x5
 3544 0a1a 03       		.byte	0x3
 3545 0a1b 00000000 		.4byte	find_subscription_by_frame_type
 3546 0a1f 1B       		.uleb128 0x1b
 3547 0a20 01       		.uleb128 0x1
 3548 0a21 52       		.byte	0x52
 3549 0a22 02       		.uleb128 0x2
 3550 0a23 74       		.byte	0x74
 3551 0a24 15       		.sleb128 21
 3552 0a25 00       		.byte	0
 3553 0a26 19       		.uleb128 0x19
 3554 0a27 4C010000 		.4byte	.LVL101
 3555 0a2b 55140000 		.4byte	0x1455
 3556 0a2f 19       		.uleb128 0x19
 3557 0a30 64010000 		.4byte	.LVL104
 3558 0a34 60140000 		.4byte	0x1460
 3559 0a38 00       		.byte	0
 3560 0a39 23       		.uleb128 0x23
 3561 0a3a 18000000 		.4byte	.Ldebug_ranges0+0x18
 3562 0a3e 900A0000 		.4byte	0xa90
 3563 0a42 24       		.uleb128 0x24
 3564 0a43 FF010000 		.4byte	.LASF76
 3565 0a47 01       		.byte	0x1
 3566 0a48 4C01     		.2byte	0x14c
 3567 0a4a 25000000 		.4byte	0x25
 3568 0a4e 01070000 		.4byte	.LLST30
 3569 0a52 1E       		.uleb128 0x1e
 3570 0a53 C2010000 		.4byte	.LVL116
 3571 0a57 97140000 		.4byte	0x1497
 3572 0a5b 6C0A0000 		.4byte	0xa6c
 3573 0a5f 1B       		.uleb128 0x1b
 3574 0a60 01       		.uleb128 0x1
 3575 0a61 51       		.byte	0x51
 3576 0a62 02       		.uleb128 0x2
 3577 0a63 76       		.byte	0x76
 3578 0a64 00       		.sleb128 0
ARM GAS  C:\Users\Phuong\AppData\Local\Temp\ccIIJJrV.s 			page 79


 3579 0a65 1B       		.uleb128 0x1b
 3580 0a66 01       		.uleb128 0x1
 3581 0a67 52       		.byte	0x52
 3582 0a68 02       		.uleb128 0x2
 3583 0a69 77       		.byte	0x77
 3584 0a6a 00       		.sleb128 0
 3585 0a6b 00       		.byte	0
 3586 0a6c 25       		.uleb128 0x25
 3587 0a6d FA010000 		.4byte	.LVL122
 3588 0a71 02       		.uleb128 0x2
 3589 0a72 78       		.byte	0x78
 3590 0a73 00       		.sleb128 0
 3591 0a74 860A0000 		.4byte	0xa86
 3592 0a78 1B       		.uleb128 0x1b
 3593 0a79 01       		.uleb128 0x1
 3594 0a7a 53       		.byte	0x53
 3595 0a7b 02       		.uleb128 0x2
 3596 0a7c 77       		.byte	0x77
 3597 0a7d 00       		.sleb128 0
 3598 0a7e 1B       		.uleb128 0x1b
 3599 0a7f 02       		.uleb128 0x2
 3600 0a80 7D       		.byte	0x7d
 3601 0a81 00       		.sleb128 0
 3602 0a82 02       		.uleb128 0x2
 3603 0a83 77       		.byte	0x77
 3604 0a84 00       		.sleb128 0
 3605 0a85 00       		.byte	0
 3606 0a86 19       		.uleb128 0x19
 3607 0a87 00020000 		.4byte	.LVL123
 3608 0a8b 81140000 		.4byte	0x1481
 3609 0a8f 00       		.byte	0
 3610 0a90 26       		.uleb128 0x26
 3611 0a91 30000000 		.4byte	.Ldebug_ranges0+0x30
 3612 0a95 24       		.uleb128 0x24
 3613 0a96 47070000 		.4byte	.LASF77
 3614 0a9a 01       		.byte	0x1
 3615 0a9b 8101     		.2byte	0x181
 3616 0a9d D6000000 		.4byte	0xd6
 3617 0aa1 2A070000 		.4byte	.LLST31
 3618 0aa5 24       		.uleb128 0x24
 3619 0aa6 FF010000 		.4byte	.LASF76
 3620 0aaa 01       		.byte	0x1
 3621 0aab 8201     		.2byte	0x182
 3622 0aad 25000000 		.4byte	0x25
 3623 0ab1 53070000 		.4byte	.LLST32
 3624 0ab5 1E       		.uleb128 0x1e
 3625 0ab6 3E020000 		.4byte	.LVL132
 3626 0aba 97140000 		.4byte	0x1497
 3627 0abe CF0A0000 		.4byte	0xacf
 3628 0ac2 1B       		.uleb128 0x1b
 3629 0ac3 01       		.uleb128 0x1
 3630 0ac4 51       		.byte	0x51
 3631 0ac5 02       		.uleb128 0x2
 3632 0ac6 76       		.byte	0x76
 3633 0ac7 00       		.sleb128 0
 3634 0ac8 1B       		.uleb128 0x1b
 3635 0ac9 01       		.uleb128 0x1
ARM GAS  C:\Users\Phuong\AppData\Local\Temp\ccIIJJrV.s 			page 80


 3636 0aca 52       		.byte	0x52
 3637 0acb 02       		.uleb128 0x2
 3638 0acc 77       		.byte	0x77
 3639 0acd 00       		.sleb128 0
 3640 0ace 00       		.byte	0
 3641 0acf 25       		.uleb128 0x25
 3642 0ad0 6A020000 		.4byte	.LVL136
 3643 0ad4 02       		.uleb128 0x2
 3644 0ad5 77       		.byte	0x77
 3645 0ad6 00       		.sleb128 0
 3646 0ad7 E30A0000 		.4byte	0xae3
 3647 0adb 1B       		.uleb128 0x1b
 3648 0adc 02       		.uleb128 0x2
 3649 0add 7D       		.byte	0x7d
 3650 0ade 00       		.sleb128 0
 3651 0adf 02       		.uleb128 0x2
 3652 0ae0 78       		.byte	0x78
 3653 0ae1 00       		.sleb128 0
 3654 0ae2 00       		.byte	0
 3655 0ae3 19       		.uleb128 0x19
 3656 0ae4 70020000 		.4byte	.LVL137
 3657 0ae8 81140000 		.4byte	0x1481
 3658 0aec 00       		.byte	0
 3659 0aed 00       		.byte	0
 3660 0aee 08       		.uleb128 0x8
 3661 0aef AF000000 		.4byte	0xaf
 3662 0af3 FE0A0000 		.4byte	0xafe
 3663 0af7 09       		.uleb128 0x9
 3664 0af8 93000000 		.4byte	0x93
 3665 0afc 19       		.byte	0x19
 3666 0afd 00       		.byte	0
 3667 0afe 07       		.uleb128 0x7
 3668 0aff EE0A0000 		.4byte	0xaee
 3669 0b03 27       		.uleb128 0x27
 3670 0b04 5A060000 		.4byte	.LASF78
 3671 0b08 01       		.byte	0x1
 3672 0b09 AD01     		.2byte	0x1ad
 3673 0b0b 37000000 		.4byte	0x37
 3674 0b0f 00000000 		.4byte	.LFB6
 3675 0b13 30010000 		.4byte	.LFE6-.LFB6
 3676 0b17 01       		.uleb128 0x1
 3677 0b18 9C       		.byte	0x9c
 3678 0b19 8E0D0000 		.4byte	0xd8e
 3679 0b1d 28       		.uleb128 0x28
 3680 0b1e D0030000 		.4byte	.LASF68
 3681 0b22 01       		.byte	0x1
 3682 0b23 AD01     		.2byte	0x1ad
 3683 0b25 B3010000 		.4byte	0x1b3
 3684 0b29 66070000 		.4byte	.LLST33
 3685 0b2d 28       		.uleb128 0x28
 3686 0b2e 30020000 		.4byte	.LASF79
 3687 0b32 01       		.byte	0x1
 3688 0b33 AD01     		.2byte	0x1ad
 3689 0b35 CB000000 		.4byte	0xcb
 3690 0b39 0C080000 		.4byte	.LLST34
 3691 0b3d 28       		.uleb128 0x28
 3692 0b3e A6060000 		.4byte	.LASF59
ARM GAS  C:\Users\Phuong\AppData\Local\Temp\ccIIJJrV.s 			page 81


 3693 0b42 01       		.byte	0x1
 3694 0b43 AD01     		.2byte	0x1ad
 3695 0b45 61020000 		.4byte	0x261
 3696 0b49 8A080000 		.4byte	.LLST35
 3697 0b4d 28       		.uleb128 0x28
 3698 0b4e 2A080000 		.4byte	.LASF60
 3699 0b52 01       		.byte	0x1
 3700 0b53 AD01     		.2byte	0x1ad
 3701 0b55 9A000000 		.4byte	0x9a
 3702 0b59 CC080000 		.4byte	.LLST36
 3703 0b5d 24       		.uleb128 0x24
 3704 0b5e 2B000000 		.4byte	.LASF65
 3705 0b62 01       		.byte	0x1
 3706 0b63 AF01     		.2byte	0x1af
 3707 0b65 37000000 		.4byte	0x37
 3708 0b69 2A090000 		.4byte	.LLST37
 3709 0b6d 16       		.uleb128 0x16
 3710 0b6e F5050000 		.4byte	.LASF67
 3711 0b72 9E0D0000 		.4byte	0xd9e
 3712 0b76 05       		.uleb128 0x5
 3713 0b77 03       		.byte	0x3
 3714 0b78 98000000 		.4byte	__func__.6323
 3715 0b7c 17       		.uleb128 0x17
 3716 0b7d 18000000 		.4byte	.LBB20
 3717 0b81 20000000 		.4byte	.LBE20-.LBB20
 3718 0b85 E60B0000 		.4byte	0xbe6
 3719 0b89 22       		.uleb128 0x22
 3720 0b8a 6C00     		.ascii	"l\000"
 3721 0b8c 01       		.byte	0x1
 3722 0b8d B501     		.2byte	0x1b5
 3723 0b8f 0F010000 		.4byte	0x10f
 3724 0b93 49090000 		.4byte	.LLST38
 3725 0b97 19       		.uleb128 0x19
 3726 0b98 1C000000 		.4byte	.LVL159
 3727 0b9c 4A140000 		.4byte	0x144a
 3728 0ba0 1A       		.uleb128 0x1a
 3729 0ba1 38000000 		.4byte	.LVL162
 3730 0ba5 02       		.uleb128 0x2
 3731 0ba6 76       		.byte	0x76
 3732 0ba7 00       		.sleb128 0
 3733 0ba8 1B       		.uleb128 0x1b
 3734 0ba9 01       		.uleb128 0x1
 3735 0baa 50       		.byte	0x50
 3736 0bab 01       		.uleb128 0x1
 3737 0bac 30       		.byte	0x30
 3738 0bad 1B       		.uleb128 0x1b
 3739 0bae 01       		.uleb128 0x1
 3740 0baf 51       		.byte	0x51
 3741 0bb0 05       		.uleb128 0x5
 3742 0bb1 03       		.byte	0x3
 3743 0bb2 00000000 		.4byte	.LC1
 3744 0bb6 1B       		.uleb128 0x1b
 3745 0bb7 01       		.uleb128 0x1
 3746 0bb8 52       		.byte	0x52
 3747 0bb9 05       		.uleb128 0x5
 3748 0bba 03       		.byte	0x3
 3749 0bbb 98000000 		.4byte	.LANCHOR1
ARM GAS  C:\Users\Phuong\AppData\Local\Temp\ccIIJJrV.s 			page 82


 3750 0bbf 1B       		.uleb128 0x1b
 3751 0bc0 01       		.uleb128 0x1
 3752 0bc1 53       		.byte	0x53
 3753 0bc2 03       		.uleb128 0x3
 3754 0bc3 0A       		.byte	0xa
 3755 0bc4 B601     		.2byte	0x1b6
 3756 0bc6 1B       		.uleb128 0x1b
 3757 0bc7 02       		.uleb128 0x2
 3758 0bc8 7D       		.byte	0x7d
 3759 0bc9 00       		.sleb128 0
 3760 0bca 01       		.uleb128 0x1
 3761 0bcb 31       		.byte	0x31
 3762 0bcc 1B       		.uleb128 0x1b
 3763 0bcd 02       		.uleb128 0x2
 3764 0bce 7D       		.byte	0x7d
 3765 0bcf 04       		.sleb128 4
 3766 0bd0 05       		.uleb128 0x5
 3767 0bd1 03       		.byte	0x3
 3768 0bd2 CC010000 		.4byte	.LC37
 3769 0bd6 1B       		.uleb128 0x1b
 3770 0bd7 02       		.uleb128 0x2
 3771 0bd8 7D       		.byte	0x7d
 3772 0bd9 08       		.sleb128 8
 3773 0bda 02       		.uleb128 0x2
 3774 0bdb 74       		.byte	0x74
 3775 0bdc 00       		.sleb128 0
 3776 0bdd 1B       		.uleb128 0x1b
 3777 0bde 02       		.uleb128 0x2
 3778 0bdf 7D       		.byte	0x7d
 3779 0be0 0C       		.sleb128 12
 3780 0be1 02       		.uleb128 0x2
 3781 0be2 75       		.byte	0x75
 3782 0be3 00       		.sleb128 0
 3783 0be4 00       		.byte	0
 3784 0be5 00       		.byte	0
 3785 0be6 26       		.uleb128 0x26
 3786 0be7 48000000 		.4byte	.Ldebug_ranges0+0x48
 3787 0beb 24       		.uleb128 0x24
 3788 0bec 83060000 		.4byte	.LASF69
 3789 0bf0 01       		.byte	0x1
 3790 0bf1 BB01     		.2byte	0x1bb
 3791 0bf3 71050000 		.4byte	0x571
 3792 0bf7 7D090000 		.4byte	.LLST39
 3793 0bfb 24       		.uleb128 0x24
 3794 0bfc 5C070000 		.4byte	.LASF66
 3795 0c00 01       		.byte	0x1
 3796 0c01 BC01     		.2byte	0x1bc
 3797 0c03 54030000 		.4byte	0x354
 3798 0c07 020A0000 		.4byte	.LLST40
 3799 0c0b 24       		.uleb128 0x24
 3800 0c0c 48000000 		.4byte	.LASF63
 3801 0c10 01       		.byte	0x1
 3802 0c11 C001     		.2byte	0x1c0
 3803 0c13 5B010000 		.4byte	0x15b
 3804 0c17 570A0000 		.4byte	.LLST41
 3805 0c1b 17       		.uleb128 0x17
 3806 0c1c 56000000 		.4byte	.LBB22
ARM GAS  C:\Users\Phuong\AppData\Local\Temp\ccIIJJrV.s 			page 83


 3807 0c20 24000000 		.4byte	.LBE22-.LBB22
 3808 0c24 770C0000 		.4byte	0xc77
 3809 0c28 22       		.uleb128 0x22
 3810 0c29 6C00     		.ascii	"l\000"
 3811 0c2b 01       		.byte	0x1
 3812 0c2c C701     		.2byte	0x1c7
 3813 0c2e 0F010000 		.4byte	0x10f
 3814 0c32 750A0000 		.4byte	.LLST42
 3815 0c36 19       		.uleb128 0x19
 3816 0c37 5A000000 		.4byte	.LVL169
 3817 0c3b 4A140000 		.4byte	0x144a
 3818 0c3f 1A       		.uleb128 0x1a
 3819 0c40 7A000000 		.4byte	.LVL174
 3820 0c44 02       		.uleb128 0x2
 3821 0c45 74       		.byte	0x74
 3822 0c46 00       		.sleb128 0
 3823 0c47 1B       		.uleb128 0x1b
 3824 0c48 01       		.uleb128 0x1
 3825 0c49 50       		.byte	0x50
 3826 0c4a 01       		.uleb128 0x1
 3827 0c4b 30       		.byte	0x30
 3828 0c4c 1B       		.uleb128 0x1b
 3829 0c4d 01       		.uleb128 0x1
 3830 0c4e 51       		.byte	0x51
 3831 0c4f 05       		.uleb128 0x5
 3832 0c50 03       		.byte	0x3
 3833 0c51 00000000 		.4byte	.LC1
 3834 0c55 1B       		.uleb128 0x1b
 3835 0c56 01       		.uleb128 0x1
 3836 0c57 52       		.byte	0x52
 3837 0c58 05       		.uleb128 0x5
 3838 0c59 03       		.byte	0x3
 3839 0c5a 98000000 		.4byte	.LANCHOR1
 3840 0c5e 1B       		.uleb128 0x1b
 3841 0c5f 01       		.uleb128 0x1
 3842 0c60 53       		.byte	0x53
 3843 0c61 03       		.uleb128 0x3
 3844 0c62 0A       		.byte	0xa
 3845 0c63 C701     		.2byte	0x1c7
 3846 0c65 1B       		.uleb128 0x1b
 3847 0c66 02       		.uleb128 0x2
 3848 0c67 7D       		.byte	0x7d
 3849 0c68 00       		.sleb128 0
 3850 0c69 01       		.uleb128 0x1
 3851 0c6a 31       		.byte	0x31
 3852 0c6b 1B       		.uleb128 0x1b
 3853 0c6c 02       		.uleb128 0x2
 3854 0c6d 7D       		.byte	0x7d
 3855 0c6e 04       		.sleb128 4
 3856 0c6f 05       		.uleb128 0x5
 3857 0c70 03       		.byte	0x3
 3858 0c71 04020000 		.4byte	.LC40
 3859 0c75 00       		.byte	0
 3860 0c76 00       		.byte	0
 3861 0c77 17       		.uleb128 0x17
 3862 0c78 92000000 		.4byte	.LBB23
 3863 0c7c 1C000000 		.4byte	.LBE23-.LBB23
ARM GAS  C:\Users\Phuong\AppData\Local\Temp\ccIIJJrV.s 			page 84


 3864 0c80 D30C0000 		.4byte	0xcd3
 3865 0c84 22       		.uleb128 0x22
 3866 0c85 6C00     		.ascii	"l\000"
 3867 0c87 01       		.byte	0x1
 3868 0c88 DB01     		.2byte	0x1db
 3869 0c8a 0F010000 		.4byte	0x10f
 3870 0c8e A90A0000 		.4byte	.LLST43
 3871 0c92 19       		.uleb128 0x19
 3872 0c93 96000000 		.4byte	.LVL182
 3873 0c97 4A140000 		.4byte	0x144a
 3874 0c9b 1A       		.uleb128 0x1a
 3875 0c9c AE000000 		.4byte	.LVL185
 3876 0ca0 02       		.uleb128 0x2
 3877 0ca1 74       		.byte	0x74
 3878 0ca2 00       		.sleb128 0
 3879 0ca3 1B       		.uleb128 0x1b
 3880 0ca4 01       		.uleb128 0x1
 3881 0ca5 50       		.byte	0x50
 3882 0ca6 01       		.uleb128 0x1
 3883 0ca7 30       		.byte	0x30
 3884 0ca8 1B       		.uleb128 0x1b
 3885 0ca9 01       		.uleb128 0x1
 3886 0caa 51       		.byte	0x51
 3887 0cab 05       		.uleb128 0x5
 3888 0cac 03       		.byte	0x3
 3889 0cad 00000000 		.4byte	.LC1
 3890 0cb1 1B       		.uleb128 0x1b
 3891 0cb2 01       		.uleb128 0x1
 3892 0cb3 52       		.byte	0x52
 3893 0cb4 05       		.uleb128 0x5
 3894 0cb5 03       		.byte	0x3
 3895 0cb6 98000000 		.4byte	.LANCHOR1
 3896 0cba 1B       		.uleb128 0x1b
 3897 0cbb 01       		.uleb128 0x1
 3898 0cbc 53       		.byte	0x53
 3899 0cbd 03       		.uleb128 0x3
 3900 0cbe 0A       		.byte	0xa
 3901 0cbf DB01     		.2byte	0x1db
 3902 0cc1 1B       		.uleb128 0x1b
 3903 0cc2 02       		.uleb128 0x2
 3904 0cc3 7D       		.byte	0x7d
 3905 0cc4 00       		.sleb128 0
 3906 0cc5 01       		.uleb128 0x1
 3907 0cc6 31       		.byte	0x31
 3908 0cc7 1B       		.uleb128 0x1b
 3909 0cc8 02       		.uleb128 0x2
 3910 0cc9 7D       		.byte	0x7d
 3911 0cca 04       		.sleb128 4
 3912 0ccb 05       		.uleb128 0x5
 3913 0ccc 03       		.byte	0x3
 3914 0ccd 48020000 		.4byte	.LC42
 3915 0cd1 00       		.byte	0
 3916 0cd2 00       		.byte	0
 3917 0cd3 17       		.uleb128 0x17
 3918 0cd4 D2000000 		.4byte	.LBB24
 3919 0cd8 1C000000 		.4byte	.LBE24-.LBB24
 3920 0cdc 2F0D0000 		.4byte	0xd2f
ARM GAS  C:\Users\Phuong\AppData\Local\Temp\ccIIJJrV.s 			page 85


 3921 0ce0 22       		.uleb128 0x22
 3922 0ce1 6C00     		.ascii	"l\000"
 3923 0ce3 01       		.byte	0x1
 3924 0ce4 E801     		.2byte	0x1e8
 3925 0ce6 0F010000 		.4byte	0x10f
 3926 0cea DD0A0000 		.4byte	.LLST44
 3927 0cee 19       		.uleb128 0x19
 3928 0cef D6000000 		.4byte	.LVL192
 3929 0cf3 4A140000 		.4byte	0x144a
 3930 0cf7 1A       		.uleb128 0x1a
 3931 0cf8 EE000000 		.4byte	.LVL195
 3932 0cfc 02       		.uleb128 0x2
 3933 0cfd 74       		.byte	0x74
 3934 0cfe 00       		.sleb128 0
 3935 0cff 1B       		.uleb128 0x1b
 3936 0d00 01       		.uleb128 0x1
 3937 0d01 50       		.byte	0x50
 3938 0d02 01       		.uleb128 0x1
 3939 0d03 30       		.byte	0x30
 3940 0d04 1B       		.uleb128 0x1b
 3941 0d05 01       		.uleb128 0x1
 3942 0d06 51       		.byte	0x51
 3943 0d07 05       		.uleb128 0x5
 3944 0d08 03       		.byte	0x3
 3945 0d09 00000000 		.4byte	.LC1
 3946 0d0d 1B       		.uleb128 0x1b
 3947 0d0e 01       		.uleb128 0x1
 3948 0d0f 52       		.byte	0x52
 3949 0d10 05       		.uleb128 0x5
 3950 0d11 03       		.byte	0x3
 3951 0d12 98000000 		.4byte	.LANCHOR1
 3952 0d16 1B       		.uleb128 0x1b
 3953 0d17 01       		.uleb128 0x1
 3954 0d18 53       		.byte	0x53
 3955 0d19 03       		.uleb128 0x3
 3956 0d1a 0A       		.byte	0xa
 3957 0d1b E801     		.2byte	0x1e8
 3958 0d1d 1B       		.uleb128 0x1b
 3959 0d1e 02       		.uleb128 0x2
 3960 0d1f 7D       		.byte	0x7d
 3961 0d20 00       		.sleb128 0
 3962 0d21 01       		.uleb128 0x1
 3963 0d22 31       		.byte	0x31
 3964 0d23 1B       		.uleb128 0x1b
 3965 0d24 02       		.uleb128 0x2
 3966 0d25 7D       		.byte	0x7d
 3967 0d26 04       		.sleb128 4
 3968 0d27 05       		.uleb128 0x5
 3969 0d28 03       		.byte	0x3
 3970 0d29 74020000 		.4byte	.LC44
 3971 0d2d 00       		.byte	0
 3972 0d2e 00       		.byte	0
 3973 0d2f 1E       		.uleb128 0x1e
 3974 0d30 4A000000 		.4byte	.LVL167
 3975 0d34 8C140000 		.4byte	0x148c
 3976 0d38 4C0D0000 		.4byte	0xd4c
 3977 0d3c 1B       		.uleb128 0x1b
ARM GAS  C:\Users\Phuong\AppData\Local\Temp\ccIIJJrV.s 			page 86


 3978 0d3d 01       		.uleb128 0x1
 3979 0d3e 51       		.byte	0x51
 3980 0d3f 05       		.uleb128 0x5
 3981 0d40 03       		.byte	0x3
 3982 0d41 00000000 		.4byte	find_subscription_by_frame_type
 3983 0d45 1B       		.uleb128 0x1b
 3984 0d46 01       		.uleb128 0x1
 3985 0d47 52       		.byte	0x52
 3986 0d48 02       		.uleb128 0x2
 3987 0d49 91       		.byte	0x91
 3988 0d4a 67       		.sleb128 -25
 3989 0d4b 00       		.byte	0
 3990 0d4c 19       		.uleb128 0x19
 3991 0d4d 52000000 		.4byte	.LVL168
 3992 0d51 55140000 		.4byte	0x1455
 3993 0d55 1E       		.uleb128 0x1e
 3994 0d56 8E000000 		.4byte	.LVL180
 3995 0d5a 60140000 		.4byte	0x1460
 3996 0d5e 680D0000 		.4byte	0xd68
 3997 0d62 1B       		.uleb128 0x1b
 3998 0d63 01       		.uleb128 0x1
 3999 0d64 50       		.byte	0x50
 4000 0d65 01       		.uleb128 0x1
 4001 0d66 3C       		.byte	0x3c
 4002 0d67 00       		.byte	0
 4003 0d68 1E       		.uleb128 0x1e
 4004 0d69 C8000000 		.4byte	.LVL190
 4005 0d6d A0140000 		.4byte	0x14a0
 4006 0d71 7C0D0000 		.4byte	0xd7c
 4007 0d75 1B       		.uleb128 0x1b
 4008 0d76 01       		.uleb128 0x1
 4009 0d77 51       		.byte	0x51
 4010 0d78 02       		.uleb128 0x2
 4011 0d79 77       		.byte	0x77
 4012 0d7a 00       		.sleb128 0
 4013 0d7b 00       		.byte	0
 4014 0d7c 1C       		.uleb128 0x1c
 4015 0d7d D2000000 		.4byte	.LVL191
 4016 0d81 81140000 		.4byte	0x1481
 4017 0d85 1B       		.uleb128 0x1b
 4018 0d86 01       		.uleb128 0x1
 4019 0d87 50       		.byte	0x50
 4020 0d88 02       		.uleb128 0x2
 4021 0d89 77       		.byte	0x77
 4022 0d8a 00       		.sleb128 0
 4023 0d8b 00       		.byte	0
 4024 0d8c 00       		.byte	0
 4025 0d8d 00       		.byte	0
 4026 0d8e 08       		.uleb128 0x8
 4027 0d8f AF000000 		.4byte	0xaf
 4028 0d93 9E0D0000 		.4byte	0xd9e
 4029 0d97 09       		.uleb128 0x9
 4030 0d98 93000000 		.4byte	0x93
 4031 0d9c 15       		.byte	0x15
 4032 0d9d 00       		.byte	0
 4033 0d9e 07       		.uleb128 0x7
 4034 0d9f 8E0D0000 		.4byte	0xd8e
ARM GAS  C:\Users\Phuong\AppData\Local\Temp\ccIIJJrV.s 			page 87


 4035 0da3 27       		.uleb128 0x27
 4036 0da4 35020000 		.4byte	.LASF80
 4037 0da8 01       		.byte	0x1
 4038 0da9 F701     		.2byte	0x1f7
 4039 0dab 37000000 		.4byte	0x37
 4040 0daf 00000000 		.4byte	.LFB7
 4041 0db3 10010000 		.4byte	.LFE7-.LFB7
 4042 0db7 01       		.uleb128 0x1
 4043 0db8 9C       		.byte	0x9c
 4044 0db9 E60F0000 		.4byte	0xfe6
 4045 0dbd 28       		.uleb128 0x28
 4046 0dbe D0030000 		.4byte	.LASF68
 4047 0dc2 01       		.byte	0x1
 4048 0dc3 F701     		.2byte	0x1f7
 4049 0dc5 B3010000 		.4byte	0x1b3
 4050 0dc9 110B0000 		.4byte	.LLST45
 4051 0dcd 28       		.uleb128 0x28
 4052 0dce 30020000 		.4byte	.LASF79
 4053 0dd2 01       		.byte	0x1
 4054 0dd3 F701     		.2byte	0x1f7
 4055 0dd5 CB000000 		.4byte	0xcb
 4056 0dd9 AC0B0000 		.4byte	.LLST46
 4057 0ddd 29       		.uleb128 0x29
 4058 0dde 2B000000 		.4byte	.LASF65
 4059 0de2 01       		.byte	0x1
 4060 0de3 F901     		.2byte	0x1f9
 4061 0de5 37000000 		.4byte	0x37
 4062 0de9 01       		.uleb128 0x1
 4063 0dea 50       		.byte	0x50
 4064 0deb 16       		.uleb128 0x16
 4065 0dec F5050000 		.4byte	.LASF67
 4066 0df0 F60F0000 		.4byte	0xff6
 4067 0df4 05       		.uleb128 0x5
 4068 0df5 03       		.byte	0x3
 4069 0df6 B0000000 		.4byte	__func__.6344
 4070 0dfa 17       		.uleb128 0x17
 4071 0dfb 10000000 		.4byte	.LBB26
 4072 0dff 1E000000 		.4byte	.LBE26-.LBB26
 4073 0e03 560E0000 		.4byte	0xe56
 4074 0e07 22       		.uleb128 0x22
 4075 0e08 6C00     		.ascii	"l\000"
 4076 0e0a 01       		.byte	0x1
 4077 0e0b FE01     		.2byte	0x1fe
 4078 0e0d 0F010000 		.4byte	0x10f
 4079 0e11 0C0C0000 		.4byte	.LLST47
 4080 0e15 19       		.uleb128 0x19
 4081 0e16 14000000 		.4byte	.LVL208
 4082 0e1a 4A140000 		.4byte	0x144a
 4083 0e1e 1A       		.uleb128 0x1a
 4084 0e1f 2E000000 		.4byte	.LVL211
 4085 0e23 02       		.uleb128 0x2
 4086 0e24 74       		.byte	0x74
 4087 0e25 00       		.sleb128 0
 4088 0e26 1B       		.uleb128 0x1b
 4089 0e27 01       		.uleb128 0x1
 4090 0e28 50       		.byte	0x50
 4091 0e29 01       		.uleb128 0x1
ARM GAS  C:\Users\Phuong\AppData\Local\Temp\ccIIJJrV.s 			page 88


 4092 0e2a 30       		.byte	0x30
 4093 0e2b 1B       		.uleb128 0x1b
 4094 0e2c 01       		.uleb128 0x1
 4095 0e2d 51       		.byte	0x51
 4096 0e2e 05       		.uleb128 0x5
 4097 0e2f 03       		.byte	0x3
 4098 0e30 00000000 		.4byte	.LC1
 4099 0e34 1B       		.uleb128 0x1b
 4100 0e35 01       		.uleb128 0x1
 4101 0e36 52       		.byte	0x52
 4102 0e37 05       		.uleb128 0x5
 4103 0e38 03       		.byte	0x3
 4104 0e39 B0000000 		.4byte	.LANCHOR1+24
 4105 0e3d 1B       		.uleb128 0x1b
 4106 0e3e 01       		.uleb128 0x1
 4107 0e3f 53       		.byte	0x53
 4108 0e40 03       		.uleb128 0x3
 4109 0e41 0A       		.byte	0xa
 4110 0e42 FE01     		.2byte	0x1fe
 4111 0e44 1B       		.uleb128 0x1b
 4112 0e45 02       		.uleb128 0x2
 4113 0e46 7D       		.byte	0x7d
 4114 0e47 00       		.sleb128 0
 4115 0e48 01       		.uleb128 0x1
 4116 0e49 31       		.byte	0x31
 4117 0e4a 1B       		.uleb128 0x1b
 4118 0e4b 02       		.uleb128 0x2
 4119 0e4c 7D       		.byte	0x7d
 4120 0e4d 04       		.sleb128 4
 4121 0e4e 05       		.uleb128 0x5
 4122 0e4f 03       		.byte	0x3
 4123 0e50 A8000000 		.4byte	.LC13
 4124 0e54 00       		.byte	0
 4125 0e55 00       		.byte	0
 4126 0e56 26       		.uleb128 0x26
 4127 0e57 60000000 		.4byte	.Ldebug_ranges0+0x60
 4128 0e5b 24       		.uleb128 0x24
 4129 0e5c 83060000 		.4byte	.LASF69
 4130 0e60 01       		.byte	0x1
 4131 0e61 0302     		.2byte	0x203
 4132 0e63 71050000 		.4byte	0x571
 4133 0e67 400C0000 		.4byte	.LLST48
 4134 0e6b 24       		.uleb128 0x24
 4135 0e6c 48000000 		.4byte	.LASF63
 4136 0e70 01       		.byte	0x1
 4137 0e71 0402     		.2byte	0x204
 4138 0e73 5B010000 		.4byte	0x15b
 4139 0e77 C50C0000 		.4byte	.LLST49
 4140 0e7b 17       		.uleb128 0x17
 4141 0e7c 42000000 		.4byte	.LBB28
 4142 0e80 24000000 		.4byte	.LBE28-.LBB28
 4143 0e84 D70E0000 		.4byte	0xed7
 4144 0e88 22       		.uleb128 0x22
 4145 0e89 6C00     		.ascii	"l\000"
 4146 0e8b 01       		.byte	0x1
 4147 0e8c 0A02     		.2byte	0x20a
 4148 0e8e 0F010000 		.4byte	0x10f
ARM GAS  C:\Users\Phuong\AppData\Local\Temp\ccIIJJrV.s 			page 89


 4149 0e92 040D0000 		.4byte	.LLST50
 4150 0e96 19       		.uleb128 0x19
 4151 0e97 46000000 		.4byte	.LVL217
 4152 0e9b 4A140000 		.4byte	0x144a
 4153 0e9f 1A       		.uleb128 0x1a
 4154 0ea0 66000000 		.4byte	.LVL222
 4155 0ea4 02       		.uleb128 0x2
 4156 0ea5 74       		.byte	0x74
 4157 0ea6 00       		.sleb128 0
 4158 0ea7 1B       		.uleb128 0x1b
 4159 0ea8 01       		.uleb128 0x1
 4160 0ea9 50       		.byte	0x50
 4161 0eaa 01       		.uleb128 0x1
 4162 0eab 30       		.byte	0x30
 4163 0eac 1B       		.uleb128 0x1b
 4164 0ead 01       		.uleb128 0x1
 4165 0eae 51       		.byte	0x51
 4166 0eaf 05       		.uleb128 0x5
 4167 0eb0 03       		.byte	0x3
 4168 0eb1 00000000 		.4byte	.LC1
 4169 0eb5 1B       		.uleb128 0x1b
 4170 0eb6 01       		.uleb128 0x1
 4171 0eb7 52       		.byte	0x52
 4172 0eb8 05       		.uleb128 0x5
 4173 0eb9 03       		.byte	0x3
 4174 0eba B0000000 		.4byte	.LANCHOR1+24
 4175 0ebe 1B       		.uleb128 0x1b
 4176 0ebf 01       		.uleb128 0x1
 4177 0ec0 53       		.byte	0x53
 4178 0ec1 03       		.uleb128 0x3
 4179 0ec2 0A       		.byte	0xa
 4180 0ec3 0A02     		.2byte	0x20a
 4181 0ec5 1B       		.uleb128 0x1b
 4182 0ec6 02       		.uleb128 0x2
 4183 0ec7 7D       		.byte	0x7d
 4184 0ec8 00       		.sleb128 0
 4185 0ec9 01       		.uleb128 0x1
 4186 0eca 31       		.byte	0x31
 4187 0ecb 1B       		.uleb128 0x1b
 4188 0ecc 02       		.uleb128 0x2
 4189 0ecd 7D       		.byte	0x7d
 4190 0ece 04       		.sleb128 4
 4191 0ecf 05       		.uleb128 0x5
 4192 0ed0 03       		.byte	0x3
 4193 0ed1 94020000 		.4byte	.LC50
 4194 0ed5 00       		.byte	0
 4195 0ed6 00       		.byte	0
 4196 0ed7 23       		.uleb128 0x23
 4197 0ed8 78000000 		.4byte	.Ldebug_ranges0+0x78
 4198 0edc CB0F0000 		.4byte	0xfcb
 4199 0ee0 24       		.uleb128 0x24
 4200 0ee1 5C070000 		.4byte	.LASF66
 4201 0ee5 01       		.byte	0x1
 4202 0ee6 0F02     		.2byte	0x20f
 4203 0ee8 54030000 		.4byte	0x354
 4204 0eec 380D0000 		.4byte	.LLST51
 4205 0ef0 17       		.uleb128 0x17
ARM GAS  C:\Users\Phuong\AppData\Local\Temp\ccIIJJrV.s 			page 90


 4206 0ef1 72000000 		.4byte	.LBB30
 4207 0ef5 1C000000 		.4byte	.LBE30-.LBB30
 4208 0ef9 4C0F0000 		.4byte	0xf4c
 4209 0efd 22       		.uleb128 0x22
 4210 0efe 6C00     		.ascii	"l\000"
 4211 0f00 01       		.byte	0x1
 4212 0f01 1302     		.2byte	0x213
 4213 0f03 0F010000 		.4byte	0x10f
 4214 0f07 560D0000 		.4byte	.LLST52
 4215 0f0b 19       		.uleb128 0x19
 4216 0f0c 76000000 		.4byte	.LVL225
 4217 0f10 4A140000 		.4byte	0x144a
 4218 0f14 1A       		.uleb128 0x1a
 4219 0f15 8E000000 		.4byte	.LVL228
 4220 0f19 02       		.uleb128 0x2
 4221 0f1a 74       		.byte	0x74
 4222 0f1b 00       		.sleb128 0
 4223 0f1c 1B       		.uleb128 0x1b
 4224 0f1d 01       		.uleb128 0x1
 4225 0f1e 50       		.byte	0x50
 4226 0f1f 01       		.uleb128 0x1
 4227 0f20 30       		.byte	0x30
 4228 0f21 1B       		.uleb128 0x1b
 4229 0f22 01       		.uleb128 0x1
 4230 0f23 51       		.byte	0x51
 4231 0f24 05       		.uleb128 0x5
 4232 0f25 03       		.byte	0x3
 4233 0f26 00000000 		.4byte	.LC1
 4234 0f2a 1B       		.uleb128 0x1b
 4235 0f2b 01       		.uleb128 0x1
 4236 0f2c 52       		.byte	0x52
 4237 0f2d 05       		.uleb128 0x5
 4238 0f2e 03       		.byte	0x3
 4239 0f2f B0000000 		.4byte	.LANCHOR1+24
 4240 0f33 1B       		.uleb128 0x1b
 4241 0f34 01       		.uleb128 0x1
 4242 0f35 53       		.byte	0x53
 4243 0f36 03       		.uleb128 0x3
 4244 0f37 0A       		.byte	0xa
 4245 0f38 1302     		.2byte	0x213
 4246 0f3a 1B       		.uleb128 0x1b
 4247 0f3b 02       		.uleb128 0x2
 4248 0f3c 7D       		.byte	0x7d
 4249 0f3d 00       		.sleb128 0
 4250 0f3e 01       		.uleb128 0x1
 4251 0f3f 31       		.byte	0x31
 4252 0f40 1B       		.uleb128 0x1b
 4253 0f41 02       		.uleb128 0x2
 4254 0f42 7D       		.byte	0x7d
 4255 0f43 04       		.sleb128 4
 4256 0f44 05       		.uleb128 0x5
 4257 0f45 03       		.byte	0x3
 4258 0f46 BC020000 		.4byte	.LC52
 4259 0f4a 00       		.byte	0
 4260 0f4b 00       		.byte	0
 4261 0f4c 17       		.uleb128 0x17
 4262 0f4d A4000000 		.4byte	.LBB31
ARM GAS  C:\Users\Phuong\AppData\Local\Temp\ccIIJJrV.s 			page 91


 4263 0f51 1E000000 		.4byte	.LBE31-.LBB31
 4264 0f55 A80F0000 		.4byte	0xfa8
 4265 0f59 22       		.uleb128 0x22
 4266 0f5a 6C00     		.ascii	"l\000"
 4267 0f5c 01       		.byte	0x1
 4268 0f5d 1C02     		.2byte	0x21c
 4269 0f5f 0F010000 		.4byte	0x10f
 4270 0f63 8A0D0000 		.4byte	.LLST53
 4271 0f67 19       		.uleb128 0x19
 4272 0f68 A8000000 		.4byte	.LVL232
 4273 0f6c 4A140000 		.4byte	0x144a
 4274 0f70 1A       		.uleb128 0x1a
 4275 0f71 C2000000 		.4byte	.LVL235
 4276 0f75 02       		.uleb128 0x2
 4277 0f76 74       		.byte	0x74
 4278 0f77 00       		.sleb128 0
 4279 0f78 1B       		.uleb128 0x1b
 4280 0f79 01       		.uleb128 0x1
 4281 0f7a 50       		.byte	0x50
 4282 0f7b 01       		.uleb128 0x1
 4283 0f7c 30       		.byte	0x30
 4284 0f7d 1B       		.uleb128 0x1b
 4285 0f7e 01       		.uleb128 0x1
 4286 0f7f 51       		.byte	0x51
 4287 0f80 05       		.uleb128 0x5
 4288 0f81 03       		.byte	0x3
 4289 0f82 00000000 		.4byte	.LC1
 4290 0f86 1B       		.uleb128 0x1b
 4291 0f87 01       		.uleb128 0x1
 4292 0f88 52       		.byte	0x52
 4293 0f89 05       		.uleb128 0x5
 4294 0f8a 03       		.byte	0x3
 4295 0f8b B0000000 		.4byte	.LANCHOR1+24
 4296 0f8f 1B       		.uleb128 0x1b
 4297 0f90 01       		.uleb128 0x1
 4298 0f91 53       		.byte	0x53
 4299 0f92 03       		.uleb128 0x3
 4300 0f93 0A       		.byte	0xa
 4301 0f94 1C02     		.2byte	0x21c
 4302 0f96 1B       		.uleb128 0x1b
 4303 0f97 02       		.uleb128 0x2
 4304 0f98 7D       		.byte	0x7d
 4305 0f99 00       		.sleb128 0
 4306 0f9a 01       		.uleb128 0x1
 4307 0f9b 31       		.byte	0x31
 4308 0f9c 1B       		.uleb128 0x1b
 4309 0f9d 02       		.uleb128 0x2
 4310 0f9e 7D       		.byte	0x7d
 4311 0f9f 04       		.sleb128 4
 4312 0fa0 05       		.uleb128 0x5
 4313 0fa1 03       		.byte	0x3
 4314 0fa2 F8020000 		.4byte	.LC54
 4315 0fa6 00       		.byte	0
 4316 0fa7 00       		.byte	0
 4317 0fa8 19       		.uleb128 0x19
 4318 0fa9 6E000000 		.4byte	.LVL224
 4319 0fad 55140000 		.4byte	0x1455
ARM GAS  C:\Users\Phuong\AppData\Local\Temp\ccIIJJrV.s 			page 92


 4320 0fb1 19       		.uleb128 0x19
 4321 0fb2 98000000 		.4byte	.LVL230
 4322 0fb6 81140000 		.4byte	0x1481
 4323 0fba 1C       		.uleb128 0x1c
 4324 0fbb A0000000 		.4byte	.LVL231
 4325 0fbf AB140000 		.4byte	0x14ab
 4326 0fc3 1B       		.uleb128 0x1b
 4327 0fc4 01       		.uleb128 0x1
 4328 0fc5 51       		.byte	0x51
 4329 0fc6 02       		.uleb128 0x2
 4330 0fc7 75       		.byte	0x75
 4331 0fc8 00       		.sleb128 0
 4332 0fc9 00       		.byte	0
 4333 0fca 00       		.byte	0
 4334 0fcb 1C       		.uleb128 0x1c
 4335 0fcc 3E000000 		.4byte	.LVL215
 4336 0fd0 8C140000 		.4byte	0x148c
 4337 0fd4 1B       		.uleb128 0x1b
 4338 0fd5 01       		.uleb128 0x1
 4339 0fd6 51       		.byte	0x51
 4340 0fd7 05       		.uleb128 0x5
 4341 0fd8 03       		.byte	0x3
 4342 0fd9 00000000 		.4byte	find_subscription_by_frame_type
 4343 0fdd 1B       		.uleb128 0x1b
 4344 0fde 01       		.uleb128 0x1
 4345 0fdf 52       		.byte	0x52
 4346 0fe0 02       		.uleb128 0x2
 4347 0fe1 91       		.byte	0x91
 4348 0fe2 6F       		.sleb128 -17
 4349 0fe3 00       		.byte	0
 4350 0fe4 00       		.byte	0
 4351 0fe5 00       		.byte	0
 4352 0fe6 08       		.uleb128 0x8
 4353 0fe7 AF000000 		.4byte	0xaf
 4354 0feb F60F0000 		.4byte	0xff6
 4355 0fef 09       		.uleb128 0x9
 4356 0ff0 93000000 		.4byte	0x93
 4357 0ff4 17       		.byte	0x17
 4358 0ff5 00       		.byte	0
 4359 0ff6 07       		.uleb128 0x7
 4360 0ff7 E60F0000 		.4byte	0xfe6
 4361 0ffb 27       		.uleb128 0x27
 4362 0ffc 11080000 		.4byte	.LASF81
 4363 1000 01       		.byte	0x1
 4364 1001 2B02     		.2byte	0x22b
 4365 1003 37000000 		.4byte	0x37
 4366 1007 00000000 		.4byte	.LFB8
 4367 100b 3C020000 		.4byte	.LFE8-.LFB8
 4368 100f 01       		.uleb128 0x1
 4369 1010 9C       		.byte	0x9c
 4370 1011 1A140000 		.4byte	0x141a
 4371 1015 28       		.uleb128 0x28
 4372 1016 D0030000 		.4byte	.LASF68
 4373 101a 01       		.byte	0x1
 4374 101b 2B02     		.2byte	0x22b
 4375 101d B3010000 		.4byte	0x1b3
 4376 1021 B30D0000 		.4byte	.LLST54
ARM GAS  C:\Users\Phuong\AppData\Local\Temp\ccIIJJrV.s 			page 93


 4377 1025 28       		.uleb128 0x28
 4378 1026 30020000 		.4byte	.LASF79
 4379 102a 01       		.byte	0x1
 4380 102b 2B02     		.2byte	0x22b
 4381 102d CB000000 		.4byte	0xcb
 4382 1031 240E0000 		.4byte	.LLST55
 4383 1035 28       		.uleb128 0x28
 4384 1036 73050000 		.4byte	.LASF82
 4385 103a 01       		.byte	0x1
 4386 103b 2B02     		.2byte	0x22b
 4387 103d 1A140000 		.4byte	0x141a
 4388 1041 770E0000 		.4byte	.LLST56
 4389 1045 28       		.uleb128 0x28
 4390 1046 D0060000 		.4byte	.LASF83
 4391 104a 01       		.byte	0x1
 4392 104b 2B02     		.2byte	0x22b
 4393 104d 25000000 		.4byte	0x25
 4394 1051 CF0E0000 		.4byte	.LLST57
 4395 1055 2A       		.uleb128 0x2a
 4396 1056 02070000 		.4byte	.LASF84
 4397 105a 01       		.byte	0x1
 4398 105b 2B02     		.2byte	0x22b
 4399 105d 78010000 		.4byte	0x178
 4400 1061 02       		.uleb128 0x2
 4401 1062 91       		.byte	0x91
 4402 1063 00       		.sleb128 0
 4403 1064 2A       		.uleb128 0x2a
 4404 1065 3D030000 		.4byte	.LASF37
 4405 1069 01       		.byte	0x1
 4406 106a 2B02     		.2byte	0x22b
 4407 106c D6000000 		.4byte	0xd6
 4408 1070 02       		.uleb128 0x2
 4409 1071 91       		.byte	0x91
 4410 1072 04       		.sleb128 4
 4411 1073 2A       		.uleb128 0x2a
 4412 1074 AF050000 		.4byte	.LASF85
 4413 1078 01       		.byte	0x1
 4414 1079 2B02     		.2byte	0x22b
 4415 107b AD020000 		.4byte	0x2ad
 4416 107f 02       		.uleb128 0x2
 4417 1080 91       		.byte	0x91
 4418 1081 08       		.sleb128 8
 4419 1082 2A       		.uleb128 0x2a
 4420 1083 2A080000 		.4byte	.LASF60
 4421 1087 01       		.byte	0x1
 4422 1088 2B02     		.2byte	0x22b
 4423 108a 9A000000 		.4byte	0x9a
 4424 108e 02       		.uleb128 0x2
 4425 108f 91       		.byte	0x91
 4426 1090 0C       		.sleb128 12
 4427 1091 24       		.uleb128 0x24
 4428 1092 2B000000 		.4byte	.LASF65
 4429 1096 01       		.byte	0x1
 4430 1097 2D02     		.2byte	0x22d
 4431 1099 37000000 		.4byte	0x37
 4432 109d 2D0F0000 		.4byte	.LLST58
 4433 10a1 24       		.uleb128 0x24
ARM GAS  C:\Users\Phuong\AppData\Local\Temp\ccIIJJrV.s 			page 94


 4434 10a2 83060000 		.4byte	.LASF69
 4435 10a6 01       		.byte	0x1
 4436 10a7 2F02     		.2byte	0x22f
 4437 10a9 71050000 		.4byte	0x571
 4438 10ad 4C0F0000 		.4byte	.LLST59
 4439 10b1 16       		.uleb128 0x16
 4440 10b2 F5050000 		.4byte	.LASF67
 4441 10b6 35140000 		.4byte	0x1435
 4442 10ba 05       		.uleb128 0x5
 4443 10bb 03       		.byte	0x3
 4444 10bc C8000000 		.4byte	__func__.6372
 4445 10c0 17       		.uleb128 0x17
 4446 10c1 32000000 		.4byte	.LBB34
 4447 10c5 2A000000 		.4byte	.LBE34-.LBB34
 4448 10c9 3A110000 		.4byte	0x113a
 4449 10cd 22       		.uleb128 0x22
 4450 10ce 6C00     		.ascii	"l\000"
 4451 10d0 01       		.byte	0x1
 4452 10d1 3902     		.2byte	0x239
 4453 10d3 0F010000 		.4byte	0x10f
 4454 10d7 BD0F0000 		.4byte	.LLST60
 4455 10db 19       		.uleb128 0x19
 4456 10dc 36000000 		.4byte	.LVL248
 4457 10e0 4A140000 		.4byte	0x144a
 4458 10e4 1A       		.uleb128 0x1a
 4459 10e5 5C000000 		.4byte	.LVL251
 4460 10e9 02       		.uleb128 0x2
 4461 10ea 75       		.byte	0x75
 4462 10eb 00       		.sleb128 0
 4463 10ec 1B       		.uleb128 0x1b
 4464 10ed 01       		.uleb128 0x1
 4465 10ee 50       		.byte	0x50
 4466 10ef 01       		.uleb128 0x1
 4467 10f0 30       		.byte	0x30
 4468 10f1 1B       		.uleb128 0x1b
 4469 10f2 01       		.uleb128 0x1
 4470 10f3 51       		.byte	0x51
 4471 10f4 05       		.uleb128 0x5
 4472 10f5 03       		.byte	0x3
 4473 10f6 00000000 		.4byte	.LC1
 4474 10fa 1B       		.uleb128 0x1b
 4475 10fb 01       		.uleb128 0x1
 4476 10fc 52       		.byte	0x52
 4477 10fd 05       		.uleb128 0x5
 4478 10fe 03       		.byte	0x3
 4479 10ff C8000000 		.4byte	.LANCHOR1+48
 4480 1103 1B       		.uleb128 0x1b
 4481 1104 01       		.uleb128 0x1
 4482 1105 53       		.byte	0x53
 4483 1106 03       		.uleb128 0x3
 4484 1107 0A       		.byte	0xa
 4485 1108 3A02     		.2byte	0x23a
 4486 110a 1B       		.uleb128 0x1b
 4487 110b 02       		.uleb128 0x2
 4488 110c 7D       		.byte	0x7d
 4489 110d 00       		.sleb128 0
 4490 110e 01       		.uleb128 0x1
ARM GAS  C:\Users\Phuong\AppData\Local\Temp\ccIIJJrV.s 			page 95


 4491 110f 31       		.byte	0x31
 4492 1110 1B       		.uleb128 0x1b
 4493 1111 02       		.uleb128 0x2
 4494 1112 7D       		.byte	0x7d
 4495 1113 04       		.sleb128 4
 4496 1114 05       		.uleb128 0x5
 4497 1115 03       		.byte	0x3
 4498 1116 20030000 		.4byte	.LC58
 4499 111a 1B       		.uleb128 0x1b
 4500 111b 02       		.uleb128 0x2
 4501 111c 7D       		.byte	0x7d
 4502 111d 08       		.sleb128 8
 4503 111e 02       		.uleb128 0x2
 4504 111f 76       		.byte	0x76
 4505 1120 00       		.sleb128 0
 4506 1121 1B       		.uleb128 0x1b
 4507 1122 02       		.uleb128 0x2
 4508 1123 7D       		.byte	0x7d
 4509 1124 0C       		.sleb128 12
 4510 1125 03       		.uleb128 0x3
 4511 1126 91       		.byte	0x91
 4512 1127 08       		.sleb128 8
 4513 1128 06       		.byte	0x6
 4514 1129 1B       		.uleb128 0x1b
 4515 112a 02       		.uleb128 0x2
 4516 112b 7D       		.byte	0x7d
 4517 112c 10       		.sleb128 16
 4518 112d 02       		.uleb128 0x2
 4519 112e 74       		.byte	0x74
 4520 112f 00       		.sleb128 0
 4521 1130 1B       		.uleb128 0x1b
 4522 1131 02       		.uleb128 0x2
 4523 1132 7D       		.byte	0x7d
 4524 1133 14       		.sleb128 20
 4525 1134 03       		.uleb128 0x3
 4526 1135 91       		.byte	0x91
 4527 1136 00       		.sleb128 0
 4528 1137 06       		.byte	0x6
 4529 1138 00       		.byte	0
 4530 1139 00       		.byte	0
 4531 113a 17       		.uleb128 0x17
 4532 113b 68000000 		.4byte	.LBB35
 4533 113f 20000000 		.4byte	.LBE35-.LBB35
 4534 1143 96110000 		.4byte	0x1196
 4535 1147 22       		.uleb128 0x22
 4536 1148 6C00     		.ascii	"l\000"
 4537 114a 01       		.byte	0x1
 4538 114b 4002     		.2byte	0x240
 4539 114d 0F010000 		.4byte	0x10f
 4540 1151 F10F0000 		.4byte	.LLST61
 4541 1155 19       		.uleb128 0x19
 4542 1156 6C000000 		.4byte	.LVL253
 4543 115a 4A140000 		.4byte	0x144a
 4544 115e 1A       		.uleb128 0x1a
 4545 115f 88000000 		.4byte	.LVL256
 4546 1163 02       		.uleb128 0x2
 4547 1164 74       		.byte	0x74
ARM GAS  C:\Users\Phuong\AppData\Local\Temp\ccIIJJrV.s 			page 96


 4548 1165 00       		.sleb128 0
 4549 1166 1B       		.uleb128 0x1b
 4550 1167 01       		.uleb128 0x1
 4551 1168 50       		.byte	0x50
 4552 1169 01       		.uleb128 0x1
 4553 116a 30       		.byte	0x30
 4554 116b 1B       		.uleb128 0x1b
 4555 116c 01       		.uleb128 0x1
 4556 116d 51       		.byte	0x51
 4557 116e 05       		.uleb128 0x5
 4558 116f 03       		.byte	0x3
 4559 1170 00000000 		.4byte	.LC1
 4560 1174 1B       		.uleb128 0x1b
 4561 1175 01       		.uleb128 0x1
 4562 1176 52       		.byte	0x52
 4563 1177 05       		.uleb128 0x5
 4564 1178 03       		.byte	0x3
 4565 1179 C8000000 		.4byte	.LANCHOR1+48
 4566 117d 1B       		.uleb128 0x1b
 4567 117e 01       		.uleb128 0x1
 4568 117f 53       		.byte	0x53
 4569 1180 03       		.uleb128 0x3
 4570 1181 0A       		.byte	0xa
 4571 1182 4002     		.2byte	0x240
 4572 1184 1B       		.uleb128 0x1b
 4573 1185 02       		.uleb128 0x2
 4574 1186 7D       		.byte	0x7d
 4575 1187 00       		.sleb128 0
 4576 1188 01       		.uleb128 0x1
 4577 1189 31       		.byte	0x31
 4578 118a 1B       		.uleb128 0x1b
 4579 118b 02       		.uleb128 0x2
 4580 118c 7D       		.byte	0x7d
 4581 118d 04       		.sleb128 4
 4582 118e 05       		.uleb128 0x5
 4583 118f 03       		.byte	0x3
 4584 1190 8C030000 		.4byte	.LC60
 4585 1194 00       		.byte	0
 4586 1195 00       		.byte	0
 4587 1196 26       		.uleb128 0x26
 4588 1197 90000000 		.4byte	.Ldebug_ranges0+0x90
 4589 119b 24       		.uleb128 0x24
 4590 119c 06040000 		.4byte	.LASF86
 4591 11a0 01       		.byte	0x1
 4592 11a1 4802     		.2byte	0x248
 4593 11a3 CB000000 		.4byte	0xcb
 4594 11a7 25100000 		.4byte	.LLST62
 4595 11ab 24       		.uleb128 0x24
 4596 11ac 16070000 		.4byte	.LASF87
 4597 11b0 01       		.byte	0x1
 4598 11b1 4902     		.2byte	0x249
 4599 11b3 D6000000 		.4byte	0xd6
 4600 11b7 63100000 		.4byte	.LLST63
 4601 11bb 24       		.uleb128 0x24
 4602 11bc 50030000 		.4byte	.LASF88
 4603 11c0 01       		.byte	0x1
 4604 11c1 4A02     		.2byte	0x24a
ARM GAS  C:\Users\Phuong\AppData\Local\Temp\ccIIJJrV.s 			page 97


 4605 11c3 CB000000 		.4byte	0xcb
 4606 11c7 92110000 		.4byte	.LLST64
 4607 11cb 22       		.uleb128 0x22
 4608 11cc 6900     		.ascii	"i\000"
 4609 11ce 01       		.byte	0x1
 4610 11cf 4B02     		.2byte	0x24b
 4611 11d1 25000000 		.4byte	0x25
 4612 11d5 B0110000 		.4byte	.LLST65
 4613 11d9 24       		.uleb128 0x24
 4614 11da 5F040000 		.4byte	.LASF89
 4615 11de 01       		.byte	0x1
 4616 11df 4C02     		.2byte	0x24c
 4617 11e1 25000000 		.4byte	0x25
 4618 11e5 F0110000 		.4byte	.LLST66
 4619 11e9 24       		.uleb128 0x24
 4620 11ea 47070000 		.4byte	.LASF77
 4621 11ee 01       		.byte	0x1
 4622 11ef 4D02     		.2byte	0x24d
 4623 11f1 25000000 		.4byte	0x25
 4624 11f5 0E120000 		.4byte	.LLST67
 4625 11f9 17       		.uleb128 0x17
 4626 11fa CA000000 		.4byte	.LBB37
 4627 11fe 20000000 		.4byte	.LBE37-.LBB37
 4628 1202 55120000 		.4byte	0x1255
 4629 1206 22       		.uleb128 0x22
 4630 1207 6C00     		.ascii	"l\000"
 4631 1209 01       		.byte	0x1
 4632 120a 6002     		.2byte	0x260
 4633 120c 0F010000 		.4byte	0x10f
 4634 1210 43120000 		.4byte	.LLST68
 4635 1214 19       		.uleb128 0x19
 4636 1215 CE000000 		.4byte	.LVL268
 4637 1219 4A140000 		.4byte	0x144a
 4638 121d 1A       		.uleb128 0x1a
 4639 121e EA000000 		.4byte	.LVL271
 4640 1222 02       		.uleb128 0x2
 4641 1223 74       		.byte	0x74
 4642 1224 00       		.sleb128 0
 4643 1225 1B       		.uleb128 0x1b
 4644 1226 01       		.uleb128 0x1
 4645 1227 50       		.byte	0x50
 4646 1228 01       		.uleb128 0x1
 4647 1229 30       		.byte	0x30
 4648 122a 1B       		.uleb128 0x1b
 4649 122b 01       		.uleb128 0x1
 4650 122c 51       		.byte	0x51
 4651 122d 05       		.uleb128 0x5
 4652 122e 03       		.byte	0x3
 4653 122f 00000000 		.4byte	.LC1
 4654 1233 1B       		.uleb128 0x1b
 4655 1234 01       		.uleb128 0x1
 4656 1235 52       		.byte	0x52
 4657 1236 05       		.uleb128 0x5
 4658 1237 03       		.byte	0x3
 4659 1238 C8000000 		.4byte	.LANCHOR1+48
 4660 123c 1B       		.uleb128 0x1b
 4661 123d 01       		.uleb128 0x1
ARM GAS  C:\Users\Phuong\AppData\Local\Temp\ccIIJJrV.s 			page 98


 4662 123e 53       		.byte	0x53
 4663 123f 03       		.uleb128 0x3
 4664 1240 0A       		.byte	0xa
 4665 1241 6002     		.2byte	0x260
 4666 1243 1B       		.uleb128 0x1b
 4667 1244 02       		.uleb128 0x2
 4668 1245 7D       		.byte	0x7d
 4669 1246 00       		.sleb128 0
 4670 1247 01       		.uleb128 0x1
 4671 1248 31       		.byte	0x31
 4672 1249 1B       		.uleb128 0x1b
 4673 124a 02       		.uleb128 0x2
 4674 124b 7D       		.byte	0x7d
 4675 124c 04       		.sleb128 4
 4676 124d 05       		.uleb128 0x5
 4677 124e 03       		.byte	0x3
 4678 124f C0030000 		.4byte	.LC62
 4679 1253 00       		.byte	0
 4680 1254 00       		.byte	0
 4681 1255 17       		.uleb128 0x17
 4682 1256 F8000000 		.4byte	.LBB38
 4683 125a 1C000000 		.4byte	.LBE38-.LBB38
 4684 125e B1120000 		.4byte	0x12b1
 4685 1262 22       		.uleb128 0x22
 4686 1263 6C00     		.ascii	"l\000"
 4687 1265 01       		.byte	0x1
 4688 1266 6B02     		.2byte	0x26b
 4689 1268 0F010000 		.4byte	0x10f
 4690 126c 77120000 		.4byte	.LLST69
 4691 1270 19       		.uleb128 0x19
 4692 1271 FC000000 		.4byte	.LVL274
 4693 1275 4A140000 		.4byte	0x144a
 4694 1279 1A       		.uleb128 0x1a
 4695 127a 14010000 		.4byte	.LVL277
 4696 127e 02       		.uleb128 0x2
 4697 127f 74       		.byte	0x74
 4698 1280 00       		.sleb128 0
 4699 1281 1B       		.uleb128 0x1b
 4700 1282 01       		.uleb128 0x1
 4701 1283 50       		.byte	0x50
 4702 1284 01       		.uleb128 0x1
 4703 1285 30       		.byte	0x30
 4704 1286 1B       		.uleb128 0x1b
 4705 1287 01       		.uleb128 0x1
 4706 1288 51       		.byte	0x51
 4707 1289 05       		.uleb128 0x5
 4708 128a 03       		.byte	0x3
 4709 128b 00000000 		.4byte	.LC1
 4710 128f 1B       		.uleb128 0x1b
 4711 1290 01       		.uleb128 0x1
 4712 1291 52       		.byte	0x52
 4713 1292 05       		.uleb128 0x5
 4714 1293 03       		.byte	0x3
 4715 1294 C8000000 		.4byte	.LANCHOR1+48
 4716 1298 1B       		.uleb128 0x1b
 4717 1299 01       		.uleb128 0x1
 4718 129a 53       		.byte	0x53
ARM GAS  C:\Users\Phuong\AppData\Local\Temp\ccIIJJrV.s 			page 99


 4719 129b 03       		.uleb128 0x3
 4720 129c 0A       		.byte	0xa
 4721 129d 6B02     		.2byte	0x26b
 4722 129f 1B       		.uleb128 0x1b
 4723 12a0 02       		.uleb128 0x2
 4724 12a1 7D       		.byte	0x7d
 4725 12a2 00       		.sleb128 0
 4726 12a3 01       		.uleb128 0x1
 4727 12a4 31       		.byte	0x31
 4728 12a5 1B       		.uleb128 0x1b
 4729 12a6 02       		.uleb128 0x2
 4730 12a7 7D       		.byte	0x7d
 4731 12a8 04       		.sleb128 4
 4732 12a9 05       		.uleb128 0x5
 4733 12aa 03       		.byte	0x3
 4734 12ab D4030000 		.4byte	.LC64
 4735 12af 00       		.byte	0
 4736 12b0 00       		.byte	0
 4737 12b1 26       		.uleb128 0x26
 4738 12b2 A8000000 		.4byte	.Ldebug_ranges0+0xa8
 4739 12b6 24       		.uleb128 0x24
 4740 12b7 B0070000 		.4byte	.LASF90
 4741 12bb 01       		.byte	0x1
 4742 12bc 7102     		.2byte	0x271
 4743 12be A3000000 		.4byte	0xa3
 4744 12c2 AB120000 		.4byte	.LLST70
 4745 12c6 17       		.uleb128 0x17
 4746 12c7 26010000 		.4byte	.LBB40
 4747 12cb 1C000000 		.4byte	.LBE40-.LBB40
 4748 12cf 22130000 		.4byte	0x1322
 4749 12d3 22       		.uleb128 0x22
 4750 12d4 6C00     		.ascii	"l\000"
 4751 12d6 01       		.byte	0x1
 4752 12d7 7502     		.2byte	0x275
 4753 12d9 0F010000 		.4byte	0x10f
 4754 12dd EA120000 		.4byte	.LLST71
 4755 12e1 19       		.uleb128 0x19
 4756 12e2 2A010000 		.4byte	.LVL281
 4757 12e6 4A140000 		.4byte	0x144a
 4758 12ea 1A       		.uleb128 0x1a
 4759 12eb 42010000 		.4byte	.LVL284
 4760 12ef 02       		.uleb128 0x2
 4761 12f0 74       		.byte	0x74
 4762 12f1 00       		.sleb128 0
 4763 12f2 1B       		.uleb128 0x1b
 4764 12f3 01       		.uleb128 0x1
 4765 12f4 50       		.byte	0x50
 4766 12f5 01       		.uleb128 0x1
 4767 12f6 30       		.byte	0x30
 4768 12f7 1B       		.uleb128 0x1b
 4769 12f8 01       		.uleb128 0x1
 4770 12f9 51       		.byte	0x51
 4771 12fa 05       		.uleb128 0x5
 4772 12fb 03       		.byte	0x3
 4773 12fc 00000000 		.4byte	.LC1
 4774 1300 1B       		.uleb128 0x1b
 4775 1301 01       		.uleb128 0x1
ARM GAS  C:\Users\Phuong\AppData\Local\Temp\ccIIJJrV.s 			page 100


 4776 1302 52       		.byte	0x52
 4777 1303 05       		.uleb128 0x5
 4778 1304 03       		.byte	0x3
 4779 1305 C8000000 		.4byte	.LANCHOR1+48
 4780 1309 1B       		.uleb128 0x1b
 4781 130a 01       		.uleb128 0x1
 4782 130b 53       		.byte	0x53
 4783 130c 03       		.uleb128 0x3
 4784 130d 0A       		.byte	0xa
 4785 130e 7502     		.2byte	0x275
 4786 1310 1B       		.uleb128 0x1b
 4787 1311 02       		.uleb128 0x2
 4788 1312 7D       		.byte	0x7d
 4789 1313 00       		.sleb128 0
 4790 1314 01       		.uleb128 0x1
 4791 1315 31       		.byte	0x31
 4792 1316 1B       		.uleb128 0x1b
 4793 1317 02       		.uleb128 0x2
 4794 1318 7D       		.byte	0x7d
 4795 1319 04       		.sleb128 4
 4796 131a 05       		.uleb128 0x5
 4797 131b 03       		.byte	0x3
 4798 131c 10040000 		.4byte	.LC66
 4799 1320 00       		.byte	0
 4800 1321 00       		.byte	0
 4801 1322 17       		.uleb128 0x17
 4802 1323 46010000 		.4byte	.LBB41
 4803 1327 98000000 		.4byte	.LBE41-.LBB41
 4804 132b 07140000 		.4byte	0x1407
 4805 132f 29       		.uleb128 0x29
 4806 1330 E0050000 		.4byte	.LASF91
 4807 1334 01       		.byte	0x1
 4808 1335 8402     		.2byte	0x284
 4809 1337 3A140000 		.4byte	0x143a
 4810 133b 02       		.uleb128 0x2
 4811 133c 91       		.byte	0x91
 4812 133d 50       		.sleb128 -48
 4813 133e 24       		.uleb128 0x24
 4814 133f 69070000 		.4byte	.LASF92
 4815 1343 01       		.byte	0x1
 4816 1344 8502     		.2byte	0x285
 4817 1346 25000000 		.4byte	0x25
 4818 134a 13130000 		.4byte	.LLST72
 4819 134e 29       		.uleb128 0x29
 4820 134f A0000000 		.4byte	.LASF93
 4821 1353 01       		.byte	0x1
 4822 1354 8702     		.2byte	0x287
 4823 1356 B4000000 		.4byte	0xb4
 4824 135a 02       		.uleb128 0x2
 4825 135b 91       		.byte	0x91
 4826 135c 4C       		.sleb128 -52
 4827 135d 1E       		.uleb128 0x1e
 4828 135e 78010000 		.4byte	.LVL286
 4829 1362 97140000 		.4byte	0x1497
 4830 1366 76130000 		.4byte	0x1376
 4831 136a 1B       		.uleb128 0x1b
 4832 136b 01       		.uleb128 0x1
ARM GAS  C:\Users\Phuong\AppData\Local\Temp\ccIIJJrV.s 			page 101


 4833 136c 51       		.byte	0x51
 4834 136d 02       		.uleb128 0x2
 4835 136e 91       		.byte	0x91
 4836 136f 50       		.sleb128 -48
 4837 1370 1B       		.uleb128 0x1b
 4838 1371 01       		.uleb128 0x1
 4839 1372 52       		.byte	0x52
 4840 1373 01       		.uleb128 0x1
 4841 1374 36       		.byte	0x36
 4842 1375 00       		.byte	0
 4843 1376 1E       		.uleb128 0x1e
 4844 1377 88010000 		.4byte	.LVL287
 4845 137b 97140000 		.4byte	0x1497
 4846 137f 97130000 		.4byte	0x1397
 4847 1383 1B       		.uleb128 0x1b
 4848 1384 01       		.uleb128 0x1
 4849 1385 50       		.byte	0x50
 4850 1386 02       		.uleb128 0x2
 4851 1387 78       		.byte	0x78
 4852 1388 06       		.sleb128 6
 4853 1389 1B       		.uleb128 0x1b
 4854 138a 01       		.uleb128 0x1
 4855 138b 51       		.byte	0x51
 4856 138c 03       		.uleb128 0x3
 4857 138d 91       		.byte	0x91
 4858 138e 00       		.sleb128 0
 4859 138f 06       		.byte	0x6
 4860 1390 1B       		.uleb128 0x1b
 4861 1391 01       		.uleb128 0x1
 4862 1392 52       		.byte	0x52
 4863 1393 02       		.uleb128 0x2
 4864 1394 74       		.byte	0x74
 4865 1395 00       		.sleb128 0
 4866 1396 00       		.byte	0
 4867 1397 1E       		.uleb128 0x1e
 4868 1398 A0010000 		.4byte	.LVL291
 4869 139c 97140000 		.4byte	0x1497
 4870 13a0 BA130000 		.4byte	0x13ba
 4871 13a4 1B       		.uleb128 0x1b
 4872 13a5 01       		.uleb128 0x1
 4873 13a6 50       		.byte	0x50
 4874 13a7 05       		.uleb128 0x5
 4875 13a8 78       		.byte	0x78
 4876 13a9 00       		.sleb128 0
 4877 13aa 74       		.byte	0x74
 4878 13ab 00       		.sleb128 0
 4879 13ac 22       		.byte	0x22
 4880 13ad 1B       		.uleb128 0x1b
 4881 13ae 01       		.uleb128 0x1
 4882 13af 51       		.byte	0x51
 4883 13b0 02       		.uleb128 0x2
 4884 13b1 91       		.byte	0x91
 4885 13b2 4C       		.sleb128 -52
 4886 13b3 1B       		.uleb128 0x1b
 4887 13b4 01       		.uleb128 0x1
 4888 13b5 52       		.byte	0x52
 4889 13b6 02       		.uleb128 0x2
ARM GAS  C:\Users\Phuong\AppData\Local\Temp\ccIIJJrV.s 			page 102


 4890 13b7 79       		.byte	0x79
 4891 13b8 00       		.sleb128 0
 4892 13b9 00       		.byte	0
 4893 13ba 1E       		.uleb128 0x1e
 4894 13bb BA010000 		.4byte	.LVL295
 4895 13bf 97140000 		.4byte	0x1497
 4896 13c3 D1130000 		.4byte	0x13d1
 4897 13c7 1B       		.uleb128 0x1b
 4898 13c8 01       		.uleb128 0x1
 4899 13c9 50       		.byte	0x50
 4900 13ca 05       		.uleb128 0x5
 4901 13cb 78       		.byte	0x78
 4902 13cc 00       		.sleb128 0
 4903 13cd 74       		.byte	0x74
 4904 13ce 00       		.sleb128 0
 4905 13cf 22       		.byte	0x22
 4906 13d0 00       		.byte	0
 4907 13d1 25       		.uleb128 0x25
 4908 13d2 D4010000 		.4byte	.LVL299
 4909 13d6 02       		.uleb128 0x2
 4910 13d7 74       		.byte	0x74
 4911 13d8 00       		.sleb128 0
 4912 13d9 F6130000 		.4byte	0x13f6
 4913 13dd 1B       		.uleb128 0x1b
 4914 13de 01       		.uleb128 0x1
 4915 13df 50       		.byte	0x50
 4916 13e0 03       		.uleb128 0x3
 4917 13e1 91       		.byte	0x91
 4918 13e2 0C       		.sleb128 12
 4919 13e3 06       		.byte	0x6
 4920 13e4 1B       		.uleb128 0x1b
 4921 13e5 01       		.uleb128 0x1
 4922 13e6 51       		.byte	0x51
 4923 13e7 02       		.uleb128 0x2
 4924 13e8 78       		.byte	0x78
 4925 13e9 00       		.sleb128 0
 4926 13ea 1B       		.uleb128 0x1b
 4927 13eb 01       		.uleb128 0x1
 4928 13ec 52       		.byte	0x52
 4929 13ed 02       		.uleb128 0x2
 4930 13ee 7B       		.byte	0x7b
 4931 13ef 00       		.sleb128 0
 4932 13f0 1B       		.uleb128 0x1b
 4933 13f1 01       		.uleb128 0x1
 4934 13f2 53       		.byte	0x53
 4935 13f3 01       		.uleb128 0x1
 4936 13f4 31       		.byte	0x31
 4937 13f5 00       		.byte	0
 4938 13f6 1C       		.uleb128 0x1c
 4939 13f7 DA010000 		.4byte	.LVL300
 4940 13fb 81140000 		.4byte	0x1481
 4941 13ff 1B       		.uleb128 0x1b
 4942 1400 01       		.uleb128 0x1
 4943 1401 50       		.byte	0x50
 4944 1402 02       		.uleb128 0x2
 4945 1403 78       		.byte	0x78
 4946 1404 00       		.sleb128 0
ARM GAS  C:\Users\Phuong\AppData\Local\Temp\ccIIJJrV.s 			page 103


 4947 1405 00       		.byte	0
 4948 1406 00       		.byte	0
 4949 1407 1C       		.uleb128 0x1c
 4950 1408 20010000 		.4byte	.LVL279
 4951 140c 60140000 		.4byte	0x1460
 4952 1410 1B       		.uleb128 0x1b
 4953 1411 01       		.uleb128 0x1
 4954 1412 50       		.byte	0x50
 4955 1413 02       		.uleb128 0x2
 4956 1414 7B       		.byte	0x7b
 4957 1415 00       		.sleb128 0
 4958 1416 00       		.byte	0
 4959 1417 00       		.byte	0
 4960 1418 00       		.byte	0
 4961 1419 00       		.byte	0
 4962 141a 06       		.uleb128 0x6
 4963 141b 04       		.byte	0x4
 4964 141c 20140000 		.4byte	0x1420
 4965 1420 07       		.uleb128 0x7
 4966 1421 A8010000 		.4byte	0x1a8
 4967 1425 08       		.uleb128 0x8
 4968 1426 AF000000 		.4byte	0xaf
 4969 142a 35140000 		.4byte	0x1435
 4970 142e 09       		.uleb128 0x9
 4971 142f 93000000 		.4byte	0x93
 4972 1433 18       		.byte	0x18
 4973 1434 00       		.byte	0
 4974 1435 07       		.uleb128 0x7
 4975 1436 25140000 		.4byte	0x1425
 4976 143a 08       		.uleb128 0x8
 4977 143b 5E000000 		.4byte	0x5e
 4978 143f 4A140000 		.4byte	0x144a
 4979 1443 09       		.uleb128 0x9
 4980 1444 93000000 		.4byte	0x93
 4981 1448 05       		.byte	0x5
 4982 1449 00       		.byte	0
 4983 144a 2B       		.uleb128 0x2b
 4984 144b 11000000 		.4byte	.LASF94
 4985 144f 11000000 		.4byte	.LASF94
 4986 1453 05       		.byte	0x5
 4987 1454 9D       		.byte	0x9d
 4988 1455 2B       		.uleb128 0x2b
 4989 1456 A5020000 		.4byte	.LASF95
 4990 145a A5020000 		.4byte	.LASF95
 4991 145e 06       		.byte	0x6
 4992 145f 31       		.byte	0x31
 4993 1460 2B       		.uleb128 0x2b
 4994 1461 BF000000 		.4byte	.LASF96
 4995 1465 BF000000 		.4byte	.LASF96
 4996 1469 08       		.byte	0x8
 4997 146a 64       		.byte	0x64
 4998 146b 2B       		.uleb128 0x2b
 4999 146c BE070000 		.4byte	.LASF97
 5000 1470 BE070000 		.4byte	.LASF97
 5001 1474 06       		.byte	0x6
 5002 1475 29       		.byte	0x29
 5003 1476 2B       		.uleb128 0x2b
ARM GAS  C:\Users\Phuong\AppData\Local\Temp\ccIIJJrV.s 			page 104


 5004 1477 2C040000 		.4byte	.LASF98
 5005 147b 2C040000 		.4byte	.LASF98
 5006 147f 06       		.byte	0x6
 5007 1480 2A       		.byte	0x2a
 5008 1481 2B       		.uleb128 0x2b
 5009 1482 CE020000 		.4byte	.LASF99
 5010 1486 CE020000 		.4byte	.LASF99
 5011 148a 08       		.byte	0x8
 5012 148b 59       		.byte	0x59
 5013 148c 2B       		.uleb128 0x2b
 5014 148d 32000000 		.4byte	.LASF100
 5015 1491 32000000 		.4byte	.LASF100
 5016 1495 06       		.byte	0x6
 5017 1496 30       		.byte	0x30
 5018 1497 2C       		.uleb128 0x2c
 5019 1498 29020000 		.4byte	.LASF108
 5020 149c 29020000 		.4byte	.LASF108
 5021 14a0 2B       		.uleb128 0x2b
 5022 14a1 63030000 		.4byte	.LASF101
 5023 14a5 63030000 		.4byte	.LASF101
 5024 14a9 06       		.byte	0x6
 5025 14aa 2B       		.byte	0x2b
 5026 14ab 2B       		.uleb128 0x2b
 5027 14ac 25030000 		.4byte	.LASF102
 5028 14b0 25030000 		.4byte	.LASF102
 5029 14b4 06       		.byte	0x6
 5030 14b5 2D       		.byte	0x2d
 5031 14b6 00       		.byte	0
 5032              		.section	.debug_abbrev,"",%progbits
 5033              	.Ldebug_abbrev0:
 5034 0000 01       		.uleb128 0x1
 5035 0001 11       		.uleb128 0x11
 5036 0002 01       		.byte	0x1
 5037 0003 25       		.uleb128 0x25
 5038 0004 0E       		.uleb128 0xe
 5039 0005 13       		.uleb128 0x13
 5040 0006 0B       		.uleb128 0xb
 5041 0007 03       		.uleb128 0x3
 5042 0008 0E       		.uleb128 0xe
 5043 0009 1B       		.uleb128 0x1b
 5044 000a 0E       		.uleb128 0xe
 5045 000b 55       		.uleb128 0x55
 5046 000c 17       		.uleb128 0x17
 5047 000d 11       		.uleb128 0x11
 5048 000e 01       		.uleb128 0x1
 5049 000f 10       		.uleb128 0x10
 5050 0010 17       		.uleb128 0x17
 5051 0011 00       		.byte	0
 5052 0012 00       		.byte	0
 5053 0013 02       		.uleb128 0x2
 5054 0014 16       		.uleb128 0x16
 5055 0015 00       		.byte	0
 5056 0016 03       		.uleb128 0x3
 5057 0017 0E       		.uleb128 0xe
 5058 0018 3A       		.uleb128 0x3a
 5059 0019 0B       		.uleb128 0xb
 5060 001a 3B       		.uleb128 0x3b
ARM GAS  C:\Users\Phuong\AppData\Local\Temp\ccIIJJrV.s 			page 105


 5061 001b 0B       		.uleb128 0xb
 5062 001c 49       		.uleb128 0x49
 5063 001d 13       		.uleb128 0x13
 5064 001e 00       		.byte	0
 5065 001f 00       		.byte	0
 5066 0020 03       		.uleb128 0x3
 5067 0021 24       		.uleb128 0x24
 5068 0022 00       		.byte	0
 5069 0023 0B       		.uleb128 0xb
 5070 0024 0B       		.uleb128 0xb
 5071 0025 3E       		.uleb128 0x3e
 5072 0026 0B       		.uleb128 0xb
 5073 0027 03       		.uleb128 0x3
 5074 0028 0E       		.uleb128 0xe
 5075 0029 00       		.byte	0
 5076 002a 00       		.byte	0
 5077 002b 04       		.uleb128 0x4
 5078 002c 24       		.uleb128 0x24
 5079 002d 00       		.byte	0
 5080 002e 0B       		.uleb128 0xb
 5081 002f 0B       		.uleb128 0xb
 5082 0030 3E       		.uleb128 0x3e
 5083 0031 0B       		.uleb128 0xb
 5084 0032 03       		.uleb128 0x3
 5085 0033 08       		.uleb128 0x8
 5086 0034 00       		.byte	0
 5087 0035 00       		.byte	0
 5088 0036 05       		.uleb128 0x5
 5089 0037 0F       		.uleb128 0xf
 5090 0038 00       		.byte	0
 5091 0039 0B       		.uleb128 0xb
 5092 003a 0B       		.uleb128 0xb
 5093 003b 00       		.byte	0
 5094 003c 00       		.byte	0
 5095 003d 06       		.uleb128 0x6
 5096 003e 0F       		.uleb128 0xf
 5097 003f 00       		.byte	0
 5098 0040 0B       		.uleb128 0xb
 5099 0041 0B       		.uleb128 0xb
 5100 0042 49       		.uleb128 0x49
 5101 0043 13       		.uleb128 0x13
 5102 0044 00       		.byte	0
 5103 0045 00       		.byte	0
 5104 0046 07       		.uleb128 0x7
 5105 0047 26       		.uleb128 0x26
 5106 0048 00       		.byte	0
 5107 0049 49       		.uleb128 0x49
 5108 004a 13       		.uleb128 0x13
 5109 004b 00       		.byte	0
 5110 004c 00       		.byte	0
 5111 004d 08       		.uleb128 0x8
 5112 004e 01       		.uleb128 0x1
 5113 004f 01       		.byte	0x1
 5114 0050 49       		.uleb128 0x49
 5115 0051 13       		.uleb128 0x13
 5116 0052 01       		.uleb128 0x1
 5117 0053 13       		.uleb128 0x13
ARM GAS  C:\Users\Phuong\AppData\Local\Temp\ccIIJJrV.s 			page 106


 5118 0054 00       		.byte	0
 5119 0055 00       		.byte	0
 5120 0056 09       		.uleb128 0x9
 5121 0057 21       		.uleb128 0x21
 5122 0058 00       		.byte	0
 5123 0059 49       		.uleb128 0x49
 5124 005a 13       		.uleb128 0x13
 5125 005b 2F       		.uleb128 0x2f
 5126 005c 0B       		.uleb128 0xb
 5127 005d 00       		.byte	0
 5128 005e 00       		.byte	0
 5129 005f 0A       		.uleb128 0xa
 5130 0060 26       		.uleb128 0x26
 5131 0061 00       		.byte	0
 5132 0062 00       		.byte	0
 5133 0063 00       		.byte	0
 5134 0064 0B       		.uleb128 0xb
 5135 0065 04       		.uleb128 0x4
 5136 0066 01       		.byte	0x1
 5137 0067 03       		.uleb128 0x3
 5138 0068 0E       		.uleb128 0xe
 5139 0069 0B       		.uleb128 0xb
 5140 006a 0B       		.uleb128 0xb
 5141 006b 49       		.uleb128 0x49
 5142 006c 13       		.uleb128 0x13
 5143 006d 3A       		.uleb128 0x3a
 5144 006e 0B       		.uleb128 0xb
 5145 006f 3B       		.uleb128 0x3b
 5146 0070 0B       		.uleb128 0xb
 5147 0071 01       		.uleb128 0x1
 5148 0072 13       		.uleb128 0x13
 5149 0073 00       		.byte	0
 5150 0074 00       		.byte	0
 5151 0075 0C       		.uleb128 0xc
 5152 0076 28       		.uleb128 0x28
 5153 0077 00       		.byte	0
 5154 0078 03       		.uleb128 0x3
 5155 0079 0E       		.uleb128 0xe
 5156 007a 1C       		.uleb128 0x1c
 5157 007b 0B       		.uleb128 0xb
 5158 007c 00       		.byte	0
 5159 007d 00       		.byte	0
 5160 007e 0D       		.uleb128 0xd
 5161 007f 15       		.uleb128 0x15
 5162 0080 01       		.byte	0x1
 5163 0081 27       		.uleb128 0x27
 5164 0082 19       		.uleb128 0x19
 5165 0083 01       		.uleb128 0x1
 5166 0084 13       		.uleb128 0x13
 5167 0085 00       		.byte	0
 5168 0086 00       		.byte	0
 5169 0087 0E       		.uleb128 0xe
 5170 0088 05       		.uleb128 0x5
 5171 0089 00       		.byte	0
 5172 008a 49       		.uleb128 0x49
 5173 008b 13       		.uleb128 0x13
 5174 008c 00       		.byte	0
ARM GAS  C:\Users\Phuong\AppData\Local\Temp\ccIIJJrV.s 			page 107


 5175 008d 00       		.byte	0
 5176 008e 0F       		.uleb128 0xf
 5177 008f 18       		.uleb128 0x18
 5178 0090 00       		.byte	0
 5179 0091 00       		.byte	0
 5180 0092 00       		.byte	0
 5181 0093 10       		.uleb128 0x10
 5182 0094 13       		.uleb128 0x13
 5183 0095 00       		.byte	0
 5184 0096 03       		.uleb128 0x3
 5185 0097 0E       		.uleb128 0xe
 5186 0098 3C       		.uleb128 0x3c
 5187 0099 19       		.uleb128 0x19
 5188 009a 00       		.byte	0
 5189 009b 00       		.byte	0
 5190 009c 11       		.uleb128 0x11
 5191 009d 13       		.uleb128 0x13
 5192 009e 01       		.byte	0x1
 5193 009f 03       		.uleb128 0x3
 5194 00a0 0E       		.uleb128 0xe
 5195 00a1 0B       		.uleb128 0xb
 5196 00a2 0B       		.uleb128 0xb
 5197 00a3 3A       		.uleb128 0x3a
 5198 00a4 0B       		.uleb128 0xb
 5199 00a5 3B       		.uleb128 0x3b
 5200 00a6 0B       		.uleb128 0xb
 5201 00a7 01       		.uleb128 0x1
 5202 00a8 13       		.uleb128 0x13
 5203 00a9 00       		.byte	0
 5204 00aa 00       		.byte	0
 5205 00ab 12       		.uleb128 0x12
 5206 00ac 0D       		.uleb128 0xd
 5207 00ad 00       		.byte	0
 5208 00ae 03       		.uleb128 0x3
 5209 00af 0E       		.uleb128 0xe
 5210 00b0 3A       		.uleb128 0x3a
 5211 00b1 0B       		.uleb128 0xb
 5212 00b2 3B       		.uleb128 0x3b
 5213 00b3 0B       		.uleb128 0xb
 5214 00b4 49       		.uleb128 0x49
 5215 00b5 13       		.uleb128 0x13
 5216 00b6 38       		.uleb128 0x38
 5217 00b7 0B       		.uleb128 0xb
 5218 00b8 00       		.byte	0
 5219 00b9 00       		.byte	0
 5220 00ba 13       		.uleb128 0x13
 5221 00bb 2E       		.uleb128 0x2e
 5222 00bc 01       		.byte	0x1
 5223 00bd 03       		.uleb128 0x3
 5224 00be 0E       		.uleb128 0xe
 5225 00bf 3A       		.uleb128 0x3a
 5226 00c0 0B       		.uleb128 0xb
 5227 00c1 3B       		.uleb128 0x3b
 5228 00c2 0B       		.uleb128 0xb
 5229 00c3 27       		.uleb128 0x27
 5230 00c4 19       		.uleb128 0x19
 5231 00c5 49       		.uleb128 0x49
ARM GAS  C:\Users\Phuong\AppData\Local\Temp\ccIIJJrV.s 			page 108


 5232 00c6 13       		.uleb128 0x13
 5233 00c7 11       		.uleb128 0x11
 5234 00c8 01       		.uleb128 0x1
 5235 00c9 12       		.uleb128 0x12
 5236 00ca 06       		.uleb128 0x6
 5237 00cb 40       		.uleb128 0x40
 5238 00cc 18       		.uleb128 0x18
 5239 00cd 9742     		.uleb128 0x2117
 5240 00cf 19       		.uleb128 0x19
 5241 00d0 01       		.uleb128 0x1
 5242 00d1 13       		.uleb128 0x13
 5243 00d2 00       		.byte	0
 5244 00d3 00       		.byte	0
 5245 00d4 14       		.uleb128 0x14
 5246 00d5 05       		.uleb128 0x5
 5247 00d6 00       		.byte	0
 5248 00d7 03       		.uleb128 0x3
 5249 00d8 0E       		.uleb128 0xe
 5250 00d9 3A       		.uleb128 0x3a
 5251 00da 0B       		.uleb128 0xb
 5252 00db 3B       		.uleb128 0x3b
 5253 00dc 0B       		.uleb128 0xb
 5254 00dd 49       		.uleb128 0x49
 5255 00de 13       		.uleb128 0x13
 5256 00df 02       		.uleb128 0x2
 5257 00e0 17       		.uleb128 0x17
 5258 00e1 00       		.byte	0
 5259 00e2 00       		.byte	0
 5260 00e3 15       		.uleb128 0x15
 5261 00e4 34       		.uleb128 0x34
 5262 00e5 00       		.byte	0
 5263 00e6 03       		.uleb128 0x3
 5264 00e7 0E       		.uleb128 0xe
 5265 00e8 3A       		.uleb128 0x3a
 5266 00e9 0B       		.uleb128 0xb
 5267 00ea 3B       		.uleb128 0x3b
 5268 00eb 0B       		.uleb128 0xb
 5269 00ec 49       		.uleb128 0x49
 5270 00ed 13       		.uleb128 0x13
 5271 00ee 02       		.uleb128 0x2
 5272 00ef 17       		.uleb128 0x17
 5273 00f0 00       		.byte	0
 5274 00f1 00       		.byte	0
 5275 00f2 16       		.uleb128 0x16
 5276 00f3 34       		.uleb128 0x34
 5277 00f4 00       		.byte	0
 5278 00f5 03       		.uleb128 0x3
 5279 00f6 0E       		.uleb128 0xe
 5280 00f7 49       		.uleb128 0x49
 5281 00f8 13       		.uleb128 0x13
 5282 00f9 34       		.uleb128 0x34
 5283 00fa 19       		.uleb128 0x19
 5284 00fb 02       		.uleb128 0x2
 5285 00fc 18       		.uleb128 0x18
 5286 00fd 00       		.byte	0
 5287 00fe 00       		.byte	0
 5288 00ff 17       		.uleb128 0x17
ARM GAS  C:\Users\Phuong\AppData\Local\Temp\ccIIJJrV.s 			page 109


 5289 0100 0B       		.uleb128 0xb
 5290 0101 01       		.byte	0x1
 5291 0102 11       		.uleb128 0x11
 5292 0103 01       		.uleb128 0x1
 5293 0104 12       		.uleb128 0x12
 5294 0105 06       		.uleb128 0x6
 5295 0106 01       		.uleb128 0x1
 5296 0107 13       		.uleb128 0x13
 5297 0108 00       		.byte	0
 5298 0109 00       		.byte	0
 5299 010a 18       		.uleb128 0x18
 5300 010b 34       		.uleb128 0x34
 5301 010c 00       		.byte	0
 5302 010d 03       		.uleb128 0x3
 5303 010e 08       		.uleb128 0x8
 5304 010f 3A       		.uleb128 0x3a
 5305 0110 0B       		.uleb128 0xb
 5306 0111 3B       		.uleb128 0x3b
 5307 0112 0B       		.uleb128 0xb
 5308 0113 49       		.uleb128 0x49
 5309 0114 13       		.uleb128 0x13
 5310 0115 02       		.uleb128 0x2
 5311 0116 17       		.uleb128 0x17
 5312 0117 00       		.byte	0
 5313 0118 00       		.byte	0
 5314 0119 19       		.uleb128 0x19
 5315 011a 898201   		.uleb128 0x4109
 5316 011d 00       		.byte	0
 5317 011e 11       		.uleb128 0x11
 5318 011f 01       		.uleb128 0x1
 5319 0120 31       		.uleb128 0x31
 5320 0121 13       		.uleb128 0x13
 5321 0122 00       		.byte	0
 5322 0123 00       		.byte	0
 5323 0124 1A       		.uleb128 0x1a
 5324 0125 898201   		.uleb128 0x4109
 5325 0128 01       		.byte	0x1
 5326 0129 11       		.uleb128 0x11
 5327 012a 01       		.uleb128 0x1
 5328 012b 9342     		.uleb128 0x2113
 5329 012d 18       		.uleb128 0x18
 5330 012e 00       		.byte	0
 5331 012f 00       		.byte	0
 5332 0130 1B       		.uleb128 0x1b
 5333 0131 8A8201   		.uleb128 0x410a
 5334 0134 00       		.byte	0
 5335 0135 02       		.uleb128 0x2
 5336 0136 18       		.uleb128 0x18
 5337 0137 9142     		.uleb128 0x2111
 5338 0139 18       		.uleb128 0x18
 5339 013a 00       		.byte	0
 5340 013b 00       		.byte	0
 5341 013c 1C       		.uleb128 0x1c
 5342 013d 898201   		.uleb128 0x4109
 5343 0140 01       		.byte	0x1
 5344 0141 11       		.uleb128 0x11
 5345 0142 01       		.uleb128 0x1
ARM GAS  C:\Users\Phuong\AppData\Local\Temp\ccIIJJrV.s 			page 110


 5346 0143 31       		.uleb128 0x31
 5347 0144 13       		.uleb128 0x13
 5348 0145 00       		.byte	0
 5349 0146 00       		.byte	0
 5350 0147 1D       		.uleb128 0x1d
 5351 0148 2E       		.uleb128 0x2e
 5352 0149 01       		.byte	0x1
 5353 014a 3F       		.uleb128 0x3f
 5354 014b 19       		.uleb128 0x19
 5355 014c 03       		.uleb128 0x3
 5356 014d 0E       		.uleb128 0xe
 5357 014e 3A       		.uleb128 0x3a
 5358 014f 0B       		.uleb128 0xb
 5359 0150 3B       		.uleb128 0x3b
 5360 0151 0B       		.uleb128 0xb
 5361 0152 27       		.uleb128 0x27
 5362 0153 19       		.uleb128 0x19
 5363 0154 49       		.uleb128 0x49
 5364 0155 13       		.uleb128 0x13
 5365 0156 11       		.uleb128 0x11
 5366 0157 01       		.uleb128 0x1
 5367 0158 12       		.uleb128 0x12
 5368 0159 06       		.uleb128 0x6
 5369 015a 40       		.uleb128 0x40
 5370 015b 18       		.uleb128 0x18
 5371 015c 9742     		.uleb128 0x2117
 5372 015e 19       		.uleb128 0x19
 5373 015f 01       		.uleb128 0x1
 5374 0160 13       		.uleb128 0x13
 5375 0161 00       		.byte	0
 5376 0162 00       		.byte	0
 5377 0163 1E       		.uleb128 0x1e
 5378 0164 898201   		.uleb128 0x4109
 5379 0167 01       		.byte	0x1
 5380 0168 11       		.uleb128 0x11
 5381 0169 01       		.uleb128 0x1
 5382 016a 31       		.uleb128 0x31
 5383 016b 13       		.uleb128 0x13
 5384 016c 01       		.uleb128 0x1
 5385 016d 13       		.uleb128 0x13
 5386 016e 00       		.byte	0
 5387 016f 00       		.byte	0
 5388 0170 1F       		.uleb128 0x1f
 5389 0171 2E       		.uleb128 0x2e
 5390 0172 01       		.byte	0x1
 5391 0173 3F       		.uleb128 0x3f
 5392 0174 19       		.uleb128 0x19
 5393 0175 03       		.uleb128 0x3
 5394 0176 0E       		.uleb128 0xe
 5395 0177 3A       		.uleb128 0x3a
 5396 0178 0B       		.uleb128 0xb
 5397 0179 3B       		.uleb128 0x3b
 5398 017a 0B       		.uleb128 0xb
 5399 017b 27       		.uleb128 0x27
 5400 017c 19       		.uleb128 0x19
 5401 017d 11       		.uleb128 0x11
 5402 017e 01       		.uleb128 0x1
ARM GAS  C:\Users\Phuong\AppData\Local\Temp\ccIIJJrV.s 			page 111


 5403 017f 12       		.uleb128 0x12
 5404 0180 06       		.uleb128 0x6
 5405 0181 40       		.uleb128 0x40
 5406 0182 18       		.uleb128 0x18
 5407 0183 9742     		.uleb128 0x2117
 5408 0185 19       		.uleb128 0x19
 5409 0186 01       		.uleb128 0x1
 5410 0187 13       		.uleb128 0x13
 5411 0188 00       		.byte	0
 5412 0189 00       		.byte	0
 5413 018a 20       		.uleb128 0x20
 5414 018b 0B       		.uleb128 0xb
 5415 018c 01       		.byte	0x1
 5416 018d 11       		.uleb128 0x11
 5417 018e 01       		.uleb128 0x1
 5418 018f 12       		.uleb128 0x12
 5419 0190 06       		.uleb128 0x6
 5420 0191 00       		.byte	0
 5421 0192 00       		.byte	0
 5422 0193 21       		.uleb128 0x21
 5423 0194 2E       		.uleb128 0x2e
 5424 0195 01       		.byte	0x1
 5425 0196 3F       		.uleb128 0x3f
 5426 0197 19       		.uleb128 0x19
 5427 0198 03       		.uleb128 0x3
 5428 0199 0E       		.uleb128 0xe
 5429 019a 3A       		.uleb128 0x3a
 5430 019b 0B       		.uleb128 0xb
 5431 019c 3B       		.uleb128 0x3b
 5432 019d 0B       		.uleb128 0xb
 5433 019e 27       		.uleb128 0x27
 5434 019f 19       		.uleb128 0x19
 5435 01a0 49       		.uleb128 0x49
 5436 01a1 13       		.uleb128 0x13
 5437 01a2 11       		.uleb128 0x11
 5438 01a3 01       		.uleb128 0x1
 5439 01a4 12       		.uleb128 0x12
 5440 01a5 06       		.uleb128 0x6
 5441 01a6 40       		.uleb128 0x40
 5442 01a7 18       		.uleb128 0x18
 5443 01a8 9642     		.uleb128 0x2116
 5444 01aa 19       		.uleb128 0x19
 5445 01ab 01       		.uleb128 0x1
 5446 01ac 13       		.uleb128 0x13
 5447 01ad 00       		.byte	0
 5448 01ae 00       		.byte	0
 5449 01af 22       		.uleb128 0x22
 5450 01b0 34       		.uleb128 0x34
 5451 01b1 00       		.byte	0
 5452 01b2 03       		.uleb128 0x3
 5453 01b3 08       		.uleb128 0x8
 5454 01b4 3A       		.uleb128 0x3a
 5455 01b5 0B       		.uleb128 0xb
 5456 01b6 3B       		.uleb128 0x3b
 5457 01b7 05       		.uleb128 0x5
 5458 01b8 49       		.uleb128 0x49
 5459 01b9 13       		.uleb128 0x13
ARM GAS  C:\Users\Phuong\AppData\Local\Temp\ccIIJJrV.s 			page 112


 5460 01ba 02       		.uleb128 0x2
 5461 01bb 17       		.uleb128 0x17
 5462 01bc 00       		.byte	0
 5463 01bd 00       		.byte	0
 5464 01be 23       		.uleb128 0x23
 5465 01bf 0B       		.uleb128 0xb
 5466 01c0 01       		.byte	0x1
 5467 01c1 55       		.uleb128 0x55
 5468 01c2 17       		.uleb128 0x17
 5469 01c3 01       		.uleb128 0x1
 5470 01c4 13       		.uleb128 0x13
 5471 01c5 00       		.byte	0
 5472 01c6 00       		.byte	0
 5473 01c7 24       		.uleb128 0x24
 5474 01c8 34       		.uleb128 0x34
 5475 01c9 00       		.byte	0
 5476 01ca 03       		.uleb128 0x3
 5477 01cb 0E       		.uleb128 0xe
 5478 01cc 3A       		.uleb128 0x3a
 5479 01cd 0B       		.uleb128 0xb
 5480 01ce 3B       		.uleb128 0x3b
 5481 01cf 05       		.uleb128 0x5
 5482 01d0 49       		.uleb128 0x49
 5483 01d1 13       		.uleb128 0x13
 5484 01d2 02       		.uleb128 0x2
 5485 01d3 17       		.uleb128 0x17
 5486 01d4 00       		.byte	0
 5487 01d5 00       		.byte	0
 5488 01d6 25       		.uleb128 0x25
 5489 01d7 898201   		.uleb128 0x4109
 5490 01da 01       		.byte	0x1
 5491 01db 11       		.uleb128 0x11
 5492 01dc 01       		.uleb128 0x1
 5493 01dd 9342     		.uleb128 0x2113
 5494 01df 18       		.uleb128 0x18
 5495 01e0 01       		.uleb128 0x1
 5496 01e1 13       		.uleb128 0x13
 5497 01e2 00       		.byte	0
 5498 01e3 00       		.byte	0
 5499 01e4 26       		.uleb128 0x26
 5500 01e5 0B       		.uleb128 0xb
 5501 01e6 01       		.byte	0x1
 5502 01e7 55       		.uleb128 0x55
 5503 01e8 17       		.uleb128 0x17
 5504 01e9 00       		.byte	0
 5505 01ea 00       		.byte	0
 5506 01eb 27       		.uleb128 0x27
 5507 01ec 2E       		.uleb128 0x2e
 5508 01ed 01       		.byte	0x1
 5509 01ee 3F       		.uleb128 0x3f
 5510 01ef 19       		.uleb128 0x19
 5511 01f0 03       		.uleb128 0x3
 5512 01f1 0E       		.uleb128 0xe
 5513 01f2 3A       		.uleb128 0x3a
 5514 01f3 0B       		.uleb128 0xb
 5515 01f4 3B       		.uleb128 0x3b
 5516 01f5 05       		.uleb128 0x5
ARM GAS  C:\Users\Phuong\AppData\Local\Temp\ccIIJJrV.s 			page 113


 5517 01f6 27       		.uleb128 0x27
 5518 01f7 19       		.uleb128 0x19
 5519 01f8 49       		.uleb128 0x49
 5520 01f9 13       		.uleb128 0x13
 5521 01fa 11       		.uleb128 0x11
 5522 01fb 01       		.uleb128 0x1
 5523 01fc 12       		.uleb128 0x12
 5524 01fd 06       		.uleb128 0x6
 5525 01fe 40       		.uleb128 0x40
 5526 01ff 18       		.uleb128 0x18
 5527 0200 9742     		.uleb128 0x2117
 5528 0202 19       		.uleb128 0x19
 5529 0203 01       		.uleb128 0x1
 5530 0204 13       		.uleb128 0x13
 5531 0205 00       		.byte	0
 5532 0206 00       		.byte	0
 5533 0207 28       		.uleb128 0x28
 5534 0208 05       		.uleb128 0x5
 5535 0209 00       		.byte	0
 5536 020a 03       		.uleb128 0x3
 5537 020b 0E       		.uleb128 0xe
 5538 020c 3A       		.uleb128 0x3a
 5539 020d 0B       		.uleb128 0xb
 5540 020e 3B       		.uleb128 0x3b
 5541 020f 05       		.uleb128 0x5
 5542 0210 49       		.uleb128 0x49
 5543 0211 13       		.uleb128 0x13
 5544 0212 02       		.uleb128 0x2
 5545 0213 17       		.uleb128 0x17
 5546 0214 00       		.byte	0
 5547 0215 00       		.byte	0
 5548 0216 29       		.uleb128 0x29
 5549 0217 34       		.uleb128 0x34
 5550 0218 00       		.byte	0
 5551 0219 03       		.uleb128 0x3
 5552 021a 0E       		.uleb128 0xe
 5553 021b 3A       		.uleb128 0x3a
 5554 021c 0B       		.uleb128 0xb
 5555 021d 3B       		.uleb128 0x3b
 5556 021e 05       		.uleb128 0x5
 5557 021f 49       		.uleb128 0x49
 5558 0220 13       		.uleb128 0x13
 5559 0221 02       		.uleb128 0x2
 5560 0222 18       		.uleb128 0x18
 5561 0223 00       		.byte	0
 5562 0224 00       		.byte	0
 5563 0225 2A       		.uleb128 0x2a
 5564 0226 05       		.uleb128 0x5
 5565 0227 00       		.byte	0
 5566 0228 03       		.uleb128 0x3
 5567 0229 0E       		.uleb128 0xe
 5568 022a 3A       		.uleb128 0x3a
 5569 022b 0B       		.uleb128 0xb
 5570 022c 3B       		.uleb128 0x3b
 5571 022d 05       		.uleb128 0x5
 5572 022e 49       		.uleb128 0x49
 5573 022f 13       		.uleb128 0x13
ARM GAS  C:\Users\Phuong\AppData\Local\Temp\ccIIJJrV.s 			page 114


 5574 0230 02       		.uleb128 0x2
 5575 0231 18       		.uleb128 0x18
 5576 0232 00       		.byte	0
 5577 0233 00       		.byte	0
 5578 0234 2B       		.uleb128 0x2b
 5579 0235 2E       		.uleb128 0x2e
 5580 0236 00       		.byte	0
 5581 0237 3F       		.uleb128 0x3f
 5582 0238 19       		.uleb128 0x19
 5583 0239 3C       		.uleb128 0x3c
 5584 023a 19       		.uleb128 0x19
 5585 023b 6E       		.uleb128 0x6e
 5586 023c 0E       		.uleb128 0xe
 5587 023d 03       		.uleb128 0x3
 5588 023e 0E       		.uleb128 0xe
 5589 023f 3A       		.uleb128 0x3a
 5590 0240 0B       		.uleb128 0xb
 5591 0241 3B       		.uleb128 0x3b
 5592 0242 0B       		.uleb128 0xb
 5593 0243 00       		.byte	0
 5594 0244 00       		.byte	0
 5595 0245 2C       		.uleb128 0x2c
 5596 0246 2E       		.uleb128 0x2e
 5597 0247 00       		.byte	0
 5598 0248 3F       		.uleb128 0x3f
 5599 0249 19       		.uleb128 0x19
 5600 024a 3C       		.uleb128 0x3c
 5601 024b 19       		.uleb128 0x19
 5602 024c 6E       		.uleb128 0x6e
 5603 024d 0E       		.uleb128 0xe
 5604 024e 03       		.uleb128 0x3
 5605 024f 0E       		.uleb128 0xe
 5606 0250 00       		.byte	0
 5607 0251 00       		.byte	0
 5608 0252 00       		.byte	0
 5609              		.section	.debug_loc,"",%progbits
 5610              	.Ldebug_loc0:
 5611              	.LLST0:
 5612 0000 00000000 		.4byte	.LVL0
 5613 0004 09000000 		.4byte	.LVL1-1
 5614 0008 0100     		.2byte	0x1
 5615 000a 50       		.byte	0x50
 5616 000b 09000000 		.4byte	.LVL1-1
 5617 000f 4C000000 		.4byte	.LFE1
 5618 0013 0400     		.2byte	0x4
 5619 0015 F3       		.byte	0xf3
 5620 0016 01       		.uleb128 0x1
 5621 0017 50       		.byte	0x50
 5622 0018 9F       		.byte	0x9f
 5623 0019 00000000 		.4byte	0
 5624 001d 00000000 		.4byte	0
 5625              	.LLST1:
 5626 0021 00000000 		.4byte	.LVL0
 5627 0025 09000000 		.4byte	.LVL1-1
 5628 0029 0100     		.2byte	0x1
 5629 002b 51       		.byte	0x51
 5630 002c 09000000 		.4byte	.LVL1-1
ARM GAS  C:\Users\Phuong\AppData\Local\Temp\ccIIJJrV.s 			page 115


 5631 0030 14000000 		.4byte	.LVL3
 5632 0034 0100     		.2byte	0x1
 5633 0036 54       		.byte	0x54
 5634 0037 14000000 		.4byte	.LVL3
 5635 003b 2C000000 		.4byte	.LVL6
 5636 003f 0400     		.2byte	0x4
 5637 0041 F3       		.byte	0xf3
 5638 0042 01       		.uleb128 0x1
 5639 0043 51       		.byte	0x51
 5640 0044 9F       		.byte	0x9f
 5641 0045 2C000000 		.4byte	.LVL6
 5642 0049 3A000000 		.4byte	.LVL9
 5643 004d 0100     		.2byte	0x1
 5644 004f 54       		.byte	0x54
 5645 0050 3A000000 		.4byte	.LVL9
 5646 0054 4C000000 		.4byte	.LFE1
 5647 0058 0400     		.2byte	0x4
 5648 005a F3       		.byte	0xf3
 5649 005b 01       		.uleb128 0x1
 5650 005c 51       		.byte	0x51
 5651 005d 9F       		.byte	0x9f
 5652 005e 00000000 		.4byte	0
 5653 0062 00000000 		.4byte	0
 5654              	.LLST2:
 5655 0066 38000000 		.4byte	.LVL8
 5656 006a 3A000000 		.4byte	.LVL9
 5657 006e 0100     		.2byte	0x1
 5658 0070 50       		.byte	0x50
 5659 0071 3C000000 		.4byte	.LVL10
 5660 0075 4C000000 		.4byte	.LFE1
 5661 0079 0100     		.2byte	0x1
 5662 007b 50       		.byte	0x50
 5663 007c 00000000 		.4byte	0
 5664 0080 00000000 		.4byte	0
 5665              	.LLST3:
 5666 0084 0A000000 		.4byte	.LVL1
 5667 0088 11000000 		.4byte	.LVL2-1
 5668 008c 0100     		.2byte	0x1
 5669 008e 50       		.byte	0x50
 5670 008f 2C000000 		.4byte	.LVL6
 5671 0093 30000000 		.4byte	.LVL7
 5672 0097 0100     		.2byte	0x1
 5673 0099 50       		.byte	0x50
 5674 009a 00000000 		.4byte	0
 5675 009e 00000000 		.4byte	0
 5676              	.LLST4:
 5677 00a2 14000000 		.4byte	.LVL3
 5678 00a6 26000000 		.4byte	.LVL4
 5679 00aa 0100     		.2byte	0x1
 5680 00ac 50       		.byte	0x50
 5681 00ad 26000000 		.4byte	.LVL4
 5682 00b1 2C000000 		.4byte	.LVL6
 5683 00b5 0100     		.2byte	0x1
 5684 00b7 54       		.byte	0x54
 5685 00b8 3A000000 		.4byte	.LVL9
 5686 00bc 3C000000 		.4byte	.LVL10
 5687 00c0 0100     		.2byte	0x1
ARM GAS  C:\Users\Phuong\AppData\Local\Temp\ccIIJJrV.s 			page 116


 5688 00c2 50       		.byte	0x50
 5689 00c3 00000000 		.4byte	0
 5690 00c7 00000000 		.4byte	0
 5691              	.LLST5:
 5692 00cb 00000000 		.4byte	.LVL11
 5693 00cf 0F000000 		.4byte	.LVL12-1
 5694 00d3 0100     		.2byte	0x1
 5695 00d5 50       		.byte	0x50
 5696 00d6 0F000000 		.4byte	.LVL12-1
 5697 00da 2C000000 		.4byte	.LVL17
 5698 00de 0100     		.2byte	0x1
 5699 00e0 55       		.byte	0x55
 5700 00e1 2C000000 		.4byte	.LVL17
 5701 00e5 2E000000 		.4byte	.LVL18
 5702 00e9 0100     		.2byte	0x1
 5703 00eb 50       		.byte	0x50
 5704 00ec 2E000000 		.4byte	.LVL18
 5705 00f0 3C000000 		.4byte	.LVL22
 5706 00f4 0100     		.2byte	0x1
 5707 00f6 55       		.byte	0x55
 5708 00f7 3C000000 		.4byte	.LVL22
 5709 00fb 54000000 		.4byte	.LVL25
 5710 00ff 0400     		.2byte	0x4
 5711 0101 F3       		.byte	0xf3
 5712 0102 01       		.uleb128 0x1
 5713 0103 50       		.byte	0x50
 5714 0104 9F       		.byte	0x9f
 5715 0105 54000000 		.4byte	.LVL25
 5716 0109 72000000 		.4byte	.LVL28
 5717 010d 0100     		.2byte	0x1
 5718 010f 55       		.byte	0x55
 5719 0110 72000000 		.4byte	.LVL28
 5720 0114 88000000 		.4byte	.LFE2
 5721 0118 0400     		.2byte	0x4
 5722 011a F3       		.byte	0xf3
 5723 011b 01       		.uleb128 0x1
 5724 011c 50       		.byte	0x50
 5725 011d 9F       		.byte	0x9f
 5726 011e 00000000 		.4byte	0
 5727 0122 00000000 		.4byte	0
 5728              	.LLST6:
 5729 0126 00000000 		.4byte	.LVL11
 5730 012a 0F000000 		.4byte	.LVL12-1
 5731 012e 0100     		.2byte	0x1
 5732 0130 51       		.byte	0x51
 5733 0131 0F000000 		.4byte	.LVL12-1
 5734 0135 2C000000 		.4byte	.LVL17
 5735 0139 0100     		.2byte	0x1
 5736 013b 56       		.byte	0x56
 5737 013c 2C000000 		.4byte	.LVL17
 5738 0140 31000000 		.4byte	.LVL19-1
 5739 0144 0100     		.2byte	0x1
 5740 0146 51       		.byte	0x51
 5741 0147 31000000 		.4byte	.LVL19-1
 5742 014b 76000000 		.4byte	.LVL30
 5743 014f 0100     		.2byte	0x1
 5744 0151 56       		.byte	0x56
ARM GAS  C:\Users\Phuong\AppData\Local\Temp\ccIIJJrV.s 			page 117


 5745 0152 76000000 		.4byte	.LVL30
 5746 0156 88000000 		.4byte	.LFE2
 5747 015a 0400     		.2byte	0x4
 5748 015c F3       		.byte	0xf3
 5749 015d 01       		.uleb128 0x1
 5750 015e 51       		.byte	0x51
 5751 015f 9F       		.byte	0x9f
 5752 0160 00000000 		.4byte	0
 5753 0164 00000000 		.4byte	0
 5754              	.LLST7:
 5755 0168 34000000 		.4byte	.LVL20
 5756 016c 39000000 		.4byte	.LVL21-1
 5757 0170 0100     		.2byte	0x1
 5758 0172 50       		.byte	0x50
 5759 0173 39000000 		.4byte	.LVL21-1
 5760 0177 54000000 		.4byte	.LVL25
 5761 017b 0100     		.2byte	0x1
 5762 017d 54       		.byte	0x54
 5763 017e 54000000 		.4byte	.LVL25
 5764 0182 65000000 		.4byte	.LVL26-1
 5765 0186 0100     		.2byte	0x1
 5766 0188 50       		.byte	0x50
 5767 0189 65000000 		.4byte	.LVL26-1
 5768 018d 70000000 		.4byte	.LVL27
 5769 0191 0100     		.2byte	0x1
 5770 0193 54       		.byte	0x54
 5771 0194 72000000 		.4byte	.LVL28
 5772 0198 76000000 		.4byte	.LVL29
 5773 019c 0100     		.2byte	0x1
 5774 019e 54       		.byte	0x54
 5775 019f 76000000 		.4byte	.LVL29
 5776 01a3 88000000 		.4byte	.LFE2
 5777 01a7 0100     		.2byte	0x1
 5778 01a9 50       		.byte	0x50
 5779 01aa 00000000 		.4byte	0
 5780 01ae 00000000 		.4byte	0
 5781              	.LLST8:
 5782 01b2 12000000 		.4byte	.LVL13
 5783 01b6 26000000 		.4byte	.LVL14
 5784 01ba 0100     		.2byte	0x1
 5785 01bc 50       		.byte	0x50
 5786 01bd 26000000 		.4byte	.LVL14
 5787 01c1 2A000000 		.4byte	.LVL16
 5788 01c5 0100     		.2byte	0x1
 5789 01c7 54       		.byte	0x54
 5790 01c8 70000000 		.4byte	.LVL27
 5791 01cc 72000000 		.4byte	.LVL28
 5792 01d0 0100     		.2byte	0x1
 5793 01d2 50       		.byte	0x50
 5794 01d3 00000000 		.4byte	0
 5795 01d7 00000000 		.4byte	0
 5796              	.LLST9:
 5797 01db 3C000000 		.4byte	.LVL22
 5798 01df 50000000 		.4byte	.LVL23
 5799 01e3 0100     		.2byte	0x1
 5800 01e5 50       		.byte	0x50
 5801 01e6 50000000 		.4byte	.LVL23
ARM GAS  C:\Users\Phuong\AppData\Local\Temp\ccIIJJrV.s 			page 118


 5802 01ea 54000000 		.4byte	.LVL25
 5803 01ee 0100     		.2byte	0x1
 5804 01f0 55       		.byte	0x55
 5805 01f1 00000000 		.4byte	0
 5806 01f5 00000000 		.4byte	0
 5807              	.LLST10:
 5808 01f9 00000000 		.4byte	.LVL31
 5809 01fd 0B000000 		.4byte	.LVL32-1
 5810 0201 0100     		.2byte	0x1
 5811 0203 50       		.byte	0x50
 5812 0204 0B000000 		.4byte	.LVL32-1
 5813 0208 0E000000 		.4byte	.LVL33
 5814 020c 0100     		.2byte	0x1
 5815 020e 54       		.byte	0x54
 5816 020f 0E000000 		.4byte	.LVL33
 5817 0213 26000000 		.4byte	.LVL36
 5818 0217 0400     		.2byte	0x4
 5819 0219 F3       		.byte	0xf3
 5820 021a 01       		.uleb128 0x1
 5821 021b 50       		.byte	0x50
 5822 021c 9F       		.byte	0x9f
 5823 021d 26000000 		.4byte	.LVL36
 5824 0221 28000000 		.4byte	.LVL37
 5825 0225 0100     		.2byte	0x1
 5826 0227 50       		.byte	0x50
 5827 0228 28000000 		.4byte	.LVL37
 5828 022c 3C000000 		.4byte	.LVL40
 5829 0230 0100     		.2byte	0x1
 5830 0232 54       		.byte	0x54
 5831 0233 3C000000 		.4byte	.LVL40
 5832 0237 4C000000 		.4byte	.LFE3
 5833 023b 0400     		.2byte	0x4
 5834 023d F3       		.byte	0xf3
 5835 023e 01       		.uleb128 0x1
 5836 023f 50       		.byte	0x50
 5837 0240 9F       		.byte	0x9f
 5838 0241 00000000 		.4byte	0
 5839 0245 00000000 		.4byte	0
 5840              	.LLST11:
 5841 0249 0E000000 		.4byte	.LVL33
 5842 024d 22000000 		.4byte	.LVL34
 5843 0251 0100     		.2byte	0x1
 5844 0253 50       		.byte	0x50
 5845 0254 22000000 		.4byte	.LVL34
 5846 0258 26000000 		.4byte	.LVL36
 5847 025c 0100     		.2byte	0x1
 5848 025e 54       		.byte	0x54
 5849 025f 00000000 		.4byte	0
 5850 0263 00000000 		.4byte	0
 5851              	.LLST12:
 5852 0267 26000000 		.4byte	.LVL36
 5853 026b 28000000 		.4byte	.LVL37
 5854 026f 0100     		.2byte	0x1
 5855 0271 50       		.byte	0x50
 5856 0272 28000000 		.4byte	.LVL37
 5857 0276 3C000000 		.4byte	.LVL40
 5858 027a 0100     		.2byte	0x1
ARM GAS  C:\Users\Phuong\AppData\Local\Temp\ccIIJJrV.s 			page 119


 5859 027c 54       		.byte	0x54
 5860 027d 00000000 		.4byte	0
 5861 0281 00000000 		.4byte	0
 5862              	.LLST13:
 5863 0285 00000000 		.4byte	.LVL41
 5864 0289 1F000000 		.4byte	.LVL43-1
 5865 028d 0100     		.2byte	0x1
 5866 028f 50       		.byte	0x50
 5867 0290 1F000000 		.4byte	.LVL43-1
 5868 0294 40000000 		.4byte	.LVL47
 5869 0298 0100     		.2byte	0x1
 5870 029a 54       		.byte	0x54
 5871 029b 40000000 		.4byte	.LVL47
 5872 029f 49000000 		.4byte	.LVL48-1
 5873 02a3 0100     		.2byte	0x1
 5874 02a5 50       		.byte	0x50
 5875 02a6 49000000 		.4byte	.LVL48-1
 5876 02aa 4C000000 		.4byte	.LVL49
 5877 02ae 0100     		.2byte	0x1
 5878 02b0 54       		.byte	0x54
 5879 02b1 4C000000 		.4byte	.LVL49
 5880 02b5 66000000 		.4byte	.LVL52
 5881 02b9 0400     		.2byte	0x4
 5882 02bb F3       		.byte	0xf3
 5883 02bc 01       		.uleb128 0x1
 5884 02bd 50       		.byte	0x50
 5885 02be 9F       		.byte	0x9f
 5886 02bf 66000000 		.4byte	.LVL52
 5887 02c3 6A000000 		.4byte	.LVL54
 5888 02c7 0100     		.2byte	0x1
 5889 02c9 50       		.byte	0x50
 5890 02ca 6A000000 		.4byte	.LVL54
 5891 02ce 70000000 		.4byte	.LVL57
 5892 02d2 0100     		.2byte	0x1
 5893 02d4 54       		.byte	0x54
 5894 02d5 70000000 		.4byte	.LVL57
 5895 02d9 88000000 		.4byte	.LFE4
 5896 02dd 0400     		.2byte	0x4
 5897 02df F3       		.byte	0xf3
 5898 02e0 01       		.uleb128 0x1
 5899 02e1 50       		.byte	0x50
 5900 02e2 9F       		.byte	0x9f
 5901 02e3 00000000 		.4byte	0
 5902 02e7 00000000 		.4byte	0
 5903              	.LLST14:
 5904 02eb 00000000 		.4byte	.LVL41
 5905 02ef 1F000000 		.4byte	.LVL43-1
 5906 02f3 0100     		.2byte	0x1
 5907 02f5 51       		.byte	0x51
 5908 02f6 1F000000 		.4byte	.LVL43-1
 5909 02fa 40000000 		.4byte	.LVL47
 5910 02fe 0100     		.2byte	0x1
 5911 0300 55       		.byte	0x55
 5912 0301 40000000 		.4byte	.LVL47
 5913 0305 49000000 		.4byte	.LVL48-1
 5914 0309 0100     		.2byte	0x1
 5915 030b 51       		.byte	0x51
ARM GAS  C:\Users\Phuong\AppData\Local\Temp\ccIIJJrV.s 			page 120


 5916 030c 49000000 		.4byte	.LVL48-1
 5917 0310 66000000 		.4byte	.LVL52
 5918 0314 0100     		.2byte	0x1
 5919 0316 55       		.byte	0x55
 5920 0317 66000000 		.4byte	.LVL52
 5921 031b 6C000000 		.4byte	.LVL55
 5922 031f 0100     		.2byte	0x1
 5923 0321 51       		.byte	0x51
 5924 0322 6C000000 		.4byte	.LVL55
 5925 0326 74000000 		.4byte	.LVL59
 5926 032a 0100     		.2byte	0x1
 5927 032c 55       		.byte	0x55
 5928 032d 74000000 		.4byte	.LVL59
 5929 0331 88000000 		.4byte	.LFE4
 5930 0335 0400     		.2byte	0x4
 5931 0337 F3       		.byte	0xf3
 5932 0338 01       		.uleb128 0x1
 5933 0339 51       		.byte	0x51
 5934 033a 9F       		.byte	0x9f
 5935 033b 00000000 		.4byte	0
 5936 033f 00000000 		.4byte	0
 5937              	.LLST15:
 5938 0343 68000000 		.4byte	.LVL53
 5939 0347 6C000000 		.4byte	.LVL55
 5940 034b 0200     		.2byte	0x2
 5941 034d 30       		.byte	0x30
 5942 034e 9F       		.byte	0x9f
 5943 034f 72000000 		.4byte	.LVL58
 5944 0353 88000000 		.4byte	.LFE4
 5945 0357 0100     		.2byte	0x1
 5946 0359 50       		.byte	0x50
 5947 035a 00000000 		.4byte	0
 5948 035e 00000000 		.4byte	0
 5949              	.LLST16:
 5950 0362 08000000 		.4byte	.LVL42
 5951 0366 1F000000 		.4byte	.LVL43-1
 5952 036a 0100     		.2byte	0x1
 5953 036c 50       		.byte	0x50
 5954 036d 1F000000 		.4byte	.LVL43-1
 5955 0371 40000000 		.4byte	.LVL47
 5956 0375 0100     		.2byte	0x1
 5957 0377 54       		.byte	0x54
 5958 0378 40000000 		.4byte	.LVL47
 5959 037c 49000000 		.4byte	.LVL48-1
 5960 0380 0100     		.2byte	0x1
 5961 0382 50       		.byte	0x50
 5962 0383 49000000 		.4byte	.LVL48-1
 5963 0387 4C000000 		.4byte	.LVL49
 5964 038b 0100     		.2byte	0x1
 5965 038d 54       		.byte	0x54
 5966 038e 4C000000 		.4byte	.LVL49
 5967 0392 66000000 		.4byte	.LVL52
 5968 0396 0400     		.2byte	0x4
 5969 0398 F3       		.byte	0xf3
 5970 0399 01       		.uleb128 0x1
 5971 039a 50       		.byte	0x50
 5972 039b 9F       		.byte	0x9f
ARM GAS  C:\Users\Phuong\AppData\Local\Temp\ccIIJJrV.s 			page 121


 5973 039c 66000000 		.4byte	.LVL52
 5974 03a0 6A000000 		.4byte	.LVL54
 5975 03a4 0100     		.2byte	0x1
 5976 03a6 50       		.byte	0x50
 5977 03a7 6A000000 		.4byte	.LVL54
 5978 03ab 70000000 		.4byte	.LVL57
 5979 03af 0100     		.2byte	0x1
 5980 03b1 54       		.byte	0x54
 5981 03b2 70000000 		.4byte	.LVL57
 5982 03b6 88000000 		.4byte	.LFE4
 5983 03ba 0400     		.2byte	0x4
 5984 03bc F3       		.byte	0xf3
 5985 03bd 01       		.uleb128 0x1
 5986 03be 50       		.byte	0x50
 5987 03bf 9F       		.byte	0x9f
 5988 03c0 00000000 		.4byte	0
 5989 03c4 00000000 		.4byte	0
 5990              	.LLST17:
 5991 03c8 22000000 		.4byte	.LVL44
 5992 03cc 3A000000 		.4byte	.LVL45
 5993 03d0 0100     		.2byte	0x1
 5994 03d2 50       		.byte	0x50
 5995 03d3 3A000000 		.4byte	.LVL45
 5996 03d7 40000000 		.4byte	.LVL47
 5997 03db 0100     		.2byte	0x1
 5998 03dd 56       		.byte	0x56
 5999 03de 6C000000 		.4byte	.LVL55
 6000 03e2 6E000000 		.4byte	.LVL56
 6001 03e6 0100     		.2byte	0x1
 6002 03e8 50       		.byte	0x50
 6003 03e9 6E000000 		.4byte	.LVL56
 6004 03ed 70000000 		.4byte	.LVL57
 6005 03f1 0100     		.2byte	0x1
 6006 03f3 56       		.byte	0x56
 6007 03f4 00000000 		.4byte	0
 6008 03f8 00000000 		.4byte	0
 6009              	.LLST18:
 6010 03fc 4C000000 		.4byte	.LVL49
 6011 0400 60000000 		.4byte	.LVL50
 6012 0404 0100     		.2byte	0x1
 6013 0406 50       		.byte	0x50
 6014 0407 60000000 		.4byte	.LVL50
 6015 040b 66000000 		.4byte	.LVL52
 6016 040f 0100     		.2byte	0x1
 6017 0411 54       		.byte	0x54
 6018 0412 70000000 		.4byte	.LVL57
 6019 0416 72000000 		.4byte	.LVL58
 6020 041a 0100     		.2byte	0x1
 6021 041c 50       		.byte	0x50
 6022 041d 00000000 		.4byte	0
 6023 0421 00000000 		.4byte	0
 6024              	.LLST19:
 6025 0425 00000000 		.4byte	.LVL60
 6026 0429 1F000000 		.4byte	.LVL62-1
 6027 042d 0100     		.2byte	0x1
 6028 042f 50       		.byte	0x50
 6029 0430 1F000000 		.4byte	.LVL62-1
ARM GAS  C:\Users\Phuong\AppData\Local\Temp\ccIIJJrV.s 			page 122


 6030 0434 A2020000 		.4byte	.LVL150
 6031 0438 0100     		.2byte	0x1
 6032 043a 54       		.byte	0x54
 6033 043b A2020000 		.4byte	.LVL150
 6034 043f A4020000 		.4byte	.LVL151
 6035 0443 0100     		.2byte	0x1
 6036 0445 50       		.byte	0x50
 6037 0446 A4020000 		.4byte	.LVL151
 6038 044a B0020000 		.4byte	.LVL154
 6039 044e 0100     		.2byte	0x1
 6040 0450 54       		.byte	0x54
 6041 0451 B0020000 		.4byte	.LVL154
 6042 0455 DC020000 		.4byte	.LFE5
 6043 0459 0400     		.2byte	0x4
 6044 045b F3       		.byte	0xf3
 6045 045c 01       		.uleb128 0x1
 6046 045d 50       		.byte	0x50
 6047 045e 9F       		.byte	0x9f
 6048 045f 00000000 		.4byte	0
 6049 0463 00000000 		.4byte	0
 6050              	.LLST20:
 6051 0467 00000000 		.4byte	.LVL60
 6052 046b 1F000000 		.4byte	.LVL62-1
 6053 046f 0100     		.2byte	0x1
 6054 0471 51       		.byte	0x51
 6055 0472 1F000000 		.4byte	.LVL62-1
 6056 0476 A2020000 		.4byte	.LVL150
 6057 047a 0100     		.2byte	0x1
 6058 047c 56       		.byte	0x56
 6059 047d A2020000 		.4byte	.LVL150
 6060 0481 A4020000 		.4byte	.LVL151
 6061 0485 0100     		.2byte	0x1
 6062 0487 51       		.byte	0x51
 6063 0488 A4020000 		.4byte	.LVL151
 6064 048c B0020000 		.4byte	.LVL156
 6065 0490 0100     		.2byte	0x1
 6066 0492 56       		.byte	0x56
 6067 0493 00000000 		.4byte	0
 6068 0497 00000000 		.4byte	0
 6069              	.LLST21:
 6070 049b 00000000 		.4byte	.LVL60
 6071 049f 1F000000 		.4byte	.LVL62-1
 6072 04a3 0100     		.2byte	0x1
 6073 04a5 52       		.byte	0x52
 6074 04a6 1F000000 		.4byte	.LVL62-1
 6075 04aa 58000000 		.4byte	.LVL68
 6076 04ae 0100     		.2byte	0x1
 6077 04b0 55       		.byte	0x55
 6078 04b1 76000000 		.4byte	.LVL72
 6079 04b5 80020000 		.4byte	.LVL138
 6080 04b9 0100     		.2byte	0x1
 6081 04bb 55       		.byte	0x55
 6082 04bc 86020000 		.4byte	.LVL141
 6083 04c0 A2020000 		.4byte	.LVL150
 6084 04c4 0100     		.2byte	0x1
 6085 04c6 55       		.byte	0x55
 6086 04c7 A2020000 		.4byte	.LVL150
ARM GAS  C:\Users\Phuong\AppData\Local\Temp\ccIIJJrV.s 			page 123


 6087 04cb A4020000 		.4byte	.LVL151
 6088 04cf 0100     		.2byte	0x1
 6089 04d1 52       		.byte	0x52
 6090 04d2 A4020000 		.4byte	.LVL151
 6091 04d6 B0020000 		.4byte	.LVL155
 6092 04da 0100     		.2byte	0x1
 6093 04dc 55       		.byte	0x55
 6094 04dd 00000000 		.4byte	0
 6095 04e1 00000000 		.4byte	0
 6096              	.LLST22:
 6097 04e5 0E000000 		.4byte	.LVL61
 6098 04e9 44000000 		.4byte	.LVL66
 6099 04ed 0300     		.2byte	0x3
 6100 04ef 08       		.byte	0x8
 6101 04f0 B4       		.byte	0xb4
 6102 04f1 9F       		.byte	0x9f
 6103 04f2 44000000 		.4byte	.LVL66
 6104 04f6 55000000 		.4byte	.LVL67-1
 6105 04fa 0100     		.2byte	0x1
 6106 04fc 50       		.byte	0x50
 6107 04fd 76000000 		.4byte	.LVL72
 6108 0501 78000000 		.4byte	.LVL73
 6109 0505 0100     		.2byte	0x1
 6110 0507 50       		.byte	0x50
 6111 0508 D6000000 		.4byte	.LVL82
 6112 050c DA000000 		.4byte	.LVL83
 6113 0510 0200     		.2byte	0x2
 6114 0512 30       		.byte	0x30
 6115 0513 9F       		.byte	0x9f
 6116 0514 DA000000 		.4byte	.LVL83
 6117 0518 EC000000 		.4byte	.LVL86
 6118 051c 0100     		.2byte	0x1
 6119 051e 50       		.byte	0x50
 6120 051f 16010000 		.4byte	.LVL92
 6121 0523 1A010000 		.4byte	.LVL93
 6122 0527 0100     		.2byte	0x1
 6123 0529 50       		.byte	0x50
 6124 052a 1A010000 		.4byte	.LVL93
 6125 052e 1E010000 		.4byte	.LVL94
 6126 0532 0200     		.2byte	0x2
 6127 0534 30       		.byte	0x30
 6128 0535 9F       		.byte	0x9f
 6129 0536 1E010000 		.4byte	.LVL94
 6130 053a 36010000 		.4byte	.LVL97
 6131 053e 0100     		.2byte	0x1
 6132 0540 50       		.byte	0x50
 6133 0541 46010000 		.4byte	.LVL99
 6134 0545 48010000 		.4byte	.LVL100
 6135 0549 0200     		.2byte	0x2
 6136 054b 30       		.byte	0x30
 6137 054c 9F       		.byte	0x9f
 6138 054d 56010000 		.4byte	.LVL102
 6139 0551 58010000 		.4byte	.LVL103
 6140 0555 0200     		.2byte	0x2
 6141 0557 30       		.byte	0x30
 6142 0558 9F       		.byte	0x9f
 6143 0559 9E010000 		.4byte	.LVL111
ARM GAS  C:\Users\Phuong\AppData\Local\Temp\ccIIJJrV.s 			page 124


 6144 055d A2010000 		.4byte	.LVL112
 6145 0561 0200     		.2byte	0x2
 6146 0563 30       		.byte	0x30
 6147 0564 9F       		.byte	0x9f
 6148 0565 A2010000 		.4byte	.LVL112
 6149 0569 A4010000 		.4byte	.LVL113
 6150 056d 0100     		.2byte	0x1
 6151 056f 50       		.byte	0x50
 6152 0570 16020000 		.4byte	.LVL126
 6153 0574 22020000 		.4byte	.LVL128
 6154 0578 0100     		.2byte	0x1
 6155 057a 50       		.byte	0x50
 6156 057b A2020000 		.4byte	.LVL150
 6157 057f A4020000 		.4byte	.LVL151
 6158 0583 0300     		.2byte	0x3
 6159 0585 08       		.byte	0x8
 6160 0586 B4       		.byte	0xb4
 6161 0587 9F       		.byte	0x9f
 6162 0588 A4020000 		.4byte	.LVL151
 6163 058c AC020000 		.4byte	.LVL152
 6164 0590 0100     		.2byte	0x1
 6165 0592 50       		.byte	0x50
 6166 0593 AC020000 		.4byte	.LVL152
 6167 0597 AE020000 		.4byte	.LVL153
 6168 059b 0300     		.2byte	0x3
 6169 059d 08       		.byte	0x8
 6170 059e B4       		.byte	0xb4
 6171 059f 9F       		.byte	0x9f
 6172 05a0 AE020000 		.4byte	.LVL153
 6173 05a4 DC020000 		.4byte	.LFE5
 6174 05a8 0100     		.2byte	0x1
 6175 05aa 50       		.byte	0x50
 6176 05ab 00000000 		.4byte	0
 6177 05af 00000000 		.4byte	0
 6178              	.LLST23:
 6179 05b3 0E000000 		.4byte	.LVL61
 6180 05b7 1F000000 		.4byte	.LVL62-1
 6181 05bb 0100     		.2byte	0x1
 6182 05bd 50       		.byte	0x50
 6183 05be 1F000000 		.4byte	.LVL62-1
 6184 05c2 A2020000 		.4byte	.LVL150
 6185 05c6 0100     		.2byte	0x1
 6186 05c8 54       		.byte	0x54
 6187 05c9 A2020000 		.4byte	.LVL150
 6188 05cd A4020000 		.4byte	.LVL151
 6189 05d1 0100     		.2byte	0x1
 6190 05d3 50       		.byte	0x50
 6191 05d4 A4020000 		.4byte	.LVL151
 6192 05d8 B0020000 		.4byte	.LVL154
 6193 05dc 0100     		.2byte	0x1
 6194 05de 54       		.byte	0x54
 6195 05df B0020000 		.4byte	.LVL154
 6196 05e3 DC020000 		.4byte	.LFE5
 6197 05e7 0400     		.2byte	0x4
 6198 05e9 F3       		.byte	0xf3
 6199 05ea 01       		.uleb128 0x1
 6200 05eb 50       		.byte	0x50
ARM GAS  C:\Users\Phuong\AppData\Local\Temp\ccIIJJrV.s 			page 125


 6201 05ec 9F       		.byte	0x9f
 6202 05ed 00000000 		.4byte	0
 6203 05f1 00000000 		.4byte	0
 6204              	.LLST24:
 6205 05f5 22000000 		.4byte	.LVL63
 6206 05f9 3E000000 		.4byte	.LVL64
 6207 05fd 0100     		.2byte	0x1
 6208 05ff 50       		.byte	0x50
 6209 0600 3E000000 		.4byte	.LVL64
 6210 0604 44000000 		.4byte	.LVL66
 6211 0608 0100     		.2byte	0x1
 6212 060a 57       		.byte	0x57
 6213 060b AC020000 		.4byte	.LVL152
 6214 060f AE020000 		.4byte	.LVL153
 6215 0613 0100     		.2byte	0x1
 6216 0615 50       		.byte	0x50
 6217 0616 00000000 		.4byte	0
 6218 061a 00000000 		.4byte	0
 6219              	.LLST25:
 6220 061e 58000000 		.4byte	.LVL68
 6221 0622 6E000000 		.4byte	.LVL69
 6222 0626 0100     		.2byte	0x1
 6223 0628 50       		.byte	0x50
 6224 0629 6E000000 		.4byte	.LVL69
 6225 062d 74000000 		.4byte	.LVL71
 6226 0631 0100     		.2byte	0x1
 6227 0633 55       		.byte	0x55
 6228 0634 80020000 		.4byte	.LVL138
 6229 0638 82020000 		.4byte	.LVL139
 6230 063c 0100     		.2byte	0x1
 6231 063e 50       		.byte	0x50
 6232 063f 82020000 		.4byte	.LVL139
 6233 0643 84020000 		.4byte	.LVL140
 6234 0647 0100     		.2byte	0x1
 6235 0649 55       		.byte	0x55
 6236 064a 00000000 		.4byte	0
 6237 064e 00000000 		.4byte	0
 6238              	.LLST26:
 6239 0652 B6000000 		.4byte	.LVL78
 6240 0656 CC000000 		.4byte	.LVL79
 6241 065a 0100     		.2byte	0x1
 6242 065c 50       		.byte	0x50
 6243 065d CC000000 		.4byte	.LVL79
 6244 0661 D2000000 		.4byte	.LVL81
 6245 0665 0100     		.2byte	0x1
 6246 0667 57       		.byte	0x57
 6247 0668 8A020000 		.4byte	.LVL142
 6248 066c 8C020000 		.4byte	.LVL143
 6249 0670 0100     		.2byte	0x1
 6250 0672 50       		.byte	0x50
 6251 0673 8C020000 		.4byte	.LVL143
 6252 0677 8E020000 		.4byte	.LVL144
 6253 067b 0100     		.2byte	0x1
 6254 067d 57       		.byte	0x57
 6255 067e 00000000 		.4byte	0
 6256 0682 00000000 		.4byte	0
 6257              	.LLST27:
ARM GAS  C:\Users\Phuong\AppData\Local\Temp\ccIIJJrV.s 			page 126


 6258 0686 F6000000 		.4byte	.LVL89
 6259 068a 0E010000 		.4byte	.LVL90
 6260 068e 0100     		.2byte	0x1
 6261 0690 50       		.byte	0x50
 6262 0691 0E010000 		.4byte	.LVL90
 6263 0695 16010000 		.4byte	.LVL92
 6264 0699 0100     		.2byte	0x1
 6265 069b 57       		.byte	0x57
 6266 069c 8E020000 		.4byte	.LVL144
 6267 06a0 90020000 		.4byte	.LVL145
 6268 06a4 0100     		.2byte	0x1
 6269 06a6 50       		.byte	0x50
 6270 06a7 90020000 		.4byte	.LVL145
 6271 06ab 94020000 		.4byte	.LVL146
 6272 06af 0100     		.2byte	0x1
 6273 06b1 57       		.byte	0x57
 6274 06b2 00000000 		.4byte	0
 6275 06b6 00000000 		.4byte	0
 6276              	.LLST28:
 6277 06ba 3A010000 		.4byte	.LVL98
 6278 06be 4B010000 		.4byte	.LVL101-1
 6279 06c2 0100     		.2byte	0x1
 6280 06c4 50       		.byte	0x50
 6281 06c5 00000000 		.4byte	0
 6282 06c9 00000000 		.4byte	0
 6283              	.LLST29:
 6284 06cd 7A010000 		.4byte	.LVL107
 6285 06d1 92010000 		.4byte	.LVL108
 6286 06d5 0100     		.2byte	0x1
 6287 06d7 50       		.byte	0x50
 6288 06d8 92010000 		.4byte	.LVL108
 6289 06dc 9A010000 		.4byte	.LVL110
 6290 06e0 0100     		.2byte	0x1
 6291 06e2 57       		.byte	0x57
 6292 06e3 94020000 		.4byte	.LVL146
 6293 06e7 96020000 		.4byte	.LVL147
 6294 06eb 0100     		.2byte	0x1
 6295 06ed 50       		.byte	0x50
 6296 06ee 96020000 		.4byte	.LVL147
 6297 06f2 9A020000 		.4byte	.LVL148
 6298 06f6 0100     		.2byte	0x1
 6299 06f8 57       		.byte	0x57
 6300 06f9 00000000 		.4byte	0
 6301 06fd 00000000 		.4byte	0
 6302              	.LLST30:
 6303 0701 A8010000 		.4byte	.LVL114
 6304 0705 F2010000 		.4byte	.LVL121
 6305 0709 0100     		.2byte	0x1
 6306 070b 57       		.byte	0x57
 6307 070c 0A020000 		.4byte	.LVL124
 6308 0710 0E020000 		.4byte	.LVL125
 6309 0714 0100     		.2byte	0x1
 6310 0716 57       		.byte	0x57
 6311 0717 9A020000 		.4byte	.LVL148
 6312 071b 9E020000 		.4byte	.LVL149
 6313 071f 0100     		.2byte	0x1
 6314 0721 57       		.byte	0x57
ARM GAS  C:\Users\Phuong\AppData\Local\Temp\ccIIJJrV.s 			page 127


 6315 0722 00000000 		.4byte	0
 6316 0726 00000000 		.4byte	0
 6317              	.LLST31:
 6318 072a 20020000 		.4byte	.LVL127
 6319 072e 2C020000 		.4byte	.LVL131
 6320 0732 0100     		.2byte	0x1
 6321 0734 53       		.byte	0x53
 6322 0735 2C020000 		.4byte	.LVL131
 6323 0739 80020000 		.4byte	.LVL138
 6324 073d 0100     		.2byte	0x1
 6325 073f 58       		.byte	0x58
 6326 0740 9E020000 		.4byte	.LVL149
 6327 0744 A2020000 		.4byte	.LVL150
 6328 0748 0100     		.2byte	0x1
 6329 074a 58       		.byte	0x58
 6330 074b 00000000 		.4byte	0
 6331 074f 00000000 		.4byte	0
 6332              	.LLST32:
 6333 0753 24020000 		.4byte	.LVL129
 6334 0757 48020000 		.4byte	.LVL135
 6335 075b 0100     		.2byte	0x1
 6336 075d 57       		.byte	0x57
 6337 075e 00000000 		.4byte	0
 6338 0762 00000000 		.4byte	0
 6339              	.LLST33:
 6340 0766 00000000 		.4byte	.LVL157
 6341 076a 1B000000 		.4byte	.LVL159-1
 6342 076e 0100     		.2byte	0x1
 6343 0770 50       		.byte	0x50
 6344 0771 1B000000 		.4byte	.LVL159-1
 6345 0775 3E000000 		.4byte	.LVL163
 6346 0779 0100     		.2byte	0x1
 6347 077b 54       		.byte	0x54
 6348 077c 3E000000 		.4byte	.LVL163
 6349 0780 46000000 		.4byte	.LVL166
 6350 0784 0100     		.2byte	0x1
 6351 0786 50       		.byte	0x50
 6352 0787 46000000 		.4byte	.LVL166
 6353 078b 5C000000 		.4byte	.LVL170
 6354 078f 0100     		.2byte	0x1
 6355 0791 54       		.byte	0x54
 6356 0792 5C000000 		.4byte	.LVL170
 6357 0796 80000000 		.4byte	.LVL175
 6358 079a 0400     		.2byte	0x4
 6359 079c F3       		.byte	0xf3
 6360 079d 01       		.uleb128 0x1
 6361 079e 50       		.byte	0x50
 6362 079f 9F       		.byte	0x9f
 6363 07a0 80000000 		.4byte	.LVL175
 6364 07a4 98000000 		.4byte	.LVL183
 6365 07a8 0100     		.2byte	0x1
 6366 07aa 54       		.byte	0x54
 6367 07ab 98000000 		.4byte	.LVL183
 6368 07af B4000000 		.4byte	.LVL186
 6369 07b3 0400     		.2byte	0x4
 6370 07b5 F3       		.byte	0xf3
 6371 07b6 01       		.uleb128 0x1
ARM GAS  C:\Users\Phuong\AppData\Local\Temp\ccIIJJrV.s 			page 128


 6372 07b7 50       		.byte	0x50
 6373 07b8 9F       		.byte	0x9f
 6374 07b9 B4000000 		.4byte	.LVL186
 6375 07bd D8000000 		.4byte	.LVL193
 6376 07c1 0100     		.2byte	0x1
 6377 07c3 54       		.byte	0x54
 6378 07c4 D8000000 		.4byte	.LVL193
 6379 07c8 F4000000 		.4byte	.LVL196
 6380 07cc 0400     		.2byte	0x4
 6381 07ce F3       		.byte	0xf3
 6382 07cf 01       		.uleb128 0x1
 6383 07d0 50       		.byte	0x50
 6384 07d1 9F       		.byte	0x9f
 6385 07d2 F4000000 		.4byte	.LVL196
 6386 07d6 FA000000 		.4byte	.LVL198
 6387 07da 0100     		.2byte	0x1
 6388 07dc 54       		.byte	0x54
 6389 07dd FA000000 		.4byte	.LVL198
 6390 07e1 06010000 		.4byte	.LVL202
 6391 07e5 0400     		.2byte	0x4
 6392 07e7 F3       		.byte	0xf3
 6393 07e8 01       		.uleb128 0x1
 6394 07e9 50       		.byte	0x50
 6395 07ea 9F       		.byte	0x9f
 6396 07eb 06010000 		.4byte	.LVL202
 6397 07ef 0A010000 		.4byte	.LVL203
 6398 07f3 0100     		.2byte	0x1
 6399 07f5 54       		.byte	0x54
 6400 07f6 0A010000 		.4byte	.LVL203
 6401 07fa 30010000 		.4byte	.LFE6
 6402 07fe 0400     		.2byte	0x4
 6403 0800 F3       		.byte	0xf3
 6404 0801 01       		.uleb128 0x1
 6405 0802 50       		.byte	0x50
 6406 0803 9F       		.byte	0x9f
 6407 0804 00000000 		.4byte	0
 6408 0808 00000000 		.4byte	0
 6409              	.LLST34:
 6410 080c 00000000 		.4byte	.LVL157
 6411 0810 1B000000 		.4byte	.LVL159-1
 6412 0814 0100     		.2byte	0x1
 6413 0816 51       		.byte	0x51
 6414 0817 1B000000 		.4byte	.LVL159-1
 6415 081b 3E000000 		.4byte	.LVL163
 6416 081f 0200     		.2byte	0x2
 6417 0821 91       		.byte	0x91
 6418 0822 67       		.sleb128 -25
 6419 0823 3E000000 		.4byte	.LVL163
 6420 0827 44000000 		.4byte	.LVL165
 6421 082b 0100     		.2byte	0x1
 6422 082d 51       		.byte	0x51
 6423 082e 44000000 		.4byte	.LVL165
 6424 0832 49000000 		.4byte	.LVL167-1
 6425 0836 0200     		.2byte	0x2
 6426 0838 73       		.byte	0x73
 6427 0839 00       		.sleb128 0
 6428 083a 49000000 		.4byte	.LVL167-1
ARM GAS  C:\Users\Phuong\AppData\Local\Temp\ccIIJJrV.s 			page 129


 6429 083e 60000000 		.4byte	.LVL171
 6430 0842 0200     		.2byte	0x2
 6431 0844 91       		.byte	0x91
 6432 0845 67       		.sleb128 -25
 6433 0846 60000000 		.4byte	.LVL171
 6434 084a 62000000 		.4byte	.LVL172
 6435 084e 0800     		.2byte	0x8
 6436 0850 73       		.byte	0x73
 6437 0851 00       		.sleb128 0
 6438 0852 91       		.byte	0x91
 6439 0853 00       		.sleb128 0
 6440 0854 22       		.byte	0x22
 6441 0855 08       		.byte	0x8
 6442 0856 30       		.byte	0x30
 6443 0857 1C       		.byte	0x1c
 6444 0858 62000000 		.4byte	.LVL172
 6445 085c BA000000 		.4byte	.LVL187
 6446 0860 0200     		.2byte	0x2
 6447 0862 91       		.byte	0x91
 6448 0863 67       		.sleb128 -25
 6449 0864 BA000000 		.4byte	.LVL187
 6450 0868 BC000000 		.4byte	.LVL188
 6451 086c 0800     		.2byte	0x8
 6452 086e 73       		.byte	0x73
 6453 086f 00       		.sleb128 0
 6454 0870 91       		.byte	0x91
 6455 0871 00       		.sleb128 0
 6456 0872 22       		.byte	0x22
 6457 0873 08       		.byte	0x8
 6458 0874 30       		.byte	0x30
 6459 0875 1C       		.byte	0x1c
 6460 0876 BC000000 		.4byte	.LVL188
 6461 087a 30010000 		.4byte	.LFE6
 6462 087e 0200     		.2byte	0x2
 6463 0880 91       		.byte	0x91
 6464 0881 67       		.sleb128 -25
 6465 0882 00000000 		.4byte	0
 6466 0886 00000000 		.4byte	0
 6467              	.LLST35:
 6468 088a 00000000 		.4byte	.LVL157
 6469 088e 1B000000 		.4byte	.LVL159-1
 6470 0892 0100     		.2byte	0x1
 6471 0894 52       		.byte	0x52
 6472 0895 1B000000 		.4byte	.LVL159-1
 6473 0899 3E000000 		.4byte	.LVL163
 6474 089d 0100     		.2byte	0x1
 6475 089f 55       		.byte	0x55
 6476 08a0 3E000000 		.4byte	.LVL163
 6477 08a4 40000000 		.4byte	.LVL164
 6478 08a8 0100     		.2byte	0x1
 6479 08aa 52       		.byte	0x52
 6480 08ab 40000000 		.4byte	.LVL164
 6481 08af 10010000 		.4byte	.LVL206
 6482 08b3 0100     		.2byte	0x1
 6483 08b5 55       		.byte	0x55
 6484 08b6 10010000 		.4byte	.LVL206
 6485 08ba 30010000 		.4byte	.LFE6
ARM GAS  C:\Users\Phuong\AppData\Local\Temp\ccIIJJrV.s 			page 130


 6486 08be 0400     		.2byte	0x4
 6487 08c0 F3       		.byte	0xf3
 6488 08c1 01       		.uleb128 0x1
 6489 08c2 52       		.byte	0x52
 6490 08c3 9F       		.byte	0x9f
 6491 08c4 00000000 		.4byte	0
 6492 08c8 00000000 		.4byte	0
 6493              	.LLST36:
 6494 08cc 00000000 		.4byte	.LVL157
 6495 08d0 0C000000 		.4byte	.LVL158
 6496 08d4 0100     		.2byte	0x1
 6497 08d6 53       		.byte	0x53
 6498 08d7 0C000000 		.4byte	.LVL158
 6499 08db 1E000000 		.4byte	.LVL160
 6500 08df 0100     		.2byte	0x1
 6501 08e1 56       		.byte	0x56
 6502 08e2 1E000000 		.4byte	.LVL160
 6503 08e6 3E000000 		.4byte	.LVL163
 6504 08ea 0400     		.2byte	0x4
 6505 08ec F3       		.byte	0xf3
 6506 08ed 01       		.uleb128 0x1
 6507 08ee 53       		.byte	0x53
 6508 08ef 9F       		.byte	0x9f
 6509 08f0 3E000000 		.4byte	.LVL163
 6510 08f4 F4000000 		.4byte	.LVL196
 6511 08f8 0100     		.2byte	0x1
 6512 08fa 56       		.byte	0x56
 6513 08fb F4000000 		.4byte	.LVL196
 6514 08ff FA000000 		.4byte	.LVL198
 6515 0903 0400     		.2byte	0x4
 6516 0905 F3       		.byte	0xf3
 6517 0906 01       		.uleb128 0x1
 6518 0907 53       		.byte	0x53
 6519 0908 9F       		.byte	0x9f
 6520 0909 FA000000 		.4byte	.LVL198
 6521 090d 0E010000 		.4byte	.LVL205
 6522 0911 0100     		.2byte	0x1
 6523 0913 56       		.byte	0x56
 6524 0914 0E010000 		.4byte	.LVL205
 6525 0918 30010000 		.4byte	.LFE6
 6526 091c 0400     		.2byte	0x4
 6527 091e F3       		.byte	0xf3
 6528 091f 01       		.uleb128 0x1
 6529 0920 53       		.byte	0x53
 6530 0921 9F       		.byte	0x9f
 6531 0922 00000000 		.4byte	0
 6532 0926 00000000 		.4byte	0
 6533              	.LLST37:
 6534 092a 84000000 		.4byte	.LVL176
 6535 092e 88000000 		.4byte	.LVL178
 6536 0932 0200     		.2byte	0x2
 6537 0934 30       		.byte	0x30
 6538 0935 9F       		.byte	0x9f
 6539 0936 0E010000 		.4byte	.LVL205
 6540 093a 30010000 		.4byte	.LFE6
 6541 093e 0100     		.2byte	0x1
 6542 0940 50       		.byte	0x50
ARM GAS  C:\Users\Phuong\AppData\Local\Temp\ccIIJJrV.s 			page 131


 6543 0941 00000000 		.4byte	0
 6544 0945 00000000 		.4byte	0
 6545              	.LLST38:
 6546 0949 1E000000 		.4byte	.LVL160
 6547 094d 36000000 		.4byte	.LVL161
 6548 0951 0100     		.2byte	0x1
 6549 0953 50       		.byte	0x50
 6550 0954 36000000 		.4byte	.LVL161
 6551 0958 3E000000 		.4byte	.LVL163
 6552 095c 0100     		.2byte	0x1
 6553 095e 56       		.byte	0x56
 6554 095f F4000000 		.4byte	.LVL196
 6555 0963 F6000000 		.4byte	.LVL197
 6556 0967 0100     		.2byte	0x1
 6557 0969 50       		.byte	0x50
 6558 096a F6000000 		.4byte	.LVL197
 6559 096e FA000000 		.4byte	.LVL198
 6560 0972 0100     		.2byte	0x1
 6561 0974 56       		.byte	0x56
 6562 0975 00000000 		.4byte	0
 6563 0979 00000000 		.4byte	0
 6564              	.LLST39:
 6565 097d 3E000000 		.4byte	.LVL163
 6566 0981 46000000 		.4byte	.LVL166
 6567 0985 0100     		.2byte	0x1
 6568 0987 50       		.byte	0x50
 6569 0988 46000000 		.4byte	.LVL166
 6570 098c 5C000000 		.4byte	.LVL170
 6571 0990 0100     		.2byte	0x1
 6572 0992 54       		.byte	0x54
 6573 0993 5C000000 		.4byte	.LVL170
 6574 0997 80000000 		.4byte	.LVL175
 6575 099b 0400     		.2byte	0x4
 6576 099d F3       		.byte	0xf3
 6577 099e 01       		.uleb128 0x1
 6578 099f 50       		.byte	0x50
 6579 09a0 9F       		.byte	0x9f
 6580 09a1 80000000 		.4byte	.LVL175
 6581 09a5 98000000 		.4byte	.LVL183
 6582 09a9 0100     		.2byte	0x1
 6583 09ab 54       		.byte	0x54
 6584 09ac 98000000 		.4byte	.LVL183
 6585 09b0 B4000000 		.4byte	.LVL186
 6586 09b4 0400     		.2byte	0x4
 6587 09b6 F3       		.byte	0xf3
 6588 09b7 01       		.uleb128 0x1
 6589 09b8 50       		.byte	0x50
 6590 09b9 9F       		.byte	0x9f
 6591 09ba B4000000 		.4byte	.LVL186
 6592 09be D8000000 		.4byte	.LVL193
 6593 09c2 0100     		.2byte	0x1
 6594 09c4 54       		.byte	0x54
 6595 09c5 D8000000 		.4byte	.LVL193
 6596 09c9 F4000000 		.4byte	.LVL196
 6597 09cd 0400     		.2byte	0x4
 6598 09cf F3       		.byte	0xf3
 6599 09d0 01       		.uleb128 0x1
ARM GAS  C:\Users\Phuong\AppData\Local\Temp\ccIIJJrV.s 			page 132


 6600 09d1 50       		.byte	0x50
 6601 09d2 9F       		.byte	0x9f
 6602 09d3 FA000000 		.4byte	.LVL198
 6603 09d7 06010000 		.4byte	.LVL202
 6604 09db 0400     		.2byte	0x4
 6605 09dd F3       		.byte	0xf3
 6606 09de 01       		.uleb128 0x1
 6607 09df 50       		.byte	0x50
 6608 09e0 9F       		.byte	0x9f
 6609 09e1 06010000 		.4byte	.LVL202
 6610 09e5 0A010000 		.4byte	.LVL203
 6611 09e9 0100     		.2byte	0x1
 6612 09eb 54       		.byte	0x54
 6613 09ec 0A010000 		.4byte	.LVL203
 6614 09f0 0E010000 		.4byte	.LVL205
 6615 09f4 0400     		.2byte	0x4
 6616 09f6 F3       		.byte	0xf3
 6617 09f7 01       		.uleb128 0x1
 6618 09f8 50       		.byte	0x50
 6619 09f9 9F       		.byte	0x9f
 6620 09fa 00000000 		.4byte	0
 6621 09fe 00000000 		.4byte	0
 6622              	.LLST40:
 6623 0a02 52000000 		.4byte	.LVL168
 6624 0a06 59000000 		.4byte	.LVL169-1
 6625 0a0a 0100     		.2byte	0x1
 6626 0a0c 50       		.byte	0x50
 6627 0a0d 80000000 		.4byte	.LVL175
 6628 0a11 86000000 		.4byte	.LVL177
 6629 0a15 0100     		.2byte	0x1
 6630 0a17 50       		.byte	0x50
 6631 0a18 90000000 		.4byte	.LVL181
 6632 0a1c 95000000 		.4byte	.LVL182-1
 6633 0a20 0100     		.2byte	0x1
 6634 0a22 50       		.byte	0x50
 6635 0a23 95000000 		.4byte	.LVL182-1
 6636 0a27 B4000000 		.4byte	.LVL186
 6637 0a2b 0100     		.2byte	0x1
 6638 0a2d 57       		.byte	0x57
 6639 0a2e B4000000 		.4byte	.LVL186
 6640 0a32 C2000000 		.4byte	.LVL189
 6641 0a36 0100     		.2byte	0x1
 6642 0a38 50       		.byte	0x50
 6643 0a39 C2000000 		.4byte	.LVL189
 6644 0a3d F4000000 		.4byte	.LVL196
 6645 0a41 0100     		.2byte	0x1
 6646 0a43 57       		.byte	0x57
 6647 0a44 00010000 		.4byte	.LVL200
 6648 0a48 0E010000 		.4byte	.LVL205
 6649 0a4c 0100     		.2byte	0x1
 6650 0a4e 57       		.byte	0x57
 6651 0a4f 00000000 		.4byte	0
 6652 0a53 00000000 		.4byte	0
 6653              	.LLST41:
 6654 0a57 4A000000 		.4byte	.LVL167
 6655 0a5b 51000000 		.4byte	.LVL168-1
 6656 0a5f 0100     		.2byte	0x1
ARM GAS  C:\Users\Phuong\AppData\Local\Temp\ccIIJJrV.s 			page 133


 6657 0a61 50       		.byte	0x50
 6658 0a62 88000000 		.4byte	.LVL178
 6659 0a66 8A000000 		.4byte	.LVL179
 6660 0a6a 0100     		.2byte	0x1
 6661 0a6c 50       		.byte	0x50
 6662 0a6d 00000000 		.4byte	0
 6663 0a71 00000000 		.4byte	0
 6664              	.LLST42:
 6665 0a75 5C000000 		.4byte	.LVL170
 6666 0a79 78000000 		.4byte	.LVL173
 6667 0a7d 0100     		.2byte	0x1
 6668 0a7f 50       		.byte	0x50
 6669 0a80 78000000 		.4byte	.LVL173
 6670 0a84 80000000 		.4byte	.LVL175
 6671 0a88 0100     		.2byte	0x1
 6672 0a8a 54       		.byte	0x54
 6673 0a8b FA000000 		.4byte	.LVL198
 6674 0a8f FC000000 		.4byte	.LVL199
 6675 0a93 0100     		.2byte	0x1
 6676 0a95 50       		.byte	0x50
 6677 0a96 FC000000 		.4byte	.LVL199
 6678 0a9a 00010000 		.4byte	.LVL200
 6679 0a9e 0100     		.2byte	0x1
 6680 0aa0 54       		.byte	0x54
 6681 0aa1 00000000 		.4byte	0
 6682 0aa5 00000000 		.4byte	0
 6683              	.LLST43:
 6684 0aa9 98000000 		.4byte	.LVL183
 6685 0aad AC000000 		.4byte	.LVL184
 6686 0ab1 0100     		.2byte	0x1
 6687 0ab3 50       		.byte	0x50
 6688 0ab4 AC000000 		.4byte	.LVL184
 6689 0ab8 B4000000 		.4byte	.LVL186
 6690 0abc 0100     		.2byte	0x1
 6691 0abe 54       		.byte	0x54
 6692 0abf 00010000 		.4byte	.LVL200
 6693 0ac3 02010000 		.4byte	.LVL201
 6694 0ac7 0100     		.2byte	0x1
 6695 0ac9 50       		.byte	0x50
 6696 0aca 02010000 		.4byte	.LVL201
 6697 0ace 06010000 		.4byte	.LVL202
 6698 0ad2 0100     		.2byte	0x1
 6699 0ad4 54       		.byte	0x54
 6700 0ad5 00000000 		.4byte	0
 6701 0ad9 00000000 		.4byte	0
 6702              	.LLST44:
 6703 0add D8000000 		.4byte	.LVL193
 6704 0ae1 EC000000 		.4byte	.LVL194
 6705 0ae5 0100     		.2byte	0x1
 6706 0ae7 50       		.byte	0x50
 6707 0ae8 EC000000 		.4byte	.LVL194
 6708 0aec F4000000 		.4byte	.LVL196
 6709 0af0 0100     		.2byte	0x1
 6710 0af2 54       		.byte	0x54
 6711 0af3 0A010000 		.4byte	.LVL203
 6712 0af7 0C010000 		.4byte	.LVL204
 6713 0afb 0100     		.2byte	0x1
ARM GAS  C:\Users\Phuong\AppData\Local\Temp\ccIIJJrV.s 			page 134


 6714 0afd 50       		.byte	0x50
 6715 0afe 0C010000 		.4byte	.LVL204
 6716 0b02 0E010000 		.4byte	.LVL205
 6717 0b06 0100     		.2byte	0x1
 6718 0b08 54       		.byte	0x54
 6719 0b09 00000000 		.4byte	0
 6720 0b0d 00000000 		.4byte	0
 6721              	.LLST45:
 6722 0b11 00000000 		.4byte	.LVL207
 6723 0b15 13000000 		.4byte	.LVL208-1
 6724 0b19 0100     		.2byte	0x1
 6725 0b1b 50       		.byte	0x50
 6726 0b1c 13000000 		.4byte	.LVL208-1
 6727 0b20 16000000 		.4byte	.LVL209
 6728 0b24 0100     		.2byte	0x1
 6729 0b26 54       		.byte	0x54
 6730 0b27 16000000 		.4byte	.LVL209
 6731 0b2b 32000000 		.4byte	.LVL212
 6732 0b2f 0400     		.2byte	0x4
 6733 0b31 F3       		.byte	0xf3
 6734 0b32 01       		.uleb128 0x1
 6735 0b33 50       		.byte	0x50
 6736 0b34 9F       		.byte	0x9f
 6737 0b35 32000000 		.4byte	.LVL212
 6738 0b39 3A000000 		.4byte	.LVL214
 6739 0b3d 0100     		.2byte	0x1
 6740 0b3f 50       		.byte	0x50
 6741 0b40 3A000000 		.4byte	.LVL214
 6742 0b44 48000000 		.4byte	.LVL218
 6743 0b48 0100     		.2byte	0x1
 6744 0b4a 54       		.byte	0x54
 6745 0b4b 48000000 		.4byte	.LVL218
 6746 0b4f 6A000000 		.4byte	.LVL223
 6747 0b53 0400     		.2byte	0x4
 6748 0b55 F3       		.byte	0xf3
 6749 0b56 01       		.uleb128 0x1
 6750 0b57 50       		.byte	0x50
 6751 0b58 9F       		.byte	0x9f
 6752 0b59 6A000000 		.4byte	.LVL223
 6753 0b5d 78000000 		.4byte	.LVL226
 6754 0b61 0100     		.2byte	0x1
 6755 0b63 54       		.byte	0x54
 6756 0b64 78000000 		.4byte	.LVL226
 6757 0b68 94000000 		.4byte	.LVL229
 6758 0b6c 0400     		.2byte	0x4
 6759 0b6e F3       		.byte	0xf3
 6760 0b6f 01       		.uleb128 0x1
 6761 0b70 50       		.byte	0x50
 6762 0b71 9F       		.byte	0x9f
 6763 0b72 94000000 		.4byte	.LVL229
 6764 0b76 AA000000 		.4byte	.LVL233
 6765 0b7a 0100     		.2byte	0x1
 6766 0b7c 54       		.byte	0x54
 6767 0b7d AA000000 		.4byte	.LVL233
 6768 0b81 D4000000 		.4byte	.LVL242
 6769 0b85 0400     		.2byte	0x4
 6770 0b87 F3       		.byte	0xf3
ARM GAS  C:\Users\Phuong\AppData\Local\Temp\ccIIJJrV.s 			page 135


 6771 0b88 01       		.uleb128 0x1
 6772 0b89 50       		.byte	0x50
 6773 0b8a 9F       		.byte	0x9f
 6774 0b8b D4000000 		.4byte	.LVL242
 6775 0b8f D8000000 		.4byte	.LVL243
 6776 0b93 0100     		.2byte	0x1
 6777 0b95 54       		.byte	0x54
 6778 0b96 D8000000 		.4byte	.LVL243
 6779 0b9a 10010000 		.4byte	.LFE7
 6780 0b9e 0400     		.2byte	0x4
 6781 0ba0 F3       		.byte	0xf3
 6782 0ba1 01       		.uleb128 0x1
 6783 0ba2 50       		.byte	0x50
 6784 0ba3 9F       		.byte	0x9f
 6785 0ba4 00000000 		.4byte	0
 6786 0ba8 00000000 		.4byte	0
 6787              	.LLST46:
 6788 0bac 00000000 		.4byte	.LVL207
 6789 0bb0 13000000 		.4byte	.LVL208-1
 6790 0bb4 0100     		.2byte	0x1
 6791 0bb6 51       		.byte	0x51
 6792 0bb7 13000000 		.4byte	.LVL208-1
 6793 0bbb 32000000 		.4byte	.LVL212
 6794 0bbf 0200     		.2byte	0x2
 6795 0bc1 91       		.byte	0x91
 6796 0bc2 6F       		.sleb128 -17
 6797 0bc3 32000000 		.4byte	.LVL212
 6798 0bc7 38000000 		.4byte	.LVL213
 6799 0bcb 0100     		.2byte	0x1
 6800 0bcd 51       		.byte	0x51
 6801 0bce 38000000 		.4byte	.LVL213
 6802 0bd2 3D000000 		.4byte	.LVL215-1
 6803 0bd6 0200     		.2byte	0x2
 6804 0bd8 73       		.byte	0x73
 6805 0bd9 00       		.sleb128 0
 6806 0bda 3D000000 		.4byte	.LVL215-1
 6807 0bde 4C000000 		.4byte	.LVL219
 6808 0be2 0200     		.2byte	0x2
 6809 0be4 91       		.byte	0x91
 6810 0be5 6F       		.sleb128 -17
 6811 0be6 4C000000 		.4byte	.LVL219
 6812 0bea 4E000000 		.4byte	.LVL220
 6813 0bee 0800     		.2byte	0x8
 6814 0bf0 73       		.byte	0x73
 6815 0bf1 00       		.sleb128 0
 6816 0bf2 91       		.byte	0x91
 6817 0bf3 00       		.sleb128 0
 6818 0bf4 22       		.byte	0x22
 6819 0bf5 08       		.byte	0x8
 6820 0bf6 28       		.byte	0x28
 6821 0bf7 1C       		.byte	0x1c
 6822 0bf8 4E000000 		.4byte	.LVL220
 6823 0bfc 10010000 		.4byte	.LFE7
 6824 0c00 0200     		.2byte	0x2
 6825 0c02 91       		.byte	0x91
 6826 0c03 6F       		.sleb128 -17
 6827 0c04 00000000 		.4byte	0
ARM GAS  C:\Users\Phuong\AppData\Local\Temp\ccIIJJrV.s 			page 136


 6828 0c08 00000000 		.4byte	0
 6829              	.LLST47:
 6830 0c0c 16000000 		.4byte	.LVL209
 6831 0c10 2C000000 		.4byte	.LVL210
 6832 0c14 0100     		.2byte	0x1
 6833 0c16 50       		.byte	0x50
 6834 0c17 2C000000 		.4byte	.LVL210
 6835 0c1b 32000000 		.4byte	.LVL212
 6836 0c1f 0100     		.2byte	0x1
 6837 0c21 54       		.byte	0x54
 6838 0c22 C6000000 		.4byte	.LVL236
 6839 0c26 C8000000 		.4byte	.LVL237
 6840 0c2a 0100     		.2byte	0x1
 6841 0c2c 50       		.byte	0x50
 6842 0c2d C8000000 		.4byte	.LVL237
 6843 0c31 CA000000 		.4byte	.LVL238
 6844 0c35 0100     		.2byte	0x1
 6845 0c37 54       		.byte	0x54
 6846 0c38 00000000 		.4byte	0
 6847 0c3c 00000000 		.4byte	0
 6848              	.LLST48:
 6849 0c40 32000000 		.4byte	.LVL212
 6850 0c44 3A000000 		.4byte	.LVL214
 6851 0c48 0100     		.2byte	0x1
 6852 0c4a 50       		.byte	0x50
 6853 0c4b 3A000000 		.4byte	.LVL214
 6854 0c4f 48000000 		.4byte	.LVL218
 6855 0c53 0100     		.2byte	0x1
 6856 0c55 54       		.byte	0x54
 6857 0c56 48000000 		.4byte	.LVL218
 6858 0c5a 6A000000 		.4byte	.LVL223
 6859 0c5e 0400     		.2byte	0x4
 6860 0c60 F3       		.byte	0xf3
 6861 0c61 01       		.uleb128 0x1
 6862 0c62 50       		.byte	0x50
 6863 0c63 9F       		.byte	0x9f
 6864 0c64 6A000000 		.4byte	.LVL223
 6865 0c68 78000000 		.4byte	.LVL226
 6866 0c6c 0100     		.2byte	0x1
 6867 0c6e 54       		.byte	0x54
 6868 0c6f 78000000 		.4byte	.LVL226
 6869 0c73 94000000 		.4byte	.LVL229
 6870 0c77 0400     		.2byte	0x4
 6871 0c79 F3       		.byte	0xf3
 6872 0c7a 01       		.uleb128 0x1
 6873 0c7b 50       		.byte	0x50
 6874 0c7c 9F       		.byte	0x9f
 6875 0c7d 94000000 		.4byte	.LVL229
 6876 0c81 AA000000 		.4byte	.LVL233
 6877 0c85 0100     		.2byte	0x1
 6878 0c87 54       		.byte	0x54
 6879 0c88 AA000000 		.4byte	.LVL233
 6880 0c8c C6000000 		.4byte	.LVL236
 6881 0c90 0400     		.2byte	0x4
 6882 0c92 F3       		.byte	0xf3
 6883 0c93 01       		.uleb128 0x1
 6884 0c94 50       		.byte	0x50
ARM GAS  C:\Users\Phuong\AppData\Local\Temp\ccIIJJrV.s 			page 137


 6885 0c95 9F       		.byte	0x9f
 6886 0c96 CA000000 		.4byte	.LVL238
 6887 0c9a D4000000 		.4byte	.LVL242
 6888 0c9e 0400     		.2byte	0x4
 6889 0ca0 F3       		.byte	0xf3
 6890 0ca1 01       		.uleb128 0x1
 6891 0ca2 50       		.byte	0x50
 6892 0ca3 9F       		.byte	0x9f
 6893 0ca4 D4000000 		.4byte	.LVL242
 6894 0ca8 D8000000 		.4byte	.LVL243
 6895 0cac 0100     		.2byte	0x1
 6896 0cae 54       		.byte	0x54
 6897 0caf D8000000 		.4byte	.LVL243
 6898 0cb3 DA000000 		.4byte	.LVL244
 6899 0cb7 0400     		.2byte	0x4
 6900 0cb9 F3       		.byte	0xf3
 6901 0cba 01       		.uleb128 0x1
 6902 0cbb 50       		.byte	0x50
 6903 0cbc 9F       		.byte	0x9f
 6904 0cbd 00000000 		.4byte	0
 6905 0cc1 00000000 		.4byte	0
 6906              	.LLST49:
 6907 0cc5 40000000 		.4byte	.LVL216
 6908 0cc9 45000000 		.4byte	.LVL217-1
 6909 0ccd 0100     		.2byte	0x1
 6910 0ccf 50       		.byte	0x50
 6911 0cd0 45000000 		.4byte	.LVL217-1
 6912 0cd4 6A000000 		.4byte	.LVL223
 6913 0cd8 0100     		.2byte	0x1
 6914 0cda 55       		.byte	0x55
 6915 0cdb 6A000000 		.4byte	.LVL223
 6916 0cdf 6D000000 		.4byte	.LVL224-1
 6917 0ce3 0100     		.2byte	0x1
 6918 0ce5 50       		.byte	0x50
 6919 0ce6 6D000000 		.4byte	.LVL224-1
 6920 0cea C6000000 		.4byte	.LVL236
 6921 0cee 0100     		.2byte	0x1
 6922 0cf0 55       		.byte	0x55
 6923 0cf1 CA000000 		.4byte	.LVL238
 6924 0cf5 DA000000 		.4byte	.LVL244
 6925 0cf9 0100     		.2byte	0x1
 6926 0cfb 55       		.byte	0x55
 6927 0cfc 00000000 		.4byte	0
 6928 0d00 00000000 		.4byte	0
 6929              	.LLST50:
 6930 0d04 48000000 		.4byte	.LVL218
 6931 0d08 64000000 		.4byte	.LVL221
 6932 0d0c 0100     		.2byte	0x1
 6933 0d0e 50       		.byte	0x50
 6934 0d0f 64000000 		.4byte	.LVL221
 6935 0d13 6A000000 		.4byte	.LVL223
 6936 0d17 0100     		.2byte	0x1
 6937 0d19 54       		.byte	0x54
 6938 0d1a CA000000 		.4byte	.LVL238
 6939 0d1e CC000000 		.4byte	.LVL239
 6940 0d22 0100     		.2byte	0x1
 6941 0d24 50       		.byte	0x50
ARM GAS  C:\Users\Phuong\AppData\Local\Temp\ccIIJJrV.s 			page 138


 6942 0d25 CC000000 		.4byte	.LVL239
 6943 0d29 CE000000 		.4byte	.LVL240
 6944 0d2d 0100     		.2byte	0x1
 6945 0d2f 54       		.byte	0x54
 6946 0d30 00000000 		.4byte	0
 6947 0d34 00000000 		.4byte	0
 6948              	.LLST51:
 6949 0d38 6E000000 		.4byte	.LVL224
 6950 0d3c 75000000 		.4byte	.LVL225-1
 6951 0d40 0100     		.2byte	0x1
 6952 0d42 50       		.byte	0x50
 6953 0d43 94000000 		.4byte	.LVL229
 6954 0d47 97000000 		.4byte	.LVL230-1
 6955 0d4b 0100     		.2byte	0x1
 6956 0d4d 50       		.byte	0x50
 6957 0d4e 00000000 		.4byte	0
 6958 0d52 00000000 		.4byte	0
 6959              	.LLST52:
 6960 0d56 78000000 		.4byte	.LVL226
 6961 0d5a 8C000000 		.4byte	.LVL227
 6962 0d5e 0100     		.2byte	0x1
 6963 0d60 50       		.byte	0x50
 6964 0d61 8C000000 		.4byte	.LVL227
 6965 0d65 94000000 		.4byte	.LVL229
 6966 0d69 0100     		.2byte	0x1
 6967 0d6b 54       		.byte	0x54
 6968 0d6c CE000000 		.4byte	.LVL240
 6969 0d70 D0000000 		.4byte	.LVL241
 6970 0d74 0100     		.2byte	0x1
 6971 0d76 50       		.byte	0x50
 6972 0d77 D0000000 		.4byte	.LVL241
 6973 0d7b D4000000 		.4byte	.LVL242
 6974 0d7f 0100     		.2byte	0x1
 6975 0d81 54       		.byte	0x54
 6976 0d82 00000000 		.4byte	0
 6977 0d86 00000000 		.4byte	0
 6978              	.LLST53:
 6979 0d8a AA000000 		.4byte	.LVL233
 6980 0d8e C0000000 		.4byte	.LVL234
 6981 0d92 0100     		.2byte	0x1
 6982 0d94 50       		.byte	0x50
 6983 0d95 C0000000 		.4byte	.LVL234
 6984 0d99 C6000000 		.4byte	.LVL236
 6985 0d9d 0100     		.2byte	0x1
 6986 0d9f 54       		.byte	0x54
 6987 0da0 D8000000 		.4byte	.LVL243
 6988 0da4 DA000000 		.4byte	.LVL244
 6989 0da8 0100     		.2byte	0x1
 6990 0daa 50       		.byte	0x50
 6991 0dab 00000000 		.4byte	0
 6992 0daf 00000000 		.4byte	0
 6993              	.LLST54:
 6994 0db3 00000000 		.4byte	.LVL245
 6995 0db7 35000000 		.4byte	.LVL248-1
 6996 0dbb 0100     		.2byte	0x1
 6997 0dbd 50       		.byte	0x50
 6998 0dbe 35000000 		.4byte	.LVL248-1
ARM GAS  C:\Users\Phuong\AppData\Local\Temp\ccIIJJrV.s 			page 139


 6999 0dc2 60000000 		.4byte	.LVL252
 7000 0dc6 0100     		.2byte	0x1
 7001 0dc8 56       		.byte	0x56
 7002 0dc9 60000000 		.4byte	.LVL252
 7003 0dcd 6B000000 		.4byte	.LVL253-1
 7004 0dd1 0100     		.2byte	0x1
 7005 0dd3 50       		.byte	0x50
 7006 0dd4 6B000000 		.4byte	.LVL253-1
 7007 0dd8 8C000000 		.4byte	.LVL257
 7008 0ddc 0100     		.2byte	0x1
 7009 0dde 56       		.byte	0x56
 7010 0ddf 8C000000 		.4byte	.LVL257
 7011 0de3 98000000 		.4byte	.LVL260
 7012 0de7 0100     		.2byte	0x1
 7013 0de9 50       		.byte	0x50
 7014 0dea 98000000 		.4byte	.LVL260
 7015 0dee A8010000 		.4byte	.LVL294
 7016 0df2 0100     		.2byte	0x1
 7017 0df4 56       		.byte	0x56
 7018 0df5 A8010000 		.4byte	.LVL294
 7019 0df9 DE010000 		.4byte	.LVL301
 7020 0dfd 0400     		.2byte	0x4
 7021 0dff F3       		.byte	0xf3
 7022 0e00 01       		.uleb128 0x1
 7023 0e01 50       		.byte	0x50
 7024 0e02 9F       		.byte	0x9f
 7025 0e03 DE010000 		.4byte	.LVL301
 7026 0e07 F2010000 		.4byte	.LVL310
 7027 0e0b 0100     		.2byte	0x1
 7028 0e0d 56       		.byte	0x56
 7029 0e0e F2010000 		.4byte	.LVL310
 7030 0e12 3C020000 		.4byte	.LFE8
 7031 0e16 0400     		.2byte	0x4
 7032 0e18 F3       		.byte	0xf3
 7033 0e19 01       		.uleb128 0x1
 7034 0e1a 50       		.byte	0x50
 7035 0e1b 9F       		.byte	0x9f
 7036 0e1c 00000000 		.4byte	0
 7037 0e20 00000000 		.4byte	0
 7038              	.LLST55:
 7039 0e24 00000000 		.4byte	.LVL245
 7040 0e28 35000000 		.4byte	.LVL248-1
 7041 0e2c 0100     		.2byte	0x1
 7042 0e2e 51       		.byte	0x51
 7043 0e2f 35000000 		.4byte	.LVL248-1
 7044 0e33 60000000 		.4byte	.LVL252
 7045 0e37 0400     		.2byte	0x4
 7046 0e39 F3       		.byte	0xf3
 7047 0e3a 01       		.uleb128 0x1
 7048 0e3b 51       		.byte	0x51
 7049 0e3c 9F       		.byte	0x9f
 7050 0e3d 60000000 		.4byte	.LVL252
 7051 0e41 6B000000 		.4byte	.LVL253-1
 7052 0e45 0100     		.2byte	0x1
 7053 0e47 51       		.byte	0x51
 7054 0e48 6B000000 		.4byte	.LVL253-1
 7055 0e4c 8C000000 		.4byte	.LVL257
ARM GAS  C:\Users\Phuong\AppData\Local\Temp\ccIIJJrV.s 			page 140


 7056 0e50 0400     		.2byte	0x4
 7057 0e52 F3       		.byte	0xf3
 7058 0e53 01       		.uleb128 0x1
 7059 0e54 51       		.byte	0x51
 7060 0e55 9F       		.byte	0x9f
 7061 0e56 8C000000 		.4byte	.LVL257
 7062 0e5a AC000000 		.4byte	.LVL264
 7063 0e5e 0100     		.2byte	0x1
 7064 0e60 51       		.byte	0x51
 7065 0e61 AC000000 		.4byte	.LVL264
 7066 0e65 3C020000 		.4byte	.LFE8
 7067 0e69 0400     		.2byte	0x4
 7068 0e6b F3       		.byte	0xf3
 7069 0e6c 01       		.uleb128 0x1
 7070 0e6d 51       		.byte	0x51
 7071 0e6e 9F       		.byte	0x9f
 7072 0e6f 00000000 		.4byte	0
 7073 0e73 00000000 		.4byte	0
 7074              	.LLST56:
 7075 0e77 00000000 		.4byte	.LVL245
 7076 0e7b 35000000 		.4byte	.LVL248-1
 7077 0e7f 0100     		.2byte	0x1
 7078 0e81 52       		.byte	0x52
 7079 0e82 35000000 		.4byte	.LVL248-1
 7080 0e86 60000000 		.4byte	.LVL252
 7081 0e8a 0100     		.2byte	0x1
 7082 0e8c 57       		.byte	0x57
 7083 0e8d 60000000 		.4byte	.LVL252
 7084 0e91 6B000000 		.4byte	.LVL253-1
 7085 0e95 0100     		.2byte	0x1
 7086 0e97 52       		.byte	0x52
 7087 0e98 6B000000 		.4byte	.LVL253-1
 7088 0e9c 8C000000 		.4byte	.LVL257
 7089 0ea0 0100     		.2byte	0x1
 7090 0ea2 57       		.byte	0x57
 7091 0ea3 8C000000 		.4byte	.LVL257
 7092 0ea7 94000000 		.4byte	.LVL258
 7093 0eab 0100     		.2byte	0x1
 7094 0ead 52       		.byte	0x52
 7095 0eae 94000000 		.4byte	.LVL258
 7096 0eb2 F4010000 		.4byte	.LVL311
 7097 0eb6 0100     		.2byte	0x1
 7098 0eb8 57       		.byte	0x57
 7099 0eb9 F4010000 		.4byte	.LVL311
 7100 0ebd 3C020000 		.4byte	.LFE8
 7101 0ec1 0400     		.2byte	0x4
 7102 0ec3 F3       		.byte	0xf3
 7103 0ec4 01       		.uleb128 0x1
 7104 0ec5 52       		.byte	0x52
 7105 0ec6 9F       		.byte	0x9f
 7106 0ec7 00000000 		.4byte	0
 7107 0ecb 00000000 		.4byte	0
 7108              	.LLST57:
 7109 0ecf 00000000 		.4byte	.LVL245
 7110 0ed3 1E000000 		.4byte	.LVL247
 7111 0ed7 0100     		.2byte	0x1
 7112 0ed9 53       		.byte	0x53
ARM GAS  C:\Users\Phuong\AppData\Local\Temp\ccIIJJrV.s 			page 141


 7113 0eda 1E000000 		.4byte	.LVL247
 7114 0ede 38000000 		.4byte	.LVL249
 7115 0ee2 0100     		.2byte	0x1
 7116 0ee4 55       		.byte	0x55
 7117 0ee5 38000000 		.4byte	.LVL249
 7118 0ee9 60000000 		.4byte	.LVL252
 7119 0eed 0400     		.2byte	0x4
 7120 0eef F3       		.byte	0xf3
 7121 0ef0 01       		.uleb128 0x1
 7122 0ef1 53       		.byte	0x53
 7123 0ef2 9F       		.byte	0x9f
 7124 0ef3 60000000 		.4byte	.LVL252
 7125 0ef7 DE010000 		.4byte	.LVL301
 7126 0efb 0100     		.2byte	0x1
 7127 0efd 55       		.byte	0x55
 7128 0efe DE010000 		.4byte	.LVL301
 7129 0f02 E2010000 		.4byte	.LVL303
 7130 0f06 0400     		.2byte	0x4
 7131 0f08 F3       		.byte	0xf3
 7132 0f09 01       		.uleb128 0x1
 7133 0f0a 53       		.byte	0x53
 7134 0f0b 9F       		.byte	0x9f
 7135 0f0c E2010000 		.4byte	.LVL303
 7136 0f10 F2010000 		.4byte	.LVL310
 7137 0f14 0100     		.2byte	0x1
 7138 0f16 55       		.byte	0x55
 7139 0f17 F2010000 		.4byte	.LVL310
 7140 0f1b 3C020000 		.4byte	.LFE8
 7141 0f1f 0400     		.2byte	0x4
 7142 0f21 F3       		.byte	0xf3
 7143 0f22 01       		.uleb128 0x1
 7144 0f23 53       		.byte	0x53
 7145 0f24 9F       		.byte	0x9f
 7146 0f25 00000000 		.4byte	0
 7147 0f29 00000000 		.4byte	0
 7148              	.LLST58:
 7149 0f2d DA010000 		.4byte	.LVL300
 7150 0f31 DE010000 		.4byte	.LVL301
 7151 0f35 0200     		.2byte	0x2
 7152 0f37 30       		.byte	0x30
 7153 0f38 9F       		.byte	0x9f
 7154 0f39 F2010000 		.4byte	.LVL310
 7155 0f3d 3C020000 		.4byte	.LFE8
 7156 0f41 0100     		.2byte	0x1
 7157 0f43 50       		.byte	0x50
 7158 0f44 00000000 		.4byte	0
 7159 0f48 00000000 		.4byte	0
 7160              	.LLST59:
 7161 0f4c 18000000 		.4byte	.LVL246
 7162 0f50 35000000 		.4byte	.LVL248-1
 7163 0f54 0100     		.2byte	0x1
 7164 0f56 50       		.byte	0x50
 7165 0f57 35000000 		.4byte	.LVL248-1
 7166 0f5b 60000000 		.4byte	.LVL252
 7167 0f5f 0100     		.2byte	0x1
 7168 0f61 56       		.byte	0x56
 7169 0f62 60000000 		.4byte	.LVL252
ARM GAS  C:\Users\Phuong\AppData\Local\Temp\ccIIJJrV.s 			page 142


 7170 0f66 6B000000 		.4byte	.LVL253-1
 7171 0f6a 0100     		.2byte	0x1
 7172 0f6c 50       		.byte	0x50
 7173 0f6d 6B000000 		.4byte	.LVL253-1
 7174 0f71 8C000000 		.4byte	.LVL257
 7175 0f75 0100     		.2byte	0x1
 7176 0f77 56       		.byte	0x56
 7177 0f78 8C000000 		.4byte	.LVL257
 7178 0f7c 98000000 		.4byte	.LVL260
 7179 0f80 0100     		.2byte	0x1
 7180 0f82 50       		.byte	0x50
 7181 0f83 98000000 		.4byte	.LVL260
 7182 0f87 A8010000 		.4byte	.LVL294
 7183 0f8b 0100     		.2byte	0x1
 7184 0f8d 56       		.byte	0x56
 7185 0f8e A8010000 		.4byte	.LVL294
 7186 0f92 DE010000 		.4byte	.LVL301
 7187 0f96 0400     		.2byte	0x4
 7188 0f98 F3       		.byte	0xf3
 7189 0f99 01       		.uleb128 0x1
 7190 0f9a 50       		.byte	0x50
 7191 0f9b 9F       		.byte	0x9f
 7192 0f9c DE010000 		.4byte	.LVL301
 7193 0fa0 F2010000 		.4byte	.LVL310
 7194 0fa4 0100     		.2byte	0x1
 7195 0fa6 56       		.byte	0x56
 7196 0fa7 F2010000 		.4byte	.LVL310
 7197 0fab 3C020000 		.4byte	.LFE8
 7198 0faf 0400     		.2byte	0x4
 7199 0fb1 F3       		.byte	0xf3
 7200 0fb2 01       		.uleb128 0x1
 7201 0fb3 50       		.byte	0x50
 7202 0fb4 9F       		.byte	0x9f
 7203 0fb5 00000000 		.4byte	0
 7204 0fb9 00000000 		.4byte	0
 7205              	.LLST60:
 7206 0fbd 38000000 		.4byte	.LVL249
 7207 0fc1 5A000000 		.4byte	.LVL250
 7208 0fc5 0100     		.2byte	0x1
 7209 0fc7 50       		.byte	0x50
 7210 0fc8 5A000000 		.4byte	.LVL250
 7211 0fcc 60000000 		.4byte	.LVL252
 7212 0fd0 0100     		.2byte	0x1
 7213 0fd2 55       		.byte	0x55
 7214 0fd3 DE010000 		.4byte	.LVL301
 7215 0fd7 E0010000 		.4byte	.LVL302
 7216 0fdb 0100     		.2byte	0x1
 7217 0fdd 50       		.byte	0x50
 7218 0fde E0010000 		.4byte	.LVL302
 7219 0fe2 E2010000 		.4byte	.LVL303
 7220 0fe6 0100     		.2byte	0x1
 7221 0fe8 55       		.byte	0x55
 7222 0fe9 00000000 		.4byte	0
 7223 0fed 00000000 		.4byte	0
 7224              	.LLST61:
 7225 0ff1 6E000000 		.4byte	.LVL254
 7226 0ff5 86000000 		.4byte	.LVL255
ARM GAS  C:\Users\Phuong\AppData\Local\Temp\ccIIJJrV.s 			page 143


 7227 0ff9 0100     		.2byte	0x1
 7228 0ffb 50       		.byte	0x50
 7229 0ffc 86000000 		.4byte	.LVL255
 7230 1000 8C000000 		.4byte	.LVL257
 7231 1004 0100     		.2byte	0x1
 7232 1006 54       		.byte	0x54
 7233 1007 E2010000 		.4byte	.LVL303
 7234 100b E4010000 		.4byte	.LVL304
 7235 100f 0100     		.2byte	0x1
 7236 1011 50       		.byte	0x50
 7237 1012 E4010000 		.4byte	.LVL304
 7238 1016 E6010000 		.4byte	.LVL305
 7239 101a 0100     		.2byte	0x1
 7240 101c 54       		.byte	0x54
 7241 101d 00000000 		.4byte	0
 7242 1021 00000000 		.4byte	0
 7243              	.LLST62:
 7244 1025 A8000000 		.4byte	.LVL263
 7245 1029 A6010000 		.4byte	.LVL293
 7246 102d 0100     		.2byte	0x1
 7247 102f 59       		.byte	0x59
 7248 1030 A6010000 		.4byte	.LVL293
 7249 1034 DE010000 		.4byte	.LVL301
 7250 1038 1600     		.2byte	0x16
 7251 103a 91       		.byte	0x91
 7252 103b 04       		.sleb128 4
 7253 103c 06       		.byte	0x6
 7254 103d 23       		.byte	0x23
 7255 103e 09       		.uleb128 0x9
 7256 103f 32       		.byte	0x32
 7257 1040 25       		.byte	0x25
 7258 1041 08       		.byte	0x8
 7259 1042 FF       		.byte	0xff
 7260 1043 1A       		.byte	0x1a
 7261 1044 32       		.byte	0x32
 7262 1045 24       		.byte	0x24
 7263 1046 91       		.byte	0x91
 7264 1047 04       		.sleb128 4
 7265 1048 06       		.byte	0x6
 7266 1049 1C       		.byte	0x1c
 7267 104a 08       		.byte	0x8
 7268 104b FF       		.byte	0xff
 7269 104c 1A       		.byte	0x1a
 7270 104d 36       		.byte	0x36
 7271 104e 1C       		.byte	0x1c
 7272 104f 9F       		.byte	0x9f
 7273 1050 E6010000 		.4byte	.LVL305
 7274 1054 F2010000 		.4byte	.LVL310
 7275 1058 0100     		.2byte	0x1
 7276 105a 59       		.byte	0x59
 7277 105b 00000000 		.4byte	0
 7278 105f 00000000 		.4byte	0
 7279              	.LLST63:
 7280 1063 8C000000 		.4byte	.LVL257
 7281 1067 9E000000 		.4byte	.LVL261
 7282 106b 0300     		.2byte	0x3
 7283 106d 74       		.byte	0x74
ARM GAS  C:\Users\Phuong\AppData\Local\Temp\ccIIJJrV.s 			page 144


 7284 106e 06       		.sleb128 6
 7285 106f 9F       		.byte	0x9f
 7286 1070 9E000000 		.4byte	.LVL261
 7287 1074 A0000000 		.4byte	.LVL262
 7288 1078 0100     		.2byte	0x1
 7289 107a 53       		.byte	0x53
 7290 107b A0000000 		.4byte	.LVL262
 7291 107f CD000000 		.4byte	.LVL268-1
 7292 1083 0100     		.2byte	0x1
 7293 1085 5C       		.byte	0x5c
 7294 1086 CD000000 		.4byte	.LVL268-1
 7295 108a D0000000 		.4byte	.LVL269
 7296 108e 0A00     		.2byte	0xa
 7297 1090 74       		.byte	0x74
 7298 1091 09       		.sleb128 9
 7299 1092 32       		.byte	0x32
 7300 1093 25       		.byte	0x25
 7301 1094 08       		.byte	0x8
 7302 1095 FF       		.byte	0xff
 7303 1096 1A       		.byte	0x1a
 7304 1097 32       		.byte	0x32
 7305 1098 24       		.byte	0x24
 7306 1099 9F       		.byte	0x9f
 7307 109a D0000000 		.4byte	.LVL269
 7308 109e EE000000 		.4byte	.LVL272
 7309 10a2 0D00     		.2byte	0xd
 7310 10a4 91       		.byte	0x91
 7311 10a5 04       		.sleb128 4
 7312 10a6 06       		.byte	0x6
 7313 10a7 23       		.byte	0x23
 7314 10a8 09       		.uleb128 0x9
 7315 10a9 32       		.byte	0x32
 7316 10aa 25       		.byte	0x25
 7317 10ab 08       		.byte	0x8
 7318 10ac FF       		.byte	0xff
 7319 10ad 1A       		.byte	0x1a
 7320 10ae 32       		.byte	0x32
 7321 10af 24       		.byte	0x24
 7322 10b0 9F       		.byte	0x9f
 7323 10b1 EE000000 		.4byte	.LVL272
 7324 10b5 FB000000 		.4byte	.LVL274-1
 7325 10b9 0100     		.2byte	0x1
 7326 10bb 5C       		.byte	0x5c
 7327 10bc FB000000 		.4byte	.LVL274-1
 7328 10c0 FE000000 		.4byte	.LVL275
 7329 10c4 0A00     		.2byte	0xa
 7330 10c6 74       		.byte	0x74
 7331 10c7 09       		.sleb128 9
 7332 10c8 32       		.byte	0x32
 7333 10c9 25       		.byte	0x25
 7334 10ca 08       		.byte	0x8
 7335 10cb FF       		.byte	0xff
 7336 10cc 1A       		.byte	0x1a
 7337 10cd 32       		.byte	0x32
 7338 10ce 24       		.byte	0x24
 7339 10cf 9F       		.byte	0x9f
 7340 10d0 FE000000 		.4byte	.LVL275
ARM GAS  C:\Users\Phuong\AppData\Local\Temp\ccIIJJrV.s 			page 145


 7341 10d4 1A010000 		.4byte	.LVL278
 7342 10d8 0D00     		.2byte	0xd
 7343 10da 91       		.byte	0x91
 7344 10db 04       		.sleb128 4
 7345 10dc 06       		.byte	0x6
 7346 10dd 23       		.byte	0x23
 7347 10de 09       		.uleb128 0x9
 7348 10df 32       		.byte	0x32
 7349 10e0 25       		.byte	0x25
 7350 10e1 08       		.byte	0x8
 7351 10e2 FF       		.byte	0xff
 7352 10e3 1A       		.byte	0x1a
 7353 10e4 32       		.byte	0x32
 7354 10e5 24       		.byte	0x24
 7355 10e6 9F       		.byte	0x9f
 7356 10e7 1A010000 		.4byte	.LVL278
 7357 10eb 1F010000 		.4byte	.LVL279-1
 7358 10ef 0100     		.2byte	0x1
 7359 10f1 5C       		.byte	0x5c
 7360 10f2 1F010000 		.4byte	.LVL279-1
 7361 10f6 2C010000 		.4byte	.LVL282
 7362 10fa 0A00     		.2byte	0xa
 7363 10fc 74       		.byte	0x74
 7364 10fd 09       		.sleb128 9
 7365 10fe 32       		.byte	0x32
 7366 10ff 25       		.byte	0x25
 7367 1100 08       		.byte	0x8
 7368 1101 FF       		.byte	0xff
 7369 1102 1A       		.byte	0x1a
 7370 1103 32       		.byte	0x32
 7371 1104 24       		.byte	0x24
 7372 1105 9F       		.byte	0x9f
 7373 1106 2C010000 		.4byte	.LVL282
 7374 110a 46010000 		.4byte	.LVL285
 7375 110e 0D00     		.2byte	0xd
 7376 1110 91       		.byte	0x91
 7377 1111 04       		.sleb128 4
 7378 1112 06       		.byte	0x6
 7379 1113 23       		.byte	0x23
 7380 1114 09       		.uleb128 0x9
 7381 1115 32       		.byte	0x32
 7382 1116 25       		.byte	0x25
 7383 1117 08       		.byte	0x8
 7384 1118 FF       		.byte	0xff
 7385 1119 1A       		.byte	0x1a
 7386 111a 32       		.byte	0x32
 7387 111b 24       		.byte	0x24
 7388 111c 9F       		.byte	0x9f
 7389 111d 46010000 		.4byte	.LVL285
 7390 1121 8A010000 		.4byte	.LVL288
 7391 1125 0A00     		.2byte	0xa
 7392 1127 74       		.byte	0x74
 7393 1128 09       		.sleb128 9
 7394 1129 32       		.byte	0x32
 7395 112a 25       		.byte	0x25
 7396 112b 08       		.byte	0x8
 7397 112c FF       		.byte	0xff
ARM GAS  C:\Users\Phuong\AppData\Local\Temp\ccIIJJrV.s 			page 146


 7398 112d 1A       		.byte	0x1a
 7399 112e 32       		.byte	0x32
 7400 112f 24       		.byte	0x24
 7401 1130 9F       		.byte	0x9f
 7402 1131 8A010000 		.4byte	.LVL288
 7403 1135 8C010000 		.4byte	.LVL289
 7404 1139 0D00     		.2byte	0xd
 7405 113b 91       		.byte	0x91
 7406 113c 04       		.sleb128 4
 7407 113d 06       		.byte	0x6
 7408 113e 23       		.byte	0x23
 7409 113f 09       		.uleb128 0x9
 7410 1140 32       		.byte	0x32
 7411 1141 25       		.byte	0x25
 7412 1142 08       		.byte	0x8
 7413 1143 FF       		.byte	0xff
 7414 1144 1A       		.byte	0x1a
 7415 1145 32       		.byte	0x32
 7416 1146 24       		.byte	0x24
 7417 1147 9F       		.byte	0x9f
 7418 1148 8C010000 		.4byte	.LVL289
 7419 114c 8E010000 		.4byte	.LVL290
 7420 1150 0A00     		.2byte	0xa
 7421 1152 74       		.byte	0x74
 7422 1153 09       		.sleb128 9
 7423 1154 32       		.byte	0x32
 7424 1155 25       		.byte	0x25
 7425 1156 08       		.byte	0x8
 7426 1157 FF       		.byte	0xff
 7427 1158 1A       		.byte	0x1a
 7428 1159 32       		.byte	0x32
 7429 115a 24       		.byte	0x24
 7430 115b 9F       		.byte	0x9f
 7431 115c 8E010000 		.4byte	.LVL290
 7432 1160 DE010000 		.4byte	.LVL301
 7433 1164 0D00     		.2byte	0xd
 7434 1166 91       		.byte	0x91
 7435 1167 04       		.sleb128 4
 7436 1168 06       		.byte	0x6
 7437 1169 23       		.byte	0x23
 7438 116a 09       		.uleb128 0x9
 7439 116b 32       		.byte	0x32
 7440 116c 25       		.byte	0x25
 7441 116d 08       		.byte	0x8
 7442 116e FF       		.byte	0xff
 7443 116f 1A       		.byte	0x1a
 7444 1170 32       		.byte	0x32
 7445 1171 24       		.byte	0x24
 7446 1172 9F       		.byte	0x9f
 7447 1173 E6010000 		.4byte	.LVL305
 7448 1177 F2010000 		.4byte	.LVL310
 7449 117b 0D00     		.2byte	0xd
 7450 117d 91       		.byte	0x91
 7451 117e 04       		.sleb128 4
 7452 117f 06       		.byte	0x6
 7453 1180 23       		.byte	0x23
 7454 1181 09       		.uleb128 0x9
ARM GAS  C:\Users\Phuong\AppData\Local\Temp\ccIIJJrV.s 			page 147


 7455 1182 32       		.byte	0x32
 7456 1183 25       		.byte	0x25
 7457 1184 08       		.byte	0x8
 7458 1185 FF       		.byte	0xff
 7459 1186 1A       		.byte	0x1a
 7460 1187 32       		.byte	0x32
 7461 1188 24       		.byte	0x24
 7462 1189 9F       		.byte	0x9f
 7463 118a 00000000 		.4byte	0
 7464 118e 00000000 		.4byte	0
 7465              	.LLST64:
 7466 1192 96000000 		.4byte	.LVL259
 7467 1196 DE010000 		.4byte	.LVL301
 7468 119a 0100     		.2byte	0x1
 7469 119c 5A       		.byte	0x5a
 7470 119d E6010000 		.4byte	.LVL305
 7471 11a1 F2010000 		.4byte	.LVL310
 7472 11a5 0100     		.2byte	0x1
 7473 11a7 5A       		.byte	0x5a
 7474 11a8 00000000 		.4byte	0
 7475 11ac 00000000 		.4byte	0
 7476              	.LLST65:
 7477 11b0 A8000000 		.4byte	.LVL263
 7478 11b4 AE000000 		.4byte	.LVL265
 7479 11b8 0200     		.2byte	0x2
 7480 11ba 30       		.byte	0x30
 7481 11bb 9F       		.byte	0x9f
 7482 11bc AE000000 		.4byte	.LVL265
 7483 11c0 CD000000 		.4byte	.LVL268-1
 7484 11c4 0100     		.2byte	0x1
 7485 11c6 51       		.byte	0x51
 7486 11c7 EE000000 		.4byte	.LVL272
 7487 11cb FB000000 		.4byte	.LVL274-1
 7488 11cf 0100     		.2byte	0x1
 7489 11d1 51       		.byte	0x51
 7490 11d2 1A010000 		.4byte	.LVL278
 7491 11d6 1F010000 		.4byte	.LVL279-1
 7492 11da 0100     		.2byte	0x1
 7493 11dc 51       		.byte	0x51
 7494 11dd A8010000 		.4byte	.LVL294
 7495 11e1 DE010000 		.4byte	.LVL301
 7496 11e5 0100     		.2byte	0x1
 7497 11e7 59       		.byte	0x59
 7498 11e8 00000000 		.4byte	0
 7499 11ec 00000000 		.4byte	0
 7500              	.LLST66:
 7501 11f0 F2000000 		.4byte	.LVL273
 7502 11f4 DE010000 		.4byte	.LVL301
 7503 11f8 0100     		.2byte	0x1
 7504 11fa 5B       		.byte	0x5b
 7505 11fb EA010000 		.4byte	.LVL307
 7506 11ff F2010000 		.4byte	.LVL310
 7507 1203 0100     		.2byte	0x1
 7508 1205 5B       		.byte	0x5b
 7509 1206 00000000 		.4byte	0
 7510 120a 00000000 		.4byte	0
 7511              	.LLST67:
ARM GAS  C:\Users\Phuong\AppData\Local\Temp\ccIIJJrV.s 			page 148


 7512 120e 96000000 		.4byte	.LVL259
 7513 1212 AE000000 		.4byte	.LVL265
 7514 1216 0200     		.2byte	0x2
 7515 1218 30       		.byte	0x30
 7516 1219 9F       		.byte	0x9f
 7517 121a AE000000 		.4byte	.LVL265
 7518 121e CD000000 		.4byte	.LVL268-1
 7519 1222 0100     		.2byte	0x1
 7520 1224 52       		.byte	0x52
 7521 1225 EE000000 		.4byte	.LVL272
 7522 1229 FB000000 		.4byte	.LVL274-1
 7523 122d 0100     		.2byte	0x1
 7524 122f 52       		.byte	0x52
 7525 1230 1A010000 		.4byte	.LVL278
 7526 1234 1F010000 		.4byte	.LVL279-1
 7527 1238 0100     		.2byte	0x1
 7528 123a 52       		.byte	0x52
 7529 123b 00000000 		.4byte	0
 7530 123f 00000000 		.4byte	0
 7531              	.LLST68:
 7532 1243 D0000000 		.4byte	.LVL269
 7533 1247 E8000000 		.4byte	.LVL270
 7534 124b 0100     		.2byte	0x1
 7535 124d 50       		.byte	0x50
 7536 124e E8000000 		.4byte	.LVL270
 7537 1252 EE000000 		.4byte	.LVL272
 7538 1256 0100     		.2byte	0x1
 7539 1258 54       		.byte	0x54
 7540 1259 E6010000 		.4byte	.LVL305
 7541 125d E8010000 		.4byte	.LVL306
 7542 1261 0100     		.2byte	0x1
 7543 1263 50       		.byte	0x50
 7544 1264 E8010000 		.4byte	.LVL306
 7545 1268 EA010000 		.4byte	.LVL307
 7546 126c 0100     		.2byte	0x1
 7547 126e 54       		.byte	0x54
 7548 126f 00000000 		.4byte	0
 7549 1273 00000000 		.4byte	0
 7550              	.LLST69:
 7551 1277 FE000000 		.4byte	.LVL275
 7552 127b 12010000 		.4byte	.LVL276
 7553 127f 0100     		.2byte	0x1
 7554 1281 50       		.byte	0x50
 7555 1282 12010000 		.4byte	.LVL276
 7556 1286 1A010000 		.4byte	.LVL278
 7557 128a 0100     		.2byte	0x1
 7558 128c 54       		.byte	0x54
 7559 128d EA010000 		.4byte	.LVL307
 7560 1291 EC010000 		.4byte	.LVL308
 7561 1295 0100     		.2byte	0x1
 7562 1297 50       		.byte	0x50
 7563 1298 EC010000 		.4byte	.LVL308
 7564 129c F0010000 		.4byte	.LVL309
 7565 12a0 0100     		.2byte	0x1
 7566 12a2 54       		.byte	0x54
 7567 12a3 00000000 		.4byte	0
 7568 12a7 00000000 		.4byte	0
ARM GAS  C:\Users\Phuong\AppData\Local\Temp\ccIIJJrV.s 			page 149


 7569              	.LLST70:
 7570 12ab 22010000 		.4byte	.LVL280
 7571 12af 29010000 		.4byte	.LVL281-1
 7572 12b3 0100     		.2byte	0x1
 7573 12b5 50       		.byte	0x50
 7574 12b6 29010000 		.4byte	.LVL281-1
 7575 12ba 46010000 		.4byte	.LVL285
 7576 12be 0100     		.2byte	0x1
 7577 12c0 58       		.byte	0x58
 7578 12c1 46010000 		.4byte	.LVL285
 7579 12c5 77010000 		.4byte	.LVL286-1
 7580 12c9 0100     		.2byte	0x1
 7581 12cb 50       		.byte	0x50
 7582 12cc 77010000 		.4byte	.LVL286-1
 7583 12d0 DE010000 		.4byte	.LVL301
 7584 12d4 0100     		.2byte	0x1
 7585 12d6 58       		.byte	0x58
 7586 12d7 F0010000 		.4byte	.LVL309
 7587 12db F2010000 		.4byte	.LVL310
 7588 12df 0100     		.2byte	0x1
 7589 12e1 58       		.byte	0x58
 7590 12e2 00000000 		.4byte	0
 7591 12e6 00000000 		.4byte	0
 7592              	.LLST71:
 7593 12ea 2C010000 		.4byte	.LVL282
 7594 12ee 40010000 		.4byte	.LVL283
 7595 12f2 0100     		.2byte	0x1
 7596 12f4 50       		.byte	0x50
 7597 12f5 40010000 		.4byte	.LVL283
 7598 12f9 46010000 		.4byte	.LVL285
 7599 12fd 0100     		.2byte	0x1
 7600 12ff 54       		.byte	0x54
 7601 1300 F0010000 		.4byte	.LVL309
 7602 1304 F2010000 		.4byte	.LVL310
 7603 1308 0100     		.2byte	0x1
 7604 130a 50       		.byte	0x50
 7605 130b 00000000 		.4byte	0
 7606 130f 00000000 		.4byte	0
 7607              	.LLST72:
 7608 1313 46010000 		.4byte	.LVL285
 7609 1317 78010000 		.4byte	.LVL286
 7610 131b 0200     		.2byte	0x2
 7611 131d 30       		.byte	0x30
 7612 131e 9F       		.byte	0x9f
 7613 131f 78010000 		.4byte	.LVL286
 7614 1323 8A010000 		.4byte	.LVL288
 7615 1327 0200     		.2byte	0x2
 7616 1329 36       		.byte	0x36
 7617 132a 9F       		.byte	0x9f
 7618 132b 8A010000 		.4byte	.LVL288
 7619 132f 8C010000 		.4byte	.LVL289
 7620 1333 0100     		.2byte	0x1
 7621 1335 54       		.byte	0x54
 7622 1336 8C010000 		.4byte	.LVL289
 7623 133a 8E010000 		.4byte	.LVL290
 7624 133e 0200     		.2byte	0x2
 7625 1340 36       		.byte	0x36
ARM GAS  C:\Users\Phuong\AppData\Local\Temp\ccIIJJrV.s 			page 150


 7626 1341 9F       		.byte	0x9f
 7627 1342 8E010000 		.4byte	.LVL290
 7628 1346 D2010000 		.4byte	.LVL298
 7629 134a 0100     		.2byte	0x1
 7630 134c 54       		.byte	0x54
 7631 134d 00000000 		.4byte	0
 7632 1351 00000000 		.4byte	0
 7633              		.section	.debug_aranges,"",%progbits
 7634 0000 54000000 		.4byte	0x54
 7635 0004 0200     		.2byte	0x2
 7636 0006 00000000 		.4byte	.Ldebug_info0
 7637 000a 04       		.byte	0x4
 7638 000b 00       		.byte	0
 7639 000c 0000     		.2byte	0
 7640 000e 0000     		.2byte	0
 7641 0010 00000000 		.4byte	.LFB1
 7642 0014 4C000000 		.4byte	.LFE1-.LFB1
 7643 0018 00000000 		.4byte	.LFB2
 7644 001c 88000000 		.4byte	.LFE2-.LFB2
 7645 0020 00000000 		.4byte	.LFB3
 7646 0024 4C000000 		.4byte	.LFE3-.LFB3
 7647 0028 00000000 		.4byte	.LFB4
 7648 002c 88000000 		.4byte	.LFE4-.LFB4
 7649 0030 00000000 		.4byte	.LFB5
 7650 0034 DC020000 		.4byte	.LFE5-.LFB5
 7651 0038 00000000 		.4byte	.LFB6
 7652 003c 30010000 		.4byte	.LFE6-.LFB6
 7653 0040 00000000 		.4byte	.LFB7
 7654 0044 10010000 		.4byte	.LFE7-.LFB7
 7655 0048 00000000 		.4byte	.LFB8
 7656 004c 3C020000 		.4byte	.LFE8-.LFB8
 7657 0050 00000000 		.4byte	0
 7658 0054 00000000 		.4byte	0
 7659              		.section	.debug_ranges,"",%progbits
 7660              	.Ldebug_ranges0:
 7661 0000 1E010000 		.4byte	.LBB13
 7662 0004 A2010000 		.4byte	.LBE13
 7663 0008 94020000 		.4byte	.LBB17
 7664 000c 9A020000 		.4byte	.LBE17
 7665 0010 00000000 		.4byte	0
 7666 0014 00000000 		.4byte	0
 7667 0018 A2010000 		.4byte	.LBB15
 7668 001c 16020000 		.4byte	.LBE15
 7669 0020 9A020000 		.4byte	.LBB18
 7670 0024 9E020000 		.4byte	.LBE18
 7671 0028 00000000 		.4byte	0
 7672 002c 00000000 		.4byte	0
 7673 0030 16020000 		.4byte	.LBB16
 7674 0034 80020000 		.4byte	.LBE16
 7675 0038 9E020000 		.4byte	.LBB19
 7676 003c A2020000 		.4byte	.LBE19
 7677 0040 00000000 		.4byte	0
 7678 0044 00000000 		.4byte	0
 7679 0048 3E000000 		.4byte	.LBB21
 7680 004c F4000000 		.4byte	.LBE21
 7681 0050 FA000000 		.4byte	.LBB25
 7682 0054 0E010000 		.4byte	.LBE25
ARM GAS  C:\Users\Phuong\AppData\Local\Temp\ccIIJJrV.s 			page 151


 7683 0058 00000000 		.4byte	0
 7684 005c 00000000 		.4byte	0
 7685 0060 32000000 		.4byte	.LBB27
 7686 0064 C6000000 		.4byte	.LBE27
 7687 0068 CA000000 		.4byte	.LBB33
 7688 006c DA000000 		.4byte	.LBE33
 7689 0070 00000000 		.4byte	0
 7690 0074 00000000 		.4byte	0
 7691 0078 6A000000 		.4byte	.LBB29
 7692 007c C6000000 		.4byte	.LBE29
 7693 0080 CE000000 		.4byte	.LBB32
 7694 0084 DA000000 		.4byte	.LBE32
 7695 0088 00000000 		.4byte	0
 7696 008c 00000000 		.4byte	0
 7697 0090 8C000000 		.4byte	.LBB36
 7698 0094 DE010000 		.4byte	.LBE36
 7699 0098 E6010000 		.4byte	.LBB43
 7700 009c F2010000 		.4byte	.LBE43
 7701 00a0 00000000 		.4byte	0
 7702 00a4 00000000 		.4byte	0
 7703 00a8 1A010000 		.4byte	.LBB39
 7704 00ac DE010000 		.4byte	.LBE39
 7705 00b0 F0010000 		.4byte	.LBB42
 7706 00b4 F2010000 		.4byte	.LBE42
 7707 00b8 00000000 		.4byte	0
 7708 00bc 00000000 		.4byte	0
 7709 00c0 00000000 		.4byte	.LFB1
 7710 00c4 4C000000 		.4byte	.LFE1
 7711 00c8 00000000 		.4byte	.LFB2
 7712 00cc 88000000 		.4byte	.LFE2
 7713 00d0 00000000 		.4byte	.LFB3
 7714 00d4 4C000000 		.4byte	.LFE3
 7715 00d8 00000000 		.4byte	.LFB4
 7716 00dc 88000000 		.4byte	.LFE4
 7717 00e0 00000000 		.4byte	.LFB5
 7718 00e4 DC020000 		.4byte	.LFE5
 7719 00e8 00000000 		.4byte	.LFB6
 7720 00ec 30010000 		.4byte	.LFE6
 7721 00f0 00000000 		.4byte	.LFB7
 7722 00f4 10010000 		.4byte	.LFE7
 7723 00f8 00000000 		.4byte	.LFB8
 7724 00fc 3C020000 		.4byte	.LFE8
 7725 0100 00000000 		.4byte	0
 7726 0104 00000000 		.4byte	0
 7727              		.section	.debug_line,"",%progbits
 7728              	.Ldebug_line0:
 7729 0000 59060000 		.section	.debug_str,"MS",%progbits,1
 7729      0200D602 
 7729      00000201 
 7729      FB0E0D00 
 7729      01010101 
 7730              	.LASF23:
 7731 0000 4C495354 		.ascii	"LIST_ITEM_HANDLE\000"
 7731      5F495445 
 7731      4D5F4841 
 7731      4E444C45 
 7731      00
ARM GAS  C:\Users\Phuong\AppData\Local\Temp\ccIIJJrV.s 			page 152


 7732              	.LASF94:
 7733 0011 786C6F67 		.ascii	"xlogging_get_log_function\000"
 7733      67696E67 
 7733      5F676574 
 7733      5F6C6F67 
 7733      5F66756E 
 7734              	.LASF65:
 7735 002b 72657375 		.ascii	"result\000"
 7735      6C7400
 7736              	.LASF100:
 7737 0032 73696E67 		.ascii	"singlylinkedlist_find\000"
 7737      6C796C69 
 7737      6E6B6564 
 7737      6C697374 
 7737      5F66696E 
 7738              	.LASF63:
 7739 0048 6C697374 		.ascii	"list_item\000"
 7739      5F697465 
 7739      6D00
 7740              	.LASF56:
 7741 0052 52454345 		.ascii	"RECEIVE_FRAME_STATE\000"
 7741      4956455F 
 7741      4652414D 
 7741      455F5354 
 7741      41544500 
 7742              	.LASF107:
 7743 0066 6672616D 		.ascii	"frame_codec_destroy\000"
 7743      655F636F 
 7743      6465635F 
 7743      64657374 
 7743      726F7900 
 7744              	.LASF43:
 7745 007a 6F6E5F66 		.ascii	"on_frame_codec_error_callback_context\000"
 7745      72616D65 
 7745      5F636F64 
 7745      65635F65 
 7745      72726F72 
 7746              	.LASF93:
 7747 00a0 70616464 		.ascii	"padding_bytes\000"
 7747      696E675F 
 7747      62797465 
 7747      7300
 7748              	.LASF7:
 7749 00ae 73686F72 		.ascii	"short int\000"
 7749      7420696E 
 7749      7400
 7750              	.LASF4:
 7751 00b8 73697A65 		.ascii	"size_t\000"
 7751      5F7400
 7752              	.LASF96:
 7753 00bf 6D616C6C 		.ascii	"malloc\000"
 7753      6F6300
 7754              	.LASF19:
 7755 00c6 415A5F4C 		.ascii	"AZ_LOG_TRACE\000"
 7755      4F475F54 
 7755      52414345 
 7755      00
ARM GAS  C:\Users\Phuong\AppData\Local\Temp\ccIIJJrV.s 			page 153


 7756              	.LASF17:
 7757 00d3 415A5F4C 		.ascii	"AZ_LOG_ERROR\000"
 7757      4F475F45 
 7757      52524F52 
 7757      00
 7758              	.LASF35:
 7759 00e0 72656365 		.ascii	"receive_frame_pos\000"
 7759      6976655F 
 7759      6672616D 
 7759      655F706F 
 7759      7300
 7760              	.LASF49:
 7761 00f2 52454345 		.ascii	"RECEIVE_FRAME_STATE_TAG\000"
 7761      4956455F 
 7761      4652414D 
 7761      455F5354 
 7761      4154455F 
 7762              	.LASF47:
 7763 010a 4F4E5F42 		.ascii	"ON_BYTES_ENCODED\000"
 7763      59544553 
 7763      5F454E43 
 7763      4F444544 
 7763      00
 7764              	.LASF103:
 7765 011b 474E5520 		.ascii	"GNU C11 5.4.1 20160609 (release) [ARM/embedded-5-br"
 7765      43313120 
 7765      352E342E 
 7765      31203230 
 7765      31363036 
 7766 014e 616E6368 		.ascii	"anch revision 237715] -mcpu=cortex-m0plus -mthumb -"
 7766      20726576 
 7766      6973696F 
 7766      6E203233 
 7766      37373135 
 7767 0181 67202D4F 		.ascii	"g -Og -ffunction-sections -ffat-lto-objects\000"
 7767      67202D66 
 7767      66756E63 
 7767      74696F6E 
 7767      2D736563 
 7768              	.LASF25:
 7769 01ad 4C495354 		.ascii	"LIST_ITEM_INSTANCE_TAG\000"
 7769      5F495445 
 7769      4D5F494E 
 7769      5354414E 
 7769      43455F54 
 7770              	.LASF31:
 7771 01c4 5041594C 		.ascii	"PAYLOAD_TAG\000"
 7771      4F41445F 
 7771      54414700 
 7772              	.LASF10:
 7773 01d0 5F5F7569 		.ascii	"__uint32_t\000"
 7773      6E743332 
 7773      5F7400
 7774              	.LASF39:
 7775 01db 72656365 		.ascii	"receive_frame_type\000"
 7775      6976655F 
 7775      6672616D 
ARM GAS  C:\Users\Phuong\AppData\Local\Temp\ccIIJJrV.s 			page 154


 7775      655F7479 
 7775      706500
 7776              	.LASF57:
 7777 01ee 53554253 		.ascii	"SUBSCRIPTION_TAG\000"
 7777      43524950 
 7777      54494F4E 
 7777      5F544147 
 7777      00
 7778              	.LASF76:
 7779 01ff 746F5F63 		.ascii	"to_copy\000"
 7779      6F707900 
 7780              	.LASF46:
 7781 0207 4F4E5F46 		.ascii	"ON_FRAME_CODEC_ERROR\000"
 7781      52414D45 
 7781      5F434F44 
 7781      45435F45 
 7781      52524F52 
 7782              	.LASF61:
 7783 021c 53554253 		.ascii	"SUBSCRIPTION\000"
 7783      43524950 
 7783      54494F4E 
 7783      00
 7784              	.LASF108:
 7785 0229 6D656D63 		.ascii	"memcpy\000"
 7785      707900
 7786              	.LASF79:
 7787 0230 74797065 		.ascii	"type\000"
 7787      00
 7788              	.LASF80:
 7789 0235 6672616D 		.ascii	"frame_codec_unsubscribe\000"
 7789      655F636F 
 7789      6465635F 
 7789      756E7375 
 7789      62736372 
 7790              	.LASF106:
 7791 024d 66696E64 		.ascii	"find_subscription_by_frame_type\000"
 7791      5F737562 
 7791      73637269 
 7791      7074696F 
 7791      6E5F6279 
 7792              	.LASF104:
 7793 026d 536F7572 		.ascii	"Source\\azure_iot_sdk\\uamqp\\src\\frame_codec.c\000"
 7793      63655C61 
 7793      7A757265 
 7793      5F696F74 
 7793      5F73646B 
 7794              	.LASF58:
 7795 029a 6672616D 		.ascii	"frame_type\000"
 7795      655F7479 
 7795      706500
 7796              	.LASF95:
 7797 02a5 73696E67 		.ascii	"singlylinkedlist_item_get_value\000"
 7797      6C796C69 
 7797      6E6B6564 
 7797      6C697374 
 7797      5F697465 
 7798              	.LASF16:
ARM GAS  C:\Users\Phuong\AppData\Local\Temp\ccIIJJrV.s 			page 155


 7799 02c5 75696E74 		.ascii	"uint32_t\000"
 7799      33325F74 
 7799      00
 7800              	.LASF99:
 7801 02ce 66726565 		.ascii	"free\000"
 7801      00
 7802              	.LASF28:
 7803 02d3 6C656E67 		.ascii	"length\000"
 7803      746800
 7804              	.LASF44:
 7805 02da 6D61785F 		.ascii	"max_frame_size\000"
 7805      6672616D 
 7805      655F7369 
 7805      7A6500
 7806              	.LASF32:
 7807 02e9 4652414D 		.ascii	"FRAME_CODEC_INSTANCE_TAG\000"
 7807      455F434F 
 7807      4445435F 
 7807      494E5354 
 7807      414E4345 
 7808              	.LASF1:
 7809 0302 6C6F6E67 		.ascii	"long long int\000"
 7809      206C6F6E 
 7809      6720696E 
 7809      7400
 7810              	.LASF62:
 7811 0310 4652414D 		.ascii	"FRAME_CODEC_INSTANCE\000"
 7811      455F434F 
 7811      4445435F 
 7811      494E5354 
 7811      414E4345 
 7812              	.LASF102:
 7813 0325 73696E67 		.ascii	"singlylinkedlist_remove\000"
 7813      6C796C69 
 7813      6E6B6564 
 7813      6C697374 
 7813      5F72656D 
 7814              	.LASF37:
 7815 033d 74797065 		.ascii	"type_specific_size\000"
 7815      5F737065 
 7815      63696669 
 7815      635F7369 
 7815      7A6500
 7816              	.LASF88:
 7817 0350 646F6666 		.ascii	"doff\000"
 7817      00
 7818              	.LASF64:
 7819 0355 6D617463 		.ascii	"match_context\000"
 7819      685F636F 
 7819      6E746578 
 7819      7400
 7820              	.LASF101:
 7821 0363 73696E67 		.ascii	"singlylinkedlist_add\000"
 7821      6C796C69 
 7821      6E6B6564 
 7821      6C697374 
 7821      5F616464 
ARM GAS  C:\Users\Phuong\AppData\Local\Temp\ccIIJJrV.s 			page 156


 7822              	.LASF5:
 7823 0378 5F5F7569 		.ascii	"__uint8_t\000"
 7823      6E74385F 
 7823      7400
 7824              	.LASF22:
 7825 0382 53494E47 		.ascii	"SINGLYLINKEDLIST_HANDLE\000"
 7825      4C594C49 
 7825      4E4B4544 
 7825      4C495354 
 7825      5F48414E 
 7826              	.LASF42:
 7827 039a 6F6E5F66 		.ascii	"on_frame_codec_error\000"
 7827      72616D65 
 7827      5F636F64 
 7827      65635F65 
 7827      72726F72 
 7828              	.LASF6:
 7829 03af 756E7369 		.ascii	"unsigned char\000"
 7829      676E6564 
 7829      20636861 
 7829      7200
 7830              	.LASF30:
 7831 03bd 4652414D 		.ascii	"FRAME_CODEC_HANDLE\000"
 7831      455F434F 
 7831      4445435F 
 7831      48414E44 
 7831      4C4500
 7832              	.LASF68:
 7833 03d0 6672616D 		.ascii	"frame_codec\000"
 7833      655F636F 
 7833      64656300 
 7834              	.LASF24:
 7835 03dc 53494E47 		.ascii	"SINGLYLINKEDLIST_INSTANCE_TAG\000"
 7835      4C594C49 
 7835      4E4B4544 
 7835      4C495354 
 7835      5F494E53 
 7836              	.LASF2:
 7837 03fa 6C6F6E67 		.ascii	"long double\000"
 7837      20646F75 
 7837      626C6500 
 7838              	.LASF86:
 7839 0406 70616464 		.ascii	"padding_byte_count\000"
 7839      696E675F 
 7839      62797465 
 7839      5F636F75 
 7839      6E7400
 7840              	.LASF70:
 7841 0419 6672616D 		.ascii	"frame_codec_create\000"
 7841      655F636F 
 7841      6465635F 
 7841      63726561 
 7841      746500
 7842              	.LASF98:
 7843 042c 73696E67 		.ascii	"singlylinkedlist_destroy\000"
 7843      6C796C69 
 7843      6E6B6564 
ARM GAS  C:\Users\Phuong\AppData\Local\Temp\ccIIJJrV.s 			page 157


 7843      6C697374 
 7843      5F646573 
 7844              	.LASF72:
 7845 0445 6672616D 		.ascii	"frame_codec_receive_bytes\000"
 7845      655F636F 
 7845      6465635F 
 7845      72656365 
 7845      6976655F 
 7846              	.LASF89:
 7847 045f 6672616D 		.ascii	"frame_size\000"
 7847      655F7369 
 7847      7A6500
 7848              	.LASF53:
 7849 046a 52454345 		.ascii	"RECEIVE_FRAME_STATE_TYPE_SPECIFIC\000"
 7849      4956455F 
 7849      4652414D 
 7849      455F5354 
 7849      4154455F 
 7850              	.LASF105:
 7851 048c 433A5C55 		.ascii	"C:\\Users\\Phuong\\Documents\\PSoC Creator\\Dec0820"
 7851      73657273 
 7851      5C506875 
 7851      6F6E675C 
 7851      446F6375 
 7852 04ba 31385C69 		.ascii	"18\\iot-sdk-iot-dev\\PSOC6_FreeRTOS+LwIP+MbedTLS_Az"
 7852      6F742D73 
 7852      646B2D69 
 7852      6F742D64 
 7852      65765C50 
 7853 04eb 7572652D 		.ascii	"ure-IOT-Hub-Demo\\PSOC6_FreeRTOS+LwIP+MbedTLS_Azure"
 7853      494F542D 
 7853      4875622D 
 7853      44656D6F 
 7853      5C50534F 
 7854 051d 2D494F54 		.ascii	"-IOT-Hub-Demo.cydsn\000"
 7854      2D487562 
 7854      2D44656D 
 7854      6F2E6379 
 7854      64736E00 
 7855              	.LASF52:
 7856 0531 52454345 		.ascii	"RECEIVE_FRAME_STATE_FRAME_TYPE\000"
 7856      4956455F 
 7856      4652414D 
 7856      455F5354 
 7856      4154455F 
 7857              	.LASF3:
 7858 0550 7369676E 		.ascii	"signed char\000"
 7858      65642063 
 7858      68617200 
 7859              	.LASF12:
 7860 055c 6C6F6E67 		.ascii	"long long unsigned int\000"
 7860      206C6F6E 
 7860      6720756E 
 7860      7369676E 
 7860      65642069 
 7861              	.LASF82:
 7862 0573 7061796C 		.ascii	"payloads\000"
ARM GAS  C:\Users\Phuong\AppData\Local\Temp\ccIIJJrV.s 			page 158


 7862      6F616473 
 7862      00
 7863              	.LASF51:
 7864 057c 52454345 		.ascii	"RECEIVE_FRAME_STATE_DOFF\000"
 7864      4956455F 
 7864      4652414D 
 7864      455F5354 
 7864      4154455F 
 7865              	.LASF55:
 7866 0595 52454345 		.ascii	"RECEIVE_FRAME_STATE_ERROR\000"
 7866      4956455F 
 7866      4652414D 
 7866      455F5354 
 7866      4154455F 
 7867              	.LASF85:
 7868 05af 6F6E5F62 		.ascii	"on_bytes_encoded\000"
 7868      79746573 
 7868      5F656E63 
 7868      6F646564 
 7868      00
 7869              	.LASF0:
 7870 05c0 756E7369 		.ascii	"unsigned int\000"
 7870      676E6564 
 7870      20696E74 
 7870      00
 7871              	.LASF38:
 7872 05cd 72656365 		.ascii	"receive_frame_doff\000"
 7872      6976655F 
 7872      6672616D 
 7872      655F646F 
 7872      666600
 7873              	.LASF91:
 7874 05e0 6672616D 		.ascii	"frame_header\000"
 7874      655F6865 
 7874      61646572 
 7874      00
 7875              	.LASF29:
 7876 05ed 5041594C 		.ascii	"PAYLOAD\000"
 7876      4F414400 
 7877              	.LASF67:
 7878 05f5 5F5F6675 		.ascii	"__func__\000"
 7878      6E635F5F 
 7878      00
 7879              	.LASF20:
 7880 05fe 4C4F475F 		.ascii	"LOG_CATEGORY\000"
 7880      43415445 
 7880      474F5259 
 7880      00
 7881              	.LASF14:
 7882 060b 63686172 		.ascii	"char\000"
 7882      00
 7883              	.LASF40:
 7884 0610 72656365 		.ascii	"receive_frame_subscription\000"
 7884      6976655F 
 7884      6672616D 
 7884      655F7375 
 7884      62736372 
ARM GAS  C:\Users\Phuong\AppData\Local\Temp\ccIIJJrV.s 			page 159


 7885              	.LASF9:
 7886 062b 6C6F6E67 		.ascii	"long int\000"
 7886      20696E74 
 7886      00
 7887              	.LASF34:
 7888 0634 72656365 		.ascii	"receive_frame_state\000"
 7888      6976655F 
 7888      6672616D 
 7888      655F7374 
 7888      61746500 
 7889              	.LASF33:
 7890 0648 73756273 		.ascii	"subscription_list\000"
 7890      63726970 
 7890      74696F6E 
 7890      5F6C6973 
 7890      7400
 7891              	.LASF78:
 7892 065a 6672616D 		.ascii	"frame_codec_subscribe\000"
 7892      655F636F 
 7892      6465635F 
 7892      73756273 
 7892      63726962 
 7893              	.LASF8:
 7894 0670 73686F72 		.ascii	"short unsigned int\000"
 7894      7420756E 
 7894      7369676E 
 7894      65642069 
 7894      6E7400
 7895              	.LASF69:
 7896 0683 6672616D 		.ascii	"frame_codec_data\000"
 7896      655F636F 
 7896      6465635F 
 7896      64617461 
 7896      00
 7897              	.LASF26:
 7898 0694 5F426F6F 		.ascii	"_Bool\000"
 7898      6C00
 7899              	.LASF75:
 7900 069a 6974656D 		.ascii	"item_handle\000"
 7900      5F68616E 
 7900      646C6500 
 7901              	.LASF59:
 7902 06a6 6F6E5F66 		.ascii	"on_frame_received\000"
 7902      72616D65 
 7902      5F726563 
 7902      65697665 
 7902      6400
 7903              	.LASF48:
 7904 06b8 4C4F475F 		.ascii	"LOG_CATEGORY_TAG\000"
 7904      43415445 
 7904      474F5259 
 7904      5F544147 
 7904      00
 7905              	.LASF73:
 7906 06c9 62756666 		.ascii	"buffer\000"
 7906      657200
 7907              	.LASF83:
ARM GAS  C:\Users\Phuong\AppData\Local\Temp\ccIIJJrV.s 			page 160


 7908 06d0 7061796C 		.ascii	"payload_count\000"
 7908      6F61645F 
 7908      636F756E 
 7908      7400
 7909              	.LASF18:
 7910 06de 415A5F4C 		.ascii	"AZ_LOG_INFO\000"
 7910      4F475F49 
 7910      4E464F00 
 7911              	.LASF11:
 7912 06ea 6C6F6E67 		.ascii	"long unsigned int\000"
 7912      20756E73 
 7912      69676E65 
 7912      6420696E 
 7912      7400
 7913              	.LASF27:
 7914 06fc 62797465 		.ascii	"bytes\000"
 7914      7300
 7915              	.LASF84:
 7916 0702 74797065 		.ascii	"type_specific_bytes\000"
 7916      5F737065 
 7916      63696669 
 7916      635F6279 
 7916      74657300 
 7917              	.LASF87:
 7918 0716 6672616D 		.ascii	"frame_body_offset\000"
 7918      655F626F 
 7918      64795F6F 
 7918      66667365 
 7918      7400
 7919              	.LASF50:
 7920 0728 52454345 		.ascii	"RECEIVE_FRAME_STATE_FRAME_SIZE\000"
 7920      4956455F 
 7920      4652414D 
 7920      455F5354 
 7920      4154455F 
 7921              	.LASF77:
 7922 0747 6672616D 		.ascii	"frame_body_size\000"
 7922      655F626F 
 7922      64795F73 
 7922      697A6500 
 7923              	.LASF74:
 7924 0757 73697A65 		.ascii	"size\000"
 7924      00
 7925              	.LASF66:
 7926 075c 73756273 		.ascii	"subscription\000"
 7926      63726970 
 7926      74696F6E 
 7926      00
 7927              	.LASF92:
 7928 0769 63757272 		.ascii	"current_pos\000"
 7928      656E745F 
 7928      706F7300 
 7929              	.LASF71:
 7930 0775 6672616D 		.ascii	"frame_codec_set_max_frame_size\000"
 7930      655F636F 
 7930      6465635F 
 7930      7365745F 
ARM GAS  C:\Users\Phuong\AppData\Local\Temp\ccIIJJrV.s 			page 161


 7930      6D61785F 
 7931              	.LASF41:
 7932 0794 72656365 		.ascii	"receive_frame_bytes\000"
 7932      6976655F 
 7932      6672616D 
 7932      655F6279 
 7932      74657300 
 7933              	.LASF15:
 7934 07a8 75696E74 		.ascii	"uint8_t\000"
 7934      385F7400 
 7935              	.LASF90:
 7936 07b0 656E636F 		.ascii	"encoded_frame\000"
 7936      6465645F 
 7936      6672616D 
 7936      6500
 7937              	.LASF97:
 7938 07be 73696E67 		.ascii	"singlylinkedlist_create\000"
 7938      6C796C69 
 7938      6E6B6564 
 7938      6C697374 
 7938      5F637265 
 7939              	.LASF13:
 7940 07d6 73697A65 		.ascii	"sizetype\000"
 7940      74797065 
 7940      00
 7941              	.LASF54:
 7942 07df 52454345 		.ascii	"RECEIVE_FRAME_STATE_FRAME_BODY\000"
 7942      4956455F 
 7942      4652414D 
 7942      455F5354 
 7942      4154455F 
 7943              	.LASF36:
 7944 07fe 72656365 		.ascii	"receive_frame_size\000"
 7944      6976655F 
 7944      6672616D 
 7944      655F7369 
 7944      7A6500
 7945              	.LASF81:
 7946 0811 6672616D 		.ascii	"frame_codec_encode_frame\000"
 7946      655F636F 
 7946      6465635F 
 7946      656E636F 
 7946      64655F66 
 7947              	.LASF60:
 7948 082a 63616C6C 		.ascii	"callback_context\000"
 7948      6261636B 
 7948      5F636F6E 
 7948      74657874 
 7948      00
 7949              	.LASF45:
 7950 083b 4F4E5F46 		.ascii	"ON_FRAME_RECEIVED\000"
 7950      52414D45 
 7950      5F524543 
 7950      45495645 
 7950      4400
 7951              	.LASF21:
 7952 084d 4C4F4747 		.ascii	"LOGGER_LOG\000"
ARM GAS  C:\Users\Phuong\AppData\Local\Temp\ccIIJJrV.s 			page 162


 7952      45525F4C 
 7952      4F4700
 7953              		.ident	"GCC: (GNU Tools for ARM Embedded Processors) 5.4.1 20160609 (release) [ARM/embedded-5-bran
