ARM GAS  C:\Users\Phuong\AppData\Local\Temp\ccIIJJrV.s 			page 1


   1              		.syntax unified
   2              		.cpu cortex-m0plus
   3              		.fpu softvfp
   4              		.eabi_attribute 20, 1
   5              		.eabi_attribute 21, 1
   6              		.eabi_attribute 23, 3
   7              		.eabi_attribute 24, 1
   8              		.eabi_attribute 25, 1
   9              		.eabi_attribute 26, 1
  10              		.eabi_attribute 30, 1
  11              		.eabi_attribute 34, 0
  12              		.eabi_attribute 18, 4
  13              		.thumb
  14              		.syntax unified
  15              		.file	"frame_codec.c"
  16              		.text
  17              	.Ltext0:
  18              		.cfi_sections	.debug_frame
  19              		.section	.text.find_subscription_by_frame_type,"ax",%progbits
  20              		.align	2
  21              		.code	16
  22              		.thumb_func
  23              		.type	find_subscription_by_frame_type, %function
  24              	find_subscription_by_frame_type:
  25              	.LFB1:
  26              		.file 1 "Source\\azure_iot_sdk\\uamqp\\src\\frame_codec.c"
   1:Source\azure_iot_sdk\uamqp\src/frame_codec.c **** // Copyright (c) Microsoft. All rights reserved.
   2:Source\azure_iot_sdk\uamqp\src/frame_codec.c **** // Licensed under the MIT license. See LICENSE file in the project root for full license informatio
   3:Source\azure_iot_sdk\uamqp\src/frame_codec.c **** 
   4:Source\azure_iot_sdk\uamqp\src/frame_codec.c **** #include <stdlib.h>
   5:Source\azure_iot_sdk\uamqp\src/frame_codec.c **** #include <stdint.h>
   6:Source\azure_iot_sdk\uamqp\src/frame_codec.c **** #include <stdbool.h>
   7:Source\azure_iot_sdk\uamqp\src/frame_codec.c **** #include <string.h>
   8:Source\azure_iot_sdk\uamqp\src/frame_codec.c **** #include <inttypes.h>
   9:Source\azure_iot_sdk\uamqp\src/frame_codec.c **** #include "azure_c_shared_utility/optimize_size.h"
  10:Source\azure_iot_sdk\uamqp\src/frame_codec.c **** #include "azure_c_shared_utility/gballoc.h"
  11:Source\azure_iot_sdk\uamqp\src/frame_codec.c **** #include "azure_c_shared_utility/xlogging.h"
  12:Source\azure_iot_sdk\uamqp\src/frame_codec.c **** #include "azure_c_shared_utility/singlylinkedlist.h"
  13:Source\azure_iot_sdk\uamqp\src/frame_codec.c **** #include "azure_uamqp_c/frame_codec.h"
  14:Source\azure_iot_sdk\uamqp\src/frame_codec.c **** #include "azure_uamqp_c/amqpvalue.h"
  15:Source\azure_iot_sdk\uamqp\src/frame_codec.c **** 
  16:Source\azure_iot_sdk\uamqp\src/frame_codec.c **** #define FRAME_HEADER_SIZE 8
  17:Source\azure_iot_sdk\uamqp\src/frame_codec.c **** #define MAX_TYPE_SPECIFIC_SIZE    ((255 * 4) - 6)
  18:Source\azure_iot_sdk\uamqp\src/frame_codec.c **** 
  19:Source\azure_iot_sdk\uamqp\src/frame_codec.c **** typedef enum RECEIVE_FRAME_STATE_TAG
  20:Source\azure_iot_sdk\uamqp\src/frame_codec.c **** {
  21:Source\azure_iot_sdk\uamqp\src/frame_codec.c ****     RECEIVE_FRAME_STATE_FRAME_SIZE,
  22:Source\azure_iot_sdk\uamqp\src/frame_codec.c ****     RECEIVE_FRAME_STATE_DOFF,
  23:Source\azure_iot_sdk\uamqp\src/frame_codec.c ****     RECEIVE_FRAME_STATE_FRAME_TYPE,
  24:Source\azure_iot_sdk\uamqp\src/frame_codec.c ****     RECEIVE_FRAME_STATE_TYPE_SPECIFIC,
  25:Source\azure_iot_sdk\uamqp\src/frame_codec.c ****     RECEIVE_FRAME_STATE_FRAME_BODY,
  26:Source\azure_iot_sdk\uamqp\src/frame_codec.c ****     RECEIVE_FRAME_STATE_ERROR
  27:Source\azure_iot_sdk\uamqp\src/frame_codec.c **** } RECEIVE_FRAME_STATE;
  28:Source\azure_iot_sdk\uamqp\src/frame_codec.c **** 
  29:Source\azure_iot_sdk\uamqp\src/frame_codec.c **** typedef struct SUBSCRIPTION_TAG
  30:Source\azure_iot_sdk\uamqp\src/frame_codec.c **** {
  31:Source\azure_iot_sdk\uamqp\src/frame_codec.c ****     uint8_t frame_type;
ARM GAS  C:\Users\Phuong\AppData\Local\Temp\ccIIJJrV.s 			page 2


  32:Source\azure_iot_sdk\uamqp\src/frame_codec.c ****     ON_FRAME_RECEIVED on_frame_received;
  33:Source\azure_iot_sdk\uamqp\src/frame_codec.c ****     void* callback_context;
  34:Source\azure_iot_sdk\uamqp\src/frame_codec.c **** } SUBSCRIPTION;
  35:Source\azure_iot_sdk\uamqp\src/frame_codec.c **** 
  36:Source\azure_iot_sdk\uamqp\src/frame_codec.c **** typedef struct FRAME_CODEC_INSTANCE_TAG
  37:Source\azure_iot_sdk\uamqp\src/frame_codec.c **** {
  38:Source\azure_iot_sdk\uamqp\src/frame_codec.c ****     /* subscriptions */
  39:Source\azure_iot_sdk\uamqp\src/frame_codec.c ****     SINGLYLINKEDLIST_HANDLE subscription_list;
  40:Source\azure_iot_sdk\uamqp\src/frame_codec.c **** 
  41:Source\azure_iot_sdk\uamqp\src/frame_codec.c ****     /* decode frame */
  42:Source\azure_iot_sdk\uamqp\src/frame_codec.c ****     RECEIVE_FRAME_STATE receive_frame_state;
  43:Source\azure_iot_sdk\uamqp\src/frame_codec.c ****     size_t receive_frame_pos;
  44:Source\azure_iot_sdk\uamqp\src/frame_codec.c ****     uint32_t receive_frame_size;
  45:Source\azure_iot_sdk\uamqp\src/frame_codec.c ****     uint32_t type_specific_size;
  46:Source\azure_iot_sdk\uamqp\src/frame_codec.c ****     uint8_t receive_frame_doff;
  47:Source\azure_iot_sdk\uamqp\src/frame_codec.c ****     uint8_t receive_frame_type;
  48:Source\azure_iot_sdk\uamqp\src/frame_codec.c ****     SUBSCRIPTION* receive_frame_subscription;
  49:Source\azure_iot_sdk\uamqp\src/frame_codec.c ****     unsigned char* receive_frame_bytes;
  50:Source\azure_iot_sdk\uamqp\src/frame_codec.c ****     ON_FRAME_CODEC_ERROR on_frame_codec_error;
  51:Source\azure_iot_sdk\uamqp\src/frame_codec.c ****     void* on_frame_codec_error_callback_context;
  52:Source\azure_iot_sdk\uamqp\src/frame_codec.c **** 
  53:Source\azure_iot_sdk\uamqp\src/frame_codec.c ****     /* configuration */
  54:Source\azure_iot_sdk\uamqp\src/frame_codec.c ****     uint32_t max_frame_size;
  55:Source\azure_iot_sdk\uamqp\src/frame_codec.c **** } FRAME_CODEC_INSTANCE;
  56:Source\azure_iot_sdk\uamqp\src/frame_codec.c **** 
  57:Source\azure_iot_sdk\uamqp\src/frame_codec.c **** static bool find_subscription_by_frame_type(LIST_ITEM_HANDLE list_item, const void* match_context)
  58:Source\azure_iot_sdk\uamqp\src/frame_codec.c **** {
  27              		.loc 1 58 0
  28              		.cfi_startproc
  29              		@ args = 0, pretend = 0, frame = 0
  30              		@ frame_needed = 0, uses_anonymous_args = 0
  31              	.LVL0:
  32 0000 10B5     		push	{r4, lr}
  33              		.cfi_def_cfa_offset 8
  34              		.cfi_offset 4, -8
  35              		.cfi_offset 14, -4
  36 0002 82B0     		sub	sp, sp, #8
  37              		.cfi_def_cfa_offset 16
  38 0004 0C00     		movs	r4, r1
  59:Source\azure_iot_sdk\uamqp\src/frame_codec.c ****     bool result;
  60:Source\azure_iot_sdk\uamqp\src/frame_codec.c ****     SUBSCRIPTION* subscription = (SUBSCRIPTION*)singlylinkedlist_item_get_value(list_item);
  39              		.loc 1 60 0
  40 0006 FFF7FEFF 		bl	singlylinkedlist_item_get_value
  41              	.LVL1:
  61:Source\azure_iot_sdk\uamqp\src/frame_codec.c **** 
  62:Source\azure_iot_sdk\uamqp\src/frame_codec.c ****     if (subscription == NULL)
  42              		.loc 1 62 0
  43 000a 0028     		cmp	r0, #0
  44 000c 0ED1     		bne	.L2
  45              	.LBB2:
  63:Source\azure_iot_sdk\uamqp\src/frame_codec.c ****     {
  64:Source\azure_iot_sdk\uamqp\src/frame_codec.c ****         LogError("Could not get subscription information from the list item");
  46              		.loc 1 64 0 discriminator 3
  47 000e FFF7FEFF 		bl	xlogging_get_log_function
  48              	.LVL2:
  49 0012 041E     		subs	r4, r0, #0
  50              	.LVL3:
ARM GAS  C:\Users\Phuong\AppData\Local\Temp\ccIIJJrV.s 			page 3


  51 0014 11D0     		beq	.L4
  52              		.loc 1 64 0 is_stmt 0 discriminator 4
  53 0016 0A4B     		ldr	r3, .L5
  54 0018 0193     		str	r3, [sp, #4]
  55 001a 0123     		movs	r3, #1
  56 001c 0093     		str	r3, [sp]
  57 001e 3F33     		adds	r3, r3, #63
  58 0020 084A     		ldr	r2, .L5+4
  59 0022 0949     		ldr	r1, .L5+8
  60 0024 0020     		movs	r0, #0
  61              	.LVL4:
  62 0026 A047     		blx	r4
  63              	.LVL5:
  64              	.LBE2:
  65:Source\azure_iot_sdk\uamqp\src/frame_codec.c ****         result = false;
  65              		.loc 1 65 0 is_stmt 1 discriminator 4
  66 0028 0020     		movs	r0, #0
  67 002a 07E0     		b	.L3
  68              	.LVL6:
  69              	.L2:
  66:Source\azure_iot_sdk\uamqp\src/frame_codec.c ****     }
  67:Source\azure_iot_sdk\uamqp\src/frame_codec.c ****     else
  68:Source\azure_iot_sdk\uamqp\src/frame_codec.c ****     {
  69:Source\azure_iot_sdk\uamqp\src/frame_codec.c ****         result = subscription->frame_type == *((uint8_t*)match_context) ? true : false;
  70              		.loc 1 69 0
  71 002c 0378     		ldrb	r3, [r0]
  72 002e 2078     		ldrb	r0, [r4]
  73              	.LVL7:
  74 0030 181A     		subs	r0, r3, r0
  75 0032 4342     		rsbs	r3, r0, #0
  76 0034 5841     		adcs	r0, r0, r3
  77 0036 C0B2     		uxtb	r0, r0
  78              	.LVL8:
  79 0038 00E0     		b	.L3
  80              	.LVL9:
  81              	.L4:
  65:Source\azure_iot_sdk\uamqp\src/frame_codec.c ****         result = false;
  82              		.loc 1 65 0
  83 003a 0020     		movs	r0, #0
  84              	.LVL10:
  85              	.L3:
  70:Source\azure_iot_sdk\uamqp\src/frame_codec.c ****     }
  71:Source\azure_iot_sdk\uamqp\src/frame_codec.c **** 
  72:Source\azure_iot_sdk\uamqp\src/frame_codec.c ****     return result;
  73:Source\azure_iot_sdk\uamqp\src/frame_codec.c **** }
  86              		.loc 1 73 0
  87 003c 02B0     		add	sp, sp, #8
  88              		@ sp needed
  89 003e 10BD     		pop	{r4, pc}
  90              	.L6:
  91              		.align	2
  92              	.L5:
  93 0040 30000000 		.word	.LC3
  94 0044 14000000 		.word	.LANCHOR0
  95 0048 00000000 		.word	.LC1
  96              		.cfi_endproc
  97              	.LFE1:
ARM GAS  C:\Users\Phuong\AppData\Local\Temp\ccIIJJrV.s 			page 4


  98              		.size	find_subscription_by_frame_type, .-find_subscription_by_frame_type
  99              		.section	.text.frame_codec_create,"ax",%progbits
 100              		.align	2
 101              		.global	frame_codec_create
 102              		.code	16
 103              		.thumb_func
 104              		.type	frame_codec_create, %function
 105              	frame_codec_create:
 106              	.LFB2:
  74:Source\azure_iot_sdk\uamqp\src/frame_codec.c **** 
  75:Source\azure_iot_sdk\uamqp\src/frame_codec.c **** FRAME_CODEC_HANDLE frame_codec_create(ON_FRAME_CODEC_ERROR on_frame_codec_error, void* callback_con
  76:Source\azure_iot_sdk\uamqp\src/frame_codec.c **** {
 107              		.loc 1 76 0
 108              		.cfi_startproc
 109              		@ args = 0, pretend = 0, frame = 0
 110              		@ frame_needed = 0, uses_anonymous_args = 0
 111              	.LVL11:
 112 0000 70B5     		push	{r4, r5, r6, lr}
 113              		.cfi_def_cfa_offset 16
 114              		.cfi_offset 4, -16
 115              		.cfi_offset 5, -12
 116              		.cfi_offset 6, -8
 117              		.cfi_offset 14, -4
 118 0002 82B0     		sub	sp, sp, #8
 119              		.cfi_def_cfa_offset 24
 120 0004 0500     		movs	r5, r0
 121 0006 0E00     		movs	r6, r1
  77:Source\azure_iot_sdk\uamqp\src/frame_codec.c ****     FRAME_CODEC_INSTANCE* result;
  78:Source\azure_iot_sdk\uamqp\src/frame_codec.c **** 
  79:Source\azure_iot_sdk\uamqp\src/frame_codec.c ****     /* Codes_SRS_FRAME_CODEC_01_020: [If the on_frame_codec_error argument is NULL, frame_codec_cre
  80:Source\azure_iot_sdk\uamqp\src/frame_codec.c ****     /* Codes_SRS_FRAME_CODEC_01_104: [The callback_context shall be allowed to be NULL.] */
  81:Source\azure_iot_sdk\uamqp\src/frame_codec.c ****     if (on_frame_codec_error == NULL)
 122              		.loc 1 81 0
 123 0008 0028     		cmp	r0, #0
 124 000a 0FD1     		bne	.L8
 125              	.LBB3:
  82:Source\azure_iot_sdk\uamqp\src/frame_codec.c ****     {
  83:Source\azure_iot_sdk\uamqp\src/frame_codec.c ****         LogError("NULL on_frame_codec_error");
 126              		.loc 1 83 0 discriminator 3
 127 000c FFF7FEFF 		bl	xlogging_get_log_function
 128              	.LVL12:
 129 0010 041E     		subs	r4, r0, #0
 130              	.LVL13:
 131 0012 2DD0     		beq	.L11
 132              		.loc 1 83 0 is_stmt 0 discriminator 4
 133 0014 184B     		ldr	r3, .L12
 134 0016 0193     		str	r3, [sp, #4]
 135 0018 0123     		movs	r3, #1
 136 001a 0093     		str	r3, [sp]
 137 001c 5233     		adds	r3, r3, #82
 138 001e 174A     		ldr	r2, .L12+4
 139 0020 2032     		adds	r2, r2, #32
 140 0022 1749     		ldr	r1, .L12+8
 141 0024 0020     		movs	r0, #0
 142              	.LVL14:
 143 0026 A047     		blx	r4
 144              	.LVL15:
ARM GAS  C:\Users\Phuong\AppData\Local\Temp\ccIIJJrV.s 			page 5


 145              	.LBE3:
  84:Source\azure_iot_sdk\uamqp\src/frame_codec.c ****         result = NULL;
 146              		.loc 1 84 0 is_stmt 1 discriminator 4
 147 0028 0024     		movs	r4, #0
 148              	.LVL16:
 149 002a 22E0     		b	.L9
 150              	.LVL17:
 151              	.L8:
  85:Source\azure_iot_sdk\uamqp\src/frame_codec.c ****     }
  86:Source\azure_iot_sdk\uamqp\src/frame_codec.c ****     else
  87:Source\azure_iot_sdk\uamqp\src/frame_codec.c ****     {
  88:Source\azure_iot_sdk\uamqp\src/frame_codec.c ****         result = (FRAME_CODEC_INSTANCE*)malloc(sizeof(FRAME_CODEC_INSTANCE));
 152              		.loc 1 88 0
 153 002c 2C20     		movs	r0, #44
 154              	.LVL18:
 155 002e FFF7FEFF 		bl	malloc
 156              	.LVL19:
 157 0032 041E     		subs	r4, r0, #0
 158              	.LVL20:
  89:Source\azure_iot_sdk\uamqp\src/frame_codec.c ****         /* Codes_SRS_FRAME_CODEC_01_022: [If allocating memory for the frame_codec instance fails, 
  90:Source\azure_iot_sdk\uamqp\src/frame_codec.c ****         if (result == NULL)
 159              		.loc 1 90 0
 160 0034 0ED1     		bne	.L10
 161              	.LBB4:
  91:Source\azure_iot_sdk\uamqp\src/frame_codec.c ****         {
  92:Source\azure_iot_sdk\uamqp\src/frame_codec.c ****             LogError("Could not allocate frame codec");
 162              		.loc 1 92 0 discriminator 3
 163 0036 FFF7FEFF 		bl	xlogging_get_log_function
 164              	.LVL21:
 165 003a 051E     		subs	r5, r0, #0
 166              	.LVL22:
 167 003c 19D0     		beq	.L9
 168              		.loc 1 92 0 is_stmt 0 discriminator 4
 169 003e 114B     		ldr	r3, .L12+12
 170 0040 0193     		str	r3, [sp, #4]
 171 0042 0123     		movs	r3, #1
 172 0044 0093     		str	r3, [sp]
 173 0046 5B33     		adds	r3, r3, #91
 174 0048 0C4A     		ldr	r2, .L12+4
 175 004a 2032     		adds	r2, r2, #32
 176 004c 0C49     		ldr	r1, .L12+8
 177 004e 0020     		movs	r0, #0
 178              	.LVL23:
 179 0050 A847     		blx	r5
 180              	.LVL24:
 181 0052 0EE0     		b	.L9
 182              	.LVL25:
 183              	.L10:
 184              	.LBE4:
  93:Source\azure_iot_sdk\uamqp\src/frame_codec.c ****         }
  94:Source\azure_iot_sdk\uamqp\src/frame_codec.c ****         else
  95:Source\azure_iot_sdk\uamqp\src/frame_codec.c ****         {
  96:Source\azure_iot_sdk\uamqp\src/frame_codec.c ****             /* Codes_SRS_FRAME_CODEC_01_021: [frame_codec_create shall create a new instance of fra
  97:Source\azure_iot_sdk\uamqp\src/frame_codec.c ****             result->receive_frame_state = RECEIVE_FRAME_STATE_FRAME_SIZE;
 185              		.loc 1 97 0 is_stmt 1
 186 0054 0023     		movs	r3, #0
 187 0056 0371     		strb	r3, [r0, #4]
ARM GAS  C:\Users\Phuong\AppData\Local\Temp\ccIIJJrV.s 			page 6


  98:Source\azure_iot_sdk\uamqp\src/frame_codec.c ****             result->on_frame_codec_error = on_frame_codec_error;
 188              		.loc 1 98 0
 189 0058 0562     		str	r5, [r0, #32]
  99:Source\azure_iot_sdk\uamqp\src/frame_codec.c ****             result->on_frame_codec_error_callback_context = callback_context;
 190              		.loc 1 99 0
 191 005a 4662     		str	r6, [r0, #36]
 100:Source\azure_iot_sdk\uamqp\src/frame_codec.c ****             result->receive_frame_pos = 0;
 192              		.loc 1 100 0
 193 005c 8360     		str	r3, [r0, #8]
 101:Source\azure_iot_sdk\uamqp\src/frame_codec.c ****             result->receive_frame_size = 0;
 194              		.loc 1 101 0
 195 005e C360     		str	r3, [r0, #12]
 102:Source\azure_iot_sdk\uamqp\src/frame_codec.c ****             result->receive_frame_bytes = NULL;
 196              		.loc 1 102 0
 197 0060 C361     		str	r3, [r0, #28]
 103:Source\azure_iot_sdk\uamqp\src/frame_codec.c ****             result->subscription_list = singlylinkedlist_create();
 198              		.loc 1 103 0
 199 0062 FFF7FEFF 		bl	singlylinkedlist_create
 200              	.LVL26:
 201 0066 2060     		str	r0, [r4]
 104:Source\azure_iot_sdk\uamqp\src/frame_codec.c **** 
 105:Source\azure_iot_sdk\uamqp\src/frame_codec.c ****             /* Codes_SRS_FRAME_CODEC_01_082: [The initial max_frame_size_shall be 512.] */
 106:Source\azure_iot_sdk\uamqp\src/frame_codec.c ****             result->max_frame_size = 512;
 202              		.loc 1 106 0
 203 0068 8023     		movs	r3, #128
 204 006a 9B00     		lsls	r3, r3, #2
 205 006c A362     		str	r3, [r4, #40]
 206 006e 00E0     		b	.L9
 207              	.LVL27:
 208              	.L11:
  84:Source\azure_iot_sdk\uamqp\src/frame_codec.c ****     }
 209              		.loc 1 84 0
 210 0070 0024     		movs	r4, #0
 211              	.LVL28:
 212              	.L9:
 107:Source\azure_iot_sdk\uamqp\src/frame_codec.c ****         }
 108:Source\azure_iot_sdk\uamqp\src/frame_codec.c ****     }
 109:Source\azure_iot_sdk\uamqp\src/frame_codec.c **** 
 110:Source\azure_iot_sdk\uamqp\src/frame_codec.c ****     return result;
 111:Source\azure_iot_sdk\uamqp\src/frame_codec.c **** }
 213              		.loc 1 111 0
 214 0072 2000     		movs	r0, r4
 215 0074 02B0     		add	sp, sp, #8
 216              		@ sp needed
 217              	.LVL29:
 218              	.LVL30:
 219 0076 70BD     		pop	{r4, r5, r6, pc}
 220              	.L13:
 221              		.align	2
 222              	.L12:
 223 0078 6C000000 		.word	.LC7
 224 007c 14000000 		.word	.LANCHOR0
 225 0080 00000000 		.word	.LC1
 226 0084 88000000 		.word	.LC9
 227              		.cfi_endproc
 228              	.LFE2:
 229              		.size	frame_codec_create, .-frame_codec_create
ARM GAS  C:\Users\Phuong\AppData\Local\Temp\ccIIJJrV.s 			page 7


 230              		.section	.text.frame_codec_destroy,"ax",%progbits
 231              		.align	2
 232              		.global	frame_codec_destroy
 233              		.code	16
 234              		.thumb_func
 235              		.type	frame_codec_destroy, %function
 236              	frame_codec_destroy:
 237              	.LFB3:
 112:Source\azure_iot_sdk\uamqp\src/frame_codec.c **** 
 113:Source\azure_iot_sdk\uamqp\src/frame_codec.c **** void frame_codec_destroy(FRAME_CODEC_HANDLE frame_codec)
 114:Source\azure_iot_sdk\uamqp\src/frame_codec.c **** {
 238              		.loc 1 114 0
 239              		.cfi_startproc
 240              		@ args = 0, pretend = 0, frame = 0
 241              		@ frame_needed = 0, uses_anonymous_args = 0
 242              	.LVL31:
 243 0000 10B5     		push	{r4, lr}
 244              		.cfi_def_cfa_offset 8
 245              		.cfi_offset 4, -8
 246              		.cfi_offset 14, -4
 247 0002 82B0     		sub	sp, sp, #8
 248              		.cfi_def_cfa_offset 16
 249 0004 041E     		subs	r4, r0, #0
 115:Source\azure_iot_sdk\uamqp\src/frame_codec.c ****     /* Codes_SRS_FRAME_CODEC_01_024: [If frame_codec is NULL, frame_codec_destroy shall do nothing.
 116:Source\azure_iot_sdk\uamqp\src/frame_codec.c ****     if (frame_codec == NULL)
 250              		.loc 1 116 0
 251 0006 0ED1     		bne	.L15
 252              	.LBB5:
 117:Source\azure_iot_sdk\uamqp\src/frame_codec.c ****     {
 118:Source\azure_iot_sdk\uamqp\src/frame_codec.c ****         LogError("NULL frame_codec");
 253              		.loc 1 118 0 discriminator 3
 254 0008 FFF7FEFF 		bl	xlogging_get_log_function
 255              	.LVL32:
 256 000c 041E     		subs	r4, r0, #0
 257              	.LVL33:
 258 000e 15D0     		beq	.L14
 259              		.loc 1 118 0 is_stmt 0 discriminator 4
 260 0010 0B4B     		ldr	r3, .L18
 261 0012 0193     		str	r3, [sp, #4]
 262 0014 0123     		movs	r3, #1
 263 0016 0093     		str	r3, [sp]
 264 0018 7533     		adds	r3, r3, #117
 265 001a 0A4A     		ldr	r2, .L18+4
 266 001c 3432     		adds	r2, r2, #52
 267 001e 0A49     		ldr	r1, .L18+8
 268 0020 0020     		movs	r0, #0
 269              	.LVL34:
 270 0022 A047     		blx	r4
 271              	.LVL35:
 272 0024 0AE0     		b	.L14
 273              	.LVL36:
 274              	.L15:
 275              	.LBE5:
 276              	.LBB6:
 119:Source\azure_iot_sdk\uamqp\src/frame_codec.c ****     }
 120:Source\azure_iot_sdk\uamqp\src/frame_codec.c ****     else
 121:Source\azure_iot_sdk\uamqp\src/frame_codec.c ****     {
ARM GAS  C:\Users\Phuong\AppData\Local\Temp\ccIIJJrV.s 			page 8


 122:Source\azure_iot_sdk\uamqp\src/frame_codec.c ****         FRAME_CODEC_INSTANCE* frame_codec_data = (FRAME_CODEC_INSTANCE*)frame_codec;
 123:Source\azure_iot_sdk\uamqp\src/frame_codec.c **** 
 124:Source\azure_iot_sdk\uamqp\src/frame_codec.c ****         singlylinkedlist_destroy(frame_codec_data->subscription_list);
 277              		.loc 1 124 0 is_stmt 1
 278 0026 0068     		ldr	r0, [r0]
 279              	.LVL37:
 280 0028 FFF7FEFF 		bl	singlylinkedlist_destroy
 281              	.LVL38:
 125:Source\azure_iot_sdk\uamqp\src/frame_codec.c ****         if (frame_codec_data->receive_frame_bytes != NULL)
 282              		.loc 1 125 0
 283 002c E069     		ldr	r0, [r4, #28]
 284 002e 0028     		cmp	r0, #0
 285 0030 01D0     		beq	.L17
 126:Source\azure_iot_sdk\uamqp\src/frame_codec.c ****         {
 127:Source\azure_iot_sdk\uamqp\src/frame_codec.c ****             free(frame_codec_data->receive_frame_bytes);
 286              		.loc 1 127 0
 287 0032 FFF7FEFF 		bl	free
 288              	.LVL39:
 289              	.L17:
 128:Source\azure_iot_sdk\uamqp\src/frame_codec.c ****         }
 129:Source\azure_iot_sdk\uamqp\src/frame_codec.c **** 
 130:Source\azure_iot_sdk\uamqp\src/frame_codec.c ****         /* Codes_SRS_FRAME_CODEC_01_023: [frame_codec_destroy shall free all resources associated w
 131:Source\azure_iot_sdk\uamqp\src/frame_codec.c ****         free(frame_codec);
 290              		.loc 1 131 0
 291 0036 2000     		movs	r0, r4
 292 0038 FFF7FEFF 		bl	free
 293              	.LVL40:
 294              	.L14:
 295              	.LBE6:
 132:Source\azure_iot_sdk\uamqp\src/frame_codec.c ****     }
 133:Source\azure_iot_sdk\uamqp\src/frame_codec.c **** }
 296              		.loc 1 133 0
 297 003c 02B0     		add	sp, sp, #8
 298              		@ sp needed
 299 003e 10BD     		pop	{r4, pc}
 300              	.L19:
 301              		.align	2
 302              	.L18:
 303 0040 A8000000 		.word	.LC13
 304 0044 14000000 		.word	.LANCHOR0
 305 0048 00000000 		.word	.LC1
 306              		.cfi_endproc
 307              	.LFE3:
 308              		.size	frame_codec_destroy, .-frame_codec_destroy
 309              		.section	.text.frame_codec_set_max_frame_size,"ax",%progbits
 310              		.align	2
 311              		.global	frame_codec_set_max_frame_size
 312              		.code	16
 313              		.thumb_func
 314              		.type	frame_codec_set_max_frame_size, %function
 315              	frame_codec_set_max_frame_size:
 316              	.LFB4:
 134:Source\azure_iot_sdk\uamqp\src/frame_codec.c **** 
 135:Source\azure_iot_sdk\uamqp\src/frame_codec.c **** int frame_codec_set_max_frame_size(FRAME_CODEC_HANDLE frame_codec, uint32_t max_frame_size)
 136:Source\azure_iot_sdk\uamqp\src/frame_codec.c **** {
 317              		.loc 1 136 0
 318              		.cfi_startproc
ARM GAS  C:\Users\Phuong\AppData\Local\Temp\ccIIJJrV.s 			page 9


 319              		@ args = 0, pretend = 0, frame = 0
 320              		@ frame_needed = 0, uses_anonymous_args = 0
 321              	.LVL41:
 322 0000 70B5     		push	{r4, r5, r6, lr}
 323              		.cfi_def_cfa_offset 16
 324              		.cfi_offset 4, -16
 325              		.cfi_offset 5, -12
 326              		.cfi_offset 6, -8
 327              		.cfi_offset 14, -4
 328 0002 84B0     		sub	sp, sp, #16
 329              		.cfi_def_cfa_offset 32
 330 0004 0400     		movs	r4, r0
 331 0006 0D00     		movs	r5, r1
 332              	.LVL42:
 137:Source\azure_iot_sdk\uamqp\src/frame_codec.c ****     int result;
 138:Source\azure_iot_sdk\uamqp\src/frame_codec.c ****     FRAME_CODEC_INSTANCE* frame_codec_data = (FRAME_CODEC_INSTANCE*)frame_codec;
 139:Source\azure_iot_sdk\uamqp\src/frame_codec.c **** 
 140:Source\azure_iot_sdk\uamqp\src/frame_codec.c ****     /* Codes_SRS_FRAME_CODEC_01_077: [If frame_codec is NULL, frame_codec_set_max_frame_size shall 
 141:Source\azure_iot_sdk\uamqp\src/frame_codec.c ****     if ((frame_codec == NULL) ||
 333              		.loc 1 141 0
 334 0008 0028     		cmp	r0, #0
 335 000a 07D0     		beq	.L21
 336              		.loc 1 141 0 is_stmt 0 discriminator 1
 337 000c 0729     		cmp	r1, #7
 338 000e 05D9     		bls	.L21
 142:Source\azure_iot_sdk\uamqp\src/frame_codec.c ****         /* Codes_SRS_FRAME_CODEC_01_078: [If max_frame_size is invalid according to the AMQP standa
 143:Source\azure_iot_sdk\uamqp\src/frame_codec.c ****         (max_frame_size < FRAME_HEADER_SIZE) ||
 339              		.loc 1 143 0 is_stmt 1
 340 0010 C368     		ldr	r3, [r0, #12]
 341 0012 9942     		cmp	r1, r3
 342 0014 14D2     		bcs	.L22
 144:Source\azure_iot_sdk\uamqp\src/frame_codec.c ****         /* Codes_SRS_FRAME_CODEC_01_081: [If a frame being decoded already has a size bigger than t
 145:Source\azure_iot_sdk\uamqp\src/frame_codec.c ****         ((max_frame_size < frame_codec_data->receive_frame_size) && (frame_codec_data->receive_fram
 343              		.loc 1 145 0
 344 0016 0379     		ldrb	r3, [r0, #4]
 345 0018 002B     		cmp	r3, #0
 346 001a 11D0     		beq	.L22
 347              	.L21:
 348              	.LBB7:
 146:Source\azure_iot_sdk\uamqp\src/frame_codec.c ****     {
 147:Source\azure_iot_sdk\uamqp\src/frame_codec.c ****         LogError("Bad arguments: frame_codec = %p, max_frame_size = %" PRIu32,
 349              		.loc 1 147 0 discriminator 3
 350 001c FFF7FEFF 		bl	xlogging_get_log_function
 351              	.LVL43:
 352 0020 061E     		subs	r6, r0, #0
 353              	.LVL44:
 354 0022 23D0     		beq	.L25
 355              		.loc 1 147 0 is_stmt 0 discriminator 4
 356 0024 0395     		str	r5, [sp, #12]
 357 0026 0294     		str	r4, [sp, #8]
 358 0028 134B     		ldr	r3, .L27
 359 002a 0193     		str	r3, [sp, #4]
 360 002c 0123     		movs	r3, #1
 361 002e 0093     		str	r3, [sp]
 362 0030 9433     		adds	r3, r3, #148
 363 0032 124A     		ldr	r2, .L27+4
 364 0034 4832     		adds	r2, r2, #72
ARM GAS  C:\Users\Phuong\AppData\Local\Temp\ccIIJJrV.s 			page 10


 365 0036 1249     		ldr	r1, .L27+8
 366 0038 0020     		movs	r0, #0
 367              	.LVL45:
 368 003a B047     		blx	r6
 369              	.LVL46:
 370              	.LBE7:
 148:Source\azure_iot_sdk\uamqp\src/frame_codec.c ****             frame_codec,
 149:Source\azure_iot_sdk\uamqp\src/frame_codec.c ****             max_frame_size);
 150:Source\azure_iot_sdk\uamqp\src/frame_codec.c ****         result = __FAILURE__;
 371              		.loc 1 150 0 is_stmt 1 discriminator 4
 372 003c 9620     		movs	r0, #150
 373 003e 18E0     		b	.L23
 374              	.LVL47:
 375              	.L22:
 151:Source\azure_iot_sdk\uamqp\src/frame_codec.c ****     }
 152:Source\azure_iot_sdk\uamqp\src/frame_codec.c ****     /* Codes_SRS_FRAME_CODEC_01_097: [Setting a frame size on a frame_codec that had a decode error
 153:Source\azure_iot_sdk\uamqp\src/frame_codec.c ****     else if (frame_codec_data->receive_frame_state == RECEIVE_FRAME_STATE_ERROR)
 376              		.loc 1 153 0
 377 0040 2379     		ldrb	r3, [r4, #4]
 378 0042 052B     		cmp	r3, #5
 379 0044 0FD1     		bne	.L24
 380              	.LBB8:
 154:Source\azure_iot_sdk\uamqp\src/frame_codec.c ****     {
 155:Source\azure_iot_sdk\uamqp\src/frame_codec.c ****         LogError("Frame codec in error state");
 381              		.loc 1 155 0 discriminator 3
 382 0046 FFF7FEFF 		bl	xlogging_get_log_function
 383              	.LVL48:
 384 004a 041E     		subs	r4, r0, #0
 385              	.LVL49:
 386 004c 10D0     		beq	.L26
 387              		.loc 1 155 0 is_stmt 0 discriminator 4
 388 004e 0D4B     		ldr	r3, .L27+12
 389 0050 0193     		str	r3, [sp, #4]
 390 0052 0123     		movs	r3, #1
 391 0054 0093     		str	r3, [sp]
 392 0056 9A33     		adds	r3, r3, #154
 393 0058 084A     		ldr	r2, .L27+4
 394 005a 4832     		adds	r2, r2, #72
 395 005c 0849     		ldr	r1, .L27+8
 396 005e 0020     		movs	r0, #0
 397              	.LVL50:
 398 0060 A047     		blx	r4
 399              	.LVL51:
 400              	.LBE8:
 156:Source\azure_iot_sdk\uamqp\src/frame_codec.c ****         result = __FAILURE__;
 401              		.loc 1 156 0 is_stmt 1 discriminator 4
 402 0062 9C20     		movs	r0, #156
 403 0064 05E0     		b	.L23
 404              	.LVL52:
 405              	.L24:
 157:Source\azure_iot_sdk\uamqp\src/frame_codec.c ****     }
 158:Source\azure_iot_sdk\uamqp\src/frame_codec.c ****     else
 159:Source\azure_iot_sdk\uamqp\src/frame_codec.c ****     {
 160:Source\azure_iot_sdk\uamqp\src/frame_codec.c ****         /* Codes_SRS_FRAME_CODEC_01_075: [frame_codec_set_max_frame_size shall set the maximum fram
 161:Source\azure_iot_sdk\uamqp\src/frame_codec.c ****         /* Codes_SRS_FRAME_CODEC_01_079: [The new frame size shall take effect immediately, even fo
 162:Source\azure_iot_sdk\uamqp\src/frame_codec.c ****         frame_codec_data->max_frame_size = max_frame_size;
 406              		.loc 1 162 0
ARM GAS  C:\Users\Phuong\AppData\Local\Temp\ccIIJJrV.s 			page 11


 407 0066 A562     		str	r5, [r4, #40]
 408              	.LVL53:
 163:Source\azure_iot_sdk\uamqp\src/frame_codec.c **** 
 164:Source\azure_iot_sdk\uamqp\src/frame_codec.c ****         /* Codes_SRS_FRAME_CODEC_01_076: [On success, frame_codec_set_max_frame_size shall return 0
 165:Source\azure_iot_sdk\uamqp\src/frame_codec.c ****         result = 0;
 409              		.loc 1 165 0
 410 0068 0020     		movs	r0, #0
 411              	.LVL54:
 412 006a 02E0     		b	.L23
 413              	.LVL55:
 414              	.L25:
 150:Source\azure_iot_sdk\uamqp\src/frame_codec.c ****     }
 415              		.loc 1 150 0
 416 006c 9620     		movs	r0, #150
 417              	.LVL56:
 418 006e 00E0     		b	.L23
 419              	.LVL57:
 420              	.L26:
 156:Source\azure_iot_sdk\uamqp\src/frame_codec.c ****     }
 421              		.loc 1 156 0
 422 0070 9C20     		movs	r0, #156
 423              	.LVL58:
 424              	.L23:
 166:Source\azure_iot_sdk\uamqp\src/frame_codec.c ****     }
 167:Source\azure_iot_sdk\uamqp\src/frame_codec.c **** 
 168:Source\azure_iot_sdk\uamqp\src/frame_codec.c ****     return result;
 169:Source\azure_iot_sdk\uamqp\src/frame_codec.c **** }
 425              		.loc 1 169 0
 426 0072 04B0     		add	sp, sp, #16
 427              		@ sp needed
 428              	.LVL59:
 429 0074 70BD     		pop	{r4, r5, r6, pc}
 430              	.L28:
 431 0076 C046     		.align	2
 432              	.L27:
 433 0078 BC000000 		.word	.LC17
 434 007c 14000000 		.word	.LANCHOR0
 435 0080 00000000 		.word	.LC1
 436 0084 F4000000 		.word	.LC19
 437              		.cfi_endproc
 438              	.LFE4:
 439              		.size	frame_codec_set_max_frame_size, .-frame_codec_set_max_frame_size
 440              		.section	.text.frame_codec_receive_bytes,"ax",%progbits
 441              		.align	2
 442              		.global	frame_codec_receive_bytes
 443              		.code	16
 444              		.thumb_func
 445              		.type	frame_codec_receive_bytes, %function
 446              	frame_codec_receive_bytes:
 447              	.LFB5:
 170:Source\azure_iot_sdk\uamqp\src/frame_codec.c **** 
 171:Source\azure_iot_sdk\uamqp\src/frame_codec.c **** /* Codes_SRS_FRAME_CODEC_01_001: [Frames are divided into three distinct areas: a fixed width frame
 172:Source\azure_iot_sdk\uamqp\src/frame_codec.c **** /* Codes_SRS_FRAME_CODEC_01_002: [frame header The frame header is a fixed size (8 byte) structure 
 173:Source\azure_iot_sdk\uamqp\src/frame_codec.c **** /* Codes_SRS_FRAME_CODEC_01_003: [The frame header includes mandatory information necessary to pars
 174:Source\azure_iot_sdk\uamqp\src/frame_codec.c **** /* Codes_SRS_FRAME_CODEC_01_004: [extended header The extended header is a variable width area prec
 175:Source\azure_iot_sdk\uamqp\src/frame_codec.c **** /* Codes_SRS_FRAME_CODEC_01_007: [frame body The frame body is a variable width sequence of bytes t
 176:Source\azure_iot_sdk\uamqp\src/frame_codec.c **** /* Codes_SRS_FRAME_CODEC_01_028: [The sequence of bytes shall be decoded according to the AMQP ISO.
ARM GAS  C:\Users\Phuong\AppData\Local\Temp\ccIIJJrV.s 			page 12


 177:Source\azure_iot_sdk\uamqp\src/frame_codec.c **** /* Codes_SRS_FRAME_CODEC_01_029: [The sequence of bytes does not have to be a complete frame, frame
 178:Source\azure_iot_sdk\uamqp\src/frame_codec.c **** int frame_codec_receive_bytes(FRAME_CODEC_HANDLE frame_codec, const unsigned char* buffer, size_t s
 179:Source\azure_iot_sdk\uamqp\src/frame_codec.c **** {
 448              		.loc 1 179 0
 449              		.cfi_startproc
 450              		@ args = 0, pretend = 0, frame = 0
 451              		@ frame_needed = 0, uses_anonymous_args = 0
 452              	.LVL60:
 453 0000 F0B5     		push	{r4, r5, r6, r7, lr}
 454              		.cfi_def_cfa_offset 20
 455              		.cfi_offset 4, -20
 456              		.cfi_offset 5, -16
 457              		.cfi_offset 6, -12
 458              		.cfi_offset 7, -8
 459              		.cfi_offset 14, -4
 460 0002 4746     		mov	r7, r8
 461 0004 80B4     		push	{r7}
 462              		.cfi_def_cfa_offset 24
 463              		.cfi_offset 8, -24
 464 0006 86B0     		sub	sp, sp, #24
 465              		.cfi_def_cfa_offset 48
 466 0008 0400     		movs	r4, r0
 467 000a 0E00     		movs	r6, r1
 468 000c 1500     		movs	r5, r2
 469              	.LVL61:
 180:Source\azure_iot_sdk\uamqp\src/frame_codec.c ****     int result = __FAILURE__;
 181:Source\azure_iot_sdk\uamqp\src/frame_codec.c ****     FRAME_CODEC_INSTANCE* frame_codec_data = (FRAME_CODEC_INSTANCE*)frame_codec;
 182:Source\azure_iot_sdk\uamqp\src/frame_codec.c **** 
 183:Source\azure_iot_sdk\uamqp\src/frame_codec.c ****     /* Codes_SRS_FRAME_CODEC_01_026: [If frame_codec or buffer are NULL, frame_codec_receive_bytes 
 184:Source\azure_iot_sdk\uamqp\src/frame_codec.c ****     if ((frame_codec == NULL) ||
 470              		.loc 1 184 0
 471 000e 0028     		cmp	r0, #0
 472 0010 04D0     		beq	.L30
 473              		.loc 1 184 0 is_stmt 0 discriminator 1
 474 0012 0029     		cmp	r1, #0
 475 0014 02D0     		beq	.L30
 185:Source\azure_iot_sdk\uamqp\src/frame_codec.c ****         (buffer == NULL) ||
 476              		.loc 1 185 0 is_stmt 1
 477 0016 002A     		cmp	r2, #0
 478 0018 00D0     		beq	.LCB490
 479 001a 42E1     		b	.L56	@long jump
 480              	.LCB490:
 481              	.L30:
 482              	.LBB9:
 186:Source\azure_iot_sdk\uamqp\src/frame_codec.c ****         /* Codes_SRS_FRAME_CODEC_01_027: [If size is zero, frame_codec_receive_bytes shall return a
 187:Source\azure_iot_sdk\uamqp\src/frame_codec.c ****         (size == 0))
 188:Source\azure_iot_sdk\uamqp\src/frame_codec.c ****     {
 189:Source\azure_iot_sdk\uamqp\src/frame_codec.c ****         LogError("Bad arguments: frame_codec = %p, buffer = %p, size = %u",
 483              		.loc 1 189 0 discriminator 3
 484 001c FFF7FEFF 		bl	xlogging_get_log_function
 485              	.LVL62:
 486 0020 071E     		subs	r7, r0, #0
 487              	.LVL63:
 488 0022 00D1     		bne	.LCB502
 489 0024 42E1     		b	.L57	@long jump
 490              	.LCB502:
 491              		.loc 1 189 0 is_stmt 0 discriminator 4
ARM GAS  C:\Users\Phuong\AppData\Local\Temp\ccIIJJrV.s 			page 13


 492 0026 0495     		str	r5, [sp, #16]
 493 0028 0396     		str	r6, [sp, #12]
 494 002a 0294     		str	r4, [sp, #8]
 495 002c A24B     		ldr	r3, .L67
 496 002e 0193     		str	r3, [sp, #4]
 497 0030 0123     		movs	r3, #1
 498 0032 0093     		str	r3, [sp]
 499 0034 BF33     		adds	r3, r3, #191
 500 0036 A14A     		ldr	r2, .L67+4
 501 0038 6832     		adds	r2, r2, #104
 502 003a A149     		ldr	r1, .L67+8
 503 003c 0020     		movs	r0, #0
 504              	.LVL64:
 505 003e B847     		blx	r7
 506              	.LVL65:
 507              	.LBE9:
 190:Source\azure_iot_sdk\uamqp\src/frame_codec.c ****             frame_codec,
 191:Source\azure_iot_sdk\uamqp\src/frame_codec.c ****             buffer,
 192:Source\azure_iot_sdk\uamqp\src/frame_codec.c ****             (unsigned int)size);
 193:Source\azure_iot_sdk\uamqp\src/frame_codec.c ****         result = __FAILURE__;
 508              		.loc 1 193 0 is_stmt 1 discriminator 4
 509 0040 C120     		movs	r0, #193
 510 0042 34E1     		b	.L32
 511              	.LVL66:
 512              	.L55:
 194:Source\azure_iot_sdk\uamqp\src/frame_codec.c ****     }
 195:Source\azure_iot_sdk\uamqp\src/frame_codec.c ****     else
 196:Source\azure_iot_sdk\uamqp\src/frame_codec.c ****     {
 197:Source\azure_iot_sdk\uamqp\src/frame_codec.c ****         while (size > 0)
 198:Source\azure_iot_sdk\uamqp\src/frame_codec.c ****         {
 199:Source\azure_iot_sdk\uamqp\src/frame_codec.c ****             switch (frame_codec_data->receive_frame_state)
 513              		.loc 1 199 0
 514 0044 2379     		ldrb	r3, [r4, #4]
 515 0046 042B     		cmp	r3, #4
 516 0048 03D8     		bhi	.L33
 517 004a 9B00     		lsls	r3, r3, #2
 518 004c 9D4A     		ldr	r2, .L67+12
 519 004e D358     		ldr	r3, [r2, r3]
 520 0050 9F46     		mov	pc, r3
 521              		.section	.rodata
 522              		.align	2
 523              	.L35:
 524 0000 76000000 		.word	.L34
 525 0004 DA000000 		.word	.L36
 526 0008 1E010000 		.word	.L37
 527 000c A2010000 		.word	.L38
 528 0010 16020000 		.word	.L39
 529              		.section	.text.frame_codec_receive_bytes
 530              	.L33:
 531              	.LBB10:
 200:Source\azure_iot_sdk\uamqp\src/frame_codec.c ****             {
 201:Source\azure_iot_sdk\uamqp\src/frame_codec.c ****             default:
 202:Source\azure_iot_sdk\uamqp\src/frame_codec.c ****             case RECEIVE_FRAME_STATE_ERROR:
 203:Source\azure_iot_sdk\uamqp\src/frame_codec.c ****                 /* Codes_SRS_FRAME_CODEC_01_074: [If a decoding error is detected, any subsequent c
 204:Source\azure_iot_sdk\uamqp\src/frame_codec.c ****                 LogError("Frame codec is in error state");
 532              		.loc 1 204 0 discriminator 3
 533 0052 FFF7FEFF 		bl	xlogging_get_log_function
ARM GAS  C:\Users\Phuong\AppData\Local\Temp\ccIIJJrV.s 			page 14


 534              	.LVL67:
 535 0056 051E     		subs	r5, r0, #0
 536              	.LVL68:
 537 0058 00D1     		bne	.LCB552
 538 005a 11E1     		b	.L58	@long jump
 539              	.LCB552:
 540              		.loc 1 204 0 is_stmt 0 discriminator 4
 541 005c 9A4B     		ldr	r3, .L67+16
 542 005e 0193     		str	r3, [sp, #4]
 543 0060 0123     		movs	r3, #1
 544 0062 0093     		str	r3, [sp]
 545 0064 CB33     		adds	r3, r3, #203
 546 0066 954A     		ldr	r2, .L67+4
 547 0068 6832     		adds	r2, r2, #104
 548 006a 9549     		ldr	r1, .L67+8
 549 006c 0020     		movs	r0, #0
 550              	.LVL69:
 551 006e A847     		blx	r5
 552              	.LVL70:
 553              	.LBE10:
 205:Source\azure_iot_sdk\uamqp\src/frame_codec.c ****                 result = __FAILURE__;
 554              		.loc 1 205 0 is_stmt 1 discriminator 4
 555 0070 CD20     		movs	r0, #205
 206:Source\azure_iot_sdk\uamqp\src/frame_codec.c ****                 size = 0;
 556              		.loc 1 206 0 discriminator 4
 557 0072 0025     		movs	r5, #0
 558              	.LVL71:
 559 0074 16E1     		b	.L31
 560              	.LVL72:
 561              	.L34:
 207:Source\azure_iot_sdk\uamqp\src/frame_codec.c ****                 break;
 208:Source\azure_iot_sdk\uamqp\src/frame_codec.c **** 
 209:Source\azure_iot_sdk\uamqp\src/frame_codec.c ****                 /* Codes_SRS_FRAME_CODEC_01_008: [SIZE Bytes 0-3 of the frame header contain the fr
 210:Source\azure_iot_sdk\uamqp\src/frame_codec.c ****             case RECEIVE_FRAME_STATE_FRAME_SIZE:
 211:Source\azure_iot_sdk\uamqp\src/frame_codec.c ****                 /* Codes_SRS_FRAME_CODEC_01_009: [This is an unsigned 32-bit integer that MUST cont
 212:Source\azure_iot_sdk\uamqp\src/frame_codec.c ****                 frame_codec_data->receive_frame_size += buffer[0] << (24 - frame_codec_data->receiv
 562              		.loc 1 212 0
 563 0076 3078     		ldrb	r0, [r6]
 564              	.LVL73:
 565 0078 A368     		ldr	r3, [r4, #8]
 566 007a 5907     		lsls	r1, r3, #29
 567 007c C91A     		subs	r1, r1, r3
 568 007e CA00     		lsls	r2, r1, #3
 569 0080 1832     		adds	r2, r2, #24
 570 0082 9040     		lsls	r0, r0, r2
 571 0084 0200     		movs	r2, r0
 572 0086 E168     		ldr	r1, [r4, #12]
 573 0088 8C46     		mov	ip, r1
 574 008a 6244     		add	r2, r2, ip
 575 008c E260     		str	r2, [r4, #12]
 213:Source\azure_iot_sdk\uamqp\src/frame_codec.c ****                 buffer++;
 576              		.loc 1 213 0
 577 008e 0136     		adds	r6, r6, #1
 578              	.LVL74:
 214:Source\azure_iot_sdk\uamqp\src/frame_codec.c ****                 size--;
 579              		.loc 1 214 0
 580 0090 013D     		subs	r5, r5, #1
ARM GAS  C:\Users\Phuong\AppData\Local\Temp\ccIIJJrV.s 			page 15


 581              	.LVL75:
 215:Source\azure_iot_sdk\uamqp\src/frame_codec.c ****                 frame_codec_data->receive_frame_pos++;
 582              		.loc 1 215 0
 583 0092 0133     		adds	r3, r3, #1
 584 0094 A360     		str	r3, [r4, #8]
 216:Source\azure_iot_sdk\uamqp\src/frame_codec.c **** 
 217:Source\azure_iot_sdk\uamqp\src/frame_codec.c ****                 if (frame_codec_data->receive_frame_pos == 4)
 585              		.loc 1 217 0
 586 0096 042B     		cmp	r3, #4
 587 0098 00D0     		beq	.LCB599
 588 009a F4E0     		b	.L59	@long jump
 589              	.LCB599:
 218:Source\azure_iot_sdk\uamqp\src/frame_codec.c ****                 {
 219:Source\azure_iot_sdk\uamqp\src/frame_codec.c ****                     /* Codes_SRS_FRAME_CODEC_01_010: [The frame is malformed if the size is less th
 220:Source\azure_iot_sdk\uamqp\src/frame_codec.c ****                     if ((frame_codec_data->receive_frame_size < FRAME_HEADER_SIZE) ||
 590              		.loc 1 220 0
 591 009c 072A     		cmp	r2, #7
 592 009e 02D9     		bls	.L41
 593              		.loc 1 220 0 is_stmt 0 discriminator 1
 594 00a0 A36A     		ldr	r3, [r4, #40]
 595 00a2 9A42     		cmp	r2, r3
 596 00a4 15D9     		bls	.L42
 597              	.L41:
 221:Source\azure_iot_sdk\uamqp\src/frame_codec.c ****                         /* Codes_SRS_FRAME_CODEC_01_096: [If a frame bigger than the current max fr
 222:Source\azure_iot_sdk\uamqp\src/frame_codec.c ****                         (frame_codec_data->receive_frame_size > frame_codec_data->max_frame_size))
 223:Source\azure_iot_sdk\uamqp\src/frame_codec.c ****                     {
 224:Source\azure_iot_sdk\uamqp\src/frame_codec.c ****                         /* Codes_SRS_FRAME_CODEC_01_074: [If a decoding error is detected, any subs
 225:Source\azure_iot_sdk\uamqp\src/frame_codec.c ****                         frame_codec_data->receive_frame_state = RECEIVE_FRAME_STATE_ERROR;
 598              		.loc 1 225 0 is_stmt 1
 599 00a6 0523     		movs	r3, #5
 600 00a8 2371     		strb	r3, [r4, #4]
 226:Source\azure_iot_sdk\uamqp\src/frame_codec.c ****                         /* Codes_SRS_FRAME_CODEC_01_103: [Upon any decode error, if an error callba
 227:Source\azure_iot_sdk\uamqp\src/frame_codec.c ****                         frame_codec_data->on_frame_codec_error(frame_codec_data->on_frame_codec_err
 601              		.loc 1 227 0
 602 00aa 606A     		ldr	r0, [r4, #36]
 603 00ac 236A     		ldr	r3, [r4, #32]
 604 00ae 9847     		blx	r3
 605              	.LVL76:
 606              	.LBB11:
 228:Source\azure_iot_sdk\uamqp\src/frame_codec.c ****                         LogError("Received frame size is too big");
 607              		.loc 1 228 0
 608 00b0 FFF7FEFF 		bl	xlogging_get_log_function
 609              	.LVL77:
 610 00b4 071E     		subs	r7, r0, #0
 611              	.LVL78:
 612 00b6 00D1     		bne	.LCB621
 613 00b8 E7E0     		b	.L60	@long jump
 614              	.LCB621:
 615              		.loc 1 228 0 is_stmt 0 discriminator 4
 616 00ba 844B     		ldr	r3, .L67+20
 617 00bc 0193     		str	r3, [sp, #4]
 618 00be 0123     		movs	r3, #1
 619 00c0 0093     		str	r3, [sp]
 620 00c2 E333     		adds	r3, r3, #227
 621 00c4 7D4A     		ldr	r2, .L67+4
 622 00c6 6832     		adds	r2, r2, #104
 623 00c8 7D49     		ldr	r1, .L67+8
ARM GAS  C:\Users\Phuong\AppData\Local\Temp\ccIIJJrV.s 			page 16


 624 00ca 0020     		movs	r0, #0
 625              	.LVL79:
 626 00cc B847     		blx	r7
 627              	.LVL80:
 628              	.LBE11:
 229:Source\azure_iot_sdk\uamqp\src/frame_codec.c ****                         result = __FAILURE__;
 629              		.loc 1 229 0 is_stmt 1 discriminator 4
 630 00ce E520     		movs	r0, #229
 631 00d0 E8E0     		b	.L31
 632              	.LVL81:
 633              	.L42:
 230:Source\azure_iot_sdk\uamqp\src/frame_codec.c ****                     }
 231:Source\azure_iot_sdk\uamqp\src/frame_codec.c ****                     else
 232:Source\azure_iot_sdk\uamqp\src/frame_codec.c ****                     {
 233:Source\azure_iot_sdk\uamqp\src/frame_codec.c ****                         frame_codec_data->receive_frame_state = RECEIVE_FRAME_STATE_DOFF;
 634              		.loc 1 233 0
 635 00d2 0123     		movs	r3, #1
 636 00d4 2371     		strb	r3, [r4, #4]
 637              	.LVL82:
 234:Source\azure_iot_sdk\uamqp\src/frame_codec.c ****                         result = 0;
 638              		.loc 1 234 0
 639 00d6 0020     		movs	r0, #0
 640 00d8 E4E0     		b	.L31
 641              	.LVL83:
 642              	.L36:
 235:Source\azure_iot_sdk\uamqp\src/frame_codec.c ****                     }
 236:Source\azure_iot_sdk\uamqp\src/frame_codec.c ****                 }
 237:Source\azure_iot_sdk\uamqp\src/frame_codec.c ****                 else
 238:Source\azure_iot_sdk\uamqp\src/frame_codec.c ****                 {
 239:Source\azure_iot_sdk\uamqp\src/frame_codec.c ****                     result = 0;
 240:Source\azure_iot_sdk\uamqp\src/frame_codec.c ****                 }
 241:Source\azure_iot_sdk\uamqp\src/frame_codec.c **** 
 242:Source\azure_iot_sdk\uamqp\src/frame_codec.c ****                 break;
 243:Source\azure_iot_sdk\uamqp\src/frame_codec.c **** 
 244:Source\azure_iot_sdk\uamqp\src/frame_codec.c ****             case RECEIVE_FRAME_STATE_DOFF:
 245:Source\azure_iot_sdk\uamqp\src/frame_codec.c ****                 /* Codes_SRS_FRAME_CODEC_01_011: [DOFF Byte 4 of the frame header is the data offse
 246:Source\azure_iot_sdk\uamqp\src/frame_codec.c ****                 /* Codes_SRS_FRAME_CODEC_01_013: [The value of the data offset is an unsigned, 8-bi
 247:Source\azure_iot_sdk\uamqp\src/frame_codec.c ****                 /* Codes_SRS_FRAME_CODEC_01_012: [This gives the position of the body within the fr
 248:Source\azure_iot_sdk\uamqp\src/frame_codec.c ****                 frame_codec_data->receive_frame_doff = buffer[0];
 643              		.loc 1 248 0
 644 00da 3378     		ldrb	r3, [r6]
 645 00dc 2375     		strb	r3, [r4, #20]
 249:Source\azure_iot_sdk\uamqp\src/frame_codec.c ****                 buffer++;
 646              		.loc 1 249 0
 647 00de 0136     		adds	r6, r6, #1
 648              	.LVL84:
 250:Source\azure_iot_sdk\uamqp\src/frame_codec.c ****                 size--;
 649              		.loc 1 250 0
 650 00e0 013D     		subs	r5, r5, #1
 651              	.LVL85:
 251:Source\azure_iot_sdk\uamqp\src/frame_codec.c **** 
 252:Source\azure_iot_sdk\uamqp\src/frame_codec.c ****                 /* Codes_SRS_FRAME_CODEC_01_014: [Due to the mandatory 8-byte frame header, the fra
 253:Source\azure_iot_sdk\uamqp\src/frame_codec.c ****                 if (frame_codec_data->receive_frame_doff < 2)
 652              		.loc 1 253 0
 653 00e2 012B     		cmp	r3, #1
 654 00e4 17D8     		bhi	.L43
 254:Source\azure_iot_sdk\uamqp\src/frame_codec.c ****                 {
ARM GAS  C:\Users\Phuong\AppData\Local\Temp\ccIIJJrV.s 			page 17


 255:Source\azure_iot_sdk\uamqp\src/frame_codec.c ****                     /* Codes_SRS_FRAME_CODEC_01_074: [If a decoding error is detected, any subseque
 256:Source\azure_iot_sdk\uamqp\src/frame_codec.c ****                     frame_codec_data->receive_frame_state = RECEIVE_FRAME_STATE_ERROR;
 655              		.loc 1 256 0
 656 00e6 0523     		movs	r3, #5
 657 00e8 2371     		strb	r3, [r4, #4]
 257:Source\azure_iot_sdk\uamqp\src/frame_codec.c **** 
 258:Source\azure_iot_sdk\uamqp\src/frame_codec.c ****                     /* Codes_SRS_FRAME_CODEC_01_103: [Upon any decode error, if an error callback h
 259:Source\azure_iot_sdk\uamqp\src/frame_codec.c ****                     frame_codec_data->on_frame_codec_error(frame_codec_data->on_frame_codec_error_c
 658              		.loc 1 259 0
 659 00ea 606A     		ldr	r0, [r4, #36]
 660              	.LVL86:
 661 00ec 236A     		ldr	r3, [r4, #32]
 662 00ee 9847     		blx	r3
 663              	.LVL87:
 664              	.LBB12:
 260:Source\azure_iot_sdk\uamqp\src/frame_codec.c **** 
 261:Source\azure_iot_sdk\uamqp\src/frame_codec.c ****                     LogError("Malformed frame received");
 665              		.loc 1 261 0
 666 00f0 FFF7FEFF 		bl	xlogging_get_log_function
 667              	.LVL88:
 668 00f4 071E     		subs	r7, r0, #0
 669              	.LVL89:
 670 00f6 00D1     		bne	.LCB681
 671 00f8 C9E0     		b	.L61	@long jump
 672              	.LCB681:
 673              		.loc 1 261 0 is_stmt 0 discriminator 4
 674 00fa 754B     		ldr	r3, .L67+24
 675 00fc 0193     		str	r3, [sp, #4]
 676 00fe 0123     		movs	r3, #1
 677 0100 0093     		str	r3, [sp]
 678 0102 0623     		movs	r3, #6
 679 0104 FF33     		adds	r3, r3, #255
 680 0106 6D4A     		ldr	r2, .L67+4
 681 0108 6832     		adds	r2, r2, #104
 682 010a 6D49     		ldr	r1, .L67+8
 683 010c 0020     		movs	r0, #0
 684              	.LVL90:
 685 010e B847     		blx	r7
 686              	.LVL91:
 687              	.LBE12:
 262:Source\azure_iot_sdk\uamqp\src/frame_codec.c ****                     result = __FAILURE__;
 688              		.loc 1 262 0 is_stmt 1 discriminator 4
 689 0110 8320     		movs	r0, #131
 690 0112 4000     		lsls	r0, r0, #1
 691 0114 C6E0     		b	.L31
 692              	.LVL92:
 693              	.L43:
 263:Source\azure_iot_sdk\uamqp\src/frame_codec.c ****                 }
 264:Source\azure_iot_sdk\uamqp\src/frame_codec.c ****                 else
 265:Source\azure_iot_sdk\uamqp\src/frame_codec.c ****                 {
 266:Source\azure_iot_sdk\uamqp\src/frame_codec.c ****                     frame_codec_data->receive_frame_state = RECEIVE_FRAME_STATE_FRAME_TYPE;
 694              		.loc 1 266 0
 695 0116 0223     		movs	r3, #2
 696 0118 2371     		strb	r3, [r4, #4]
 697              	.LVL93:
 267:Source\azure_iot_sdk\uamqp\src/frame_codec.c ****                     result = 0;
 698              		.loc 1 267 0
ARM GAS  C:\Users\Phuong\AppData\Local\Temp\ccIIJJrV.s 			page 18


 699 011a 0020     		movs	r0, #0
 700 011c C2E0     		b	.L31
 701              	.LVL94:
 702              	.L37:
 703              	.LBB13:
 268:Source\azure_iot_sdk\uamqp\src/frame_codec.c ****                 }
 269:Source\azure_iot_sdk\uamqp\src/frame_codec.c **** 
 270:Source\azure_iot_sdk\uamqp\src/frame_codec.c ****                 break;
 271:Source\azure_iot_sdk\uamqp\src/frame_codec.c **** 
 272:Source\azure_iot_sdk\uamqp\src/frame_codec.c ****             case RECEIVE_FRAME_STATE_FRAME_TYPE:
 273:Source\azure_iot_sdk\uamqp\src/frame_codec.c ****             {
 274:Source\azure_iot_sdk\uamqp\src/frame_codec.c ****                 LIST_ITEM_HANDLE item_handle;
 275:Source\azure_iot_sdk\uamqp\src/frame_codec.c ****                 frame_codec_data->type_specific_size = (frame_codec_data->receive_frame_doff * 4) -
 704              		.loc 1 275 0
 705 011e 237D     		ldrb	r3, [r4, #20]
 706 0120 9B00     		lsls	r3, r3, #2
 707 0122 063B     		subs	r3, r3, #6
 708 0124 2361     		str	r3, [r4, #16]
 276:Source\azure_iot_sdk\uamqp\src/frame_codec.c **** 
 277:Source\azure_iot_sdk\uamqp\src/frame_codec.c ****                 /* Codes_SRS_FRAME_CODEC_01_015: [TYPE Byte 5 of the frame header is a type code.] 
 278:Source\azure_iot_sdk\uamqp\src/frame_codec.c ****                 frame_codec_data->receive_frame_type = buffer[0];
 709              		.loc 1 278 0
 710 0126 3378     		ldrb	r3, [r6]
 711 0128 6375     		strb	r3, [r4, #21]
 279:Source\azure_iot_sdk\uamqp\src/frame_codec.c ****                 buffer++;
 712              		.loc 1 279 0
 713 012a 0136     		adds	r6, r6, #1
 714              	.LVL95:
 280:Source\azure_iot_sdk\uamqp\src/frame_codec.c ****                 size--;
 715              		.loc 1 280 0
 716 012c 013D     		subs	r5, r5, #1
 717              	.LVL96:
 281:Source\azure_iot_sdk\uamqp\src/frame_codec.c **** 
 282:Source\azure_iot_sdk\uamqp\src/frame_codec.c ****                 /* Codes_SRS_FRAME_CODEC_01_035: [After successfully registering a callback for a c
 283:Source\azure_iot_sdk\uamqp\src/frame_codec.c ****                 item_handle = singlylinkedlist_find(frame_codec_data->subscription_list, find_subsc
 718              		.loc 1 283 0
 719 012e 2200     		movs	r2, r4
 720 0130 1532     		adds	r2, r2, #21
 721 0132 6849     		ldr	r1, .L67+28
 722 0134 2068     		ldr	r0, [r4]
 723              	.LVL97:
 724 0136 FFF7FEFF 		bl	singlylinkedlist_find
 725              	.LVL98:
 284:Source\azure_iot_sdk\uamqp\src/frame_codec.c ****                 if (item_handle == NULL)
 726              		.loc 1 284 0
 727 013a 0028     		cmp	r0, #0
 728 013c 04D1     		bne	.L44
 285:Source\azure_iot_sdk\uamqp\src/frame_codec.c ****                 {
 286:Source\azure_iot_sdk\uamqp\src/frame_codec.c ****                     frame_codec_data->receive_frame_subscription = NULL;
 729              		.loc 1 286 0
 730 013e 0023     		movs	r3, #0
 731 0140 A361     		str	r3, [r4, #24]
 287:Source\azure_iot_sdk\uamqp\src/frame_codec.c ****                     frame_codec_data->receive_frame_state = RECEIVE_FRAME_STATE_TYPE_SPECIFIC;
 732              		.loc 1 287 0
 733 0142 0333     		adds	r3, r3, #3
 734 0144 2371     		strb	r3, [r4, #4]
 735              	.LVL99:
ARM GAS  C:\Users\Phuong\AppData\Local\Temp\ccIIJJrV.s 			page 19


 288:Source\azure_iot_sdk\uamqp\src/frame_codec.c ****                     result = 0;
 289:Source\azure_iot_sdk\uamqp\src/frame_codec.c ****                     break;
 736              		.loc 1 289 0
 737 0146 ADE0     		b	.L31
 738              	.LVL100:
 739              	.L44:
 290:Source\azure_iot_sdk\uamqp\src/frame_codec.c ****                 }
 291:Source\azure_iot_sdk\uamqp\src/frame_codec.c ****                 else
 292:Source\azure_iot_sdk\uamqp\src/frame_codec.c ****                 {
 293:Source\azure_iot_sdk\uamqp\src/frame_codec.c ****                     frame_codec_data->receive_frame_subscription = (SUBSCRIPTION*)singlylinkedlist_
 740              		.loc 1 293 0
 741 0148 FFF7FEFF 		bl	singlylinkedlist_item_get_value
 742              	.LVL101:
 743 014c A061     		str	r0, [r4, #24]
 294:Source\azure_iot_sdk\uamqp\src/frame_codec.c ****                     if (frame_codec_data->receive_frame_subscription == NULL)
 744              		.loc 1 294 0
 745 014e 0028     		cmp	r0, #0
 746 0150 02D1     		bne	.L45
 295:Source\azure_iot_sdk\uamqp\src/frame_codec.c ****                     {
 296:Source\azure_iot_sdk\uamqp\src/frame_codec.c ****                         frame_codec_data->receive_frame_state = RECEIVE_FRAME_STATE_TYPE_SPECIFIC;
 747              		.loc 1 296 0
 748 0152 0323     		movs	r3, #3
 749 0154 2371     		strb	r3, [r4, #4]
 750              	.LVL102:
 297:Source\azure_iot_sdk\uamqp\src/frame_codec.c ****                         result = 0;
 298:Source\azure_iot_sdk\uamqp\src/frame_codec.c ****                         break;
 751              		.loc 1 298 0
 752 0156 A5E0     		b	.L31
 753              	.LVL103:
 754              	.L45:
 299:Source\azure_iot_sdk\uamqp\src/frame_codec.c ****                     }
 300:Source\azure_iot_sdk\uamqp\src/frame_codec.c ****                     else
 301:Source\azure_iot_sdk\uamqp\src/frame_codec.c ****                     {
 302:Source\azure_iot_sdk\uamqp\src/frame_codec.c ****                         frame_codec_data->receive_frame_pos = 0;
 755              		.loc 1 302 0
 756 0158 0023     		movs	r3, #0
 757 015a A360     		str	r3, [r4, #8]
 303:Source\azure_iot_sdk\uamqp\src/frame_codec.c **** 
 304:Source\azure_iot_sdk\uamqp\src/frame_codec.c ****                         /* Codes_SRS_FRAME_CODEC_01_102: [frame_codec_receive_bytes shall allocate 
 305:Source\azure_iot_sdk\uamqp\src/frame_codec.c ****                         frame_codec_data->receive_frame_bytes = (unsigned char*)malloc(frame_codec_
 758              		.loc 1 305 0
 759 015c E368     		ldr	r3, [r4, #12]
 760 015e 981F     		subs	r0, r3, #6
 761 0160 FFF7FEFF 		bl	malloc
 762              	.LVL104:
 763 0164 E061     		str	r0, [r4, #28]
 306:Source\azure_iot_sdk\uamqp\src/frame_codec.c ****                         if (frame_codec_data->receive_frame_bytes == NULL)
 764              		.loc 1 306 0
 765 0166 0028     		cmp	r0, #0
 766 0168 17D1     		bne	.L46
 307:Source\azure_iot_sdk\uamqp\src/frame_codec.c ****                         {
 308:Source\azure_iot_sdk\uamqp\src/frame_codec.c ****                             /* Codes_SRS_FRAME_CODEC_01_101: [If the memory for the frame_body byte
 309:Source\azure_iot_sdk\uamqp\src/frame_codec.c ****                             /* Codes_SRS_FRAME_CODEC_01_030: [If a decoding error occurs, frame_cod
 310:Source\azure_iot_sdk\uamqp\src/frame_codec.c ****                             /* Codes_SRS_FRAME_CODEC_01_074: [If a decoding error is detected, any 
 311:Source\azure_iot_sdk\uamqp\src/frame_codec.c ****                             frame_codec_data->receive_frame_state = RECEIVE_FRAME_STATE_ERROR;
 767              		.loc 1 311 0
 768 016a 0523     		movs	r3, #5
ARM GAS  C:\Users\Phuong\AppData\Local\Temp\ccIIJJrV.s 			page 20


 769 016c 2371     		strb	r3, [r4, #4]
 312:Source\azure_iot_sdk\uamqp\src/frame_codec.c **** 
 313:Source\azure_iot_sdk\uamqp\src/frame_codec.c ****                             /* Codes_SRS_FRAME_CODEC_01_103: [Upon any decode error, if an error ca
 314:Source\azure_iot_sdk\uamqp\src/frame_codec.c ****                             frame_codec_data->on_frame_codec_error(frame_codec_data->on_frame_codec
 770              		.loc 1 314 0
 771 016e 606A     		ldr	r0, [r4, #36]
 772 0170 236A     		ldr	r3, [r4, #32]
 773 0172 9847     		blx	r3
 774              	.LVL105:
 775              	.LBB14:
 315:Source\azure_iot_sdk\uamqp\src/frame_codec.c **** 
 316:Source\azure_iot_sdk\uamqp\src/frame_codec.c ****                             LogError("Cannot allocate memort for frame bytes");
 776              		.loc 1 316 0
 777 0174 FFF7FEFF 		bl	xlogging_get_log_function
 778              	.LVL106:
 779 0178 071E     		subs	r7, r0, #0
 780              	.LVL107:
 781 017a 00D1     		bne	.LCB789
 782 017c 8AE0     		b	.L62	@long jump
 783              	.LCB789:
 784              		.loc 1 316 0 is_stmt 0 discriminator 4
 785 017e 564B     		ldr	r3, .L67+32
 786 0180 0193     		str	r3, [sp, #4]
 787 0182 0123     		movs	r3, #1
 788 0184 0093     		str	r3, [sp]
 789 0186 3C33     		adds	r3, r3, #60
 790 0188 FF33     		adds	r3, r3, #255
 791 018a 4C4A     		ldr	r2, .L67+4
 792 018c 6832     		adds	r2, r2, #104
 793 018e 4C49     		ldr	r1, .L67+8
 794 0190 0020     		movs	r0, #0
 795              	.LVL108:
 796 0192 B847     		blx	r7
 797              	.LVL109:
 798              	.LBE14:
 317:Source\azure_iot_sdk\uamqp\src/frame_codec.c ****                             result = __FAILURE__;
 799              		.loc 1 317 0 is_stmt 1 discriminator 4
 800 0194 3E20     		movs	r0, #62
 801 0196 FF30     		adds	r0, r0, #255
 802 0198 84E0     		b	.L31
 803              	.LVL110:
 804              	.L46:
 318:Source\azure_iot_sdk\uamqp\src/frame_codec.c ****                             break;
 319:Source\azure_iot_sdk\uamqp\src/frame_codec.c ****                         }
 320:Source\azure_iot_sdk\uamqp\src/frame_codec.c ****                         else
 321:Source\azure_iot_sdk\uamqp\src/frame_codec.c ****                         {
 322:Source\azure_iot_sdk\uamqp\src/frame_codec.c ****                             frame_codec_data->receive_frame_state = RECEIVE_FRAME_STATE_TYPE_SPECIF
 805              		.loc 1 322 0
 806 019a 0323     		movs	r3, #3
 807 019c 2371     		strb	r3, [r4, #4]
 808              	.LVL111:
 323:Source\azure_iot_sdk\uamqp\src/frame_codec.c ****                             result = 0;
 809              		.loc 1 323 0
 810 019e 0020     		movs	r0, #0
 324:Source\azure_iot_sdk\uamqp\src/frame_codec.c ****                             break;
 811              		.loc 1 324 0
 812 01a0 80E0     		b	.L31
ARM GAS  C:\Users\Phuong\AppData\Local\Temp\ccIIJJrV.s 			page 21


 813              	.LVL112:
 814              	.L38:
 815              	.LBE13:
 816              	.LBB15:
 325:Source\azure_iot_sdk\uamqp\src/frame_codec.c ****                         }
 326:Source\azure_iot_sdk\uamqp\src/frame_codec.c ****                     }
 327:Source\azure_iot_sdk\uamqp\src/frame_codec.c ****                 }
 328:Source\azure_iot_sdk\uamqp\src/frame_codec.c ****             }
 329:Source\azure_iot_sdk\uamqp\src/frame_codec.c **** 
 330:Source\azure_iot_sdk\uamqp\src/frame_codec.c ****             case RECEIVE_FRAME_STATE_TYPE_SPECIFIC:
 331:Source\azure_iot_sdk\uamqp\src/frame_codec.c ****             {
 332:Source\azure_iot_sdk\uamqp\src/frame_codec.c ****                 size_t to_copy = frame_codec_data->type_specific_size - frame_codec_data->receive_f
 817              		.loc 1 332 0
 818 01a2 A068     		ldr	r0, [r4, #8]
 819              	.LVL113:
 820 01a4 2369     		ldr	r3, [r4, #16]
 821 01a6 1F1A     		subs	r7, r3, r0
 822              	.LVL114:
 333:Source\azure_iot_sdk\uamqp\src/frame_codec.c ****                 if (to_copy > size)
 823              		.loc 1 333 0
 824 01a8 BD42     		cmp	r5, r7
 825 01aa 00D2     		bcs	.L47
 334:Source\azure_iot_sdk\uamqp\src/frame_codec.c ****                 {
 335:Source\azure_iot_sdk\uamqp\src/frame_codec.c ****                     to_copy = size;
 826              		.loc 1 335 0
 827 01ac 2F00     		movs	r7, r5
 828              	.LVL115:
 829              	.L47:
 336:Source\azure_iot_sdk\uamqp\src/frame_codec.c ****                 }
 337:Source\azure_iot_sdk\uamqp\src/frame_codec.c **** 
 338:Source\azure_iot_sdk\uamqp\src/frame_codec.c ****                 if (frame_codec_data->receive_frame_subscription != NULL)
 830              		.loc 1 338 0
 831 01ae A369     		ldr	r3, [r4, #24]
 832 01b0 002B     		cmp	r3, #0
 833 01b2 0CD0     		beq	.L48
 339:Source\azure_iot_sdk\uamqp\src/frame_codec.c ****                 {
 340:Source\azure_iot_sdk\uamqp\src/frame_codec.c ****                     (void)memcpy(&frame_codec_data->receive_frame_bytes[frame_codec_data->receive_f
 834              		.loc 1 340 0
 835 01b4 E369     		ldr	r3, [r4, #28]
 836 01b6 9C46     		mov	ip, r3
 837 01b8 6044     		add	r0, r0, ip
 838 01ba 3A00     		movs	r2, r7
 839 01bc 3100     		movs	r1, r6
 840 01be FFF7FEFF 		bl	memcpy
 841              	.LVL116:
 341:Source\azure_iot_sdk\uamqp\src/frame_codec.c ****                     frame_codec_data->receive_frame_pos += to_copy;
 842              		.loc 1 341 0
 843 01c2 A368     		ldr	r3, [r4, #8]
 844 01c4 DB19     		adds	r3, r3, r7
 845 01c6 A360     		str	r3, [r4, #8]
 342:Source\azure_iot_sdk\uamqp\src/frame_codec.c ****                     buffer += to_copy;
 846              		.loc 1 342 0
 847 01c8 F619     		adds	r6, r6, r7
 848              	.LVL117:
 343:Source\azure_iot_sdk\uamqp\src/frame_codec.c ****                     size -= to_copy;
 849              		.loc 1 343 0
 850 01ca ED1B     		subs	r5, r5, r7
ARM GAS  C:\Users\Phuong\AppData\Local\Temp\ccIIJJrV.s 			page 22


 851              	.LVL118:
 852 01cc 03E0     		b	.L49
 853              	.L48:
 344:Source\azure_iot_sdk\uamqp\src/frame_codec.c ****                 }
 345:Source\azure_iot_sdk\uamqp\src/frame_codec.c ****                 else
 346:Source\azure_iot_sdk\uamqp\src/frame_codec.c ****                 {
 347:Source\azure_iot_sdk\uamqp\src/frame_codec.c ****                     frame_codec_data->receive_frame_pos += to_copy;
 854              		.loc 1 347 0
 855 01ce 3818     		adds	r0, r7, r0
 856 01d0 A060     		str	r0, [r4, #8]
 348:Source\azure_iot_sdk\uamqp\src/frame_codec.c ****                     buffer += to_copy;
 857              		.loc 1 348 0
 858 01d2 F619     		adds	r6, r6, r7
 859              	.LVL119:
 349:Source\azure_iot_sdk\uamqp\src/frame_codec.c ****                     size -= to_copy;
 860              		.loc 1 349 0
 861 01d4 ED1B     		subs	r5, r5, r7
 862              	.LVL120:
 863              	.L49:
 350:Source\azure_iot_sdk\uamqp\src/frame_codec.c ****                 }
 351:Source\azure_iot_sdk\uamqp\src/frame_codec.c **** 
 352:Source\azure_iot_sdk\uamqp\src/frame_codec.c ****                 if (frame_codec_data->receive_frame_pos == frame_codec_data->type_specific_size)
 864              		.loc 1 352 0
 865 01d6 2269     		ldr	r2, [r4, #16]
 866 01d8 A368     		ldr	r3, [r4, #8]
 867 01da 9342     		cmp	r3, r2
 868 01dc 5DD1     		bne	.L64
 353:Source\azure_iot_sdk\uamqp\src/frame_codec.c ****                 {
 354:Source\azure_iot_sdk\uamqp\src/frame_codec.c ****                     if (frame_codec_data->receive_frame_size == FRAME_HEADER_SIZE)
 869              		.loc 1 354 0
 870 01de E368     		ldr	r3, [r4, #12]
 871 01e0 082B     		cmp	r3, #8
 872 01e2 12D1     		bne	.L50
 355:Source\azure_iot_sdk\uamqp\src/frame_codec.c ****                     {
 356:Source\azure_iot_sdk\uamqp\src/frame_codec.c ****                         if (frame_codec_data->receive_frame_subscription != NULL)
 873              		.loc 1 356 0
 874 01e4 A369     		ldr	r3, [r4, #24]
 875 01e6 002B     		cmp	r3, #0
 876 01e8 0BD0     		beq	.L51
 357:Source\azure_iot_sdk\uamqp\src/frame_codec.c ****                         {
 358:Source\azure_iot_sdk\uamqp\src/frame_codec.c ****                             /* Codes_SRS_FRAME_CODEC_01_031: [When a complete frame is successfully
 359:Source\azure_iot_sdk\uamqp\src/frame_codec.c ****                             /* Codes_SRS_FRAME_CODEC_01_032: [Besides passing the frame information
 360:Source\azure_iot_sdk\uamqp\src/frame_codec.c ****                             /* Codes_SRS_FRAME_CODEC_01_005: [This is an extension point defined fo
 361:Source\azure_iot_sdk\uamqp\src/frame_codec.c ****                             /* Codes_SRS_FRAME_CODEC_01_006: [The treatment of this area depends on
 362:Source\azure_iot_sdk\uamqp\src/frame_codec.c ****                             /* Codes_SRS_FRAME_CODEC_01_100: [If the frame body size is 0, the fram
 363:Source\azure_iot_sdk\uamqp\src/frame_codec.c ****                             frame_codec_data->receive_frame_subscription->on_frame_received(frame_c
 877              		.loc 1 363 0
 878 01ea 5968     		ldr	r1, [r3, #4]
 879 01ec 8846     		mov	r8, r1
 880 01ee 9868     		ldr	r0, [r3, #8]
 881 01f0 0027     		movs	r7, #0
 882              	.LVL121:
 883 01f2 0097     		str	r7, [sp]
 884 01f4 0023     		movs	r3, #0
 885 01f6 E169     		ldr	r1, [r4, #28]
 886 01f8 C047     		blx	r8
 887              	.LVL122:
ARM GAS  C:\Users\Phuong\AppData\Local\Temp\ccIIJJrV.s 			page 23


 364:Source\azure_iot_sdk\uamqp\src/frame_codec.c ****                             free(frame_codec_data->receive_frame_bytes);
 888              		.loc 1 364 0
 889 01fa E069     		ldr	r0, [r4, #28]
 890 01fc FFF7FEFF 		bl	free
 891              	.LVL123:
 365:Source\azure_iot_sdk\uamqp\src/frame_codec.c ****                             frame_codec_data->receive_frame_bytes = NULL;
 892              		.loc 1 365 0
 893 0200 E761     		str	r7, [r4, #28]
 894              	.L51:
 366:Source\azure_iot_sdk\uamqp\src/frame_codec.c ****                         }
 367:Source\azure_iot_sdk\uamqp\src/frame_codec.c **** 
 368:Source\azure_iot_sdk\uamqp\src/frame_codec.c ****                         frame_codec_data->receive_frame_state = RECEIVE_FRAME_STATE_FRAME_SIZE;
 895              		.loc 1 368 0
 896 0202 0023     		movs	r3, #0
 897 0204 2371     		strb	r3, [r4, #4]
 369:Source\azure_iot_sdk\uamqp\src/frame_codec.c ****                         frame_codec_data->receive_frame_size = 0;
 898              		.loc 1 369 0
 899 0206 E360     		str	r3, [r4, #12]
 900 0208 01E0     		b	.L52
 901              	.LVL124:
 902              	.L50:
 370:Source\azure_iot_sdk\uamqp\src/frame_codec.c ****                     }
 371:Source\azure_iot_sdk\uamqp\src/frame_codec.c ****                     else
 372:Source\azure_iot_sdk\uamqp\src/frame_codec.c ****                     {
 373:Source\azure_iot_sdk\uamqp\src/frame_codec.c ****                         frame_codec_data->receive_frame_state = RECEIVE_FRAME_STATE_FRAME_BODY;
 903              		.loc 1 373 0
 904 020a 0423     		movs	r3, #4
 905 020c 2371     		strb	r3, [r4, #4]
 906              	.LVL125:
 907              	.L52:
 374:Source\azure_iot_sdk\uamqp\src/frame_codec.c ****                     }
 375:Source\azure_iot_sdk\uamqp\src/frame_codec.c **** 
 376:Source\azure_iot_sdk\uamqp\src/frame_codec.c ****                     frame_codec_data->receive_frame_pos = 0;
 908              		.loc 1 376 0
 909 020e 0023     		movs	r3, #0
 910 0210 A360     		str	r3, [r4, #8]
 377:Source\azure_iot_sdk\uamqp\src/frame_codec.c ****                 }
 378:Source\azure_iot_sdk\uamqp\src/frame_codec.c **** 
 379:Source\azure_iot_sdk\uamqp\src/frame_codec.c ****                 result = 0;
 911              		.loc 1 379 0
 912 0212 0020     		movs	r0, #0
 913 0214 46E0     		b	.L31
 914              	.LVL126:
 915              	.L39:
 916              	.LBE15:
 917              	.LBB16:
 380:Source\azure_iot_sdk\uamqp\src/frame_codec.c ****                 break;
 381:Source\azure_iot_sdk\uamqp\src/frame_codec.c ****             }
 382:Source\azure_iot_sdk\uamqp\src/frame_codec.c **** 
 383:Source\azure_iot_sdk\uamqp\src/frame_codec.c ****             case RECEIVE_FRAME_STATE_FRAME_BODY:
 384:Source\azure_iot_sdk\uamqp\src/frame_codec.c ****             {
 385:Source\azure_iot_sdk\uamqp\src/frame_codec.c ****                 uint32_t frame_body_size = frame_codec_data->receive_frame_size - (frame_codec_data
 918              		.loc 1 385 0
 919 0216 237D     		ldrb	r3, [r4, #20]
 920 0218 9B00     		lsls	r3, r3, #2
 921 021a E268     		ldr	r2, [r4, #12]
 922 021c D31A     		subs	r3, r2, r3
ARM GAS  C:\Users\Phuong\AppData\Local\Temp\ccIIJJrV.s 			page 24


 923 021e 9846     		mov	r8, r3
 924              	.LVL127:
 386:Source\azure_iot_sdk\uamqp\src/frame_codec.c ****                 size_t to_copy = frame_body_size - frame_codec_data->receive_frame_pos;
 925              		.loc 1 386 0
 926 0220 A068     		ldr	r0, [r4, #8]
 927              	.LVL128:
 928 0222 1F1A     		subs	r7, r3, r0
 929              	.LVL129:
 387:Source\azure_iot_sdk\uamqp\src/frame_codec.c **** 
 388:Source\azure_iot_sdk\uamqp\src/frame_codec.c ****                 if (to_copy > size)
 930              		.loc 1 388 0
 931 0224 BD42     		cmp	r5, r7
 932 0226 00D2     		bcs	.L53
 389:Source\azure_iot_sdk\uamqp\src/frame_codec.c ****                 {
 390:Source\azure_iot_sdk\uamqp\src/frame_codec.c ****                     to_copy = size;
 933              		.loc 1 390 0
 934 0228 2F00     		movs	r7, r5
 935              	.LVL130:
 936              	.L53:
 391:Source\azure_iot_sdk\uamqp\src/frame_codec.c ****                 }
 392:Source\azure_iot_sdk\uamqp\src/frame_codec.c **** 
 393:Source\azure_iot_sdk\uamqp\src/frame_codec.c ****                 (void)memcpy(frame_codec_data->receive_frame_bytes + frame_codec_data->receive_fram
 937              		.loc 1 393 0
 938 022a 2369     		ldr	r3, [r4, #16]
 939              	.LVL131:
 940 022c 9C46     		mov	ip, r3
 941 022e 6044     		add	r0, r0, ip
 942 0230 E369     		ldr	r3, [r4, #28]
 943 0232 9C46     		mov	ip, r3
 944 0234 6044     		add	r0, r0, ip
 945 0236 3A00     		movs	r2, r7
 946 0238 3100     		movs	r1, r6
 947 023a FFF7FEFF 		bl	memcpy
 948              	.LVL132:
 394:Source\azure_iot_sdk\uamqp\src/frame_codec.c **** 
 395:Source\azure_iot_sdk\uamqp\src/frame_codec.c ****                 buffer += to_copy;
 949              		.loc 1 395 0
 950 023e F619     		adds	r6, r6, r7
 951              	.LVL133:
 396:Source\azure_iot_sdk\uamqp\src/frame_codec.c ****                 size -= to_copy;
 952              		.loc 1 396 0
 953 0240 ED1B     		subs	r5, r5, r7
 954              	.LVL134:
 397:Source\azure_iot_sdk\uamqp\src/frame_codec.c ****                 frame_codec_data->receive_frame_pos += to_copy;
 955              		.loc 1 397 0
 956 0242 A368     		ldr	r3, [r4, #8]
 957 0244 9C46     		mov	ip, r3
 958 0246 6744     		add	r7, r7, ip
 959              	.LVL135:
 960 0248 A760     		str	r7, [r4, #8]
 398:Source\azure_iot_sdk\uamqp\src/frame_codec.c **** 
 399:Source\azure_iot_sdk\uamqp\src/frame_codec.c ****                 if (frame_codec_data->receive_frame_pos == frame_body_size)
 961              		.loc 1 399 0
 962 024a B845     		cmp	r8, r7
 963 024c 27D1     		bne	.L66
 400:Source\azure_iot_sdk\uamqp\src/frame_codec.c ****                 {
 401:Source\azure_iot_sdk\uamqp\src/frame_codec.c ****                     if (frame_codec_data->receive_frame_subscription != NULL)
ARM GAS  C:\Users\Phuong\AppData\Local\Temp\ccIIJJrV.s 			page 25


 964              		.loc 1 401 0
 965 024e A269     		ldr	r2, [r4, #24]
 966 0250 002A     		cmp	r2, #0
 967 0252 0FD0     		beq	.L54
 402:Source\azure_iot_sdk\uamqp\src/frame_codec.c ****                     {
 403:Source\azure_iot_sdk\uamqp\src/frame_codec.c ****                         /* Codes_SRS_FRAME_CODEC_01_031: [When a complete frame is successfully dec
 404:Source\azure_iot_sdk\uamqp\src/frame_codec.c ****                         /* Codes_SRS_FRAME_CODEC_01_032: [Besides passing the frame information, th
 405:Source\azure_iot_sdk\uamqp\src/frame_codec.c ****                         /* Codes_SRS_FRAME_CODEC_01_005: [This is an extension point defined for fu
 406:Source\azure_iot_sdk\uamqp\src/frame_codec.c ****                         /* Codes_SRS_FRAME_CODEC_01_006: [The treatment of this area depends on the
 407:Source\azure_iot_sdk\uamqp\src/frame_codec.c ****                         /* Codes_SRS_FRAME_CODEC_01_099: [A pointer to the frame_body bytes shall a
 408:Source\azure_iot_sdk\uamqp\src/frame_codec.c ****                         frame_codec_data->receive_frame_subscription->on_frame_received(frame_codec
 968              		.loc 1 408 0
 969 0254 5768     		ldr	r7, [r2, #4]
 970 0256 E369     		ldr	r3, [r4, #28]
 971 0258 2169     		ldr	r1, [r4, #16]
 972 025a 8C46     		mov	ip, r1
 973 025c 6344     		add	r3, r3, ip
 974 025e 9068     		ldr	r0, [r2, #8]
 975 0260 4246     		mov	r2, r8
 976 0262 0092     		str	r2, [sp]
 977 0264 2269     		ldr	r2, [r4, #16]
 978 0266 E169     		ldr	r1, [r4, #28]
 979 0268 B847     		blx	r7
 980              	.LVL136:
 409:Source\azure_iot_sdk\uamqp\src/frame_codec.c ****                         free(frame_codec_data->receive_frame_bytes);
 981              		.loc 1 409 0
 982 026a E069     		ldr	r0, [r4, #28]
 983 026c FFF7FEFF 		bl	free
 984              	.LVL137:
 410:Source\azure_iot_sdk\uamqp\src/frame_codec.c ****                         frame_codec_data->receive_frame_bytes = NULL;
 985              		.loc 1 410 0
 986 0270 0023     		movs	r3, #0
 987 0272 E361     		str	r3, [r4, #28]
 988              	.L54:
 411:Source\azure_iot_sdk\uamqp\src/frame_codec.c ****                     }
 412:Source\azure_iot_sdk\uamqp\src/frame_codec.c **** 
 413:Source\azure_iot_sdk\uamqp\src/frame_codec.c ****                     frame_codec_data->receive_frame_state = RECEIVE_FRAME_STATE_FRAME_SIZE;
 989              		.loc 1 413 0
 990 0274 0023     		movs	r3, #0
 991 0276 2371     		strb	r3, [r4, #4]
 414:Source\azure_iot_sdk\uamqp\src/frame_codec.c ****                     frame_codec_data->receive_frame_pos = 0;
 992              		.loc 1 414 0
 993 0278 A360     		str	r3, [r4, #8]
 415:Source\azure_iot_sdk\uamqp\src/frame_codec.c ****                     frame_codec_data->receive_frame_size = 0;
 994              		.loc 1 415 0
 995 027a E360     		str	r3, [r4, #12]
 416:Source\azure_iot_sdk\uamqp\src/frame_codec.c ****                 }
 417:Source\azure_iot_sdk\uamqp\src/frame_codec.c ****                 result = 0;
 996              		.loc 1 417 0
 997 027c 0020     		movs	r0, #0
 998 027e 11E0     		b	.L31
 999              	.LVL138:
 1000              	.L58:
 1001              	.LBE16:
 205:Source\azure_iot_sdk\uamqp\src/frame_codec.c ****                 size = 0;
 1002              		.loc 1 205 0
 1003 0280 CD20     		movs	r0, #205
ARM GAS  C:\Users\Phuong\AppData\Local\Temp\ccIIJJrV.s 			page 26


 1004              	.LVL139:
 206:Source\azure_iot_sdk\uamqp\src/frame_codec.c ****                 break;
 1005              		.loc 1 206 0
 1006 0282 0025     		movs	r5, #0
 1007              	.LVL140:
 1008 0284 0EE0     		b	.L31
 1009              	.LVL141:
 1010              	.L59:
 239:Source\azure_iot_sdk\uamqp\src/frame_codec.c ****                 }
 1011              		.loc 1 239 0
 1012 0286 0020     		movs	r0, #0
 1013 0288 0CE0     		b	.L31
 1014              	.LVL142:
 1015              	.L60:
 229:Source\azure_iot_sdk\uamqp\src/frame_codec.c ****                     }
 1016              		.loc 1 229 0
 1017 028a E520     		movs	r0, #229
 1018              	.LVL143:
 1019 028c 0AE0     		b	.L31
 1020              	.LVL144:
 1021              	.L61:
 262:Source\azure_iot_sdk\uamqp\src/frame_codec.c ****                 }
 1022              		.loc 1 262 0
 1023 028e 8320     		movs	r0, #131
 1024              	.LVL145:
 1025 0290 4000     		lsls	r0, r0, #1
 1026 0292 07E0     		b	.L31
 1027              	.LVL146:
 1028              	.L62:
 1029              	.LBB17:
 317:Source\azure_iot_sdk\uamqp\src/frame_codec.c ****                             break;
 1030              		.loc 1 317 0
 1031 0294 3E20     		movs	r0, #62
 1032              	.LVL147:
 1033 0296 FF30     		adds	r0, r0, #255
 1034 0298 04E0     		b	.L31
 1035              	.LVL148:
 1036              	.L64:
 1037              	.LBE17:
 1038              	.LBB18:
 379:Source\azure_iot_sdk\uamqp\src/frame_codec.c ****                 break;
 1039              		.loc 1 379 0
 1040 029a 0020     		movs	r0, #0
 1041 029c 02E0     		b	.L31
 1042              	.LVL149:
 1043              	.L66:
 1044              	.LBE18:
 1045              	.LBB19:
 1046              		.loc 1 417 0
 1047 029e 0020     		movs	r0, #0
 1048 02a0 00E0     		b	.L31
 1049              	.LVL150:
 1050              	.L56:
 1051              	.LBE19:
 1052 02a2 B420     		movs	r0, #180
 1053              	.LVL151:
 1054              	.L31:
ARM GAS  C:\Users\Phuong\AppData\Local\Temp\ccIIJJrV.s 			page 27


 197:Source\azure_iot_sdk\uamqp\src/frame_codec.c ****         {
 1055              		.loc 1 197 0
 1056 02a4 002D     		cmp	r5, #0
 1057 02a6 00D0     		beq	.LCB1142
 1058 02a8 CCE6     		b	.L55	@long jump
 1059              	.LCB1142:
 1060 02aa 00E0     		b	.L32
 1061              	.LVL152:
 1062              	.L57:
 193:Source\azure_iot_sdk\uamqp\src/frame_codec.c ****     }
 1063              		.loc 1 193 0
 1064 02ac C120     		movs	r0, #193
 1065              	.LVL153:
 1066              	.L32:
 418:Source\azure_iot_sdk\uamqp\src/frame_codec.c **** 
 419:Source\azure_iot_sdk\uamqp\src/frame_codec.c ****                 break;
 420:Source\azure_iot_sdk\uamqp\src/frame_codec.c ****             }
 421:Source\azure_iot_sdk\uamqp\src/frame_codec.c ****             }
 422:Source\azure_iot_sdk\uamqp\src/frame_codec.c ****         }
 423:Source\azure_iot_sdk\uamqp\src/frame_codec.c ****     }
 424:Source\azure_iot_sdk\uamqp\src/frame_codec.c **** 
 425:Source\azure_iot_sdk\uamqp\src/frame_codec.c ****     return result;
 426:Source\azure_iot_sdk\uamqp\src/frame_codec.c **** }
 1067              		.loc 1 426 0
 1068 02ae 06B0     		add	sp, sp, #24
 1069              		@ sp needed
 1070              	.LVL154:
 1071              	.LVL155:
 1072              	.LVL156:
 1073 02b0 04BC     		pop	{r2}
 1074 02b2 9046     		mov	r8, r2
 1075 02b4 F0BD     		pop	{r4, r5, r6, r7, pc}
 1076              	.L68:
 1077 02b6 C046     		.align	2
 1078              	.L67:
 1079 02b8 10010000 		.word	.LC23
 1080 02bc 14000000 		.word	.LANCHOR0
 1081 02c0 00000000 		.word	.LC1
 1082 02c4 00000000 		.word	.L35
 1083 02c8 48010000 		.word	.LC26
 1084 02cc 68010000 		.word	.LC28
 1085 02d0 88010000 		.word	.LC30
 1086 02d4 00000000 		.word	find_subscription_by_frame_type
 1087 02d8 A4010000 		.word	.LC33
 1088              		.cfi_endproc
 1089              	.LFE5:
 1090              		.size	frame_codec_receive_bytes, .-frame_codec_receive_bytes
 1091              		.section	.text.frame_codec_subscribe,"ax",%progbits
 1092              		.align	2
 1093              		.global	frame_codec_subscribe
 1094              		.code	16
 1095              		.thumb_func
 1096              		.type	frame_codec_subscribe, %function
 1097              	frame_codec_subscribe:
 1098              	.LFB6:
 427:Source\azure_iot_sdk\uamqp\src/frame_codec.c **** 
 428:Source\azure_iot_sdk\uamqp\src/frame_codec.c **** /* Codes_SRS_FRAME_CODEC_01_033: [frame_codec_subscribe subscribes for a certain type of frame rece
ARM GAS  C:\Users\Phuong\AppData\Local\Temp\ccIIJJrV.s 			page 28


 429:Source\azure_iot_sdk\uamqp\src/frame_codec.c **** int frame_codec_subscribe(FRAME_CODEC_HANDLE frame_codec, uint8_t type, ON_FRAME_RECEIVED on_frame_
 430:Source\azure_iot_sdk\uamqp\src/frame_codec.c **** {
 1099              		.loc 1 430 0
 1100              		.cfi_startproc
 1101              		@ args = 0, pretend = 0, frame = 8
 1102              		@ frame_needed = 0, uses_anonymous_args = 0
 1103              	.LVL157:
 1104 0000 F0B5     		push	{r4, r5, r6, r7, lr}
 1105              		.cfi_def_cfa_offset 20
 1106              		.cfi_offset 4, -20
 1107              		.cfi_offset 5, -16
 1108              		.cfi_offset 6, -12
 1109              		.cfi_offset 7, -8
 1110              		.cfi_offset 14, -4
 1111 0002 87B0     		sub	sp, sp, #28
 1112              		.cfi_def_cfa_offset 48
 1113 0004 0400     		movs	r4, r0
 1114 0006 1500     		movs	r5, r2
 1115 0008 1E00     		movs	r6, r3
 1116 000a 1723     		movs	r3, #23
 1117              	.LVL158:
 1118 000c 6B44     		add	r3, r3, sp
 1119 000e 1970     		strb	r1, [r3]
 431:Source\azure_iot_sdk\uamqp\src/frame_codec.c ****     int result;
 432:Source\azure_iot_sdk\uamqp\src/frame_codec.c **** 
 433:Source\azure_iot_sdk\uamqp\src/frame_codec.c ****     /* Codes_SRS_FRAME_CODEC_01_034: [If any of the frame_codec or on_frame_received arguments is N
 434:Source\azure_iot_sdk\uamqp\src/frame_codec.c ****     if ((frame_codec == NULL) ||
 1120              		.loc 1 434 0
 1121 0010 0028     		cmp	r0, #0
 1122 0012 01D0     		beq	.L70
 1123              		.loc 1 434 0 is_stmt 0 discriminator 1
 1124 0014 002A     		cmp	r2, #0
 1125 0016 12D1     		bne	.L71
 1126              	.L70:
 1127              	.LBB20:
 435:Source\azure_iot_sdk\uamqp\src/frame_codec.c ****         (on_frame_received == NULL))
 436:Source\azure_iot_sdk\uamqp\src/frame_codec.c ****     {
 437:Source\azure_iot_sdk\uamqp\src/frame_codec.c ****         LogError("Bad arguments: frame_codec = %p, on_frame_received = %p",
 1128              		.loc 1 437 0 is_stmt 1 discriminator 3
 1129 0018 FFF7FEFF 		bl	xlogging_get_log_function
 1130              	.LVL159:
 1131 001c 061E     		subs	r6, r0, #0
 1132              	.LVL160:
 1133 001e 69D0     		beq	.L76
 1134              		.loc 1 437 0 is_stmt 0 discriminator 4
 1135 0020 0395     		str	r5, [sp, #12]
 1136 0022 0294     		str	r4, [sp, #8]
 1137 0024 3B4B     		ldr	r3, .L81
 1138 0026 0193     		str	r3, [sp, #4]
 1139 0028 0123     		movs	r3, #1
 1140 002a 0093     		str	r3, [sp]
 1141 002c B633     		adds	r3, r3, #182
 1142 002e FF33     		adds	r3, r3, #255
 1143 0030 394A     		ldr	r2, .L81+4
 1144 0032 3A49     		ldr	r1, .L81+8
 1145 0034 0020     		movs	r0, #0
 1146              	.LVL161:
ARM GAS  C:\Users\Phuong\AppData\Local\Temp\ccIIJJrV.s 			page 29


 1147 0036 B047     		blx	r6
 1148              	.LVL162:
 1149              	.LBE20:
 438:Source\azure_iot_sdk\uamqp\src/frame_codec.c ****             frame_codec, on_frame_received);
 439:Source\azure_iot_sdk\uamqp\src/frame_codec.c ****         result = __FAILURE__;
 1150              		.loc 1 439 0 is_stmt 1 discriminator 4
 1151 0038 B820     		movs	r0, #184
 1152 003a FF30     		adds	r0, r0, #255
 1153 003c 67E0     		b	.L72
 1154              	.LVL163:
 1155              	.L71:
 1156              	.LBB21:
 440:Source\azure_iot_sdk\uamqp\src/frame_codec.c ****     }
 441:Source\azure_iot_sdk\uamqp\src/frame_codec.c ****     else
 442:Source\azure_iot_sdk\uamqp\src/frame_codec.c ****     {
 443:Source\azure_iot_sdk\uamqp\src/frame_codec.c ****         FRAME_CODEC_INSTANCE* frame_codec_data = (FRAME_CODEC_INSTANCE*)frame_codec;
 444:Source\azure_iot_sdk\uamqp\src/frame_codec.c ****         SUBSCRIPTION* subscription;
 445:Source\azure_iot_sdk\uamqp\src/frame_codec.c **** 
 446:Source\azure_iot_sdk\uamqp\src/frame_codec.c ****         /* Codes_SRS_FRAME_CODEC_01_036: [Only one callback pair shall be allowed to be registered 
 447:Source\azure_iot_sdk\uamqp\src/frame_codec.c ****         /* find the subscription for this frame type */
 448:Source\azure_iot_sdk\uamqp\src/frame_codec.c ****         LIST_ITEM_HANDLE list_item = singlylinkedlist_find(frame_codec_data->subscription_list, fin
 1157              		.loc 1 448 0
 1158 003e 1722     		movs	r2, #23
 1159              	.LVL164:
 1160 0040 6A44     		add	r2, r2, sp
 1161 0042 3749     		ldr	r1, .L81+12
 1162              	.LVL165:
 1163 0044 0068     		ldr	r0, [r0]
 1164              	.LVL166:
 1165 0046 FFF7FEFF 		bl	singlylinkedlist_find
 1166              	.LVL167:
 449:Source\azure_iot_sdk\uamqp\src/frame_codec.c ****         if (list_item != NULL)
 1167              		.loc 1 449 0
 1168 004a 0028     		cmp	r0, #0
 1169 004c 1CD0     		beq	.L73
 450:Source\azure_iot_sdk\uamqp\src/frame_codec.c ****         {
 451:Source\azure_iot_sdk\uamqp\src/frame_codec.c ****             subscription = (SUBSCRIPTION*)singlylinkedlist_item_get_value(list_item);
 1170              		.loc 1 451 0
 1171 004e FFF7FEFF 		bl	singlylinkedlist_item_get_value
 1172              	.LVL168:
 452:Source\azure_iot_sdk\uamqp\src/frame_codec.c ****             if (subscription == NULL)
 1173              		.loc 1 452 0
 1174 0052 0028     		cmp	r0, #0
 1175 0054 14D1     		bne	.L74
 1176              	.LBB22:
 453:Source\azure_iot_sdk\uamqp\src/frame_codec.c ****             {
 454:Source\azure_iot_sdk\uamqp\src/frame_codec.c ****                 /* Codes_SRS_FRAME_CODEC_01_037: [If any failure occurs while performing the subscr
 455:Source\azure_iot_sdk\uamqp\src/frame_codec.c ****                 LogError("Cannot retrieve subscription information from the list for type %u", (uns
 1177              		.loc 1 455 0 discriminator 3
 1178 0056 FFF7FEFF 		bl	xlogging_get_log_function
 1179              	.LVL169:
 1180 005a 041E     		subs	r4, r0, #0
 1181              	.LVL170:
 1182 005c 4DD0     		beq	.L77
 1183              		.loc 1 455 0 is_stmt 0 discriminator 4
 1184 005e 1723     		movs	r3, #23
 1185              	.LVL171:
ARM GAS  C:\Users\Phuong\AppData\Local\Temp\ccIIJJrV.s 			page 30


 1186 0060 6B44     		add	r3, r3, sp
 1187              	.LVL172:
 1188 0062 1B78     		ldrb	r3, [r3]
 1189 0064 0293     		str	r3, [sp, #8]
 1190 0066 2F4B     		ldr	r3, .L81+16
 1191 0068 0193     		str	r3, [sp, #4]
 1192 006a 0123     		movs	r3, #1
 1193 006c 0093     		str	r3, [sp]
 1194 006e C823     		movs	r3, #200
 1195 0070 FF33     		adds	r3, r3, #255
 1196 0072 294A     		ldr	r2, .L81+4
 1197 0074 2949     		ldr	r1, .L81+8
 1198 0076 0020     		movs	r0, #0
 1199              	.LVL173:
 1200 0078 A047     		blx	r4
 1201              	.LVL174:
 1202              	.LBE22:
 456:Source\azure_iot_sdk\uamqp\src/frame_codec.c ****                 result = __FAILURE__;
 1203              		.loc 1 456 0 is_stmt 1 discriminator 4
 1204 007a E420     		movs	r0, #228
 1205 007c 4000     		lsls	r0, r0, #1
 1206 007e 46E0     		b	.L72
 1207              	.LVL175:
 1208              	.L74:
 457:Source\azure_iot_sdk\uamqp\src/frame_codec.c ****             }
 458:Source\azure_iot_sdk\uamqp\src/frame_codec.c ****             else
 459:Source\azure_iot_sdk\uamqp\src/frame_codec.c ****             {
 460:Source\azure_iot_sdk\uamqp\src/frame_codec.c ****                 /* a subscription was found */
 461:Source\azure_iot_sdk\uamqp\src/frame_codec.c ****                 subscription->on_frame_received = on_frame_received;
 1209              		.loc 1 461 0
 1210 0080 4560     		str	r5, [r0, #4]
 462:Source\azure_iot_sdk\uamqp\src/frame_codec.c ****                 subscription->callback_context = callback_context;
 1211              		.loc 1 462 0
 1212 0082 8660     		str	r6, [r0, #8]
 1213              	.LVL176:
 463:Source\azure_iot_sdk\uamqp\src/frame_codec.c **** 
 464:Source\azure_iot_sdk\uamqp\src/frame_codec.c ****                 /* Codes_SRS_FRAME_CODEC_01_087: [On success, frame_codec_subscribe shall return ze
 465:Source\azure_iot_sdk\uamqp\src/frame_codec.c ****                 result = 0;
 1214              		.loc 1 465 0
 1215 0084 0020     		movs	r0, #0
 1216              	.LVL177:
 1217 0086 42E0     		b	.L72
 1218              	.LVL178:
 1219              	.L73:
 466:Source\azure_iot_sdk\uamqp\src/frame_codec.c ****             }
 467:Source\azure_iot_sdk\uamqp\src/frame_codec.c ****         }
 468:Source\azure_iot_sdk\uamqp\src/frame_codec.c ****         else
 469:Source\azure_iot_sdk\uamqp\src/frame_codec.c ****         {
 470:Source\azure_iot_sdk\uamqp\src/frame_codec.c ****             /* add a new subscription */
 471:Source\azure_iot_sdk\uamqp\src/frame_codec.c ****             subscription = (SUBSCRIPTION*)malloc(sizeof(SUBSCRIPTION));
 1220              		.loc 1 471 0
 1221 0088 0C20     		movs	r0, #12
 1222              	.LVL179:
 1223 008a FFF7FEFF 		bl	malloc
 1224              	.LVL180:
 1225 008e 071E     		subs	r7, r0, #0
 1226              	.LVL181:
ARM GAS  C:\Users\Phuong\AppData\Local\Temp\ccIIJJrV.s 			page 31


 472:Source\azure_iot_sdk\uamqp\src/frame_codec.c ****             /* Codes_SRS_FRAME_CODEC_01_037: [If any failure occurs while performing the subscribe 
 473:Source\azure_iot_sdk\uamqp\src/frame_codec.c ****             if (subscription == NULL)
 1227              		.loc 1 473 0
 1228 0090 10D1     		bne	.L75
 1229              	.LBB23:
 474:Source\azure_iot_sdk\uamqp\src/frame_codec.c ****             {
 475:Source\azure_iot_sdk\uamqp\src/frame_codec.c ****                 LogError("Cannot allocate memory for new subscription");
 1230              		.loc 1 475 0 discriminator 3
 1231 0092 FFF7FEFF 		bl	xlogging_get_log_function
 1232              	.LVL182:
 1233 0096 041E     		subs	r4, r0, #0
 1234              	.LVL183:
 1235 0098 32D0     		beq	.L78
 1236              		.loc 1 475 0 is_stmt 0 discriminator 4
 1237 009a 234B     		ldr	r3, .L81+20
 1238 009c 0193     		str	r3, [sp, #4]
 1239 009e 0123     		movs	r3, #1
 1240 00a0 0093     		str	r3, [sp]
 1241 00a2 DC23     		movs	r3, #220
 1242 00a4 FF33     		adds	r3, r3, #255
 1243 00a6 1C4A     		ldr	r2, .L81+4
 1244 00a8 1C49     		ldr	r1, .L81+8
 1245 00aa 0020     		movs	r0, #0
 1246              	.LVL184:
 1247 00ac A047     		blx	r4
 1248              	.LVL185:
 1249              	.LBE23:
 476:Source\azure_iot_sdk\uamqp\src/frame_codec.c ****                 result = __FAILURE__;
 1250              		.loc 1 476 0 is_stmt 1 discriminator 4
 1251 00ae EE20     		movs	r0, #238
 1252 00b0 4000     		lsls	r0, r0, #1
 1253 00b2 2CE0     		b	.L72
 1254              	.LVL186:
 1255              	.L75:
 477:Source\azure_iot_sdk\uamqp\src/frame_codec.c ****             }
 478:Source\azure_iot_sdk\uamqp\src/frame_codec.c ****             else
 479:Source\azure_iot_sdk\uamqp\src/frame_codec.c ****             {
 480:Source\azure_iot_sdk\uamqp\src/frame_codec.c ****                 subscription->on_frame_received = on_frame_received;
 1256              		.loc 1 480 0
 1257 00b4 4560     		str	r5, [r0, #4]
 481:Source\azure_iot_sdk\uamqp\src/frame_codec.c ****                 subscription->callback_context = callback_context;
 1258              		.loc 1 481 0
 1259 00b6 8660     		str	r6, [r0, #8]
 482:Source\azure_iot_sdk\uamqp\src/frame_codec.c ****                 subscription->frame_type = type;
 1260              		.loc 1 482 0
 1261 00b8 1723     		movs	r3, #23
 1262              	.LVL187:
 1263 00ba 6B44     		add	r3, r3, sp
 1264              	.LVL188:
 1265 00bc 1B78     		ldrb	r3, [r3]
 1266 00be 0370     		strb	r3, [r0]
 483:Source\azure_iot_sdk\uamqp\src/frame_codec.c **** 
 484:Source\azure_iot_sdk\uamqp\src/frame_codec.c ****                 /* Codes_SRS_FRAME_CODEC_01_037: [If any failure occurs while performing the subscr
 485:Source\azure_iot_sdk\uamqp\src/frame_codec.c ****                 if (singlylinkedlist_add(frame_codec_data->subscription_list, subscription) == NULL
 1267              		.loc 1 485 0
 1268 00c0 2068     		ldr	r0, [r4]
 1269              	.LVL189:
ARM GAS  C:\Users\Phuong\AppData\Local\Temp\ccIIJJrV.s 			page 32


 1270 00c2 3900     		movs	r1, r7
 1271 00c4 FFF7FEFF 		bl	singlylinkedlist_add
 1272              	.LVL190:
 1273 00c8 0028     		cmp	r0, #0
 1274 00ca 1CD1     		bne	.L79
 486:Source\azure_iot_sdk\uamqp\src/frame_codec.c ****                 {
 487:Source\azure_iot_sdk\uamqp\src/frame_codec.c ****                     free(subscription);
 1275              		.loc 1 487 0
 1276 00cc 3800     		movs	r0, r7
 1277 00ce FFF7FEFF 		bl	free
 1278              	.LVL191:
 1279              	.LBB24:
 488:Source\azure_iot_sdk\uamqp\src/frame_codec.c ****                     LogError("Cannot add subscription to list");
 1280              		.loc 1 488 0
 1281 00d2 FFF7FEFF 		bl	xlogging_get_log_function
 1282              	.LVL192:
 1283 00d6 041E     		subs	r4, r0, #0
 1284              	.LVL193:
 1285 00d8 17D0     		beq	.L80
 1286              		.loc 1 488 0 is_stmt 0 discriminator 4
 1287 00da 144B     		ldr	r3, .L81+24
 1288 00dc 0193     		str	r3, [sp, #4]
 1289 00de 0123     		movs	r3, #1
 1290 00e0 0093     		str	r3, [sp]
 1291 00e2 E833     		adds	r3, r3, #232
 1292 00e4 FF33     		adds	r3, r3, #255
 1293 00e6 0C4A     		ldr	r2, .L81+4
 1294 00e8 0C49     		ldr	r1, .L81+8
 1295 00ea 0020     		movs	r0, #0
 1296              	.LVL194:
 1297 00ec A047     		blx	r4
 1298              	.LVL195:
 1299              	.LBE24:
 489:Source\azure_iot_sdk\uamqp\src/frame_codec.c ****                     result = __FAILURE__;
 1300              		.loc 1 489 0 is_stmt 1 discriminator 4
 1301 00ee EA20     		movs	r0, #234
 1302 00f0 FF30     		adds	r0, r0, #255
 1303 00f2 0CE0     		b	.L72
 1304              	.LVL196:
 1305              	.L76:
 1306              	.LBE21:
 439:Source\azure_iot_sdk\uamqp\src/frame_codec.c ****     }
 1307              		.loc 1 439 0
 1308 00f4 B820     		movs	r0, #184
 1309              	.LVL197:
 1310 00f6 FF30     		adds	r0, r0, #255
 1311 00f8 09E0     		b	.L72
 1312              	.LVL198:
 1313              	.L77:
 1314              	.LBB25:
 456:Source\azure_iot_sdk\uamqp\src/frame_codec.c ****             }
 1315              		.loc 1 456 0
 1316 00fa E420     		movs	r0, #228
 1317              	.LVL199:
 1318 00fc 4000     		lsls	r0, r0, #1
 1319 00fe 06E0     		b	.L72
 1320              	.LVL200:
ARM GAS  C:\Users\Phuong\AppData\Local\Temp\ccIIJJrV.s 			page 33


 1321              	.L78:
 476:Source\azure_iot_sdk\uamqp\src/frame_codec.c ****             }
 1322              		.loc 1 476 0
 1323 0100 EE20     		movs	r0, #238
 1324              	.LVL201:
 1325 0102 4000     		lsls	r0, r0, #1
 1326 0104 03E0     		b	.L72
 1327              	.LVL202:
 1328              	.L79:
 490:Source\azure_iot_sdk\uamqp\src/frame_codec.c ****                 }
 491:Source\azure_iot_sdk\uamqp\src/frame_codec.c ****                 else
 492:Source\azure_iot_sdk\uamqp\src/frame_codec.c ****                 {
 493:Source\azure_iot_sdk\uamqp\src/frame_codec.c ****                     /* Codes_SRS_FRAME_CODEC_01_087: [On success, frame_codec_subscribe shall retur
 494:Source\azure_iot_sdk\uamqp\src/frame_codec.c ****                     result = 0;
 1329              		.loc 1 494 0
 1330 0106 0020     		movs	r0, #0
 1331 0108 01E0     		b	.L72
 1332              	.LVL203:
 1333              	.L80:
 489:Source\azure_iot_sdk\uamqp\src/frame_codec.c ****                 }
 1334              		.loc 1 489 0
 1335 010a EA20     		movs	r0, #234
 1336              	.LVL204:
 1337 010c FF30     		adds	r0, r0, #255
 1338              	.LVL205:
 1339              	.L72:
 1340              	.LBE25:
 495:Source\azure_iot_sdk\uamqp\src/frame_codec.c ****                 }
 496:Source\azure_iot_sdk\uamqp\src/frame_codec.c ****             }
 497:Source\azure_iot_sdk\uamqp\src/frame_codec.c ****         }
 498:Source\azure_iot_sdk\uamqp\src/frame_codec.c ****     }
 499:Source\azure_iot_sdk\uamqp\src/frame_codec.c **** 
 500:Source\azure_iot_sdk\uamqp\src/frame_codec.c ****     return result;
 501:Source\azure_iot_sdk\uamqp\src/frame_codec.c **** }
 1341              		.loc 1 501 0
 1342 010e 07B0     		add	sp, sp, #28
 1343              		@ sp needed
 1344              	.LVL206:
 1345 0110 F0BD     		pop	{r4, r5, r6, r7, pc}
 1346              	.L82:
 1347 0112 C046     		.align	2
 1348              	.L81:
 1349 0114 CC010000 		.word	.LC37
 1350 0118 98000000 		.word	.LANCHOR1
 1351 011c 00000000 		.word	.LC1
 1352 0120 00000000 		.word	find_subscription_by_frame_type
 1353 0124 04020000 		.word	.LC40
 1354 0128 48020000 		.word	.LC42
 1355 012c 74020000 		.word	.LC44
 1356              		.cfi_endproc
 1357              	.LFE6:
 1358              		.size	frame_codec_subscribe, .-frame_codec_subscribe
 1359              		.section	.text.frame_codec_unsubscribe,"ax",%progbits
 1360              		.align	2
 1361              		.global	frame_codec_unsubscribe
 1362              		.code	16
 1363              		.thumb_func
ARM GAS  C:\Users\Phuong\AppData\Local\Temp\ccIIJJrV.s 			page 34


 1364              		.type	frame_codec_unsubscribe, %function
 1365              	frame_codec_unsubscribe:
 1366              	.LFB7:
 502:Source\azure_iot_sdk\uamqp\src/frame_codec.c **** 
 503:Source\azure_iot_sdk\uamqp\src/frame_codec.c **** int frame_codec_unsubscribe(FRAME_CODEC_HANDLE frame_codec, uint8_t type)
 504:Source\azure_iot_sdk\uamqp\src/frame_codec.c **** {
 1367              		.loc 1 504 0
 1368              		.cfi_startproc
 1369              		@ args = 0, pretend = 0, frame = 8
 1370              		@ frame_needed = 0, uses_anonymous_args = 0
 1371              	.LVL207:
 1372 0000 30B5     		push	{r4, r5, lr}
 1373              		.cfi_def_cfa_offset 12
 1374              		.cfi_offset 4, -12
 1375              		.cfi_offset 5, -8
 1376              		.cfi_offset 14, -4
 1377 0002 87B0     		sub	sp, sp, #28
 1378              		.cfi_def_cfa_offset 40
 1379 0004 0400     		movs	r4, r0
 1380 0006 1723     		movs	r3, #23
 1381 0008 6B44     		add	r3, r3, sp
 1382 000a 1970     		strb	r1, [r3]
 505:Source\azure_iot_sdk\uamqp\src/frame_codec.c ****     int result;
 506:Source\azure_iot_sdk\uamqp\src/frame_codec.c **** 
 507:Source\azure_iot_sdk\uamqp\src/frame_codec.c ****     /* Codes_SRS_FRAME_CODEC_01_039: [If frame_codec is NULL, frame_codec_unsubscribe shall return 
 508:Source\azure_iot_sdk\uamqp\src/frame_codec.c ****     if (frame_codec == NULL)
 1383              		.loc 1 508 0
 1384 000c 0028     		cmp	r0, #0
 1385 000e 10D1     		bne	.L84
 1386              	.LBB26:
 509:Source\azure_iot_sdk\uamqp\src/frame_codec.c ****     {
 510:Source\azure_iot_sdk\uamqp\src/frame_codec.c ****         LogError("NULL frame_codec");
 1387              		.loc 1 510 0 discriminator 3
 1388 0010 FFF7FEFF 		bl	xlogging_get_log_function
 1389              	.LVL208:
 1390 0014 041E     		subs	r4, r0, #0
 1391              	.LVL209:
 1392 0016 56D0     		beq	.L88
 1393              		.loc 1 510 0 is_stmt 0 discriminator 4
 1394 0018 314B     		ldr	r3, .L93
 1395 001a 0193     		str	r3, [sp, #4]
 1396 001c 0123     		movs	r3, #1
 1397 001e 0093     		str	r3, [sp]
 1398 0020 FE33     		adds	r3, r3, #254
 1399 0022 FF33     		adds	r3, r3, #255
 1400 0024 2F4A     		ldr	r2, .L93+4
 1401 0026 1832     		adds	r2, r2, #24
 1402 0028 2F49     		ldr	r1, .L93+8
 1403 002a 0020     		movs	r0, #0
 1404              	.LVL210:
 1405 002c A047     		blx	r4
 1406              	.LVL211:
 1407              	.LBE26:
 511:Source\azure_iot_sdk\uamqp\src/frame_codec.c ****         result = __FAILURE__;
 1408              		.loc 1 511 0 is_stmt 1 discriminator 4
 1409 002e 2F48     		ldr	r0, .L93+12
 1410 0030 53E0     		b	.L85
ARM GAS  C:\Users\Phuong\AppData\Local\Temp\ccIIJJrV.s 			page 35


 1411              	.LVL212:
 1412              	.L84:
 1413              	.LBB27:
 512:Source\azure_iot_sdk\uamqp\src/frame_codec.c ****     }
 513:Source\azure_iot_sdk\uamqp\src/frame_codec.c ****     else
 514:Source\azure_iot_sdk\uamqp\src/frame_codec.c ****     {
 515:Source\azure_iot_sdk\uamqp\src/frame_codec.c ****         FRAME_CODEC_INSTANCE* frame_codec_data = (FRAME_CODEC_INSTANCE*)frame_codec;
 516:Source\azure_iot_sdk\uamqp\src/frame_codec.c ****         LIST_ITEM_HANDLE list_item = singlylinkedlist_find(frame_codec_data->subscription_list, fin
 1414              		.loc 1 516 0
 1415 0032 1722     		movs	r2, #23
 1416 0034 6A44     		add	r2, r2, sp
 1417 0036 2E49     		ldr	r1, .L93+16
 1418              	.LVL213:
 1419 0038 0068     		ldr	r0, [r0]
 1420              	.LVL214:
 1421 003a FFF7FEFF 		bl	singlylinkedlist_find
 1422              	.LVL215:
 1423 003e 051E     		subs	r5, r0, #0
 1424              	.LVL216:
 517:Source\azure_iot_sdk\uamqp\src/frame_codec.c **** 
 518:Source\azure_iot_sdk\uamqp\src/frame_codec.c ****         if (list_item == NULL)
 1425              		.loc 1 518 0
 1426 0040 13D1     		bne	.L86
 1427              	.LBB28:
 519:Source\azure_iot_sdk\uamqp\src/frame_codec.c ****         {
 520:Source\azure_iot_sdk\uamqp\src/frame_codec.c ****             /* Codes_SRS_FRAME_CODEC_01_040: [If no subscription for the type frame type exists, fr
 521:Source\azure_iot_sdk\uamqp\src/frame_codec.c ****             /* Codes_SRS_FRAME_CODEC_01_041: [If any failure occurs while performing the unsubscrib
 522:Source\azure_iot_sdk\uamqp\src/frame_codec.c ****             LogError("Cannot find subscription for type %u", (unsigned int)type);
 1428              		.loc 1 522 0 discriminator 3
 1429 0042 FFF7FEFF 		bl	xlogging_get_log_function
 1430              	.LVL217:
 1431 0046 041E     		subs	r4, r0, #0
 1432              	.LVL218:
 1433 0048 3FD0     		beq	.L89
 1434              		.loc 1 522 0 is_stmt 0 discriminator 4
 1435 004a 1723     		movs	r3, #23
 1436              	.LVL219:
 1437 004c 6B44     		add	r3, r3, sp
 1438              	.LVL220:
 1439 004e 1B78     		ldrb	r3, [r3]
 1440 0050 0293     		str	r3, [sp, #8]
 1441 0052 284B     		ldr	r3, .L93+20
 1442 0054 0193     		str	r3, [sp, #4]
 1443 0056 0123     		movs	r3, #1
 1444 0058 0093     		str	r3, [sp]
 1445 005a 274B     		ldr	r3, .L93+24
 1446 005c 214A     		ldr	r2, .L93+4
 1447 005e 1832     		adds	r2, r2, #24
 1448 0060 2149     		ldr	r1, .L93+8
 1449 0062 0020     		movs	r0, #0
 1450              	.LVL221:
 1451 0064 A047     		blx	r4
 1452              	.LVL222:
 1453              	.LBE28:
 523:Source\azure_iot_sdk\uamqp\src/frame_codec.c ****             result = __FAILURE__;
 1454              		.loc 1 523 0 is_stmt 1 discriminator 4
 1455 0066 2548     		ldr	r0, .L93+28
ARM GAS  C:\Users\Phuong\AppData\Local\Temp\ccIIJJrV.s 			page 36


 1456 0068 37E0     		b	.L85
 1457              	.LVL223:
 1458              	.L86:
 1459              	.LBB29:
 524:Source\azure_iot_sdk\uamqp\src/frame_codec.c ****         }
 525:Source\azure_iot_sdk\uamqp\src/frame_codec.c ****         else
 526:Source\azure_iot_sdk\uamqp\src/frame_codec.c ****         {
 527:Source\azure_iot_sdk\uamqp\src/frame_codec.c ****             SUBSCRIPTION* subscription = (SUBSCRIPTION*)singlylinkedlist_item_get_value(list_item);
 1460              		.loc 1 527 0
 1461 006a FFF7FEFF 		bl	singlylinkedlist_item_get_value
 1462              	.LVL224:
 528:Source\azure_iot_sdk\uamqp\src/frame_codec.c ****             if (subscription == NULL)
 1463              		.loc 1 528 0
 1464 006e 0028     		cmp	r0, #0
 1465 0070 10D1     		bne	.L87
 1466              	.LBB30:
 529:Source\azure_iot_sdk\uamqp\src/frame_codec.c ****             {
 530:Source\azure_iot_sdk\uamqp\src/frame_codec.c ****                 /* Codes_SRS_FRAME_CODEC_01_041: [If any failure occurs while performing the unsubs
 531:Source\azure_iot_sdk\uamqp\src/frame_codec.c ****                 LogError("singlylinkedlist_item_get_value failed when unsubscribing");
 1467              		.loc 1 531 0 discriminator 3
 1468 0072 FFF7FEFF 		bl	xlogging_get_log_function
 1469              	.LVL225:
 1470 0076 041E     		subs	r4, r0, #0
 1471              	.LVL226:
 1472 0078 29D0     		beq	.L90
 1473              		.loc 1 531 0 is_stmt 0 discriminator 4
 1474 007a 214B     		ldr	r3, .L93+32
 1475 007c 0193     		str	r3, [sp, #4]
 1476 007e 0123     		movs	r3, #1
 1477 0080 0093     		str	r3, [sp]
 1478 0082 204B     		ldr	r3, .L93+36
 1479 0084 174A     		ldr	r2, .L93+4
 1480 0086 1832     		adds	r2, r2, #24
 1481 0088 1749     		ldr	r1, .L93+8
 1482 008a 0020     		movs	r0, #0
 1483              	.LVL227:
 1484 008c A047     		blx	r4
 1485              	.LVL228:
 1486              	.LBE30:
 532:Source\azure_iot_sdk\uamqp\src/frame_codec.c ****                 result = __FAILURE__;
 1487              		.loc 1 532 0 is_stmt 1 discriminator 4
 1488 008e 8520     		movs	r0, #133
 1489 0090 8000     		lsls	r0, r0, #2
 1490 0092 22E0     		b	.L85
 1491              	.LVL229:
 1492              	.L87:
 533:Source\azure_iot_sdk\uamqp\src/frame_codec.c ****             }
 534:Source\azure_iot_sdk\uamqp\src/frame_codec.c ****             else
 535:Source\azure_iot_sdk\uamqp\src/frame_codec.c ****             {
 536:Source\azure_iot_sdk\uamqp\src/frame_codec.c ****                 free(subscription);
 1493              		.loc 1 536 0
 1494 0094 FFF7FEFF 		bl	free
 1495              	.LVL230:
 537:Source\azure_iot_sdk\uamqp\src/frame_codec.c ****                 if (singlylinkedlist_remove(frame_codec_data->subscription_list, list_item) != 0)
 1496              		.loc 1 537 0
 1497 0098 2068     		ldr	r0, [r4]
 1498 009a 2900     		movs	r1, r5
ARM GAS  C:\Users\Phuong\AppData\Local\Temp\ccIIJJrV.s 			page 37


 1499 009c FFF7FEFF 		bl	singlylinkedlist_remove
 1500              	.LVL231:
 1501 00a0 0028     		cmp	r0, #0
 1502 00a2 17D0     		beq	.L91
 1503              	.LBB31:
 538:Source\azure_iot_sdk\uamqp\src/frame_codec.c ****                 {
 539:Source\azure_iot_sdk\uamqp\src/frame_codec.c ****                     /* Codes_SRS_FRAME_CODEC_01_041: [If any failure occurs while performing the un
 540:Source\azure_iot_sdk\uamqp\src/frame_codec.c ****                     LogError("Cannot remove subscription from list");
 1504              		.loc 1 540 0 discriminator 3
 1505 00a4 FFF7FEFF 		bl	xlogging_get_log_function
 1506              	.LVL232:
 1507 00a8 041E     		subs	r4, r0, #0
 1508              	.LVL233:
 1509 00aa 15D0     		beq	.L92
 1510              		.loc 1 540 0 is_stmt 0 discriminator 4
 1511 00ac 164B     		ldr	r3, .L93+40
 1512 00ae 0193     		str	r3, [sp, #4]
 1513 00b0 0123     		movs	r3, #1
 1514 00b2 0093     		str	r3, [sp]
 1515 00b4 8723     		movs	r3, #135
 1516 00b6 9B00     		lsls	r3, r3, #2
 1517 00b8 0A4A     		ldr	r2, .L93+4
 1518 00ba 1832     		adds	r2, r2, #24
 1519 00bc 0A49     		ldr	r1, .L93+8
 1520 00be 0020     		movs	r0, #0
 1521              	.LVL234:
 1522 00c0 A047     		blx	r4
 1523              	.LVL235:
 1524              	.LBE31:
 541:Source\azure_iot_sdk\uamqp\src/frame_codec.c ****                     result = __FAILURE__;
 1525              		.loc 1 541 0 is_stmt 1 discriminator 4
 1526 00c2 1248     		ldr	r0, .L93+44
 1527 00c4 09E0     		b	.L85
 1528              	.LVL236:
 1529              	.L88:
 1530              	.LBE29:
 1531              	.LBE27:
 511:Source\azure_iot_sdk\uamqp\src/frame_codec.c ****     }
 1532              		.loc 1 511 0
 1533 00c6 0948     		ldr	r0, .L93+12
 1534              	.LVL237:
 1535 00c8 07E0     		b	.L85
 1536              	.LVL238:
 1537              	.L89:
 1538              	.LBB33:
 523:Source\azure_iot_sdk\uamqp\src/frame_codec.c ****         }
 1539              		.loc 1 523 0
 1540 00ca 0C48     		ldr	r0, .L93+28
 1541              	.LVL239:
 1542 00cc 05E0     		b	.L85
 1543              	.LVL240:
 1544              	.L90:
 1545              	.LBB32:
 532:Source\azure_iot_sdk\uamqp\src/frame_codec.c ****             }
 1546              		.loc 1 532 0
 1547 00ce 8520     		movs	r0, #133
 1548              	.LVL241:
ARM GAS  C:\Users\Phuong\AppData\Local\Temp\ccIIJJrV.s 			page 38


 1549 00d0 8000     		lsls	r0, r0, #2
 1550 00d2 02E0     		b	.L85
 1551              	.LVL242:
 1552              	.L91:
 542:Source\azure_iot_sdk\uamqp\src/frame_codec.c ****                 }
 543:Source\azure_iot_sdk\uamqp\src/frame_codec.c ****                 else
 544:Source\azure_iot_sdk\uamqp\src/frame_codec.c ****                 {
 545:Source\azure_iot_sdk\uamqp\src/frame_codec.c ****                     /* Codes_SRS_FRAME_CODEC_01_038: [frame_codec_unsubscribe removes a previous su
 546:Source\azure_iot_sdk\uamqp\src/frame_codec.c ****                     result = 0;
 1553              		.loc 1 546 0
 1554 00d4 0020     		movs	r0, #0
 1555 00d6 00E0     		b	.L85
 1556              	.LVL243:
 1557              	.L92:
 541:Source\azure_iot_sdk\uamqp\src/frame_codec.c ****                 }
 1558              		.loc 1 541 0
 1559 00d8 0C48     		ldr	r0, .L93+44
 1560              	.LVL244:
 1561              	.L85:
 1562              	.LBE32:
 1563              	.LBE33:
 547:Source\azure_iot_sdk\uamqp\src/frame_codec.c ****                 }
 548:Source\azure_iot_sdk\uamqp\src/frame_codec.c ****             }
 549:Source\azure_iot_sdk\uamqp\src/frame_codec.c ****         }
 550:Source\azure_iot_sdk\uamqp\src/frame_codec.c ****     }
 551:Source\azure_iot_sdk\uamqp\src/frame_codec.c **** 
 552:Source\azure_iot_sdk\uamqp\src/frame_codec.c ****     return result;
 553:Source\azure_iot_sdk\uamqp\src/frame_codec.c **** }
 1564              		.loc 1 553 0
 1565 00da 07B0     		add	sp, sp, #28
 1566              		@ sp needed
 1567 00dc 30BD     		pop	{r4, r5, pc}
 1568              	.L94:
 1569 00de C046     		.align	2
 1570              	.L93:
 1571 00e0 A8000000 		.word	.LC13
 1572 00e4 98000000 		.word	.LANCHOR1
 1573 00e8 00000000 		.word	.LC1
 1574 00ec FF010000 		.word	511
 1575 00f0 00000000 		.word	find_subscription_by_frame_type
 1576 00f4 94020000 		.word	.LC50
 1577 00f8 0A020000 		.word	522
 1578 00fc 0B020000 		.word	523
 1579 0100 BC020000 		.word	.LC52
 1580 0104 13020000 		.word	531
 1581 0108 F8020000 		.word	.LC54
 1582 010c 1D020000 		.word	541
 1583              		.cfi_endproc
 1584              	.LFE7:
 1585              		.size	frame_codec_unsubscribe, .-frame_codec_unsubscribe
 1586              		.section	.text.frame_codec_encode_frame,"ax",%progbits
 1587              		.align	2
 1588              		.global	frame_codec_encode_frame
 1589              		.code	16
 1590              		.thumb_func
 1591              		.type	frame_codec_encode_frame, %function
 1592              	frame_codec_encode_frame:
ARM GAS  C:\Users\Phuong\AppData\Local\Temp\ccIIJJrV.s 			page 39


 1593              	.LFB8:
 554:Source\azure_iot_sdk\uamqp\src/frame_codec.c **** 
 555:Source\azure_iot_sdk\uamqp\src/frame_codec.c **** int frame_codec_encode_frame(FRAME_CODEC_HANDLE frame_codec, uint8_t type, const PAYLOAD* payloads,
 556:Source\azure_iot_sdk\uamqp\src/frame_codec.c **** {
 1594              		.loc 1 556 0
 1595              		.cfi_startproc
 1596              		@ args = 16, pretend = 0, frame = 24
 1597              		@ frame_needed = 0, uses_anonymous_args = 0
 1598              	.LVL245:
 1599 0000 F0B5     		push	{r4, r5, r6, r7, lr}
 1600              		.cfi_def_cfa_offset 20
 1601              		.cfi_offset 4, -20
 1602              		.cfi_offset 5, -16
 1603              		.cfi_offset 6, -12
 1604              		.cfi_offset 7, -8
 1605              		.cfi_offset 14, -4
 1606 0002 5F46     		mov	r7, fp
 1607 0004 5646     		mov	r6, r10
 1608 0006 4D46     		mov	r5, r9
 1609 0008 4446     		mov	r4, r8
 1610 000a F0B4     		push	{r4, r5, r6, r7}
 1611              		.cfi_def_cfa_offset 36
 1612              		.cfi_offset 8, -36
 1613              		.cfi_offset 9, -32
 1614              		.cfi_offset 10, -28
 1615              		.cfi_offset 11, -24
 1616 000c 8DB0     		sub	sp, sp, #52
 1617              		.cfi_def_cfa_offset 88
 1618 000e 0600     		movs	r6, r0
 1619 0010 0791     		str	r1, [sp, #28]
 1620 0012 1700     		movs	r7, r2
 1621 0014 1D00     		movs	r5, r3
 1622 0016 179C     		ldr	r4, [sp, #92]
 1623              	.LVL246:
 557:Source\azure_iot_sdk\uamqp\src/frame_codec.c ****     int result;
 558:Source\azure_iot_sdk\uamqp\src/frame_codec.c **** 
 559:Source\azure_iot_sdk\uamqp\src/frame_codec.c ****     FRAME_CODEC_INSTANCE* frame_codec_data = (FRAME_CODEC_INSTANCE*)frame_codec;
 560:Source\azure_iot_sdk\uamqp\src/frame_codec.c **** 
 561:Source\azure_iot_sdk\uamqp\src/frame_codec.c ****     /* Codes_SRS_FRAME_CODEC_01_044: [If any of arguments `frame_codec` or `on_bytes_encoded` is NU
 562:Source\azure_iot_sdk\uamqp\src/frame_codec.c ****     if ((frame_codec == NULL) ||
 1624              		.loc 1 562 0
 1625 0018 0028     		cmp	r0, #0
 1626 001a 0AD0     		beq	.L96
 1627              		.loc 1 562 0 is_stmt 0 discriminator 1
 1628 001c 189B     		ldr	r3, [sp, #96]
 1629              	.LVL247:
 1630 001e 002B     		cmp	r3, #0
 1631 0020 07D0     		beq	.L96
 563:Source\azure_iot_sdk\uamqp\src/frame_codec.c ****         (on_bytes_encoded == NULL) ||
 1632              		.loc 1 563 0 is_stmt 1
 1633 0022 002C     		cmp	r4, #0
 1634 0024 02D0     		beq	.L97
 564:Source\azure_iot_sdk\uamqp\src/frame_codec.c ****         /* Codes_SRS_FRAME_CODEC_01_091: [If the argument type_specific_size is greater than 0 and 
 565:Source\azure_iot_sdk\uamqp\src/frame_codec.c ****         ((type_specific_size > 0) && (type_specific_bytes == NULL)) ||
 1635              		.loc 1 565 0
 1636 0026 169B     		ldr	r3, [sp, #88]
 1637 0028 002B     		cmp	r3, #0
ARM GAS  C:\Users\Phuong\AppData\Local\Temp\ccIIJJrV.s 			page 40


 1638 002a 02D0     		beq	.L96
 1639              	.L97:
 1640              		.loc 1 565 0 is_stmt 0 discriminator 1
 1641 002c 744B     		ldr	r3, .L117
 1642 002e 9C42     		cmp	r4, r3
 1643 0030 16D9     		bls	.L98
 1644              	.L96:
 1645              	.LBB34:
 566:Source\azure_iot_sdk\uamqp\src/frame_codec.c ****         /* Codes_SRS_FRAME_CODEC_01_092: [If type_specific_size is too big to allow encoding the fr
 567:Source\azure_iot_sdk\uamqp\src/frame_codec.c ****         (type_specific_size > MAX_TYPE_SPECIFIC_SIZE))
 568:Source\azure_iot_sdk\uamqp\src/frame_codec.c ****     {
 569:Source\azure_iot_sdk\uamqp\src/frame_codec.c ****         LogError("Bad arguments: frame_codec = %p, on_bytes_encoded = %p, type_specific_size = %u, 
 1646              		.loc 1 569 0 is_stmt 1 discriminator 3
 1647 0032 FFF7FEFF 		bl	xlogging_get_log_function
 1648              	.LVL248:
 1649 0036 051E     		subs	r5, r0, #0
 1650              	.LVL249:
 1651 0038 00D1     		bne	.LCB1852
 1652 003a D0E0     		b	.L111	@long jump
 1653              	.LCB1852:
 1654              		.loc 1 569 0 is_stmt 0 discriminator 4
 1655 003c 169B     		ldr	r3, [sp, #88]
 1656 003e 0593     		str	r3, [sp, #20]
 1657 0040 0494     		str	r4, [sp, #16]
 1658 0042 189B     		ldr	r3, [sp, #96]
 1659 0044 0393     		str	r3, [sp, #12]
 1660 0046 0296     		str	r6, [sp, #8]
 1661 0048 6E4B     		ldr	r3, .L117+4
 1662 004a 0193     		str	r3, [sp, #4]
 1663 004c 0123     		movs	r3, #1
 1664 004e 0093     		str	r3, [sp]
 1665 0050 6D4B     		ldr	r3, .L117+8
 1666 0052 6E4A     		ldr	r2, .L117+12
 1667 0054 3032     		adds	r2, r2, #48
 1668 0056 6E49     		ldr	r1, .L117+16
 1669 0058 0020     		movs	r0, #0
 1670              	.LVL250:
 1671 005a A847     		blx	r5
 1672              	.LVL251:
 1673              	.LBE34:
 570:Source\azure_iot_sdk\uamqp\src/frame_codec.c ****             frame_codec, on_bytes_encoded, (unsigned int)type_specific_size, type_specific_bytes);
 571:Source\azure_iot_sdk\uamqp\src/frame_codec.c ****         result = __FAILURE__;
 1674              		.loc 1 571 0 is_stmt 1 discriminator 4
 1675 005c 6D48     		ldr	r0, .L117+20
 1676 005e C8E0     		b	.L99
 1677              	.LVL252:
 1678              	.L98:
 572:Source\azure_iot_sdk\uamqp\src/frame_codec.c ****     }
 573:Source\azure_iot_sdk\uamqp\src/frame_codec.c ****     else if ((payloads == NULL) && (payload_count > 0))
 1679              		.loc 1 573 0
 1680 0060 002F     		cmp	r7, #0
 1681 0062 13D1     		bne	.L100
 1682              		.loc 1 573 0 is_stmt 0 discriminator 1
 1683 0064 002D     		cmp	r5, #0
 1684 0066 11D0     		beq	.L100
 1685              	.LBB35:
 574:Source\azure_iot_sdk\uamqp\src/frame_codec.c ****     {
ARM GAS  C:\Users\Phuong\AppData\Local\Temp\ccIIJJrV.s 			page 41


 575:Source\azure_iot_sdk\uamqp\src/frame_codec.c ****         /* Codes_SRS_FRAME_CODEC_01_107: [If the argument `payloads` is NULL and `payload_count` is
 576:Source\azure_iot_sdk\uamqp\src/frame_codec.c ****         LogError("NULL payloads argument with non-zero payload count");
 1686              		.loc 1 576 0 is_stmt 1 discriminator 3
 1687 0068 FFF7FEFF 		bl	xlogging_get_log_function
 1688              	.LVL253:
 1689 006c 041E     		subs	r4, r0, #0
 1690              	.LVL254:
 1691 006e 00D1     		bne	.LCB1901
 1692 0070 B7E0     		b	.L112	@long jump
 1693              	.LCB1901:
 1694              		.loc 1 576 0 is_stmt 0 discriminator 4
 1695 0072 694B     		ldr	r3, .L117+24
 1696 0074 0193     		str	r3, [sp, #4]
 1697 0076 0123     		movs	r3, #1
 1698 0078 0093     		str	r3, [sp]
 1699 007a 9023     		movs	r3, #144
 1700 007c 9B00     		lsls	r3, r3, #2
 1701 007e 634A     		ldr	r2, .L117+12
 1702 0080 3032     		adds	r2, r2, #48
 1703 0082 6349     		ldr	r1, .L117+16
 1704 0084 0020     		movs	r0, #0
 1705              	.LVL255:
 1706 0086 A047     		blx	r4
 1707              	.LVL256:
 1708              	.LBE35:
 577:Source\azure_iot_sdk\uamqp\src/frame_codec.c ****         result = __FAILURE__;
 1709              		.loc 1 577 0 is_stmt 1 discriminator 4
 1710 0088 6448     		ldr	r0, .L117+28
 1711 008a B2E0     		b	.L99
 1712              	.LVL257:
 1713              	.L100:
 1714              	.LBB36:
 578:Source\azure_iot_sdk\uamqp\src/frame_codec.c ****     }
 579:Source\azure_iot_sdk\uamqp\src/frame_codec.c ****     else
 580:Source\azure_iot_sdk\uamqp\src/frame_codec.c ****     {
 581:Source\azure_iot_sdk\uamqp\src/frame_codec.c ****         /* round up to the 4 bytes for doff */
 582:Source\azure_iot_sdk\uamqp\src/frame_codec.c ****         /* Codes_SRS_FRAME_CODEC_01_067: [The value of the data offset is an unsigned, 8-bit intege
 583:Source\azure_iot_sdk\uamqp\src/frame_codec.c ****         /* Codes_SRS_FRAME_CODEC_01_068: [Due to the mandatory 8-byte frame header, the frame is ma
 584:Source\azure_iot_sdk\uamqp\src/frame_codec.c ****         uint8_t padding_byte_count;
 585:Source\azure_iot_sdk\uamqp\src/frame_codec.c ****         uint32_t frame_body_offset = type_specific_size + 6;
 586:Source\azure_iot_sdk\uamqp\src/frame_codec.c ****         uint8_t doff = (uint8_t)((frame_body_offset + 3) / 4);
 1715              		.loc 1 586 0
 1716 008c 2300     		movs	r3, r4
 1717 008e 0933     		adds	r3, r3, #9
 1718 0090 9B08     		lsrs	r3, r3, #2
 1719 0092 DAB2     		uxtb	r2, r3
 1720              	.LVL258:
 1721 0094 9246     		mov	r10, r2
 1722              	.LVL259:
 587:Source\azure_iot_sdk\uamqp\src/frame_codec.c ****         size_t i;
 588:Source\azure_iot_sdk\uamqp\src/frame_codec.c ****         size_t frame_size;
 589:Source\azure_iot_sdk\uamqp\src/frame_codec.c ****         size_t frame_body_size = 0;
 590:Source\azure_iot_sdk\uamqp\src/frame_codec.c ****         frame_body_offset = doff * 4;
 1723              		.loc 1 590 0
 1724 0096 FF20     		movs	r0, #255
 1725              	.LVL260:
 1726 0098 0340     		ands	r3, r0
ARM GAS  C:\Users\Phuong\AppData\Local\Temp\ccIIJJrV.s 			page 42


 1727 009a 9B00     		lsls	r3, r3, #2
 1728 009c 9C46     		mov	ip, r3
 1729              	.LVL261:
 591:Source\azure_iot_sdk\uamqp\src/frame_codec.c ****         padding_byte_count = (uint8_t)(frame_body_offset - type_specific_size - 6);
 1730              		.loc 1 591 0
 1731 009e 1B1B     		subs	r3, r3, r4
 1732              	.LVL262:
 1733 00a0 DBB2     		uxtb	r3, r3
 1734 00a2 063B     		subs	r3, r3, #6
 1735 00a4 DBB2     		uxtb	r3, r3
 1736 00a6 9946     		mov	r9, r3
 1737              	.LVL263:
 589:Source\azure_iot_sdk\uamqp\src/frame_codec.c ****         frame_body_offset = doff * 4;
 1738              		.loc 1 589 0
 1739 00a8 0022     		movs	r2, #0
 592:Source\azure_iot_sdk\uamqp\src/frame_codec.c **** 
 593:Source\azure_iot_sdk\uamqp\src/frame_codec.c ****         for (i = 0; i < payload_count; i++)
 1740              		.loc 1 593 0
 1741 00aa 0021     		movs	r1, #0
 1742              	.LVL264:
 1743 00ac 09E0     		b	.L101
 1744              	.LVL265:
 1745              	.L103:
 594:Source\azure_iot_sdk\uamqp\src/frame_codec.c ****         {
 595:Source\azure_iot_sdk\uamqp\src/frame_codec.c ****             /* Codes_SRS_FRAME_CODEC_01_110: [ If the `bytes` member of a payload entry is NULL, `f
 596:Source\azure_iot_sdk\uamqp\src/frame_codec.c ****             if ((payloads[i].bytes == NULL) ||
 1746              		.loc 1 596 0
 1747 00ae CB00     		lsls	r3, r1, #3
 1748 00b0 FB18     		adds	r3, r7, r3
 1749 00b2 1868     		ldr	r0, [r3]
 1750 00b4 0028     		cmp	r0, #0
 1751 00b6 06D0     		beq	.L102
 597:Source\azure_iot_sdk\uamqp\src/frame_codec.c ****                 /* Codes_SRS_FRAME_CODEC_01_111: [ If the `length` member of a payload entry is 0, 
 598:Source\azure_iot_sdk\uamqp\src/frame_codec.c ****                 (payloads[i].length == 0))
 1752              		.loc 1 598 0 discriminator 1
 1753 00b8 5B68     		ldr	r3, [r3, #4]
 596:Source\azure_iot_sdk\uamqp\src/frame_codec.c ****                 /* Codes_SRS_FRAME_CODEC_01_111: [ If the `length` member of a payload entry is 0, 
 1754              		.loc 1 596 0 discriminator 1
 1755 00ba 002B     		cmp	r3, #0
 1756 00bc 03D0     		beq	.L102
 599:Source\azure_iot_sdk\uamqp\src/frame_codec.c ****             {
 600:Source\azure_iot_sdk\uamqp\src/frame_codec.c ****                 break;
 601:Source\azure_iot_sdk\uamqp\src/frame_codec.c ****             }
 602:Source\azure_iot_sdk\uamqp\src/frame_codec.c **** 
 603:Source\azure_iot_sdk\uamqp\src/frame_codec.c ****             frame_body_size += payloads[i].length;
 1757              		.loc 1 603 0 discriminator 2
 1758 00be D218     		adds	r2, r2, r3
 1759              	.LVL266:
 593:Source\azure_iot_sdk\uamqp\src/frame_codec.c ****         {
 1760              		.loc 1 593 0 discriminator 2
 1761 00c0 0131     		adds	r1, r1, #1
 1762              	.LVL267:
 1763              	.L101:
 593:Source\azure_iot_sdk\uamqp\src/frame_codec.c ****         {
 1764              		.loc 1 593 0 is_stmt 0 discriminator 1
 1765 00c2 A942     		cmp	r1, r5
 1766 00c4 F3D3     		bcc	.L103
ARM GAS  C:\Users\Phuong\AppData\Local\Temp\ccIIJJrV.s 			page 43


 1767              	.L102:
 604:Source\azure_iot_sdk\uamqp\src/frame_codec.c ****         }
 605:Source\azure_iot_sdk\uamqp\src/frame_codec.c **** 
 606:Source\azure_iot_sdk\uamqp\src/frame_codec.c ****         if (i < payload_count)
 1768              		.loc 1 606 0 is_stmt 1
 1769 00c6 A942     		cmp	r1, r5
 1770 00c8 11D2     		bcs	.L104
 1771              	.LBB37:
 607:Source\azure_iot_sdk\uamqp\src/frame_codec.c ****         {
 608:Source\azure_iot_sdk\uamqp\src/frame_codec.c ****             LogError("Bad payload entry");
 1772              		.loc 1 608 0 discriminator 3
 1773 00ca FFF7FEFF 		bl	xlogging_get_log_function
 1774              	.LVL268:
 1775 00ce 041E     		subs	r4, r0, #0
 1776              	.LVL269:
 1777 00d0 00D1     		bne	.LCB2002
 1778 00d2 88E0     		b	.L113	@long jump
 1779              	.LCB2002:
 1780              		.loc 1 608 0 is_stmt 0 discriminator 4
 1781 00d4 524B     		ldr	r3, .L117+32
 1782 00d6 0193     		str	r3, [sp, #4]
 1783 00d8 0123     		movs	r3, #1
 1784 00da 0093     		str	r3, [sp]
 1785 00dc 9823     		movs	r3, #152
 1786 00de 9B00     		lsls	r3, r3, #2
 1787 00e0 4A4A     		ldr	r2, .L117+12
 1788 00e2 3032     		adds	r2, r2, #48
 1789 00e4 4A49     		ldr	r1, .L117+16
 1790 00e6 0020     		movs	r0, #0
 1791              	.LVL270:
 1792 00e8 A047     		blx	r4
 1793              	.LVL271:
 1794              	.LBE37:
 609:Source\azure_iot_sdk\uamqp\src/frame_codec.c ****             result = __FAILURE__;
 1795              		.loc 1 609 0 is_stmt 1 discriminator 4
 1796 00ea 4E48     		ldr	r0, .L117+36
 1797 00ec 81E0     		b	.L99
 1798              	.LVL272:
 1799              	.L104:
 610:Source\azure_iot_sdk\uamqp\src/frame_codec.c ****         }
 611:Source\azure_iot_sdk\uamqp\src/frame_codec.c ****         else
 612:Source\azure_iot_sdk\uamqp\src/frame_codec.c ****         {
 613:Source\azure_iot_sdk\uamqp\src/frame_codec.c ****             /* Codes_SRS_FRAME_CODEC_01_063: [This is an unsigned 32-bit integer that MUST contain 
 614:Source\azure_iot_sdk\uamqp\src/frame_codec.c ****             frame_size = frame_body_size + frame_body_offset;
 1800              		.loc 1 614 0
 1801 00ee 9346     		mov	fp, r2
 1802 00f0 E344     		add	fp, fp, ip
 1803              	.LVL273:
 615:Source\azure_iot_sdk\uamqp\src/frame_codec.c **** 
 616:Source\azure_iot_sdk\uamqp\src/frame_codec.c ****             if (frame_size > frame_codec_data->max_frame_size)
 1804              		.loc 1 616 0
 1805 00f2 B36A     		ldr	r3, [r6, #40]
 1806 00f4 9B45     		cmp	fp, r3
 1807 00f6 10D9     		bls	.L105
 1808              	.LBB38:
 617:Source\azure_iot_sdk\uamqp\src/frame_codec.c ****             {
 618:Source\azure_iot_sdk\uamqp\src/frame_codec.c ****                 /* Codes_SRS_FRAME_CODEC_01_095: [If the frame_size needed for the frame is bigger 
ARM GAS  C:\Users\Phuong\AppData\Local\Temp\ccIIJJrV.s 			page 44


 619:Source\azure_iot_sdk\uamqp\src/frame_codec.c ****                 LogError("Encoded frame size exceeds the maximum allowed frame size");
 1809              		.loc 1 619 0 discriminator 3
 1810 00f8 FFF7FEFF 		bl	xlogging_get_log_function
 1811              	.LVL274:
 1812 00fc 041E     		subs	r4, r0, #0
 1813              	.LVL275:
 1814 00fe 74D0     		beq	.L114
 1815              		.loc 1 619 0 is_stmt 0 discriminator 4
 1816 0100 494B     		ldr	r3, .L117+40
 1817 0102 0193     		str	r3, [sp, #4]
 1818 0104 0123     		movs	r3, #1
 1819 0106 0093     		str	r3, [sp]
 1820 0108 484B     		ldr	r3, .L117+44
 1821 010a 404A     		ldr	r2, .L117+12
 1822 010c 3032     		adds	r2, r2, #48
 1823 010e 4049     		ldr	r1, .L117+16
 1824 0110 0020     		movs	r0, #0
 1825              	.LVL276:
 1826 0112 A047     		blx	r4
 1827              	.LVL277:
 1828              	.LBE38:
 620:Source\azure_iot_sdk\uamqp\src/frame_codec.c ****                 result = __FAILURE__;
 1829              		.loc 1 620 0 is_stmt 1 discriminator 4
 1830 0114 9B20     		movs	r0, #155
 1831 0116 8000     		lsls	r0, r0, #2
 1832 0118 6BE0     		b	.L99
 1833              	.LVL278:
 1834              	.L105:
 1835              	.LBB39:
 621:Source\azure_iot_sdk\uamqp\src/frame_codec.c ****             }
 622:Source\azure_iot_sdk\uamqp\src/frame_codec.c ****             else
 623:Source\azure_iot_sdk\uamqp\src/frame_codec.c ****             {
 624:Source\azure_iot_sdk\uamqp\src/frame_codec.c ****                 /* Codes_SRS_FRAME_CODEC_01_108: [ Memory shall be allocated to hold the entire fra
 625:Source\azure_iot_sdk\uamqp\src/frame_codec.c ****                 unsigned char* encoded_frame = (unsigned char*)malloc(frame_size);
 1836              		.loc 1 625 0
 1837 011a 5846     		mov	r0, fp
 1838 011c FFF7FEFF 		bl	malloc
 1839              	.LVL279:
 1840 0120 8046     		mov	r8, r0
 1841              	.LVL280:
 626:Source\azure_iot_sdk\uamqp\src/frame_codec.c ****                 if (encoded_frame == NULL)
 1842              		.loc 1 626 0
 1843 0122 0028     		cmp	r0, #0
 1844 0124 0FD1     		bne	.L106
 1845              	.LBB40:
 627:Source\azure_iot_sdk\uamqp\src/frame_codec.c ****                 {
 628:Source\azure_iot_sdk\uamqp\src/frame_codec.c ****                     /* Codes_SRS_FRAME_CODEC_01_109: [ If allocating memory fails, `frame_codec_enc
 629:Source\azure_iot_sdk\uamqp\src/frame_codec.c ****                     LogError("Cannot allocate memory for frame");
 1846              		.loc 1 629 0 discriminator 3
 1847 0126 FFF7FEFF 		bl	xlogging_get_log_function
 1848              	.LVL281:
 1849 012a 041E     		subs	r4, r0, #0
 1850              	.LVL282:
 1851 012c 60D0     		beq	.L115
 1852              		.loc 1 629 0 is_stmt 0 discriminator 4
 1853 012e 404B     		ldr	r3, .L117+48
 1854 0130 0193     		str	r3, [sp, #4]
ARM GAS  C:\Users\Phuong\AppData\Local\Temp\ccIIJJrV.s 			page 45


 1855 0132 0123     		movs	r3, #1
 1856 0134 0093     		str	r3, [sp]
 1857 0136 3F4B     		ldr	r3, .L117+52
 1858 0138 344A     		ldr	r2, .L117+12
 1859 013a 3032     		adds	r2, r2, #48
 1860 013c 3449     		ldr	r1, .L117+16
 1861 013e 0020     		movs	r0, #0
 1862              	.LVL283:
 1863 0140 A047     		blx	r4
 1864              	.LVL284:
 1865              	.LBE40:
 630:Source\azure_iot_sdk\uamqp\src/frame_codec.c ****                     result = __FAILURE__;
 1866              		.loc 1 630 0 is_stmt 1 discriminator 4
 1867 0142 3D48     		ldr	r0, .L117+56
 1868 0144 55E0     		b	.L99
 1869              	.LVL285:
 1870              	.L106:
 1871              	.LBB41:
 631:Source\azure_iot_sdk\uamqp\src/frame_codec.c ****                 }
 632:Source\azure_iot_sdk\uamqp\src/frame_codec.c ****                 else
 633:Source\azure_iot_sdk\uamqp\src/frame_codec.c ****                 {
 634:Source\azure_iot_sdk\uamqp\src/frame_codec.c ****                     /* Codes_SRS_FRAME_CODEC_01_042: [frame_codec_encode_frame encodes the header, 
 635:Source\azure_iot_sdk\uamqp\src/frame_codec.c ****                     /* Codes_SRS_FRAME_CODEC_01_055: [Frames are divided into three distinct areas:
 636:Source\azure_iot_sdk\uamqp\src/frame_codec.c ****                     /* Codes_SRS_FRAME_CODEC_01_056: [frame header The frame header is a fixed size
 637:Source\azure_iot_sdk\uamqp\src/frame_codec.c ****                     /* Codes_SRS_FRAME_CODEC_01_057: [The frame header includes mandatory informati
 638:Source\azure_iot_sdk\uamqp\src/frame_codec.c ****                     /* Codes_SRS_FRAME_CODEC_01_058: [extended header The extended header is a vari
 639:Source\azure_iot_sdk\uamqp\src/frame_codec.c ****                     /* Codes_SRS_FRAME_CODEC_01_059: [This is an extension point defined for future
 640:Source\azure_iot_sdk\uamqp\src/frame_codec.c ****                     /* Codes_SRS_FRAME_CODEC_01_060: [The treatment of this area depends on the fra
 641:Source\azure_iot_sdk\uamqp\src/frame_codec.c ****                     /* Codes_SRS_FRAME_CODEC_01_062: [SIZE Bytes 0-3 of the frame header contain th
 642:Source\azure_iot_sdk\uamqp\src/frame_codec.c ****                     /* Codes_SRS_FRAME_CODEC_01_063: [This is an unsigned 32-bit integer that MUST 
 643:Source\azure_iot_sdk\uamqp\src/frame_codec.c ****                     /* Codes_SRS_FRAME_CODEC_01_064: [The frame is malformed if the size is less th
 644:Source\azure_iot_sdk\uamqp\src/frame_codec.c ****                     unsigned char frame_header[6];
 645:Source\azure_iot_sdk\uamqp\src/frame_codec.c ****                     size_t current_pos = 0;
 646:Source\azure_iot_sdk\uamqp\src/frame_codec.c ****                     /* Codes_SRS_FRAME_CODEC_01_090: [If the type_specific_size - 2 does not divide
 647:Source\azure_iot_sdk\uamqp\src/frame_codec.c ****                     unsigned char padding_bytes[] = { 0x00, 0x00, 0x00 };
 1872              		.loc 1 647 0
 1873 0146 09AB     		add	r3, sp, #36
 1874 0148 0022     		movs	r2, #0
 1875 014a 1A70     		strb	r2, [r3]
 1876 014c 5A70     		strb	r2, [r3, #1]
 1877 014e 9A70     		strb	r2, [r3, #2]
 648:Source\azure_iot_sdk\uamqp\src/frame_codec.c **** 
 649:Source\azure_iot_sdk\uamqp\src/frame_codec.c ****                     frame_header[0] = (frame_size >> 24) & 0xFF;
 1878              		.loc 1 649 0
 1879 0150 5B46     		mov	r3, fp
 1880 0152 1B0E     		lsrs	r3, r3, #24
 1881 0154 0AA9     		add	r1, sp, #40
 1882 0156 0B70     		strb	r3, [r1]
 650:Source\azure_iot_sdk\uamqp\src/frame_codec.c ****                     frame_header[1] = (frame_size >> 16) & 0xFF;
 1883              		.loc 1 650 0
 1884 0158 5B46     		mov	r3, fp
 1885 015a 1B0C     		lsrs	r3, r3, #16
 1886 015c 4B70     		strb	r3, [r1, #1]
 651:Source\azure_iot_sdk\uamqp\src/frame_codec.c ****                     frame_header[2] = (frame_size >> 8) & 0xFF;
 1887              		.loc 1 651 0
 1888 015e 5B46     		mov	r3, fp
 1889 0160 1B0A     		lsrs	r3, r3, #8
ARM GAS  C:\Users\Phuong\AppData\Local\Temp\ccIIJJrV.s 			page 46


 1890 0162 8B70     		strb	r3, [r1, #2]
 652:Source\azure_iot_sdk\uamqp\src/frame_codec.c ****                     frame_header[3] = frame_size & 0xFF;
 1891              		.loc 1 652 0
 1892 0164 5B46     		mov	r3, fp
 1893 0166 CB70     		strb	r3, [r1, #3]
 653:Source\azure_iot_sdk\uamqp\src/frame_codec.c ****                     /* Codes_SRS_FRAME_CODEC_01_065: [DOFF Byte 4 of the frame header is the data o
 654:Source\azure_iot_sdk\uamqp\src/frame_codec.c ****                     frame_header[4] = doff;
 1894              		.loc 1 654 0
 1895 0168 5346     		mov	r3, r10
 1896 016a 0B71     		strb	r3, [r1, #4]
 655:Source\azure_iot_sdk\uamqp\src/frame_codec.c ****                     /* Codes_SRS_FRAME_CODEC_01_069: [TYPE Byte 5 of the frame header is a type cod
 656:Source\azure_iot_sdk\uamqp\src/frame_codec.c ****                     frame_header[5] = type;
 1897              		.loc 1 656 0
 1898 016c 6B46     		mov	r3, sp
 1899 016e 1B7F     		ldrb	r3, [r3, #28]
 1900 0170 4B71     		strb	r3, [r1, #5]
 657:Source\azure_iot_sdk\uamqp\src/frame_codec.c **** 
 658:Source\azure_iot_sdk\uamqp\src/frame_codec.c ****                     (void)memcpy(encoded_frame, frame_header, sizeof(frame_header));
 1901              		.loc 1 658 0
 1902 0172 0632     		adds	r2, r2, #6
 1903 0174 FFF7FEFF 		bl	memcpy
 1904              	.LVL286:
 659:Source\azure_iot_sdk\uamqp\src/frame_codec.c ****                     current_pos += sizeof(frame_header);
 660:Source\azure_iot_sdk\uamqp\src/frame_codec.c **** 
 661:Source\azure_iot_sdk\uamqp\src/frame_codec.c ****                     if (type_specific_size > 0)
 1905              		.loc 1 661 0
 1906 0178 002C     		cmp	r4, #0
 1907 017a 07D0     		beq	.L116
 662:Source\azure_iot_sdk\uamqp\src/frame_codec.c ****                     {
 663:Source\azure_iot_sdk\uamqp\src/frame_codec.c ****                         (void)memcpy(encoded_frame + current_pos, type_specific_bytes, type_specifi
 1908              		.loc 1 663 0
 1909 017c 4346     		mov	r3, r8
 1910 017e 981D     		adds	r0, r3, #6
 1911 0180 2200     		movs	r2, r4
 1912 0182 1699     		ldr	r1, [sp, #88]
 1913 0184 FFF7FEFF 		bl	memcpy
 1914              	.LVL287:
 664:Source\azure_iot_sdk\uamqp\src/frame_codec.c ****                         current_pos += type_specific_size;
 1915              		.loc 1 664 0
 1916 0188 0634     		adds	r4, r4, #6
 1917              	.LVL288:
 1918 018a 00E0     		b	.L107
 1919              	.LVL289:
 1920              	.L116:
 659:Source\azure_iot_sdk\uamqp\src/frame_codec.c ****                     current_pos += sizeof(frame_header);
 1921              		.loc 1 659 0
 1922 018c 0624     		movs	r4, #6
 1923              	.LVL290:
 1924              	.L107:
 665:Source\azure_iot_sdk\uamqp\src/frame_codec.c ****                     }
 666:Source\azure_iot_sdk\uamqp\src/frame_codec.c **** 
 667:Source\azure_iot_sdk\uamqp\src/frame_codec.c ****                     /* send padding bytes */
 668:Source\azure_iot_sdk\uamqp\src/frame_codec.c ****                     if (padding_byte_count > 0)
 1925              		.loc 1 668 0
 1926 018e 4B46     		mov	r3, r9
 1927 0190 002B     		cmp	r3, #0
 1928 0192 06D0     		beq	.L108
ARM GAS  C:\Users\Phuong\AppData\Local\Temp\ccIIJJrV.s 			page 47


 669:Source\azure_iot_sdk\uamqp\src/frame_codec.c ****                     {
 670:Source\azure_iot_sdk\uamqp\src/frame_codec.c ****                         (void)memcpy(encoded_frame + current_pos, padding_bytes, padding_byte_count
 1929              		.loc 1 670 0
 1930 0194 4346     		mov	r3, r8
 1931 0196 1819     		adds	r0, r3, r4
 1932 0198 4A46     		mov	r2, r9
 1933 019a 09A9     		add	r1, sp, #36
 1934 019c FFF7FEFF 		bl	memcpy
 1935              	.LVL291:
 671:Source\azure_iot_sdk\uamqp\src/frame_codec.c ****                         current_pos += padding_byte_count;
 1936              		.loc 1 671 0
 1937 01a0 4C44     		add	r4, r4, r9
 1938              	.LVL292:
 1939              	.L108:
 659:Source\azure_iot_sdk\uamqp\src/frame_codec.c **** 
 1940              		.loc 1 659 0 discriminator 1
 1941 01a2 0023     		movs	r3, #0
 1942 01a4 9946     		mov	r9, r3
 1943              	.LVL293:
 1944 01a6 0DE0     		b	.L109
 1945              	.LVL294:
 1946              	.L110:
 672:Source\azure_iot_sdk\uamqp\src/frame_codec.c ****                     }
 673:Source\azure_iot_sdk\uamqp\src/frame_codec.c **** 
 674:Source\azure_iot_sdk\uamqp\src/frame_codec.c ****                     /* Codes_SRS_FRAME_CODEC_01_106: [All payloads shall be encoded in order as par
 675:Source\azure_iot_sdk\uamqp\src/frame_codec.c ****                     for (i = 0; i < payload_count; i++)
 676:Source\azure_iot_sdk\uamqp\src/frame_codec.c ****                     {
 677:Source\azure_iot_sdk\uamqp\src/frame_codec.c ****                         (void)memcpy(encoded_frame + current_pos, payloads[i].bytes, payloads[i].le
 1947              		.loc 1 677 0 discriminator 3
 1948 01a8 4346     		mov	r3, r8
 1949 01aa 1819     		adds	r0, r3, r4
 1950 01ac 4B46     		mov	r3, r9
 1951 01ae DE00     		lsls	r6, r3, #3
 1952 01b0 BE19     		adds	r6, r7, r6
 1953 01b2 7268     		ldr	r2, [r6, #4]
 1954 01b4 3168     		ldr	r1, [r6]
 1955 01b6 FFF7FEFF 		bl	memcpy
 1956              	.LVL295:
 678:Source\azure_iot_sdk\uamqp\src/frame_codec.c ****                         current_pos += payloads[i].length;
 1957              		.loc 1 678 0 discriminator 3
 1958 01ba 7368     		ldr	r3, [r6, #4]
 1959 01bc E418     		adds	r4, r4, r3
 1960              	.LVL296:
 675:Source\azure_iot_sdk\uamqp\src/frame_codec.c ****                     {
 1961              		.loc 1 675 0 discriminator 3
 1962 01be 0123     		movs	r3, #1
 1963 01c0 9C46     		mov	ip, r3
 1964 01c2 E144     		add	r9, r9, ip
 1965              	.LVL297:
 1966              	.L109:
 675:Source\azure_iot_sdk\uamqp\src/frame_codec.c ****                     {
 1967              		.loc 1 675 0 is_stmt 0 discriminator 1
 1968 01c4 A945     		cmp	r9, r5
 1969 01c6 EFD3     		bcc	.L110
 679:Source\azure_iot_sdk\uamqp\src/frame_codec.c ****                     }
 680:Source\azure_iot_sdk\uamqp\src/frame_codec.c **** 
 681:Source\azure_iot_sdk\uamqp\src/frame_codec.c ****                     /* Codes_SRS_FRAME_CODEC_01_088: [Encoded bytes shall be passed to the `on_byte
ARM GAS  C:\Users\Phuong\AppData\Local\Temp\ccIIJJrV.s 			page 48


 682:Source\azure_iot_sdk\uamqp\src/frame_codec.c ****                     on_bytes_encoded(callback_context, encoded_frame, frame_size, true);
 1970              		.loc 1 682 0 is_stmt 1
 1971 01c8 0123     		movs	r3, #1
 1972 01ca 5A46     		mov	r2, fp
 1973 01cc 4146     		mov	r1, r8
 1974 01ce 1998     		ldr	r0, [sp, #100]
 1975 01d0 189C     		ldr	r4, [sp, #96]
 1976              	.LVL298:
 1977 01d2 A047     		blx	r4
 1978              	.LVL299:
 683:Source\azure_iot_sdk\uamqp\src/frame_codec.c **** 
 684:Source\azure_iot_sdk\uamqp\src/frame_codec.c ****                     free(encoded_frame);
 1979              		.loc 1 684 0
 1980 01d4 4046     		mov	r0, r8
 1981 01d6 FFF7FEFF 		bl	free
 1982              	.LVL300:
 685:Source\azure_iot_sdk\uamqp\src/frame_codec.c **** 
 686:Source\azure_iot_sdk\uamqp\src/frame_codec.c ****                     /* Codes_SRS_FRAME_CODEC_01_043: [On success it shall return 0.] */
 687:Source\azure_iot_sdk\uamqp\src/frame_codec.c ****                     result = 0;
 1983              		.loc 1 687 0
 1984 01da 0020     		movs	r0, #0
 1985 01dc 09E0     		b	.L99
 1986              	.LVL301:
 1987              	.L111:
 1988              	.LBE41:
 1989              	.LBE39:
 1990              	.LBE36:
 571:Source\azure_iot_sdk\uamqp\src/frame_codec.c ****     }
 1991              		.loc 1 571 0
 1992 01de 0D48     		ldr	r0, .L117+20
 1993              	.LVL302:
 1994 01e0 07E0     		b	.L99
 1995              	.LVL303:
 1996              	.L112:
 577:Source\azure_iot_sdk\uamqp\src/frame_codec.c ****     }
 1997              		.loc 1 577 0
 1998 01e2 0E48     		ldr	r0, .L117+28
 1999              	.LVL304:
 2000 01e4 05E0     		b	.L99
 2001              	.LVL305:
 2002              	.L113:
 2003              	.LBB43:
 609:Source\azure_iot_sdk\uamqp\src/frame_codec.c ****         }
 2004              		.loc 1 609 0
 2005 01e6 0F48     		ldr	r0, .L117+36
 2006              	.LVL306:
 2007 01e8 03E0     		b	.L99
 2008              	.LVL307:
 2009              	.L114:
 620:Source\azure_iot_sdk\uamqp\src/frame_codec.c ****             }
 2010              		.loc 1 620 0
 2011 01ea 9B20     		movs	r0, #155
 2012              	.LVL308:
 2013 01ec 8000     		lsls	r0, r0, #2
 2014 01ee 00E0     		b	.L99
 2015              	.LVL309:
 2016              	.L115:
ARM GAS  C:\Users\Phuong\AppData\Local\Temp\ccIIJJrV.s 			page 49


 2017              	.LBB42:
 630:Source\azure_iot_sdk\uamqp\src/frame_codec.c ****                 }
 2018              		.loc 1 630 0
 2019 01f0 1148     		ldr	r0, .L117+56
 2020              	.LVL310:
 2021              	.L99:
 2022              	.LBE42:
 2023              	.LBE43:
 688:Source\azure_iot_sdk\uamqp\src/frame_codec.c ****                 }
 689:Source\azure_iot_sdk\uamqp\src/frame_codec.c ****             }
 690:Source\azure_iot_sdk\uamqp\src/frame_codec.c ****         }
 691:Source\azure_iot_sdk\uamqp\src/frame_codec.c ****     }
 692:Source\azure_iot_sdk\uamqp\src/frame_codec.c **** 
 693:Source\azure_iot_sdk\uamqp\src/frame_codec.c ****     return result;
 694:Source\azure_iot_sdk\uamqp\src/frame_codec.c **** }
 2024              		.loc 1 694 0
 2025 01f2 0DB0     		add	sp, sp, #52
 2026              		@ sp needed
 2027              	.LVL311:
 2028 01f4 3CBC     		pop	{r2, r3, r4, r5}
 2029 01f6 9046     		mov	r8, r2
 2030 01f8 9946     		mov	r9, r3
 2031 01fa A246     		mov	r10, r4
 2032 01fc AB46     		mov	fp, r5
 2033 01fe F0BD     		pop	{r4, r5, r6, r7, pc}
 2034              	.L118:
 2035              		.align	2
 2036              	.L117:
 2037 0200 F6030000 		.word	1014
 2038 0204 20030000 		.word	.LC58
 2039 0208 3A020000 		.word	570
 2040 020c 98000000 		.word	.LANCHOR1
 2041 0210 00000000 		.word	.LC1
 2042 0214 3B020000 		.word	571
 2043 0218 8C030000 		.word	.LC60
 2044 021c 41020000 		.word	577
 2045 0220 C0030000 		.word	.LC62
 2046 0224 61020000 		.word	609
 2047 0228 D4030000 		.word	.LC64
 2048 022c 6B020000 		.word	619
 2049 0230 10040000 		.word	.LC66
 2050 0234 75020000 		.word	629
 2051 0238 76020000 		.word	630
 2052              		.cfi_endproc
 2053              	.LFE8:
 2054              		.size	frame_codec_encode_frame, .-frame_codec_encode_frame
 2055              		.section	.rodata
 2056              		.align	2
 2057              		.set	.LANCHOR0,. + 0
 2058              		.type	__func__.6241, %object
 2059              		.size	__func__.6241, 32
 2060              	__func__.6241:
 2061 0014 66696E64 		.ascii	"find_subscription_by_frame_type\000"
 2061      5F737562 
 2061      73637269 
 2061      7074696F 
 2061      6E5F6279 
ARM GAS  C:\Users\Phuong\AppData\Local\Temp\ccIIJJrV.s 			page 50


 2062              		.type	__func__.6250, %object
 2063              		.size	__func__.6250, 19
 2064              	__func__.6250:
 2065 0034 6672616D 		.ascii	"frame_codec_create\000"
 2065      655F636F 
 2065      6465635F 
 2065      63726561 
 2065      746500
 2066 0047 00       		.space	1
 2067              		.type	__func__.6260, %object
 2068              		.size	__func__.6260, 20
 2069              	__func__.6260:
 2070 0048 6672616D 		.ascii	"frame_codec_destroy\000"
 2070      655F636F 
 2070      6465635F 
 2070      64657374 
 2070      726F7900 
 2071              		.type	__func__.6271, %object
 2072              		.size	__func__.6271, 31
 2073              	__func__.6271:
 2074 005c 6672616D 		.ascii	"frame_codec_set_max_frame_size\000"
 2074      655F636F 
 2074      6465635F 
 2074      7365745F 
 2074      6D61785F 
 2075 007b 00       		.space	1
 2076              		.type	__func__.6285, %object
 2077              		.size	__func__.6285, 26
 2078              	__func__.6285:
 2079 007c 6672616D 		.ascii	"frame_codec_receive_bytes\000"
 2079      655F636F 
 2079      6465635F 
 2079      72656365 
 2079      6976655F 
 2080 0096 0000     		.align	2
 2081              		.set	.LANCHOR1,. + 0
 2082              		.type	__func__.6323, %object
 2083              		.size	__func__.6323, 22
 2084              	__func__.6323:
 2085 0098 6672616D 		.ascii	"frame_codec_subscribe\000"
 2085      655F636F 
 2085      6465635F 
 2085      73756273 
 2085      63726962 
 2086 00ae 0000     		.space	2
 2087              		.type	__func__.6344, %object
 2088              		.size	__func__.6344, 24
 2089              	__func__.6344:
 2090 00b0 6672616D 		.ascii	"frame_codec_unsubscribe\000"
 2090      655F636F 
 2090      6465635F 
 2090      756E7375 
 2090      62736372 
 2091              		.type	__func__.6372, %object
 2092              		.size	__func__.6372, 25
 2093              	__func__.6372:
 2094 00c8 6672616D 		.ascii	"frame_codec_encode_frame\000"
ARM GAS  C:\Users\Phuong\AppData\Local\Temp\ccIIJJrV.s 			page 51


 2094      655F636F 
 2094      6465635F 
 2094      656E636F 
 2094      64655F66 
 2095              		.section	.rodata.str1.4,"aMS",%progbits,1
 2096              		.align	2
 2097              	.LC1:
 2098 0000 536F7572 		.ascii	"Source\\azure_iot_sdk\\uamqp\\src\\frame_codec.c\000"
 2098      63655C61 
 2098      7A757265 
 2098      5F696F74 
 2098      5F73646B 
 2099 002d 000000   		.space	3
 2100              	.LC3:
 2101 0030 436F756C 		.ascii	"Could not get subscription information from the lis"
 2101      64206E6F 
 2101      74206765 
 2101      74207375 
 2101      62736372 
 2102 0063 74206974 		.ascii	"t item\000"
 2102      656D00
 2103 006a 0000     		.space	2
 2104              	.LC7:
 2105 006c 4E554C4C 		.ascii	"NULL on_frame_codec_error\000"
 2105      206F6E5F 
 2105      6672616D 
 2105      655F636F 
 2105      6465635F 
 2106 0086 0000     		.space	2
 2107              	.LC9:
 2108 0088 436F756C 		.ascii	"Could not allocate frame codec\000"
 2108      64206E6F 
 2108      7420616C 
 2108      6C6F6361 
 2108      74652066 
 2109 00a7 00       		.space	1
 2110              	.LC13:
 2111 00a8 4E554C4C 		.ascii	"NULL frame_codec\000"
 2111      20667261 
 2111      6D655F63 
 2111      6F646563 
 2111      00
 2112 00b9 000000   		.space	3
 2113              	.LC17:
 2114 00bc 42616420 		.ascii	"Bad arguments: frame_codec = %p, max_frame_size = %"
 2114      61726775 
 2114      6D656E74 
 2114      733A2066 
 2114      72616D65 
 2115 00ef 6C7500   		.ascii	"lu\000"
 2116 00f2 0000     		.space	2
 2117              	.LC19:
 2118 00f4 4672616D 		.ascii	"Frame codec in error state\000"
 2118      6520636F 
 2118      64656320 
 2118      696E2065 
 2118      72726F72 
ARM GAS  C:\Users\Phuong\AppData\Local\Temp\ccIIJJrV.s 			page 52


 2119 010f 00       		.space	1
 2120              	.LC23:
 2121 0110 42616420 		.ascii	"Bad arguments: frame_codec = %p, buffer = %p, size "
 2121      61726775 
 2121      6D656E74 
 2121      733A2066 
 2121      72616D65 
 2122 0143 3D202575 		.ascii	"= %u\000"
 2122      00
 2123              	.LC26:
 2124 0148 4672616D 		.ascii	"Frame codec is in error state\000"
 2124      6520636F 
 2124      64656320 
 2124      69732069 
 2124      6E206572 
 2125 0166 0000     		.space	2
 2126              	.LC28:
 2127 0168 52656365 		.ascii	"Received frame size is too big\000"
 2127      69766564 
 2127      20667261 
 2127      6D652073 
 2127      697A6520 
 2128 0187 00       		.space	1
 2129              	.LC30:
 2130 0188 4D616C66 		.ascii	"Malformed frame received\000"
 2130      6F726D65 
 2130      64206672 
 2130      616D6520 
 2130      72656365 
 2131 01a1 000000   		.space	3
 2132              	.LC33:
 2133 01a4 43616E6E 		.ascii	"Cannot allocate memort for frame bytes\000"
 2133      6F742061 
 2133      6C6C6F63 
 2133      61746520 
 2133      6D656D6F 
 2134 01cb 00       		.space	1
 2135              	.LC37:
 2136 01cc 42616420 		.ascii	"Bad arguments: frame_codec = %p, on_frame_received "
 2136      61726775 
 2136      6D656E74 
 2136      733A2066 
 2136      72616D65 
 2137 01ff 3D202570 		.ascii	"= %p\000"
 2137      00
 2138              	.LC40:
 2139 0204 43616E6E 		.ascii	"Cannot retrieve subscription information from the l"
 2139      6F742072 
 2139      65747269 
 2139      65766520 
 2139      73756273 
 2140 0237 69737420 		.ascii	"ist for type %u\000"
 2140      666F7220 
 2140      74797065 
 2140      20257500 
 2141 0247 00       		.space	1
 2142              	.LC42:
ARM GAS  C:\Users\Phuong\AppData\Local\Temp\ccIIJJrV.s 			page 53


 2143 0248 43616E6E 		.ascii	"Cannot allocate memory for new subscription\000"
 2143      6F742061 
 2143      6C6C6F63 
 2143      61746520 
 2143      6D656D6F 
 2144              	.LC44:
 2145 0274 43616E6E 		.ascii	"Cannot add subscription to list\000"
 2145      6F742061 
 2145      64642073 
 2145      75627363 
 2145      72697074 
 2146              	.LC50:
 2147 0294 43616E6E 		.ascii	"Cannot find subscription for type %u\000"
 2147      6F742066 
 2147      696E6420 
 2147      73756273 
 2147      63726970 
 2148 02b9 000000   		.space	3
 2149              	.LC52:
 2150 02bc 73696E67 		.ascii	"singlylinkedlist_item_get_value failed when unsubsc"
 2150      6C796C69 
 2150      6E6B6564 
 2150      6C697374 
 2150      5F697465 
 2151 02ef 72696269 		.ascii	"ribing\000"
 2151      6E6700
 2152 02f6 0000     		.space	2
 2153              	.LC54:
 2154 02f8 43616E6E 		.ascii	"Cannot remove subscription from list\000"
 2154      6F742072 
 2154      656D6F76 
 2154      65207375 
 2154      62736372 
 2155 031d 000000   		.space	3
 2156              	.LC58:
 2157 0320 42616420 		.ascii	"Bad arguments: frame_codec = %p, on_bytes_encoded ="
 2157      61726775 
 2157      6D656E74 
 2157      733A2066 
 2157      72616D65 
 2158 0353 2025702C 		.ascii	" %p, type_specific_size = %u, type_specific_bytes ="
 2158      20747970 
 2158      655F7370 
 2158      65636966 
 2158      69635F73 
 2159 0386 20257000 		.ascii	" %p\000"
 2160 038a 0000     		.space	2
 2161              	.LC60:
 2162 038c 4E554C4C 		.ascii	"NULL payloads argument with non-zero payload count\000"
 2162      20706179 
 2162      6C6F6164 
 2162      73206172 
 2162      67756D65 
 2163 03bf 00       		.space	1
 2164              	.LC62:
 2165 03c0 42616420 		.ascii	"Bad payload entry\000"
 2165      7061796C 
ARM GAS  C:\Users\Phuong\AppData\Local\Temp\ccIIJJrV.s 			page 54


 2165      6F616420 
 2165      656E7472 
 2165      7900
 2166 03d2 0000     		.space	2
 2167              	.LC64:
 2168 03d4 456E636F 		.ascii	"Encoded frame size exceeds the maximum allowed fram"
 2168      64656420 
 2168      6672616D 
 2168      65207369 
 2168      7A652065 
 2169 0407 65207369 		.ascii	"e size\000"
 2169      7A6500
 2170 040e 0000     		.space	2
 2171              	.LC66:
 2172 0410 43616E6E 		.ascii	"Cannot allocate memory for frame\000"
 2172      6F742061 
 2172      6C6C6F63 
 2172      61746520 
 2172      6D656D6F 
 2173              		.text
 2174              	.Letext0:
 2175              		.file 2 "c:\\program files (x86)\\cypress\\psoc creator\\4.2\\psoc creator\\import\\gnu\\arm\\5.4.
 2176              		.file 3 "c:\\program files (x86)\\cypress\\psoc creator\\4.2\\psoc creator\\import\\gnu\\arm\\5.4.
 2177              		.file 4 "c:\\program files (x86)\\cypress\\psoc creator\\4.2\\psoc creator\\import\\gnu\\arm\\5.4.
 2178              		.file 5 ".\\Source\\azure_iot_sdk\\c-utility\\inc/azure_c_shared_utility/xlogging.h"
 2179              		.file 6 ".\\Source\\azure_iot_sdk\\c-utility\\inc/azure_c_shared_utility/singlylinkedlist.h"
 2180              		.file 7 ".\\Source\\azure_iot_sdk\\uamqp\\inc/azure_uamqp_c/frame_codec.h"
 2181              		.file 8 "c:\\program files (x86)\\cypress\\psoc creator\\4.2\\psoc creator\\import\\gnu\\arm\\5.4.