ARM GAS  C:\Users\Phuong\AppData\Local\Temp\ccxgFGK7.s 			page 1


   1              		.syntax unified
   2              		.cpu cortex-m0plus
   3              		.fpu softvfp
   4              		.eabi_attribute 20, 1
   5              		.eabi_attribute 21, 1
   6              		.eabi_attribute 23, 3
   7              		.eabi_attribute 24, 1
   8              		.eabi_attribute 25, 1
   9              		.eabi_attribute 26, 1
  10              		.eabi_attribute 30, 1
  11              		.eabi_attribute 34, 0
  12              		.eabi_attribute 18, 4
  13              		.thumb
  14              		.syntax unified
  15              		.file	"gballoc.c"
  16              		.text
  17              	.Ltext0:
  18              		.cfi_sections	.debug_frame
  19              		.section	.text.gballoc_init,"ax",%progbits
  20              		.align	2
  21              		.global	gballoc_init
  22              		.code	16
  23              		.thumb_func
  24              		.type	gballoc_init, %function
  25              	gballoc_init:
  26              	.LFB1:
  27              		.file 1 "Source\\azure_iot_sdk\\c-utility\\src\\gballoc.c"
   1:Source\azure_iot_sdk\c-utility\src/gballoc.c **** // Copyright (c) Microsoft. All rights reserved.
   2:Source\azure_iot_sdk\c-utility\src/gballoc.c **** // Licensed under the MIT license. See LICENSE file in the project root for full license informatio
   3:Source\azure_iot_sdk\c-utility\src/gballoc.c **** 
   4:Source\azure_iot_sdk\c-utility\src/gballoc.c **** 
   5:Source\azure_iot_sdk\c-utility\src/gballoc.c **** #include <stdlib.h>
   6:Source\azure_iot_sdk\c-utility\src/gballoc.c **** #include <stdint.h>
   7:Source\azure_iot_sdk\c-utility\src/gballoc.c **** #include <stddef.h>
   8:Source\azure_iot_sdk\c-utility\src/gballoc.c **** #include "azure_c_shared_utility/lock.h"
   9:Source\azure_iot_sdk\c-utility\src/gballoc.c **** #include "azure_c_shared_utility/optimize_size.h"
  10:Source\azure_iot_sdk\c-utility\src/gballoc.c **** #include "azure_c_shared_utility/xlogging.h"
  11:Source\azure_iot_sdk\c-utility\src/gballoc.c **** 
  12:Source\azure_iot_sdk\c-utility\src/gballoc.c **** #ifndef GB_USE_CUSTOM_HEAP
  13:Source\azure_iot_sdk\c-utility\src/gballoc.c **** 
  14:Source\azure_iot_sdk\c-utility\src/gballoc.c **** #ifndef SIZE_MAX
  15:Source\azure_iot_sdk\c-utility\src/gballoc.c **** #define SIZE_MAX ((size_t)~(size_t)0)
  16:Source\azure_iot_sdk\c-utility\src/gballoc.c **** #endif
  17:Source\azure_iot_sdk\c-utility\src/gballoc.c **** 
  18:Source\azure_iot_sdk\c-utility\src/gballoc.c **** typedef struct ALLOCATION_TAG
  19:Source\azure_iot_sdk\c-utility\src/gballoc.c **** {
  20:Source\azure_iot_sdk\c-utility\src/gballoc.c ****     size_t size;
  21:Source\azure_iot_sdk\c-utility\src/gballoc.c ****     void* ptr;
  22:Source\azure_iot_sdk\c-utility\src/gballoc.c ****     void* next;
  23:Source\azure_iot_sdk\c-utility\src/gballoc.c **** } ALLOCATION;
  24:Source\azure_iot_sdk\c-utility\src/gballoc.c **** 
  25:Source\azure_iot_sdk\c-utility\src/gballoc.c **** typedef enum GBALLOC_STATE_TAG
  26:Source\azure_iot_sdk\c-utility\src/gballoc.c **** {
  27:Source\azure_iot_sdk\c-utility\src/gballoc.c ****     GBALLOC_STATE_INIT,
  28:Source\azure_iot_sdk\c-utility\src/gballoc.c ****     GBALLOC_STATE_NOT_INIT
  29:Source\azure_iot_sdk\c-utility\src/gballoc.c **** } GBALLOC_STATE;
  30:Source\azure_iot_sdk\c-utility\src/gballoc.c **** 
ARM GAS  C:\Users\Phuong\AppData\Local\Temp\ccxgFGK7.s 			page 2


  31:Source\azure_iot_sdk\c-utility\src/gballoc.c **** static ALLOCATION* head = NULL;
  32:Source\azure_iot_sdk\c-utility\src/gballoc.c **** static size_t totalSize = 0;
  33:Source\azure_iot_sdk\c-utility\src/gballoc.c **** static size_t maxSize = 0;
  34:Source\azure_iot_sdk\c-utility\src/gballoc.c **** static size_t g_allocations = 0;
  35:Source\azure_iot_sdk\c-utility\src/gballoc.c **** static GBALLOC_STATE gballocState = GBALLOC_STATE_NOT_INIT;
  36:Source\azure_iot_sdk\c-utility\src/gballoc.c **** 
  37:Source\azure_iot_sdk\c-utility\src/gballoc.c **** static LOCK_HANDLE gballocThreadSafeLock = NULL;
  38:Source\azure_iot_sdk\c-utility\src/gballoc.c **** 
  39:Source\azure_iot_sdk\c-utility\src/gballoc.c **** int gballoc_init(void)
  40:Source\azure_iot_sdk\c-utility\src/gballoc.c **** {
  28              		.loc 1 40 0
  29              		.cfi_startproc
  30              		@ args = 0, pretend = 0, frame = 0
  31              		@ frame_needed = 0, uses_anonymous_args = 0
  32 0000 10B5     		push	{r4, lr}
  33              		.cfi_def_cfa_offset 8
  34              		.cfi_offset 4, -8
  35              		.cfi_offset 14, -4
  41:Source\azure_iot_sdk\c-utility\src/gballoc.c ****     int result;
  42:Source\azure_iot_sdk\c-utility\src/gballoc.c **** 
  43:Source\azure_iot_sdk\c-utility\src/gballoc.c ****     if (gballocState != GBALLOC_STATE_NOT_INIT)
  36              		.loc 1 43 0
  37 0002 0B4B     		ldr	r3, .L5
  38 0004 1B78     		ldrb	r3, [r3]
  39 0006 012B     		cmp	r3, #1
  40 0008 0ED1     		bne	.L3
  44:Source\azure_iot_sdk\c-utility\src/gballoc.c ****     {
  45:Source\azure_iot_sdk\c-utility\src/gballoc.c ****         /* Codes_SRS_GBALLOC_01_025: [Init after Init shall fail and return a non-zero value.] */
  46:Source\azure_iot_sdk\c-utility\src/gballoc.c ****         result = __FAILURE__;
  47:Source\azure_iot_sdk\c-utility\src/gballoc.c ****     }
  48:Source\azure_iot_sdk\c-utility\src/gballoc.c ****     /* Codes_SRS_GBALLOC_01_026: [gballoc_Init shall create a lock handle that will be used to make
  49:Source\azure_iot_sdk\c-utility\src/gballoc.c ****     else if ((gballocThreadSafeLock = Lock_Init()) == NULL)
  41              		.loc 1 49 0
  42 000a FFF7FEFF 		bl	Lock_Init
  43              	.LVL0:
  44 000e 094B     		ldr	r3, .L5+4
  45 0010 1860     		str	r0, [r3]
  46 0012 0028     		cmp	r0, #0
  47 0014 0AD0     		beq	.L4
  50:Source\azure_iot_sdk\c-utility\src/gballoc.c ****     {
  51:Source\azure_iot_sdk\c-utility\src/gballoc.c ****         /* Codes_SRS_GBALLOC_01_027: [If the Lock creation fails, gballoc_init shall return a non-z
  52:Source\azure_iot_sdk\c-utility\src/gballoc.c ****         result = __FAILURE__;
  53:Source\azure_iot_sdk\c-utility\src/gballoc.c ****     }
  54:Source\azure_iot_sdk\c-utility\src/gballoc.c ****     else
  55:Source\azure_iot_sdk\c-utility\src/gballoc.c ****     {
  56:Source\azure_iot_sdk\c-utility\src/gballoc.c ****         gballocState = GBALLOC_STATE_INIT;
  48              		.loc 1 56 0
  49 0016 0023     		movs	r3, #0
  50 0018 054A     		ldr	r2, .L5
  51 001a 1370     		strb	r3, [r2]
  57:Source\azure_iot_sdk\c-utility\src/gballoc.c **** 
  58:Source\azure_iot_sdk\c-utility\src/gballoc.c ****         /* Codes_ SRS_GBALLOC_01_002: [Upon initialization the total memory used and maximum total 
  59:Source\azure_iot_sdk\c-utility\src/gballoc.c ****         totalSize = 0;
  52              		.loc 1 59 0
  53 001c 054A     		ldr	r2, .L5+4
  54 001e 5360     		str	r3, [r2, #4]
  60:Source\azure_iot_sdk\c-utility\src/gballoc.c ****         maxSize = 0;
ARM GAS  C:\Users\Phuong\AppData\Local\Temp\ccxgFGK7.s 			page 3


  55              		.loc 1 60 0
  56 0020 9360     		str	r3, [r2, #8]
  61:Source\azure_iot_sdk\c-utility\src/gballoc.c ****         g_allocations = 0;
  57              		.loc 1 61 0
  58 0022 D360     		str	r3, [r2, #12]
  59              	.LVL1:
  62:Source\azure_iot_sdk\c-utility\src/gballoc.c **** 
  63:Source\azure_iot_sdk\c-utility\src/gballoc.c ****         /* Codes_SRS_GBALLOC_01_024: [gballoc_init shall initialize the gballoc module and return 0
  64:Source\azure_iot_sdk\c-utility\src/gballoc.c ****         result = 0;
  60              		.loc 1 64 0
  61 0024 0020     		movs	r0, #0
  62 0026 02E0     		b	.L2
  63              	.LVL2:
  64              	.L3:
  46:Source\azure_iot_sdk\c-utility\src/gballoc.c ****     }
  65              		.loc 1 46 0
  66 0028 2E20     		movs	r0, #46
  67 002a 00E0     		b	.L2
  68              	.L4:
  52:Source\azure_iot_sdk\c-utility\src/gballoc.c ****     }
  69              		.loc 1 52 0
  70 002c 3420     		movs	r0, #52
  71              	.L2:
  72              	.LVL3:
  65:Source\azure_iot_sdk\c-utility\src/gballoc.c ****     }
  66:Source\azure_iot_sdk\c-utility\src/gballoc.c **** 
  67:Source\azure_iot_sdk\c-utility\src/gballoc.c ****     return result;
  68:Source\azure_iot_sdk\c-utility\src/gballoc.c **** }
  73              		.loc 1 68 0
  74              		@ sp needed
  75 002e 10BD     		pop	{r4, pc}
  76              	.L6:
  77              		.align	2
  78              	.L5:
  79 0030 00000000 		.word	.LANCHOR0
  80 0034 00000000 		.word	.LANCHOR1
  81              		.cfi_endproc
  82              	.LFE1:
  83              		.size	gballoc_init, .-gballoc_init
  84              		.section	.text.gballoc_deinit,"ax",%progbits
  85              		.align	2
  86              		.global	gballoc_deinit
  87              		.code	16
  88              		.thumb_func
  89              		.type	gballoc_deinit, %function
  90              	gballoc_deinit:
  91              	.LFB2:
  69:Source\azure_iot_sdk\c-utility\src/gballoc.c **** 
  70:Source\azure_iot_sdk\c-utility\src/gballoc.c **** void gballoc_deinit(void)
  71:Source\azure_iot_sdk\c-utility\src/gballoc.c **** {
  92              		.loc 1 71 0
  93              		.cfi_startproc
  94              		@ args = 0, pretend = 0, frame = 0
  95              		@ frame_needed = 0, uses_anonymous_args = 0
  96 0000 10B5     		push	{r4, lr}
  97              		.cfi_def_cfa_offset 8
  98              		.cfi_offset 4, -8
ARM GAS  C:\Users\Phuong\AppData\Local\Temp\ccxgFGK7.s 			page 4


  99              		.cfi_offset 14, -4
  72:Source\azure_iot_sdk\c-utility\src/gballoc.c ****     if (gballocState == GBALLOC_STATE_INIT)
 100              		.loc 1 72 0
 101 0002 064B     		ldr	r3, .L9
 102 0004 1B78     		ldrb	r3, [r3]
 103 0006 002B     		cmp	r3, #0
 104 0008 03D1     		bne	.L8
  73:Source\azure_iot_sdk\c-utility\src/gballoc.c ****     {
  74:Source\azure_iot_sdk\c-utility\src/gballoc.c ****         /* Codes_SRS_GBALLOC_01_028: [gballoc_deinit shall free all resources allocated by gballoc_
  75:Source\azure_iot_sdk\c-utility\src/gballoc.c ****         (void)Lock_Deinit(gballocThreadSafeLock);
 105              		.loc 1 75 0
 106 000a 054B     		ldr	r3, .L9+4
 107 000c 1868     		ldr	r0, [r3]
 108 000e FFF7FEFF 		bl	Lock_Deinit
 109              	.LVL4:
 110              	.L8:
  76:Source\azure_iot_sdk\c-utility\src/gballoc.c ****     }
  77:Source\azure_iot_sdk\c-utility\src/gballoc.c **** 
  78:Source\azure_iot_sdk\c-utility\src/gballoc.c ****     gballocState = GBALLOC_STATE_NOT_INIT;
 111              		.loc 1 78 0
 112 0012 0122     		movs	r2, #1
 113 0014 014B     		ldr	r3, .L9
 114 0016 1A70     		strb	r2, [r3]
  79:Source\azure_iot_sdk\c-utility\src/gballoc.c **** }
 115              		.loc 1 79 0
 116              		@ sp needed
 117 0018 10BD     		pop	{r4, pc}
 118              	.L10:
 119 001a C046     		.align	2
 120              	.L9:
 121 001c 00000000 		.word	.LANCHOR0
 122 0020 00000000 		.word	.LANCHOR1
 123              		.cfi_endproc
 124              	.LFE2:
 125              		.size	gballoc_deinit, .-gballoc_deinit
 126              		.section	.text.gballoc_malloc,"ax",%progbits
 127              		.align	2
 128              		.global	gballoc_malloc
 129              		.code	16
 130              		.thumb_func
 131              		.type	gballoc_malloc, %function
 132              	gballoc_malloc:
 133              	.LFB3:
  80:Source\azure_iot_sdk\c-utility\src/gballoc.c **** 
  81:Source\azure_iot_sdk\c-utility\src/gballoc.c **** void* gballoc_malloc(size_t size)
  82:Source\azure_iot_sdk\c-utility\src/gballoc.c **** {
 134              		.loc 1 82 0
 135              		.cfi_startproc
 136              		@ args = 0, pretend = 0, frame = 0
 137              		@ frame_needed = 0, uses_anonymous_args = 0
 138              	.LVL5:
 139 0000 70B5     		push	{r4, r5, r6, lr}
 140              		.cfi_def_cfa_offset 16
 141              		.cfi_offset 4, -16
 142              		.cfi_offset 5, -12
 143              		.cfi_offset 6, -8
 144              		.cfi_offset 14, -4
ARM GAS  C:\Users\Phuong\AppData\Local\Temp\ccxgFGK7.s 			page 5


 145 0002 82B0     		sub	sp, sp, #8
 146              		.cfi_def_cfa_offset 24
 147 0004 0500     		movs	r5, r0
  83:Source\azure_iot_sdk\c-utility\src/gballoc.c ****     void* result;
  84:Source\azure_iot_sdk\c-utility\src/gballoc.c **** 
  85:Source\azure_iot_sdk\c-utility\src/gballoc.c ****     if (gballocState != GBALLOC_STATE_INIT)
 148              		.loc 1 85 0
 149 0006 244B     		ldr	r3, .L19
 150 0008 1B78     		ldrb	r3, [r3]
 151 000a 002B     		cmp	r3, #0
 152 000c 03D0     		beq	.L12
  86:Source\azure_iot_sdk\c-utility\src/gballoc.c ****     {
  87:Source\azure_iot_sdk\c-utility\src/gballoc.c ****         /* Codes_SRS_GBALLOC_01_039: [If gballoc was not initialized gballoc_malloc shall simply ca
  88:Source\azure_iot_sdk\c-utility\src/gballoc.c ****         result = malloc(size);
 153              		.loc 1 88 0
 154 000e FFF7FEFF 		bl	malloc
 155              	.LVL6:
 156 0012 0400     		movs	r4, r0
 157              	.LVL7:
 158 0014 3CE0     		b	.L13
 159              	.LVL8:
 160              	.L12:
  89:Source\azure_iot_sdk\c-utility\src/gballoc.c ****     }
  90:Source\azure_iot_sdk\c-utility\src/gballoc.c ****     /* Codes_SRS_GBALLOC_01_030: [gballoc_malloc shall ensure thread safety by using the lock creat
  91:Source\azure_iot_sdk\c-utility\src/gballoc.c ****     else if (LOCK_OK != Lock(gballocThreadSafeLock))
 161              		.loc 1 91 0
 162 0016 214B     		ldr	r3, .L19+4
 163 0018 1868     		ldr	r0, [r3]
 164              	.LVL9:
 165 001a FFF7FEFF 		bl	Lock
 166              	.LVL10:
 167 001e 0028     		cmp	r0, #0
 168 0020 0ED0     		beq	.L14
 169              	.LBB2:
  92:Source\azure_iot_sdk\c-utility\src/gballoc.c ****     {
  93:Source\azure_iot_sdk\c-utility\src/gballoc.c ****         /* Codes_SRS_GBALLOC_01_048: [If acquiring the lock fails, gballoc_malloc shall return NULL
  94:Source\azure_iot_sdk\c-utility\src/gballoc.c ****         LogError("Failed to get the Lock.");
 170              		.loc 1 94 0 discriminator 3
 171 0022 FFF7FEFF 		bl	xlogging_get_log_function
 172              	.LVL11:
 173 0026 041E     		subs	r4, r0, #0
 174              	.LVL12:
 175 0028 31D0     		beq	.L17
 176              		.loc 1 94 0 is_stmt 0 discriminator 4
 177 002a 1D4B     		ldr	r3, .L19+8
 178 002c 0193     		str	r3, [sp, #4]
 179 002e 0123     		movs	r3, #1
 180 0030 0093     		str	r3, [sp]
 181 0032 5D33     		adds	r3, r3, #93
 182 0034 1B4A     		ldr	r2, .L19+12
 183 0036 1C49     		ldr	r1, .L19+16
 184 0038 0020     		movs	r0, #0
 185              	.LVL13:
 186 003a A047     		blx	r4
 187              	.LVL14:
 188              	.LBE2:
  95:Source\azure_iot_sdk\c-utility\src/gballoc.c ****         result = NULL;
ARM GAS  C:\Users\Phuong\AppData\Local\Temp\ccxgFGK7.s 			page 6


 189              		.loc 1 95 0 is_stmt 1 discriminator 4
 190 003c 0024     		movs	r4, #0
 191              	.LVL15:
 192 003e 27E0     		b	.L13
 193              	.L14:
 194              	.LBB3:
  96:Source\azure_iot_sdk\c-utility\src/gballoc.c ****     }
  97:Source\azure_iot_sdk\c-utility\src/gballoc.c ****     else
  98:Source\azure_iot_sdk\c-utility\src/gballoc.c ****     {
  99:Source\azure_iot_sdk\c-utility\src/gballoc.c ****         ALLOCATION* allocation = (ALLOCATION*)malloc(sizeof(ALLOCATION));
 195              		.loc 1 99 0
 196 0040 0C20     		movs	r0, #12
 197 0042 FFF7FEFF 		bl	malloc
 198              	.LVL16:
 199 0046 061E     		subs	r6, r0, #0
 200              	.LVL17:
 100:Source\azure_iot_sdk\c-utility\src/gballoc.c ****         if (allocation == NULL)
 201              		.loc 1 100 0
 202 0048 1BD0     		beq	.L18
 101:Source\azure_iot_sdk\c-utility\src/gballoc.c ****         {
 102:Source\azure_iot_sdk\c-utility\src/gballoc.c ****             result = NULL;
 103:Source\azure_iot_sdk\c-utility\src/gballoc.c ****         }
 104:Source\azure_iot_sdk\c-utility\src/gballoc.c ****         else
 105:Source\azure_iot_sdk\c-utility\src/gballoc.c ****         {
 106:Source\azure_iot_sdk\c-utility\src/gballoc.c ****             /* Codes_SRS_GBALLOC_01_003: [gb_malloc shall call the C99 malloc function and return i
 107:Source\azure_iot_sdk\c-utility\src/gballoc.c ****             result = malloc(size);
 203              		.loc 1 107 0
 204 004a 2800     		movs	r0, r5
 205              	.LVL18:
 206 004c FFF7FEFF 		bl	malloc
 207              	.LVL19:
 208 0050 041E     		subs	r4, r0, #0
 209              	.LVL20:
 108:Source\azure_iot_sdk\c-utility\src/gballoc.c ****             if (result == NULL)
 210              		.loc 1 108 0
 211 0052 03D1     		bne	.L16
 109:Source\azure_iot_sdk\c-utility\src/gballoc.c ****             {
 110:Source\azure_iot_sdk\c-utility\src/gballoc.c ****                 /* Codes_SRS_GBALLOC_01_012: [When the underlying malloc call fails, gballoc_malloc
 111:Source\azure_iot_sdk\c-utility\src/gballoc.c ****                 free(allocation);
 212              		.loc 1 111 0
 213 0054 3000     		movs	r0, r6
 214              	.LVL21:
 215 0056 FFF7FEFF 		bl	free
 216              	.LVL22:
 217 005a 13E0     		b	.L15
 218              	.LVL23:
 219              	.L16:
 112:Source\azure_iot_sdk\c-utility\src/gballoc.c ****             }
 113:Source\azure_iot_sdk\c-utility\src/gballoc.c ****             else
 114:Source\azure_iot_sdk\c-utility\src/gballoc.c ****             {
 115:Source\azure_iot_sdk\c-utility\src/gballoc.c ****                 /* Codes_SRS_GBALLOC_01_004: [If the underlying malloc call is successful, gb_mallo
 116:Source\azure_iot_sdk\c-utility\src/gballoc.c ****                 allocation->ptr = result;
 220              		.loc 1 116 0
 221 005c 7060     		str	r0, [r6, #4]
 117:Source\azure_iot_sdk\c-utility\src/gballoc.c ****                 allocation->size = size;
 222              		.loc 1 117 0
 223 005e 3560     		str	r5, [r6]
ARM GAS  C:\Users\Phuong\AppData\Local\Temp\ccxgFGK7.s 			page 7


 118:Source\azure_iot_sdk\c-utility\src/gballoc.c ****                 allocation->next = head;
 224              		.loc 1 118 0
 225 0060 0E4B     		ldr	r3, .L19+4
 226 0062 1A69     		ldr	r2, [r3, #16]
 227 0064 B260     		str	r2, [r6, #8]
 119:Source\azure_iot_sdk\c-utility\src/gballoc.c ****                 head = allocation;
 228              		.loc 1 119 0
 229 0066 1E61     		str	r6, [r3, #16]
 120:Source\azure_iot_sdk\c-utility\src/gballoc.c **** 
 121:Source\azure_iot_sdk\c-utility\src/gballoc.c ****                 g_allocations++;
 230              		.loc 1 121 0
 231 0068 DA68     		ldr	r2, [r3, #12]
 232 006a 0132     		adds	r2, r2, #1
 233 006c DA60     		str	r2, [r3, #12]
 122:Source\azure_iot_sdk\c-utility\src/gballoc.c ****                 totalSize += size;
 234              		.loc 1 122 0
 235 006e 5A68     		ldr	r2, [r3, #4]
 236 0070 9446     		mov	ip, r2
 237 0072 6544     		add	r5, r5, ip
 238              	.LVL24:
 239 0074 5D60     		str	r5, [r3, #4]
 123:Source\azure_iot_sdk\c-utility\src/gballoc.c ****                 /* Codes_SRS_GBALLOC_01_011: [The maximum total memory used shall be the maximum of
 124:Source\azure_iot_sdk\c-utility\src/gballoc.c ****                 if (maxSize < totalSize)
 240              		.loc 1 124 0
 241 0076 9B68     		ldr	r3, [r3, #8]
 242              	.LVL25:
 243 0078 9D42     		cmp	r5, r3
 244 007a 03D9     		bls	.L15
 245              	.LVL26:
 125:Source\azure_iot_sdk\c-utility\src/gballoc.c ****                 {
 126:Source\azure_iot_sdk\c-utility\src/gballoc.c ****                     maxSize = totalSize;
 246              		.loc 1 126 0
 247 007c 074B     		ldr	r3, .L19+4
 248 007e 9D60     		str	r5, [r3, #8]
 249 0080 00E0     		b	.L15
 250              	.LVL27:
 251              	.L18:
 102:Source\azure_iot_sdk\c-utility\src/gballoc.c ****         }
 252              		.loc 1 102 0
 253 0082 0024     		movs	r4, #0
 254              	.LVL28:
 255              	.L15:
 127:Source\azure_iot_sdk\c-utility\src/gballoc.c ****                 }
 128:Source\azure_iot_sdk\c-utility\src/gballoc.c ****             }
 129:Source\azure_iot_sdk\c-utility\src/gballoc.c ****         }
 130:Source\azure_iot_sdk\c-utility\src/gballoc.c **** 
 131:Source\azure_iot_sdk\c-utility\src/gballoc.c ****         (void)Unlock(gballocThreadSafeLock);
 256              		.loc 1 131 0
 257 0084 054B     		ldr	r3, .L19+4
 258 0086 1868     		ldr	r0, [r3]
 259 0088 FFF7FEFF 		bl	Unlock
 260              	.LVL29:
 261 008c 00E0     		b	.L13
 262              	.LVL30:
 263              	.L17:
 264              	.LBE3:
  95:Source\azure_iot_sdk\c-utility\src/gballoc.c ****     }
ARM GAS  C:\Users\Phuong\AppData\Local\Temp\ccxgFGK7.s 			page 8


 265              		.loc 1 95 0
 266 008e 0024     		movs	r4, #0
 267              	.LVL31:
 268              	.L13:
 132:Source\azure_iot_sdk\c-utility\src/gballoc.c ****     }
 133:Source\azure_iot_sdk\c-utility\src/gballoc.c **** 
 134:Source\azure_iot_sdk\c-utility\src/gballoc.c ****     return result;
 135:Source\azure_iot_sdk\c-utility\src/gballoc.c **** }
 269              		.loc 1 135 0
 270 0090 2000     		movs	r0, r4
 271 0092 02B0     		add	sp, sp, #8
 272              		@ sp needed
 273              	.LVL32:
 274 0094 70BD     		pop	{r4, r5, r6, pc}
 275              	.L20:
 276 0096 C046     		.align	2
 277              	.L19:
 278 0098 00000000 		.word	.LANCHOR0
 279 009c 00000000 		.word	.LANCHOR1
 280 00a0 30000000 		.word	.LC9
 281 00a4 00000000 		.word	.LANCHOR2
 282 00a8 00000000 		.word	.LC7
 283              		.cfi_endproc
 284              	.LFE3:
 285              		.size	gballoc_malloc, .-gballoc_malloc
 286              		.section	.text.gballoc_calloc,"ax",%progbits
 287              		.align	2
 288              		.global	gballoc_calloc
 289              		.code	16
 290              		.thumb_func
 291              		.type	gballoc_calloc, %function
 292              	gballoc_calloc:
 293              	.LFB4:
 136:Source\azure_iot_sdk\c-utility\src/gballoc.c **** 
 137:Source\azure_iot_sdk\c-utility\src/gballoc.c **** void* gballoc_calloc(size_t nmemb, size_t size)
 138:Source\azure_iot_sdk\c-utility\src/gballoc.c **** {
 294              		.loc 1 138 0
 295              		.cfi_startproc
 296              		@ args = 0, pretend = 0, frame = 0
 297              		@ frame_needed = 0, uses_anonymous_args = 0
 298              	.LVL33:
 299 0000 F0B5     		push	{r4, r5, r6, r7, lr}
 300              		.cfi_def_cfa_offset 20
 301              		.cfi_offset 4, -20
 302              		.cfi_offset 5, -16
 303              		.cfi_offset 6, -12
 304              		.cfi_offset 7, -8
 305              		.cfi_offset 14, -4
 306 0002 83B0     		sub	sp, sp, #12
 307              		.cfi_def_cfa_offset 32
 308 0004 0600     		movs	r6, r0
 309 0006 0D00     		movs	r5, r1
 139:Source\azure_iot_sdk\c-utility\src/gballoc.c ****     void* result;
 140:Source\azure_iot_sdk\c-utility\src/gballoc.c **** 
 141:Source\azure_iot_sdk\c-utility\src/gballoc.c ****     if (gballocState != GBALLOC_STATE_INIT)
 310              		.loc 1 141 0
 311 0008 254B     		ldr	r3, .L29
ARM GAS  C:\Users\Phuong\AppData\Local\Temp\ccxgFGK7.s 			page 9


 312 000a 1B78     		ldrb	r3, [r3]
 313 000c 002B     		cmp	r3, #0
 314 000e 03D0     		beq	.L22
 142:Source\azure_iot_sdk\c-utility\src/gballoc.c ****     {
 143:Source\azure_iot_sdk\c-utility\src/gballoc.c ****         /* Codes_SRS_GBALLOC_01_040: [If gballoc was not initialized gballoc_calloc shall simply ca
 144:Source\azure_iot_sdk\c-utility\src/gballoc.c ****         result = calloc(nmemb, size);
 315              		.loc 1 144 0
 316 0010 FFF7FEFF 		bl	calloc
 317              	.LVL34:
 318 0014 0400     		movs	r4, r0
 319              	.LVL35:
 320 0016 3FE0     		b	.L23
 321              	.LVL36:
 322              	.L22:
 145:Source\azure_iot_sdk\c-utility\src/gballoc.c ****     }
 146:Source\azure_iot_sdk\c-utility\src/gballoc.c ****     /* Codes_SRS_GBALLOC_01_031: [gballoc_calloc shall ensure thread safety by using the lock creat
 147:Source\azure_iot_sdk\c-utility\src/gballoc.c ****     else if (LOCK_OK != Lock(gballocThreadSafeLock))
 323              		.loc 1 147 0
 324 0018 224B     		ldr	r3, .L29+4
 325 001a 1868     		ldr	r0, [r3]
 326              	.LVL37:
 327 001c FFF7FEFF 		bl	Lock
 328              	.LVL38:
 329 0020 0028     		cmp	r0, #0
 330 0022 0FD0     		beq	.L24
 331              	.LBB4:
 148:Source\azure_iot_sdk\c-utility\src/gballoc.c ****     {
 149:Source\azure_iot_sdk\c-utility\src/gballoc.c ****         /* Codes_SRS_GBALLOC_01_046: [If acquiring the lock fails, gballoc_calloc shall return NULL
 150:Source\azure_iot_sdk\c-utility\src/gballoc.c ****         LogError("Failed to get the Lock.");
 332              		.loc 1 150 0 discriminator 3
 333 0024 FFF7FEFF 		bl	xlogging_get_log_function
 334              	.LVL39:
 335 0028 041E     		subs	r4, r0, #0
 336              	.LVL40:
 337 002a 34D0     		beq	.L27
 338              		.loc 1 150 0 is_stmt 0 discriminator 4
 339 002c 1E4B     		ldr	r3, .L29+8
 340 002e 0193     		str	r3, [sp, #4]
 341 0030 0123     		movs	r3, #1
 342 0032 0093     		str	r3, [sp]
 343 0034 9533     		adds	r3, r3, #149
 344 0036 1D4A     		ldr	r2, .L29+12
 345 0038 1032     		adds	r2, r2, #16
 346 003a 1D49     		ldr	r1, .L29+16
 347 003c 0020     		movs	r0, #0
 348              	.LVL41:
 349 003e A047     		blx	r4
 350              	.LVL42:
 351              	.LBE4:
 151:Source\azure_iot_sdk\c-utility\src/gballoc.c ****         result = NULL;
 352              		.loc 1 151 0 is_stmt 1 discriminator 4
 353 0040 0024     		movs	r4, #0
 354              	.LVL43:
 355 0042 29E0     		b	.L23
 356              	.L24:
 357              	.LBB5:
 152:Source\azure_iot_sdk\c-utility\src/gballoc.c ****     }
ARM GAS  C:\Users\Phuong\AppData\Local\Temp\ccxgFGK7.s 			page 10


 153:Source\azure_iot_sdk\c-utility\src/gballoc.c ****     else
 154:Source\azure_iot_sdk\c-utility\src/gballoc.c ****     {
 155:Source\azure_iot_sdk\c-utility\src/gballoc.c ****         ALLOCATION* allocation = (ALLOCATION*)malloc(sizeof(ALLOCATION));
 358              		.loc 1 155 0
 359 0044 0C20     		movs	r0, #12
 360 0046 FFF7FEFF 		bl	malloc
 361              	.LVL44:
 362 004a 071E     		subs	r7, r0, #0
 363              	.LVL45:
 156:Source\azure_iot_sdk\c-utility\src/gballoc.c ****         if (allocation == NULL)
 364              		.loc 1 156 0
 365 004c 1DD0     		beq	.L28
 157:Source\azure_iot_sdk\c-utility\src/gballoc.c ****         {
 158:Source\azure_iot_sdk\c-utility\src/gballoc.c ****             result = NULL;
 159:Source\azure_iot_sdk\c-utility\src/gballoc.c ****         }
 160:Source\azure_iot_sdk\c-utility\src/gballoc.c ****         else
 161:Source\azure_iot_sdk\c-utility\src/gballoc.c ****         {
 162:Source\azure_iot_sdk\c-utility\src/gballoc.c ****             /* Codes_SRS_GBALLOC_01_020: [gballoc_calloc shall call the C99 calloc function and ret
 163:Source\azure_iot_sdk\c-utility\src/gballoc.c ****             result = calloc(nmemb, size);
 366              		.loc 1 163 0
 367 004e 2900     		movs	r1, r5
 368 0050 3000     		movs	r0, r6
 369              	.LVL46:
 370 0052 FFF7FEFF 		bl	calloc
 371              	.LVL47:
 372 0056 041E     		subs	r4, r0, #0
 373              	.LVL48:
 164:Source\azure_iot_sdk\c-utility\src/gballoc.c ****             if (result == NULL)
 374              		.loc 1 164 0
 375 0058 03D1     		bne	.L26
 165:Source\azure_iot_sdk\c-utility\src/gballoc.c ****             {
 166:Source\azure_iot_sdk\c-utility\src/gballoc.c ****                 /* Codes_SRS_GBALLOC_01_022: [When the underlying calloc call fails, gballoc_calloc
 167:Source\azure_iot_sdk\c-utility\src/gballoc.c ****                 free(allocation);
 376              		.loc 1 167 0
 377 005a 3800     		movs	r0, r7
 378              	.LVL49:
 379 005c FFF7FEFF 		bl	free
 380              	.LVL50:
 381 0060 14E0     		b	.L25
 382              	.LVL51:
 383              	.L26:
 168:Source\azure_iot_sdk\c-utility\src/gballoc.c ****             }
 169:Source\azure_iot_sdk\c-utility\src/gballoc.c ****             else
 170:Source\azure_iot_sdk\c-utility\src/gballoc.c ****             {
 171:Source\azure_iot_sdk\c-utility\src/gballoc.c ****                 /* Codes_SRS_GBALLOC_01_021: [If the underlying calloc call is successful, gballoc_
 172:Source\azure_iot_sdk\c-utility\src/gballoc.c ****                 allocation->ptr = result;
 384              		.loc 1 172 0
 385 0062 7860     		str	r0, [r7, #4]
 173:Source\azure_iot_sdk\c-utility\src/gballoc.c ****                 allocation->size = nmemb * size;
 386              		.loc 1 173 0
 387 0064 7543     		muls	r5, r6
 388              	.LVL52:
 389 0066 3D60     		str	r5, [r7]
 174:Source\azure_iot_sdk\c-utility\src/gballoc.c ****                 allocation->next = head;
 390              		.loc 1 174 0
 391 0068 0E4B     		ldr	r3, .L29+4
 392 006a 1A69     		ldr	r2, [r3, #16]
ARM GAS  C:\Users\Phuong\AppData\Local\Temp\ccxgFGK7.s 			page 11


 393 006c BA60     		str	r2, [r7, #8]
 175:Source\azure_iot_sdk\c-utility\src/gballoc.c ****                 head = allocation;
 394              		.loc 1 175 0
 395 006e 1F61     		str	r7, [r3, #16]
 176:Source\azure_iot_sdk\c-utility\src/gballoc.c ****                 g_allocations++;
 396              		.loc 1 176 0
 397 0070 DA68     		ldr	r2, [r3, #12]
 398 0072 0132     		adds	r2, r2, #1
 399 0074 DA60     		str	r2, [r3, #12]
 177:Source\azure_iot_sdk\c-utility\src/gballoc.c **** 
 178:Source\azure_iot_sdk\c-utility\src/gballoc.c ****                 totalSize += allocation->size;
 400              		.loc 1 178 0
 401 0076 5A68     		ldr	r2, [r3, #4]
 402 0078 9446     		mov	ip, r2
 403 007a 6544     		add	r5, r5, ip
 404 007c 5D60     		str	r5, [r3, #4]
 179:Source\azure_iot_sdk\c-utility\src/gballoc.c ****                 /* Codes_SRS_GBALLOC_01_011: [The maximum total memory used shall be the maximum of
 180:Source\azure_iot_sdk\c-utility\src/gballoc.c ****                 if (maxSize < totalSize)
 405              		.loc 1 180 0
 406 007e 9B68     		ldr	r3, [r3, #8]
 407 0080 9D42     		cmp	r5, r3
 408 0082 03D9     		bls	.L25
 181:Source\azure_iot_sdk\c-utility\src/gballoc.c ****                 {
 182:Source\azure_iot_sdk\c-utility\src/gballoc.c ****                     maxSize = totalSize;
 409              		.loc 1 182 0
 410 0084 074B     		ldr	r3, .L29+4
 411 0086 9D60     		str	r5, [r3, #8]
 412 0088 00E0     		b	.L25
 413              	.LVL53:
 414              	.L28:
 158:Source\azure_iot_sdk\c-utility\src/gballoc.c ****         }
 415              		.loc 1 158 0
 416 008a 0024     		movs	r4, #0
 417              	.LVL54:
 418              	.L25:
 183:Source\azure_iot_sdk\c-utility\src/gballoc.c ****                 }
 184:Source\azure_iot_sdk\c-utility\src/gballoc.c ****             }
 185:Source\azure_iot_sdk\c-utility\src/gballoc.c ****         }
 186:Source\azure_iot_sdk\c-utility\src/gballoc.c **** 
 187:Source\azure_iot_sdk\c-utility\src/gballoc.c ****         (void)Unlock(gballocThreadSafeLock);
 419              		.loc 1 187 0
 420 008c 054B     		ldr	r3, .L29+4
 421 008e 1868     		ldr	r0, [r3]
 422 0090 FFF7FEFF 		bl	Unlock
 423              	.LVL55:
 424 0094 00E0     		b	.L23
 425              	.LVL56:
 426              	.L27:
 427              	.LBE5:
 151:Source\azure_iot_sdk\c-utility\src/gballoc.c ****     }
 428              		.loc 1 151 0
 429 0096 0024     		movs	r4, #0
 430              	.LVL57:
 431              	.L23:
 188:Source\azure_iot_sdk\c-utility\src/gballoc.c ****     }
 189:Source\azure_iot_sdk\c-utility\src/gballoc.c **** 
 190:Source\azure_iot_sdk\c-utility\src/gballoc.c ****     return result;
ARM GAS  C:\Users\Phuong\AppData\Local\Temp\ccxgFGK7.s 			page 12


 191:Source\azure_iot_sdk\c-utility\src/gballoc.c **** }
 432              		.loc 1 191 0
 433 0098 2000     		movs	r0, r4
 434 009a 03B0     		add	sp, sp, #12
 435              		@ sp needed
 436              	.LVL58:
 437              	.LVL59:
 438 009c F0BD     		pop	{r4, r5, r6, r7, pc}
 439              	.L30:
 440 009e C046     		.align	2
 441              	.L29:
 442 00a0 00000000 		.word	.LANCHOR0
 443 00a4 00000000 		.word	.LANCHOR1
 444 00a8 30000000 		.word	.LC9
 445 00ac 00000000 		.word	.LANCHOR2
 446 00b0 00000000 		.word	.LC7
 447              		.cfi_endproc
 448              	.LFE4:
 449              		.size	gballoc_calloc, .-gballoc_calloc
 450              		.section	.text.gballoc_realloc,"ax",%progbits
 451              		.align	2
 452              		.global	gballoc_realloc
 453              		.code	16
 454              		.thumb_func
 455              		.type	gballoc_realloc, %function
 456              	gballoc_realloc:
 457              	.LFB5:
 192:Source\azure_iot_sdk\c-utility\src/gballoc.c **** 
 193:Source\azure_iot_sdk\c-utility\src/gballoc.c **** void* gballoc_realloc(void* ptr, size_t size)
 194:Source\azure_iot_sdk\c-utility\src/gballoc.c **** {
 458              		.loc 1 194 0
 459              		.cfi_startproc
 460              		@ args = 0, pretend = 0, frame = 0
 461              		@ frame_needed = 0, uses_anonymous_args = 0
 462              	.LVL60:
 463 0000 F0B5     		push	{r4, r5, r6, r7, lr}
 464              		.cfi_def_cfa_offset 20
 465              		.cfi_offset 4, -20
 466              		.cfi_offset 5, -16
 467              		.cfi_offset 6, -12
 468              		.cfi_offset 7, -8
 469              		.cfi_offset 14, -4
 470 0002 83B0     		sub	sp, sp, #12
 471              		.cfi_def_cfa_offset 32
 472 0004 0500     		movs	r5, r0
 473 0006 0F00     		movs	r7, r1
 474              	.LVL61:
 195:Source\azure_iot_sdk\c-utility\src/gballoc.c ****     ALLOCATION* curr;
 196:Source\azure_iot_sdk\c-utility\src/gballoc.c ****     void* result;
 197:Source\azure_iot_sdk\c-utility\src/gballoc.c ****     ALLOCATION* allocation = NULL;
 198:Source\azure_iot_sdk\c-utility\src/gballoc.c **** 
 199:Source\azure_iot_sdk\c-utility\src/gballoc.c ****     if (gballocState != GBALLOC_STATE_INIT)
 475              		.loc 1 199 0
 476 0008 314B     		ldr	r3, .L45
 477 000a 1B78     		ldrb	r3, [r3]
 478 000c 002B     		cmp	r3, #0
 479 000e 03D0     		beq	.L32
ARM GAS  C:\Users\Phuong\AppData\Local\Temp\ccxgFGK7.s 			page 13


 200:Source\azure_iot_sdk\c-utility\src/gballoc.c ****     {
 201:Source\azure_iot_sdk\c-utility\src/gballoc.c ****         /* Codes_SRS_GBALLOC_01_041: [If gballoc was not initialized gballoc_realloc shall shall si
 202:Source\azure_iot_sdk\c-utility\src/gballoc.c ****         result = realloc(ptr, size);
 480              		.loc 1 202 0
 481 0010 FFF7FEFF 		bl	realloc
 482              	.LVL62:
 483 0014 0600     		movs	r6, r0
 484              	.LVL63:
 485 0016 58E0     		b	.L33
 486              	.LVL64:
 487              	.L32:
 203:Source\azure_iot_sdk\c-utility\src/gballoc.c ****     }
 204:Source\azure_iot_sdk\c-utility\src/gballoc.c ****     /* Codes_SRS_GBALLOC_01_032: [gballoc_realloc shall ensure thread safety by using the lock crea
 205:Source\azure_iot_sdk\c-utility\src/gballoc.c ****     else if (LOCK_OK != Lock(gballocThreadSafeLock))
 488              		.loc 1 205 0
 489 0018 2E4B     		ldr	r3, .L45+4
 490 001a 1868     		ldr	r0, [r3]
 491              	.LVL65:
 492 001c FFF7FEFF 		bl	Lock
 493              	.LVL66:
 494 0020 0028     		cmp	r0, #0
 495 0022 0FD0     		beq	.L34
 496              	.LBB6:
 206:Source\azure_iot_sdk\c-utility\src/gballoc.c ****     {
 207:Source\azure_iot_sdk\c-utility\src/gballoc.c ****         /* Codes_SRS_GBALLOC_01_047: [If acquiring the lock fails, gballoc_realloc shall return NUL
 208:Source\azure_iot_sdk\c-utility\src/gballoc.c ****         LogError("Failed to get the Lock.");
 497              		.loc 1 208 0 discriminator 3
 498 0024 FFF7FEFF 		bl	xlogging_get_log_function
 499              	.LVL67:
 500 0028 041E     		subs	r4, r0, #0
 501              	.LVL68:
 502 002a 4DD0     		beq	.L43
 503              		.loc 1 208 0 is_stmt 0 discriminator 4
 504 002c 2A4B     		ldr	r3, .L45+8
 505 002e 0193     		str	r3, [sp, #4]
 506 0030 0123     		movs	r3, #1
 507 0032 0093     		str	r3, [sp]
 508 0034 CF33     		adds	r3, r3, #207
 509 0036 294A     		ldr	r2, .L45+12
 510 0038 2032     		adds	r2, r2, #32
 511 003a 2949     		ldr	r1, .L45+16
 512 003c 0020     		movs	r0, #0
 513              	.LVL69:
 514 003e A047     		blx	r4
 515              	.LVL70:
 516              	.LBE6:
 209:Source\azure_iot_sdk\c-utility\src/gballoc.c ****         result = NULL;
 517              		.loc 1 209 0 is_stmt 1 discriminator 4
 518 0040 0026     		movs	r6, #0
 519 0042 42E0     		b	.L33
 520              	.LVL71:
 521              	.L34:
 210:Source\azure_iot_sdk\c-utility\src/gballoc.c ****     }
 211:Source\azure_iot_sdk\c-utility\src/gballoc.c ****     else
 212:Source\azure_iot_sdk\c-utility\src/gballoc.c ****     {
 213:Source\azure_iot_sdk\c-utility\src/gballoc.c ****         if (ptr == NULL)
 522              		.loc 1 213 0
ARM GAS  C:\Users\Phuong\AppData\Local\Temp\ccxgFGK7.s 			page 14


 523 0044 002D     		cmp	r5, #0
 524 0046 04D1     		bne	.L35
 214:Source\azure_iot_sdk\c-utility\src/gballoc.c ****         {
 215:Source\azure_iot_sdk\c-utility\src/gballoc.c ****             /* Codes_SRS_GBALLOC_01_017: [When ptr is NULL, gballoc_realloc shall call the underlyi
 216:Source\azure_iot_sdk\c-utility\src/gballoc.c ****             allocation = (ALLOCATION*)malloc(sizeof(ALLOCATION));
 525              		.loc 1 216 0
 526 0048 0C20     		movs	r0, #12
 527 004a FFF7FEFF 		bl	malloc
 528              	.LVL72:
 529 004e 0400     		movs	r4, r0
 530              	.LVL73:
 531 0050 08E0     		b	.L36
 532              	.LVL74:
 533              	.L35:
 217:Source\azure_iot_sdk\c-utility\src/gballoc.c ****         }
 218:Source\azure_iot_sdk\c-utility\src/gballoc.c ****         else
 219:Source\azure_iot_sdk\c-utility\src/gballoc.c ****         {
 220:Source\azure_iot_sdk\c-utility\src/gballoc.c ****             curr = head;
 534              		.loc 1 220 0
 535 0052 204B     		ldr	r3, .L45+4
 536 0054 1C69     		ldr	r4, [r3, #16]
 537              	.LVL75:
 221:Source\azure_iot_sdk\c-utility\src/gballoc.c ****             while (curr != NULL)
 538              		.loc 1 221 0
 539 0056 03E0     		b	.L37
 540              	.L38:
 222:Source\azure_iot_sdk\c-utility\src/gballoc.c ****             {
 223:Source\azure_iot_sdk\c-utility\src/gballoc.c ****                 if (curr->ptr == ptr)
 541              		.loc 1 223 0
 542 0058 6368     		ldr	r3, [r4, #4]
 543 005a 9D42     		cmp	r5, r3
 544 005c 02D0     		beq	.L36
 224:Source\azure_iot_sdk\c-utility\src/gballoc.c ****                 {
 225:Source\azure_iot_sdk\c-utility\src/gballoc.c ****                     allocation = curr;
 226:Source\azure_iot_sdk\c-utility\src/gballoc.c ****                     break;
 227:Source\azure_iot_sdk\c-utility\src/gballoc.c ****                 }
 228:Source\azure_iot_sdk\c-utility\src/gballoc.c ****                 else
 229:Source\azure_iot_sdk\c-utility\src/gballoc.c ****                 {
 230:Source\azure_iot_sdk\c-utility\src/gballoc.c ****                     curr = (ALLOCATION*)curr->next;
 545              		.loc 1 230 0
 546 005e A468     		ldr	r4, [r4, #8]
 547              	.LVL76:
 548              	.L37:
 221:Source\azure_iot_sdk\c-utility\src/gballoc.c ****             {
 549              		.loc 1 221 0
 550 0060 002C     		cmp	r4, #0
 551 0062 F9D1     		bne	.L38
 552              	.LVL77:
 553              	.L36:
 231:Source\azure_iot_sdk\c-utility\src/gballoc.c ****                 }
 232:Source\azure_iot_sdk\c-utility\src/gballoc.c ****             }
 233:Source\azure_iot_sdk\c-utility\src/gballoc.c ****         }
 234:Source\azure_iot_sdk\c-utility\src/gballoc.c **** 
 235:Source\azure_iot_sdk\c-utility\src/gballoc.c ****         if (allocation == NULL)
 554              		.loc 1 235 0
 555 0064 002C     		cmp	r4, #0
 556 0066 29D0     		beq	.L44
ARM GAS  C:\Users\Phuong\AppData\Local\Temp\ccxgFGK7.s 			page 15


 236:Source\azure_iot_sdk\c-utility\src/gballoc.c ****         {
 237:Source\azure_iot_sdk\c-utility\src/gballoc.c ****             /* Codes_SRS_GBALLOC_01_015: [When allocating memory used for tracking by gballoc_reall
 238:Source\azure_iot_sdk\c-utility\src/gballoc.c ****             /* Codes_SRS_GBALLOC_01_016: [When the ptr pointer cannot be found in the pointers trac
 239:Source\azure_iot_sdk\c-utility\src/gballoc.c ****             result = NULL;
 240:Source\azure_iot_sdk\c-utility\src/gballoc.c ****         }
 241:Source\azure_iot_sdk\c-utility\src/gballoc.c ****         else
 242:Source\azure_iot_sdk\c-utility\src/gballoc.c ****         {
 243:Source\azure_iot_sdk\c-utility\src/gballoc.c ****             result = realloc(ptr, size);
 557              		.loc 1 243 0
 558 0068 3900     		movs	r1, r7
 559 006a 2800     		movs	r0, r5
 560 006c FFF7FEFF 		bl	realloc
 561              	.LVL78:
 562 0070 061E     		subs	r6, r0, #0
 563              	.LVL79:
 244:Source\azure_iot_sdk\c-utility\src/gballoc.c ****             if (result == NULL)
 564              		.loc 1 244 0
 565 0072 05D1     		bne	.L40
 245:Source\azure_iot_sdk\c-utility\src/gballoc.c ****             {
 246:Source\azure_iot_sdk\c-utility\src/gballoc.c ****                 /* Codes_SRS_GBALLOC_01_014: [When the underlying realloc call fails, gballoc_reall
 247:Source\azure_iot_sdk\c-utility\src/gballoc.c ****                 if (ptr == NULL)
 566              		.loc 1 247 0
 567 0074 002D     		cmp	r5, #0
 568 0076 22D1     		bne	.L39
 248:Source\azure_iot_sdk\c-utility\src/gballoc.c ****                 {
 249:Source\azure_iot_sdk\c-utility\src/gballoc.c ****                     free(allocation);
 569              		.loc 1 249 0
 570 0078 2000     		movs	r0, r4
 571              	.LVL80:
 572 007a FFF7FEFF 		bl	free
 573              	.LVL81:
 574 007e 1EE0     		b	.L39
 575              	.LVL82:
 576              	.L40:
 250:Source\azure_iot_sdk\c-utility\src/gballoc.c ****                 }
 251:Source\azure_iot_sdk\c-utility\src/gballoc.c ****             }
 252:Source\azure_iot_sdk\c-utility\src/gballoc.c ****             else
 253:Source\azure_iot_sdk\c-utility\src/gballoc.c ****             {
 254:Source\azure_iot_sdk\c-utility\src/gballoc.c ****                 if (ptr != NULL)
 577              		.loc 1 254 0
 578 0080 002D     		cmp	r5, #0
 579 0082 07D0     		beq	.L41
 255:Source\azure_iot_sdk\c-utility\src/gballoc.c ****                 {
 256:Source\azure_iot_sdk\c-utility\src/gballoc.c ****                     /* Codes_SRS_GBALLOC_01_006: [If the underlying realloc call is successful, gba
 257:Source\azure_iot_sdk\c-utility\src/gballoc.c ****                     allocation->ptr = result;
 580              		.loc 1 257 0
 581 0084 6060     		str	r0, [r4, #4]
 258:Source\azure_iot_sdk\c-utility\src/gballoc.c ****                     totalSize -= allocation->size;
 582              		.loc 1 258 0
 583 0086 134A     		ldr	r2, .L45+4
 584 0088 5368     		ldr	r3, [r2, #4]
 585 008a 2168     		ldr	r1, [r4]
 586 008c 5B1A     		subs	r3, r3, r1
 587 008e 5360     		str	r3, [r2, #4]
 259:Source\azure_iot_sdk\c-utility\src/gballoc.c ****                     allocation->size = size;
 588              		.loc 1 259 0
 589 0090 2760     		str	r7, [r4]
ARM GAS  C:\Users\Phuong\AppData\Local\Temp\ccxgFGK7.s 			page 16


 590 0092 05E0     		b	.L42
 591              	.L41:
 260:Source\azure_iot_sdk\c-utility\src/gballoc.c ****                 }
 261:Source\azure_iot_sdk\c-utility\src/gballoc.c ****                 else
 262:Source\azure_iot_sdk\c-utility\src/gballoc.c ****                 {
 263:Source\azure_iot_sdk\c-utility\src/gballoc.c ****                     /* add block */
 264:Source\azure_iot_sdk\c-utility\src/gballoc.c ****                     allocation->ptr = result;
 592              		.loc 1 264 0
 593 0094 6060     		str	r0, [r4, #4]
 265:Source\azure_iot_sdk\c-utility\src/gballoc.c ****                     allocation->size = size;
 594              		.loc 1 265 0
 595 0096 2760     		str	r7, [r4]
 266:Source\azure_iot_sdk\c-utility\src/gballoc.c ****                     allocation->next = head;
 596              		.loc 1 266 0
 597 0098 0E4B     		ldr	r3, .L45+4
 598 009a 1A69     		ldr	r2, [r3, #16]
 599 009c A260     		str	r2, [r4, #8]
 267:Source\azure_iot_sdk\c-utility\src/gballoc.c ****                     head = allocation;
 600              		.loc 1 267 0
 601 009e 1C61     		str	r4, [r3, #16]
 602              	.L42:
 268:Source\azure_iot_sdk\c-utility\src/gballoc.c ****                 }
 269:Source\azure_iot_sdk\c-utility\src/gballoc.c **** 
 270:Source\azure_iot_sdk\c-utility\src/gballoc.c ****                 /* Codes_SRS_GBALLOC_01_007: [If realloc is successful, gballoc_realloc shall also 
 271:Source\azure_iot_sdk\c-utility\src/gballoc.c ****                 totalSize += size;
 603              		.loc 1 271 0
 604 00a0 0C4B     		ldr	r3, .L45+4
 605 00a2 5A68     		ldr	r2, [r3, #4]
 606 00a4 9446     		mov	ip, r2
 607 00a6 6744     		add	r7, r7, ip
 608              	.LVL83:
 609 00a8 5F60     		str	r7, [r3, #4]
 272:Source\azure_iot_sdk\c-utility\src/gballoc.c ****                 g_allocations++;
 610              		.loc 1 272 0
 611 00aa DA68     		ldr	r2, [r3, #12]
 612 00ac 0132     		adds	r2, r2, #1
 613 00ae DA60     		str	r2, [r3, #12]
 273:Source\azure_iot_sdk\c-utility\src/gballoc.c **** 
 274:Source\azure_iot_sdk\c-utility\src/gballoc.c ****                 /* Codes_SRS_GBALLOC_01_011: [The maximum total memory used shall be the maximum of
 275:Source\azure_iot_sdk\c-utility\src/gballoc.c ****                 if (maxSize < totalSize)
 614              		.loc 1 275 0
 615 00b0 9B68     		ldr	r3, [r3, #8]
 616 00b2 9F42     		cmp	r7, r3
 617 00b4 03D9     		bls	.L39
 276:Source\azure_iot_sdk\c-utility\src/gballoc.c ****                 {
 277:Source\azure_iot_sdk\c-utility\src/gballoc.c ****                     maxSize = totalSize;
 618              		.loc 1 277 0
 619 00b6 074B     		ldr	r3, .L45+4
 620 00b8 9F60     		str	r7, [r3, #8]
 621 00ba 00E0     		b	.L39
 622              	.LVL84:
 623              	.L44:
 239:Source\azure_iot_sdk\c-utility\src/gballoc.c ****         }
 624              		.loc 1 239 0
 625 00bc 0026     		movs	r6, #0
 626              	.LVL85:
 627              	.L39:
ARM GAS  C:\Users\Phuong\AppData\Local\Temp\ccxgFGK7.s 			page 17


 278:Source\azure_iot_sdk\c-utility\src/gballoc.c ****                 }
 279:Source\azure_iot_sdk\c-utility\src/gballoc.c ****             }
 280:Source\azure_iot_sdk\c-utility\src/gballoc.c ****         }
 281:Source\azure_iot_sdk\c-utility\src/gballoc.c **** 
 282:Source\azure_iot_sdk\c-utility\src/gballoc.c ****         (void)Unlock(gballocThreadSafeLock);
 628              		.loc 1 282 0
 629 00be 054B     		ldr	r3, .L45+4
 630 00c0 1868     		ldr	r0, [r3]
 631 00c2 FFF7FEFF 		bl	Unlock
 632              	.LVL86:
 633 00c6 00E0     		b	.L33
 634              	.LVL87:
 635              	.L43:
 209:Source\azure_iot_sdk\c-utility\src/gballoc.c ****     }
 636              		.loc 1 209 0
 637 00c8 0026     		movs	r6, #0
 638              	.LVL88:
 639              	.L33:
 283:Source\azure_iot_sdk\c-utility\src/gballoc.c ****     }
 284:Source\azure_iot_sdk\c-utility\src/gballoc.c **** 
 285:Source\azure_iot_sdk\c-utility\src/gballoc.c ****     return result;
 286:Source\azure_iot_sdk\c-utility\src/gballoc.c **** }
 640              		.loc 1 286 0
 641 00ca 3000     		movs	r0, r6
 642 00cc 03B0     		add	sp, sp, #12
 643              		@ sp needed
 644              	.LVL89:
 645              	.LVL90:
 646 00ce F0BD     		pop	{r4, r5, r6, r7, pc}
 647              	.L46:
 648              		.align	2
 649              	.L45:
 650 00d0 00000000 		.word	.LANCHOR0
 651 00d4 00000000 		.word	.LANCHOR1
 652 00d8 30000000 		.word	.LC9
 653 00dc 00000000 		.word	.LANCHOR2
 654 00e0 00000000 		.word	.LC7
 655              		.cfi_endproc
 656              	.LFE5:
 657              		.size	gballoc_realloc, .-gballoc_realloc
 658              		.section	.text.gballoc_free,"ax",%progbits
 659              		.align	2
 660              		.global	gballoc_free
 661              		.code	16
 662              		.thumb_func
 663              		.type	gballoc_free, %function
 664              	gballoc_free:
 665              	.LFB6:
 287:Source\azure_iot_sdk\c-utility\src/gballoc.c **** 
 288:Source\azure_iot_sdk\c-utility\src/gballoc.c **** void gballoc_free(void* ptr)
 289:Source\azure_iot_sdk\c-utility\src/gballoc.c **** {
 666              		.loc 1 289 0
 667              		.cfi_startproc
 668              		@ args = 0, pretend = 0, frame = 0
 669              		@ frame_needed = 0, uses_anonymous_args = 0
 670              	.LVL91:
 671 0000 70B5     		push	{r4, r5, r6, lr}
ARM GAS  C:\Users\Phuong\AppData\Local\Temp\ccxgFGK7.s 			page 18


 672              		.cfi_def_cfa_offset 16
 673              		.cfi_offset 4, -16
 674              		.cfi_offset 5, -12
 675              		.cfi_offset 6, -8
 676              		.cfi_offset 14, -4
 677 0002 84B0     		sub	sp, sp, #16
 678              		.cfi_def_cfa_offset 32
 679 0004 0500     		movs	r5, r0
 290:Source\azure_iot_sdk\c-utility\src/gballoc.c ****     ALLOCATION* curr = head;
 680              		.loc 1 290 0
 681 0006 2B4B     		ldr	r3, .L58
 682 0008 1C69     		ldr	r4, [r3, #16]
 683              	.LVL92:
 291:Source\azure_iot_sdk\c-utility\src/gballoc.c ****     ALLOCATION* prev = NULL;
 292:Source\azure_iot_sdk\c-utility\src/gballoc.c **** 
 293:Source\azure_iot_sdk\c-utility\src/gballoc.c ****     if (gballocState != GBALLOC_STATE_INIT)
 684              		.loc 1 293 0
 685 000a 2B4B     		ldr	r3, .L58+4
 686 000c 1B78     		ldrb	r3, [r3]
 687 000e 002B     		cmp	r3, #0
 688 0010 02D0     		beq	.L48
 294:Source\azure_iot_sdk\c-utility\src/gballoc.c ****     {
 295:Source\azure_iot_sdk\c-utility\src/gballoc.c ****         /* Codes_SRS_GBALLOC_01_042: [If gballoc was not initialized gballoc_free shall shall simpl
 296:Source\azure_iot_sdk\c-utility\src/gballoc.c ****         free(ptr);
 689              		.loc 1 296 0
 690 0012 FFF7FEFF 		bl	free
 691              	.LVL93:
 692 0016 4AE0     		b	.L47
 693              	.LVL94:
 694              	.L48:
 297:Source\azure_iot_sdk\c-utility\src/gballoc.c ****     }
 298:Source\azure_iot_sdk\c-utility\src/gballoc.c ****     /* Codes_SRS_GBALLOC_01_033: [gballoc_free shall ensure thread safety by using the lock created
 299:Source\azure_iot_sdk\c-utility\src/gballoc.c ****     else if (LOCK_OK != Lock(gballocThreadSafeLock))
 695              		.loc 1 299 0
 696 0018 264B     		ldr	r3, .L58
 697 001a 1868     		ldr	r0, [r3]
 698              	.LVL95:
 699 001c FFF7FEFF 		bl	Lock
 700              	.LVL96:
 701 0020 0028     		cmp	r0, #0
 702 0022 29D0     		beq	.L57
 703              	.LBB7:
 300:Source\azure_iot_sdk\c-utility\src/gballoc.c ****     {
 301:Source\azure_iot_sdk\c-utility\src/gballoc.c ****         /* Codes_SRS_GBALLOC_01_049: [If acquiring the lock fails, gballoc_free shall do nothing.] 
 302:Source\azure_iot_sdk\c-utility\src/gballoc.c ****         LogError("Failed to get the Lock.");
 704              		.loc 1 302 0 discriminator 3
 705 0024 FFF7FEFF 		bl	xlogging_get_log_function
 706              	.LVL97:
 707 0028 041E     		subs	r4, r0, #0
 708              	.LVL98:
 709 002a 40D0     		beq	.L47
 710              		.loc 1 302 0 is_stmt 0 discriminator 4
 711 002c 234B     		ldr	r3, .L58+8
 712 002e 0193     		str	r3, [sp, #4]
 713 0030 0123     		movs	r3, #1
 714 0032 0093     		str	r3, [sp]
 715 0034 2E33     		adds	r3, r3, #46
ARM GAS  C:\Users\Phuong\AppData\Local\Temp\ccxgFGK7.s 			page 19


 716 0036 FF33     		adds	r3, r3, #255
 717 0038 214A     		ldr	r2, .L58+12
 718 003a 3032     		adds	r2, r2, #48
 719 003c 2149     		ldr	r1, .L58+16
 720 003e 0020     		movs	r0, #0
 721              	.LVL99:
 722 0040 A047     		blx	r4
 723              	.LVL100:
 724 0042 34E0     		b	.L47
 725              	.LVL101:
 726              	.L55:
 727              	.LBE7:
 303:Source\azure_iot_sdk\c-utility\src/gballoc.c ****     }
 304:Source\azure_iot_sdk\c-utility\src/gballoc.c ****     else
 305:Source\azure_iot_sdk\c-utility\src/gballoc.c ****     {
 306:Source\azure_iot_sdk\c-utility\src/gballoc.c ****         /* Codes_SRS_GBALLOC_01_009: [gballoc_free shall also look up the size associated with the 
 307:Source\azure_iot_sdk\c-utility\src/gballoc.c ****         while (curr != NULL)
 308:Source\azure_iot_sdk\c-utility\src/gballoc.c ****         {
 309:Source\azure_iot_sdk\c-utility\src/gballoc.c ****             if (curr->ptr == ptr)
 728              		.loc 1 309 0 is_stmt 1
 729 0044 6368     		ldr	r3, [r4, #4]
 730 0046 9D42     		cmp	r5, r3
 731 0048 13D1     		bne	.L51
 310:Source\azure_iot_sdk\c-utility\src/gballoc.c ****             {
 311:Source\azure_iot_sdk\c-utility\src/gballoc.c ****                 /* Codes_SRS_GBALLOC_01_008: [gballoc_free shall call the C99 free function.] */
 312:Source\azure_iot_sdk\c-utility\src/gballoc.c ****                 free(ptr);
 732              		.loc 1 312 0
 733 004a 2800     		movs	r0, r5
 734 004c FFF7FEFF 		bl	free
 735              	.LVL102:
 313:Source\azure_iot_sdk\c-utility\src/gballoc.c ****                 totalSize -= curr->size;
 736              		.loc 1 313 0
 737 0050 184A     		ldr	r2, .L58
 738 0052 5368     		ldr	r3, [r2, #4]
 739 0054 2168     		ldr	r1, [r4]
 740 0056 5B1A     		subs	r3, r3, r1
 741 0058 5360     		str	r3, [r2, #4]
 314:Source\azure_iot_sdk\c-utility\src/gballoc.c ****                 if (prev != NULL)
 742              		.loc 1 314 0
 743 005a 002E     		cmp	r6, #0
 744 005c 02D0     		beq	.L52
 315:Source\azure_iot_sdk\c-utility\src/gballoc.c ****                 {
 316:Source\azure_iot_sdk\c-utility\src/gballoc.c ****                     prev->next = curr->next;
 745              		.loc 1 316 0
 746 005e A368     		ldr	r3, [r4, #8]
 747 0060 B360     		str	r3, [r6, #8]
 748 0062 02E0     		b	.L53
 749              	.L52:
 317:Source\azure_iot_sdk\c-utility\src/gballoc.c ****                 }
 318:Source\azure_iot_sdk\c-utility\src/gballoc.c ****                 else
 319:Source\azure_iot_sdk\c-utility\src/gballoc.c ****                 {
 320:Source\azure_iot_sdk\c-utility\src/gballoc.c ****                     head = (ALLOCATION*)curr->next;
 750              		.loc 1 320 0
 751 0064 134B     		ldr	r3, .L58
 752 0066 A268     		ldr	r2, [r4, #8]
 753 0068 1A61     		str	r2, [r3, #16]
 754              	.L53:
ARM GAS  C:\Users\Phuong\AppData\Local\Temp\ccxgFGK7.s 			page 20


 321:Source\azure_iot_sdk\c-utility\src/gballoc.c ****                 }
 322:Source\azure_iot_sdk\c-utility\src/gballoc.c **** 
 323:Source\azure_iot_sdk\c-utility\src/gballoc.c ****                 free(curr);
 755              		.loc 1 323 0
 756 006a 2000     		movs	r0, r4
 757 006c FFF7FEFF 		bl	free
 758              	.LVL103:
 324:Source\azure_iot_sdk\c-utility\src/gballoc.c ****                 break;
 759              		.loc 1 324 0
 760 0070 05E0     		b	.L54
 761              	.L51:
 762              	.LVL104:
 325:Source\azure_iot_sdk\c-utility\src/gballoc.c ****             }
 326:Source\azure_iot_sdk\c-utility\src/gballoc.c **** 
 327:Source\azure_iot_sdk\c-utility\src/gballoc.c ****             prev = curr;
 763              		.loc 1 327 0
 764 0072 2600     		movs	r6, r4
 328:Source\azure_iot_sdk\c-utility\src/gballoc.c ****             curr = (ALLOCATION*)curr->next;
 765              		.loc 1 328 0
 766 0074 A468     		ldr	r4, [r4, #8]
 767              	.LVL105:
 768 0076 00E0     		b	.L50
 769              	.LVL106:
 770              	.L57:
 771 0078 0026     		movs	r6, #0
 772              	.LVL107:
 773              	.L50:
 307:Source\azure_iot_sdk\c-utility\src/gballoc.c ****         {
 774              		.loc 1 307 0
 775 007a 002C     		cmp	r4, #0
 776 007c E2D1     		bne	.L55
 777              	.L54:
 329:Source\azure_iot_sdk\c-utility\src/gballoc.c ****         }
 330:Source\azure_iot_sdk\c-utility\src/gballoc.c **** 
 331:Source\azure_iot_sdk\c-utility\src/gballoc.c ****         if ((curr == NULL) && (ptr != NULL))
 778              		.loc 1 331 0
 779 007e 002C     		cmp	r4, #0
 780 0080 11D1     		bne	.L56
 781              		.loc 1 331 0 is_stmt 0 discriminator 1
 782 0082 002D     		cmp	r5, #0
 783 0084 0FD0     		beq	.L56
 784              	.LBB8:
 332:Source\azure_iot_sdk\c-utility\src/gballoc.c ****         {
 333:Source\azure_iot_sdk\c-utility\src/gballoc.c ****             /* Codes_SRS_GBALLOC_01_019: [When the ptr pointer cannot be found in the pointers trac
 334:Source\azure_iot_sdk\c-utility\src/gballoc.c **** 
 335:Source\azure_iot_sdk\c-utility\src/gballoc.c ****             /* could not find the allocation */
 336:Source\azure_iot_sdk\c-utility\src/gballoc.c ****             LogError("Could not free allocation for address %p (not found)", ptr);
 785              		.loc 1 336 0 is_stmt 1 discriminator 3
 786 0086 FFF7FEFF 		bl	xlogging_get_log_function
 787              	.LVL108:
 788 008a 041E     		subs	r4, r0, #0
 789              	.LVL109:
 790 008c 0BD0     		beq	.L56
 791              		.loc 1 336 0 is_stmt 0 discriminator 4
 792 008e 0295     		str	r5, [sp, #8]
 793 0090 0D4B     		ldr	r3, .L58+20
 794 0092 0193     		str	r3, [sp, #4]
ARM GAS  C:\Users\Phuong\AppData\Local\Temp\ccxgFGK7.s 			page 21


 795 0094 0123     		movs	r3, #1
 796 0096 0093     		str	r3, [sp]
 797 0098 5033     		adds	r3, r3, #80
 798 009a FF33     		adds	r3, r3, #255
 799 009c 084A     		ldr	r2, .L58+12
 800 009e 3032     		adds	r2, r2, #48
 801 00a0 0849     		ldr	r1, .L58+16
 802 00a2 0020     		movs	r0, #0
 803              	.LVL110:
 804 00a4 A047     		blx	r4
 805              	.LVL111:
 806              	.L56:
 807              	.LBE8:
 337:Source\azure_iot_sdk\c-utility\src/gballoc.c ****         }
 338:Source\azure_iot_sdk\c-utility\src/gballoc.c ****         (void)Unlock(gballocThreadSafeLock);
 808              		.loc 1 338 0 is_stmt 1
 809 00a6 034B     		ldr	r3, .L58
 810 00a8 1868     		ldr	r0, [r3]
 811 00aa FFF7FEFF 		bl	Unlock
 812              	.LVL112:
 813              	.L47:
 339:Source\azure_iot_sdk\c-utility\src/gballoc.c ****     }
 340:Source\azure_iot_sdk\c-utility\src/gballoc.c **** }
 814              		.loc 1 340 0
 815 00ae 04B0     		add	sp, sp, #16
 816              		@ sp needed
 817              	.LVL113:
 818 00b0 70BD     		pop	{r4, r5, r6, pc}
 819              	.L59:
 820 00b2 C046     		.align	2
 821              	.L58:
 822 00b4 00000000 		.word	.LANCHOR1
 823 00b8 00000000 		.word	.LANCHOR0
 824 00bc 30000000 		.word	.LC9
 825 00c0 00000000 		.word	.LANCHOR2
 826 00c4 00000000 		.word	.LC7
 827 00c8 48000000 		.word	.LC26
 828              		.cfi_endproc
 829              	.LFE6:
 830              		.size	gballoc_free, .-gballoc_free
 831              		.section	.text.gballoc_getMaximumMemoryUsed,"ax",%progbits
 832              		.align	2
 833              		.global	gballoc_getMaximumMemoryUsed
 834              		.code	16
 835              		.thumb_func
 836              		.type	gballoc_getMaximumMemoryUsed, %function
 837              	gballoc_getMaximumMemoryUsed:
 838              	.LFB7:
 341:Source\azure_iot_sdk\c-utility\src/gballoc.c **** 
 342:Source\azure_iot_sdk\c-utility\src/gballoc.c **** size_t gballoc_getMaximumMemoryUsed(void)
 343:Source\azure_iot_sdk\c-utility\src/gballoc.c **** {
 839              		.loc 1 343 0
 840              		.cfi_startproc
 841              		@ args = 0, pretend = 0, frame = 0
 842              		@ frame_needed = 0, uses_anonymous_args = 0
 843 0000 10B5     		push	{r4, lr}
 844              		.cfi_def_cfa_offset 8
ARM GAS  C:\Users\Phuong\AppData\Local\Temp\ccxgFGK7.s 			page 22


 845              		.cfi_offset 4, -8
 846              		.cfi_offset 14, -4
 847 0002 82B0     		sub	sp, sp, #8
 848              		.cfi_def_cfa_offset 16
 344:Source\azure_iot_sdk\c-utility\src/gballoc.c ****     size_t result;
 345:Source\azure_iot_sdk\c-utility\src/gballoc.c **** 
 346:Source\azure_iot_sdk\c-utility\src/gballoc.c ****     /* Codes_SRS_GBALLOC_01_038: [If gballoc was not initialized gballoc_getMaximumMemoryUsed shall
 347:Source\azure_iot_sdk\c-utility\src/gballoc.c ****     if (gballocState != GBALLOC_STATE_INIT)
 849              		.loc 1 347 0
 850 0004 1D4B     		ldr	r3, .L66
 851 0006 1B78     		ldrb	r3, [r3]
 852 0008 002B     		cmp	r3, #0
 853 000a 11D0     		beq	.L61
 854              	.LBB9:
 348:Source\azure_iot_sdk\c-utility\src/gballoc.c ****     {
 349:Source\azure_iot_sdk\c-utility\src/gballoc.c ****         LogError("gballoc is not initialized.");
 855              		.loc 1 349 0 discriminator 3
 856 000c FFF7FEFF 		bl	xlogging_get_log_function
 857              	.LVL114:
 858 0010 041E     		subs	r4, r0, #0
 859              	.LVL115:
 860 0012 2BD0     		beq	.L64
 861              		.loc 1 349 0 is_stmt 0 discriminator 4
 862 0014 1A4B     		ldr	r3, .L66+4
 863 0016 0193     		str	r3, [sp, #4]
 864 0018 0123     		movs	r3, #1
 865 001a 0093     		str	r3, [sp]
 866 001c 5E23     		movs	r3, #94
 867 001e FF33     		adds	r3, r3, #255
 868 0020 184A     		ldr	r2, .L66+8
 869 0022 4032     		adds	r2, r2, #64
 870 0024 1849     		ldr	r1, .L66+12
 871 0026 0020     		movs	r0, #0
 872              	.LVL116:
 873 0028 A047     		blx	r4
 874              	.LVL117:
 875              	.LBE9:
 350:Source\azure_iot_sdk\c-utility\src/gballoc.c ****         result = SIZE_MAX;
 876              		.loc 1 350 0 is_stmt 1 discriminator 4
 877 002a 0124     		movs	r4, #1
 878              	.LVL118:
 879 002c 6442     		rsbs	r4, r4, #0
 880 002e 22E0     		b	.L62
 881              	.L61:
 351:Source\azure_iot_sdk\c-utility\src/gballoc.c ****     }
 352:Source\azure_iot_sdk\c-utility\src/gballoc.c ****     /* Codes_SRS_GBALLOC_01_034: [gballoc_getMaximumMemoryUsed shall ensure thread safety by using 
 353:Source\azure_iot_sdk\c-utility\src/gballoc.c ****     else if (LOCK_OK != Lock(gballocThreadSafeLock))
 882              		.loc 1 353 0
 883 0030 164B     		ldr	r3, .L66+16
 884 0032 1868     		ldr	r0, [r3]
 885 0034 FFF7FEFF 		bl	Lock
 886              	.LVL119:
 887 0038 0028     		cmp	r0, #0
 888 003a 11D0     		beq	.L63
 889              	.LBB10:
 354:Source\azure_iot_sdk\c-utility\src/gballoc.c ****     {
 355:Source\azure_iot_sdk\c-utility\src/gballoc.c ****         /* Codes_SRS_GBALLOC_01_050: [If the lock cannot be acquired, gballoc_getMaximumMemoryUsed 
ARM GAS  C:\Users\Phuong\AppData\Local\Temp\ccxgFGK7.s 			page 23


 356:Source\azure_iot_sdk\c-utility\src/gballoc.c ****         LogError("Failed to get the Lock.");
 890              		.loc 1 356 0 discriminator 3
 891 003c FFF7FEFF 		bl	xlogging_get_log_function
 892              	.LVL120:
 893 0040 041E     		subs	r4, r0, #0
 894              	.LVL121:
 895 0042 16D0     		beq	.L65
 896              		.loc 1 356 0 is_stmt 0 discriminator 4
 897 0044 124B     		ldr	r3, .L66+20
 898 0046 0193     		str	r3, [sp, #4]
 899 0048 0123     		movs	r3, #1
 900 004a 0093     		str	r3, [sp]
 901 004c 6433     		adds	r3, r3, #100
 902 004e FF33     		adds	r3, r3, #255
 903 0050 0C4A     		ldr	r2, .L66+8
 904 0052 4032     		adds	r2, r2, #64
 905 0054 0C49     		ldr	r1, .L66+12
 906 0056 0020     		movs	r0, #0
 907              	.LVL122:
 908 0058 A047     		blx	r4
 909              	.LVL123:
 910              	.LBE10:
 357:Source\azure_iot_sdk\c-utility\src/gballoc.c ****         result = SIZE_MAX;
 911              		.loc 1 357 0 is_stmt 1 discriminator 4
 912 005a 0124     		movs	r4, #1
 913              	.LVL124:
 914 005c 6442     		rsbs	r4, r4, #0
 915 005e 0AE0     		b	.L62
 916              	.L63:
 358:Source\azure_iot_sdk\c-utility\src/gballoc.c ****     }
 359:Source\azure_iot_sdk\c-utility\src/gballoc.c ****     else
 360:Source\azure_iot_sdk\c-utility\src/gballoc.c ****     {
 361:Source\azure_iot_sdk\c-utility\src/gballoc.c ****         /* Codes_SRS_GBALLOC_01_010: [gballoc_getMaximumMemoryUsed shall return the maximum amount 
 362:Source\azure_iot_sdk\c-utility\src/gballoc.c ****         result = maxSize;
 917              		.loc 1 362 0
 918 0060 0A4B     		ldr	r3, .L66+16
 919 0062 9C68     		ldr	r4, [r3, #8]
 920              	.LVL125:
 363:Source\azure_iot_sdk\c-utility\src/gballoc.c ****         (void)Unlock(gballocThreadSafeLock);
 921              		.loc 1 363 0
 922 0064 1868     		ldr	r0, [r3]
 923 0066 FFF7FEFF 		bl	Unlock
 924              	.LVL126:
 925 006a 04E0     		b	.L62
 926              	.LVL127:
 927              	.L64:
 350:Source\azure_iot_sdk\c-utility\src/gballoc.c ****     }
 928              		.loc 1 350 0
 929 006c 0124     		movs	r4, #1
 930 006e 6442     		rsbs	r4, r4, #0
 931 0070 01E0     		b	.L62
 932              	.LVL128:
 933              	.L65:
 357:Source\azure_iot_sdk\c-utility\src/gballoc.c ****     }
 934              		.loc 1 357 0
 935 0072 0124     		movs	r4, #1
 936 0074 6442     		rsbs	r4, r4, #0
ARM GAS  C:\Users\Phuong\AppData\Local\Temp\ccxgFGK7.s 			page 24


 937              	.LVL129:
 938              	.L62:
 364:Source\azure_iot_sdk\c-utility\src/gballoc.c ****     }
 365:Source\azure_iot_sdk\c-utility\src/gballoc.c **** 
 366:Source\azure_iot_sdk\c-utility\src/gballoc.c ****     return result;
 367:Source\azure_iot_sdk\c-utility\src/gballoc.c **** }
 939              		.loc 1 367 0
 940 0076 2000     		movs	r0, r4
 941 0078 02B0     		add	sp, sp, #8
 942              		@ sp needed
 943              	.LVL130:
 944 007a 10BD     		pop	{r4, pc}
 945              	.L67:
 946              		.align	2
 947              	.L66:
 948 007c 00000000 		.word	.LANCHOR0
 949 0080 80000000 		.word	.LC31
 950 0084 00000000 		.word	.LANCHOR2
 951 0088 00000000 		.word	.LC7
 952 008c 00000000 		.word	.LANCHOR1
 953 0090 30000000 		.word	.LC9
 954              		.cfi_endproc
 955              	.LFE7:
 956              		.size	gballoc_getMaximumMemoryUsed, .-gballoc_getMaximumMemoryUsed
 957              		.section	.text.gballoc_getCurrentMemoryUsed,"ax",%progbits
 958              		.align	2
 959              		.global	gballoc_getCurrentMemoryUsed
 960              		.code	16
 961              		.thumb_func
 962              		.type	gballoc_getCurrentMemoryUsed, %function
 963              	gballoc_getCurrentMemoryUsed:
 964              	.LFB8:
 368:Source\azure_iot_sdk\c-utility\src/gballoc.c **** 
 369:Source\azure_iot_sdk\c-utility\src/gballoc.c **** size_t gballoc_getCurrentMemoryUsed(void)
 370:Source\azure_iot_sdk\c-utility\src/gballoc.c **** {
 965              		.loc 1 370 0
 966              		.cfi_startproc
 967              		@ args = 0, pretend = 0, frame = 0
 968              		@ frame_needed = 0, uses_anonymous_args = 0
 969 0000 10B5     		push	{r4, lr}
 970              		.cfi_def_cfa_offset 8
 971              		.cfi_offset 4, -8
 972              		.cfi_offset 14, -4
 973 0002 82B0     		sub	sp, sp, #8
 974              		.cfi_def_cfa_offset 16
 371:Source\azure_iot_sdk\c-utility\src/gballoc.c ****     size_t result;
 372:Source\azure_iot_sdk\c-utility\src/gballoc.c **** 
 373:Source\azure_iot_sdk\c-utility\src/gballoc.c ****     /* Codes_SRS_GBALLOC_01_044: [If gballoc was not initialized gballoc_getCurrentMemoryUsed shall
 374:Source\azure_iot_sdk\c-utility\src/gballoc.c ****     if (gballocState != GBALLOC_STATE_INIT)
 975              		.loc 1 374 0
 976 0004 1D4B     		ldr	r3, .L74
 977 0006 1B78     		ldrb	r3, [r3]
 978 0008 002B     		cmp	r3, #0
 979 000a 11D0     		beq	.L69
 980              	.LBB11:
 375:Source\azure_iot_sdk\c-utility\src/gballoc.c ****     {
 376:Source\azure_iot_sdk\c-utility\src/gballoc.c ****         LogError("gballoc is not initialized.");
ARM GAS  C:\Users\Phuong\AppData\Local\Temp\ccxgFGK7.s 			page 25


 981              		.loc 1 376 0 discriminator 3
 982 000c FFF7FEFF 		bl	xlogging_get_log_function
 983              	.LVL131:
 984 0010 041E     		subs	r4, r0, #0
 985              	.LVL132:
 986 0012 2BD0     		beq	.L72
 987              		.loc 1 376 0 is_stmt 0 discriminator 4
 988 0014 1A4B     		ldr	r3, .L74+4
 989 0016 0193     		str	r3, [sp, #4]
 990 0018 0123     		movs	r3, #1
 991 001a 0093     		str	r3, [sp]
 992 001c 7833     		adds	r3, r3, #120
 993 001e FF33     		adds	r3, r3, #255
 994 0020 184A     		ldr	r2, .L74+8
 995 0022 6032     		adds	r2, r2, #96
 996 0024 1849     		ldr	r1, .L74+12
 997 0026 0020     		movs	r0, #0
 998              	.LVL133:
 999 0028 A047     		blx	r4
 1000              	.LVL134:
 1001              	.LBE11:
 377:Source\azure_iot_sdk\c-utility\src/gballoc.c ****         result = SIZE_MAX;
 1002              		.loc 1 377 0 is_stmt 1 discriminator 4
 1003 002a 0124     		movs	r4, #1
 1004              	.LVL135:
 1005 002c 6442     		rsbs	r4, r4, #0
 1006 002e 22E0     		b	.L70
 1007              	.L69:
 378:Source\azure_iot_sdk\c-utility\src/gballoc.c ****     }
 379:Source\azure_iot_sdk\c-utility\src/gballoc.c ****     /* Codes_SRS_GBALLOC_01_036: [gballoc_getCurrentMemoryUsed shall ensure thread safety by using 
 380:Source\azure_iot_sdk\c-utility\src/gballoc.c ****     else if (LOCK_OK != Lock(gballocThreadSafeLock))
 1008              		.loc 1 380 0
 1009 0030 164B     		ldr	r3, .L74+16
 1010 0032 1868     		ldr	r0, [r3]
 1011 0034 FFF7FEFF 		bl	Lock
 1012              	.LVL136:
 1013 0038 0028     		cmp	r0, #0
 1014 003a 11D0     		beq	.L71
 1015              	.LBB12:
 381:Source\azure_iot_sdk\c-utility\src/gballoc.c ****     {
 382:Source\azure_iot_sdk\c-utility\src/gballoc.c ****         /* Codes_SRS_GBALLOC_01_051: [If the lock cannot be acquired, gballoc_getCurrentMemoryUsed 
 383:Source\azure_iot_sdk\c-utility\src/gballoc.c ****         LogError("Failed to get the Lock.");
 1016              		.loc 1 383 0 discriminator 3
 1017 003c FFF7FEFF 		bl	xlogging_get_log_function
 1018              	.LVL137:
 1019 0040 041E     		subs	r4, r0, #0
 1020              	.LVL138:
 1021 0042 16D0     		beq	.L73
 1022              		.loc 1 383 0 is_stmt 0 discriminator 4
 1023 0044 124B     		ldr	r3, .L74+20
 1024 0046 0193     		str	r3, [sp, #4]
 1025 0048 0123     		movs	r3, #1
 1026 004a 0093     		str	r3, [sp]
 1027 004c 8023     		movs	r3, #128
 1028 004e FF33     		adds	r3, r3, #255
 1029 0050 0C4A     		ldr	r2, .L74+8
 1030 0052 6032     		adds	r2, r2, #96
ARM GAS  C:\Users\Phuong\AppData\Local\Temp\ccxgFGK7.s 			page 26


 1031 0054 0C49     		ldr	r1, .L74+12
 1032 0056 0020     		movs	r0, #0
 1033              	.LVL139:
 1034 0058 A047     		blx	r4
 1035              	.LVL140:
 1036              	.LBE12:
 384:Source\azure_iot_sdk\c-utility\src/gballoc.c ****         result = SIZE_MAX;
 1037              		.loc 1 384 0 is_stmt 1 discriminator 4
 1038 005a 0124     		movs	r4, #1
 1039              	.LVL141:
 1040 005c 6442     		rsbs	r4, r4, #0
 1041 005e 0AE0     		b	.L70
 1042              	.L71:
 385:Source\azure_iot_sdk\c-utility\src/gballoc.c ****     }
 386:Source\azure_iot_sdk\c-utility\src/gballoc.c ****     else
 387:Source\azure_iot_sdk\c-utility\src/gballoc.c ****     {
 388:Source\azure_iot_sdk\c-utility\src/gballoc.c ****         /*Codes_SRS_GBALLOC_02_001: [gballoc_getCurrentMemoryUsed shall return the currently used m
 389:Source\azure_iot_sdk\c-utility\src/gballoc.c ****         result = totalSize;
 1043              		.loc 1 389 0
 1044 0060 0A4B     		ldr	r3, .L74+16
 1045 0062 5C68     		ldr	r4, [r3, #4]
 1046              	.LVL142:
 390:Source\azure_iot_sdk\c-utility\src/gballoc.c ****         (void)Unlock(gballocThreadSafeLock);
 1047              		.loc 1 390 0
 1048 0064 1868     		ldr	r0, [r3]
 1049 0066 FFF7FEFF 		bl	Unlock
 1050              	.LVL143:
 1051 006a 04E0     		b	.L70
 1052              	.LVL144:
 1053              	.L72:
 377:Source\azure_iot_sdk\c-utility\src/gballoc.c ****     }
 1054              		.loc 1 377 0
 1055 006c 0124     		movs	r4, #1
 1056 006e 6442     		rsbs	r4, r4, #0
 1057 0070 01E0     		b	.L70
 1058              	.LVL145:
 1059              	.L73:
 384:Source\azure_iot_sdk\c-utility\src/gballoc.c ****     }
 1060              		.loc 1 384 0
 1061 0072 0124     		movs	r4, #1
 1062 0074 6442     		rsbs	r4, r4, #0
 1063              	.LVL146:
 1064              	.L70:
 391:Source\azure_iot_sdk\c-utility\src/gballoc.c ****     }
 392:Source\azure_iot_sdk\c-utility\src/gballoc.c **** 
 393:Source\azure_iot_sdk\c-utility\src/gballoc.c ****     return result;
 394:Source\azure_iot_sdk\c-utility\src/gballoc.c **** }
 1065              		.loc 1 394 0
 1066 0076 2000     		movs	r0, r4
 1067 0078 02B0     		add	sp, sp, #8
 1068              		@ sp needed
 1069              	.LVL147:
 1070 007a 10BD     		pop	{r4, pc}
 1071              	.L75:
 1072              		.align	2
 1073              	.L74:
 1074 007c 00000000 		.word	.LANCHOR0
ARM GAS  C:\Users\Phuong\AppData\Local\Temp\ccxgFGK7.s 			page 27


 1075 0080 80000000 		.word	.LC31
 1076 0084 00000000 		.word	.LANCHOR2
 1077 0088 00000000 		.word	.LC7
 1078 008c 00000000 		.word	.LANCHOR1
 1079 0090 30000000 		.word	.LC9
 1080              		.cfi_endproc
 1081              	.LFE8:
 1082              		.size	gballoc_getCurrentMemoryUsed, .-gballoc_getCurrentMemoryUsed
 1083              		.section	.text.gballoc_getAllocationCount,"ax",%progbits
 1084              		.align	2
 1085              		.global	gballoc_getAllocationCount
 1086              		.code	16
 1087              		.thumb_func
 1088              		.type	gballoc_getAllocationCount, %function
 1089              	gballoc_getAllocationCount:
 1090              	.LFB9:
 395:Source\azure_iot_sdk\c-utility\src/gballoc.c **** 
 396:Source\azure_iot_sdk\c-utility\src/gballoc.c **** size_t gballoc_getAllocationCount(void)
 397:Source\azure_iot_sdk\c-utility\src/gballoc.c **** {
 1091              		.loc 1 397 0
 1092              		.cfi_startproc
 1093              		@ args = 0, pretend = 0, frame = 0
 1094              		@ frame_needed = 0, uses_anonymous_args = 0
 1095 0000 10B5     		push	{r4, lr}
 1096              		.cfi_def_cfa_offset 8
 1097              		.cfi_offset 4, -8
 1098              		.cfi_offset 14, -4
 1099 0002 82B0     		sub	sp, sp, #8
 1100              		.cfi_def_cfa_offset 16
 398:Source\azure_iot_sdk\c-utility\src/gballoc.c ****     size_t result;
 399:Source\azure_iot_sdk\c-utility\src/gballoc.c **** 
 400:Source\azure_iot_sdk\c-utility\src/gballoc.c ****     /* Codes_SRS_GBALLOC_07_001: [ If gballoc was not initialized gballoc_getAllocationCount shall 
 401:Source\azure_iot_sdk\c-utility\src/gballoc.c ****     if (gballocState != GBALLOC_STATE_INIT)
 1101              		.loc 1 401 0
 1102 0004 1A4B     		ldr	r3, .L82
 1103 0006 1B78     		ldrb	r3, [r3]
 1104 0008 002B     		cmp	r3, #0
 1105 000a 0FD0     		beq	.L77
 1106              	.LBB13:
 402:Source\azure_iot_sdk\c-utility\src/gballoc.c ****     {
 403:Source\azure_iot_sdk\c-utility\src/gballoc.c ****         LogError("gballoc is not initialized.");
 1107              		.loc 1 403 0 discriminator 3
 1108 000c FFF7FEFF 		bl	xlogging_get_log_function
 1109              	.LVL148:
 1110 0010 041E     		subs	r4, r0, #0
 1111              	.LVL149:
 1112 0012 27D0     		beq	.L80
 1113              		.loc 1 403 0 is_stmt 0 discriminator 4
 1114 0014 174B     		ldr	r3, .L82+4
 1115 0016 0193     		str	r3, [sp, #4]
 1116 0018 0123     		movs	r3, #1
 1117 001a 0093     		str	r3, [sp]
 1118 001c 9423     		movs	r3, #148
 1119 001e FF33     		adds	r3, r3, #255
 1120 0020 154A     		ldr	r2, .L82+8
 1121 0022 1649     		ldr	r1, .L82+12
 1122 0024 0020     		movs	r0, #0
ARM GAS  C:\Users\Phuong\AppData\Local\Temp\ccxgFGK7.s 			page 28


 1123              	.LVL150:
 1124 0026 A047     		blx	r4
 1125              	.LVL151:
 1126              	.LBE13:
 404:Source\azure_iot_sdk\c-utility\src/gballoc.c ****         result = 0;
 1127              		.loc 1 404 0 is_stmt 1 discriminator 4
 1128 0028 0024     		movs	r4, #0
 1129              	.LVL152:
 1130 002a 1EE0     		b	.L78
 1131              	.L77:
 405:Source\azure_iot_sdk\c-utility\src/gballoc.c ****     }
 406:Source\azure_iot_sdk\c-utility\src/gballoc.c ****     /* Codes_SRS_GBALLOC_07_002: [ gballoc_getAllocationCount shall ensure thread safety by using t
 407:Source\azure_iot_sdk\c-utility\src/gballoc.c ****     else if (LOCK_OK != Lock(gballocThreadSafeLock))
 1132              		.loc 1 407 0
 1133 002c 144B     		ldr	r3, .L82+16
 1134 002e 1868     		ldr	r0, [r3]
 1135 0030 FFF7FEFF 		bl	Lock
 1136              	.LVL153:
 1137 0034 0028     		cmp	r0, #0
 1138 0036 0FD0     		beq	.L79
 1139              	.LBB14:
 408:Source\azure_iot_sdk\c-utility\src/gballoc.c ****     {
 409:Source\azure_iot_sdk\c-utility\src/gballoc.c ****         /* Codes_SRS_GBALLOC_07_003: [ If the lock cannot be acquired, gballoc_getAllocationCount s
 410:Source\azure_iot_sdk\c-utility\src/gballoc.c ****         LogError("Failed to get the Lock.");
 1140              		.loc 1 410 0 discriminator 3
 1141 0038 FFF7FEFF 		bl	xlogging_get_log_function
 1142              	.LVL154:
 1143 003c 041E     		subs	r4, r0, #0
 1144              	.LVL155:
 1145 003e 13D0     		beq	.L81
 1146              		.loc 1 410 0 is_stmt 0 discriminator 4
 1147 0040 104B     		ldr	r3, .L82+20
 1148 0042 0193     		str	r3, [sp, #4]
 1149 0044 0123     		movs	r3, #1
 1150 0046 0093     		str	r3, [sp]
 1151 0048 9A33     		adds	r3, r3, #154
 1152 004a FF33     		adds	r3, r3, #255
 1153 004c 0A4A     		ldr	r2, .L82+8
 1154 004e 0B49     		ldr	r1, .L82+12
 1155 0050 0020     		movs	r0, #0
 1156              	.LVL156:
 1157 0052 A047     		blx	r4
 1158              	.LVL157:
 1159              	.LBE14:
 411:Source\azure_iot_sdk\c-utility\src/gballoc.c ****         result = 0;
 1160              		.loc 1 411 0 is_stmt 1 discriminator 4
 1161 0054 0024     		movs	r4, #0
 1162              	.LVL158:
 1163 0056 08E0     		b	.L78
 1164              	.L79:
 412:Source\azure_iot_sdk\c-utility\src/gballoc.c ****     }
 413:Source\azure_iot_sdk\c-utility\src/gballoc.c ****     else
 414:Source\azure_iot_sdk\c-utility\src/gballoc.c ****     {
 415:Source\azure_iot_sdk\c-utility\src/gballoc.c ****         /* Codes_SRS_GBALLOC_07_004: [ gballoc_getAllocationCount shall return the currently number
 416:Source\azure_iot_sdk\c-utility\src/gballoc.c ****         result = g_allocations;
 1165              		.loc 1 416 0
 1166 0058 094B     		ldr	r3, .L82+16
ARM GAS  C:\Users\Phuong\AppData\Local\Temp\ccxgFGK7.s 			page 29


 1167 005a DC68     		ldr	r4, [r3, #12]
 1168              	.LVL159:
 417:Source\azure_iot_sdk\c-utility\src/gballoc.c ****         (void)Unlock(gballocThreadSafeLock);
 1169              		.loc 1 417 0
 1170 005c 1868     		ldr	r0, [r3]
 1171 005e FFF7FEFF 		bl	Unlock
 1172              	.LVL160:
 1173 0062 02E0     		b	.L78
 1174              	.LVL161:
 1175              	.L80:
 404:Source\azure_iot_sdk\c-utility\src/gballoc.c ****     }
 1176              		.loc 1 404 0
 1177 0064 0024     		movs	r4, #0
 1178 0066 00E0     		b	.L78
 1179              	.LVL162:
 1180              	.L81:
 411:Source\azure_iot_sdk\c-utility\src/gballoc.c ****     }
 1181              		.loc 1 411 0
 1182 0068 0024     		movs	r4, #0
 1183              	.LVL163:
 1184              	.L78:
 418:Source\azure_iot_sdk\c-utility\src/gballoc.c ****     }
 419:Source\azure_iot_sdk\c-utility\src/gballoc.c **** 
 420:Source\azure_iot_sdk\c-utility\src/gballoc.c ****     return result;
 421:Source\azure_iot_sdk\c-utility\src/gballoc.c **** }
 1185              		.loc 1 421 0
 1186 006a 2000     		movs	r0, r4
 1187 006c 02B0     		add	sp, sp, #8
 1188              		@ sp needed
 1189              	.LVL164:
 1190 006e 10BD     		pop	{r4, pc}
 1191              	.L83:
 1192              		.align	2
 1193              	.L82:
 1194 0070 00000000 		.word	.LANCHOR0
 1195 0074 80000000 		.word	.LC31
 1196 0078 80000000 		.word	.LANCHOR3
 1197 007c 00000000 		.word	.LC7
 1198 0080 00000000 		.word	.LANCHOR1
 1199 0084 30000000 		.word	.LC9
 1200              		.cfi_endproc
 1201              	.LFE9:
 1202              		.size	gballoc_getAllocationCount, .-gballoc_getAllocationCount
 1203              		.section	.text.gballoc_resetMetrics,"ax",%progbits
 1204              		.align	2
 1205              		.global	gballoc_resetMetrics
 1206              		.code	16
 1207              		.thumb_func
 1208              		.type	gballoc_resetMetrics, %function
 1209              	gballoc_resetMetrics:
 1210              	.LFB10:
 422:Source\azure_iot_sdk\c-utility\src/gballoc.c **** 
 423:Source\azure_iot_sdk\c-utility\src/gballoc.c **** void gballoc_resetMetrics()
 424:Source\azure_iot_sdk\c-utility\src/gballoc.c **** {
 1211              		.loc 1 424 0
 1212              		.cfi_startproc
 1213              		@ args = 0, pretend = 0, frame = 0
ARM GAS  C:\Users\Phuong\AppData\Local\Temp\ccxgFGK7.s 			page 30


 1214              		@ frame_needed = 0, uses_anonymous_args = 0
 1215 0000 10B5     		push	{r4, lr}
 1216              		.cfi_def_cfa_offset 8
 1217              		.cfi_offset 4, -8
 1218              		.cfi_offset 14, -4
 1219 0002 82B0     		sub	sp, sp, #8
 1220              		.cfi_def_cfa_offset 16
 425:Source\azure_iot_sdk\c-utility\src/gballoc.c ****     /* Codes_SRS_GBALLOC_07_005: [ If gballoc was not initialized gballoc_reset Metrics shall do no
 426:Source\azure_iot_sdk\c-utility\src/gballoc.c ****     if (gballocState != GBALLOC_STATE_INIT)
 1221              		.loc 1 426 0
 1222 0004 194B     		ldr	r3, .L88
 1223 0006 1B78     		ldrb	r3, [r3]
 1224 0008 002B     		cmp	r3, #0
 1225 000a 0FD0     		beq	.L85
 1226              	.LBB15:
 427:Source\azure_iot_sdk\c-utility\src/gballoc.c ****     {
 428:Source\azure_iot_sdk\c-utility\src/gballoc.c ****         LogError("gballoc is not initialized.");
 1227              		.loc 1 428 0 discriminator 3
 1228 000c FFF7FEFF 		bl	xlogging_get_log_function
 1229              	.LVL165:
 1230 0010 041E     		subs	r4, r0, #0
 1231              	.LVL166:
 1232 0012 29D0     		beq	.L84
 1233              		.loc 1 428 0 is_stmt 0 discriminator 4
 1234 0014 164B     		ldr	r3, .L88+4
 1235 0016 0193     		str	r3, [sp, #4]
 1236 0018 0123     		movs	r3, #1
 1237 001a 0093     		str	r3, [sp]
 1238 001c AC33     		adds	r3, r3, #172
 1239 001e FF33     		adds	r3, r3, #255
 1240 0020 144A     		ldr	r2, .L88+8
 1241 0022 1C32     		adds	r2, r2, #28
 1242 0024 1449     		ldr	r1, .L88+12
 1243 0026 0020     		movs	r0, #0
 1244              	.LVL167:
 1245 0028 A047     		blx	r4
 1246              	.LVL168:
 1247 002a 1DE0     		b	.L84
 1248              	.LVL169:
 1249              	.L85:
 1250              	.LBE15:
 429:Source\azure_iot_sdk\c-utility\src/gballoc.c ****     }
 430:Source\azure_iot_sdk\c-utility\src/gballoc.c ****     /* Codes_SRS_GBALLOC_07_006: [ gballoc_resetMetrics shall ensure thread safety by using the loc
 431:Source\azure_iot_sdk\c-utility\src/gballoc.c ****     else if (LOCK_OK != Lock(gballocThreadSafeLock))
 1251              		.loc 1 431 0 is_stmt 1
 1252 002c 134B     		ldr	r3, .L88+16
 1253 002e 1868     		ldr	r0, [r3]
 1254 0030 FFF7FEFF 		bl	Lock
 1255              	.LVL170:
 1256 0034 0028     		cmp	r0, #0
 1257 0036 0FD0     		beq	.L87
 1258              	.LBB16:
 432:Source\azure_iot_sdk\c-utility\src/gballoc.c ****     {
 433:Source\azure_iot_sdk\c-utility\src/gballoc.c ****         /* Codes_SRS_GBALLOC_07_007: [ If the lock cannot be acquired, gballoc_reset Metrics shall 
 434:Source\azure_iot_sdk\c-utility\src/gballoc.c ****         LogError("Failed to get the Lock.");
 1259              		.loc 1 434 0 discriminator 3
 1260 0038 FFF7FEFF 		bl	xlogging_get_log_function
ARM GAS  C:\Users\Phuong\AppData\Local\Temp\ccxgFGK7.s 			page 31


 1261              	.LVL171:
 1262 003c 041E     		subs	r4, r0, #0
 1263              	.LVL172:
 1264 003e 13D0     		beq	.L84
 1265              		.loc 1 434 0 is_stmt 0 discriminator 4
 1266 0040 0F4B     		ldr	r3, .L88+20
 1267 0042 0193     		str	r3, [sp, #4]
 1268 0044 0123     		movs	r3, #1
 1269 0046 0093     		str	r3, [sp]
 1270 0048 B233     		adds	r3, r3, #178
 1271 004a FF33     		adds	r3, r3, #255
 1272 004c 094A     		ldr	r2, .L88+8
 1273 004e 1C32     		adds	r2, r2, #28
 1274 0050 0949     		ldr	r1, .L88+12
 1275 0052 0020     		movs	r0, #0
 1276              	.LVL173:
 1277 0054 A047     		blx	r4
 1278              	.LVL174:
 1279 0056 07E0     		b	.L84
 1280              	.LVL175:
 1281              	.L87:
 1282              	.LBE16:
 435:Source\azure_iot_sdk\c-utility\src/gballoc.c ****     }
 436:Source\azure_iot_sdk\c-utility\src/gballoc.c ****     else
 437:Source\azure_iot_sdk\c-utility\src/gballoc.c ****     {
 438:Source\azure_iot_sdk\c-utility\src/gballoc.c ****         /* Codes_SRS_GBALLOC_07_008: [ gballoc_resetMetrics shall reset the total allocation size, 
 439:Source\azure_iot_sdk\c-utility\src/gballoc.c ****         totalSize = 0;
 1283              		.loc 1 439 0 is_stmt 1
 1284 0058 084B     		ldr	r3, .L88+16
 1285 005a 0022     		movs	r2, #0
 1286 005c 5A60     		str	r2, [r3, #4]
 440:Source\azure_iot_sdk\c-utility\src/gballoc.c ****         maxSize = 0;
 1287              		.loc 1 440 0
 1288 005e 9A60     		str	r2, [r3, #8]
 441:Source\azure_iot_sdk\c-utility\src/gballoc.c ****         g_allocations = 0;
 1289              		.loc 1 441 0
 1290 0060 DA60     		str	r2, [r3, #12]
 442:Source\azure_iot_sdk\c-utility\src/gballoc.c ****         (void)Unlock(gballocThreadSafeLock);
 1291              		.loc 1 442 0
 1292 0062 1868     		ldr	r0, [r3]
 1293 0064 FFF7FEFF 		bl	Unlock
 1294              	.LVL176:
 1295              	.L84:
 443:Source\azure_iot_sdk\c-utility\src/gballoc.c ****     }
 444:Source\azure_iot_sdk\c-utility\src/gballoc.c **** }
 1296              		.loc 1 444 0
 1297 0068 02B0     		add	sp, sp, #8
 1298              		@ sp needed
 1299 006a 10BD     		pop	{r4, pc}
 1300              	.L89:
 1301              		.align	2
 1302              	.L88:
 1303 006c 00000000 		.word	.LANCHOR0
 1304 0070 80000000 		.word	.LC31
 1305 0074 80000000 		.word	.LANCHOR3
 1306 0078 00000000 		.word	.LC7
 1307 007c 00000000 		.word	.LANCHOR1
ARM GAS  C:\Users\Phuong\AppData\Local\Temp\ccxgFGK7.s 			page 32


 1308 0080 30000000 		.word	.LC9
 1309              		.cfi_endproc
 1310              	.LFE10:
 1311              		.size	gballoc_resetMetrics, .-gballoc_resetMetrics
 1312              		.section	.rodata
 1313              		.align	2
 1314              		.set	.LANCHOR2,. + 0
 1315              		.set	.LANCHOR3,. + 128
 1316              		.type	__func__.5897, %object
 1317              		.size	__func__.5897, 15
 1318              	__func__.5897:
 1319 0000 6762616C 		.ascii	"gballoc_malloc\000"
 1319      6C6F635F 
 1319      6D616C6C 
 1319      6F6300
 1320 000f 00       		.space	1
 1321              		.type	__func__.5907, %object
 1322              		.size	__func__.5907, 15
 1323              	__func__.5907:
 1324 0010 6762616C 		.ascii	"gballoc_calloc\000"
 1324      6C6F635F 
 1324      63616C6C 
 1324      6F6300
 1325 001f 00       		.space	1
 1326              		.type	__func__.5919, %object
 1327              		.size	__func__.5919, 16
 1328              	__func__.5919:
 1329 0020 6762616C 		.ascii	"gballoc_realloc\000"
 1329      6C6F635F 
 1329      7265616C 
 1329      6C6F6300 
 1330              		.type	__func__.5931, %object
 1331              		.size	__func__.5931, 13
 1332              	__func__.5931:
 1333 0030 6762616C 		.ascii	"gballoc_free\000"
 1333      6C6F635F 
 1333      66726565 
 1333      00
 1334 003d 000000   		.space	3
 1335              		.type	__func__.5945, %object
 1336              		.size	__func__.5945, 29
 1337              	__func__.5945:
 1338 0040 6762616C 		.ascii	"gballoc_getMaximumMemoryUsed\000"
 1338      6C6F635F 
 1338      6765744D 
 1338      6178696D 
 1338      756D4D65 
 1339 005d 000000   		.space	3
 1340              		.type	__func__.5956, %object
 1341              		.size	__func__.5956, 29
 1342              	__func__.5956:
 1343 0060 6762616C 		.ascii	"gballoc_getCurrentMemoryUsed\000"
 1343      6C6F635F 
 1343      67657443 
 1343      75727265 
 1343      6E744D65 
 1344 007d 000000   		.space	3
ARM GAS  C:\Users\Phuong\AppData\Local\Temp\ccxgFGK7.s 			page 33


 1345              		.type	__func__.5967, %object
 1346              		.size	__func__.5967, 27
 1347              	__func__.5967:
 1348 0080 6762616C 		.ascii	"gballoc_getAllocationCount\000"
 1348      6C6F635F 
 1348      67657441 
 1348      6C6C6F63 
 1348      6174696F 
 1349 009b 00       		.space	1
 1350              		.type	__func__.5976, %object
 1351              		.size	__func__.5976, 21
 1352              	__func__.5976:
 1353 009c 6762616C 		.ascii	"gballoc_resetMetrics\000"
 1353      6C6F635F 
 1353      72657365 
 1353      744D6574 
 1353      72696373 
 1354              		.data
 1355              		.set	.LANCHOR0,. + 0
 1356              		.type	gballocState, %object
 1357              		.size	gballocState, 1
 1358              	gballocState:
 1359 0000 01       		.byte	1
 1360              		.section	.rodata.str1.4,"aMS",%progbits,1
 1361              		.align	2
 1362              	.LC7:
 1363 0000 536F7572 		.ascii	"Source\\azure_iot_sdk\\c-utility\\src\\gballoc.c\000"
 1363      63655C61 
 1363      7A757265 
 1363      5F696F74 
 1363      5F73646B 
 1364 002d 000000   		.space	3
 1365              	.LC9:
 1366 0030 4661696C 		.ascii	"Failed to get the Lock.\000"
 1366      65642074 
 1366      6F206765 
 1366      74207468 
 1366      65204C6F 
 1367              	.LC26:
 1368 0048 436F756C 		.ascii	"Could not free allocation for address %p (not found"
 1368      64206E6F 
 1368      74206672 
 1368      65652061 
 1368      6C6C6F63 
 1369 007b 2900     		.ascii	")\000"
 1370 007d 000000   		.space	3
 1371              	.LC31:
 1372 0080 6762616C 		.ascii	"gballoc is not initialized.\000"
 1372      6C6F6320 
 1372      6973206E 
 1372      6F742069 
 1372      6E697469 
 1373              		.bss
 1374              		.align	2
 1375              		.set	.LANCHOR1,. + 0
 1376              		.type	gballocThreadSafeLock, %object
 1377              		.size	gballocThreadSafeLock, 4
ARM GAS  C:\Users\Phuong\AppData\Local\Temp\ccxgFGK7.s 			page 34


 1378              	gballocThreadSafeLock:
 1379 0000 00000000 		.space	4
 1380              		.type	totalSize, %object
 1381              		.size	totalSize, 4
 1382              	totalSize:
 1383 0004 00000000 		.space	4
 1384              		.type	maxSize, %object
 1385              		.size	maxSize, 4
 1386              	maxSize:
 1387 0008 00000000 		.space	4
 1388              		.type	g_allocations, %object
 1389              		.size	g_allocations, 4
 1390              	g_allocations:
 1391 000c 00000000 		.space	4
 1392              		.type	head, %object
 1393              		.size	head, 4
 1394              	head:
 1395 0010 00000000 		.space	4
 1396              		.text
 1397              	.Letext0:
 1398              		.file 2 "c:\\program files (x86)\\cypress\\psoc creator\\4.2\\psoc creator\\import\\gnu\\arm\\5.4.
 1399              		.file 3 ".\\Source\\azure_iot_sdk\\c-utility\\inc/azure_c_shared_utility/lock.h"
 1400              		.file 4 ".\\Source\\azure_iot_sdk\\c-utility\\inc/azure_c_shared_utility/xlogging.h"
 1401              		.file 5 "c:\\program files (x86)\\cypress\\psoc creator\\4.2\\psoc creator\\import\\gnu\\arm\\5.4.