ARM GAS  C:\Users\Phuong\AppData\Local\Temp\ccINfzqY.s 			page 1


   1              		.syntax unified
   2              		.cpu cortex-m0plus
   3              		.fpu softvfp
   4              		.eabi_attribute 20, 1
   5              		.eabi_attribute 21, 1
   6              		.eabi_attribute 23, 3
   7              		.eabi_attribute 24, 1
   8              		.eabi_attribute 25, 1
   9              		.eabi_attribute 26, 1
  10              		.eabi_attribute 30, 1
  11              		.eabi_attribute 34, 0
  12              		.eabi_attribute 18, 4
  13              		.thumb
  14              		.syntax unified
  15              		.file	"gcm.c"
  16              		.text
  17              	.Ltext0:
  18              		.cfi_sections	.debug_frame
  19              		.section	.text.gcm_mult,"ax",%progbits
  20              		.align	2
  21              		.code	16
  22              		.thumb_func
  23              		.type	gcm_mult, %function
  24              	gcm_mult:
  25              	.LFB11:
  26              		.file 1 "Source\\mbedtls_open\\library\\gcm.c"
   1:Source\mbedtls_open\library/gcm.c **** /*
   2:Source\mbedtls_open\library/gcm.c ****  *  NIST SP800-38D compliant GCM implementation
   3:Source\mbedtls_open\library/gcm.c ****  *
   4:Source\mbedtls_open\library/gcm.c ****  *  Copyright (C) 2006-2015, ARM Limited, All Rights Reserved
   5:Source\mbedtls_open\library/gcm.c ****  *  SPDX-License-Identifier: Apache-2.0
   6:Source\mbedtls_open\library/gcm.c ****  *
   7:Source\mbedtls_open\library/gcm.c ****  *  Licensed under the Apache License, Version 2.0 (the "License"); you may
   8:Source\mbedtls_open\library/gcm.c ****  *  not use this file except in compliance with the License.
   9:Source\mbedtls_open\library/gcm.c ****  *  You may obtain a copy of the License at
  10:Source\mbedtls_open\library/gcm.c ****  *
  11:Source\mbedtls_open\library/gcm.c ****  *  http://www.apache.org/licenses/LICENSE-2.0
  12:Source\mbedtls_open\library/gcm.c ****  *
  13:Source\mbedtls_open\library/gcm.c ****  *  Unless required by applicable law or agreed to in writing, software
  14:Source\mbedtls_open\library/gcm.c ****  *  distributed under the License is distributed on an "AS IS" BASIS, WITHOUT
  15:Source\mbedtls_open\library/gcm.c ****  *  WARRANTIES OR CONDITIONS OF ANY KIND, either express or implied.
  16:Source\mbedtls_open\library/gcm.c ****  *  See the License for the specific language governing permissions and
  17:Source\mbedtls_open\library/gcm.c ****  *  limitations under the License.
  18:Source\mbedtls_open\library/gcm.c ****  *
  19:Source\mbedtls_open\library/gcm.c ****  *  This file is part of mbed TLS (https://tls.mbed.org)
  20:Source\mbedtls_open\library/gcm.c ****  */
  21:Source\mbedtls_open\library/gcm.c **** 
  22:Source\mbedtls_open\library/gcm.c **** /*
  23:Source\mbedtls_open\library/gcm.c ****  * http://csrc.nist.gov/publications/nistpubs/800-38D/SP-800-38D.pdf
  24:Source\mbedtls_open\library/gcm.c ****  *
  25:Source\mbedtls_open\library/gcm.c ****  * See also:
  26:Source\mbedtls_open\library/gcm.c ****  * [MGV] http://csrc.nist.gov/groups/ST/toolkit/BCM/documents/proposedmodes/gcm/gcm-revised-spec.pd
  27:Source\mbedtls_open\library/gcm.c ****  *
  28:Source\mbedtls_open\library/gcm.c ****  * We use the algorithm described as Shoup's method with 4-bit tables in
  29:Source\mbedtls_open\library/gcm.c ****  * [MGV] 4.1, pp. 12-13, to enhance speed without using too much memory.
  30:Source\mbedtls_open\library/gcm.c ****  */
  31:Source\mbedtls_open\library/gcm.c **** 
ARM GAS  C:\Users\Phuong\AppData\Local\Temp\ccINfzqY.s 			page 2


  32:Source\mbedtls_open\library/gcm.c **** #if !defined(MBEDTLS_CONFIG_FILE)
  33:Source\mbedtls_open\library/gcm.c **** #include "mbedtls/config.h"
  34:Source\mbedtls_open\library/gcm.c **** #else
  35:Source\mbedtls_open\library/gcm.c **** #include MBEDTLS_CONFIG_FILE
  36:Source\mbedtls_open\library/gcm.c **** #endif
  37:Source\mbedtls_open\library/gcm.c **** 
  38:Source\mbedtls_open\library/gcm.c **** #if defined(MBEDTLS_GCM_C)
  39:Source\mbedtls_open\library/gcm.c **** 
  40:Source\mbedtls_open\library/gcm.c **** #include "mbedtls/gcm.h"
  41:Source\mbedtls_open\library/gcm.c **** #include "mbedtls/platform_util.h"
  42:Source\mbedtls_open\library/gcm.c **** 
  43:Source\mbedtls_open\library/gcm.c **** #include <string.h>
  44:Source\mbedtls_open\library/gcm.c **** 
  45:Source\mbedtls_open\library/gcm.c **** #if defined(MBEDTLS_AESNI_C)
  46:Source\mbedtls_open\library/gcm.c **** #include "mbedtls/aesni.h"
  47:Source\mbedtls_open\library/gcm.c **** #endif
  48:Source\mbedtls_open\library/gcm.c **** 
  49:Source\mbedtls_open\library/gcm.c **** #if defined(MBEDTLS_SELF_TEST) && defined(MBEDTLS_AES_C)
  50:Source\mbedtls_open\library/gcm.c **** #include "mbedtls/aes.h"
  51:Source\mbedtls_open\library/gcm.c **** #if defined(MBEDTLS_PLATFORM_C)
  52:Source\mbedtls_open\library/gcm.c **** #include "mbedtls/platform.h"
  53:Source\mbedtls_open\library/gcm.c **** #else
  54:Source\mbedtls_open\library/gcm.c **** #include <stdio.h>
  55:Source\mbedtls_open\library/gcm.c **** #define mbedtls_printf printf
  56:Source\mbedtls_open\library/gcm.c **** #endif /* MBEDTLS_PLATFORM_C */
  57:Source\mbedtls_open\library/gcm.c **** #endif /* MBEDTLS_SELF_TEST && MBEDTLS_AES_C */
  58:Source\mbedtls_open\library/gcm.c **** 
  59:Source\mbedtls_open\library/gcm.c **** #if !defined(MBEDTLS_GCM_ALT)
  60:Source\mbedtls_open\library/gcm.c **** 
  61:Source\mbedtls_open\library/gcm.c **** /*
  62:Source\mbedtls_open\library/gcm.c ****  * 32-bit integer manipulation macros (big endian)
  63:Source\mbedtls_open\library/gcm.c ****  */
  64:Source\mbedtls_open\library/gcm.c **** #ifndef GET_UINT32_BE
  65:Source\mbedtls_open\library/gcm.c **** #define GET_UINT32_BE(n,b,i)                            \
  66:Source\mbedtls_open\library/gcm.c **** {                                                       \
  67:Source\mbedtls_open\library/gcm.c ****     (n) = ( (uint32_t) (b)[(i)    ] << 24 )             \
  68:Source\mbedtls_open\library/gcm.c ****         | ( (uint32_t) (b)[(i) + 1] << 16 )             \
  69:Source\mbedtls_open\library/gcm.c ****         | ( (uint32_t) (b)[(i) + 2] <<  8 )             \
  70:Source\mbedtls_open\library/gcm.c ****         | ( (uint32_t) (b)[(i) + 3]       );            \
  71:Source\mbedtls_open\library/gcm.c **** }
  72:Source\mbedtls_open\library/gcm.c **** #endif
  73:Source\mbedtls_open\library/gcm.c **** 
  74:Source\mbedtls_open\library/gcm.c **** #ifndef PUT_UINT32_BE
  75:Source\mbedtls_open\library/gcm.c **** #define PUT_UINT32_BE(n,b,i)                            \
  76:Source\mbedtls_open\library/gcm.c **** {                                                       \
  77:Source\mbedtls_open\library/gcm.c ****     (b)[(i)    ] = (unsigned char) ( (n) >> 24 );       \
  78:Source\mbedtls_open\library/gcm.c ****     (b)[(i) + 1] = (unsigned char) ( (n) >> 16 );       \
  79:Source\mbedtls_open\library/gcm.c ****     (b)[(i) + 2] = (unsigned char) ( (n) >>  8 );       \
  80:Source\mbedtls_open\library/gcm.c ****     (b)[(i) + 3] = (unsigned char) ( (n)       );       \
  81:Source\mbedtls_open\library/gcm.c **** }
  82:Source\mbedtls_open\library/gcm.c **** #endif
  83:Source\mbedtls_open\library/gcm.c **** 
  84:Source\mbedtls_open\library/gcm.c **** /*
  85:Source\mbedtls_open\library/gcm.c ****  * Initialize a context
  86:Source\mbedtls_open\library/gcm.c ****  */
  87:Source\mbedtls_open\library/gcm.c **** void mbedtls_gcm_init( mbedtls_gcm_context *ctx )
  88:Source\mbedtls_open\library/gcm.c **** {
ARM GAS  C:\Users\Phuong\AppData\Local\Temp\ccINfzqY.s 			page 3


  89:Source\mbedtls_open\library/gcm.c ****     memset( ctx, 0, sizeof( mbedtls_gcm_context ) );
  90:Source\mbedtls_open\library/gcm.c **** }
  91:Source\mbedtls_open\library/gcm.c **** 
  92:Source\mbedtls_open\library/gcm.c **** /*
  93:Source\mbedtls_open\library/gcm.c ****  * Precompute small multiples of H, that is set
  94:Source\mbedtls_open\library/gcm.c ****  *      HH[i] || HL[i] = H times i,
  95:Source\mbedtls_open\library/gcm.c ****  * where i is seen as a field element as in [MGV], ie high-order bits
  96:Source\mbedtls_open\library/gcm.c ****  * correspond to low powers of P. The result is stored in the same way, that
  97:Source\mbedtls_open\library/gcm.c ****  * is the high-order bit of HH corresponds to P^0 and the low-order bit of HL
  98:Source\mbedtls_open\library/gcm.c ****  * corresponds to P^127.
  99:Source\mbedtls_open\library/gcm.c ****  */
 100:Source\mbedtls_open\library/gcm.c **** static int gcm_gen_table( mbedtls_gcm_context *ctx )
 101:Source\mbedtls_open\library/gcm.c **** {
 102:Source\mbedtls_open\library/gcm.c ****     int ret, i, j;
 103:Source\mbedtls_open\library/gcm.c ****     uint64_t hi, lo;
 104:Source\mbedtls_open\library/gcm.c ****     uint64_t vl, vh;
 105:Source\mbedtls_open\library/gcm.c ****     unsigned char h[16];
 106:Source\mbedtls_open\library/gcm.c ****     size_t olen = 0;
 107:Source\mbedtls_open\library/gcm.c **** 
 108:Source\mbedtls_open\library/gcm.c ****     memset( h, 0, 16 );
 109:Source\mbedtls_open\library/gcm.c ****     if( ( ret = mbedtls_cipher_update( &ctx->cipher_ctx, h, 16, h, &olen ) ) != 0 )
 110:Source\mbedtls_open\library/gcm.c ****         return( ret );
 111:Source\mbedtls_open\library/gcm.c **** 
 112:Source\mbedtls_open\library/gcm.c ****     /* pack h as two 64-bits ints, big-endian */
 113:Source\mbedtls_open\library/gcm.c ****     GET_UINT32_BE( hi, h,  0  );
 114:Source\mbedtls_open\library/gcm.c ****     GET_UINT32_BE( lo, h,  4  );
 115:Source\mbedtls_open\library/gcm.c ****     vh = (uint64_t) hi << 32 | lo;
 116:Source\mbedtls_open\library/gcm.c **** 
 117:Source\mbedtls_open\library/gcm.c ****     GET_UINT32_BE( hi, h,  8  );
 118:Source\mbedtls_open\library/gcm.c ****     GET_UINT32_BE( lo, h,  12 );
 119:Source\mbedtls_open\library/gcm.c ****     vl = (uint64_t) hi << 32 | lo;
 120:Source\mbedtls_open\library/gcm.c **** 
 121:Source\mbedtls_open\library/gcm.c ****     /* 8 = 1000 corresponds to 1 in GF(2^128) */
 122:Source\mbedtls_open\library/gcm.c ****     ctx->HL[8] = vl;
 123:Source\mbedtls_open\library/gcm.c ****     ctx->HH[8] = vh;
 124:Source\mbedtls_open\library/gcm.c **** 
 125:Source\mbedtls_open\library/gcm.c **** #if defined(MBEDTLS_AESNI_C) && defined(MBEDTLS_HAVE_X86_64)
 126:Source\mbedtls_open\library/gcm.c ****     /* With CLMUL support, we need only h, not the rest of the table */
 127:Source\mbedtls_open\library/gcm.c ****     if( mbedtls_aesni_has_support( MBEDTLS_AESNI_CLMUL ) )
 128:Source\mbedtls_open\library/gcm.c ****         return( 0 );
 129:Source\mbedtls_open\library/gcm.c **** #endif
 130:Source\mbedtls_open\library/gcm.c **** 
 131:Source\mbedtls_open\library/gcm.c ****     /* 0 corresponds to 0 in GF(2^128) */
 132:Source\mbedtls_open\library/gcm.c ****     ctx->HH[0] = 0;
 133:Source\mbedtls_open\library/gcm.c ****     ctx->HL[0] = 0;
 134:Source\mbedtls_open\library/gcm.c **** 
 135:Source\mbedtls_open\library/gcm.c ****     for( i = 4; i > 0; i >>= 1 )
 136:Source\mbedtls_open\library/gcm.c ****     {
 137:Source\mbedtls_open\library/gcm.c ****         uint32_t T = ( vl & 1 ) * 0xe1000000U;
 138:Source\mbedtls_open\library/gcm.c ****         vl  = ( vh << 63 ) | ( vl >> 1 );
 139:Source\mbedtls_open\library/gcm.c ****         vh  = ( vh >> 1 ) ^ ( (uint64_t) T << 32);
 140:Source\mbedtls_open\library/gcm.c **** 
 141:Source\mbedtls_open\library/gcm.c ****         ctx->HL[i] = vl;
 142:Source\mbedtls_open\library/gcm.c ****         ctx->HH[i] = vh;
 143:Source\mbedtls_open\library/gcm.c ****     }
 144:Source\mbedtls_open\library/gcm.c **** 
 145:Source\mbedtls_open\library/gcm.c ****     for( i = 2; i <= 8; i *= 2 )
ARM GAS  C:\Users\Phuong\AppData\Local\Temp\ccINfzqY.s 			page 4


 146:Source\mbedtls_open\library/gcm.c ****     {
 147:Source\mbedtls_open\library/gcm.c ****         uint64_t *HiL = ctx->HL + i, *HiH = ctx->HH + i;
 148:Source\mbedtls_open\library/gcm.c ****         vh = *HiH;
 149:Source\mbedtls_open\library/gcm.c ****         vl = *HiL;
 150:Source\mbedtls_open\library/gcm.c ****         for( j = 1; j < i; j++ )
 151:Source\mbedtls_open\library/gcm.c ****         {
 152:Source\mbedtls_open\library/gcm.c ****             HiH[j] = vh ^ ctx->HH[j];
 153:Source\mbedtls_open\library/gcm.c ****             HiL[j] = vl ^ ctx->HL[j];
 154:Source\mbedtls_open\library/gcm.c ****         }
 155:Source\mbedtls_open\library/gcm.c ****     }
 156:Source\mbedtls_open\library/gcm.c **** 
 157:Source\mbedtls_open\library/gcm.c ****     return( 0 );
 158:Source\mbedtls_open\library/gcm.c **** }
 159:Source\mbedtls_open\library/gcm.c **** 
 160:Source\mbedtls_open\library/gcm.c **** int mbedtls_gcm_setkey( mbedtls_gcm_context *ctx,
 161:Source\mbedtls_open\library/gcm.c ****                         mbedtls_cipher_id_t cipher,
 162:Source\mbedtls_open\library/gcm.c ****                         const unsigned char *key,
 163:Source\mbedtls_open\library/gcm.c ****                         unsigned int keybits )
 164:Source\mbedtls_open\library/gcm.c **** {
 165:Source\mbedtls_open\library/gcm.c ****     int ret;
 166:Source\mbedtls_open\library/gcm.c ****     const mbedtls_cipher_info_t *cipher_info;
 167:Source\mbedtls_open\library/gcm.c **** 
 168:Source\mbedtls_open\library/gcm.c ****     cipher_info = mbedtls_cipher_info_from_values( cipher, keybits, MBEDTLS_MODE_ECB );
 169:Source\mbedtls_open\library/gcm.c ****     if( cipher_info == NULL )
 170:Source\mbedtls_open\library/gcm.c ****         return( MBEDTLS_ERR_GCM_BAD_INPUT );
 171:Source\mbedtls_open\library/gcm.c **** 
 172:Source\mbedtls_open\library/gcm.c ****     if( cipher_info->block_size != 16 )
 173:Source\mbedtls_open\library/gcm.c ****         return( MBEDTLS_ERR_GCM_BAD_INPUT );
 174:Source\mbedtls_open\library/gcm.c **** 
 175:Source\mbedtls_open\library/gcm.c ****     mbedtls_cipher_free( &ctx->cipher_ctx );
 176:Source\mbedtls_open\library/gcm.c **** 
 177:Source\mbedtls_open\library/gcm.c ****     if( ( ret = mbedtls_cipher_setup( &ctx->cipher_ctx, cipher_info ) ) != 0 )
 178:Source\mbedtls_open\library/gcm.c ****         return( ret );
 179:Source\mbedtls_open\library/gcm.c **** 
 180:Source\mbedtls_open\library/gcm.c ****     if( ( ret = mbedtls_cipher_setkey( &ctx->cipher_ctx, key, keybits,
 181:Source\mbedtls_open\library/gcm.c ****                                MBEDTLS_ENCRYPT ) ) != 0 )
 182:Source\mbedtls_open\library/gcm.c ****     {
 183:Source\mbedtls_open\library/gcm.c ****         return( ret );
 184:Source\mbedtls_open\library/gcm.c ****     }
 185:Source\mbedtls_open\library/gcm.c **** 
 186:Source\mbedtls_open\library/gcm.c ****     if( ( ret = gcm_gen_table( ctx ) ) != 0 )
 187:Source\mbedtls_open\library/gcm.c ****         return( ret );
 188:Source\mbedtls_open\library/gcm.c **** 
 189:Source\mbedtls_open\library/gcm.c ****     return( 0 );
 190:Source\mbedtls_open\library/gcm.c **** }
 191:Source\mbedtls_open\library/gcm.c **** 
 192:Source\mbedtls_open\library/gcm.c **** /*
 193:Source\mbedtls_open\library/gcm.c ****  * Shoup's method for multiplication use this table with
 194:Source\mbedtls_open\library/gcm.c ****  *      last4[x] = x times P^128
 195:Source\mbedtls_open\library/gcm.c ****  * where x and last4[x] are seen as elements of GF(2^128) as in [MGV]
 196:Source\mbedtls_open\library/gcm.c ****  */
 197:Source\mbedtls_open\library/gcm.c **** static const uint64_t last4[16] =
 198:Source\mbedtls_open\library/gcm.c **** {
 199:Source\mbedtls_open\library/gcm.c ****     0x0000, 0x1c20, 0x3840, 0x2460,
 200:Source\mbedtls_open\library/gcm.c ****     0x7080, 0x6ca0, 0x48c0, 0x54e0,
 201:Source\mbedtls_open\library/gcm.c ****     0xe100, 0xfd20, 0xd940, 0xc560,
 202:Source\mbedtls_open\library/gcm.c ****     0x9180, 0x8da0, 0xa9c0, 0xb5e0
ARM GAS  C:\Users\Phuong\AppData\Local\Temp\ccINfzqY.s 			page 5


 203:Source\mbedtls_open\library/gcm.c **** };
 204:Source\mbedtls_open\library/gcm.c **** 
 205:Source\mbedtls_open\library/gcm.c **** /*
 206:Source\mbedtls_open\library/gcm.c ****  * Sets output to x times H using the precomputed tables.
 207:Source\mbedtls_open\library/gcm.c ****  * x and output are seen as elements of GF(2^128) as in [MGV].
 208:Source\mbedtls_open\library/gcm.c ****  */
 209:Source\mbedtls_open\library/gcm.c **** static void gcm_mult( mbedtls_gcm_context *ctx, const unsigned char x[16],
 210:Source\mbedtls_open\library/gcm.c ****                       unsigned char output[16] )
 211:Source\mbedtls_open\library/gcm.c **** {
  27              		.loc 1 211 0
  28              		.cfi_startproc
  29              		@ args = 0, pretend = 0, frame = 8
  30              		@ frame_needed = 0, uses_anonymous_args = 0
  31              	.LVL0:
  32 0000 F0B5     		push	{r4, r5, r6, r7, lr}
  33              		.cfi_def_cfa_offset 20
  34              		.cfi_offset 4, -20
  35              		.cfi_offset 5, -16
  36              		.cfi_offset 6, -12
  37              		.cfi_offset 7, -8
  38              		.cfi_offset 14, -4
  39 0002 5F46     		mov	r7, fp
  40 0004 5646     		mov	r6, r10
  41 0006 4D46     		mov	r5, r9
  42 0008 4446     		mov	r4, r8
  43 000a F0B4     		push	{r4, r5, r6, r7}
  44              		.cfi_def_cfa_offset 36
  45              		.cfi_offset 8, -36
  46              		.cfi_offset 9, -32
  47              		.cfi_offset 10, -28
  48              		.cfi_offset 11, -24
  49 000c 83B0     		sub	sp, sp, #12
  50              		.cfi_def_cfa_offset 48
  51 000e 8C46     		mov	ip, r1
  52 0010 9046     		mov	r8, r2
  53              	.LVL1:
 212:Source\mbedtls_open\library/gcm.c ****     int i = 0;
 213:Source\mbedtls_open\library/gcm.c ****     unsigned char lo, hi, rem;
 214:Source\mbedtls_open\library/gcm.c ****     uint64_t zh, zl;
 215:Source\mbedtls_open\library/gcm.c **** 
 216:Source\mbedtls_open\library/gcm.c **** #if defined(MBEDTLS_AESNI_C) && defined(MBEDTLS_HAVE_X86_64)
 217:Source\mbedtls_open\library/gcm.c ****     if( mbedtls_aesni_has_support( MBEDTLS_AESNI_CLMUL ) ) {
 218:Source\mbedtls_open\library/gcm.c ****         unsigned char h[16];
 219:Source\mbedtls_open\library/gcm.c **** 
 220:Source\mbedtls_open\library/gcm.c ****         PUT_UINT32_BE( ctx->HH[8] >> 32, h,  0 );
 221:Source\mbedtls_open\library/gcm.c ****         PUT_UINT32_BE( ctx->HH[8],       h,  4 );
 222:Source\mbedtls_open\library/gcm.c ****         PUT_UINT32_BE( ctx->HL[8] >> 32, h,  8 );
 223:Source\mbedtls_open\library/gcm.c ****         PUT_UINT32_BE( ctx->HL[8],       h, 12 );
 224:Source\mbedtls_open\library/gcm.c **** 
 225:Source\mbedtls_open\library/gcm.c ****         mbedtls_aesni_gcm_mult( output, x, h );
 226:Source\mbedtls_open\library/gcm.c ****         return;
 227:Source\mbedtls_open\library/gcm.c ****     }
 228:Source\mbedtls_open\library/gcm.c **** #endif /* MBEDTLS_AESNI_C && MBEDTLS_HAVE_X86_64 */
 229:Source\mbedtls_open\library/gcm.c **** 
 230:Source\mbedtls_open\library/gcm.c ****     lo = x[15] & 0xf;
  54              		.loc 1 230 0
  55 0012 CB7B     		ldrb	r3, [r1, #15]
ARM GAS  C:\Users\Phuong\AppData\Local\Temp\ccINfzqY.s 			page 6


  56 0014 0F22     		movs	r2, #15
  57              	.LVL2:
  58 0016 1340     		ands	r3, r2
  59              	.LVL3:
 231:Source\mbedtls_open\library/gcm.c **** 
 232:Source\mbedtls_open\library/gcm.c ****     zh = ctx->HH[lo];
  60              		.loc 1 232 0
  61 0018 1A00     		movs	r2, r3
  62 001a 1832     		adds	r2, r2, #24
  63 001c D200     		lsls	r2, r2, #3
  64 001e 8218     		adds	r2, r0, r2
  65 0020 1468     		ldr	r4, [r2]
  66 0022 5568     		ldr	r5, [r2, #4]
  67              	.LVL4:
 233:Source\mbedtls_open\library/gcm.c ****     zl = ctx->HL[lo];
  68              		.loc 1 233 0
  69 0024 0833     		adds	r3, r3, #8
  70              	.LVL5:
  71 0026 DB00     		lsls	r3, r3, #3
  72              	.LVL6:
  73 0028 C318     		adds	r3, r0, r3
  74 002a 1E68     		ldr	r6, [r3]
  75 002c 5B68     		ldr	r3, [r3, #4]
  76              	.LVL7:
 234:Source\mbedtls_open\library/gcm.c **** 
 235:Source\mbedtls_open\library/gcm.c ****     for( i = 15; i >= 0; i-- )
  77              		.loc 1 235 0
  78 002e 0F21     		movs	r1, #15
  79              	.LVL8:
  80 0030 55E0     		b	.L2
  81              	.LVL9:
  82              	.L4:
 236:Source\mbedtls_open\library/gcm.c ****     {
 237:Source\mbedtls_open\library/gcm.c ****         lo = x[i] & 0xf;
  83              		.loc 1 237 0
  84 0032 6246     		mov	r2, ip
  85 0034 575C     		ldrb	r7, [r2, r1]
  86 0036 0F22     		movs	r2, #15
  87 0038 3A40     		ands	r2, r7
  88              	.LVL10:
 238:Source\mbedtls_open\library/gcm.c ****         hi = x[i] >> 4;
  89              		.loc 1 238 0
  90 003a 3F09     		lsrs	r7, r7, #4
  91 003c 0197     		str	r7, [sp, #4]
  92              	.LVL11:
 239:Source\mbedtls_open\library/gcm.c **** 
 240:Source\mbedtls_open\library/gcm.c ****         if( i != 15 )
  93              		.loc 1 240 0
  94 003e 0F29     		cmp	r1, #15
  95 0040 27D0     		beq	.L3
 241:Source\mbedtls_open\library/gcm.c ****         {
 242:Source\mbedtls_open\library/gcm.c ****             rem = (unsigned char) zl & 0xf;
  96              		.loc 1 242 0
  97 0042 0F27     		movs	r7, #15
  98 0044 3740     		ands	r7, r6
  99 0046 B946     		mov	r9, r7
 100              	.LVL12:
ARM GAS  C:\Users\Phuong\AppData\Local\Temp\ccINfzqY.s 			page 7


 243:Source\mbedtls_open\library/gcm.c ****             zl = ( zh << 60 ) | ( zl >> 4 );
 101              		.loc 1 243 0
 102 0048 2707     		lsls	r7, r4, #28
 103 004a BA46     		mov	r10, r7
 104 004c 1F07     		lsls	r7, r3, #28
 105 004e 3609     		lsrs	r6, r6, #4
 106              	.LVL13:
 107 0050 3E43     		orrs	r6, r7
 108 0052 1B09     		lsrs	r3, r3, #4
 109 0054 5746     		mov	r7, r10
 110 0056 3B43     		orrs	r3, r7
 111              	.LVL14:
 244:Source\mbedtls_open\library/gcm.c ****             zh = ( zh >> 4 );
 112              		.loc 1 244 0
 113 0058 2F07     		lsls	r7, r5, #28
 114 005a 2409     		lsrs	r4, r4, #4
 115              	.LVL15:
 116 005c 3C43     		orrs	r4, r7
 117 005e 2D09     		lsrs	r5, r5, #4
 118 0060 AA46     		mov	r10, r5
 119              	.LVL16:
 245:Source\mbedtls_open\library/gcm.c ****             zh ^= (uint64_t) last4[rem] << 48;
 120              		.loc 1 245 0
 121 0062 4D46     		mov	r5, r9
 122              	.LVL17:
 123 0064 ED00     		lsls	r5, r5, #3
 124 0066 314F     		ldr	r7, .L5
 125 0068 7D59     		ldr	r5, [r7, r5]
 126 006a 2D04     		lsls	r5, r5, #16
 127 006c 5746     		mov	r7, r10
 128 006e 6F40     		eors	r7, r5
 129 0070 B946     		mov	r9, r7
 130              	.LVL18:
 246:Source\mbedtls_open\library/gcm.c ****             zh ^= ctx->HH[lo];
 131              		.loc 1 246 0
 132 0072 1500     		movs	r5, r2
 133 0074 1835     		adds	r5, r5, #24
 134 0076 ED00     		lsls	r5, r5, #3
 135 0078 4519     		adds	r5, r0, r5
 136 007a 2F68     		ldr	r7, [r5]
 137              	.LVL19:
 138 007c 6D68     		ldr	r5, [r5, #4]
 139 007e 7C40     		eors	r4, r7
 140              	.LVL20:
 141 0080 4F46     		mov	r7, r9
 142 0082 7D40     		eors	r5, r7
 143              	.LVL21:
 247:Source\mbedtls_open\library/gcm.c ****             zl ^= ctx->HL[lo];
 144              		.loc 1 247 0
 145 0084 0832     		adds	r2, r2, #8
 146              	.LVL22:
 147 0086 D200     		lsls	r2, r2, #3
 148              	.LVL23:
 149 0088 8218     		adds	r2, r0, r2
 150 008a 1768     		ldr	r7, [r2]
 151 008c 5268     		ldr	r2, [r2, #4]
 152 008e 7E40     		eors	r6, r7
ARM GAS  C:\Users\Phuong\AppData\Local\Temp\ccINfzqY.s 			page 8


 153              	.LVL24:
 154 0090 5340     		eors	r3, r2
 155              	.LVL25:
 156              	.L3:
 248:Source\mbedtls_open\library/gcm.c **** 
 249:Source\mbedtls_open\library/gcm.c ****         }
 250:Source\mbedtls_open\library/gcm.c **** 
 251:Source\mbedtls_open\library/gcm.c ****         rem = (unsigned char) zl & 0xf;
 157              		.loc 1 251 0 discriminator 2
 158 0092 0F22     		movs	r2, #15
 159              	.LVL26:
 160 0094 3240     		ands	r2, r6
 161              	.LVL27:
 252:Source\mbedtls_open\library/gcm.c ****         zl = ( zh << 60 ) | ( zl >> 4 );
 162              		.loc 1 252 0 discriminator 2
 163 0096 2707     		lsls	r7, r4, #28
 164 0098 B946     		mov	r9, r7
 165 009a 1F07     		lsls	r7, r3, #28
 166 009c 3609     		lsrs	r6, r6, #4
 167              	.LVL28:
 168 009e 3E43     		orrs	r6, r7
 169 00a0 1B09     		lsrs	r3, r3, #4
 170 00a2 4F46     		mov	r7, r9
 171 00a4 3B43     		orrs	r3, r7
 172              	.LVL29:
 253:Source\mbedtls_open\library/gcm.c ****         zh = ( zh >> 4 );
 173              		.loc 1 253 0 discriminator 2
 174 00a6 2F07     		lsls	r7, r5, #28
 175 00a8 2409     		lsrs	r4, r4, #4
 176              	.LVL30:
 177 00aa 3C43     		orrs	r4, r7
 178 00ac 2D09     		lsrs	r5, r5, #4
 179              	.LVL31:
 254:Source\mbedtls_open\library/gcm.c ****         zh ^= (uint64_t) last4[rem] << 48;
 180              		.loc 1 254 0 discriminator 2
 181 00ae D200     		lsls	r2, r2, #3
 182              	.LVL32:
 183 00b0 1E4F     		ldr	r7, .L5
 184 00b2 BA58     		ldr	r2, [r7, r2]
 185 00b4 1204     		lsls	r2, r2, #16
 186 00b6 5540     		eors	r5, r2
 187              	.LVL33:
 255:Source\mbedtls_open\library/gcm.c ****         zh ^= ctx->HH[hi];
 188              		.loc 1 255 0 discriminator 2
 189 00b8 019A     		ldr	r2, [sp, #4]
 190 00ba 1832     		adds	r2, r2, #24
 191 00bc D200     		lsls	r2, r2, #3
 192 00be 8218     		adds	r2, r0, r2
 193 00c0 1768     		ldr	r7, [r2]
 194 00c2 5268     		ldr	r2, [r2, #4]
 195 00c4 7C40     		eors	r4, r7
 196              	.LVL34:
 197 00c6 5540     		eors	r5, r2
 198              	.LVL35:
 256:Source\mbedtls_open\library/gcm.c ****         zl ^= ctx->HL[hi];
 199              		.loc 1 256 0 discriminator 2
 200 00c8 019F     		ldr	r7, [sp, #4]
ARM GAS  C:\Users\Phuong\AppData\Local\Temp\ccINfzqY.s 			page 9


 201 00ca 0837     		adds	r7, r7, #8
 202 00cc FF00     		lsls	r7, r7, #3
 203 00ce C719     		adds	r7, r0, r7
 204 00d0 3A68     		ldr	r2, [r7]
 205 00d2 9146     		mov	r9, r2
 206 00d4 7A68     		ldr	r2, [r7, #4]
 207 00d6 4F46     		mov	r7, r9
 208 00d8 7E40     		eors	r6, r7
 209              	.LVL36:
 210 00da 5340     		eors	r3, r2
 211              	.LVL37:
 235:Source\mbedtls_open\library/gcm.c ****     {
 212              		.loc 1 235 0 discriminator 2
 213 00dc 0139     		subs	r1, r1, #1
 214              	.LVL38:
 215              	.L2:
 235:Source\mbedtls_open\library/gcm.c ****     {
 216              		.loc 1 235 0 is_stmt 0 discriminator 1
 217 00de 0029     		cmp	r1, #0
 218 00e0 A7DA     		bge	.L4
 257:Source\mbedtls_open\library/gcm.c ****     }
 258:Source\mbedtls_open\library/gcm.c **** 
 259:Source\mbedtls_open\library/gcm.c ****     PUT_UINT32_BE( zh >> 32, output, 0 );
 219              		.loc 1 259 0 is_stmt 1
 220 00e2 2A0E     		lsrs	r2, r5, #24
 221 00e4 4146     		mov	r1, r8
 222              	.LVL39:
 223 00e6 0A70     		strb	r2, [r1]
 224 00e8 2A0C     		lsrs	r2, r5, #16
 225 00ea 4A70     		strb	r2, [r1, #1]
 226 00ec 2A0A     		lsrs	r2, r5, #8
 227 00ee 8A70     		strb	r2, [r1, #2]
 228 00f0 CD70     		strb	r5, [r1, #3]
 260:Source\mbedtls_open\library/gcm.c ****     PUT_UINT32_BE( zh, output, 4 );
 229              		.loc 1 260 0
 230 00f2 220E     		lsrs	r2, r4, #24
 231 00f4 0A71     		strb	r2, [r1, #4]
 232 00f6 220C     		lsrs	r2, r4, #16
 233 00f8 4A71     		strb	r2, [r1, #5]
 234 00fa 220A     		lsrs	r2, r4, #8
 235 00fc 8A71     		strb	r2, [r1, #6]
 236 00fe CC71     		strb	r4, [r1, #7]
 261:Source\mbedtls_open\library/gcm.c ****     PUT_UINT32_BE( zl >> 32, output, 8 );
 237              		.loc 1 261 0
 238 0100 1A0E     		lsrs	r2, r3, #24
 239 0102 0A72     		strb	r2, [r1, #8]
 240 0104 1A0C     		lsrs	r2, r3, #16
 241 0106 4A72     		strb	r2, [r1, #9]
 242 0108 1A0A     		lsrs	r2, r3, #8
 243 010a 8A72     		strb	r2, [r1, #10]
 244 010c CB72     		strb	r3, [r1, #11]
 262:Source\mbedtls_open\library/gcm.c ****     PUT_UINT32_BE( zl, output, 12 );
 245              		.loc 1 262 0
 246 010e 330E     		lsrs	r3, r6, #24
 247              	.LVL40:
 248 0110 0B73     		strb	r3, [r1, #12]
 249 0112 330C     		lsrs	r3, r6, #16
ARM GAS  C:\Users\Phuong\AppData\Local\Temp\ccINfzqY.s 			page 10


 250 0114 4B73     		strb	r3, [r1, #13]
 251 0116 330A     		lsrs	r3, r6, #8
 252 0118 8B73     		strb	r3, [r1, #14]
 253 011a CE73     		strb	r6, [r1, #15]
 263:Source\mbedtls_open\library/gcm.c **** }
 254              		.loc 1 263 0
 255 011c 03B0     		add	sp, sp, #12
 256              		@ sp needed
 257              	.LVL41:
 258              	.LVL42:
 259 011e 3CBC     		pop	{r2, r3, r4, r5}
 260 0120 9046     		mov	r8, r2
 261 0122 9946     		mov	r9, r3
 262 0124 A246     		mov	r10, r4
 263 0126 AB46     		mov	fp, r5
 264 0128 F0BD     		pop	{r4, r5, r6, r7, pc}
 265              	.L6:
 266 012a C046     		.align	2
 267              	.L5:
 268 012c 00000000 		.word	.LANCHOR0
 269              		.cfi_endproc
 270              	.LFE11:
 271              		.size	gcm_mult, .-gcm_mult
 272              		.section	.text.gcm_gen_table,"ax",%progbits
 273              		.align	2
 274              		.code	16
 275              		.thumb_func
 276              		.type	gcm_gen_table, %function
 277              	gcm_gen_table:
 278              	.LFB9:
 101:Source\mbedtls_open\library/gcm.c ****     int ret, i, j;
 279              		.loc 1 101 0
 280              		.cfi_startproc
 281              		@ args = 0, pretend = 0, frame = 40
 282              		@ frame_needed = 0, uses_anonymous_args = 0
 283              	.LVL43:
 284 0000 F0B5     		push	{r4, r5, r6, r7, lr}
 285              		.cfi_def_cfa_offset 20
 286              		.cfi_offset 4, -20
 287              		.cfi_offset 5, -16
 288              		.cfi_offset 6, -12
 289              		.cfi_offset 7, -8
 290              		.cfi_offset 14, -4
 291 0002 5F46     		mov	r7, fp
 292 0004 5646     		mov	r6, r10
 293 0006 4D46     		mov	r5, r9
 294 0008 4446     		mov	r4, r8
 295 000a F0B4     		push	{r4, r5, r6, r7}
 296              		.cfi_def_cfa_offset 36
 297              		.cfi_offset 8, -36
 298              		.cfi_offset 9, -32
 299              		.cfi_offset 10, -28
 300              		.cfi_offset 11, -24
 301 000c 8DB0     		sub	sp, sp, #52
 302              		.cfi_def_cfa_offset 88
 303 000e 0400     		movs	r4, r0
 106:Source\mbedtls_open\library/gcm.c **** 
ARM GAS  C:\Users\Phuong\AppData\Local\Temp\ccINfzqY.s 			page 11


 304              		.loc 1 106 0
 305 0010 0023     		movs	r3, #0
 306 0012 0793     		str	r3, [sp, #28]
 108:Source\mbedtls_open\library/gcm.c ****     if( ( ret = mbedtls_cipher_update( &ctx->cipher_ctx, h, 16, h, &olen ) ) != 0 )
 307              		.loc 1 108 0
 308 0014 1022     		movs	r2, #16
 309 0016 0021     		movs	r1, #0
 310 0018 08A8     		add	r0, sp, #32
 311              	.LVL44:
 312 001a FFF7FEFF 		bl	memset
 313              	.LVL45:
 109:Source\mbedtls_open\library/gcm.c ****         return( ret );
 314              		.loc 1 109 0
 315 001e 07AB     		add	r3, sp, #28
 316 0020 0093     		str	r3, [sp]
 317 0022 08AB     		add	r3, sp, #32
 318 0024 1022     		movs	r2, #16
 319 0026 1900     		movs	r1, r3
 320 0028 2000     		movs	r0, r4
 321 002a FFF7FEFF 		bl	mbedtls_cipher_update
 322              	.LVL46:
 323 002e 0028     		cmp	r0, #0
 324 0030 00D0     		beq	.LCB344
 325 0032 A5E0     		b	.L8	@long jump
 326              	.LCB344:
 113:Source\mbedtls_open\library/gcm.c ****     GET_UINT32_BE( lo, h,  4  );
 327              		.loc 1 113 0
 328 0034 08AB     		add	r3, sp, #32
 329 0036 1E78     		ldrb	r6, [r3]
 330 0038 3606     		lsls	r6, r6, #24
 331 003a 5A78     		ldrb	r2, [r3, #1]
 332 003c 1204     		lsls	r2, r2, #16
 333 003e 1643     		orrs	r6, r2
 334 0040 9A78     		ldrb	r2, [r3, #2]
 335 0042 1202     		lsls	r2, r2, #8
 336 0044 1643     		orrs	r6, r2
 337 0046 DA78     		ldrb	r2, [r3, #3]
 338 0048 1643     		orrs	r6, r2
 339              	.LVL47:
 114:Source\mbedtls_open\library/gcm.c ****     vh = (uint64_t) hi << 32 | lo;
 340              		.loc 1 114 0
 341 004a 1F79     		ldrb	r7, [r3, #4]
 342 004c 3F06     		lsls	r7, r7, #24
 343 004e 5A79     		ldrb	r2, [r3, #5]
 344 0050 1204     		lsls	r2, r2, #16
 345 0052 1743     		orrs	r7, r2
 346 0054 9A79     		ldrb	r2, [r3, #6]
 347 0056 1202     		lsls	r2, r2, #8
 348 0058 1743     		orrs	r7, r2
 349 005a DA79     		ldrb	r2, [r3, #7]
 350 005c 1743     		orrs	r7, r2
 351              	.LVL48:
 115:Source\mbedtls_open\library/gcm.c **** 
 352              		.loc 1 115 0
 353 005e 3D00     		movs	r5, r7
 354 0060 3100     		movs	r1, r6
 355              	.LVL49:
ARM GAS  C:\Users\Phuong\AppData\Local\Temp\ccINfzqY.s 			page 12


 117:Source\mbedtls_open\library/gcm.c ****     GET_UINT32_BE( lo, h,  12 );
 356              		.loc 1 117 0
 357 0062 1A7A     		ldrb	r2, [r3, #8]
 358 0064 1006     		lsls	r0, r2, #24
 359              	.LVL50:
 360 0066 5A7A     		ldrb	r2, [r3, #9]
 361 0068 1204     		lsls	r2, r2, #16
 362 006a 0243     		orrs	r2, r0
 363 006c 987A     		ldrb	r0, [r3, #10]
 364 006e 0002     		lsls	r0, r0, #8
 365 0070 0243     		orrs	r2, r0
 366 0072 D87A     		ldrb	r0, [r3, #11]
 367 0074 0243     		orrs	r2, r0
 368 0076 9446     		mov	ip, r2
 369              	.LVL51:
 118:Source\mbedtls_open\library/gcm.c ****     vl = (uint64_t) hi << 32 | lo;
 370              		.loc 1 118 0
 371 0078 1A7B     		ldrb	r2, [r3, #12]
 372              	.LVL52:
 373 007a 1006     		lsls	r0, r2, #24
 374 007c 5A7B     		ldrb	r2, [r3, #13]
 375 007e 1204     		lsls	r2, r2, #16
 376 0080 0243     		orrs	r2, r0
 377 0082 987B     		ldrb	r0, [r3, #14]
 378 0084 0002     		lsls	r0, r0, #8
 379 0086 0243     		orrs	r2, r0
 380 0088 DB7B     		ldrb	r3, [r3, #15]
 381 008a 1343     		orrs	r3, r2
 382              	.LVL53:
 119:Source\mbedtls_open\library/gcm.c **** 
 383              		.loc 1 119 0
 384 008c 9946     		mov	r9, r3
 385 008e 6246     		mov	r2, ip
 386              	.LVL54:
 122:Source\mbedtls_open\library/gcm.c ****     ctx->HH[8] = vh;
 387              		.loc 1 122 0
 388 0090 8020     		movs	r0, #128
 389 0092 8046     		mov	r8, r0
 390 0094 A044     		add	r8, r8, r4
 391 0096 4046     		mov	r0, r8
 392 0098 0360     		str	r3, [r0]
 393 009a 4346     		mov	r3, r8
 394              	.LVL55:
 395 009c 5A60     		str	r2, [r3, #4]
 123:Source\mbedtls_open\library/gcm.c **** 
 396              		.loc 1 123 0
 397 009e 631C     		adds	r3, r4, #1
 398 00a0 FF33     		adds	r3, r3, #255
 399 00a2 1F60     		str	r7, [r3]
 400 00a4 5E60     		str	r6, [r3, #4]
 132:Source\mbedtls_open\library/gcm.c ****     ctx->HL[0] = 0;
 401              		.loc 1 132 0
 402 00a6 403B     		subs	r3, r3, #64
 403 00a8 0026     		movs	r6, #0
 404              	.LVL56:
 405 00aa 0027     		movs	r7, #0
 406              	.LVL57:
ARM GAS  C:\Users\Phuong\AppData\Local\Temp\ccINfzqY.s 			page 13


 407 00ac 1E60     		str	r6, [r3]
 408 00ae 5F60     		str	r7, [r3, #4]
 133:Source\mbedtls_open\library/gcm.c **** 
 409              		.loc 1 133 0
 410 00b0 2664     		str	r6, [r4, #64]
 411 00b2 6764     		str	r7, [r4, #68]
 412              	.LVL58:
 135:Source\mbedtls_open\library/gcm.c ****     {
 413              		.loc 1 135 0
 414 00b4 0436     		adds	r6, r6, #4
 415 00b6 21E0     		b	.L9
 416              	.LVL59:
 417              	.L10:
 418              	.LBB2:
 137:Source\mbedtls_open\library/gcm.c ****         vl  = ( vh << 63 ) | ( vl >> 1 );
 419              		.loc 1 137 0 discriminator 3
 420 00b8 0123     		movs	r3, #1
 421 00ba 4846     		mov	r0, r9
 422 00bc 0340     		ands	r3, r0
 423 00be 5F01     		lsls	r7, r3, #5
 424 00c0 DB1B     		subs	r3, r3, r7
 425 00c2 1B06     		lsls	r3, r3, #24
 426 00c4 9846     		mov	r8, r3
 427              	.LVL60:
 138:Source\mbedtls_open\library/gcm.c ****         vh  = ( vh >> 1 ) ^ ( (uint64_t) T << 32);
 428              		.loc 1 138 0 discriminator 3
 429 00c6 EB07     		lsls	r3, r5, #31
 430              	.LVL61:
 431 00c8 D707     		lsls	r7, r2, #31
 432 00ca 4008     		lsrs	r0, r0, #1
 433 00cc 3843     		orrs	r0, r7
 434 00ce 5208     		lsrs	r2, r2, #1
 435              	.LVL62:
 436 00d0 8146     		mov	r9, r0
 437 00d2 1A43     		orrs	r2, r3
 438              	.LVL63:
 139:Source\mbedtls_open\library/gcm.c **** 
 439              		.loc 1 139 0 discriminator 3
 440 00d4 CB07     		lsls	r3, r1, #31
 441 00d6 6F08     		lsrs	r7, r5, #1
 442 00d8 1F43     		orrs	r7, r3
 443 00da 4908     		lsrs	r1, r1, #1
 444              	.LVL64:
 445 00dc 3D00     		movs	r5, r7
 446 00de 4346     		mov	r3, r8
 447 00e0 5940     		eors	r1, r3
 448              	.LVL65:
 141:Source\mbedtls_open\library/gcm.c ****         ctx->HH[i] = vh;
 449              		.loc 1 141 0 discriminator 3
 450 00e2 3300     		movs	r3, r6
 451 00e4 0833     		adds	r3, r3, #8
 452 00e6 DB00     		lsls	r3, r3, #3
 453 00e8 E318     		adds	r3, r4, r3
 454 00ea 1860     		str	r0, [r3]
 455 00ec 5A60     		str	r2, [r3, #4]
 142:Source\mbedtls_open\library/gcm.c ****     }
 456              		.loc 1 142 0 discriminator 3
ARM GAS  C:\Users\Phuong\AppData\Local\Temp\ccINfzqY.s 			page 14


 457 00ee 3300     		movs	r3, r6
 458 00f0 1833     		adds	r3, r3, #24
 459 00f2 DB00     		lsls	r3, r3, #3
 460 00f4 E318     		adds	r3, r4, r3
 461 00f6 1F60     		str	r7, [r3]
 462 00f8 5960     		str	r1, [r3, #4]
 463              	.LBE2:
 135:Source\mbedtls_open\library/gcm.c ****     {
 464              		.loc 1 135 0 discriminator 3
 465 00fa 7610     		asrs	r6, r6, #1
 466              	.LVL66:
 467              	.L9:
 135:Source\mbedtls_open\library/gcm.c ****     {
 468              		.loc 1 135 0 is_stmt 0 discriminator 1
 469 00fc 002E     		cmp	r6, #0
 470 00fe DBDC     		bgt	.L10
 471 0100 0225     		movs	r5, #2
 472              	.LVL67:
 473 0102 3AE0     		b	.L11
 474              	.LVL68:
 475              	.L14:
 476              	.LBB3:
 147:Source\mbedtls_open\library/gcm.c ****         vh = *HiH;
 477              		.loc 1 147 0 is_stmt 1
 478 0104 2100     		movs	r1, r4
 479 0106 4031     		adds	r1, r1, #64
 480 0108 EB00     		lsls	r3, r5, #3
 481 010a CA18     		adds	r2, r1, r3
 482 010c 1100     		movs	r1, r2
 483 010e 0392     		str	r2, [sp, #12]
 484              	.LVL69:
 485 0110 2000     		movs	r0, r4
 486 0112 C030     		adds	r0, r0, #192
 487 0114 C318     		adds	r3, r0, r3
 488 0116 1A00     		movs	r2, r3
 489 0118 0493     		str	r3, [sp, #16]
 490              	.LVL70:
 148:Source\mbedtls_open\library/gcm.c ****         vl = *HiL;
 491              		.loc 1 148 0
 492 011a 1B68     		ldr	r3, [r3]
 493 011c 9846     		mov	r8, r3
 494 011e 5368     		ldr	r3, [r2, #4]
 495 0120 9C46     		mov	ip, r3
 496              	.LVL71:
 149:Source\mbedtls_open\library/gcm.c ****         for( j = 1; j < i; j++ )
 497              		.loc 1 149 0
 498 0122 0B68     		ldr	r3, [r1]
 499              	.LVL72:
 500 0124 0593     		str	r3, [sp, #20]
 501 0126 4B68     		ldr	r3, [r1, #4]
 502 0128 9946     		mov	r9, r3
 503              	.LVL73:
 150:Source\mbedtls_open\library/gcm.c ****         {
 504              		.loc 1 150 0
 505 012a 0122     		movs	r2, #1
 506              	.LVL74:
 507 012c 22E0     		b	.L12
ARM GAS  C:\Users\Phuong\AppData\Local\Temp\ccINfzqY.s 			page 15


 508              	.LVL75:
 509              	.L13:
 152:Source\mbedtls_open\library/gcm.c ****             HiL[j] = vl ^ ctx->HL[j];
 510              		.loc 1 152 0 discriminator 3
 511 012e D600     		lsls	r6, r2, #3
 512 0130 049B     		ldr	r3, [sp, #16]
 513 0132 9F19     		adds	r7, r3, r6
 514 0134 1300     		movs	r3, r2
 515 0136 1833     		adds	r3, r3, #24
 516 0138 DB00     		lsls	r3, r3, #3
 517 013a E318     		adds	r3, r4, r3
 518 013c 1968     		ldr	r1, [r3]
 519 013e 5B68     		ldr	r3, [r3, #4]
 520 0140 4046     		mov	r0, r8
 521 0142 4140     		eors	r1, r0
 522 0144 8B46     		mov	fp, r1
 523 0146 6146     		mov	r1, ip
 524 0148 4B40     		eors	r3, r1
 525 014a 5946     		mov	r1, fp
 526 014c 3960     		str	r1, [r7]
 527 014e 7B60     		str	r3, [r7, #4]
 153:Source\mbedtls_open\library/gcm.c ****         }
 528              		.loc 1 153 0 discriminator 3
 529 0150 039B     		ldr	r3, [sp, #12]
 530 0152 9A46     		mov	r10, r3
 531 0154 5644     		add	r6, r6, r10
 532 0156 1300     		movs	r3, r2
 533 0158 0833     		adds	r3, r3, #8
 534 015a DB00     		lsls	r3, r3, #3
 535 015c E318     		adds	r3, r4, r3
 536 015e 1968     		ldr	r1, [r3]
 537 0160 5B68     		ldr	r3, [r3, #4]
 538 0162 0598     		ldr	r0, [sp, #20]
 539 0164 4140     		eors	r1, r0
 540 0166 8A46     		mov	r10, r1
 541 0168 4946     		mov	r1, r9
 542 016a 4B40     		eors	r3, r1
 543 016c 5146     		mov	r1, r10
 544 016e 3160     		str	r1, [r6]
 545 0170 7360     		str	r3, [r6, #4]
 150:Source\mbedtls_open\library/gcm.c ****         {
 546              		.loc 1 150 0 discriminator 3
 547 0172 0132     		adds	r2, r2, #1
 548              	.LVL76:
 549              	.L12:
 150:Source\mbedtls_open\library/gcm.c ****         {
 550              		.loc 1 150 0 is_stmt 0 discriminator 1
 551 0174 9542     		cmp	r5, r2
 552 0176 DADC     		bgt	.L13
 553              	.LBE3:
 145:Source\mbedtls_open\library/gcm.c ****     {
 554              		.loc 1 145 0 is_stmt 1 discriminator 2
 555 0178 6D00     		lsls	r5, r5, #1
 556              	.LVL77:
 557              	.L11:
 145:Source\mbedtls_open\library/gcm.c ****     {
 558              		.loc 1 145 0 is_stmt 0 discriminator 1
ARM GAS  C:\Users\Phuong\AppData\Local\Temp\ccINfzqY.s 			page 16


 559 017a 082D     		cmp	r5, #8
 560 017c C2DD     		ble	.L14
 157:Source\mbedtls_open\library/gcm.c **** }
 561              		.loc 1 157 0 is_stmt 1
 562 017e 0020     		movs	r0, #0
 563              	.LVL78:
 564              	.L8:
 158:Source\mbedtls_open\library/gcm.c **** 
 565              		.loc 1 158 0
 566 0180 0DB0     		add	sp, sp, #52
 567              		@ sp needed
 568              	.LVL79:
 569 0182 3CBC     		pop	{r2, r3, r4, r5}
 570 0184 9046     		mov	r8, r2
 571 0186 9946     		mov	r9, r3
 572 0188 A246     		mov	r10, r4
 573 018a AB46     		mov	fp, r5
 574 018c F0BD     		pop	{r4, r5, r6, r7, pc}
 575              		.cfi_endproc
 576              	.LFE9:
 577              		.size	gcm_gen_table, .-gcm_gen_table
 578 018e C046     		.section	.text.mbedtls_gcm_init,"ax",%progbits
 579              		.align	2
 580              		.global	mbedtls_gcm_init
 581              		.code	16
 582              		.thumb_func
 583              		.type	mbedtls_gcm_init, %function
 584              	mbedtls_gcm_init:
 585              	.LFB8:
  88:Source\mbedtls_open\library/gcm.c ****     memset( ctx, 0, sizeof( mbedtls_gcm_context ) );
 586              		.loc 1 88 0
 587              		.cfi_startproc
 588              		@ args = 0, pretend = 0, frame = 0
 589              		@ frame_needed = 0, uses_anonymous_args = 0
 590              	.LVL80:
 591 0000 10B5     		push	{r4, lr}
 592              		.cfi_def_cfa_offset 8
 593              		.cfi_offset 4, -8
 594              		.cfi_offset 14, -4
  89:Source\mbedtls_open\library/gcm.c **** }
 595              		.loc 1 89 0
 596 0002 C422     		movs	r2, #196
 597 0004 5200     		lsls	r2, r2, #1
 598 0006 0021     		movs	r1, #0
 599 0008 FFF7FEFF 		bl	memset
 600              	.LVL81:
  90:Source\mbedtls_open\library/gcm.c **** 
 601              		.loc 1 90 0
 602              		@ sp needed
 603 000c 10BD     		pop	{r4, pc}
 604              		.cfi_endproc
 605              	.LFE8:
 606              		.size	mbedtls_gcm_init, .-mbedtls_gcm_init
 607 000e C046     		.section	.text.mbedtls_gcm_setkey,"ax",%progbits
 608              		.align	2
 609              		.global	mbedtls_gcm_setkey
 610              		.code	16
ARM GAS  C:\Users\Phuong\AppData\Local\Temp\ccINfzqY.s 			page 17


 611              		.thumb_func
 612              		.type	mbedtls_gcm_setkey, %function
 613              	mbedtls_gcm_setkey:
 614              	.LFB10:
 164:Source\mbedtls_open\library/gcm.c ****     int ret;
 615              		.loc 1 164 0
 616              		.cfi_startproc
 617              		@ args = 0, pretend = 0, frame = 0
 618              		@ frame_needed = 0, uses_anonymous_args = 0
 619              	.LVL82:
 620 0000 F8B5     		push	{r3, r4, r5, r6, r7, lr}
 621              		.cfi_def_cfa_offset 24
 622              		.cfi_offset 3, -24
 623              		.cfi_offset 4, -20
 624              		.cfi_offset 5, -16
 625              		.cfi_offset 6, -12
 626              		.cfi_offset 7, -8
 627              		.cfi_offset 14, -4
 628 0002 0400     		movs	r4, r0
 629 0004 0800     		movs	r0, r1
 630              	.LVL83:
 631 0006 1600     		movs	r6, r2
 632 0008 1D00     		movs	r5, r3
 168:Source\mbedtls_open\library/gcm.c ****     if( cipher_info == NULL )
 633              		.loc 1 168 0
 634 000a 0122     		movs	r2, #1
 635              	.LVL84:
 636 000c 1900     		movs	r1, r3
 637              	.LVL85:
 638 000e FFF7FEFF 		bl	mbedtls_cipher_info_from_values
 639              	.LVL86:
 640 0012 071E     		subs	r7, r0, #0
 641              	.LVL87:
 169:Source\mbedtls_open\library/gcm.c ****         return( MBEDTLS_ERR_GCM_BAD_INPUT );
 642              		.loc 1 169 0
 643 0014 17D0     		beq	.L19
 172:Source\mbedtls_open\library/gcm.c ****         return( MBEDTLS_ERR_GCM_BAD_INPUT );
 644              		.loc 1 172 0
 645 0016 4369     		ldr	r3, [r0, #20]
 646 0018 102B     		cmp	r3, #16
 647 001a 17D1     		bne	.L20
 175:Source\mbedtls_open\library/gcm.c **** 
 648              		.loc 1 175 0
 649 001c 2000     		movs	r0, r4
 650              	.LVL88:
 651 001e FFF7FEFF 		bl	mbedtls_cipher_free
 652              	.LVL89:
 177:Source\mbedtls_open\library/gcm.c ****         return( ret );
 653              		.loc 1 177 0
 654 0022 3900     		movs	r1, r7
 655 0024 2000     		movs	r0, r4
 656 0026 FFF7FEFF 		bl	mbedtls_cipher_setup
 657              	.LVL90:
 658 002a 0028     		cmp	r0, #0
 659 002c 10D1     		bne	.L18
 180:Source\mbedtls_open\library/gcm.c ****                                MBEDTLS_ENCRYPT ) ) != 0 )
 660              		.loc 1 180 0
ARM GAS  C:\Users\Phuong\AppData\Local\Temp\ccINfzqY.s 			page 18


 661 002e 0123     		movs	r3, #1
 662 0030 2A00     		movs	r2, r5
 663 0032 3100     		movs	r1, r6
 664 0034 2000     		movs	r0, r4
 665              	.LVL91:
 666 0036 FFF7FEFF 		bl	mbedtls_cipher_setkey
 667              	.LVL92:
 668 003a 0028     		cmp	r0, #0
 669 003c 08D1     		bne	.L18
 186:Source\mbedtls_open\library/gcm.c ****         return( ret );
 670              		.loc 1 186 0
 671 003e 2000     		movs	r0, r4
 672              	.LVL93:
 673 0040 FFF7FEFF 		bl	gcm_gen_table
 674              	.LVL94:
 675 0044 04E0     		b	.L18
 676              	.LVL95:
 677              	.L19:
 170:Source\mbedtls_open\library/gcm.c **** 
 678              		.loc 1 170 0
 679 0046 1420     		movs	r0, #20
 680              	.LVL96:
 681 0048 4042     		rsbs	r0, r0, #0
 682 004a 01E0     		b	.L18
 683              	.LVL97:
 684              	.L20:
 173:Source\mbedtls_open\library/gcm.c **** 
 685              		.loc 1 173 0
 686 004c 1420     		movs	r0, #20
 687              	.LVL98:
 688 004e 4042     		rsbs	r0, r0, #0
 689              	.L18:
 190:Source\mbedtls_open\library/gcm.c **** 
 690              		.loc 1 190 0
 691              		@ sp needed
 692              	.LVL99:
 693              	.LVL100:
 694              	.LVL101:
 695              	.LVL102:
 696 0050 F8BD     		pop	{r3, r4, r5, r6, r7, pc}
 697              		.cfi_endproc
 698              	.LFE10:
 699              		.size	mbedtls_gcm_setkey, .-mbedtls_gcm_setkey
 700 0052 C046     		.section	.text.mbedtls_gcm_starts,"ax",%progbits
 701              		.align	2
 702              		.global	mbedtls_gcm_starts
 703              		.code	16
 704              		.thumb_func
 705              		.type	mbedtls_gcm_starts, %function
 706              	mbedtls_gcm_starts:
 707              	.LFB12:
 264:Source\mbedtls_open\library/gcm.c **** 
 265:Source\mbedtls_open\library/gcm.c **** int mbedtls_gcm_starts( mbedtls_gcm_context *ctx,
 266:Source\mbedtls_open\library/gcm.c ****                 int mode,
 267:Source\mbedtls_open\library/gcm.c ****                 const unsigned char *iv,
 268:Source\mbedtls_open\library/gcm.c ****                 size_t iv_len,
 269:Source\mbedtls_open\library/gcm.c ****                 const unsigned char *add,
ARM GAS  C:\Users\Phuong\AppData\Local\Temp\ccINfzqY.s 			page 19


 270:Source\mbedtls_open\library/gcm.c ****                 size_t add_len )
 271:Source\mbedtls_open\library/gcm.c **** {
 708              		.loc 1 271 0
 709              		.cfi_startproc
 710              		@ args = 8, pretend = 0, frame = 40
 711              		@ frame_needed = 0, uses_anonymous_args = 0
 712              	.LVL103:
 713 0000 F0B5     		push	{r4, r5, r6, r7, lr}
 714              		.cfi_def_cfa_offset 20
 715              		.cfi_offset 4, -20
 716              		.cfi_offset 5, -16
 717              		.cfi_offset 6, -12
 718              		.cfi_offset 7, -8
 719              		.cfi_offset 14, -4
 720 0002 5F46     		mov	r7, fp
 721 0004 4646     		mov	r6, r8
 722 0006 C0B4     		push	{r6, r7}
 723              		.cfi_def_cfa_offset 28
 724              		.cfi_offset 8, -28
 725              		.cfi_offset 11, -24
 726 0008 8DB0     		sub	sp, sp, #52
 727              		.cfi_def_cfa_offset 80
 728 000a 0400     		movs	r4, r0
 729 000c 0F00     		movs	r7, r1
 730 000e 1500     		movs	r5, r2
 731 0010 9846     		mov	r8, r3
 732 0012 149E     		ldr	r6, [sp, #80]
 733 0014 159B     		ldr	r3, [sp, #84]
 734              	.LVL104:
 735 0016 9B46     		mov	fp, r3
 272:Source\mbedtls_open\library/gcm.c ****     int ret;
 273:Source\mbedtls_open\library/gcm.c ****     unsigned char work_buf[16];
 274:Source\mbedtls_open\library/gcm.c ****     size_t i;
 275:Source\mbedtls_open\library/gcm.c ****     const unsigned char *p;
 276:Source\mbedtls_open\library/gcm.c ****     size_t use_len, olen = 0;
 736              		.loc 1 276 0
 737 0018 0023     		movs	r3, #0
 738 001a 0793     		str	r3, [sp, #28]
 277:Source\mbedtls_open\library/gcm.c **** 
 278:Source\mbedtls_open\library/gcm.c ****     /* IV and AD are limited to 2^64 bits, so 2^61 bytes */
 279:Source\mbedtls_open\library/gcm.c ****     /* IV is not allowed to be zero length */
 280:Source\mbedtls_open\library/gcm.c ****     if( iv_len == 0 ||
 739              		.loc 1 280 0
 740 001c 4346     		mov	r3, r8
 741 001e 002B     		cmp	r3, #0
 742 0020 00D1     		bne	.LCB772
 743 0022 A2E0     		b	.L40	@long jump
 744              	.LCB772:
 281:Source\mbedtls_open\library/gcm.c ****       ( (uint64_t) iv_len  ) >> 61 != 0 ||
 282:Source\mbedtls_open\library/gcm.c ****       ( (uint64_t) add_len ) >> 61 != 0 )
 745              		.loc 1 282 0
 746 0024 5B46     		mov	r3, fp
 747 0026 0593     		str	r3, [sp, #20]
 283:Source\mbedtls_open\library/gcm.c ****     {
 284:Source\mbedtls_open\library/gcm.c ****         return( MBEDTLS_ERR_GCM_BAD_INPUT );
 285:Source\mbedtls_open\library/gcm.c ****     }
 286:Source\mbedtls_open\library/gcm.c **** 
ARM GAS  C:\Users\Phuong\AppData\Local\Temp\ccINfzqY.s 			page 20


 287:Source\mbedtls_open\library/gcm.c ****     memset( ctx->y, 0x00, sizeof(ctx->y) );
 748              		.loc 1 287 0
 749 0028 B023     		movs	r3, #176
 750 002a 5B00     		lsls	r3, r3, #1
 751 002c 9C46     		mov	ip, r3
 752 002e 8444     		add	ip, ip, r0
 753 0030 6346     		mov	r3, ip
 754 0032 0393     		str	r3, [sp, #12]
 755 0034 1022     		movs	r2, #16
 756              	.LVL105:
 757 0036 0021     		movs	r1, #0
 758              	.LVL106:
 759 0038 6046     		mov	r0, ip
 760              	.LVL107:
 761 003a FFF7FEFF 		bl	memset
 762              	.LVL108:
 288:Source\mbedtls_open\library/gcm.c ****     memset( ctx->buf, 0x00, sizeof(ctx->buf) );
 763              		.loc 1 288 0
 764 003e B823     		movs	r3, #184
 765 0040 5B00     		lsls	r3, r3, #1
 766 0042 9C46     		mov	ip, r3
 767 0044 A444     		add	ip, ip, r4
 768 0046 6346     		mov	r3, ip
 769 0048 0493     		str	r3, [sp, #16]
 770 004a 1022     		movs	r2, #16
 771 004c 0021     		movs	r1, #0
 772 004e 6046     		mov	r0, ip
 773 0050 FFF7FEFF 		bl	memset
 774              	.LVL109:
 289:Source\mbedtls_open\library/gcm.c **** 
 290:Source\mbedtls_open\library/gcm.c ****     ctx->mode = mode;
 775              		.loc 1 290 0
 776 0054 C023     		movs	r3, #192
 777 0056 5B00     		lsls	r3, r3, #1
 778 0058 E750     		str	r7, [r4, r3]
 291:Source\mbedtls_open\library/gcm.c ****     ctx->len = 0;
 779              		.loc 1 291 0
 780 005a 2300     		movs	r3, r4
 781 005c 4133     		adds	r3, r3, #65
 782 005e FF33     		adds	r3, r3, #255
 783 0060 0020     		movs	r0, #0
 784 0062 0021     		movs	r1, #0
 785 0064 1860     		str	r0, [r3]
 786 0066 5960     		str	r1, [r3, #4]
 292:Source\mbedtls_open\library/gcm.c ****     ctx->add_len = 0;
 787              		.loc 1 292 0
 788 0068 0833     		adds	r3, r3, #8
 789 006a 1860     		str	r0, [r3]
 790 006c 5960     		str	r1, [r3, #4]
 293:Source\mbedtls_open\library/gcm.c **** 
 294:Source\mbedtls_open\library/gcm.c ****     if( iv_len == 12 )
 791              		.loc 1 294 0
 792 006e 4346     		mov	r3, r8
 793 0070 0C2B     		cmp	r3, #12
 794 0072 09D1     		bne	.L26
 295:Source\mbedtls_open\library/gcm.c ****     {
 296:Source\mbedtls_open\library/gcm.c ****         memcpy( ctx->y, iv, iv_len );
ARM GAS  C:\Users\Phuong\AppData\Local\Temp\ccINfzqY.s 			page 21


 795              		.loc 1 296 0
 796 0074 4246     		mov	r2, r8
 797 0076 2900     		movs	r1, r5
 798 0078 0398     		ldr	r0, [sp, #12]
 799 007a FFF7FEFF 		bl	memcpy
 800              	.LVL110:
 297:Source\mbedtls_open\library/gcm.c ****         ctx->y[15] = 1;
 801              		.loc 1 297 0
 802 007e 0122     		movs	r2, #1
 803 0080 7023     		movs	r3, #112
 804 0082 FF33     		adds	r3, r3, #255
 805 0084 E254     		strb	r2, [r4, r3]
 806 0086 3EE0     		b	.L27
 807              	.LVL111:
 808              	.L26:
 298:Source\mbedtls_open\library/gcm.c ****     }
 299:Source\mbedtls_open\library/gcm.c ****     else
 300:Source\mbedtls_open\library/gcm.c ****     {
 301:Source\mbedtls_open\library/gcm.c ****         memset( work_buf, 0x00, 16 );
 809              		.loc 1 301 0
 810 0088 08AF     		add	r7, sp, #32
 811              	.LVL112:
 812 008a 1022     		movs	r2, #16
 813 008c 0021     		movs	r1, #0
 814 008e 3800     		movs	r0, r7
 815 0090 FFF7FEFF 		bl	memset
 816              	.LVL113:
 302:Source\mbedtls_open\library/gcm.c ****         PUT_UINT32_BE( iv_len * 8, work_buf, 12 );
 817              		.loc 1 302 0
 818 0094 4346     		mov	r3, r8
 819 0096 DB00     		lsls	r3, r3, #3
 820 0098 1A0E     		lsrs	r2, r3, #24
 821 009a 3A73     		strb	r2, [r7, #12]
 822 009c 1A0C     		lsrs	r2, r3, #16
 823 009e 7A73     		strb	r2, [r7, #13]
 824 00a0 1B0A     		lsrs	r3, r3, #8
 825 00a2 BB73     		strb	r3, [r7, #14]
 826 00a4 4346     		mov	r3, r8
 827 00a6 DB00     		lsls	r3, r3, #3
 828 00a8 FB73     		strb	r3, [r7, #15]
 829              	.LVL114:
 303:Source\mbedtls_open\library/gcm.c **** 
 304:Source\mbedtls_open\library/gcm.c ****         p = iv;
 305:Source\mbedtls_open\library/gcm.c ****         while( iv_len > 0 )
 830              		.loc 1 305 0
 831 00aa 18E0     		b	.L28
 832              	.LVL115:
 833              	.L32:
 306:Source\mbedtls_open\library/gcm.c ****         {
 307:Source\mbedtls_open\library/gcm.c ****             use_len = ( iv_len < 16 ) ? iv_len : 16;
 834              		.loc 1 307 0
 835 00ac 4746     		mov	r7, r8
 836 00ae 102F     		cmp	r7, #16
 837 00b0 00D9     		bls	.L29
 838 00b2 1027     		movs	r7, #16
 839              	.L29:
 840              	.LVL116:
ARM GAS  C:\Users\Phuong\AppData\Local\Temp\ccINfzqY.s 			page 22


 308:Source\mbedtls_open\library/gcm.c **** 
 309:Source\mbedtls_open\library/gcm.c ****             for( i = 0; i < use_len; i++ )
 841              		.loc 1 309 0
 842 00b4 0023     		movs	r3, #0
 843              	.LVL117:
 844 00b6 07E0     		b	.L30
 845              	.LVL118:
 846              	.L31:
 310:Source\mbedtls_open\library/gcm.c ****                 ctx->y[i] ^= p[i];
 847              		.loc 1 310 0 discriminator 3
 848 00b8 E85C     		ldrb	r0, [r5, r3]
 849 00ba E218     		adds	r2, r4, r3
 850 00bc 6132     		adds	r2, r2, #97
 851 00be FF32     		adds	r2, r2, #255
 852 00c0 1178     		ldrb	r1, [r2]
 853 00c2 4140     		eors	r1, r0
 854 00c4 1170     		strb	r1, [r2]
 309:Source\mbedtls_open\library/gcm.c ****                 ctx->y[i] ^= p[i];
 855              		.loc 1 309 0 discriminator 3
 856 00c6 0133     		adds	r3, r3, #1
 857              	.LVL119:
 858              	.L30:
 309:Source\mbedtls_open\library/gcm.c ****                 ctx->y[i] ^= p[i];
 859              		.loc 1 309 0 is_stmt 0 discriminator 1
 860 00c8 BB42     		cmp	r3, r7
 861 00ca F5D3     		bcc	.L31
 311:Source\mbedtls_open\library/gcm.c **** 
 312:Source\mbedtls_open\library/gcm.c ****             gcm_mult( ctx, ctx->y, ctx->y );
 862              		.loc 1 312 0 is_stmt 1
 863 00cc 0399     		ldr	r1, [sp, #12]
 864 00ce 0A00     		movs	r2, r1
 865 00d0 2000     		movs	r0, r4
 866 00d2 FFF7FEFF 		bl	gcm_mult
 867              	.LVL120:
 313:Source\mbedtls_open\library/gcm.c **** 
 314:Source\mbedtls_open\library/gcm.c ****             iv_len -= use_len;
 868              		.loc 1 314 0
 869 00d6 4346     		mov	r3, r8
 870 00d8 DB1B     		subs	r3, r3, r7
 871 00da 9846     		mov	r8, r3
 872              	.LVL121:
 315:Source\mbedtls_open\library/gcm.c ****             p += use_len;
 873              		.loc 1 315 0
 874 00dc ED19     		adds	r5, r5, r7
 875              	.LVL122:
 876              	.L28:
 305:Source\mbedtls_open\library/gcm.c ****         {
 877              		.loc 1 305 0
 878 00de 4346     		mov	r3, r8
 879 00e0 002B     		cmp	r3, #0
 880 00e2 E3D1     		bne	.L32
 881              	.LVL123:
 882 00e4 08E0     		b	.L33
 883              	.LVL124:
 884              	.L34:
 316:Source\mbedtls_open\library/gcm.c ****         }
 317:Source\mbedtls_open\library/gcm.c **** 
ARM GAS  C:\Users\Phuong\AppData\Local\Temp\ccINfzqY.s 			page 23


 318:Source\mbedtls_open\library/gcm.c ****         for( i = 0; i < 16; i++ )
 319:Source\mbedtls_open\library/gcm.c ****             ctx->y[i] ^= work_buf[i];
 885              		.loc 1 319 0 discriminator 3
 886 00e6 08AA     		add	r2, sp, #32
 887 00e8 D05C     		ldrb	r0, [r2, r3]
 888 00ea E218     		adds	r2, r4, r3
 889 00ec 6132     		adds	r2, r2, #97
 890 00ee FF32     		adds	r2, r2, #255
 891 00f0 1178     		ldrb	r1, [r2]
 892 00f2 4140     		eors	r1, r0
 893 00f4 1170     		strb	r1, [r2]
 318:Source\mbedtls_open\library/gcm.c ****             ctx->y[i] ^= work_buf[i];
 894              		.loc 1 318 0 discriminator 3
 895 00f6 0133     		adds	r3, r3, #1
 896              	.LVL125:
 897              	.L33:
 318:Source\mbedtls_open\library/gcm.c ****             ctx->y[i] ^= work_buf[i];
 898              		.loc 1 318 0 is_stmt 0 discriminator 1
 899 00f8 0F2B     		cmp	r3, #15
 900 00fa F4D9     		bls	.L34
 320:Source\mbedtls_open\library/gcm.c **** 
 321:Source\mbedtls_open\library/gcm.c ****         gcm_mult( ctx, ctx->y, ctx->y );
 901              		.loc 1 321 0 is_stmt 1
 902 00fc 0399     		ldr	r1, [sp, #12]
 903 00fe 0A00     		movs	r2, r1
 904 0100 2000     		movs	r0, r4
 905 0102 FFF7FEFF 		bl	gcm_mult
 906              	.LVL126:
 907              	.L27:
 322:Source\mbedtls_open\library/gcm.c ****     }
 323:Source\mbedtls_open\library/gcm.c **** 
 324:Source\mbedtls_open\library/gcm.c ****     if( ( ret = mbedtls_cipher_update( &ctx->cipher_ctx, ctx->y, 16, ctx->base_ectr,
 908              		.loc 1 324 0
 909 0106 2300     		movs	r3, r4
 910 0108 5133     		adds	r3, r3, #81
 911 010a FF33     		adds	r3, r3, #255
 912 010c 07AA     		add	r2, sp, #28
 913 010e 0092     		str	r2, [sp]
 914 0110 1022     		movs	r2, #16
 915 0112 0399     		ldr	r1, [sp, #12]
 916 0114 2000     		movs	r0, r4
 917 0116 FFF7FEFF 		bl	mbedtls_cipher_update
 918              	.LVL127:
 919 011a 0028     		cmp	r0, #0
 920 011c 27D1     		bne	.L25
 325:Source\mbedtls_open\library/gcm.c ****                              &olen ) ) != 0 )
 326:Source\mbedtls_open\library/gcm.c ****     {
 327:Source\mbedtls_open\library/gcm.c ****         return( ret );
 328:Source\mbedtls_open\library/gcm.c ****     }
 329:Source\mbedtls_open\library/gcm.c **** 
 330:Source\mbedtls_open\library/gcm.c ****     ctx->add_len = add_len;
 921              		.loc 1 330 0
 922 011e 2300     		movs	r3, r4
 923 0120 4933     		adds	r3, r3, #73
 924 0122 FF33     		adds	r3, r3, #255
 925 0124 059A     		ldr	r2, [sp, #20]
 926 0126 1A60     		str	r2, [r3]
ARM GAS  C:\Users\Phuong\AppData\Local\Temp\ccINfzqY.s 			page 24


 927 0128 0022     		movs	r2, #0
 928 012a 5A60     		str	r2, [r3, #4]
 929              	.LVL128:
 331:Source\mbedtls_open\library/gcm.c ****     p = add;
 332:Source\mbedtls_open\library/gcm.c ****     while( add_len > 0 )
 930              		.loc 1 332 0
 931 012c 18E0     		b	.L35
 932              	.LVL129:
 933              	.L39:
 333:Source\mbedtls_open\library/gcm.c ****     {
 334:Source\mbedtls_open\library/gcm.c ****         use_len = ( add_len < 16 ) ? add_len : 16;
 934              		.loc 1 334 0
 935 012e 5D46     		mov	r5, fp
 936 0130 102D     		cmp	r5, #16
 937 0132 00D9     		bls	.L36
 938 0134 1025     		movs	r5, #16
 939              	.L36:
 940              	.LVL130:
 335:Source\mbedtls_open\library/gcm.c **** 
 336:Source\mbedtls_open\library/gcm.c ****         for( i = 0; i < use_len; i++ )
 941              		.loc 1 336 0
 942 0136 0023     		movs	r3, #0
 943              	.LVL131:
 944 0138 07E0     		b	.L37
 945              	.LVL132:
 946              	.L38:
 337:Source\mbedtls_open\library/gcm.c ****             ctx->buf[i] ^= p[i];
 947              		.loc 1 337 0 discriminator 3
 948 013a F05C     		ldrb	r0, [r6, r3]
 949 013c E218     		adds	r2, r4, r3
 950 013e 7132     		adds	r2, r2, #113
 951 0140 FF32     		adds	r2, r2, #255
 952 0142 1178     		ldrb	r1, [r2]
 953 0144 4140     		eors	r1, r0
 954 0146 1170     		strb	r1, [r2]
 336:Source\mbedtls_open\library/gcm.c ****             ctx->buf[i] ^= p[i];
 955              		.loc 1 336 0 discriminator 3
 956 0148 0133     		adds	r3, r3, #1
 957              	.LVL133:
 958              	.L37:
 336:Source\mbedtls_open\library/gcm.c ****             ctx->buf[i] ^= p[i];
 959              		.loc 1 336 0 is_stmt 0 discriminator 1
 960 014a AB42     		cmp	r3, r5
 961 014c F5D3     		bcc	.L38
 338:Source\mbedtls_open\library/gcm.c **** 
 339:Source\mbedtls_open\library/gcm.c ****         gcm_mult( ctx, ctx->buf, ctx->buf );
 962              		.loc 1 339 0 is_stmt 1
 963 014e 0499     		ldr	r1, [sp, #16]
 964 0150 0A00     		movs	r2, r1
 965 0152 2000     		movs	r0, r4
 966 0154 FFF7FEFF 		bl	gcm_mult
 967              	.LVL134:
 340:Source\mbedtls_open\library/gcm.c **** 
 341:Source\mbedtls_open\library/gcm.c ****         add_len -= use_len;
 968              		.loc 1 341 0
 969 0158 5B46     		mov	r3, fp
 970 015a 5B1B     		subs	r3, r3, r5
ARM GAS  C:\Users\Phuong\AppData\Local\Temp\ccINfzqY.s 			page 25


 971 015c 9B46     		mov	fp, r3
 972              	.LVL135:
 342:Source\mbedtls_open\library/gcm.c ****         p += use_len;
 973              		.loc 1 342 0
 974 015e 7619     		adds	r6, r6, r5
 975              	.LVL136:
 976              	.L35:
 332:Source\mbedtls_open\library/gcm.c ****     {
 977              		.loc 1 332 0
 978 0160 5B46     		mov	r3, fp
 979 0162 002B     		cmp	r3, #0
 980 0164 E3D1     		bne	.L39
 343:Source\mbedtls_open\library/gcm.c ****     }
 344:Source\mbedtls_open\library/gcm.c **** 
 345:Source\mbedtls_open\library/gcm.c ****     return( 0 );
 981              		.loc 1 345 0
 982 0166 0020     		movs	r0, #0
 983 0168 01E0     		b	.L25
 984              	.LVL137:
 985              	.L40:
 284:Source\mbedtls_open\library/gcm.c ****     }
 986              		.loc 1 284 0
 987 016a 1420     		movs	r0, #20
 988              	.LVL138:
 989 016c 4042     		rsbs	r0, r0, #0
 990              	.LVL139:
 991              	.L25:
 346:Source\mbedtls_open\library/gcm.c **** }
 992              		.loc 1 346 0
 993 016e 0DB0     		add	sp, sp, #52
 994              		@ sp needed
 995              	.LVL140:
 996              	.LVL141:
 997 0170 0CBC     		pop	{r2, r3}
 998 0172 9046     		mov	r8, r2
 999 0174 9B46     		mov	fp, r3
 1000 0176 F0BD     		pop	{r4, r5, r6, r7, pc}
 1001              		.cfi_endproc
 1002              	.LFE12:
 1003              		.size	mbedtls_gcm_starts, .-mbedtls_gcm_starts
 1004              		.section	.text.mbedtls_gcm_update,"ax",%progbits
 1005              		.align	2
 1006              		.global	mbedtls_gcm_update
 1007              		.code	16
 1008              		.thumb_func
 1009              		.type	mbedtls_gcm_update, %function
 1010              	mbedtls_gcm_update:
 1011              	.LFB13:
 347:Source\mbedtls_open\library/gcm.c **** 
 348:Source\mbedtls_open\library/gcm.c **** int mbedtls_gcm_update( mbedtls_gcm_context *ctx,
 349:Source\mbedtls_open\library/gcm.c ****                 size_t length,
 350:Source\mbedtls_open\library/gcm.c ****                 const unsigned char *input,
 351:Source\mbedtls_open\library/gcm.c ****                 unsigned char *output )
 352:Source\mbedtls_open\library/gcm.c **** {
 1012              		.loc 1 352 0
 1013              		.cfi_startproc
 1014              		@ args = 0, pretend = 0, frame = 24
ARM GAS  C:\Users\Phuong\AppData\Local\Temp\ccINfzqY.s 			page 26


 1015              		@ frame_needed = 0, uses_anonymous_args = 0
 1016              	.LVL142:
 1017 0000 F0B5     		push	{r4, r5, r6, r7, lr}
 1018              		.cfi_def_cfa_offset 20
 1019              		.cfi_offset 4, -20
 1020              		.cfi_offset 5, -16
 1021              		.cfi_offset 6, -12
 1022              		.cfi_offset 7, -8
 1023              		.cfi_offset 14, -4
 1024 0002 4746     		mov	r7, r8
 1025 0004 80B4     		push	{r7}
 1026              		.cfi_def_cfa_offset 24
 1027              		.cfi_offset 8, -24
 1028 0006 88B0     		sub	sp, sp, #32
 1029              		.cfi_def_cfa_offset 56
 1030 0008 0400     		movs	r4, r0
 1031 000a 8846     		mov	r8, r1
 1032 000c 1500     		movs	r5, r2
 1033 000e 1E00     		movs	r6, r3
 1034              	.LVL143:
 353:Source\mbedtls_open\library/gcm.c ****     int ret;
 354:Source\mbedtls_open\library/gcm.c ****     unsigned char ectr[16];
 355:Source\mbedtls_open\library/gcm.c ****     size_t i;
 356:Source\mbedtls_open\library/gcm.c ****     const unsigned char *p;
 357:Source\mbedtls_open\library/gcm.c ****     unsigned char *out_p = output;
 358:Source\mbedtls_open\library/gcm.c ****     size_t use_len, olen = 0;
 1035              		.loc 1 358 0
 1036 0010 0023     		movs	r3, #0
 1037              	.LVL144:
 1038 0012 0393     		str	r3, [sp, #12]
 359:Source\mbedtls_open\library/gcm.c **** 
 360:Source\mbedtls_open\library/gcm.c ****     if( output > input && (size_t) ( output - input ) < length )
 1039              		.loc 1 360 0
 1040 0014 9642     		cmp	r6, r2
 1041 0016 02D9     		bls	.L45
 1042              		.loc 1 360 0 is_stmt 0 discriminator 1
 1043 0018 B31A     		subs	r3, r6, r2
 1044 001a 8B42     		cmp	r3, r1
 1045 001c 69D3     		bcc	.L59
 1046              	.L45:
 361:Source\mbedtls_open\library/gcm.c ****         return( MBEDTLS_ERR_GCM_BAD_INPUT );
 362:Source\mbedtls_open\library/gcm.c **** 
 363:Source\mbedtls_open\library/gcm.c ****     /* Total length is restricted to 2^39 - 256 bits, ie 2^36 - 2^5 bytes
 364:Source\mbedtls_open\library/gcm.c ****      * Also check for possible overflow */
 365:Source\mbedtls_open\library/gcm.c ****     if( ctx->len + length < ctx->len ||
 1047              		.loc 1 365 0 is_stmt 1
 1048 001e 2300     		movs	r3, r4
 1049 0020 4133     		adds	r3, r3, #65
 1050 0022 FF33     		adds	r3, r3, #255
 1051 0024 1868     		ldr	r0, [r3]
 1052 0026 5968     		ldr	r1, [r3, #4]
 1053              	.LVL145:
 1054 0028 4246     		mov	r2, r8
 1055              	.LVL146:
 1056 002a 0023     		movs	r3, #0
 1057 002c 1218     		adds	r2, r2, r0
 1058 002e 4B41     		adcs	r3, r3, r1
ARM GAS  C:\Users\Phuong\AppData\Local\Temp\ccINfzqY.s 			page 27


 1059 0030 9942     		cmp	r1, r3
 1060 0032 61D8     		bhi	.L60
 1061 0034 01D1     		bne	.L63
 1062 0036 9042     		cmp	r0, r2
 1063 0038 5ED8     		bhi	.L60
 1064              	.L63:
 1065              		.loc 1 365 0 is_stmt 0 discriminator 1
 1066 003a 0F2B     		cmp	r3, #15
 1067 003c 5FD8     		bhi	.L61
 1068 003e 02D1     		bne	.L64
 1069 0040 1100     		movs	r1, r2
 1070              	.LVL147:
 1071 0042 2031     		adds	r1, r1, #32
 1072 0044 5BD8     		bhi	.L61
 1073              	.L64:
 366:Source\mbedtls_open\library/gcm.c ****         (uint64_t) ctx->len + length > 0xFFFFFFFE0ull )
 367:Source\mbedtls_open\library/gcm.c ****     {
 368:Source\mbedtls_open\library/gcm.c ****         return( MBEDTLS_ERR_GCM_BAD_INPUT );
 369:Source\mbedtls_open\library/gcm.c ****     }
 370:Source\mbedtls_open\library/gcm.c **** 
 371:Source\mbedtls_open\library/gcm.c ****     ctx->len += length;
 1074              		.loc 1 371 0 is_stmt 1
 1075 0046 2100     		movs	r1, r4
 1076 0048 4131     		adds	r1, r1, #65
 1077 004a FF31     		adds	r1, r1, #255
 1078 004c 0A60     		str	r2, [r1]
 1079 004e 4B60     		str	r3, [r1, #4]
 1080              	.LVL148:
 372:Source\mbedtls_open\library/gcm.c **** 
 373:Source\mbedtls_open\library/gcm.c ****     p = input;
 374:Source\mbedtls_open\library/gcm.c ****     while( length > 0 )
 1081              		.loc 1 374 0
 1082 0050 4AE0     		b	.L49
 1083              	.LVL149:
 1084              	.L58:
 375:Source\mbedtls_open\library/gcm.c ****     {
 376:Source\mbedtls_open\library/gcm.c ****         use_len = ( length < 16 ) ? length : 16;
 1085              		.loc 1 376 0
 1086 0052 4746     		mov	r7, r8
 1087 0054 102F     		cmp	r7, #16
 1088 0056 00D9     		bls	.L50
 1089 0058 1027     		movs	r7, #16
 1090              	.L50:
 1091              	.LVL150:
 377:Source\mbedtls_open\library/gcm.c **** 
 378:Source\mbedtls_open\library/gcm.c ****         for( i = 16; i > 12; i-- )
 1092              		.loc 1 378 0
 1093 005a 1021     		movs	r1, #16
 1094 005c 09E0     		b	.L51
 1095              	.LVL151:
 1096              	.L53:
 379:Source\mbedtls_open\library/gcm.c ****             if( ++ctx->y[i - 1] != 0 )
 1097              		.loc 1 379 0
 1098 005e 0139     		subs	r1, r1, #1
 1099              	.LVL152:
 1100 0060 6218     		adds	r2, r4, r1
 1101 0062 6132     		adds	r2, r2, #97
ARM GAS  C:\Users\Phuong\AppData\Local\Temp\ccINfzqY.s 			page 28


 1102 0064 FF32     		adds	r2, r2, #255
 1103 0066 1378     		ldrb	r3, [r2]
 1104 0068 0133     		adds	r3, r3, #1
 1105 006a DBB2     		uxtb	r3, r3
 1106 006c 1370     		strb	r3, [r2]
 1107 006e 002B     		cmp	r3, #0
 1108 0070 01D1     		bne	.L52
 1109              	.LVL153:
 1110              	.L51:
 378:Source\mbedtls_open\library/gcm.c ****             if( ++ctx->y[i - 1] != 0 )
 1111              		.loc 1 378 0 discriminator 1
 1112 0072 0C29     		cmp	r1, #12
 1113 0074 F3D8     		bhi	.L53
 1114              	.LVL154:
 1115              	.L52:
 380:Source\mbedtls_open\library/gcm.c ****                 break;
 381:Source\mbedtls_open\library/gcm.c **** 
 382:Source\mbedtls_open\library/gcm.c ****         if( ( ret = mbedtls_cipher_update( &ctx->cipher_ctx, ctx->y, 16, ectr,
 1116              		.loc 1 382 0
 1117 0076 2100     		movs	r1, r4
 1118 0078 6131     		adds	r1, r1, #97
 1119 007a FF31     		adds	r1, r1, #255
 1120 007c 03AB     		add	r3, sp, #12
 1121 007e 0093     		str	r3, [sp]
 1122 0080 04AB     		add	r3, sp, #16
 1123 0082 1022     		movs	r2, #16
 1124 0084 2000     		movs	r0, r4
 1125 0086 FFF7FEFF 		bl	mbedtls_cipher_update
 1126              	.LVL155:
 1127 008a 0028     		cmp	r0, #0
 1128 008c 39D1     		bne	.L46
 1129 008e 0023     		movs	r3, #0
 1130 0090 1CE0     		b	.L54
 1131              	.LVL156:
 1132              	.L57:
 383:Source\mbedtls_open\library/gcm.c ****                                    &olen ) ) != 0 )
 384:Source\mbedtls_open\library/gcm.c ****         {
 385:Source\mbedtls_open\library/gcm.c ****             return( ret );
 386:Source\mbedtls_open\library/gcm.c ****         }
 387:Source\mbedtls_open\library/gcm.c **** 
 388:Source\mbedtls_open\library/gcm.c ****         for( i = 0; i < use_len; i++ )
 389:Source\mbedtls_open\library/gcm.c ****         {
 390:Source\mbedtls_open\library/gcm.c ****             if( ctx->mode == MBEDTLS_GCM_DECRYPT )
 1133              		.loc 1 390 0
 1134 0092 C022     		movs	r2, #192
 1135 0094 5200     		lsls	r2, r2, #1
 1136 0096 A258     		ldr	r2, [r4, r2]
 1137 0098 002A     		cmp	r2, #0
 1138 009a 06D1     		bne	.L55
 391:Source\mbedtls_open\library/gcm.c ****                 ctx->buf[i] ^= p[i];
 1139              		.loc 1 391 0
 1140 009c E85C     		ldrb	r0, [r5, r3]
 1141 009e E218     		adds	r2, r4, r3
 1142 00a0 7132     		adds	r2, r2, #113
 1143 00a2 FF32     		adds	r2, r2, #255
 1144 00a4 1178     		ldrb	r1, [r2]
 1145 00a6 4140     		eors	r1, r0
ARM GAS  C:\Users\Phuong\AppData\Local\Temp\ccINfzqY.s 			page 29


 1146 00a8 1170     		strb	r1, [r2]
 1147              	.L55:
 392:Source\mbedtls_open\library/gcm.c ****             out_p[i] = ectr[i] ^ p[i];
 1148              		.loc 1 392 0
 1149 00aa 04AA     		add	r2, sp, #16
 1150 00ac D15C     		ldrb	r1, [r2, r3]
 1151 00ae EA5C     		ldrb	r2, [r5, r3]
 1152 00b0 4A40     		eors	r2, r1
 1153 00b2 F254     		strb	r2, [r6, r3]
 393:Source\mbedtls_open\library/gcm.c ****             if( ctx->mode == MBEDTLS_GCM_ENCRYPT )
 1154              		.loc 1 393 0
 1155 00b4 C021     		movs	r1, #192
 1156 00b6 4900     		lsls	r1, r1, #1
 1157 00b8 6158     		ldr	r1, [r4, r1]
 1158 00ba 0129     		cmp	r1, #1
 1159 00bc 05D1     		bne	.L56
 394:Source\mbedtls_open\library/gcm.c ****                 ctx->buf[i] ^= out_p[i];
 1160              		.loc 1 394 0
 1161 00be E118     		adds	r1, r4, r3
 1162 00c0 7131     		adds	r1, r1, #113
 1163 00c2 FF31     		adds	r1, r1, #255
 1164 00c4 0878     		ldrb	r0, [r1]
 1165 00c6 4240     		eors	r2, r0
 1166 00c8 0A70     		strb	r2, [r1]
 1167              	.L56:
 388:Source\mbedtls_open\library/gcm.c ****         {
 1168              		.loc 1 388 0 discriminator 2
 1169 00ca 0133     		adds	r3, r3, #1
 1170              	.LVL157:
 1171              	.L54:
 388:Source\mbedtls_open\library/gcm.c ****         {
 1172              		.loc 1 388 0 is_stmt 0 discriminator 1
 1173 00cc BB42     		cmp	r3, r7
 1174 00ce E0D3     		bcc	.L57
 395:Source\mbedtls_open\library/gcm.c ****         }
 396:Source\mbedtls_open\library/gcm.c **** 
 397:Source\mbedtls_open\library/gcm.c ****         gcm_mult( ctx, ctx->buf, ctx->buf );
 1175              		.loc 1 397 0 is_stmt 1
 1176 00d0 2100     		movs	r1, r4
 1177 00d2 7131     		adds	r1, r1, #113
 1178 00d4 FF31     		adds	r1, r1, #255
 1179 00d6 0A00     		movs	r2, r1
 1180 00d8 2000     		movs	r0, r4
 1181 00da FFF7FEFF 		bl	gcm_mult
 1182              	.LVL158:
 398:Source\mbedtls_open\library/gcm.c **** 
 399:Source\mbedtls_open\library/gcm.c ****         length -= use_len;
 1183              		.loc 1 399 0
 1184 00de 4346     		mov	r3, r8
 1185 00e0 DB1B     		subs	r3, r3, r7
 1186 00e2 9846     		mov	r8, r3
 1187              	.LVL159:
 400:Source\mbedtls_open\library/gcm.c ****         p += use_len;
 1188              		.loc 1 400 0
 1189 00e4 ED19     		adds	r5, r5, r7
 1190              	.LVL160:
 401:Source\mbedtls_open\library/gcm.c ****         out_p += use_len;
ARM GAS  C:\Users\Phuong\AppData\Local\Temp\ccINfzqY.s 			page 30


 1191              		.loc 1 401 0
 1192 00e6 F619     		adds	r6, r6, r7
 1193              	.LVL161:
 1194              	.L49:
 374:Source\mbedtls_open\library/gcm.c ****     {
 1195              		.loc 1 374 0
 1196 00e8 4346     		mov	r3, r8
 1197 00ea 002B     		cmp	r3, #0
 1198 00ec B1D1     		bne	.L58
 1199              	.LVL162:
 402:Source\mbedtls_open\library/gcm.c ****     }
 403:Source\mbedtls_open\library/gcm.c **** 
 404:Source\mbedtls_open\library/gcm.c ****     return( 0 );
 1200              		.loc 1 404 0
 1201 00ee 0020     		movs	r0, #0
 1202 00f0 07E0     		b	.L46
 1203              	.LVL163:
 1204              	.L59:
 361:Source\mbedtls_open\library/gcm.c **** 
 1205              		.loc 1 361 0
 1206 00f2 1420     		movs	r0, #20
 1207              	.LVL164:
 1208 00f4 4042     		rsbs	r0, r0, #0
 1209 00f6 04E0     		b	.L46
 1210              	.LVL165:
 1211              	.L60:
 368:Source\mbedtls_open\library/gcm.c ****     }
 1212              		.loc 1 368 0
 1213 00f8 1420     		movs	r0, #20
 1214 00fa 4042     		rsbs	r0, r0, #0
 1215 00fc 01E0     		b	.L46
 1216              	.LVL166:
 1217              	.L61:
 1218 00fe 1420     		movs	r0, #20
 1219 0100 4042     		rsbs	r0, r0, #0
 1220              	.LVL167:
 1221              	.L46:
 405:Source\mbedtls_open\library/gcm.c **** }
 1222              		.loc 1 405 0
 1223 0102 08B0     		add	sp, sp, #32
 1224              		@ sp needed
 1225              	.LVL168:
 1226              	.LVL169:
 1227              	.LVL170:
 1228 0104 04BC     		pop	{r2}
 1229 0106 9046     		mov	r8, r2
 1230 0108 F0BD     		pop	{r4, r5, r6, r7, pc}
 1231              		.cfi_endproc
 1232              	.LFE13:
 1233              		.size	mbedtls_gcm_update, .-mbedtls_gcm_update
 1234 010a C046     		.section	.text.mbedtls_gcm_finish,"ax",%progbits
 1235              		.align	2
 1236              		.global	mbedtls_gcm_finish
 1237              		.code	16
 1238              		.thumb_func
 1239              		.type	mbedtls_gcm_finish, %function
 1240              	mbedtls_gcm_finish:
ARM GAS  C:\Users\Phuong\AppData\Local\Temp\ccINfzqY.s 			page 31


 1241              	.LFB14:
 406:Source\mbedtls_open\library/gcm.c **** 
 407:Source\mbedtls_open\library/gcm.c **** int mbedtls_gcm_finish( mbedtls_gcm_context *ctx,
 408:Source\mbedtls_open\library/gcm.c ****                 unsigned char *tag,
 409:Source\mbedtls_open\library/gcm.c ****                 size_t tag_len )
 410:Source\mbedtls_open\library/gcm.c **** {
 1242              		.loc 1 410 0
 1243              		.cfi_startproc
 1244              		@ args = 0, pretend = 0, frame = 16
 1245              		@ frame_needed = 0, uses_anonymous_args = 0
 1246              	.LVL171:
 1247 0000 F0B5     		push	{r4, r5, r6, r7, lr}
 1248              		.cfi_def_cfa_offset 20
 1249              		.cfi_offset 4, -20
 1250              		.cfi_offset 5, -16
 1251              		.cfi_offset 6, -12
 1252              		.cfi_offset 7, -8
 1253              		.cfi_offset 14, -4
 1254 0002 5746     		mov	r7, r10
 1255 0004 4E46     		mov	r6, r9
 1256 0006 4546     		mov	r5, r8
 1257 0008 E0B4     		push	{r5, r6, r7}
 1258              		.cfi_def_cfa_offset 32
 1259              		.cfi_offset 8, -32
 1260              		.cfi_offset 9, -28
 1261              		.cfi_offset 10, -24
 1262 000a 84B0     		sub	sp, sp, #16
 1263              		.cfi_def_cfa_offset 48
 1264 000c 0400     		movs	r4, r0
 1265 000e 0E00     		movs	r6, r1
 1266 0010 1500     		movs	r5, r2
 411:Source\mbedtls_open\library/gcm.c ****     unsigned char work_buf[16];
 412:Source\mbedtls_open\library/gcm.c ****     size_t i;
 413:Source\mbedtls_open\library/gcm.c ****     uint64_t orig_len = ctx->len * 8;
 1267              		.loc 1 413 0
 1268 0012 0200     		movs	r2, r0
 1269              	.LVL172:
 1270 0014 4132     		adds	r2, r2, #65
 1271 0016 FF32     		adds	r2, r2, #255
 1272 0018 1368     		ldr	r3, [r2]
 1273 001a 5768     		ldr	r7, [r2, #4]
 1274 001c 5A0F     		lsrs	r2, r3, #29
 1275 001e FF00     		lsls	r7, r7, #3
 1276 0020 1743     		orrs	r7, r2
 1277 0022 DB00     		lsls	r3, r3, #3
 1278 0024 9946     		mov	r9, r3
 1279              	.LVL173:
 414:Source\mbedtls_open\library/gcm.c ****     uint64_t orig_add_len = ctx->add_len * 8;
 1280              		.loc 1 414 0
 1281 0026 0200     		movs	r2, r0
 1282 0028 4932     		adds	r2, r2, #73
 1283 002a FF32     		adds	r2, r2, #255
 1284 002c 1368     		ldr	r3, [r2]
 1285              	.LVL174:
 1286 002e 5168     		ldr	r1, [r2, #4]
 1287              	.LVL175:
 1288 0030 5A0F     		lsrs	r2, r3, #29
ARM GAS  C:\Users\Phuong\AppData\Local\Temp\ccINfzqY.s 			page 32


 1289 0032 C900     		lsls	r1, r1, #3
 1290 0034 1143     		orrs	r1, r2
 1291 0036 8846     		mov	r8, r1
 1292 0038 DB00     		lsls	r3, r3, #3
 1293 003a 9A46     		mov	r10, r3
 1294              	.LVL176:
 415:Source\mbedtls_open\library/gcm.c **** 
 416:Source\mbedtls_open\library/gcm.c ****     if( tag_len > 16 || tag_len < 4 )
 1295              		.loc 1 416 0
 1296 003c 2B1F     		subs	r3, r5, #4
 1297              	.LVL177:
 1298 003e 0C2B     		cmp	r3, #12
 1299 0040 63D8     		bhi	.L72
 417:Source\mbedtls_open\library/gcm.c ****         return( MBEDTLS_ERR_GCM_BAD_INPUT );
 418:Source\mbedtls_open\library/gcm.c **** 
 419:Source\mbedtls_open\library/gcm.c ****     memcpy( tag, ctx->base_ectr, tag_len );
 1300              		.loc 1 419 0
 1301 0042 0100     		movs	r1, r0
 1302              	.LVL178:
 1303 0044 5131     		adds	r1, r1, #81
 1304 0046 FF31     		adds	r1, r1, #255
 1305 0048 2A00     		movs	r2, r5
 1306 004a 3000     		movs	r0, r6
 1307              	.LVL179:
 1308 004c FFF7FEFF 		bl	memcpy
 1309              	.LVL180:
 420:Source\mbedtls_open\library/gcm.c **** 
 421:Source\mbedtls_open\library/gcm.c ****     if( orig_len || orig_add_len )
 1310              		.loc 1 421 0
 1311 0050 4B46     		mov	r3, r9
 1312 0052 5246     		mov	r2, r10
 1313 0054 1343     		orrs	r3, r2
 1314 0056 4246     		mov	r2, r8
 1315 0058 3A43     		orrs	r2, r7
 1316 005a 1A43     		orrs	r2, r3
 1317 005c 58D0     		beq	.L73
 422:Source\mbedtls_open\library/gcm.c ****     {
 423:Source\mbedtls_open\library/gcm.c ****         memset( work_buf, 0x00, 16 );
 1318              		.loc 1 423 0
 1319 005e 1022     		movs	r2, #16
 1320 0060 0021     		movs	r1, #0
 1321 0062 6846     		mov	r0, sp
 1322 0064 FFF7FEFF 		bl	memset
 1323              	.LVL181:
 424:Source\mbedtls_open\library/gcm.c **** 
 425:Source\mbedtls_open\library/gcm.c ****         PUT_UINT32_BE( ( orig_add_len >> 32 ), work_buf, 0  );
 1324              		.loc 1 425 0
 1325 0068 4346     		mov	r3, r8
 1326 006a 1B0E     		lsrs	r3, r3, #24
 1327 006c 6A46     		mov	r2, sp
 1328 006e 1370     		strb	r3, [r2]
 1329 0070 4346     		mov	r3, r8
 1330 0072 1B0C     		lsrs	r3, r3, #16
 1331 0074 5370     		strb	r3, [r2, #1]
 1332 0076 4346     		mov	r3, r8
 1333 0078 1B0A     		lsrs	r3, r3, #8
 1334 007a 9370     		strb	r3, [r2, #2]
ARM GAS  C:\Users\Phuong\AppData\Local\Temp\ccINfzqY.s 			page 33


 1335 007c 6B46     		mov	r3, sp
 1336 007e 4246     		mov	r2, r8
 1337 0080 DA70     		strb	r2, [r3, #3]
 426:Source\mbedtls_open\library/gcm.c ****         PUT_UINT32_BE( ( orig_add_len       ), work_buf, 4  );
 1338              		.loc 1 426 0
 1339 0082 5346     		mov	r3, r10
 1340 0084 1B0E     		lsrs	r3, r3, #24
 1341 0086 6A46     		mov	r2, sp
 1342 0088 1371     		strb	r3, [r2, #4]
 1343 008a 5346     		mov	r3, r10
 1344 008c 1B0C     		lsrs	r3, r3, #16
 1345 008e 5371     		strb	r3, [r2, #5]
 1346 0090 5346     		mov	r3, r10
 1347 0092 1B0A     		lsrs	r3, r3, #8
 1348 0094 9371     		strb	r3, [r2, #6]
 1349 0096 6B46     		mov	r3, sp
 1350 0098 5246     		mov	r2, r10
 1351 009a DA71     		strb	r2, [r3, #7]
 427:Source\mbedtls_open\library/gcm.c ****         PUT_UINT32_BE( ( orig_len     >> 32 ), work_buf, 8  );
 1352              		.loc 1 427 0
 1353 009c 3B0E     		lsrs	r3, r7, #24
 1354 009e 6A46     		mov	r2, sp
 1355 00a0 1372     		strb	r3, [r2, #8]
 1356 00a2 3B0C     		lsrs	r3, r7, #16
 1357 00a4 5372     		strb	r3, [r2, #9]
 1358 00a6 3B0A     		lsrs	r3, r7, #8
 1359 00a8 9372     		strb	r3, [r2, #10]
 1360 00aa D772     		strb	r7, [r2, #11]
 428:Source\mbedtls_open\library/gcm.c ****         PUT_UINT32_BE( ( orig_len           ), work_buf, 12 );
 1361              		.loc 1 428 0
 1362 00ac 4B46     		mov	r3, r9
 1363 00ae 1B0E     		lsrs	r3, r3, #24
 1364 00b0 1373     		strb	r3, [r2, #12]
 1365 00b2 4B46     		mov	r3, r9
 1366 00b4 1B0C     		lsrs	r3, r3, #16
 1367 00b6 5373     		strb	r3, [r2, #13]
 1368 00b8 4B46     		mov	r3, r9
 1369 00ba 1B0A     		lsrs	r3, r3, #8
 1370 00bc 9373     		strb	r3, [r2, #14]
 1371 00be 6B46     		mov	r3, sp
 1372 00c0 4A46     		mov	r2, r9
 1373 00c2 DA73     		strb	r2, [r3, #15]
 1374              	.LVL182:
 429:Source\mbedtls_open\library/gcm.c **** 
 430:Source\mbedtls_open\library/gcm.c ****         for( i = 0; i < 16; i++ )
 1375              		.loc 1 430 0
 1376 00c4 0023     		movs	r3, #0
 1377 00c6 08E0     		b	.L68
 1378              	.LVL183:
 1379              	.L69:
 431:Source\mbedtls_open\library/gcm.c ****             ctx->buf[i] ^= work_buf[i];
 1380              		.loc 1 431 0 discriminator 3
 1381 00c8 6A46     		mov	r2, sp
 1382 00ca D05C     		ldrb	r0, [r2, r3]
 1383 00cc E218     		adds	r2, r4, r3
 1384 00ce 7132     		adds	r2, r2, #113
 1385 00d0 FF32     		adds	r2, r2, #255
ARM GAS  C:\Users\Phuong\AppData\Local\Temp\ccINfzqY.s 			page 34


 1386 00d2 1178     		ldrb	r1, [r2]
 1387 00d4 4140     		eors	r1, r0
 1388 00d6 1170     		strb	r1, [r2]
 430:Source\mbedtls_open\library/gcm.c ****             ctx->buf[i] ^= work_buf[i];
 1389              		.loc 1 430 0 discriminator 3
 1390 00d8 0133     		adds	r3, r3, #1
 1391              	.LVL184:
 1392              	.L68:
 430:Source\mbedtls_open\library/gcm.c ****             ctx->buf[i] ^= work_buf[i];
 1393              		.loc 1 430 0 is_stmt 0 discriminator 1
 1394 00da 0F2B     		cmp	r3, #15
 1395 00dc F4D9     		bls	.L69
 432:Source\mbedtls_open\library/gcm.c **** 
 433:Source\mbedtls_open\library/gcm.c ****         gcm_mult( ctx, ctx->buf, ctx->buf );
 1396              		.loc 1 433 0 is_stmt 1
 1397 00de 2100     		movs	r1, r4
 1398 00e0 7131     		adds	r1, r1, #113
 1399 00e2 FF31     		adds	r1, r1, #255
 1400 00e4 0A00     		movs	r2, r1
 1401 00e6 2000     		movs	r0, r4
 1402 00e8 FFF7FEFF 		bl	gcm_mult
 1403              	.LVL185:
 434:Source\mbedtls_open\library/gcm.c **** 
 435:Source\mbedtls_open\library/gcm.c ****         for( i = 0; i < tag_len; i++ )
 1404              		.loc 1 435 0
 1405 00ec 0023     		movs	r3, #0
 1406 00ee 08E0     		b	.L70
 1407              	.LVL186:
 1408              	.L71:
 436:Source\mbedtls_open\library/gcm.c ****             tag[i] ^= ctx->buf[i];
 1409              		.loc 1 436 0 discriminator 3
 1410 00f0 F118     		adds	r1, r6, r3
 1411 00f2 E218     		adds	r2, r4, r3
 1412 00f4 7132     		adds	r2, r2, #113
 1413 00f6 FF32     		adds	r2, r2, #255
 1414 00f8 1078     		ldrb	r0, [r2]
 1415 00fa 0A78     		ldrb	r2, [r1]
 1416 00fc 4240     		eors	r2, r0
 1417 00fe 0A70     		strb	r2, [r1]
 435:Source\mbedtls_open\library/gcm.c ****             tag[i] ^= ctx->buf[i];
 1418              		.loc 1 435 0 discriminator 3
 1419 0100 0133     		adds	r3, r3, #1
 1420              	.LVL187:
 1421              	.L70:
 435:Source\mbedtls_open\library/gcm.c ****             tag[i] ^= ctx->buf[i];
 1422              		.loc 1 435 0 is_stmt 0 discriminator 1
 1423 0102 AB42     		cmp	r3, r5
 1424 0104 F4D3     		bcc	.L71
 437:Source\mbedtls_open\library/gcm.c ****     }
 438:Source\mbedtls_open\library/gcm.c **** 
 439:Source\mbedtls_open\library/gcm.c ****     return( 0 );
 1425              		.loc 1 439 0 is_stmt 1
 1426 0106 0020     		movs	r0, #0
 1427 0108 03E0     		b	.L66
 1428              	.LVL188:
 1429              	.L72:
 417:Source\mbedtls_open\library/gcm.c **** 
ARM GAS  C:\Users\Phuong\AppData\Local\Temp\ccINfzqY.s 			page 35


 1430              		.loc 1 417 0
 1431 010a 1420     		movs	r0, #20
 1432              	.LVL189:
 1433 010c 4042     		rsbs	r0, r0, #0
 1434 010e 00E0     		b	.L66
 1435              	.LVL190:
 1436              	.L73:
 1437              		.loc 1 439 0
 1438 0110 0020     		movs	r0, #0
 1439              	.L66:
 440:Source\mbedtls_open\library/gcm.c **** }
 1440              		.loc 1 440 0
 1441 0112 04B0     		add	sp, sp, #16
 1442              		@ sp needed
 1443              	.LVL191:
 1444              	.LVL192:
 1445              	.LVL193:
 1446              	.LVL194:
 1447              	.LVL195:
 1448 0114 1CBC     		pop	{r2, r3, r4}
 1449 0116 9046     		mov	r8, r2
 1450 0118 9946     		mov	r9, r3
 1451 011a A246     		mov	r10, r4
 1452 011c F0BD     		pop	{r4, r5, r6, r7, pc}
 1453              		.cfi_endproc
 1454              	.LFE14:
 1455              		.size	mbedtls_gcm_finish, .-mbedtls_gcm_finish
 1456 011e C046     		.section	.text.mbedtls_gcm_crypt_and_tag,"ax",%progbits
 1457              		.align	2
 1458              		.global	mbedtls_gcm_crypt_and_tag
 1459              		.code	16
 1460              		.thumb_func
 1461              		.type	mbedtls_gcm_crypt_and_tag, %function
 1462              	mbedtls_gcm_crypt_and_tag:
 1463              	.LFB15:
 441:Source\mbedtls_open\library/gcm.c **** 
 442:Source\mbedtls_open\library/gcm.c **** int mbedtls_gcm_crypt_and_tag( mbedtls_gcm_context *ctx,
 443:Source\mbedtls_open\library/gcm.c ****                        int mode,
 444:Source\mbedtls_open\library/gcm.c ****                        size_t length,
 445:Source\mbedtls_open\library/gcm.c ****                        const unsigned char *iv,
 446:Source\mbedtls_open\library/gcm.c ****                        size_t iv_len,
 447:Source\mbedtls_open\library/gcm.c ****                        const unsigned char *add,
 448:Source\mbedtls_open\library/gcm.c ****                        size_t add_len,
 449:Source\mbedtls_open\library/gcm.c ****                        const unsigned char *input,
 450:Source\mbedtls_open\library/gcm.c ****                        unsigned char *output,
 451:Source\mbedtls_open\library/gcm.c ****                        size_t tag_len,
 452:Source\mbedtls_open\library/gcm.c ****                        unsigned char *tag )
 453:Source\mbedtls_open\library/gcm.c **** {
 1464              		.loc 1 453 0
 1465              		.cfi_startproc
 1466              		@ args = 28, pretend = 0, frame = 0
 1467              		@ frame_needed = 0, uses_anonymous_args = 0
 1468              	.LVL196:
 1469 0000 30B5     		push	{r4, r5, lr}
 1470              		.cfi_def_cfa_offset 12
 1471              		.cfi_offset 4, -12
 1472              		.cfi_offset 5, -8
ARM GAS  C:\Users\Phuong\AppData\Local\Temp\ccINfzqY.s 			page 36


 1473              		.cfi_offset 14, -4
 1474 0002 83B0     		sub	sp, sp, #12
 1475              		.cfi_def_cfa_offset 24
 1476 0004 0400     		movs	r4, r0
 1477 0006 1500     		movs	r5, r2
 1478 0008 1A00     		movs	r2, r3
 1479              	.LVL197:
 454:Source\mbedtls_open\library/gcm.c ****     int ret;
 455:Source\mbedtls_open\library/gcm.c **** 
 456:Source\mbedtls_open\library/gcm.c ****     if( ( ret = mbedtls_gcm_starts( ctx, mode, iv, iv_len, add, add_len ) ) != 0 )
 1480              		.loc 1 456 0
 1481 000a 089B     		ldr	r3, [sp, #32]
 1482              	.LVL198:
 1483 000c 0193     		str	r3, [sp, #4]
 1484 000e 079B     		ldr	r3, [sp, #28]
 1485 0010 0093     		str	r3, [sp]
 1486 0012 069B     		ldr	r3, [sp, #24]
 1487 0014 FFF7FEFF 		bl	mbedtls_gcm_starts
 1488              	.LVL199:
 1489 0018 0028     		cmp	r0, #0
 1490 001a 0CD1     		bne	.L75
 457:Source\mbedtls_open\library/gcm.c ****         return( ret );
 458:Source\mbedtls_open\library/gcm.c **** 
 459:Source\mbedtls_open\library/gcm.c ****     if( ( ret = mbedtls_gcm_update( ctx, length, input, output ) ) != 0 )
 1491              		.loc 1 459 0
 1492 001c 0A9B     		ldr	r3, [sp, #40]
 1493 001e 099A     		ldr	r2, [sp, #36]
 1494 0020 2900     		movs	r1, r5
 1495 0022 2000     		movs	r0, r4
 1496              	.LVL200:
 1497 0024 FFF7FEFF 		bl	mbedtls_gcm_update
 1498              	.LVL201:
 1499 0028 0028     		cmp	r0, #0
 1500 002a 04D1     		bne	.L75
 460:Source\mbedtls_open\library/gcm.c ****         return( ret );
 461:Source\mbedtls_open\library/gcm.c **** 
 462:Source\mbedtls_open\library/gcm.c ****     if( ( ret = mbedtls_gcm_finish( ctx, tag, tag_len ) ) != 0 )
 1501              		.loc 1 462 0
 1502 002c 0B9A     		ldr	r2, [sp, #44]
 1503 002e 0C99     		ldr	r1, [sp, #48]
 1504 0030 2000     		movs	r0, r4
 1505              	.LVL202:
 1506 0032 FFF7FEFF 		bl	mbedtls_gcm_finish
 1507              	.LVL203:
 1508              	.L75:
 463:Source\mbedtls_open\library/gcm.c ****         return( ret );
 464:Source\mbedtls_open\library/gcm.c **** 
 465:Source\mbedtls_open\library/gcm.c ****     return( 0 );
 466:Source\mbedtls_open\library/gcm.c **** }
 1509              		.loc 1 466 0
 1510 0036 03B0     		add	sp, sp, #12
 1511              		@ sp needed
 1512              	.LVL204:
 1513              	.LVL205:
 1514 0038 30BD     		pop	{r4, r5, pc}
 1515              		.cfi_endproc
 1516              	.LFE15:
ARM GAS  C:\Users\Phuong\AppData\Local\Temp\ccINfzqY.s 			page 37


 1517              		.size	mbedtls_gcm_crypt_and_tag, .-mbedtls_gcm_crypt_and_tag
 1518 003a C046     		.section	.text.mbedtls_gcm_auth_decrypt,"ax",%progbits
 1519              		.align	2
 1520              		.global	mbedtls_gcm_auth_decrypt
 1521              		.code	16
 1522              		.thumb_func
 1523              		.type	mbedtls_gcm_auth_decrypt, %function
 1524              	mbedtls_gcm_auth_decrypt:
 1525              	.LFB16:
 467:Source\mbedtls_open\library/gcm.c **** 
 468:Source\mbedtls_open\library/gcm.c **** int mbedtls_gcm_auth_decrypt( mbedtls_gcm_context *ctx,
 469:Source\mbedtls_open\library/gcm.c ****                       size_t length,
 470:Source\mbedtls_open\library/gcm.c ****                       const unsigned char *iv,
 471:Source\mbedtls_open\library/gcm.c ****                       size_t iv_len,
 472:Source\mbedtls_open\library/gcm.c ****                       const unsigned char *add,
 473:Source\mbedtls_open\library/gcm.c ****                       size_t add_len,
 474:Source\mbedtls_open\library/gcm.c ****                       const unsigned char *tag,
 475:Source\mbedtls_open\library/gcm.c ****                       size_t tag_len,
 476:Source\mbedtls_open\library/gcm.c ****                       const unsigned char *input,
 477:Source\mbedtls_open\library/gcm.c ****                       unsigned char *output )
 478:Source\mbedtls_open\library/gcm.c **** {
 1526              		.loc 1 478 0
 1527              		.cfi_startproc
 1528              		@ args = 24, pretend = 0, frame = 16
 1529              		@ frame_needed = 0, uses_anonymous_args = 0
 1530              	.LVL206:
 1531 0000 70B5     		push	{r4, r5, r6, lr}
 1532              		.cfi_def_cfa_offset 16
 1533              		.cfi_offset 4, -16
 1534              		.cfi_offset 5, -12
 1535              		.cfi_offset 6, -8
 1536              		.cfi_offset 14, -4
 1537 0002 8CB0     		sub	sp, sp, #48
 1538              		.cfi_def_cfa_offset 64
 1539 0004 0C00     		movs	r4, r1
 1540 0006 129E     		ldr	r6, [sp, #72]
 1541 0008 139D     		ldr	r5, [sp, #76]
 479:Source\mbedtls_open\library/gcm.c ****     int ret;
 480:Source\mbedtls_open\library/gcm.c ****     unsigned char check_tag[16];
 481:Source\mbedtls_open\library/gcm.c ****     size_t i;
 482:Source\mbedtls_open\library/gcm.c ****     int diff;
 483:Source\mbedtls_open\library/gcm.c **** 
 484:Source\mbedtls_open\library/gcm.c ****     if( ( ret = mbedtls_gcm_crypt_and_tag( ctx, MBEDTLS_GCM_DECRYPT, length,
 1542              		.loc 1 484 0
 1543 000a 08A9     		add	r1, sp, #32
 1544              	.LVL207:
 1545 000c 0691     		str	r1, [sp, #24]
 1546 000e 0595     		str	r5, [sp, #20]
 1547 0010 1599     		ldr	r1, [sp, #84]
 1548 0012 0491     		str	r1, [sp, #16]
 1549 0014 1499     		ldr	r1, [sp, #80]
 1550 0016 0391     		str	r1, [sp, #12]
 1551 0018 1199     		ldr	r1, [sp, #68]
 1552 001a 0291     		str	r1, [sp, #8]
 1553 001c 1099     		ldr	r1, [sp, #64]
 1554 001e 0191     		str	r1, [sp, #4]
 1555 0020 0093     		str	r3, [sp]
ARM GAS  C:\Users\Phuong\AppData\Local\Temp\ccINfzqY.s 			page 38


 1556 0022 1300     		movs	r3, r2
 1557              	.LVL208:
 1558 0024 2200     		movs	r2, r4
 1559              	.LVL209:
 1560 0026 0021     		movs	r1, #0
 1561 0028 FFF7FEFF 		bl	mbedtls_gcm_crypt_and_tag
 1562              	.LVL210:
 1563 002c 0028     		cmp	r0, #0
 1564 002e 14D1     		bne	.L80
 1565 0030 0021     		movs	r1, #0
 1566 0032 0023     		movs	r3, #0
 1567 0034 05E0     		b	.L81
 1568              	.LVL211:
 1569              	.L82:
 485:Source\mbedtls_open\library/gcm.c ****                                    iv, iv_len, add, add_len,
 486:Source\mbedtls_open\library/gcm.c ****                                    input, output, tag_len, check_tag ) ) != 0 )
 487:Source\mbedtls_open\library/gcm.c ****     {
 488:Source\mbedtls_open\library/gcm.c ****         return( ret );
 489:Source\mbedtls_open\library/gcm.c ****     }
 490:Source\mbedtls_open\library/gcm.c **** 
 491:Source\mbedtls_open\library/gcm.c ****     /* Check tag in "constant-time" */
 492:Source\mbedtls_open\library/gcm.c ****     for( diff = 0, i = 0; i < tag_len; i++ )
 493:Source\mbedtls_open\library/gcm.c ****         diff |= tag[i] ^ check_tag[i];
 1570              		.loc 1 493 0 discriminator 3
 1571 0036 F05C     		ldrb	r0, [r6, r3]
 1572 0038 08AA     		add	r2, sp, #32
 1573 003a D25C     		ldrb	r2, [r2, r3]
 1574 003c 4240     		eors	r2, r0
 1575 003e 1143     		orrs	r1, r2
 1576              	.LVL212:
 492:Source\mbedtls_open\library/gcm.c ****         diff |= tag[i] ^ check_tag[i];
 1577              		.loc 1 492 0 discriminator 3
 1578 0040 0133     		adds	r3, r3, #1
 1579              	.LVL213:
 1580              	.L81:
 492:Source\mbedtls_open\library/gcm.c ****         diff |= tag[i] ^ check_tag[i];
 1581              		.loc 1 492 0 is_stmt 0 discriminator 1
 1582 0042 AB42     		cmp	r3, r5
 1583 0044 F7D3     		bcc	.L82
 494:Source\mbedtls_open\library/gcm.c **** 
 495:Source\mbedtls_open\library/gcm.c ****     if( diff != 0 )
 1584              		.loc 1 495 0 is_stmt 1
 1585 0046 0029     		cmp	r1, #0
 1586 0048 06D0     		beq	.L84
 496:Source\mbedtls_open\library/gcm.c ****     {
 497:Source\mbedtls_open\library/gcm.c ****         mbedtls_platform_zeroize( output, length );
 1587              		.loc 1 497 0
 1588 004a 2100     		movs	r1, r4
 1589              	.LVL214:
 1590 004c 1598     		ldr	r0, [sp, #84]
 1591 004e FFF7FEFF 		bl	mbedtls_platform_zeroize
 1592              	.LVL215:
 498:Source\mbedtls_open\library/gcm.c ****         return( MBEDTLS_ERR_GCM_AUTH_FAILED );
 1593              		.loc 1 498 0
 1594 0052 1220     		movs	r0, #18
 1595 0054 4042     		rsbs	r0, r0, #0
 1596 0056 00E0     		b	.L80
ARM GAS  C:\Users\Phuong\AppData\Local\Temp\ccINfzqY.s 			page 39


 1597              	.LVL216:
 1598              	.L84:
 499:Source\mbedtls_open\library/gcm.c ****     }
 500:Source\mbedtls_open\library/gcm.c **** 
 501:Source\mbedtls_open\library/gcm.c ****     return( 0 );
 1599              		.loc 1 501 0
 1600 0058 0020     		movs	r0, #0
 1601              	.LVL217:
 1602              	.L80:
 502:Source\mbedtls_open\library/gcm.c **** }
 1603              		.loc 1 502 0
 1604 005a 0CB0     		add	sp, sp, #48
 1605              		@ sp needed
 1606              	.LVL218:
 1607 005c 70BD     		pop	{r4, r5, r6, pc}
 1608              		.cfi_endproc
 1609              	.LFE16:
 1610              		.size	mbedtls_gcm_auth_decrypt, .-mbedtls_gcm_auth_decrypt
 1611 005e C046     		.section	.text.mbedtls_gcm_free,"ax",%progbits
 1612              		.align	2
 1613              		.global	mbedtls_gcm_free
 1614              		.code	16
 1615              		.thumb_func
 1616              		.type	mbedtls_gcm_free, %function
 1617              	mbedtls_gcm_free:
 1618              	.LFB17:
 503:Source\mbedtls_open\library/gcm.c **** 
 504:Source\mbedtls_open\library/gcm.c **** void mbedtls_gcm_free( mbedtls_gcm_context *ctx )
 505:Source\mbedtls_open\library/gcm.c **** {
 1619              		.loc 1 505 0
 1620              		.cfi_startproc
 1621              		@ args = 0, pretend = 0, frame = 0
 1622              		@ frame_needed = 0, uses_anonymous_args = 0
 1623              	.LVL219:
 1624 0000 10B5     		push	{r4, lr}
 1625              		.cfi_def_cfa_offset 8
 1626              		.cfi_offset 4, -8
 1627              		.cfi_offset 14, -4
 1628 0002 0400     		movs	r4, r0
 506:Source\mbedtls_open\library/gcm.c ****     mbedtls_cipher_free( &ctx->cipher_ctx );
 1629              		.loc 1 506 0
 1630 0004 FFF7FEFF 		bl	mbedtls_cipher_free
 1631              	.LVL220:
 507:Source\mbedtls_open\library/gcm.c ****     mbedtls_platform_zeroize( ctx, sizeof( mbedtls_gcm_context ) );
 1632              		.loc 1 507 0
 1633 0008 C421     		movs	r1, #196
 1634 000a 4900     		lsls	r1, r1, #1
 1635 000c 2000     		movs	r0, r4
 1636 000e FFF7FEFF 		bl	mbedtls_platform_zeroize
 1637              	.LVL221:
 508:Source\mbedtls_open\library/gcm.c **** }
 1638              		.loc 1 508 0
 1639              		@ sp needed
 1640              	.LVL222:
 1641 0012 10BD     		pop	{r4, pc}
 1642              		.cfi_endproc
 1643              	.LFE17:
ARM GAS  C:\Users\Phuong\AppData\Local\Temp\ccINfzqY.s 			page 40


 1644              		.size	mbedtls_gcm_free, .-mbedtls_gcm_free
 1645              		.section	.text.mbedtls_gcm_self_test,"ax",%progbits
 1646              		.align	2
 1647              		.global	mbedtls_gcm_self_test
 1648              		.code	16
 1649              		.thumb_func
 1650              		.type	mbedtls_gcm_self_test, %function
 1651              	mbedtls_gcm_self_test:
 1652              	.LFB18:
 509:Source\mbedtls_open\library/gcm.c **** 
 510:Source\mbedtls_open\library/gcm.c **** #endif /* !MBEDTLS_GCM_ALT */
 511:Source\mbedtls_open\library/gcm.c **** 
 512:Source\mbedtls_open\library/gcm.c **** #if defined(MBEDTLS_SELF_TEST) && defined(MBEDTLS_AES_C)
 513:Source\mbedtls_open\library/gcm.c **** /*
 514:Source\mbedtls_open\library/gcm.c ****  * AES-GCM test vectors from:
 515:Source\mbedtls_open\library/gcm.c ****  *
 516:Source\mbedtls_open\library/gcm.c ****  * http://csrc.nist.gov/groups/STM/cavp/documents/mac/gcmtestvectors.zip
 517:Source\mbedtls_open\library/gcm.c ****  */
 518:Source\mbedtls_open\library/gcm.c **** #define MAX_TESTS   6
 519:Source\mbedtls_open\library/gcm.c **** 
 520:Source\mbedtls_open\library/gcm.c **** static const int key_index[MAX_TESTS] =
 521:Source\mbedtls_open\library/gcm.c ****     { 0, 0, 1, 1, 1, 1 };
 522:Source\mbedtls_open\library/gcm.c **** 
 523:Source\mbedtls_open\library/gcm.c **** static const unsigned char key[MAX_TESTS][32] =
 524:Source\mbedtls_open\library/gcm.c **** {
 525:Source\mbedtls_open\library/gcm.c ****     { 0x00, 0x00, 0x00, 0x00, 0x00, 0x00, 0x00, 0x00,
 526:Source\mbedtls_open\library/gcm.c ****       0x00, 0x00, 0x00, 0x00, 0x00, 0x00, 0x00, 0x00,
 527:Source\mbedtls_open\library/gcm.c ****       0x00, 0x00, 0x00, 0x00, 0x00, 0x00, 0x00, 0x00,
 528:Source\mbedtls_open\library/gcm.c ****       0x00, 0x00, 0x00, 0x00, 0x00, 0x00, 0x00, 0x00 },
 529:Source\mbedtls_open\library/gcm.c ****     { 0xfe, 0xff, 0xe9, 0x92, 0x86, 0x65, 0x73, 0x1c,
 530:Source\mbedtls_open\library/gcm.c ****       0x6d, 0x6a, 0x8f, 0x94, 0x67, 0x30, 0x83, 0x08,
 531:Source\mbedtls_open\library/gcm.c ****       0xfe, 0xff, 0xe9, 0x92, 0x86, 0x65, 0x73, 0x1c,
 532:Source\mbedtls_open\library/gcm.c ****       0x6d, 0x6a, 0x8f, 0x94, 0x67, 0x30, 0x83, 0x08 },
 533:Source\mbedtls_open\library/gcm.c **** };
 534:Source\mbedtls_open\library/gcm.c **** 
 535:Source\mbedtls_open\library/gcm.c **** static const size_t iv_len[MAX_TESTS] =
 536:Source\mbedtls_open\library/gcm.c ****     { 12, 12, 12, 12, 8, 60 };
 537:Source\mbedtls_open\library/gcm.c **** 
 538:Source\mbedtls_open\library/gcm.c **** static const int iv_index[MAX_TESTS] =
 539:Source\mbedtls_open\library/gcm.c ****     { 0, 0, 1, 1, 1, 2 };
 540:Source\mbedtls_open\library/gcm.c **** 
 541:Source\mbedtls_open\library/gcm.c **** static const unsigned char iv[MAX_TESTS][64] =
 542:Source\mbedtls_open\library/gcm.c **** {
 543:Source\mbedtls_open\library/gcm.c ****     { 0x00, 0x00, 0x00, 0x00, 0x00, 0x00, 0x00, 0x00,
 544:Source\mbedtls_open\library/gcm.c ****       0x00, 0x00, 0x00, 0x00 },
 545:Source\mbedtls_open\library/gcm.c ****     { 0xca, 0xfe, 0xba, 0xbe, 0xfa, 0xce, 0xdb, 0xad,
 546:Source\mbedtls_open\library/gcm.c ****       0xde, 0xca, 0xf8, 0x88 },
 547:Source\mbedtls_open\library/gcm.c ****     { 0x93, 0x13, 0x22, 0x5d, 0xf8, 0x84, 0x06, 0xe5,
 548:Source\mbedtls_open\library/gcm.c ****       0x55, 0x90, 0x9c, 0x5a, 0xff, 0x52, 0x69, 0xaa,
 549:Source\mbedtls_open\library/gcm.c ****       0x6a, 0x7a, 0x95, 0x38, 0x53, 0x4f, 0x7d, 0xa1,
 550:Source\mbedtls_open\library/gcm.c ****       0xe4, 0xc3, 0x03, 0xd2, 0xa3, 0x18, 0xa7, 0x28,
 551:Source\mbedtls_open\library/gcm.c ****       0xc3, 0xc0, 0xc9, 0x51, 0x56, 0x80, 0x95, 0x39,
 552:Source\mbedtls_open\library/gcm.c ****       0xfc, 0xf0, 0xe2, 0x42, 0x9a, 0x6b, 0x52, 0x54,
 553:Source\mbedtls_open\library/gcm.c ****       0x16, 0xae, 0xdb, 0xf5, 0xa0, 0xde, 0x6a, 0x57,
 554:Source\mbedtls_open\library/gcm.c ****       0xa6, 0x37, 0xb3, 0x9b },
 555:Source\mbedtls_open\library/gcm.c **** };
 556:Source\mbedtls_open\library/gcm.c **** 
ARM GAS  C:\Users\Phuong\AppData\Local\Temp\ccINfzqY.s 			page 41


 557:Source\mbedtls_open\library/gcm.c **** static const size_t add_len[MAX_TESTS] =
 558:Source\mbedtls_open\library/gcm.c ****     { 0, 0, 0, 20, 20, 20 };
 559:Source\mbedtls_open\library/gcm.c **** 
 560:Source\mbedtls_open\library/gcm.c **** static const int add_index[MAX_TESTS] =
 561:Source\mbedtls_open\library/gcm.c ****     { 0, 0, 0, 1, 1, 1 };
 562:Source\mbedtls_open\library/gcm.c **** 
 563:Source\mbedtls_open\library/gcm.c **** static const unsigned char additional[MAX_TESTS][64] =
 564:Source\mbedtls_open\library/gcm.c **** {
 565:Source\mbedtls_open\library/gcm.c ****     { 0x00 },
 566:Source\mbedtls_open\library/gcm.c ****     { 0xfe, 0xed, 0xfa, 0xce, 0xde, 0xad, 0xbe, 0xef,
 567:Source\mbedtls_open\library/gcm.c ****       0xfe, 0xed, 0xfa, 0xce, 0xde, 0xad, 0xbe, 0xef,
 568:Source\mbedtls_open\library/gcm.c ****       0xab, 0xad, 0xda, 0xd2 },
 569:Source\mbedtls_open\library/gcm.c **** };
 570:Source\mbedtls_open\library/gcm.c **** 
 571:Source\mbedtls_open\library/gcm.c **** static const size_t pt_len[MAX_TESTS] =
 572:Source\mbedtls_open\library/gcm.c ****     { 0, 16, 64, 60, 60, 60 };
 573:Source\mbedtls_open\library/gcm.c **** 
 574:Source\mbedtls_open\library/gcm.c **** static const int pt_index[MAX_TESTS] =
 575:Source\mbedtls_open\library/gcm.c ****     { 0, 0, 1, 1, 1, 1 };
 576:Source\mbedtls_open\library/gcm.c **** 
 577:Source\mbedtls_open\library/gcm.c **** static const unsigned char pt[MAX_TESTS][64] =
 578:Source\mbedtls_open\library/gcm.c **** {
 579:Source\mbedtls_open\library/gcm.c ****     { 0x00, 0x00, 0x00, 0x00, 0x00, 0x00, 0x00, 0x00,
 580:Source\mbedtls_open\library/gcm.c ****       0x00, 0x00, 0x00, 0x00, 0x00, 0x00, 0x00, 0x00 },
 581:Source\mbedtls_open\library/gcm.c ****     { 0xd9, 0x31, 0x32, 0x25, 0xf8, 0x84, 0x06, 0xe5,
 582:Source\mbedtls_open\library/gcm.c ****       0xa5, 0x59, 0x09, 0xc5, 0xaf, 0xf5, 0x26, 0x9a,
 583:Source\mbedtls_open\library/gcm.c ****       0x86, 0xa7, 0xa9, 0x53, 0x15, 0x34, 0xf7, 0xda,
 584:Source\mbedtls_open\library/gcm.c ****       0x2e, 0x4c, 0x30, 0x3d, 0x8a, 0x31, 0x8a, 0x72,
 585:Source\mbedtls_open\library/gcm.c ****       0x1c, 0x3c, 0x0c, 0x95, 0x95, 0x68, 0x09, 0x53,
 586:Source\mbedtls_open\library/gcm.c ****       0x2f, 0xcf, 0x0e, 0x24, 0x49, 0xa6, 0xb5, 0x25,
 587:Source\mbedtls_open\library/gcm.c ****       0xb1, 0x6a, 0xed, 0xf5, 0xaa, 0x0d, 0xe6, 0x57,
 588:Source\mbedtls_open\library/gcm.c ****       0xba, 0x63, 0x7b, 0x39, 0x1a, 0xaf, 0xd2, 0x55 },
 589:Source\mbedtls_open\library/gcm.c **** };
 590:Source\mbedtls_open\library/gcm.c **** 
 591:Source\mbedtls_open\library/gcm.c **** static const unsigned char ct[MAX_TESTS * 3][64] =
 592:Source\mbedtls_open\library/gcm.c **** {
 593:Source\mbedtls_open\library/gcm.c ****     { 0x00 },
 594:Source\mbedtls_open\library/gcm.c ****     { 0x03, 0x88, 0xda, 0xce, 0x60, 0xb6, 0xa3, 0x92,
 595:Source\mbedtls_open\library/gcm.c ****       0xf3, 0x28, 0xc2, 0xb9, 0x71, 0xb2, 0xfe, 0x78 },
 596:Source\mbedtls_open\library/gcm.c ****     { 0x42, 0x83, 0x1e, 0xc2, 0x21, 0x77, 0x74, 0x24,
 597:Source\mbedtls_open\library/gcm.c ****       0x4b, 0x72, 0x21, 0xb7, 0x84, 0xd0, 0xd4, 0x9c,
 598:Source\mbedtls_open\library/gcm.c ****       0xe3, 0xaa, 0x21, 0x2f, 0x2c, 0x02, 0xa4, 0xe0,
 599:Source\mbedtls_open\library/gcm.c ****       0x35, 0xc1, 0x7e, 0x23, 0x29, 0xac, 0xa1, 0x2e,
 600:Source\mbedtls_open\library/gcm.c ****       0x21, 0xd5, 0x14, 0xb2, 0x54, 0x66, 0x93, 0x1c,
 601:Source\mbedtls_open\library/gcm.c ****       0x7d, 0x8f, 0x6a, 0x5a, 0xac, 0x84, 0xaa, 0x05,
 602:Source\mbedtls_open\library/gcm.c ****       0x1b, 0xa3, 0x0b, 0x39, 0x6a, 0x0a, 0xac, 0x97,
 603:Source\mbedtls_open\library/gcm.c ****       0x3d, 0x58, 0xe0, 0x91, 0x47, 0x3f, 0x59, 0x85 },
 604:Source\mbedtls_open\library/gcm.c ****     { 0x42, 0x83, 0x1e, 0xc2, 0x21, 0x77, 0x74, 0x24,
 605:Source\mbedtls_open\library/gcm.c ****       0x4b, 0x72, 0x21, 0xb7, 0x84, 0xd0, 0xd4, 0x9c,
 606:Source\mbedtls_open\library/gcm.c ****       0xe3, 0xaa, 0x21, 0x2f, 0x2c, 0x02, 0xa4, 0xe0,
 607:Source\mbedtls_open\library/gcm.c ****       0x35, 0xc1, 0x7e, 0x23, 0x29, 0xac, 0xa1, 0x2e,
 608:Source\mbedtls_open\library/gcm.c ****       0x21, 0xd5, 0x14, 0xb2, 0x54, 0x66, 0x93, 0x1c,
 609:Source\mbedtls_open\library/gcm.c ****       0x7d, 0x8f, 0x6a, 0x5a, 0xac, 0x84, 0xaa, 0x05,
 610:Source\mbedtls_open\library/gcm.c ****       0x1b, 0xa3, 0x0b, 0x39, 0x6a, 0x0a, 0xac, 0x97,
 611:Source\mbedtls_open\library/gcm.c ****       0x3d, 0x58, 0xe0, 0x91 },
 612:Source\mbedtls_open\library/gcm.c ****     { 0x61, 0x35, 0x3b, 0x4c, 0x28, 0x06, 0x93, 0x4a,
 613:Source\mbedtls_open\library/gcm.c ****       0x77, 0x7f, 0xf5, 0x1f, 0xa2, 0x2a, 0x47, 0x55,
ARM GAS  C:\Users\Phuong\AppData\Local\Temp\ccINfzqY.s 			page 42


 614:Source\mbedtls_open\library/gcm.c ****       0x69, 0x9b, 0x2a, 0x71, 0x4f, 0xcd, 0xc6, 0xf8,
 615:Source\mbedtls_open\library/gcm.c ****       0x37, 0x66, 0xe5, 0xf9, 0x7b, 0x6c, 0x74, 0x23,
 616:Source\mbedtls_open\library/gcm.c ****       0x73, 0x80, 0x69, 0x00, 0xe4, 0x9f, 0x24, 0xb2,
 617:Source\mbedtls_open\library/gcm.c ****       0x2b, 0x09, 0x75, 0x44, 0xd4, 0x89, 0x6b, 0x42,
 618:Source\mbedtls_open\library/gcm.c ****       0x49, 0x89, 0xb5, 0xe1, 0xeb, 0xac, 0x0f, 0x07,
 619:Source\mbedtls_open\library/gcm.c ****       0xc2, 0x3f, 0x45, 0x98 },
 620:Source\mbedtls_open\library/gcm.c ****     { 0x8c, 0xe2, 0x49, 0x98, 0x62, 0x56, 0x15, 0xb6,
 621:Source\mbedtls_open\library/gcm.c ****       0x03, 0xa0, 0x33, 0xac, 0xa1, 0x3f, 0xb8, 0x94,
 622:Source\mbedtls_open\library/gcm.c ****       0xbe, 0x91, 0x12, 0xa5, 0xc3, 0xa2, 0x11, 0xa8,
 623:Source\mbedtls_open\library/gcm.c ****       0xba, 0x26, 0x2a, 0x3c, 0xca, 0x7e, 0x2c, 0xa7,
 624:Source\mbedtls_open\library/gcm.c ****       0x01, 0xe4, 0xa9, 0xa4, 0xfb, 0xa4, 0x3c, 0x90,
 625:Source\mbedtls_open\library/gcm.c ****       0xcc, 0xdc, 0xb2, 0x81, 0xd4, 0x8c, 0x7c, 0x6f,
 626:Source\mbedtls_open\library/gcm.c ****       0xd6, 0x28, 0x75, 0xd2, 0xac, 0xa4, 0x17, 0x03,
 627:Source\mbedtls_open\library/gcm.c ****       0x4c, 0x34, 0xae, 0xe5 },
 628:Source\mbedtls_open\library/gcm.c ****     { 0x00 },
 629:Source\mbedtls_open\library/gcm.c ****     { 0x98, 0xe7, 0x24, 0x7c, 0x07, 0xf0, 0xfe, 0x41,
 630:Source\mbedtls_open\library/gcm.c ****       0x1c, 0x26, 0x7e, 0x43, 0x84, 0xb0, 0xf6, 0x00 },
 631:Source\mbedtls_open\library/gcm.c ****     { 0x39, 0x80, 0xca, 0x0b, 0x3c, 0x00, 0xe8, 0x41,
 632:Source\mbedtls_open\library/gcm.c ****       0xeb, 0x06, 0xfa, 0xc4, 0x87, 0x2a, 0x27, 0x57,
 633:Source\mbedtls_open\library/gcm.c ****       0x85, 0x9e, 0x1c, 0xea, 0xa6, 0xef, 0xd9, 0x84,
 634:Source\mbedtls_open\library/gcm.c ****       0x62, 0x85, 0x93, 0xb4, 0x0c, 0xa1, 0xe1, 0x9c,
 635:Source\mbedtls_open\library/gcm.c ****       0x7d, 0x77, 0x3d, 0x00, 0xc1, 0x44, 0xc5, 0x25,
 636:Source\mbedtls_open\library/gcm.c ****       0xac, 0x61, 0x9d, 0x18, 0xc8, 0x4a, 0x3f, 0x47,
 637:Source\mbedtls_open\library/gcm.c ****       0x18, 0xe2, 0x44, 0x8b, 0x2f, 0xe3, 0x24, 0xd9,
 638:Source\mbedtls_open\library/gcm.c ****       0xcc, 0xda, 0x27, 0x10, 0xac, 0xad, 0xe2, 0x56 },
 639:Source\mbedtls_open\library/gcm.c ****     { 0x39, 0x80, 0xca, 0x0b, 0x3c, 0x00, 0xe8, 0x41,
 640:Source\mbedtls_open\library/gcm.c ****       0xeb, 0x06, 0xfa, 0xc4, 0x87, 0x2a, 0x27, 0x57,
 641:Source\mbedtls_open\library/gcm.c ****       0x85, 0x9e, 0x1c, 0xea, 0xa6, 0xef, 0xd9, 0x84,
 642:Source\mbedtls_open\library/gcm.c ****       0x62, 0x85, 0x93, 0xb4, 0x0c, 0xa1, 0xe1, 0x9c,
 643:Source\mbedtls_open\library/gcm.c ****       0x7d, 0x77, 0x3d, 0x00, 0xc1, 0x44, 0xc5, 0x25,
 644:Source\mbedtls_open\library/gcm.c ****       0xac, 0x61, 0x9d, 0x18, 0xc8, 0x4a, 0x3f, 0x47,
 645:Source\mbedtls_open\library/gcm.c ****       0x18, 0xe2, 0x44, 0x8b, 0x2f, 0xe3, 0x24, 0xd9,
 646:Source\mbedtls_open\library/gcm.c ****       0xcc, 0xda, 0x27, 0x10 },
 647:Source\mbedtls_open\library/gcm.c ****     { 0x0f, 0x10, 0xf5, 0x99, 0xae, 0x14, 0xa1, 0x54,
 648:Source\mbedtls_open\library/gcm.c ****       0xed, 0x24, 0xb3, 0x6e, 0x25, 0x32, 0x4d, 0xb8,
 649:Source\mbedtls_open\library/gcm.c ****       0xc5, 0x66, 0x63, 0x2e, 0xf2, 0xbb, 0xb3, 0x4f,
 650:Source\mbedtls_open\library/gcm.c ****       0x83, 0x47, 0x28, 0x0f, 0xc4, 0x50, 0x70, 0x57,
 651:Source\mbedtls_open\library/gcm.c ****       0xfd, 0xdc, 0x29, 0xdf, 0x9a, 0x47, 0x1f, 0x75,
 652:Source\mbedtls_open\library/gcm.c ****       0xc6, 0x65, 0x41, 0xd4, 0xd4, 0xda, 0xd1, 0xc9,
 653:Source\mbedtls_open\library/gcm.c ****       0xe9, 0x3a, 0x19, 0xa5, 0x8e, 0x8b, 0x47, 0x3f,
 654:Source\mbedtls_open\library/gcm.c ****       0xa0, 0xf0, 0x62, 0xf7 },
 655:Source\mbedtls_open\library/gcm.c ****     { 0xd2, 0x7e, 0x88, 0x68, 0x1c, 0xe3, 0x24, 0x3c,
 656:Source\mbedtls_open\library/gcm.c ****       0x48, 0x30, 0x16, 0x5a, 0x8f, 0xdc, 0xf9, 0xff,
 657:Source\mbedtls_open\library/gcm.c ****       0x1d, 0xe9, 0xa1, 0xd8, 0xe6, 0xb4, 0x47, 0xef,
 658:Source\mbedtls_open\library/gcm.c ****       0x6e, 0xf7, 0xb7, 0x98, 0x28, 0x66, 0x6e, 0x45,
 659:Source\mbedtls_open\library/gcm.c ****       0x81, 0xe7, 0x90, 0x12, 0xaf, 0x34, 0xdd, 0xd9,
 660:Source\mbedtls_open\library/gcm.c ****       0xe2, 0xf0, 0x37, 0x58, 0x9b, 0x29, 0x2d, 0xb3,
 661:Source\mbedtls_open\library/gcm.c ****       0xe6, 0x7c, 0x03, 0x67, 0x45, 0xfa, 0x22, 0xe7,
 662:Source\mbedtls_open\library/gcm.c ****       0xe9, 0xb7, 0x37, 0x3b },
 663:Source\mbedtls_open\library/gcm.c ****     { 0x00 },
 664:Source\mbedtls_open\library/gcm.c ****     { 0xce, 0xa7, 0x40, 0x3d, 0x4d, 0x60, 0x6b, 0x6e,
 665:Source\mbedtls_open\library/gcm.c ****       0x07, 0x4e, 0xc5, 0xd3, 0xba, 0xf3, 0x9d, 0x18 },
 666:Source\mbedtls_open\library/gcm.c ****     { 0x52, 0x2d, 0xc1, 0xf0, 0x99, 0x56, 0x7d, 0x07,
 667:Source\mbedtls_open\library/gcm.c ****       0xf4, 0x7f, 0x37, 0xa3, 0x2a, 0x84, 0x42, 0x7d,
 668:Source\mbedtls_open\library/gcm.c ****       0x64, 0x3a, 0x8c, 0xdc, 0xbf, 0xe5, 0xc0, 0xc9,
 669:Source\mbedtls_open\library/gcm.c ****       0x75, 0x98, 0xa2, 0xbd, 0x25, 0x55, 0xd1, 0xaa,
 670:Source\mbedtls_open\library/gcm.c ****       0x8c, 0xb0, 0x8e, 0x48, 0x59, 0x0d, 0xbb, 0x3d,
ARM GAS  C:\Users\Phuong\AppData\Local\Temp\ccINfzqY.s 			page 43


 671:Source\mbedtls_open\library/gcm.c ****       0xa7, 0xb0, 0x8b, 0x10, 0x56, 0x82, 0x88, 0x38,
 672:Source\mbedtls_open\library/gcm.c ****       0xc5, 0xf6, 0x1e, 0x63, 0x93, 0xba, 0x7a, 0x0a,
 673:Source\mbedtls_open\library/gcm.c ****       0xbc, 0xc9, 0xf6, 0x62, 0x89, 0x80, 0x15, 0xad },
 674:Source\mbedtls_open\library/gcm.c ****     { 0x52, 0x2d, 0xc1, 0xf0, 0x99, 0x56, 0x7d, 0x07,
 675:Source\mbedtls_open\library/gcm.c ****       0xf4, 0x7f, 0x37, 0xa3, 0x2a, 0x84, 0x42, 0x7d,
 676:Source\mbedtls_open\library/gcm.c ****       0x64, 0x3a, 0x8c, 0xdc, 0xbf, 0xe5, 0xc0, 0xc9,
 677:Source\mbedtls_open\library/gcm.c ****       0x75, 0x98, 0xa2, 0xbd, 0x25, 0x55, 0xd1, 0xaa,
 678:Source\mbedtls_open\library/gcm.c ****       0x8c, 0xb0, 0x8e, 0x48, 0x59, 0x0d, 0xbb, 0x3d,
 679:Source\mbedtls_open\library/gcm.c ****       0xa7, 0xb0, 0x8b, 0x10, 0x56, 0x82, 0x88, 0x38,
 680:Source\mbedtls_open\library/gcm.c ****       0xc5, 0xf6, 0x1e, 0x63, 0x93, 0xba, 0x7a, 0x0a,
 681:Source\mbedtls_open\library/gcm.c ****       0xbc, 0xc9, 0xf6, 0x62 },
 682:Source\mbedtls_open\library/gcm.c ****     { 0xc3, 0x76, 0x2d, 0xf1, 0xca, 0x78, 0x7d, 0x32,
 683:Source\mbedtls_open\library/gcm.c ****       0xae, 0x47, 0xc1, 0x3b, 0xf1, 0x98, 0x44, 0xcb,
 684:Source\mbedtls_open\library/gcm.c ****       0xaf, 0x1a, 0xe1, 0x4d, 0x0b, 0x97, 0x6a, 0xfa,
 685:Source\mbedtls_open\library/gcm.c ****       0xc5, 0x2f, 0xf7, 0xd7, 0x9b, 0xba, 0x9d, 0xe0,
 686:Source\mbedtls_open\library/gcm.c ****       0xfe, 0xb5, 0x82, 0xd3, 0x39, 0x34, 0xa4, 0xf0,
 687:Source\mbedtls_open\library/gcm.c ****       0x95, 0x4c, 0xc2, 0x36, 0x3b, 0xc7, 0x3f, 0x78,
 688:Source\mbedtls_open\library/gcm.c ****       0x62, 0xac, 0x43, 0x0e, 0x64, 0xab, 0xe4, 0x99,
 689:Source\mbedtls_open\library/gcm.c ****       0xf4, 0x7c, 0x9b, 0x1f },
 690:Source\mbedtls_open\library/gcm.c ****     { 0x5a, 0x8d, 0xef, 0x2f, 0x0c, 0x9e, 0x53, 0xf1,
 691:Source\mbedtls_open\library/gcm.c ****       0xf7, 0x5d, 0x78, 0x53, 0x65, 0x9e, 0x2a, 0x20,
 692:Source\mbedtls_open\library/gcm.c ****       0xee, 0xb2, 0xb2, 0x2a, 0xaf, 0xde, 0x64, 0x19,
 693:Source\mbedtls_open\library/gcm.c ****       0xa0, 0x58, 0xab, 0x4f, 0x6f, 0x74, 0x6b, 0xf4,
 694:Source\mbedtls_open\library/gcm.c ****       0x0f, 0xc0, 0xc3, 0xb7, 0x80, 0xf2, 0x44, 0x45,
 695:Source\mbedtls_open\library/gcm.c ****       0x2d, 0xa3, 0xeb, 0xf1, 0xc5, 0xd8, 0x2c, 0xde,
 696:Source\mbedtls_open\library/gcm.c ****       0xa2, 0x41, 0x89, 0x97, 0x20, 0x0e, 0xf8, 0x2e,
 697:Source\mbedtls_open\library/gcm.c ****       0x44, 0xae, 0x7e, 0x3f },
 698:Source\mbedtls_open\library/gcm.c **** };
 699:Source\mbedtls_open\library/gcm.c **** 
 700:Source\mbedtls_open\library/gcm.c **** static const unsigned char tag[MAX_TESTS * 3][16] =
 701:Source\mbedtls_open\library/gcm.c **** {
 702:Source\mbedtls_open\library/gcm.c ****     { 0x58, 0xe2, 0xfc, 0xce, 0xfa, 0x7e, 0x30, 0x61,
 703:Source\mbedtls_open\library/gcm.c ****       0x36, 0x7f, 0x1d, 0x57, 0xa4, 0xe7, 0x45, 0x5a },
 704:Source\mbedtls_open\library/gcm.c ****     { 0xab, 0x6e, 0x47, 0xd4, 0x2c, 0xec, 0x13, 0xbd,
 705:Source\mbedtls_open\library/gcm.c ****       0xf5, 0x3a, 0x67, 0xb2, 0x12, 0x57, 0xbd, 0xdf },
 706:Source\mbedtls_open\library/gcm.c ****     { 0x4d, 0x5c, 0x2a, 0xf3, 0x27, 0xcd, 0x64, 0xa6,
 707:Source\mbedtls_open\library/gcm.c ****       0x2c, 0xf3, 0x5a, 0xbd, 0x2b, 0xa6, 0xfa, 0xb4 },
 708:Source\mbedtls_open\library/gcm.c ****     { 0x5b, 0xc9, 0x4f, 0xbc, 0x32, 0x21, 0xa5, 0xdb,
 709:Source\mbedtls_open\library/gcm.c ****       0x94, 0xfa, 0xe9, 0x5a, 0xe7, 0x12, 0x1a, 0x47 },
 710:Source\mbedtls_open\library/gcm.c ****     { 0x36, 0x12, 0xd2, 0xe7, 0x9e, 0x3b, 0x07, 0x85,
 711:Source\mbedtls_open\library/gcm.c ****       0x56, 0x1b, 0xe1, 0x4a, 0xac, 0xa2, 0xfc, 0xcb },
 712:Source\mbedtls_open\library/gcm.c ****     { 0x61, 0x9c, 0xc5, 0xae, 0xff, 0xfe, 0x0b, 0xfa,
 713:Source\mbedtls_open\library/gcm.c ****       0x46, 0x2a, 0xf4, 0x3c, 0x16, 0x99, 0xd0, 0x50 },
 714:Source\mbedtls_open\library/gcm.c ****     { 0xcd, 0x33, 0xb2, 0x8a, 0xc7, 0x73, 0xf7, 0x4b,
 715:Source\mbedtls_open\library/gcm.c ****       0xa0, 0x0e, 0xd1, 0xf3, 0x12, 0x57, 0x24, 0x35 },
 716:Source\mbedtls_open\library/gcm.c ****     { 0x2f, 0xf5, 0x8d, 0x80, 0x03, 0x39, 0x27, 0xab,
 717:Source\mbedtls_open\library/gcm.c ****       0x8e, 0xf4, 0xd4, 0x58, 0x75, 0x14, 0xf0, 0xfb },
 718:Source\mbedtls_open\library/gcm.c ****     { 0x99, 0x24, 0xa7, 0xc8, 0x58, 0x73, 0x36, 0xbf,
 719:Source\mbedtls_open\library/gcm.c ****       0xb1, 0x18, 0x02, 0x4d, 0xb8, 0x67, 0x4a, 0x14 },
 720:Source\mbedtls_open\library/gcm.c ****     { 0x25, 0x19, 0x49, 0x8e, 0x80, 0xf1, 0x47, 0x8f,
 721:Source\mbedtls_open\library/gcm.c ****       0x37, 0xba, 0x55, 0xbd, 0x6d, 0x27, 0x61, 0x8c },
 722:Source\mbedtls_open\library/gcm.c ****     { 0x65, 0xdc, 0xc5, 0x7f, 0xcf, 0x62, 0x3a, 0x24,
 723:Source\mbedtls_open\library/gcm.c ****       0x09, 0x4f, 0xcc, 0xa4, 0x0d, 0x35, 0x33, 0xf8 },
 724:Source\mbedtls_open\library/gcm.c ****     { 0xdc, 0xf5, 0x66, 0xff, 0x29, 0x1c, 0x25, 0xbb,
 725:Source\mbedtls_open\library/gcm.c ****       0xb8, 0x56, 0x8f, 0xc3, 0xd3, 0x76, 0xa6, 0xd9 },
 726:Source\mbedtls_open\library/gcm.c ****     { 0x53, 0x0f, 0x8a, 0xfb, 0xc7, 0x45, 0x36, 0xb9,
 727:Source\mbedtls_open\library/gcm.c ****       0xa9, 0x63, 0xb4, 0xf1, 0xc4, 0xcb, 0x73, 0x8b },
ARM GAS  C:\Users\Phuong\AppData\Local\Temp\ccINfzqY.s 			page 44


 728:Source\mbedtls_open\library/gcm.c ****     { 0xd0, 0xd1, 0xc8, 0xa7, 0x99, 0x99, 0x6b, 0xf0,
 729:Source\mbedtls_open\library/gcm.c ****       0x26, 0x5b, 0x98, 0xb5, 0xd4, 0x8a, 0xb9, 0x19 },
 730:Source\mbedtls_open\library/gcm.c ****     { 0xb0, 0x94, 0xda, 0xc5, 0xd9, 0x34, 0x71, 0xbd,
 731:Source\mbedtls_open\library/gcm.c ****       0xec, 0x1a, 0x50, 0x22, 0x70, 0xe3, 0xcc, 0x6c },
 732:Source\mbedtls_open\library/gcm.c ****     { 0x76, 0xfc, 0x6e, 0xce, 0x0f, 0x4e, 0x17, 0x68,
 733:Source\mbedtls_open\library/gcm.c ****       0xcd, 0xdf, 0x88, 0x53, 0xbb, 0x2d, 0x55, 0x1b },
 734:Source\mbedtls_open\library/gcm.c ****     { 0x3a, 0x33, 0x7d, 0xbf, 0x46, 0xa7, 0x92, 0xc4,
 735:Source\mbedtls_open\library/gcm.c ****       0x5e, 0x45, 0x49, 0x13, 0xfe, 0x2e, 0xa8, 0xf2 },
 736:Source\mbedtls_open\library/gcm.c ****     { 0xa4, 0x4a, 0x82, 0x66, 0xee, 0x1c, 0x8e, 0xb0,
 737:Source\mbedtls_open\library/gcm.c ****       0xc8, 0xb5, 0xd4, 0xcf, 0x5a, 0xe9, 0xf1, 0x9a },
 738:Source\mbedtls_open\library/gcm.c **** };
 739:Source\mbedtls_open\library/gcm.c **** 
 740:Source\mbedtls_open\library/gcm.c **** int mbedtls_gcm_self_test( int verbose )
 741:Source\mbedtls_open\library/gcm.c **** {
 1653              		.loc 1 741 0
 1654              		.cfi_startproc
 1655              		@ args = 0, pretend = 0, frame = 496
 1656              		@ frame_needed = 0, uses_anonymous_args = 0
 1657              	.LVL223:
 1658 0000 F0B5     		push	{r4, r5, r6, r7, lr}
 1659              		.cfi_def_cfa_offset 20
 1660              		.cfi_offset 4, -20
 1661              		.cfi_offset 5, -16
 1662              		.cfi_offset 6, -12
 1663              		.cfi_offset 7, -8
 1664              		.cfi_offset 14, -4
 1665 0002 5F46     		mov	r7, fp
 1666 0004 5646     		mov	r6, r10
 1667 0006 4D46     		mov	r5, r9
 1668 0008 4446     		mov	r4, r8
 1669 000a F0B4     		push	{r4, r5, r6, r7}
 1670              		.cfi_def_cfa_offset 36
 1671              		.cfi_offset 8, -36
 1672              		.cfi_offset 9, -32
 1673              		.cfi_offset 10, -28
 1674              		.cfi_offset 11, -24
 1675 000c C54C     		ldr	r4, .L131
 1676 000e A544     		add	sp, sp, r4
 1677              		.cfi_def_cfa_offset 568
 1678              	.LVL224:
 742:Source\mbedtls_open\library/gcm.c ****     mbedtls_gcm_context ctx;
 743:Source\mbedtls_open\library/gcm.c ****     unsigned char buf[64];
 744:Source\mbedtls_open\library/gcm.c ****     unsigned char tag_buf[16];
 745:Source\mbedtls_open\library/gcm.c ****     int i, j, ret;
 746:Source\mbedtls_open\library/gcm.c ****     mbedtls_cipher_id_t cipher = MBEDTLS_CIPHER_ID_AES;
 747:Source\mbedtls_open\library/gcm.c **** 
 748:Source\mbedtls_open\library/gcm.c ****     for( j = 0; j < 3; j++ )
 1679              		.loc 1 748 0
 1680 0010 0023     		movs	r3, #0
 1681 0012 9946     		mov	r9, r3
 1682 0014 8246     		mov	r10, r0
 1683 0016 D6E1     		b	.L87
 1684              	.LVL225:
 1685              	.L105:
 1686              	.LBB4:
 749:Source\mbedtls_open\library/gcm.c ****     {
 750:Source\mbedtls_open\library/gcm.c ****         int key_len = 128 + 64 * j;
ARM GAS  C:\Users\Phuong\AppData\Local\Temp\ccINfzqY.s 			page 45


 1687              		.loc 1 750 0
 1688 0018 4B46     		mov	r3, r9
 1689              	.LVL226:
 1690 001a 0233     		adds	r3, r3, #2
 1691 001c 9B01     		lsls	r3, r3, #6
 1692 001e 0993     		str	r3, [sp, #36]
 1693              	.LVL227:
 751:Source\mbedtls_open\library/gcm.c **** 
 752:Source\mbedtls_open\library/gcm.c ****         for( i = 0; i < MAX_TESTS; i++ )
 1694              		.loc 1 752 0
 1695 0020 0024     		movs	r4, #0
 1696 0022 CAE1     		b	.L88
 1697              	.LVL228:
 1698              	.L104:
 753:Source\mbedtls_open\library/gcm.c ****         {
 754:Source\mbedtls_open\library/gcm.c ****             mbedtls_gcm_init( &ctx );
 1699              		.loc 1 754 0
 1700 0024 22A8     		add	r0, sp, #136
 1701 0026 FFF7FEFF 		bl	mbedtls_gcm_init
 1702              	.LVL229:
 755:Source\mbedtls_open\library/gcm.c **** 
 756:Source\mbedtls_open\library/gcm.c ****             if( verbose != 0 )
 1703              		.loc 1 756 0
 1704 002a 5346     		mov	r3, r10
 1705 002c 002B     		cmp	r3, #0
 1706 002e 05D0     		beq	.L89
 1707              	.LVL230:
 757:Source\mbedtls_open\library/gcm.c ****                 mbedtls_printf( "  AES-GCM-%3d #%d (%s): ",
 1708              		.loc 1 757 0
 1709 0030 BD4B     		ldr	r3, .L131+4
 1710              	.LVL231:
 1711 0032 2200     		movs	r2, r4
 1712 0034 0999     		ldr	r1, [sp, #36]
 1713 0036 BD48     		ldr	r0, .L131+8
 1714 0038 FFF7FEFF 		bl	printf
 1715              	.LVL232:
 1716              	.L89:
 758:Source\mbedtls_open\library/gcm.c ****                                 key_len, i, "enc" );
 759:Source\mbedtls_open\library/gcm.c **** 
 760:Source\mbedtls_open\library/gcm.c ****             ret = mbedtls_gcm_setkey( &ctx, cipher, key[key_index[i]],
 1717              		.loc 1 760 0
 1718 003c BC4B     		ldr	r3, .L131+12
 1719 003e A200     		lsls	r2, r4, #2
 1720 0040 D258     		ldr	r2, [r2, r3]
 1721 0042 1833     		adds	r3, r3, #24
 1722 0044 5201     		lsls	r2, r2, #5
 1723 0046 9B18     		adds	r3, r3, r2
 1724 0048 1A00     		movs	r2, r3
 1725 004a 0B93     		str	r3, [sp, #44]
 1726 004c 099B     		ldr	r3, [sp, #36]
 1727 004e 0221     		movs	r1, #2
 1728 0050 22A8     		add	r0, sp, #136
 1729 0052 FFF7FEFF 		bl	mbedtls_gcm_setkey
 1730              	.LVL233:
 761:Source\mbedtls_open\library/gcm.c ****                                       key_len );
 762:Source\mbedtls_open\library/gcm.c ****             /*
 763:Source\mbedtls_open\library/gcm.c ****              * AES-192 is an optional feature that may be unavailable when
ARM GAS  C:\Users\Phuong\AppData\Local\Temp\ccINfzqY.s 			page 46


 764:Source\mbedtls_open\library/gcm.c ****              * there is an alternative underlying implementation i.e. when
 765:Source\mbedtls_open\library/gcm.c ****              * MBEDTLS_AES_ALT is defined.
 766:Source\mbedtls_open\library/gcm.c ****              */
 767:Source\mbedtls_open\library/gcm.c ****             if( ret == MBEDTLS_ERR_AES_FEATURE_UNAVAILABLE && key_len == 192 )
 1731              		.loc 1 767 0
 1732 0056 0300     		movs	r3, r0
 1733 0058 2333     		adds	r3, r3, #35
 1734 005a 06D1     		bne	.L90
 1735              		.loc 1 767 0 is_stmt 0 discriminator 1
 1736 005c 099B     		ldr	r3, [sp, #36]
 1737 005e C02B     		cmp	r3, #192
 1738 0060 03D1     		bne	.L90
 768:Source\mbedtls_open\library/gcm.c ****             {
 769:Source\mbedtls_open\library/gcm.c ****                 mbedtls_printf( "skipped\n" );
 1739              		.loc 1 769 0 is_stmt 1
 1740 0062 B448     		ldr	r0, .L131+16
 1741              	.LVL234:
 1742 0064 FFF7FEFF 		bl	puts
 1743              	.LVL235:
 770:Source\mbedtls_open\library/gcm.c ****                 break;
 1744              		.loc 1 770 0
 1745 0068 AAE1     		b	.L91
 1746              	.LVL236:
 1747              	.L90:
 771:Source\mbedtls_open\library/gcm.c ****             }
 772:Source\mbedtls_open\library/gcm.c ****             else if( ret != 0 )
 1748              		.loc 1 772 0
 1749 006a 0028     		cmp	r0, #0
 1750 006c 00D0     		beq	.LCB1944
 1751 006e D0E1     		b	.L117	@long jump
 1752              	.LCB1944:
 773:Source\mbedtls_open\library/gcm.c ****             {
 774:Source\mbedtls_open\library/gcm.c ****                 goto exit;
 775:Source\mbedtls_open\library/gcm.c ****             }
 776:Source\mbedtls_open\library/gcm.c **** 
 777:Source\mbedtls_open\library/gcm.c ****             ret = mbedtls_gcm_crypt_and_tag( &ctx, MBEDTLS_GCM_ENCRYPT,
 1753              		.loc 1 777 0
 1754 0070 A300     		lsls	r3, r4, #2
 1755 0072 B14A     		ldr	r2, .L131+20
 1756 0074 D218     		adds	r2, r2, r3
 1757 0076 916D     		ldr	r1, [r2, #88]
 1758 0078 0800     		movs	r0, r1
 1759              	.LVL237:
 778:Source\mbedtls_open\library/gcm.c ****                                         pt_len[i],
 779:Source\mbedtls_open\library/gcm.c ****                                         iv[iv_index[i]], iv_len[i],
 1760              		.loc 1 779 0
 1761 007a 126F     		ldr	r2, [r2, #112]
 1762 007c 9201     		lsls	r2, r2, #6
 1763 007e AF49     		ldr	r1, .L131+24
 1764 0080 0831     		adds	r1, r1, #8
 1765 0082 8A18     		adds	r2, r1, r2
 1766 0084 1500     		movs	r5, r2
 1767 0086 0C92     		str	r2, [sp, #48]
 777:Source\mbedtls_open\library/gcm.c ****                                         pt_len[i],
 1768              		.loc 1 777 0
 1769 0088 AD4A     		ldr	r2, .L131+28
 1770 008a D118     		adds	r1, r2, r3
ARM GAS  C:\Users\Phuong\AppData\Local\Temp\ccINfzqY.s 			page 47


 1771 008c 8E68     		ldr	r6, [r1, #8]
 1772 008e B046     		mov	r8, r6
 780:Source\mbedtls_open\library/gcm.c ****                                         additional[add_index[i]], add_len[i],
 1773              		.loc 1 780 0
 1774 0090 0E6A     		ldr	r6, [r1, #32]
 1775 0092 3832     		adds	r2, r2, #56
 1776 0094 B601     		lsls	r6, r6, #6
 1777 0096 9619     		adds	r6, r2, r6
 777:Source\mbedtls_open\library/gcm.c ****                                         pt_len[i],
 1778              		.loc 1 777 0
 1779 0098 AA49     		ldr	r1, .L131+32
 1780 009a CB18     		adds	r3, r1, r3
 1781 009c 9A6B     		ldr	r2, [r3, #56]
 1782 009e 9346     		mov	fp, r2
 781:Source\mbedtls_open\library/gcm.c ****                                         pt[pt_index[i]], buf, 16, tag_buf );
 1783              		.loc 1 781 0
 1784 00a0 1A6D     		ldr	r2, [r3, #80]
 1785 00a2 6831     		adds	r1, r1, #104
 1786 00a4 9201     		lsls	r2, r2, #6
 1787 00a6 8B18     		adds	r3, r1, r2
 1788 00a8 1A00     		movs	r2, r3
 1789 00aa 0D93     		str	r3, [sp, #52]
 777:Source\mbedtls_open\library/gcm.c ****                                         pt_len[i],
 1790              		.loc 1 777 0
 1791 00ac 0EAB     		add	r3, sp, #56
 1792 00ae 0693     		str	r3, [sp, #24]
 1793 00b0 1023     		movs	r3, #16
 1794 00b2 0593     		str	r3, [sp, #20]
 1795 00b4 12AB     		add	r3, sp, #72
 1796 00b6 0493     		str	r3, [sp, #16]
 1797 00b8 0392     		str	r2, [sp, #12]
 1798 00ba 5B46     		mov	r3, fp
 1799 00bc 0293     		str	r3, [sp, #8]
 1800 00be 0196     		str	r6, [sp, #4]
 1801 00c0 4346     		mov	r3, r8
 1802 00c2 0093     		str	r3, [sp]
 1803 00c4 2B00     		movs	r3, r5
 1804 00c6 0A90     		str	r0, [sp, #40]
 1805 00c8 0200     		movs	r2, r0
 1806 00ca 0121     		movs	r1, #1
 1807 00cc 22A8     		add	r0, sp, #136
 1808 00ce FFF7FEFF 		bl	mbedtls_gcm_crypt_and_tag
 1809              	.LVL238:
 782:Source\mbedtls_open\library/gcm.c ****             if( ret != 0 )
 1810              		.loc 1 782 0
 1811 00d2 0028     		cmp	r0, #0
 1812 00d4 00D0     		beq	.LCB1999
 1813 00d6 9FE1     		b	.L118	@long jump
 1814              	.LCB1999:
 783:Source\mbedtls_open\library/gcm.c ****                 goto exit;
 784:Source\mbedtls_open\library/gcm.c **** 
 785:Source\mbedtls_open\library/gcm.c ****             if ( memcmp( buf, ct[j * 6 + i], pt_len[i] ) != 0 ||
 1815              		.loc 1 785 0
 1816 00d8 4B46     		mov	r3, r9
 1817 00da 5B00     		lsls	r3, r3, #1
 1818 00dc 4B44     		add	r3, r3, r9
 1819 00de 5D00     		lsls	r5, r3, #1
ARM GAS  C:\Users\Phuong\AppData\Local\Temp\ccINfzqY.s 			page 48


 1820 00e0 6519     		adds	r5, r4, r5
 1821 00e2 AA01     		lsls	r2, r5, #6
 1822 00e4 984B     		ldr	r3, .L131+36
 1823 00e6 6833     		adds	r3, r3, #104
 1824 00e8 9F18     		adds	r7, r3, r2
 1825 00ea 0A9A     		ldr	r2, [sp, #40]
 1826 00ec 3900     		movs	r1, r7
 1827 00ee 12A8     		add	r0, sp, #72
 1828              	.LVL239:
 1829 00f0 FFF7FEFF 		bl	memcmp
 1830              	.LVL240:
 1831 00f4 0028     		cmp	r0, #0
 1832 00f6 00D0     		beq	.LCB2017
 1833 00f8 71E1     		b	.L108	@long jump
 1834              	.LCB2017:
 786:Source\mbedtls_open\library/gcm.c ****                  memcmp( tag_buf, tag[j * 6 + i], 16 ) != 0 )
 1835              		.loc 1 786 0 discriminator 1
 1836 00fa 2D01     		lsls	r5, r5, #4
 1837 00fc 934B     		ldr	r3, .L131+40
 1838 00fe 6833     		adds	r3, r3, #104
 1839 0100 5D19     		adds	r5, r3, r5
 1840 0102 1022     		movs	r2, #16
 1841 0104 2900     		movs	r1, r5
 1842 0106 0EA8     		add	r0, sp, #56
 1843 0108 FFF7FEFF 		bl	memcmp
 1844              	.LVL241:
 785:Source\mbedtls_open\library/gcm.c ****                  memcmp( tag_buf, tag[j * 6 + i], 16 ) != 0 )
 1845              		.loc 1 785 0 discriminator 1
 1846 010c 0028     		cmp	r0, #0
 1847 010e 00D0     		beq	.LCB2028
 1848 0110 68E1     		b	.L109	@long jump
 1849              	.LCB2028:
 787:Source\mbedtls_open\library/gcm.c ****             {
 788:Source\mbedtls_open\library/gcm.c ****                 ret = 1;
 789:Source\mbedtls_open\library/gcm.c ****                 goto exit;
 790:Source\mbedtls_open\library/gcm.c ****             }
 791:Source\mbedtls_open\library/gcm.c **** 
 792:Source\mbedtls_open\library/gcm.c ****             mbedtls_gcm_free( &ctx );
 1850              		.loc 1 792 0
 1851 0112 22A8     		add	r0, sp, #136
 1852 0114 FFF7FEFF 		bl	mbedtls_gcm_free
 1853              	.LVL242:
 793:Source\mbedtls_open\library/gcm.c **** 
 794:Source\mbedtls_open\library/gcm.c ****             if( verbose != 0 )
 1854              		.loc 1 794 0
 1855 0118 5346     		mov	r3, r10
 1856 011a 002B     		cmp	r3, #0
 1857 011c 02D0     		beq	.L93
 1858              	.LVL243:
 795:Source\mbedtls_open\library/gcm.c ****                 mbedtls_printf( "passed\n" );
 1859              		.loc 1 795 0
 1860 011e 8C48     		ldr	r0, .L131+44
 1861 0120 FFF7FEFF 		bl	puts
 1862              	.LVL244:
 1863              	.L93:
 796:Source\mbedtls_open\library/gcm.c **** 
 797:Source\mbedtls_open\library/gcm.c ****             mbedtls_gcm_init( &ctx );
ARM GAS  C:\Users\Phuong\AppData\Local\Temp\ccINfzqY.s 			page 49


 1864              		.loc 1 797 0
 1865 0124 22A8     		add	r0, sp, #136
 1866 0126 FFF7FEFF 		bl	mbedtls_gcm_init
 1867              	.LVL245:
 798:Source\mbedtls_open\library/gcm.c **** 
 799:Source\mbedtls_open\library/gcm.c ****             if( verbose != 0 )
 1868              		.loc 1 799 0
 1869 012a 5346     		mov	r3, r10
 1870 012c 002B     		cmp	r3, #0
 1871 012e 05D0     		beq	.L94
 1872              	.LVL246:
 800:Source\mbedtls_open\library/gcm.c ****                 mbedtls_printf( "  AES-GCM-%3d #%d (%s): ",
 1873              		.loc 1 800 0
 1874 0130 884B     		ldr	r3, .L131+48
 1875              	.LVL247:
 1876 0132 2200     		movs	r2, r4
 1877 0134 0999     		ldr	r1, [sp, #36]
 1878 0136 7D48     		ldr	r0, .L131+8
 1879 0138 FFF7FEFF 		bl	printf
 1880              	.LVL248:
 1881              	.L94:
 801:Source\mbedtls_open\library/gcm.c ****                                 key_len, i, "dec" );
 802:Source\mbedtls_open\library/gcm.c **** 
 803:Source\mbedtls_open\library/gcm.c ****             ret = mbedtls_gcm_setkey( &ctx, cipher, key[key_index[i]],
 1882              		.loc 1 803 0
 1883 013c 099B     		ldr	r3, [sp, #36]
 1884 013e 0B9A     		ldr	r2, [sp, #44]
 1885 0140 0221     		movs	r1, #2
 1886 0142 22A8     		add	r0, sp, #136
 1887 0144 FFF7FEFF 		bl	mbedtls_gcm_setkey
 1888              	.LVL249:
 804:Source\mbedtls_open\library/gcm.c ****                                       key_len );
 805:Source\mbedtls_open\library/gcm.c ****             if( ret != 0 )
 1889              		.loc 1 805 0
 1890 0148 0028     		cmp	r0, #0
 1891 014a 00D0     		beq	.LCB2067
 1892 014c 67E1     		b	.L119	@long jump
 1893              	.LCB2067:
 806:Source\mbedtls_open\library/gcm.c ****                 goto exit;
 807:Source\mbedtls_open\library/gcm.c **** 
 808:Source\mbedtls_open\library/gcm.c ****             ret = mbedtls_gcm_crypt_and_tag( &ctx, MBEDTLS_GCM_DECRYPT,
 1894              		.loc 1 808 0
 1895 014e 0EAB     		add	r3, sp, #56
 1896 0150 0693     		str	r3, [sp, #24]
 1897 0152 1023     		movs	r3, #16
 1898 0154 0593     		str	r3, [sp, #20]
 1899 0156 12AB     		add	r3, sp, #72
 1900 0158 0493     		str	r3, [sp, #16]
 1901 015a 0397     		str	r7, [sp, #12]
 1902 015c 5B46     		mov	r3, fp
 1903 015e 0293     		str	r3, [sp, #8]
 1904 0160 0196     		str	r6, [sp, #4]
 1905 0162 4346     		mov	r3, r8
 1906 0164 0093     		str	r3, [sp]
 1907 0166 0C9B     		ldr	r3, [sp, #48]
 1908 0168 0A9A     		ldr	r2, [sp, #40]
 1909 016a 0021     		movs	r1, #0
ARM GAS  C:\Users\Phuong\AppData\Local\Temp\ccINfzqY.s 			page 50


 1910 016c 22A8     		add	r0, sp, #136
 1911              	.LVL250:
 1912 016e FFF7FEFF 		bl	mbedtls_gcm_crypt_and_tag
 1913              	.LVL251:
 809:Source\mbedtls_open\library/gcm.c ****                                         pt_len[i],
 810:Source\mbedtls_open\library/gcm.c ****                                         iv[iv_index[i]], iv_len[i],
 811:Source\mbedtls_open\library/gcm.c ****                                         additional[add_index[i]], add_len[i],
 812:Source\mbedtls_open\library/gcm.c ****                                         ct[j * 6 + i], buf, 16, tag_buf );
 813:Source\mbedtls_open\library/gcm.c **** 
 814:Source\mbedtls_open\library/gcm.c ****             if( ret != 0 )
 1914              		.loc 1 814 0
 1915 0172 0028     		cmp	r0, #0
 1916 0174 00D0     		beq	.LCB2091
 1917 0176 55E1     		b	.L120	@long jump
 1918              	.LCB2091:
 815:Source\mbedtls_open\library/gcm.c ****                 goto exit;
 816:Source\mbedtls_open\library/gcm.c **** 
 817:Source\mbedtls_open\library/gcm.c ****             if( memcmp( buf, pt[pt_index[i]], pt_len[i] ) != 0 ||
 1919              		.loc 1 817 0
 1920 0178 0A9A     		ldr	r2, [sp, #40]
 1921 017a 0D99     		ldr	r1, [sp, #52]
 1922 017c 12A8     		add	r0, sp, #72
 1923              	.LVL252:
 1924 017e FFF7FEFF 		bl	memcmp
 1925              	.LVL253:
 1926 0182 0028     		cmp	r0, #0
 1927 0184 00D0     		beq	.LCB2099
 1928 0186 30E1     		b	.L110	@long jump
 1929              	.LCB2099:
 818:Source\mbedtls_open\library/gcm.c ****                 memcmp( tag_buf, tag[j * 6 + i], 16 ) != 0 )
 1930              		.loc 1 818 0 discriminator 1
 1931 0188 1022     		movs	r2, #16
 1932 018a 2900     		movs	r1, r5
 1933 018c 0EA8     		add	r0, sp, #56
 1934 018e FFF7FEFF 		bl	memcmp
 1935              	.LVL254:
 817:Source\mbedtls_open\library/gcm.c ****                 memcmp( tag_buf, tag[j * 6 + i], 16 ) != 0 )
 1936              		.loc 1 817 0 discriminator 1
 1937 0192 0028     		cmp	r0, #0
 1938 0194 00D0     		beq	.LCB2106
 1939 0196 2BE1     		b	.L111	@long jump
 1940              	.LCB2106:
 819:Source\mbedtls_open\library/gcm.c ****             {
 820:Source\mbedtls_open\library/gcm.c ****                 ret = 1;
 821:Source\mbedtls_open\library/gcm.c ****                 goto exit;
 822:Source\mbedtls_open\library/gcm.c ****             }
 823:Source\mbedtls_open\library/gcm.c **** 
 824:Source\mbedtls_open\library/gcm.c ****             mbedtls_gcm_free( &ctx );
 1941              		.loc 1 824 0
 1942 0198 22A8     		add	r0, sp, #136
 1943 019a FFF7FEFF 		bl	mbedtls_gcm_free
 1944              	.LVL255:
 825:Source\mbedtls_open\library/gcm.c **** 
 826:Source\mbedtls_open\library/gcm.c ****             if( verbose != 0 )
 1945              		.loc 1 826 0
 1946 019e 5346     		mov	r3, r10
 1947 01a0 002B     		cmp	r3, #0
ARM GAS  C:\Users\Phuong\AppData\Local\Temp\ccINfzqY.s 			page 51


 1948 01a2 02D0     		beq	.L95
 1949              	.LVL256:
 827:Source\mbedtls_open\library/gcm.c ****                 mbedtls_printf( "passed\n" );
 1950              		.loc 1 827 0
 1951 01a4 6A48     		ldr	r0, .L131+44
 1952 01a6 FFF7FEFF 		bl	puts
 1953              	.LVL257:
 1954              	.L95:
 828:Source\mbedtls_open\library/gcm.c **** 
 829:Source\mbedtls_open\library/gcm.c ****             mbedtls_gcm_init( &ctx );
 1955              		.loc 1 829 0
 1956 01aa 22A8     		add	r0, sp, #136
 1957 01ac FFF7FEFF 		bl	mbedtls_gcm_init
 1958              	.LVL258:
 830:Source\mbedtls_open\library/gcm.c **** 
 831:Source\mbedtls_open\library/gcm.c ****             if( verbose != 0 )
 1959              		.loc 1 831 0
 1960 01b0 5346     		mov	r3, r10
 1961 01b2 002B     		cmp	r3, #0
 1962 01b4 05D0     		beq	.L96
 1963              	.LVL259:
 832:Source\mbedtls_open\library/gcm.c ****                 mbedtls_printf( "  AES-GCM-%3d #%d split (%s): ",
 1964              		.loc 1 832 0
 1965 01b6 5C4B     		ldr	r3, .L131+4
 1966              	.LVL260:
 1967 01b8 2200     		movs	r2, r4
 1968 01ba 0999     		ldr	r1, [sp, #36]
 1969 01bc 6648     		ldr	r0, .L131+52
 1970 01be FFF7FEFF 		bl	printf
 1971              	.LVL261:
 1972              	.L96:
 833:Source\mbedtls_open\library/gcm.c ****                                 key_len, i, "enc" );
 834:Source\mbedtls_open\library/gcm.c **** 
 835:Source\mbedtls_open\library/gcm.c ****             ret = mbedtls_gcm_setkey( &ctx, cipher, key[key_index[i]],
 1973              		.loc 1 835 0
 1974 01c2 099B     		ldr	r3, [sp, #36]
 1975 01c4 0B9A     		ldr	r2, [sp, #44]
 1976 01c6 0221     		movs	r1, #2
 1977 01c8 22A8     		add	r0, sp, #136
 1978 01ca FFF7FEFF 		bl	mbedtls_gcm_setkey
 1979              	.LVL262:
 836:Source\mbedtls_open\library/gcm.c ****                                       key_len );
 837:Source\mbedtls_open\library/gcm.c ****             if( ret != 0 )
 1980              		.loc 1 837 0
 1981 01ce 0028     		cmp	r0, #0
 1982 01d0 00D0     		beq	.LCB2145
 1983 01d2 2AE1     		b	.L121	@long jump
 1984              	.LCB2145:
 838:Source\mbedtls_open\library/gcm.c ****                 goto exit;
 839:Source\mbedtls_open\library/gcm.c **** 
 840:Source\mbedtls_open\library/gcm.c ****             ret = mbedtls_gcm_starts( &ctx, MBEDTLS_GCM_ENCRYPT,
 1985              		.loc 1 840 0
 1986 01d4 5B46     		mov	r3, fp
 1987 01d6 0193     		str	r3, [sp, #4]
 1988 01d8 0096     		str	r6, [sp]
 1989 01da 4346     		mov	r3, r8
 1990 01dc 0C9A     		ldr	r2, [sp, #48]
ARM GAS  C:\Users\Phuong\AppData\Local\Temp\ccINfzqY.s 			page 52


 1991 01de 0121     		movs	r1, #1
 1992 01e0 22A8     		add	r0, sp, #136
 1993              	.LVL263:
 1994 01e2 FFF7FEFF 		bl	mbedtls_gcm_starts
 1995              	.LVL264:
 841:Source\mbedtls_open\library/gcm.c ****                                       iv[iv_index[i]], iv_len[i],
 842:Source\mbedtls_open\library/gcm.c ****                                       additional[add_index[i]], add_len[i] );
 843:Source\mbedtls_open\library/gcm.c ****             if( ret != 0 )
 1996              		.loc 1 843 0
 1997 01e6 0028     		cmp	r0, #0
 1998 01e8 00D0     		beq	.LCB2158
 1999 01ea 21E1     		b	.L122	@long jump
 2000              	.LCB2158:
 844:Source\mbedtls_open\library/gcm.c ****                 goto exit;
 845:Source\mbedtls_open\library/gcm.c **** 
 846:Source\mbedtls_open\library/gcm.c ****             if( pt_len[i] > 32 )
 2001              		.loc 1 846 0
 2002 01ec 0A9B     		ldr	r3, [sp, #40]
 2003 01ee 202B     		cmp	r3, #32
 2004 01f0 17D9     		bls	.L97
 2005              	.LBB5:
 847:Source\mbedtls_open\library/gcm.c ****             {
 848:Source\mbedtls_open\library/gcm.c ****                 size_t rest_len = pt_len[i] - 32;
 2006              		.loc 1 848 0
 2007 01f2 1E00     		movs	r6, r3
 2008 01f4 203E     		subs	r6, r6, #32
 2009              	.LVL265:
 849:Source\mbedtls_open\library/gcm.c ****                 ret = mbedtls_gcm_update( &ctx, 32, pt[pt_index[i]], buf );
 2010              		.loc 1 849 0
 2011 01f6 12AB     		add	r3, sp, #72
 2012 01f8 0D9A     		ldr	r2, [sp, #52]
 2013 01fa 9046     		mov	r8, r2
 2014 01fc 2021     		movs	r1, #32
 2015 01fe 22A8     		add	r0, sp, #136
 2016              	.LVL266:
 2017 0200 FFF7FEFF 		bl	mbedtls_gcm_update
 2018              	.LVL267:
 850:Source\mbedtls_open\library/gcm.c ****                 if( ret != 0 )
 2019              		.loc 1 850 0
 2020 0204 0028     		cmp	r0, #0
 2021 0206 00D0     		beq	.LCB2176
 2022 0208 15E1     		b	.L123	@long jump
 2023              	.LCB2176:
 851:Source\mbedtls_open\library/gcm.c ****                     goto exit;
 852:Source\mbedtls_open\library/gcm.c **** 
 853:Source\mbedtls_open\library/gcm.c ****                 ret = mbedtls_gcm_update( &ctx, rest_len, pt[pt_index[i]] + 32,
 2024              		.loc 1 853 0
 2025 020a 4246     		mov	r2, r8
 2026 020c 2032     		adds	r2, r2, #32
 2027 020e 1AAB     		add	r3, sp, #104
 2028 0210 3100     		movs	r1, r6
 2029 0212 22A8     		add	r0, sp, #136
 2030              	.LVL268:
 2031 0214 FFF7FEFF 		bl	mbedtls_gcm_update
 2032              	.LVL269:
 854:Source\mbedtls_open\library/gcm.c ****                                   buf + 32 );
 855:Source\mbedtls_open\library/gcm.c ****                 if( ret != 0 )
ARM GAS  C:\Users\Phuong\AppData\Local\Temp\ccINfzqY.s 			page 53


 2033              		.loc 1 855 0
 2034 0218 0028     		cmp	r0, #0
 2035 021a 0BD0     		beq	.L98
 2036 021c 0400     		movs	r4, r0
 2037              	.LVL270:
 2038 021e 5746     		mov	r7, r10
 2039              	.LBE5:
 2040              	.LBE4:
 2041 0220 20E1     		b	.L92
 2042              	.LVL271:
 2043              	.L97:
 2044              	.LBB7:
 856:Source\mbedtls_open\library/gcm.c ****                     goto exit;
 857:Source\mbedtls_open\library/gcm.c ****             }
 858:Source\mbedtls_open\library/gcm.c ****             else
 859:Source\mbedtls_open\library/gcm.c ****             {
 860:Source\mbedtls_open\library/gcm.c ****                 ret = mbedtls_gcm_update( &ctx, pt_len[i], pt[pt_index[i]], buf );
 2045              		.loc 1 860 0
 2046 0222 12AB     		add	r3, sp, #72
 2047 0224 0D9A     		ldr	r2, [sp, #52]
 2048 0226 0A99     		ldr	r1, [sp, #40]
 2049 0228 22A8     		add	r0, sp, #136
 2050              	.LVL272:
 2051 022a FFF7FEFF 		bl	mbedtls_gcm_update
 2052              	.LVL273:
 861:Source\mbedtls_open\library/gcm.c ****                 if( ret != 0 )
 2053              		.loc 1 861 0
 2054 022e 0028     		cmp	r0, #0
 2055 0230 00D0     		beq	.LCB2211
 2056 0232 03E1     		b	.L124	@long jump
 2057              	.LCB2211:
 2058              	.L98:
 862:Source\mbedtls_open\library/gcm.c ****                     goto exit;
 863:Source\mbedtls_open\library/gcm.c ****             }
 864:Source\mbedtls_open\library/gcm.c **** 
 865:Source\mbedtls_open\library/gcm.c ****             ret = mbedtls_gcm_finish( &ctx, tag_buf, 16 );
 2059              		.loc 1 865 0
 2060 0234 1022     		movs	r2, #16
 2061 0236 0EA9     		add	r1, sp, #56
 2062 0238 22A8     		add	r0, sp, #136
 2063              	.LVL274:
 2064 023a FFF7FEFF 		bl	mbedtls_gcm_finish
 2065              	.LVL275:
 866:Source\mbedtls_open\library/gcm.c ****             if( ret != 0 )
 2066              		.loc 1 866 0
 2067 023e 0028     		cmp	r0, #0
 2068 0240 00D0     		beq	.LCB2222
 2069 0242 FEE0     		b	.L125	@long jump
 2070              	.LCB2222:
 867:Source\mbedtls_open\library/gcm.c ****                 goto exit;
 868:Source\mbedtls_open\library/gcm.c **** 
 869:Source\mbedtls_open\library/gcm.c ****             if( memcmp( buf, ct[j * 6 + i], pt_len[i] ) != 0 ||
 2071              		.loc 1 869 0
 2072 0244 A300     		lsls	r3, r4, #2
 2073 0246 3C4A     		ldr	r2, .L131+20
 2074 0248 D318     		adds	r3, r2, r3
 2075 024a 9E6D     		ldr	r6, [r3, #88]
ARM GAS  C:\Users\Phuong\AppData\Local\Temp\ccINfzqY.s 			page 54


 2076 024c 3200     		movs	r2, r6
 2077 024e 3900     		movs	r1, r7
 2078 0250 12A8     		add	r0, sp, #72
 2079              	.LVL276:
 2080 0252 FFF7FEFF 		bl	memcmp
 2081              	.LVL277:
 2082 0256 0028     		cmp	r0, #0
 2083 0258 00D0     		beq	.LCB2234
 2084 025a CCE0     		b	.L112	@long jump
 2085              	.LCB2234:
 870:Source\mbedtls_open\library/gcm.c ****                 memcmp( tag_buf, tag[j * 6 + i], 16 ) != 0 )
 2086              		.loc 1 870 0 discriminator 1
 2087 025c 1022     		movs	r2, #16
 2088 025e 2900     		movs	r1, r5
 2089 0260 0EA8     		add	r0, sp, #56
 2090 0262 FFF7FEFF 		bl	memcmp
 2091              	.LVL278:
 869:Source\mbedtls_open\library/gcm.c ****                 memcmp( tag_buf, tag[j * 6 + i], 16 ) != 0 )
 2092              		.loc 1 869 0 discriminator 1
 2093 0266 0028     		cmp	r0, #0
 2094 0268 00D0     		beq	.LCB2241
 2095 026a C7E0     		b	.L113	@long jump
 2096              	.LCB2241:
 871:Source\mbedtls_open\library/gcm.c ****             {
 872:Source\mbedtls_open\library/gcm.c ****                 ret = 1;
 873:Source\mbedtls_open\library/gcm.c ****                 goto exit;
 874:Source\mbedtls_open\library/gcm.c ****             }
 875:Source\mbedtls_open\library/gcm.c **** 
 876:Source\mbedtls_open\library/gcm.c ****             mbedtls_gcm_free( &ctx );
 2097              		.loc 1 876 0
 2098 026c 22A8     		add	r0, sp, #136
 2099 026e FFF7FEFF 		bl	mbedtls_gcm_free
 2100              	.LVL279:
 877:Source\mbedtls_open\library/gcm.c **** 
 878:Source\mbedtls_open\library/gcm.c ****             if( verbose != 0 )
 2101              		.loc 1 878 0
 2102 0272 5346     		mov	r3, r10
 2103 0274 002B     		cmp	r3, #0
 2104 0276 02D0     		beq	.L99
 2105              	.LVL280:
 879:Source\mbedtls_open\library/gcm.c ****                 mbedtls_printf( "passed\n" );
 2106              		.loc 1 879 0
 2107 0278 3548     		ldr	r0, .L131+44
 2108 027a FFF7FEFF 		bl	puts
 2109              	.LVL281:
 2110              	.L99:
 880:Source\mbedtls_open\library/gcm.c **** 
 881:Source\mbedtls_open\library/gcm.c ****             mbedtls_gcm_init( &ctx );
 2111              		.loc 1 881 0
 2112 027e 22A8     		add	r0, sp, #136
 2113 0280 FFF7FEFF 		bl	mbedtls_gcm_init
 2114              	.LVL282:
 882:Source\mbedtls_open\library/gcm.c **** 
 883:Source\mbedtls_open\library/gcm.c ****             if( verbose != 0 )
 2115              		.loc 1 883 0
 2116 0284 5346     		mov	r3, r10
 2117 0286 002B     		cmp	r3, #0
ARM GAS  C:\Users\Phuong\AppData\Local\Temp\ccINfzqY.s 			page 55


 2118 0288 05D0     		beq	.L100
 2119              	.LVL283:
 884:Source\mbedtls_open\library/gcm.c ****                 mbedtls_printf( "  AES-GCM-%3d #%d split (%s): ",
 2120              		.loc 1 884 0
 2121 028a 324B     		ldr	r3, .L131+48
 2122              	.LVL284:
 2123 028c 2200     		movs	r2, r4
 2124 028e 0999     		ldr	r1, [sp, #36]
 2125 0290 3148     		ldr	r0, .L131+52
 2126 0292 FFF7FEFF 		bl	printf
 2127              	.LVL285:
 2128              	.L100:
 885:Source\mbedtls_open\library/gcm.c ****                                 key_len, i, "dec" );
 886:Source\mbedtls_open\library/gcm.c **** 
 887:Source\mbedtls_open\library/gcm.c ****             ret = mbedtls_gcm_setkey( &ctx, cipher, key[key_index[i]],
 2129              		.loc 1 887 0
 2130 0296 264B     		ldr	r3, .L131+12
 2131 0298 A200     		lsls	r2, r4, #2
 2132 029a D258     		ldr	r2, [r2, r3]
 2133 029c 1833     		adds	r3, r3, #24
 2134 029e 5201     		lsls	r2, r2, #5
 2135 02a0 9A18     		adds	r2, r3, r2
 2136 02a2 099B     		ldr	r3, [sp, #36]
 2137 02a4 0221     		movs	r1, #2
 2138 02a6 22A8     		add	r0, sp, #136
 2139 02a8 FFF7FEFF 		bl	mbedtls_gcm_setkey
 2140              	.LVL286:
 888:Source\mbedtls_open\library/gcm.c ****                                       key_len );
 889:Source\mbedtls_open\library/gcm.c ****             if( ret != 0 )
 2141              		.loc 1 889 0
 2142 02ac 0028     		cmp	r0, #0
 2143 02ae 00D0     		beq	.LCB2285
 2144 02b0 CAE0     		b	.L126	@long jump
 2145              	.LCB2285:
 890:Source\mbedtls_open\library/gcm.c ****                 goto exit;
 891:Source\mbedtls_open\library/gcm.c **** 
 892:Source\mbedtls_open\library/gcm.c ****             ret = mbedtls_gcm_starts( &ctx, MBEDTLS_GCM_DECRYPT,
 893:Source\mbedtls_open\library/gcm.c ****                               iv[iv_index[i]], iv_len[i],
 2146              		.loc 1 893 0
 2147 02b2 A100     		lsls	r1, r4, #2
 2148 02b4 204B     		ldr	r3, .L131+20
 2149 02b6 5B18     		adds	r3, r3, r1
 2150 02b8 1A6F     		ldr	r2, [r3, #112]
 2151 02ba 9301     		lsls	r3, r2, #6
 2152 02bc 1F4A     		ldr	r2, .L131+24
 2153 02be 0832     		adds	r2, r2, #8
 2154 02c0 D218     		adds	r2, r2, r3
 892:Source\mbedtls_open\library/gcm.c ****                               iv[iv_index[i]], iv_len[i],
 2155              		.loc 1 892 0
 2156 02c2 1F4B     		ldr	r3, .L131+28
 2157 02c4 9C46     		mov	ip, r3
 2158 02c6 5818     		adds	r0, r3, r1
 2159              	.LVL287:
 2160 02c8 8368     		ldr	r3, [r0, #8]
 2161 02ca 9B46     		mov	fp, r3
 894:Source\mbedtls_open\library/gcm.c ****                               additional[add_index[i]], add_len[i] );
 2162              		.loc 1 894 0
ARM GAS  C:\Users\Phuong\AppData\Local\Temp\ccINfzqY.s 			page 56


 2163 02cc 006A     		ldr	r0, [r0, #32]
 2164 02ce 3823     		movs	r3, #56
 2165 02d0 9846     		mov	r8, r3
 2166 02d2 C444     		add	ip, ip, r8
 2167 02d4 8001     		lsls	r0, r0, #6
 2168 02d6 6044     		add	r0, r0, ip
 892:Source\mbedtls_open\library/gcm.c ****                               iv[iv_index[i]], iv_len[i],
 2169              		.loc 1 892 0
 2170 02d8 1A4B     		ldr	r3, .L131+32
 2171 02da 9C46     		mov	ip, r3
 2172 02dc 6144     		add	r1, r1, ip
 2173 02de 8B6B     		ldr	r3, [r1, #56]
 2174 02e0 0193     		str	r3, [sp, #4]
 2175 02e2 0090     		str	r0, [sp]
 2176 02e4 5B46     		mov	r3, fp
 2177 02e6 0021     		movs	r1, #0
 2178 02e8 22A8     		add	r0, sp, #136
 2179 02ea FFF7FEFF 		bl	mbedtls_gcm_starts
 2180              	.LVL288:
 895:Source\mbedtls_open\library/gcm.c ****             if( ret != 0 )
 2181              		.loc 1 895 0
 2182 02ee 0028     		cmp	r0, #0
 2183 02f0 00D0     		beq	.LCB2320
 2184 02f2 ACE0     		b	.L127	@long jump
 2185              	.LCB2320:
 896:Source\mbedtls_open\library/gcm.c ****                 goto exit;
 897:Source\mbedtls_open\library/gcm.c **** 
 898:Source\mbedtls_open\library/gcm.c ****             if( pt_len[i] > 32 )
 2186              		.loc 1 898 0
 2187 02f4 202E     		cmp	r6, #32
 2188 02f6 31D9     		bls	.L101
 2189              	.LBB6:
 899:Source\mbedtls_open\library/gcm.c ****             {
 900:Source\mbedtls_open\library/gcm.c ****                 size_t rest_len = pt_len[i] - 32;
 2190              		.loc 1 900 0
 2191 02f8 203E     		subs	r6, r6, #32
 2192              	.LVL289:
 901:Source\mbedtls_open\library/gcm.c ****                 ret = mbedtls_gcm_update( &ctx, 32, ct[j * 6 + i], buf );
 2193              		.loc 1 901 0
 2194 02fa 12AB     		add	r3, sp, #72
 2195 02fc 3A00     		movs	r2, r7
 2196 02fe 2021     		movs	r1, #32
 2197 0300 22A8     		add	r0, sp, #136
 2198              	.LVL290:
 2199 0302 FFF7FEFF 		bl	mbedtls_gcm_update
 2200              	.LVL291:
 902:Source\mbedtls_open\library/gcm.c ****                 if( ret != 0 )
 2201              		.loc 1 902 0
 2202 0306 0028     		cmp	r0, #0
 2203 0308 00D0     		beq	.LCB2335
 2204 030a A3E0     		b	.L128	@long jump
 2205              	.LCB2335:
 903:Source\mbedtls_open\library/gcm.c ****                     goto exit;
 904:Source\mbedtls_open\library/gcm.c **** 
 905:Source\mbedtls_open\library/gcm.c ****                 ret = mbedtls_gcm_update( &ctx, rest_len, ct[j * 6 + i] + 32,
 2206              		.loc 1 905 0
 2207 030c 3A00     		movs	r2, r7
ARM GAS  C:\Users\Phuong\AppData\Local\Temp\ccINfzqY.s 			page 57


 2208 030e 2032     		adds	r2, r2, #32
 2209 0310 1AAB     		add	r3, sp, #104
 2210 0312 3100     		movs	r1, r6
 2211 0314 22A8     		add	r0, sp, #136
 2212              	.LVL292:
 2213 0316 FFF7FEFF 		bl	mbedtls_gcm_update
 2214              	.LVL293:
 906:Source\mbedtls_open\library/gcm.c ****                                           buf + 32 );
 907:Source\mbedtls_open\library/gcm.c ****                 if( ret != 0 )
 2215              		.loc 1 907 0
 2216 031a 0028     		cmp	r0, #0
 2217 031c 26D0     		beq	.L102
 2218 031e 0400     		movs	r4, r0
 2219              	.LVL294:
 2220 0320 5746     		mov	r7, r10
 2221              	.LBE6:
 2222              	.LBE7:
 2223 0322 9FE0     		b	.L92
 2224              	.L132:
 2225              		.align	2
 2226              	.L131:
 2227 0324 ECFDFFFF 		.word	-532
 2228 0328 00000000 		.word	.LC1
 2229 032c 04000000 		.word	.LC3
 2230 0330 80000000 		.word	.LANCHOR1
 2231 0334 20000000 		.word	.LC6
 2232 0338 00010000 		.word	.LANCHOR2
 2233 033c 80010000 		.word	.LANCHOR3
 2234 0340 00030000 		.word	.LANCHOR4
 2235 0344 80040000 		.word	.LANCHOR5
 2236 0348 00060000 		.word	.LANCHOR6
 2237 034c 800A0000 		.word	.LANCHOR7
 2238 0350 28000000 		.word	.LC14
 2239 0354 30000000 		.word	.LC16
 2240 0358 34000000 		.word	.LC18
 2241              	.LVL295:
 2242              	.L101:
 2243              	.LBB8:
 908:Source\mbedtls_open\library/gcm.c ****                     goto exit;
 909:Source\mbedtls_open\library/gcm.c ****             }
 910:Source\mbedtls_open\library/gcm.c ****             else
 911:Source\mbedtls_open\library/gcm.c ****             {
 912:Source\mbedtls_open\library/gcm.c ****                 ret = mbedtls_gcm_update( &ctx, pt_len[i], ct[j * 6 + i],
 2244              		.loc 1 912 0
 2245 035c 12AB     		add	r3, sp, #72
 2246 035e 3A00     		movs	r2, r7
 2247 0360 3100     		movs	r1, r6
 2248 0362 22A8     		add	r0, sp, #136
 2249              	.LVL296:
 2250 0364 FFF7FEFF 		bl	mbedtls_gcm_update
 2251              	.LVL297:
 913:Source\mbedtls_open\library/gcm.c ****                                           buf );
 914:Source\mbedtls_open\library/gcm.c ****                 if( ret != 0 )
 2252              		.loc 1 914 0
 2253 0368 0028     		cmp	r0, #0
 2254 036a 76D1     		bne	.L129
 2255              	.L102:
ARM GAS  C:\Users\Phuong\AppData\Local\Temp\ccINfzqY.s 			page 58


 915:Source\mbedtls_open\library/gcm.c ****                     goto exit;
 916:Source\mbedtls_open\library/gcm.c ****             }
 917:Source\mbedtls_open\library/gcm.c **** 
 918:Source\mbedtls_open\library/gcm.c ****             ret = mbedtls_gcm_finish( &ctx, tag_buf, 16 );
 2256              		.loc 1 918 0
 2257 036c 1022     		movs	r2, #16
 2258 036e 0EA9     		add	r1, sp, #56
 2259 0370 22A8     		add	r0, sp, #136
 2260              	.LVL298:
 2261 0372 FFF7FEFF 		bl	mbedtls_gcm_finish
 2262              	.LVL299:
 919:Source\mbedtls_open\library/gcm.c ****             if( ret != 0 )
 2263              		.loc 1 919 0
 2264 0376 0028     		cmp	r0, #0
 2265 0378 72D1     		bne	.L130
 920:Source\mbedtls_open\library/gcm.c ****                 goto exit;
 921:Source\mbedtls_open\library/gcm.c **** 
 922:Source\mbedtls_open\library/gcm.c ****             if( memcmp( buf, pt[pt_index[i]], pt_len[i] ) != 0 ||
 2266              		.loc 1 922 0
 2267 037a 444A     		ldr	r2, .L133
 2268 037c A300     		lsls	r3, r4, #2
 2269 037e D118     		adds	r1, r2, r3
 2270 0380 096D     		ldr	r1, [r1, #80]
 2271 0382 6832     		adds	r2, r2, #104
 2272 0384 8901     		lsls	r1, r1, #6
 2273 0386 5118     		adds	r1, r2, r1
 2274 0388 414A     		ldr	r2, .L133+4
 2275 038a D318     		adds	r3, r2, r3
 2276 038c 9A6D     		ldr	r2, [r3, #88]
 2277 038e 12A8     		add	r0, sp, #72
 2278              	.LVL300:
 2279 0390 FFF7FEFF 		bl	memcmp
 2280              	.LVL301:
 2281 0394 0028     		cmp	r0, #0
 2282 0396 34D1     		bne	.L114
 923:Source\mbedtls_open\library/gcm.c ****                 memcmp( tag_buf, tag[j * 6 + i], 16 ) != 0 )
 2283              		.loc 1 923 0 discriminator 1
 2284 0398 1022     		movs	r2, #16
 2285 039a 2900     		movs	r1, r5
 2286 039c 0EA8     		add	r0, sp, #56
 2287 039e FFF7FEFF 		bl	memcmp
 2288              	.LVL302:
 922:Source\mbedtls_open\library/gcm.c ****                 memcmp( tag_buf, tag[j * 6 + i], 16 ) != 0 )
 2289              		.loc 1 922 0 discriminator 1
 2290 03a2 0028     		cmp	r0, #0
 2291 03a4 30D1     		bne	.L115
 924:Source\mbedtls_open\library/gcm.c ****             {
 925:Source\mbedtls_open\library/gcm.c ****                 ret = 1;
 926:Source\mbedtls_open\library/gcm.c ****                 goto exit;
 927:Source\mbedtls_open\library/gcm.c ****             }
 928:Source\mbedtls_open\library/gcm.c **** 
 929:Source\mbedtls_open\library/gcm.c ****             mbedtls_gcm_free( &ctx );
 2292              		.loc 1 929 0
 2293 03a6 22A8     		add	r0, sp, #136
 2294 03a8 FFF7FEFF 		bl	mbedtls_gcm_free
 2295              	.LVL303:
 930:Source\mbedtls_open\library/gcm.c **** 
ARM GAS  C:\Users\Phuong\AppData\Local\Temp\ccINfzqY.s 			page 59


 931:Source\mbedtls_open\library/gcm.c ****             if( verbose != 0 )
 2296              		.loc 1 931 0
 2297 03ac 5346     		mov	r3, r10
 2298 03ae 002B     		cmp	r3, #0
 2299 03b0 02D0     		beq	.L103
 2300              	.LVL304:
 932:Source\mbedtls_open\library/gcm.c ****                 mbedtls_printf( "passed\n" );
 2301              		.loc 1 932 0
 2302 03b2 3848     		ldr	r0, .L133+8
 2303 03b4 FFF7FEFF 		bl	puts
 2304              	.LVL305:
 2305              	.L103:
 752:Source\mbedtls_open\library/gcm.c ****         {
 2306              		.loc 1 752 0 discriminator 2
 2307 03b8 0134     		adds	r4, r4, #1
 2308              	.LVL306:
 2309              	.L88:
 752:Source\mbedtls_open\library/gcm.c ****         {
 2310              		.loc 1 752 0 is_stmt 0 discriminator 1
 2311 03ba 052C     		cmp	r4, #5
 2312 03bc 00DC     		bgt	.LCB2448
 2313 03be 31E6     		b	.L104	@long jump
 2314              	.LCB2448:
 2315              	.L91:
 2316              	.LBE8:
 748:Source\mbedtls_open\library/gcm.c ****     {
 2317              		.loc 1 748 0 is_stmt 1 discriminator 2
 2318 03c0 0123     		movs	r3, #1
 2319 03c2 9C46     		mov	ip, r3
 2320 03c4 E144     		add	r9, r9, ip
 2321              	.LVL307:
 2322              	.L87:
 748:Source\mbedtls_open\library/gcm.c ****     {
 2323              		.loc 1 748 0 is_stmt 0 discriminator 1
 2324 03c6 4B46     		mov	r3, r9
 2325 03c8 022B     		cmp	r3, #2
 2326 03ca 00DC     		bgt	.LCB2464
 2327 03cc 24E6     		b	.L105	@long jump
 2328              	.LCB2464:
 2329 03ce 5746     		mov	r7, r10
 933:Source\mbedtls_open\library/gcm.c ****         }
 934:Source\mbedtls_open\library/gcm.c ****     }
 935:Source\mbedtls_open\library/gcm.c **** 
 936:Source\mbedtls_open\library/gcm.c ****     if( verbose != 0 )
 2330              		.loc 1 936 0 is_stmt 1
 2331 03d0 002F     		cmp	r7, #0
 2332 03d2 1CD0     		beq	.L116
 2333              	.LVL308:
 937:Source\mbedtls_open\library/gcm.c ****         mbedtls_printf( "\n" );
 2334              		.loc 1 937 0
 2335 03d4 0A20     		movs	r0, #10
 2336 03d6 FFF7FEFF 		bl	putchar
 2337              	.LVL309:
 938:Source\mbedtls_open\library/gcm.c **** 
 939:Source\mbedtls_open\library/gcm.c ****     ret = 0;
 2338              		.loc 1 939 0
 2339 03da 0024     		movs	r4, #0
ARM GAS  C:\Users\Phuong\AppData\Local\Temp\ccINfzqY.s 			page 60


 2340 03dc 42E0     		b	.L92
 2341              	.LVL310:
 2342              	.L108:
 2343 03de 5746     		mov	r7, r10
 2344              	.LBB9:
 788:Source\mbedtls_open\library/gcm.c ****                 goto exit;
 2345              		.loc 1 788 0
 2346 03e0 0124     		movs	r4, #1
 2347              	.LVL311:
 2348 03e2 3FE0     		b	.L92
 2349              	.LVL312:
 2350              	.L109:
 2351 03e4 5746     		mov	r7, r10
 2352 03e6 0124     		movs	r4, #1
 2353              	.LVL313:
 2354 03e8 3CE0     		b	.L92
 2355              	.LVL314:
 2356              	.L110:
 2357 03ea 5746     		mov	r7, r10
 820:Source\mbedtls_open\library/gcm.c ****                 goto exit;
 2358              		.loc 1 820 0
 2359 03ec 0124     		movs	r4, #1
 2360              	.LVL315:
 2361 03ee 39E0     		b	.L92
 2362              	.LVL316:
 2363              	.L111:
 2364 03f0 5746     		mov	r7, r10
 2365 03f2 0124     		movs	r4, #1
 2366              	.LVL317:
 2367 03f4 36E0     		b	.L92
 2368              	.LVL318:
 2369              	.L112:
 2370 03f6 5746     		mov	r7, r10
 872:Source\mbedtls_open\library/gcm.c ****                 goto exit;
 2371              		.loc 1 872 0
 2372 03f8 0124     		movs	r4, #1
 2373              	.LVL319:
 2374 03fa 33E0     		b	.L92
 2375              	.LVL320:
 2376              	.L113:
 2377 03fc 5746     		mov	r7, r10
 2378 03fe 0124     		movs	r4, #1
 2379              	.LVL321:
 2380 0400 30E0     		b	.L92
 2381              	.LVL322:
 2382              	.L114:
 2383 0402 5746     		mov	r7, r10
 925:Source\mbedtls_open\library/gcm.c ****                 goto exit;
 2384              		.loc 1 925 0
 2385 0404 0124     		movs	r4, #1
 2386              	.LVL323:
 2387 0406 2DE0     		b	.L92
 2388              	.LVL324:
 2389              	.L115:
 2390 0408 5746     		mov	r7, r10
 2391 040a 0124     		movs	r4, #1
 2392              	.LVL325:
ARM GAS  C:\Users\Phuong\AppData\Local\Temp\ccINfzqY.s 			page 61


 2393 040c 2AE0     		b	.L92
 2394              	.LVL326:
 2395              	.L116:
 2396              	.LBE9:
 2397              		.loc 1 939 0
 2398 040e 0024     		movs	r4, #0
 2399 0410 28E0     		b	.L92
 2400              	.LVL327:
 2401              	.L117:
 2402 0412 0400     		movs	r4, r0
 2403              	.LVL328:
 2404 0414 5746     		mov	r7, r10
 2405 0416 25E0     		b	.L92
 2406              	.LVL329:
 2407              	.L118:
 2408 0418 0400     		movs	r4, r0
 2409              	.LVL330:
 2410 041a 5746     		mov	r7, r10
 2411 041c 22E0     		b	.L92
 2412              	.LVL331:
 2413              	.L119:
 2414 041e 0400     		movs	r4, r0
 2415              	.LVL332:
 2416 0420 5746     		mov	r7, r10
 2417 0422 1FE0     		b	.L92
 2418              	.LVL333:
 2419              	.L120:
 2420 0424 0400     		movs	r4, r0
 2421              	.LVL334:
 2422 0426 5746     		mov	r7, r10
 2423 0428 1CE0     		b	.L92
 2424              	.LVL335:
 2425              	.L121:
 2426 042a 0400     		movs	r4, r0
 2427              	.LVL336:
 2428 042c 5746     		mov	r7, r10
 2429 042e 19E0     		b	.L92
 2430              	.LVL337:
 2431              	.L122:
 2432 0430 0400     		movs	r4, r0
 2433              	.LVL338:
 2434 0432 5746     		mov	r7, r10
 2435 0434 16E0     		b	.L92
 2436              	.LVL339:
 2437              	.L123:
 2438 0436 0400     		movs	r4, r0
 2439              	.LVL340:
 2440 0438 5746     		mov	r7, r10
 2441 043a 13E0     		b	.L92
 2442              	.LVL341:
 2443              	.L124:
 2444 043c 0400     		movs	r4, r0
 2445              	.LVL342:
 2446 043e 5746     		mov	r7, r10
 2447 0440 10E0     		b	.L92
 2448              	.LVL343:
 2449              	.L125:
ARM GAS  C:\Users\Phuong\AppData\Local\Temp\ccINfzqY.s 			page 62


 2450 0442 0400     		movs	r4, r0
 2451              	.LVL344:
 2452 0444 5746     		mov	r7, r10
 2453 0446 0DE0     		b	.L92
 2454              	.LVL345:
 2455              	.L126:
 2456 0448 0400     		movs	r4, r0
 2457              	.LVL346:
 2458 044a 5746     		mov	r7, r10
 2459 044c 0AE0     		b	.L92
 2460              	.LVL347:
 2461              	.L127:
 2462 044e 0400     		movs	r4, r0
 2463              	.LVL348:
 2464 0450 5746     		mov	r7, r10
 2465 0452 07E0     		b	.L92
 2466              	.LVL349:
 2467              	.L128:
 2468 0454 0400     		movs	r4, r0
 2469              	.LVL350:
 2470 0456 5746     		mov	r7, r10
 2471 0458 04E0     		b	.L92
 2472              	.LVL351:
 2473              	.L129:
 2474 045a 0400     		movs	r4, r0
 2475              	.LVL352:
 2476 045c 5746     		mov	r7, r10
 2477 045e 01E0     		b	.L92
 2478              	.LVL353:
 2479              	.L130:
 2480 0460 0400     		movs	r4, r0
 2481              	.LVL354:
 2482 0462 5746     		mov	r7, r10
 2483              	.LVL355:
 2484              	.L92:
 940:Source\mbedtls_open\library/gcm.c **** 
 941:Source\mbedtls_open\library/gcm.c **** exit:
 942:Source\mbedtls_open\library/gcm.c ****     if( ret != 0 )
 2485              		.loc 1 942 0
 2486 0464 002C     		cmp	r4, #0
 2487 0466 07D0     		beq	.L106
 943:Source\mbedtls_open\library/gcm.c ****     {
 944:Source\mbedtls_open\library/gcm.c ****         if( verbose != 0 )
 2488              		.loc 1 944 0
 2489 0468 002F     		cmp	r7, #0
 2490 046a 02D0     		beq	.L107
 945:Source\mbedtls_open\library/gcm.c ****             mbedtls_printf( "failed\n" );
 2491              		.loc 1 945 0
 2492 046c 0A48     		ldr	r0, .L133+12
 2493 046e FFF7FEFF 		bl	puts
 2494              	.LVL356:
 2495              	.L107:
 946:Source\mbedtls_open\library/gcm.c ****         mbedtls_gcm_free( &ctx );
 2496              		.loc 1 946 0
 2497 0472 22A8     		add	r0, sp, #136
 2498 0474 FFF7FEFF 		bl	mbedtls_gcm_free
 2499              	.LVL357:
ARM GAS  C:\Users\Phuong\AppData\Local\Temp\ccINfzqY.s 			page 63


 2500              	.L106:
 947:Source\mbedtls_open\library/gcm.c ****     }
 948:Source\mbedtls_open\library/gcm.c **** 
 949:Source\mbedtls_open\library/gcm.c ****     return( ret );
 950:Source\mbedtls_open\library/gcm.c **** }
 2501              		.loc 1 950 0
 2502 0478 2000     		movs	r0, r4
 2503 047a 8523     		movs	r3, #133
 2504 047c 9B00     		lsls	r3, r3, #2
 2505 047e 9D44     		add	sp, sp, r3
 2506              		@ sp needed
 2507              	.LVL358:
 2508              	.LVL359:
 2509              	.LVL360:
 2510              	.LVL361:
 2511 0480 3CBC     		pop	{r2, r3, r4, r5}
 2512 0482 9046     		mov	r8, r2
 2513 0484 9946     		mov	r9, r3
 2514 0486 A246     		mov	r10, r4
 2515 0488 AB46     		mov	fp, r5
 2516 048a F0BD     		pop	{r4, r5, r6, r7, pc}
 2517              	.L134:
 2518              		.align	2
 2519              	.L133:
 2520 048c 80040000 		.word	.LANCHOR5
 2521 0490 00010000 		.word	.LANCHOR2
 2522 0494 28000000 		.word	.LC14
 2523 0498 54000000 		.word	.LC20
 2524              		.cfi_endproc
 2525              	.LFE18:
 2526              		.size	mbedtls_gcm_self_test, .-mbedtls_gcm_self_test
 2527              		.section	.rodata
 2528              		.align	3
 2529              		.set	.LANCHOR0,. + 0
 2530              		.set	.LANCHOR1,. + 128
 2531              		.set	.LANCHOR2,. + 256
 2532              		.set	.LANCHOR3,. + 384
 2533              		.set	.LANCHOR4,. + 768
 2534              		.set	.LANCHOR5,. + 1152
 2535              		.set	.LANCHOR6,. + 1536
 2536              		.set	.LANCHOR7,. + 2688
 2537              		.type	last4, %object
 2538              		.size	last4, 128
 2539              	last4:
 2540 0000 00000000 		.word	0
 2541 0004 00000000 		.word	0
 2542 0008 201C0000 		.word	7200
 2543 000c 00000000 		.word	0
 2544 0010 40380000 		.word	14400
 2545 0014 00000000 		.word	0
 2546 0018 60240000 		.word	9312
 2547 001c 00000000 		.word	0
 2548 0020 80700000 		.word	28800
 2549 0024 00000000 		.word	0
 2550 0028 A06C0000 		.word	27808
 2551 002c 00000000 		.word	0
 2552 0030 C0480000 		.word	18624
ARM GAS  C:\Users\Phuong\AppData\Local\Temp\ccINfzqY.s 			page 64


 2553 0034 00000000 		.word	0
 2554 0038 E0540000 		.word	21728
 2555 003c 00000000 		.word	0
 2556 0040 00E10000 		.word	57600
 2557 0044 00000000 		.word	0
 2558 0048 20FD0000 		.word	64800
 2559 004c 00000000 		.word	0
 2560 0050 40D90000 		.word	55616
 2561 0054 00000000 		.word	0
 2562 0058 60C50000 		.word	50528
 2563 005c 00000000 		.word	0
 2564 0060 80910000 		.word	37248
 2565 0064 00000000 		.word	0
 2566 0068 A08D0000 		.word	36256
 2567 006c 00000000 		.word	0
 2568 0070 C0A90000 		.word	43456
 2569 0074 00000000 		.word	0
 2570 0078 E0B50000 		.word	46560
 2571 007c 00000000 		.word	0
 2572              		.type	key_index, %object
 2573              		.size	key_index, 24
 2574              	key_index:
 2575 0080 00000000 		.word	0
 2576 0084 00000000 		.word	0
 2577 0088 01000000 		.word	1
 2578 008c 01000000 		.word	1
 2579 0090 01000000 		.word	1
 2580 0094 01000000 		.word	1
 2581              		.type	key, %object
 2582              		.size	key, 192
 2583              	key:
 2584 0098 00       		.byte	0
 2585 0099 00       		.byte	0
 2586 009a 00       		.byte	0
 2587 009b 00       		.byte	0
 2588 009c 00       		.byte	0
 2589 009d 00       		.byte	0
 2590 009e 00       		.byte	0
 2591 009f 00       		.byte	0
 2592 00a0 00       		.byte	0
 2593 00a1 00       		.byte	0
 2594 00a2 00       		.byte	0
 2595 00a3 00       		.byte	0
 2596 00a4 00       		.byte	0
 2597 00a5 00       		.byte	0
 2598 00a6 00       		.byte	0
 2599 00a7 00       		.byte	0
 2600 00a8 00       		.byte	0
 2601 00a9 00       		.byte	0
 2602 00aa 00       		.byte	0
 2603 00ab 00       		.byte	0
 2604 00ac 00       		.byte	0
 2605 00ad 00       		.byte	0
 2606 00ae 00       		.byte	0
 2607 00af 00       		.byte	0
 2608 00b0 00       		.byte	0
 2609 00b1 00       		.byte	0
ARM GAS  C:\Users\Phuong\AppData\Local\Temp\ccINfzqY.s 			page 65


 2610 00b2 00       		.byte	0
 2611 00b3 00       		.byte	0
 2612 00b4 00       		.byte	0
 2613 00b5 00       		.byte	0
 2614 00b6 00       		.byte	0
 2615 00b7 00       		.byte	0
 2616 00b8 FE       		.byte	-2
 2617 00b9 FF       		.byte	-1
 2618 00ba E9       		.byte	-23
 2619 00bb 92       		.byte	-110
 2620 00bc 86       		.byte	-122
 2621 00bd 65       		.byte	101
 2622 00be 73       		.byte	115
 2623 00bf 1C       		.byte	28
 2624 00c0 6D       		.byte	109
 2625 00c1 6A       		.byte	106
 2626 00c2 8F       		.byte	-113
 2627 00c3 94       		.byte	-108
 2628 00c4 67       		.byte	103
 2629 00c5 30       		.byte	48
 2630 00c6 83       		.byte	-125
 2631 00c7 08       		.byte	8
 2632 00c8 FE       		.byte	-2
 2633 00c9 FF       		.byte	-1
 2634 00ca E9       		.byte	-23
 2635 00cb 92       		.byte	-110
 2636 00cc 86       		.byte	-122
 2637 00cd 65       		.byte	101
 2638 00ce 73       		.byte	115
 2639 00cf 1C       		.byte	28
 2640 00d0 6D       		.byte	109
 2641 00d1 6A       		.byte	106
 2642 00d2 8F       		.byte	-113
 2643 00d3 94       		.byte	-108
 2644 00d4 67       		.byte	103
 2645 00d5 30       		.byte	48
 2646 00d6 83       		.byte	-125
 2647 00d7 08       		.byte	8
 2648 00d8 00000000 		.space	128
 2648      00000000 
 2648      00000000 
 2648      00000000 
 2648      00000000 
 2649              		.type	pt_len, %object
 2650              		.size	pt_len, 24
 2651              	pt_len:
 2652 0158 00000000 		.word	0
 2653 015c 10000000 		.word	16
 2654 0160 40000000 		.word	64
 2655 0164 3C000000 		.word	60
 2656 0168 3C000000 		.word	60
 2657 016c 3C000000 		.word	60
 2658              		.type	iv_index, %object
 2659              		.size	iv_index, 24
 2660              	iv_index:
 2661 0170 00000000 		.word	0
 2662 0174 00000000 		.word	0
ARM GAS  C:\Users\Phuong\AppData\Local\Temp\ccINfzqY.s 			page 66


 2663 0178 01000000 		.word	1
 2664 017c 01000000 		.word	1
 2665 0180 01000000 		.word	1
 2666 0184 02000000 		.word	2
 2667              		.type	iv, %object
 2668              		.size	iv, 384
 2669              	iv:
 2670 0188 00       		.byte	0
 2671 0189 00       		.byte	0
 2672 018a 00       		.byte	0
 2673 018b 00       		.byte	0
 2674 018c 00       		.byte	0
 2675 018d 00       		.byte	0
 2676 018e 00       		.byte	0
 2677 018f 00       		.byte	0
 2678 0190 00       		.byte	0
 2679 0191 00       		.byte	0
 2680 0192 00       		.byte	0
 2681 0193 00       		.byte	0
 2682 0194 00000000 		.space	52
 2682      00000000 
 2682      00000000 
 2682      00000000 
 2682      00000000 
 2683 01c8 CA       		.byte	-54
 2684 01c9 FE       		.byte	-2
 2685 01ca BA       		.byte	-70
 2686 01cb BE       		.byte	-66
 2687 01cc FA       		.byte	-6
 2688 01cd CE       		.byte	-50
 2689 01ce DB       		.byte	-37
 2690 01cf AD       		.byte	-83
 2691 01d0 DE       		.byte	-34
 2692 01d1 CA       		.byte	-54
 2693 01d2 F8       		.byte	-8
 2694 01d3 88       		.byte	-120
 2695 01d4 00000000 		.space	52
 2695      00000000 
 2695      00000000 
 2695      00000000 
 2695      00000000 
 2696 0208 93       		.byte	-109
 2697 0209 13       		.byte	19
 2698 020a 22       		.byte	34
 2699 020b 5D       		.byte	93
 2700 020c F8       		.byte	-8
 2701 020d 84       		.byte	-124
 2702 020e 06       		.byte	6
 2703 020f E5       		.byte	-27
 2704 0210 55       		.byte	85
 2705 0211 90       		.byte	-112
 2706 0212 9C       		.byte	-100
 2707 0213 5A       		.byte	90
 2708 0214 FF       		.byte	-1
 2709 0215 52       		.byte	82
 2710 0216 69       		.byte	105
 2711 0217 AA       		.byte	-86
ARM GAS  C:\Users\Phuong\AppData\Local\Temp\ccINfzqY.s 			page 67


 2712 0218 6A       		.byte	106
 2713 0219 7A       		.byte	122
 2714 021a 95       		.byte	-107
 2715 021b 38       		.byte	56
 2716 021c 53       		.byte	83
 2717 021d 4F       		.byte	79
 2718 021e 7D       		.byte	125
 2719 021f A1       		.byte	-95
 2720 0220 E4       		.byte	-28
 2721 0221 C3       		.byte	-61
 2722 0222 03       		.byte	3
 2723 0223 D2       		.byte	-46
 2724 0224 A3       		.byte	-93
 2725 0225 18       		.byte	24
 2726 0226 A7       		.byte	-89
 2727 0227 28       		.byte	40
 2728 0228 C3       		.byte	-61
 2729 0229 C0       		.byte	-64
 2730 022a C9       		.byte	-55
 2731 022b 51       		.byte	81
 2732 022c 56       		.byte	86
 2733 022d 80       		.byte	-128
 2734 022e 95       		.byte	-107
 2735 022f 39       		.byte	57
 2736 0230 FC       		.byte	-4
 2737 0231 F0       		.byte	-16
 2738 0232 E2       		.byte	-30
 2739 0233 42       		.byte	66
 2740 0234 9A       		.byte	-102
 2741 0235 6B       		.byte	107
 2742 0236 52       		.byte	82
 2743 0237 54       		.byte	84
 2744 0238 16       		.byte	22
 2745 0239 AE       		.byte	-82
 2746 023a DB       		.byte	-37
 2747 023b F5       		.byte	-11
 2748 023c A0       		.byte	-96
 2749 023d DE       		.byte	-34
 2750 023e 6A       		.byte	106
 2751 023f 57       		.byte	87
 2752 0240 A6       		.byte	-90
 2753 0241 37       		.byte	55
 2754 0242 B3       		.byte	-77
 2755 0243 9B       		.byte	-101
 2756 0244 00000000 		.space	4
 2757 0248 00000000 		.space	192
 2757      00000000 
 2757      00000000 
 2757      00000000 
 2757      00000000 
 2758              		.type	iv_len, %object
 2759              		.size	iv_len, 24
 2760              	iv_len:
 2761 0308 0C000000 		.word	12
 2762 030c 0C000000 		.word	12
 2763 0310 0C000000 		.word	12
 2764 0314 0C000000 		.word	12
ARM GAS  C:\Users\Phuong\AppData\Local\Temp\ccINfzqY.s 			page 68


 2765 0318 08000000 		.word	8
 2766 031c 3C000000 		.word	60
 2767              		.type	add_index, %object
 2768              		.size	add_index, 24
 2769              	add_index:
 2770 0320 00000000 		.word	0
 2771 0324 00000000 		.word	0
 2772 0328 00000000 		.word	0
 2773 032c 01000000 		.word	1
 2774 0330 01000000 		.word	1
 2775 0334 01000000 		.word	1
 2776              		.type	additional, %object
 2777              		.size	additional, 384
 2778              	additional:
 2779 0338 00       		.byte	0
 2780 0339 00000000 		.space	63
 2780      00000000 
 2780      00000000 
 2780      00000000 
 2780      00000000 
 2781 0378 FE       		.byte	-2
 2782 0379 ED       		.byte	-19
 2783 037a FA       		.byte	-6
 2784 037b CE       		.byte	-50
 2785 037c DE       		.byte	-34
 2786 037d AD       		.byte	-83
 2787 037e BE       		.byte	-66
 2788 037f EF       		.byte	-17
 2789 0380 FE       		.byte	-2
 2790 0381 ED       		.byte	-19
 2791 0382 FA       		.byte	-6
 2792 0383 CE       		.byte	-50
 2793 0384 DE       		.byte	-34
 2794 0385 AD       		.byte	-83
 2795 0386 BE       		.byte	-66
 2796 0387 EF       		.byte	-17
 2797 0388 AB       		.byte	-85
 2798 0389 AD       		.byte	-83
 2799 038a DA       		.byte	-38
 2800 038b D2       		.byte	-46
 2801 038c 00000000 		.space	44
 2801      00000000 
 2801      00000000 
 2801      00000000 
 2801      00000000 
 2802 03b8 00000000 		.space	256
 2802      00000000 
 2802      00000000 
 2802      00000000 
 2802      00000000 
 2803              		.type	add_len, %object
 2804              		.size	add_len, 24
 2805              	add_len:
 2806 04b8 00000000 		.word	0
 2807 04bc 00000000 		.word	0
 2808 04c0 00000000 		.word	0
 2809 04c4 14000000 		.word	20
ARM GAS  C:\Users\Phuong\AppData\Local\Temp\ccINfzqY.s 			page 69


 2810 04c8 14000000 		.word	20
 2811 04cc 14000000 		.word	20
 2812              		.type	pt_index, %object
 2813              		.size	pt_index, 24
 2814              	pt_index:
 2815 04d0 00000000 		.word	0
 2816 04d4 00000000 		.word	0
 2817 04d8 01000000 		.word	1
 2818 04dc 01000000 		.word	1
 2819 04e0 01000000 		.word	1
 2820 04e4 01000000 		.word	1
 2821              		.type	pt, %object
 2822              		.size	pt, 384
 2823              	pt:
 2824 04e8 00       		.byte	0
 2825 04e9 00       		.byte	0
 2826 04ea 00       		.byte	0
 2827 04eb 00       		.byte	0
 2828 04ec 00       		.byte	0
 2829 04ed 00       		.byte	0
 2830 04ee 00       		.byte	0
 2831 04ef 00       		.byte	0
 2832 04f0 00       		.byte	0
 2833 04f1 00       		.byte	0
 2834 04f2 00       		.byte	0
 2835 04f3 00       		.byte	0
 2836 04f4 00       		.byte	0
 2837 04f5 00       		.byte	0
 2838 04f6 00       		.byte	0
 2839 04f7 00       		.byte	0
 2840 04f8 00000000 		.space	48
 2840      00000000 
 2840      00000000 
 2840      00000000 
 2840      00000000 
 2841 0528 D9       		.byte	-39
 2842 0529 31       		.byte	49
 2843 052a 32       		.byte	50
 2844 052b 25       		.byte	37
 2845 052c F8       		.byte	-8
 2846 052d 84       		.byte	-124
 2847 052e 06       		.byte	6
 2848 052f E5       		.byte	-27
 2849 0530 A5       		.byte	-91
 2850 0531 59       		.byte	89
 2851 0532 09       		.byte	9
 2852 0533 C5       		.byte	-59
 2853 0534 AF       		.byte	-81
 2854 0535 F5       		.byte	-11
 2855 0536 26       		.byte	38
 2856 0537 9A       		.byte	-102
 2857 0538 86       		.byte	-122
 2858 0539 A7       		.byte	-89
 2859 053a A9       		.byte	-87
 2860 053b 53       		.byte	83
 2861 053c 15       		.byte	21
 2862 053d 34       		.byte	52
ARM GAS  C:\Users\Phuong\AppData\Local\Temp\ccINfzqY.s 			page 70


 2863 053e F7       		.byte	-9
 2864 053f DA       		.byte	-38
 2865 0540 2E       		.byte	46
 2866 0541 4C       		.byte	76
 2867 0542 30       		.byte	48
 2868 0543 3D       		.byte	61
 2869 0544 8A       		.byte	-118
 2870 0545 31       		.byte	49
 2871 0546 8A       		.byte	-118
 2872 0547 72       		.byte	114
 2873 0548 1C       		.byte	28
 2874 0549 3C       		.byte	60
 2875 054a 0C       		.byte	12
 2876 054b 95       		.byte	-107
 2877 054c 95       		.byte	-107
 2878 054d 68       		.byte	104
 2879 054e 09       		.byte	9
 2880 054f 53       		.byte	83
 2881 0550 2F       		.byte	47
 2882 0551 CF       		.byte	-49
 2883 0552 0E       		.byte	14
 2884 0553 24       		.byte	36
 2885 0554 49       		.byte	73
 2886 0555 A6       		.byte	-90
 2887 0556 B5       		.byte	-75
 2888 0557 25       		.byte	37
 2889 0558 B1       		.byte	-79
 2890 0559 6A       		.byte	106
 2891 055a ED       		.byte	-19
 2892 055b F5       		.byte	-11
 2893 055c AA       		.byte	-86
 2894 055d 0D       		.byte	13
 2895 055e E6       		.byte	-26
 2896 055f 57       		.byte	87
 2897 0560 BA       		.byte	-70
 2898 0561 63       		.byte	99
 2899 0562 7B       		.byte	123
 2900 0563 39       		.byte	57
 2901 0564 1A       		.byte	26
 2902 0565 AF       		.byte	-81
 2903 0566 D2       		.byte	-46
 2904 0567 55       		.byte	85
 2905 0568 00000000 		.space	256
 2905      00000000 
 2905      00000000 
 2905      00000000 
 2905      00000000 
 2906              		.type	ct, %object
 2907              		.size	ct, 1152
 2908              	ct:
 2909 0668 00       		.byte	0
 2910 0669 00000000 		.space	63
 2910      00000000 
 2910      00000000 
 2910      00000000 
 2910      00000000 
 2911 06a8 03       		.byte	3
ARM GAS  C:\Users\Phuong\AppData\Local\Temp\ccINfzqY.s 			page 71


 2912 06a9 88       		.byte	-120
 2913 06aa DA       		.byte	-38
 2914 06ab CE       		.byte	-50
 2915 06ac 60       		.byte	96
 2916 06ad B6       		.byte	-74
 2917 06ae A3       		.byte	-93
 2918 06af 92       		.byte	-110
 2919 06b0 F3       		.byte	-13
 2920 06b1 28       		.byte	40
 2921 06b2 C2       		.byte	-62
 2922 06b3 B9       		.byte	-71
 2923 06b4 71       		.byte	113
 2924 06b5 B2       		.byte	-78
 2925 06b6 FE       		.byte	-2
 2926 06b7 78       		.byte	120
 2927 06b8 00000000 		.space	48
 2927      00000000 
 2927      00000000 
 2927      00000000 
 2927      00000000 
 2928 06e8 42       		.byte	66
 2929 06e9 83       		.byte	-125
 2930 06ea 1E       		.byte	30
 2931 06eb C2       		.byte	-62
 2932 06ec 21       		.byte	33
 2933 06ed 77       		.byte	119
 2934 06ee 74       		.byte	116
 2935 06ef 24       		.byte	36
 2936 06f0 4B       		.byte	75
 2937 06f1 72       		.byte	114
 2938 06f2 21       		.byte	33
 2939 06f3 B7       		.byte	-73
 2940 06f4 84       		.byte	-124
 2941 06f5 D0       		.byte	-48
 2942 06f6 D4       		.byte	-44
 2943 06f7 9C       		.byte	-100
 2944 06f8 E3       		.byte	-29
 2945 06f9 AA       		.byte	-86
 2946 06fa 21       		.byte	33
 2947 06fb 2F       		.byte	47
 2948 06fc 2C       		.byte	44
 2949 06fd 02       		.byte	2
 2950 06fe A4       		.byte	-92
 2951 06ff E0       		.byte	-32
 2952 0700 35       		.byte	53
 2953 0701 C1       		.byte	-63
 2954 0702 7E       		.byte	126
 2955 0703 23       		.byte	35
 2956 0704 29       		.byte	41
 2957 0705 AC       		.byte	-84
 2958 0706 A1       		.byte	-95
 2959 0707 2E       		.byte	46
 2960 0708 21       		.byte	33
 2961 0709 D5       		.byte	-43
 2962 070a 14       		.byte	20
 2963 070b B2       		.byte	-78
 2964 070c 54       		.byte	84
ARM GAS  C:\Users\Phuong\AppData\Local\Temp\ccINfzqY.s 			page 72


 2965 070d 66       		.byte	102
 2966 070e 93       		.byte	-109
 2967 070f 1C       		.byte	28
 2968 0710 7D       		.byte	125
 2969 0711 8F       		.byte	-113
 2970 0712 6A       		.byte	106
 2971 0713 5A       		.byte	90
 2972 0714 AC       		.byte	-84
 2973 0715 84       		.byte	-124
 2974 0716 AA       		.byte	-86
 2975 0717 05       		.byte	5
 2976 0718 1B       		.byte	27
 2977 0719 A3       		.byte	-93
 2978 071a 0B       		.byte	11
 2979 071b 39       		.byte	57
 2980 071c 6A       		.byte	106
 2981 071d 0A       		.byte	10
 2982 071e AC       		.byte	-84
 2983 071f 97       		.byte	-105
 2984 0720 3D       		.byte	61
 2985 0721 58       		.byte	88
 2986 0722 E0       		.byte	-32
 2987 0723 91       		.byte	-111
 2988 0724 47       		.byte	71
 2989 0725 3F       		.byte	63
 2990 0726 59       		.byte	89
 2991 0727 85       		.byte	-123
 2992 0728 42       		.byte	66
 2993 0729 83       		.byte	-125
 2994 072a 1E       		.byte	30
 2995 072b C2       		.byte	-62
 2996 072c 21       		.byte	33
 2997 072d 77       		.byte	119
 2998 072e 74       		.byte	116
 2999 072f 24       		.byte	36
 3000 0730 4B       		.byte	75
 3001 0731 72       		.byte	114
 3002 0732 21       		.byte	33
 3003 0733 B7       		.byte	-73
 3004 0734 84       		.byte	-124
 3005 0735 D0       		.byte	-48
 3006 0736 D4       		.byte	-44
 3007 0737 9C       		.byte	-100
 3008 0738 E3       		.byte	-29
 3009 0739 AA       		.byte	-86
 3010 073a 21       		.byte	33
 3011 073b 2F       		.byte	47
 3012 073c 2C       		.byte	44
 3013 073d 02       		.byte	2
 3014 073e A4       		.byte	-92
 3015 073f E0       		.byte	-32
 3016 0740 35       		.byte	53
 3017 0741 C1       		.byte	-63
 3018 0742 7E       		.byte	126
 3019 0743 23       		.byte	35
 3020 0744 29       		.byte	41
 3021 0745 AC       		.byte	-84
ARM GAS  C:\Users\Phuong\AppData\Local\Temp\ccINfzqY.s 			page 73


 3022 0746 A1       		.byte	-95
 3023 0747 2E       		.byte	46
 3024 0748 21       		.byte	33
 3025 0749 D5       		.byte	-43
 3026 074a 14       		.byte	20
 3027 074b B2       		.byte	-78
 3028 074c 54       		.byte	84
 3029 074d 66       		.byte	102
 3030 074e 93       		.byte	-109
 3031 074f 1C       		.byte	28
 3032 0750 7D       		.byte	125
 3033 0751 8F       		.byte	-113
 3034 0752 6A       		.byte	106
 3035 0753 5A       		.byte	90
 3036 0754 AC       		.byte	-84
 3037 0755 84       		.byte	-124
 3038 0756 AA       		.byte	-86
 3039 0757 05       		.byte	5
 3040 0758 1B       		.byte	27
 3041 0759 A3       		.byte	-93
 3042 075a 0B       		.byte	11
 3043 075b 39       		.byte	57
 3044 075c 6A       		.byte	106
 3045 075d 0A       		.byte	10
 3046 075e AC       		.byte	-84
 3047 075f 97       		.byte	-105
 3048 0760 3D       		.byte	61
 3049 0761 58       		.byte	88
 3050 0762 E0       		.byte	-32
 3051 0763 91       		.byte	-111
 3052 0764 00000000 		.space	4
 3053 0768 61       		.byte	97
 3054 0769 35       		.byte	53
 3055 076a 3B       		.byte	59
 3056 076b 4C       		.byte	76
 3057 076c 28       		.byte	40
 3058 076d 06       		.byte	6
 3059 076e 93       		.byte	-109
 3060 076f 4A       		.byte	74
 3061 0770 77       		.byte	119
 3062 0771 7F       		.byte	127
 3063 0772 F5       		.byte	-11
 3064 0773 1F       		.byte	31
 3065 0774 A2       		.byte	-94
 3066 0775 2A       		.byte	42
 3067 0776 47       		.byte	71
 3068 0777 55       		.byte	85
 3069 0778 69       		.byte	105
 3070 0779 9B       		.byte	-101
 3071 077a 2A       		.byte	42
 3072 077b 71       		.byte	113
 3073 077c 4F       		.byte	79
 3074 077d CD       		.byte	-51
 3075 077e C6       		.byte	-58
 3076 077f F8       		.byte	-8
 3077 0780 37       		.byte	55
 3078 0781 66       		.byte	102
ARM GAS  C:\Users\Phuong\AppData\Local\Temp\ccINfzqY.s 			page 74


 3079 0782 E5       		.byte	-27
 3080 0783 F9       		.byte	-7
 3081 0784 7B       		.byte	123
 3082 0785 6C       		.byte	108
 3083 0786 74       		.byte	116
 3084 0787 23       		.byte	35
 3085 0788 73       		.byte	115
 3086 0789 80       		.byte	-128
 3087 078a 69       		.byte	105
 3088 078b 00       		.byte	0
 3089 078c E4       		.byte	-28
 3090 078d 9F       		.byte	-97
 3091 078e 24       		.byte	36
 3092 078f B2       		.byte	-78
 3093 0790 2B       		.byte	43
 3094 0791 09       		.byte	9
 3095 0792 75       		.byte	117
 3096 0793 44       		.byte	68
 3097 0794 D4       		.byte	-44
 3098 0795 89       		.byte	-119
 3099 0796 6B       		.byte	107
 3100 0797 42       		.byte	66
 3101 0798 49       		.byte	73
 3102 0799 89       		.byte	-119
 3103 079a B5       		.byte	-75
 3104 079b E1       		.byte	-31
 3105 079c EB       		.byte	-21
 3106 079d AC       		.byte	-84
 3107 079e 0F       		.byte	15
 3108 079f 07       		.byte	7
 3109 07a0 C2       		.byte	-62
 3110 07a1 3F       		.byte	63
 3111 07a2 45       		.byte	69
 3112 07a3 98       		.byte	-104
 3113 07a4 00000000 		.space	4
 3114 07a8 8C       		.byte	-116
 3115 07a9 E2       		.byte	-30
 3116 07aa 49       		.byte	73
 3117 07ab 98       		.byte	-104
 3118 07ac 62       		.byte	98
 3119 07ad 56       		.byte	86
 3120 07ae 15       		.byte	21
 3121 07af B6       		.byte	-74
 3122 07b0 03       		.byte	3
 3123 07b1 A0       		.byte	-96
 3124 07b2 33       		.byte	51
 3125 07b3 AC       		.byte	-84
 3126 07b4 A1       		.byte	-95
 3127 07b5 3F       		.byte	63
 3128 07b6 B8       		.byte	-72
 3129 07b7 94       		.byte	-108
 3130 07b8 BE       		.byte	-66
 3131 07b9 91       		.byte	-111
 3132 07ba 12       		.byte	18
 3133 07bb A5       		.byte	-91
 3134 07bc C3       		.byte	-61
 3135 07bd A2       		.byte	-94
ARM GAS  C:\Users\Phuong\AppData\Local\Temp\ccINfzqY.s 			page 75


 3136 07be 11       		.byte	17
 3137 07bf A8       		.byte	-88
 3138 07c0 BA       		.byte	-70
 3139 07c1 26       		.byte	38
 3140 07c2 2A       		.byte	42
 3141 07c3 3C       		.byte	60
 3142 07c4 CA       		.byte	-54
 3143 07c5 7E       		.byte	126
 3144 07c6 2C       		.byte	44
 3145 07c7 A7       		.byte	-89
 3146 07c8 01       		.byte	1
 3147 07c9 E4       		.byte	-28
 3148 07ca A9       		.byte	-87
 3149 07cb A4       		.byte	-92
 3150 07cc FB       		.byte	-5
 3151 07cd A4       		.byte	-92
 3152 07ce 3C       		.byte	60
 3153 07cf 90       		.byte	-112
 3154 07d0 CC       		.byte	-52
 3155 07d1 DC       		.byte	-36
 3156 07d2 B2       		.byte	-78
 3157 07d3 81       		.byte	-127
 3158 07d4 D4       		.byte	-44
 3159 07d5 8C       		.byte	-116
 3160 07d6 7C       		.byte	124
 3161 07d7 6F       		.byte	111
 3162 07d8 D6       		.byte	-42
 3163 07d9 28       		.byte	40
 3164 07da 75       		.byte	117
 3165 07db D2       		.byte	-46
 3166 07dc AC       		.byte	-84
 3167 07dd A4       		.byte	-92
 3168 07de 17       		.byte	23
 3169 07df 03       		.byte	3
 3170 07e0 4C       		.byte	76
 3171 07e1 34       		.byte	52
 3172 07e2 AE       		.byte	-82
 3173 07e3 E5       		.byte	-27
 3174 07e4 00000000 		.space	4
 3175 07e8 00       		.byte	0
 3176 07e9 00000000 		.space	63
 3176      00000000 
 3176      00000000 
 3176      00000000 
 3176      00000000 
 3177 0828 98       		.byte	-104
 3178 0829 E7       		.byte	-25
 3179 082a 24       		.byte	36
 3180 082b 7C       		.byte	124
 3181 082c 07       		.byte	7
 3182 082d F0       		.byte	-16
 3183 082e FE       		.byte	-2
 3184 082f 41       		.byte	65
 3185 0830 1C       		.byte	28
 3186 0831 26       		.byte	38
 3187 0832 7E       		.byte	126
 3188 0833 43       		.byte	67
ARM GAS  C:\Users\Phuong\AppData\Local\Temp\ccINfzqY.s 			page 76


 3189 0834 84       		.byte	-124
 3190 0835 B0       		.byte	-80
 3191 0836 F6       		.byte	-10
 3192 0837 00       		.byte	0
 3193 0838 00000000 		.space	48
 3193      00000000 
 3193      00000000 
 3193      00000000 
 3193      00000000 
 3194 0868 39       		.byte	57
 3195 0869 80       		.byte	-128
 3196 086a CA       		.byte	-54
 3197 086b 0B       		.byte	11
 3198 086c 3C       		.byte	60
 3199 086d 00       		.byte	0
 3200 086e E8       		.byte	-24
 3201 086f 41       		.byte	65
 3202 0870 EB       		.byte	-21
 3203 0871 06       		.byte	6
 3204 0872 FA       		.byte	-6
 3205 0873 C4       		.byte	-60
 3206 0874 87       		.byte	-121
 3207 0875 2A       		.byte	42
 3208 0876 27       		.byte	39
 3209 0877 57       		.byte	87
 3210 0878 85       		.byte	-123
 3211 0879 9E       		.byte	-98
 3212 087a 1C       		.byte	28
 3213 087b EA       		.byte	-22
 3214 087c A6       		.byte	-90
 3215 087d EF       		.byte	-17
 3216 087e D9       		.byte	-39
 3217 087f 84       		.byte	-124
 3218 0880 62       		.byte	98
 3219 0881 85       		.byte	-123
 3220 0882 93       		.byte	-109
 3221 0883 B4       		.byte	-76
 3222 0884 0C       		.byte	12
 3223 0885 A1       		.byte	-95
 3224 0886 E1       		.byte	-31
 3225 0887 9C       		.byte	-100
 3226 0888 7D       		.byte	125
 3227 0889 77       		.byte	119
 3228 088a 3D       		.byte	61
 3229 088b 00       		.byte	0
 3230 088c C1       		.byte	-63
 3231 088d 44       		.byte	68
 3232 088e C5       		.byte	-59
 3233 088f 25       		.byte	37
 3234 0890 AC       		.byte	-84
 3235 0891 61       		.byte	97
 3236 0892 9D       		.byte	-99
 3237 0893 18       		.byte	24
 3238 0894 C8       		.byte	-56
 3239 0895 4A       		.byte	74
 3240 0896 3F       		.byte	63
 3241 0897 47       		.byte	71
ARM GAS  C:\Users\Phuong\AppData\Local\Temp\ccINfzqY.s 			page 77


 3242 0898 18       		.byte	24
 3243 0899 E2       		.byte	-30
 3244 089a 44       		.byte	68
 3245 089b 8B       		.byte	-117
 3246 089c 2F       		.byte	47
 3247 089d E3       		.byte	-29
 3248 089e 24       		.byte	36
 3249 089f D9       		.byte	-39
 3250 08a0 CC       		.byte	-52
 3251 08a1 DA       		.byte	-38
 3252 08a2 27       		.byte	39
 3253 08a3 10       		.byte	16
 3254 08a4 AC       		.byte	-84
 3255 08a5 AD       		.byte	-83
 3256 08a6 E2       		.byte	-30
 3257 08a7 56       		.byte	86
 3258 08a8 39       		.byte	57
 3259 08a9 80       		.byte	-128
 3260 08aa CA       		.byte	-54
 3261 08ab 0B       		.byte	11
 3262 08ac 3C       		.byte	60
 3263 08ad 00       		.byte	0
 3264 08ae E8       		.byte	-24
 3265 08af 41       		.byte	65
 3266 08b0 EB       		.byte	-21
 3267 08b1 06       		.byte	6
 3268 08b2 FA       		.byte	-6
 3269 08b3 C4       		.byte	-60
 3270 08b4 87       		.byte	-121
 3271 08b5 2A       		.byte	42
 3272 08b6 27       		.byte	39
 3273 08b7 57       		.byte	87
 3274 08b8 85       		.byte	-123
 3275 08b9 9E       		.byte	-98
 3276 08ba 1C       		.byte	28
 3277 08bb EA       		.byte	-22
 3278 08bc A6       		.byte	-90
 3279 08bd EF       		.byte	-17
 3280 08be D9       		.byte	-39
 3281 08bf 84       		.byte	-124
 3282 08c0 62       		.byte	98
 3283 08c1 85       		.byte	-123
 3284 08c2 93       		.byte	-109
 3285 08c3 B4       		.byte	-76
 3286 08c4 0C       		.byte	12
 3287 08c5 A1       		.byte	-95
 3288 08c6 E1       		.byte	-31
 3289 08c7 9C       		.byte	-100
 3290 08c8 7D       		.byte	125
 3291 08c9 77       		.byte	119
 3292 08ca 3D       		.byte	61
 3293 08cb 00       		.byte	0
 3294 08cc C1       		.byte	-63
 3295 08cd 44       		.byte	68
 3296 08ce C5       		.byte	-59
 3297 08cf 25       		.byte	37
 3298 08d0 AC       		.byte	-84
ARM GAS  C:\Users\Phuong\AppData\Local\Temp\ccINfzqY.s 			page 78


 3299 08d1 61       		.byte	97
 3300 08d2 9D       		.byte	-99
 3301 08d3 18       		.byte	24
 3302 08d4 C8       		.byte	-56
 3303 08d5 4A       		.byte	74
 3304 08d6 3F       		.byte	63
 3305 08d7 47       		.byte	71
 3306 08d8 18       		.byte	24
 3307 08d9 E2       		.byte	-30
 3308 08da 44       		.byte	68
 3309 08db 8B       		.byte	-117
 3310 08dc 2F       		.byte	47
 3311 08dd E3       		.byte	-29
 3312 08de 24       		.byte	36
 3313 08df D9       		.byte	-39
 3314 08e0 CC       		.byte	-52
 3315 08e1 DA       		.byte	-38
 3316 08e2 27       		.byte	39
 3317 08e3 10       		.byte	16
 3318 08e4 00000000 		.space	4
 3319 08e8 0F       		.byte	15
 3320 08e9 10       		.byte	16
 3321 08ea F5       		.byte	-11
 3322 08eb 99       		.byte	-103
 3323 08ec AE       		.byte	-82
 3324 08ed 14       		.byte	20
 3325 08ee A1       		.byte	-95
 3326 08ef 54       		.byte	84
 3327 08f0 ED       		.byte	-19
 3328 08f1 24       		.byte	36
 3329 08f2 B3       		.byte	-77
 3330 08f3 6E       		.byte	110
 3331 08f4 25       		.byte	37
 3332 08f5 32       		.byte	50
 3333 08f6 4D       		.byte	77
 3334 08f7 B8       		.byte	-72
 3335 08f8 C5       		.byte	-59
 3336 08f9 66       		.byte	102
 3337 08fa 63       		.byte	99
 3338 08fb 2E       		.byte	46
 3339 08fc F2       		.byte	-14
 3340 08fd BB       		.byte	-69
 3341 08fe B3       		.byte	-77
 3342 08ff 4F       		.byte	79
 3343 0900 83       		.byte	-125
 3344 0901 47       		.byte	71
 3345 0902 28       		.byte	40
 3346 0903 0F       		.byte	15
 3347 0904 C4       		.byte	-60
 3348 0905 50       		.byte	80
 3349 0906 70       		.byte	112
 3350 0907 57       		.byte	87
 3351 0908 FD       		.byte	-3
 3352 0909 DC       		.byte	-36
 3353 090a 29       		.byte	41
 3354 090b DF       		.byte	-33
 3355 090c 9A       		.byte	-102
ARM GAS  C:\Users\Phuong\AppData\Local\Temp\ccINfzqY.s 			page 79


 3356 090d 47       		.byte	71
 3357 090e 1F       		.byte	31
 3358 090f 75       		.byte	117
 3359 0910 C6       		.byte	-58
 3360 0911 65       		.byte	101
 3361 0912 41       		.byte	65
 3362 0913 D4       		.byte	-44
 3363 0914 D4       		.byte	-44
 3364 0915 DA       		.byte	-38
 3365 0916 D1       		.byte	-47
 3366 0917 C9       		.byte	-55
 3367 0918 E9       		.byte	-23
 3368 0919 3A       		.byte	58
 3369 091a 19       		.byte	25
 3370 091b A5       		.byte	-91
 3371 091c 8E       		.byte	-114
 3372 091d 8B       		.byte	-117
 3373 091e 47       		.byte	71
 3374 091f 3F       		.byte	63
 3375 0920 A0       		.byte	-96
 3376 0921 F0       		.byte	-16
 3377 0922 62       		.byte	98
 3378 0923 F7       		.byte	-9
 3379 0924 00000000 		.space	4
 3380 0928 D2       		.byte	-46
 3381 0929 7E       		.byte	126
 3382 092a 88       		.byte	-120
 3383 092b 68       		.byte	104
 3384 092c 1C       		.byte	28
 3385 092d E3       		.byte	-29
 3386 092e 24       		.byte	36
 3387 092f 3C       		.byte	60
 3388 0930 48       		.byte	72
 3389 0931 30       		.byte	48
 3390 0932 16       		.byte	22
 3391 0933 5A       		.byte	90
 3392 0934 8F       		.byte	-113
 3393 0935 DC       		.byte	-36
 3394 0936 F9       		.byte	-7
 3395 0937 FF       		.byte	-1
 3396 0938 1D       		.byte	29
 3397 0939 E9       		.byte	-23
 3398 093a A1       		.byte	-95
 3399 093b D8       		.byte	-40
 3400 093c E6       		.byte	-26
 3401 093d B4       		.byte	-76
 3402 093e 47       		.byte	71
 3403 093f EF       		.byte	-17
 3404 0940 6E       		.byte	110
 3405 0941 F7       		.byte	-9
 3406 0942 B7       		.byte	-73
 3407 0943 98       		.byte	-104
 3408 0944 28       		.byte	40
 3409 0945 66       		.byte	102
 3410 0946 6E       		.byte	110
 3411 0947 45       		.byte	69
 3412 0948 81       		.byte	-127
ARM GAS  C:\Users\Phuong\AppData\Local\Temp\ccINfzqY.s 			page 80


 3413 0949 E7       		.byte	-25
 3414 094a 90       		.byte	-112
 3415 094b 12       		.byte	18
 3416 094c AF       		.byte	-81
 3417 094d 34       		.byte	52
 3418 094e DD       		.byte	-35
 3419 094f D9       		.byte	-39
 3420 0950 E2       		.byte	-30
 3421 0951 F0       		.byte	-16
 3422 0952 37       		.byte	55
 3423 0953 58       		.byte	88
 3424 0954 9B       		.byte	-101
 3425 0955 29       		.byte	41
 3426 0956 2D       		.byte	45
 3427 0957 B3       		.byte	-77
 3428 0958 E6       		.byte	-26
 3429 0959 7C       		.byte	124
 3430 095a 03       		.byte	3
 3431 095b 67       		.byte	103
 3432 095c 45       		.byte	69
 3433 095d FA       		.byte	-6
 3434 095e 22       		.byte	34
 3435 095f E7       		.byte	-25
 3436 0960 E9       		.byte	-23
 3437 0961 B7       		.byte	-73
 3438 0962 37       		.byte	55
 3439 0963 3B       		.byte	59
 3440 0964 00000000 		.space	4
 3441 0968 00       		.byte	0
 3442 0969 00000000 		.space	63
 3442      00000000 
 3442      00000000 
 3442      00000000 
 3442      00000000 
 3443 09a8 CE       		.byte	-50
 3444 09a9 A7       		.byte	-89
 3445 09aa 40       		.byte	64
 3446 09ab 3D       		.byte	61
 3447 09ac 4D       		.byte	77
 3448 09ad 60       		.byte	96
 3449 09ae 6B       		.byte	107
 3450 09af 6E       		.byte	110
 3451 09b0 07       		.byte	7
 3452 09b1 4E       		.byte	78
 3453 09b2 C5       		.byte	-59
 3454 09b3 D3       		.byte	-45
 3455 09b4 BA       		.byte	-70
 3456 09b5 F3       		.byte	-13
 3457 09b6 9D       		.byte	-99
 3458 09b7 18       		.byte	24
 3459 09b8 00000000 		.space	48
 3459      00000000 
 3459      00000000 
 3459      00000000 
 3459      00000000 
 3460 09e8 52       		.byte	82
 3461 09e9 2D       		.byte	45
ARM GAS  C:\Users\Phuong\AppData\Local\Temp\ccINfzqY.s 			page 81


 3462 09ea C1       		.byte	-63
 3463 09eb F0       		.byte	-16
 3464 09ec 99       		.byte	-103
 3465 09ed 56       		.byte	86
 3466 09ee 7D       		.byte	125
 3467 09ef 07       		.byte	7
 3468 09f0 F4       		.byte	-12
 3469 09f1 7F       		.byte	127
 3470 09f2 37       		.byte	55
 3471 09f3 A3       		.byte	-93
 3472 09f4 2A       		.byte	42
 3473 09f5 84       		.byte	-124
 3474 09f6 42       		.byte	66
 3475 09f7 7D       		.byte	125
 3476 09f8 64       		.byte	100
 3477 09f9 3A       		.byte	58
 3478 09fa 8C       		.byte	-116
 3479 09fb DC       		.byte	-36
 3480 09fc BF       		.byte	-65
 3481 09fd E5       		.byte	-27
 3482 09fe C0       		.byte	-64
 3483 09ff C9       		.byte	-55
 3484 0a00 75       		.byte	117
 3485 0a01 98       		.byte	-104
 3486 0a02 A2       		.byte	-94
 3487 0a03 BD       		.byte	-67
 3488 0a04 25       		.byte	37
 3489 0a05 55       		.byte	85
 3490 0a06 D1       		.byte	-47
 3491 0a07 AA       		.byte	-86
 3492 0a08 8C       		.byte	-116
 3493 0a09 B0       		.byte	-80
 3494 0a0a 8E       		.byte	-114
 3495 0a0b 48       		.byte	72
 3496 0a0c 59       		.byte	89
 3497 0a0d 0D       		.byte	13
 3498 0a0e BB       		.byte	-69
 3499 0a0f 3D       		.byte	61
 3500 0a10 A7       		.byte	-89
 3501 0a11 B0       		.byte	-80
 3502 0a12 8B       		.byte	-117
 3503 0a13 10       		.byte	16
 3504 0a14 56       		.byte	86
 3505 0a15 82       		.byte	-126
 3506 0a16 88       		.byte	-120
 3507 0a17 38       		.byte	56
 3508 0a18 C5       		.byte	-59
 3509 0a19 F6       		.byte	-10
 3510 0a1a 1E       		.byte	30
 3511 0a1b 63       		.byte	99
 3512 0a1c 93       		.byte	-109
 3513 0a1d BA       		.byte	-70
 3514 0a1e 7A       		.byte	122
 3515 0a1f 0A       		.byte	10
 3516 0a20 BC       		.byte	-68
 3517 0a21 C9       		.byte	-55
 3518 0a22 F6       		.byte	-10
ARM GAS  C:\Users\Phuong\AppData\Local\Temp\ccINfzqY.s 			page 82


 3519 0a23 62       		.byte	98
 3520 0a24 89       		.byte	-119
 3521 0a25 80       		.byte	-128
 3522 0a26 15       		.byte	21
 3523 0a27 AD       		.byte	-83
 3524 0a28 52       		.byte	82
 3525 0a29 2D       		.byte	45
 3526 0a2a C1       		.byte	-63
 3527 0a2b F0       		.byte	-16
 3528 0a2c 99       		.byte	-103
 3529 0a2d 56       		.byte	86
 3530 0a2e 7D       		.byte	125
 3531 0a2f 07       		.byte	7
 3532 0a30 F4       		.byte	-12
 3533 0a31 7F       		.byte	127
 3534 0a32 37       		.byte	55
 3535 0a33 A3       		.byte	-93
 3536 0a34 2A       		.byte	42
 3537 0a35 84       		.byte	-124
 3538 0a36 42       		.byte	66
 3539 0a37 7D       		.byte	125
 3540 0a38 64       		.byte	100
 3541 0a39 3A       		.byte	58
 3542 0a3a 8C       		.byte	-116
 3543 0a3b DC       		.byte	-36
 3544 0a3c BF       		.byte	-65
 3545 0a3d E5       		.byte	-27
 3546 0a3e C0       		.byte	-64
 3547 0a3f C9       		.byte	-55
 3548 0a40 75       		.byte	117
 3549 0a41 98       		.byte	-104
 3550 0a42 A2       		.byte	-94
 3551 0a43 BD       		.byte	-67
 3552 0a44 25       		.byte	37
 3553 0a45 55       		.byte	85
 3554 0a46 D1       		.byte	-47
 3555 0a47 AA       		.byte	-86
 3556 0a48 8C       		.byte	-116
 3557 0a49 B0       		.byte	-80
 3558 0a4a 8E       		.byte	-114
 3559 0a4b 48       		.byte	72
 3560 0a4c 59       		.byte	89
 3561 0a4d 0D       		.byte	13
 3562 0a4e BB       		.byte	-69
 3563 0a4f 3D       		.byte	61
 3564 0a50 A7       		.byte	-89
 3565 0a51 B0       		.byte	-80
 3566 0a52 8B       		.byte	-117
 3567 0a53 10       		.byte	16
 3568 0a54 56       		.byte	86
 3569 0a55 82       		.byte	-126
 3570 0a56 88       		.byte	-120
 3571 0a57 38       		.byte	56
 3572 0a58 C5       		.byte	-59
 3573 0a59 F6       		.byte	-10
 3574 0a5a 1E       		.byte	30
 3575 0a5b 63       		.byte	99
ARM GAS  C:\Users\Phuong\AppData\Local\Temp\ccINfzqY.s 			page 83


 3576 0a5c 93       		.byte	-109
 3577 0a5d BA       		.byte	-70
 3578 0a5e 7A       		.byte	122
 3579 0a5f 0A       		.byte	10
 3580 0a60 BC       		.byte	-68
 3581 0a61 C9       		.byte	-55
 3582 0a62 F6       		.byte	-10
 3583 0a63 62       		.byte	98
 3584 0a64 00000000 		.space	4
 3585 0a68 C3       		.byte	-61
 3586 0a69 76       		.byte	118
 3587 0a6a 2D       		.byte	45
 3588 0a6b F1       		.byte	-15
 3589 0a6c CA       		.byte	-54
 3590 0a6d 78       		.byte	120
 3591 0a6e 7D       		.byte	125
 3592 0a6f 32       		.byte	50
 3593 0a70 AE       		.byte	-82
 3594 0a71 47       		.byte	71
 3595 0a72 C1       		.byte	-63
 3596 0a73 3B       		.byte	59
 3597 0a74 F1       		.byte	-15
 3598 0a75 98       		.byte	-104
 3599 0a76 44       		.byte	68
 3600 0a77 CB       		.byte	-53
 3601 0a78 AF       		.byte	-81
 3602 0a79 1A       		.byte	26
 3603 0a7a E1       		.byte	-31
 3604 0a7b 4D       		.byte	77
 3605 0a7c 0B       		.byte	11
 3606 0a7d 97       		.byte	-105
 3607 0a7e 6A       		.byte	106
 3608 0a7f FA       		.byte	-6
 3609 0a80 C5       		.byte	-59
 3610 0a81 2F       		.byte	47
 3611 0a82 F7       		.byte	-9
 3612 0a83 D7       		.byte	-41
 3613 0a84 9B       		.byte	-101
 3614 0a85 BA       		.byte	-70
 3615 0a86 9D       		.byte	-99
 3616 0a87 E0       		.byte	-32
 3617 0a88 FE       		.byte	-2
 3618 0a89 B5       		.byte	-75
 3619 0a8a 82       		.byte	-126
 3620 0a8b D3       		.byte	-45
 3621 0a8c 39       		.byte	57
 3622 0a8d 34       		.byte	52
 3623 0a8e A4       		.byte	-92
 3624 0a8f F0       		.byte	-16
 3625 0a90 95       		.byte	-107
 3626 0a91 4C       		.byte	76
 3627 0a92 C2       		.byte	-62
 3628 0a93 36       		.byte	54
 3629 0a94 3B       		.byte	59
 3630 0a95 C7       		.byte	-57
 3631 0a96 3F       		.byte	63
 3632 0a97 78       		.byte	120
ARM GAS  C:\Users\Phuong\AppData\Local\Temp\ccINfzqY.s 			page 84


 3633 0a98 62       		.byte	98
 3634 0a99 AC       		.byte	-84
 3635 0a9a 43       		.byte	67
 3636 0a9b 0E       		.byte	14
 3637 0a9c 64       		.byte	100
 3638 0a9d AB       		.byte	-85
 3639 0a9e E4       		.byte	-28
 3640 0a9f 99       		.byte	-103
 3641 0aa0 F4       		.byte	-12
 3642 0aa1 7C       		.byte	124
 3643 0aa2 9B       		.byte	-101
 3644 0aa3 1F       		.byte	31
 3645 0aa4 00000000 		.space	4
 3646 0aa8 5A       		.byte	90
 3647 0aa9 8D       		.byte	-115
 3648 0aaa EF       		.byte	-17
 3649 0aab 2F       		.byte	47
 3650 0aac 0C       		.byte	12
 3651 0aad 9E       		.byte	-98
 3652 0aae 53       		.byte	83
 3653 0aaf F1       		.byte	-15
 3654 0ab0 F7       		.byte	-9
 3655 0ab1 5D       		.byte	93
 3656 0ab2 78       		.byte	120
 3657 0ab3 53       		.byte	83
 3658 0ab4 65       		.byte	101
 3659 0ab5 9E       		.byte	-98
 3660 0ab6 2A       		.byte	42
 3661 0ab7 20       		.byte	32
 3662 0ab8 EE       		.byte	-18
 3663 0ab9 B2       		.byte	-78
 3664 0aba B2       		.byte	-78
 3665 0abb 2A       		.byte	42
 3666 0abc AF       		.byte	-81
 3667 0abd DE       		.byte	-34
 3668 0abe 64       		.byte	100
 3669 0abf 19       		.byte	25
 3670 0ac0 A0       		.byte	-96
 3671 0ac1 58       		.byte	88
 3672 0ac2 AB       		.byte	-85
 3673 0ac3 4F       		.byte	79
 3674 0ac4 6F       		.byte	111
 3675 0ac5 74       		.byte	116
 3676 0ac6 6B       		.byte	107
 3677 0ac7 F4       		.byte	-12
 3678 0ac8 0F       		.byte	15
 3679 0ac9 C0       		.byte	-64
 3680 0aca C3       		.byte	-61
 3681 0acb B7       		.byte	-73
 3682 0acc 80       		.byte	-128
 3683 0acd F2       		.byte	-14
 3684 0ace 44       		.byte	68
 3685 0acf 45       		.byte	69
 3686 0ad0 2D       		.byte	45
 3687 0ad1 A3       		.byte	-93
 3688 0ad2 EB       		.byte	-21
 3689 0ad3 F1       		.byte	-15
ARM GAS  C:\Users\Phuong\AppData\Local\Temp\ccINfzqY.s 			page 85


 3690 0ad4 C5       		.byte	-59
 3691 0ad5 D8       		.byte	-40
 3692 0ad6 2C       		.byte	44
 3693 0ad7 DE       		.byte	-34
 3694 0ad8 A2       		.byte	-94
 3695 0ad9 41       		.byte	65
 3696 0ada 89       		.byte	-119
 3697 0adb 97       		.byte	-105
 3698 0adc 20       		.byte	32
 3699 0add 0E       		.byte	14
 3700 0ade F8       		.byte	-8
 3701 0adf 2E       		.byte	46
 3702 0ae0 44       		.byte	68
 3703 0ae1 AE       		.byte	-82
 3704 0ae2 7E       		.byte	126
 3705 0ae3 3F       		.byte	63
 3706 0ae4 00000000 		.space	4
 3707              		.type	tag, %object
 3708              		.size	tag, 288
 3709              	tag:
 3710 0ae8 58       		.byte	88
 3711 0ae9 E2       		.byte	-30
 3712 0aea FC       		.byte	-4
 3713 0aeb CE       		.byte	-50
 3714 0aec FA       		.byte	-6
 3715 0aed 7E       		.byte	126
 3716 0aee 30       		.byte	48
 3717 0aef 61       		.byte	97
 3718 0af0 36       		.byte	54
 3719 0af1 7F       		.byte	127
 3720 0af2 1D       		.byte	29
 3721 0af3 57       		.byte	87
 3722 0af4 A4       		.byte	-92
 3723 0af5 E7       		.byte	-25
 3724 0af6 45       		.byte	69
 3725 0af7 5A       		.byte	90
 3726 0af8 AB       		.byte	-85
 3727 0af9 6E       		.byte	110
 3728 0afa 47       		.byte	71
 3729 0afb D4       		.byte	-44
 3730 0afc 2C       		.byte	44
 3731 0afd EC       		.byte	-20
 3732 0afe 13       		.byte	19
 3733 0aff BD       		.byte	-67
 3734 0b00 F5       		.byte	-11
 3735 0b01 3A       		.byte	58
 3736 0b02 67       		.byte	103
 3737 0b03 B2       		.byte	-78
 3738 0b04 12       		.byte	18
 3739 0b05 57       		.byte	87
 3740 0b06 BD       		.byte	-67
 3741 0b07 DF       		.byte	-33
 3742 0b08 4D       		.byte	77
 3743 0b09 5C       		.byte	92
 3744 0b0a 2A       		.byte	42
 3745 0b0b F3       		.byte	-13
 3746 0b0c 27       		.byte	39
ARM GAS  C:\Users\Phuong\AppData\Local\Temp\ccINfzqY.s 			page 86


 3747 0b0d CD       		.byte	-51
 3748 0b0e 64       		.byte	100
 3749 0b0f A6       		.byte	-90
 3750 0b10 2C       		.byte	44
 3751 0b11 F3       		.byte	-13
 3752 0b12 5A       		.byte	90
 3753 0b13 BD       		.byte	-67
 3754 0b14 2B       		.byte	43
 3755 0b15 A6       		.byte	-90
 3756 0b16 FA       		.byte	-6
 3757 0b17 B4       		.byte	-76
 3758 0b18 5B       		.byte	91
 3759 0b19 C9       		.byte	-55
 3760 0b1a 4F       		.byte	79
 3761 0b1b BC       		.byte	-68
 3762 0b1c 32       		.byte	50
 3763 0b1d 21       		.byte	33
 3764 0b1e A5       		.byte	-91
 3765 0b1f DB       		.byte	-37
 3766 0b20 94       		.byte	-108
 3767 0b21 FA       		.byte	-6
 3768 0b22 E9       		.byte	-23
 3769 0b23 5A       		.byte	90
 3770 0b24 E7       		.byte	-25
 3771 0b25 12       		.byte	18
 3772 0b26 1A       		.byte	26
 3773 0b27 47       		.byte	71
 3774 0b28 36       		.byte	54
 3775 0b29 12       		.byte	18
 3776 0b2a D2       		.byte	-46
 3777 0b2b E7       		.byte	-25
 3778 0b2c 9E       		.byte	-98
 3779 0b2d 3B       		.byte	59
 3780 0b2e 07       		.byte	7
 3781 0b2f 85       		.byte	-123
 3782 0b30 56       		.byte	86
 3783 0b31 1B       		.byte	27
 3784 0b32 E1       		.byte	-31
 3785 0b33 4A       		.byte	74
 3786 0b34 AC       		.byte	-84
 3787 0b35 A2       		.byte	-94
 3788 0b36 FC       		.byte	-4
 3789 0b37 CB       		.byte	-53
 3790 0b38 61       		.byte	97
 3791 0b39 9C       		.byte	-100
 3792 0b3a C5       		.byte	-59
 3793 0b3b AE       		.byte	-82
 3794 0b3c FF       		.byte	-1
 3795 0b3d FE       		.byte	-2
 3796 0b3e 0B       		.byte	11
 3797 0b3f FA       		.byte	-6
 3798 0b40 46       		.byte	70
 3799 0b41 2A       		.byte	42
 3800 0b42 F4       		.byte	-12
 3801 0b43 3C       		.byte	60
 3802 0b44 16       		.byte	22
 3803 0b45 99       		.byte	-103
ARM GAS  C:\Users\Phuong\AppData\Local\Temp\ccINfzqY.s 			page 87


 3804 0b46 D0       		.byte	-48
 3805 0b47 50       		.byte	80
 3806 0b48 CD       		.byte	-51
 3807 0b49 33       		.byte	51
 3808 0b4a B2       		.byte	-78
 3809 0b4b 8A       		.byte	-118
 3810 0b4c C7       		.byte	-57
 3811 0b4d 73       		.byte	115
 3812 0b4e F7       		.byte	-9
 3813 0b4f 4B       		.byte	75
 3814 0b50 A0       		.byte	-96
 3815 0b51 0E       		.byte	14
 3816 0b52 D1       		.byte	-47
 3817 0b53 F3       		.byte	-13
 3818 0b54 12       		.byte	18
 3819 0b55 57       		.byte	87
 3820 0b56 24       		.byte	36
 3821 0b57 35       		.byte	53
 3822 0b58 2F       		.byte	47
 3823 0b59 F5       		.byte	-11
 3824 0b5a 8D       		.byte	-115
 3825 0b5b 80       		.byte	-128
 3826 0b5c 03       		.byte	3
 3827 0b5d 39       		.byte	57
 3828 0b5e 27       		.byte	39
 3829 0b5f AB       		.byte	-85
 3830 0b60 8E       		.byte	-114
 3831 0b61 F4       		.byte	-12
 3832 0b62 D4       		.byte	-44
 3833 0b63 58       		.byte	88
 3834 0b64 75       		.byte	117
 3835 0b65 14       		.byte	20
 3836 0b66 F0       		.byte	-16
 3837 0b67 FB       		.byte	-5
 3838 0b68 99       		.byte	-103
 3839 0b69 24       		.byte	36
 3840 0b6a A7       		.byte	-89
 3841 0b6b C8       		.byte	-56
 3842 0b6c 58       		.byte	88
 3843 0b6d 73       		.byte	115
 3844 0b6e 36       		.byte	54
 3845 0b6f BF       		.byte	-65
 3846 0b70 B1       		.byte	-79
 3847 0b71 18       		.byte	24
 3848 0b72 02       		.byte	2
 3849 0b73 4D       		.byte	77
 3850 0b74 B8       		.byte	-72
 3851 0b75 67       		.byte	103
 3852 0b76 4A       		.byte	74
 3853 0b77 14       		.byte	20
 3854 0b78 25       		.byte	37
 3855 0b79 19       		.byte	25
 3856 0b7a 49       		.byte	73
 3857 0b7b 8E       		.byte	-114
 3858 0b7c 80       		.byte	-128
 3859 0b7d F1       		.byte	-15
 3860 0b7e 47       		.byte	71
ARM GAS  C:\Users\Phuong\AppData\Local\Temp\ccINfzqY.s 			page 88


 3861 0b7f 8F       		.byte	-113
 3862 0b80 37       		.byte	55
 3863 0b81 BA       		.byte	-70
 3864 0b82 55       		.byte	85
 3865 0b83 BD       		.byte	-67
 3866 0b84 6D       		.byte	109
 3867 0b85 27       		.byte	39
 3868 0b86 61       		.byte	97
 3869 0b87 8C       		.byte	-116
 3870 0b88 65       		.byte	101
 3871 0b89 DC       		.byte	-36
 3872 0b8a C5       		.byte	-59
 3873 0b8b 7F       		.byte	127
 3874 0b8c CF       		.byte	-49
 3875 0b8d 62       		.byte	98
 3876 0b8e 3A       		.byte	58
 3877 0b8f 24       		.byte	36
 3878 0b90 09       		.byte	9
 3879 0b91 4F       		.byte	79
 3880 0b92 CC       		.byte	-52
 3881 0b93 A4       		.byte	-92
 3882 0b94 0D       		.byte	13
 3883 0b95 35       		.byte	53
 3884 0b96 33       		.byte	51
 3885 0b97 F8       		.byte	-8
 3886 0b98 DC       		.byte	-36
 3887 0b99 F5       		.byte	-11
 3888 0b9a 66       		.byte	102
 3889 0b9b FF       		.byte	-1
 3890 0b9c 29       		.byte	41
 3891 0b9d 1C       		.byte	28
 3892 0b9e 25       		.byte	37
 3893 0b9f BB       		.byte	-69
 3894 0ba0 B8       		.byte	-72
 3895 0ba1 56       		.byte	86
 3896 0ba2 8F       		.byte	-113
 3897 0ba3 C3       		.byte	-61
 3898 0ba4 D3       		.byte	-45
 3899 0ba5 76       		.byte	118
 3900 0ba6 A6       		.byte	-90
 3901 0ba7 D9       		.byte	-39
 3902 0ba8 53       		.byte	83
 3903 0ba9 0F       		.byte	15
 3904 0baa 8A       		.byte	-118
 3905 0bab FB       		.byte	-5
 3906 0bac C7       		.byte	-57
 3907 0bad 45       		.byte	69
 3908 0bae 36       		.byte	54
 3909 0baf B9       		.byte	-71
 3910 0bb0 A9       		.byte	-87
 3911 0bb1 63       		.byte	99
 3912 0bb2 B4       		.byte	-76
 3913 0bb3 F1       		.byte	-15
 3914 0bb4 C4       		.byte	-60
 3915 0bb5 CB       		.byte	-53
 3916 0bb6 73       		.byte	115
 3917 0bb7 8B       		.byte	-117
ARM GAS  C:\Users\Phuong\AppData\Local\Temp\ccINfzqY.s 			page 89


 3918 0bb8 D0       		.byte	-48
 3919 0bb9 D1       		.byte	-47
 3920 0bba C8       		.byte	-56
 3921 0bbb A7       		.byte	-89
 3922 0bbc 99       		.byte	-103
 3923 0bbd 99       		.byte	-103
 3924 0bbe 6B       		.byte	107
 3925 0bbf F0       		.byte	-16
 3926 0bc0 26       		.byte	38
 3927 0bc1 5B       		.byte	91
 3928 0bc2 98       		.byte	-104
 3929 0bc3 B5       		.byte	-75
 3930 0bc4 D4       		.byte	-44
 3931 0bc5 8A       		.byte	-118
 3932 0bc6 B9       		.byte	-71
 3933 0bc7 19       		.byte	25
 3934 0bc8 B0       		.byte	-80
 3935 0bc9 94       		.byte	-108
 3936 0bca DA       		.byte	-38
 3937 0bcb C5       		.byte	-59
 3938 0bcc D9       		.byte	-39
 3939 0bcd 34       		.byte	52
 3940 0bce 71       		.byte	113
 3941 0bcf BD       		.byte	-67
 3942 0bd0 EC       		.byte	-20
 3943 0bd1 1A       		.byte	26
 3944 0bd2 50       		.byte	80
 3945 0bd3 22       		.byte	34
 3946 0bd4 70       		.byte	112
 3947 0bd5 E3       		.byte	-29
 3948 0bd6 CC       		.byte	-52
 3949 0bd7 6C       		.byte	108
 3950 0bd8 76       		.byte	118
 3951 0bd9 FC       		.byte	-4
 3952 0bda 6E       		.byte	110
 3953 0bdb CE       		.byte	-50
 3954 0bdc 0F       		.byte	15
 3955 0bdd 4E       		.byte	78
 3956 0bde 17       		.byte	23
 3957 0bdf 68       		.byte	104
 3958 0be0 CD       		.byte	-51
 3959 0be1 DF       		.byte	-33
 3960 0be2 88       		.byte	-120
 3961 0be3 53       		.byte	83
 3962 0be4 BB       		.byte	-69
 3963 0be5 2D       		.byte	45
 3964 0be6 55       		.byte	85
 3965 0be7 1B       		.byte	27
 3966 0be8 3A       		.byte	58
 3967 0be9 33       		.byte	51
 3968 0bea 7D       		.byte	125
 3969 0beb BF       		.byte	-65
 3970 0bec 46       		.byte	70
 3971 0bed A7       		.byte	-89
 3972 0bee 92       		.byte	-110
 3973 0bef C4       		.byte	-60
 3974 0bf0 5E       		.byte	94
ARM GAS  C:\Users\Phuong\AppData\Local\Temp\ccINfzqY.s 			page 90


 3975 0bf1 45       		.byte	69
 3976 0bf2 49       		.byte	73
 3977 0bf3 13       		.byte	19
 3978 0bf4 FE       		.byte	-2
 3979 0bf5 2E       		.byte	46
 3980 0bf6 A8       		.byte	-88
 3981 0bf7 F2       		.byte	-14
 3982 0bf8 A4       		.byte	-92
 3983 0bf9 4A       		.byte	74
 3984 0bfa 82       		.byte	-126
 3985 0bfb 66       		.byte	102
 3986 0bfc EE       		.byte	-18
 3987 0bfd 1C       		.byte	28
 3988 0bfe 8E       		.byte	-114
 3989 0bff B0       		.byte	-80
 3990 0c00 C8       		.byte	-56
 3991 0c01 B5       		.byte	-75
 3992 0c02 D4       		.byte	-44
 3993 0c03 CF       		.byte	-49
 3994 0c04 5A       		.byte	90
 3995 0c05 E9       		.byte	-23
 3996 0c06 F1       		.byte	-15
 3997 0c07 9A       		.byte	-102
 3998              		.section	.rodata.str1.4,"aMS",%progbits,1
 3999              		.align	2
 4000              	.LC1:
 4001 0000 656E6300 		.ascii	"enc\000"
 4002              	.LC3:
 4003 0004 20204145 		.ascii	"  AES-GCM-%3d #%d (%s): \000"
 4003      532D4743 
 4003      4D2D2533 
 4003      64202325 
 4003      64202825 
 4004 001d 000000   		.space	3
 4005              	.LC6:
 4006 0020 736B6970 		.ascii	"skipped\000"
 4006      70656400 
 4007              	.LC14:
 4008 0028 70617373 		.ascii	"passed\000"
 4008      656400
 4009 002f 00       		.space	1
 4010              	.LC16:
 4011 0030 64656300 		.ascii	"dec\000"
 4012              	.LC18:
 4013 0034 20204145 		.ascii	"  AES-GCM-%3d #%d split (%s): \000"
 4013      532D4743 
 4013      4D2D2533 
 4013      64202325 
 4013      64207370 
 4014 0053 00       		.space	1
 4015              	.LC20:
 4016 0054 6661696C 		.ascii	"failed\000"
 4016      656400
 4017              		.text
 4018              	.Letext0:
 4019              		.file 2 "c:\\program files (x86)\\cypress\\psoc creator\\4.2\\psoc creator\\import\\gnu\\arm\\5.4.
 4020              		.file 3 "c:\\program files (x86)\\cypress\\psoc creator\\4.2\\psoc creator\\import\\gnu\\arm\\5.4.
ARM GAS  C:\Users\Phuong\AppData\Local\Temp\ccINfzqY.s 			page 91


 4021              		.file 4 ".\\Source\\mbedtls_open\\include/mbedtls/cipher.h"
 4022              		.file 5 "c:\\program files (x86)\\cypress\\psoc creator\\4.2\\psoc creator\\import\\gnu\\arm\\5.4.
 4023              		.file 6 ".\\Source\\mbedtls_open\\include/mbedtls/gcm.h"
 4024              		.file 7 ".\\Source\\mbedtls_open\\include/mbedtls/platform_util.h"
 4025              		.file 8 "c:\\program files (x86)\\cypress\\psoc creator\\4.2\\psoc creator\\import\\gnu\\arm\\5.4.
 4026              		.file 9 "c:\\program files (x86)\\cypress\\psoc creator\\4.2\\psoc creator\\import\\gnu\\arm\\5.4.
 4027              		.file 10 "<built-in>"