ARM GAS  C:\Users\Phuong\AppData\Local\Temp\ccINfzqY.s 			page 1


   1              		.syntax unified
   2              		.cpu cortex-m0plus
   3              		.fpu softvfp
   4              		.eabi_attribute 20, 1
   5              		.eabi_attribute 21, 1
   6              		.eabi_attribute 23, 3
   7              		.eabi_attribute 24, 1
   8              		.eabi_attribute 25, 1
   9              		.eabi_attribute 26, 1
  10              		.eabi_attribute 30, 1
  11              		.eabi_attribute 34, 0
  12              		.eabi_attribute 18, 4
  13              		.thumb
  14              		.syntax unified
  15              		.file	"gcm.c"
  16              		.text
  17              	.Ltext0:
  18              		.cfi_sections	.debug_frame
  19              		.section	.text.gcm_mult,"ax",%progbits
  20              		.align	2
  21              		.code	16
  22              		.thumb_func
  23              		.type	gcm_mult, %function
  24              	gcm_mult:
  25              	.LFB11:
  26              		.file 1 "Source\\mbedtls_open\\library\\gcm.c"
   1:Source\mbedtls_open\library/gcm.c **** /*
   2:Source\mbedtls_open\library/gcm.c ****  *  NIST SP800-38D compliant GCM implementation
   3:Source\mbedtls_open\library/gcm.c ****  *
   4:Source\mbedtls_open\library/gcm.c ****  *  Copyright (C) 2006-2015, ARM Limited, All Rights Reserved
   5:Source\mbedtls_open\library/gcm.c ****  *  SPDX-License-Identifier: Apache-2.0
   6:Source\mbedtls_open\library/gcm.c ****  *
   7:Source\mbedtls_open\library/gcm.c ****  *  Licensed under the Apache License, Version 2.0 (the "License"); you may
   8:Source\mbedtls_open\library/gcm.c ****  *  not use this file except in compliance with the License.
   9:Source\mbedtls_open\library/gcm.c ****  *  You may obtain a copy of the License at
  10:Source\mbedtls_open\library/gcm.c ****  *
  11:Source\mbedtls_open\library/gcm.c ****  *  http://www.apache.org/licenses/LICENSE-2.0
  12:Source\mbedtls_open\library/gcm.c ****  *
  13:Source\mbedtls_open\library/gcm.c ****  *  Unless required by applicable law or agreed to in writing, software
  14:Source\mbedtls_open\library/gcm.c ****  *  distributed under the License is distributed on an "AS IS" BASIS, WITHOUT
  15:Source\mbedtls_open\library/gcm.c ****  *  WARRANTIES OR CONDITIONS OF ANY KIND, either express or implied.
  16:Source\mbedtls_open\library/gcm.c ****  *  See the License for the specific language governing permissions and
  17:Source\mbedtls_open\library/gcm.c ****  *  limitations under the License.
  18:Source\mbedtls_open\library/gcm.c ****  *
  19:Source\mbedtls_open\library/gcm.c ****  *  This file is part of mbed TLS (https://tls.mbed.org)
  20:Source\mbedtls_open\library/gcm.c ****  */
  21:Source\mbedtls_open\library/gcm.c **** 
  22:Source\mbedtls_open\library/gcm.c **** /*
  23:Source\mbedtls_open\library/gcm.c ****  * http://csrc.nist.gov/publications/nistpubs/800-38D/SP-800-38D.pdf
  24:Source\mbedtls_open\library/gcm.c ****  *
  25:Source\mbedtls_open\library/gcm.c ****  * See also:
  26:Source\mbedtls_open\library/gcm.c ****  * [MGV] http://csrc.nist.gov/groups/ST/toolkit/BCM/documents/proposedmodes/gcm/gcm-revised-spec.pd
  27:Source\mbedtls_open\library/gcm.c ****  *
  28:Source\mbedtls_open\library/gcm.c ****  * We use the algorithm described as Shoup's method with 4-bit tables in
  29:Source\mbedtls_open\library/gcm.c ****  * [MGV] 4.1, pp. 12-13, to enhance speed without using too much memory.
  30:Source\mbedtls_open\library/gcm.c ****  */
  31:Source\mbedtls_open\library/gcm.c **** 
ARM GAS  C:\Users\Phuong\AppData\Local\Temp\ccINfzqY.s 			page 2


  32:Source\mbedtls_open\library/gcm.c **** #if !defined(MBEDTLS_CONFIG_FILE)
  33:Source\mbedtls_open\library/gcm.c **** #include "mbedtls/config.h"
  34:Source\mbedtls_open\library/gcm.c **** #else
  35:Source\mbedtls_open\library/gcm.c **** #include MBEDTLS_CONFIG_FILE
  36:Source\mbedtls_open\library/gcm.c **** #endif
  37:Source\mbedtls_open\library/gcm.c **** 
  38:Source\mbedtls_open\library/gcm.c **** #if defined(MBEDTLS_GCM_C)
  39:Source\mbedtls_open\library/gcm.c **** 
  40:Source\mbedtls_open\library/gcm.c **** #include "mbedtls/gcm.h"
  41:Source\mbedtls_open\library/gcm.c **** #include "mbedtls/platform_util.h"
  42:Source\mbedtls_open\library/gcm.c **** 
  43:Source\mbedtls_open\library/gcm.c **** #include <string.h>
  44:Source\mbedtls_open\library/gcm.c **** 
  45:Source\mbedtls_open\library/gcm.c **** #if defined(MBEDTLS_AESNI_C)
  46:Source\mbedtls_open\library/gcm.c **** #include "mbedtls/aesni.h"
  47:Source\mbedtls_open\library/gcm.c **** #endif
  48:Source\mbedtls_open\library/gcm.c **** 
  49:Source\mbedtls_open\library/gcm.c **** #if defined(MBEDTLS_SELF_TEST) && defined(MBEDTLS_AES_C)
  50:Source\mbedtls_open\library/gcm.c **** #include "mbedtls/aes.h"
  51:Source\mbedtls_open\library/gcm.c **** #if defined(MBEDTLS_PLATFORM_C)
  52:Source\mbedtls_open\library/gcm.c **** #include "mbedtls/platform.h"
  53:Source\mbedtls_open\library/gcm.c **** #else
  54:Source\mbedtls_open\library/gcm.c **** #include <stdio.h>
  55:Source\mbedtls_open\library/gcm.c **** #define mbedtls_printf printf
  56:Source\mbedtls_open\library/gcm.c **** #endif /* MBEDTLS_PLATFORM_C */
  57:Source\mbedtls_open\library/gcm.c **** #endif /* MBEDTLS_SELF_TEST && MBEDTLS_AES_C */
  58:Source\mbedtls_open\library/gcm.c **** 
  59:Source\mbedtls_open\library/gcm.c **** #if !defined(MBEDTLS_GCM_ALT)
  60:Source\mbedtls_open\library/gcm.c **** 
  61:Source\mbedtls_open\library/gcm.c **** /*
  62:Source\mbedtls_open\library/gcm.c ****  * 32-bit integer manipulation macros (big endian)
  63:Source\mbedtls_open\library/gcm.c ****  */
  64:Source\mbedtls_open\library/gcm.c **** #ifndef GET_UINT32_BE
  65:Source\mbedtls_open\library/gcm.c **** #define GET_UINT32_BE(n,b,i)                            \
  66:Source\mbedtls_open\library/gcm.c **** {                                                       \
  67:Source\mbedtls_open\library/gcm.c ****     (n) = ( (uint32_t) (b)[(i)    ] << 24 )             \
  68:Source\mbedtls_open\library/gcm.c ****         | ( (uint32_t) (b)[(i) + 1] << 16 )             \
  69:Source\mbedtls_open\library/gcm.c ****         | ( (uint32_t) (b)[(i) + 2] <<  8 )             \
  70:Source\mbedtls_open\library/gcm.c ****         | ( (uint32_t) (b)[(i) + 3]       );            \
  71:Source\mbedtls_open\library/gcm.c **** }
  72:Source\mbedtls_open\library/gcm.c **** #endif
  73:Source\mbedtls_open\library/gcm.c **** 
  74:Source\mbedtls_open\library/gcm.c **** #ifndef PUT_UINT32_BE
  75:Source\mbedtls_open\library/gcm.c **** #define PUT_UINT32_BE(n,b,i)                            \
  76:Source\mbedtls_open\library/gcm.c **** {                                                       \
  77:Source\mbedtls_open\library/gcm.c ****     (b)[(i)    ] = (unsigned char) ( (n) >> 24 );       \
  78:Source\mbedtls_open\library/gcm.c ****     (b)[(i) + 1] = (unsigned char) ( (n) >> 16 );       \
  79:Source\mbedtls_open\library/gcm.c ****     (b)[(i) + 2] = (unsigned char) ( (n) >>  8 );       \
  80:Source\mbedtls_open\library/gcm.c ****     (b)[(i) + 3] = (unsigned char) ( (n)       );       \
  81:Source\mbedtls_open\library/gcm.c **** }
  82:Source\mbedtls_open\library/gcm.c **** #endif
  83:Source\mbedtls_open\library/gcm.c **** 
  84:Source\mbedtls_open\library/gcm.c **** /*
  85:Source\mbedtls_open\library/gcm.c ****  * Initialize a context
  86:Source\mbedtls_open\library/gcm.c ****  */
  87:Source\mbedtls_open\library/gcm.c **** void mbedtls_gcm_init( mbedtls_gcm_context *ctx )
  88:Source\mbedtls_open\library/gcm.c **** {
ARM GAS  C:\Users\Phuong\AppData\Local\Temp\ccINfzqY.s 			page 3


  89:Source\mbedtls_open\library/gcm.c ****     memset( ctx, 0, sizeof( mbedtls_gcm_context ) );
  90:Source\mbedtls_open\library/gcm.c **** }
  91:Source\mbedtls_open\library/gcm.c **** 
  92:Source\mbedtls_open\library/gcm.c **** /*
  93:Source\mbedtls_open\library/gcm.c ****  * Precompute small multiples of H, that is set
  94:Source\mbedtls_open\library/gcm.c ****  *      HH[i] || HL[i] = H times i,
  95:Source\mbedtls_open\library/gcm.c ****  * where i is seen as a field element as in [MGV], ie high-order bits
  96:Source\mbedtls_open\library/gcm.c ****  * correspond to low powers of P. The result is stored in the same way, that
  97:Source\mbedtls_open\library/gcm.c ****  * is the high-order bit of HH corresponds to P^0 and the low-order bit of HL
  98:Source\mbedtls_open\library/gcm.c ****  * corresponds to P^127.
  99:Source\mbedtls_open\library/gcm.c ****  */
 100:Source\mbedtls_open\library/gcm.c **** static int gcm_gen_table( mbedtls_gcm_context *ctx )
 101:Source\mbedtls_open\library/gcm.c **** {
 102:Source\mbedtls_open\library/gcm.c ****     int ret, i, j;
 103:Source\mbedtls_open\library/gcm.c ****     uint64_t hi, lo;
 104:Source\mbedtls_open\library/gcm.c ****     uint64_t vl, vh;
 105:Source\mbedtls_open\library/gcm.c ****     unsigned char h[16];
 106:Source\mbedtls_open\library/gcm.c ****     size_t olen = 0;
 107:Source\mbedtls_open\library/gcm.c **** 
 108:Source\mbedtls_open\library/gcm.c ****     memset( h, 0, 16 );
 109:Source\mbedtls_open\library/gcm.c ****     if( ( ret = mbedtls_cipher_update( &ctx->cipher_ctx, h, 16, h, &olen ) ) != 0 )
 110:Source\mbedtls_open\library/gcm.c ****         return( ret );
 111:Source\mbedtls_open\library/gcm.c **** 
 112:Source\mbedtls_open\library/gcm.c ****     /* pack h as two 64-bits ints, big-endian */
 113:Source\mbedtls_open\library/gcm.c ****     GET_UINT32_BE( hi, h,  0  );
 114:Source\mbedtls_open\library/gcm.c ****     GET_UINT32_BE( lo, h,  4  );
 115:Source\mbedtls_open\library/gcm.c ****     vh = (uint64_t) hi << 32 | lo;
 116:Source\mbedtls_open\library/gcm.c **** 
 117:Source\mbedtls_open\library/gcm.c ****     GET_UINT32_BE( hi, h,  8  );
 118:Source\mbedtls_open\library/gcm.c ****     GET_UINT32_BE( lo, h,  12 );
 119:Source\mbedtls_open\library/gcm.c ****     vl = (uint64_t) hi << 32 | lo;
 120:Source\mbedtls_open\library/gcm.c **** 
 121:Source\mbedtls_open\library/gcm.c ****     /* 8 = 1000 corresponds to 1 in GF(2^128) */
 122:Source\mbedtls_open\library/gcm.c ****     ctx->HL[8] = vl;
 123:Source\mbedtls_open\library/gcm.c ****     ctx->HH[8] = vh;
 124:Source\mbedtls_open\library/gcm.c **** 
 125:Source\mbedtls_open\library/gcm.c **** #if defined(MBEDTLS_AESNI_C) && defined(MBEDTLS_HAVE_X86_64)
 126:Source\mbedtls_open\library/gcm.c ****     /* With CLMUL support, we need only h, not the rest of the table */
 127:Source\mbedtls_open\library/gcm.c ****     if( mbedtls_aesni_has_support( MBEDTLS_AESNI_CLMUL ) )
 128:Source\mbedtls_open\library/gcm.c ****         return( 0 );
 129:Source\mbedtls_open\library/gcm.c **** #endif
 130:Source\mbedtls_open\library/gcm.c **** 
 131:Source\mbedtls_open\library/gcm.c ****     /* 0 corresponds to 0 in GF(2^128) */
 132:Source\mbedtls_open\library/gcm.c ****     ctx->HH[0] = 0;
 133:Source\mbedtls_open\library/gcm.c ****     ctx->HL[0] = 0;
 134:Source\mbedtls_open\library/gcm.c **** 
 135:Source\mbedtls_open\library/gcm.c ****     for( i = 4; i > 0; i >>= 1 )
 136:Source\mbedtls_open\library/gcm.c ****     {
 137:Source\mbedtls_open\library/gcm.c ****         uint32_t T = ( vl & 1 ) * 0xe1000000U;
 138:Source\mbedtls_open\library/gcm.c ****         vl  = ( vh << 63 ) | ( vl >> 1 );
 139:Source\mbedtls_open\library/gcm.c ****         vh  = ( vh >> 1 ) ^ ( (uint64_t) T << 32);
 140:Source\mbedtls_open\library/gcm.c **** 
 141:Source\mbedtls_open\library/gcm.c ****         ctx->HL[i] = vl;
 142:Source\mbedtls_open\library/gcm.c ****         ctx->HH[i] = vh;
 143:Source\mbedtls_open\library/gcm.c ****     }
 144:Source\mbedtls_open\library/gcm.c **** 
 145:Source\mbedtls_open\library/gcm.c ****     for( i = 2; i <= 8; i *= 2 )
ARM GAS  C:\Users\Phuong\AppData\Local\Temp\ccINfzqY.s 			page 4


 146:Source\mbedtls_open\library/gcm.c ****     {
 147:Source\mbedtls_open\library/gcm.c ****         uint64_t *HiL = ctx->HL + i, *HiH = ctx->HH + i;
 148:Source\mbedtls_open\library/gcm.c ****         vh = *HiH;
 149:Source\mbedtls_open\library/gcm.c ****         vl = *HiL;
 150:Source\mbedtls_open\library/gcm.c ****         for( j = 1; j < i; j++ )
 151:Source\mbedtls_open\library/gcm.c ****         {
 152:Source\mbedtls_open\library/gcm.c ****             HiH[j] = vh ^ ctx->HH[j];
 153:Source\mbedtls_open\library/gcm.c ****             HiL[j] = vl ^ ctx->HL[j];
 154:Source\mbedtls_open\library/gcm.c ****         }
 155:Source\mbedtls_open\library/gcm.c ****     }
 156:Source\mbedtls_open\library/gcm.c **** 
 157:Source\mbedtls_open\library/gcm.c ****     return( 0 );
 158:Source\mbedtls_open\library/gcm.c **** }
 159:Source\mbedtls_open\library/gcm.c **** 
 160:Source\mbedtls_open\library/gcm.c **** int mbedtls_gcm_setkey( mbedtls_gcm_context *ctx,
 161:Source\mbedtls_open\library/gcm.c ****                         mbedtls_cipher_id_t cipher,
 162:Source\mbedtls_open\library/gcm.c ****                         const unsigned char *key,
 163:Source\mbedtls_open\library/gcm.c ****                         unsigned int keybits )
 164:Source\mbedtls_open\library/gcm.c **** {
 165:Source\mbedtls_open\library/gcm.c ****     int ret;
 166:Source\mbedtls_open\library/gcm.c ****     const mbedtls_cipher_info_t *cipher_info;
 167:Source\mbedtls_open\library/gcm.c **** 
 168:Source\mbedtls_open\library/gcm.c ****     cipher_info = mbedtls_cipher_info_from_values( cipher, keybits, MBEDTLS_MODE_ECB );
 169:Source\mbedtls_open\library/gcm.c ****     if( cipher_info == NULL )
 170:Source\mbedtls_open\library/gcm.c ****         return( MBEDTLS_ERR_GCM_BAD_INPUT );
 171:Source\mbedtls_open\library/gcm.c **** 
 172:Source\mbedtls_open\library/gcm.c ****     if( cipher_info->block_size != 16 )
 173:Source\mbedtls_open\library/gcm.c ****         return( MBEDTLS_ERR_GCM_BAD_INPUT );
 174:Source\mbedtls_open\library/gcm.c **** 
 175:Source\mbedtls_open\library/gcm.c ****     mbedtls_cipher_free( &ctx->cipher_ctx );
 176:Source\mbedtls_open\library/gcm.c **** 
 177:Source\mbedtls_open\library/gcm.c ****     if( ( ret = mbedtls_cipher_setup( &ctx->cipher_ctx, cipher_info ) ) != 0 )
 178:Source\mbedtls_open\library/gcm.c ****         return( ret );
 179:Source\mbedtls_open\library/gcm.c **** 
 180:Source\mbedtls_open\library/gcm.c ****     if( ( ret = mbedtls_cipher_setkey( &ctx->cipher_ctx, key, keybits,
 181:Source\mbedtls_open\library/gcm.c ****                                MBEDTLS_ENCRYPT ) ) != 0 )
 182:Source\mbedtls_open\library/gcm.c ****     {
 183:Source\mbedtls_open\library/gcm.c ****         return( ret );
 184:Source\mbedtls_open\library/gcm.c ****     }
 185:Source\mbedtls_open\library/gcm.c **** 
 186:Source\mbedtls_open\library/gcm.c ****     if( ( ret = gcm_gen_table( ctx ) ) != 0 )
 187:Source\mbedtls_open\library/gcm.c ****         return( ret );
 188:Source\mbedtls_open\library/gcm.c **** 
 189:Source\mbedtls_open\library/gcm.c ****     return( 0 );
 190:Source\mbedtls_open\library/gcm.c **** }
 191:Source\mbedtls_open\library/gcm.c **** 
 192:Source\mbedtls_open\library/gcm.c **** /*
 193:Source\mbedtls_open\library/gcm.c ****  * Shoup's method for multiplication use this table with
 194:Source\mbedtls_open\library/gcm.c ****  *      last4[x] = x times P^128
 195:Source\mbedtls_open\library/gcm.c ****  * where x and last4[x] are seen as elements of GF(2^128) as in [MGV]
 196:Source\mbedtls_open\library/gcm.c ****  */
 197:Source\mbedtls_open\library/gcm.c **** static const uint64_t last4[16] =
 198:Source\mbedtls_open\library/gcm.c **** {
 199:Source\mbedtls_open\library/gcm.c ****     0x0000, 0x1c20, 0x3840, 0x2460,
 200:Source\mbedtls_open\library/gcm.c ****     0x7080, 0x6ca0, 0x48c0, 0x54e0,
 201:Source\mbedtls_open\library/gcm.c ****     0xe100, 0xfd20, 0xd940, 0xc560,
 202:Source\mbedtls_open\library/gcm.c ****     0x9180, 0x8da0, 0xa9c0, 0xb5e0
ARM GAS  C:\Users\Phuong\AppData\Local\Temp\ccINfzqY.s 			page 5


 203:Source\mbedtls_open\library/gcm.c **** };
 204:Source\mbedtls_open\library/gcm.c **** 
 205:Source\mbedtls_open\library/gcm.c **** /*
 206:Source\mbedtls_open\library/gcm.c ****  * Sets output to x times H using the precomputed tables.
 207:Source\mbedtls_open\library/gcm.c ****  * x and output are seen as elements of GF(2^128) as in [MGV].
 208:Source\mbedtls_open\library/gcm.c ****  */
 209:Source\mbedtls_open\library/gcm.c **** static void gcm_mult( mbedtls_gcm_context *ctx, const unsigned char x[16],
 210:Source\mbedtls_open\library/gcm.c ****                       unsigned char output[16] )
 211:Source\mbedtls_open\library/gcm.c **** {
  27              		.loc 1 211 0
  28              		.cfi_startproc
  29              		@ args = 0, pretend = 0, frame = 8
  30              		@ frame_needed = 0, uses_anonymous_args = 0
  31              	.LVL0:
  32 0000 F0B5     		push	{r4, r5, r6, r7, lr}
  33              		.cfi_def_cfa_offset 20
  34              		.cfi_offset 4, -20
  35              		.cfi_offset 5, -16
  36              		.cfi_offset 6, -12
  37              		.cfi_offset 7, -8
  38              		.cfi_offset 14, -4
  39 0002 5F46     		mov	r7, fp
  40 0004 5646     		mov	r6, r10
  41 0006 4D46     		mov	r5, r9
  42 0008 4446     		mov	r4, r8
  43 000a F0B4     		push	{r4, r5, r6, r7}
  44              		.cfi_def_cfa_offset 36
  45              		.cfi_offset 8, -36
  46              		.cfi_offset 9, -32
  47              		.cfi_offset 10, -28
  48              		.cfi_offset 11, -24
  49 000c 83B0     		sub	sp, sp, #12
  50              		.cfi_def_cfa_offset 48
  51 000e 8C46     		mov	ip, r1
  52 0010 9046     		mov	r8, r2
  53              	.LVL1:
 212:Source\mbedtls_open\library/gcm.c ****     int i = 0;
 213:Source\mbedtls_open\library/gcm.c ****     unsigned char lo, hi, rem;
 214:Source\mbedtls_open\library/gcm.c ****     uint64_t zh, zl;
 215:Source\mbedtls_open\library/gcm.c **** 
 216:Source\mbedtls_open\library/gcm.c **** #if defined(MBEDTLS_AESNI_C) && defined(MBEDTLS_HAVE_X86_64)
 217:Source\mbedtls_open\library/gcm.c ****     if( mbedtls_aesni_has_support( MBEDTLS_AESNI_CLMUL ) ) {
 218:Source\mbedtls_open\library/gcm.c ****         unsigned char h[16];
 219:Source\mbedtls_open\library/gcm.c **** 
 220:Source\mbedtls_open\library/gcm.c ****         PUT_UINT32_BE( ctx->HH[8] >> 32, h,  0 );
 221:Source\mbedtls_open\library/gcm.c ****         PUT_UINT32_BE( ctx->HH[8],       h,  4 );
 222:Source\mbedtls_open\library/gcm.c ****         PUT_UINT32_BE( ctx->HL[8] >> 32, h,  8 );
 223:Source\mbedtls_open\library/gcm.c ****         PUT_UINT32_BE( ctx->HL[8],       h, 12 );
 224:Source\mbedtls_open\library/gcm.c **** 
 225:Source\mbedtls_open\library/gcm.c ****         mbedtls_aesni_gcm_mult( output, x, h );
 226:Source\mbedtls_open\library/gcm.c ****         return;
 227:Source\mbedtls_open\library/gcm.c ****     }
 228:Source\mbedtls_open\library/gcm.c **** #endif /* MBEDTLS_AESNI_C && MBEDTLS_HAVE_X86_64 */
 229:Source\mbedtls_open\library/gcm.c **** 
 230:Source\mbedtls_open\library/gcm.c ****     lo = x[15] & 0xf;
  54              		.loc 1 230 0
  55 0012 CB7B     		ldrb	r3, [r1, #15]
ARM GAS  C:\Users\Phuong\AppData\Local\Temp\ccINfzqY.s 			page 6


  56 0014 0F22     		movs	r2, #15
  57              	.LVL2:
  58 0016 1340     		ands	r3, r2
  59              	.LVL3:
 231:Source\mbedtls_open\library/gcm.c **** 
 232:Source\mbedtls_open\library/gcm.c ****     zh = ctx->HH[lo];
  60              		.loc 1 232 0
  61 0018 1A00     		movs	r2, r3
  62 001a 1832     		adds	r2, r2, #24
  63 001c D200     		lsls	r2, r2, #3
  64 001e 8218     		adds	r2, r0, r2
  65 0020 1468     		ldr	r4, [r2]
  66 0022 5568     		ldr	r5, [r2, #4]
  67              	.LVL4:
 233:Source\mbedtls_open\library/gcm.c ****     zl = ctx->HL[lo];
  68              		.loc 1 233 0
  69 0024 0833     		adds	r3, r3, #8
  70              	.LVL5:
  71 0026 DB00     		lsls	r3, r3, #3
  72              	.LVL6:
  73 0028 C318     		adds	r3, r0, r3
  74 002a 1E68     		ldr	r6, [r3]
  75 002c 5B68     		ldr	r3, [r3, #4]
  76              	.LVL7:
 234:Source\mbedtls_open\library/gcm.c **** 
 235:Source\mbedtls_open\library/gcm.c ****     for( i = 15; i >= 0; i-- )
  77              		.loc 1 235 0
  78 002e 0F21     		movs	r1, #15
  79              	.LVL8:
  80 0030 55E0     		b	.L2
  81              	.LVL9:
  82              	.L4:
 236:Source\mbedtls_open\library/gcm.c ****     {
 237:Source\mbedtls_open\library/gcm.c ****         lo = x[i] & 0xf;
  83              		.loc 1 237 0
  84 0032 6246     		mov	r2, ip
  85 0034 575C     		ldrb	r7, [r2, r1]
  86 0036 0F22     		movs	r2, #15
  87 0038 3A40     		ands	r2, r7
  88              	.LVL10:
 238:Source\mbedtls_open\library/gcm.c ****         hi = x[i] >> 4;
  89              		.loc 1 238 0
  90 003a 3F09     		lsrs	r7, r7, #4
  91 003c 0197     		str	r7, [sp, #4]
  92              	.LVL11:
 239:Source\mbedtls_open\library/gcm.c **** 
 240:Source\mbedtls_open\library/gcm.c ****         if( i != 15 )
  93              		.loc 1 240 0
  94 003e 0F29     		cmp	r1, #15
  95 0040 27D0     		beq	.L3
 241:Source\mbedtls_open\library/gcm.c ****         {
 242:Source\mbedtls_open\library/gcm.c ****             rem = (unsigned char) zl & 0xf;
  96              		.loc 1 242 0
  97 0042 0F27     		movs	r7, #15
  98 0044 3740     		ands	r7, r6
  99 0046 B946     		mov	r9, r7
 100              	.LVL12:
ARM GAS  C:\Users\Phuong\AppData\Local\Temp\ccINfzqY.s 			page 7


 243:Source\mbedtls_open\library/gcm.c ****             zl = ( zh << 60 ) | ( zl >> 4 );
 101              		.loc 1 243 0
 102 0048 2707     		lsls	r7, r4, #28
 103 004a BA46     		mov	r10, r7
 104 004c 1F07     		lsls	r7, r3, #28
 105 004e 3609     		lsrs	r6, r6, #4
 106              	.LVL13:
 107 0050 3E43     		orrs	r6, r7
 108 0052 1B09     		lsrs	r3, r3, #4
 109 0054 5746     		mov	r7, r10
 110 0056 3B43     		orrs	r3, r7
 111              	.LVL14:
 244:Source\mbedtls_open\library/gcm.c ****             zh = ( zh >> 4 );
 112              		.loc 1 244 0
 113 0058 2F07     		lsls	r7, r5, #28
 114 005a 2409     		lsrs	r4, r4, #4
 115              	.LVL15:
 116 005c 3C43     		orrs	r4, r7
 117 005e 2D09     		lsrs	r5, r5, #4
 118 0060 AA46     		mov	r10, r5
 119              	.LVL16:
 245:Source\mbedtls_open\library/gcm.c ****             zh ^= (uint64_t) last4[rem] << 48;
 120              		.loc 1 245 0
 121 0062 4D46     		mov	r5, r9
 122              	.LVL17:
 123 0064 ED00     		lsls	r5, r5, #3
 124 0066 314F     		ldr	r7, .L5
 125 0068 7D59     		ldr	r5, [r7, r5]
 126 006a 2D04     		lsls	r5, r5, #16
 127 006c 5746     		mov	r7, r10
 128 006e 6F40     		eors	r7, r5
 129 0070 B946     		mov	r9, r7
 130              	.LVL18:
 246:Source\mbedtls_open\library/gcm.c ****             zh ^= ctx->HH[lo];
 131              		.loc 1 246 0
 132 0072 1500     		movs	r5, r2
 133 0074 1835     		adds	r5, r5, #24
 134 0076 ED00     		lsls	r5, r5, #3
 135 0078 4519     		adds	r5, r0, r5
 136 007a 2F68     		ldr	r7, [r5]
 137              	.LVL19:
 138 007c 6D68     		ldr	r5, [r5, #4]
 139 007e 7C40     		eors	r4, r7
 140              	.LVL20:
 141 0080 4F46     		mov	r7, r9
 142 0082 7D40     		eors	r5, r7
 143              	.LVL21:
 247:Source\mbedtls_open\library/gcm.c ****             zl ^= ctx->HL[lo];
 144              		.loc 1 247 0
 145 0084 0832     		adds	r2, r2, #8
 146              	.LVL22:
 147 0086 D200     		lsls	r2, r2, #3
 148              	.LVL23:
 149 0088 8218     		adds	r2, r0, r2
 150 008a 1768     		ldr	r7, [r2]
 151 008c 5268     		ldr	r2, [r2, #4]
 152 008e 7E40     		eors	r6, r7
ARM GAS  C:\Users\Phuong\AppData\Local\Temp\ccINfzqY.s 			page 8


 153              	.LVL24:
 154 0090 5340     		eors	r3, r2
 155              	.LVL25:
 156              	.L3:
 248:Source\mbedtls_open\library/gcm.c **** 
 249:Source\mbedtls_open\library/gcm.c ****         }
 250:Source\mbedtls_open\library/gcm.c **** 
 251:Source\mbedtls_open\library/gcm.c ****         rem = (unsigned char) zl & 0xf;
 157              		.loc 1 251 0 discriminator 2
 158 0092 0F22     		movs	r2, #15
 159              	.LVL26:
 160 0094 3240     		ands	r2, r6
 161              	.LVL27:
 252:Source\mbedtls_open\library/gcm.c ****         zl = ( zh << 60 ) | ( zl >> 4 );
 162              		.loc 1 252 0 discriminator 2
 163 0096 2707     		lsls	r7, r4, #28
 164 0098 B946     		mov	r9, r7
 165 009a 1F07     		lsls	r7, r3, #28
 166 009c 3609     		lsrs	r6, r6, #4
 167              	.LVL28:
 168 009e 3E43     		orrs	r6, r7
 169 00a0 1B09     		lsrs	r3, r3, #4
 170 00a2 4F46     		mov	r7, r9
 171 00a4 3B43     		orrs	r3, r7
 172              	.LVL29:
 253:Source\mbedtls_open\library/gcm.c ****         zh = ( zh >> 4 );
 173              		.loc 1 253 0 discriminator 2
 174 00a6 2F07     		lsls	r7, r5, #28
 175 00a8 2409     		lsrs	r4, r4, #4
 176              	.LVL30:
 177 00aa 3C43     		orrs	r4, r7
 178 00ac 2D09     		lsrs	r5, r5, #4
 179              	.LVL31:
 254:Source\mbedtls_open\library/gcm.c ****         zh ^= (uint64_t) last4[rem] << 48;
 180              		.loc 1 254 0 discriminator 2
 181 00ae D200     		lsls	r2, r2, #3
 182              	.LVL32:
 183 00b0 1E4F     		ldr	r7, .L5
 184 00b2 BA58     		ldr	r2, [r7, r2]
 185 00b4 1204     		lsls	r2, r2, #16
 186 00b6 5540     		eors	r5, r2
 187              	.LVL33:
 255:Source\mbedtls_open\library/gcm.c ****         zh ^= ctx->HH[hi];
 188              		.loc 1 255 0 discriminator 2
 189 00b8 019A     		ldr	r2, [sp, #4]
 190 00ba 1832     		adds	r2, r2, #24
 191 00bc D200     		lsls	r2, r2, #3
 192 00be 8218     		adds	r2, r0, r2
 193 00c0 1768     		ldr	r7, [r2]
 194 00c2 5268     		ldr	r2, [r2, #4]
 195 00c4 7C40     		eors	r4, r7
 196              	.LVL34:
 197 00c6 5540     		eors	r5, r2
 198              	.LVL35:
 256:Source\mbedtls_open\library/gcm.c ****         zl ^= ctx->HL[hi];
 199              		.loc 1 256 0 discriminator 2
 200 00c8 019F     		ldr	r7, [sp, #4]
ARM GAS  C:\Users\Phuong\AppData\Local\Temp\ccINfzqY.s 			page 9


 201 00ca 0837     		adds	r7, r7, #8
 202 00cc FF00     		lsls	r7, r7, #3
 203 00ce C719     		adds	r7, r0, r7
 204 00d0 3A68     		ldr	r2, [r7]
 205 00d2 9146     		mov	r9, r2
 206 00d4 7A68     		ldr	r2, [r7, #4]
 207 00d6 4F46     		mov	r7, r9
 208 00d8 7E40     		eors	r6, r7
 209              	.LVL36:
 210 00da 5340     		eors	r3, r2
 211              	.LVL37:
 235:Source\mbedtls_open\library/gcm.c ****     {
 212              		.loc 1 235 0 discriminator 2
 213 00dc 0139     		subs	r1, r1, #1
 214              	.LVL38:
 215              	.L2:
 235:Source\mbedtls_open\library/gcm.c ****     {
 216              		.loc 1 235 0 is_stmt 0 discriminator 1
 217 00de 0029     		cmp	r1, #0
 218 00e0 A7DA     		bge	.L4
 257:Source\mbedtls_open\library/gcm.c ****     }
 258:Source\mbedtls_open\library/gcm.c **** 
 259:Source\mbedtls_open\library/gcm.c ****     PUT_UINT32_BE( zh >> 32, output, 0 );
 219              		.loc 1 259 0 is_stmt 1
 220 00e2 2A0E     		lsrs	r2, r5, #24
 221 00e4 4146     		mov	r1, r8
 222              	.LVL39:
 223 00e6 0A70     		strb	r2, [r1]
 224 00e8 2A0C     		lsrs	r2, r5, #16
 225 00ea 4A70     		strb	r2, [r1, #1]
 226 00ec 2A0A     		lsrs	r2, r5, #8
 227 00ee 8A70     		strb	r2, [r1, #2]
 228 00f0 CD70     		strb	r5, [r1, #3]
 260:Source\mbedtls_open\library/gcm.c ****     PUT_UINT32_BE( zh, output, 4 );
 229              		.loc 1 260 0
 230 00f2 220E     		lsrs	r2, r4, #24
 231 00f4 0A71     		strb	r2, [r1, #4]
 232 00f6 220C     		lsrs	r2, r4, #16
 233 00f8 4A71     		strb	r2, [r1, #5]
 234 00fa 220A     		lsrs	r2, r4, #8
 235 00fc 8A71     		strb	r2, [r1, #6]
 236 00fe CC71     		strb	r4, [r1, #7]
 261:Source\mbedtls_open\library/gcm.c ****     PUT_UINT32_BE( zl >> 32, output, 8 );
 237              		.loc 1 261 0
 238 0100 1A0E     		lsrs	r2, r3, #24
 239 0102 0A72     		strb	r2, [r1, #8]
 240 0104 1A0C     		lsrs	r2, r3, #16
 241 0106 4A72     		strb	r2, [r1, #9]
 242 0108 1A0A     		lsrs	r2, r3, #8
 243 010a 8A72     		strb	r2, [r1, #10]
 244 010c CB72     		strb	r3, [r1, #11]
 262:Source\mbedtls_open\library/gcm.c ****     PUT_UINT32_BE( zl, output, 12 );
 245              		.loc 1 262 0
 246 010e 330E     		lsrs	r3, r6, #24
 247              	.LVL40:
 248 0110 0B73     		strb	r3, [r1, #12]
 249 0112 330C     		lsrs	r3, r6, #16
ARM GAS  C:\Users\Phuong\AppData\Local\Temp\ccINfzqY.s 			page 10


 250 0114 4B73     		strb	r3, [r1, #13]
 251 0116 330A     		lsrs	r3, r6, #8
 252 0118 8B73     		strb	r3, [r1, #14]
 253 011a CE73     		strb	r6, [r1, #15]
 263:Source\mbedtls_open\library/gcm.c **** }
 254              		.loc 1 263 0
 255 011c 03B0     		add	sp, sp, #12
 256              		@ sp needed
 257              	.LVL41:
 258              	.LVL42:
 259 011e 3CBC     		pop	{r2, r3, r4, r5}
 260 0120 9046     		mov	r8, r2
 261 0122 9946     		mov	r9, r3
 262 0124 A246     		mov	r10, r4
 263 0126 AB46     		mov	fp, r5
 264 0128 F0BD     		pop	{r4, r5, r6, r7, pc}
 265              	.L6:
 266 012a C046     		.align	2
 267              	.L5:
 268 012c 00000000 		.word	.LANCHOR0
 269              		.cfi_endproc
 270              	.LFE11:
 271              		.size	gcm_mult, .-gcm_mult
 272              		.section	.text.gcm_gen_table,"ax",%progbits
 273              		.align	2
 274              		.code	16
 275              		.thumb_func
 276              		.type	gcm_gen_table, %function
 277              	gcm_gen_table:
 278              	.LFB9:
 101:Source\mbedtls_open\library/gcm.c ****     int ret, i, j;
 279              		.loc 1 101 0
 280              		.cfi_startproc
 281              		@ args = 0, pretend = 0, frame = 40
 282              		@ frame_needed = 0, uses_anonymous_args = 0
 283              	.LVL43:
 284 0000 F0B5     		push	{r4, r5, r6, r7, lr}
 285              		.cfi_def_cfa_offset 20
 286              		.cfi_offset 4, -20
 287              		.cfi_offset 5, -16
 288              		.cfi_offset 6, -12
 289              		.cfi_offset 7, -8
 290              		.cfi_offset 14, -4
 291 0002 5F46     		mov	r7, fp
 292 0004 5646     		mov	r6, r10
 293 0006 4D46     		mov	r5, r9
 294 0008 4446     		mov	r4, r8
 295 000a F0B4     		push	{r4, r5, r6, r7}
 296              		.cfi_def_cfa_offset 36
 297              		.cfi_offset 8, -36
 298              		.cfi_offset 9, -32
 299              		.cfi_offset 10, -28
 300              		.cfi_offset 11, -24
 301 000c 8DB0     		sub	sp, sp, #52
 302              		.cfi_def_cfa_offset 88
 303 000e 0400     		movs	r4, r0
 106:Source\mbedtls_open\library/gcm.c **** 
ARM GAS  C:\Users\Phuong\AppData\Local\Temp\ccINfzqY.s 			page 11


 304              		.loc 1 106 0
 305 0010 0023     		movs	r3, #0
 306 0012 0793     		str	r3, [sp, #28]
 108:Source\mbedtls_open\library/gcm.c ****     if( ( ret = mbedtls_cipher_update( &ctx->cipher_ctx, h, 16, h, &olen ) ) != 0 )
 307              		.loc 1 108 0
 308 0014 1022     		movs	r2, #16
 309 0016 0021     		movs	r1, #0
 310 0018 08A8     		add	r0, sp, #32
 311              	.LVL44:
 312 001a FFF7FEFF 		bl	memset
 313              	.LVL45:
 109:Source\mbedtls_open\library/gcm.c ****         return( ret );
 314              		.loc 1 109 0
 315 001e 07AB     		add	r3, sp, #28
 316 0020 0093     		str	r3, [sp]
 317 0022 08AB     		add	r3, sp, #32
 318 0024 1022     		movs	r2, #16
 319 0026 1900     		movs	r1, r3
 320 0028 2000     		movs	r0, r4
 321 002a FFF7FEFF 		bl	mbedtls_cipher_update
 322              	.LVL46:
 323 002e 0028     		cmp	r0, #0
 324 0030 00D0     		beq	.LCB344
 325 0032 A5E0     		b	.L8	@long jump
 326              	.LCB344:
 113:Source\mbedtls_open\library/gcm.c ****     GET_UINT32_BE( lo, h,  4  );
 327              		.loc 1 113 0
 328 0034 08AB     		add	r3, sp, #32
 329 0036 1E78     		ldrb	r6, [r3]
 330 0038 3606     		lsls	r6, r6, #24
 331 003a 5A78     		ldrb	r2, [r3, #1]
 332 003c 1204     		lsls	r2, r2, #16
 333 003e 1643     		orrs	r6, r2
 334 0040 9A78     		ldrb	r2, [r3, #2]
 335 0042 1202     		lsls	r2, r2, #8
 336 0044 1643     		orrs	r6, r2
 337 0046 DA78     		ldrb	r2, [r3, #3]
 338 0048 1643     		orrs	r6, r2
 339              	.LVL47:
 114:Source\mbedtls_open\library/gcm.c ****     vh = (uint64_t) hi << 32 | lo;
 340              		.loc 1 114 0
 341 004a 1F79     		ldrb	r7, [r3, #4]
 342 004c 3F06     		lsls	r7, r7, #24
 343 004e 5A79     		ldrb	r2, [r3, #5]
 344 0050 1204     		lsls	r2, r2, #16
 345 0052 1743     		orrs	r7, r2
 346 0054 9A79     		ldrb	r2, [r3, #6]
 347 0056 1202     		lsls	r2, r2, #8
 348 0058 1743     		orrs	r7, r2
 349 005a DA79     		ldrb	r2, [r3, #7]
 350 005c 1743     		orrs	r7, r2
 351              	.LVL48:
 115:Source\mbedtls_open\library/gcm.c **** 
 352              		.loc 1 115 0
 353 005e 3D00     		movs	r5, r7
 354 0060 3100     		movs	r1, r6
 355              	.LVL49:
ARM GAS  C:\Users\Phuong\AppData\Local\Temp\ccINfzqY.s 			page 12


 117:Source\mbedtls_open\library/gcm.c ****     GET_UINT32_BE( lo, h,  12 );
 356              		.loc 1 117 0
 357 0062 1A7A     		ldrb	r2, [r3, #8]
 358 0064 1006     		lsls	r0, r2, #24
 359              	.LVL50:
 360 0066 5A7A     		ldrb	r2, [r3, #9]
 361 0068 1204     		lsls	r2, r2, #16
 362 006a 0243     		orrs	r2, r0
 363 006c 987A     		ldrb	r0, [r3, #10]
 364 006e 0002     		lsls	r0, r0, #8
 365 0070 0243     		orrs	r2, r0
 366 0072 D87A     		ldrb	r0, [r3, #11]
 367 0074 0243     		orrs	r2, r0
 368 0076 9446     		mov	ip, r2
 369              	.LVL51:
 118:Source\mbedtls_open\library/gcm.c ****     vl = (uint64_t) hi << 32 | lo;
 370              		.loc 1 118 0
 371 0078 1A7B     		ldrb	r2, [r3, #12]
 372              	.LVL52:
 373 007a 1006     		lsls	r0, r2, #24
 374 007c 5A7B     		ldrb	r2, [r3, #13]
 375 007e 1204     		lsls	r2, r2, #16
 376 0080 0243     		orrs	r2, r0
 377 0082 987B     		ldrb	r0, [r3, #14]
 378 0084 0002     		lsls	r0, r0, #8
 379 0086 0243     		orrs	r2, r0
 380 0088 DB7B     		ldrb	r3, [r3, #15]
 381 008a 1343     		orrs	r3, r2
 382              	.LVL53:
 119:Source\mbedtls_open\library/gcm.c **** 
 383              		.loc 1 119 0
 384 008c 9946     		mov	r9, r3
 385 008e 6246     		mov	r2, ip
 386              	.LVL54:
 122:Source\mbedtls_open\library/gcm.c ****     ctx->HH[8] = vh;
 387              		.loc 1 122 0
 388 0090 8020     		movs	r0, #128
 389 0092 8046     		mov	r8, r0
 390 0094 A044     		add	r8, r8, r4
 391 0096 4046     		mov	r0, r8
 392 0098 0360     		str	r3, [r0]
 393 009a 4346     		mov	r3, r8
 394              	.LVL55:
 395 009c 5A60     		str	r2, [r3, #4]
 123:Source\mbedtls_open\library/gcm.c **** 
 396              		.loc 1 123 0
 397 009e 631C     		adds	r3, r4, #1
 398 00a0 FF33     		adds	r3, r3, #255
 399 00a2 1F60     		str	r7, [r3]
 400 00a4 5E60     		str	r6, [r3, #4]
 132:Source\mbedtls_open\library/gcm.c ****     ctx->HL[0] = 0;
 401              		.loc 1 132 0
 402 00a6 403B     		subs	r3, r3, #64
 403 00a8 0026     		movs	r6, #0
 404              	.LVL56:
 405 00aa 0027     		movs	r7, #0
 406              	.LVL57:
ARM GAS  C:\Users\Phuong\AppData\Local\Temp\ccINfzqY.s 			page 13


 407 00ac 1E60     		str	r6, [r3]
 408 00ae 5F60     		str	r7, [r3, #4]
 133:Source\mbedtls_open\library/gcm.c **** 
 409              		.loc 1 133 0
 410 00b0 2664     		str	r6, [r4, #64]
 411 00b2 6764     		str	r7, [r4, #68]
 412              	.LVL58:
 135:Source\mbedtls_open\library/gcm.c ****     {
 413              		.loc 1 135 0
 414 00b4 0436     		adds	r6, r6, #4
 415 00b6 21E0     		b	.L9
 416              	.LVL59:
 417              	.L10:
 418              	.LBB2:
 137:Source\mbedtls_open\library/gcm.c ****         vl  = ( vh << 63 ) | ( vl >> 1 );
 419              		.loc 1 137 0 discriminator 3
 420 00b8 0123     		movs	r3, #1
 421 00ba 4846     		mov	r0, r9
 422 00bc 0340     		ands	r3, r0
 423 00be 5F01     		lsls	r7, r3, #5
 424 00c0 DB1B     		subs	r3, r3, r7
 425 00c2 1B06     		lsls	r3, r3, #24
 426 00c4 9846     		mov	r8, r3
 427              	.LVL60:
 138:Source\mbedtls_open\library/gcm.c ****         vh  = ( vh >> 1 ) ^ ( (uint64_t) T << 32);
 428              		.loc 1 138 0 discriminator 3
 429 00c6 EB07     		lsls	r3, r5, #31
 430              	.LVL61:
 431 00c8 D707     		lsls	r7, r2, #31
 432 00ca 4008     		lsrs	r0, r0, #1
 433 00cc 3843     		orrs	r0, r7
 434 00ce 5208     		lsrs	r2, r2, #1
 435              	.LVL62:
 436 00d0 8146     		mov	r9, r0
 437 00d2 1A43     		orrs	r2, r3
 438              	.LVL63:
 139:Source\mbedtls_open\library/gcm.c **** 
 439              		.loc 1 139 0 discriminator 3
 440 00d4 CB07     		lsls	r3, r1, #31
 441 00d6 6F08     		lsrs	r7, r5, #1
 442 00d8 1F43     		orrs	r7, r3
 443 00da 4908     		lsrs	r1, r1, #1
 444              	.LVL64:
 445 00dc 3D00     		movs	r5, r7
 446 00de 4346     		mov	r3, r8
 447 00e0 5940     		eors	r1, r3
 448              	.LVL65:
 141:Source\mbedtls_open\library/gcm.c ****         ctx->HH[i] = vh;
 449              		.loc 1 141 0 discriminator 3
 450 00e2 3300     		movs	r3, r6
 451 00e4 0833     		adds	r3, r3, #8
 452 00e6 DB00     		lsls	r3, r3, #3
 453 00e8 E318     		adds	r3, r4, r3
 454 00ea 1860     		str	r0, [r3]
 455 00ec 5A60     		str	r2, [r3, #4]
 142:Source\mbedtls_open\library/gcm.c ****     }
 456              		.loc 1 142 0 discriminator 3
ARM GAS  C:\Users\Phuong\AppData\Local\Temp\ccINfzqY.s 			page 14


 457 00ee 3300     		movs	r3, r6
 458 00f0 1833     		adds	r3, r3, #24
 459 00f2 DB00     		lsls	r3, r3, #3
 460 00f4 E318     		adds	r3, r4, r3
 461 00f6 1F60     		str	r7, [r3]
 462 00f8 5960     		str	r1, [r3, #4]
 463              	.LBE2:
 135:Source\mbedtls_open\library/gcm.c ****     {
 464              		.loc 1 135 0 discriminator 3
 465 00fa 7610     		asrs	r6, r6, #1
 466              	.LVL66:
 467              	.L9:
 135:Source\mbedtls_open\library/gcm.c ****     {
 468              		.loc 1 135 0 is_stmt 0 discriminator 1
 469 00fc 002E     		cmp	r6, #0
 470 00fe DBDC     		bgt	.L10
 471 0100 0225     		movs	r5, #2
 472              	.LVL67:
 473 0102 3AE0     		b	.L11
 474              	.LVL68:
 475              	.L14:
 476              	.LBB3:
 147:Source\mbedtls_open\library/gcm.c ****         vh = *HiH;
 477              		.loc 1 147 0 is_stmt 1
 478 0104 2100     		movs	r1, r4
 479 0106 4031     		adds	r1, r1, #64
 480 0108 EB00     		lsls	r3, r5, #3
 481 010a CA18     		adds	r2, r1, r3
 482 010c 1100     		movs	r1, r2
 483 010e 0392     		str	r2, [sp, #12]
 484              	.LVL69:
 485 0110 2000     		movs	r0, r4
 486 0112 C030     		adds	r0, r0, #192
 487 0114 C318     		adds	r3, r0, r3
 488 0116 1A00     		movs	r2, r3
 489 0118 0493     		str	r3, [sp, #16]
 490              	.LVL70:
 148:Source\mbedtls_open\library/gcm.c ****         vl = *HiL;
 491              		.loc 1 148 0
 492 011a 1B68     		ldr	r3, [r3]
 493 011c 9846     		mov	r8, r3
 494 011e 5368     		ldr	r3, [r2, #4]
 495 0120 9C46     		mov	ip, r3
 496              	.LVL71:
 149:Source\mbedtls_open\library/gcm.c ****         for( j = 1; j < i; j++ )
 497              		.loc 1 149 0
 498 0122 0B68     		ldr	r3, [r1]
 499              	.LVL72:
 500 0124 0593     		str	r3, [sp, #20]
 501 0126 4B68     		ldr	r3, [r1, #4]
 502 0128 9946     		mov	r9, r3
 503              	.LVL73:
 150:Source\mbedtls_open\library/gcm.c ****         {
 504              		.loc 1 150 0
 505 012a 0122     		movs	r2, #1
 506              	.LVL74:
 507 012c 22E0     		b	.L12
ARM GAS  C:\Users\Phuong\AppData\Local\Temp\ccINfzqY.s 			page 15


 508              	.LVL75:
 509              	.L13:
 152:Source\mbedtls_open\library/gcm.c ****             HiL[j] = vl ^ ctx->HL[j];
 510              		.loc 1 152 0 discriminator 3
 511 012e D600     		lsls	r6, r2, #3
 512 0130 049B     		ldr	r3, [sp, #16]
 513 0132 9F19     		adds	r7, r3, r6
 514 0134 1300     		movs	r3, r2
 515 0136 1833     		adds	r3, r3, #24
 516 0138 DB00     		lsls	r3, r3, #3
 517 013a E318     		adds	r3, r4, r3
 518 013c 1968     		ldr	r1, [r3]
 519 013e 5B68     		ldr	r3, [r3, #4]
 520 0140 4046     		mov	r0, r8
 521 0142 4140     		eors	r1, r0
 522 0144 8B46     		mov	fp, r1
 523 0146 6146     		mov	r1, ip
 524 0148 4B40     		eors	r3, r1
 525 014a 5946     		mov	r1, fp
 526 014c 3960     		str	r1, [r7]
 527 014e 7B60     		str	r3, [r7, #4]
 153:Source\mbedtls_open\library/gcm.c ****         }
 528              		.loc 1 153 0 discriminator 3
 529 0150 039B     		ldr	r3, [sp, #12]
 530 0152 9A46     		mov	r10, r3
 531 0154 5644     		add	r6, r6, r10
 532 0156 1300     		movs	r3, r2
 533 0158 0833     		adds	r3, r3, #8
 534 015a DB00     		lsls	r3, r3, #3
 535 015c E318     		adds	r3, r4, r3
 536 015e 1968     		ldr	r1, [r3]
 537 0160 5B68     		ldr	r3, [r3, #4]
 538 0162 0598     		ldr	r0, [sp, #20]
 539 0164 4140     		eors	r1, r0
 540 0166 8A46     		mov	r10, r1
 541 0168 4946     		mov	r1, r9
 542 016a 4B40     		eors	r3, r1
 543 016c 5146     		mov	r1, r10
 544 016e 3160     		str	r1, [r6]
 545 0170 7360     		str	r3, [r6, #4]
 150:Source\mbedtls_open\library/gcm.c ****         {
 546              		.loc 1 150 0 discriminator 3
 547 0172 0132     		adds	r2, r2, #1
 548              	.LVL76:
 549              	.L12:
 150:Source\mbedtls_open\library/gcm.c ****         {
 550              		.loc 1 150 0 is_stmt 0 discriminator 1
 551 0174 9542     		cmp	r5, r2
 552 0176 DADC     		bgt	.L13
 553              	.LBE3:
 145:Source\mbedtls_open\library/gcm.c ****     {
 554              		.loc 1 145 0 is_stmt 1 discriminator 2
 555 0178 6D00     		lsls	r5, r5, #1
 556              	.LVL77:
 557              	.L11:
 145:Source\mbedtls_open\library/gcm.c ****     {
 558              		.loc 1 145 0 is_stmt 0 discriminator 1
ARM GAS  C:\Users\Phuong\AppData\Local\Temp\ccINfzqY.s 			page 16


 559 017a 082D     		cmp	r5, #8
 560 017c C2DD     		ble	.L14
 157:Source\mbedtls_open\library/gcm.c **** }
 561              		.loc 1 157 0 is_stmt 1
 562 017e 0020     		movs	r0, #0
 563              	.LVL78:
 564              	.L8:
 158:Source\mbedtls_open\library/gcm.c **** 
 565              		.loc 1 158 0
 566 0180 0DB0     		add	sp, sp, #52
 567              		@ sp needed
 568              	.LVL79:
 569 0182 3CBC     		pop	{r2, r3, r4, r5}
 570 0184 9046     		mov	r8, r2
 571 0186 9946     		mov	r9, r3
 572 0188 A246     		mov	r10, r4
 573 018a AB46     		mov	fp, r5
 574 018c F0BD     		pop	{r4, r5, r6, r7, pc}
 575              		.cfi_endproc
 576              	.LFE9:
 577              		.size	gcm_gen_table, .-gcm_gen_table
 578 018e C046     		.section	.text.mbedtls_gcm_init,"ax",%progbits
 579              		.align	2
 580              		.global	mbedtls_gcm_init
 581              		.code	16
 582              		.thumb_func
 583              		.type	mbedtls_gcm_init, %function
 584              	mbedtls_gcm_init:
 585              	.LFB8:
  88:Source\mbedtls_open\library/gcm.c ****     memset( ctx, 0, sizeof( mbedtls_gcm_context ) );
 586              		.loc 1 88 0
 587              		.cfi_startproc
 588              		@ args = 0, pretend = 0, frame = 0
 589              		@ frame_needed = 0, uses_anonymous_args = 0
 590              	.LVL80:
 591 0000 10B5     		push	{r4, lr}
 592              		.cfi_def_cfa_offset 8
 593              		.cfi_offset 4, -8
 594              		.cfi_offset 14, -4
  89:Source\mbedtls_open\library/gcm.c **** }
 595              		.loc 1 89 0
 596 0002 C422     		movs	r2, #196
 597 0004 5200     		lsls	r2, r2, #1
 598 0006 0021     		movs	r1, #0
 599 0008 FFF7FEFF 		bl	memset
 600              	.LVL81:
  90:Source\mbedtls_open\library/gcm.c **** 
 601              		.loc 1 90 0
 602              		@ sp needed
 603 000c 10BD     		pop	{r4, pc}
 604              		.cfi_endproc
 605              	.LFE8:
 606              		.size	mbedtls_gcm_init, .-mbedtls_gcm_init
 607 000e C046     		.section	.text.mbedtls_gcm_setkey,"ax",%progbits
 608              		.align	2
 609              		.global	mbedtls_gcm_setkey
 610              		.code	16
ARM GAS  C:\Users\Phuong\AppData\Local\Temp\ccINfzqY.s 			page 17


 611              		.thumb_func
 612              		.type	mbedtls_gcm_setkey, %function
 613              	mbedtls_gcm_setkey:
 614              	.LFB10:
 164:Source\mbedtls_open\library/gcm.c ****     int ret;
 615              		.loc 1 164 0
 616              		.cfi_startproc
 617              		@ args = 0, pretend = 0, frame = 0
 618              		@ frame_needed = 0, uses_anonymous_args = 0
 619              	.LVL82:
 620 0000 F8B5     		push	{r3, r4, r5, r6, r7, lr}
 621              		.cfi_def_cfa_offset 24
 622              		.cfi_offset 3, -24
 623              		.cfi_offset 4, -20
 624              		.cfi_offset 5, -16
 625              		.cfi_offset 6, -12
 626              		.cfi_offset 7, -8
 627              		.cfi_offset 14, -4
 628 0002 0400     		movs	r4, r0
 629 0004 0800     		movs	r0, r1
 630              	.LVL83:
 631 0006 1600     		movs	r6, r2
 632 0008 1D00     		movs	r5, r3
 168:Source\mbedtls_open\library/gcm.c ****     if( cipher_info == NULL )
 633              		.loc 1 168 0
 634 000a 0122     		movs	r2, #1
 635              	.LVL84:
 636 000c 1900     		movs	r1, r3
 637              	.LVL85:
 638 000e FFF7FEFF 		bl	mbedtls_cipher_info_from_values
 639              	.LVL86:
 640 0012 071E     		subs	r7, r0, #0
 641              	.LVL87:
 169:Source\mbedtls_open\library/gcm.c ****         return( MBEDTLS_ERR_GCM_BAD_INPUT );
 642              		.loc 1 169 0
 643 0014 17D0     		beq	.L19
 172:Source\mbedtls_open\library/gcm.c ****         return( MBEDTLS_ERR_GCM_BAD_INPUT );
 644              		.loc 1 172 0
 645 0016 4369     		ldr	r3, [r0, #20]
 646 0018 102B     		cmp	r3, #16
 647 001a 17D1     		bne	.L20
 175:Source\mbedtls_open\library/gcm.c **** 
 648              		.loc 1 175 0
 649 001c 2000     		movs	r0, r4
 650              	.LVL88:
 651 001e FFF7FEFF 		bl	mbedtls_cipher_free
 652              	.LVL89:
 177:Source\mbedtls_open\library/gcm.c ****         return( ret );
 653              		.loc 1 177 0
 654 0022 3900     		movs	r1, r7
 655 0024 2000     		movs	r0, r4
 656 0026 FFF7FEFF 		bl	mbedtls_cipher_setup
 657              	.LVL90:
 658 002a 0028     		cmp	r0, #0
 659 002c 10D1     		bne	.L18
 180:Source\mbedtls_open\library/gcm.c ****                                MBEDTLS_ENCRYPT ) ) != 0 )
 660              		.loc 1 180 0
ARM GAS  C:\Users\Phuong\AppData\Local\Temp\ccINfzqY.s 			page 18


 661 002e 0123     		movs	r3, #1
 662 0030 2A00     		movs	r2, r5
 663 0032 3100     		movs	r1, r6
 664 0034 2000     		movs	r0, r4
 665              	.LVL91:
 666 0036 FFF7FEFF 		bl	mbedtls_cipher_setkey
 667              	.LVL92:
 668 003a 0028     		cmp	r0, #0
 669 003c 08D1     		bne	.L18
 186:Source\mbedtls_open\library/gcm.c ****         return( ret );
 670              		.loc 1 186 0
 671 003e 2000     		movs	r0, r4
 672              	.LVL93:
 673 0040 FFF7FEFF 		bl	gcm_gen_table
 674              	.LVL94:
 675 0044 04E0     		b	.L18
 676              	.LVL95:
 677              	.L19:
 170:Source\mbedtls_open\library/gcm.c **** 
 678              		.loc 1 170 0
 679 0046 1420     		movs	r0, #20
 680              	.LVL96:
 681 0048 4042     		rsbs	r0, r0, #0
 682 004a 01E0     		b	.L18
 683              	.LVL97:
 684              	.L20:
 173:Source\mbedtls_open\library/gcm.c **** 
 685              		.loc 1 173 0
 686 004c 1420     		movs	r0, #20
 687              	.LVL98:
 688 004e 4042     		rsbs	r0, r0, #0
 689              	.L18:
 190:Source\mbedtls_open\library/gcm.c **** 
 690              		.loc 1 190 0
 691              		@ sp needed
 692              	.LVL99:
 693              	.LVL100:
 694              	.LVL101:
 695              	.LVL102:
 696 0050 F8BD     		pop	{r3, r4, r5, r6, r7, pc}
 697              		.cfi_endproc
 698              	.LFE10:
 699              		.size	mbedtls_gcm_setkey, .-mbedtls_gcm_setkey
 700 0052 C046     		.section	.text.mbedtls_gcm_starts,"ax",%progbits
 701              		.align	2
 702              		.global	mbedtls_gcm_starts
 703              		.code	16
 704              		.thumb_func
 705              		.type	mbedtls_gcm_starts, %function
 706              	mbedtls_gcm_starts:
 707              	.LFB12:
 264:Source\mbedtls_open\library/gcm.c **** 
 265:Source\mbedtls_open\library/gcm.c **** int mbedtls_gcm_starts( mbedtls_gcm_context *ctx,
 266:Source\mbedtls_open\library/gcm.c ****                 int mode,
 267:Source\mbedtls_open\library/gcm.c ****                 const unsigned char *iv,
 268:Source\mbedtls_open\library/gcm.c ****                 size_t iv_len,
 269:Source\mbedtls_open\library/gcm.c ****                 const unsigned char *add,
ARM GAS  C:\Users\Phuong\AppData\Local\Temp\ccINfzqY.s 			page 19


 270:Source\mbedtls_open\library/gcm.c ****                 size_t add_len )
 271:Source\mbedtls_open\library/gcm.c **** {
 708              		.loc 1 271 0
 709              		.cfi_startproc
 710              		@ args = 8, pretend = 0, frame = 40
 711              		@ frame_needed = 0, uses_anonymous_args = 0
 712              	.LVL103:
 713 0000 F0B5     		push	{r4, r5, r6, r7, lr}
 714              		.cfi_def_cfa_offset 20
 715              		.cfi_offset 4, -20
 716              		.cfi_offset 5, -16
 717              		.cfi_offset 6, -12
 718              		.cfi_offset 7, -8
 719              		.cfi_offset 14, -4
 720 0002 5F46     		mov	r7, fp
 721 0004 4646     		mov	r6, r8
 722 0006 C0B4     		push	{r6, r7}
 723              		.cfi_def_cfa_offset 28
 724              		.cfi_offset 8, -28
 725              		.cfi_offset 11, -24
 726 0008 8DB0     		sub	sp, sp, #52
 727              		.cfi_def_cfa_offset 80
 728 000a 0400     		movs	r4, r0
 729 000c 0F00     		movs	r7, r1
 730 000e 1500     		movs	r5, r2
 731 0010 9846     		mov	r8, r3
 732 0012 149E     		ldr	r6, [sp, #80]
 733 0014 159B     		ldr	r3, [sp, #84]
 734              	.LVL104:
 735 0016 9B46     		mov	fp, r3
 272:Source\mbedtls_open\library/gcm.c ****     int ret;
 273:Source\mbedtls_open\library/gcm.c ****     unsigned char work_buf[16];
 274:Source\mbedtls_open\library/gcm.c ****     size_t i;
 275:Source\mbedtls_open\library/gcm.c ****     const unsigned char *p;
 276:Source\mbedtls_open\library/gcm.c ****     size_t use_len, olen = 0;
 736              		.loc 1 276 0
 737 0018 0023     		movs	r3, #0
 738 001a 0793     		str	r3, [sp, #28]
 277:Source\mbedtls_open\library/gcm.c **** 
 278:Source\mbedtls_open\library/gcm.c ****     /* IV and AD are limited to 2^64 bits, so 2^61 bytes */
 279:Source\mbedtls_open\library/gcm.c ****     /* IV is not allowed to be zero length */
 280:Source\mbedtls_open\library/gcm.c ****     if( iv_len == 0 ||
 739              		.loc 1 280 0
 740 001c 4346     		mov	r3, r8
 741 001e 002B     		cmp	r3, #0
 742 0020 00D1     		bne	.LCB772
 743 0022 A2E0     		b	.L40	@long jump
 744              	.LCB772:
 281:Source\mbedtls_open\library/gcm.c ****       ( (uint64_t) iv_len  ) >> 61 != 0 ||
 282:Source\mbedtls_open\library/gcm.c ****       ( (uint64_t) add_len ) >> 61 != 0 )
 745              		.loc 1 282 0
 746 0024 5B46     		mov	r3, fp
 747 0026 0593     		str	r3, [sp, #20]
 283:Source\mbedtls_open\library/gcm.c ****     {
 284:Source\mbedtls_open\library/gcm.c ****         return( MBEDTLS_ERR_GCM_BAD_INPUT );
 285:Source\mbedtls_open\library/gcm.c ****     }
 286:Source\mbedtls_open\library/gcm.c **** 
ARM GAS  C:\Users\Phuong\AppData\Local\Temp\ccINfzqY.s 			page 20


 287:Source\mbedtls_open\library/gcm.c ****     memset( ctx->y, 0x00, sizeof(ctx->y) );
 748              		.loc 1 287 0
 749 0028 B023     		movs	r3, #176
 750 002a 5B00     		lsls	r3, r3, #1
 751 002c 9C46     		mov	ip, r3
 752 002e 8444     		add	ip, ip, r0
 753 0030 6346     		mov	r3, ip
 754 0032 0393     		str	r3, [sp, #12]
 755 0034 1022     		movs	r2, #16
 756              	.LVL105:
 757 0036 0021     		movs	r1, #0
 758              	.LVL106:
 759 0038 6046     		mov	r0, ip
 760              	.LVL107:
 761 003a FFF7FEFF 		bl	memset
 762              	.LVL108:
 288:Source\mbedtls_open\library/gcm.c ****     memset( ctx->buf, 0x00, sizeof(ctx->buf) );
 763              		.loc 1 288 0
 764 003e B823     		movs	r3, #184
 765 0040 5B00     		lsls	r3, r3, #1
 766 0042 9C46     		mov	ip, r3
 767 0044 A444     		add	ip, ip, r4
 768 0046 6346     		mov	r3, ip
 769 0048 0493     		str	r3, [sp, #16]
 770 004a 1022     		movs	r2, #16
 771 004c 0021     		movs	r1, #0
 772 004e 6046     		mov	r0, ip
 773 0050 FFF7FEFF 		bl	memset
 774              	.LVL109:
 289:Source\mbedtls_open\library/gcm.c **** 
 290:Source\mbedtls_open\library/gcm.c ****     ctx->mode = mode;
 775              		.loc 1 290 0
 776 0054 C023     		movs	r3, #192
 777 0056 5B00     		lsls	r3, r3, #1
 778 0058 E750     		str	r7, [r4, r3]
 291:Source\mbedtls_open\library/gcm.c ****     ctx->len = 0;
 779              		.loc 1 291 0
 780 005a 2300     		movs	r3, r4
 781 005c 4133     		adds	r3, r3, #65
 782 005e FF33     		adds	r3, r3, #255
 783 0060 0020     		movs	r0, #0
 784 0062 0021     		movs	r1, #0
 785 0064 1860     		str	r0, [r3]
 786 0066 5960     		str	r1, [r3, #4]
 292:Source\mbedtls_open\library/gcm.c ****     ctx->add_len = 0;
 787              		.loc 1 292 0
 788 0068 0833     		adds	r3, r3, #8
 789 006a 1860     		str	r0, [r3]
 790 006c 5960     		str	r1, [r3, #4]
 293:Source\mbedtls_open\library/gcm.c **** 
 294:Source\mbedtls_open\library/gcm.c ****     if( iv_len == 12 )
 791              		.loc 1 294 0
 792 006e 4346     		mov	r3, r8
 793 0070 0C2B     		cmp	r3, #12
 794 0072 09D1     		bne	.L26
 295:Source\mbedtls_open\library/gcm.c ****     {
 296:Source\mbedtls_open\library/gcm.c ****         memcpy( ctx->y, iv, iv_len );
ARM GAS  C:\Users\Phuong\AppData\Local\Temp\ccINfzqY.s 			page 21


 795              		.loc 1 296 0
 796 0074 4246     		mov	r2, r8
 797 0076 2900     		movs	r1, r5
 798 0078 0398     		ldr	r0, [sp, #12]
 799 007a FFF7FEFF 		bl	memcpy
 800              	.LVL110:
 297:Source\mbedtls_open\library/gcm.c ****         ctx->y[15] = 1;
 801              		.loc 1 297 0
 802 007e 0122     		movs	r2, #1
 803 0080 7023     		movs	r3, #112
 804 0082 FF33     		adds	r3, r3, #255
 805 0084 E254     		strb	r2, [r4, r3]
 806 0086 3EE0     		b	.L27
 807              	.LVL111:
 808              	.L26:
 298:Source\mbedtls_open\library/gcm.c ****     }
 299:Source\mbedtls_open\library/gcm.c ****     else
 300:Source\mbedtls_open\library/gcm.c ****     {
 301:Source\mbedtls_open\library/gcm.c ****         memset( work_buf, 0x00, 16 );
 809              		.loc 1 301 0
 810 0088 08AF     		add	r7, sp, #32
 811              	.LVL112:
 812 008a 1022     		movs	r2, #16
 813 008c 0021     		movs	r1, #0
 814 008e 3800     		movs	r0, r7
 815 0090 FFF7FEFF 		bl	memset
 816              	.LVL113:
 302:Source\mbedtls_open\library/gcm.c ****         PUT_UINT32_BE( iv_len * 8, work_buf, 12 );
 817              		.loc 1 302 0
 818 0094 4346     		mov	r3, r8
 819 0096 DB00     		lsls	r3, r3, #3
 820 0098 1A0E     		lsrs	r2, r3, #24
 821 009a 3A73     		strb	r2, [r7, #12]
 822 009c 1A0C     		lsrs	r2, r3, #16
 823 009e 7A73     		strb	r2, [r7, #13]
 824 00a0 1B0A     		lsrs	r3, r3, #8
 825 00a2 BB73     		strb	r3, [r7, #14]
 826 00a4 4346     		mov	r3, r8
 827 00a6 DB00     		lsls	r3, r3, #3
 828 00a8 FB73     		strb	r3, [r7, #15]
 829              	.LVL114:
 303:Source\mbedtls_open\library/gcm.c **** 
 304:Source\mbedtls_open\library/gcm.c ****         p = iv;
 305:Source\mbedtls_open\library/gcm.c ****         while( iv_len > 0 )
 830              		.loc 1 305 0
 831 00aa 18E0     		b	.L28
 832              	.LVL115:
 833              	.L32:
 306:Source\mbedtls_open\library/gcm.c ****         {
 307:Source\mbedtls_open\library/gcm.c ****             use_len = ( iv_len < 16 ) ? iv_len : 16;
 834              		.loc 1 307 0
 835 00ac 4746     		mov	r7, r8
 836 00ae 102F     		cmp	r7, #16
 837 00b0 00D9     		bls	.L29
 838 00b2 1027     		movs	r7, #16
 839              	.L29:
 840              	.LVL116:
ARM GAS  C:\Users\Phuong\AppData\Local\Temp\ccINfzqY.s 			page 22


 308:Source\mbedtls_open\library/gcm.c **** 
 309:Source\mbedtls_open\library/gcm.c ****             for( i = 0; i < use_len; i++ )
 841              		.loc 1 309 0
 842 00b4 0023     		movs	r3, #0
 843              	.LVL117:
 844 00b6 07E0     		b	.L30
 845              	.LVL118:
 846              	.L31:
 310:Source\mbedtls_open\library/gcm.c ****                 ctx->y[i] ^= p[i];
 847              		.loc 1 310 0 discriminator 3
 848 00b8 E85C     		ldrb	r0, [r5, r3]
 849 00ba E218     		adds	r2, r4, r3
 850 00bc 6132     		adds	r2, r2, #97
 851 00be FF32     		adds	r2, r2, #255
 852 00c0 1178     		ldrb	r1, [r2]
 853 00c2 4140     		eors	r1, r0
 854 00c4 1170     		strb	r1, [r2]
 309:Source\mbedtls_open\library/gcm.c ****                 ctx->y[i] ^= p[i];
 855              		.loc 1 309 0 discriminator 3
 856 00c6 0133     		adds	r3, r3, #1
 857              	.LVL119:
 858              	.L30:
 309:Source\mbedtls_open\library/gcm.c ****                 ctx->y[i] ^= p[i];
 859              		.loc 1 309 0 is_stmt 0 discriminator 1
 860 00c8 BB42     		cmp	r3, r7
 861 00ca F5D3     		bcc	.L31
 311:Source\mbedtls_open\library/gcm.c **** 
 312:Source\mbedtls_open\library/gcm.c ****             gcm_mult( ctx, ctx->y, ctx->y );
 862              		.loc 1 312 0 is_stmt 1
 863 00cc 0399     		ldr	r1, [sp, #12]
 864 00ce 0A00     		movs	r2, r1
 865 00d0 2000     		movs	r0, r4
 866 00d2 FFF7FEFF 		bl	gcm_mult
 867              	.LVL120:
 313:Source\mbedtls_open\library/gcm.c **** 
 314:Source\mbedtls_open\library/gcm.c ****             iv_len -= use_len;
 868              		.loc 1 314 0
 869 00d6 4346     		mov	r3, r8
 870 00d8 DB1B     		subs	r3, r3, r7
 871 00da 9846     		mov	r8, r3
 872              	.LVL121:
 315:Source\mbedtls_open\library/gcm.c ****             p += use_len;
 873              		.loc 1 315 0
 874 00dc ED19     		adds	r5, r5, r7
 875              	.LVL122:
 876              	.L28:
 305:Source\mbedtls_open\library/gcm.c ****         {
 877              		.loc 1 305 0
 878 00de 4346     		mov	r3, r8
 879 00e0 002B     		cmp	r3, #0
 880 00e2 E3D1     		bne	.L32
 881              	.LVL123:
 882 00e4 08E0     		b	.L33
 883              	.LVL124:
 884              	.L34:
 316:Source\mbedtls_open\library/gcm.c ****         }
 317:Source\mbedtls_open\library/gcm.c **** 
ARM GAS  C:\Users\Phuong\AppData\Local\Temp\ccINfzqY.s 			page 23


 318:Source\mbedtls_open\library/gcm.c ****         for( i = 0; i < 16; i++ )
 319:Source\mbedtls_open\library/gcm.c ****             ctx->y[i] ^= work_buf[i];
 885              		.loc 1 319 0 discriminator 3
 886 00e6 08AA     		add	r2, sp, #32
 887 00e8 D05C     		ldrb	r0, [r2, r3]
 888 00ea E218     		adds	r2, r4, r3
 889 00ec 6132     		adds	r2, r2, #97
 890 00ee FF32     		adds	r2, r2, #255
 891 00f0 1178     		ldrb	r1, [r2]
 892 00f2 4140     		eors	r1, r0
 893 00f4 1170     		strb	r1, [r2]
 318:Source\mbedtls_open\library/gcm.c ****             ctx->y[i] ^= work_buf[i];
 894              		.loc 1 318 0 discriminator 3
 895 00f6 0133     		adds	r3, r3, #1
 896              	.LVL125:
 897              	.L33:
 318:Source\mbedtls_open\library/gcm.c ****             ctx->y[i] ^= work_buf[i];
 898              		.loc 1 318 0 is_stmt 0 discriminator 1
 899 00f8 0F2B     		cmp	r3, #15
 900 00fa F4D9     		bls	.L34
 320:Source\mbedtls_open\library/gcm.c **** 
 321:Source\mbedtls_open\library/gcm.c ****         gcm_mult( ctx, ctx->y, ctx->y );
 901              		.loc 1 321 0 is_stmt 1
 902 00fc 0399     		ldr	r1, [sp, #12]
 903 00fe 0A00     		movs	r2, r1
 904 0100 2000     		movs	r0, r4
 905 0102 FFF7FEFF 		bl	gcm_mult
 906              	.LVL126:
 907              	.L27:
 322:Source\mbedtls_open\library/gcm.c ****     }
 323:Source\mbedtls_open\library/gcm.c **** 
 324:Source\mbedtls_open\library/gcm.c ****     if( ( ret = mbedtls_cipher_update( &ctx->cipher_ctx, ctx->y, 16, ctx->base_ectr,
 908              		.loc 1 324 0
 909 0106 2300     		movs	r3, r4
 910 0108 5133     		adds	r3, r3, #81
 911 010a FF33     		adds	r3, r3, #255
 912 010c 07AA     		add	r2, sp, #28
 913 010e 0092     		str	r2, [sp]
 914 0110 1022     		movs	r2, #16
 915 0112 0399     		ldr	r1, [sp, #12]
 916 0114 2000     		movs	r0, r4
 917 0116 FFF7FEFF 		bl	mbedtls_cipher_update
 918              	.LVL127:
 919 011a 0028     		cmp	r0, #0
 920 011c 27D1     		bne	.L25
 325:Source\mbedtls_open\library/gcm.c ****                              &olen ) ) != 0 )
 326:Source\mbedtls_open\library/gcm.c ****     {
 327:Source\mbedtls_open\library/gcm.c ****         return( ret );
 328:Source\mbedtls_open\library/gcm.c ****     }
 329:Source\mbedtls_open\library/gcm.c **** 
 330:Source\mbedtls_open\library/gcm.c ****     ctx->add_len = add_len;
 921              		.loc 1 330 0
 922 011e 2300     		movs	r3, r4
 923 0120 4933     		adds	r3, r3, #73
 924 0122 FF33     		adds	r3, r3, #255
 925 0124 059A     		ldr	r2, [sp, #20]
 926 0126 1A60     		str	r2, [r3]
ARM GAS  C:\Users\Phuong\AppData\Local\Temp\ccINfzqY.s 			page 24


 927 0128 0022     		movs	r2, #0
 928 012a 5A60     		str	r2, [r3, #4]
 929              	.LVL128:
 331:Source\mbedtls_open\library/gcm.c ****     p = add;
 332:Source\mbedtls_open\library/gcm.c ****     while( add_len > 0 )
 930              		.loc 1 332 0
 931 012c 18E0     		b	.L35
 932              	.LVL129:
 933              	.L39:
 333:Source\mbedtls_open\library/gcm.c ****     {
 334:Source\mbedtls_open\library/gcm.c ****         use_len = ( add_len < 16 ) ? add_len : 16;
 934              		.loc 1 334 0
 935 012e 5D46     		mov	r5, fp
 936 0130 102D     		cmp	r5, #16
 937 0132 00D9     		bls	.L36
 938 0134 1025     		movs	r5, #16
 939              	.L36:
 940              	.LVL130:
 335:Source\mbedtls_open\library/gcm.c **** 
 336:Source\mbedtls_open\library/gcm.c ****         for( i = 0; i < use_len; i++ )
 941              		.loc 1 336 0
 942 0136 0023     		movs	r3, #0
 943              	.LVL131:
 944 0138 07E0     		b	.L37
 945              	.LVL132:
 946              	.L38:
 337:Source\mbedtls_open\library/gcm.c ****             ctx->buf[i] ^= p[i];
 947              		.loc 1 337 0 discriminator 3
 948 013a F05C     		ldrb	r0, [r6, r3]
 949 013c E218     		adds	r2, r4, r3
 950 013e 7132     		adds	r2, r2, #113
 951 0140 FF32     		adds	r2, r2, #255
 952 0142 1178     		ldrb	r1, [r2]
 953 0144 4140     		eors	r1, r0
 954 0146 1170     		strb	r1, [r2]
 336:Source\mbedtls_open\library/gcm.c ****             ctx->buf[i] ^= p[i];
 955              		.loc 1 336 0 discriminator 3
 956 0148 0133     		adds	r3, r3, #1
 957              	.LVL133:
 958              	.L37:
 336:Source\mbedtls_open\library/gcm.c ****             ctx->buf[i] ^= p[i];
 959              		.loc 1 336 0 is_stmt 0 discriminator 1
 960 014a AB42     		cmp	r3, r5
 961 014c F5D3     		bcc	.L38
 338:Source\mbedtls_open\library/gcm.c **** 
 339:Source\mbedtls_open\library/gcm.c ****         gcm_mult( ctx, ctx->buf, ctx->buf );
 962              		.loc 1 339 0 is_stmt 1
 963 014e 0499     		ldr	r1, [sp, #16]
 964 0150 0A00     		movs	r2, r1
 965 0152 2000     		movs	r0, r4
 966 0154 FFF7FEFF 		bl	gcm_mult
 967              	.LVL134:
 340:Source\mbedtls_open\library/gcm.c **** 
 341:Source\mbedtls_open\library/gcm.c ****         add_len -= use_len;
 968              		.loc 1 341 0
 969 0158 5B46     		mov	r3, fp
 970 015a 5B1B     		subs	r3, r3, r5
ARM GAS  C:\Users\Phuong\AppData\Local\Temp\ccINfzqY.s 			page 25


 971 015c 9B46     		mov	fp, r3
 972              	.LVL135:
 342:Source\mbedtls_open\library/gcm.c ****         p += use_len;
 973              		.loc 1 342 0
 974 015e 7619     		adds	r6, r6, r5
 975              	.LVL136:
 976              	.L35:
 332:Source\mbedtls_open\library/gcm.c ****     {
 977              		.loc 1 332 0
 978 0160 5B46     		mov	r3, fp
 979 0162 002B     		cmp	r3, #0
 980 0164 E3D1     		bne	.L39
 343:Source\mbedtls_open\library/gcm.c ****     }
 344:Source\mbedtls_open\library/gcm.c **** 
 345:Source\mbedtls_open\library/gcm.c ****     return( 0 );
 981              		.loc 1 345 0
 982 0166 0020     		movs	r0, #0
 983 0168 01E0     		b	.L25
 984              	.LVL137:
 985              	.L40:
 284:Source\mbedtls_open\library/gcm.c ****     }
 986              		.loc 1 284 0
 987 016a 1420     		movs	r0, #20
 988              	.LVL138:
 989 016c 4042     		rsbs	r0, r0, #0
 990              	.LVL139:
 991              	.L25:
 346:Source\mbedtls_open\library/gcm.c **** }
 992              		.loc 1 346 0
 993 016e 0DB0     		add	sp, sp, #52
 994              		@ sp needed
 995              	.LVL140:
 996              	.LVL141:
 997 0170 0CBC     		pop	{r2, r3}
 998 0172 9046     		mov	r8, r2
 999 0174 9B46     		mov	fp, r3
 1000 0176 F0BD     		pop	{r4, r5, r6, r7, pc}
 1001              		.cfi_endproc
 1002              	.LFE12:
 1003              		.size	mbedtls_gcm_starts, .-mbedtls_gcm_starts
 1004              		.section	.text.mbedtls_gcm_update,"ax",%progbits
 1005              		.align	2
 1006              		.global	mbedtls_gcm_update
 1007              		.code	16
 1008              		.thumb_func
 1009              		.type	mbedtls_gcm_update, %function
 1010              	mbedtls_gcm_update:
 1011              	.LFB13:
 347:Source\mbedtls_open\library/gcm.c **** 
 348:Source\mbedtls_open\library/gcm.c **** int mbedtls_gcm_update( mbedtls_gcm_context *ctx,
 349:Source\mbedtls_open\library/gcm.c ****                 size_t length,
 350:Source\mbedtls_open\library/gcm.c ****                 const unsigned char *input,
 351:Source\mbedtls_open\library/gcm.c ****                 unsigned char *output )
 352:Source\mbedtls_open\library/gcm.c **** {
 1012              		.loc 1 352 0
 1013              		.cfi_startproc
 1014              		@ args = 0, pretend = 0, frame = 24
ARM GAS  C:\Users\Phuong\AppData\Local\Temp\ccINfzqY.s 			page 26


 1015              		@ frame_needed = 0, uses_anonymous_args = 0
 1016              	.LVL142:
 1017 0000 F0B5     		push	{r4, r5, r6, r7, lr}
 1018              		.cfi_def_cfa_offset 20
 1019              		.cfi_offset 4, -20
 1020              		.cfi_offset 5, -16
 1021              		.cfi_offset 6, -12
 1022              		.cfi_offset 7, -8
 1023              		.cfi_offset 14, -4
 1024 0002 4746     		mov	r7, r8
 1025 0004 80B4     		push	{r7}
 1026              		.cfi_def_cfa_offset 24
 1027              		.cfi_offset 8, -24
 1028 0006 88B0     		sub	sp, sp, #32
 1029              		.cfi_def_cfa_offset 56
 1030 0008 0400     		movs	r4, r0
 1031 000a 8846     		mov	r8, r1
 1032 000c 1500     		movs	r5, r2
 1033 000e 1E00     		movs	r6, r3
 1034              	.LVL143:
 353:Source\mbedtls_open\library/gcm.c ****     int ret;
 354:Source\mbedtls_open\library/gcm.c ****     unsigned char ectr[16];
 355:Source\mbedtls_open\library/gcm.c ****     size_t i;
 356:Source\mbedtls_open\library/gcm.c ****     const unsigned char *p;
 357:Source\mbedtls_open\library/gcm.c ****     unsigned char *out_p = output;
 358:Source\mbedtls_open\library/gcm.c ****     size_t use_len, olen = 0;
 1035              		.loc 1 358 0
 1036 0010 0023     		movs	r3, #0
 1037              	.LVL144:
 1038 0012 0393     		str	r3, [sp, #12]
 359:Source\mbedtls_open\library/gcm.c **** 
 360:Source\mbedtls_open\library/gcm.c ****     if( output > input && (size_t) ( output - input ) < length )
 1039              		.loc 1 360 0
 1040 0014 9642     		cmp	r6, r2
 1041 0016 02D9     		bls	.L45
 1042              		.loc 1 360 0 is_stmt 0 discriminator 1
 1043 0018 B31A     		subs	r3, r6, r2
 1044 001a 8B42     		cmp	r3, r1
 1045 001c 69D3     		bcc	.L59
 1046              	.L45:
 361:Source\mbedtls_open\library/gcm.c ****         return( MBEDTLS_ERR_GCM_BAD_INPUT );
 362:Source\mbedtls_open\library/gcm.c **** 
 363:Source\mbedtls_open\library/gcm.c ****     /* Total length is restricted to 2^39 - 256 bits, ie 2^36 - 2^5 bytes
 364:Source\mbedtls_open\library/gcm.c ****      * Also check for possible overflow */
 365:Source\mbedtls_open\library/gcm.c ****     if( ctx->len + length < ctx->len ||
 1047              		.loc 1 365 0 is_stmt 1
 1048 001e 2300     		movs	r3, r4
 1049 0020 4133     		adds	r3, r3, #65
 1050 0022 FF33     		adds	r3, r3, #255
 1051 0024 1868     		ldr	r0, [r3]
 1052 0026 5968     		ldr	r1, [r3, #4]
 1053              	.LVL145:
 1054 0028 4246     		mov	r2, r8
 1055              	.LVL146:
 1056 002a 0023     		movs	r3, #0
 1057 002c 1218     		adds	r2, r2, r0
 1058 002e 4B41     		adcs	r3, r3, r1
ARM GAS  C:\Users\Phuong\AppData\Local\Temp\ccINfzqY.s 			page 27


 1059 0030 9942     		cmp	r1, r3
 1060 0032 61D8     		bhi	.L60
 1061 0034 01D1     		bne	.L63
 1062 0036 9042     		cmp	r0, r2
 1063 0038 5ED8     		bhi	.L60
 1064              	.L63:
 1065              		.loc 1 365 0 is_stmt 0 discriminator 1
 1066 003a 0F2B     		cmp	r3, #15
 1067 003c 5FD8     		bhi	.L61
 1068 003e 02D1     		bne	.L64
 1069 0040 1100     		movs	r1, r2
 1070              	.LVL147:
 1071 0042 2031     		adds	r1, r1, #32
 1072 0044 5BD8     		bhi	.L61
 1073              	.L64:
 366:Source\mbedtls_open\library/gcm.c ****         (uint64_t) ctx->len + length > 0xFFFFFFFE0ull )
 367:Source\mbedtls_open\library/gcm.c ****     {
 368:Source\mbedtls_open\library/gcm.c ****         return( MBEDTLS_ERR_GCM_BAD_INPUT );
 369:Source\mbedtls_open\library/gcm.c ****     }
 370:Source\mbedtls_open\library/gcm.c **** 
 371:Source\mbedtls_open\library/gcm.c ****     ctx->len += length;
 1074              		.loc 1 371 0 is_stmt 1
 1075 0046 2100     		movs	r1, r4
 1076 0048 4131     		adds	r1, r1, #65
 1077 004a FF31     		adds	r1, r1, #255
 1078 004c 0A60     		str	r2, [r1]
 1079 004e 4B60     		str	r3, [r1, #4]
 1080              	.LVL148:
 372:Source\mbedtls_open\library/gcm.c **** 
 373:Source\mbedtls_open\library/gcm.c ****     p = input;
 374:Source\mbedtls_open\library/gcm.c ****     while( length > 0 )
 1081              		.loc 1 374 0
 1082 0050 4AE0     		b	.L49
 1083              	.LVL149:
 1084              	.L58:
 375:Source\mbedtls_open\library/gcm.c ****     {
 376:Source\mbedtls_open\library/gcm.c ****         use_len = ( length < 16 ) ? length : 16;
 1085              		.loc 1 376 0
 1086 0052 4746     		mov	r7, r8
 1087 0054 102F     		cmp	r7, #16
 1088 0056 00D9     		bls	.L50
 1089 0058 1027     		movs	r7, #16
 1090              	.L50:
 1091              	.LVL150:
 377:Source\mbedtls_open\library/gcm.c **** 
 378:Source\mbedtls_open\library/gcm.c ****         for( i = 16; i > 12; i-- )
 1092              		.loc 1 378 0
 1093 005a 1021     		movs	r1, #16
 1094 005c 09E0     		b	.L51
 1095              	.LVL151:
 1096              	.L53:
 379:Source\mbedtls_open\library/gcm.c ****             if( ++ctx->y[i - 1] != 0 )
 1097              		.loc 1 379 0
 1098 005e 0139     		subs	r1, r1, #1
 1099              	.LVL152:
 1100 0060 6218     		adds	r2, r4, r1
 1101 0062 6132     		adds	r2, r2, #97
ARM GAS  C:\Users\Phuong\AppData\Local\Temp\ccINfzqY.s 			page 28


 1102 0064 FF32     		adds	r2, r2, #255
 1103 0066 1378     		ldrb	r3, [r2]
 1104 0068 0133     		adds	r3, r3, #1
 1105 006a DBB2     		uxtb	r3, r3
 1106 006c 1370     		strb	r3, [r2]
 1107 006e 002B     		cmp	r3, #0
 1108 0070 01D1     		bne	.L52
 1109              	.LVL153:
 1110              	.L51:
 378:Source\mbedtls_open\library/gcm.c ****             if( ++ctx->y[i - 1] != 0 )
 1111              		.loc 1 378 0 discriminator 1
 1112 0072 0C29     		cmp	r1, #12
 1113 0074 F3D8     		bhi	.L53
 1114              	.LVL154:
 1115              	.L52:
 380:Source\mbedtls_open\library/gcm.c ****                 break;
 381:Source\mbedtls_open\library/gcm.c **** 
 382:Source\mbedtls_open\library/gcm.c ****         if( ( ret = mbedtls_cipher_update( &ctx->cipher_ctx, ctx->y, 16, ectr,
 1116              		.loc 1 382 0
 1117 0076 2100     		movs	r1, r4
 1118 0078 6131     		adds	r1, r1, #97
 1119 007a FF31     		adds	r1, r1, #255
 1120 007c 03AB     		add	r3, sp, #12
 1121 007e 0093     		str	r3, [sp]
 1122 0080 04AB     		add	r3, sp, #16
 1123 0082 1022     		movs	r2, #16
 1124 0084 2000     		movs	r0, r4
 1125 0086 FFF7FEFF 		bl	mbedtls_cipher_update
 1126              	.LVL155:
 1127 008a 0028     		cmp	r0, #0
 1128 008c 39D1     		bne	.L46
 1129 008e 0023     		movs	r3, #0
 1130 0090 1CE0     		b	.L54
 1131              	.LVL156:
 1132              	.L57:
 383:Source\mbedtls_open\library/gcm.c ****                                    &olen ) ) != 0 )
 384:Source\mbedtls_open\library/gcm.c ****         {
 385:Source\mbedtls_open\library/gcm.c ****             return( ret );
 386:Source\mbedtls_open\library/gcm.c ****         }
 387:Source\mbedtls_open\library/gcm.c **** 
 388:Source\mbedtls_open\library/gcm.c ****         for( i = 0; i < use_len; i++ )
 389:Source\mbedtls_open\library/gcm.c ****         {
 390:Source\mbedtls_open\library/gcm.c ****             if( ctx->mode == MBEDTLS_GCM_DECRYPT )
 1133              		.loc 1 390 0
 1134 0092 C022     		movs	r2, #192
 1135 0094 5200     		lsls	r2, r2, #1
 1136 0096 A258     		ldr	r2, [r4, r2]
 1137 0098 002A     		cmp	r2, #0
 1138 009a 06D1     		bne	.L55
 391:Source\mbedtls_open\library/gcm.c ****                 ctx->buf[i] ^= p[i];
 1139              		.loc 1 391 0
 1140 009c E85C     		ldrb	r0, [r5, r3]
 1141 009e E218     		adds	r2, r4, r3
 1142 00a0 7132     		adds	r2, r2, #113
 1143 00a2 FF32     		adds	r2, r2, #255
 1144 00a4 1178     		ldrb	r1, [r2]
 1145 00a6 4140     		eors	r1, r0
ARM GAS  C:\Users\Phuong\AppData\Local\Temp\ccINfzqY.s 			page 29


 1146 00a8 1170     		strb	r1, [r2]
 1147              	.L55:
 392:Source\mbedtls_open\library/gcm.c ****             out_p[i] = ectr[i] ^ p[i];
 1148              		.loc 1 392 0
 1149 00aa 04AA     		add	r2, sp, #16
 1150 00ac D15C     		ldrb	r1, [r2, r3]
 1151 00ae EA5C     		ldrb	r2, [r5, r3]
 1152 00b0 4A40     		eors	r2, r1
 1153 00b2 F254     		strb	r2, [r6, r3]
 393:Source\mbedtls_open\library/gcm.c ****             if( ctx->mode == MBEDTLS_GCM_ENCRYPT )
 1154              		.loc 1 393 0
 1155 00b4 C021     		movs	r1, #192
 1156 00b6 4900     		lsls	r1, r1, #1
 1157 00b8 6158     		ldr	r1, [r4, r1]
 1158 00ba 0129     		cmp	r1, #1
 1159 00bc 05D1     		bne	.L56
 394:Source\mbedtls_open\library/gcm.c ****                 ctx->buf[i] ^= out_p[i];
 1160              		.loc 1 394 0
 1161 00be E118     		adds	r1, r4, r3
 1162 00c0 7131     		adds	r1, r1, #113
 1163 00c2 FF31     		adds	r1, r1, #255
 1164 00c4 0878     		ldrb	r0, [r1]
 1165 00c6 4240     		eors	r2, r0
 1166 00c8 0A70     		strb	r2, [r1]
 1167              	.L56:
 388:Source\mbedtls_open\library/gcm.c ****         {
 1168              		.loc 1 388 0 discriminator 2
 1169 00ca 0133     		adds	r3, r3, #1
 1170              	.LVL157:
 1171              	.L54:
 388:Source\mbedtls_open\library/gcm.c ****         {
 1172              		.loc 1 388 0 is_stmt 0 discriminator 1
 1173 00cc BB42     		cmp	r3, r7
 1174 00ce E0D3     		bcc	.L57
 395:Source\mbedtls_open\library/gcm.c ****         }
 396:Source\mbedtls_open\library/gcm.c **** 
 397:Source\mbedtls_open\library/gcm.c ****         gcm_mult( ctx, ctx->buf, ctx->buf );
 1175              		.loc 1 397 0 is_stmt 1
 1176 00d0 2100     		movs	r1, r4
 1177 00d2 7131     		adds	r1, r1, #113
 1178 00d4 FF31     		adds	r1, r1, #255
 1179 00d6 0A00     		movs	r2, r1
 1180 00d8 2000     		movs	r0, r4
 1181 00da FFF7FEFF 		bl	gcm_mult
 1182              	.LVL158:
 398:Source\mbedtls_open\library/gcm.c **** 
 399:Source\mbedtls_open\library/gcm.c ****         length -= use_len;
 1183              		.loc 1 399 0
 1184 00de 4346     		mov	r3, r8
 1185 00e0 DB1B     		subs	r3, r3, r7
 1186 00e2 9846     		mov	r8, r3
 1187              	.LVL159:
 400:Source\mbedtls_open\library/gcm.c ****         p += use_len;
 1188              		.loc 1 400 0
 1189 00e4 ED19     		adds	r5, r5, r7
 1190              	.LVL160:
 401:Source\mbedtls_open\library/gcm.c ****         out_p += use_len;
ARM GAS  C:\Users\Phuong\AppData\Local\Temp\ccINfzqY.s 			page 30


 1191              		.loc 1 401 0
 1192 00e6 F619     		adds	r6, r6, r7
 1193              	.LVL161:
 1194              	.L49:
 374:Source\mbedtls_open\library/gcm.c ****     {
 1195              		.loc 1 374 0
 1196 00e8 4346     		mov	r3, r8
 1197 00ea 002B     		cmp	r3, #0
 1198 00ec B1D1     		bne	.L58
 1199              	.LVL162:
 402:Source\mbedtls_open\library/gcm.c ****     }
 403:Source\mbedtls_open\library/gcm.c **** 
 404:Source\mbedtls_open\library/gcm.c ****     return( 0 );
 1200              		.loc 1 404 0
 1201 00ee 0020     		movs	r0, #0
 1202 00f0 07E0     		b	.L46
 1203              	.LVL163:
 1204              	.L59:
 361:Source\mbedtls_open\library/gcm.c **** 
 1205              		.loc 1 361 0
 1206 00f2 1420     		movs	r0, #20
 1207              	.LVL164:
 1208 00f4 4042     		rsbs	r0, r0, #0
 1209 00f6 04E0     		b	.L46
 1210              	.LVL165:
 1211              	.L60:
 368:Source\mbedtls_open\library/gcm.c ****     }
 1212              		.loc 1 368 0
 1213 00f8 1420     		movs	r0, #20
 1214 00fa 4042     		rsbs	r0, r0, #0
 1215 00fc 01E0     		b	.L46
 1216              	.LVL166:
 1217              	.L61:
 1218 00fe 1420     		movs	r0, #20
 1219 0100 4042     		rsbs	r0, r0, #0
 1220              	.LVL167:
 1221              	.L46:
 405:Source\mbedtls_open\library/gcm.c **** }
 1222              		.loc 1 405 0
 1223 0102 08B0     		add	sp, sp, #32
 1224              		@ sp needed
 1225              	.LVL168:
 1226              	.LVL169:
 1227              	.LVL170:
 1228 0104 04BC     		pop	{r2}
 1229 0106 9046     		mov	r8, r2
 1230 0108 F0BD     		pop	{r4, r5, r6, r7, pc}
 1231              		.cfi_endproc
 1232              	.LFE13:
 1233              		.size	mbedtls_gcm_update, .-mbedtls_gcm_update
 1234 010a C046     		.section	.text.mbedtls_gcm_finish,"ax",%progbits
 1235              		.align	2
 1236              		.global	mbedtls_gcm_finish
 1237              		.code	16
 1238              		.thumb_func
 1239              		.type	mbedtls_gcm_finish, %function
 1240              	mbedtls_gcm_finish:
ARM GAS  C:\Users\Phuong\AppData\Local\Temp\ccINfzqY.s 			page 31


 1241              	.LFB14:
 406:Source\mbedtls_open\library/gcm.c **** 
 407:Source\mbedtls_open\library/gcm.c **** int mbedtls_gcm_finish( mbedtls_gcm_context *ctx,
 408:Source\mbedtls_open\library/gcm.c ****                 unsigned char *tag,
 409:Source\mbedtls_open\library/gcm.c ****                 size_t tag_len )
 410:Source\mbedtls_open\library/gcm.c **** {
 1242              		.loc 1 410 0
 1243              		.cfi_startproc
 1244              		@ args = 0, pretend = 0, frame = 16
 1245              		@ frame_needed = 0, uses_anonymous_args = 0
 1246              	.LVL171:
 1247 0000 F0B5     		push	{r4, r5, r6, r7, lr}
 1248              		.cfi_def_cfa_offset 20
 1249              		.cfi_offset 4, -20
 1250              		.cfi_offset 5, -16
 1251              		.cfi_offset 6, -12
 1252              		.cfi_offset 7, -8
 1253              		.cfi_offset 14, -4
 1254 0002 5746     		mov	r7, r10
 1255 0004 4E46     		mov	r6, r9
 1256 0006 4546     		mov	r5, r8
 1257 0008 E0B4     		push	{r5, r6, r7}
 1258              		.cfi_def_cfa_offset 32
 1259              		.cfi_offset 8, -32
 1260              		.cfi_offset 9, -28
 1261              		.cfi_offset 10, -24
 1262 000a 84B0     		sub	sp, sp, #16
 1263              		.cfi_def_cfa_offset 48
 1264 000c 0400     		movs	r4, r0
 1265 000e 0E00     		movs	r6, r1
 1266 0010 1500     		movs	r5, r2
 411:Source\mbedtls_open\library/gcm.c ****     unsigned char work_buf[16];
 412:Source\mbedtls_open\library/gcm.c ****     size_t i;
 413:Source\mbedtls_open\library/gcm.c ****     uint64_t orig_len = ctx->len * 8;
 1267              		.loc 1 413 0
 1268 0012 0200     		movs	r2, r0
 1269              	.LVL172:
 1270 0014 4132     		adds	r2, r2, #65
 1271 0016 FF32     		adds	r2, r2, #255
 1272 0018 1368     		ldr	r3, [r2]
 1273 001a 5768     		ldr	r7, [r2, #4]
 1274 001c 5A0F     		lsrs	r2, r3, #29
 1275 001e FF00     		lsls	r7, r7, #3
 1276 0020 1743     		orrs	r7, r2
 1277 0022 DB00     		lsls	r3, r3, #3
 1278 0024 9946     		mov	r9, r3
 1279              	.LVL173:
 414:Source\mbedtls_open\library/gcm.c ****     uint64_t orig_add_len = ctx->add_len * 8;
 1280              		.loc 1 414 0
 1281 0026 0200     		movs	r2, r0
 1282 0028 4932     		adds	r2, r2, #73
 1283 002a FF32     		adds	r2, r2, #255
 1284 002c 1368     		ldr	r3, [r2]
 1285              	.LVL174:
 1286 002e 5168     		ldr	r1, [r2, #4]
 1287              	.LVL175:
 1288 0030 5A0F     		lsrs	r2, r3, #29
ARM GAS  C:\Users\Phuong\AppData\Local\Temp\ccINfzqY.s 			page 32


 1289 0032 C900     		lsls	r1, r1, #3
 1290 0034 1143     		orrs	r1, r2
 1291 0036 8846     		mov	r8, r1
 1292 0038 DB00     		lsls	r3, r3, #3
 1293 003a 9A46     		mov	r10, r3
 1294              	.LVL176:
 415:Source\mbedtls_open\library/gcm.c **** 
 416:Source\mbedtls_open\library/gcm.c ****     if( tag_len > 16 || tag_len < 4 )
 1295              		.loc 1 416 0
 1296 003c 2B1F     		subs	r3, r5, #4
 1297              	.LVL177:
 1298 003e 0C2B     		cmp	r3, #12
 1299 0040 63D8     		bhi	.L72
 417:Source\mbedtls_open\library/gcm.c ****         return( MBEDTLS_ERR_GCM_BAD_INPUT );
 418:Source\mbedtls_open\library/gcm.c **** 
 419:Source\mbedtls_open\library/gcm.c ****     memcpy( tag, ctx->base_ectr, tag_len );
 1300              		.loc 1 419 0
 1301 0042 0100     		movs	r1, r0
 1302              	.LVL178:
 1303 0044 5131     		adds	r1, r1, #81
 1304 0046 FF31     		adds	r1, r1, #255
 1305 0048 2A00     		movs	r2, r5
 1306 004a 3000     		movs	r0, r6
 1307              	.LVL179:
 1308 004c FFF7FEFF 		bl	memcpy
 1309              	.LVL180:
 420:Source\mbedtls_open\library/gcm.c **** 
 421:Source\mbedtls_open\library/gcm.c ****     if( orig_len || orig_add_len )
 1310              		.loc 1 421 0
 1311 0050 4B46     		mov	r3, r9
 1312 0052 5246     		mov	r2, r10
 1313 0054 1343     		orrs	r3, r2
 1314 0056 4246     		mov	r2, r8
 1315 0058 3A43     		orrs	r2, r7
 1316 005a 1A43     		orrs	r2, r3
 1317 005c 58D0     		beq	.L73
 422:Source\mbedtls_open\library/gcm.c ****     {
 423:Source\mbedtls_open\library/gcm.c ****         memset( work_buf, 0x00, 16 );
 1318              		.loc 1 423 0
 1319 005e 1022     		movs	r2, #16
 1320 0060 0021     		movs	r1, #0
 1321 0062 6846     		mov	r0, sp
 1322 0064 FFF7FEFF 		bl	memset
 1323              	.LVL181:
 424:Source\mbedtls_open\library/gcm.c **** 
 425:Source\mbedtls_open\library/gcm.c ****         PUT_UINT32_BE( ( orig_add_len >> 32 ), work_buf, 0  );
 1324              		.loc 1 425 0
 1325 0068 4346     		mov	r3, r8
 1326 006a 1B0E     		lsrs	r3, r3, #24
 1327 006c 6A46     		mov	r2, sp
 1328 006e 1370     		strb	r3, [r2]
 1329 0070 4346     		mov	r3, r8
 1330 0072 1B0C     		lsrs	r3, r3, #16
 1331 0074 5370     		strb	r3, [r2, #1]
 1332 0076 4346     		mov	r3, r8
 1333 0078 1B0A     		lsrs	r3, r3, #8
 1334 007a 9370     		strb	r3, [r2, #2]
ARM GAS  C:\Users\Phuong\AppData\Local\Temp\ccINfzqY.s 			page 33


 1335 007c 6B46     		mov	r3, sp
 1336 007e 4246     		mov	r2, r8
 1337 0080 DA70     		strb	r2, [r3, #3]
 426:Source\mbedtls_open\library/gcm.c ****         PUT_UINT32_BE( ( orig_add_len       ), work_buf, 4  );
 1338              		.loc 1 426 0
 1339 0082 5346     		mov	r3, r10
 1340 0084 1B0E     		lsrs	r3, r3, #24
 1341 0086 6A46     		mov	r2, sp
 1342 0088 1371     		strb	r3, [r2, #4]
 1343 008a 5346     		mov	r3, r10
 1344 008c 1B0C     		lsrs	r3, r3, #16
 1345 008e 5371     		strb	r3, [r2, #5]
 1346 0090 5346     		mov	r3, r10
 1347 0092 1B0A     		lsrs	r3, r3, #8
 1348 0094 9371     		strb	r3, [r2, #6]
 1349 0096 6B46     		mov	r3, sp
 1350 0098 5246     		mov	r2, r10
 1351 009a DA71     		strb	r2, [r3, #7]
 427:Source\mbedtls_open\library/gcm.c ****         PUT_UINT32_BE( ( orig_len     >> 32 ), work_buf, 8  );
 1352              		.loc 1 427 0
 1353 009c 3B0E     		lsrs	r3, r7, #24
 1354 009e 6A46     		mov	r2, sp
 1355 00a0 1372     		strb	r3, [r2, #8]
 1356 00a2 3B0C     		lsrs	r3, r7, #16
 1357 00a4 5372     		strb	r3, [r2, #9]
 1358 00a6 3B0A     		lsrs	r3, r7, #8
 1359 00a8 9372     		strb	r3, [r2, #10]
 1360 00aa D772     		strb	r7, [r2, #11]
 428:Source\mbedtls_open\library/gcm.c ****         PUT_UINT32_BE( ( orig_len           ), work_buf, 12 );
 1361              		.loc 1 428 0
 1362 00ac 4B46     		mov	r3, r9
 1363 00ae 1B0E     		lsrs	r3, r3, #24
 1364 00b0 1373     		strb	r3, [r2, #12]
 1365 00b2 4B46     		mov	r3, r9
 1366 00b4 1B0C     		lsrs	r3, r3, #16
 1367 00b6 5373     		strb	r3, [r2, #13]
 1368 00b8 4B46     		mov	r3, r9
 1369 00ba 1B0A     		lsrs	r3, r3, #8
 1370 00bc 9373     		strb	r3, [r2, #14]
 1371 00be 6B46     		mov	r3, sp
 1372 00c0 4A46     		mov	r2, r9
 1373 00c2 DA73     		strb	r2, [r3, #15]
 1374              	.LVL182:
 429:Source\mbedtls_open\library/gcm.c **** 
 430:Source\mbedtls_open\library/gcm.c ****         for( i = 0; i < 16; i++ )
 1375              		.loc 1 430 0
 1376 00c4 0023     		movs	r3, #0
 1377 00c6 08E0     		b	.L68
 1378              	.LVL183:
 1379              	.L69:
 431:Source\mbedtls_open\library/gcm.c ****             ctx->buf[i] ^= work_buf[i];
 1380              		.loc 1 431 0 discriminator 3
 1381 00c8 6A46     		mov	r2, sp
 1382 00ca D05C     		ldrb	r0, [r2, r3]
 1383 00cc E218     		adds	r2, r4, r3
 1384 00ce 7132     		adds	r2, r2, #113
 1385 00d0 FF32     		adds	r2, r2, #255
ARM GAS  C:\Users\Phuong\AppData\Local\Temp\ccINfzqY.s 			page 34


 1386 00d2 1178     		ldrb	r1, [r2]
 1387 00d4 4140     		eors	r1, r0
 1388 00d6 1170     		strb	r1, [r2]
 430:Source\mbedtls_open\library/gcm.c ****             ctx->buf[i] ^= work_buf[i];
 1389              		.loc 1 430 0 discriminator 3
 1390 00d8 0133     		adds	r3, r3, #1
 1391              	.LVL184:
 1392              	.L68:
 430:Source\mbedtls_open\library/gcm.c ****             ctx->buf[i] ^= work_buf[i];
 1393              		.loc 1 430 0 is_stmt 0 discriminator 1
 1394 00da 0F2B     		cmp	r3, #15
 1395 00dc F4D9     		bls	.L69
 432:Source\mbedtls_open\library/gcm.c **** 
 433:Source\mbedtls_open\library/gcm.c ****         gcm_mult( ctx, ctx->buf, ctx->buf );
 1396              		.loc 1 433 0 is_stmt 1
 1397 00de 2100     		movs	r1, r4
 1398 00e0 7131     		adds	r1, r1, #113
 1399 00e2 FF31     		adds	r1, r1, #255
 1400 00e4 0A00     		movs	r2, r1
 1401 00e6 2000     		movs	r0, r4
 1402 00e8 FFF7FEFF 		bl	gcm_mult
 1403              	.LVL185:
 434:Source\mbedtls_open\library/gcm.c **** 
 435:Source\mbedtls_open\library/gcm.c ****         for( i = 0; i < tag_len; i++ )
 1404              		.loc 1 435 0
 1405 00ec 0023     		movs	r3, #0
 1406 00ee 08E0     		b	.L70
 1407              	.LVL186:
 1408              	.L71:
 436:Source\mbedtls_open\library/gcm.c ****             tag[i] ^= ctx->buf[i];
 1409              		.loc 1 436 0 discriminator 3
 1410 00f0 F118     		adds	r1, r6, r3
 1411 00f2 E218     		adds	r2, r4, r3
 1412 00f4 7132     		adds	r2, r2, #113
 1413 00f6 FF32     		adds	r2, r2, #255
 1414 00f8 1078     		ldrb	r0, [r2]
 1415 00fa 0A78     		ldrb	r2, [r1]
 1416 00fc 4240     		eors	r2, r0
 1417 00fe 0A70     		strb	r2, [r1]
 435:Source\mbedtls_open\library/gcm.c ****             tag[i] ^= ctx->buf[i];
 1418              		.loc 1 435 0 discriminator 3
 1419 0100 0133     		adds	r3, r3, #1
 1420              	.LVL187:
 1421              	.L70:
 435:Source\mbedtls_open\library/gcm.c ****             tag[i] ^= ctx->buf[i];
 1422              		.loc 1 435 0 is_stmt 0 discriminator 1
 1423 0102 AB42     		cmp	r3, r5
 1424 0104 F4D3     		bcc	.L71
 437:Source\mbedtls_open\library/gcm.c ****     }
 438:Source\mbedtls_open\library/gcm.c **** 
 439:Source\mbedtls_open\library/gcm.c ****     return( 0 );
 1425              		.loc 1 439 0 is_stmt 1
 1426 0106 0020     		movs	r0, #0
 1427 0108 03E0     		b	.L66
 1428              	.LVL188:
 1429              	.L72:
 417:Source\mbedtls_open\library/gcm.c **** 
ARM GAS  C:\Users\Phuong\AppData\Local\Temp\ccINfzqY.s 			page 35


 1430              		.loc 1 417 0
 1431 010a 1420     		movs	r0, #20
 1432              	.LVL189:
 1433 010c 4042     		rsbs	r0, r0, #0
 1434 010e 00E0     		b	.L66
 1435              	.LVL190:
 1436              	.L73:
 1437              		.loc 1 439 0
 1438 0110 0020     		movs	r0, #0
 1439              	.L66:
 440:Source\mbedtls_open\library/gcm.c **** }
 1440              		.loc 1 440 0
 1441 0112 04B0     		add	sp, sp, #16
 1442              		@ sp needed
 1443              	.LVL191:
 1444              	.LVL192:
 1445              	.LVL193:
 1446              	.LVL194:
 1447              	.LVL195:
 1448 0114 1CBC     		pop	{r2, r3, r4}
 1449 0116 9046     		mov	r8, r2
 1450 0118 9946     		mov	r9, r3
 1451 011a A246     		mov	r10, r4
 1452 011c F0BD     		pop	{r4, r5, r6, r7, pc}
 1453              		.cfi_endproc
 1454              	.LFE14:
 1455              		.size	mbedtls_gcm_finish, .-mbedtls_gcm_finish
 1456 011e C046     		.section	.text.mbedtls_gcm_crypt_and_tag,"ax",%progbits
 1457              		.align	2
 1458              		.global	mbedtls_gcm_crypt_and_tag
 1459              		.code	16
 1460              		.thumb_func
 1461              		.type	mbedtls_gcm_crypt_and_tag, %function
 1462              	mbedtls_gcm_crypt_and_tag:
 1463              	.LFB15:
 441:Source\mbedtls_open\library/gcm.c **** 
 442:Source\mbedtls_open\library/gcm.c **** int mbedtls_gcm_crypt_and_tag( mbedtls_gcm_context *ctx,
 443:Source\mbedtls_open\library/gcm.c ****                        int mode,
 444:Source\mbedtls_open\library/gcm.c ****                        size_t length,
 445:Source\mbedtls_open\library/gcm.c ****                        const unsigned char *iv,
 446:Source\mbedtls_open\library/gcm.c ****                        size_t iv_len,
 447:Source\mbedtls_open\library/gcm.c ****                        const unsigned char *add,
 448:Source\mbedtls_open\library/gcm.c ****                        size_t add_len,
 449:Source\mbedtls_open\library/gcm.c ****                        const unsigned char *input,
 450:Source\mbedtls_open\library/gcm.c ****                        unsigned char *output,
 451:Source\mbedtls_open\library/gcm.c ****                        size_t tag_len,
 452:Source\mbedtls_open\library/gcm.c ****                        unsigned char *tag )
 453:Source\mbedtls_open\library/gcm.c **** {
 1464              		.loc 1 453 0
 1465              		.cfi_startproc
 1466              		@ args = 28, pretend = 0, frame = 0
 1467              		@ frame_needed = 0, uses_anonymous_args = 0
 1468              	.LVL196:
 1469 0000 30B5     		push	{r4, r5, lr}
 1470              		.cfi_def_cfa_offset 12
 1471              		.cfi_offset 4, -12
 1472              		.cfi_offset 5, -8
ARM GAS  C:\Users\Phuong\AppData\Local\Temp\ccINfzqY.s 			page 36


 1473              		.cfi_offset 14, -4
 1474 0002 83B0     		sub	sp, sp, #12
 1475              		.cfi_def_cfa_offset 24
 1476 0004 0400     		movs	r4, r0
 1477 0006 1500     		movs	r5, r2
 1478 0008 1A00     		movs	r2, r3
 1479              	.LVL197:
 454:Source\mbedtls_open\library/gcm.c ****     int ret;
 455:Source\mbedtls_open\library/gcm.c **** 
 456:Source\mbedtls_open\library/gcm.c ****     if( ( ret = mbedtls_gcm_starts( ctx, mode, iv, iv_len, add, add_len ) ) != 0 )
 1480              		.loc 1 456 0
 1481 000a 089B     		ldr	r3, [sp, #32]
 1482              	.LVL198:
 1483 000c 0193     		str	r3, [sp, #4]
 1484 000e 079B     		ldr	r3, [sp, #28]
 1485 0010 0093     		str	r3, [sp]
 1486 0012 069B     		ldr	r3, [sp, #24]
 1487 0014 FFF7FEFF 		bl	mbedtls_gcm_starts
 1488              	.LVL199:
 1489 0018 0028     		cmp	r0, #0
 1490 001a 0CD1     		bne	.L75
 457:Source\mbedtls_open\library/gcm.c ****         return( ret );
 458:Source\mbedtls_open\library/gcm.c **** 
 459:Source\mbedtls_open\library/gcm.c ****     if( ( ret = mbedtls_gcm_update( ctx, length, input, output ) ) != 0 )
 1491              		.loc 1 459 0
 1492 001c 0A9B     		ldr	r3, [sp, #40]
 1493 001e 099A     		ldr	r2, [sp, #36]
 1494 0020 2900     		movs	r1, r5
 1495 0022 2000     		movs	r0, r4
 1496              	.LVL200:
 1497 0024 FFF7FEFF 		bl	mbedtls_gcm_update
 1498              	.LVL201:
 1499 0028 0028     		cmp	r0, #0
 1500 002a 04D1     		bne	.L75
 460:Source\mbedtls_open\library/gcm.c ****         return( ret );
 461:Source\mbedtls_open\library/gcm.c **** 
 462:Source\mbedtls_open\library/gcm.c ****     if( ( ret = mbedtls_gcm_finish( ctx, tag, tag_len ) ) != 0 )
 1501              		.loc 1 462 0
 1502 002c 0B9A     		ldr	r2, [sp, #44]
 1503 002e 0C99     		ldr	r1, [sp, #48]
 1504 0030 2000     		movs	r0, r4
 1505              	.LVL202:
 1506 0032 FFF7FEFF 		bl	mbedtls_gcm_finish
 1507              	.LVL203:
 1508              	.L75:
 463:Source\mbedtls_open\library/gcm.c ****         return( ret );
 464:Source\mbedtls_open\library/gcm.c **** 
 465:Source\mbedtls_open\library/gcm.c ****     return( 0 );
 466:Source\mbedtls_open\library/gcm.c **** }
 1509              		.loc 1 466 0
 1510 0036 03B0     		add	sp, sp, #12
 1511              		@ sp needed
 1512              	.LVL204:
 1513              	.LVL205:
 1514 0038 30BD     		pop	{r4, r5, pc}
 1515              		.cfi_endproc
 1516              	.LFE15:
ARM GAS  C:\Users\Phuong\AppData\Local\Temp\ccINfzqY.s 			page 37


 1517              		.size	mbedtls_gcm_crypt_and_tag, .-mbedtls_gcm_crypt_and_tag
 1518 003a C046     		.section	.text.mbedtls_gcm_auth_decrypt,"ax",%progbits
 1519              		.align	2
 1520              		.global	mbedtls_gcm_auth_decrypt
 1521              		.code	16
 1522              		.thumb_func
 1523              		.type	mbedtls_gcm_auth_decrypt, %function
 1524              	mbedtls_gcm_auth_decrypt:
 1525              	.LFB16:
 467:Source\mbedtls_open\library/gcm.c **** 
 468:Source\mbedtls_open\library/gcm.c **** int mbedtls_gcm_auth_decrypt( mbedtls_gcm_context *ctx,
 469:Source\mbedtls_open\library/gcm.c ****                       size_t length,
 470:Source\mbedtls_open\library/gcm.c ****                       const unsigned char *iv,
 471:Source\mbedtls_open\library/gcm.c ****                       size_t iv_len,
 472:Source\mbedtls_open\library/gcm.c ****                       const unsigned char *add,
 473:Source\mbedtls_open\library/gcm.c ****                       size_t add_len,
 474:Source\mbedtls_open\library/gcm.c ****                       const unsigned char *tag,
 475:Source\mbedtls_open\library/gcm.c ****                       size_t tag_len,
 476:Source\mbedtls_open\library/gcm.c ****                       const unsigned char *input,
 477:Source\mbedtls_open\library/gcm.c ****                       unsigned char *output )
 478:Source\mbedtls_open\library/gcm.c **** {
 1526              		.loc 1 478 0
 1527              		.cfi_startproc
 1528              		@ args = 24, pretend = 0, frame = 16
 1529              		@ frame_needed = 0, uses_anonymous_args = 0
 1530              	.LVL206:
 1531 0000 70B5     		push	{r4, r5, r6, lr}
 1532              		.cfi_def_cfa_offset 16
 1533              		.cfi_offset 4, -16
 1534              		.cfi_offset 5, -12
 1535              		.cfi_offset 6, -8
 1536              		.cfi_offset 14, -4
 1537 0002 8CB0     		sub	sp, sp, #48
 1538              		.cfi_def_cfa_offset 64
 1539 0004 0C00     		movs	r4, r1
 1540 0006 129E     		ldr	r6, [sp, #72]
 1541 0008 139D     		ldr	r5, [sp, #76]
 479:Source\mbedtls_open\library/gcm.c ****     int ret;
 480:Source\mbedtls_open\library/gcm.c ****     unsigned char check_tag[16];
 481:Source\mbedtls_open\library/gcm.c ****     size_t i;
 482:Source\mbedtls_open\library/gcm.c ****     int diff;
 483:Source\mbedtls_open\library/gcm.c **** 
 484:Source\mbedtls_open\library/gcm.c ****     if( ( ret = mbedtls_gcm_crypt_and_tag( ctx, MBEDTLS_GCM_DECRYPT, length,
 1542              		.loc 1 484 0
 1543 000a 08A9     		add	r1, sp, #32
 1544              	.LVL207:
 1545 000c 0691     		str	r1, [sp, #24]
 1546 000e 0595     		str	r5, [sp, #20]
 1547 0010 1599     		ldr	r1, [sp, #84]
 1548 0012 0491     		str	r1, [sp, #16]
 1549 0014 1499     		ldr	r1, [sp, #80]
 1550 0016 0391     		str	r1, [sp, #12]
 1551 0018 1199     		ldr	r1, [sp, #68]
 1552 001a 0291     		str	r1, [sp, #8]
 1553 001c 1099     		ldr	r1, [sp, #64]
 1554 001e 0191     		str	r1, [sp, #4]
 1555 0020 0093     		str	r3, [sp]
ARM GAS  C:\Users\Phuong\AppData\Local\Temp\ccINfzqY.s 			page 38


 1556 0022 1300     		movs	r3, r2
 1557              	.LVL208:
 1558 0024 2200     		movs	r2, r4
 1559              	.LVL209:
 1560 0026 0021     		movs	r1, #0
 1561 0028 FFF7FEFF 		bl	mbedtls_gcm_crypt_and_tag
 1562              	.LVL210:
 1563 002c 0028     		cmp	r0, #0
 1564 002e 14D1     		bne	.L80
 1565 0030 0021     		movs	r1, #0
 1566 0032 0023     		movs	r3, #0
 1567 0034 05E0     		b	.L81
 1568              	.LVL211:
 1569              	.L82:
 485:Source\mbedtls_open\library/gcm.c ****                                    iv, iv_len, add, add_len,
 486:Source\mbedtls_open\library/gcm.c ****                                    input, output, tag_len, check_tag ) ) != 0 )
 487:Source\mbedtls_open\library/gcm.c ****     {
 488:Source\mbedtls_open\library/gcm.c ****         return( ret );
 489:Source\mbedtls_open\library/gcm.c ****     }
 490:Source\mbedtls_open\library/gcm.c **** 
 491:Source\mbedtls_open\library/gcm.c ****     /* Check tag in "constant-time" */
 492:Source\mbedtls_open\library/gcm.c ****     for( diff = 0, i = 0; i < tag_len; i++ )
 493:Source\mbedtls_open\library/gcm.c ****         diff |= tag[i] ^ check_tag[i];
 1570              		.loc 1 493 0 discriminator 3
 1571 0036 F05C     		ldrb	r0, [r6, r3]
 1572 0038 08AA     		add	r2, sp, #32
 1573 003a D25C     		ldrb	r2, [r2, r3]
 1574 003c 4240     		eors	r2, r0
 1575 003e 1143     		orrs	r1, r2
 1576              	.LVL212:
 492:Source\mbedtls_open\library/gcm.c ****         diff |= tag[i] ^ check_tag[i];
 1577              		.loc 1 492 0 discriminator 3
 1578 0040 0133     		adds	r3, r3, #1
 1579              	.LVL213:
 1580              	.L81:
 492:Source\mbedtls_open\library/gcm.c ****         diff |= tag[i] ^ check_tag[i];
 1581              		.loc 1 492 0 is_stmt 0 discriminator 1
 1582 0042 AB42     		cmp	r3, r5
 1583 0044 F7D3     		bcc	.L82
 494:Source\mbedtls_open\library/gcm.c **** 
 495:Source\mbedtls_open\library/gcm.c ****     if( diff != 0 )
 1584              		.loc 1 495 0 is_stmt 1
 1585 0046 0029     		cmp	r1, #0
 1586 0048 06D0     		beq	.L84
 496:Source\mbedtls_open\library/gcm.c ****     {
 497:Source\mbedtls_open\library/gcm.c ****         mbedtls_platform_zeroize( output, length );
 1587              		.loc 1 497 0
 1588 004a 2100     		movs	r1, r4
 1589              	.LVL214:
 1590 004c 1598     		ldr	r0, [sp, #84]
 1591 004e FFF7FEFF 		bl	mbedtls_platform_zeroize
 1592              	.LVL215:
 498:Source\mbedtls_open\library/gcm.c ****         return( MBEDTLS_ERR_GCM_AUTH_FAILED );
 1593              		.loc 1 498 0
 1594 0052 1220     		movs	r0, #18
 1595 0054 4042     		rsbs	r0, r0, #0
 1596 0056 00E0     		b	.L80
ARM GAS  C:\Users\Phuong\AppData\Local\Temp\ccINfzqY.s 			page 39


 1597              	.LVL216:
 1598              	.L84:
 499:Source\mbedtls_open\library/gcm.c ****     }
 500:Source\mbedtls_open\library/gcm.c **** 
 501:Source\mbedtls_open\library/gcm.c ****     return( 0 );
 1599              		.loc 1 501 0
 1600 0058 0020     		movs	r0, #0
 1601              	.LVL217:
 1602              	.L80:
 502:Source\mbedtls_open\library/gcm.c **** }
 1603              		.loc 1 502 0
 1604 005a 0CB0     		add	sp, sp, #48
 1605              		@ sp needed
 1606              	.LVL218:
 1607 005c 70BD     		pop	{r4, r5, r6, pc}
 1608              		.cfi_endproc
 1609              	.LFE16:
 1610              		.size	mbedtls_gcm_auth_decrypt, .-mbedtls_gcm_auth_decrypt
 1611 005e C046     		.section	.text.mbedtls_gcm_free,"ax",%progbits
 1612              		.align	2
 1613              		.global	mbedtls_gcm_free
 1614              		.code	16
 1615              		.thumb_func
 1616              		.type	mbedtls_gcm_free, %function
 1617              	mbedtls_gcm_free:
 1618              	.LFB17:
 503:Source\mbedtls_open\library/gcm.c **** 
 504:Source\mbedtls_open\library/gcm.c **** void mbedtls_gcm_free( mbedtls_gcm_context *ctx )
 505:Source\mbedtls_open\library/gcm.c **** {
 1619              		.loc 1 505 0
 1620              		.cfi_startproc
 1621              		@ args = 0, pretend = 0, frame = 0
 1622              		@ frame_needed = 0, uses_anonymous_args = 0
 1623              	.LVL219:
 1624 0000 10B5     		push	{r4, lr}
 1625              		.cfi_def_cfa_offset 8
 1626              		.cfi_offset 4, -8
 1627              		.cfi_offset 14, -4
 1628 0002 0400     		movs	r4, r0
 506:Source\mbedtls_open\library/gcm.c ****     mbedtls_cipher_free( &ctx->cipher_ctx );
 1629              		.loc 1 506 0
 1630 0004 FFF7FEFF 		bl	mbedtls_cipher_free
 1631              	.LVL220:
 507:Source\mbedtls_open\library/gcm.c ****     mbedtls_platform_zeroize( ctx, sizeof( mbedtls_gcm_context ) );
 1632              		.loc 1 507 0
 1633 0008 C421     		movs	r1, #196
 1634 000a 4900     		lsls	r1, r1, #1
 1635 000c 2000     		movs	r0, r4
 1636 000e FFF7FEFF 		bl	mbedtls_platform_zeroize
 1637              	.LVL221:
 508:Source\mbedtls_open\library/gcm.c **** }
 1638              		.loc 1 508 0
 1639              		@ sp needed
 1640              	.LVL222:
 1641 0012 10BD     		pop	{r4, pc}
 1642              		.cfi_endproc
 1643              	.LFE17:
ARM GAS  C:\Users\Phuong\AppData\Local\Temp\ccINfzqY.s 			page 40


 1644              		.size	mbedtls_gcm_free, .-mbedtls_gcm_free
 1645              		.section	.text.mbedtls_gcm_self_test,"ax",%progbits
 1646              		.align	2
 1647              		.global	mbedtls_gcm_self_test
 1648              		.code	16
 1649              		.thumb_func
 1650              		.type	mbedtls_gcm_self_test, %function
 1651              	mbedtls_gcm_self_test:
 1652              	.LFB18:
 509:Source\mbedtls_open\library/gcm.c **** 
 510:Source\mbedtls_open\library/gcm.c **** #endif /* !MBEDTLS_GCM_ALT */
 511:Source\mbedtls_open\library/gcm.c **** 
 512:Source\mbedtls_open\library/gcm.c **** #if defined(MBEDTLS_SELF_TEST) && defined(MBEDTLS_AES_C)
 513:Source\mbedtls_open\library/gcm.c **** /*
 514:Source\mbedtls_open\library/gcm.c ****  * AES-GCM test vectors from:
 515:Source\mbedtls_open\library/gcm.c ****  *
 516:Source\mbedtls_open\library/gcm.c ****  * http://csrc.nist.gov/groups/STM/cavp/documents/mac/gcmtestvectors.zip
 517:Source\mbedtls_open\library/gcm.c ****  */
 518:Source\mbedtls_open\library/gcm.c **** #define MAX_TESTS   6
 519:Source\mbedtls_open\library/gcm.c **** 
 520:Source\mbedtls_open\library/gcm.c **** static const int key_index[MAX_TESTS] =
 521:Source\mbedtls_open\library/gcm.c ****     { 0, 0, 1, 1, 1, 1 };
 522:Source\mbedtls_open\library/gcm.c **** 
 523:Source\mbedtls_open\library/gcm.c **** static const unsigned char key[MAX_TESTS][32] =
 524:Source\mbedtls_open\library/gcm.c **** {
 525:Source\mbedtls_open\library/gcm.c ****     { 0x00, 0x00, 0x00, 0x00, 0x00, 0x00, 0x00, 0x00,
 526:Source\mbedtls_open\library/gcm.c ****       0x00, 0x00, 0x00, 0x00, 0x00, 0x00, 0x00, 0x00,
 527:Source\mbedtls_open\library/gcm.c ****       0x00, 0x00, 0x00, 0x00, 0x00, 0x00, 0x00, 0x00,
 528:Source\mbedtls_open\library/gcm.c ****       0x00, 0x00, 0x00, 0x00, 0x00, 0x00, 0x00, 0x00 },
 529:Source\mbedtls_open\library/gcm.c ****     { 0xfe, 0xff, 0xe9, 0x92, 0x86, 0x65, 0x73, 0x1c,
 530:Source\mbedtls_open\library/gcm.c ****       0x6d, 0x6a, 0x8f, 0x94, 0x67, 0x30, 0x83, 0x08,
 531:Source\mbedtls_open\library/gcm.c ****       0xfe, 0xff, 0xe9, 0x92, 0x86, 0x65, 0x73, 0x1c,
 532:Source\mbedtls_open\library/gcm.c ****       0x6d, 0x6a, 0x8f, 0x94, 0x67, 0x30, 0x83, 0x08 },
 533:Source\mbedtls_open\library/gcm.c **** };
 534:Source\mbedtls_open\library/gcm.c **** 
 535:Source\mbedtls_open\library/gcm.c **** static const size_t iv_len[MAX_TESTS] =
 536:Source\mbedtls_open\library/gcm.c ****     { 12, 12, 12, 12, 8, 60 };
 537:Source\mbedtls_open\library/gcm.c **** 
 538:Source\mbedtls_open\library/gcm.c **** static const int iv_index[MAX_TESTS] =
 539:Source\mbedtls_open\library/gcm.c ****     { 0, 0, 1, 1, 1, 2 };
 540:Source\mbedtls_open\library/gcm.c **** 
 541:Source\mbedtls_open\library/gcm.c **** static const unsigned char iv[MAX_TESTS][64] =
 542:Source\mbedtls_open\library/gcm.c **** {
 543:Source\mbedtls_open\library/gcm.c ****     { 0x00, 0x00, 0x00, 0x00, 0x00, 0x00, 0x00, 0x00,
 544:Source\mbedtls_open\library/gcm.c ****       0x00, 0x00, 0x00, 0x00 },
 545:Source\mbedtls_open\library/gcm.c ****     { 0xca, 0xfe, 0xba, 0xbe, 0xfa, 0xce, 0xdb, 0xad,
 546:Source\mbedtls_open\library/gcm.c ****       0xde, 0xca, 0xf8, 0x88 },
 547:Source\mbedtls_open\library/gcm.c ****     { 0x93, 0x13, 0x22, 0x5d, 0xf8, 0x84, 0x06, 0xe5,
 548:Source\mbedtls_open\library/gcm.c ****       0x55, 0x90, 0x9c, 0x5a, 0xff, 0x52, 0x69, 0xaa,
 549:Source\mbedtls_open\library/gcm.c ****       0x6a, 0x7a, 0x95, 0x38, 0x53, 0x4f, 0x7d, 0xa1,
 550:Source\mbedtls_open\library/gcm.c ****       0xe4, 0xc3, 0x03, 0xd2, 0xa3, 0x18, 0xa7, 0x28,
 551:Source\mbedtls_open\library/gcm.c ****       0xc3, 0xc0, 0xc9, 0x51, 0x56, 0x80, 0x95, 0x39,
 552:Source\mbedtls_open\library/gcm.c ****       0xfc, 0xf0, 0xe2, 0x42, 0x9a, 0x6b, 0x52, 0x54,
 553:Source\mbedtls_open\library/gcm.c ****       0x16, 0xae, 0xdb, 0xf5, 0xa0, 0xde, 0x6a, 0x57,
 554:Source\mbedtls_open\library/gcm.c ****       0xa6, 0x37, 0xb3, 0x9b },
 555:Source\mbedtls_open\library/gcm.c **** };
 556:Source\mbedtls_open\library/gcm.c **** 
ARM GAS  C:\Users\Phuong\AppData\Local\Temp\ccINfzqY.s 			page 41


 557:Source\mbedtls_open\library/gcm.c **** static const size_t add_len[MAX_TESTS] =
 558:Source\mbedtls_open\library/gcm.c ****     { 0, 0, 0, 20, 20, 20 };
 559:Source\mbedtls_open\library/gcm.c **** 
 560:Source\mbedtls_open\library/gcm.c **** static const int add_index[MAX_TESTS] =
 561:Source\mbedtls_open\library/gcm.c ****     { 0, 0, 0, 1, 1, 1 };
 562:Source\mbedtls_open\library/gcm.c **** 
 563:Source\mbedtls_open\library/gcm.c **** static const unsigned char additional[MAX_TESTS][64] =
 564:Source\mbedtls_open\library/gcm.c **** {
 565:Source\mbedtls_open\library/gcm.c ****     { 0x00 },
 566:Source\mbedtls_open\library/gcm.c ****     { 0xfe, 0xed, 0xfa, 0xce, 0xde, 0xad, 0xbe, 0xef,
 567:Source\mbedtls_open\library/gcm.c ****       0xfe, 0xed, 0xfa, 0xce, 0xde, 0xad, 0xbe, 0xef,
 568:Source\mbedtls_open\library/gcm.c ****       0xab, 0xad, 0xda, 0xd2 },
 569:Source\mbedtls_open\library/gcm.c **** };
 570:Source\mbedtls_open\library/gcm.c **** 
 571:Source\mbedtls_open\library/gcm.c **** static const size_t pt_len[MAX_TESTS] =
 572:Source\mbedtls_open\library/gcm.c ****     { 0, 16, 64, 60, 60, 60 };
 573:Source\mbedtls_open\library/gcm.c **** 
 574:Source\mbedtls_open\library/gcm.c **** static const int pt_index[MAX_TESTS] =
 575:Source\mbedtls_open\library/gcm.c ****     { 0, 0, 1, 1, 1, 1 };
 576:Source\mbedtls_open\library/gcm.c **** 
 577:Source\mbedtls_open\library/gcm.c **** static const unsigned char pt[MAX_TESTS][64] =
 578:Source\mbedtls_open\library/gcm.c **** {
 579:Source\mbedtls_open\library/gcm.c ****     { 0x00, 0x00, 0x00, 0x00, 0x00, 0x00, 0x00, 0x00,
 580:Source\mbedtls_open\library/gcm.c ****       0x00, 0x00, 0x00, 0x00, 0x00, 0x00, 0x00, 0x00 },
 581:Source\mbedtls_open\library/gcm.c ****     { 0xd9, 0x31, 0x32, 0x25, 0xf8, 0x84, 0x06, 0xe5,
 582:Source\mbedtls_open\library/gcm.c ****       0xa5, 0x59, 0x09, 0xc5, 0xaf, 0xf5, 0x26, 0x9a,
 583:Source\mbedtls_open\library/gcm.c ****       0x86, 0xa7, 0xa9, 0x53, 0x15, 0x34, 0xf7, 0xda,
 584:Source\mbedtls_open\library/gcm.c ****       0x2e, 0x4c, 0x30, 0x3d, 0x8a, 0x31, 0x8a, 0x72,
 585:Source\mbedtls_open\library/gcm.c ****       0x1c, 0x3c, 0x0c, 0x95, 0x95, 0x68, 0x09, 0x53,
 586:Source\mbedtls_open\library/gcm.c ****       0x2f, 0xcf, 0x0e, 0x24, 0x49, 0xa6, 0xb5, 0x25,
 587:Source\mbedtls_open\library/gcm.c ****       0xb1, 0x6a, 0xed, 0xf5, 0xaa, 0x0d, 0xe6, 0x57,
 588:Source\mbedtls_open\library/gcm.c ****       0xba, 0x63, 0x7b, 0x39, 0x1a, 0xaf, 0xd2, 0x55 },
 589:Source\mbedtls_open\library/gcm.c **** };
 590:Source\mbedtls_open\library/gcm.c **** 
 591:Source\mbedtls_open\library/gcm.c **** static const unsigned char ct[MAX_TESTS * 3][64] =
 592:Source\mbedtls_open\library/gcm.c **** {
 593:Source\mbedtls_open\library/gcm.c ****     { 0x00 },
 594:Source\mbedtls_open\library/gcm.c ****     { 0x03, 0x88, 0xda, 0xce, 0x60, 0xb6, 0xa3, 0x92,
 595:Source\mbedtls_open\library/gcm.c ****       0xf3, 0x28, 0xc2, 0xb9, 0x71, 0xb2, 0xfe, 0x78 },
 596:Source\mbedtls_open\library/gcm.c ****     { 0x42, 0x83, 0x1e, 0xc2, 0x21, 0x77, 0x74, 0x24,
 597:Source\mbedtls_open\library/gcm.c ****       0x4b, 0x72, 0x21, 0xb7, 0x84, 0xd0, 0xd4, 0x9c,
 598:Source\mbedtls_open\library/gcm.c ****       0xe3, 0xaa, 0x21, 0x2f, 0x2c, 0x02, 0xa4, 0xe0,
 599:Source\mbedtls_open\library/gcm.c ****       0x35, 0xc1, 0x7e, 0x23, 0x29, 0xac, 0xa1, 0x2e,
 600:Source\mbedtls_open\library/gcm.c ****       0x21, 0xd5, 0x14, 0xb2, 0x54, 0x66, 0x93, 0x1c,
 601:Source\mbedtls_open\library/gcm.c ****       0x7d, 0x8f, 0x6a, 0x5a, 0xac, 0x84, 0xaa, 0x05,
 602:Source\mbedtls_open\library/gcm.c ****       0x1b, 0xa3, 0x0b, 0x39, 0x6a, 0x0a, 0xac, 0x97,
 603:Source\mbedtls_open\library/gcm.c ****       0x3d, 0x58, 0xe0, 0x91, 0x47, 0x3f, 0x59, 0x85 },
 604:Source\mbedtls_open\library/gcm.c ****     { 0x42, 0x83, 0x1e, 0xc2, 0x21, 0x77, 0x74, 0x24,
 605:Source\mbedtls_open\library/gcm.c ****       0x4b, 0x72, 0x21, 0xb7, 0x84, 0xd0, 0xd4, 0x9c,
 606:Source\mbedtls_open\library/gcm.c ****       0xe3, 0xaa, 0x21, 0x2f, 0x2c, 0x02, 0xa4, 0xe0,
 607:Source\mbedtls_open\library/gcm.c ****       0x35, 0xc1, 0x7e, 0x23, 0x29, 0xac, 0xa1, 0x2e,
 608:Source\mbedtls_open\library/gcm.c ****       0x21, 0xd5, 0x14, 0xb2, 0x54, 0x66, 0x93, 0x1c,
 609:Source\mbedtls_open\library/gcm.c ****       0x7d, 0x8f, 0x6a, 0x5a, 0xac, 0x84, 0xaa, 0x05,
 610:Source\mbedtls_open\library/gcm.c ****       0x1b, 0xa3, 0x0b, 0x39, 0x6a, 0x0a, 0xac, 0x97,
 611:Source\mbedtls_open\library/gcm.c ****       0x3d, 0x58, 0xe0, 0x91 },
 612:Source\mbedtls_open\library/gcm.c ****     { 0x61, 0x35, 0x3b, 0x4c, 0x28, 0x06, 0x93, 0x4a,
 613:Source\mbedtls_open\library/gcm.c ****       0x77, 0x7f, 0xf5, 0x1f, 0xa2, 0x2a, 0x47, 0x55,
ARM GAS  C:\Users\Phuong\AppData\Local\Temp\ccINfzqY.s 			page 42


 614:Source\mbedtls_open\library/gcm.c ****       0x69, 0x9b, 0x2a, 0x71, 0x4f, 0xcd, 0xc6, 0xf8,
 615:Source\mbedtls_open\library/gcm.c ****       0x37, 0x66, 0xe5, 0xf9, 0x7b, 0x6c, 0x74, 0x23,
 616:Source\mbedtls_open\library/gcm.c ****       0x73, 0x80, 0x69, 0x00, 0xe4, 0x9f, 0x24, 0xb2,
 617:Source\mbedtls_open\library/gcm.c ****       0x2b, 0x09, 0x75, 0x44, 0xd4, 0x89, 0x6b, 0x42,
 618:Source\mbedtls_open\library/gcm.c ****       0x49, 0x89, 0xb5, 0xe1, 0xeb, 0xac, 0x0f, 0x07,
 619:Source\mbedtls_open\library/gcm.c ****       0xc2, 0x3f, 0x45, 0x98 },
 620:Source\mbedtls_open\library/gcm.c ****     { 0x8c, 0xe2, 0x49, 0x98, 0x62, 0x56, 0x15, 0xb6,
 621:Source\mbedtls_open\library/gcm.c ****       0x03, 0xa0, 0x33, 0xac, 0xa1, 0x3f, 0xb8, 0x94,
 622:Source\mbedtls_open\library/gcm.c ****       0xbe, 0x91, 0x12, 0xa5, 0xc3, 0xa2, 0x11, 0xa8,
 623:Source\mbedtls_open\library/gcm.c ****       0xba, 0x26, 0x2a, 0x3c, 0xca, 0x7e, 0x2c, 0xa7,
 624:Source\mbedtls_open\library/gcm.c ****       0x01, 0xe4, 0xa9, 0xa4, 0xfb, 0xa4, 0x3c, 0x90,
 625:Source\mbedtls_open\library/gcm.c ****       0xcc, 0xdc, 0xb2, 0x81, 0xd4, 0x8c, 0x7c, 0x6f,
 626:Source\mbedtls_open\library/gcm.c ****       0xd6, 0x28, 0x75, 0xd2, 0xac, 0xa4, 0x17, 0x03,
 627:Source\mbedtls_open\library/gcm.c ****       0x4c, 0x34, 0xae, 0xe5 },
 628:Source\mbedtls_open\library/gcm.c ****     { 0x00 },
 629:Source\mbedtls_open\library/gcm.c ****     { 0x98, 0xe7, 0x24, 0x7c, 0x07, 0xf0, 0xfe, 0x41,
 630:Source\mbedtls_open\library/gcm.c ****       0x1c, 0x26, 0x7e, 0x43, 0x84, 0xb0, 0xf6, 0x00 },
 631:Source\mbedtls_open\library/gcm.c ****     { 0x39, 0x80, 0xca, 0x0b, 0x3c, 0x00, 0xe8, 0x41,
 632:Source\mbedtls_open\library/gcm.c ****       0xeb, 0x06, 0xfa, 0xc4, 0x87, 0x2a, 0x27, 0x57,
 633:Source\mbedtls_open\library/gcm.c ****       0x85, 0x9e, 0x1c, 0xea, 0xa6, 0xef, 0xd9, 0x84,
 634:Source\mbedtls_open\library/gcm.c ****       0x62, 0x85, 0x93, 0xb4, 0x0c, 0xa1, 0xe1, 0x9c,
 635:Source\mbedtls_open\library/gcm.c ****       0x7d, 0x77, 0x3d, 0x00, 0xc1, 0x44, 0xc5, 0x25,
 636:Source\mbedtls_open\library/gcm.c ****       0xac, 0x61, 0x9d, 0x18, 0xc8, 0x4a, 0x3f, 0x47,
 637:Source\mbedtls_open\library/gcm.c ****       0x18, 0xe2, 0x44, 0x8b, 0x2f, 0xe3, 0x24, 0xd9,
 638:Source\mbedtls_open\library/gcm.c ****       0xcc, 0xda, 0x27, 0x10, 0xac, 0xad, 0xe2, 0x56 },
 639:Source\mbedtls_open\library/gcm.c ****     { 0x39, 0x80, 0xca, 0x0b, 0x3c, 0x00, 0xe8, 0x41,
 640:Source\mbedtls_open\library/gcm.c ****       0xeb, 0x06, 0xfa, 0xc4, 0x87, 0x2a, 0x27, 0x57,
 641:Source\mbedtls_open\library/gcm.c ****       0x85, 0x9e, 0x1c, 0xea, 0xa6, 0xef, 0xd9, 0x84,
 642:Source\mbedtls_open\library/gcm.c ****       0x62, 0x85, 0x93, 0xb4, 0x0c, 0xa1, 0xe1, 0x9c,
 643:Source\mbedtls_open\library/gcm.c ****       0x7d, 0x77, 0x3d, 0x00, 0xc1, 0x44, 0xc5, 0x25,
 644:Source\mbedtls_open\library/gcm.c ****       0xac, 0x61, 0x9d, 0x18, 0xc8, 0x4a, 0x3f, 0x47,
 645:Source\mbedtls_open\library/gcm.c ****       0x18, 0xe2, 0x44, 0x8b, 0x2f, 0xe3, 0x24, 0xd9,
 646:Source\mbedtls_open\library/gcm.c ****       0xcc, 0xda, 0x27, 0x10 },
 647:Source\mbedtls_open\library/gcm.c ****     { 0x0f, 0x10, 0xf5, 0x99, 0xae, 0x14, 0xa1, 0x54,
 648:Source\mbedtls_open\library/gcm.c ****       0xed, 0x24, 0xb3, 0x6e, 0x25, 0x32, 0x4d, 0xb8,
 649:Source\mbedtls_open\library/gcm.c ****       0xc5, 0x66, 0x63, 0x2e, 0xf2, 0xbb, 0xb3, 0x4f,
 650:Source\mbedtls_open\library/gcm.c ****       0x83, 0x47, 0x28, 0x0f, 0xc4, 0x50, 0x70, 0x57,
 651:Source\mbedtls_open\library/gcm.c ****       0xfd, 0xdc, 0x29, 0xdf, 0x9a, 0x47, 0x1f, 0x75,
 652:Source\mbedtls_open\library/gcm.c ****       0xc6, 0x65, 0x41, 0xd4, 0xd4, 0xda, 0xd1, 0xc9,
 653:Source\mbedtls_open\library/gcm.c ****       0xe9, 0x3a, 0x19, 0xa5, 0x8e, 0x8b, 0x47, 0x3f,
 654:Source\mbedtls_open\library/gcm.c ****       0xa0, 0xf0, 0x62, 0xf7 },
 655:Source\mbedtls_open\library/gcm.c ****     { 0xd2, 0x7e, 0x88, 0x68, 0x1c, 0xe3, 0x24, 0x3c,
 656:Source\mbedtls_open\library/gcm.c ****       0x48, 0x30, 0x16, 0x5a, 0x8f, 0xdc, 0xf9, 0xff,
 657:Source\mbedtls_open\library/gcm.c ****       0x1d, 0xe9, 0xa1, 0xd8, 0xe6, 0xb4, 0x47, 0xef,
 658:Source\mbedtls_open\library/gcm.c ****       0x6e, 0xf7, 0xb7, 0x98, 0x28, 0x66, 0x6e, 0x45,
 659:Source\mbedtls_open\library/gcm.c ****       0x81, 0xe7, 0x90, 0x12, 0xaf, 0x34, 0xdd, 0xd9,
 660:Source\mbedtls_open\library/gcm.c ****       0xe2, 0xf0, 0x37, 0x58, 0x9b, 0x29, 0x2d, 0xb3,
 661:Source\mbedtls_open\library/gcm.c ****       0xe6, 0x7c, 0x03, 0x67, 0x45, 0xfa, 0x22, 0xe7,
 662:Source\mbedtls_open\library/gcm.c ****       0xe9, 0xb7, 0x37, 0x3b },
 663:Source\mbedtls_open\library/gcm.c ****     { 0x00 },
 664:Source\mbedtls_open\library/gcm.c ****     { 0xce, 0xa7, 0x40, 0x3d, 0x4d, 0x60, 0x6b, 0x6e,
 665:Source\mbedtls_open\library/gcm.c ****       0x07, 0x4e, 0xc5, 0xd3, 0xba, 0xf3, 0x9d, 0x18 },
 666:Source\mbedtls_open\library/gcm.c ****     { 0x52, 0x2d, 0xc1, 0xf0, 0x99, 0x56, 0x7d, 0x07,
 667:Source\mbedtls_open\library/gcm.c ****       0xf4, 0x7f, 0x37, 0xa3, 0x2a, 0x84, 0x42, 0x7d,
 668:Source\mbedtls_open\library/gcm.c ****       0x64, 0x3a, 0x8c, 0xdc, 0xbf, 0xe5, 0xc0, 0xc9,
 669:Source\mbedtls_open\library/gcm.c ****       0x75, 0x98, 0xa2, 0xbd, 0x25, 0x55, 0xd1, 0xaa,
 670:Source\mbedtls_open\library/gcm.c ****       0x8c, 0xb0, 0x8e, 0x48, 0x59, 0x0d, 0xbb, 0x3d,
ARM GAS  C:\Users\Phuong\AppData\Local\Temp\ccINfzqY.s 			page 43


 671:Source\mbedtls_open\library/gcm.c ****       0xa7, 0xb0, 0x8b, 0x10, 0x56, 0x82, 0x88, 0x38,
 672:Source\mbedtls_open\library/gcm.c ****       0xc5, 0xf6, 0x1e, 0x63, 0x93, 0xba, 0x7a, 0x0a,
 673:Source\mbedtls_open\library/gcm.c ****       0xbc, 0xc9, 0xf6, 0x62, 0x89, 0x80, 0x15, 0xad },
 674:Source\mbedtls_open\library/gcm.c ****     { 0x52, 0x2d, 0xc1, 0xf0, 0x99, 0x56, 0x7d, 0x07,
 675:Source\mbedtls_open\library/gcm.c ****       0xf4, 0x7f, 0x37, 0xa3, 0x2a, 0x84, 0x42, 0x7d,
 676:Source\mbedtls_open\library/gcm.c ****       0x64, 0x3a, 0x8c, 0xdc, 0xbf, 0xe5, 0xc0, 0xc9,
 677:Source\mbedtls_open\library/gcm.c ****       0x75, 0x98, 0xa2, 0xbd, 0x25, 0x55, 0xd1, 0xaa,
 678:Source\mbedtls_open\library/gcm.c ****       0x8c, 0xb0, 0x8e, 0x48, 0x59, 0x0d, 0xbb, 0x3d,
 679:Source\mbedtls_open\library/gcm.c ****       0xa7, 0xb0, 0x8b, 0x10, 0x56, 0x82, 0x88, 0x38,
 680:Source\mbedtls_open\library/gcm.c ****       0xc5, 0xf6, 0x1e, 0x63, 0x93, 0xba, 0x7a, 0x0a,
 681:Source\mbedtls_open\library/gcm.c ****       0xbc, 0xc9, 0xf6, 0x62 },
 682:Source\mbedtls_open\library/gcm.c ****     { 0xc3, 0x76, 0x2d, 0xf1, 0xca, 0x78, 0x7d, 0x32,
 683:Source\mbedtls_open\library/gcm.c ****       0xae, 0x47, 0xc1, 0x3b, 0xf1, 0x98, 0x44, 0xcb,
 684:Source\mbedtls_open\library/gcm.c ****       0xaf, 0x1a, 0xe1, 0x4d, 0x0b, 0x97, 0x6a, 0xfa,
 685:Source\mbedtls_open\library/gcm.c ****       0xc5, 0x2f, 0xf7, 0xd7, 0x9b, 0xba, 0x9d, 0xe0,
 686:Source\mbedtls_open\library/gcm.c ****       0xfe, 0xb5, 0x82, 0xd3, 0x39, 0x34, 0xa4, 0xf0,
 687:Source\mbedtls_open\library/gcm.c ****       0x95, 0x4c, 0xc2, 0x36, 0x3b, 0xc7, 0x3f, 0x78,
 688:Source\mbedtls_open\library/gcm.c ****       0x62, 0xac, 0x43, 0x0e, 0x64, 0xab, 0xe4, 0x99,
 689:Source\mbedtls_open\library/gcm.c ****       0xf4, 0x7c, 0x9b, 0x1f },
 690:Source\mbedtls_open\library/gcm.c ****     { 0x5a, 0x8d, 0xef, 0x2f, 0x0c, 0x9e, 0x53, 0xf1,
 691:Source\mbedtls_open\library/gcm.c ****       0xf7, 0x5d, 0x78, 0x53, 0x65, 0x9e, 0x2a, 0x20,
 692:Source\mbedtls_open\library/gcm.c ****       0xee, 0xb2, 0xb2, 0x2a, 0xaf, 0xde, 0x64, 0x19,
 693:Source\mbedtls_open\library/gcm.c ****       0xa0, 0x58, 0xab, 0x4f, 0x6f, 0x74, 0x6b, 0xf4,
 694:Source\mbedtls_open\library/gcm.c ****       0x0f, 0xc0, 0xc3, 0xb7, 0x80, 0xf2, 0x44, 0x45,
 695:Source\mbedtls_open\library/gcm.c ****       0x2d, 0xa3, 0xeb, 0xf1, 0xc5, 0xd8, 0x2c, 0xde,
 696:Source\mbedtls_open\library/gcm.c ****       0xa2, 0x41, 0x89, 0x97, 0x20, 0x0e, 0xf8, 0x2e,
 697:Source\mbedtls_open\library/gcm.c ****       0x44, 0xae, 0x7e, 0x3f },
 698:Source\mbedtls_open\library/gcm.c **** };
 699:Source\mbedtls_open\library/gcm.c **** 
 700:Source\mbedtls_open\library/gcm.c **** static const unsigned char tag[MAX_TESTS * 3][16] =
 701:Source\mbedtls_open\library/gcm.c **** {
 702:Source\mbedtls_open\library/gcm.c ****     { 0x58, 0xe2, 0xfc, 0xce, 0xfa, 0x7e, 0x30, 0x61,
 703:Source\mbedtls_open\library/gcm.c ****       0x36, 0x7f, 0x1d, 0x57, 0xa4, 0xe7, 0x45, 0x5a },
 704:Source\mbedtls_open\library/gcm.c ****     { 0xab, 0x6e, 0x47, 0xd4, 0x2c, 0xec, 0x13, 0xbd,
 705:Source\mbedtls_open\library/gcm.c ****       0xf5, 0x3a, 0x67, 0xb2, 0x12, 0x57, 0xbd, 0xdf },
 706:Source\mbedtls_open\library/gcm.c ****     { 0x4d, 0x5c, 0x2a, 0xf3, 0x27, 0xcd, 0x64, 0xa6,
 707:Source\mbedtls_open\library/gcm.c ****       0x2c, 0xf3, 0x5a, 0xbd, 0x2b, 0xa6, 0xfa, 0xb4 },
 708:Source\mbedtls_open\library/gcm.c ****     { 0x5b, 0xc9, 0x4f, 0xbc, 0x32, 0x21, 0xa5, 0xdb,
 709:Source\mbedtls_open\library/gcm.c ****       0x94, 0xfa, 0xe9, 0x5a, 0xe7, 0x12, 0x1a, 0x47 },
 710:Source\mbedtls_open\library/gcm.c ****     { 0x36, 0x12, 0xd2, 0xe7, 0x9e, 0x3b, 0x07, 0x85,
 711:Source\mbedtls_open\library/gcm.c ****       0x56, 0x1b, 0xe1, 0x4a, 0xac, 0xa2, 0xfc, 0xcb },
 712:Source\mbedtls_open\library/gcm.c ****     { 0x61, 0x9c, 0xc5, 0xae, 0xff, 0xfe, 0x0b, 0xfa,
 713:Source\mbedtls_open\library/gcm.c ****       0x46, 0x2a, 0xf4, 0x3c, 0x16, 0x99, 0xd0, 0x50 },
 714:Source\mbedtls_open\library/gcm.c ****     { 0xcd, 0x33, 0xb2, 0x8a, 0xc7, 0x73, 0xf7, 0x4b,
 715:Source\mbedtls_open\library/gcm.c ****       0xa0, 0x0e, 0xd1, 0xf3, 0x12, 0x57, 0x24, 0x35 },
 716:Source\mbedtls_open\library/gcm.c ****     { 0x2f, 0xf5, 0x8d, 0x80, 0x03, 0x39, 0x27, 0xab,
 717:Source\mbedtls_open\library/gcm.c ****       0x8e, 0xf4, 0xd4, 0x58, 0x75, 0x14, 0xf0, 0xfb },
 718:Source\mbedtls_open\library/gcm.c ****     { 0x99, 0x24, 0xa7, 0xc8, 0x58, 0x73, 0x36, 0xbf,
 719:Source\mbedtls_open\library/gcm.c ****       0xb1, 0x18, 0x02, 0x4d, 0xb8, 0x67, 0x4a, 0x14 },
 720:Source\mbedtls_open\library/gcm.c ****     { 0x25, 0x19, 0x49, 0x8e, 0x80, 0xf1, 0x47, 0x8f,
 721:Source\mbedtls_open\library/gcm.c ****       0x37, 0xba, 0x55, 0xbd, 0x6d, 0x27, 0x61, 0x8c },
 722:Source\mbedtls_open\library/gcm.c ****     { 0x65, 0xdc, 0xc5, 0x7f, 0xcf, 0x62, 0x3a, 0x24,
 723:Source\mbedtls_open\library/gcm.c ****       0x09, 0x4f, 0xcc, 0xa4, 0x0d, 0x35, 0x33, 0xf8 },
 724:Source\mbedtls_open\library/gcm.c ****     { 0xdc, 0xf5, 0x66, 0xff, 0x29, 0x1c, 0x25, 0xbb,
 725:Source\mbedtls_open\library/gcm.c ****       0xb8, 0x56, 0x8f, 0xc3, 0xd3, 0x76, 0xa6, 0xd9 },
 726:Source\mbedtls_open\library/gcm.c ****     { 0x53, 0x0f, 0x8a, 0xfb, 0xc7, 0x45, 0x36, 0xb9,
 727:Source\mbedtls_open\library/gcm.c ****       0xa9, 0x63, 0xb4, 0xf1, 0xc4, 0xcb, 0x73, 0x8b },
ARM GAS  C:\Users\Phuong\AppData\Local\Temp\ccINfzqY.s 			page 44


 728:Source\mbedtls_open\library/gcm.c ****     { 0xd0, 0xd1, 0xc8, 0xa7, 0x99, 0x99, 0x6b, 0xf0,
 729:Source\mbedtls_open\library/gcm.c ****       0x26, 0x5b, 0x98, 0xb5, 0xd4, 0x8a, 0xb9, 0x19 },
 730:Source\mbedtls_open\library/gcm.c ****     { 0xb0, 0x94, 0xda, 0xc5, 0xd9, 0x34, 0x71, 0xbd,
 731:Source\mbedtls_open\library/gcm.c ****       0xec, 0x1a, 0x50, 0x22, 0x70, 0xe3, 0xcc, 0x6c },
 732:Source\mbedtls_open\library/gcm.c ****     { 0x76, 0xfc, 0x6e, 0xce, 0x0f, 0x4e, 0x17, 0x68,
 733:Source\mbedtls_open\library/gcm.c ****       0xcd, 0xdf, 0x88, 0x53, 0xbb, 0x2d, 0x55, 0x1b },
 734:Source\mbedtls_open\library/gcm.c ****     { 0x3a, 0x33, 0x7d, 0xbf, 0x46, 0xa7, 0x92, 0xc4,
 735:Source\mbedtls_open\library/gcm.c ****       0x5e, 0x45, 0x49, 0x13, 0xfe, 0x2e, 0xa8, 0xf2 },
 736:Source\mbedtls_open\library/gcm.c ****     { 0xa4, 0x4a, 0x82, 0x66, 0xee, 0x1c, 0x8e, 0xb0,
 737:Source\mbedtls_open\library/gcm.c ****       0xc8, 0xb5, 0xd4, 0xcf, 0x5a, 0xe9, 0xf1, 0x9a },
 738:Source\mbedtls_open\library/gcm.c **** };
 739:Source\mbedtls_open\library/gcm.c **** 
 740:Source\mbedtls_open\library/gcm.c **** int mbedtls_gcm_self_test( int verbose )
 741:Source\mbedtls_open\library/gcm.c **** {
 1653              		.loc 1 741 0
 1654              		.cfi_startproc
 1655              		@ args = 0, pretend = 0, frame = 496
 1656              		@ frame_needed = 0, uses_anonymous_args = 0
 1657              	.LVL223:
 1658 0000 F0B5     		push	{r4, r5, r6, r7, lr}
 1659              		.cfi_def_cfa_offset 20
 1660              		.cfi_offset 4, -20
 1661              		.cfi_offset 5, -16
 1662              		.cfi_offset 6, -12
 1663              		.cfi_offset 7, -8
 1664              		.cfi_offset 14, -4
 1665 0002 5F46     		mov	r7, fp
 1666 0004 5646     		mov	r6, r10
 1667 0006 4D46     		mov	r5, r9
 1668 0008 4446     		mov	r4, r8
 1669 000a F0B4     		push	{r4, r5, r6, r7}
 1670              		.cfi_def_cfa_offset 36
 1671              		.cfi_offset 8, -36
 1672              		.cfi_offset 9, -32
 1673              		.cfi_offset 10, -28
 1674              		.cfi_offset 11, -24
 1675 000c C54C     		ldr	r4, .L131
 1676 000e A544     		add	sp, sp, r4
 1677              		.cfi_def_cfa_offset 568
 1678              	.LVL224:
 742:Source\mbedtls_open\library/gcm.c ****     mbedtls_gcm_context ctx;
 743:Source\mbedtls_open\library/gcm.c ****     unsigned char buf[64];
 744:Source\mbedtls_open\library/gcm.c ****     unsigned char tag_buf[16];
 745:Source\mbedtls_open\library/gcm.c ****     int i, j, ret;
 746:Source\mbedtls_open\library/gcm.c ****     mbedtls_cipher_id_t cipher = MBEDTLS_CIPHER_ID_AES;
 747:Source\mbedtls_open\library/gcm.c **** 
 748:Source\mbedtls_open\library/gcm.c ****     for( j = 0; j < 3; j++ )
 1679              		.loc 1 748 0
 1680 0010 0023     		movs	r3, #0
 1681 0012 9946     		mov	r9, r3
 1682 0014 8246     		mov	r10, r0
 1683 0016 D6E1     		b	.L87
 1684              	.LVL225:
 1685              	.L105:
 1686              	.LBB4:
 749:Source\mbedtls_open\library/gcm.c ****     {
 750:Source\mbedtls_open\library/gcm.c ****         int key_len = 128 + 64 * j;
ARM GAS  C:\Users\Phuong\AppData\Local\Temp\ccINfzqY.s 			page 45


 1687              		.loc 1 750 0
 1688 0018 4B46     		mov	r3, r9
 1689              	.LVL226:
 1690 001a 0233     		adds	r3, r3, #2
 1691 001c 9B01     		lsls	r3, r3, #6
 1692 001e 0993     		str	r3, [sp, #36]
 1693              	.LVL227:
 751:Source\mbedtls_open\library/gcm.c **** 
 752:Source\mbedtls_open\library/gcm.c ****         for( i = 0; i < MAX_TESTS; i++ )
 1694              		.loc 1 752 0
 1695 0020 0024     		movs	r4, #0
 1696 0022 CAE1     		b	.L88
 1697              	.LVL228:
 1698              	.L104:
 753:Source\mbedtls_open\library/gcm.c ****         {
 754:Source\mbedtls_open\library/gcm.c ****             mbedtls_gcm_init( &ctx );
 1699              		.loc 1 754 0
 1700 0024 22A8     		add	r0, sp, #136
 1701 0026 FFF7FEFF 		bl	mbedtls_gcm_init
 1702              	.LVL229:
 755:Source\mbedtls_open\library/gcm.c **** 
 756:Source\mbedtls_open\library/gcm.c ****             if( verbose != 0 )
 1703              		.loc 1 756 0
 1704 002a 5346     		mov	r3, r10
 1705 002c 002B     		cmp	r3, #0
 1706 002e 05D0     		beq	.L89
 1707              	.LVL230:
 757:Source\mbedtls_open\library/gcm.c ****                 mbedtls_printf( "  AES-GCM-%3d #%d (%s): ",
 1708              		.loc 1 757 0
 1709 0030 BD4B     		ldr	r3, .L131+4
 1710              	.LVL231:
 1711 0032 2200     		movs	r2, r4
 1712 0034 0999     		ldr	r1, [sp, #36]
 1713 0036 BD48     		ldr	r0, .L131+8
 1714 0038 FFF7FEFF 		bl	printf
 1715              	.LVL232:
 1716              	.L89:
 758:Source\mbedtls_open\library/gcm.c ****                                 key_len, i, "enc" );
 759:Source\mbedtls_open\library/gcm.c **** 
 760:Source\mbedtls_open\library/gcm.c ****             ret = mbedtls_gcm_setkey( &ctx, cipher, key[key_index[i]],
 1717              		.loc 1 760 0
 1718 003c BC4B     		ldr	r3, .L131+12
 1719 003e A200     		lsls	r2, r4, #2
 1720 0040 D258     		ldr	r2, [r2, r3]
 1721 0042 1833     		adds	r3, r3, #24
 1722 0044 5201     		lsls	r2, r2, #5
 1723 0046 9B18     		adds	r3, r3, r2
 1724 0048 1A00     		movs	r2, r3
 1725 004a 0B93     		str	r3, [sp, #44]
 1726 004c 099B     		ldr	r3, [sp, #36]
 1727 004e 0221     		movs	r1, #2
 1728 0050 22A8     		add	r0, sp, #136
 1729 0052 FFF7FEFF 		bl	mbedtls_gcm_setkey
 1730              	.LVL233:
 761:Source\mbedtls_open\library/gcm.c ****                                       key_len );
 762:Source\mbedtls_open\library/gcm.c ****             /*
 763:Source\mbedtls_open\library/gcm.c ****              * AES-192 is an optional feature that may be unavailable when
ARM GAS  C:\Users\Phuong\AppData\Local\Temp\ccINfzqY.s 			page 46


 764:Source\mbedtls_open\library/gcm.c ****              * there is an alternative underlying implementation i.e. when
 765:Source\mbedtls_open\library/gcm.c ****              * MBEDTLS_AES_ALT is defined.
 766:Source\mbedtls_open\library/gcm.c ****              */
 767:Source\mbedtls_open\library/gcm.c ****             if( ret == MBEDTLS_ERR_AES_FEATURE_UNAVAILABLE && key_len == 192 )
 1731              		.loc 1 767 0
 1732 0056 0300     		movs	r3, r0
 1733 0058 2333     		adds	r3, r3, #35
 1734 005a 06D1     		bne	.L90
 1735              		.loc 1 767 0 is_stmt 0 discriminator 1
 1736 005c 099B     		ldr	r3, [sp, #36]
 1737 005e C02B     		cmp	r3, #192
 1738 0060 03D1     		bne	.L90
 768:Source\mbedtls_open\library/gcm.c ****             {
 769:Source\mbedtls_open\library/gcm.c ****                 mbedtls_printf( "skipped\n" );
 1739              		.loc 1 769 0 is_stmt 1
 1740 0062 B448     		ldr	r0, .L131+16
 1741              	.LVL234:
 1742 0064 FFF7FEFF 		bl	puts
 1743              	.LVL235:
 770:Source\mbedtls_open\library/gcm.c ****                 break;
 1744              		.loc 1 770 0
 1745 0068 AAE1     		b	.L91
 1746              	.LVL236:
 1747              	.L90:
 771:Source\mbedtls_open\library/gcm.c ****             }
 772:Source\mbedtls_open\library/gcm.c ****             else if( ret != 0 )
 1748              		.loc 1 772 0
 1749 006a 0028     		cmp	r0, #0
 1750 006c 00D0     		beq	.LCB1944
 1751 006e D0E1     		b	.L117	@long jump
 1752              	.LCB1944:
 773:Source\mbedtls_open\library/gcm.c ****             {
 774:Source\mbedtls_open\library/gcm.c ****                 goto exit;
 775:Source\mbedtls_open\library/gcm.c ****             }
 776:Source\mbedtls_open\library/gcm.c **** 
 777:Source\mbedtls_open\library/gcm.c ****             ret = mbedtls_gcm_crypt_and_tag( &ctx, MBEDTLS_GCM_ENCRYPT,
 1753              		.loc 1 777 0
 1754 0070 A300     		lsls	r3, r4, #2
 1755 0072 B14A     		ldr	r2, .L131+20
 1756 0074 D218     		adds	r2, r2, r3
 1757 0076 916D     		ldr	r1, [r2, #88]
 1758 0078 0800     		movs	r0, r1
 1759              	.LVL237:
 778:Source\mbedtls_open\library/gcm.c ****                                         pt_len[i],
 779:Source\mbedtls_open\library/gcm.c ****                                         iv[iv_index[i]], iv_len[i],
 1760              		.loc 1 779 0
 1761 007a 126F     		ldr	r2, [r2, #112]
 1762 007c 9201     		lsls	r2, r2, #6
 1763 007e AF49     		ldr	r1, .L131+24
 1764 0080 0831     		adds	r1, r1, #8
 1765 0082 8A18     		adds	r2, r1, r2
 1766 0084 1500     		movs	r5, r2
 1767 0086 0C92     		str	r2, [sp, #48]
 777:Source\mbedtls_open\library/gcm.c ****                                         pt_len[i],
 1768              		.loc 1 777 0
 1769 0088 AD4A     		ldr	r2, .L131+28
 1770 008a D118     		adds	r1, r2, r3
ARM GAS  C:\Users\Phuong\AppData\Local\Temp\ccINfzqY.s 			page 47


 1771 008c 8E68     		ldr	r6, [r1, #8]
 1772 008e B046     		mov	r8, r6
 780:Source\mbedtls_open\library/gcm.c ****                                         additional[add_index[i]], add_len[i],
 1773              		.loc 1 780 0
 1774 0090 0E6A     		ldr	r6, [r1, #32]
 1775 0092 3832     		adds	r2, r2, #56
 1776 0094 B601     		lsls	r6, r6, #6
 1777 0096 9619     		adds	r6, r2, r6
 777:Source\mbedtls_open\library/gcm.c ****                                         pt_len[i],
 1778              		.loc 1 777 0
 1779 0098 AA49     		ldr	r1, .L131+32
 1780 009a CB18     		adds	r3, r1, r3
 1781 009c 9A6B     		ldr	r2, [r3, #56]
 1782 009e 9346     		mov	fp, r2
 781:Source\mbedtls_open\library/gcm.c ****                                         pt[pt_index[i]], buf, 16, tag_buf );
 1783              		.loc 1 781 0
 1784 00a0 1A6D     		ldr	r2, [r3, #80]
 1785 00a2 6831     		adds	r1, r1, #104
 1786 00a4 9201     		lsls	r2, r2, #6
 1787 00a6 8B18     		adds	r3, r1, r2
 1788 00a8 1A00     		movs	r2, r3
 1789 00aa 0D93     		str	r3, [sp, #52]
 777:Source\mbedtls_open\library/gcm.c ****                                         pt_len[i],
 1790              		.loc 1 777 0
 1791 00ac 0EAB     		add	r3, sp, #56
 1792 00ae 0693     		str	r3, [sp, #24]
 1793 00b0 1023     		movs	r3, #16
 1794 00b2 0593     		str	r3, [sp, #20]
 1795 00b4 12AB     		add	r3, sp, #72
 1796 00b6 0493     		str	r3, [sp, #16]
 1797 00b8 0392     		str	r2, [sp, #12]
 1798 00ba 5B46     		mov	r3, fp
 1799 00bc 0293     		str	r3, [sp, #8]
 1800 00be 0196     		str	r6, [sp, #4]
 1801 00c0 4346     		mov	r3, r8
 1802 00c2 0093     		str	r3, [sp]
 1803 00c4 2B00     		movs	r3, r5
 1804 00c6 0A90     		str	r0, [sp, #40]
 1805 00c8 0200     		movs	r2, r0
 1806 00ca 0121     		movs	r1, #1
 1807 00cc 22A8     		add	r0, sp, #136
 1808 00ce FFF7FEFF 		bl	mbedtls_gcm_crypt_and_tag
 1809              	.LVL238:
 782:Source\mbedtls_open\library/gcm.c ****             if( ret != 0 )
 1810              		.loc 1 782 0
 1811 00d2 0028     		cmp	r0, #0
 1812 00d4 00D0     		beq	.LCB1999
 1813 00d6 9FE1     		b	.L118	@long jump
 1814              	.LCB1999:
 783:Source\mbedtls_open\library/gcm.c ****                 goto exit;
 784:Source\mbedtls_open\library/gcm.c **** 
 785:Source\mbedtls_open\library/gcm.c ****             if ( memcmp( buf, ct[j * 6 + i], pt_len[i] ) != 0 ||
 1815              		.loc 1 785 0
 1816 00d8 4B46     		mov	r3, r9
 1817 00da 5B00     		lsls	r3, r3, #1
 1818 00dc 4B44     		add	r3, r3, r9
 1819 00de 5D00     		lsls	r5, r3, #1
ARM GAS  C:\Users\Phuong\AppData\Local\Temp\ccINfzqY.s 			page 48


 1820 00e0 6519     		adds	r5, r4, r5
 1821 00e2 AA01     		lsls	r2, r5, #6
 1822 00e4 984B     		ldr	r3, .L131+36
 1823 00e6 6833     		adds	r3, r3, #104
 1824 00e8 9F18     		adds	r7, r3, r2
 1825 00ea 0A9A     		ldr	r2, [sp, #40]
 1826 00ec 3900     		movs	r1, r7
 1827 00ee 12A8     		add	r0, sp, #72
 1828              	.LVL239:
 1829 00f0 FFF7FEFF 		bl	memcmp
 1830              	.LVL240:
 1831 00f4 0028     		cmp	r0, #0
 1832 00f6 00D0     		beq	.LCB2017
 1833 00f8 71E1     		b	.L108	@long jump
 1834              	.LCB2017:
 786:Source\mbedtls_open\library/gcm.c ****                  memcmp( tag_buf, tag[j * 6 + i], 16 ) != 0 )
 1835              		.loc 1 786 0 discriminator 1
 1836 00fa 2D01     		lsls	r5, r5, #4
 1837 00fc 934B     		ldr	r3, .L131+40
 1838 00fe 6833     		adds	r3, r3, #104
 1839 0100 5D19     		adds	r5, r3, r5
 1840 0102 1022     		movs	r2, #16
 1841 0104 2900     		movs	r1, r5
 1842 0106 0EA8     		add	r0, sp, #56
 1843 0108 FFF7FEFF 		bl	memcmp
 1844              	.LVL241:
 785:Source\mbedtls_open\library/gcm.c ****                  memcmp( tag_buf, tag[j * 6 + i], 16 ) != 0 )
 1845              		.loc 1 785 0 discriminator 1
 1846 010c 0028     		cmp	r0, #0
 1847 010e 00D0     		beq	.LCB2028
 1848 0110 68E1     		b	.L109	@long jump
 1849              	.LCB2028:
 787:Source\mbedtls_open\library/gcm.c ****             {
 788:Source\mbedtls_open\library/gcm.c ****                 ret = 1;
 789:Source\mbedtls_open\library/gcm.c ****                 goto exit;
 790:Source\mbedtls_open\library/gcm.c ****             }
 791:Source\mbedtls_open\library/gcm.c **** 
 792:Source\mbedtls_open\library/gcm.c ****             mbedtls_gcm_free( &ctx );
 1850              		.loc 1 792 0
 1851 0112 22A8     		add	r0, sp, #136
 1852 0114 FFF7FEFF 		bl	mbedtls_gcm_free
 1853              	.LVL242:
 793:Source\mbedtls_open\library/gcm.c **** 
 794:Source\mbedtls_open\library/gcm.c ****             if( verbose != 0 )
 1854              		.loc 1 794 0
 1855 0118 5346     		mov	r3, r10
 1856 011a 002B     		cmp	r3, #0
 1857 011c 02D0     		beq	.L93
 1858              	.LVL243:
 795:Source\mbedtls_open\library/gcm.c ****                 mbedtls_printf( "passed\n" );
 1859              		.loc 1 795 0
 1860 011e 8C48     		ldr	r0, .L131+44
 1861 0120 FFF7FEFF 		bl	puts
 1862              	.LVL244:
 1863              	.L93:
 796:Source\mbedtls_open\library/gcm.c **** 
 797:Source\mbedtls_open\library/gcm.c ****             mbedtls_gcm_init( &ctx );
ARM GAS  C:\Users\Phuong\AppData\Local\Temp\ccINfzqY.s 			page 49


 1864              		.loc 1 797 0
 1865 0124 22A8     		add	r0, sp, #136
 1866 0126 FFF7FEFF 		bl	mbedtls_gcm_init
 1867              	.LVL245:
 798:Source\mbedtls_open\library/gcm.c **** 
 799:Source\mbedtls_open\library/gcm.c ****             if( verbose != 0 )
 1868              		.loc 1 799 0
 1869 012a 5346     		mov	r3, r10
 1870 012c 002B     		cmp	r3, #0
 1871 012e 05D0     		beq	.L94
 1872              	.LVL246:
 800:Source\mbedtls_open\library/gcm.c ****                 mbedtls_printf( "  AES-GCM-%3d #%d (%s): ",
 1873              		.loc 1 800 0
 1874 0130 884B     		ldr	r3, .L131+48
 1875              	.LVL247:
 1876 0132 2200     		movs	r2, r4
 1877 0134 0999     		ldr	r1, [sp, #36]
 1878 0136 7D48     		ldr	r0, .L131+8
 1879 0138 FFF7FEFF 		bl	printf
 1880              	.LVL248:
 1881              	.L94:
 801:Source\mbedtls_open\library/gcm.c ****                                 key_len, i, "dec" );
 802:Source\mbedtls_open\library/gcm.c **** 
 803:Source\mbedtls_open\library/gcm.c ****             ret = mbedtls_gcm_setkey( &ctx, cipher, key[key_index[i]],
 1882              		.loc 1 803 0
 1883 013c 099B     		ldr	r3, [sp, #36]
 1884 013e 0B9A     		ldr	r2, [sp, #44]
 1885 0140 0221     		movs	r1, #2
 1886 0142 22A8     		add	r0, sp, #136
 1887 0144 FFF7FEFF 		bl	mbedtls_gcm_setkey
 1888              	.LVL249:
 804:Source\mbedtls_open\library/gcm.c ****                                       key_len );
 805:Source\mbedtls_open\library/gcm.c ****             if( ret != 0 )
 1889              		.loc 1 805 0
 1890 0148 0028     		cmp	r0, #0
 1891 014a 00D0     		beq	.LCB2067
 1892 014c 67E1     		b	.L119	@long jump
 1893              	.LCB2067:
 806:Source\mbedtls_open\library/gcm.c ****                 goto exit;
 807:Source\mbedtls_open\library/gcm.c **** 
 808:Source\mbedtls_open\library/gcm.c ****             ret = mbedtls_gcm_crypt_and_tag( &ctx, MBEDTLS_GCM_DECRYPT,
 1894              		.loc 1 808 0
 1895 014e 0EAB     		add	r3, sp, #56
 1896 0150 0693     		str	r3, [sp, #24]
 1897 0152 1023     		movs	r3, #16
 1898 0154 0593     		str	r3, [sp, #20]
 1899 0156 12AB     		add	r3, sp, #72
 1900 0158 0493     		str	r3, [sp, #16]
 1901 015a 0397     		str	r7, [sp, #12]
 1902 015c 5B46     		mov	r3, fp
 1903 015e 0293     		str	r3, [sp, #8]
 1904 0160 0196     		str	r6, [sp, #4]
 1905 0162 4346     		mov	r3, r8
 1906 0164 0093     		str	r3, [sp]
 1907 0166 0C9B     		ldr	r3, [sp, #48]
 1908 0168 0A9A     		ldr	r2, [sp, #40]
 1909 016a 0021     		movs	r1, #0
ARM GAS  C:\Users\Phuong\AppData\Local\Temp\ccINfzqY.s 			page 50


 1910 016c 22A8     		add	r0, sp, #136
 1911              	.LVL250:
 1912 016e FFF7FEFF 		bl	mbedtls_gcm_crypt_and_tag
 1913              	.LVL251:
 809:Source\mbedtls_open\library/gcm.c ****                                         pt_len[i],
 810:Source\mbedtls_open\library/gcm.c ****                                         iv[iv_index[i]], iv_len[i],
 811:Source\mbedtls_open\library/gcm.c ****                                         additional[add_index[i]], add_len[i],
 812:Source\mbedtls_open\library/gcm.c ****                                         ct[j * 6 + i], buf, 16, tag_buf );
 813:Source\mbedtls_open\library/gcm.c **** 
 814:Source\mbedtls_open\library/gcm.c ****             if( ret != 0 )
 1914              		.loc 1 814 0
 1915 0172 0028     		cmp	r0, #0
 1916 0174 00D0     		beq	.LCB2091
 1917 0176 55E1     		b	.L120	@long jump
 1918              	.LCB2091:
 815:Source\mbedtls_open\library/gcm.c ****                 goto exit;
 816:Source\mbedtls_open\library/gcm.c **** 
 817:Source\mbedtls_open\library/gcm.c ****             if( memcmp( buf, pt[pt_index[i]], pt_len[i] ) != 0 ||
 1919              		.loc 1 817 0
 1920 0178 0A9A     		ldr	r2, [sp, #40]
 1921 017a 0D99     		ldr	r1, [sp, #52]
 1922 017c 12A8     		add	r0, sp, #72
 1923              	.LVL252:
 1924 017e FFF7FEFF 		bl	memcmp
 1925              	.LVL253:
 1926 0182 0028     		cmp	r0, #0
 1927 0184 00D0     		beq	.LCB2099
 1928 0186 30E1     		b	.L110	@long jump
 1929              	.LCB2099:
 818:Source\mbedtls_open\library/gcm.c ****                 memcmp( tag_buf, tag[j * 6 + i], 16 ) != 0 )
 1930              		.loc 1 818 0 discriminator 1
 1931 0188 1022     		movs	r2, #16
 1932 018a 2900     		movs	r1, r5
 1933 018c 0EA8     		add	r0, sp, #56
 1934 018e FFF7FEFF 		bl	memcmp
 1935              	.LVL254:
 817:Source\mbedtls_open\library/gcm.c ****                 memcmp( tag_buf, tag[j * 6 + i], 16 ) != 0 )
 1936              		.loc 1 817 0 discriminator 1
 1937 0192 0028     		cmp	r0, #0
 1938 0194 00D0     		beq	.LCB2106
 1939 0196 2BE1     		b	.L111	@long jump
 1940              	.LCB2106:
 819:Source\mbedtls_open\library/gcm.c ****             {
 820:Source\mbedtls_open\library/gcm.c ****                 ret = 1;
 821:Source\mbedtls_open\library/gcm.c ****                 goto exit;
 822:Source\mbedtls_open\library/gcm.c ****             }
 823:Source\mbedtls_open\library/gcm.c **** 
 824:Source\mbedtls_open\library/gcm.c ****             mbedtls_gcm_free( &ctx );
 1941              		.loc 1 824 0
 1942 0198 22A8     		add	r0, sp, #136
 1943 019a FFF7FEFF 		bl	mbedtls_gcm_free
 1944              	.LVL255:
 825:Source\mbedtls_open\library/gcm.c **** 
 826:Source\mbedtls_open\library/gcm.c ****             if( verbose != 0 )
 1945              		.loc 1 826 0
 1946 019e 5346     		mov	r3, r10
 1947 01a0 002B     		cmp	r3, #0
ARM GAS  C:\Users\Phuong\AppData\Local\Temp\ccINfzqY.s 			page 51


 1948 01a2 02D0     		beq	.L95
 1949              	.LVL256:
 827:Source\mbedtls_open\library/gcm.c ****                 mbedtls_printf( "passed\n" );
 1950              		.loc 1 827 0
 1951 01a4 6A48     		ldr	r0, .L131+44
 1952 01a6 FFF7FEFF 		bl	puts
 1953              	.LVL257:
 1954              	.L95:
 828:Source\mbedtls_open\library/gcm.c **** 
 829:Source\mbedtls_open\library/gcm.c ****             mbedtls_gcm_init( &ctx );
 1955              		.loc 1 829 0
 1956 01aa 22A8     		add	r0, sp, #136
 1957 01ac FFF7FEFF 		bl	mbedtls_gcm_init
 1958              	.LVL258:
 830:Source\mbedtls_open\library/gcm.c **** 
 831:Source\mbedtls_open\library/gcm.c ****             if( verbose != 0 )
 1959              		.loc 1 831 0
 1960 01b0 5346     		mov	r3, r10
 1961 01b2 002B     		cmp	r3, #0
 1962 01b4 05D0     		beq	.L96
 1963              	.LVL259:
 832:Source\mbedtls_open\library/gcm.c ****                 mbedtls_printf( "  AES-GCM-%3d #%d split (%s): ",
 1964              		.loc 1 832 0
 1965 01b6 5C4B     		ldr	r3, .L131+4
 1966              	.LVL260:
 1967 01b8 2200     		movs	r2, r4
 1968 01ba 0999     		ldr	r1, [sp, #36]
 1969 01bc 6648     		ldr	r0, .L131+52
 1970 01be FFF7FEFF 		bl	printf
 1971              	.LVL261:
 1972              	.L96:
 833:Source\mbedtls_open\library/gcm.c ****                                 key_len, i, "enc" );
 834:Source\mbedtls_open\library/gcm.c **** 
 835:Source\mbedtls_open\library/gcm.c ****             ret = mbedtls_gcm_setkey( &ctx, cipher, key[key_index[i]],
 1973              		.loc 1 835 0
 1974 01c2 099B     		ldr	r3, [sp, #36]
 1975 01c4 0B9A     		ldr	r2, [sp, #44]
 1976 01c6 0221     		movs	r1, #2
 1977 01c8 22A8     		add	r0, sp, #136
 1978 01ca FFF7FEFF 		bl	mbedtls_gcm_setkey
 1979              	.LVL262:
 836:Source\mbedtls_open\library/gcm.c ****                                       key_len );
 837:Source\mbedtls_open\library/gcm.c ****             if( ret != 0 )
 1980              		.loc 1 837 0
 1981 01ce 0028     		cmp	r0, #0
 1982 01d0 00D0     		beq	.LCB2145
 1983 01d2 2AE1     		b	.L121	@long jump
 1984              	.LCB2145:
 838:Source\mbedtls_open\library/gcm.c ****                 goto exit;
 839:Source\mbedtls_open\library/gcm.c **** 
 840:Source\mbedtls_open\library/gcm.c ****             ret = mbedtls_gcm_starts( &ctx, MBEDTLS_GCM_ENCRYPT,
 1985              		.loc 1 840 0
 1986 01d4 5B46     		mov	r3, fp
 1987 01d6 0193     		str	r3, [sp, #4]
 1988 01d8 0096     		str	r6, [sp]
 1989 01da 4346     		mov	r3, r8
 1990 01dc 0C9A     		ldr	r2, [sp, #48]
ARM GAS  C:\Users\Phuong\AppData\Local\Temp\ccINfzqY.s 			page 52


 1991 01de 0121     		movs	r1, #1
 1992 01e0 22A8     		add	r0, sp, #136
 1993              	.LVL263:
 1994 01e2 FFF7FEFF 		bl	mbedtls_gcm_starts
 1995              	.LVL264:
 841:Source\mbedtls_open\library/gcm.c ****                                       iv[iv_index[i]], iv_len[i],
 842:Source\mbedtls_open\library/gcm.c ****                                       additional[add_index[i]], add_len[i] );
 843:Source\mbedtls_open\library/gcm.c ****             if( ret != 0 )
 1996              		.loc 1 843 0
 1997 01e6 0028     		cmp	r0, #0
 1998 01e8 00D0     		beq	.LCB2158
 1999 01ea 21E1     		b	.L122	@long jump
 2000              	.LCB2158:
 844:Source\mbedtls_open\library/gcm.c ****                 goto exit;
 845:Source\mbedtls_open\library/gcm.c **** 
 846:Source\mbedtls_open\library/gcm.c ****             if( pt_len[i] > 32 )
 2001              		.loc 1 846 0
 2002 01ec 0A9B     		ldr	r3, [sp, #40]
 2003 01ee 202B     		cmp	r3, #32
 2004 01f0 17D9     		bls	.L97
 2005              	.LBB5:
 847:Source\mbedtls_open\library/gcm.c ****             {
 848:Source\mbedtls_open\library/gcm.c ****                 size_t rest_len = pt_len[i] - 32;
 2006              		.loc 1 848 0
 2007 01f2 1E00     		movs	r6, r3
 2008 01f4 203E     		subs	r6, r6, #32
 2009              	.LVL265:
 849:Source\mbedtls_open\library/gcm.c ****                 ret = mbedtls_gcm_update( &ctx, 32, pt[pt_index[i]], buf );
 2010              		.loc 1 849 0
 2011 01f6 12AB     		add	r3, sp, #72
 2012 01f8 0D9A     		ldr	r2, [sp, #52]
 2013 01fa 9046     		mov	r8, r2
 2014 01fc 2021     		movs	r1, #32
 2015 01fe 22A8     		add	r0, sp, #136
 2016              	.LVL266:
 2017 0200 FFF7FEFF 		bl	mbedtls_gcm_update
 2018              	.LVL267:
 850:Source\mbedtls_open\library/gcm.c ****                 if( ret != 0 )
 2019              		.loc 1 850 0
 2020 0204 0028     		cmp	r0, #0
 2021 0206 00D0     		beq	.LCB2176
 2022 0208 15E1     		b	.L123	@long jump
 2023              	.LCB2176:
 851:Source\mbedtls_open\library/gcm.c ****                     goto exit;
 852:Source\mbedtls_open\library/gcm.c **** 
 853:Source\mbedtls_open\library/gcm.c ****                 ret = mbedtls_gcm_update( &ctx, rest_len, pt[pt_index[i]] + 32,
 2024              		.loc 1 853 0
 2025 020a 4246     		mov	r2, r8
 2026 020c 2032     		adds	r2, r2, #32
 2027 020e 1AAB     		add	r3, sp, #104
 2028 0210 3100     		movs	r1, r6
 2029 0212 22A8     		add	r0, sp, #136
 2030              	.LVL268:
 2031 0214 FFF7FEFF 		bl	mbedtls_gcm_update
 2032              	.LVL269:
 854:Source\mbedtls_open\library/gcm.c ****                                   buf + 32 );
 855:Source\mbedtls_open\library/gcm.c ****                 if( ret != 0 )
ARM GAS  C:\Users\Phuong\AppData\Local\Temp\ccINfzqY.s 			page 53


 2033              		.loc 1 855 0
 2034 0218 0028     		cmp	r0, #0
 2035 021a 0BD0     		beq	.L98
 2036 021c 0400     		movs	r4, r0
 2037              	.LVL270:
 2038 021e 5746     		mov	r7, r10
 2039              	.LBE5:
 2040              	.LBE4:
 2041 0220 20E1     		b	.L92
 2042              	.LVL271:
 2043              	.L97:
 2044              	.LBB7:
 856:Source\mbedtls_open\library/gcm.c ****                     goto exit;
 857:Source\mbedtls_open\library/gcm.c ****             }
 858:Source\mbedtls_open\library/gcm.c ****             else
 859:Source\mbedtls_open\library/gcm.c ****             {
 860:Source\mbedtls_open\library/gcm.c ****                 ret = mbedtls_gcm_update( &ctx, pt_len[i], pt[pt_index[i]], buf );
 2045              		.loc 1 860 0
 2046 0222 12AB     		add	r3, sp, #72
 2047 0224 0D9A     		ldr	r2, [sp, #52]
 2048 0226 0A99     		ldr	r1, [sp, #40]
 2049 0228 22A8     		add	r0, sp, #136
 2050              	.LVL272:
 2051 022a FFF7FEFF 		bl	mbedtls_gcm_update
 2052              	.LVL273:
 861:Source\mbedtls_open\library/gcm.c ****                 if( ret != 0 )
 2053              		.loc 1 861 0
 2054 022e 0028     		cmp	r0, #0
 2055 0230 00D0     		beq	.LCB2211
 2056 0232 03E1     		b	.L124	@long jump
 2057              	.LCB2211:
 2058              	.L98:
 862:Source\mbedtls_open\library/gcm.c ****                     goto exit;
 863:Source\mbedtls_open\library/gcm.c ****             }
 864:Source\mbedtls_open\library/gcm.c **** 
 865:Source\mbedtls_open\library/gcm.c ****             ret = mbedtls_gcm_finish( &ctx, tag_buf, 16 );
 2059              		.loc 1 865 0
 2060 0234 1022     		movs	r2, #16
 2061 0236 0EA9     		add	r1, sp, #56
 2062 0238 22A8     		add	r0, sp, #136
 2063              	.LVL274:
 2064 023a FFF7FEFF 		bl	mbedtls_gcm_finish
 2065              	.LVL275:
 866:Source\mbedtls_open\library/gcm.c ****             if( ret != 0 )
 2066              		.loc 1 866 0
 2067 023e 0028     		cmp	r0, #0
 2068 0240 00D0     		beq	.LCB2222
 2069 0242 FEE0     		b	.L125	@long jump
 2070              	.LCB2222:
 867:Source\mbedtls_open\library/gcm.c ****                 goto exit;
 868:Source\mbedtls_open\library/gcm.c **** 
 869:Source\mbedtls_open\library/gcm.c ****             if( memcmp( buf, ct[j * 6 + i], pt_len[i] ) != 0 ||
 2071              		.loc 1 869 0
 2072 0244 A300     		lsls	r3, r4, #2
 2073 0246 3C4A     		ldr	r2, .L131+20
 2074 0248 D318     		adds	r3, r2, r3
 2075 024a 9E6D     		ldr	r6, [r3, #88]
ARM GAS  C:\Users\Phuong\AppData\Local\Temp\ccINfzqY.s 			page 54


 2076 024c 3200     		movs	r2, r6
 2077 024e 3900     		movs	r1, r7
 2078 0250 12A8     		add	r0, sp, #72
 2079              	.LVL276:
 2080 0252 FFF7FEFF 		bl	memcmp
 2081              	.LVL277:
 2082 0256 0028     		cmp	r0, #0
 2083 0258 00D0     		beq	.LCB2234
 2084 025a CCE0     		b	.L112	@long jump
 2085              	.LCB2234:
 870:Source\mbedtls_open\library/gcm.c ****                 memcmp( tag_buf, tag[j * 6 + i], 16 ) != 0 )
 2086              		.loc 1 870 0 discriminator 1
 2087 025c 1022     		movs	r2, #16
 2088 025e 2900     		movs	r1, r5
 2089 0260 0EA8     		add	r0, sp, #56
 2090 0262 FFF7FEFF 		bl	memcmp
 2091              	.LVL278:
 869:Source\mbedtls_open\library/gcm.c ****                 memcmp( tag_buf, tag[j * 6 + i], 16 ) != 0 )
 2092              		.loc 1 869 0 discriminator 1
 2093 0266 0028     		cmp	r0, #0
 2094 0268 00D0     		beq	.LCB2241
 2095 026a C7E0     		b	.L113	@long jump
 2096              	.LCB2241:
 871:Source\mbedtls_open\library/gcm.c ****             {
 872:Source\mbedtls_open\library/gcm.c ****                 ret = 1;
 873:Source\mbedtls_open\library/gcm.c ****                 goto exit;
 874:Source\mbedtls_open\library/gcm.c ****             }
 875:Source\mbedtls_open\library/gcm.c **** 
 876:Source\mbedtls_open\library/gcm.c ****             mbedtls_gcm_free( &ctx );
 2097              		.loc 1 876 0
 2098 026c 22A8     		add	r0, sp, #136
 2099 026e FFF7FEFF 		bl	mbedtls_gcm_free
 2100              	.LVL279:
 877:Source\mbedtls_open\library/gcm.c **** 
 878:Source\mbedtls_open\library/gcm.c ****             if( verbose != 0 )
 2101              		.loc 1 878 0
 2102 0272 5346     		mov	r3, r10
 2103 0274 002B     		cmp	r3, #0
 2104 0276 02D0     		beq	.L99
 2105              	.LVL280:
 879:Source\mbedtls_open\library/gcm.c ****                 mbedtls_printf( "passed\n" );
 2106              		.loc 1 879 0
 2107 0278 3548     		ldr	r0, .L131+44
 2108 027a FFF7FEFF 		bl	puts
 2109              	.LVL281:
 2110              	.L99:
 880:Source\mbedtls_open\library/gcm.c **** 
 881:Source\mbedtls_open\library/gcm.c ****             mbedtls_gcm_init( &ctx );
 2111              		.loc 1 881 0
 2112 027e 22A8     		add	r0, sp, #136
 2113 0280 FFF7FEFF 		bl	mbedtls_gcm_init
 2114              	.LVL282:
 882:Source\mbedtls_open\library/gcm.c **** 
 883:Source\mbedtls_open\library/gcm.c ****             if( verbose != 0 )
 2115              		.loc 1 883 0
 2116 0284 5346     		mov	r3, r10
 2117 0286 002B     		cmp	r3, #0
ARM GAS  C:\Users\Phuong\AppData\Local\Temp\ccINfzqY.s 			page 55


 2118 0288 05D0     		beq	.L100
 2119              	.LVL283:
 884:Source\mbedtls_open\library/gcm.c ****                 mbedtls_printf( "  AES-GCM-%3d #%d split (%s): ",
 2120              		.loc 1 884 0
 2121 028a 324B     		ldr	r3, .L131+48
 2122              	.LVL284:
 2123 028c 2200     		movs	r2, r4
 2124 028e 0999     		ldr	r1, [sp, #36]
 2125 0290 3148     		ldr	r0, .L131+52
 2126 0292 FFF7FEFF 		bl	printf
 2127              	.LVL285:
 2128              	.L100:
 885:Source\mbedtls_open\library/gcm.c ****                                 key_len, i, "dec" );
 886:Source\mbedtls_open\library/gcm.c **** 
 887:Source\mbedtls_open\library/gcm.c ****             ret = mbedtls_gcm_setkey( &ctx, cipher, key[key_index[i]],
 2129              		.loc 1 887 0
 2130 0296 264B     		ldr	r3, .L131+12
 2131 0298 A200     		lsls	r2, r4, #2
 2132 029a D258     		ldr	r2, [r2, r3]
 2133 029c 1833     		adds	r3, r3, #24
 2134 029e 5201     		lsls	r2, r2, #5
 2135 02a0 9A18     		adds	r2, r3, r2
 2136 02a2 099B     		ldr	r3, [sp, #36]
 2137 02a4 0221     		movs	r1, #2
 2138 02a6 22A8     		add	r0, sp, #136
 2139 02a8 FFF7FEFF 		bl	mbedtls_gcm_setkey
 2140              	.LVL286:
 888:Source\mbedtls_open\library/gcm.c ****                                       key_len );
 889:Source\mbedtls_open\library/gcm.c ****             if( ret != 0 )
 2141              		.loc 1 889 0
 2142 02ac 0028     		cmp	r0, #0
 2143 02ae 00D0     		beq	.LCB2285
 2144 02b0 CAE0     		b	.L126	@long jump
 2145              	.LCB2285:
 890:Source\mbedtls_open\library/gcm.c ****                 goto exit;
 891:Source\mbedtls_open\library/gcm.c **** 
 892:Source\mbedtls_open\library/gcm.c ****             ret = mbedtls_gcm_starts( &ctx, MBEDTLS_GCM_DECRYPT,
 893:Source\mbedtls_open\library/gcm.c ****                               iv[iv_index[i]], iv_len[i],
 2146              		.loc 1 893 0
 2147 02b2 A100     		lsls	r1, r4, #2
 2148 02b4 204B     		ldr	r3, .L131+20
 2149 02b6 5B18     		adds	r3, r3, r1
 2150 02b8 1A6F     		ldr	r2, [r3, #112]
 2151 02ba 9301     		lsls	r3, r2, #6
 2152 02bc 1F4A     		ldr	r2, .L131+24
 2153 02be 0832     		adds	r2, r2, #8
 2154 02c0 D218     		adds	r2, r2, r3
 892:Source\mbedtls_open\library/gcm.c ****                               iv[iv_index[i]], iv_len[i],
 2155              		.loc 1 892 0
 2156 02c2 1F4B     		ldr	r3, .L131+28
 2157 02c4 9C46     		mov	ip, r3
 2158 02c6 5818     		adds	r0, r3, r1
 2159              	.LVL287:
 2160 02c8 8368     		ldr	r3, [r0, #8]
 2161 02ca 9B46     		mov	fp, r3
 894:Source\mbedtls_open\library/gcm.c ****                               additional[add_index[i]], add_len[i] );
 2162              		.loc 1 894 0
ARM GAS  C:\Users\Phuong\AppData\Local\Temp\ccINfzqY.s 			page 56


 2163 02cc 006A     		ldr	r0, [r0, #32]
 2164 02ce 3823     		movs	r3, #56
 2165 02d0 9846     		mov	r8, r3
 2166 02d2 C444     		add	ip, ip, r8
 2167 02d4 8001     		lsls	r0, r0, #6
 2168 02d6 6044     		add	r0, r0, ip
 892:Source\mbedtls_open\library/gcm.c ****                               iv[iv_index[i]], iv_len[i],
 2169              		.loc 1 892 0
 2170 02d8 1A4B     		ldr	r3, .L131+32
 2171 02da 9C46     		mov	ip, r3
 2172 02dc 6144     		add	r1, r1, ip
 2173 02de 8B6B     		ldr	r3, [r1, #56]
 2174 02e0 0193     		str	r3, [sp, #4]
 2175 02e2 0090     		str	r0, [sp]
 2176 02e4 5B46     		mov	r3, fp
 2177 02e6 0021     		movs	r1, #0
 2178 02e8 22A8     		add	r0, sp, #136
 2179 02ea FFF7FEFF 		bl	mbedtls_gcm_starts
 2180              	.LVL288:
 895:Source\mbedtls_open\library/gcm.c ****             if( ret != 0 )
 2181              		.loc 1 895 0
 2182 02ee 0028     		cmp	r0, #0
 2183 02f0 00D0     		beq	.LCB2320
 2184 02f2 ACE0     		b	.L127	@long jump
 2185              	.LCB2320:
 896:Source\mbedtls_open\library/gcm.c ****                 goto exit;
 897:Source\mbedtls_open\library/gcm.c **** 
 898:Source\mbedtls_open\library/gcm.c ****             if( pt_len[i] > 32 )
 2186              		.loc 1 898 0
 2187 02f4 202E     		cmp	r6, #32
 2188 02f6 31D9     		bls	.L101
 2189              	.LBB6:
 899:Source\mbedtls_open\library/gcm.c ****             {
 900:Source\mbedtls_open\library/gcm.c ****                 size_t rest_len = pt_len[i] - 32;
 2190              		.loc 1 900 0
 2191 02f8 203E     		subs	r6, r6, #32
 2192              	.LVL289:
 901:Source\mbedtls_open\library/gcm.c ****                 ret = mbedtls_gcm_update( &ctx, 32, ct[j * 6 + i], buf );
 2193              		.loc 1 901 0
 2194 02fa 12AB     		add	r3, sp, #72
 2195 02fc 3A00     		movs	r2, r7
 2196 02fe 2021     		movs	r1, #32
 2197 0300 22A8     		add	r0, sp, #136
 2198              	.LVL290:
 2199 0302 FFF7FEFF 		bl	mbedtls_gcm_update
 2200              	.LVL291:
 902:Source\mbedtls_open\library/gcm.c ****                 if( ret != 0 )
 2201              		.loc 1 902 0
 2202 0306 0028     		cmp	r0, #0
 2203 0308 00D0     		beq	.LCB2335
 2204 030a A3E0     		b	.L128	@long jump
 2205              	.LCB2335:
 903:Source\mbedtls_open\library/gcm.c ****                     goto exit;
 904:Source\mbedtls_open\library/gcm.c **** 
 905:Source\mbedtls_open\library/gcm.c ****                 ret = mbedtls_gcm_update( &ctx, rest_len, ct[j * 6 + i] + 32,
 2206              		.loc 1 905 0
 2207 030c 3A00     		movs	r2, r7
ARM GAS  C:\Users\Phuong\AppData\Local\Temp\ccINfzqY.s 			page 57


 2208 030e 2032     		adds	r2, r2, #32
 2209 0310 1AAB     		add	r3, sp, #104
 2210 0312 3100     		movs	r1, r6
 2211 0314 22A8     		add	r0, sp, #136
 2212              	.LVL292:
 2213 0316 FFF7FEFF 		bl	mbedtls_gcm_update
 2214              	.LVL293:
 906:Source\mbedtls_open\library/gcm.c ****                                           buf + 32 );
 907:Source\mbedtls_open\library/gcm.c ****                 if( ret != 0 )
 2215              		.loc 1 907 0
 2216 031a 0028     		cmp	r0, #0
 2217 031c 26D0     		beq	.L102
 2218 031e 0400     		movs	r4, r0
 2219              	.LVL294:
 2220 0320 5746     		mov	r7, r10
 2221              	.LBE6:
 2222              	.LBE7:
 2223 0322 9FE0     		b	.L92
 2224              	.L132:
 2225              		.align	2
 2226              	.L131:
 2227 0324 ECFDFFFF 		.word	-532
 2228 0328 00000000 		.word	.LC1
 2229 032c 04000000 		.word	.LC3
 2230 0330 80000000 		.word	.LANCHOR1
 2231 0334 20000000 		.word	.LC6
 2232 0338 00010000 		.word	.LANCHOR2
 2233 033c 80010000 		.word	.LANCHOR3
 2234 0340 00030000 		.word	.LANCHOR4
 2235 0344 80040000 		.word	.LANCHOR5
 2236 0348 00060000 		.word	.LANCHOR6
 2237 034c 800A0000 		.word	.LANCHOR7
 2238 0350 28000000 		.word	.LC14
 2239 0354 30000000 		.word	.LC16
 2240 0358 34000000 		.word	.LC18
 2241              	.LVL295:
 2242              	.L101:
 2243              	.LBB8:
 908:Source\mbedtls_open\library/gcm.c ****                     goto exit;
 909:Source\mbedtls_open\library/gcm.c ****             }
 910:Source\mbedtls_open\library/gcm.c ****             else
 911:Source\mbedtls_open\library/gcm.c ****             {
 912:Source\mbedtls_open\library/gcm.c ****                 ret = mbedtls_gcm_update( &ctx, pt_len[i], ct[j * 6 + i],
 2244              		.loc 1 912 0
 2245 035c 12AB     		add	r3, sp, #72
 2246 035e 3A00     		movs	r2, r7
 2247 0360 3100     		movs	r1, r6
 2248 0362 22A8     		add	r0, sp, #136
 2249              	.LVL296:
 2250 0364 FFF7FEFF 		bl	mbedtls_gcm_update
 2251              	.LVL297:
 913:Source\mbedtls_open\library/gcm.c ****                                           buf );
 914:Source\mbedtls_open\library/gcm.c ****                 if( ret != 0 )
 2252              		.loc 1 914 0
 2253 0368 0028     		cmp	r0, #0
 2254 036a 76D1     		bne	.L129
 2255              	.L102:
ARM GAS  C:\Users\Phuong\AppData\Local\Temp\ccINfzqY.s 			page 58


 915:Source\mbedtls_open\library/gcm.c ****                     goto exit;
 916:Source\mbedtls_open\library/gcm.c ****             }
 917:Source\mbedtls_open\library/gcm.c **** 
 918:Source\mbedtls_open\library/gcm.c ****             ret = mbedtls_gcm_finish( &ctx, tag_buf, 16 );
 2256              		.loc 1 918 0
 2257 036c 1022     		movs	r2, #16
 2258 036e 0EA9     		add	r1, sp, #56
 2259 0370 22A8     		add	r0, sp, #136
 2260              	.LVL298:
 2261 0372 FFF7FEFF 		bl	mbedtls_gcm_finish
 2262              	.LVL299:
 919:Source\mbedtls_open\library/gcm.c ****             if( ret != 0 )
 2263              		.loc 1 919 0
 2264 0376 0028     		cmp	r0, #0
 2265 0378 72D1     		bne	.L130
 920:Source\mbedtls_open\library/gcm.c ****                 goto exit;
 921:Source\mbedtls_open\library/gcm.c **** 
 922:Source\mbedtls_open\library/gcm.c ****             if( memcmp( buf, pt[pt_index[i]], pt_len[i] ) != 0 ||
 2266              		.loc 1 922 0
 2267 037a 444A     		ldr	r2, .L133
 2268 037c A300     		lsls	r3, r4, #2
 2269 037e D118     		adds	r1, r2, r3
 2270 0380 096D     		ldr	r1, [r1, #80]
 2271 0382 6832     		adds	r2, r2, #104
 2272 0384 8901     		lsls	r1, r1, #6
 2273 0386 5118     		adds	r1, r2, r1
 2274 0388 414A     		ldr	r2, .L133+4
 2275 038a D318     		adds	r3, r2, r3
 2276 038c 9A6D     		ldr	r2, [r3, #88]
 2277 038e 12A8     		add	r0, sp, #72
 2278              	.LVL300:
 2279 0390 FFF7FEFF 		bl	memcmp
 2280              	.LVL301:
 2281 0394 0028     		cmp	r0, #0
 2282 0396 34D1     		bne	.L114
 923:Source\mbedtls_open\library/gcm.c ****                 memcmp( tag_buf, tag[j * 6 + i], 16 ) != 0 )
 2283              		.loc 1 923 0 discriminator 1
 2284 0398 1022     		movs	r2, #16
 2285 039a 2900     		movs	r1, r5
 2286 039c 0EA8     		add	r0, sp, #56
 2287 039e FFF7FEFF 		bl	memcmp
 2288              	.LVL302:
 922:Source\mbedtls_open\library/gcm.c ****                 memcmp( tag_buf, tag[j * 6 + i], 16 ) != 0 )
 2289              		.loc 1 922 0 discriminator 1
 2290 03a2 0028     		cmp	r0, #0
 2291 03a4 30D1     		bne	.L115
 924:Source\mbedtls_open\library/gcm.c ****             {
 925:Source\mbedtls_open\library/gcm.c ****                 ret = 1;
 926:Source\mbedtls_open\library/gcm.c ****                 goto exit;
 927:Source\mbedtls_open\library/gcm.c ****             }
 928:Source\mbedtls_open\library/gcm.c **** 
 929:Source\mbedtls_open\library/gcm.c ****             mbedtls_gcm_free( &ctx );
 2292              		.loc 1 929 0
 2293 03a6 22A8     		add	r0, sp, #136
 2294 03a8 FFF7FEFF 		bl	mbedtls_gcm_free
 2295              	.LVL303:
 930:Source\mbedtls_open\library/gcm.c **** 
ARM GAS  C:\Users\Phuong\AppData\Local\Temp\ccINfzqY.s 			page 59


 931:Source\mbedtls_open\library/gcm.c ****             if( verbose != 0 )
 2296              		.loc 1 931 0
 2297 03ac 5346     		mov	r3, r10
 2298 03ae 002B     		cmp	r3, #0
 2299 03b0 02D0     		beq	.L103
 2300              	.LVL304:
 932:Source\mbedtls_open\library/gcm.c ****                 mbedtls_printf( "passed\n" );
 2301              		.loc 1 932 0
 2302 03b2 3848     		ldr	r0, .L133+8
 2303 03b4 FFF7FEFF 		bl	puts
 2304              	.LVL305:
 2305              	.L103:
 752:Source\mbedtls_open\library/gcm.c ****         {
 2306              		.loc 1 752 0 discriminator 2
 2307 03b8 0134     		adds	r4, r4, #1
 2308              	.LVL306:
 2309              	.L88:
 752:Source\mbedtls_open\library/gcm.c ****         {
 2310              		.loc 1 752 0 is_stmt 0 discriminator 1
 2311 03ba 052C     		cmp	r4, #5
 2312 03bc 00DC     		bgt	.LCB2448
 2313 03be 31E6     		b	.L104	@long jump
 2314              	.LCB2448:
 2315              	.L91:
 2316              	.LBE8:
 748:Source\mbedtls_open\library/gcm.c ****     {
 2317              		.loc 1 748 0 is_stmt 1 discriminator 2
 2318 03c0 0123     		movs	r3, #1
 2319 03c2 9C46     		mov	ip, r3
 2320 03c4 E144     		add	r9, r9, ip
 2321              	.LVL307:
 2322              	.L87:
 748:Source\mbedtls_open\library/gcm.c ****     {
 2323              		.loc 1 748 0 is_stmt 0 discriminator 1
 2324 03c6 4B46     		mov	r3, r9
 2325 03c8 022B     		cmp	r3, #2
 2326 03ca 00DC     		bgt	.LCB2464
 2327 03cc 24E6     		b	.L105	@long jump
 2328              	.LCB2464:
 2329 03ce 5746     		mov	r7, r10
 933:Source\mbedtls_open\library/gcm.c ****         }
 934:Source\mbedtls_open\library/gcm.c ****     }
 935:Source\mbedtls_open\library/gcm.c **** 
 936:Source\mbedtls_open\library/gcm.c ****     if( verbose != 0 )
 2330              		.loc 1 936 0 is_stmt 1
 2331 03d0 002F     		cmp	r7, #0
 2332 03d2 1CD0     		beq	.L116
 2333              	.LVL308:
 937:Source\mbedtls_open\library/gcm.c ****         mbedtls_printf( "\n" );
 2334              		.loc 1 937 0
 2335 03d4 0A20     		movs	r0, #10
 2336 03d6 FFF7FEFF 		bl	putchar
 2337              	.LVL309:
 938:Source\mbedtls_open\library/gcm.c **** 
 939:Source\mbedtls_open\library/gcm.c ****     ret = 0;
 2338              		.loc 1 939 0
 2339 03da 0024     		movs	r4, #0
ARM GAS  C:\Users\Phuong\AppData\Local\Temp\ccINfzqY.s 			page 60


 2340 03dc 42E0     		b	.L92
 2341              	.LVL310:
 2342              	.L108:
 2343 03de 5746     		mov	r7, r10
 2344              	.LBB9:
 788:Source\mbedtls_open\library/gcm.c ****                 goto exit;
 2345              		.loc 1 788 0
 2346 03e0 0124     		movs	r4, #1
 2347              	.LVL311:
 2348 03e2 3FE0     		b	.L92
 2349              	.LVL312:
 2350              	.L109:
 2351 03e4 5746     		mov	r7, r10
 2352 03e6 0124     		movs	r4, #1
 2353              	.LVL313:
 2354 03e8 3CE0     		b	.L92
 2355              	.LVL314:
 2356              	.L110:
 2357 03ea 5746     		mov	r7, r10
 820:Source\mbedtls_open\library/gcm.c ****                 goto exit;
 2358              		.loc 1 820 0
 2359 03ec 0124     		movs	r4, #1
 2360              	.LVL315:
 2361 03ee 39E0     		b	.L92
 2362              	.LVL316:
 2363              	.L111:
 2364 03f0 5746     		mov	r7, r10
 2365 03f2 0124     		movs	r4, #1
 2366              	.LVL317:
 2367 03f4 36E0     		b	.L92
 2368              	.LVL318:
 2369              	.L112:
 2370 03f6 5746     		mov	r7, r10
 872:Source\mbedtls_open\library/gcm.c ****                 goto exit;
 2371              		.loc 1 872 0
 2372 03f8 0124     		movs	r4, #1
 2373              	.LVL319:
 2374 03fa 33E0     		b	.L92
 2375              	.LVL320:
 2376              	.L113:
 2377 03fc 5746     		mov	r7, r10
 2378 03fe 0124     		movs	r4, #1
 2379              	.LVL321:
 2380 0400 30E0     		b	.L92
 2381              	.LVL322:
 2382              	.L114:
 2383 0402 5746     		mov	r7, r10
 925:Source\mbedtls_open\library/gcm.c ****                 goto exit;
 2384              		.loc 1 925 0
 2385 0404 0124     		movs	r4, #1
 2386              	.LVL323:
 2387 0406 2DE0     		b	.L92
 2388              	.LVL324:
 2389              	.L115:
 2390 0408 5746     		mov	r7, r10
 2391 040a 0124     		movs	r4, #1
 2392              	.LVL325:
ARM GAS  C:\Users\Phuong\AppData\Local\Temp\ccINfzqY.s 			page 61


 2393 040c 2AE0     		b	.L92
 2394              	.LVL326:
 2395              	.L116:
 2396              	.LBE9:
 2397              		.loc 1 939 0
 2398 040e 0024     		movs	r4, #0
 2399 0410 28E0     		b	.L92
 2400              	.LVL327:
 2401              	.L117:
 2402 0412 0400     		movs	r4, r0
 2403              	.LVL328:
 2404 0414 5746     		mov	r7, r10
 2405 0416 25E0     		b	.L92
 2406              	.LVL329:
 2407              	.L118:
 2408 0418 0400     		movs	r4, r0
 2409              	.LVL330:
 2410 041a 5746     		mov	r7, r10
 2411 041c 22E0     		b	.L92
 2412              	.LVL331:
 2413              	.L119:
 2414 041e 0400     		movs	r4, r0
 2415              	.LVL332:
 2416 0420 5746     		mov	r7, r10
 2417 0422 1FE0     		b	.L92
 2418              	.LVL333:
 2419              	.L120:
 2420 0424 0400     		movs	r4, r0
 2421              	.LVL334:
 2422 0426 5746     		mov	r7, r10
 2423 0428 1CE0     		b	.L92
 2424              	.LVL335:
 2425              	.L121:
 2426 042a 0400     		movs	r4, r0
 2427              	.LVL336:
 2428 042c 5746     		mov	r7, r10
 2429 042e 19E0     		b	.L92
 2430              	.LVL337:
 2431              	.L122:
 2432 0430 0400     		movs	r4, r0
 2433              	.LVL338:
 2434 0432 5746     		mov	r7, r10
 2435 0434 16E0     		b	.L92
 2436              	.LVL339:
 2437              	.L123:
 2438 0436 0400     		movs	r4, r0
 2439              	.LVL340:
 2440 0438 5746     		mov	r7, r10
 2441 043a 13E0     		b	.L92
 2442              	.LVL341:
 2443              	.L124:
 2444 043c 0400     		movs	r4, r0
 2445              	.LVL342:
 2446 043e 5746     		mov	r7, r10
 2447 0440 10E0     		b	.L92
 2448              	.LVL343:
 2449              	.L125:
ARM GAS  C:\Users\Phuong\AppData\Local\Temp\ccINfzqY.s 			page 62


 2450 0442 0400     		movs	r4, r0
 2451              	.LVL344:
 2452 0444 5746     		mov	r7, r10
 2453 0446 0DE0     		b	.L92
 2454              	.LVL345:
 2455              	.L126:
 2456 0448 0400     		movs	r4, r0
 2457              	.LVL346:
 2458 044a 5746     		mov	r7, r10
 2459 044c 0AE0     		b	.L92
 2460              	.LVL347:
 2461              	.L127:
 2462 044e 0400     		movs	r4, r0
 2463              	.LVL348:
 2464 0450 5746     		mov	r7, r10
 2465 0452 07E0     		b	.L92
 2466              	.LVL349:
 2467              	.L128:
 2468 0454 0400     		movs	r4, r0
 2469              	.LVL350:
 2470 0456 5746     		mov	r7, r10
 2471 0458 04E0     		b	.L92
 2472              	.LVL351:
 2473              	.L129:
 2474 045a 0400     		movs	r4, r0
 2475              	.LVL352:
 2476 045c 5746     		mov	r7, r10
 2477 045e 01E0     		b	.L92
 2478              	.LVL353:
 2479              	.L130:
 2480 0460 0400     		movs	r4, r0
 2481              	.LVL354:
 2482 0462 5746     		mov	r7, r10
 2483              	.LVL355:
 2484              	.L92:
 940:Source\mbedtls_open\library/gcm.c **** 
 941:Source\mbedtls_open\library/gcm.c **** exit:
 942:Source\mbedtls_open\library/gcm.c ****     if( ret != 0 )
 2485              		.loc 1 942 0
 2486 0464 002C     		cmp	r4, #0
 2487 0466 07D0     		beq	.L106
 943:Source\mbedtls_open\library/gcm.c ****     {
 944:Source\mbedtls_open\library/gcm.c ****         if( verbose != 0 )
 2488              		.loc 1 944 0
 2489 0468 002F     		cmp	r7, #0
 2490 046a 02D0     		beq	.L107
 945:Source\mbedtls_open\library/gcm.c ****             mbedtls_printf( "failed\n" );
 2491              		.loc 1 945 0
 2492 046c 0A48     		ldr	r0, .L133+12
 2493 046e FFF7FEFF 		bl	puts
 2494              	.LVL356:
 2495              	.L107:
 946:Source\mbedtls_open\library/gcm.c ****         mbedtls_gcm_free( &ctx );
 2496              		.loc 1 946 0
 2497 0472 22A8     		add	r0, sp, #136
 2498 0474 FFF7FEFF 		bl	mbedtls_gcm_free
 2499              	.LVL357:
ARM GAS  C:\Users\Phuong\AppData\Local\Temp\ccINfzqY.s 			page 63


 2500              	.L106:
 947:Source\mbedtls_open\library/gcm.c ****     }
 948:Source\mbedtls_open\library/gcm.c **** 
 949:Source\mbedtls_open\library/gcm.c ****     return( ret );
 950:Source\mbedtls_open\library/gcm.c **** }
 2501              		.loc 1 950 0
 2502 0478 2000     		movs	r0, r4
 2503 047a 8523     		movs	r3, #133
 2504 047c 9B00     		lsls	r3, r3, #2
 2505 047e 9D44     		add	sp, sp, r3
 2506              		@ sp needed
 2507              	.LVL358:
 2508              	.LVL359:
 2509              	.LVL360:
 2510              	.LVL361:
 2511 0480 3CBC     		pop	{r2, r3, r4, r5}
 2512 0482 9046     		mov	r8, r2
 2513 0484 9946     		mov	r9, r3
 2514 0486 A246     		mov	r10, r4
 2515 0488 AB46     		mov	fp, r5
 2516 048a F0BD     		pop	{r4, r5, r6, r7, pc}
 2517              	.L134:
 2518              		.align	2
 2519              	.L133:
 2520 048c 80040000 		.word	.LANCHOR5
 2521 0490 00010000 		.word	.LANCHOR2
 2522 0494 28000000 		.word	.LC14
 2523 0498 54000000 		.word	.LC20
 2524              		.cfi_endproc
 2525              	.LFE18:
 2526              		.size	mbedtls_gcm_self_test, .-mbedtls_gcm_self_test
 2527              		.section	.rodata
 2528              		.align	3
 2529              		.set	.LANCHOR0,. + 0
 2530              		.set	.LANCHOR1,. + 128
 2531              		.set	.LANCHOR2,. + 256
 2532              		.set	.LANCHOR3,. + 384
 2533              		.set	.LANCHOR4,. + 768
 2534              		.set	.LANCHOR5,. + 1152
 2535              		.set	.LANCHOR6,. + 1536
 2536              		.set	.LANCHOR7,. + 2688
 2537              		.type	last4, %object
 2538              		.size	last4, 128
 2539              	last4:
 2540 0000 00000000 		.word	0
 2541 0004 00000000 		.word	0
 2542 0008 201C0000 		.word	7200
 2543 000c 00000000 		.word	0
 2544 0010 40380000 		.word	14400
 2545 0014 00000000 		.word	0
 2546 0018 60240000 		.word	9312
 2547 001c 00000000 		.word	0
 2548 0020 80700000 		.word	28800
 2549 0024 00000000 		.word	0
 2550 0028 A06C0000 		.word	27808
 2551 002c 00000000 		.word	0
 2552 0030 C0480000 		.word	18624
ARM GAS  C:\Users\Phuong\AppData\Local\Temp\ccINfzqY.s 			page 64


 2553 0034 00000000 		.word	0
 2554 0038 E0540000 		.word	21728
 2555 003c 00000000 		.word	0
 2556 0040 00E10000 		.word	57600
 2557 0044 00000000 		.word	0
 2558 0048 20FD0000 		.word	64800
 2559 004c 00000000 		.word	0
 2560 0050 40D90000 		.word	55616
 2561 0054 00000000 		.word	0
 2562 0058 60C50000 		.word	50528
 2563 005c 00000000 		.word	0
 2564 0060 80910000 		.word	37248
 2565 0064 00000000 		.word	0
 2566 0068 A08D0000 		.word	36256
 2567 006c 00000000 		.word	0
 2568 0070 C0A90000 		.word	43456
 2569 0074 00000000 		.word	0
 2570 0078 E0B50000 		.word	46560
 2571 007c 00000000 		.word	0
 2572              		.type	key_index, %object
 2573              		.size	key_index, 24
 2574              	key_index:
 2575 0080 00000000 		.word	0
 2576 0084 00000000 		.word	0
 2577 0088 01000000 		.word	1
 2578 008c 01000000 		.word	1
 2579 0090 01000000 		.word	1
 2580 0094 01000000 		.word	1
 2581              		.type	key, %object
 2582              		.size	key, 192
 2583              	key:
 2584 0098 00       		.byte	0
 2585 0099 00       		.byte	0
 2586 009a 00       		.byte	0
 2587 009b 00       		.byte	0
 2588 009c 00       		.byte	0
 2589 009d 00       		.byte	0
 2590 009e 00       		.byte	0
 2591 009f 00       		.byte	0
 2592 00a0 00       		.byte	0
 2593 00a1 00       		.byte	0
 2594 00a2 00       		.byte	0
 2595 00a3 00       		.byte	0
 2596 00a4 00       		.byte	0
 2597 00a5 00       		.byte	0
 2598 00a6 00       		.byte	0
 2599 00a7 00       		.byte	0
 2600 00a8 00       		.byte	0
 2601 00a9 00       		.byte	0
 2602 00aa 00       		.byte	0
 2603 00ab 00       		.byte	0
 2604 00ac 00       		.byte	0
 2605 00ad 00       		.byte	0
 2606 00ae 00       		.byte	0
 2607 00af 00       		.byte	0
 2608 00b0 00       		.byte	0
 2609 00b1 00       		.byte	0
ARM GAS  C:\Users\Phuong\AppData\Local\Temp\ccINfzqY.s 			page 65


 2610 00b2 00       		.byte	0
 2611 00b3 00       		.byte	0
 2612 00b4 00       		.byte	0
 2613 00b5 00       		.byte	0
 2614 00b6 00       		.byte	0
 2615 00b7 00       		.byte	0
 2616 00b8 FE       		.byte	-2
 2617 00b9 FF       		.byte	-1
 2618 00ba E9       		.byte	-23
 2619 00bb 92       		.byte	-110
 2620 00bc 86       		.byte	-122
 2621 00bd 65       		.byte	101
 2622 00be 73       		.byte	115
 2623 00bf 1C       		.byte	28
 2624 00c0 6D       		.byte	109
 2625 00c1 6A       		.byte	106
 2626 00c2 8F       		.byte	-113
 2627 00c3 94       		.byte	-108
 2628 00c4 67       		.byte	103
 2629 00c5 30       		.byte	48
 2630 00c6 83       		.byte	-125
 2631 00c7 08       		.byte	8
 2632 00c8 FE       		.byte	-2
 2633 00c9 FF       		.byte	-1
 2634 00ca E9       		.byte	-23
 2635 00cb 92       		.byte	-110
 2636 00cc 86       		.byte	-122
 2637 00cd 65       		.byte	101
 2638 00ce 73       		.byte	115
 2639 00cf 1C       		.byte	28
 2640 00d0 6D       		.byte	109
 2641 00d1 6A       		.byte	106
 2642 00d2 8F       		.byte	-113
 2643 00d3 94       		.byte	-108
 2644 00d4 67       		.byte	103
 2645 00d5 30       		.byte	48
 2646 00d6 83       		.byte	-125
 2647 00d7 08       		.byte	8
 2648 00d8 00000000 		.space	128
 2648      00000000 
 2648      00000000 
 2648      00000000 
 2648      00000000 
 2649              		.type	pt_len, %object
 2650              		.size	pt_len, 24
 2651              	pt_len:
 2652 0158 00000000 		.word	0
 2653 015c 10000000 		.word	16
 2654 0160 40000000 		.word	64
 2655 0164 3C000000 		.word	60
 2656 0168 3C000000 		.word	60
 2657 016c 3C000000 		.word	60
 2658              		.type	iv_index, %object
 2659              		.size	iv_index, 24
 2660              	iv_index:
 2661 0170 00000000 		.word	0
 2662 0174 00000000 		.word	0
ARM GAS  C:\Users\Phuong\AppData\Local\Temp\ccINfzqY.s 			page 66


 2663 0178 01000000 		.word	1
 2664 017c 01000000 		.word	1
 2665 0180 01000000 		.word	1
 2666 0184 02000000 		.word	2
 2667              		.type	iv, %object
 2668              		.size	iv, 384
 2669              	iv:
 2670 0188 00       		.byte	0
 2671 0189 00       		.byte	0
 2672 018a 00       		.byte	0
 2673 018b 00       		.byte	0
 2674 018c 00       		.byte	0
 2675 018d 00       		.byte	0
 2676 018e 00       		.byte	0
 2677 018f 00       		.byte	0
 2678 0190 00       		.byte	0
 2679 0191 00       		.byte	0
 2680 0192 00       		.byte	0
 2681 0193 00       		.byte	0
 2682 0194 00000000 		.space	52
 2682      00000000 
 2682      00000000 
 2682      00000000 
 2682      00000000 
 2683 01c8 CA       		.byte	-54
 2684 01c9 FE       		.byte	-2
 2685 01ca BA       		.byte	-70
 2686 01cb BE       		.byte	-66
 2687 01cc FA       		.byte	-6
 2688 01cd CE       		.byte	-50
 2689 01ce DB       		.byte	-37
 2690 01cf AD       		.byte	-83
 2691 01d0 DE       		.byte	-34
 2692 01d1 CA       		.byte	-54
 2693 01d2 F8       		.byte	-8
 2694 01d3 88       		.byte	-120
 2695 01d4 00000000 		.space	52
 2695      00000000 
 2695      00000000 
 2695      00000000 
 2695      00000000 
 2696 0208 93       		.byte	-109
 2697 0209 13       		.byte	19
 2698 020a 22       		.byte	34
 2699 020b 5D       		.byte	93
 2700 020c F8       		.byte	-8
 2701 020d 84       		.byte	-124
 2702 020e 06       		.byte	6
 2703 020f E5       		.byte	-27
 2704 0210 55       		.byte	85
 2705 0211 90       		.byte	-112
 2706 0212 9C       		.byte	-100
 2707 0213 5A       		.byte	90
 2708 0214 FF       		.byte	-1
 2709 0215 52       		.byte	82
 2710 0216 69       		.byte	105
 2711 0217 AA       		.byte	-86
ARM GAS  C:\Users\Phuong\AppData\Local\Temp\ccINfzqY.s 			page 67


 2712 0218 6A       		.byte	106
 2713 0219 7A       		.byte	122
 2714 021a 95       		.byte	-107
 2715 021b 38       		.byte	56
 2716 021c 53       		.byte	83
 2717 021d 4F       		.byte	79
 2718 021e 7D       		.byte	125
 2719 021f A1       		.byte	-95
 2720 0220 E4       		.byte	-28
 2721 0221 C3       		.byte	-61
 2722 0222 03       		.byte	3
 2723 0223 D2       		.byte	-46
 2724 0224 A3       		.byte	-93
 2725 0225 18       		.byte	24
 2726 0226 A7       		.byte	-89
 2727 0227 28       		.byte	40
 2728 0228 C3       		.byte	-61
 2729 0229 C0       		.byte	-64
 2730 022a C9       		.byte	-55
 2731 022b 51       		.byte	81
 2732 022c 56       		.byte	86
 2733 022d 80       		.byte	-128
 2734 022e 95       		.byte	-107
 2735 022f 39       		.byte	57
 2736 0230 FC       		.byte	-4
 2737 0231 F0       		.byte	-16
 2738 0232 E2       		.byte	-30
 2739 0233 42       		.byte	66
 2740 0234 9A       		.byte	-102
 2741 0235 6B       		.byte	107
 2742 0236 52       		.byte	82
 2743 0237 54       		.byte	84
 2744 0238 16       		.byte	22
 2745 0239 AE       		.byte	-82
 2746 023a DB       		.byte	-37
 2747 023b F5       		.byte	-11
 2748 023c A0       		.byte	-96
 2749 023d DE       		.byte	-34
 2750 023e 6A       		.byte	106
 2751 023f 57       		.byte	87
 2752 0240 A6       		.byte	-90
 2753 0241 37       		.byte	55
 2754 0242 B3       		.byte	-77
 2755 0243 9B       		.byte	-101
 2756 0244 00000000 		.space	4
 2757 0248 00000000 		.space	192
 2757      00000000 
 2757      00000000 
 2757      00000000 
 2757      00000000 
 2758              		.type	iv_len, %object
 2759              		.size	iv_len, 24
 2760              	iv_len:
 2761 0308 0C000000 		.word	12
 2762 030c 0C000000 		.word	12
 2763 0310 0C000000 		.word	12
 2764 0314 0C000000 		.word	12
ARM GAS  C:\Users\Phuong\AppData\Local\Temp\ccINfzqY.s 			page 68


 2765 0318 08000000 		.word	8
 2766 031c 3C000000 		.word	60
 2767              		.type	add_index, %object
 2768              		.size	add_index, 24
 2769              	add_index:
 2770 0320 00000000 		.word	0
 2771 0324 00000000 		.word	0
 2772 0328 00000000 		.word	0
 2773 032c 01000000 		.word	1
 2774 0330 01000000 		.word	1
 2775 0334 01000000 		.word	1
 2776              		.type	additional, %object
 2777              		.size	additional, 384
 2778              	additional:
 2779 0338 00       		.byte	0
 2780 0339 00000000 		.space	63
 2780      00000000 
 2780      00000000 
 2780      00000000 
 2780      00000000 
 2781 0378 FE       		.byte	-2
 2782 0379 ED       		.byte	-19
 2783 037a FA       		.byte	-6
 2784 037b CE       		.byte	-50
 2785 037c DE       		.byte	-34
 2786 037d AD       		.byte	-83
 2787 037e BE       		.byte	-66
 2788 037f EF       		.byte	-17
 2789 0380 FE       		.byte	-2
 2790 0381 ED       		.byte	-19
 2791 0382 FA       		.byte	-6
 2792 0383 CE       		.byte	-50
 2793 0384 DE       		.byte	-34
 2794 0385 AD       		.byte	-83
 2795 0386 BE       		.byte	-66
 2796 0387 EF       		.byte	-17
 2797 0388 AB       		.byte	-85
 2798 0389 AD       		.byte	-83
 2799 038a DA       		.byte	-38
 2800 038b D2       		.byte	-46
 2801 038c 00000000 		.space	44
 2801      00000000 
 2801      00000000 
 2801      00000000 
 2801      00000000 
 2802 03b8 00000000 		.space	256
 2802      00000000 
 2802      00000000 
 2802      00000000 
 2802      00000000 
 2803              		.type	add_len, %object
 2804              		.size	add_len, 24
 2805              	add_len:
 2806 04b8 00000000 		.word	0
 2807 04bc 00000000 		.word	0
 2808 04c0 00000000 		.word	0
 2809 04c4 14000000 		.word	20
ARM GAS  C:\Users\Phuong\AppData\Local\Temp\ccINfzqY.s 			page 69


 2810 04c8 14000000 		.word	20
 2811 04cc 14000000 		.word	20
 2812              		.type	pt_index, %object
 2813              		.size	pt_index, 24
 2814              	pt_index:
 2815 04d0 00000000 		.word	0
 2816 04d4 00000000 		.word	0
 2817 04d8 01000000 		.word	1
 2818 04dc 01000000 		.word	1
 2819 04e0 01000000 		.word	1
 2820 04e4 01000000 		.word	1
 2821              		.type	pt, %object
 2822              		.size	pt, 384
 2823              	pt:
 2824 04e8 00       		.byte	0
 2825 04e9 00       		.byte	0
 2826 04ea 00       		.byte	0
 2827 04eb 00       		.byte	0
 2828 04ec 00       		.byte	0
 2829 04ed 00       		.byte	0
 2830 04ee 00       		.byte	0
 2831 04ef 00       		.byte	0
 2832 04f0 00       		.byte	0
 2833 04f1 00       		.byte	0
 2834 04f2 00       		.byte	0
 2835 04f3 00       		.byte	0
 2836 04f4 00       		.byte	0
 2837 04f5 00       		.byte	0
 2838 04f6 00       		.byte	0
 2839 04f7 00       		.byte	0
 2840 04f8 00000000 		.space	48
 2840      00000000 
 2840      00000000 
 2840      00000000 
 2840      00000000 
 2841 0528 D9       		.byte	-39
 2842 0529 31       		.byte	49
 2843 052a 32       		.byte	50
 2844 052b 25       		.byte	37
 2845 052c F8       		.byte	-8
 2846 052d 84       		.byte	-124
 2847 052e 06       		.byte	6
 2848 052f E5       		.byte	-27
 2849 0530 A5       		.byte	-91
 2850 0531 59       		.byte	89
 2851 0532 09       		.byte	9
 2852 0533 C5       		.byte	-59
 2853 0534 AF       		.byte	-81
 2854 0535 F5       		.byte	-11
 2855 0536 26       		.byte	38
 2856 0537 9A       		.byte	-102
 2857 0538 86       		.byte	-122
 2858 0539 A7       		.byte	-89
 2859 053a A9       		.byte	-87
 2860 053b 53       		.byte	83
 2861 053c 15       		.byte	21
 2862 053d 34       		.byte	52
ARM GAS  C:\Users\Phuong\AppData\Local\Temp\ccINfzqY.s 			page 70


 2863 053e F7       		.byte	-9
 2864 053f DA       		.byte	-38
 2865 0540 2E       		.byte	46
 2866 0541 4C       		.byte	76
 2867 0542 30       		.byte	48
 2868 0543 3D       		.byte	61
 2869 0544 8A       		.byte	-118
 2870 0545 31       		.byte	49
 2871 0546 8A       		.byte	-118
 2872 0547 72       		.byte	114
 2873 0548 1C       		.byte	28
 2874 0549 3C       		.byte	60
 2875 054a 0C       		.byte	12
 2876 054b 95       		.byte	-107
 2877 054c 95       		.byte	-107
 2878 054d 68       		.byte	104
 2879 054e 09       		.byte	9
 2880 054f 53       		.byte	83
 2881 0550 2F       		.byte	47
 2882 0551 CF       		.byte	-49
 2883 0552 0E       		.byte	14
 2884 0553 24       		.byte	36
 2885 0554 49       		.byte	73
 2886 0555 A6       		.byte	-90
 2887 0556 B5       		.byte	-75
 2888 0557 25       		.byte	37
 2889 0558 B1       		.byte	-79
 2890 0559 6A       		.byte	106
 2891 055a ED       		.byte	-19
 2892 055b F5       		.byte	-11
 2893 055c AA       		.byte	-86
 2894 055d 0D       		.byte	13
 2895 055e E6       		.byte	-26
 2896 055f 57       		.byte	87
 2897 0560 BA       		.byte	-70
 2898 0561 63       		.byte	99
 2899 0562 7B       		.byte	123
 2900 0563 39       		.byte	57
 2901 0564 1A       		.byte	26
 2902 0565 AF       		.byte	-81
 2903 0566 D2       		.byte	-46
 2904 0567 55       		.byte	85
 2905 0568 00000000 		.space	256
 2905      00000000 
 2905      00000000 
 2905      00000000 
 2905      00000000 
 2906              		.type	ct, %object
 2907              		.size	ct, 1152
 2908              	ct:
 2909 0668 00       		.byte	0
 2910 0669 00000000 		.space	63
 2910      00000000 
 2910      00000000 
 2910      00000000 
 2910      00000000 
 2911 06a8 03       		.byte	3
ARM GAS  C:\Users\Phuong\AppData\Local\Temp\ccINfzqY.s 			page 71


 2912 06a9 88       		.byte	-120
 2913 06aa DA       		.byte	-38
 2914 06ab CE       		.byte	-50
 2915 06ac 60       		.byte	96
 2916 06ad B6       		.byte	-74
 2917 06ae A3       		.byte	-93
 2918 06af 92       		.byte	-110
 2919 06b0 F3       		.byte	-13
 2920 06b1 28       		.byte	40
 2921 06b2 C2       		.byte	-62
 2922 06b3 B9       		.byte	-71
 2923 06b4 71       		.byte	113
 2924 06b5 B2       		.byte	-78
 2925 06b6 FE       		.byte	-2
 2926 06b7 78       		.byte	120
 2927 06b8 00000000 		.space	48
 2927      00000000 
 2927      00000000 
 2927      00000000 
 2927      00000000 
 2928 06e8 42       		.byte	66
 2929 06e9 83       		.byte	-125
 2930 06ea 1E       		.byte	30
 2931 06eb C2       		.byte	-62
 2932 06ec 21       		.byte	33
 2933 06ed 77       		.byte	119
 2934 06ee 74       		.byte	116
 2935 06ef 24       		.byte	36
 2936 06f0 4B       		.byte	75
 2937 06f1 72       		.byte	114
 2938 06f2 21       		.byte	33
 2939 06f3 B7       		.byte	-73
 2940 06f4 84       		.byte	-124
 2941 06f5 D0       		.byte	-48
 2942 06f6 D4       		.byte	-44
 2943 06f7 9C       		.byte	-100
 2944 06f8 E3       		.byte	-29
 2945 06f9 AA       		.byte	-86
 2946 06fa 21       		.byte	33
 2947 06fb 2F       		.byte	47
 2948 06fc 2C       		.byte	44
 2949 06fd 02       		.byte	2
 2950 06fe A4       		.byte	-92
 2951 06ff E0       		.byte	-32
 2952 0700 35       		.byte	53
 2953 0701 C1       		.byte	-63
 2954 0702 7E       		.byte	126
 2955 0703 23       		.byte	35
 2956 0704 29       		.byte	41
 2957 0705 AC       		.byte	-84
 2958 0706 A1       		.byte	-95
 2959 0707 2E       		.byte	46
 2960 0708 21       		.byte	33
 2961 0709 D5       		.byte	-43
 2962 070a 14       		.byte	20
 2963 070b B2       		.byte	-78
 2964 070c 54       		.byte	84
ARM GAS  C:\Users\Phuong\AppData\Local\Temp\ccINfzqY.s 			page 72


 2965 070d 66       		.byte	102
 2966 070e 93       		.byte	-109
 2967 070f 1C       		.byte	28
 2968 0710 7D       		.byte	125
 2969 0711 8F       		.byte	-113
 2970 0712 6A       		.byte	106
 2971 0713 5A       		.byte	90
 2972 0714 AC       		.byte	-84
 2973 0715 84       		.byte	-124
 2974 0716 AA       		.byte	-86
 2975 0717 05       		.byte	5
 2976 0718 1B       		.byte	27
 2977 0719 A3       		.byte	-93
 2978 071a 0B       		.byte	11
 2979 071b 39       		.byte	57
 2980 071c 6A       		.byte	106
 2981 071d 0A       		.byte	10
 2982 071e AC       		.byte	-84
 2983 071f 97       		.byte	-105
 2984 0720 3D       		.byte	61
 2985 0721 58       		.byte	88
 2986 0722 E0       		.byte	-32
 2987 0723 91       		.byte	-111
 2988 0724 47       		.byte	71
 2989 0725 3F       		.byte	63
 2990 0726 59       		.byte	89
 2991 0727 85       		.byte	-123
 2992 0728 42       		.byte	66
 2993 0729 83       		.byte	-125
 2994 072a 1E       		.byte	30
 2995 072b C2       		.byte	-62
 2996 072c 21       		.byte	33
 2997 072d 77       		.byte	119
 2998 072e 74       		.byte	116
 2999 072f 24       		.byte	36
 3000 0730 4B       		.byte	75
 3001 0731 72       		.byte	114
 3002 0732 21       		.byte	33
 3003 0733 B7       		.byte	-73
 3004 0734 84       		.byte	-124
 3005 0735 D0       		.byte	-48
 3006 0736 D4       		.byte	-44
 3007 0737 9C       		.byte	-100
 3008 0738 E3       		.byte	-29
 3009 0739 AA       		.byte	-86
 3010 073a 21       		.byte	33
 3011 073b 2F       		.byte	47
 3012 073c 2C       		.byte	44
 3013 073d 02       		.byte	2
 3014 073e A4       		.byte	-92
 3015 073f E0       		.byte	-32
 3016 0740 35       		.byte	53
 3017 0741 C1       		.byte	-63
 3018 0742 7E       		.byte	126
 3019 0743 23       		.byte	35
 3020 0744 29       		.byte	41
 3021 0745 AC       		.byte	-84
ARM GAS  C:\Users\Phuong\AppData\Local\Temp\ccINfzqY.s 			page 73


 3022 0746 A1       		.byte	-95
 3023 0747 2E       		.byte	46
 3024 0748 21       		.byte	33
 3025 0749 D5       		.byte	-43
 3026 074a 14       		.byte	20
 3027 074b B2       		.byte	-78
 3028 074c 54       		.byte	84
 3029 074d 66       		.byte	102
 3030 074e 93       		.byte	-109
 3031 074f 1C       		.byte	28
 3032 0750 7D       		.byte	125
 3033 0751 8F       		.byte	-113
 3034 0752 6A       		.byte	106
 3035 0753 5A       		.byte	90
 3036 0754 AC       		.byte	-84
 3037 0755 84       		.byte	-124
 3038 0756 AA       		.byte	-86
 3039 0757 05       		.byte	5
 3040 0758 1B       		.byte	27
 3041 0759 A3       		.byte	-93
 3042 075a 0B       		.byte	11
 3043 075b 39       		.byte	57
 3044 075c 6A       		.byte	106
 3045 075d 0A       		.byte	10
 3046 075e AC       		.byte	-84
 3047 075f 97       		.byte	-105
 3048 0760 3D       		.byte	61
 3049 0761 58       		.byte	88
 3050 0762 E0       		.byte	-32
 3051 0763 91       		.byte	-111
 3052 0764 00000000 		.space	4
 3053 0768 61       		.byte	97
 3054 0769 35       		.byte	53
 3055 076a 3B       		.byte	59
 3056 076b 4C       		.byte	76
 3057 076c 28       		.byte	40
 3058 076d 06       		.byte	6
 3059 076e 93       		.byte	-109
 3060 076f 4A       		.byte	74
 3061 0770 77       		.byte	119
 3062 0771 7F       		.byte	127
 3063 0772 F5       		.byte	-11
 3064 0773 1F       		.byte	31
 3065 0774 A2       		.byte	-94
 3066 0775 2A       		.byte	42
 3067 0776 47       		.byte	71
 3068 0777 55       		.byte	85
 3069 0778 69       		.byte	105
 3070 0779 9B       		.byte	-101
 3071 077a 2A       		.byte	42
 3072 077b 71       		.byte	113
 3073 077c 4F       		.byte	79
 3074 077d CD       		.byte	-51
 3075 077e C6       		.byte	-58
 3076 077f F8       		.byte	-8
 3077 0780 37       		.byte	55
 3078 0781 66       		.byte	102
ARM GAS  C:\Users\Phuong\AppData\Local\Temp\ccINfzqY.s 			page 74


 3079 0782 E5       		.byte	-27
 3080 0783 F9       		.byte	-7
 3081 0784 7B       		.byte	123
 3082 0785 6C       		.byte	108
 3083 0786 74       		.byte	116
 3084 0787 23       		.byte	35
 3085 0788 73       		.byte	115
 3086 0789 80       		.byte	-128
 3087 078a 69       		.byte	105
 3088 078b 00       		.byte	0
 3089 078c E4       		.byte	-28
 3090 078d 9F       		.byte	-97
 3091 078e 24       		.byte	36
 3092 078f B2       		.byte	-78
 3093 0790 2B       		.byte	43
 3094 0791 09       		.byte	9
 3095 0792 75       		.byte	117
 3096 0793 44       		.byte	68
 3097 0794 D4       		.byte	-44
 3098 0795 89       		.byte	-119
 3099 0796 6B       		.byte	107
 3100 0797 42       		.byte	66
 3101 0798 49       		.byte	73
 3102 0799 89       		.byte	-119
 3103 079a B5       		.byte	-75
 3104 079b E1       		.byte	-31
 3105 079c EB       		.byte	-21
 3106 079d AC       		.byte	-84
 3107 079e 0F       		.byte	15
 3108 079f 07       		.byte	7
 3109 07a0 C2       		.byte	-62
 3110 07a1 3F       		.byte	63
 3111 07a2 45       		.byte	69
 3112 07a3 98       		.byte	-104
 3113 07a4 00000000 		.space	4
 3114 07a8 8C       		.byte	-116
 3115 07a9 E2       		.byte	-30
 3116 07aa 49       		.byte	73
 3117 07ab 98       		.byte	-104
 3118 07ac 62       		.byte	98
 3119 07ad 56       		.byte	86
 3120 07ae 15       		.byte	21
 3121 07af B6       		.byte	-74
 3122 07b0 03       		.byte	3
 3123 07b1 A0       		.byte	-96
 3124 07b2 33       		.byte	51
 3125 07b3 AC       		.byte	-84
 3126 07b4 A1       		.byte	-95
 3127 07b5 3F       		.byte	63
 3128 07b6 B8       		.byte	-72
 3129 07b7 94       		.byte	-108
 3130 07b8 BE       		.byte	-66
 3131 07b9 91       		.byte	-111
 3132 07ba 12       		.byte	18
 3133 07bb A5       		.byte	-91
 3134 07bc C3       		.byte	-61
 3135 07bd A2       		.byte	-94
ARM GAS  C:\Users\Phuong\AppData\Local\Temp\ccINfzqY.s 			page 75


 3136 07be 11       		.byte	17
 3137 07bf A8       		.byte	-88
 3138 07c0 BA       		.byte	-70
 3139 07c1 26       		.byte	38
 3140 07c2 2A       		.byte	42
 3141 07c3 3C       		.byte	60
 3142 07c4 CA       		.byte	-54
 3143 07c5 7E       		.byte	126
 3144 07c6 2C       		.byte	44
 3145 07c7 A7       		.byte	-89
 3146 07c8 01       		.byte	1
 3147 07c9 E4       		.byte	-28
 3148 07ca A9       		.byte	-87
 3149 07cb A4       		.byte	-92
 3150 07cc FB       		.byte	-5
 3151 07cd A4       		.byte	-92
 3152 07ce 3C       		.byte	60
 3153 07cf 90       		.byte	-112
 3154 07d0 CC       		.byte	-52
 3155 07d1 DC       		.byte	-36
 3156 07d2 B2       		.byte	-78
 3157 07d3 81       		.byte	-127
 3158 07d4 D4       		.byte	-44
 3159 07d5 8C       		.byte	-116
 3160 07d6 7C       		.byte	124
 3161 07d7 6F       		.byte	111
 3162 07d8 D6       		.byte	-42
 3163 07d9 28       		.byte	40
 3164 07da 75       		.byte	117
 3165 07db D2       		.byte	-46
 3166 07dc AC       		.byte	-84
 3167 07dd A4       		.byte	-92
 3168 07de 17       		.byte	23
 3169 07df 03       		.byte	3
 3170 07e0 4C       		.byte	76
 3171 07e1 34       		.byte	52
 3172 07e2 AE       		.byte	-82
 3173 07e3 E5       		.byte	-27
 3174 07e4 00000000 		.space	4
 3175 07e8 00       		.byte	0
 3176 07e9 00000000 		.space	63
 3176      00000000 
 3176      00000000 
 3176      00000000 
 3176      00000000 
 3177 0828 98       		.byte	-104
 3178 0829 E7       		.byte	-25
 3179 082a 24       		.byte	36
 3180 082b 7C       		.byte	124
 3181 082c 07       		.byte	7
 3182 082d F0       		.byte	-16
 3183 082e FE       		.byte	-2
 3184 082f 41       		.byte	65
 3185 0830 1C       		.byte	28
 3186 0831 26       		.byte	38
 3187 0832 7E       		.byte	126
 3188 0833 43       		.byte	67
ARM GAS  C:\Users\Phuong\AppData\Local\Temp\ccINfzqY.s 			page 76


 3189 0834 84       		.byte	-124
 3190 0835 B0       		.byte	-80
 3191 0836 F6       		.byte	-10
 3192 0837 00       		.byte	0
 3193 0838 00000000 		.space	48
 3193      00000000 
 3193      00000000 
 3193      00000000 
 3193      00000000 
 3194 0868 39       		.byte	57
 3195 0869 80       		.byte	-128
 3196 086a CA       		.byte	-54
 3197 086b 0B       		.byte	11
 3198 086c 3C       		.byte	60
 3199 086d 00       		.byte	0
 3200 086e E8       		.byte	-24
 3201 086f 41       		.byte	65
 3202 0870 EB       		.byte	-21
 3203 0871 06       		.byte	6
 3204 0872 FA       		.byte	-6
 3205 0873 C4       		.byte	-60
 3206 0874 87       		.byte	-121
 3207 0875 2A       		.byte	42
 3208 0876 27       		.byte	39
 3209 0877 57       		.byte	87
 3210 0878 85       		.byte	-123
 3211 0879 9E       		.byte	-98
 3212 087a 1C       		.byte	28
 3213 087b EA       		.byte	-22
 3214 087c A6       		.byte	-90
 3215 087d EF       		.byte	-17
 3216 087e D9       		.byte	-39
 3217 087f 84       		.byte	-124
 3218 0880 62       		.byte	98
 3219 0881 85       		.byte	-123
 3220 0882 93       		.byte	-109
 3221 0883 B4       		.byte	-76
 3222 0884 0C       		.byte	12
 3223 0885 A1       		.byte	-95
 3224 0886 E1       		.byte	-31
 3225 0887 9C       		.byte	-100
 3226 0888 7D       		.byte	125
 3227 0889 77       		.byte	119
 3228 088a 3D       		.byte	61
 3229 088b 00       		.byte	0
 3230 088c C1       		.byte	-63
 3231 088d 44       		.byte	68
 3232 088e C5       		.byte	-59
 3233 088f 25       		.byte	37
 3234 0890 AC       		.byte	-84
 3235 0891 61       		.byte	97
 3236 0892 9D       		.byte	-99
 3237 0893 18       		.byte	24
 3238 0894 C8       		.byte	-56
 3239 0895 4A       		.byte	74
 3240 0896 3F       		.byte	63
 3241 0897 47       		.byte	71
ARM GAS  C:\Users\Phuong\AppData\Local\Temp\ccINfzqY.s 			page 77


 3242 0898 18       		.byte	24
 3243 0899 E2       		.byte	-30
 3244 089a 44       		.byte	68
 3245 089b 8B       		.byte	-117
 3246 089c 2F       		.byte	47
 3247 089d E3       		.byte	-29
 3248 089e 24       		.byte	36
 3249 089f D9       		.byte	-39
 3250 08a0 CC       		.byte	-52
 3251 08a1 DA       		.byte	-38
 3252 08a2 27       		.byte	39
 3253 08a3 10       		.byte	16
 3254 08a4 AC       		.byte	-84
 3255 08a5 AD       		.byte	-83
 3256 08a6 E2       		.byte	-30
 3257 08a7 56       		.byte	86
 3258 08a8 39       		.byte	57
 3259 08a9 80       		.byte	-128
 3260 08aa CA       		.byte	-54
 3261 08ab 0B       		.byte	11
 3262 08ac 3C       		.byte	60
 3263 08ad 00       		.byte	0
 3264 08ae E8       		.byte	-24
 3265 08af 41       		.byte	65
 3266 08b0 EB       		.byte	-21
 3267 08b1 06       		.byte	6
 3268 08b2 FA       		.byte	-6
 3269 08b3 C4       		.byte	-60
 3270 08b4 87       		.byte	-121
 3271 08b5 2A       		.byte	42
 3272 08b6 27       		.byte	39
 3273 08b7 57       		.byte	87
 3274 08b8 85       		.byte	-123
 3275 08b9 9E       		.byte	-98
 3276 08ba 1C       		.byte	28
 3277 08bb EA       		.byte	-22
 3278 08bc A6       		.byte	-90
 3279 08bd EF       		.byte	-17
 3280 08be D9       		.byte	-39
 3281 08bf 84       		.byte	-124
 3282 08c0 62       		.byte	98
 3283 08c1 85       		.byte	-123
 3284 08c2 93       		.byte	-109
 3285 08c3 B4       		.byte	-76
 3286 08c4 0C       		.byte	12
 3287 08c5 A1       		.byte	-95
 3288 08c6 E1       		.byte	-31
 3289 08c7 9C       		.byte	-100
 3290 08c8 7D       		.byte	125
 3291 08c9 77       		.byte	119
 3292 08ca 3D       		.byte	61
 3293 08cb 00       		.byte	0
 3294 08cc C1       		.byte	-63
 3295 08cd 44       		.byte	68
 3296 08ce C5       		.byte	-59
 3297 08cf 25       		.byte	37
 3298 08d0 AC       		.byte	-84
ARM GAS  C:\Users\Phuong\AppData\Local\Temp\ccINfzqY.s 			page 78


 3299 08d1 61       		.byte	97
 3300 08d2 9D       		.byte	-99
 3301 08d3 18       		.byte	24
 3302 08d4 C8       		.byte	-56
 3303 08d5 4A       		.byte	74
 3304 08d6 3F       		.byte	63
 3305 08d7 47       		.byte	71
 3306 08d8 18       		.byte	24
 3307 08d9 E2       		.byte	-30
 3308 08da 44       		.byte	68
 3309 08db 8B       		.byte	-117
 3310 08dc 2F       		.byte	47
 3311 08dd E3       		.byte	-29
 3312 08de 24       		.byte	36
 3313 08df D9       		.byte	-39
 3314 08e0 CC       		.byte	-52
 3315 08e1 DA       		.byte	-38
 3316 08e2 27       		.byte	39
 3317 08e3 10       		.byte	16
 3318 08e4 00000000 		.space	4
 3319 08e8 0F       		.byte	15
 3320 08e9 10       		.byte	16
 3321 08ea F5       		.byte	-11
 3322 08eb 99       		.byte	-103
 3323 08ec AE       		.byte	-82
 3324 08ed 14       		.byte	20
 3325 08ee A1       		.byte	-95
 3326 08ef 54       		.byte	84
 3327 08f0 ED       		.byte	-19
 3328 08f1 24       		.byte	36
 3329 08f2 B3       		.byte	-77
 3330 08f3 6E       		.byte	110
 3331 08f4 25       		.byte	37
 3332 08f5 32       		.byte	50
 3333 08f6 4D       		.byte	77
 3334 08f7 B8       		.byte	-72
 3335 08f8 C5       		.byte	-59
 3336 08f9 66       		.byte	102
 3337 08fa 63       		.byte	99
 3338 08fb 2E       		.byte	46
 3339 08fc F2       		.byte	-14
 3340 08fd BB       		.byte	-69
 3341 08fe B3       		.byte	-77
 3342 08ff 4F       		.byte	79
 3343 0900 83       		.byte	-125
 3344 0901 47       		.byte	71
 3345 0902 28       		.byte	40
 3346 0903 0F       		.byte	15
 3347 0904 C4       		.byte	-60
 3348 0905 50       		.byte	80
 3349 0906 70       		.byte	112
 3350 0907 57       		.byte	87
 3351 0908 FD       		.byte	-3
 3352 0909 DC       		.byte	-36
 3353 090a 29       		.byte	41
 3354 090b DF       		.byte	-33
 3355 090c 9A       		.byte	-102
ARM GAS  C:\Users\Phuong\AppData\Local\Temp\ccINfzqY.s 			page 79


 3356 090d 47       		.byte	71
 3357 090e 1F       		.byte	31
 3358 090f 75       		.byte	117
 3359 0910 C6       		.byte	-58
 3360 0911 65       		.byte	101
 3361 0912 41       		.byte	65
 3362 0913 D4       		.byte	-44
 3363 0914 D4       		.byte	-44
 3364 0915 DA       		.byte	-38
 3365 0916 D1       		.byte	-47
 3366 0917 C9       		.byte	-55
 3367 0918 E9       		.byte	-23
 3368 0919 3A       		.byte	58
 3369 091a 19       		.byte	25
 3370 091b A5       		.byte	-91
 3371 091c 8E       		.byte	-114
 3372 091d 8B       		.byte	-117
 3373 091e 47       		.byte	71
 3374 091f 3F       		.byte	63
 3375 0920 A0       		.byte	-96
 3376 0921 F0       		.byte	-16
 3377 0922 62       		.byte	98
 3378 0923 F7       		.byte	-9
 3379 0924 00000000 		.space	4
 3380 0928 D2       		.byte	-46
 3381 0929 7E       		.byte	126
 3382 092a 88       		.byte	-120
 3383 092b 68       		.byte	104
 3384 092c 1C       		.byte	28
 3385 092d E3       		.byte	-29
 3386 092e 24       		.byte	36
 3387 092f 3C       		.byte	60
 3388 0930 48       		.byte	72
 3389 0931 30       		.byte	48
 3390 0932 16       		.byte	22
 3391 0933 5A       		.byte	90
 3392 0934 8F       		.byte	-113
 3393 0935 DC       		.byte	-36
 3394 0936 F9       		.byte	-7
 3395 0937 FF       		.byte	-1
 3396 0938 1D       		.byte	29
 3397 0939 E9       		.byte	-23
 3398 093a A1       		.byte	-95
 3399 093b D8       		.byte	-40
 3400 093c E6       		.byte	-26
 3401 093d B4       		.byte	-76
 3402 093e 47       		.byte	71
 3403 093f EF       		.byte	-17
 3404 0940 6E       		.byte	110
 3405 0941 F7       		.byte	-9
 3406 0942 B7       		.byte	-73
 3407 0943 98       		.byte	-104
 3408 0944 28       		.byte	40
 3409 0945 66       		.byte	102
 3410 0946 6E       		.byte	110
 3411 0947 45       		.byte	69
 3412 0948 81       		.byte	-127
ARM GAS  C:\Users\Phuong\AppData\Local\Temp\ccINfzqY.s 			page 80


 3413 0949 E7       		.byte	-25
 3414 094a 90       		.byte	-112
 3415 094b 12       		.byte	18
 3416 094c AF       		.byte	-81
 3417 094d 34       		.byte	52
 3418 094e DD       		.byte	-35
 3419 094f D9       		.byte	-39
 3420 0950 E2       		.byte	-30
 3421 0951 F0       		.byte	-16
 3422 0952 37       		.byte	55
 3423 0953 58       		.byte	88
 3424 0954 9B       		.byte	-101
 3425 0955 29       		.byte	41
 3426 0956 2D       		.byte	45
 3427 0957 B3       		.byte	-77
 3428 0958 E6       		.byte	-26
 3429 0959 7C       		.byte	124
 3430 095a 03       		.byte	3
 3431 095b 67       		.byte	103
 3432 095c 45       		.byte	69
 3433 095d FA       		.byte	-6
 3434 095e 22       		.byte	34
 3435 095f E7       		.byte	-25
 3436 0960 E9       		.byte	-23
 3437 0961 B7       		.byte	-73
 3438 0962 37       		.byte	55
 3439 0963 3B       		.byte	59
 3440 0964 00000000 		.space	4
 3441 0968 00       		.byte	0
 3442 0969 00000000 		.space	63
 3442      00000000 
 3442      00000000 
 3442      00000000 
 3442      00000000 
 3443 09a8 CE       		.byte	-50
 3444 09a9 A7       		.byte	-89
 3445 09aa 40       		.byte	64
 3446 09ab 3D       		.byte	61
 3447 09ac 4D       		.byte	77
 3448 09ad 60       		.byte	96
 3449 09ae 6B       		.byte	107
 3450 09af 6E       		.byte	110
 3451 09b0 07       		.byte	7
 3452 09b1 4E       		.byte	78
 3453 09b2 C5       		.byte	-59
 3454 09b3 D3       		.byte	-45
 3455 09b4 BA       		.byte	-70
 3456 09b5 F3       		.byte	-13
 3457 09b6 9D       		.byte	-99
 3458 09b7 18       		.byte	24
 3459 09b8 00000000 		.space	48
 3459      00000000 
 3459      00000000 
 3459      00000000 
 3459      00000000 
 3460 09e8 52       		.byte	82
 3461 09e9 2D       		.byte	45
ARM GAS  C:\Users\Phuong\AppData\Local\Temp\ccINfzqY.s 			page 81


 3462 09ea C1       		.byte	-63
 3463 09eb F0       		.byte	-16
 3464 09ec 99       		.byte	-103
 3465 09ed 56       		.byte	86
 3466 09ee 7D       		.byte	125
 3467 09ef 07       		.byte	7
 3468 09f0 F4       		.byte	-12
 3469 09f1 7F       		.byte	127
 3470 09f2 37       		.byte	55
 3471 09f3 A3       		.byte	-93
 3472 09f4 2A       		.byte	42
 3473 09f5 84       		.byte	-124
 3474 09f6 42       		.byte	66
 3475 09f7 7D       		.byte	125
 3476 09f8 64       		.byte	100
 3477 09f9 3A       		.byte	58
 3478 09fa 8C       		.byte	-116
 3479 09fb DC       		.byte	-36
 3480 09fc BF       		.byte	-65
 3481 09fd E5       		.byte	-27
 3482 09fe C0       		.byte	-64
 3483 09ff C9       		.byte	-55
 3484 0a00 75       		.byte	117
 3485 0a01 98       		.byte	-104
 3486 0a02 A2       		.byte	-94
 3487 0a03 BD       		.byte	-67
 3488 0a04 25       		.byte	37
 3489 0a05 55       		.byte	85
 3490 0a06 D1       		.byte	-47
 3491 0a07 AA       		.byte	-86
 3492 0a08 8C       		.byte	-116
 3493 0a09 B0       		.byte	-80
 3494 0a0a 8E       		.byte	-114
 3495 0a0b 48       		.byte	72
 3496 0a0c 59       		.byte	89
 3497 0a0d 0D       		.byte	13
 3498 0a0e BB       		.byte	-69
 3499 0a0f 3D       		.byte	61
 3500 0a10 A7       		.byte	-89
 3501 0a11 B0       		.byte	-80
 3502 0a12 8B       		.byte	-117
 3503 0a13 10       		.byte	16
 3504 0a14 56       		.byte	86
 3505 0a15 82       		.byte	-126
 3506 0a16 88       		.byte	-120
 3507 0a17 38       		.byte	56
 3508 0a18 C5       		.byte	-59
 3509 0a19 F6       		.byte	-10
 3510 0a1a 1E       		.byte	30
 3511 0a1b 63       		.byte	99
 3512 0a1c 93       		.byte	-109
 3513 0a1d BA       		.byte	-70
 3514 0a1e 7A       		.byte	122
 3515 0a1f 0A       		.byte	10
 3516 0a20 BC       		.byte	-68
 3517 0a21 C9       		.byte	-55
 3518 0a22 F6       		.byte	-10
ARM GAS  C:\Users\Phuong\AppData\Local\Temp\ccINfzqY.s 			page 82


 3519 0a23 62       		.byte	98
 3520 0a24 89       		.byte	-119
 3521 0a25 80       		.byte	-128
 3522 0a26 15       		.byte	21
 3523 0a27 AD       		.byte	-83
 3524 0a28 52       		.byte	82
 3525 0a29 2D       		.byte	45
 3526 0a2a C1       		.byte	-63
 3527 0a2b F0       		.byte	-16
 3528 0a2c 99       		.byte	-103
 3529 0a2d 56       		.byte	86
 3530 0a2e 7D       		.byte	125
 3531 0a2f 07       		.byte	7
 3532 0a30 F4       		.byte	-12
 3533 0a31 7F       		.byte	127
 3534 0a32 37       		.byte	55
 3535 0a33 A3       		.byte	-93
 3536 0a34 2A       		.byte	42
 3537 0a35 84       		.byte	-124
 3538 0a36 42       		.byte	66
 3539 0a37 7D       		.byte	125
 3540 0a38 64       		.byte	100
 3541 0a39 3A       		.byte	58
 3542 0a3a 8C       		.byte	-116
 3543 0a3b DC       		.byte	-36
 3544 0a3c BF       		.byte	-65
 3545 0a3d E5       		.byte	-27
 3546 0a3e C0       		.byte	-64
 3547 0a3f C9       		.byte	-55
 3548 0a40 75       		.byte	117
 3549 0a41 98       		.byte	-104
 3550 0a42 A2       		.byte	-94
 3551 0a43 BD       		.byte	-67
 3552 0a44 25       		.byte	37
 3553 0a45 55       		.byte	85
 3554 0a46 D1       		.byte	-47
 3555 0a47 AA       		.byte	-86
 3556 0a48 8C       		.byte	-116
 3557 0a49 B0       		.byte	-80
 3558 0a4a 8E       		.byte	-114
 3559 0a4b 48       		.byte	72
 3560 0a4c 59       		.byte	89
 3561 0a4d 0D       		.byte	13
 3562 0a4e BB       		.byte	-69
 3563 0a4f 3D       		.byte	61
 3564 0a50 A7       		.byte	-89
 3565 0a51 B0       		.byte	-80
 3566 0a52 8B       		.byte	-117
 3567 0a53 10       		.byte	16
 3568 0a54 56       		.byte	86
 3569 0a55 82       		.byte	-126
 3570 0a56 88       		.byte	-120
 3571 0a57 38       		.byte	56
 3572 0a58 C5       		.byte	-59
 3573 0a59 F6       		.byte	-10
 3574 0a5a 1E       		.byte	30
 3575 0a5b 63       		.byte	99
ARM GAS  C:\Users\Phuong\AppData\Local\Temp\ccINfzqY.s 			page 83


 3576 0a5c 93       		.byte	-109
 3577 0a5d BA       		.byte	-70
 3578 0a5e 7A       		.byte	122
 3579 0a5f 0A       		.byte	10
 3580 0a60 BC       		.byte	-68
 3581 0a61 C9       		.byte	-55
 3582 0a62 F6       		.byte	-10
 3583 0a63 62       		.byte	98
 3584 0a64 00000000 		.space	4
 3585 0a68 C3       		.byte	-61
 3586 0a69 76       		.byte	118
 3587 0a6a 2D       		.byte	45
 3588 0a6b F1       		.byte	-15
 3589 0a6c CA       		.byte	-54
 3590 0a6d 78       		.byte	120
 3591 0a6e 7D       		.byte	125
 3592 0a6f 32       		.byte	50
 3593 0a70 AE       		.byte	-82
 3594 0a71 47       		.byte	71
 3595 0a72 C1       		.byte	-63
 3596 0a73 3B       		.byte	59
 3597 0a74 F1       		.byte	-15
 3598 0a75 98       		.byte	-104
 3599 0a76 44       		.byte	68
 3600 0a77 CB       		.byte	-53
 3601 0a78 AF       		.byte	-81
 3602 0a79 1A       		.byte	26
 3603 0a7a E1       		.byte	-31
 3604 0a7b 4D       		.byte	77
 3605 0a7c 0B       		.byte	11
 3606 0a7d 97       		.byte	-105
 3607 0a7e 6A       		.byte	106
 3608 0a7f FA       		.byte	-6
 3609 0a80 C5       		.byte	-59
 3610 0a81 2F       		.byte	47
 3611 0a82 F7       		.byte	-9
 3612 0a83 D7       		.byte	-41
 3613 0a84 9B       		.byte	-101
 3614 0a85 BA       		.byte	-70
 3615 0a86 9D       		.byte	-99
 3616 0a87 E0       		.byte	-32
 3617 0a88 FE       		.byte	-2
 3618 0a89 B5       		.byte	-75
 3619 0a8a 82       		.byte	-126
 3620 0a8b D3       		.byte	-45
 3621 0a8c 39       		.byte	57
 3622 0a8d 34       		.byte	52
 3623 0a8e A4       		.byte	-92
 3624 0a8f F0       		.byte	-16
 3625 0a90 95       		.byte	-107
 3626 0a91 4C       		.byte	76
 3627 0a92 C2       		.byte	-62
 3628 0a93 36       		.byte	54
 3629 0a94 3B       		.byte	59
 3630 0a95 C7       		.byte	-57
 3631 0a96 3F       		.byte	63
 3632 0a97 78       		.byte	120
ARM GAS  C:\Users\Phuong\AppData\Local\Temp\ccINfzqY.s 			page 84


 3633 0a98 62       		.byte	98
 3634 0a99 AC       		.byte	-84
 3635 0a9a 43       		.byte	67
 3636 0a9b 0E       		.byte	14
 3637 0a9c 64       		.byte	100
 3638 0a9d AB       		.byte	-85
 3639 0a9e E4       		.byte	-28
 3640 0a9f 99       		.byte	-103
 3641 0aa0 F4       		.byte	-12
 3642 0aa1 7C       		.byte	124
 3643 0aa2 9B       		.byte	-101
 3644 0aa3 1F       		.byte	31
 3645 0aa4 00000000 		.space	4
 3646 0aa8 5A       		.byte	90
 3647 0aa9 8D       		.byte	-115
 3648 0aaa EF       		.byte	-17
 3649 0aab 2F       		.byte	47
 3650 0aac 0C       		.byte	12
 3651 0aad 9E       		.byte	-98
 3652 0aae 53       		.byte	83
 3653 0aaf F1       		.byte	-15
 3654 0ab0 F7       		.byte	-9
 3655 0ab1 5D       		.byte	93
 3656 0ab2 78       		.byte	120
 3657 0ab3 53       		.byte	83
 3658 0ab4 65       		.byte	101
 3659 0ab5 9E       		.byte	-98
 3660 0ab6 2A       		.byte	42
 3661 0ab7 20       		.byte	32
 3662 0ab8 EE       		.byte	-18
 3663 0ab9 B2       		.byte	-78
 3664 0aba B2       		.byte	-78
 3665 0abb 2A       		.byte	42
 3666 0abc AF       		.byte	-81
 3667 0abd DE       		.byte	-34
 3668 0abe 64       		.byte	100
 3669 0abf 19       		.byte	25
 3670 0ac0 A0       		.byte	-96
 3671 0ac1 58       		.byte	88
 3672 0ac2 AB       		.byte	-85
 3673 0ac3 4F       		.byte	79
 3674 0ac4 6F       		.byte	111
 3675 0ac5 74       		.byte	116
 3676 0ac6 6B       		.byte	107
 3677 0ac7 F4       		.byte	-12
 3678 0ac8 0F       		.byte	15
 3679 0ac9 C0       		.byte	-64
 3680 0aca C3       		.byte	-61
 3681 0acb B7       		.byte	-73
 3682 0acc 80       		.byte	-128
 3683 0acd F2       		.byte	-14
 3684 0ace 44       		.byte	68
 3685 0acf 45       		.byte	69
 3686 0ad0 2D       		.byte	45
 3687 0ad1 A3       		.byte	-93
 3688 0ad2 EB       		.byte	-21
 3689 0ad3 F1       		.byte	-15
ARM GAS  C:\Users\Phuong\AppData\Local\Temp\ccINfzqY.s 			page 85


 3690 0ad4 C5       		.byte	-59
 3691 0ad5 D8       		.byte	-40
 3692 0ad6 2C       		.byte	44
 3693 0ad7 DE       		.byte	-34
 3694 0ad8 A2       		.byte	-94
 3695 0ad9 41       		.byte	65
 3696 0ada 89       		.byte	-119
 3697 0adb 97       		.byte	-105
 3698 0adc 20       		.byte	32
 3699 0add 0E       		.byte	14
 3700 0ade F8       		.byte	-8
 3701 0adf 2E       		.byte	46
 3702 0ae0 44       		.byte	68
 3703 0ae1 AE       		.byte	-82
 3704 0ae2 7E       		.byte	126
 3705 0ae3 3F       		.byte	63
 3706 0ae4 00000000 		.space	4
 3707              		.type	tag, %object
 3708              		.size	tag, 288
 3709              	tag:
 3710 0ae8 58       		.byte	88
 3711 0ae9 E2       		.byte	-30
 3712 0aea FC       		.byte	-4
 3713 0aeb CE       		.byte	-50
 3714 0aec FA       		.byte	-6
 3715 0aed 7E       		.byte	126
 3716 0aee 30       		.byte	48
 3717 0aef 61       		.byte	97
 3718 0af0 36       		.byte	54
 3719 0af1 7F       		.byte	127
 3720 0af2 1D       		.byte	29
 3721 0af3 57       		.byte	87
 3722 0af4 A4       		.byte	-92
 3723 0af5 E7       		.byte	-25
 3724 0af6 45       		.byte	69
 3725 0af7 5A       		.byte	90
 3726 0af8 AB       		.byte	-85
 3727 0af9 6E       		.byte	110
 3728 0afa 47       		.byte	71
 3729 0afb D4       		.byte	-44
 3730 0afc 2C       		.byte	44
 3731 0afd EC       		.byte	-20
 3732 0afe 13       		.byte	19
 3733 0aff BD       		.byte	-67
 3734 0b00 F5       		.byte	-11
 3735 0b01 3A       		.byte	58
 3736 0b02 67       		.byte	103
 3737 0b03 B2       		.byte	-78
 3738 0b04 12       		.byte	18
 3739 0b05 57       		.byte	87
 3740 0b06 BD       		.byte	-67
 3741 0b07 DF       		.byte	-33
 3742 0b08 4D       		.byte	77
 3743 0b09 5C       		.byte	92
 3744 0b0a 2A       		.byte	42
 3745 0b0b F3       		.byte	-13
 3746 0b0c 27       		.byte	39
ARM GAS  C:\Users\Phuong\AppData\Local\Temp\ccINfzqY.s 			page 86


 3747 0b0d CD       		.byte	-51
 3748 0b0e 64       		.byte	100
 3749 0b0f A6       		.byte	-90
 3750 0b10 2C       		.byte	44
 3751 0b11 F3       		.byte	-13
 3752 0b12 5A       		.byte	90
 3753 0b13 BD       		.byte	-67
 3754 0b14 2B       		.byte	43
 3755 0b15 A6       		.byte	-90
 3756 0b16 FA       		.byte	-6
 3757 0b17 B4       		.byte	-76
 3758 0b18 5B       		.byte	91
 3759 0b19 C9       		.byte	-55
 3760 0b1a 4F       		.byte	79
 3761 0b1b BC       		.byte	-68
 3762 0b1c 32       		.byte	50
 3763 0b1d 21       		.byte	33
 3764 0b1e A5       		.byte	-91
 3765 0b1f DB       		.byte	-37
 3766 0b20 94       		.byte	-108
 3767 0b21 FA       		.byte	-6
 3768 0b22 E9       		.byte	-23
 3769 0b23 5A       		.byte	90
 3770 0b24 E7       		.byte	-25
 3771 0b25 12       		.byte	18
 3772 0b26 1A       		.byte	26
 3773 0b27 47       		.byte	71
 3774 0b28 36       		.byte	54
 3775 0b29 12       		.byte	18
 3776 0b2a D2       		.byte	-46
 3777 0b2b E7       		.byte	-25
 3778 0b2c 9E       		.byte	-98
 3779 0b2d 3B       		.byte	59
 3780 0b2e 07       		.byte	7
 3781 0b2f 85       		.byte	-123
 3782 0b30 56       		.byte	86
 3783 0b31 1B       		.byte	27
 3784 0b32 E1       		.byte	-31
 3785 0b33 4A       		.byte	74
 3786 0b34 AC       		.byte	-84
 3787 0b35 A2       		.byte	-94
 3788 0b36 FC       		.byte	-4
 3789 0b37 CB       		.byte	-53
 3790 0b38 61       		.byte	97
 3791 0b39 9C       		.byte	-100
 3792 0b3a C5       		.byte	-59
 3793 0b3b AE       		.byte	-82
 3794 0b3c FF       		.byte	-1
 3795 0b3d FE       		.byte	-2
 3796 0b3e 0B       		.byte	11
 3797 0b3f FA       		.byte	-6
 3798 0b40 46       		.byte	70
 3799 0b41 2A       		.byte	42
 3800 0b42 F4       		.byte	-12
 3801 0b43 3C       		.byte	60
 3802 0b44 16       		.byte	22
 3803 0b45 99       		.byte	-103
ARM GAS  C:\Users\Phuong\AppData\Local\Temp\ccINfzqY.s 			page 87


 3804 0b46 D0       		.byte	-48
 3805 0b47 50       		.byte	80
 3806 0b48 CD       		.byte	-51
 3807 0b49 33       		.byte	51
 3808 0b4a B2       		.byte	-78
 3809 0b4b 8A       		.byte	-118
 3810 0b4c C7       		.byte	-57
 3811 0b4d 73       		.byte	115
 3812 0b4e F7       		.byte	-9
 3813 0b4f 4B       		.byte	75
 3814 0b50 A0       		.byte	-96
 3815 0b51 0E       		.byte	14
 3816 0b52 D1       		.byte	-47
 3817 0b53 F3       		.byte	-13
 3818 0b54 12       		.byte	18
 3819 0b55 57       		.byte	87
 3820 0b56 24       		.byte	36
 3821 0b57 35       		.byte	53
 3822 0b58 2F       		.byte	47
 3823 0b59 F5       		.byte	-11
 3824 0b5a 8D       		.byte	-115
 3825 0b5b 80       		.byte	-128
 3826 0b5c 03       		.byte	3
 3827 0b5d 39       		.byte	57
 3828 0b5e 27       		.byte	39
 3829 0b5f AB       		.byte	-85
 3830 0b60 8E       		.byte	-114
 3831 0b61 F4       		.byte	-12
 3832 0b62 D4       		.byte	-44
 3833 0b63 58       		.byte	88
 3834 0b64 75       		.byte	117
 3835 0b65 14       		.byte	20
 3836 0b66 F0       		.byte	-16
 3837 0b67 FB       		.byte	-5
 3838 0b68 99       		.byte	-103
 3839 0b69 24       		.byte	36
 3840 0b6a A7       		.byte	-89
 3841 0b6b C8       		.byte	-56
 3842 0b6c 58       		.byte	88
 3843 0b6d 73       		.byte	115
 3844 0b6e 36       		.byte	54
 3845 0b6f BF       		.byte	-65
 3846 0b70 B1       		.byte	-79
 3847 0b71 18       		.byte	24
 3848 0b72 02       		.byte	2
 3849 0b73 4D       		.byte	77
 3850 0b74 B8       		.byte	-72
 3851 0b75 67       		.byte	103
 3852 0b76 4A       		.byte	74
 3853 0b77 14       		.byte	20
 3854 0b78 25       		.byte	37
 3855 0b79 19       		.byte	25
 3856 0b7a 49       		.byte	73
 3857 0b7b 8E       		.byte	-114
 3858 0b7c 80       		.byte	-128
 3859 0b7d F1       		.byte	-15
 3860 0b7e 47       		.byte	71
ARM GAS  C:\Users\Phuong\AppData\Local\Temp\ccINfzqY.s 			page 88


 3861 0b7f 8F       		.byte	-113
 3862 0b80 37       		.byte	55
 3863 0b81 BA       		.byte	-70
 3864 0b82 55       		.byte	85
 3865 0b83 BD       		.byte	-67
 3866 0b84 6D       		.byte	109
 3867 0b85 27       		.byte	39
 3868 0b86 61       		.byte	97
 3869 0b87 8C       		.byte	-116
 3870 0b88 65       		.byte	101
 3871 0b89 DC       		.byte	-36
 3872 0b8a C5       		.byte	-59
 3873 0b8b 7F       		.byte	127
 3874 0b8c CF       		.byte	-49
 3875 0b8d 62       		.byte	98
 3876 0b8e 3A       		.byte	58
 3877 0b8f 24       		.byte	36
 3878 0b90 09       		.byte	9
 3879 0b91 4F       		.byte	79
 3880 0b92 CC       		.byte	-52
 3881 0b93 A4       		.byte	-92
 3882 0b94 0D       		.byte	13
 3883 0b95 35       		.byte	53
 3884 0b96 33       		.byte	51
 3885 0b97 F8       		.byte	-8
 3886 0b98 DC       		.byte	-36
 3887 0b99 F5       		.byte	-11
 3888 0b9a 66       		.byte	102
 3889 0b9b FF       		.byte	-1
 3890 0b9c 29       		.byte	41
 3891 0b9d 1C       		.byte	28
 3892 0b9e 25       		.byte	37
 3893 0b9f BB       		.byte	-69
 3894 0ba0 B8       		.byte	-72
 3895 0ba1 56       		.byte	86
 3896 0ba2 8F       		.byte	-113
 3897 0ba3 C3       		.byte	-61
 3898 0ba4 D3       		.byte	-45
 3899 0ba5 76       		.byte	118
 3900 0ba6 A6       		.byte	-90
 3901 0ba7 D9       		.byte	-39
 3902 0ba8 53       		.byte	83
 3903 0ba9 0F       		.byte	15
 3904 0baa 8A       		.byte	-118
 3905 0bab FB       		.byte	-5
 3906 0bac C7       		.byte	-57
 3907 0bad 45       		.byte	69
 3908 0bae 36       		.byte	54
 3909 0baf B9       		.byte	-71
 3910 0bb0 A9       		.byte	-87
 3911 0bb1 63       		.byte	99
 3912 0bb2 B4       		.byte	-76
 3913 0bb3 F1       		.byte	-15
 3914 0bb4 C4       		.byte	-60
 3915 0bb5 CB       		.byte	-53
 3916 0bb6 73       		.byte	115
 3917 0bb7 8B       		.byte	-117
ARM GAS  C:\Users\Phuong\AppData\Local\Temp\ccINfzqY.s 			page 89


 3918 0bb8 D0       		.byte	-48
 3919 0bb9 D1       		.byte	-47
 3920 0bba C8       		.byte	-56
 3921 0bbb A7       		.byte	-89
 3922 0bbc 99       		.byte	-103
 3923 0bbd 99       		.byte	-103
 3924 0bbe 6B       		.byte	107
 3925 0bbf F0       		.byte	-16
 3926 0bc0 26       		.byte	38
 3927 0bc1 5B       		.byte	91
 3928 0bc2 98       		.byte	-104
 3929 0bc3 B5       		.byte	-75
 3930 0bc4 D4       		.byte	-44
 3931 0bc5 8A       		.byte	-118
 3932 0bc6 B9       		.byte	-71
 3933 0bc7 19       		.byte	25
 3934 0bc8 B0       		.byte	-80
 3935 0bc9 94       		.byte	-108
 3936 0bca DA       		.byte	-38
 3937 0bcb C5       		.byte	-59
 3938 0bcc D9       		.byte	-39
 3939 0bcd 34       		.byte	52
 3940 0bce 71       		.byte	113
 3941 0bcf BD       		.byte	-67
 3942 0bd0 EC       		.byte	-20
 3943 0bd1 1A       		.byte	26
 3944 0bd2 50       		.byte	80
 3945 0bd3 22       		.byte	34
 3946 0bd4 70       		.byte	112
 3947 0bd5 E3       		.byte	-29
 3948 0bd6 CC       		.byte	-52
 3949 0bd7 6C       		.byte	108
 3950 0bd8 76       		.byte	118
 3951 0bd9 FC       		.byte	-4
 3952 0bda 6E       		.byte	110
 3953 0bdb CE       		.byte	-50
 3954 0bdc 0F       		.byte	15
 3955 0bdd 4E       		.byte	78
 3956 0bde 17       		.byte	23
 3957 0bdf 68       		.byte	104
 3958 0be0 CD       		.byte	-51
 3959 0be1 DF       		.byte	-33
 3960 0be2 88       		.byte	-120
 3961 0be3 53       		.byte	83
 3962 0be4 BB       		.byte	-69
 3963 0be5 2D       		.byte	45
 3964 0be6 55       		.byte	85
 3965 0be7 1B       		.byte	27
 3966 0be8 3A       		.byte	58
 3967 0be9 33       		.byte	51
 3968 0bea 7D       		.byte	125
 3969 0beb BF       		.byte	-65
 3970 0bec 46       		.byte	70
 3971 0bed A7       		.byte	-89
 3972 0bee 92       		.byte	-110
 3973 0bef C4       		.byte	-60
 3974 0bf0 5E       		.byte	94
ARM GAS  C:\Users\Phuong\AppData\Local\Temp\ccINfzqY.s 			page 90


 3975 0bf1 45       		.byte	69
 3976 0bf2 49       		.byte	73
 3977 0bf3 13       		.byte	19
 3978 0bf4 FE       		.byte	-2
 3979 0bf5 2E       		.byte	46
 3980 0bf6 A8       		.byte	-88
 3981 0bf7 F2       		.byte	-14
 3982 0bf8 A4       		.byte	-92
 3983 0bf9 4A       		.byte	74
 3984 0bfa 82       		.byte	-126
 3985 0bfb 66       		.byte	102
 3986 0bfc EE       		.byte	-18
 3987 0bfd 1C       		.byte	28
 3988 0bfe 8E       		.byte	-114
 3989 0bff B0       		.byte	-80
 3990 0c00 C8       		.byte	-56
 3991 0c01 B5       		.byte	-75
 3992 0c02 D4       		.byte	-44
 3993 0c03 CF       		.byte	-49
 3994 0c04 5A       		.byte	90
 3995 0c05 E9       		.byte	-23
 3996 0c06 F1       		.byte	-15
 3997 0c07 9A       		.byte	-102
 3998              		.section	.rodata.str1.4,"aMS",%progbits,1
 3999              		.align	2
 4000              	.LC1:
 4001 0000 656E6300 		.ascii	"enc\000"
 4002              	.LC3:
 4003 0004 20204145 		.ascii	"  AES-GCM-%3d #%d (%s): \000"
 4003      532D4743 
 4003      4D2D2533 
 4003      64202325 
 4003      64202825 
 4004 001d 000000   		.space	3
 4005              	.LC6:
 4006 0020 736B6970 		.ascii	"skipped\000"
 4006      70656400 
 4007              	.LC14:
 4008 0028 70617373 		.ascii	"passed\000"
 4008      656400
 4009 002f 00       		.space	1
 4010              	.LC16:
 4011 0030 64656300 		.ascii	"dec\000"
 4012              	.LC18:
 4013 0034 20204145 		.ascii	"  AES-GCM-%3d #%d split (%s): \000"
 4013      532D4743 
 4013      4D2D2533 
 4013      64202325 
 4013      64207370 
 4014 0053 00       		.space	1
 4015              	.LC20:
 4016 0054 6661696C 		.ascii	"failed\000"
 4016      656400
 4017              		.text
 4018              	.Letext0:
 4019              		.file 2 "c:\\program files (x86)\\cypress\\psoc creator\\4.2\\psoc creator\\import\\gnu\\arm\\5.4.
 4020              		.file 3 "c:\\program files (x86)\\cypress\\psoc creator\\4.2\\psoc creator\\import\\gnu\\arm\\5.4.
ARM GAS  C:\Users\Phuong\AppData\Local\Temp\ccINfzqY.s 			page 91


 4021              		.file 4 ".\\Source\\mbedtls_open\\include/mbedtls/cipher.h"
 4022              		.file 5 "c:\\program files (x86)\\cypress\\psoc creator\\4.2\\psoc creator\\import\\gnu\\arm\\5.4.
 4023              		.file 6 ".\\Source\\mbedtls_open\\include/mbedtls/gcm.h"
 4024              		.file 7 ".\\Source\\mbedtls_open\\include/mbedtls/platform_util.h"
 4025              		.file 8 "c:\\program files (x86)\\cypress\\psoc creator\\4.2\\psoc creator\\import\\gnu\\arm\\5.4.
 4026              		.file 9 "c:\\program files (x86)\\cypress\\psoc creator\\4.2\\psoc creator\\import\\gnu\\arm\\5.4.
 4027              		.file 10 "<built-in>"
 4028              		.section	.debug_info,"",%progbits
 4029              	.Ldebug_info0:
 4030 0000 52190000 		.4byte	0x1952
 4031 0004 0400     		.2byte	0x4
 4032 0006 00000000 		.4byte	.Ldebug_abbrev0
 4033 000a 04       		.byte	0x4
 4034 000b 01       		.uleb128 0x1
 4035 000c B1020000 		.4byte	.LASF190
 4036 0010 0C       		.byte	0xc
 4037 0011 3E000000 		.4byte	.LASF191
 4038 0015 99040000 		.4byte	.LASF192
 4039 0019 28000000 		.4byte	.Ldebug_ranges0+0x28
 4040 001d 00000000 		.4byte	0
 4041 0021 00000000 		.4byte	.Ldebug_line0
 4042 0025 02       		.uleb128 0x2
 4043 0026 01       		.byte	0x1
 4044 0027 06       		.byte	0x6
 4045 0028 E00E0000 		.4byte	.LASF0
 4046 002c 02       		.uleb128 0x2
 4047 002d 01       		.byte	0x1
 4048 002e 08       		.byte	0x8
 4049 002f E80D0000 		.4byte	.LASF1
 4050 0033 02       		.uleb128 0x2
 4051 0034 02       		.byte	0x2
 4052 0035 05       		.byte	0x5
 4053 0036 8D0B0000 		.4byte	.LASF2
 4054 003a 02       		.uleb128 0x2
 4055 003b 02       		.byte	0x2
 4056 003c 07       		.byte	0x7
 4057 003d 020F0000 		.4byte	.LASF3
 4058 0041 02       		.uleb128 0x2
 4059 0042 04       		.byte	0x4
 4060 0043 05       		.byte	0x5
 4061 0044 BF0B0000 		.4byte	.LASF4
 4062 0048 03       		.uleb128 0x3
 4063 0049 F60D0000 		.4byte	.LASF7
 4064 004d 02       		.byte	0x2
 4065 004e 41       		.byte	0x41
 4066 004f 53000000 		.4byte	0x53
 4067 0053 02       		.uleb128 0x2
 4068 0054 04       		.byte	0x4
 4069 0055 07       		.byte	0x7
 4070 0056 5A0D0000 		.4byte	.LASF5
 4071 005a 02       		.uleb128 0x2
 4072 005b 08       		.byte	0x8
 4073 005c 05       		.byte	0x5
 4074 005d 09090000 		.4byte	.LASF6
 4075 0061 03       		.uleb128 0x3
 4076 0062 6D060000 		.4byte	.LASF8
 4077 0066 02       		.byte	0x2
ARM GAS  C:\Users\Phuong\AppData\Local\Temp\ccINfzqY.s 			page 92


 4078 0067 5B       		.byte	0x5b
 4079 0068 6C000000 		.4byte	0x6c
 4080 006c 02       		.uleb128 0x2
 4081 006d 08       		.byte	0x8
 4082 006e 07       		.byte	0x7
 4083 006f 98030000 		.4byte	.LASF9
 4084 0073 04       		.uleb128 0x4
 4085 0074 04       		.byte	0x4
 4086 0075 05       		.byte	0x5
 4087 0076 696E7400 		.ascii	"int\000"
 4088 007a 02       		.uleb128 0x2
 4089 007b 04       		.byte	0x4
 4090 007c 07       		.byte	0x7
 4091 007d E0000000 		.4byte	.LASF10
 4092 0081 03       		.uleb128 0x3
 4093 0082 95050000 		.4byte	.LASF11
 4094 0086 03       		.byte	0x3
 4095 0087 D8       		.byte	0xd8
 4096 0088 7A000000 		.4byte	0x7a
 4097 008c 02       		.uleb128 0x2
 4098 008d 08       		.byte	0x8
 4099 008e 04       		.byte	0x4
 4100 008f DD0A0000 		.4byte	.LASF12
 4101 0093 05       		.uleb128 0x5
 4102 0094 01       		.byte	0x1
 4103 0095 2C000000 		.4byte	0x2c
 4104 0099 04       		.byte	0x4
 4105 009a 51       		.byte	0x51
 4106 009b DC000000 		.4byte	0xdc
 4107 009f 06       		.uleb128 0x6
 4108 00a0 85070000 		.4byte	.LASF13
 4109 00a4 00       		.byte	0
 4110 00a5 06       		.uleb128 0x6
 4111 00a6 A00B0000 		.4byte	.LASF14
 4112 00aa 01       		.byte	0x1
 4113 00ab 06       		.uleb128 0x6
 4114 00ac 050B0000 		.4byte	.LASF15
 4115 00b0 02       		.byte	0x2
 4116 00b1 06       		.uleb128 0x6
 4117 00b2 970D0000 		.4byte	.LASF16
 4118 00b6 03       		.byte	0x3
 4119 00b7 06       		.uleb128 0x6
 4120 00b8 C90E0000 		.4byte	.LASF17
 4121 00bc 04       		.byte	0x4
 4122 00bd 06       		.uleb128 0x6
 4123 00be 3F0D0000 		.4byte	.LASF18
 4124 00c2 05       		.byte	0x5
 4125 00c3 06       		.uleb128 0x6
 4126 00c4 58070000 		.4byte	.LASF19
 4127 00c8 06       		.byte	0x6
 4128 00c9 06       		.uleb128 0x6
 4129 00ca 94060000 		.4byte	.LASF20
 4130 00ce 07       		.byte	0x7
 4131 00cf 06       		.uleb128 0x6
 4132 00d0 1F0D0000 		.4byte	.LASF21
 4133 00d4 08       		.byte	0x8
 4134 00d5 06       		.uleb128 0x6
ARM GAS  C:\Users\Phuong\AppData\Local\Temp\ccINfzqY.s 			page 93


 4135 00d6 8A0E0000 		.4byte	.LASF22
 4136 00da 09       		.byte	0x9
 4137 00db 00       		.byte	0
 4138 00dc 03       		.uleb128 0x3
 4139 00dd 48030000 		.4byte	.LASF23
 4140 00e1 04       		.byte	0x4
 4141 00e2 5C       		.byte	0x5c
 4142 00e3 93000000 		.4byte	0x93
 4143 00e7 05       		.uleb128 0x5
 4144 00e8 01       		.byte	0x1
 4145 00e9 2C000000 		.4byte	0x2c
 4146 00ed 04       		.byte	0x4
 4147 00ee 65       		.byte	0x65
 4148 00ef B0020000 		.4byte	0x2b0
 4149 00f3 06       		.uleb128 0x6
 4150 00f4 F8090000 		.4byte	.LASF24
 4151 00f8 00       		.byte	0
 4152 00f9 06       		.uleb128 0x6
 4153 00fa ED000000 		.4byte	.LASF25
 4154 00fe 01       		.byte	0x1
 4155 00ff 06       		.uleb128 0x6
 4156 0100 17010000 		.4byte	.LASF26
 4157 0104 02       		.byte	0x2
 4158 0105 06       		.uleb128 0x6
 4159 0106 1D080000 		.4byte	.LASF27
 4160 010a 03       		.byte	0x3
 4161 010b 06       		.uleb128 0x6
 4162 010c 00020000 		.4byte	.LASF28
 4163 0110 04       		.byte	0x4
 4164 0111 06       		.uleb128 0x6
 4165 0112 AF030000 		.4byte	.LASF29
 4166 0116 05       		.byte	0x5
 4167 0117 06       		.uleb128 0x6
 4168 0118 A70A0000 		.4byte	.LASF30
 4169 011c 06       		.byte	0x6
 4170 011d 06       		.uleb128 0x6
 4171 011e 6A050000 		.4byte	.LASF31
 4172 0122 07       		.byte	0x7
 4173 0123 06       		.uleb128 0x6
 4174 0124 32010000 		.4byte	.LASF32
 4175 0128 08       		.byte	0x8
 4176 0129 06       		.uleb128 0x6
 4177 012a F00F0000 		.4byte	.LASF33
 4178 012e 09       		.byte	0x9
 4179 012f 06       		.uleb128 0x6
 4180 0130 140A0000 		.4byte	.LASF34
 4181 0134 0A       		.byte	0xa
 4182 0135 06       		.uleb128 0x6
 4183 0136 E5070000 		.4byte	.LASF35
 4184 013a 0B       		.byte	0xb
 4185 013b 06       		.uleb128 0x6
 4186 013c 760D0000 		.4byte	.LASF36
 4187 0140 0C       		.byte	0xc
 4188 0141 06       		.uleb128 0x6
 4189 0142 51090000 		.4byte	.LASF37
 4190 0146 0D       		.byte	0xd
 4191 0147 06       		.uleb128 0x6
ARM GAS  C:\Users\Phuong\AppData\Local\Temp\ccINfzqY.s 			page 94


 4192 0148 CF0B0000 		.4byte	.LASF38
 4193 014c 0E       		.byte	0xe
 4194 014d 06       		.uleb128 0x6
 4195 014e CA030000 		.4byte	.LASF39
 4196 0152 0F       		.byte	0xf
 4197 0153 06       		.uleb128 0x6
 4198 0154 BC0F0000 		.4byte	.LASF40
 4199 0158 10       		.byte	0x10
 4200 0159 06       		.uleb128 0x6
 4201 015a E0010000 		.4byte	.LASF41
 4202 015e 11       		.byte	0x11
 4203 015f 06       		.uleb128 0x6
 4204 0160 74090000 		.4byte	.LASF42
 4205 0164 12       		.byte	0x12
 4206 0165 06       		.uleb128 0x6
 4207 0166 5C030000 		.4byte	.LASF43
 4208 016a 13       		.byte	0x13
 4209 016b 06       		.uleb128 0x6
 4210 016c 45050000 		.4byte	.LASF44
 4211 0170 14       		.byte	0x14
 4212 0171 06       		.uleb128 0x6
 4213 0172 3F0B0000 		.4byte	.LASF45
 4214 0176 15       		.byte	0x15
 4215 0177 06       		.uleb128 0x6
 4216 0178 AB060000 		.4byte	.LASF46
 4217 017c 16       		.byte	0x16
 4218 017d 06       		.uleb128 0x6
 4219 017e EA0B0000 		.4byte	.LASF47
 4220 0182 17       		.byte	0x17
 4221 0183 06       		.uleb128 0x6
 4222 0184 320A0000 		.4byte	.LASF48
 4223 0188 18       		.byte	0x18
 4224 0189 06       		.uleb128 0x6
 4225 018a A9010000 		.4byte	.LASF49
 4226 018e 19       		.byte	0x19
 4227 018f 06       		.uleb128 0x6
 4228 0190 1E090000 		.4byte	.LASF50
 4229 0194 1A       		.byte	0x1a
 4230 0195 06       		.uleb128 0x6
 4231 0196 1C0E0000 		.4byte	.LASF51
 4232 019a 1B       		.byte	0x1b
 4233 019b 06       		.uleb128 0x6
 4234 019c 6D0A0000 		.4byte	.LASF52
 4235 01a0 1C       		.byte	0x1c
 4236 01a1 06       		.uleb128 0x6
 4237 01a2 9C0F0000 		.4byte	.LASF53
 4238 01a6 1D       		.byte	0x1d
 4239 01a7 06       		.uleb128 0x6
 4240 01a8 9C050000 		.4byte	.LASF54
 4241 01ac 1E       		.byte	0x1e
 4242 01ad 06       		.uleb128 0x6
 4243 01ae 6F000000 		.4byte	.LASF55
 4244 01b2 1F       		.byte	0x1f
 4245 01b3 06       		.uleb128 0x6
 4246 01b4 AD090000 		.4byte	.LASF56
 4247 01b8 20       		.byte	0x20
 4248 01b9 06       		.uleb128 0x6
ARM GAS  C:\Users\Phuong\AppData\Local\Temp\ccINfzqY.s 			page 95


 4249 01ba 9D0C0000 		.4byte	.LASF57
 4250 01be 21       		.byte	0x21
 4251 01bf 06       		.uleb128 0x6
 4252 01c0 34020000 		.4byte	.LASF58
 4253 01c4 22       		.byte	0x22
 4254 01c5 06       		.uleb128 0x6
 4255 01c6 BC050000 		.4byte	.LASF59
 4256 01ca 23       		.byte	0x23
 4257 01cb 06       		.uleb128 0x6
 4258 01cc 78060000 		.4byte	.LASF60
 4259 01d0 24       		.byte	0x24
 4260 01d1 06       		.uleb128 0x6
 4261 01d2 1C0F0000 		.4byte	.LASF61
 4262 01d6 25       		.byte	0x25
 4263 01d7 06       		.uleb128 0x6
 4264 01d8 A50E0000 		.4byte	.LASF62
 4265 01dc 26       		.byte	0x26
 4266 01dd 06       		.uleb128 0x6
 4267 01de 8F000000 		.4byte	.LASF63
 4268 01e2 27       		.byte	0x27
 4269 01e3 06       		.uleb128 0x6
 4270 01e4 3A070000 		.4byte	.LASF64
 4271 01e8 28       		.byte	0x28
 4272 01e9 06       		.uleb128 0x6
 4273 01ea 7C030000 		.4byte	.LASF65
 4274 01ee 29       		.byte	0x29
 4275 01ef 06       		.uleb128 0x6
 4276 01f0 290C0000 		.4byte	.LASF66
 4277 01f4 2A       		.byte	0x2a
 4278 01f5 06       		.uleb128 0x6
 4279 01f6 EE080000 		.4byte	.LASF67
 4280 01fa 2B       		.byte	0x2b
 4281 01fb 06       		.uleb128 0x6
 4282 01fc 720B0000 		.4byte	.LASF68
 4283 0200 2C       		.byte	0x2c
 4284 0201 06       		.uleb128 0x6
 4285 0202 12070000 		.4byte	.LASF69
 4286 0206 2D       		.byte	0x2d
 4287 0207 06       		.uleb128 0x6
 4288 0208 E1060000 		.4byte	.LASF70
 4289 020c 2E       		.byte	0x2e
 4290 020d 06       		.uleb128 0x6
 4291 020e 720C0000 		.4byte	.LASF71
 4292 0212 2F       		.byte	0x2f
 4293 0213 06       		.uleb128 0x6
 4294 0214 38080000 		.4byte	.LASF72
 4295 0218 30       		.byte	0x30
 4296 0219 06       		.uleb128 0x6
 4297 021a 80010000 		.4byte	.LASF73
 4298 021e 31       		.byte	0x31
 4299 021f 06       		.uleb128 0x6
 4300 0220 D2080000 		.4byte	.LASF74
 4301 0224 32       		.byte	0x32
 4302 0225 06       		.uleb128 0x6
 4303 0226 7D020000 		.4byte	.LASF75
 4304 022a 33       		.byte	0x33
 4305 022b 06       		.uleb128 0x6
ARM GAS  C:\Users\Phuong\AppData\Local\Temp\ccINfzqY.s 			page 96


 4306 022c 3D040000 		.4byte	.LASF76
 4307 0230 34       		.byte	0x34
 4308 0231 06       		.uleb128 0x6
 4309 0232 E90A0000 		.4byte	.LASF77
 4310 0236 35       		.byte	0x35
 4311 0237 06       		.uleb128 0x6
 4312 0238 2C060000 		.4byte	.LASF78
 4313 023c 36       		.byte	0x36
 4314 023d 06       		.uleb128 0x6
 4315 023e 61010000 		.4byte	.LASF79
 4316 0242 37       		.byte	0x37
 4317 0243 06       		.uleb128 0x6
 4318 0244 0E100000 		.4byte	.LASF80
 4319 0248 38       		.byte	0x38
 4320 0249 06       		.uleb128 0x6
 4321 024a 58080000 		.4byte	.LASF81
 4322 024e 39       		.byte	0x39
 4323 024f 06       		.uleb128 0x6
 4324 0250 77080000 		.4byte	.LASF82
 4325 0254 3A       		.byte	0x3a
 4326 0255 06       		.uleb128 0x6
 4327 0256 C20D0000 		.4byte	.LASF83
 4328 025a 3B       		.byte	0x3b
 4329 025b 06       		.uleb128 0x6
 4330 025c CB090000 		.4byte	.LASF84
 4331 0260 3C       		.byte	0x3c
 4332 0261 06       		.uleb128 0x6
 4333 0262 630F0000 		.4byte	.LASF85
 4334 0266 3D       		.byte	0x3d
 4335 0267 06       		.uleb128 0x6
 4336 0268 7D040000 		.4byte	.LASF86
 4337 026c 3E       		.byte	0x3e
 4338 026d 06       		.uleb128 0x6
 4339 026e 11000000 		.4byte	.LASF87
 4340 0272 3F       		.byte	0x3f
 4341 0273 06       		.uleb128 0x6
 4342 0274 51060000 		.4byte	.LASF88
 4343 0278 40       		.byte	0x40
 4344 0279 06       		.uleb128 0x6
 4345 027a 0D0C0000 		.4byte	.LASF89
 4346 027e 41       		.byte	0x41
 4347 027f 06       		.uleb128 0x6
 4348 0280 9C070000 		.4byte	.LASF90
 4349 0284 42       		.byte	0x42
 4350 0285 06       		.uleb128 0x6
 4351 0286 02040000 		.4byte	.LASF91
 4352 028a 43       		.byte	0x43
 4353 028b 06       		.uleb128 0x6
 4354 028c C20A0000 		.4byte	.LASF92
 4355 0290 44       		.byte	0x44
 4356 0291 06       		.uleb128 0x6
 4357 0292 FF050000 		.4byte	.LASF93
 4358 0296 45       		.byte	0x45
 4359 0297 06       		.uleb128 0x6
 4360 0298 FA0C0000 		.4byte	.LASF94
 4361 029c 46       		.byte	0x46
 4362 029d 06       		.uleb128 0x6
ARM GAS  C:\Users\Phuong\AppData\Local\Temp\ccINfzqY.s 			page 97


 4363 029e 010E0000 		.4byte	.LASF95
 4364 02a2 47       		.byte	0x47
 4365 02a3 06       		.uleb128 0x6
 4366 02a4 99020000 		.4byte	.LASF96
 4367 02a8 48       		.byte	0x48
 4368 02a9 06       		.uleb128 0x6
 4369 02aa D00C0000 		.4byte	.LASF97
 4370 02ae 49       		.byte	0x49
 4371 02af 00       		.byte	0
 4372 02b0 03       		.uleb128 0x3
 4373 02b1 CA000000 		.4byte	.LASF98
 4374 02b5 04       		.byte	0x4
 4375 02b6 B0       		.byte	0xb0
 4376 02b7 E7000000 		.4byte	0xe7
 4377 02bb 05       		.uleb128 0x5
 4378 02bc 01       		.byte	0x1
 4379 02bd 2C000000 		.4byte	0x2c
 4380 02c1 04       		.byte	0x4
 4381 02c2 B3       		.byte	0xb3
 4382 02c3 0A030000 		.4byte	0x30a
 4383 02c7 06       		.uleb128 0x6
 4384 02c8 1A060000 		.4byte	.LASF99
 4385 02cc 00       		.byte	0
 4386 02cd 06       		.uleb128 0x6
 4387 02ce 410C0000 		.4byte	.LASF100
 4388 02d2 01       		.byte	0x1
 4389 02d3 06       		.uleb128 0x6
 4390 02d4 3C0E0000 		.4byte	.LASF101
 4391 02d8 02       		.byte	0x2
 4392 02d9 06       		.uleb128 0x6
 4393 02da 50010000 		.4byte	.LASF102
 4394 02de 03       		.byte	0x3
 4395 02df 06       		.uleb128 0x6
 4396 02e0 600E0000 		.4byte	.LASF103
 4397 02e4 04       		.byte	0x4
 4398 02e5 06       		.uleb128 0x6
 4399 02e6 AB000000 		.4byte	.LASF104
 4400 02ea 05       		.byte	0x5
 4401 02eb 06       		.uleb128 0x6
 4402 02ec 94090000 		.4byte	.LASF105
 4403 02f0 06       		.byte	0x6
 4404 02f1 06       		.uleb128 0x6
 4405 02f2 B8070000 		.4byte	.LASF106
 4406 02f6 07       		.byte	0x7
 4407 02f7 06       		.uleb128 0x6
 4408 02f8 4B0F0000 		.4byte	.LASF107
 4409 02fc 08       		.byte	0x8
 4410 02fd 06       		.uleb128 0x6
 4411 02fe 01070000 		.4byte	.LASF108
 4412 0302 09       		.byte	0x9
 4413 0303 06       		.uleb128 0x6
 4414 0304 550A0000 		.4byte	.LASF109
 4415 0308 0A       		.byte	0xa
 4416 0309 00       		.byte	0
 4417 030a 03       		.uleb128 0x3
 4418 030b EC030000 		.4byte	.LASF110
 4419 030f 04       		.byte	0x4
ARM GAS  C:\Users\Phuong\AppData\Local\Temp\ccINfzqY.s 			page 98


 4420 0310 BF       		.byte	0xbf
 4421 0311 BB020000 		.4byte	0x2bb
 4422 0315 05       		.uleb128 0x5
 4423 0316 01       		.byte	0x1
 4424 0317 25000000 		.4byte	0x25
 4425 031b 04       		.byte	0x4
 4426 031c CB       		.byte	0xcb
 4427 031d 34030000 		.4byte	0x334
 4428 0321 07       		.uleb128 0x7
 4429 0322 66020000 		.4byte	.LASF111
 4430 0326 7F       		.sleb128 -1
 4431 0327 06       		.uleb128 0x6
 4432 0328 2D040000 		.4byte	.LASF112
 4433 032c 00       		.byte	0
 4434 032d 06       		.uleb128 0x6
 4435 032e 1D040000 		.4byte	.LASF113
 4436 0332 01       		.byte	0x1
 4437 0333 00       		.byte	0
 4438 0334 03       		.uleb128 0x3
 4439 0335 CC010000 		.4byte	.LASF114
 4440 0339 04       		.byte	0x4
 4441 033a CF       		.byte	0xcf
 4442 033b 15030000 		.4byte	0x315
 4443 033f 03       		.uleb128 0x3
 4444 0340 01010000 		.4byte	.LASF115
 4445 0344 04       		.byte	0x4
 4446 0345 E4       		.byte	0xe4
 4447 0346 4A030000 		.4byte	0x34a
 4448 034a 08       		.uleb128 0x8
 4449 034b 01010000 		.4byte	.LASF115
 4450 034f 09       		.uleb128 0x9
 4451 0350 59040000 		.4byte	.LASF125
 4452 0354 1C       		.byte	0x1c
 4453 0355 04       		.byte	0x4
 4454 0356 EF       		.byte	0xef
 4455 0357 C1030000 		.4byte	0x3c1
 4456 035b 0A       		.uleb128 0xa
 4457 035c DE0D0000 		.4byte	.LASF116
 4458 0360 04       		.byte	0x4
 4459 0361 F4       		.byte	0xf4
 4460 0362 B0020000 		.4byte	0x2b0
 4461 0366 00       		.byte	0
 4462 0367 0A       		.uleb128 0xa
 4463 0368 9C010000 		.4byte	.LASF117
 4464 036c 04       		.byte	0x4
 4465 036d F7       		.byte	0xf7
 4466 036e 0A030000 		.4byte	0x30a
 4467 0372 01       		.byte	0x1
 4468 0373 0A       		.uleb128 0xa
 4469 0374 920C0000 		.4byte	.LASF118
 4470 0378 04       		.byte	0x4
 4471 0379 FD       		.byte	0xfd
 4472 037a 7A000000 		.4byte	0x7a
 4473 037e 04       		.byte	0x4
 4474 037f 0B       		.uleb128 0xb
 4475 0380 CB0C0000 		.4byte	.LASF119
 4476 0384 04       		.byte	0x4
ARM GAS  C:\Users\Phuong\AppData\Local\Temp\ccINfzqY.s 			page 99


 4477 0385 0001     		.2byte	0x100
 4478 0387 C1030000 		.4byte	0x3c1
 4479 038b 08       		.byte	0x8
 4480 038c 0B       		.uleb128 0xb
 4481 038d 6C090000 		.4byte	.LASF120
 4482 0391 04       		.byte	0x4
 4483 0392 0601     		.2byte	0x106
 4484 0394 7A000000 		.4byte	0x7a
 4485 0398 0C       		.byte	0xc
 4486 0399 0B       		.uleb128 0xb
 4487 039a BC000000 		.4byte	.LASF121
 4488 039e 04       		.byte	0x4
 4489 039f 0C01     		.2byte	0x10c
 4490 03a1 73000000 		.4byte	0x73
 4491 03a5 10       		.byte	0x10
 4492 03a6 0B       		.uleb128 0xb
 4493 03a7 670C0000 		.4byte	.LASF122
 4494 03ab 04       		.byte	0x4
 4495 03ac 0F01     		.2byte	0x10f
 4496 03ae 7A000000 		.4byte	0x7a
 4497 03b2 14       		.byte	0x14
 4498 03b3 0B       		.uleb128 0xb
 4499 03b4 43030000 		.4byte	.LASF123
 4500 03b8 04       		.byte	0x4
 4501 03b9 1201     		.2byte	0x112
 4502 03bb D3030000 		.4byte	0x3d3
 4503 03bf 18       		.byte	0x18
 4504 03c0 00       		.byte	0
 4505 03c1 0C       		.uleb128 0xc
 4506 03c2 04       		.byte	0x4
 4507 03c3 CE030000 		.4byte	0x3ce
 4508 03c7 02       		.uleb128 0x2
 4509 03c8 01       		.byte	0x1
 4510 03c9 08       		.byte	0x8
 4511 03ca 35070000 		.4byte	.LASF124
 4512 03ce 0D       		.uleb128 0xd
 4513 03cf C7030000 		.4byte	0x3c7
 4514 03d3 0C       		.uleb128 0xc
 4515 03d4 04       		.byte	0x4
 4516 03d5 D9030000 		.4byte	0x3d9
 4517 03d9 0D       		.uleb128 0xd
 4518 03da 3F030000 		.4byte	0x33f
 4519 03de 0E       		.uleb128 0xe
 4520 03df 59040000 		.4byte	.LASF125
 4521 03e3 04       		.byte	0x4
 4522 03e4 1401     		.2byte	0x114
 4523 03e6 4F030000 		.4byte	0x34f
 4524 03ea 0F       		.uleb128 0xf
 4525 03eb 710E0000 		.4byte	.LASF126
 4526 03ef 40       		.byte	0x40
 4527 03f0 04       		.byte	0x4
 4528 03f1 1901     		.2byte	0x119
 4529 03f3 79040000 		.4byte	0x479
 4530 03f7 0B       		.uleb128 0xb
 4531 03f8 B40C0000 		.4byte	.LASF127
 4532 03fc 04       		.byte	0x4
 4533 03fd 1C01     		.2byte	0x11c
ARM GAS  C:\Users\Phuong\AppData\Local\Temp\ccINfzqY.s 			page 100


 4534 03ff 79040000 		.4byte	0x479
 4535 0403 00       		.byte	0
 4536 0404 0B       		.uleb128 0xb
 4537 0405 920C0000 		.4byte	.LASF118
 4538 0409 04       		.byte	0x4
 4539 040a 1F01     		.2byte	0x11f
 4540 040c 73000000 		.4byte	0x73
 4541 0410 04       		.byte	0x4
 4542 0411 0B       		.uleb128 0xb
 4543 0412 2D000000 		.4byte	.LASF128
 4544 0416 04       		.byte	0x4
 4545 0417 2401     		.2byte	0x124
 4546 0419 34030000 		.4byte	0x334
 4547 041d 08       		.byte	0x8
 4548 041e 0B       		.uleb128 0xb
 4549 041f 7F0F0000 		.4byte	.LASF129
 4550 0423 04       		.byte	0x4
 4551 0424 2A01     		.2byte	0x12a
 4552 0426 9F040000 		.4byte	0x49f
 4553 042a 0C       		.byte	0xc
 4554 042b 0B       		.uleb128 0xb
 4555 042c 5B0C0000 		.4byte	.LASF130
 4556 0430 04       		.byte	0x4
 4557 0431 2B01     		.2byte	0x12b
 4558 0433 C4040000 		.4byte	0x4c4
 4559 0437 10       		.byte	0x10
 4560 0438 0B       		.uleb128 0xb
 4561 0439 8B0F0000 		.4byte	.LASF131
 4562 043d 04       		.byte	0x4
 4563 043e 2F01     		.2byte	0x12f
 4564 0440 CA040000 		.4byte	0x4ca
 4565 0444 14       		.byte	0x14
 4566 0445 0B       		.uleb128 0xb
 4567 0446 85050000 		.4byte	.LASF132
 4568 044a 04       		.byte	0x4
 4569 044b 3201     		.2byte	0x132
 4570 044d 81000000 		.4byte	0x81
 4571 0451 24       		.byte	0x24
 4572 0452 10       		.uleb128 0x10
 4573 0453 697600   		.ascii	"iv\000"
 4574 0456 04       		.byte	0x4
 4575 0457 3601     		.2byte	0x136
 4576 0459 CA040000 		.4byte	0x4ca
 4577 045d 28       		.byte	0x28
 4578 045e 0B       		.uleb128 0xb
 4579 045f 6C090000 		.4byte	.LASF120
 4580 0463 04       		.byte	0x4
 4581 0464 3901     		.2byte	0x139
 4582 0466 81000000 		.4byte	0x81
 4583 046a 38       		.byte	0x38
 4584 046b 0B       		.uleb128 0xb
 4585 046c C00C0000 		.4byte	.LASF133
 4586 0470 04       		.byte	0x4
 4587 0471 3C01     		.2byte	0x13c
 4588 0473 E1040000 		.4byte	0x4e1
 4589 0477 3C       		.byte	0x3c
 4590 0478 00       		.byte	0
ARM GAS  C:\Users\Phuong\AppData\Local\Temp\ccINfzqY.s 			page 101


 4591 0479 0C       		.uleb128 0xc
 4592 047a 04       		.byte	0x4
 4593 047b 7F040000 		.4byte	0x47f
 4594 047f 0D       		.uleb128 0xd
 4595 0480 DE030000 		.4byte	0x3de
 4596 0484 11       		.uleb128 0x11
 4597 0485 99040000 		.4byte	0x499
 4598 0489 12       		.uleb128 0x12
 4599 048a 99040000 		.4byte	0x499
 4600 048e 12       		.uleb128 0x12
 4601 048f 81000000 		.4byte	0x81
 4602 0493 12       		.uleb128 0x12
 4603 0494 81000000 		.4byte	0x81
 4604 0498 00       		.byte	0
 4605 0499 0C       		.uleb128 0xc
 4606 049a 04       		.byte	0x4
 4607 049b 2C000000 		.4byte	0x2c
 4608 049f 0C       		.uleb128 0xc
 4609 04a0 04       		.byte	0x4
 4610 04a1 84040000 		.4byte	0x484
 4611 04a5 13       		.uleb128 0x13
 4612 04a6 73000000 		.4byte	0x73
 4613 04aa BE040000 		.4byte	0x4be
 4614 04ae 12       		.uleb128 0x12
 4615 04af 99040000 		.4byte	0x499
 4616 04b3 12       		.uleb128 0x12
 4617 04b4 81000000 		.4byte	0x81
 4618 04b8 12       		.uleb128 0x12
 4619 04b9 BE040000 		.4byte	0x4be
 4620 04bd 00       		.byte	0
 4621 04be 0C       		.uleb128 0xc
 4622 04bf 04       		.byte	0x4
 4623 04c0 81000000 		.4byte	0x81
 4624 04c4 0C       		.uleb128 0xc
 4625 04c5 04       		.byte	0x4
 4626 04c6 A5040000 		.4byte	0x4a5
 4627 04ca 14       		.uleb128 0x14
 4628 04cb 2C000000 		.4byte	0x2c
 4629 04cf DA040000 		.4byte	0x4da
 4630 04d3 15       		.uleb128 0x15
 4631 04d4 DA040000 		.4byte	0x4da
 4632 04d8 0F       		.byte	0xf
 4633 04d9 00       		.byte	0
 4634 04da 02       		.uleb128 0x2
 4635 04db 04       		.byte	0x4
 4636 04dc 07       		.byte	0x7
 4637 04dd 360D0000 		.4byte	.LASF134
 4638 04e1 16       		.uleb128 0x16
 4639 04e2 04       		.byte	0x4
 4640 04e3 0E       		.uleb128 0xe
 4641 04e4 710E0000 		.4byte	.LASF126
 4642 04e8 04       		.byte	0x4
 4643 04e9 4201     		.2byte	0x142
 4644 04eb EA030000 		.4byte	0x3ea
 4645 04ef 03       		.uleb128 0x3
 4646 04f0 58020000 		.4byte	.LASF135
 4647 04f4 05       		.byte	0x5
ARM GAS  C:\Users\Phuong\AppData\Local\Temp\ccINfzqY.s 			page 102


 4648 04f5 30       		.byte	0x30
 4649 04f6 48000000 		.4byte	0x48
 4650 04fa 03       		.uleb128 0x3
 4651 04fb 520C0000 		.4byte	.LASF136
 4652 04ff 05       		.byte	0x5
 4653 0500 3C       		.byte	0x3c
 4654 0501 61000000 		.4byte	0x61
 4655 0505 17       		.uleb128 0x17
 4656 0506 1B020000 		.4byte	.LASF137
 4657 050a 8801     		.2byte	0x188
 4658 050c 06       		.byte	0x6
 4659 050d 38       		.byte	0x38
 4660 050e 81050000 		.4byte	0x581
 4661 0512 0A       		.uleb128 0xa
 4662 0513 C00C0000 		.4byte	.LASF133
 4663 0517 06       		.byte	0x6
 4664 0518 3A       		.byte	0x3a
 4665 0519 E3040000 		.4byte	0x4e3
 4666 051d 00       		.byte	0
 4667 051e 18       		.uleb128 0x18
 4668 051f 484C00   		.ascii	"HL\000"
 4669 0522 06       		.byte	0x6
 4670 0523 3B       		.byte	0x3b
 4671 0524 81050000 		.4byte	0x581
 4672 0528 40       		.byte	0x40
 4673 0529 18       		.uleb128 0x18
 4674 052a 484800   		.ascii	"HH\000"
 4675 052d 06       		.byte	0x6
 4676 052e 3C       		.byte	0x3c
 4677 052f 81050000 		.4byte	0x581
 4678 0533 C0       		.byte	0xc0
 4679 0534 19       		.uleb128 0x19
 4680 0535 6C656E00 		.ascii	"len\000"
 4681 0539 06       		.byte	0x6
 4682 053a 3D       		.byte	0x3d
 4683 053b FA040000 		.4byte	0x4fa
 4684 053f 4001     		.2byte	0x140
 4685 0541 1A       		.uleb128 0x1a
 4686 0542 B70B0000 		.4byte	.LASF138
 4687 0546 06       		.byte	0x6
 4688 0547 3E       		.byte	0x3e
 4689 0548 FA040000 		.4byte	0x4fa
 4690 054c 4801     		.2byte	0x148
 4691 054e 1A       		.uleb128 0x1a
 4692 054f 6C0D0000 		.4byte	.LASF139
 4693 0553 06       		.byte	0x6
 4694 0554 3F       		.byte	0x3f
 4695 0555 CA040000 		.4byte	0x4ca
 4696 0559 5001     		.2byte	0x150
 4697 055b 19       		.uleb128 0x19
 4698 055c 7900     		.ascii	"y\000"
 4699 055e 06       		.byte	0x6
 4700 055f 40       		.byte	0x40
 4701 0560 CA040000 		.4byte	0x4ca
 4702 0564 6001     		.2byte	0x160
 4703 0566 19       		.uleb128 0x19
 4704 0567 62756600 		.ascii	"buf\000"
ARM GAS  C:\Users\Phuong\AppData\Local\Temp\ccINfzqY.s 			page 103


 4705 056b 06       		.byte	0x6
 4706 056c 41       		.byte	0x41
 4707 056d CA040000 		.4byte	0x4ca
 4708 0571 7001     		.2byte	0x170
 4709 0573 1A       		.uleb128 0x1a
 4710 0574 9C010000 		.4byte	.LASF117
 4711 0578 06       		.byte	0x6
 4712 0579 42       		.byte	0x42
 4713 057a 73000000 		.4byte	0x73
 4714 057e 8001     		.2byte	0x180
 4715 0580 00       		.byte	0
 4716 0581 14       		.uleb128 0x14
 4717 0582 FA040000 		.4byte	0x4fa
 4718 0586 91050000 		.4byte	0x591
 4719 058a 15       		.uleb128 0x15
 4720 058b DA040000 		.4byte	0x4da
 4721 058f 0F       		.byte	0xf
 4722 0590 00       		.byte	0
 4723 0591 03       		.uleb128 0x3
 4724 0592 1B020000 		.4byte	.LASF137
 4725 0596 06       		.byte	0x6
 4726 0597 46       		.byte	0x46
 4727 0598 05050000 		.4byte	0x505
 4728 059c 1B       		.uleb128 0x1b
 4729 059d 14080000 		.4byte	.LASF193
 4730 05a1 01       		.byte	0x1
 4731 05a2 D1       		.byte	0xd1
 4732 05a3 00000000 		.4byte	.LFB11
 4733 05a7 30010000 		.4byte	.LFE11-.LFB11
 4734 05ab 01       		.uleb128 0x1
 4735 05ac 9C       		.byte	0x9c
 4736 05ad 2F060000 		.4byte	0x62f
 4737 05b1 1C       		.uleb128 0x1c
 4738 05b2 63747800 		.ascii	"ctx\000"
 4739 05b6 01       		.byte	0x1
 4740 05b7 D1       		.byte	0xd1
 4741 05b8 2F060000 		.4byte	0x62f
 4742 05bc 01       		.uleb128 0x1
 4743 05bd 50       		.byte	0x50
 4744 05be 1D       		.uleb128 0x1d
 4745 05bf 7800     		.ascii	"x\000"
 4746 05c1 01       		.byte	0x1
 4747 05c2 D1       		.byte	0xd1
 4748 05c3 35060000 		.4byte	0x635
 4749 05c7 00000000 		.4byte	.LLST0
 4750 05cb 1E       		.uleb128 0x1e
 4751 05cc 37000000 		.4byte	.LASF140
 4752 05d0 01       		.byte	0x1
 4753 05d1 D2       		.byte	0xd2
 4754 05d2 99040000 		.4byte	0x499
 4755 05d6 1E000000 		.4byte	.LLST1
 4756 05da 1F       		.uleb128 0x1f
 4757 05db 6900     		.ascii	"i\000"
 4758 05dd 01       		.byte	0x1
 4759 05de D4       		.byte	0xd4
 4760 05df 73000000 		.4byte	0x73
 4761 05e3 47000000 		.4byte	.LLST2
ARM GAS  C:\Users\Phuong\AppData\Local\Temp\ccINfzqY.s 			page 104


 4762 05e7 1F       		.uleb128 0x1f
 4763 05e8 6C6F00   		.ascii	"lo\000"
 4764 05eb 01       		.byte	0x1
 4765 05ec D5       		.byte	0xd5
 4766 05ed 2C000000 		.4byte	0x2c
 4767 05f1 72000000 		.4byte	.LLST3
 4768 05f5 1F       		.uleb128 0x1f
 4769 05f6 686900   		.ascii	"hi\000"
 4770 05f9 01       		.byte	0x1
 4771 05fa D5       		.byte	0xd5
 4772 05fb 2C000000 		.4byte	0x2c
 4773 05ff 10010000 		.4byte	.LLST4
 4774 0603 1F       		.uleb128 0x1f
 4775 0604 72656D00 		.ascii	"rem\000"
 4776 0608 01       		.byte	0x1
 4777 0609 D5       		.byte	0xd5
 4778 060a 2C000000 		.4byte	0x2c
 4779 060e 24010000 		.4byte	.LLST5
 4780 0612 1F       		.uleb128 0x1f
 4781 0613 7A6800   		.ascii	"zh\000"
 4782 0616 01       		.byte	0x1
 4783 0617 D6       		.byte	0xd6
 4784 0618 FA040000 		.4byte	0x4fa
 4785 061c 42010000 		.4byte	.LLST6
 4786 0620 1F       		.uleb128 0x1f
 4787 0621 7A6C00   		.ascii	"zl\000"
 4788 0624 01       		.byte	0x1
 4789 0625 D6       		.byte	0xd6
 4790 0626 FA040000 		.4byte	0x4fa
 4791 062a CA010000 		.4byte	.LLST7
 4792 062e 00       		.byte	0
 4793 062f 0C       		.uleb128 0xc
 4794 0630 04       		.byte	0x4
 4795 0631 91050000 		.4byte	0x591
 4796 0635 0C       		.uleb128 0xc
 4797 0636 04       		.byte	0x4
 4798 0637 3B060000 		.4byte	0x63b
 4799 063b 0D       		.uleb128 0xd
 4800 063c 2C000000 		.4byte	0x2c
 4801 0640 20       		.uleb128 0x20
 4802 0641 6F040000 		.4byte	.LASF194
 4803 0645 01       		.byte	0x1
 4804 0646 64       		.byte	0x64
 4805 0647 73000000 		.4byte	0x73
 4806 064b 00000000 		.4byte	.LFB9
 4807 064f 8E010000 		.4byte	.LFE9-.LFB9
 4808 0653 01       		.uleb128 0x1
 4809 0654 9C       		.byte	0x9c
 4810 0655 69070000 		.4byte	0x769
 4811 0659 1D       		.uleb128 0x1d
 4812 065a 63747800 		.ascii	"ctx\000"
 4813 065e 01       		.byte	0x1
 4814 065f 64       		.byte	0x64
 4815 0660 2F060000 		.4byte	0x62f
 4816 0664 22020000 		.4byte	.LLST8
 4817 0668 1F       		.uleb128 0x1f
 4818 0669 72657400 		.ascii	"ret\000"
ARM GAS  C:\Users\Phuong\AppData\Local\Temp\ccINfzqY.s 			page 105


 4819 066d 01       		.byte	0x1
 4820 066e 66       		.byte	0x66
 4821 066f 73000000 		.4byte	0x73
 4822 0673 4E020000 		.4byte	.LLST9
 4823 0677 1F       		.uleb128 0x1f
 4824 0678 6900     		.ascii	"i\000"
 4825 067a 01       		.byte	0x1
 4826 067b 66       		.byte	0x66
 4827 067c 73000000 		.4byte	0x73
 4828 0680 61020000 		.4byte	.LLST10
 4829 0684 1F       		.uleb128 0x1f
 4830 0685 6A00     		.ascii	"j\000"
 4831 0687 01       		.byte	0x1
 4832 0688 66       		.byte	0x66
 4833 0689 73000000 		.4byte	0x73
 4834 068d 8B020000 		.4byte	.LLST11
 4835 0691 21       		.uleb128 0x21
 4836 0692 686900   		.ascii	"hi\000"
 4837 0695 01       		.byte	0x1
 4838 0696 67       		.byte	0x67
 4839 0697 FA040000 		.4byte	0x4fa
 4840 069b 21       		.uleb128 0x21
 4841 069c 6C6F00   		.ascii	"lo\000"
 4842 069f 01       		.byte	0x1
 4843 06a0 67       		.byte	0x67
 4844 06a1 FA040000 		.4byte	0x4fa
 4845 06a5 1F       		.uleb128 0x1f
 4846 06a6 766C00   		.ascii	"vl\000"
 4847 06a9 01       		.byte	0x1
 4848 06aa 68       		.byte	0x68
 4849 06ab FA040000 		.4byte	0x4fa
 4850 06af AA020000 		.4byte	.LLST12
 4851 06b3 1F       		.uleb128 0x1f
 4852 06b4 766800   		.ascii	"vh\000"
 4853 06b7 01       		.byte	0x1
 4854 06b8 68       		.byte	0x68
 4855 06b9 FA040000 		.4byte	0x4fa
 4856 06bd 25030000 		.4byte	.LLST13
 4857 06c1 22       		.uleb128 0x22
 4858 06c2 6800     		.ascii	"h\000"
 4859 06c4 01       		.byte	0x1
 4860 06c5 69       		.byte	0x69
 4861 06c6 CA040000 		.4byte	0x4ca
 4862 06ca 02       		.uleb128 0x2
 4863 06cb 91       		.byte	0x91
 4864 06cc 48       		.sleb128 -56
 4865 06cd 23       		.uleb128 0x23
 4866 06ce 2F020000 		.4byte	.LASF141
 4867 06d2 01       		.byte	0x1
 4868 06d3 6A       		.byte	0x6a
 4869 06d4 81000000 		.4byte	0x81
 4870 06d8 02       		.uleb128 0x2
 4871 06d9 91       		.byte	0x91
 4872 06da 44       		.sleb128 -60
 4873 06db 24       		.uleb128 0x24
 4874 06dc B8000000 		.4byte	.LBB2
 4875 06e0 42000000 		.4byte	.LBE2-.LBB2
ARM GAS  C:\Users\Phuong\AppData\Local\Temp\ccINfzqY.s 			page 106


 4876 06e4 F6060000 		.4byte	0x6f6
 4877 06e8 1F       		.uleb128 0x1f
 4878 06e9 5400     		.ascii	"T\000"
 4879 06eb 01       		.byte	0x1
 4880 06ec 89       		.byte	0x89
 4881 06ed EF040000 		.4byte	0x4ef
 4882 06f1 8D030000 		.4byte	.LLST14
 4883 06f5 00       		.byte	0
 4884 06f6 24       		.uleb128 0x24
 4885 06f7 04010000 		.4byte	.LBB3
 4886 06fb 74000000 		.4byte	.LBE3-.LBB3
 4887 06ff 22070000 		.4byte	0x722
 4888 0703 1F       		.uleb128 0x1f
 4889 0704 48694C00 		.ascii	"HiL\000"
 4890 0708 01       		.byte	0x1
 4891 0709 93       		.byte	0x93
 4892 070a 69070000 		.4byte	0x769
 4893 070e AB030000 		.4byte	.LLST15
 4894 0712 1F       		.uleb128 0x1f
 4895 0713 48694800 		.ascii	"HiH\000"
 4896 0717 01       		.byte	0x1
 4897 0718 93       		.byte	0x93
 4898 0719 69070000 		.4byte	0x769
 4899 071d CB030000 		.4byte	.LLST16
 4900 0721 00       		.byte	0
 4901 0722 25       		.uleb128 0x25
 4902 0723 1E000000 		.4byte	.LVL45
 4903 0727 C8180000 		.4byte	0x18c8
 4904 072b 40070000 		.4byte	0x740
 4905 072f 26       		.uleb128 0x26
 4906 0730 01       		.uleb128 0x1
 4907 0731 50       		.byte	0x50
 4908 0732 02       		.uleb128 0x2
 4909 0733 91       		.byte	0x91
 4910 0734 48       		.sleb128 -56
 4911 0735 26       		.uleb128 0x26
 4912 0736 01       		.uleb128 0x1
 4913 0737 51       		.byte	0x51
 4914 0738 01       		.uleb128 0x1
 4915 0739 30       		.byte	0x30
 4916 073a 26       		.uleb128 0x26
 4917 073b 01       		.uleb128 0x1
 4918 073c 52       		.byte	0x52
 4919 073d 01       		.uleb128 0x1
 4920 073e 40       		.byte	0x40
 4921 073f 00       		.byte	0
 4922 0740 27       		.uleb128 0x27
 4923 0741 2E000000 		.4byte	.LVL46
 4924 0745 D1180000 		.4byte	0x18d1
 4925 0749 26       		.uleb128 0x26
 4926 074a 01       		.uleb128 0x1
 4927 074b 50       		.byte	0x50
 4928 074c 02       		.uleb128 0x2
 4929 074d 74       		.byte	0x74
 4930 074e 00       		.sleb128 0
 4931 074f 26       		.uleb128 0x26
 4932 0750 01       		.uleb128 0x1
ARM GAS  C:\Users\Phuong\AppData\Local\Temp\ccINfzqY.s 			page 107


 4933 0751 51       		.byte	0x51
 4934 0752 02       		.uleb128 0x2
 4935 0753 91       		.byte	0x91
 4936 0754 48       		.sleb128 -56
 4937 0755 26       		.uleb128 0x26
 4938 0756 01       		.uleb128 0x1
 4939 0757 52       		.byte	0x52
 4940 0758 01       		.uleb128 0x1
 4941 0759 40       		.byte	0x40
 4942 075a 26       		.uleb128 0x26
 4943 075b 01       		.uleb128 0x1
 4944 075c 53       		.byte	0x53
 4945 075d 02       		.uleb128 0x2
 4946 075e 91       		.byte	0x91
 4947 075f 48       		.sleb128 -56
 4948 0760 26       		.uleb128 0x26
 4949 0761 02       		.uleb128 0x2
 4950 0762 7D       		.byte	0x7d
 4951 0763 00       		.sleb128 0
 4952 0764 02       		.uleb128 0x2
 4953 0765 91       		.byte	0x91
 4954 0766 44       		.sleb128 -60
 4955 0767 00       		.byte	0
 4956 0768 00       		.byte	0
 4957 0769 0C       		.uleb128 0xc
 4958 076a 04       		.byte	0x4
 4959 076b FA040000 		.4byte	0x4fa
 4960 076f 28       		.uleb128 0x28
 4961 0770 00000000 		.4byte	.LASF162
 4962 0774 01       		.byte	0x1
 4963 0775 57       		.byte	0x57
 4964 0776 00000000 		.4byte	.LFB8
 4965 077a 0E000000 		.4byte	.LFE8-.LFB8
 4966 077e 01       		.uleb128 0x1
 4967 077f 9C       		.byte	0x9c
 4968 0780 B1070000 		.4byte	0x7b1
 4969 0784 1D       		.uleb128 0x1d
 4970 0785 63747800 		.ascii	"ctx\000"
 4971 0789 01       		.byte	0x1
 4972 078a 57       		.byte	0x57
 4973 078b 2F060000 		.4byte	0x62f
 4974 078f EB030000 		.4byte	.LLST17
 4975 0793 27       		.uleb128 0x27
 4976 0794 0C000000 		.4byte	.LVL81
 4977 0798 C8180000 		.4byte	0x18c8
 4978 079c 26       		.uleb128 0x26
 4979 079d 01       		.uleb128 0x1
 4980 079e 50       		.byte	0x50
 4981 079f 03       		.uleb128 0x3
 4982 07a0 F3       		.byte	0xf3
 4983 07a1 01       		.uleb128 0x1
 4984 07a2 50       		.byte	0x50
 4985 07a3 26       		.uleb128 0x26
 4986 07a4 01       		.uleb128 0x1
 4987 07a5 51       		.byte	0x51
 4988 07a6 01       		.uleb128 0x1
 4989 07a7 30       		.byte	0x30
ARM GAS  C:\Users\Phuong\AppData\Local\Temp\ccINfzqY.s 			page 108


 4990 07a8 26       		.uleb128 0x26
 4991 07a9 01       		.uleb128 0x1
 4992 07aa 52       		.byte	0x52
 4993 07ab 03       		.uleb128 0x3
 4994 07ac 0A       		.byte	0xa
 4995 07ad 8801     		.2byte	0x188
 4996 07af 00       		.byte	0
 4997 07b0 00       		.byte	0
 4998 07b1 29       		.uleb128 0x29
 4999 07b2 380F0000 		.4byte	.LASF144
 5000 07b6 01       		.byte	0x1
 5001 07b7 A0       		.byte	0xa0
 5002 07b8 73000000 		.4byte	0x73
 5003 07bc 00000000 		.4byte	.LFB10
 5004 07c0 52000000 		.4byte	.LFE10-.LFB10
 5005 07c4 01       		.uleb128 0x1
 5006 07c5 9C       		.byte	0x9c
 5007 07c6 A1080000 		.4byte	0x8a1
 5008 07ca 1D       		.uleb128 0x1d
 5009 07cb 63747800 		.ascii	"ctx\000"
 5010 07cf 01       		.byte	0x1
 5011 07d0 A0       		.byte	0xa0
 5012 07d1 2F060000 		.4byte	0x62f
 5013 07d5 0C040000 		.4byte	.LLST18
 5014 07d9 1E       		.uleb128 0x1e
 5015 07da 0D080000 		.4byte	.LASF142
 5016 07de 01       		.byte	0x1
 5017 07df A1       		.byte	0xa1
 5018 07e0 DC000000 		.4byte	0xdc
 5019 07e4 38040000 		.4byte	.LLST19
 5020 07e8 1D       		.uleb128 0x1d
 5021 07e9 6B657900 		.ascii	"key\000"
 5022 07ed 01       		.byte	0x1
 5023 07ee A2       		.byte	0xa2
 5024 07ef 35060000 		.4byte	0x635
 5025 07f3 59040000 		.4byte	.LLST20
 5026 07f7 1E       		.uleb128 0x1e
 5027 07f8 C2000000 		.4byte	.LASF143
 5028 07fc 01       		.byte	0x1
 5029 07fd A3       		.byte	0xa3
 5030 07fe 7A000000 		.4byte	0x7a
 5031 0802 85040000 		.4byte	.LLST21
 5032 0806 1F       		.uleb128 0x1f
 5033 0807 72657400 		.ascii	"ret\000"
 5034 080b 01       		.byte	0x1
 5035 080c A5       		.byte	0xa5
 5036 080d 73000000 		.4byte	0x73
 5037 0811 B1040000 		.4byte	.LLST22
 5038 0815 2A       		.uleb128 0x2a
 5039 0816 B40C0000 		.4byte	.LASF127
 5040 081a 01       		.byte	0x1
 5041 081b A6       		.byte	0xa6
 5042 081c 79040000 		.4byte	0x479
 5043 0820 DA040000 		.4byte	.LLST23
 5044 0824 25       		.uleb128 0x25
 5045 0825 12000000 		.4byte	.LVL86
 5046 0829 DD180000 		.4byte	0x18dd
ARM GAS  C:\Users\Phuong\AppData\Local\Temp\ccINfzqY.s 			page 109


 5047 082d 3D080000 		.4byte	0x83d
 5048 0831 26       		.uleb128 0x26
 5049 0832 01       		.uleb128 0x1
 5050 0833 51       		.byte	0x51
 5051 0834 02       		.uleb128 0x2
 5052 0835 75       		.byte	0x75
 5053 0836 00       		.sleb128 0
 5054 0837 26       		.uleb128 0x26
 5055 0838 01       		.uleb128 0x1
 5056 0839 52       		.byte	0x52
 5057 083a 01       		.uleb128 0x1
 5058 083b 31       		.byte	0x31
 5059 083c 00       		.byte	0
 5060 083d 25       		.uleb128 0x25
 5061 083e 22000000 		.4byte	.LVL89
 5062 0842 E9180000 		.4byte	0x18e9
 5063 0846 51080000 		.4byte	0x851
 5064 084a 26       		.uleb128 0x26
 5065 084b 01       		.uleb128 0x1
 5066 084c 50       		.byte	0x50
 5067 084d 02       		.uleb128 0x2
 5068 084e 74       		.byte	0x74
 5069 084f 00       		.sleb128 0
 5070 0850 00       		.byte	0
 5071 0851 25       		.uleb128 0x25
 5072 0852 2A000000 		.4byte	.LVL90
 5073 0856 F5180000 		.4byte	0x18f5
 5074 085a 6B080000 		.4byte	0x86b
 5075 085e 26       		.uleb128 0x26
 5076 085f 01       		.uleb128 0x1
 5077 0860 50       		.byte	0x50
 5078 0861 02       		.uleb128 0x2
 5079 0862 74       		.byte	0x74
 5080 0863 00       		.sleb128 0
 5081 0864 26       		.uleb128 0x26
 5082 0865 01       		.uleb128 0x1
 5083 0866 51       		.byte	0x51
 5084 0867 02       		.uleb128 0x2
 5085 0868 77       		.byte	0x77
 5086 0869 00       		.sleb128 0
 5087 086a 00       		.byte	0
 5088 086b 25       		.uleb128 0x25
 5089 086c 3A000000 		.4byte	.LVL92
 5090 0870 01190000 		.4byte	0x1901
 5091 0874 90080000 		.4byte	0x890
 5092 0878 26       		.uleb128 0x26
 5093 0879 01       		.uleb128 0x1
 5094 087a 50       		.byte	0x50
 5095 087b 02       		.uleb128 0x2
 5096 087c 74       		.byte	0x74
 5097 087d 00       		.sleb128 0
 5098 087e 26       		.uleb128 0x26
 5099 087f 01       		.uleb128 0x1
 5100 0880 51       		.byte	0x51
 5101 0881 02       		.uleb128 0x2
 5102 0882 76       		.byte	0x76
 5103 0883 00       		.sleb128 0
ARM GAS  C:\Users\Phuong\AppData\Local\Temp\ccINfzqY.s 			page 110


 5104 0884 26       		.uleb128 0x26
 5105 0885 01       		.uleb128 0x1
 5106 0886 52       		.byte	0x52
 5107 0887 02       		.uleb128 0x2
 5108 0888 75       		.byte	0x75
 5109 0889 00       		.sleb128 0
 5110 088a 26       		.uleb128 0x26
 5111 088b 01       		.uleb128 0x1
 5112 088c 53       		.byte	0x53
 5113 088d 01       		.uleb128 0x1
 5114 088e 31       		.byte	0x31
 5115 088f 00       		.byte	0
 5116 0890 27       		.uleb128 0x27
 5117 0891 44000000 		.4byte	.LVL94
 5118 0895 40060000 		.4byte	0x640
 5119 0899 26       		.uleb128 0x26
 5120 089a 01       		.uleb128 0x1
 5121 089b 50       		.byte	0x50
 5122 089c 02       		.uleb128 0x2
 5123 089d 74       		.byte	0x74
 5124 089e 00       		.sleb128 0
 5125 089f 00       		.byte	0
 5126 08a0 00       		.byte	0
 5127 08a1 2B       		.uleb128 0x2b
 5128 08a2 4D0E0000 		.4byte	.LASF145
 5129 08a6 01       		.byte	0x1
 5130 08a7 0901     		.2byte	0x109
 5131 08a9 73000000 		.4byte	0x73
 5132 08ad 00000000 		.4byte	.LFB12
 5133 08b1 78010000 		.4byte	.LFE12-.LFB12
 5134 08b5 01       		.uleb128 0x1
 5135 08b6 9C       		.byte	0x9c
 5136 08b7 880A0000 		.4byte	0xa88
 5137 08bb 2C       		.uleb128 0x2c
 5138 08bc 63747800 		.ascii	"ctx\000"
 5139 08c0 01       		.byte	0x1
 5140 08c1 0901     		.2byte	0x109
 5141 08c3 2F060000 		.4byte	0x62f
 5142 08c7 24050000 		.4byte	.LLST24
 5143 08cb 2D       		.uleb128 0x2d
 5144 08cc 9C010000 		.4byte	.LASF117
 5145 08d0 01       		.byte	0x1
 5146 08d1 0A01     		.2byte	0x10a
 5147 08d3 73000000 		.4byte	0x73
 5148 08d7 66050000 		.4byte	.LLST25
 5149 08db 2C       		.uleb128 0x2c
 5150 08dc 697600   		.ascii	"iv\000"
 5151 08df 01       		.byte	0x1
 5152 08e0 0B01     		.2byte	0x10b
 5153 08e2 35060000 		.4byte	0x635
 5154 08e6 AB050000 		.4byte	.LLST26
 5155 08ea 2D       		.uleb128 0x2d
 5156 08eb 3E050000 		.4byte	.LASF146
 5157 08ef 01       		.byte	0x1
 5158 08f0 0C01     		.2byte	0x10c
 5159 08f2 81000000 		.4byte	0x81
 5160 08f6 F0050000 		.4byte	.LLST27
ARM GAS  C:\Users\Phuong\AppData\Local\Temp\ccINfzqY.s 			page 111


 5161 08fa 2E       		.uleb128 0x2e
 5162 08fb 61646400 		.ascii	"add\000"
 5163 08ff 01       		.byte	0x1
 5164 0900 0D01     		.2byte	0x10d
 5165 0902 35060000 		.4byte	0x635
 5166 0906 02       		.uleb128 0x2
 5167 0907 91       		.byte	0x91
 5168 0908 00       		.sleb128 0
 5169 0909 2D       		.uleb128 0x2d
 5170 090a B70B0000 		.4byte	.LASF138
 5171 090e 01       		.byte	0x1
 5172 090f 0E01     		.2byte	0x10e
 5173 0911 81000000 		.4byte	0x81
 5174 0915 7C060000 		.4byte	.LLST28
 5175 0919 2F       		.uleb128 0x2f
 5176 091a 72657400 		.ascii	"ret\000"
 5177 091e 01       		.byte	0x1
 5178 091f 1001     		.2byte	0x110
 5179 0921 73000000 		.4byte	0x73
 5180 0925 C8060000 		.4byte	.LLST29
 5181 0929 30       		.uleb128 0x30
 5182 092a F10C0000 		.4byte	.LASF147
 5183 092e 01       		.byte	0x1
 5184 092f 1101     		.2byte	0x111
 5185 0931 CA040000 		.4byte	0x4ca
 5186 0935 02       		.uleb128 0x2
 5187 0936 91       		.byte	0x91
 5188 0937 50       		.sleb128 -48
 5189 0938 2F       		.uleb128 0x2f
 5190 0939 6900     		.ascii	"i\000"
 5191 093b 01       		.byte	0x1
 5192 093c 1201     		.2byte	0x112
 5193 093e 81000000 		.4byte	0x81
 5194 0942 DB060000 		.4byte	.LLST30
 5195 0946 2F       		.uleb128 0x2f
 5196 0947 7000     		.ascii	"p\000"
 5197 0949 01       		.byte	0x1
 5198 094a 1301     		.2byte	0x113
 5199 094c 35060000 		.4byte	0x635
 5200 0950 1C070000 		.4byte	.LLST31
 5201 0954 31       		.uleb128 0x31
 5202 0955 0C0A0000 		.4byte	.LASF148
 5203 0959 01       		.byte	0x1
 5204 095a 1401     		.2byte	0x114
 5205 095c 81000000 		.4byte	0x81
 5206 0960 3A070000 		.4byte	.LLST32
 5207 0964 30       		.uleb128 0x30
 5208 0965 2F020000 		.4byte	.LASF141
 5209 0969 01       		.byte	0x1
 5210 096a 1401     		.2byte	0x114
 5211 096c 81000000 		.4byte	0x81
 5212 0970 02       		.uleb128 0x2
 5213 0971 91       		.byte	0x91
 5214 0972 4C       		.sleb128 -52
 5215 0973 25       		.uleb128 0x25
 5216 0974 3E000000 		.4byte	.LVL108
 5217 0978 C8180000 		.4byte	0x18c8
ARM GAS  C:\Users\Phuong\AppData\Local\Temp\ccINfzqY.s 			page 112


 5218 097c 93090000 		.4byte	0x993
 5219 0980 26       		.uleb128 0x26
 5220 0981 01       		.uleb128 0x1
 5221 0982 50       		.byte	0x50
 5222 0983 04       		.uleb128 0x4
 5223 0984 91       		.byte	0x91
 5224 0985 BC7F     		.sleb128 -68
 5225 0987 06       		.byte	0x6
 5226 0988 26       		.uleb128 0x26
 5227 0989 01       		.uleb128 0x1
 5228 098a 51       		.byte	0x51
 5229 098b 01       		.uleb128 0x1
 5230 098c 30       		.byte	0x30
 5231 098d 26       		.uleb128 0x26
 5232 098e 01       		.uleb128 0x1
 5233 098f 52       		.byte	0x52
 5234 0990 01       		.uleb128 0x1
 5235 0991 40       		.byte	0x40
 5236 0992 00       		.byte	0
 5237 0993 25       		.uleb128 0x25
 5238 0994 54000000 		.4byte	.LVL109
 5239 0998 C8180000 		.4byte	0x18c8
 5240 099c B2090000 		.4byte	0x9b2
 5241 09a0 26       		.uleb128 0x26
 5242 09a1 01       		.uleb128 0x1
 5243 09a2 50       		.byte	0x50
 5244 09a3 03       		.uleb128 0x3
 5245 09a4 91       		.byte	0x91
 5246 09a5 40       		.sleb128 -64
 5247 09a6 06       		.byte	0x6
 5248 09a7 26       		.uleb128 0x26
 5249 09a8 01       		.uleb128 0x1
 5250 09a9 51       		.byte	0x51
 5251 09aa 01       		.uleb128 0x1
 5252 09ab 30       		.byte	0x30
 5253 09ac 26       		.uleb128 0x26
 5254 09ad 01       		.uleb128 0x1
 5255 09ae 52       		.byte	0x52
 5256 09af 01       		.uleb128 0x1
 5257 09b0 40       		.byte	0x40
 5258 09b1 00       		.byte	0
 5259 09b2 25       		.uleb128 0x25
 5260 09b3 7E000000 		.4byte	.LVL110
 5261 09b7 0D190000 		.4byte	0x190d
 5262 09bb D4090000 		.4byte	0x9d4
 5263 09bf 26       		.uleb128 0x26
 5264 09c0 01       		.uleb128 0x1
 5265 09c1 50       		.byte	0x50
 5266 09c2 04       		.uleb128 0x4
 5267 09c3 91       		.byte	0x91
 5268 09c4 BC7F     		.sleb128 -68
 5269 09c6 06       		.byte	0x6
 5270 09c7 26       		.uleb128 0x26
 5271 09c8 01       		.uleb128 0x1
 5272 09c9 51       		.byte	0x51
 5273 09ca 02       		.uleb128 0x2
 5274 09cb 75       		.byte	0x75
ARM GAS  C:\Users\Phuong\AppData\Local\Temp\ccINfzqY.s 			page 113


 5275 09cc 00       		.sleb128 0
 5276 09cd 26       		.uleb128 0x26
 5277 09ce 01       		.uleb128 0x1
 5278 09cf 52       		.byte	0x52
 5279 09d0 02       		.uleb128 0x2
 5280 09d1 78       		.byte	0x78
 5281 09d2 00       		.sleb128 0
 5282 09d3 00       		.byte	0
 5283 09d4 25       		.uleb128 0x25
 5284 09d5 94000000 		.4byte	.LVL113
 5285 09d9 C8180000 		.4byte	0x18c8
 5286 09dd F2090000 		.4byte	0x9f2
 5287 09e1 26       		.uleb128 0x26
 5288 09e2 01       		.uleb128 0x1
 5289 09e3 50       		.byte	0x50
 5290 09e4 02       		.uleb128 0x2
 5291 09e5 77       		.byte	0x77
 5292 09e6 00       		.sleb128 0
 5293 09e7 26       		.uleb128 0x26
 5294 09e8 01       		.uleb128 0x1
 5295 09e9 51       		.byte	0x51
 5296 09ea 01       		.uleb128 0x1
 5297 09eb 30       		.byte	0x30
 5298 09ec 26       		.uleb128 0x26
 5299 09ed 01       		.uleb128 0x1
 5300 09ee 52       		.byte	0x52
 5301 09ef 01       		.uleb128 0x1
 5302 09f0 40       		.byte	0x40
 5303 09f1 00       		.byte	0
 5304 09f2 25       		.uleb128 0x25
 5305 09f3 D6000000 		.4byte	.LVL120
 5306 09f7 9C050000 		.4byte	0x59c
 5307 09fb 160A0000 		.4byte	0xa16
 5308 09ff 26       		.uleb128 0x26
 5309 0a00 01       		.uleb128 0x1
 5310 0a01 50       		.byte	0x50
 5311 0a02 02       		.uleb128 0x2
 5312 0a03 74       		.byte	0x74
 5313 0a04 00       		.sleb128 0
 5314 0a05 26       		.uleb128 0x26
 5315 0a06 01       		.uleb128 0x1
 5316 0a07 51       		.byte	0x51
 5317 0a08 04       		.uleb128 0x4
 5318 0a09 91       		.byte	0x91
 5319 0a0a BC7F     		.sleb128 -68
 5320 0a0c 06       		.byte	0x6
 5321 0a0d 26       		.uleb128 0x26
 5322 0a0e 01       		.uleb128 0x1
 5323 0a0f 52       		.byte	0x52
 5324 0a10 04       		.uleb128 0x4
 5325 0a11 91       		.byte	0x91
 5326 0a12 BC7F     		.sleb128 -68
 5327 0a14 06       		.byte	0x6
 5328 0a15 00       		.byte	0
 5329 0a16 25       		.uleb128 0x25
 5330 0a17 06010000 		.4byte	.LVL126
 5331 0a1b 9C050000 		.4byte	0x59c
ARM GAS  C:\Users\Phuong\AppData\Local\Temp\ccINfzqY.s 			page 114


 5332 0a1f 3A0A0000 		.4byte	0xa3a
 5333 0a23 26       		.uleb128 0x26
 5334 0a24 01       		.uleb128 0x1
 5335 0a25 50       		.byte	0x50
 5336 0a26 02       		.uleb128 0x2
 5337 0a27 74       		.byte	0x74
 5338 0a28 00       		.sleb128 0
 5339 0a29 26       		.uleb128 0x26
 5340 0a2a 01       		.uleb128 0x1
 5341 0a2b 51       		.byte	0x51
 5342 0a2c 04       		.uleb128 0x4
 5343 0a2d 91       		.byte	0x91
 5344 0a2e BC7F     		.sleb128 -68
 5345 0a30 06       		.byte	0x6
 5346 0a31 26       		.uleb128 0x26
 5347 0a32 01       		.uleb128 0x1
 5348 0a33 52       		.byte	0x52
 5349 0a34 04       		.uleb128 0x4
 5350 0a35 91       		.byte	0x91
 5351 0a36 BC7F     		.sleb128 -68
 5352 0a38 06       		.byte	0x6
 5353 0a39 00       		.byte	0
 5354 0a3a 25       		.uleb128 0x25
 5355 0a3b 1A010000 		.4byte	.LVL127
 5356 0a3f D1180000 		.4byte	0x18d1
 5357 0a43 690A0000 		.4byte	0xa69
 5358 0a47 26       		.uleb128 0x26
 5359 0a48 01       		.uleb128 0x1
 5360 0a49 50       		.byte	0x50
 5361 0a4a 02       		.uleb128 0x2
 5362 0a4b 74       		.byte	0x74
 5363 0a4c 00       		.sleb128 0
 5364 0a4d 26       		.uleb128 0x26
 5365 0a4e 01       		.uleb128 0x1
 5366 0a4f 51       		.byte	0x51
 5367 0a50 04       		.uleb128 0x4
 5368 0a51 91       		.byte	0x91
 5369 0a52 BC7F     		.sleb128 -68
 5370 0a54 06       		.byte	0x6
 5371 0a55 26       		.uleb128 0x26
 5372 0a56 01       		.uleb128 0x1
 5373 0a57 52       		.byte	0x52
 5374 0a58 01       		.uleb128 0x1
 5375 0a59 40       		.byte	0x40
 5376 0a5a 26       		.uleb128 0x26
 5377 0a5b 01       		.uleb128 0x1
 5378 0a5c 53       		.byte	0x53
 5379 0a5d 03       		.uleb128 0x3
 5380 0a5e 74       		.byte	0x74
 5381 0a5f D002     		.sleb128 336
 5382 0a61 26       		.uleb128 0x26
 5383 0a62 02       		.uleb128 0x2
 5384 0a63 7D       		.byte	0x7d
 5385 0a64 00       		.sleb128 0
 5386 0a65 02       		.uleb128 0x2
 5387 0a66 91       		.byte	0x91
 5388 0a67 4C       		.sleb128 -52
ARM GAS  C:\Users\Phuong\AppData\Local\Temp\ccINfzqY.s 			page 115


 5389 0a68 00       		.byte	0
 5390 0a69 27       		.uleb128 0x27
 5391 0a6a 58010000 		.4byte	.LVL134
 5392 0a6e 9C050000 		.4byte	0x59c
 5393 0a72 26       		.uleb128 0x26
 5394 0a73 01       		.uleb128 0x1
 5395 0a74 50       		.byte	0x50
 5396 0a75 02       		.uleb128 0x2
 5397 0a76 74       		.byte	0x74
 5398 0a77 00       		.sleb128 0
 5399 0a78 26       		.uleb128 0x26
 5400 0a79 01       		.uleb128 0x1
 5401 0a7a 51       		.byte	0x51
 5402 0a7b 03       		.uleb128 0x3
 5403 0a7c 91       		.byte	0x91
 5404 0a7d 40       		.sleb128 -64
 5405 0a7e 06       		.byte	0x6
 5406 0a7f 26       		.uleb128 0x26
 5407 0a80 01       		.uleb128 0x1
 5408 0a81 52       		.byte	0x52
 5409 0a82 03       		.uleb128 0x3
 5410 0a83 91       		.byte	0x91
 5411 0a84 40       		.sleb128 -64
 5412 0a85 06       		.byte	0x6
 5413 0a86 00       		.byte	0
 5414 0a87 00       		.byte	0
 5415 0a88 2B       		.uleb128 0x2b
 5416 0a89 3E090000 		.4byte	.LASF149
 5417 0a8d 01       		.byte	0x1
 5418 0a8e 5C01     		.2byte	0x15c
 5419 0a90 73000000 		.4byte	0x73
 5420 0a94 00000000 		.4byte	.LFB13
 5421 0a98 0A010000 		.4byte	.LFE13-.LFB13
 5422 0a9c 01       		.uleb128 0x1
 5423 0a9d 9C       		.byte	0x9c
 5424 0a9e 980B0000 		.4byte	0xb98
 5425 0aa2 2C       		.uleb128 0x2c
 5426 0aa3 63747800 		.ascii	"ctx\000"
 5427 0aa7 01       		.byte	0x1
 5428 0aa8 5C01     		.2byte	0x15c
 5429 0aaa 2F060000 		.4byte	0x62f
 5430 0aae 58070000 		.4byte	.LLST33
 5431 0ab2 2D       		.uleb128 0x2d
 5432 0ab3 C80B0000 		.4byte	.LASF150
 5433 0ab7 01       		.byte	0x1
 5434 0ab8 5D01     		.2byte	0x15d
 5435 0aba 81000000 		.4byte	0x81
 5436 0abe 9A070000 		.4byte	.LLST34
 5437 0ac2 2D       		.uleb128 0x2d
 5438 0ac3 910D0000 		.4byte	.LASF151
 5439 0ac7 01       		.byte	0x1
 5440 0ac8 5E01     		.2byte	0x15e
 5441 0aca 35060000 		.4byte	0x635
 5442 0ace 05080000 		.4byte	.LLST35
 5443 0ad2 2D       		.uleb128 0x2d
 5444 0ad3 37000000 		.4byte	.LASF140
 5445 0ad7 01       		.byte	0x1
ARM GAS  C:\Users\Phuong\AppData\Local\Temp\ccINfzqY.s 			page 116


 5446 0ad8 5F01     		.2byte	0x15f
 5447 0ada 99040000 		.4byte	0x499
 5448 0ade 55080000 		.4byte	.LLST36
 5449 0ae2 2F       		.uleb128 0x2f
 5450 0ae3 72657400 		.ascii	"ret\000"
 5451 0ae7 01       		.byte	0x1
 5452 0ae8 6101     		.2byte	0x161
 5453 0aea 73000000 		.4byte	0x73
 5454 0aee 9A080000 		.4byte	.LLST37
 5455 0af2 30       		.uleb128 0x30
 5456 0af3 E30D0000 		.4byte	.LASF152
 5457 0af7 01       		.byte	0x1
 5458 0af8 6201     		.2byte	0x162
 5459 0afa CA040000 		.4byte	0x4ca
 5460 0afe 02       		.uleb128 0x2
 5461 0aff 91       		.byte	0x91
 5462 0b00 58       		.sleb128 -40
 5463 0b01 2F       		.uleb128 0x2f
 5464 0b02 6900     		.ascii	"i\000"
 5465 0b04 01       		.byte	0x1
 5466 0b05 6301     		.2byte	0x163
 5467 0b07 81000000 		.4byte	0x81
 5468 0b0b AD080000 		.4byte	.LLST38
 5469 0b0f 2F       		.uleb128 0x2f
 5470 0b10 7000     		.ascii	"p\000"
 5471 0b12 01       		.byte	0x1
 5472 0b13 6401     		.2byte	0x164
 5473 0b15 35060000 		.4byte	0x635
 5474 0b19 EF080000 		.4byte	.LLST39
 5475 0b1d 31       		.uleb128 0x31
 5476 0b1e B6080000 		.4byte	.LASF153
 5477 0b22 01       		.byte	0x1
 5478 0b23 6501     		.2byte	0x165
 5479 0b25 99040000 		.4byte	0x499
 5480 0b29 02090000 		.4byte	.LLST40
 5481 0b2d 31       		.uleb128 0x31
 5482 0b2e 0C0A0000 		.4byte	.LASF148
 5483 0b32 01       		.byte	0x1
 5484 0b33 6601     		.2byte	0x166
 5485 0b35 81000000 		.4byte	0x81
 5486 0b39 20090000 		.4byte	.LLST41
 5487 0b3d 30       		.uleb128 0x30
 5488 0b3e 2F020000 		.4byte	.LASF141
 5489 0b42 01       		.byte	0x1
 5490 0b43 6601     		.2byte	0x166
 5491 0b45 81000000 		.4byte	0x81
 5492 0b49 02       		.uleb128 0x2
 5493 0b4a 91       		.byte	0x91
 5494 0b4b 54       		.sleb128 -44
 5495 0b4c 25       		.uleb128 0x25
 5496 0b4d 8A000000 		.4byte	.LVL155
 5497 0b51 D1180000 		.4byte	0x18d1
 5498 0b55 790B0000 		.4byte	0xb79
 5499 0b59 26       		.uleb128 0x26
 5500 0b5a 01       		.uleb128 0x1
 5501 0b5b 50       		.byte	0x50
 5502 0b5c 02       		.uleb128 0x2
ARM GAS  C:\Users\Phuong\AppData\Local\Temp\ccINfzqY.s 			page 117


 5503 0b5d 74       		.byte	0x74
 5504 0b5e 00       		.sleb128 0
 5505 0b5f 26       		.uleb128 0x26
 5506 0b60 01       		.uleb128 0x1
 5507 0b61 51       		.byte	0x51
 5508 0b62 03       		.uleb128 0x3
 5509 0b63 74       		.byte	0x74
 5510 0b64 E002     		.sleb128 352
 5511 0b66 26       		.uleb128 0x26
 5512 0b67 01       		.uleb128 0x1
 5513 0b68 52       		.byte	0x52
 5514 0b69 01       		.uleb128 0x1
 5515 0b6a 40       		.byte	0x40
 5516 0b6b 26       		.uleb128 0x26
 5517 0b6c 01       		.uleb128 0x1
 5518 0b6d 53       		.byte	0x53
 5519 0b6e 02       		.uleb128 0x2
 5520 0b6f 91       		.byte	0x91
 5521 0b70 58       		.sleb128 -40
 5522 0b71 26       		.uleb128 0x26
 5523 0b72 02       		.uleb128 0x2
 5524 0b73 7D       		.byte	0x7d
 5525 0b74 00       		.sleb128 0
 5526 0b75 02       		.uleb128 0x2
 5527 0b76 91       		.byte	0x91
 5528 0b77 54       		.sleb128 -44
 5529 0b78 00       		.byte	0
 5530 0b79 27       		.uleb128 0x27
 5531 0b7a DE000000 		.4byte	.LVL158
 5532 0b7e 9C050000 		.4byte	0x59c
 5533 0b82 26       		.uleb128 0x26
 5534 0b83 01       		.uleb128 0x1
 5535 0b84 50       		.byte	0x50
 5536 0b85 02       		.uleb128 0x2
 5537 0b86 74       		.byte	0x74
 5538 0b87 00       		.sleb128 0
 5539 0b88 26       		.uleb128 0x26
 5540 0b89 01       		.uleb128 0x1
 5541 0b8a 51       		.byte	0x51
 5542 0b8b 03       		.uleb128 0x3
 5543 0b8c 74       		.byte	0x74
 5544 0b8d F002     		.sleb128 368
 5545 0b8f 26       		.uleb128 0x26
 5546 0b90 01       		.uleb128 0x1
 5547 0b91 52       		.byte	0x52
 5548 0b92 03       		.uleb128 0x3
 5549 0b93 74       		.byte	0x74
 5550 0b94 F002     		.sleb128 368
 5551 0b96 00       		.byte	0
 5552 0b97 00       		.byte	0
 5553 0b98 2B       		.uleb128 0x2b
 5554 0b99 5F0B0000 		.4byte	.LASF154
 5555 0b9d 01       		.byte	0x1
 5556 0b9e 9701     		.2byte	0x197
 5557 0ba0 73000000 		.4byte	0x73
 5558 0ba4 00000000 		.4byte	.LFB14
 5559 0ba8 1E010000 		.4byte	.LFE14-.LFB14
ARM GAS  C:\Users\Phuong\AppData\Local\Temp\ccINfzqY.s 			page 118


 5560 0bac 01       		.uleb128 0x1
 5561 0bad 9C       		.byte	0x9c
 5562 0bae 7D0C0000 		.4byte	0xc7d
 5563 0bb2 2C       		.uleb128 0x2c
 5564 0bb3 63747800 		.ascii	"ctx\000"
 5565 0bb7 01       		.byte	0x1
 5566 0bb8 9701     		.2byte	0x197
 5567 0bba 2F060000 		.4byte	0x62f
 5568 0bbe 33090000 		.4byte	.LLST42
 5569 0bc2 2C       		.uleb128 0x2c
 5570 0bc3 74616700 		.ascii	"tag\000"
 5571 0bc7 01       		.byte	0x1
 5572 0bc8 9801     		.2byte	0x198
 5573 0bca 99040000 		.4byte	0x499
 5574 0bce 75090000 		.4byte	.LLST43
 5575 0bd2 2D       		.uleb128 0x2d
 5576 0bd3 D7050000 		.4byte	.LASF155
 5577 0bd7 01       		.byte	0x1
 5578 0bd8 9901     		.2byte	0x199
 5579 0bda 81000000 		.4byte	0x81
 5580 0bde A1090000 		.4byte	.LLST44
 5581 0be2 30       		.uleb128 0x30
 5582 0be3 F10C0000 		.4byte	.LASF147
 5583 0be7 01       		.byte	0x1
 5584 0be8 9B01     		.2byte	0x19b
 5585 0bea CA040000 		.4byte	0x4ca
 5586 0bee 02       		.uleb128 0x2
 5587 0bef 91       		.byte	0x91
 5588 0bf0 50       		.sleb128 -48
 5589 0bf1 2F       		.uleb128 0x2f
 5590 0bf2 6900     		.ascii	"i\000"
 5591 0bf4 01       		.byte	0x1
 5592 0bf5 9C01     		.2byte	0x19c
 5593 0bf7 81000000 		.4byte	0x81
 5594 0bfb CD090000 		.4byte	.LLST45
 5595 0bff 31       		.uleb128 0x31
 5596 0c00 48060000 		.4byte	.LASF156
 5597 0c04 01       		.byte	0x1
 5598 0c05 9D01     		.2byte	0x19d
 5599 0c07 FA040000 		.4byte	0x4fa
 5600 0c0b 030A0000 		.4byte	.LLST46
 5601 0c0f 31       		.uleb128 0x31
 5602 0c10 00080000 		.4byte	.LASF157
 5603 0c14 01       		.byte	0x1
 5604 0c15 9E01     		.2byte	0x19e
 5605 0c17 FA040000 		.4byte	0x4fa
 5606 0c1b 2B0A0000 		.4byte	.LLST47
 5607 0c1f 25       		.uleb128 0x25
 5608 0c20 50000000 		.4byte	.LVL180
 5609 0c24 0D190000 		.4byte	0x190d
 5610 0c28 400C0000 		.4byte	0xc40
 5611 0c2c 26       		.uleb128 0x26
 5612 0c2d 01       		.uleb128 0x1
 5613 0c2e 50       		.byte	0x50
 5614 0c2f 02       		.uleb128 0x2
 5615 0c30 76       		.byte	0x76
 5616 0c31 00       		.sleb128 0
ARM GAS  C:\Users\Phuong\AppData\Local\Temp\ccINfzqY.s 			page 119


 5617 0c32 26       		.uleb128 0x26
 5618 0c33 01       		.uleb128 0x1
 5619 0c34 51       		.byte	0x51
 5620 0c35 03       		.uleb128 0x3
 5621 0c36 74       		.byte	0x74
 5622 0c37 D002     		.sleb128 336
 5623 0c39 26       		.uleb128 0x26
 5624 0c3a 01       		.uleb128 0x1
 5625 0c3b 52       		.byte	0x52
 5626 0c3c 02       		.uleb128 0x2
 5627 0c3d 75       		.byte	0x75
 5628 0c3e 00       		.sleb128 0
 5629 0c3f 00       		.byte	0
 5630 0c40 25       		.uleb128 0x25
 5631 0c41 68000000 		.4byte	.LVL181
 5632 0c45 C8180000 		.4byte	0x18c8
 5633 0c49 5E0C0000 		.4byte	0xc5e
 5634 0c4d 26       		.uleb128 0x26
 5635 0c4e 01       		.uleb128 0x1
 5636 0c4f 50       		.byte	0x50
 5637 0c50 02       		.uleb128 0x2
 5638 0c51 7D       		.byte	0x7d
 5639 0c52 00       		.sleb128 0
 5640 0c53 26       		.uleb128 0x26
 5641 0c54 01       		.uleb128 0x1
 5642 0c55 51       		.byte	0x51
 5643 0c56 01       		.uleb128 0x1
 5644 0c57 30       		.byte	0x30
 5645 0c58 26       		.uleb128 0x26
 5646 0c59 01       		.uleb128 0x1
 5647 0c5a 52       		.byte	0x52
 5648 0c5b 01       		.uleb128 0x1
 5649 0c5c 40       		.byte	0x40
 5650 0c5d 00       		.byte	0
 5651 0c5e 27       		.uleb128 0x27
 5652 0c5f EC000000 		.4byte	.LVL185
 5653 0c63 9C050000 		.4byte	0x59c
 5654 0c67 26       		.uleb128 0x26
 5655 0c68 01       		.uleb128 0x1
 5656 0c69 50       		.byte	0x50
 5657 0c6a 02       		.uleb128 0x2
 5658 0c6b 74       		.byte	0x74
 5659 0c6c 00       		.sleb128 0
 5660 0c6d 26       		.uleb128 0x26
 5661 0c6e 01       		.uleb128 0x1
 5662 0c6f 51       		.byte	0x51
 5663 0c70 03       		.uleb128 0x3
 5664 0c71 74       		.byte	0x74
 5665 0c72 F002     		.sleb128 368
 5666 0c74 26       		.uleb128 0x26
 5667 0c75 01       		.uleb128 0x1
 5668 0c76 52       		.byte	0x52
 5669 0c77 03       		.uleb128 0x3
 5670 0c78 74       		.byte	0x74
 5671 0c79 F002     		.sleb128 368
 5672 0c7b 00       		.byte	0
 5673 0c7c 00       		.byte	0
ARM GAS  C:\Users\Phuong\AppData\Local\Temp\ccINfzqY.s 			page 120


 5674 0c7d 2B       		.uleb128 0x2b
 5675 0c7e 1B0B0000 		.4byte	.LASF158
 5676 0c82 01       		.byte	0x1
 5677 0c83 BA01     		.2byte	0x1ba
 5678 0c85 73000000 		.4byte	0x73
 5679 0c89 00000000 		.4byte	.LFB15
 5680 0c8d 3A000000 		.4byte	.LFE15-.LFB15
 5681 0c91 01       		.uleb128 0x1
 5682 0c92 9C       		.byte	0x9c
 5683 0c93 CF0D0000 		.4byte	0xdcf
 5684 0c97 2C       		.uleb128 0x2c
 5685 0c98 63747800 		.ascii	"ctx\000"
 5686 0c9c 01       		.byte	0x1
 5687 0c9d BA01     		.2byte	0x1ba
 5688 0c9f 2F060000 		.4byte	0x62f
 5689 0ca3 830A0000 		.4byte	.LLST48
 5690 0ca7 2D       		.uleb128 0x2d
 5691 0ca8 9C010000 		.4byte	.LASF117
 5692 0cac 01       		.byte	0x1
 5693 0cad BB01     		.2byte	0x1bb
 5694 0caf 73000000 		.4byte	0x73
 5695 0cb3 AF0A0000 		.4byte	.LLST49
 5696 0cb7 2D       		.uleb128 0x2d
 5697 0cb8 C80B0000 		.4byte	.LASF150
 5698 0cbc 01       		.byte	0x1
 5699 0cbd BC01     		.2byte	0x1bc
 5700 0cbf 81000000 		.4byte	0x81
 5701 0cc3 D00A0000 		.4byte	.LLST50
 5702 0cc7 2C       		.uleb128 0x2c
 5703 0cc8 697600   		.ascii	"iv\000"
 5704 0ccb 01       		.byte	0x1
 5705 0ccc BD01     		.2byte	0x1bd
 5706 0cce 35060000 		.4byte	0x635
 5707 0cd2 FC0A0000 		.4byte	.LLST51
 5708 0cd6 32       		.uleb128 0x32
 5709 0cd7 3E050000 		.4byte	.LASF146
 5710 0cdb 01       		.byte	0x1
 5711 0cdc BE01     		.2byte	0x1be
 5712 0cde 81000000 		.4byte	0x81
 5713 0ce2 02       		.uleb128 0x2
 5714 0ce3 91       		.byte	0x91
 5715 0ce4 00       		.sleb128 0
 5716 0ce5 2E       		.uleb128 0x2e
 5717 0ce6 61646400 		.ascii	"add\000"
 5718 0cea 01       		.byte	0x1
 5719 0ceb BF01     		.2byte	0x1bf
 5720 0ced 35060000 		.4byte	0x635
 5721 0cf1 02       		.uleb128 0x2
 5722 0cf2 91       		.byte	0x91
 5723 0cf3 04       		.sleb128 4
 5724 0cf4 32       		.uleb128 0x32
 5725 0cf5 B70B0000 		.4byte	.LASF138
 5726 0cf9 01       		.byte	0x1
 5727 0cfa C001     		.2byte	0x1c0
 5728 0cfc 81000000 		.4byte	0x81
 5729 0d00 02       		.uleb128 0x2
 5730 0d01 91       		.byte	0x91
ARM GAS  C:\Users\Phuong\AppData\Local\Temp\ccINfzqY.s 			page 121


 5731 0d02 08       		.sleb128 8
 5732 0d03 32       		.uleb128 0x32
 5733 0d04 910D0000 		.4byte	.LASF151
 5734 0d08 01       		.byte	0x1
 5735 0d09 C101     		.2byte	0x1c1
 5736 0d0b 35060000 		.4byte	0x635
 5737 0d0f 02       		.uleb128 0x2
 5738 0d10 91       		.byte	0x91
 5739 0d11 0C       		.sleb128 12
 5740 0d12 32       		.uleb128 0x32
 5741 0d13 37000000 		.4byte	.LASF140
 5742 0d17 01       		.byte	0x1
 5743 0d18 C201     		.2byte	0x1c2
 5744 0d1a 99040000 		.4byte	0x499
 5745 0d1e 02       		.uleb128 0x2
 5746 0d1f 91       		.byte	0x91
 5747 0d20 10       		.sleb128 16
 5748 0d21 32       		.uleb128 0x32
 5749 0d22 D7050000 		.4byte	.LASF155
 5750 0d26 01       		.byte	0x1
 5751 0d27 C301     		.2byte	0x1c3
 5752 0d29 81000000 		.4byte	0x81
 5753 0d2d 02       		.uleb128 0x2
 5754 0d2e 91       		.byte	0x91
 5755 0d2f 14       		.sleb128 20
 5756 0d30 2E       		.uleb128 0x2e
 5757 0d31 74616700 		.ascii	"tag\000"
 5758 0d35 01       		.byte	0x1
 5759 0d36 C401     		.2byte	0x1c4
 5760 0d38 99040000 		.4byte	0x499
 5761 0d3c 02       		.uleb128 0x2
 5762 0d3d 91       		.byte	0x91
 5763 0d3e 18       		.sleb128 24
 5764 0d3f 2F       		.uleb128 0x2f
 5765 0d40 72657400 		.ascii	"ret\000"
 5766 0d44 01       		.byte	0x1
 5767 0d45 C601     		.2byte	0x1c6
 5768 0d47 73000000 		.4byte	0x73
 5769 0d4b 280B0000 		.4byte	.LLST52
 5770 0d4f 25       		.uleb128 0x25
 5771 0d50 18000000 		.4byte	.LVL199
 5772 0d54 A1080000 		.4byte	0x8a1
 5773 0d58 880D0000 		.4byte	0xd88
 5774 0d5c 26       		.uleb128 0x26
 5775 0d5d 01       		.uleb128 0x1
 5776 0d5e 50       		.byte	0x50
 5777 0d5f 02       		.uleb128 0x2
 5778 0d60 74       		.byte	0x74
 5779 0d61 00       		.sleb128 0
 5780 0d62 26       		.uleb128 0x26
 5781 0d63 01       		.uleb128 0x1
 5782 0d64 51       		.byte	0x51
 5783 0d65 03       		.uleb128 0x3
 5784 0d66 F3       		.byte	0xf3
 5785 0d67 01       		.uleb128 0x1
 5786 0d68 51       		.byte	0x51
 5787 0d69 26       		.uleb128 0x26
ARM GAS  C:\Users\Phuong\AppData\Local\Temp\ccINfzqY.s 			page 122


 5788 0d6a 01       		.uleb128 0x1
 5789 0d6b 52       		.byte	0x52
 5790 0d6c 03       		.uleb128 0x3
 5791 0d6d F3       		.byte	0xf3
 5792 0d6e 01       		.uleb128 0x1
 5793 0d6f 53       		.byte	0x53
 5794 0d70 26       		.uleb128 0x26
 5795 0d71 01       		.uleb128 0x1
 5796 0d72 53       		.byte	0x53
 5797 0d73 03       		.uleb128 0x3
 5798 0d74 91       		.byte	0x91
 5799 0d75 00       		.sleb128 0
 5800 0d76 06       		.byte	0x6
 5801 0d77 26       		.uleb128 0x26
 5802 0d78 02       		.uleb128 0x2
 5803 0d79 7D       		.byte	0x7d
 5804 0d7a 00       		.sleb128 0
 5805 0d7b 03       		.uleb128 0x3
 5806 0d7c 91       		.byte	0x91
 5807 0d7d 04       		.sleb128 4
 5808 0d7e 06       		.byte	0x6
 5809 0d7f 26       		.uleb128 0x26
 5810 0d80 02       		.uleb128 0x2
 5811 0d81 7D       		.byte	0x7d
 5812 0d82 04       		.sleb128 4
 5813 0d83 03       		.uleb128 0x3
 5814 0d84 91       		.byte	0x91
 5815 0d85 08       		.sleb128 8
 5816 0d86 06       		.byte	0x6
 5817 0d87 00       		.byte	0
 5818 0d88 25       		.uleb128 0x25
 5819 0d89 28000000 		.4byte	.LVL201
 5820 0d8d 880A0000 		.4byte	0xa88
 5821 0d91 B00D0000 		.4byte	0xdb0
 5822 0d95 26       		.uleb128 0x26
 5823 0d96 01       		.uleb128 0x1
 5824 0d97 50       		.byte	0x50
 5825 0d98 02       		.uleb128 0x2
 5826 0d99 74       		.byte	0x74
 5827 0d9a 00       		.sleb128 0
 5828 0d9b 26       		.uleb128 0x26
 5829 0d9c 01       		.uleb128 0x1
 5830 0d9d 51       		.byte	0x51
 5831 0d9e 02       		.uleb128 0x2
 5832 0d9f 75       		.byte	0x75
 5833 0da0 00       		.sleb128 0
 5834 0da1 26       		.uleb128 0x26
 5835 0da2 01       		.uleb128 0x1
 5836 0da3 52       		.byte	0x52
 5837 0da4 03       		.uleb128 0x3
 5838 0da5 91       		.byte	0x91
 5839 0da6 0C       		.sleb128 12
 5840 0da7 06       		.byte	0x6
 5841 0da8 26       		.uleb128 0x26
 5842 0da9 01       		.uleb128 0x1
 5843 0daa 53       		.byte	0x53
 5844 0dab 03       		.uleb128 0x3
ARM GAS  C:\Users\Phuong\AppData\Local\Temp\ccINfzqY.s 			page 123


 5845 0dac 91       		.byte	0x91
 5846 0dad 10       		.sleb128 16
 5847 0dae 06       		.byte	0x6
 5848 0daf 00       		.byte	0
 5849 0db0 27       		.uleb128 0x27
 5850 0db1 36000000 		.4byte	.LVL203
 5851 0db5 980B0000 		.4byte	0xb98
 5852 0db9 26       		.uleb128 0x26
 5853 0dba 01       		.uleb128 0x1
 5854 0dbb 50       		.byte	0x50
 5855 0dbc 02       		.uleb128 0x2
 5856 0dbd 74       		.byte	0x74
 5857 0dbe 00       		.sleb128 0
 5858 0dbf 26       		.uleb128 0x26
 5859 0dc0 01       		.uleb128 0x1
 5860 0dc1 51       		.byte	0x51
 5861 0dc2 03       		.uleb128 0x3
 5862 0dc3 91       		.byte	0x91
 5863 0dc4 18       		.sleb128 24
 5864 0dc5 06       		.byte	0x6
 5865 0dc6 26       		.uleb128 0x26
 5866 0dc7 01       		.uleb128 0x1
 5867 0dc8 52       		.byte	0x52
 5868 0dc9 03       		.uleb128 0x3
 5869 0dca 91       		.byte	0x91
 5870 0dcb 14       		.sleb128 20
 5871 0dcc 06       		.byte	0x6
 5872 0dcd 00       		.byte	0
 5873 0dce 00       		.byte	0
 5874 0dcf 2B       		.uleb128 0x2b
 5875 0dd0 9D080000 		.4byte	.LASF159
 5876 0dd4 01       		.byte	0x1
 5877 0dd5 D401     		.2byte	0x1d4
 5878 0dd7 73000000 		.4byte	0x73
 5879 0ddb 00000000 		.4byte	.LFB16
 5880 0ddf 5E000000 		.4byte	.LFE16-.LFB16
 5881 0de3 01       		.uleb128 0x1
 5882 0de4 9C       		.byte	0x9c
 5883 0de5 340F0000 		.4byte	0xf34
 5884 0de9 2C       		.uleb128 0x2c
 5885 0dea 63747800 		.ascii	"ctx\000"
 5886 0dee 01       		.byte	0x1
 5887 0def D401     		.2byte	0x1d4
 5888 0df1 2F060000 		.4byte	0x62f
 5889 0df5 510B0000 		.4byte	.LLST53
 5890 0df9 2D       		.uleb128 0x2d
 5891 0dfa C80B0000 		.4byte	.LASF150
 5892 0dfe 01       		.byte	0x1
 5893 0dff D501     		.2byte	0x1d5
 5894 0e01 81000000 		.4byte	0x81
 5895 0e05 720B0000 		.4byte	.LLST54
 5896 0e09 2C       		.uleb128 0x2c
 5897 0e0a 697600   		.ascii	"iv\000"
 5898 0e0d 01       		.byte	0x1
 5899 0e0e D601     		.2byte	0x1d6
 5900 0e10 35060000 		.4byte	0x635
 5901 0e14 9E0B0000 		.4byte	.LLST55
ARM GAS  C:\Users\Phuong\AppData\Local\Temp\ccINfzqY.s 			page 124


 5902 0e18 2D       		.uleb128 0x2d
 5903 0e19 3E050000 		.4byte	.LASF146
 5904 0e1d 01       		.byte	0x1
 5905 0e1e D701     		.2byte	0x1d7
 5906 0e20 81000000 		.4byte	0x81
 5907 0e24 CA0B0000 		.4byte	.LLST56
 5908 0e28 2E       		.uleb128 0x2e
 5909 0e29 61646400 		.ascii	"add\000"
 5910 0e2d 01       		.byte	0x1
 5911 0e2e D801     		.2byte	0x1d8
 5912 0e30 35060000 		.4byte	0x635
 5913 0e34 02       		.uleb128 0x2
 5914 0e35 91       		.byte	0x91
 5915 0e36 00       		.sleb128 0
 5916 0e37 32       		.uleb128 0x32
 5917 0e38 B70B0000 		.4byte	.LASF138
 5918 0e3c 01       		.byte	0x1
 5919 0e3d D901     		.2byte	0x1d9
 5920 0e3f 81000000 		.4byte	0x81
 5921 0e43 02       		.uleb128 0x2
 5922 0e44 91       		.byte	0x91
 5923 0e45 04       		.sleb128 4
 5924 0e46 2E       		.uleb128 0x2e
 5925 0e47 74616700 		.ascii	"tag\000"
 5926 0e4b 01       		.byte	0x1
 5927 0e4c DA01     		.2byte	0x1da
 5928 0e4e 35060000 		.4byte	0x635
 5929 0e52 02       		.uleb128 0x2
 5930 0e53 91       		.byte	0x91
 5931 0e54 08       		.sleb128 8
 5932 0e55 32       		.uleb128 0x32
 5933 0e56 D7050000 		.4byte	.LASF155
 5934 0e5a 01       		.byte	0x1
 5935 0e5b DB01     		.2byte	0x1db
 5936 0e5d 81000000 		.4byte	0x81
 5937 0e61 02       		.uleb128 0x2
 5938 0e62 91       		.byte	0x91
 5939 0e63 0C       		.sleb128 12
 5940 0e64 32       		.uleb128 0x32
 5941 0e65 910D0000 		.4byte	.LASF151
 5942 0e69 01       		.byte	0x1
 5943 0e6a DC01     		.2byte	0x1dc
 5944 0e6c 35060000 		.4byte	0x635
 5945 0e70 02       		.uleb128 0x2
 5946 0e71 91       		.byte	0x91
 5947 0e72 10       		.sleb128 16
 5948 0e73 32       		.uleb128 0x32
 5949 0e74 37000000 		.4byte	.LASF140
 5950 0e78 01       		.byte	0x1
 5951 0e79 DD01     		.2byte	0x1dd
 5952 0e7b 99040000 		.4byte	0x499
 5953 0e7f 02       		.uleb128 0x2
 5954 0e80 91       		.byte	0x91
 5955 0e81 14       		.sleb128 20
 5956 0e82 2F       		.uleb128 0x2f
 5957 0e83 72657400 		.ascii	"ret\000"
 5958 0e87 01       		.byte	0x1
ARM GAS  C:\Users\Phuong\AppData\Local\Temp\ccINfzqY.s 			page 125


 5959 0e88 DF01     		.2byte	0x1df
 5960 0e8a 73000000 		.4byte	0x73
 5961 0e8e F70B0000 		.4byte	.LLST57
 5962 0e92 30       		.uleb128 0x30
 5963 0e93 93080000 		.4byte	.LASF160
 5964 0e97 01       		.byte	0x1
 5965 0e98 E001     		.2byte	0x1e0
 5966 0e9a CA040000 		.4byte	0x4ca
 5967 0e9e 02       		.uleb128 0x2
 5968 0e9f 91       		.byte	0x91
 5969 0ea0 60       		.sleb128 -32
 5970 0ea1 2F       		.uleb128 0x2f
 5971 0ea2 6900     		.ascii	"i\000"
 5972 0ea4 01       		.byte	0x1
 5973 0ea5 E101     		.2byte	0x1e1
 5974 0ea7 81000000 		.4byte	0x81
 5975 0eab 0A0C0000 		.4byte	.LLST58
 5976 0eaf 31       		.uleb128 0x31
 5977 0eb0 61020000 		.4byte	.LASF161
 5978 0eb4 01       		.byte	0x1
 5979 0eb5 E201     		.2byte	0x1e2
 5980 0eb7 73000000 		.4byte	0x73
 5981 0ebb 280C0000 		.4byte	.LLST59
 5982 0ebf 25       		.uleb128 0x25
 5983 0ec0 2C000000 		.4byte	.LVL210
 5984 0ec4 7D0C0000 		.4byte	0xc7d
 5985 0ec8 1C0F0000 		.4byte	0xf1c
 5986 0ecc 26       		.uleb128 0x26
 5987 0ecd 01       		.uleb128 0x1
 5988 0ece 50       		.byte	0x50
 5989 0ecf 03       		.uleb128 0x3
 5990 0ed0 F3       		.byte	0xf3
 5991 0ed1 01       		.uleb128 0x1
 5992 0ed2 50       		.byte	0x50
 5993 0ed3 26       		.uleb128 0x26
 5994 0ed4 01       		.uleb128 0x1
 5995 0ed5 51       		.byte	0x51
 5996 0ed6 01       		.uleb128 0x1
 5997 0ed7 30       		.byte	0x30
 5998 0ed8 26       		.uleb128 0x26
 5999 0ed9 01       		.uleb128 0x1
 6000 0eda 52       		.byte	0x52
 6001 0edb 02       		.uleb128 0x2
 6002 0edc 74       		.byte	0x74
 6003 0edd 00       		.sleb128 0
 6004 0ede 26       		.uleb128 0x26
 6005 0edf 01       		.uleb128 0x1
 6006 0ee0 53       		.byte	0x53
 6007 0ee1 03       		.uleb128 0x3
 6008 0ee2 F3       		.byte	0xf3
 6009 0ee3 01       		.uleb128 0x1
 6010 0ee4 52       		.byte	0x52
 6011 0ee5 26       		.uleb128 0x26
 6012 0ee6 02       		.uleb128 0x2
 6013 0ee7 7D       		.byte	0x7d
 6014 0ee8 00       		.sleb128 0
 6015 0ee9 03       		.uleb128 0x3
ARM GAS  C:\Users\Phuong\AppData\Local\Temp\ccINfzqY.s 			page 126


 6016 0eea F3       		.byte	0xf3
 6017 0eeb 01       		.uleb128 0x1
 6018 0eec 53       		.byte	0x53
 6019 0eed 26       		.uleb128 0x26
 6020 0eee 02       		.uleb128 0x2
 6021 0eef 7D       		.byte	0x7d
 6022 0ef0 04       		.sleb128 4
 6023 0ef1 03       		.uleb128 0x3
 6024 0ef2 91       		.byte	0x91
 6025 0ef3 00       		.sleb128 0
 6026 0ef4 06       		.byte	0x6
 6027 0ef5 26       		.uleb128 0x26
 6028 0ef6 02       		.uleb128 0x2
 6029 0ef7 7D       		.byte	0x7d
 6030 0ef8 08       		.sleb128 8
 6031 0ef9 03       		.uleb128 0x3
 6032 0efa 91       		.byte	0x91
 6033 0efb 04       		.sleb128 4
 6034 0efc 06       		.byte	0x6
 6035 0efd 26       		.uleb128 0x26
 6036 0efe 02       		.uleb128 0x2
 6037 0eff 7D       		.byte	0x7d
 6038 0f00 0C       		.sleb128 12
 6039 0f01 03       		.uleb128 0x3
 6040 0f02 91       		.byte	0x91
 6041 0f03 10       		.sleb128 16
 6042 0f04 06       		.byte	0x6
 6043 0f05 26       		.uleb128 0x26
 6044 0f06 02       		.uleb128 0x2
 6045 0f07 7D       		.byte	0x7d
 6046 0f08 10       		.sleb128 16
 6047 0f09 03       		.uleb128 0x3
 6048 0f0a 91       		.byte	0x91
 6049 0f0b 14       		.sleb128 20
 6050 0f0c 06       		.byte	0x6
 6051 0f0d 26       		.uleb128 0x26
 6052 0f0e 02       		.uleb128 0x2
 6053 0f0f 7D       		.byte	0x7d
 6054 0f10 14       		.sleb128 20
 6055 0f11 02       		.uleb128 0x2
 6056 0f12 75       		.byte	0x75
 6057 0f13 00       		.sleb128 0
 6058 0f14 26       		.uleb128 0x26
 6059 0f15 02       		.uleb128 0x2
 6060 0f16 7D       		.byte	0x7d
 6061 0f17 18       		.sleb128 24
 6062 0f18 02       		.uleb128 0x2
 6063 0f19 91       		.byte	0x91
 6064 0f1a 60       		.sleb128 -32
 6065 0f1b 00       		.byte	0
 6066 0f1c 27       		.uleb128 0x27
 6067 0f1d 52000000 		.4byte	.LVL215
 6068 0f21 16190000 		.4byte	0x1916
 6069 0f25 26       		.uleb128 0x26
 6070 0f26 01       		.uleb128 0x1
 6071 0f27 50       		.byte	0x50
 6072 0f28 03       		.uleb128 0x3
ARM GAS  C:\Users\Phuong\AppData\Local\Temp\ccINfzqY.s 			page 127


 6073 0f29 91       		.byte	0x91
 6074 0f2a 14       		.sleb128 20
 6075 0f2b 06       		.byte	0x6
 6076 0f2c 26       		.uleb128 0x26
 6077 0f2d 01       		.uleb128 0x1
 6078 0f2e 51       		.byte	0x51
 6079 0f2f 02       		.uleb128 0x2
 6080 0f30 74       		.byte	0x74
 6081 0f31 00       		.sleb128 0
 6082 0f32 00       		.byte	0
 6083 0f33 00       		.byte	0
 6084 0f34 33       		.uleb128 0x33
 6085 0f35 960A0000 		.4byte	.LASF163
 6086 0f39 01       		.byte	0x1
 6087 0f3a F801     		.2byte	0x1f8
 6088 0f3c 00000000 		.4byte	.LFB17
 6089 0f40 14000000 		.4byte	.LFE17-.LFB17
 6090 0f44 01       		.uleb128 0x1
 6091 0f45 9C       		.byte	0x9c
 6092 0f46 860F0000 		.4byte	0xf86
 6093 0f4a 2C       		.uleb128 0x2c
 6094 0f4b 63747800 		.ascii	"ctx\000"
 6095 0f4f 01       		.byte	0x1
 6096 0f50 F801     		.2byte	0x1f8
 6097 0f52 2F060000 		.4byte	0x62f
 6098 0f56 460C0000 		.4byte	.LLST60
 6099 0f5a 25       		.uleb128 0x25
 6100 0f5b 08000000 		.4byte	.LVL220
 6101 0f5f E9180000 		.4byte	0x18e9
 6102 0f63 6E0F0000 		.4byte	0xf6e
 6103 0f67 26       		.uleb128 0x26
 6104 0f68 01       		.uleb128 0x1
 6105 0f69 50       		.byte	0x50
 6106 0f6a 02       		.uleb128 0x2
 6107 0f6b 74       		.byte	0x74
 6108 0f6c 00       		.sleb128 0
 6109 0f6d 00       		.byte	0
 6110 0f6e 27       		.uleb128 0x27
 6111 0f6f 12000000 		.4byte	.LVL221
 6112 0f73 16190000 		.4byte	0x1916
 6113 0f77 26       		.uleb128 0x26
 6114 0f78 01       		.uleb128 0x1
 6115 0f79 50       		.byte	0x50
 6116 0f7a 02       		.uleb128 0x2
 6117 0f7b 74       		.byte	0x74
 6118 0f7c 00       		.sleb128 0
 6119 0f7d 26       		.uleb128 0x26
 6120 0f7e 01       		.uleb128 0x1
 6121 0f7f 51       		.byte	0x51
 6122 0f80 03       		.uleb128 0x3
 6123 0f81 0A       		.byte	0xa
 6124 0f82 8801     		.2byte	0x188
 6125 0f84 00       		.byte	0
 6126 0f85 00       		.byte	0
 6127 0f86 2B       		.uleb128 0x2b
 6128 0f87 EC0E0000 		.4byte	.LASF164
 6129 0f8b 01       		.byte	0x1
ARM GAS  C:\Users\Phuong\AppData\Local\Temp\ccINfzqY.s 			page 128


 6130 0f8c E402     		.2byte	0x2e4
 6131 0f8e 73000000 		.4byte	0x73
 6132 0f92 00000000 		.4byte	.LFB18
 6133 0f96 9C040000 		.4byte	.LFE18-.LFB18
 6134 0f9a 01       		.uleb128 0x1
 6135 0f9b 9C       		.byte	0x9c
 6136 0f9c E3160000 		.4byte	0x16e3
 6137 0fa0 2D       		.uleb128 0x2d
 6138 0fa1 C10E0000 		.4byte	.LASF165
 6139 0fa5 01       		.byte	0x1
 6140 0fa6 E402     		.2byte	0x2e4
 6141 0fa8 73000000 		.4byte	0x73
 6142 0fac 720C0000 		.4byte	.LLST61
 6143 0fb0 34       		.uleb128 0x34
 6144 0fb1 63747800 		.ascii	"ctx\000"
 6145 0fb5 01       		.byte	0x1
 6146 0fb6 E602     		.2byte	0x2e6
 6147 0fb8 91050000 		.4byte	0x591
 6148 0fbc 03       		.uleb128 0x3
 6149 0fbd 91       		.byte	0x91
 6150 0fbe D07C     		.sleb128 -432
 6151 0fc0 34       		.uleb128 0x34
 6152 0fc1 62756600 		.ascii	"buf\000"
 6153 0fc5 01       		.byte	0x1
 6154 0fc6 E702     		.2byte	0x2e7
 6155 0fc8 E3160000 		.4byte	0x16e3
 6156 0fcc 03       		.uleb128 0x3
 6157 0fcd 91       		.byte	0x91
 6158 0fce 907C     		.sleb128 -496
 6159 0fd0 30       		.uleb128 0x30
 6160 0fd1 2D070000 		.4byte	.LASF166
 6161 0fd5 01       		.byte	0x1
 6162 0fd6 E802     		.2byte	0x2e8
 6163 0fd8 CA040000 		.4byte	0x4ca
 6164 0fdc 03       		.uleb128 0x3
 6165 0fdd 91       		.byte	0x91
 6166 0fde 807C     		.sleb128 -512
 6167 0fe0 2F       		.uleb128 0x2f
 6168 0fe1 6900     		.ascii	"i\000"
 6169 0fe3 01       		.byte	0x1
 6170 0fe4 E902     		.2byte	0x2e9
 6171 0fe6 73000000 		.4byte	0x73
 6172 0fea 900D0000 		.4byte	.LLST62
 6173 0fee 2F       		.uleb128 0x2f
 6174 0fef 6A00     		.ascii	"j\000"
 6175 0ff1 01       		.byte	0x1
 6176 0ff2 E902     		.2byte	0x2e9
 6177 0ff4 73000000 		.4byte	0x73
 6178 0ff8 B70E0000 		.4byte	.LLST63
 6179 0ffc 2F       		.uleb128 0x2f
 6180 0ffd 72657400 		.ascii	"ret\000"
 6181 1001 01       		.byte	0x1
 6182 1002 E902     		.2byte	0x2e9
 6183 1004 73000000 		.4byte	0x73
 6184 1008 F70E0000 		.4byte	.LLST64
 6185 100c 35       		.uleb128 0x35
 6186 100d 0D080000 		.4byte	.LASF142
ARM GAS  C:\Users\Phuong\AppData\Local\Temp\ccINfzqY.s 			page 129


 6187 1011 01       		.byte	0x1
 6188 1012 EA02     		.2byte	0x2ea
 6189 1014 DC000000 		.4byte	0xdc
 6190 1018 02       		.byte	0x2
 6191 1019 36       		.uleb128 0x36
 6192 101a E0070000 		.4byte	.LASF195
 6193 101e 01       		.byte	0x1
 6194 101f AD03     		.2byte	0x3ad
 6195 1021 64040000 		.4byte	.L92
 6196 1025 37       		.uleb128 0x37
 6197 1026 00000000 		.4byte	.Ldebug_ranges0+0
 6198 102a A7160000 		.4byte	0x16a7
 6199 102e 31       		.uleb128 0x31
 6200 102f A5090000 		.4byte	.LASF167
 6201 1033 01       		.byte	0x1
 6202 1034 EE02     		.2byte	0x2ee
 6203 1036 73000000 		.4byte	0x73
 6204 103a DB0F0000 		.4byte	.LLST65
 6205 103e 24       		.uleb128 0x24
 6206 103f F2010000 		.4byte	.LBB5
 6207 1043 2E000000 		.4byte	.LBE5-.LBB5
 6208 1047 A8100000 		.4byte	0x10a8
 6209 104b 31       		.uleb128 0x31
 6210 104c 970B0000 		.4byte	.LASF168
 6211 1050 01       		.byte	0x1
 6212 1051 5003     		.2byte	0x350
 6213 1053 81000000 		.4byte	0x81
 6214 1057 15100000 		.4byte	.LLST66
 6215 105b 25       		.uleb128 0x25
 6216 105c 04020000 		.4byte	.LVL267
 6217 1060 880A0000 		.4byte	0xa88
 6218 1064 83100000 		.4byte	0x1083
 6219 1068 26       		.uleb128 0x26
 6220 1069 01       		.uleb128 0x1
 6221 106a 50       		.byte	0x50
 6222 106b 03       		.uleb128 0x3
 6223 106c 91       		.byte	0x91
 6224 106d D07C     		.sleb128 -432
 6225 106f 26       		.uleb128 0x26
 6226 1070 01       		.uleb128 0x1
 6227 1071 51       		.byte	0x51
 6228 1072 02       		.uleb128 0x2
 6229 1073 08       		.byte	0x8
 6230 1074 20       		.byte	0x20
 6231 1075 26       		.uleb128 0x26
 6232 1076 01       		.uleb128 0x1
 6233 1077 52       		.byte	0x52
 6234 1078 02       		.uleb128 0x2
 6235 1079 78       		.byte	0x78
 6236 107a 00       		.sleb128 0
 6237 107b 26       		.uleb128 0x26
 6238 107c 01       		.uleb128 0x1
 6239 107d 53       		.byte	0x53
 6240 107e 03       		.uleb128 0x3
 6241 107f 91       		.byte	0x91
 6242 1080 907C     		.sleb128 -496
 6243 1082 00       		.byte	0
ARM GAS  C:\Users\Phuong\AppData\Local\Temp\ccINfzqY.s 			page 130


 6244 1083 27       		.uleb128 0x27
 6245 1084 18020000 		.4byte	.LVL269
 6246 1088 880A0000 		.4byte	0xa88
 6247 108c 26       		.uleb128 0x26
 6248 108d 01       		.uleb128 0x1
 6249 108e 50       		.byte	0x50
 6250 108f 03       		.uleb128 0x3
 6251 1090 91       		.byte	0x91
 6252 1091 D07C     		.sleb128 -432
 6253 1093 26       		.uleb128 0x26
 6254 1094 01       		.uleb128 0x1
 6255 1095 51       		.byte	0x51
 6256 1096 02       		.uleb128 0x2
 6257 1097 76       		.byte	0x76
 6258 1098 00       		.sleb128 0
 6259 1099 26       		.uleb128 0x26
 6260 109a 01       		.uleb128 0x1
 6261 109b 52       		.byte	0x52
 6262 109c 02       		.uleb128 0x2
 6263 109d 78       		.byte	0x78
 6264 109e 20       		.sleb128 32
 6265 109f 26       		.uleb128 0x26
 6266 10a0 01       		.uleb128 0x1
 6267 10a1 53       		.byte	0x53
 6268 10a2 03       		.uleb128 0x3
 6269 10a3 91       		.byte	0x91
 6270 10a4 B07C     		.sleb128 -464
 6271 10a6 00       		.byte	0
 6272 10a7 00       		.byte	0
 6273 10a8 24       		.uleb128 0x24
 6274 10a9 F8020000 		.4byte	.LBB6
 6275 10ad 2A000000 		.4byte	.LBE6-.LBB6
 6276 10b1 12110000 		.4byte	0x1112
 6277 10b5 31       		.uleb128 0x31
 6278 10b6 970B0000 		.4byte	.LASF168
 6279 10ba 01       		.byte	0x1
 6280 10bb 8403     		.2byte	0x384
 6281 10bd 81000000 		.4byte	0x81
 6282 10c1 33100000 		.4byte	.LLST67
 6283 10c5 25       		.uleb128 0x25
 6284 10c6 06030000 		.4byte	.LVL291
 6285 10ca 880A0000 		.4byte	0xa88
 6286 10ce ED100000 		.4byte	0x10ed
 6287 10d2 26       		.uleb128 0x26
 6288 10d3 01       		.uleb128 0x1
 6289 10d4 50       		.byte	0x50
 6290 10d5 03       		.uleb128 0x3
 6291 10d6 91       		.byte	0x91
 6292 10d7 D07C     		.sleb128 -432
 6293 10d9 26       		.uleb128 0x26
 6294 10da 01       		.uleb128 0x1
 6295 10db 51       		.byte	0x51
 6296 10dc 02       		.uleb128 0x2
 6297 10dd 08       		.byte	0x8
 6298 10de 20       		.byte	0x20
 6299 10df 26       		.uleb128 0x26
 6300 10e0 01       		.uleb128 0x1
ARM GAS  C:\Users\Phuong\AppData\Local\Temp\ccINfzqY.s 			page 131


 6301 10e1 52       		.byte	0x52
 6302 10e2 02       		.uleb128 0x2
 6303 10e3 77       		.byte	0x77
 6304 10e4 00       		.sleb128 0
 6305 10e5 26       		.uleb128 0x26
 6306 10e6 01       		.uleb128 0x1
 6307 10e7 53       		.byte	0x53
 6308 10e8 03       		.uleb128 0x3
 6309 10e9 91       		.byte	0x91
 6310 10ea 907C     		.sleb128 -496
 6311 10ec 00       		.byte	0
 6312 10ed 27       		.uleb128 0x27
 6313 10ee 1A030000 		.4byte	.LVL293
 6314 10f2 880A0000 		.4byte	0xa88
 6315 10f6 26       		.uleb128 0x26
 6316 10f7 01       		.uleb128 0x1
 6317 10f8 50       		.byte	0x50
 6318 10f9 03       		.uleb128 0x3
 6319 10fa 91       		.byte	0x91
 6320 10fb D07C     		.sleb128 -432
 6321 10fd 26       		.uleb128 0x26
 6322 10fe 01       		.uleb128 0x1
 6323 10ff 51       		.byte	0x51
 6324 1100 02       		.uleb128 0x2
 6325 1101 76       		.byte	0x76
 6326 1102 00       		.sleb128 0
 6327 1103 26       		.uleb128 0x26
 6328 1104 01       		.uleb128 0x1
 6329 1105 52       		.byte	0x52
 6330 1106 02       		.uleb128 0x2
 6331 1107 77       		.byte	0x77
 6332 1108 20       		.sleb128 32
 6333 1109 26       		.uleb128 0x26
 6334 110a 01       		.uleb128 0x1
 6335 110b 53       		.byte	0x53
 6336 110c 03       		.uleb128 0x3
 6337 110d 91       		.byte	0x91
 6338 110e B07C     		.sleb128 -464
 6339 1110 00       		.byte	0
 6340 1111 00       		.byte	0
 6341 1112 25       		.uleb128 0x25
 6342 1113 2A000000 		.4byte	.LVL229
 6343 1117 6F070000 		.4byte	0x76f
 6344 111b 27110000 		.4byte	0x1127
 6345 111f 26       		.uleb128 0x26
 6346 1120 01       		.uleb128 0x1
 6347 1121 50       		.byte	0x50
 6348 1122 03       		.uleb128 0x3
 6349 1123 91       		.byte	0x91
 6350 1124 D07C     		.sleb128 -432
 6351 1126 00       		.byte	0
 6352 1127 25       		.uleb128 0x25
 6353 1128 3C000000 		.4byte	.LVL232
 6354 112c 21190000 		.4byte	0x1921
 6355 1130 55110000 		.4byte	0x1155
 6356 1134 26       		.uleb128 0x26
 6357 1135 01       		.uleb128 0x1
ARM GAS  C:\Users\Phuong\AppData\Local\Temp\ccINfzqY.s 			page 132


 6358 1136 50       		.byte	0x50
 6359 1137 05       		.uleb128 0x5
 6360 1138 03       		.byte	0x3
 6361 1139 04000000 		.4byte	.LC3
 6362 113d 26       		.uleb128 0x26
 6363 113e 01       		.uleb128 0x1
 6364 113f 51       		.byte	0x51
 6365 1140 04       		.uleb128 0x4
 6366 1141 91       		.byte	0x91
 6367 1142 EC7B     		.sleb128 -532
 6368 1144 06       		.byte	0x6
 6369 1145 26       		.uleb128 0x26
 6370 1146 01       		.uleb128 0x1
 6371 1147 52       		.byte	0x52
 6372 1148 02       		.uleb128 0x2
 6373 1149 74       		.byte	0x74
 6374 114a 00       		.sleb128 0
 6375 114b 26       		.uleb128 0x26
 6376 114c 01       		.uleb128 0x1
 6377 114d 53       		.byte	0x53
 6378 114e 05       		.uleb128 0x5
 6379 114f 03       		.byte	0x3
 6380 1150 00000000 		.4byte	.LC1
 6381 1154 00       		.byte	0
 6382 1155 25       		.uleb128 0x25
 6383 1156 56000000 		.4byte	.LVL233
 6384 115a B1070000 		.4byte	0x7b1
 6385 115e 7F110000 		.4byte	0x117f
 6386 1162 26       		.uleb128 0x26
 6387 1163 01       		.uleb128 0x1
 6388 1164 50       		.byte	0x50
 6389 1165 03       		.uleb128 0x3
 6390 1166 91       		.byte	0x91
 6391 1167 D07C     		.sleb128 -432
 6392 1169 26       		.uleb128 0x26
 6393 116a 01       		.uleb128 0x1
 6394 116b 51       		.byte	0x51
 6395 116c 01       		.uleb128 0x1
 6396 116d 32       		.byte	0x32
 6397 116e 26       		.uleb128 0x26
 6398 116f 01       		.uleb128 0x1
 6399 1170 52       		.byte	0x52
 6400 1171 04       		.uleb128 0x4
 6401 1172 91       		.byte	0x91
 6402 1173 F47B     		.sleb128 -524
 6403 1175 06       		.byte	0x6
 6404 1176 26       		.uleb128 0x26
 6405 1177 01       		.uleb128 0x1
 6406 1178 53       		.byte	0x53
 6407 1179 04       		.uleb128 0x4
 6408 117a 91       		.byte	0x91
 6409 117b EC7B     		.sleb128 -532
 6410 117d 06       		.byte	0x6
 6411 117e 00       		.byte	0
 6412 117f 25       		.uleb128 0x25
 6413 1180 68000000 		.4byte	.LVL235
 6414 1184 2C190000 		.4byte	0x192c
ARM GAS  C:\Users\Phuong\AppData\Local\Temp\ccINfzqY.s 			page 133


 6415 1188 96110000 		.4byte	0x1196
 6416 118c 26       		.uleb128 0x26
 6417 118d 01       		.uleb128 0x1
 6418 118e 50       		.byte	0x50
 6419 118f 05       		.uleb128 0x5
 6420 1190 03       		.byte	0x3
 6421 1191 20000000 		.4byte	.LC6
 6422 1195 00       		.byte	0
 6423 1196 25       		.uleb128 0x25
 6424 1197 D2000000 		.4byte	.LVL238
 6425 119b 7D0C0000 		.4byte	0xc7d
 6426 119f F9110000 		.4byte	0x11f9
 6427 11a3 26       		.uleb128 0x26
 6428 11a4 01       		.uleb128 0x1
 6429 11a5 50       		.byte	0x50
 6430 11a6 03       		.uleb128 0x3
 6431 11a7 91       		.byte	0x91
 6432 11a8 D07C     		.sleb128 -432
 6433 11aa 26       		.uleb128 0x26
 6434 11ab 01       		.uleb128 0x1
 6435 11ac 51       		.byte	0x51
 6436 11ad 01       		.uleb128 0x1
 6437 11ae 31       		.byte	0x31
 6438 11af 26       		.uleb128 0x26
 6439 11b0 01       		.uleb128 0x1
 6440 11b1 52       		.byte	0x52
 6441 11b2 0B       		.uleb128 0xb
 6442 11b3 74       		.byte	0x74
 6443 11b4 00       		.sleb128 0
 6444 11b5 32       		.byte	0x32
 6445 11b6 24       		.byte	0x24
 6446 11b7 03       		.byte	0x3
 6447 11b8 58010000 		.4byte	.LANCHOR2+88
 6448 11bc 22       		.byte	0x22
 6449 11bd 06       		.byte	0x6
 6450 11be 26       		.uleb128 0x26
 6451 11bf 01       		.uleb128 0x1
 6452 11c0 53       		.byte	0x53
 6453 11c1 02       		.uleb128 0x2
 6454 11c2 75       		.byte	0x75
 6455 11c3 00       		.sleb128 0
 6456 11c4 26       		.uleb128 0x26
 6457 11c5 02       		.uleb128 0x2
 6458 11c6 7D       		.byte	0x7d
 6459 11c7 00       		.sleb128 0
 6460 11c8 02       		.uleb128 0x2
 6461 11c9 78       		.byte	0x78
 6462 11ca 00       		.sleb128 0
 6463 11cb 26       		.uleb128 0x26
 6464 11cc 02       		.uleb128 0x2
 6465 11cd 7D       		.byte	0x7d
 6466 11ce 04       		.sleb128 4
 6467 11cf 02       		.uleb128 0x2
 6468 11d0 76       		.byte	0x76
 6469 11d1 00       		.sleb128 0
 6470 11d2 26       		.uleb128 0x26
 6471 11d3 02       		.uleb128 0x2
ARM GAS  C:\Users\Phuong\AppData\Local\Temp\ccINfzqY.s 			page 134


 6472 11d4 7D       		.byte	0x7d
 6473 11d5 08       		.sleb128 8
 6474 11d6 02       		.uleb128 0x2
 6475 11d7 7B       		.byte	0x7b
 6476 11d8 00       		.sleb128 0
 6477 11d9 26       		.uleb128 0x26
 6478 11da 02       		.uleb128 0x2
 6479 11db 7D       		.byte	0x7d
 6480 11dc 0C       		.sleb128 12
 6481 11dd 04       		.uleb128 0x4
 6482 11de 91       		.byte	0x91
 6483 11df FC7B     		.sleb128 -516
 6484 11e1 06       		.byte	0x6
 6485 11e2 26       		.uleb128 0x26
 6486 11e3 02       		.uleb128 0x2
 6487 11e4 7D       		.byte	0x7d
 6488 11e5 10       		.sleb128 16
 6489 11e6 03       		.uleb128 0x3
 6490 11e7 91       		.byte	0x91
 6491 11e8 907C     		.sleb128 -496
 6492 11ea 26       		.uleb128 0x26
 6493 11eb 02       		.uleb128 0x2
 6494 11ec 7D       		.byte	0x7d
 6495 11ed 14       		.sleb128 20
 6496 11ee 01       		.uleb128 0x1
 6497 11ef 40       		.byte	0x40
 6498 11f0 26       		.uleb128 0x26
 6499 11f1 02       		.uleb128 0x2
 6500 11f2 7D       		.byte	0x7d
 6501 11f3 18       		.sleb128 24
 6502 11f4 03       		.uleb128 0x3
 6503 11f5 91       		.byte	0x91
 6504 11f6 807C     		.sleb128 -512
 6505 11f8 00       		.byte	0
 6506 11f9 25       		.uleb128 0x25
 6507 11fa F4000000 		.4byte	.LVL240
 6508 11fe 3B190000 		.4byte	0x193b
 6509 1202 1C120000 		.4byte	0x121c
 6510 1206 26       		.uleb128 0x26
 6511 1207 01       		.uleb128 0x1
 6512 1208 50       		.byte	0x50
 6513 1209 03       		.uleb128 0x3
 6514 120a 91       		.byte	0x91
 6515 120b 907C     		.sleb128 -496
 6516 120d 26       		.uleb128 0x26
 6517 120e 01       		.uleb128 0x1
 6518 120f 51       		.byte	0x51
 6519 1210 02       		.uleb128 0x2
 6520 1211 77       		.byte	0x77
 6521 1212 00       		.sleb128 0
 6522 1213 26       		.uleb128 0x26
 6523 1214 01       		.uleb128 0x1
 6524 1215 52       		.byte	0x52
 6525 1216 04       		.uleb128 0x4
 6526 1217 91       		.byte	0x91
 6527 1218 F07B     		.sleb128 -528
 6528 121a 06       		.byte	0x6
ARM GAS  C:\Users\Phuong\AppData\Local\Temp\ccINfzqY.s 			page 135


 6529 121b 00       		.byte	0
 6530 121c 25       		.uleb128 0x25
 6531 121d 0C010000 		.4byte	.LVL241
 6532 1221 3B190000 		.4byte	0x193b
 6533 1225 3C120000 		.4byte	0x123c
 6534 1229 26       		.uleb128 0x26
 6535 122a 01       		.uleb128 0x1
 6536 122b 50       		.byte	0x50
 6537 122c 03       		.uleb128 0x3
 6538 122d 91       		.byte	0x91
 6539 122e 807C     		.sleb128 -512
 6540 1230 26       		.uleb128 0x26
 6541 1231 01       		.uleb128 0x1
 6542 1232 51       		.byte	0x51
 6543 1233 02       		.uleb128 0x2
 6544 1234 75       		.byte	0x75
 6545 1235 00       		.sleb128 0
 6546 1236 26       		.uleb128 0x26
 6547 1237 01       		.uleb128 0x1
 6548 1238 52       		.byte	0x52
 6549 1239 01       		.uleb128 0x1
 6550 123a 40       		.byte	0x40
 6551 123b 00       		.byte	0
 6552 123c 25       		.uleb128 0x25
 6553 123d 18010000 		.4byte	.LVL242
 6554 1241 340F0000 		.4byte	0xf34
 6555 1245 51120000 		.4byte	0x1251
 6556 1249 26       		.uleb128 0x26
 6557 124a 01       		.uleb128 0x1
 6558 124b 50       		.byte	0x50
 6559 124c 03       		.uleb128 0x3
 6560 124d 91       		.byte	0x91
 6561 124e D07C     		.sleb128 -432
 6562 1250 00       		.byte	0
 6563 1251 25       		.uleb128 0x25
 6564 1252 24010000 		.4byte	.LVL244
 6565 1256 2C190000 		.4byte	0x192c
 6566 125a 68120000 		.4byte	0x1268
 6567 125e 26       		.uleb128 0x26
 6568 125f 01       		.uleb128 0x1
 6569 1260 50       		.byte	0x50
 6570 1261 05       		.uleb128 0x5
 6571 1262 03       		.byte	0x3
 6572 1263 28000000 		.4byte	.LC14
 6573 1267 00       		.byte	0
 6574 1268 25       		.uleb128 0x25
 6575 1269 2A010000 		.4byte	.LVL245
 6576 126d 6F070000 		.4byte	0x76f
 6577 1271 7D120000 		.4byte	0x127d
 6578 1275 26       		.uleb128 0x26
 6579 1276 01       		.uleb128 0x1
 6580 1277 50       		.byte	0x50
 6581 1278 03       		.uleb128 0x3
 6582 1279 91       		.byte	0x91
 6583 127a D07C     		.sleb128 -432
 6584 127c 00       		.byte	0
 6585 127d 25       		.uleb128 0x25
ARM GAS  C:\Users\Phuong\AppData\Local\Temp\ccINfzqY.s 			page 136


 6586 127e 3C010000 		.4byte	.LVL248
 6587 1282 21190000 		.4byte	0x1921
 6588 1286 AB120000 		.4byte	0x12ab
 6589 128a 26       		.uleb128 0x26
 6590 128b 01       		.uleb128 0x1
 6591 128c 50       		.byte	0x50
 6592 128d 05       		.uleb128 0x5
 6593 128e 03       		.byte	0x3
 6594 128f 04000000 		.4byte	.LC3
 6595 1293 26       		.uleb128 0x26
 6596 1294 01       		.uleb128 0x1
 6597 1295 51       		.byte	0x51
 6598 1296 04       		.uleb128 0x4
 6599 1297 91       		.byte	0x91
 6600 1298 EC7B     		.sleb128 -532
 6601 129a 06       		.byte	0x6
 6602 129b 26       		.uleb128 0x26
 6603 129c 01       		.uleb128 0x1
 6604 129d 52       		.byte	0x52
 6605 129e 02       		.uleb128 0x2
 6606 129f 74       		.byte	0x74
 6607 12a0 00       		.sleb128 0
 6608 12a1 26       		.uleb128 0x26
 6609 12a2 01       		.uleb128 0x1
 6610 12a3 53       		.byte	0x53
 6611 12a4 05       		.uleb128 0x5
 6612 12a5 03       		.byte	0x3
 6613 12a6 30000000 		.4byte	.LC16
 6614 12aa 00       		.byte	0
 6615 12ab 25       		.uleb128 0x25
 6616 12ac 48010000 		.4byte	.LVL249
 6617 12b0 B1070000 		.4byte	0x7b1
 6618 12b4 D5120000 		.4byte	0x12d5
 6619 12b8 26       		.uleb128 0x26
 6620 12b9 01       		.uleb128 0x1
 6621 12ba 50       		.byte	0x50
 6622 12bb 03       		.uleb128 0x3
 6623 12bc 91       		.byte	0x91
 6624 12bd D07C     		.sleb128 -432
 6625 12bf 26       		.uleb128 0x26
 6626 12c0 01       		.uleb128 0x1
 6627 12c1 51       		.byte	0x51
 6628 12c2 01       		.uleb128 0x1
 6629 12c3 32       		.byte	0x32
 6630 12c4 26       		.uleb128 0x26
 6631 12c5 01       		.uleb128 0x1
 6632 12c6 52       		.byte	0x52
 6633 12c7 04       		.uleb128 0x4
 6634 12c8 91       		.byte	0x91
 6635 12c9 F47B     		.sleb128 -524
 6636 12cb 06       		.byte	0x6
 6637 12cc 26       		.uleb128 0x26
 6638 12cd 01       		.uleb128 0x1
 6639 12ce 53       		.byte	0x53
 6640 12cf 04       		.uleb128 0x4
 6641 12d0 91       		.byte	0x91
 6642 12d1 EC7B     		.sleb128 -532
ARM GAS  C:\Users\Phuong\AppData\Local\Temp\ccINfzqY.s 			page 137


 6643 12d3 06       		.byte	0x6
 6644 12d4 00       		.byte	0
 6645 12d5 25       		.uleb128 0x25
 6646 12d6 72010000 		.4byte	.LVL251
 6647 12da 7D0C0000 		.4byte	0xc7d
 6648 12de 31130000 		.4byte	0x1331
 6649 12e2 26       		.uleb128 0x26
 6650 12e3 01       		.uleb128 0x1
 6651 12e4 50       		.byte	0x50
 6652 12e5 03       		.uleb128 0x3
 6653 12e6 91       		.byte	0x91
 6654 12e7 D07C     		.sleb128 -432
 6655 12e9 26       		.uleb128 0x26
 6656 12ea 01       		.uleb128 0x1
 6657 12eb 51       		.byte	0x51
 6658 12ec 01       		.uleb128 0x1
 6659 12ed 30       		.byte	0x30
 6660 12ee 26       		.uleb128 0x26
 6661 12ef 01       		.uleb128 0x1
 6662 12f0 52       		.byte	0x52
 6663 12f1 04       		.uleb128 0x4
 6664 12f2 91       		.byte	0x91
 6665 12f3 F07B     		.sleb128 -528
 6666 12f5 06       		.byte	0x6
 6667 12f6 26       		.uleb128 0x26
 6668 12f7 01       		.uleb128 0x1
 6669 12f8 53       		.byte	0x53
 6670 12f9 04       		.uleb128 0x4
 6671 12fa 91       		.byte	0x91
 6672 12fb F87B     		.sleb128 -520
 6673 12fd 06       		.byte	0x6
 6674 12fe 26       		.uleb128 0x26
 6675 12ff 02       		.uleb128 0x2
 6676 1300 7D       		.byte	0x7d
 6677 1301 00       		.sleb128 0
 6678 1302 02       		.uleb128 0x2
 6679 1303 78       		.byte	0x78
 6680 1304 00       		.sleb128 0
 6681 1305 26       		.uleb128 0x26
 6682 1306 02       		.uleb128 0x2
 6683 1307 7D       		.byte	0x7d
 6684 1308 04       		.sleb128 4
 6685 1309 02       		.uleb128 0x2
 6686 130a 76       		.byte	0x76
 6687 130b 00       		.sleb128 0
 6688 130c 26       		.uleb128 0x26
 6689 130d 02       		.uleb128 0x2
 6690 130e 7D       		.byte	0x7d
 6691 130f 08       		.sleb128 8
 6692 1310 02       		.uleb128 0x2
 6693 1311 7B       		.byte	0x7b
 6694 1312 00       		.sleb128 0
 6695 1313 26       		.uleb128 0x26
 6696 1314 02       		.uleb128 0x2
 6697 1315 7D       		.byte	0x7d
 6698 1316 0C       		.sleb128 12
 6699 1317 02       		.uleb128 0x2
ARM GAS  C:\Users\Phuong\AppData\Local\Temp\ccINfzqY.s 			page 138


 6700 1318 77       		.byte	0x77
 6701 1319 00       		.sleb128 0
 6702 131a 26       		.uleb128 0x26
 6703 131b 02       		.uleb128 0x2
 6704 131c 7D       		.byte	0x7d
 6705 131d 10       		.sleb128 16
 6706 131e 03       		.uleb128 0x3
 6707 131f 91       		.byte	0x91
 6708 1320 907C     		.sleb128 -496
 6709 1322 26       		.uleb128 0x26
 6710 1323 02       		.uleb128 0x2
 6711 1324 7D       		.byte	0x7d
 6712 1325 14       		.sleb128 20
 6713 1326 01       		.uleb128 0x1
 6714 1327 40       		.byte	0x40
 6715 1328 26       		.uleb128 0x26
 6716 1329 02       		.uleb128 0x2
 6717 132a 7D       		.byte	0x7d
 6718 132b 18       		.sleb128 24
 6719 132c 03       		.uleb128 0x3
 6720 132d 91       		.byte	0x91
 6721 132e 807C     		.sleb128 -512
 6722 1330 00       		.byte	0
 6723 1331 25       		.uleb128 0x25
 6724 1332 82010000 		.4byte	.LVL253
 6725 1336 3B190000 		.4byte	0x193b
 6726 133a 56130000 		.4byte	0x1356
 6727 133e 26       		.uleb128 0x26
 6728 133f 01       		.uleb128 0x1
 6729 1340 50       		.byte	0x50
 6730 1341 03       		.uleb128 0x3
 6731 1342 91       		.byte	0x91
 6732 1343 907C     		.sleb128 -496
 6733 1345 26       		.uleb128 0x26
 6734 1346 01       		.uleb128 0x1
 6735 1347 51       		.byte	0x51
 6736 1348 04       		.uleb128 0x4
 6737 1349 91       		.byte	0x91
 6738 134a FC7B     		.sleb128 -516
 6739 134c 06       		.byte	0x6
 6740 134d 26       		.uleb128 0x26
 6741 134e 01       		.uleb128 0x1
 6742 134f 52       		.byte	0x52
 6743 1350 04       		.uleb128 0x4
 6744 1351 91       		.byte	0x91
 6745 1352 F07B     		.sleb128 -528
 6746 1354 06       		.byte	0x6
 6747 1355 00       		.byte	0
 6748 1356 25       		.uleb128 0x25
 6749 1357 92010000 		.4byte	.LVL254
 6750 135b 3B190000 		.4byte	0x193b
 6751 135f 76130000 		.4byte	0x1376
 6752 1363 26       		.uleb128 0x26
 6753 1364 01       		.uleb128 0x1
 6754 1365 50       		.byte	0x50
 6755 1366 03       		.uleb128 0x3
 6756 1367 91       		.byte	0x91
ARM GAS  C:\Users\Phuong\AppData\Local\Temp\ccINfzqY.s 			page 139


 6757 1368 807C     		.sleb128 -512
 6758 136a 26       		.uleb128 0x26
 6759 136b 01       		.uleb128 0x1
 6760 136c 51       		.byte	0x51
 6761 136d 02       		.uleb128 0x2
 6762 136e 75       		.byte	0x75
 6763 136f 00       		.sleb128 0
 6764 1370 26       		.uleb128 0x26
 6765 1371 01       		.uleb128 0x1
 6766 1372 52       		.byte	0x52
 6767 1373 01       		.uleb128 0x1
 6768 1374 40       		.byte	0x40
 6769 1375 00       		.byte	0
 6770 1376 25       		.uleb128 0x25
 6771 1377 9E010000 		.4byte	.LVL255
 6772 137b 340F0000 		.4byte	0xf34
 6773 137f 8B130000 		.4byte	0x138b
 6774 1383 26       		.uleb128 0x26
 6775 1384 01       		.uleb128 0x1
 6776 1385 50       		.byte	0x50
 6777 1386 03       		.uleb128 0x3
 6778 1387 91       		.byte	0x91
 6779 1388 D07C     		.sleb128 -432
 6780 138a 00       		.byte	0
 6781 138b 25       		.uleb128 0x25
 6782 138c AA010000 		.4byte	.LVL257
 6783 1390 2C190000 		.4byte	0x192c
 6784 1394 A2130000 		.4byte	0x13a2
 6785 1398 26       		.uleb128 0x26
 6786 1399 01       		.uleb128 0x1
 6787 139a 50       		.byte	0x50
 6788 139b 05       		.uleb128 0x5
 6789 139c 03       		.byte	0x3
 6790 139d 28000000 		.4byte	.LC14
 6791 13a1 00       		.byte	0
 6792 13a2 25       		.uleb128 0x25
 6793 13a3 B0010000 		.4byte	.LVL258
 6794 13a7 6F070000 		.4byte	0x76f
 6795 13ab B7130000 		.4byte	0x13b7
 6796 13af 26       		.uleb128 0x26
 6797 13b0 01       		.uleb128 0x1
 6798 13b1 50       		.byte	0x50
 6799 13b2 03       		.uleb128 0x3
 6800 13b3 91       		.byte	0x91
 6801 13b4 D07C     		.sleb128 -432
 6802 13b6 00       		.byte	0
 6803 13b7 25       		.uleb128 0x25
 6804 13b8 C2010000 		.4byte	.LVL261
 6805 13bc 21190000 		.4byte	0x1921
 6806 13c0 E5130000 		.4byte	0x13e5
 6807 13c4 26       		.uleb128 0x26
 6808 13c5 01       		.uleb128 0x1
 6809 13c6 50       		.byte	0x50
 6810 13c7 05       		.uleb128 0x5
 6811 13c8 03       		.byte	0x3
 6812 13c9 34000000 		.4byte	.LC18
 6813 13cd 26       		.uleb128 0x26
ARM GAS  C:\Users\Phuong\AppData\Local\Temp\ccINfzqY.s 			page 140


 6814 13ce 01       		.uleb128 0x1
 6815 13cf 51       		.byte	0x51
 6816 13d0 04       		.uleb128 0x4
 6817 13d1 91       		.byte	0x91
 6818 13d2 EC7B     		.sleb128 -532
 6819 13d4 06       		.byte	0x6
 6820 13d5 26       		.uleb128 0x26
 6821 13d6 01       		.uleb128 0x1
 6822 13d7 52       		.byte	0x52
 6823 13d8 02       		.uleb128 0x2
 6824 13d9 74       		.byte	0x74
 6825 13da 00       		.sleb128 0
 6826 13db 26       		.uleb128 0x26
 6827 13dc 01       		.uleb128 0x1
 6828 13dd 53       		.byte	0x53
 6829 13de 05       		.uleb128 0x5
 6830 13df 03       		.byte	0x3
 6831 13e0 00000000 		.4byte	.LC1
 6832 13e4 00       		.byte	0
 6833 13e5 25       		.uleb128 0x25
 6834 13e6 CE010000 		.4byte	.LVL262
 6835 13ea B1070000 		.4byte	0x7b1
 6836 13ee 0F140000 		.4byte	0x140f
 6837 13f2 26       		.uleb128 0x26
 6838 13f3 01       		.uleb128 0x1
 6839 13f4 50       		.byte	0x50
 6840 13f5 03       		.uleb128 0x3
 6841 13f6 91       		.byte	0x91
 6842 13f7 D07C     		.sleb128 -432
 6843 13f9 26       		.uleb128 0x26
 6844 13fa 01       		.uleb128 0x1
 6845 13fb 51       		.byte	0x51
 6846 13fc 01       		.uleb128 0x1
 6847 13fd 32       		.byte	0x32
 6848 13fe 26       		.uleb128 0x26
 6849 13ff 01       		.uleb128 0x1
 6850 1400 52       		.byte	0x52
 6851 1401 04       		.uleb128 0x4
 6852 1402 91       		.byte	0x91
 6853 1403 F47B     		.sleb128 -524
 6854 1405 06       		.byte	0x6
 6855 1406 26       		.uleb128 0x26
 6856 1407 01       		.uleb128 0x1
 6857 1408 53       		.byte	0x53
 6858 1409 04       		.uleb128 0x4
 6859 140a 91       		.byte	0x91
 6860 140b EC7B     		.sleb128 -532
 6861 140d 06       		.byte	0x6
 6862 140e 00       		.byte	0
 6863 140f 25       		.uleb128 0x25
 6864 1410 E6010000 		.4byte	.LVL264
 6865 1414 A1080000 		.4byte	0x8a1
 6866 1418 45140000 		.4byte	0x1445
 6867 141c 26       		.uleb128 0x26
 6868 141d 01       		.uleb128 0x1
 6869 141e 50       		.byte	0x50
 6870 141f 03       		.uleb128 0x3
ARM GAS  C:\Users\Phuong\AppData\Local\Temp\ccINfzqY.s 			page 141


 6871 1420 91       		.byte	0x91
 6872 1421 D07C     		.sleb128 -432
 6873 1423 26       		.uleb128 0x26
 6874 1424 01       		.uleb128 0x1
 6875 1425 51       		.byte	0x51
 6876 1426 01       		.uleb128 0x1
 6877 1427 31       		.byte	0x31
 6878 1428 26       		.uleb128 0x26
 6879 1429 01       		.uleb128 0x1
 6880 142a 52       		.byte	0x52
 6881 142b 04       		.uleb128 0x4
 6882 142c 91       		.byte	0x91
 6883 142d F87B     		.sleb128 -520
 6884 142f 06       		.byte	0x6
 6885 1430 26       		.uleb128 0x26
 6886 1431 01       		.uleb128 0x1
 6887 1432 53       		.byte	0x53
 6888 1433 02       		.uleb128 0x2
 6889 1434 78       		.byte	0x78
 6890 1435 00       		.sleb128 0
 6891 1436 26       		.uleb128 0x26
 6892 1437 02       		.uleb128 0x2
 6893 1438 7D       		.byte	0x7d
 6894 1439 00       		.sleb128 0
 6895 143a 02       		.uleb128 0x2
 6896 143b 76       		.byte	0x76
 6897 143c 00       		.sleb128 0
 6898 143d 26       		.uleb128 0x26
 6899 143e 02       		.uleb128 0x2
 6900 143f 7D       		.byte	0x7d
 6901 1440 04       		.sleb128 4
 6902 1441 02       		.uleb128 0x2
 6903 1442 7B       		.byte	0x7b
 6904 1443 00       		.sleb128 0
 6905 1444 00       		.byte	0
 6906 1445 25       		.uleb128 0x25
 6907 1446 2E020000 		.4byte	.LVL273
 6908 144a 880A0000 		.4byte	0xa88
 6909 144e 71140000 		.4byte	0x1471
 6910 1452 26       		.uleb128 0x26
 6911 1453 01       		.uleb128 0x1
 6912 1454 50       		.byte	0x50
 6913 1455 03       		.uleb128 0x3
 6914 1456 91       		.byte	0x91
 6915 1457 D07C     		.sleb128 -432
 6916 1459 26       		.uleb128 0x26
 6917 145a 01       		.uleb128 0x1
 6918 145b 51       		.byte	0x51
 6919 145c 04       		.uleb128 0x4
 6920 145d 91       		.byte	0x91
 6921 145e F07B     		.sleb128 -528
 6922 1460 06       		.byte	0x6
 6923 1461 26       		.uleb128 0x26
 6924 1462 01       		.uleb128 0x1
 6925 1463 52       		.byte	0x52
 6926 1464 04       		.uleb128 0x4
 6927 1465 91       		.byte	0x91
ARM GAS  C:\Users\Phuong\AppData\Local\Temp\ccINfzqY.s 			page 142


 6928 1466 FC7B     		.sleb128 -516
 6929 1468 06       		.byte	0x6
 6930 1469 26       		.uleb128 0x26
 6931 146a 01       		.uleb128 0x1
 6932 146b 53       		.byte	0x53
 6933 146c 03       		.uleb128 0x3
 6934 146d 91       		.byte	0x91
 6935 146e 907C     		.sleb128 -496
 6936 1470 00       		.byte	0
 6937 1471 25       		.uleb128 0x25
 6938 1472 3E020000 		.4byte	.LVL275
 6939 1476 980B0000 		.4byte	0xb98
 6940 147a 92140000 		.4byte	0x1492
 6941 147e 26       		.uleb128 0x26
 6942 147f 01       		.uleb128 0x1
 6943 1480 50       		.byte	0x50
 6944 1481 03       		.uleb128 0x3
 6945 1482 91       		.byte	0x91
 6946 1483 D07C     		.sleb128 -432
 6947 1485 26       		.uleb128 0x26
 6948 1486 01       		.uleb128 0x1
 6949 1487 51       		.byte	0x51
 6950 1488 03       		.uleb128 0x3
 6951 1489 91       		.byte	0x91
 6952 148a 807C     		.sleb128 -512
 6953 148c 26       		.uleb128 0x26
 6954 148d 01       		.uleb128 0x1
 6955 148e 52       		.byte	0x52
 6956 148f 01       		.uleb128 0x1
 6957 1490 40       		.byte	0x40
 6958 1491 00       		.byte	0
 6959 1492 25       		.uleb128 0x25
 6960 1493 56020000 		.4byte	.LVL277
 6961 1497 3B190000 		.4byte	0x193b
 6962 149b B3140000 		.4byte	0x14b3
 6963 149f 26       		.uleb128 0x26
 6964 14a0 01       		.uleb128 0x1
 6965 14a1 50       		.byte	0x50
 6966 14a2 03       		.uleb128 0x3
 6967 14a3 91       		.byte	0x91
 6968 14a4 907C     		.sleb128 -496
 6969 14a6 26       		.uleb128 0x26
 6970 14a7 01       		.uleb128 0x1
 6971 14a8 51       		.byte	0x51
 6972 14a9 02       		.uleb128 0x2
 6973 14aa 77       		.byte	0x77
 6974 14ab 00       		.sleb128 0
 6975 14ac 26       		.uleb128 0x26
 6976 14ad 01       		.uleb128 0x1
 6977 14ae 52       		.byte	0x52
 6978 14af 02       		.uleb128 0x2
 6979 14b0 76       		.byte	0x76
 6980 14b1 00       		.sleb128 0
 6981 14b2 00       		.byte	0
 6982 14b3 25       		.uleb128 0x25
 6983 14b4 66020000 		.4byte	.LVL278
 6984 14b8 3B190000 		.4byte	0x193b
ARM GAS  C:\Users\Phuong\AppData\Local\Temp\ccINfzqY.s 			page 143


 6985 14bc D3140000 		.4byte	0x14d3
 6986 14c0 26       		.uleb128 0x26
 6987 14c1 01       		.uleb128 0x1
 6988 14c2 50       		.byte	0x50
 6989 14c3 03       		.uleb128 0x3
 6990 14c4 91       		.byte	0x91
 6991 14c5 807C     		.sleb128 -512
 6992 14c7 26       		.uleb128 0x26
 6993 14c8 01       		.uleb128 0x1
 6994 14c9 51       		.byte	0x51
 6995 14ca 02       		.uleb128 0x2
 6996 14cb 75       		.byte	0x75
 6997 14cc 00       		.sleb128 0
 6998 14cd 26       		.uleb128 0x26
 6999 14ce 01       		.uleb128 0x1
 7000 14cf 52       		.byte	0x52
 7001 14d0 01       		.uleb128 0x1
 7002 14d1 40       		.byte	0x40
 7003 14d2 00       		.byte	0
 7004 14d3 25       		.uleb128 0x25
 7005 14d4 72020000 		.4byte	.LVL279
 7006 14d8 340F0000 		.4byte	0xf34
 7007 14dc E8140000 		.4byte	0x14e8
 7008 14e0 26       		.uleb128 0x26
 7009 14e1 01       		.uleb128 0x1
 7010 14e2 50       		.byte	0x50
 7011 14e3 03       		.uleb128 0x3
 7012 14e4 91       		.byte	0x91
 7013 14e5 D07C     		.sleb128 -432
 7014 14e7 00       		.byte	0
 7015 14e8 25       		.uleb128 0x25
 7016 14e9 7E020000 		.4byte	.LVL281
 7017 14ed 2C190000 		.4byte	0x192c
 7018 14f1 FF140000 		.4byte	0x14ff
 7019 14f5 26       		.uleb128 0x26
 7020 14f6 01       		.uleb128 0x1
 7021 14f7 50       		.byte	0x50
 7022 14f8 05       		.uleb128 0x5
 7023 14f9 03       		.byte	0x3
 7024 14fa 28000000 		.4byte	.LC14
 7025 14fe 00       		.byte	0
 7026 14ff 25       		.uleb128 0x25
 7027 1500 84020000 		.4byte	.LVL282
 7028 1504 6F070000 		.4byte	0x76f
 7029 1508 14150000 		.4byte	0x1514
 7030 150c 26       		.uleb128 0x26
 7031 150d 01       		.uleb128 0x1
 7032 150e 50       		.byte	0x50
 7033 150f 03       		.uleb128 0x3
 7034 1510 91       		.byte	0x91
 7035 1511 D07C     		.sleb128 -432
 7036 1513 00       		.byte	0
 7037 1514 25       		.uleb128 0x25
 7038 1515 96020000 		.4byte	.LVL285
 7039 1519 21190000 		.4byte	0x1921
 7040 151d 42150000 		.4byte	0x1542
 7041 1521 26       		.uleb128 0x26
ARM GAS  C:\Users\Phuong\AppData\Local\Temp\ccINfzqY.s 			page 144


 7042 1522 01       		.uleb128 0x1
 7043 1523 50       		.byte	0x50
 7044 1524 05       		.uleb128 0x5
 7045 1525 03       		.byte	0x3
 7046 1526 34000000 		.4byte	.LC18
 7047 152a 26       		.uleb128 0x26
 7048 152b 01       		.uleb128 0x1
 7049 152c 51       		.byte	0x51
 7050 152d 04       		.uleb128 0x4
 7051 152e 91       		.byte	0x91
 7052 152f EC7B     		.sleb128 -532
 7053 1531 06       		.byte	0x6
 7054 1532 26       		.uleb128 0x26
 7055 1533 01       		.uleb128 0x1
 7056 1534 52       		.byte	0x52
 7057 1535 02       		.uleb128 0x2
 7058 1536 74       		.byte	0x74
 7059 1537 00       		.sleb128 0
 7060 1538 26       		.uleb128 0x26
 7061 1539 01       		.uleb128 0x1
 7062 153a 53       		.byte	0x53
 7063 153b 05       		.uleb128 0x5
 7064 153c 03       		.byte	0x3
 7065 153d 30000000 		.4byte	.LC16
 7066 1541 00       		.byte	0
 7067 1542 25       		.uleb128 0x25
 7068 1543 AC020000 		.4byte	.LVL286
 7069 1547 B1070000 		.4byte	0x7b1
 7070 154b 7B150000 		.4byte	0x157b
 7071 154f 26       		.uleb128 0x26
 7072 1550 01       		.uleb128 0x1
 7073 1551 50       		.byte	0x50
 7074 1552 03       		.uleb128 0x3
 7075 1553 91       		.byte	0x91
 7076 1554 D07C     		.sleb128 -432
 7077 1556 26       		.uleb128 0x26
 7078 1557 01       		.uleb128 0x1
 7079 1558 51       		.byte	0x51
 7080 1559 01       		.uleb128 0x1
 7081 155a 32       		.byte	0x32
 7082 155b 26       		.uleb128 0x26
 7083 155c 01       		.uleb128 0x1
 7084 155d 52       		.byte	0x52
 7085 155e 13       		.uleb128 0x13
 7086 155f 74       		.byte	0x74
 7087 1560 00       		.sleb128 0
 7088 1561 32       		.byte	0x32
 7089 1562 24       		.byte	0x24
 7090 1563 03       		.byte	0x3
 7091 1564 80000000 		.4byte	.LANCHOR1
 7092 1568 22       		.byte	0x22
 7093 1569 06       		.byte	0x6
 7094 156a 35       		.byte	0x35
 7095 156b 24       		.byte	0x24
 7096 156c 03       		.byte	0x3
 7097 156d 98000000 		.4byte	.LANCHOR1+24
 7098 1571 22       		.byte	0x22
ARM GAS  C:\Users\Phuong\AppData\Local\Temp\ccINfzqY.s 			page 145


 7099 1572 26       		.uleb128 0x26
 7100 1573 01       		.uleb128 0x1
 7101 1574 53       		.byte	0x53
 7102 1575 04       		.uleb128 0x4
 7103 1576 91       		.byte	0x91
 7104 1577 EC7B     		.sleb128 -532
 7105 1579 06       		.byte	0x6
 7106 157a 00       		.byte	0
 7107 157b 25       		.uleb128 0x25
 7108 157c EE020000 		.4byte	.LVL288
 7109 1580 A1080000 		.4byte	0x8a1
 7110 1584 DA150000 		.4byte	0x15da
 7111 1588 26       		.uleb128 0x26
 7112 1589 01       		.uleb128 0x1
 7113 158a 50       		.byte	0x50
 7114 158b 03       		.uleb128 0x3
 7115 158c 91       		.byte	0x91
 7116 158d D07C     		.sleb128 -432
 7117 158f 26       		.uleb128 0x26
 7118 1590 01       		.uleb128 0x1
 7119 1591 51       		.byte	0x51
 7120 1592 01       		.uleb128 0x1
 7121 1593 30       		.byte	0x30
 7122 1594 26       		.uleb128 0x26
 7123 1595 01       		.uleb128 0x1
 7124 1596 52       		.byte	0x52
 7125 1597 13       		.uleb128 0x13
 7126 1598 74       		.byte	0x74
 7127 1599 00       		.sleb128 0
 7128 159a 32       		.byte	0x32
 7129 159b 24       		.byte	0x24
 7130 159c 03       		.byte	0x3
 7131 159d 70010000 		.4byte	.LANCHOR2+112
 7132 15a1 22       		.byte	0x22
 7133 15a2 06       		.byte	0x6
 7134 15a3 36       		.byte	0x36
 7135 15a4 24       		.byte	0x24
 7136 15a5 03       		.byte	0x3
 7137 15a6 88010000 		.4byte	.LANCHOR3+8
 7138 15aa 22       		.byte	0x22
 7139 15ab 26       		.uleb128 0x26
 7140 15ac 01       		.uleb128 0x1
 7141 15ad 53       		.byte	0x53
 7142 15ae 02       		.uleb128 0x2
 7143 15af 7B       		.byte	0x7b
 7144 15b0 00       		.sleb128 0
 7145 15b1 26       		.uleb128 0x26
 7146 15b2 02       		.uleb128 0x2
 7147 15b3 7D       		.byte	0x7d
 7148 15b4 00       		.sleb128 0
 7149 15b5 13       		.uleb128 0x13
 7150 15b6 74       		.byte	0x74
 7151 15b7 00       		.sleb128 0
 7152 15b8 32       		.byte	0x32
 7153 15b9 24       		.byte	0x24
 7154 15ba 03       		.byte	0x3
 7155 15bb 20030000 		.4byte	.LANCHOR4+32
ARM GAS  C:\Users\Phuong\AppData\Local\Temp\ccINfzqY.s 			page 146


 7156 15bf 22       		.byte	0x22
 7157 15c0 06       		.byte	0x6
 7158 15c1 36       		.byte	0x36
 7159 15c2 24       		.byte	0x24
 7160 15c3 03       		.byte	0x3
 7161 15c4 38030000 		.4byte	.LANCHOR4+56
 7162 15c8 22       		.byte	0x22
 7163 15c9 26       		.uleb128 0x26
 7164 15ca 02       		.uleb128 0x2
 7165 15cb 7D       		.byte	0x7d
 7166 15cc 04       		.sleb128 4
 7167 15cd 0B       		.uleb128 0xb
 7168 15ce 74       		.byte	0x74
 7169 15cf 00       		.sleb128 0
 7170 15d0 32       		.byte	0x32
 7171 15d1 24       		.byte	0x24
 7172 15d2 03       		.byte	0x3
 7173 15d3 B8040000 		.4byte	.LANCHOR5+56
 7174 15d7 22       		.byte	0x22
 7175 15d8 06       		.byte	0x6
 7176 15d9 00       		.byte	0
 7177 15da 25       		.uleb128 0x25
 7178 15db 68030000 		.4byte	.LVL297
 7179 15df 880A0000 		.4byte	0xa88
 7180 15e3 02160000 		.4byte	0x1602
 7181 15e7 26       		.uleb128 0x26
 7182 15e8 01       		.uleb128 0x1
 7183 15e9 50       		.byte	0x50
 7184 15ea 03       		.uleb128 0x3
 7185 15eb 91       		.byte	0x91
 7186 15ec D07C     		.sleb128 -432
 7187 15ee 26       		.uleb128 0x26
 7188 15ef 01       		.uleb128 0x1
 7189 15f0 51       		.byte	0x51
 7190 15f1 02       		.uleb128 0x2
 7191 15f2 76       		.byte	0x76
 7192 15f3 00       		.sleb128 0
 7193 15f4 26       		.uleb128 0x26
 7194 15f5 01       		.uleb128 0x1
 7195 15f6 52       		.byte	0x52
 7196 15f7 02       		.uleb128 0x2
 7197 15f8 77       		.byte	0x77
 7198 15f9 00       		.sleb128 0
 7199 15fa 26       		.uleb128 0x26
 7200 15fb 01       		.uleb128 0x1
 7201 15fc 53       		.byte	0x53
 7202 15fd 03       		.uleb128 0x3
 7203 15fe 91       		.byte	0x91
 7204 15ff 907C     		.sleb128 -496
 7205 1601 00       		.byte	0
 7206 1602 25       		.uleb128 0x25
 7207 1603 76030000 		.4byte	.LVL299
 7208 1607 980B0000 		.4byte	0xb98
 7209 160b 23160000 		.4byte	0x1623
 7210 160f 26       		.uleb128 0x26
 7211 1610 01       		.uleb128 0x1
 7212 1611 50       		.byte	0x50
ARM GAS  C:\Users\Phuong\AppData\Local\Temp\ccINfzqY.s 			page 147


 7213 1612 03       		.uleb128 0x3
 7214 1613 91       		.byte	0x91
 7215 1614 D07C     		.sleb128 -432
 7216 1616 26       		.uleb128 0x26
 7217 1617 01       		.uleb128 0x1
 7218 1618 51       		.byte	0x51
 7219 1619 03       		.uleb128 0x3
 7220 161a 91       		.byte	0x91
 7221 161b 807C     		.sleb128 -512
 7222 161d 26       		.uleb128 0x26
 7223 161e 01       		.uleb128 0x1
 7224 161f 52       		.byte	0x52
 7225 1620 01       		.uleb128 0x1
 7226 1621 40       		.byte	0x40
 7227 1622 00       		.byte	0
 7228 1623 25       		.uleb128 0x25
 7229 1624 94030000 		.4byte	.LVL301
 7230 1628 3B190000 		.4byte	0x193b
 7231 162c 5E160000 		.4byte	0x165e
 7232 1630 26       		.uleb128 0x26
 7233 1631 01       		.uleb128 0x1
 7234 1632 50       		.byte	0x50
 7235 1633 03       		.uleb128 0x3
 7236 1634 91       		.byte	0x91
 7237 1635 907C     		.sleb128 -496
 7238 1637 26       		.uleb128 0x26
 7239 1638 01       		.uleb128 0x1
 7240 1639 51       		.byte	0x51
 7241 163a 13       		.uleb128 0x13
 7242 163b 74       		.byte	0x74
 7243 163c 00       		.sleb128 0
 7244 163d 32       		.byte	0x32
 7245 163e 24       		.byte	0x24
 7246 163f 03       		.byte	0x3
 7247 1640 D0040000 		.4byte	.LANCHOR5+80
 7248 1644 22       		.byte	0x22
 7249 1645 06       		.byte	0x6
 7250 1646 36       		.byte	0x36
 7251 1647 24       		.byte	0x24
 7252 1648 03       		.byte	0x3
 7253 1649 E8040000 		.4byte	.LANCHOR5+104
 7254 164d 22       		.byte	0x22
 7255 164e 26       		.uleb128 0x26
 7256 164f 01       		.uleb128 0x1
 7257 1650 52       		.byte	0x52
 7258 1651 0B       		.uleb128 0xb
 7259 1652 74       		.byte	0x74
 7260 1653 00       		.sleb128 0
 7261 1654 32       		.byte	0x32
 7262 1655 24       		.byte	0x24
 7263 1656 03       		.byte	0x3
 7264 1657 58010000 		.4byte	.LANCHOR2+88
 7265 165b 22       		.byte	0x22
 7266 165c 06       		.byte	0x6
 7267 165d 00       		.byte	0
 7268 165e 25       		.uleb128 0x25
 7269 165f A2030000 		.4byte	.LVL302
ARM GAS  C:\Users\Phuong\AppData\Local\Temp\ccINfzqY.s 			page 148


 7270 1663 3B190000 		.4byte	0x193b
 7271 1667 7E160000 		.4byte	0x167e
 7272 166b 26       		.uleb128 0x26
 7273 166c 01       		.uleb128 0x1
 7274 166d 50       		.byte	0x50
 7275 166e 03       		.uleb128 0x3
 7276 166f 91       		.byte	0x91
 7277 1670 807C     		.sleb128 -512
 7278 1672 26       		.uleb128 0x26
 7279 1673 01       		.uleb128 0x1
 7280 1674 51       		.byte	0x51
 7281 1675 02       		.uleb128 0x2
 7282 1676 75       		.byte	0x75
 7283 1677 00       		.sleb128 0
 7284 1678 26       		.uleb128 0x26
 7285 1679 01       		.uleb128 0x1
 7286 167a 52       		.byte	0x52
 7287 167b 01       		.uleb128 0x1
 7288 167c 40       		.byte	0x40
 7289 167d 00       		.byte	0
 7290 167e 25       		.uleb128 0x25
 7291 167f AC030000 		.4byte	.LVL303
 7292 1683 340F0000 		.4byte	0xf34
 7293 1687 93160000 		.4byte	0x1693
 7294 168b 26       		.uleb128 0x26
 7295 168c 01       		.uleb128 0x1
 7296 168d 50       		.byte	0x50
 7297 168e 03       		.uleb128 0x3
 7298 168f 91       		.byte	0x91
 7299 1690 D07C     		.sleb128 -432
 7300 1692 00       		.byte	0
 7301 1693 27       		.uleb128 0x27
 7302 1694 B8030000 		.4byte	.LVL305
 7303 1698 2C190000 		.4byte	0x192c
 7304 169c 26       		.uleb128 0x26
 7305 169d 01       		.uleb128 0x1
 7306 169e 50       		.byte	0x50
 7307 169f 05       		.uleb128 0x5
 7308 16a0 03       		.byte	0x3
 7309 16a1 28000000 		.4byte	.LC14
 7310 16a5 00       		.byte	0
 7311 16a6 00       		.byte	0
 7312 16a7 25       		.uleb128 0x25
 7313 16a8 DA030000 		.4byte	.LVL309
 7314 16ac 46190000 		.4byte	0x1946
 7315 16b0 BA160000 		.4byte	0x16ba
 7316 16b4 26       		.uleb128 0x26
 7317 16b5 01       		.uleb128 0x1
 7318 16b6 50       		.byte	0x50
 7319 16b7 01       		.uleb128 0x1
 7320 16b8 3A       		.byte	0x3a
 7321 16b9 00       		.byte	0
 7322 16ba 25       		.uleb128 0x25
 7323 16bb 72040000 		.4byte	.LVL356
 7324 16bf 2C190000 		.4byte	0x192c
 7325 16c3 D1160000 		.4byte	0x16d1
 7326 16c7 26       		.uleb128 0x26
ARM GAS  C:\Users\Phuong\AppData\Local\Temp\ccINfzqY.s 			page 149


 7327 16c8 01       		.uleb128 0x1
 7328 16c9 50       		.byte	0x50
 7329 16ca 05       		.uleb128 0x5
 7330 16cb 03       		.byte	0x3
 7331 16cc 54000000 		.4byte	.LC20
 7332 16d0 00       		.byte	0
 7333 16d1 27       		.uleb128 0x27
 7334 16d2 78040000 		.4byte	.LVL357
 7335 16d6 340F0000 		.4byte	0xf34
 7336 16da 26       		.uleb128 0x26
 7337 16db 01       		.uleb128 0x1
 7338 16dc 50       		.byte	0x50
 7339 16dd 03       		.uleb128 0x3
 7340 16de 91       		.byte	0x91
 7341 16df D07C     		.sleb128 -432
 7342 16e1 00       		.byte	0
 7343 16e2 00       		.byte	0
 7344 16e3 14       		.uleb128 0x14
 7345 16e4 2C000000 		.4byte	0x2c
 7346 16e8 F3160000 		.4byte	0x16f3
 7347 16ec 15       		.uleb128 0x15
 7348 16ed DA040000 		.4byte	0x4da
 7349 16f1 3F       		.byte	0x3f
 7350 16f2 00       		.byte	0
 7351 16f3 14       		.uleb128 0x14
 7352 16f4 03170000 		.4byte	0x1703
 7353 16f8 03170000 		.4byte	0x1703
 7354 16fc 15       		.uleb128 0x15
 7355 16fd DA040000 		.4byte	0x4da
 7356 1701 0F       		.byte	0xf
 7357 1702 00       		.byte	0
 7358 1703 0D       		.uleb128 0xd
 7359 1704 FA040000 		.4byte	0x4fa
 7360 1708 23       		.uleb128 0x23
 7361 1709 E7090000 		.4byte	.LASF169
 7362 170d 01       		.byte	0x1
 7363 170e C5       		.byte	0xc5
 7364 170f 19170000 		.4byte	0x1719
 7365 1713 05       		.uleb128 0x5
 7366 1714 03       		.byte	0x3
 7367 1715 00000000 		.4byte	last4
 7368 1719 0D       		.uleb128 0xd
 7369 171a F3160000 		.4byte	0x16f3
 7370 171e 14       		.uleb128 0x14
 7371 171f 2E170000 		.4byte	0x172e
 7372 1723 2E170000 		.4byte	0x172e
 7373 1727 15       		.uleb128 0x15
 7374 1728 DA040000 		.4byte	0x4da
 7375 172c 05       		.byte	0x5
 7376 172d 00       		.byte	0
 7377 172e 0D       		.uleb128 0xd
 7378 172f 73000000 		.4byte	0x73
 7379 1733 30       		.uleb128 0x30
 7380 1734 350B0000 		.4byte	.LASF170
 7381 1738 01       		.byte	0x1
 7382 1739 0802     		.2byte	0x208
 7383 173b 45170000 		.4byte	0x1745
ARM GAS  C:\Users\Phuong\AppData\Local\Temp\ccINfzqY.s 			page 150


 7384 173f 05       		.uleb128 0x5
 7385 1740 03       		.byte	0x3
 7386 1741 80000000 		.4byte	key_index
 7387 1745 0D       		.uleb128 0xd
 7388 1746 1E170000 		.4byte	0x171e
 7389 174a 14       		.uleb128 0x14
 7390 174b 3B060000 		.4byte	0x63b
 7391 174f 60170000 		.4byte	0x1760
 7392 1753 15       		.uleb128 0x15
 7393 1754 DA040000 		.4byte	0x4da
 7394 1758 05       		.byte	0x5
 7395 1759 15       		.uleb128 0x15
 7396 175a DA040000 		.4byte	0x4da
 7397 175e 1F       		.byte	0x1f
 7398 175f 00       		.byte	0
 7399 1760 34       		.uleb128 0x34
 7400 1761 6B657900 		.ascii	"key\000"
 7401 1765 01       		.byte	0x1
 7402 1766 0B02     		.2byte	0x20b
 7403 1768 72170000 		.4byte	0x1772
 7404 176c 05       		.uleb128 0x5
 7405 176d 03       		.byte	0x3
 7406 176e 98000000 		.4byte	key
 7407 1772 0D       		.uleb128 0xd
 7408 1773 4A170000 		.4byte	0x174a
 7409 1777 14       		.uleb128 0x14
 7410 1778 87170000 		.4byte	0x1787
 7411 177c 87170000 		.4byte	0x1787
 7412 1780 15       		.uleb128 0x15
 7413 1781 DA040000 		.4byte	0x4da
 7414 1785 05       		.byte	0x5
 7415 1786 00       		.byte	0
 7416 1787 0D       		.uleb128 0xd
 7417 1788 81000000 		.4byte	0x81
 7418 178c 30       		.uleb128 0x30
 7419 178d 3E050000 		.4byte	.LASF146
 7420 1791 01       		.byte	0x1
 7421 1792 1702     		.2byte	0x217
 7422 1794 9E170000 		.4byte	0x179e
 7423 1798 05       		.uleb128 0x5
 7424 1799 03       		.byte	0x3
 7425 179a 08030000 		.4byte	iv_len
 7426 179e 0D       		.uleb128 0xd
 7427 179f 77170000 		.4byte	0x1777
 7428 17a3 30       		.uleb128 0x30
 7429 17a4 4F020000 		.4byte	.LASF171
 7430 17a8 01       		.byte	0x1
 7431 17a9 1A02     		.2byte	0x21a
 7432 17ab B5170000 		.4byte	0x17b5
 7433 17af 05       		.uleb128 0x5
 7434 17b0 03       		.byte	0x3
 7435 17b1 70010000 		.4byte	iv_index
 7436 17b5 0D       		.uleb128 0xd
 7437 17b6 1E170000 		.4byte	0x171e
 7438 17ba 14       		.uleb128 0x14
 7439 17bb 3B060000 		.4byte	0x63b
 7440 17bf D0170000 		.4byte	0x17d0
ARM GAS  C:\Users\Phuong\AppData\Local\Temp\ccINfzqY.s 			page 151


 7441 17c3 15       		.uleb128 0x15
 7442 17c4 DA040000 		.4byte	0x4da
 7443 17c8 05       		.byte	0x5
 7444 17c9 15       		.uleb128 0x15
 7445 17ca DA040000 		.4byte	0x4da
 7446 17ce 3F       		.byte	0x3f
 7447 17cf 00       		.byte	0
 7448 17d0 34       		.uleb128 0x34
 7449 17d1 697600   		.ascii	"iv\000"
 7450 17d4 01       		.byte	0x1
 7451 17d5 1D02     		.2byte	0x21d
 7452 17d7 E1170000 		.4byte	0x17e1
 7453 17db 05       		.uleb128 0x5
 7454 17dc 03       		.byte	0x3
 7455 17dd 88010000 		.4byte	iv
 7456 17e1 0D       		.uleb128 0xd
 7457 17e2 BA170000 		.4byte	0x17ba
 7458 17e6 30       		.uleb128 0x30
 7459 17e7 B70B0000 		.4byte	.LASF138
 7460 17eb 01       		.byte	0x1
 7461 17ec 2D02     		.2byte	0x22d
 7462 17ee F8170000 		.4byte	0x17f8
 7463 17f2 05       		.uleb128 0x5
 7464 17f3 03       		.byte	0x3
 7465 17f4 B8040000 		.4byte	add_len
 7466 17f8 0D       		.uleb128 0xd
 7467 17f9 77170000 		.4byte	0x1777
 7468 17fd 30       		.uleb128 0x30
 7469 17fe 150D0000 		.4byte	.LASF172
 7470 1802 01       		.byte	0x1
 7471 1803 3002     		.2byte	0x230
 7472 1805 0F180000 		.4byte	0x180f
 7473 1809 05       		.uleb128 0x5
 7474 180a 03       		.byte	0x3
 7475 180b 20030000 		.4byte	add_index
 7476 180f 0D       		.uleb128 0xd
 7477 1810 1E170000 		.4byte	0x171e
 7478 1814 30       		.uleb128 0x30
 7479 1815 ED090000 		.4byte	.LASF173
 7480 1819 01       		.byte	0x1
 7481 181a 3302     		.2byte	0x233
 7482 181c 26180000 		.4byte	0x1826
 7483 1820 05       		.uleb128 0x5
 7484 1821 03       		.byte	0x3
 7485 1822 38030000 		.4byte	additional
 7486 1826 0D       		.uleb128 0xd
 7487 1827 BA170000 		.4byte	0x17ba
 7488 182b 30       		.uleb128 0x30
 7489 182c E5030000 		.4byte	.LASF174
 7490 1830 01       		.byte	0x1
 7491 1831 3B02     		.2byte	0x23b
 7492 1833 3D180000 		.4byte	0x183d
 7493 1837 05       		.uleb128 0x5
 7494 1838 03       		.byte	0x3
 7495 1839 58010000 		.4byte	pt_len
 7496 183d 0D       		.uleb128 0xd
 7497 183e 77170000 		.4byte	0x1777
ARM GAS  C:\Users\Phuong\AppData\Local\Temp\ccINfzqY.s 			page 152


 7498 1842 30       		.uleb128 0x30
 7499 1843 8D0A0000 		.4byte	.LASF175
 7500 1847 01       		.byte	0x1
 7501 1848 3E02     		.2byte	0x23e
 7502 184a 54180000 		.4byte	0x1854
 7503 184e 05       		.uleb128 0x5
 7504 184f 03       		.byte	0x3
 7505 1850 D0040000 		.4byte	pt_index
 7506 1854 0D       		.uleb128 0xd
 7507 1855 1E170000 		.4byte	0x171e
 7508 1859 34       		.uleb128 0x34
 7509 185a 707400   		.ascii	"pt\000"
 7510 185d 01       		.byte	0x1
 7511 185e 4102     		.2byte	0x241
 7512 1860 6A180000 		.4byte	0x186a
 7513 1864 05       		.uleb128 0x5
 7514 1865 03       		.byte	0x3
 7515 1866 E8040000 		.4byte	pt
 7516 186a 0D       		.uleb128 0xd
 7517 186b BA170000 		.4byte	0x17ba
 7518 186f 14       		.uleb128 0x14
 7519 1870 3B060000 		.4byte	0x63b
 7520 1874 85180000 		.4byte	0x1885
 7521 1878 15       		.uleb128 0x15
 7522 1879 DA040000 		.4byte	0x4da
 7523 187d 11       		.byte	0x11
 7524 187e 15       		.uleb128 0x15
 7525 187f DA040000 		.4byte	0x4da
 7526 1883 3F       		.byte	0x3f
 7527 1884 00       		.byte	0
 7528 1885 34       		.uleb128 0x34
 7529 1886 637400   		.ascii	"ct\000"
 7530 1889 01       		.byte	0x1
 7531 188a 4F02     		.2byte	0x24f
 7532 188c 96180000 		.4byte	0x1896
 7533 1890 05       		.uleb128 0x5
 7534 1891 03       		.byte	0x3
 7535 1892 68060000 		.4byte	ct
 7536 1896 0D       		.uleb128 0xd
 7537 1897 6F180000 		.4byte	0x186f
 7538 189b 14       		.uleb128 0x14
 7539 189c 3B060000 		.4byte	0x63b
 7540 18a0 B1180000 		.4byte	0x18b1
 7541 18a4 15       		.uleb128 0x15
 7542 18a5 DA040000 		.4byte	0x4da
 7543 18a9 11       		.byte	0x11
 7544 18aa 15       		.uleb128 0x15
 7545 18ab DA040000 		.4byte	0x4da
 7546 18af 0F       		.byte	0xf
 7547 18b0 00       		.byte	0
 7548 18b1 34       		.uleb128 0x34
 7549 18b2 74616700 		.ascii	"tag\000"
 7550 18b6 01       		.byte	0x1
 7551 18b7 BC02     		.2byte	0x2bc
 7552 18b9 C3180000 		.4byte	0x18c3
 7553 18bd 05       		.uleb128 0x5
 7554 18be 03       		.byte	0x3
ARM GAS  C:\Users\Phuong\AppData\Local\Temp\ccINfzqY.s 			page 153


 7555 18bf E80A0000 		.4byte	tag
 7556 18c3 0D       		.uleb128 0xd
 7557 18c4 9B180000 		.4byte	0x189b
 7558 18c8 38       		.uleb128 0x38
 7559 18c9 C4090000 		.4byte	.LASF181
 7560 18cd C4090000 		.4byte	.LASF181
 7561 18d1 39       		.uleb128 0x39
 7562 18d2 BC080000 		.4byte	.LASF176
 7563 18d6 BC080000 		.4byte	.LASF176
 7564 18da 04       		.byte	0x4
 7565 18db 8402     		.2byte	0x284
 7566 18dd 39       		.uleb128 0x39
 7567 18de DF050000 		.4byte	.LASF177
 7568 18e2 DF050000 		.4byte	.LASF177
 7569 18e6 04       		.byte	0x4
 7570 18e7 7301     		.2byte	0x173
 7571 18e9 39       		.uleb128 0x39
 7572 18ea CC070000 		.4byte	.LASF178
 7573 18ee CC070000 		.4byte	.LASF178
 7574 18f2 04       		.byte	0x4
 7575 18f3 8101     		.2byte	0x181
 7576 18f5 39       		.uleb128 0x39
 7577 18f6 AD0D0000 		.4byte	.LASF179
 7578 18fa AD0D0000 		.4byte	.LASF179
 7579 18fe 04       		.byte	0x4
 7580 18ff 9601     		.2byte	0x196
 7581 1901 39       		.uleb128 0x39
 7582 1902 CB060000 		.4byte	.LASF180
 7583 1906 CB060000 		.4byte	.LASF180
 7584 190a 04       		.byte	0x4
 7585 190b 2002     		.2byte	0x220
 7586 190d 38       		.uleb128 0x38
 7587 190e 150F0000 		.4byte	.LASF182
 7588 1912 150F0000 		.4byte	.LASF182
 7589 1916 3A       		.uleb128 0x3a
 7590 1917 D70F0000 		.4byte	.LASF183
 7591 191b D70F0000 		.4byte	.LASF183
 7592 191f 07       		.byte	0x7
 7593 1920 42       		.byte	0x42
 7594 1921 3A       		.uleb128 0x3a
 7595 1922 17090000 		.4byte	.LASF184
 7596 1926 17090000 		.4byte	.LASF184
 7597 192a 08       		.byte	0x8
 7598 192b BB       		.byte	0xbb
 7599 192c 3B       		.uleb128 0x3b
 7600 192d 65050000 		.4byte	.LASF186
 7601 1931 60000000 		.4byte	.LASF188
 7602 1935 0A       		.byte	0xa
 7603 1936 00       		.byte	0
 7604 1937 65050000 		.4byte	.LASF186
 7605 193b 3A       		.uleb128 0x3a
 7606 193c 5C0F0000 		.4byte	.LASF185
 7607 1940 5C0F0000 		.4byte	.LASF185
 7608 1944 09       		.byte	0x9
 7609 1945 16       		.byte	0x16
 7610 1946 3B       		.uleb128 0x3b
 7611 1947 A1010000 		.4byte	.LASF187
ARM GAS  C:\Users\Phuong\AppData\Local\Temp\ccINfzqY.s 			page 154


 7612 194b 73070000 		.4byte	.LASF189
 7613 194f 0A       		.byte	0xa
 7614 1950 00       		.byte	0
 7615 1951 A1010000 		.4byte	.LASF187
 7616 1955 00       		.byte	0
 7617              		.section	.debug_abbrev,"",%progbits
 7618              	.Ldebug_abbrev0:
 7619 0000 01       		.uleb128 0x1
 7620 0001 11       		.uleb128 0x11
 7621 0002 01       		.byte	0x1
 7622 0003 25       		.uleb128 0x25
 7623 0004 0E       		.uleb128 0xe
 7624 0005 13       		.uleb128 0x13
 7625 0006 0B       		.uleb128 0xb
 7626 0007 03       		.uleb128 0x3
 7627 0008 0E       		.uleb128 0xe
 7628 0009 1B       		.uleb128 0x1b
 7629 000a 0E       		.uleb128 0xe
 7630 000b 55       		.uleb128 0x55
 7631 000c 17       		.uleb128 0x17
 7632 000d 11       		.uleb128 0x11
 7633 000e 01       		.uleb128 0x1
 7634 000f 10       		.uleb128 0x10
 7635 0010 17       		.uleb128 0x17
 7636 0011 00       		.byte	0
 7637 0012 00       		.byte	0
 7638 0013 02       		.uleb128 0x2
 7639 0014 24       		.uleb128 0x24
 7640 0015 00       		.byte	0
 7641 0016 0B       		.uleb128 0xb
 7642 0017 0B       		.uleb128 0xb
 7643 0018 3E       		.uleb128 0x3e
 7644 0019 0B       		.uleb128 0xb
 7645 001a 03       		.uleb128 0x3
 7646 001b 0E       		.uleb128 0xe
 7647 001c 00       		.byte	0
 7648 001d 00       		.byte	0
 7649 001e 03       		.uleb128 0x3
 7650 001f 16       		.uleb128 0x16
 7651 0020 00       		.byte	0
 7652 0021 03       		.uleb128 0x3
 7653 0022 0E       		.uleb128 0xe
 7654 0023 3A       		.uleb128 0x3a
 7655 0024 0B       		.uleb128 0xb
 7656 0025 3B       		.uleb128 0x3b
 7657 0026 0B       		.uleb128 0xb
 7658 0027 49       		.uleb128 0x49
 7659 0028 13       		.uleb128 0x13
 7660 0029 00       		.byte	0
 7661 002a 00       		.byte	0
 7662 002b 04       		.uleb128 0x4
 7663 002c 24       		.uleb128 0x24
 7664 002d 00       		.byte	0
 7665 002e 0B       		.uleb128 0xb
 7666 002f 0B       		.uleb128 0xb
 7667 0030 3E       		.uleb128 0x3e
 7668 0031 0B       		.uleb128 0xb
ARM GAS  C:\Users\Phuong\AppData\Local\Temp\ccINfzqY.s 			page 155


 7669 0032 03       		.uleb128 0x3
 7670 0033 08       		.uleb128 0x8
 7671 0034 00       		.byte	0
 7672 0035 00       		.byte	0
 7673 0036 05       		.uleb128 0x5
 7674 0037 04       		.uleb128 0x4
 7675 0038 01       		.byte	0x1
 7676 0039 0B       		.uleb128 0xb
 7677 003a 0B       		.uleb128 0xb
 7678 003b 49       		.uleb128 0x49
 7679 003c 13       		.uleb128 0x13
 7680 003d 3A       		.uleb128 0x3a
 7681 003e 0B       		.uleb128 0xb
 7682 003f 3B       		.uleb128 0x3b
 7683 0040 0B       		.uleb128 0xb
 7684 0041 01       		.uleb128 0x1
 7685 0042 13       		.uleb128 0x13
 7686 0043 00       		.byte	0
 7687 0044 00       		.byte	0
 7688 0045 06       		.uleb128 0x6
 7689 0046 28       		.uleb128 0x28
 7690 0047 00       		.byte	0
 7691 0048 03       		.uleb128 0x3
 7692 0049 0E       		.uleb128 0xe
 7693 004a 1C       		.uleb128 0x1c
 7694 004b 0B       		.uleb128 0xb
 7695 004c 00       		.byte	0
 7696 004d 00       		.byte	0
 7697 004e 07       		.uleb128 0x7
 7698 004f 28       		.uleb128 0x28
 7699 0050 00       		.byte	0
 7700 0051 03       		.uleb128 0x3
 7701 0052 0E       		.uleb128 0xe
 7702 0053 1C       		.uleb128 0x1c
 7703 0054 0D       		.uleb128 0xd
 7704 0055 00       		.byte	0
 7705 0056 00       		.byte	0
 7706 0057 08       		.uleb128 0x8
 7707 0058 13       		.uleb128 0x13
 7708 0059 00       		.byte	0
 7709 005a 03       		.uleb128 0x3
 7710 005b 0E       		.uleb128 0xe
 7711 005c 3C       		.uleb128 0x3c
 7712 005d 19       		.uleb128 0x19
 7713 005e 00       		.byte	0
 7714 005f 00       		.byte	0
 7715 0060 09       		.uleb128 0x9
 7716 0061 13       		.uleb128 0x13
 7717 0062 01       		.byte	0x1
 7718 0063 03       		.uleb128 0x3
 7719 0064 0E       		.uleb128 0xe
 7720 0065 0B       		.uleb128 0xb
 7721 0066 0B       		.uleb128 0xb
 7722 0067 3A       		.uleb128 0x3a
 7723 0068 0B       		.uleb128 0xb
 7724 0069 3B       		.uleb128 0x3b
 7725 006a 0B       		.uleb128 0xb
ARM GAS  C:\Users\Phuong\AppData\Local\Temp\ccINfzqY.s 			page 156


 7726 006b 01       		.uleb128 0x1
 7727 006c 13       		.uleb128 0x13
 7728 006d 00       		.byte	0
 7729 006e 00       		.byte	0
 7730 006f 0A       		.uleb128 0xa
 7731 0070 0D       		.uleb128 0xd
 7732 0071 00       		.byte	0
 7733 0072 03       		.uleb128 0x3
 7734 0073 0E       		.uleb128 0xe
 7735 0074 3A       		.uleb128 0x3a
 7736 0075 0B       		.uleb128 0xb
 7737 0076 3B       		.uleb128 0x3b
 7738 0077 0B       		.uleb128 0xb
 7739 0078 49       		.uleb128 0x49
 7740 0079 13       		.uleb128 0x13
 7741 007a 38       		.uleb128 0x38
 7742 007b 0B       		.uleb128 0xb
 7743 007c 00       		.byte	0
 7744 007d 00       		.byte	0
 7745 007e 0B       		.uleb128 0xb
 7746 007f 0D       		.uleb128 0xd
 7747 0080 00       		.byte	0
 7748 0081 03       		.uleb128 0x3
 7749 0082 0E       		.uleb128 0xe
 7750 0083 3A       		.uleb128 0x3a
 7751 0084 0B       		.uleb128 0xb
 7752 0085 3B       		.uleb128 0x3b
 7753 0086 05       		.uleb128 0x5
 7754 0087 49       		.uleb128 0x49
 7755 0088 13       		.uleb128 0x13
 7756 0089 38       		.uleb128 0x38
 7757 008a 0B       		.uleb128 0xb
 7758 008b 00       		.byte	0
 7759 008c 00       		.byte	0
 7760 008d 0C       		.uleb128 0xc
 7761 008e 0F       		.uleb128 0xf
 7762 008f 00       		.byte	0
 7763 0090 0B       		.uleb128 0xb
 7764 0091 0B       		.uleb128 0xb
 7765 0092 49       		.uleb128 0x49
 7766 0093 13       		.uleb128 0x13
 7767 0094 00       		.byte	0
 7768 0095 00       		.byte	0
 7769 0096 0D       		.uleb128 0xd
 7770 0097 26       		.uleb128 0x26
 7771 0098 00       		.byte	0
 7772 0099 49       		.uleb128 0x49
 7773 009a 13       		.uleb128 0x13
 7774 009b 00       		.byte	0
 7775 009c 00       		.byte	0
 7776 009d 0E       		.uleb128 0xe
 7777 009e 16       		.uleb128 0x16
 7778 009f 00       		.byte	0
 7779 00a0 03       		.uleb128 0x3
 7780 00a1 0E       		.uleb128 0xe
 7781 00a2 3A       		.uleb128 0x3a
 7782 00a3 0B       		.uleb128 0xb
ARM GAS  C:\Users\Phuong\AppData\Local\Temp\ccINfzqY.s 			page 157


 7783 00a4 3B       		.uleb128 0x3b
 7784 00a5 05       		.uleb128 0x5
 7785 00a6 49       		.uleb128 0x49
 7786 00a7 13       		.uleb128 0x13
 7787 00a8 00       		.byte	0
 7788 00a9 00       		.byte	0
 7789 00aa 0F       		.uleb128 0xf
 7790 00ab 13       		.uleb128 0x13
 7791 00ac 01       		.byte	0x1
 7792 00ad 03       		.uleb128 0x3
 7793 00ae 0E       		.uleb128 0xe
 7794 00af 0B       		.uleb128 0xb
 7795 00b0 0B       		.uleb128 0xb
 7796 00b1 3A       		.uleb128 0x3a
 7797 00b2 0B       		.uleb128 0xb
 7798 00b3 3B       		.uleb128 0x3b
 7799 00b4 05       		.uleb128 0x5
 7800 00b5 01       		.uleb128 0x1
 7801 00b6 13       		.uleb128 0x13
 7802 00b7 00       		.byte	0
 7803 00b8 00       		.byte	0
 7804 00b9 10       		.uleb128 0x10
 7805 00ba 0D       		.uleb128 0xd
 7806 00bb 00       		.byte	0
 7807 00bc 03       		.uleb128 0x3
 7808 00bd 08       		.uleb128 0x8
 7809 00be 3A       		.uleb128 0x3a
 7810 00bf 0B       		.uleb128 0xb
 7811 00c0 3B       		.uleb128 0x3b
 7812 00c1 05       		.uleb128 0x5
 7813 00c2 49       		.uleb128 0x49
 7814 00c3 13       		.uleb128 0x13
 7815 00c4 38       		.uleb128 0x38
 7816 00c5 0B       		.uleb128 0xb
 7817 00c6 00       		.byte	0
 7818 00c7 00       		.byte	0
 7819 00c8 11       		.uleb128 0x11
 7820 00c9 15       		.uleb128 0x15
 7821 00ca 01       		.byte	0x1
 7822 00cb 27       		.uleb128 0x27
 7823 00cc 19       		.uleb128 0x19
 7824 00cd 01       		.uleb128 0x1
 7825 00ce 13       		.uleb128 0x13
 7826 00cf 00       		.byte	0
 7827 00d0 00       		.byte	0
 7828 00d1 12       		.uleb128 0x12
 7829 00d2 05       		.uleb128 0x5
 7830 00d3 00       		.byte	0
 7831 00d4 49       		.uleb128 0x49
 7832 00d5 13       		.uleb128 0x13
 7833 00d6 00       		.byte	0
 7834 00d7 00       		.byte	0
 7835 00d8 13       		.uleb128 0x13
 7836 00d9 15       		.uleb128 0x15
 7837 00da 01       		.byte	0x1
 7838 00db 27       		.uleb128 0x27
 7839 00dc 19       		.uleb128 0x19
ARM GAS  C:\Users\Phuong\AppData\Local\Temp\ccINfzqY.s 			page 158


 7840 00dd 49       		.uleb128 0x49
 7841 00de 13       		.uleb128 0x13
 7842 00df 01       		.uleb128 0x1
 7843 00e0 13       		.uleb128 0x13
 7844 00e1 00       		.byte	0
 7845 00e2 00       		.byte	0
 7846 00e3 14       		.uleb128 0x14
 7847 00e4 01       		.uleb128 0x1
 7848 00e5 01       		.byte	0x1
 7849 00e6 49       		.uleb128 0x49
 7850 00e7 13       		.uleb128 0x13
 7851 00e8 01       		.uleb128 0x1
 7852 00e9 13       		.uleb128 0x13
 7853 00ea 00       		.byte	0
 7854 00eb 00       		.byte	0
 7855 00ec 15       		.uleb128 0x15
 7856 00ed 21       		.uleb128 0x21
 7857 00ee 00       		.byte	0
 7858 00ef 49       		.uleb128 0x49
 7859 00f0 13       		.uleb128 0x13
 7860 00f1 2F       		.uleb128 0x2f
 7861 00f2 0B       		.uleb128 0xb
 7862 00f3 00       		.byte	0
 7863 00f4 00       		.byte	0
 7864 00f5 16       		.uleb128 0x16
 7865 00f6 0F       		.uleb128 0xf
 7866 00f7 00       		.byte	0
 7867 00f8 0B       		.uleb128 0xb
 7868 00f9 0B       		.uleb128 0xb
 7869 00fa 00       		.byte	0
 7870 00fb 00       		.byte	0
 7871 00fc 17       		.uleb128 0x17
 7872 00fd 13       		.uleb128 0x13
 7873 00fe 01       		.byte	0x1
 7874 00ff 03       		.uleb128 0x3
 7875 0100 0E       		.uleb128 0xe
 7876 0101 0B       		.uleb128 0xb
 7877 0102 05       		.uleb128 0x5
 7878 0103 3A       		.uleb128 0x3a
 7879 0104 0B       		.uleb128 0xb
 7880 0105 3B       		.uleb128 0x3b
 7881 0106 0B       		.uleb128 0xb
 7882 0107 01       		.uleb128 0x1
 7883 0108 13       		.uleb128 0x13
 7884 0109 00       		.byte	0
 7885 010a 00       		.byte	0
 7886 010b 18       		.uleb128 0x18
 7887 010c 0D       		.uleb128 0xd
 7888 010d 00       		.byte	0
 7889 010e 03       		.uleb128 0x3
 7890 010f 08       		.uleb128 0x8
 7891 0110 3A       		.uleb128 0x3a
 7892 0111 0B       		.uleb128 0xb
 7893 0112 3B       		.uleb128 0x3b
 7894 0113 0B       		.uleb128 0xb
 7895 0114 49       		.uleb128 0x49
 7896 0115 13       		.uleb128 0x13
ARM GAS  C:\Users\Phuong\AppData\Local\Temp\ccINfzqY.s 			page 159


 7897 0116 38       		.uleb128 0x38
 7898 0117 0B       		.uleb128 0xb
 7899 0118 00       		.byte	0
 7900 0119 00       		.byte	0
 7901 011a 19       		.uleb128 0x19
 7902 011b 0D       		.uleb128 0xd
 7903 011c 00       		.byte	0
 7904 011d 03       		.uleb128 0x3
 7905 011e 08       		.uleb128 0x8
 7906 011f 3A       		.uleb128 0x3a
 7907 0120 0B       		.uleb128 0xb
 7908 0121 3B       		.uleb128 0x3b
 7909 0122 0B       		.uleb128 0xb
 7910 0123 49       		.uleb128 0x49
 7911 0124 13       		.uleb128 0x13
 7912 0125 38       		.uleb128 0x38
 7913 0126 05       		.uleb128 0x5
 7914 0127 00       		.byte	0
 7915 0128 00       		.byte	0
 7916 0129 1A       		.uleb128 0x1a
 7917 012a 0D       		.uleb128 0xd
 7918 012b 00       		.byte	0
 7919 012c 03       		.uleb128 0x3
 7920 012d 0E       		.uleb128 0xe
 7921 012e 3A       		.uleb128 0x3a
 7922 012f 0B       		.uleb128 0xb
 7923 0130 3B       		.uleb128 0x3b
 7924 0131 0B       		.uleb128 0xb
 7925 0132 49       		.uleb128 0x49
 7926 0133 13       		.uleb128 0x13
 7927 0134 38       		.uleb128 0x38
 7928 0135 05       		.uleb128 0x5
 7929 0136 00       		.byte	0
 7930 0137 00       		.byte	0
 7931 0138 1B       		.uleb128 0x1b
 7932 0139 2E       		.uleb128 0x2e
 7933 013a 01       		.byte	0x1
 7934 013b 03       		.uleb128 0x3
 7935 013c 0E       		.uleb128 0xe
 7936 013d 3A       		.uleb128 0x3a
 7937 013e 0B       		.uleb128 0xb
 7938 013f 3B       		.uleb128 0x3b
 7939 0140 0B       		.uleb128 0xb
 7940 0141 27       		.uleb128 0x27
 7941 0142 19       		.uleb128 0x19
 7942 0143 11       		.uleb128 0x11
 7943 0144 01       		.uleb128 0x1
 7944 0145 12       		.uleb128 0x12
 7945 0146 06       		.uleb128 0x6
 7946 0147 40       		.uleb128 0x40
 7947 0148 18       		.uleb128 0x18
 7948 0149 9742     		.uleb128 0x2117
 7949 014b 19       		.uleb128 0x19
 7950 014c 01       		.uleb128 0x1
 7951 014d 13       		.uleb128 0x13
 7952 014e 00       		.byte	0
 7953 014f 00       		.byte	0
ARM GAS  C:\Users\Phuong\AppData\Local\Temp\ccINfzqY.s 			page 160


 7954 0150 1C       		.uleb128 0x1c
 7955 0151 05       		.uleb128 0x5
 7956 0152 00       		.byte	0
 7957 0153 03       		.uleb128 0x3
 7958 0154 08       		.uleb128 0x8
 7959 0155 3A       		.uleb128 0x3a
 7960 0156 0B       		.uleb128 0xb
 7961 0157 3B       		.uleb128 0x3b
 7962 0158 0B       		.uleb128 0xb
 7963 0159 49       		.uleb128 0x49
 7964 015a 13       		.uleb128 0x13
 7965 015b 02       		.uleb128 0x2
 7966 015c 18       		.uleb128 0x18
 7967 015d 00       		.byte	0
 7968 015e 00       		.byte	0
 7969 015f 1D       		.uleb128 0x1d
 7970 0160 05       		.uleb128 0x5
 7971 0161 00       		.byte	0
 7972 0162 03       		.uleb128 0x3
 7973 0163 08       		.uleb128 0x8
 7974 0164 3A       		.uleb128 0x3a
 7975 0165 0B       		.uleb128 0xb
 7976 0166 3B       		.uleb128 0x3b
 7977 0167 0B       		.uleb128 0xb
 7978 0168 49       		.uleb128 0x49
 7979 0169 13       		.uleb128 0x13
 7980 016a 02       		.uleb128 0x2
 7981 016b 17       		.uleb128 0x17
 7982 016c 00       		.byte	0
 7983 016d 00       		.byte	0
 7984 016e 1E       		.uleb128 0x1e
 7985 016f 05       		.uleb128 0x5
 7986 0170 00       		.byte	0
 7987 0171 03       		.uleb128 0x3
 7988 0172 0E       		.uleb128 0xe
 7989 0173 3A       		.uleb128 0x3a
 7990 0174 0B       		.uleb128 0xb
 7991 0175 3B       		.uleb128 0x3b
 7992 0176 0B       		.uleb128 0xb
 7993 0177 49       		.uleb128 0x49
 7994 0178 13       		.uleb128 0x13
 7995 0179 02       		.uleb128 0x2
 7996 017a 17       		.uleb128 0x17
 7997 017b 00       		.byte	0
 7998 017c 00       		.byte	0
 7999 017d 1F       		.uleb128 0x1f
 8000 017e 34       		.uleb128 0x34
 8001 017f 00       		.byte	0
 8002 0180 03       		.uleb128 0x3
 8003 0181 08       		.uleb128 0x8
 8004 0182 3A       		.uleb128 0x3a
 8005 0183 0B       		.uleb128 0xb
 8006 0184 3B       		.uleb128 0x3b
 8007 0185 0B       		.uleb128 0xb
 8008 0186 49       		.uleb128 0x49
 8009 0187 13       		.uleb128 0x13
 8010 0188 02       		.uleb128 0x2
ARM GAS  C:\Users\Phuong\AppData\Local\Temp\ccINfzqY.s 			page 161


 8011 0189 17       		.uleb128 0x17
 8012 018a 00       		.byte	0
 8013 018b 00       		.byte	0
 8014 018c 20       		.uleb128 0x20
 8015 018d 2E       		.uleb128 0x2e
 8016 018e 01       		.byte	0x1
 8017 018f 03       		.uleb128 0x3
 8018 0190 0E       		.uleb128 0xe
 8019 0191 3A       		.uleb128 0x3a
 8020 0192 0B       		.uleb128 0xb
 8021 0193 3B       		.uleb128 0x3b
 8022 0194 0B       		.uleb128 0xb
 8023 0195 27       		.uleb128 0x27
 8024 0196 19       		.uleb128 0x19
 8025 0197 49       		.uleb128 0x49
 8026 0198 13       		.uleb128 0x13
 8027 0199 11       		.uleb128 0x11
 8028 019a 01       		.uleb128 0x1
 8029 019b 12       		.uleb128 0x12
 8030 019c 06       		.uleb128 0x6
 8031 019d 40       		.uleb128 0x40
 8032 019e 18       		.uleb128 0x18
 8033 019f 9742     		.uleb128 0x2117
 8034 01a1 19       		.uleb128 0x19
 8035 01a2 01       		.uleb128 0x1
 8036 01a3 13       		.uleb128 0x13
 8037 01a4 00       		.byte	0
 8038 01a5 00       		.byte	0
 8039 01a6 21       		.uleb128 0x21
 8040 01a7 34       		.uleb128 0x34
 8041 01a8 00       		.byte	0
 8042 01a9 03       		.uleb128 0x3
 8043 01aa 08       		.uleb128 0x8
 8044 01ab 3A       		.uleb128 0x3a
 8045 01ac 0B       		.uleb128 0xb
 8046 01ad 3B       		.uleb128 0x3b
 8047 01ae 0B       		.uleb128 0xb
 8048 01af 49       		.uleb128 0x49
 8049 01b0 13       		.uleb128 0x13
 8050 01b1 00       		.byte	0
 8051 01b2 00       		.byte	0
 8052 01b3 22       		.uleb128 0x22
 8053 01b4 34       		.uleb128 0x34
 8054 01b5 00       		.byte	0
 8055 01b6 03       		.uleb128 0x3
 8056 01b7 08       		.uleb128 0x8
 8057 01b8 3A       		.uleb128 0x3a
 8058 01b9 0B       		.uleb128 0xb
 8059 01ba 3B       		.uleb128 0x3b
 8060 01bb 0B       		.uleb128 0xb
 8061 01bc 49       		.uleb128 0x49
 8062 01bd 13       		.uleb128 0x13
 8063 01be 02       		.uleb128 0x2
 8064 01bf 18       		.uleb128 0x18
 8065 01c0 00       		.byte	0
 8066 01c1 00       		.byte	0
 8067 01c2 23       		.uleb128 0x23
ARM GAS  C:\Users\Phuong\AppData\Local\Temp\ccINfzqY.s 			page 162


 8068 01c3 34       		.uleb128 0x34
 8069 01c4 00       		.byte	0
 8070 01c5 03       		.uleb128 0x3
 8071 01c6 0E       		.uleb128 0xe
 8072 01c7 3A       		.uleb128 0x3a
 8073 01c8 0B       		.uleb128 0xb
 8074 01c9 3B       		.uleb128 0x3b
 8075 01ca 0B       		.uleb128 0xb
 8076 01cb 49       		.uleb128 0x49
 8077 01cc 13       		.uleb128 0x13
 8078 01cd 02       		.uleb128 0x2
 8079 01ce 18       		.uleb128 0x18
 8080 01cf 00       		.byte	0
 8081 01d0 00       		.byte	0
 8082 01d1 24       		.uleb128 0x24
 8083 01d2 0B       		.uleb128 0xb
 8084 01d3 01       		.byte	0x1
 8085 01d4 11       		.uleb128 0x11
 8086 01d5 01       		.uleb128 0x1
 8087 01d6 12       		.uleb128 0x12
 8088 01d7 06       		.uleb128 0x6
 8089 01d8 01       		.uleb128 0x1
 8090 01d9 13       		.uleb128 0x13
 8091 01da 00       		.byte	0
 8092 01db 00       		.byte	0
 8093 01dc 25       		.uleb128 0x25
 8094 01dd 898201   		.uleb128 0x4109
 8095 01e0 01       		.byte	0x1
 8096 01e1 11       		.uleb128 0x11
 8097 01e2 01       		.uleb128 0x1
 8098 01e3 31       		.uleb128 0x31
 8099 01e4 13       		.uleb128 0x13
 8100 01e5 01       		.uleb128 0x1
 8101 01e6 13       		.uleb128 0x13
 8102 01e7 00       		.byte	0
 8103 01e8 00       		.byte	0
 8104 01e9 26       		.uleb128 0x26
 8105 01ea 8A8201   		.uleb128 0x410a
 8106 01ed 00       		.byte	0
 8107 01ee 02       		.uleb128 0x2
 8108 01ef 18       		.uleb128 0x18
 8109 01f0 9142     		.uleb128 0x2111
 8110 01f2 18       		.uleb128 0x18
 8111 01f3 00       		.byte	0
 8112 01f4 00       		.byte	0
 8113 01f5 27       		.uleb128 0x27
 8114 01f6 898201   		.uleb128 0x4109
 8115 01f9 01       		.byte	0x1
 8116 01fa 11       		.uleb128 0x11
 8117 01fb 01       		.uleb128 0x1
 8118 01fc 31       		.uleb128 0x31
 8119 01fd 13       		.uleb128 0x13
 8120 01fe 00       		.byte	0
 8121 01ff 00       		.byte	0
 8122 0200 28       		.uleb128 0x28
 8123 0201 2E       		.uleb128 0x2e
 8124 0202 01       		.byte	0x1
ARM GAS  C:\Users\Phuong\AppData\Local\Temp\ccINfzqY.s 			page 163


 8125 0203 3F       		.uleb128 0x3f
 8126 0204 19       		.uleb128 0x19
 8127 0205 03       		.uleb128 0x3
 8128 0206 0E       		.uleb128 0xe
 8129 0207 3A       		.uleb128 0x3a
 8130 0208 0B       		.uleb128 0xb
 8131 0209 3B       		.uleb128 0x3b
 8132 020a 0B       		.uleb128 0xb
 8133 020b 27       		.uleb128 0x27
 8134 020c 19       		.uleb128 0x19
 8135 020d 11       		.uleb128 0x11
 8136 020e 01       		.uleb128 0x1
 8137 020f 12       		.uleb128 0x12
 8138 0210 06       		.uleb128 0x6
 8139 0211 40       		.uleb128 0x40
 8140 0212 18       		.uleb128 0x18
 8141 0213 9742     		.uleb128 0x2117
 8142 0215 19       		.uleb128 0x19
 8143 0216 01       		.uleb128 0x1
 8144 0217 13       		.uleb128 0x13
 8145 0218 00       		.byte	0
 8146 0219 00       		.byte	0
 8147 021a 29       		.uleb128 0x29
 8148 021b 2E       		.uleb128 0x2e
 8149 021c 01       		.byte	0x1
 8150 021d 3F       		.uleb128 0x3f
 8151 021e 19       		.uleb128 0x19
 8152 021f 03       		.uleb128 0x3
 8153 0220 0E       		.uleb128 0xe
 8154 0221 3A       		.uleb128 0x3a
 8155 0222 0B       		.uleb128 0xb
 8156 0223 3B       		.uleb128 0x3b
 8157 0224 0B       		.uleb128 0xb
 8158 0225 27       		.uleb128 0x27
 8159 0226 19       		.uleb128 0x19
 8160 0227 49       		.uleb128 0x49
 8161 0228 13       		.uleb128 0x13
 8162 0229 11       		.uleb128 0x11
 8163 022a 01       		.uleb128 0x1
 8164 022b 12       		.uleb128 0x12
 8165 022c 06       		.uleb128 0x6
 8166 022d 40       		.uleb128 0x40
 8167 022e 18       		.uleb128 0x18
 8168 022f 9742     		.uleb128 0x2117
 8169 0231 19       		.uleb128 0x19
 8170 0232 01       		.uleb128 0x1
 8171 0233 13       		.uleb128 0x13
 8172 0234 00       		.byte	0
 8173 0235 00       		.byte	0
 8174 0236 2A       		.uleb128 0x2a
 8175 0237 34       		.uleb128 0x34
 8176 0238 00       		.byte	0
 8177 0239 03       		.uleb128 0x3
 8178 023a 0E       		.uleb128 0xe
 8179 023b 3A       		.uleb128 0x3a
 8180 023c 0B       		.uleb128 0xb
 8181 023d 3B       		.uleb128 0x3b
ARM GAS  C:\Users\Phuong\AppData\Local\Temp\ccINfzqY.s 			page 164


 8182 023e 0B       		.uleb128 0xb
 8183 023f 49       		.uleb128 0x49
 8184 0240 13       		.uleb128 0x13
 8185 0241 02       		.uleb128 0x2
 8186 0242 17       		.uleb128 0x17
 8187 0243 00       		.byte	0
 8188 0244 00       		.byte	0
 8189 0245 2B       		.uleb128 0x2b
 8190 0246 2E       		.uleb128 0x2e
 8191 0247 01       		.byte	0x1
 8192 0248 3F       		.uleb128 0x3f
 8193 0249 19       		.uleb128 0x19
 8194 024a 03       		.uleb128 0x3
 8195 024b 0E       		.uleb128 0xe
 8196 024c 3A       		.uleb128 0x3a
 8197 024d 0B       		.uleb128 0xb
 8198 024e 3B       		.uleb128 0x3b
 8199 024f 05       		.uleb128 0x5
 8200 0250 27       		.uleb128 0x27
 8201 0251 19       		.uleb128 0x19
 8202 0252 49       		.uleb128 0x49
 8203 0253 13       		.uleb128 0x13
 8204 0254 11       		.uleb128 0x11
 8205 0255 01       		.uleb128 0x1
 8206 0256 12       		.uleb128 0x12
 8207 0257 06       		.uleb128 0x6
 8208 0258 40       		.uleb128 0x40
 8209 0259 18       		.uleb128 0x18
 8210 025a 9742     		.uleb128 0x2117
 8211 025c 19       		.uleb128 0x19
 8212 025d 01       		.uleb128 0x1
 8213 025e 13       		.uleb128 0x13
 8214 025f 00       		.byte	0
 8215 0260 00       		.byte	0
 8216 0261 2C       		.uleb128 0x2c
 8217 0262 05       		.uleb128 0x5
 8218 0263 00       		.byte	0
 8219 0264 03       		.uleb128 0x3
 8220 0265 08       		.uleb128 0x8
 8221 0266 3A       		.uleb128 0x3a
 8222 0267 0B       		.uleb128 0xb
 8223 0268 3B       		.uleb128 0x3b
 8224 0269 05       		.uleb128 0x5
 8225 026a 49       		.uleb128 0x49
 8226 026b 13       		.uleb128 0x13
 8227 026c 02       		.uleb128 0x2
 8228 026d 17       		.uleb128 0x17
 8229 026e 00       		.byte	0
 8230 026f 00       		.byte	0
 8231 0270 2D       		.uleb128 0x2d
 8232 0271 05       		.uleb128 0x5
 8233 0272 00       		.byte	0
 8234 0273 03       		.uleb128 0x3
 8235 0274 0E       		.uleb128 0xe
 8236 0275 3A       		.uleb128 0x3a
 8237 0276 0B       		.uleb128 0xb
 8238 0277 3B       		.uleb128 0x3b
ARM GAS  C:\Users\Phuong\AppData\Local\Temp\ccINfzqY.s 			page 165


 8239 0278 05       		.uleb128 0x5
 8240 0279 49       		.uleb128 0x49
 8241 027a 13       		.uleb128 0x13
 8242 027b 02       		.uleb128 0x2
 8243 027c 17       		.uleb128 0x17
 8244 027d 00       		.byte	0
 8245 027e 00       		.byte	0
 8246 027f 2E       		.uleb128 0x2e
 8247 0280 05       		.uleb128 0x5
 8248 0281 00       		.byte	0
 8249 0282 03       		.uleb128 0x3
 8250 0283 08       		.uleb128 0x8
 8251 0284 3A       		.uleb128 0x3a
 8252 0285 0B       		.uleb128 0xb
 8253 0286 3B       		.uleb128 0x3b
 8254 0287 05       		.uleb128 0x5
 8255 0288 49       		.uleb128 0x49
 8256 0289 13       		.uleb128 0x13
 8257 028a 02       		.uleb128 0x2
 8258 028b 18       		.uleb128 0x18
 8259 028c 00       		.byte	0
 8260 028d 00       		.byte	0
 8261 028e 2F       		.uleb128 0x2f
 8262 028f 34       		.uleb128 0x34
 8263 0290 00       		.byte	0
 8264 0291 03       		.uleb128 0x3
 8265 0292 08       		.uleb128 0x8
 8266 0293 3A       		.uleb128 0x3a
 8267 0294 0B       		.uleb128 0xb
 8268 0295 3B       		.uleb128 0x3b
 8269 0296 05       		.uleb128 0x5
 8270 0297 49       		.uleb128 0x49
 8271 0298 13       		.uleb128 0x13
 8272 0299 02       		.uleb128 0x2
 8273 029a 17       		.uleb128 0x17
 8274 029b 00       		.byte	0
 8275 029c 00       		.byte	0
 8276 029d 30       		.uleb128 0x30
 8277 029e 34       		.uleb128 0x34
 8278 029f 00       		.byte	0
 8279 02a0 03       		.uleb128 0x3
 8280 02a1 0E       		.uleb128 0xe
 8281 02a2 3A       		.uleb128 0x3a
 8282 02a3 0B       		.uleb128 0xb
 8283 02a4 3B       		.uleb128 0x3b
 8284 02a5 05       		.uleb128 0x5
 8285 02a6 49       		.uleb128 0x49
 8286 02a7 13       		.uleb128 0x13
 8287 02a8 02       		.uleb128 0x2
 8288 02a9 18       		.uleb128 0x18
 8289 02aa 00       		.byte	0
 8290 02ab 00       		.byte	0
 8291 02ac 31       		.uleb128 0x31
 8292 02ad 34       		.uleb128 0x34
 8293 02ae 00       		.byte	0
 8294 02af 03       		.uleb128 0x3
 8295 02b0 0E       		.uleb128 0xe
ARM GAS  C:\Users\Phuong\AppData\Local\Temp\ccINfzqY.s 			page 166


 8296 02b1 3A       		.uleb128 0x3a
 8297 02b2 0B       		.uleb128 0xb
 8298 02b3 3B       		.uleb128 0x3b
 8299 02b4 05       		.uleb128 0x5
 8300 02b5 49       		.uleb128 0x49
 8301 02b6 13       		.uleb128 0x13
 8302 02b7 02       		.uleb128 0x2
 8303 02b8 17       		.uleb128 0x17
 8304 02b9 00       		.byte	0
 8305 02ba 00       		.byte	0
 8306 02bb 32       		.uleb128 0x32
 8307 02bc 05       		.uleb128 0x5
 8308 02bd 00       		.byte	0
 8309 02be 03       		.uleb128 0x3
 8310 02bf 0E       		.uleb128 0xe
 8311 02c0 3A       		.uleb128 0x3a
 8312 02c1 0B       		.uleb128 0xb
 8313 02c2 3B       		.uleb128 0x3b
 8314 02c3 05       		.uleb128 0x5
 8315 02c4 49       		.uleb128 0x49
 8316 02c5 13       		.uleb128 0x13
 8317 02c6 02       		.uleb128 0x2
 8318 02c7 18       		.uleb128 0x18
 8319 02c8 00       		.byte	0
 8320 02c9 00       		.byte	0
 8321 02ca 33       		.uleb128 0x33
 8322 02cb 2E       		.uleb128 0x2e
 8323 02cc 01       		.byte	0x1
 8324 02cd 3F       		.uleb128 0x3f
 8325 02ce 19       		.uleb128 0x19
 8326 02cf 03       		.uleb128 0x3
 8327 02d0 0E       		.uleb128 0xe
 8328 02d1 3A       		.uleb128 0x3a
 8329 02d2 0B       		.uleb128 0xb
 8330 02d3 3B       		.uleb128 0x3b
 8331 02d4 05       		.uleb128 0x5
 8332 02d5 27       		.uleb128 0x27
 8333 02d6 19       		.uleb128 0x19
 8334 02d7 11       		.uleb128 0x11
 8335 02d8 01       		.uleb128 0x1
 8336 02d9 12       		.uleb128 0x12
 8337 02da 06       		.uleb128 0x6
 8338 02db 40       		.uleb128 0x40
 8339 02dc 18       		.uleb128 0x18
 8340 02dd 9742     		.uleb128 0x2117
 8341 02df 19       		.uleb128 0x19
 8342 02e0 01       		.uleb128 0x1
 8343 02e1 13       		.uleb128 0x13
 8344 02e2 00       		.byte	0
 8345 02e3 00       		.byte	0
 8346 02e4 34       		.uleb128 0x34
 8347 02e5 34       		.uleb128 0x34
 8348 02e6 00       		.byte	0
 8349 02e7 03       		.uleb128 0x3
 8350 02e8 08       		.uleb128 0x8
 8351 02e9 3A       		.uleb128 0x3a
 8352 02ea 0B       		.uleb128 0xb
ARM GAS  C:\Users\Phuong\AppData\Local\Temp\ccINfzqY.s 			page 167


 8353 02eb 3B       		.uleb128 0x3b
 8354 02ec 05       		.uleb128 0x5
 8355 02ed 49       		.uleb128 0x49
 8356 02ee 13       		.uleb128 0x13
 8357 02ef 02       		.uleb128 0x2
 8358 02f0 18       		.uleb128 0x18
 8359 02f1 00       		.byte	0
 8360 02f2 00       		.byte	0
 8361 02f3 35       		.uleb128 0x35
 8362 02f4 34       		.uleb128 0x34
 8363 02f5 00       		.byte	0
 8364 02f6 03       		.uleb128 0x3
 8365 02f7 0E       		.uleb128 0xe
 8366 02f8 3A       		.uleb128 0x3a
 8367 02f9 0B       		.uleb128 0xb
 8368 02fa 3B       		.uleb128 0x3b
 8369 02fb 05       		.uleb128 0x5
 8370 02fc 49       		.uleb128 0x49
 8371 02fd 13       		.uleb128 0x13
 8372 02fe 1C       		.uleb128 0x1c
 8373 02ff 0B       		.uleb128 0xb
 8374 0300 00       		.byte	0
 8375 0301 00       		.byte	0
 8376 0302 36       		.uleb128 0x36
 8377 0303 0A       		.uleb128 0xa
 8378 0304 00       		.byte	0
 8379 0305 03       		.uleb128 0x3
 8380 0306 0E       		.uleb128 0xe
 8381 0307 3A       		.uleb128 0x3a
 8382 0308 0B       		.uleb128 0xb
 8383 0309 3B       		.uleb128 0x3b
 8384 030a 05       		.uleb128 0x5
 8385 030b 11       		.uleb128 0x11
 8386 030c 01       		.uleb128 0x1
 8387 030d 00       		.byte	0
 8388 030e 00       		.byte	0
 8389 030f 37       		.uleb128 0x37
 8390 0310 0B       		.uleb128 0xb
 8391 0311 01       		.byte	0x1
 8392 0312 55       		.uleb128 0x55
 8393 0313 17       		.uleb128 0x17
 8394 0314 01       		.uleb128 0x1
 8395 0315 13       		.uleb128 0x13
 8396 0316 00       		.byte	0
 8397 0317 00       		.byte	0
 8398 0318 38       		.uleb128 0x38
 8399 0319 2E       		.uleb128 0x2e
 8400 031a 00       		.byte	0
 8401 031b 3F       		.uleb128 0x3f
 8402 031c 19       		.uleb128 0x19
 8403 031d 3C       		.uleb128 0x3c
 8404 031e 19       		.uleb128 0x19
 8405 031f 6E       		.uleb128 0x6e
 8406 0320 0E       		.uleb128 0xe
 8407 0321 03       		.uleb128 0x3
 8408 0322 0E       		.uleb128 0xe
 8409 0323 00       		.byte	0
ARM GAS  C:\Users\Phuong\AppData\Local\Temp\ccINfzqY.s 			page 168


 8410 0324 00       		.byte	0
 8411 0325 39       		.uleb128 0x39
 8412 0326 2E       		.uleb128 0x2e
 8413 0327 00       		.byte	0
 8414 0328 3F       		.uleb128 0x3f
 8415 0329 19       		.uleb128 0x19
 8416 032a 3C       		.uleb128 0x3c
 8417 032b 19       		.uleb128 0x19
 8418 032c 6E       		.uleb128 0x6e
 8419 032d 0E       		.uleb128 0xe
 8420 032e 03       		.uleb128 0x3
 8421 032f 0E       		.uleb128 0xe
 8422 0330 3A       		.uleb128 0x3a
 8423 0331 0B       		.uleb128 0xb
 8424 0332 3B       		.uleb128 0x3b
 8425 0333 05       		.uleb128 0x5
 8426 0334 00       		.byte	0
 8427 0335 00       		.byte	0
 8428 0336 3A       		.uleb128 0x3a
 8429 0337 2E       		.uleb128 0x2e
 8430 0338 00       		.byte	0
 8431 0339 3F       		.uleb128 0x3f
 8432 033a 19       		.uleb128 0x19
 8433 033b 3C       		.uleb128 0x3c
 8434 033c 19       		.uleb128 0x19
 8435 033d 6E       		.uleb128 0x6e
 8436 033e 0E       		.uleb128 0xe
 8437 033f 03       		.uleb128 0x3
 8438 0340 0E       		.uleb128 0xe
 8439 0341 3A       		.uleb128 0x3a
 8440 0342 0B       		.uleb128 0xb
 8441 0343 3B       		.uleb128 0x3b
 8442 0344 0B       		.uleb128 0xb
 8443 0345 00       		.byte	0
 8444 0346 00       		.byte	0
 8445 0347 3B       		.uleb128 0x3b
 8446 0348 2E       		.uleb128 0x2e
 8447 0349 00       		.byte	0
 8448 034a 3F       		.uleb128 0x3f
 8449 034b 19       		.uleb128 0x19
 8450 034c 3C       		.uleb128 0x3c
 8451 034d 19       		.uleb128 0x19
 8452 034e 6E       		.uleb128 0x6e
 8453 034f 0E       		.uleb128 0xe
 8454 0350 03       		.uleb128 0x3
 8455 0351 0E       		.uleb128 0xe
 8456 0352 3A       		.uleb128 0x3a
 8457 0353 0B       		.uleb128 0xb
 8458 0354 3B       		.uleb128 0x3b
 8459 0355 0B       		.uleb128 0xb
 8460 0356 6E       		.uleb128 0x6e
 8461 0357 0E       		.uleb128 0xe
 8462 0358 00       		.byte	0
 8463 0359 00       		.byte	0
 8464 035a 00       		.byte	0
 8465              		.section	.debug_loc,"",%progbits
 8466              	.Ldebug_loc0:
ARM GAS  C:\Users\Phuong\AppData\Local\Temp\ccINfzqY.s 			page 169


 8467              	.LLST0:
 8468 0000 00000000 		.4byte	.LVL0
 8469 0004 30000000 		.4byte	.LVL8
 8470 0008 0100     		.2byte	0x1
 8471 000a 51       		.byte	0x51
 8472 000b 30000000 		.4byte	.LVL8
 8473 000f 30010000 		.4byte	.LFE11
 8474 0013 0100     		.2byte	0x1
 8475 0015 5C       		.byte	0x5c
 8476 0016 00000000 		.4byte	0
 8477 001a 00000000 		.4byte	0
 8478              	.LLST1:
 8479 001e 00000000 		.4byte	.LVL0
 8480 0022 16000000 		.4byte	.LVL2
 8481 0026 0100     		.2byte	0x1
 8482 0028 52       		.byte	0x52
 8483 0029 16000000 		.4byte	.LVL2
 8484 002d 1E010000 		.4byte	.LVL42
 8485 0031 0100     		.2byte	0x1
 8486 0033 58       		.byte	0x58
 8487 0034 1E010000 		.4byte	.LVL42
 8488 0038 30010000 		.4byte	.LFE11
 8489 003c 0100     		.2byte	0x1
 8490 003e 51       		.byte	0x51
 8491 003f 00000000 		.4byte	0
 8492 0043 00000000 		.4byte	0
 8493              	.LLST2:
 8494 0047 12000000 		.4byte	.LVL1
 8495 004b 2E000000 		.4byte	.LVL7
 8496 004f 0200     		.2byte	0x2
 8497 0051 30       		.byte	0x30
 8498 0052 9F       		.byte	0x9f
 8499 0053 2E000000 		.4byte	.LVL7
 8500 0057 32000000 		.4byte	.LVL9
 8501 005b 0200     		.2byte	0x2
 8502 005d 3F       		.byte	0x3f
 8503 005e 9F       		.byte	0x9f
 8504 005f 32000000 		.4byte	.LVL9
 8505 0063 E6000000 		.4byte	.LVL39
 8506 0067 0100     		.2byte	0x1
 8507 0069 51       		.byte	0x51
 8508 006a 00000000 		.4byte	0
 8509 006e 00000000 		.4byte	0
 8510              	.LLST3:
 8511 0072 18000000 		.4byte	.LVL3
 8512 0076 26000000 		.4byte	.LVL5
 8513 007a 0100     		.2byte	0x1
 8514 007c 53       		.byte	0x53
 8515 007d 26000000 		.4byte	.LVL5
 8516 0081 28000000 		.4byte	.LVL6
 8517 0085 0300     		.2byte	0x3
 8518 0087 73       		.byte	0x73
 8519 0088 78       		.sleb128 -8
 8520 0089 9F       		.byte	0x9f
 8521 008a 28000000 		.4byte	.LVL6
 8522 008e 30000000 		.4byte	.LVL8
 8523 0092 0700     		.2byte	0x7
ARM GAS  C:\Users\Phuong\AppData\Local\Temp\ccINfzqY.s 			page 170


 8524 0094 71       		.byte	0x71
 8525 0095 0F       		.sleb128 15
 8526 0096 94       		.byte	0x94
 8527 0097 01       		.byte	0x1
 8528 0098 3F       		.byte	0x3f
 8529 0099 1A       		.byte	0x1a
 8530 009a 9F       		.byte	0x9f
 8531 009b 30000000 		.4byte	.LVL8
 8532 009f 32000000 		.4byte	.LVL9
 8533 00a3 0B00     		.2byte	0xb
 8534 00a5 7C       		.byte	0x7c
 8535 00a6 0F       		.sleb128 15
 8536 00a7 94       		.byte	0x94
 8537 00a8 01       		.byte	0x1
 8538 00a9 08       		.byte	0x8
 8539 00aa FF       		.byte	0xff
 8540 00ab 1A       		.byte	0x1a
 8541 00ac 71       		.byte	0x71
 8542 00ad 00       		.sleb128 0
 8543 00ae 1A       		.byte	0x1a
 8544 00af 9F       		.byte	0x9f
 8545 00b0 3A000000 		.4byte	.LVL10
 8546 00b4 86000000 		.4byte	.LVL22
 8547 00b8 0100     		.2byte	0x1
 8548 00ba 52       		.byte	0x52
 8549 00bb 86000000 		.4byte	.LVL22
 8550 00bf 88000000 		.4byte	.LVL23
 8551 00c3 0300     		.2byte	0x3
 8552 00c5 72       		.byte	0x72
 8553 00c6 78       		.sleb128 -8
 8554 00c7 9F       		.byte	0x9f
 8555 00c8 88000000 		.4byte	.LVL23
 8556 00cc 94000000 		.4byte	.LVL26
 8557 00d0 0A00     		.2byte	0xa
 8558 00d2 7C       		.byte	0x7c
 8559 00d3 00       		.sleb128 0
 8560 00d4 71       		.byte	0x71
 8561 00d5 00       		.sleb128 0
 8562 00d6 22       		.byte	0x22
 8563 00d7 94       		.byte	0x94
 8564 00d8 01       		.byte	0x1
 8565 00d9 3F       		.byte	0x3f
 8566 00da 1A       		.byte	0x1a
 8567 00db 9F       		.byte	0x9f
 8568 00dc 94000000 		.4byte	.LVL26
 8569 00e0 96000000 		.4byte	.LVL27
 8570 00e4 0E00     		.2byte	0xe
 8571 00e6 7C       		.byte	0x7c
 8572 00e7 00       		.sleb128 0
 8573 00e8 71       		.byte	0x71
 8574 00e9 00       		.sleb128 0
 8575 00ea 22       		.byte	0x22
 8576 00eb 94       		.byte	0x94
 8577 00ec 01       		.byte	0x1
 8578 00ed 08       		.byte	0x8
 8579 00ee FF       		.byte	0xff
 8580 00ef 1A       		.byte	0x1a
ARM GAS  C:\Users\Phuong\AppData\Local\Temp\ccINfzqY.s 			page 171


 8581 00f0 72       		.byte	0x72
 8582 00f1 00       		.sleb128 0
 8583 00f2 1A       		.byte	0x1a
 8584 00f3 9F       		.byte	0x9f
 8585 00f4 96000000 		.4byte	.LVL27
 8586 00f8 DE000000 		.4byte	.LVL38
 8587 00fc 0A00     		.2byte	0xa
 8588 00fe 7C       		.byte	0x7c
 8589 00ff 00       		.sleb128 0
 8590 0100 71       		.byte	0x71
 8591 0101 00       		.sleb128 0
 8592 0102 22       		.byte	0x22
 8593 0103 94       		.byte	0x94
 8594 0104 01       		.byte	0x1
 8595 0105 3F       		.byte	0x3f
 8596 0106 1A       		.byte	0x1a
 8597 0107 9F       		.byte	0x9f
 8598 0108 00000000 		.4byte	0
 8599 010c 00000000 		.4byte	0
 8600              	.LLST4:
 8601 0110 3E000000 		.4byte	.LVL11
 8602 0114 DE000000 		.4byte	.LVL38
 8603 0118 0200     		.2byte	0x2
 8604 011a 91       		.byte	0x91
 8605 011b 54       		.sleb128 -44
 8606 011c 00000000 		.4byte	0
 8607 0120 00000000 		.4byte	0
 8608              	.LLST5:
 8609 0124 48000000 		.4byte	.LVL12
 8610 0128 72000000 		.4byte	.LVL18
 8611 012c 0100     		.2byte	0x1
 8612 012e 59       		.byte	0x59
 8613 012f 96000000 		.4byte	.LVL27
 8614 0133 B0000000 		.4byte	.LVL32
 8615 0137 0100     		.2byte	0x1
 8616 0139 52       		.byte	0x52
 8617 013a 00000000 		.4byte	0
 8618 013e 00000000 		.4byte	0
 8619              	.LLST6:
 8620 0142 24000000 		.4byte	.LVL4
 8621 0146 5C000000 		.4byte	.LVL15
 8622 014a 0600     		.2byte	0x6
 8623 014c 54       		.byte	0x54
 8624 014d 93       		.byte	0x93
 8625 014e 04       		.uleb128 0x4
 8626 014f 55       		.byte	0x55
 8627 0150 93       		.byte	0x93
 8628 0151 04       		.uleb128 0x4
 8629 0152 62000000 		.4byte	.LVL16
 8630 0156 64000000 		.4byte	.LVL17
 8631 015a 0600     		.2byte	0x6
 8632 015c 54       		.byte	0x54
 8633 015d 93       		.byte	0x93
 8634 015e 04       		.uleb128 0x4
 8635 015f 55       		.byte	0x55
 8636 0160 93       		.byte	0x93
 8637 0161 04       		.uleb128 0x4
ARM GAS  C:\Users\Phuong\AppData\Local\Temp\ccINfzqY.s 			page 172


 8638 0162 64000000 		.4byte	.LVL17
 8639 0166 72000000 		.4byte	.LVL18
 8640 016a 0600     		.2byte	0x6
 8641 016c 54       		.byte	0x54
 8642 016d 93       		.byte	0x93
 8643 016e 04       		.uleb128 0x4
 8644 016f 5A       		.byte	0x5a
 8645 0170 93       		.byte	0x93
 8646 0171 04       		.uleb128 0x4
 8647 0172 72000000 		.4byte	.LVL18
 8648 0176 7C000000 		.4byte	.LVL19
 8649 017a 0600     		.2byte	0x6
 8650 017c 54       		.byte	0x54
 8651 017d 93       		.byte	0x93
 8652 017e 04       		.uleb128 0x4
 8653 017f 57       		.byte	0x57
 8654 0180 93       		.byte	0x93
 8655 0181 04       		.uleb128 0x4
 8656 0182 7C000000 		.4byte	.LVL19
 8657 0186 80000000 		.4byte	.LVL20
 8658 018a 0600     		.2byte	0x6
 8659 018c 54       		.byte	0x54
 8660 018d 93       		.byte	0x93
 8661 018e 04       		.uleb128 0x4
 8662 018f 59       		.byte	0x59
 8663 0190 93       		.byte	0x93
 8664 0191 04       		.uleb128 0x4
 8665 0192 84000000 		.4byte	.LVL21
 8666 0196 AA000000 		.4byte	.LVL30
 8667 019a 0600     		.2byte	0x6
 8668 019c 54       		.byte	0x54
 8669 019d 93       		.byte	0x93
 8670 019e 04       		.uleb128 0x4
 8671 019f 55       		.byte	0x55
 8672 01a0 93       		.byte	0x93
 8673 01a1 04       		.uleb128 0x4
 8674 01a2 AE000000 		.4byte	.LVL31
 8675 01a6 C6000000 		.4byte	.LVL34
 8676 01aa 0600     		.2byte	0x6
 8677 01ac 54       		.byte	0x54
 8678 01ad 93       		.byte	0x93
 8679 01ae 04       		.uleb128 0x4
 8680 01af 55       		.byte	0x55
 8681 01b0 93       		.byte	0x93
 8682 01b1 04       		.uleb128 0x4
 8683 01b2 C8000000 		.4byte	.LVL35
 8684 01b6 1E010000 		.4byte	.LVL41
 8685 01ba 0600     		.2byte	0x6
 8686 01bc 54       		.byte	0x54
 8687 01bd 93       		.byte	0x93
 8688 01be 04       		.uleb128 0x4
 8689 01bf 55       		.byte	0x55
 8690 01c0 93       		.byte	0x93
 8691 01c1 04       		.uleb128 0x4
 8692 01c2 00000000 		.4byte	0
 8693 01c6 00000000 		.4byte	0
 8694              	.LLST7:
ARM GAS  C:\Users\Phuong\AppData\Local\Temp\ccINfzqY.s 			page 173


 8695 01ca 2E000000 		.4byte	.LVL7
 8696 01ce 50000000 		.4byte	.LVL13
 8697 01d2 0600     		.2byte	0x6
 8698 01d4 56       		.byte	0x56
 8699 01d5 93       		.byte	0x93
 8700 01d6 04       		.uleb128 0x4
 8701 01d7 53       		.byte	0x53
 8702 01d8 93       		.byte	0x93
 8703 01d9 04       		.uleb128 0x4
 8704 01da 58000000 		.4byte	.LVL14
 8705 01de 90000000 		.4byte	.LVL24
 8706 01e2 0600     		.2byte	0x6
 8707 01e4 56       		.byte	0x56
 8708 01e5 93       		.byte	0x93
 8709 01e6 04       		.uleb128 0x4
 8710 01e7 53       		.byte	0x53
 8711 01e8 93       		.byte	0x93
 8712 01e9 04       		.uleb128 0x4
 8713 01ea 92000000 		.4byte	.LVL25
 8714 01ee 9E000000 		.4byte	.LVL28
 8715 01f2 0600     		.2byte	0x6
 8716 01f4 56       		.byte	0x56
 8717 01f5 93       		.byte	0x93
 8718 01f6 04       		.uleb128 0x4
 8719 01f7 53       		.byte	0x53
 8720 01f8 93       		.byte	0x93
 8721 01f9 04       		.uleb128 0x4
 8722 01fa A6000000 		.4byte	.LVL29
 8723 01fe DA000000 		.4byte	.LVL36
 8724 0202 0600     		.2byte	0x6
 8725 0204 56       		.byte	0x56
 8726 0205 93       		.byte	0x93
 8727 0206 04       		.uleb128 0x4
 8728 0207 53       		.byte	0x53
 8729 0208 93       		.byte	0x93
 8730 0209 04       		.uleb128 0x4
 8731 020a DC000000 		.4byte	.LVL37
 8732 020e 10010000 		.4byte	.LVL40
 8733 0212 0600     		.2byte	0x6
 8734 0214 56       		.byte	0x56
 8735 0215 93       		.byte	0x93
 8736 0216 04       		.uleb128 0x4
 8737 0217 53       		.byte	0x53
 8738 0218 93       		.byte	0x93
 8739 0219 04       		.uleb128 0x4
 8740 021a 00000000 		.4byte	0
 8741 021e 00000000 		.4byte	0
 8742              	.LLST8:
 8743 0222 00000000 		.4byte	.LVL43
 8744 0226 1A000000 		.4byte	.LVL44
 8745 022a 0100     		.2byte	0x1
 8746 022c 50       		.byte	0x50
 8747 022d 1A000000 		.4byte	.LVL44
 8748 0231 82010000 		.4byte	.LVL79
 8749 0235 0100     		.2byte	0x1
 8750 0237 54       		.byte	0x54
 8751 0238 82010000 		.4byte	.LVL79
ARM GAS  C:\Users\Phuong\AppData\Local\Temp\ccINfzqY.s 			page 174


 8752 023c 8E010000 		.4byte	.LFE9
 8753 0240 0400     		.2byte	0x4
 8754 0242 F3       		.byte	0xf3
 8755 0243 01       		.uleb128 0x1
 8756 0244 50       		.byte	0x50
 8757 0245 9F       		.byte	0x9f
 8758 0246 00000000 		.4byte	0
 8759 024a 00000000 		.4byte	0
 8760              	.LLST9:
 8761 024e 2E000000 		.4byte	.LVL46
 8762 0252 66000000 		.4byte	.LVL50
 8763 0256 0100     		.2byte	0x1
 8764 0258 50       		.byte	0x50
 8765 0259 00000000 		.4byte	0
 8766 025d 00000000 		.4byte	0
 8767              	.LLST10:
 8768 0261 B4000000 		.4byte	.LVL58
 8769 0265 B8000000 		.4byte	.LVL59
 8770 0269 0200     		.2byte	0x2
 8771 026b 34       		.byte	0x34
 8772 026c 9F       		.byte	0x9f
 8773 026d B8000000 		.4byte	.LVL59
 8774 0271 04010000 		.4byte	.LVL68
 8775 0275 0100     		.2byte	0x1
 8776 0277 56       		.byte	0x56
 8777 0278 04010000 		.4byte	.LVL68
 8778 027c 80010000 		.4byte	.LVL78
 8779 0280 0100     		.2byte	0x1
 8780 0282 55       		.byte	0x55
 8781 0283 00000000 		.4byte	0
 8782 0287 00000000 		.4byte	0
 8783              	.LLST11:
 8784 028b 2A010000 		.4byte	.LVL73
 8785 028f 2E010000 		.4byte	.LVL75
 8786 0293 0200     		.2byte	0x2
 8787 0295 31       		.byte	0x31
 8788 0296 9F       		.byte	0x9f
 8789 0297 2E010000 		.4byte	.LVL75
 8790 029b 7A010000 		.4byte	.LVL77
 8791 029f 0100     		.2byte	0x1
 8792 02a1 52       		.byte	0x52
 8793 02a2 00000000 		.4byte	0
 8794 02a6 00000000 		.4byte	0
 8795              	.LLST12:
 8796 02aa 90000000 		.4byte	.LVL54
 8797 02ae 9C000000 		.4byte	.LVL55
 8798 02b2 0600     		.2byte	0x6
 8799 02b4 53       		.byte	0x53
 8800 02b5 93       		.byte	0x93
 8801 02b6 04       		.uleb128 0x4
 8802 02b7 5C       		.byte	0x5c
 8803 02b8 93       		.byte	0x93
 8804 02b9 04       		.uleb128 0x4
 8805 02ba 9C000000 		.4byte	.LVL55
 8806 02be B8000000 		.4byte	.LVL59
 8807 02c2 0600     		.2byte	0x6
 8808 02c4 59       		.byte	0x59
ARM GAS  C:\Users\Phuong\AppData\Local\Temp\ccINfzqY.s 			page 175


 8809 02c5 93       		.byte	0x93
 8810 02c6 04       		.uleb128 0x4
 8811 02c7 5C       		.byte	0x5c
 8812 02c8 93       		.byte	0x93
 8813 02c9 04       		.uleb128 0x4
 8814 02ca B8000000 		.4byte	.LVL59
 8815 02ce D0000000 		.4byte	.LVL62
 8816 02d2 0600     		.2byte	0x6
 8817 02d4 59       		.byte	0x59
 8818 02d5 93       		.byte	0x93
 8819 02d6 04       		.uleb128 0x4
 8820 02d7 52       		.byte	0x52
 8821 02d8 93       		.byte	0x93
 8822 02d9 04       		.uleb128 0x4
 8823 02da D4000000 		.4byte	.LVL63
 8824 02de FC000000 		.4byte	.LVL66
 8825 02e2 0600     		.2byte	0x6
 8826 02e4 50       		.byte	0x50
 8827 02e5 93       		.byte	0x93
 8828 02e6 04       		.uleb128 0x4
 8829 02e7 52       		.byte	0x52
 8830 02e8 93       		.byte	0x93
 8831 02e9 04       		.uleb128 0x4
 8832 02ea FC000000 		.4byte	.LVL66
 8833 02ee 04010000 		.4byte	.LVL68
 8834 02f2 0600     		.2byte	0x6
 8835 02f4 59       		.byte	0x59
 8836 02f5 93       		.byte	0x93
 8837 02f6 04       		.uleb128 0x4
 8838 02f7 52       		.byte	0x52
 8839 02f8 93       		.byte	0x93
 8840 02f9 04       		.uleb128 0x4
 8841 02fa 2A010000 		.4byte	.LVL73
 8842 02fe 2E010000 		.4byte	.LVL75
 8843 0302 0700     		.2byte	0x7
 8844 0304 71       		.byte	0x71
 8845 0305 00       		.sleb128 0
 8846 0306 93       		.byte	0x93
 8847 0307 04       		.uleb128 0x4
 8848 0308 53       		.byte	0x53
 8849 0309 93       		.byte	0x93
 8850 030a 04       		.uleb128 0x4
 8851 030b 2E010000 		.4byte	.LVL75
 8852 030f 7A010000 		.4byte	.LVL77
 8853 0313 0800     		.2byte	0x8
 8854 0315 91       		.byte	0x91
 8855 0316 BC7F     		.sleb128 -68
 8856 0318 93       		.byte	0x93
 8857 0319 04       		.uleb128 0x4
 8858 031a 59       		.byte	0x59
 8859 031b 93       		.byte	0x93
 8860 031c 04       		.uleb128 0x4
 8861 031d 00000000 		.4byte	0
 8862 0321 00000000 		.4byte	0
 8863              	.LLST13:
 8864 0325 62000000 		.4byte	.LVL49
 8865 0329 AA000000 		.4byte	.LVL56
ARM GAS  C:\Users\Phuong\AppData\Local\Temp\ccINfzqY.s 			page 176


 8866 032d 0600     		.2byte	0x6
 8867 032f 57       		.byte	0x57
 8868 0330 93       		.byte	0x93
 8869 0331 04       		.uleb128 0x4
 8870 0332 56       		.byte	0x56
 8871 0333 93       		.byte	0x93
 8872 0334 04       		.uleb128 0x4
 8873 0335 AA000000 		.4byte	.LVL56
 8874 0339 AC000000 		.4byte	.LVL57
 8875 033d 0600     		.2byte	0x6
 8876 033f 57       		.byte	0x57
 8877 0340 93       		.byte	0x93
 8878 0341 04       		.uleb128 0x4
 8879 0342 51       		.byte	0x51
 8880 0343 93       		.byte	0x93
 8881 0344 04       		.uleb128 0x4
 8882 0345 AC000000 		.4byte	.LVL57
 8883 0349 DC000000 		.4byte	.LVL64
 8884 034d 0600     		.2byte	0x6
 8885 034f 55       		.byte	0x55
 8886 0350 93       		.byte	0x93
 8887 0351 04       		.uleb128 0x4
 8888 0352 51       		.byte	0x51
 8889 0353 93       		.byte	0x93
 8890 0354 04       		.uleb128 0x4
 8891 0355 E2000000 		.4byte	.LVL65
 8892 0359 02010000 		.4byte	.LVL67
 8893 035d 0600     		.2byte	0x6
 8894 035f 55       		.byte	0x55
 8895 0360 93       		.byte	0x93
 8896 0361 04       		.uleb128 0x4
 8897 0362 51       		.byte	0x51
 8898 0363 93       		.byte	0x93
 8899 0364 04       		.uleb128 0x4
 8900 0365 22010000 		.4byte	.LVL71
 8901 0369 24010000 		.4byte	.LVL72
 8902 036d 0600     		.2byte	0x6
 8903 036f 58       		.byte	0x58
 8904 0370 93       		.byte	0x93
 8905 0371 04       		.uleb128 0x4
 8906 0372 53       		.byte	0x53
 8907 0373 93       		.byte	0x93
 8908 0374 04       		.uleb128 0x4
 8909 0375 24010000 		.4byte	.LVL72
 8910 0379 7A010000 		.4byte	.LVL77
 8911 037d 0600     		.2byte	0x6
 8912 037f 58       		.byte	0x58
 8913 0380 93       		.byte	0x93
 8914 0381 04       		.uleb128 0x4
 8915 0382 5C       		.byte	0x5c
 8916 0383 93       		.byte	0x93
 8917 0384 04       		.uleb128 0x4
 8918 0385 00000000 		.4byte	0
 8919 0389 00000000 		.4byte	0
 8920              	.LLST14:
 8921 038d C6000000 		.4byte	.LVL60
 8922 0391 C8000000 		.4byte	.LVL61
ARM GAS  C:\Users\Phuong\AppData\Local\Temp\ccINfzqY.s 			page 177


 8923 0395 0100     		.2byte	0x1
 8924 0397 53       		.byte	0x53
 8925 0398 C8000000 		.4byte	.LVL61
 8926 039c FC000000 		.4byte	.LVL66
 8927 03a0 0100     		.2byte	0x1
 8928 03a2 58       		.byte	0x58
 8929 03a3 00000000 		.4byte	0
 8930 03a7 00000000 		.4byte	0
 8931              	.LLST15:
 8932 03ab 10010000 		.4byte	.LVL69
 8933 03af 2E010000 		.4byte	.LVL75
 8934 03b3 0100     		.2byte	0x1
 8935 03b5 51       		.byte	0x51
 8936 03b6 2E010000 		.4byte	.LVL75
 8937 03ba 7A010000 		.4byte	.LVL77
 8938 03be 0300     		.2byte	0x3
 8939 03c0 91       		.byte	0x91
 8940 03c1 B47F     		.sleb128 -76
 8941 03c3 00000000 		.4byte	0
 8942 03c7 00000000 		.4byte	0
 8943              	.LLST16:
 8944 03cb 1A010000 		.4byte	.LVL70
 8945 03cf 2C010000 		.4byte	.LVL74
 8946 03d3 0100     		.2byte	0x1
 8947 03d5 52       		.byte	0x52
 8948 03d6 2C010000 		.4byte	.LVL74
 8949 03da 7A010000 		.4byte	.LVL77
 8950 03de 0300     		.2byte	0x3
 8951 03e0 91       		.byte	0x91
 8952 03e1 B87F     		.sleb128 -72
 8953 03e3 00000000 		.4byte	0
 8954 03e7 00000000 		.4byte	0
 8955              	.LLST17:
 8956 03eb 00000000 		.4byte	.LVL80
 8957 03ef 0B000000 		.4byte	.LVL81-1
 8958 03f3 0100     		.2byte	0x1
 8959 03f5 50       		.byte	0x50
 8960 03f6 0B000000 		.4byte	.LVL81-1
 8961 03fa 0E000000 		.4byte	.LFE8
 8962 03fe 0400     		.2byte	0x4
 8963 0400 F3       		.byte	0xf3
 8964 0401 01       		.uleb128 0x1
 8965 0402 50       		.byte	0x50
 8966 0403 9F       		.byte	0x9f
 8967 0404 00000000 		.4byte	0
 8968 0408 00000000 		.4byte	0
 8969              	.LLST18:
 8970 040c 00000000 		.4byte	.LVL82
 8971 0410 06000000 		.4byte	.LVL83
 8972 0414 0100     		.2byte	0x1
 8973 0416 50       		.byte	0x50
 8974 0417 06000000 		.4byte	.LVL83
 8975 041b 50000000 		.4byte	.LVL99
 8976 041f 0100     		.2byte	0x1
 8977 0421 54       		.byte	0x54
 8978 0422 50000000 		.4byte	.LVL99
 8979 0426 52000000 		.4byte	.LFE10
ARM GAS  C:\Users\Phuong\AppData\Local\Temp\ccINfzqY.s 			page 178


 8980 042a 0400     		.2byte	0x4
 8981 042c F3       		.byte	0xf3
 8982 042d 01       		.uleb128 0x1
 8983 042e 50       		.byte	0x50
 8984 042f 9F       		.byte	0x9f
 8985 0430 00000000 		.4byte	0
 8986 0434 00000000 		.4byte	0
 8987              	.LLST19:
 8988 0438 00000000 		.4byte	.LVL82
 8989 043c 0E000000 		.4byte	.LVL85
 8990 0440 0100     		.2byte	0x1
 8991 0442 51       		.byte	0x51
 8992 0443 0E000000 		.4byte	.LVL85
 8993 0447 52000000 		.4byte	.LFE10
 8994 044b 0400     		.2byte	0x4
 8995 044d F3       		.byte	0xf3
 8996 044e 01       		.uleb128 0x1
 8997 044f 51       		.byte	0x51
 8998 0450 9F       		.byte	0x9f
 8999 0451 00000000 		.4byte	0
 9000 0455 00000000 		.4byte	0
 9001              	.LLST20:
 9002 0459 00000000 		.4byte	.LVL82
 9003 045d 0C000000 		.4byte	.LVL84
 9004 0461 0100     		.2byte	0x1
 9005 0463 52       		.byte	0x52
 9006 0464 0C000000 		.4byte	.LVL84
 9007 0468 50000000 		.4byte	.LVL101
 9008 046c 0100     		.2byte	0x1
 9009 046e 56       		.byte	0x56
 9010 046f 50000000 		.4byte	.LVL101
 9011 0473 52000000 		.4byte	.LFE10
 9012 0477 0400     		.2byte	0x4
 9013 0479 F3       		.byte	0xf3
 9014 047a 01       		.uleb128 0x1
 9015 047b 52       		.byte	0x52
 9016 047c 9F       		.byte	0x9f
 9017 047d 00000000 		.4byte	0
 9018 0481 00000000 		.4byte	0
 9019              	.LLST21:
 9020 0485 00000000 		.4byte	.LVL82
 9021 0489 11000000 		.4byte	.LVL86-1
 9022 048d 0100     		.2byte	0x1
 9023 048f 53       		.byte	0x53
 9024 0490 11000000 		.4byte	.LVL86-1
 9025 0494 50000000 		.4byte	.LVL100
 9026 0498 0100     		.2byte	0x1
 9027 049a 55       		.byte	0x55
 9028 049b 50000000 		.4byte	.LVL100
 9029 049f 52000000 		.4byte	.LFE10
 9030 04a3 0400     		.2byte	0x4
 9031 04a5 F3       		.byte	0xf3
 9032 04a6 01       		.uleb128 0x1
 9033 04a7 53       		.byte	0x53
 9034 04a8 9F       		.byte	0x9f
 9035 04a9 00000000 		.4byte	0
 9036 04ad 00000000 		.4byte	0
ARM GAS  C:\Users\Phuong\AppData\Local\Temp\ccINfzqY.s 			page 179


 9037              	.LLST22:
 9038 04b1 2A000000 		.4byte	.LVL90
 9039 04b5 36000000 		.4byte	.LVL91
 9040 04b9 0100     		.2byte	0x1
 9041 04bb 50       		.byte	0x50
 9042 04bc 3A000000 		.4byte	.LVL92
 9043 04c0 40000000 		.4byte	.LVL93
 9044 04c4 0100     		.2byte	0x1
 9045 04c6 50       		.byte	0x50
 9046 04c7 44000000 		.4byte	.LVL94
 9047 04cb 46000000 		.4byte	.LVL95
 9048 04cf 0100     		.2byte	0x1
 9049 04d1 50       		.byte	0x50
 9050 04d2 00000000 		.4byte	0
 9051 04d6 00000000 		.4byte	0
 9052              	.LLST23:
 9053 04da 14000000 		.4byte	.LVL87
 9054 04de 1E000000 		.4byte	.LVL88
 9055 04e2 0100     		.2byte	0x1
 9056 04e4 50       		.byte	0x50
 9057 04e5 1E000000 		.4byte	.LVL88
 9058 04e9 46000000 		.4byte	.LVL95
 9059 04ed 0100     		.2byte	0x1
 9060 04ef 57       		.byte	0x57
 9061 04f0 46000000 		.4byte	.LVL95
 9062 04f4 48000000 		.4byte	.LVL96
 9063 04f8 0100     		.2byte	0x1
 9064 04fa 50       		.byte	0x50
 9065 04fb 48000000 		.4byte	.LVL96
 9066 04ff 4C000000 		.4byte	.LVL97
 9067 0503 0100     		.2byte	0x1
 9068 0505 57       		.byte	0x57
 9069 0506 4C000000 		.4byte	.LVL97
 9070 050a 4E000000 		.4byte	.LVL98
 9071 050e 0100     		.2byte	0x1
 9072 0510 50       		.byte	0x50
 9073 0511 4E000000 		.4byte	.LVL98
 9074 0515 50000000 		.4byte	.LVL102
 9075 0519 0100     		.2byte	0x1
 9076 051b 57       		.byte	0x57
 9077 051c 00000000 		.4byte	0
 9078 0520 00000000 		.4byte	0
 9079              	.LLST24:
 9080 0524 00000000 		.4byte	.LVL103
 9081 0528 3A000000 		.4byte	.LVL107
 9082 052c 0100     		.2byte	0x1
 9083 052e 50       		.byte	0x50
 9084 052f 3A000000 		.4byte	.LVL107
 9085 0533 6A010000 		.4byte	.LVL137
 9086 0537 0100     		.2byte	0x1
 9087 0539 54       		.byte	0x54
 9088 053a 6A010000 		.4byte	.LVL137
 9089 053e 6C010000 		.4byte	.LVL138
 9090 0542 0100     		.2byte	0x1
 9091 0544 50       		.byte	0x50
 9092 0545 6C010000 		.4byte	.LVL138
 9093 0549 70010000 		.4byte	.LVL140
ARM GAS  C:\Users\Phuong\AppData\Local\Temp\ccINfzqY.s 			page 180


 9094 054d 0100     		.2byte	0x1
 9095 054f 54       		.byte	0x54
 9096 0550 70010000 		.4byte	.LVL140
 9097 0554 78010000 		.4byte	.LFE12
 9098 0558 0400     		.2byte	0x4
 9099 055a F3       		.byte	0xf3
 9100 055b 01       		.uleb128 0x1
 9101 055c 50       		.byte	0x50
 9102 055d 9F       		.byte	0x9f
 9103 055e 00000000 		.4byte	0
 9104 0562 00000000 		.4byte	0
 9105              	.LLST25:
 9106 0566 00000000 		.4byte	.LVL103
 9107 056a 38000000 		.4byte	.LVL106
 9108 056e 0100     		.2byte	0x1
 9109 0570 51       		.byte	0x51
 9110 0571 38000000 		.4byte	.LVL106
 9111 0575 8A000000 		.4byte	.LVL112
 9112 0579 0100     		.2byte	0x1
 9113 057b 57       		.byte	0x57
 9114 057c 8A000000 		.4byte	.LVL112
 9115 0580 6A010000 		.4byte	.LVL137
 9116 0584 0400     		.2byte	0x4
 9117 0586 F3       		.byte	0xf3
 9118 0587 01       		.uleb128 0x1
 9119 0588 51       		.byte	0x51
 9120 0589 9F       		.byte	0x9f
 9121 058a 6A010000 		.4byte	.LVL137
 9122 058e 6E010000 		.4byte	.LVL139
 9123 0592 0100     		.2byte	0x1
 9124 0594 51       		.byte	0x51
 9125 0595 6E010000 		.4byte	.LVL139
 9126 0599 78010000 		.4byte	.LFE12
 9127 059d 0400     		.2byte	0x4
 9128 059f F3       		.byte	0xf3
 9129 05a0 01       		.uleb128 0x1
 9130 05a1 51       		.byte	0x51
 9131 05a2 9F       		.byte	0x9f
 9132 05a3 00000000 		.4byte	0
 9133 05a7 00000000 		.4byte	0
 9134              	.LLST26:
 9135 05ab 00000000 		.4byte	.LVL103
 9136 05af 36000000 		.4byte	.LVL105
 9137 05b3 0100     		.2byte	0x1
 9138 05b5 52       		.byte	0x52
 9139 05b6 36000000 		.4byte	.LVL105
 9140 05ba AC000000 		.4byte	.LVL115
 9141 05be 0100     		.2byte	0x1
 9142 05c0 55       		.byte	0x55
 9143 05c1 AC000000 		.4byte	.LVL115
 9144 05c5 6A010000 		.4byte	.LVL137
 9145 05c9 0400     		.2byte	0x4
 9146 05cb F3       		.byte	0xf3
 9147 05cc 01       		.uleb128 0x1
 9148 05cd 52       		.byte	0x52
 9149 05ce 9F       		.byte	0x9f
 9150 05cf 6A010000 		.4byte	.LVL137
ARM GAS  C:\Users\Phuong\AppData\Local\Temp\ccINfzqY.s 			page 181


 9151 05d3 6E010000 		.4byte	.LVL139
 9152 05d7 0100     		.2byte	0x1
 9153 05d9 52       		.byte	0x52
 9154 05da 6E010000 		.4byte	.LVL139
 9155 05de 78010000 		.4byte	.LFE12
 9156 05e2 0400     		.2byte	0x4
 9157 05e4 F3       		.byte	0xf3
 9158 05e5 01       		.uleb128 0x1
 9159 05e6 52       		.byte	0x52
 9160 05e7 9F       		.byte	0x9f
 9161 05e8 00000000 		.4byte	0
 9162 05ec 00000000 		.4byte	0
 9163              	.LLST27:
 9164 05f0 00000000 		.4byte	.LVL103
 9165 05f4 16000000 		.4byte	.LVL104
 9166 05f8 0100     		.2byte	0x1
 9167 05fa 53       		.byte	0x53
 9168 05fb 16000000 		.4byte	.LVL104
 9169 05ff 88000000 		.4byte	.LVL111
 9170 0603 0100     		.2byte	0x1
 9171 0605 58       		.byte	0x58
 9172 0606 88000000 		.4byte	.LVL111
 9173 060a 93000000 		.4byte	.LVL113-1
 9174 060e 0100     		.2byte	0x1
 9175 0610 53       		.byte	0x53
 9176 0611 93000000 		.4byte	.LVL113-1
 9177 0615 AC000000 		.4byte	.LVL115
 9178 0619 0100     		.2byte	0x1
 9179 061b 58       		.byte	0x58
 9180 061c AC000000 		.4byte	.LVL115
 9181 0620 B6000000 		.4byte	.LVL117
 9182 0624 0100     		.2byte	0x1
 9183 0626 53       		.byte	0x53
 9184 0627 B6000000 		.4byte	.LVL117
 9185 062b DC000000 		.4byte	.LVL121
 9186 062f 0100     		.2byte	0x1
 9187 0631 58       		.byte	0x58
 9188 0632 DC000000 		.4byte	.LVL121
 9189 0636 DE000000 		.4byte	.LVL122
 9190 063a 0100     		.2byte	0x1
 9191 063c 53       		.byte	0x53
 9192 063d DE000000 		.4byte	.LVL122
 9193 0641 E4000000 		.4byte	.LVL123
 9194 0645 0100     		.2byte	0x1
 9195 0647 58       		.byte	0x58
 9196 0648 E4000000 		.4byte	.LVL123
 9197 064c E6000000 		.4byte	.LVL124
 9198 0650 0100     		.2byte	0x1
 9199 0652 53       		.byte	0x53
 9200 0653 E6000000 		.4byte	.LVL124
 9201 0657 6A010000 		.4byte	.LVL137
 9202 065b 0100     		.2byte	0x1
 9203 065d 58       		.byte	0x58
 9204 065e 6A010000 		.4byte	.LVL137
 9205 0662 6E010000 		.4byte	.LVL139
 9206 0666 0100     		.2byte	0x1
 9207 0668 53       		.byte	0x53
ARM GAS  C:\Users\Phuong\AppData\Local\Temp\ccINfzqY.s 			page 182


 9208 0669 6E010000 		.4byte	.LVL139
 9209 066d 70010000 		.4byte	.LVL141
 9210 0671 0100     		.2byte	0x1
 9211 0673 58       		.byte	0x58
 9212 0674 00000000 		.4byte	0
 9213 0678 00000000 		.4byte	0
 9214              	.LLST28:
 9215 067c 00000000 		.4byte	.LVL103
 9216 0680 2E010000 		.4byte	.LVL129
 9217 0684 0200     		.2byte	0x2
 9218 0686 91       		.byte	0x91
 9219 0687 04       		.sleb128 4
 9220 0688 2E010000 		.4byte	.LVL129
 9221 068c 38010000 		.4byte	.LVL131
 9222 0690 0100     		.2byte	0x1
 9223 0692 53       		.byte	0x53
 9224 0693 38010000 		.4byte	.LVL131
 9225 0697 5E010000 		.4byte	.LVL135
 9226 069b 0100     		.2byte	0x1
 9227 069d 5B       		.byte	0x5b
 9228 069e 5E010000 		.4byte	.LVL135
 9229 06a2 60010000 		.4byte	.LVL136
 9230 06a6 0100     		.2byte	0x1
 9231 06a8 53       		.byte	0x53
 9232 06a9 60010000 		.4byte	.LVL136
 9233 06ad 6A010000 		.4byte	.LVL137
 9234 06b1 0100     		.2byte	0x1
 9235 06b3 5B       		.byte	0x5b
 9236 06b4 6A010000 		.4byte	.LVL137
 9237 06b8 6E010000 		.4byte	.LVL139
 9238 06bc 0200     		.2byte	0x2
 9239 06be 91       		.byte	0x91
 9240 06bf 04       		.sleb128 4
 9241 06c0 00000000 		.4byte	0
 9242 06c4 00000000 		.4byte	0
 9243              	.LLST29:
 9244 06c8 1A010000 		.4byte	.LVL127
 9245 06cc 2E010000 		.4byte	.LVL129
 9246 06d0 0100     		.2byte	0x1
 9247 06d2 50       		.byte	0x50
 9248 06d3 00000000 		.4byte	0
 9249 06d7 00000000 		.4byte	0
 9250              	.LLST30:
 9251 06db B4000000 		.4byte	.LVL116
 9252 06df B8000000 		.4byte	.LVL118
 9253 06e3 0200     		.2byte	0x2
 9254 06e5 30       		.byte	0x30
 9255 06e6 9F       		.byte	0x9f
 9256 06e7 B8000000 		.4byte	.LVL118
 9257 06eb D5000000 		.4byte	.LVL120-1
 9258 06ef 0100     		.2byte	0x1
 9259 06f1 53       		.byte	0x53
 9260 06f2 E6000000 		.4byte	.LVL124
 9261 06f6 05010000 		.4byte	.LVL126-1
 9262 06fa 0100     		.2byte	0x1
 9263 06fc 53       		.byte	0x53
 9264 06fd 36010000 		.4byte	.LVL130
ARM GAS  C:\Users\Phuong\AppData\Local\Temp\ccINfzqY.s 			page 183


 9265 0701 3A010000 		.4byte	.LVL132
 9266 0705 0200     		.2byte	0x2
 9267 0707 30       		.byte	0x30
 9268 0708 9F       		.byte	0x9f
 9269 0709 3A010000 		.4byte	.LVL132
 9270 070d 57010000 		.4byte	.LVL134-1
 9271 0711 0100     		.2byte	0x1
 9272 0713 53       		.byte	0x53
 9273 0714 00000000 		.4byte	0
 9274 0718 00000000 		.4byte	0
 9275              	.LLST31:
 9276 071c AA000000 		.4byte	.LVL114
 9277 0720 06010000 		.4byte	.LVL126
 9278 0724 0100     		.2byte	0x1
 9279 0726 55       		.byte	0x55
 9280 0727 2C010000 		.4byte	.LVL128
 9281 072b 6A010000 		.4byte	.LVL137
 9282 072f 0100     		.2byte	0x1
 9283 0731 56       		.byte	0x56
 9284 0732 00000000 		.4byte	0
 9285 0736 00000000 		.4byte	0
 9286              	.LLST32:
 9287 073a B4000000 		.4byte	.LVL116
 9288 073e DE000000 		.4byte	.LVL122
 9289 0742 0100     		.2byte	0x1
 9290 0744 57       		.byte	0x57
 9291 0745 36010000 		.4byte	.LVL130
 9292 0749 60010000 		.4byte	.LVL136
 9293 074d 0100     		.2byte	0x1
 9294 074f 55       		.byte	0x55
 9295 0750 00000000 		.4byte	0
 9296 0754 00000000 		.4byte	0
 9297              	.LLST33:
 9298 0758 00000000 		.4byte	.LVL142
 9299 075c 28000000 		.4byte	.LVL145
 9300 0760 0100     		.2byte	0x1
 9301 0762 50       		.byte	0x50
 9302 0763 28000000 		.4byte	.LVL145
 9303 0767 F2000000 		.4byte	.LVL163
 9304 076b 0100     		.2byte	0x1
 9305 076d 54       		.byte	0x54
 9306 076e F2000000 		.4byte	.LVL163
 9307 0772 F4000000 		.4byte	.LVL164
 9308 0776 0100     		.2byte	0x1
 9309 0778 50       		.byte	0x50
 9310 0779 F4000000 		.4byte	.LVL164
 9311 077d 04010000 		.4byte	.LVL168
 9312 0781 0100     		.2byte	0x1
 9313 0783 54       		.byte	0x54
 9314 0784 04010000 		.4byte	.LVL168
 9315 0788 0A010000 		.4byte	.LFE13
 9316 078c 0400     		.2byte	0x4
 9317 078e F3       		.byte	0xf3
 9318 078f 01       		.uleb128 0x1
 9319 0790 50       		.byte	0x50
 9320 0791 9F       		.byte	0x9f
 9321 0792 00000000 		.4byte	0
ARM GAS  C:\Users\Phuong\AppData\Local\Temp\ccINfzqY.s 			page 184


 9322 0796 00000000 		.4byte	0
 9323              	.LLST34:
 9324 079a 00000000 		.4byte	.LVL142
 9325 079e 42000000 		.4byte	.LVL147
 9326 07a2 0100     		.2byte	0x1
 9327 07a4 51       		.byte	0x51
 9328 07a5 42000000 		.4byte	.LVL147
 9329 07a9 52000000 		.4byte	.LVL149
 9330 07ad 0100     		.2byte	0x1
 9331 07af 58       		.byte	0x58
 9332 07b0 52000000 		.4byte	.LVL149
 9333 07b4 5E000000 		.4byte	.LVL151
 9334 07b8 0100     		.2byte	0x1
 9335 07ba 53       		.byte	0x53
 9336 07bb 5E000000 		.4byte	.LVL151
 9337 07bf E4000000 		.4byte	.LVL159
 9338 07c3 0100     		.2byte	0x1
 9339 07c5 58       		.byte	0x58
 9340 07c6 E4000000 		.4byte	.LVL159
 9341 07ca E8000000 		.4byte	.LVL161
 9342 07ce 0100     		.2byte	0x1
 9343 07d0 53       		.byte	0x53
 9344 07d1 E8000000 		.4byte	.LVL161
 9345 07d5 EE000000 		.4byte	.LVL162
 9346 07d9 0100     		.2byte	0x1
 9347 07db 58       		.byte	0x58
 9348 07dc EE000000 		.4byte	.LVL162
 9349 07e0 F2000000 		.4byte	.LVL163
 9350 07e4 0100     		.2byte	0x1
 9351 07e6 53       		.byte	0x53
 9352 07e7 F2000000 		.4byte	.LVL163
 9353 07eb FE000000 		.4byte	.LVL166
 9354 07ef 0100     		.2byte	0x1
 9355 07f1 51       		.byte	0x51
 9356 07f2 FE000000 		.4byte	.LVL166
 9357 07f6 04010000 		.4byte	.LVL170
 9358 07fa 0100     		.2byte	0x1
 9359 07fc 58       		.byte	0x58
 9360 07fd 00000000 		.4byte	0
 9361 0801 00000000 		.4byte	0
 9362              	.LLST35:
 9363 0805 00000000 		.4byte	.LVL142
 9364 0809 2A000000 		.4byte	.LVL146
 9365 080d 0100     		.2byte	0x1
 9366 080f 52       		.byte	0x52
 9367 0810 2A000000 		.4byte	.LVL146
 9368 0814 52000000 		.4byte	.LVL149
 9369 0818 0100     		.2byte	0x1
 9370 081a 55       		.byte	0x55
 9371 081b 52000000 		.4byte	.LVL149
 9372 081f F2000000 		.4byte	.LVL163
 9373 0823 0400     		.2byte	0x4
 9374 0825 F3       		.byte	0xf3
 9375 0826 01       		.uleb128 0x1
 9376 0827 52       		.byte	0x52
 9377 0828 9F       		.byte	0x9f
 9378 0829 F2000000 		.4byte	.LVL163
ARM GAS  C:\Users\Phuong\AppData\Local\Temp\ccINfzqY.s 			page 185


 9379 082d F8000000 		.4byte	.LVL165
 9380 0831 0100     		.2byte	0x1
 9381 0833 52       		.byte	0x52
 9382 0834 F8000000 		.4byte	.LVL165
 9383 0838 02010000 		.4byte	.LVL167
 9384 083c 0100     		.2byte	0x1
 9385 083e 55       		.byte	0x55
 9386 083f 02010000 		.4byte	.LVL167
 9387 0843 0A010000 		.4byte	.LFE13
 9388 0847 0400     		.2byte	0x4
 9389 0849 F3       		.byte	0xf3
 9390 084a 01       		.uleb128 0x1
 9391 084b 52       		.byte	0x52
 9392 084c 9F       		.byte	0x9f
 9393 084d 00000000 		.4byte	0
 9394 0851 00000000 		.4byte	0
 9395              	.LLST36:
 9396 0855 00000000 		.4byte	.LVL142
 9397 0859 12000000 		.4byte	.LVL144
 9398 085d 0100     		.2byte	0x1
 9399 085f 53       		.byte	0x53
 9400 0860 12000000 		.4byte	.LVL144
 9401 0864 52000000 		.4byte	.LVL149
 9402 0868 0100     		.2byte	0x1
 9403 086a 56       		.byte	0x56
 9404 086b 52000000 		.4byte	.LVL149
 9405 086f F2000000 		.4byte	.LVL163
 9406 0873 0400     		.2byte	0x4
 9407 0875 F3       		.byte	0xf3
 9408 0876 01       		.uleb128 0x1
 9409 0877 53       		.byte	0x53
 9410 0878 9F       		.byte	0x9f
 9411 0879 F2000000 		.4byte	.LVL163
 9412 087d 02010000 		.4byte	.LVL167
 9413 0881 0100     		.2byte	0x1
 9414 0883 56       		.byte	0x56
 9415 0884 02010000 		.4byte	.LVL167
 9416 0888 0A010000 		.4byte	.LFE13
 9417 088c 0400     		.2byte	0x4
 9418 088e F3       		.byte	0xf3
 9419 088f 01       		.uleb128 0x1
 9420 0890 53       		.byte	0x53
 9421 0891 9F       		.byte	0x9f
 9422 0892 00000000 		.4byte	0
 9423 0896 00000000 		.4byte	0
 9424              	.LLST37:
 9425 089a 8A000000 		.4byte	.LVL155
 9426 089e 92000000 		.4byte	.LVL156
 9427 08a2 0100     		.2byte	0x1
 9428 08a4 50       		.byte	0x50
 9429 08a5 00000000 		.4byte	0
 9430 08a9 00000000 		.4byte	0
 9431              	.LLST38:
 9432 08ad 5A000000 		.4byte	.LVL150
 9433 08b1 5E000000 		.4byte	.LVL151
 9434 08b5 0200     		.2byte	0x2
 9435 08b7 40       		.byte	0x40
ARM GAS  C:\Users\Phuong\AppData\Local\Temp\ccINfzqY.s 			page 186


 9436 08b8 9F       		.byte	0x9f
 9437 08b9 5E000000 		.4byte	.LVL151
 9438 08bd 60000000 		.4byte	.LVL152
 9439 08c1 0100     		.2byte	0x1
 9440 08c3 51       		.byte	0x51
 9441 08c4 60000000 		.4byte	.LVL152
 9442 08c8 72000000 		.4byte	.LVL153
 9443 08cc 0300     		.2byte	0x3
 9444 08ce 71       		.byte	0x71
 9445 08cf 01       		.sleb128 1
 9446 08d0 9F       		.byte	0x9f
 9447 08d1 72000000 		.4byte	.LVL153
 9448 08d5 76000000 		.4byte	.LVL154
 9449 08d9 0100     		.2byte	0x1
 9450 08db 51       		.byte	0x51
 9451 08dc 92000000 		.4byte	.LVL156
 9452 08e0 DD000000 		.4byte	.LVL158-1
 9453 08e4 0100     		.2byte	0x1
 9454 08e6 53       		.byte	0x53
 9455 08e7 00000000 		.4byte	0
 9456 08eb 00000000 		.4byte	0
 9457              	.LLST39:
 9458 08ef 50000000 		.4byte	.LVL148
 9459 08f3 F2000000 		.4byte	.LVL163
 9460 08f7 0100     		.2byte	0x1
 9461 08f9 55       		.byte	0x55
 9462 08fa 00000000 		.4byte	0
 9463 08fe 00000000 		.4byte	0
 9464              	.LLST40:
 9465 0902 10000000 		.4byte	.LVL143
 9466 0906 12000000 		.4byte	.LVL144
 9467 090a 0100     		.2byte	0x1
 9468 090c 53       		.byte	0x53
 9469 090d 12000000 		.4byte	.LVL144
 9470 0911 04010000 		.4byte	.LVL169
 9471 0915 0100     		.2byte	0x1
 9472 0917 56       		.byte	0x56
 9473 0918 00000000 		.4byte	0
 9474 091c 00000000 		.4byte	0
 9475              	.LLST41:
 9476 0920 5A000000 		.4byte	.LVL150
 9477 0924 E8000000 		.4byte	.LVL161
 9478 0928 0100     		.2byte	0x1
 9479 092a 57       		.byte	0x57
 9480 092b 00000000 		.4byte	0
 9481 092f 00000000 		.4byte	0
 9482              	.LLST42:
 9483 0933 00000000 		.4byte	.LVL171
 9484 0937 4C000000 		.4byte	.LVL179
 9485 093b 0100     		.2byte	0x1
 9486 093d 50       		.byte	0x50
 9487 093e 4C000000 		.4byte	.LVL179
 9488 0942 0A010000 		.4byte	.LVL188
 9489 0946 0100     		.2byte	0x1
 9490 0948 54       		.byte	0x54
 9491 0949 0A010000 		.4byte	.LVL188
 9492 094d 0C010000 		.4byte	.LVL189
ARM GAS  C:\Users\Phuong\AppData\Local\Temp\ccINfzqY.s 			page 187


 9493 0951 0100     		.2byte	0x1
 9494 0953 50       		.byte	0x50
 9495 0954 0C010000 		.4byte	.LVL189
 9496 0958 14010000 		.4byte	.LVL191
 9497 095c 0100     		.2byte	0x1
 9498 095e 54       		.byte	0x54
 9499 095f 14010000 		.4byte	.LVL191
 9500 0963 1E010000 		.4byte	.LFE14
 9501 0967 0400     		.2byte	0x4
 9502 0969 F3       		.byte	0xf3
 9503 096a 01       		.uleb128 0x1
 9504 096b 50       		.byte	0x50
 9505 096c 9F       		.byte	0x9f
 9506 096d 00000000 		.4byte	0
 9507 0971 00000000 		.4byte	0
 9508              	.LLST43:
 9509 0975 00000000 		.4byte	.LVL171
 9510 0979 30000000 		.4byte	.LVL175
 9511 097d 0100     		.2byte	0x1
 9512 097f 51       		.byte	0x51
 9513 0980 30000000 		.4byte	.LVL175
 9514 0984 14010000 		.4byte	.LVL193
 9515 0988 0100     		.2byte	0x1
 9516 098a 56       		.byte	0x56
 9517 098b 14010000 		.4byte	.LVL193
 9518 098f 1E010000 		.4byte	.LFE14
 9519 0993 0400     		.2byte	0x4
 9520 0995 F3       		.byte	0xf3
 9521 0996 01       		.uleb128 0x1
 9522 0997 51       		.byte	0x51
 9523 0998 9F       		.byte	0x9f
 9524 0999 00000000 		.4byte	0
 9525 099d 00000000 		.4byte	0
 9526              	.LLST44:
 9527 09a1 00000000 		.4byte	.LVL171
 9528 09a5 14000000 		.4byte	.LVL172
 9529 09a9 0100     		.2byte	0x1
 9530 09ab 52       		.byte	0x52
 9531 09ac 14000000 		.4byte	.LVL172
 9532 09b0 14010000 		.4byte	.LVL192
 9533 09b4 0100     		.2byte	0x1
 9534 09b6 55       		.byte	0x55
 9535 09b7 14010000 		.4byte	.LVL192
 9536 09bb 1E010000 		.4byte	.LFE14
 9537 09bf 0400     		.2byte	0x4
 9538 09c1 F3       		.byte	0xf3
 9539 09c2 01       		.uleb128 0x1
 9540 09c3 52       		.byte	0x52
 9541 09c4 9F       		.byte	0x9f
 9542 09c5 00000000 		.4byte	0
 9543 09c9 00000000 		.4byte	0
 9544              	.LLST45:
 9545 09cd C4000000 		.4byte	.LVL182
 9546 09d1 C8000000 		.4byte	.LVL183
 9547 09d5 0200     		.2byte	0x2
 9548 09d7 30       		.byte	0x30
 9549 09d8 9F       		.byte	0x9f
ARM GAS  C:\Users\Phuong\AppData\Local\Temp\ccINfzqY.s 			page 188


 9550 09d9 C8000000 		.4byte	.LVL183
 9551 09dd EB000000 		.4byte	.LVL185-1
 9552 09e1 0100     		.2byte	0x1
 9553 09e3 53       		.byte	0x53
 9554 09e4 EC000000 		.4byte	.LVL185
 9555 09e8 F0000000 		.4byte	.LVL186
 9556 09ec 0200     		.2byte	0x2
 9557 09ee 30       		.byte	0x30
 9558 09ef 9F       		.byte	0x9f
 9559 09f0 F0000000 		.4byte	.LVL186
 9560 09f4 0A010000 		.4byte	.LVL188
 9561 09f8 0100     		.2byte	0x1
 9562 09fa 53       		.byte	0x53
 9563 09fb 00000000 		.4byte	0
 9564 09ff 00000000 		.4byte	0
 9565              	.LLST46:
 9566 0a03 26000000 		.4byte	.LVL173
 9567 0a07 2E000000 		.4byte	.LVL174
 9568 0a0b 0600     		.2byte	0x6
 9569 0a0d 53       		.byte	0x53
 9570 0a0e 93       		.byte	0x93
 9571 0a0f 04       		.uleb128 0x4
 9572 0a10 57       		.byte	0x57
 9573 0a11 93       		.byte	0x93
 9574 0a12 04       		.uleb128 0x4
 9575 0a13 2E000000 		.4byte	.LVL174
 9576 0a17 14010000 		.4byte	.LVL194
 9577 0a1b 0600     		.2byte	0x6
 9578 0a1d 59       		.byte	0x59
 9579 0a1e 93       		.byte	0x93
 9580 0a1f 04       		.uleb128 0x4
 9581 0a20 57       		.byte	0x57
 9582 0a21 93       		.byte	0x93
 9583 0a22 04       		.uleb128 0x4
 9584 0a23 00000000 		.4byte	0
 9585 0a27 00000000 		.4byte	0
 9586              	.LLST47:
 9587 0a2b 3C000000 		.4byte	.LVL176
 9588 0a2f 3E000000 		.4byte	.LVL177
 9589 0a33 0600     		.2byte	0x6
 9590 0a35 53       		.byte	0x53
 9591 0a36 93       		.byte	0x93
 9592 0a37 04       		.uleb128 0x4
 9593 0a38 51       		.byte	0x51
 9594 0a39 93       		.byte	0x93
 9595 0a3a 04       		.uleb128 0x4
 9596 0a3b 3E000000 		.4byte	.LVL177
 9597 0a3f 44000000 		.4byte	.LVL178
 9598 0a43 0600     		.2byte	0x6
 9599 0a45 5A       		.byte	0x5a
 9600 0a46 93       		.byte	0x93
 9601 0a47 04       		.uleb128 0x4
 9602 0a48 51       		.byte	0x51
 9603 0a49 93       		.byte	0x93
 9604 0a4a 04       		.uleb128 0x4
 9605 0a4b 44000000 		.4byte	.LVL178
 9606 0a4f 0A010000 		.4byte	.LVL188
ARM GAS  C:\Users\Phuong\AppData\Local\Temp\ccINfzqY.s 			page 189


 9607 0a53 0600     		.2byte	0x6
 9608 0a55 5A       		.byte	0x5a
 9609 0a56 93       		.byte	0x93
 9610 0a57 04       		.uleb128 0x4
 9611 0a58 58       		.byte	0x58
 9612 0a59 93       		.byte	0x93
 9613 0a5a 04       		.uleb128 0x4
 9614 0a5b 0A010000 		.4byte	.LVL188
 9615 0a5f 10010000 		.4byte	.LVL190
 9616 0a63 0600     		.2byte	0x6
 9617 0a65 5A       		.byte	0x5a
 9618 0a66 93       		.byte	0x93
 9619 0a67 04       		.uleb128 0x4
 9620 0a68 51       		.byte	0x51
 9621 0a69 93       		.byte	0x93
 9622 0a6a 04       		.uleb128 0x4
 9623 0a6b 10010000 		.4byte	.LVL190
 9624 0a6f 14010000 		.4byte	.LVL195
 9625 0a73 0600     		.2byte	0x6
 9626 0a75 5A       		.byte	0x5a
 9627 0a76 93       		.byte	0x93
 9628 0a77 04       		.uleb128 0x4
 9629 0a78 58       		.byte	0x58
 9630 0a79 93       		.byte	0x93
 9631 0a7a 04       		.uleb128 0x4
 9632 0a7b 00000000 		.4byte	0
 9633 0a7f 00000000 		.4byte	0
 9634              	.LLST48:
 9635 0a83 00000000 		.4byte	.LVL196
 9636 0a87 17000000 		.4byte	.LVL199-1
 9637 0a8b 0100     		.2byte	0x1
 9638 0a8d 50       		.byte	0x50
 9639 0a8e 17000000 		.4byte	.LVL199-1
 9640 0a92 38000000 		.4byte	.LVL204
 9641 0a96 0100     		.2byte	0x1
 9642 0a98 54       		.byte	0x54
 9643 0a99 38000000 		.4byte	.LVL204
 9644 0a9d 3A000000 		.4byte	.LFE15
 9645 0aa1 0400     		.2byte	0x4
 9646 0aa3 F3       		.byte	0xf3
 9647 0aa4 01       		.uleb128 0x1
 9648 0aa5 50       		.byte	0x50
 9649 0aa6 9F       		.byte	0x9f
 9650 0aa7 00000000 		.4byte	0
 9651 0aab 00000000 		.4byte	0
 9652              	.LLST49:
 9653 0aaf 00000000 		.4byte	.LVL196
 9654 0ab3 17000000 		.4byte	.LVL199-1
 9655 0ab7 0100     		.2byte	0x1
 9656 0ab9 51       		.byte	0x51
 9657 0aba 17000000 		.4byte	.LVL199-1
 9658 0abe 3A000000 		.4byte	.LFE15
 9659 0ac2 0400     		.2byte	0x4
 9660 0ac4 F3       		.byte	0xf3
 9661 0ac5 01       		.uleb128 0x1
 9662 0ac6 51       		.byte	0x51
 9663 0ac7 9F       		.byte	0x9f
ARM GAS  C:\Users\Phuong\AppData\Local\Temp\ccINfzqY.s 			page 190


 9664 0ac8 00000000 		.4byte	0
 9665 0acc 00000000 		.4byte	0
 9666              	.LLST50:
 9667 0ad0 00000000 		.4byte	.LVL196
 9668 0ad4 0A000000 		.4byte	.LVL197
 9669 0ad8 0100     		.2byte	0x1
 9670 0ada 52       		.byte	0x52
 9671 0adb 0A000000 		.4byte	.LVL197
 9672 0adf 38000000 		.4byte	.LVL205
 9673 0ae3 0100     		.2byte	0x1
 9674 0ae5 55       		.byte	0x55
 9675 0ae6 38000000 		.4byte	.LVL205
 9676 0aea 3A000000 		.4byte	.LFE15
 9677 0aee 0400     		.2byte	0x4
 9678 0af0 F3       		.byte	0xf3
 9679 0af1 01       		.uleb128 0x1
 9680 0af2 52       		.byte	0x52
 9681 0af3 9F       		.byte	0x9f
 9682 0af4 00000000 		.4byte	0
 9683 0af8 00000000 		.4byte	0
 9684              	.LLST51:
 9685 0afc 00000000 		.4byte	.LVL196
 9686 0b00 0C000000 		.4byte	.LVL198
 9687 0b04 0100     		.2byte	0x1
 9688 0b06 53       		.byte	0x53
 9689 0b07 0C000000 		.4byte	.LVL198
 9690 0b0b 17000000 		.4byte	.LVL199-1
 9691 0b0f 0100     		.2byte	0x1
 9692 0b11 52       		.byte	0x52
 9693 0b12 17000000 		.4byte	.LVL199-1
 9694 0b16 3A000000 		.4byte	.LFE15
 9695 0b1a 0400     		.2byte	0x4
 9696 0b1c F3       		.byte	0xf3
 9697 0b1d 01       		.uleb128 0x1
 9698 0b1e 53       		.byte	0x53
 9699 0b1f 9F       		.byte	0x9f
 9700 0b20 00000000 		.4byte	0
 9701 0b24 00000000 		.4byte	0
 9702              	.LLST52:
 9703 0b28 18000000 		.4byte	.LVL199
 9704 0b2c 24000000 		.4byte	.LVL200
 9705 0b30 0100     		.2byte	0x1
 9706 0b32 50       		.byte	0x50
 9707 0b33 28000000 		.4byte	.LVL201
 9708 0b37 32000000 		.4byte	.LVL202
 9709 0b3b 0100     		.2byte	0x1
 9710 0b3d 50       		.byte	0x50
 9711 0b3e 36000000 		.4byte	.LVL203
 9712 0b42 3A000000 		.4byte	.LFE15
 9713 0b46 0100     		.2byte	0x1
 9714 0b48 50       		.byte	0x50
 9715 0b49 00000000 		.4byte	0
 9716 0b4d 00000000 		.4byte	0
 9717              	.LLST53:
 9718 0b51 00000000 		.4byte	.LVL206
 9719 0b55 2B000000 		.4byte	.LVL210-1
 9720 0b59 0100     		.2byte	0x1
ARM GAS  C:\Users\Phuong\AppData\Local\Temp\ccINfzqY.s 			page 191


 9721 0b5b 50       		.byte	0x50
 9722 0b5c 2B000000 		.4byte	.LVL210-1
 9723 0b60 5E000000 		.4byte	.LFE16
 9724 0b64 0400     		.2byte	0x4
 9725 0b66 F3       		.byte	0xf3
 9726 0b67 01       		.uleb128 0x1
 9727 0b68 50       		.byte	0x50
 9728 0b69 9F       		.byte	0x9f
 9729 0b6a 00000000 		.4byte	0
 9730 0b6e 00000000 		.4byte	0
 9731              	.LLST54:
 9732 0b72 00000000 		.4byte	.LVL206
 9733 0b76 0C000000 		.4byte	.LVL207
 9734 0b7a 0100     		.2byte	0x1
 9735 0b7c 51       		.byte	0x51
 9736 0b7d 0C000000 		.4byte	.LVL207
 9737 0b81 5C000000 		.4byte	.LVL218
 9738 0b85 0100     		.2byte	0x1
 9739 0b87 54       		.byte	0x54
 9740 0b88 5C000000 		.4byte	.LVL218
 9741 0b8c 5E000000 		.4byte	.LFE16
 9742 0b90 0400     		.2byte	0x4
 9743 0b92 F3       		.byte	0xf3
 9744 0b93 01       		.uleb128 0x1
 9745 0b94 51       		.byte	0x51
 9746 0b95 9F       		.byte	0x9f
 9747 0b96 00000000 		.4byte	0
 9748 0b9a 00000000 		.4byte	0
 9749              	.LLST55:
 9750 0b9e 00000000 		.4byte	.LVL206
 9751 0ba2 26000000 		.4byte	.LVL209
 9752 0ba6 0100     		.2byte	0x1
 9753 0ba8 52       		.byte	0x52
 9754 0ba9 26000000 		.4byte	.LVL209
 9755 0bad 2B000000 		.4byte	.LVL210-1
 9756 0bb1 0100     		.2byte	0x1
 9757 0bb3 53       		.byte	0x53
 9758 0bb4 2B000000 		.4byte	.LVL210-1
 9759 0bb8 5E000000 		.4byte	.LFE16
 9760 0bbc 0400     		.2byte	0x4
 9761 0bbe F3       		.byte	0xf3
 9762 0bbf 01       		.uleb128 0x1
 9763 0bc0 52       		.byte	0x52
 9764 0bc1 9F       		.byte	0x9f
 9765 0bc2 00000000 		.4byte	0
 9766 0bc6 00000000 		.4byte	0
 9767              	.LLST56:
 9768 0bca 00000000 		.4byte	.LVL206
 9769 0bce 24000000 		.4byte	.LVL208
 9770 0bd2 0100     		.2byte	0x1
 9771 0bd4 53       		.byte	0x53
 9772 0bd5 24000000 		.4byte	.LVL208
 9773 0bd9 2B000000 		.4byte	.LVL210-1
 9774 0bdd 0200     		.2byte	0x2
 9775 0bdf 7D       		.byte	0x7d
 9776 0be0 00       		.sleb128 0
 9777 0be1 2B000000 		.4byte	.LVL210-1
ARM GAS  C:\Users\Phuong\AppData\Local\Temp\ccINfzqY.s 			page 192


 9778 0be5 5E000000 		.4byte	.LFE16
 9779 0be9 0400     		.2byte	0x4
 9780 0beb F3       		.byte	0xf3
 9781 0bec 01       		.uleb128 0x1
 9782 0bed 53       		.byte	0x53
 9783 0bee 9F       		.byte	0x9f
 9784 0bef 00000000 		.4byte	0
 9785 0bf3 00000000 		.4byte	0
 9786              	.LLST57:
 9787 0bf7 2C000000 		.4byte	.LVL210
 9788 0bfb 36000000 		.4byte	.LVL211
 9789 0bff 0100     		.2byte	0x1
 9790 0c01 50       		.byte	0x50
 9791 0c02 00000000 		.4byte	0
 9792 0c06 00000000 		.4byte	0
 9793              	.LLST58:
 9794 0c0a 36000000 		.4byte	.LVL211
 9795 0c0e 51000000 		.4byte	.LVL215-1
 9796 0c12 0100     		.2byte	0x1
 9797 0c14 53       		.byte	0x53
 9798 0c15 58000000 		.4byte	.LVL216
 9799 0c19 5A000000 		.4byte	.LVL217
 9800 0c1d 0100     		.2byte	0x1
 9801 0c1f 53       		.byte	0x53
 9802 0c20 00000000 		.4byte	0
 9803 0c24 00000000 		.4byte	0
 9804              	.LLST59:
 9805 0c28 36000000 		.4byte	.LVL211
 9806 0c2c 4C000000 		.4byte	.LVL214
 9807 0c30 0100     		.2byte	0x1
 9808 0c32 51       		.byte	0x51
 9809 0c33 58000000 		.4byte	.LVL216
 9810 0c37 5A000000 		.4byte	.LVL217
 9811 0c3b 0100     		.2byte	0x1
 9812 0c3d 51       		.byte	0x51
 9813 0c3e 00000000 		.4byte	0
 9814 0c42 00000000 		.4byte	0
 9815              	.LLST60:
 9816 0c46 00000000 		.4byte	.LVL219
 9817 0c4a 07000000 		.4byte	.LVL220-1
 9818 0c4e 0100     		.2byte	0x1
 9819 0c50 50       		.byte	0x50
 9820 0c51 07000000 		.4byte	.LVL220-1
 9821 0c55 12000000 		.4byte	.LVL222
 9822 0c59 0100     		.2byte	0x1
 9823 0c5b 54       		.byte	0x54
 9824 0c5c 12000000 		.4byte	.LVL222
 9825 0c60 14000000 		.4byte	.LFE17
 9826 0c64 0400     		.2byte	0x4
 9827 0c66 F3       		.byte	0xf3
 9828 0c67 01       		.uleb128 0x1
 9829 0c68 50       		.byte	0x50
 9830 0c69 9F       		.byte	0x9f
 9831 0c6a 00000000 		.4byte	0
 9832 0c6e 00000000 		.4byte	0
 9833              	.LLST61:
 9834 0c72 00000000 		.4byte	.LVL223
ARM GAS  C:\Users\Phuong\AppData\Local\Temp\ccINfzqY.s 			page 193


 9835 0c76 18000000 		.4byte	.LVL225
 9836 0c7a 0100     		.2byte	0x1
 9837 0c7c 50       		.byte	0x50
 9838 0c7d 18000000 		.4byte	.LVL225
 9839 0c81 30000000 		.4byte	.LVL230
 9840 0c85 0100     		.2byte	0x1
 9841 0c87 5A       		.byte	0x5a
 9842 0c88 30000000 		.4byte	.LVL230
 9843 0c8c 32000000 		.4byte	.LVL231
 9844 0c90 0100     		.2byte	0x1
 9845 0c92 53       		.byte	0x53
 9846 0c93 32000000 		.4byte	.LVL231
 9847 0c97 1E010000 		.4byte	.LVL243
 9848 0c9b 0100     		.2byte	0x1
 9849 0c9d 5A       		.byte	0x5a
 9850 0c9e 1E010000 		.4byte	.LVL243
 9851 0ca2 23010000 		.4byte	.LVL244-1
 9852 0ca6 0100     		.2byte	0x1
 9853 0ca8 53       		.byte	0x53
 9854 0ca9 23010000 		.4byte	.LVL244-1
 9855 0cad 30010000 		.4byte	.LVL246
 9856 0cb1 0100     		.2byte	0x1
 9857 0cb3 5A       		.byte	0x5a
 9858 0cb4 30010000 		.4byte	.LVL246
 9859 0cb8 32010000 		.4byte	.LVL247
 9860 0cbc 0100     		.2byte	0x1
 9861 0cbe 53       		.byte	0x53
 9862 0cbf 32010000 		.4byte	.LVL247
 9863 0cc3 A4010000 		.4byte	.LVL256
 9864 0cc7 0100     		.2byte	0x1
 9865 0cc9 5A       		.byte	0x5a
 9866 0cca A4010000 		.4byte	.LVL256
 9867 0cce A9010000 		.4byte	.LVL257-1
 9868 0cd2 0100     		.2byte	0x1
 9869 0cd4 53       		.byte	0x53
 9870 0cd5 A9010000 		.4byte	.LVL257-1
 9871 0cd9 B6010000 		.4byte	.LVL259
 9872 0cdd 0100     		.2byte	0x1
 9873 0cdf 5A       		.byte	0x5a
 9874 0ce0 B6010000 		.4byte	.LVL259
 9875 0ce4 B8010000 		.4byte	.LVL260
 9876 0ce8 0100     		.2byte	0x1
 9877 0cea 53       		.byte	0x53
 9878 0ceb B8010000 		.4byte	.LVL260
 9879 0cef 78020000 		.4byte	.LVL280
 9880 0cf3 0100     		.2byte	0x1
 9881 0cf5 5A       		.byte	0x5a
 9882 0cf6 78020000 		.4byte	.LVL280
 9883 0cfa 7D020000 		.4byte	.LVL281-1
 9884 0cfe 0100     		.2byte	0x1
 9885 0d00 53       		.byte	0x53
 9886 0d01 7D020000 		.4byte	.LVL281-1
 9887 0d05 8A020000 		.4byte	.LVL283
 9888 0d09 0100     		.2byte	0x1
 9889 0d0b 5A       		.byte	0x5a
 9890 0d0c 8A020000 		.4byte	.LVL283
 9891 0d10 8C020000 		.4byte	.LVL284
ARM GAS  C:\Users\Phuong\AppData\Local\Temp\ccINfzqY.s 			page 194


 9892 0d14 0100     		.2byte	0x1
 9893 0d16 53       		.byte	0x53
 9894 0d17 8C020000 		.4byte	.LVL284
 9895 0d1b B2030000 		.4byte	.LVL304
 9896 0d1f 0100     		.2byte	0x1
 9897 0d21 5A       		.byte	0x5a
 9898 0d22 B2030000 		.4byte	.LVL304
 9899 0d26 B7030000 		.4byte	.LVL305-1
 9900 0d2a 0100     		.2byte	0x1
 9901 0d2c 53       		.byte	0x53
 9902 0d2d B7030000 		.4byte	.LVL305-1
 9903 0d31 D4030000 		.4byte	.LVL308
 9904 0d35 0100     		.2byte	0x1
 9905 0d37 5A       		.byte	0x5a
 9906 0d38 D4030000 		.4byte	.LVL308
 9907 0d3c DE030000 		.4byte	.LVL310
 9908 0d40 0100     		.2byte	0x1
 9909 0d42 57       		.byte	0x57
 9910 0d43 DE030000 		.4byte	.LVL310
 9911 0d47 0E040000 		.4byte	.LVL326
 9912 0d4b 0100     		.2byte	0x1
 9913 0d4d 5A       		.byte	0x5a
 9914 0d4e 0E040000 		.4byte	.LVL326
 9915 0d52 12040000 		.4byte	.LVL327
 9916 0d56 0100     		.2byte	0x1
 9917 0d58 57       		.byte	0x57
 9918 0d59 12040000 		.4byte	.LVL327
 9919 0d5d 64040000 		.4byte	.LVL355
 9920 0d61 0100     		.2byte	0x1
 9921 0d63 5A       		.byte	0x5a
 9922 0d64 64040000 		.4byte	.LVL355
 9923 0d68 80040000 		.4byte	.LVL359
 9924 0d6c 0100     		.2byte	0x1
 9925 0d6e 57       		.byte	0x57
 9926 0d6f 80040000 		.4byte	.LVL359
 9927 0d73 80040000 		.4byte	.LVL361
 9928 0d77 0100     		.2byte	0x1
 9929 0d79 5A       		.byte	0x5a
 9930 0d7a 80040000 		.4byte	.LVL361
 9931 0d7e 9C040000 		.4byte	.LFE18
 9932 0d82 0400     		.2byte	0x4
 9933 0d84 F3       		.byte	0xf3
 9934 0d85 01       		.uleb128 0x1
 9935 0d86 50       		.byte	0x50
 9936 0d87 9F       		.byte	0x9f
 9937 0d88 00000000 		.4byte	0
 9938 0d8c 00000000 		.4byte	0
 9939              	.LLST62:
 9940 0d90 20000000 		.4byte	.LVL227
 9941 0d94 24000000 		.4byte	.LVL228
 9942 0d98 0200     		.2byte	0x2
 9943 0d9a 30       		.byte	0x30
 9944 0d9b 9F       		.byte	0x9f
 9945 0d9c 24000000 		.4byte	.LVL228
 9946 0da0 1E020000 		.4byte	.LVL270
 9947 0da4 0100     		.2byte	0x1
 9948 0da6 54       		.byte	0x54
ARM GAS  C:\Users\Phuong\AppData\Local\Temp\ccINfzqY.s 			page 195


 9949 0da7 22020000 		.4byte	.LVL271
 9950 0dab 20030000 		.4byte	.LVL294
 9951 0daf 0100     		.2byte	0x1
 9952 0db1 54       		.byte	0x54
 9953 0db2 5C030000 		.4byte	.LVL295
 9954 0db6 C6030000 		.4byte	.LVL307
 9955 0dba 0100     		.2byte	0x1
 9956 0dbc 54       		.byte	0x54
 9957 0dbd DE030000 		.4byte	.LVL310
 9958 0dc1 E2030000 		.4byte	.LVL311
 9959 0dc5 0100     		.2byte	0x1
 9960 0dc7 54       		.byte	0x54
 9961 0dc8 E4030000 		.4byte	.LVL312
 9962 0dcc E8030000 		.4byte	.LVL313
 9963 0dd0 0100     		.2byte	0x1
 9964 0dd2 54       		.byte	0x54
 9965 0dd3 EA030000 		.4byte	.LVL314
 9966 0dd7 EE030000 		.4byte	.LVL315
 9967 0ddb 0100     		.2byte	0x1
 9968 0ddd 54       		.byte	0x54
 9969 0dde F0030000 		.4byte	.LVL316
 9970 0de2 F4030000 		.4byte	.LVL317
 9971 0de6 0100     		.2byte	0x1
 9972 0de8 54       		.byte	0x54
 9973 0de9 F6030000 		.4byte	.LVL318
 9974 0ded FA030000 		.4byte	.LVL319
 9975 0df1 0100     		.2byte	0x1
 9976 0df3 54       		.byte	0x54
 9977 0df4 FC030000 		.4byte	.LVL320
 9978 0df8 00040000 		.4byte	.LVL321
 9979 0dfc 0100     		.2byte	0x1
 9980 0dfe 54       		.byte	0x54
 9981 0dff 02040000 		.4byte	.LVL322
 9982 0e03 06040000 		.4byte	.LVL323
 9983 0e07 0100     		.2byte	0x1
 9984 0e09 54       		.byte	0x54
 9985 0e0a 08040000 		.4byte	.LVL324
 9986 0e0e 0C040000 		.4byte	.LVL325
 9987 0e12 0100     		.2byte	0x1
 9988 0e14 54       		.byte	0x54
 9989 0e15 12040000 		.4byte	.LVL327
 9990 0e19 14040000 		.4byte	.LVL328
 9991 0e1d 0100     		.2byte	0x1
 9992 0e1f 54       		.byte	0x54
 9993 0e20 18040000 		.4byte	.LVL329
 9994 0e24 1A040000 		.4byte	.LVL330
 9995 0e28 0100     		.2byte	0x1
 9996 0e2a 54       		.byte	0x54
 9997 0e2b 1E040000 		.4byte	.LVL331
 9998 0e2f 20040000 		.4byte	.LVL332
 9999 0e33 0100     		.2byte	0x1
 10000 0e35 54       		.byte	0x54
 10001 0e36 24040000 		.4byte	.LVL333
 10002 0e3a 26040000 		.4byte	.LVL334
 10003 0e3e 0100     		.2byte	0x1
 10004 0e40 54       		.byte	0x54
 10005 0e41 2A040000 		.4byte	.LVL335
ARM GAS  C:\Users\Phuong\AppData\Local\Temp\ccINfzqY.s 			page 196


 10006 0e45 2C040000 		.4byte	.LVL336
 10007 0e49 0100     		.2byte	0x1
 10008 0e4b 54       		.byte	0x54
 10009 0e4c 30040000 		.4byte	.LVL337
 10010 0e50 32040000 		.4byte	.LVL338
 10011 0e54 0100     		.2byte	0x1
 10012 0e56 54       		.byte	0x54
 10013 0e57 36040000 		.4byte	.LVL339
 10014 0e5b 38040000 		.4byte	.LVL340
 10015 0e5f 0100     		.2byte	0x1
 10016 0e61 54       		.byte	0x54
 10017 0e62 3C040000 		.4byte	.LVL341
 10018 0e66 3E040000 		.4byte	.LVL342
 10019 0e6a 0100     		.2byte	0x1
 10020 0e6c 54       		.byte	0x54
 10021 0e6d 42040000 		.4byte	.LVL343
 10022 0e71 44040000 		.4byte	.LVL344
 10023 0e75 0100     		.2byte	0x1
 10024 0e77 54       		.byte	0x54
 10025 0e78 48040000 		.4byte	.LVL345
 10026 0e7c 4A040000 		.4byte	.LVL346
 10027 0e80 0100     		.2byte	0x1
 10028 0e82 54       		.byte	0x54
 10029 0e83 4E040000 		.4byte	.LVL347
 10030 0e87 50040000 		.4byte	.LVL348
 10031 0e8b 0100     		.2byte	0x1
 10032 0e8d 54       		.byte	0x54
 10033 0e8e 54040000 		.4byte	.LVL349
 10034 0e92 56040000 		.4byte	.LVL350
 10035 0e96 0100     		.2byte	0x1
 10036 0e98 54       		.byte	0x54
 10037 0e99 5A040000 		.4byte	.LVL351
 10038 0e9d 5C040000 		.4byte	.LVL352
 10039 0ea1 0100     		.2byte	0x1
 10040 0ea3 54       		.byte	0x54
 10041 0ea4 60040000 		.4byte	.LVL353
 10042 0ea8 62040000 		.4byte	.LVL354
 10043 0eac 0100     		.2byte	0x1
 10044 0eae 54       		.byte	0x54
 10045 0eaf 00000000 		.4byte	0
 10046 0eb3 00000000 		.4byte	0
 10047              	.LLST63:
 10048 0eb7 10000000 		.4byte	.LVL224
 10049 0ebb 18000000 		.4byte	.LVL225
 10050 0ebf 0200     		.2byte	0x2
 10051 0ec1 30       		.byte	0x30
 10052 0ec2 9F       		.byte	0x9f
 10053 0ec3 18000000 		.4byte	.LVL225
 10054 0ec7 1A000000 		.4byte	.LVL226
 10055 0ecb 0100     		.2byte	0x1
 10056 0ecd 53       		.byte	0x53
 10057 0ece 1A000000 		.4byte	.LVL226
 10058 0ed2 0E040000 		.4byte	.LVL326
 10059 0ed6 0100     		.2byte	0x1
 10060 0ed8 59       		.byte	0x59
 10061 0ed9 0E040000 		.4byte	.LVL326
 10062 0edd 12040000 		.4byte	.LVL327
ARM GAS  C:\Users\Phuong\AppData\Local\Temp\ccINfzqY.s 			page 197


 10063 0ee1 0100     		.2byte	0x1
 10064 0ee3 53       		.byte	0x53
 10065 0ee4 12040000 		.4byte	.LVL327
 10066 0ee8 80040000 		.4byte	.LVL360
 10067 0eec 0100     		.2byte	0x1
 10068 0eee 59       		.byte	0x59
 10069 0eef 00000000 		.4byte	0
 10070 0ef3 00000000 		.4byte	0
 10071              	.LLST64:
 10072 0ef7 56000000 		.4byte	.LVL233
 10073 0efb 64000000 		.4byte	.LVL234
 10074 0eff 0100     		.2byte	0x1
 10075 0f01 50       		.byte	0x50
 10076 0f02 6A000000 		.4byte	.LVL236
 10077 0f06 7A000000 		.4byte	.LVL237
 10078 0f0a 0100     		.2byte	0x1
 10079 0f0c 50       		.byte	0x50
 10080 0f0d D2000000 		.4byte	.LVL238
 10081 0f11 F0000000 		.4byte	.LVL239
 10082 0f15 0100     		.2byte	0x1
 10083 0f17 50       		.byte	0x50
 10084 0f18 48010000 		.4byte	.LVL249
 10085 0f1c 6E010000 		.4byte	.LVL250
 10086 0f20 0100     		.2byte	0x1
 10087 0f22 50       		.byte	0x50
 10088 0f23 72010000 		.4byte	.LVL251
 10089 0f27 7E010000 		.4byte	.LVL252
 10090 0f2b 0100     		.2byte	0x1
 10091 0f2d 50       		.byte	0x50
 10092 0f2e CE010000 		.4byte	.LVL262
 10093 0f32 E2010000 		.4byte	.LVL263
 10094 0f36 0100     		.2byte	0x1
 10095 0f38 50       		.byte	0x50
 10096 0f39 E6010000 		.4byte	.LVL264
 10097 0f3d 00020000 		.4byte	.LVL266
 10098 0f41 0100     		.2byte	0x1
 10099 0f43 50       		.byte	0x50
 10100 0f44 04020000 		.4byte	.LVL267
 10101 0f48 14020000 		.4byte	.LVL268
 10102 0f4c 0100     		.2byte	0x1
 10103 0f4e 50       		.byte	0x50
 10104 0f4f 18020000 		.4byte	.LVL269
 10105 0f53 2A020000 		.4byte	.LVL272
 10106 0f57 0100     		.2byte	0x1
 10107 0f59 50       		.byte	0x50
 10108 0f5a 2E020000 		.4byte	.LVL273
 10109 0f5e 3A020000 		.4byte	.LVL274
 10110 0f62 0100     		.2byte	0x1
 10111 0f64 50       		.byte	0x50
 10112 0f65 3E020000 		.4byte	.LVL275
 10113 0f69 52020000 		.4byte	.LVL276
 10114 0f6d 0100     		.2byte	0x1
 10115 0f6f 50       		.byte	0x50
 10116 0f70 AC020000 		.4byte	.LVL286
 10117 0f74 C8020000 		.4byte	.LVL287
 10118 0f78 0100     		.2byte	0x1
 10119 0f7a 50       		.byte	0x50
ARM GAS  C:\Users\Phuong\AppData\Local\Temp\ccINfzqY.s 			page 198


 10120 0f7b EE020000 		.4byte	.LVL288
 10121 0f7f 02030000 		.4byte	.LVL290
 10122 0f83 0100     		.2byte	0x1
 10123 0f85 50       		.byte	0x50
 10124 0f86 06030000 		.4byte	.LVL291
 10125 0f8a 16030000 		.4byte	.LVL292
 10126 0f8e 0100     		.2byte	0x1
 10127 0f90 50       		.byte	0x50
 10128 0f91 1A030000 		.4byte	.LVL293
 10129 0f95 64030000 		.4byte	.LVL296
 10130 0f99 0100     		.2byte	0x1
 10131 0f9b 50       		.byte	0x50
 10132 0f9c 68030000 		.4byte	.LVL297
 10133 0fa0 72030000 		.4byte	.LVL298
 10134 0fa4 0100     		.2byte	0x1
 10135 0fa6 50       		.byte	0x50
 10136 0fa7 76030000 		.4byte	.LVL299
 10137 0fab 90030000 		.4byte	.LVL300
 10138 0faf 0100     		.2byte	0x1
 10139 0fb1 50       		.byte	0x50
 10140 0fb2 12040000 		.4byte	.LVL327
 10141 0fb6 64040000 		.4byte	.LVL355
 10142 0fba 0100     		.2byte	0x1
 10143 0fbc 50       		.byte	0x50
 10144 0fbd 64040000 		.4byte	.LVL355
 10145 0fc1 80040000 		.4byte	.LVL358
 10146 0fc5 0100     		.2byte	0x1
 10147 0fc7 54       		.byte	0x54
 10148 0fc8 80040000 		.4byte	.LVL358
 10149 0fcc 9C040000 		.4byte	.LFE18
 10150 0fd0 0100     		.2byte	0x1
 10151 0fd2 50       		.byte	0x50
 10152 0fd3 00000000 		.4byte	0
 10153 0fd7 00000000 		.4byte	0
 10154              	.LLST65:
 10155 0fdb 20000000 		.4byte	.LVL227
 10156 0fdf 24000000 		.4byte	.LVL228
 10157 0fe3 0100     		.2byte	0x1
 10158 0fe5 53       		.byte	0x53
 10159 0fe6 24000000 		.4byte	.LVL228
 10160 0fea C6030000 		.4byte	.LVL307
 10161 0fee 0300     		.2byte	0x3
 10162 0ff0 91       		.byte	0x91
 10163 0ff1 EC7B     		.sleb128 -532
 10164 0ff3 DE030000 		.4byte	.LVL310
 10165 0ff7 0E040000 		.4byte	.LVL326
 10166 0ffb 0300     		.2byte	0x3
 10167 0ffd 91       		.byte	0x91
 10168 0ffe EC7B     		.sleb128 -532
 10169 1000 12040000 		.4byte	.LVL327
 10170 1004 64040000 		.4byte	.LVL355
 10171 1008 0300     		.2byte	0x3
 10172 100a 91       		.byte	0x91
 10173 100b EC7B     		.sleb128 -532
 10174 100d 00000000 		.4byte	0
 10175 1011 00000000 		.4byte	0
 10176              	.LLST66:
ARM GAS  C:\Users\Phuong\AppData\Local\Temp\ccINfzqY.s 			page 199


 10177 1015 F6010000 		.4byte	.LVL265
 10178 1019 22020000 		.4byte	.LVL271
 10179 101d 0100     		.2byte	0x1
 10180 101f 56       		.byte	0x56
 10181 1020 36040000 		.4byte	.LVL339
 10182 1024 3C040000 		.4byte	.LVL341
 10183 1028 0100     		.2byte	0x1
 10184 102a 56       		.byte	0x56
 10185 102b 00000000 		.4byte	0
 10186 102f 00000000 		.4byte	0
 10187              	.LLST67:
 10188 1033 FA020000 		.4byte	.LVL289
 10189 1037 5C030000 		.4byte	.LVL295
 10190 103b 0100     		.2byte	0x1
 10191 103d 56       		.byte	0x56
 10192 103e 54040000 		.4byte	.LVL349
 10193 1042 5A040000 		.4byte	.LVL351
 10194 1046 0100     		.2byte	0x1
 10195 1048 56       		.byte	0x56
 10196 1049 00000000 		.4byte	0
 10197 104d 00000000 		.4byte	0
 10198              		.section	.debug_aranges,"",%progbits
 10199 0000 6C000000 		.4byte	0x6c
 10200 0004 0200     		.2byte	0x2
 10201 0006 00000000 		.4byte	.Ldebug_info0
 10202 000a 04       		.byte	0x4
 10203 000b 00       		.byte	0
 10204 000c 0000     		.2byte	0
 10205 000e 0000     		.2byte	0
 10206 0010 00000000 		.4byte	.LFB11
 10207 0014 30010000 		.4byte	.LFE11-.LFB11
 10208 0018 00000000 		.4byte	.LFB9
 10209 001c 8E010000 		.4byte	.LFE9-.LFB9
 10210 0020 00000000 		.4byte	.LFB8
 10211 0024 0E000000 		.4byte	.LFE8-.LFB8
 10212 0028 00000000 		.4byte	.LFB10
 10213 002c 52000000 		.4byte	.LFE10-.LFB10
 10214 0030 00000000 		.4byte	.LFB12
 10215 0034 78010000 		.4byte	.LFE12-.LFB12
 10216 0038 00000000 		.4byte	.LFB13
 10217 003c 0A010000 		.4byte	.LFE13-.LFB13
 10218 0040 00000000 		.4byte	.LFB14
 10219 0044 1E010000 		.4byte	.LFE14-.LFB14
 10220 0048 00000000 		.4byte	.LFB15
 10221 004c 3A000000 		.4byte	.LFE15-.LFB15
 10222 0050 00000000 		.4byte	.LFB16
 10223 0054 5E000000 		.4byte	.LFE16-.LFB16
 10224 0058 00000000 		.4byte	.LFB17
 10225 005c 14000000 		.4byte	.LFE17-.LFB17
 10226 0060 00000000 		.4byte	.LFB18
 10227 0064 9C040000 		.4byte	.LFE18-.LFB18
 10228 0068 00000000 		.4byte	0
 10229 006c 00000000 		.4byte	0
 10230              		.section	.debug_ranges,"",%progbits
 10231              	.Ldebug_ranges0:
 10232 0000 18000000 		.4byte	.LBB4
 10233 0004 20020000 		.4byte	.LBE4
ARM GAS  C:\Users\Phuong\AppData\Local\Temp\ccINfzqY.s 			page 200


 10234 0008 22020000 		.4byte	.LBB7
 10235 000c 22030000 		.4byte	.LBE7
 10236 0010 5C030000 		.4byte	.LBB8
 10237 0014 C0030000 		.4byte	.LBE8
 10238 0018 E0030000 		.4byte	.LBB9
 10239 001c 0E040000 		.4byte	.LBE9
 10240 0020 00000000 		.4byte	0
 10241 0024 00000000 		.4byte	0
 10242 0028 00000000 		.4byte	.LFB11
 10243 002c 30010000 		.4byte	.LFE11
 10244 0030 00000000 		.4byte	.LFB9
 10245 0034 8E010000 		.4byte	.LFE9
 10246 0038 00000000 		.4byte	.LFB8
 10247 003c 0E000000 		.4byte	.LFE8
 10248 0040 00000000 		.4byte	.LFB10
 10249 0044 52000000 		.4byte	.LFE10
 10250 0048 00000000 		.4byte	.LFB12
 10251 004c 78010000 		.4byte	.LFE12
 10252 0050 00000000 		.4byte	.LFB13
 10253 0054 0A010000 		.4byte	.LFE13
 10254 0058 00000000 		.4byte	.LFB14
 10255 005c 1E010000 		.4byte	.LFE14
 10256 0060 00000000 		.4byte	.LFB15
 10257 0064 3A000000 		.4byte	.LFE15
 10258 0068 00000000 		.4byte	.LFB16
 10259 006c 5E000000 		.4byte	.LFE16
 10260 0070 00000000 		.4byte	.LFB17
 10261 0074 14000000 		.4byte	.LFE17
 10262 0078 00000000 		.4byte	.LFB18
 10263 007c 9C040000 		.4byte	.LFE18
 10264 0080 00000000 		.4byte	0
 10265 0084 00000000 		.4byte	0
 10266              		.section	.debug_line,"",%progbits
 10267              	.Ldebug_line0:
 10268 0000 B2050000 		.section	.debug_str,"MS",%progbits,1
 10268      02009202 
 10268      00000201 
 10268      FB0E0D00 
 10268      01010101 
 10269              	.LASF162:
 10270 0000 6D626564 		.ascii	"mbedtls_gcm_init\000"
 10270      746C735F 
 10270      67636D5F 
 10270      696E6974 
 10270      00
 10271              	.LASF87:
 10272 0011 4D424544 		.ascii	"MBEDTLS_CIPHER_ARIA_256_GCM\000"
 10272      544C535F 
 10272      43495048 
 10272      45525F41 
 10272      5249415F 
 10273              	.LASF128:
 10274 002d 6F706572 		.ascii	"operation\000"
 10274      6174696F 
 10274      6E00
 10275              	.LASF140:
 10276 0037 6F757470 		.ascii	"output\000"
ARM GAS  C:\Users\Phuong\AppData\Local\Temp\ccINfzqY.s 			page 201


 10276      757400
 10277              	.LASF191:
 10278 003e 536F7572 		.ascii	"Source\\mbedtls_open\\library\\gcm.c\000"
 10278      63655C6D 
 10278      62656474 
 10278      6C735F6F 
 10278      70656E5C 
 10279              	.LASF188:
 10280 0060 5F5F6275 		.ascii	"__builtin_puts\000"
 10280      696C7469 
 10280      6E5F7075 
 10280      747300
 10281              	.LASF55:
 10282 006f 4D424544 		.ascii	"MBEDTLS_CIPHER_CAMELLIA_256_GCM\000"
 10282      544C535F 
 10282      43495048 
 10282      45525F43 
 10282      414D454C 
 10283              	.LASF63:
 10284 008f 4D424544 		.ascii	"MBEDTLS_CIPHER_BLOWFISH_CBC\000"
 10284      544C535F 
 10284      43495048 
 10284      45525F42 
 10284      4C4F5746 
 10285              	.LASF104:
 10286 00ab 4D424544 		.ascii	"MBEDTLS_MODE_CTR\000"
 10286      544C535F 
 10286      4D4F4445 
 10286      5F435452 
 10286      00
 10287              	.LASF121:
 10288 00bc 666C6167 		.ascii	"flags\000"
 10288      7300
 10289              	.LASF143:
 10290 00c2 6B657962 		.ascii	"keybits\000"
 10290      69747300 
 10291              	.LASF98:
 10292 00ca 6D626564 		.ascii	"mbedtls_cipher_type_t\000"
 10292      746C735F 
 10292      63697068 
 10292      65725F74 
 10292      7970655F 
 10293              	.LASF10:
 10294 00e0 756E7369 		.ascii	"unsigned int\000"
 10294      676E6564 
 10294      20696E74 
 10294      00
 10295              	.LASF25:
 10296 00ed 4D424544 		.ascii	"MBEDTLS_CIPHER_NULL\000"
 10296      544C535F 
 10296      43495048 
 10296      45525F4E 
 10296      554C4C00 
 10297              	.LASF115:
 10298 0101 6D626564 		.ascii	"mbedtls_cipher_base_t\000"
 10298      746C735F 
 10298      63697068 
ARM GAS  C:\Users\Phuong\AppData\Local\Temp\ccINfzqY.s 			page 202


 10298      65725F62 
 10298      6173655F 
 10299              	.LASF26:
 10300 0117 4D424544 		.ascii	"MBEDTLS_CIPHER_AES_128_ECB\000"
 10300      544C535F 
 10300      43495048 
 10300      45525F41 
 10300      45535F31 
 10301              	.LASF32:
 10302 0132 4D424544 		.ascii	"MBEDTLS_CIPHER_AES_128_CFB128\000"
 10302      544C535F 
 10302      43495048 
 10302      45525F41 
 10302      45535F31 
 10303              	.LASF102:
 10304 0150 4D424544 		.ascii	"MBEDTLS_MODE_CFB\000"
 10304      544C535F 
 10304      4D4F4445 
 10304      5F434642 
 10304      00
 10305              	.LASF79:
 10306 0161 4D424544 		.ascii	"MBEDTLS_CIPHER_ARIA_128_CFB128\000"
 10306      544C535F 
 10306      43495048 
 10306      45525F41 
 10306      5249415F 
 10307              	.LASF73:
 10308 0180 4D424544 		.ascii	"MBEDTLS_CIPHER_ARIA_128_ECB\000"
 10308      544C535F 
 10308      43495048 
 10308      45525F41 
 10308      5249415F 
 10309              	.LASF117:
 10310 019c 6D6F6465 		.ascii	"mode\000"
 10310      00
 10311              	.LASF187:
 10312 01a1 70757463 		.ascii	"putchar\000"
 10312      68617200 
 10313              	.LASF49:
 10314 01a9 4D424544 		.ascii	"MBEDTLS_CIPHER_CAMELLIA_256_CFB128\000"
 10314      544C535F 
 10314      43495048 
 10314      45525F43 
 10314      414D454C 
 10315              	.LASF114:
 10316 01cc 6D626564 		.ascii	"mbedtls_operation_t\000"
 10316      746C735F 
 10316      6F706572 
 10316      6174696F 
 10316      6E5F7400 
 10317              	.LASF41:
 10318 01e0 4D424544 		.ascii	"MBEDTLS_CIPHER_CAMELLIA_128_ECB\000"
 10318      544C535F 
 10318      43495048 
 10318      45525F43 
 10318      414D454C 
 10319              	.LASF28:
ARM GAS  C:\Users\Phuong\AppData\Local\Temp\ccINfzqY.s 			page 203


 10320 0200 4D424544 		.ascii	"MBEDTLS_CIPHER_AES_256_ECB\000"
 10320      544C535F 
 10320      43495048 
 10320      45525F41 
 10320      45535F32 
 10321              	.LASF137:
 10322 021b 6D626564 		.ascii	"mbedtls_gcm_context\000"
 10322      746C735F 
 10322      67636D5F 
 10322      636F6E74 
 10322      65787400 
 10323              	.LASF141:
 10324 022f 6F6C656E 		.ascii	"olen\000"
 10324      00
 10325              	.LASF58:
 10326 0234 4D424544 		.ascii	"MBEDTLS_CIPHER_DES_EDE_ECB\000"
 10326      544C535F 
 10326      43495048 
 10326      45525F44 
 10326      45535F45 
 10327              	.LASF171:
 10328 024f 69765F69 		.ascii	"iv_index\000"
 10328      6E646578 
 10328      00
 10329              	.LASF135:
 10330 0258 75696E74 		.ascii	"uint32_t\000"
 10330      33325F74 
 10330      00
 10331              	.LASF161:
 10332 0261 64696666 		.ascii	"diff\000"
 10332      00
 10333              	.LASF111:
 10334 0266 4D424544 		.ascii	"MBEDTLS_OPERATION_NONE\000"
 10334      544C535F 
 10334      4F504552 
 10334      4154494F 
 10334      4E5F4E4F 
 10335              	.LASF75:
 10336 027d 4D424544 		.ascii	"MBEDTLS_CIPHER_ARIA_256_ECB\000"
 10336      544C535F 
 10336      43495048 
 10336      45525F41 
 10336      5249415F 
 10337              	.LASF96:
 10338 0299 4D424544 		.ascii	"MBEDTLS_CIPHER_CHACHA20\000"
 10338      544C535F 
 10338      43495048 
 10338      45525F43 
 10338      48414348 
 10339              	.LASF190:
 10340 02b1 474E5520 		.ascii	"GNU C11 5.4.1 20160609 (release) [ARM/embedded-5-br"
 10340      43313120 
 10340      352E342E 
 10340      31203230 
 10340      31363036 
 10341 02e4 616E6368 		.ascii	"anch revision 237715] -mcpu=cortex-m0plus -mthumb -"
 10341      20726576 
ARM GAS  C:\Users\Phuong\AppData\Local\Temp\ccINfzqY.s 			page 204


 10341      6973696F 
 10341      6E203233 
 10341      37373135 
 10342 0317 67202D4F 		.ascii	"g -Og -ffunction-sections -ffat-lto-objects\000"
 10342      67202D66 
 10342      66756E63 
 10342      74696F6E 
 10342      2D736563 
 10343              	.LASF123:
 10344 0343 62617365 		.ascii	"base\000"
 10344      00
 10345              	.LASF23:
 10346 0348 6D626564 		.ascii	"mbedtls_cipher_id_t\000"
 10346      746C735F 
 10346      63697068 
 10346      65725F69 
 10346      645F7400 
 10347              	.LASF43:
 10348 035c 4D424544 		.ascii	"MBEDTLS_CIPHER_CAMELLIA_256_ECB\000"
 10348      544C535F 
 10348      43495048 
 10348      45525F43 
 10348      414D454C 
 10349              	.LASF65:
 10350 037c 4D424544 		.ascii	"MBEDTLS_CIPHER_BLOWFISH_CTR\000"
 10350      544C535F 
 10350      43495048 
 10350      45525F42 
 10350      4C4F5746 
 10351              	.LASF9:
 10352 0398 6C6F6E67 		.ascii	"long long unsigned int\000"
 10352      206C6F6E 
 10352      6720756E 
 10352      7369676E 
 10352      65642069 
 10353              	.LASF29:
 10354 03af 4D424544 		.ascii	"MBEDTLS_CIPHER_AES_128_CBC\000"
 10354      544C535F 
 10354      43495048 
 10354      45525F41 
 10354      45535F31 
 10355              	.LASF39:
 10356 03ca 4D424544 		.ascii	"MBEDTLS_CIPHER_AES_192_GCM\000"
 10356      544C535F 
 10356      43495048 
 10356      45525F41 
 10356      45535F31 
 10357              	.LASF174:
 10358 03e5 70745F6C 		.ascii	"pt_len\000"
 10358      656E00
 10359              	.LASF110:
 10360 03ec 6D626564 		.ascii	"mbedtls_cipher_mode_t\000"
 10360      746C735F 
 10360      63697068 
 10360      65725F6D 
 10360      6F64655F 
 10361              	.LASF91:
ARM GAS  C:\Users\Phuong\AppData\Local\Temp\ccINfzqY.s 			page 205


 10362 0402 4D424544 		.ascii	"MBEDTLS_CIPHER_AES_128_OFB\000"
 10362      544C535F 
 10362      43495048 
 10362      45525F41 
 10362      45535F31 
 10363              	.LASF113:
 10364 041d 4D424544 		.ascii	"MBEDTLS_ENCRYPT\000"
 10364      544C535F 
 10364      454E4352 
 10364      59505400 
 10365              	.LASF112:
 10366 042d 4D424544 		.ascii	"MBEDTLS_DECRYPT\000"
 10366      544C535F 
 10366      44454352 
 10366      59505400 
 10367              	.LASF76:
 10368 043d 4D424544 		.ascii	"MBEDTLS_CIPHER_ARIA_128_CBC\000"
 10368      544C535F 
 10368      43495048 
 10368      45525F41 
 10368      5249415F 
 10369              	.LASF125:
 10370 0459 6D626564 		.ascii	"mbedtls_cipher_info_t\000"
 10370      746C735F 
 10370      63697068 
 10370      65725F69 
 10370      6E666F5F 
 10371              	.LASF194:
 10372 046f 67636D5F 		.ascii	"gcm_gen_table\000"
 10372      67656E5F 
 10372      7461626C 
 10372      6500
 10373              	.LASF86:
 10374 047d 4D424544 		.ascii	"MBEDTLS_CIPHER_ARIA_192_GCM\000"
 10374      544C535F 
 10374      43495048 
 10374      45525F41 
 10374      5249415F 
 10375              	.LASF192:
 10376 0499 433A5C55 		.ascii	"C:\\Users\\Phuong\\Documents\\PSoC Creator\\Dec0820"
 10376      73657273 
 10376      5C506875 
 10376      6F6E675C 
 10376      446F6375 
 10377 04c7 31385C69 		.ascii	"18\\iot-sdk-iot-dev\\PSOC6_FreeRTOS+LwIP+MbedTLS_Az"
 10377      6F742D73 
 10377      646B2D69 
 10377      6F742D64 
 10377      65765C50 
 10378 04f8 7572652D 		.ascii	"ure-IOT-Hub-Demo\\PSOC6_FreeRTOS+LwIP+MbedTLS_Azure"
 10378      494F542D 
 10378      4875622D 
 10378      44656D6F 
 10378      5C50534F 
 10379 052a 2D494F54 		.ascii	"-IOT-Hub-Demo.cydsn\000"
 10379      2D487562 
 10379      2D44656D 
ARM GAS  C:\Users\Phuong\AppData\Local\Temp\ccINfzqY.s 			page 206


 10379      6F2E6379 
 10379      64736E00 
 10380              	.LASF146:
 10381 053e 69765F6C 		.ascii	"iv_len\000"
 10381      656E00
 10382              	.LASF44:
 10383 0545 4D424544 		.ascii	"MBEDTLS_CIPHER_CAMELLIA_128_CBC\000"
 10383      544C535F 
 10383      43495048 
 10383      45525F43 
 10383      414D454C 
 10384              	.LASF186:
 10385 0565 70757473 		.ascii	"puts\000"
 10385      00
 10386              	.LASF31:
 10387 056a 4D424544 		.ascii	"MBEDTLS_CIPHER_AES_256_CBC\000"
 10387      544C535F 
 10387      43495048 
 10387      45525F41 
 10387      45535F32 
 10388              	.LASF132:
 10389 0585 756E7072 		.ascii	"unprocessed_len\000"
 10389      6F636573 
 10389      7365645F 
 10389      6C656E00 
 10390              	.LASF11:
 10391 0595 73697A65 		.ascii	"size_t\000"
 10391      5F7400
 10392              	.LASF54:
 10393 059c 4D424544 		.ascii	"MBEDTLS_CIPHER_CAMELLIA_192_GCM\000"
 10393      544C535F 
 10393      43495048 
 10393      45525F43 
 10393      414D454C 
 10394              	.LASF59:
 10395 05bc 4D424544 		.ascii	"MBEDTLS_CIPHER_DES_EDE_CBC\000"
 10395      544C535F 
 10395      43495048 
 10395      45525F44 
 10395      45535F45 
 10396              	.LASF155:
 10397 05d7 7461675F 		.ascii	"tag_len\000"
 10397      6C656E00 
 10398              	.LASF177:
 10399 05df 6D626564 		.ascii	"mbedtls_cipher_info_from_values\000"
 10399      746C735F 
 10399      63697068 
 10399      65725F69 
 10399      6E666F5F 
 10400              	.LASF93:
 10401 05ff 4D424544 		.ascii	"MBEDTLS_CIPHER_AES_256_OFB\000"
 10401      544C535F 
 10401      43495048 
 10401      45525F41 
 10401      45535F32 
 10402              	.LASF99:
 10403 061a 4D424544 		.ascii	"MBEDTLS_MODE_NONE\000"
ARM GAS  C:\Users\Phuong\AppData\Local\Temp\ccINfzqY.s 			page 207


 10403      544C535F 
 10403      4D4F4445 
 10403      5F4E4F4E 
 10403      4500
 10404              	.LASF78:
 10405 062c 4D424544 		.ascii	"MBEDTLS_CIPHER_ARIA_256_CBC\000"
 10405      544C535F 
 10405      43495048 
 10405      45525F41 
 10405      5249415F 
 10406              	.LASF156:
 10407 0648 6F726967 		.ascii	"orig_len\000"
 10407      5F6C656E 
 10407      00
 10408              	.LASF88:
 10409 0651 4D424544 		.ascii	"MBEDTLS_CIPHER_ARIA_128_CCM\000"
 10409      544C535F 
 10409      43495048 
 10409      45525F41 
 10409      5249415F 
 10410              	.LASF8:
 10411 066d 5F5F7569 		.ascii	"__uint64_t\000"
 10411      6E743634 
 10411      5F7400
 10412              	.LASF60:
 10413 0678 4D424544 		.ascii	"MBEDTLS_CIPHER_DES_EDE3_ECB\000"
 10413      544C535F 
 10413      43495048 
 10413      45525F44 
 10413      45535F45 
 10414              	.LASF20:
 10415 0694 4D424544 		.ascii	"MBEDTLS_CIPHER_ID_ARC4\000"
 10415      544C535F 
 10415      43495048 
 10415      45525F49 
 10415      445F4152 
 10416              	.LASF46:
 10417 06ab 4D424544 		.ascii	"MBEDTLS_CIPHER_CAMELLIA_256_CBC\000"
 10417      544C535F 
 10417      43495048 
 10417      45525F43 
 10417      414D454C 
 10418              	.LASF180:
 10419 06cb 6D626564 		.ascii	"mbedtls_cipher_setkey\000"
 10419      746C735F 
 10419      63697068 
 10419      65725F73 
 10419      65746B65 
 10420              	.LASF70:
 10421 06e1 4D424544 		.ascii	"MBEDTLS_CIPHER_CAMELLIA_128_CCM\000"
 10421      544C535F 
 10421      43495048 
 10421      45525F43 
 10421      414D454C 
 10422              	.LASF108:
 10423 0701 4D424544 		.ascii	"MBEDTLS_MODE_XTS\000"
 10423      544C535F 
ARM GAS  C:\Users\Phuong\AppData\Local\Temp\ccINfzqY.s 			page 208


 10423      4D4F4445 
 10423      5F585453 
 10423      00
 10424              	.LASF69:
 10425 0712 4D424544 		.ascii	"MBEDTLS_CIPHER_AES_256_CCM\000"
 10425      544C535F 
 10425      43495048 
 10425      45525F41 
 10425      45535F32 
 10426              	.LASF166:
 10427 072d 7461675F 		.ascii	"tag_buf\000"
 10427      62756600 
 10428              	.LASF124:
 10429 0735 63686172 		.ascii	"char\000"
 10429      00
 10430              	.LASF64:
 10431 073a 4D424544 		.ascii	"MBEDTLS_CIPHER_BLOWFISH_CFB64\000"
 10431      544C535F 
 10431      43495048 
 10431      45525F42 
 10431      4C4F5746 
 10432              	.LASF19:
 10433 0758 4D424544 		.ascii	"MBEDTLS_CIPHER_ID_BLOWFISH\000"
 10433      544C535F 
 10433      43495048 
 10433      45525F49 
 10433      445F424C 
 10434              	.LASF189:
 10435 0773 5F5F6275 		.ascii	"__builtin_putchar\000"
 10435      696C7469 
 10435      6E5F7075 
 10435      74636861 
 10435      7200
 10436              	.LASF13:
 10437 0785 4D424544 		.ascii	"MBEDTLS_CIPHER_ID_NONE\000"
 10437      544C535F 
 10437      43495048 
 10437      45525F49 
 10437      445F4E4F 
 10438              	.LASF90:
 10439 079c 4D424544 		.ascii	"MBEDTLS_CIPHER_ARIA_256_CCM\000"
 10439      544C535F 
 10439      43495048 
 10439      45525F41 
 10439      5249415F 
 10440              	.LASF106:
 10441 07b8 4D424544 		.ascii	"MBEDTLS_MODE_STREAM\000"
 10441      544C535F 
 10441      4D4F4445 
 10441      5F535452 
 10441      45414D00 
 10442              	.LASF178:
 10443 07cc 6D626564 		.ascii	"mbedtls_cipher_free\000"
 10443      746C735F 
 10443      63697068 
 10443      65725F66 
 10443      72656500 
ARM GAS  C:\Users\Phuong\AppData\Local\Temp\ccINfzqY.s 			page 209


 10444              	.LASF195:
 10445 07e0 65786974 		.ascii	"exit\000"
 10445      00
 10446              	.LASF35:
 10447 07e5 4D424544 		.ascii	"MBEDTLS_CIPHER_AES_128_CTR\000"
 10447      544C535F 
 10447      43495048 
 10447      45525F41 
 10447      45535F31 
 10448              	.LASF157:
 10449 0800 6F726967 		.ascii	"orig_add_len\000"
 10449      5F616464 
 10449      5F6C656E 
 10449      00
 10450              	.LASF142:
 10451 080d 63697068 		.ascii	"cipher\000"
 10451      657200
 10452              	.LASF193:
 10453 0814 67636D5F 		.ascii	"gcm_mult\000"
 10453      6D756C74 
 10453      00
 10454              	.LASF27:
 10455 081d 4D424544 		.ascii	"MBEDTLS_CIPHER_AES_192_ECB\000"
 10455      544C535F 
 10455      43495048 
 10455      45525F41 
 10455      45535F31 
 10456              	.LASF72:
 10457 0838 4D424544 		.ascii	"MBEDTLS_CIPHER_CAMELLIA_256_CCM\000"
 10457      544C535F 
 10457      43495048 
 10457      45525F43 
 10457      414D454C 
 10458              	.LASF81:
 10459 0858 4D424544 		.ascii	"MBEDTLS_CIPHER_ARIA_256_CFB128\000"
 10459      544C535F 
 10459      43495048 
 10459      45525F41 
 10459      5249415F 
 10460              	.LASF82:
 10461 0877 4D424544 		.ascii	"MBEDTLS_CIPHER_ARIA_128_CTR\000"
 10461      544C535F 
 10461      43495048 
 10461      45525F41 
 10461      5249415F 
 10462              	.LASF160:
 10463 0893 63686563 		.ascii	"check_tag\000"
 10463      6B5F7461 
 10463      6700
 10464              	.LASF159:
 10465 089d 6D626564 		.ascii	"mbedtls_gcm_auth_decrypt\000"
 10465      746C735F 
 10465      67636D5F 
 10465      61757468 
 10465      5F646563 
 10466              	.LASF153:
 10467 08b6 6F75745F 		.ascii	"out_p\000"
ARM GAS  C:\Users\Phuong\AppData\Local\Temp\ccINfzqY.s 			page 210


 10467      7000
 10468              	.LASF176:
 10469 08bc 6D626564 		.ascii	"mbedtls_cipher_update\000"
 10469      746C735F 
 10469      63697068 
 10469      65725F75 
 10469      70646174 
 10470              	.LASF74:
 10471 08d2 4D424544 		.ascii	"MBEDTLS_CIPHER_ARIA_192_ECB\000"
 10471      544C535F 
 10471      43495048 
 10471      45525F41 
 10471      5249415F 
 10472              	.LASF67:
 10473 08ee 4D424544 		.ascii	"MBEDTLS_CIPHER_AES_128_CCM\000"
 10473      544C535F 
 10473      43495048 
 10473      45525F41 
 10473      45535F31 
 10474              	.LASF6:
 10475 0909 6C6F6E67 		.ascii	"long long int\000"
 10475      206C6F6E 
 10475      6720696E 
 10475      7400
 10476              	.LASF184:
 10477 0917 7072696E 		.ascii	"printf\000"
 10477      746600
 10478              	.LASF50:
 10479 091e 4D424544 		.ascii	"MBEDTLS_CIPHER_CAMELLIA_128_CTR\000"
 10479      544C535F 
 10479      43495048 
 10479      45525F43 
 10479      414D454C 
 10480              	.LASF149:
 10481 093e 6D626564 		.ascii	"mbedtls_gcm_update\000"
 10481      746C735F 
 10481      67636D5F 
 10481      75706461 
 10481      746500
 10482              	.LASF37:
 10483 0951 4D424544 		.ascii	"MBEDTLS_CIPHER_AES_256_CTR\000"
 10483      544C535F 
 10483      43495048 
 10483      45525F41 
 10483      45535F32 
 10484              	.LASF120:
 10485 096c 69765F73 		.ascii	"iv_size\000"
 10485      697A6500 
 10486              	.LASF42:
 10487 0974 4D424544 		.ascii	"MBEDTLS_CIPHER_CAMELLIA_192_ECB\000"
 10487      544C535F 
 10487      43495048 
 10487      45525F43 
 10487      414D454C 
 10488              	.LASF105:
 10489 0994 4D424544 		.ascii	"MBEDTLS_MODE_GCM\000"
 10489      544C535F 
ARM GAS  C:\Users\Phuong\AppData\Local\Temp\ccINfzqY.s 			page 211


 10489      4D4F4445 
 10489      5F47434D 
 10489      00
 10490              	.LASF167:
 10491 09a5 6B65795F 		.ascii	"key_len\000"
 10491      6C656E00 
 10492              	.LASF56:
 10493 09ad 4D424544 		.ascii	"MBEDTLS_CIPHER_DES_ECB\000"
 10493      544C535F 
 10493      43495048 
 10493      45525F44 
 10493      45535F45 
 10494              	.LASF181:
 10495 09c4 6D656D73 		.ascii	"memset\000"
 10495      657400
 10496              	.LASF84:
 10497 09cb 4D424544 		.ascii	"MBEDTLS_CIPHER_ARIA_256_CTR\000"
 10497      544C535F 
 10497      43495048 
 10497      45525F41 
 10497      5249415F 
 10498              	.LASF169:
 10499 09e7 6C617374 		.ascii	"last4\000"
 10499      3400
 10500              	.LASF173:
 10501 09ed 61646469 		.ascii	"additional\000"
 10501      74696F6E 
 10501      616C00
 10502              	.LASF24:
 10503 09f8 4D424544 		.ascii	"MBEDTLS_CIPHER_NONE\000"
 10503      544C535F 
 10503      43495048 
 10503      45525F4E 
 10503      4F4E4500 
 10504              	.LASF148:
 10505 0a0c 7573655F 		.ascii	"use_len\000"
 10505      6C656E00 
 10506              	.LASF34:
 10507 0a14 4D424544 		.ascii	"MBEDTLS_CIPHER_AES_256_CFB128\000"
 10507      544C535F 
 10507      43495048 
 10507      45525F41 
 10507      45535F32 
 10508              	.LASF48:
 10509 0a32 4D424544 		.ascii	"MBEDTLS_CIPHER_CAMELLIA_192_CFB128\000"
 10509      544C535F 
 10509      43495048 
 10509      45525F43 
 10509      414D454C 
 10510              	.LASF109:
 10511 0a55 4D424544 		.ascii	"MBEDTLS_MODE_CHACHAPOLY\000"
 10511      544C535F 
 10511      4D4F4445 
 10511      5F434841 
 10511      43484150 
 10512              	.LASF52:
 10513 0a6d 4D424544 		.ascii	"MBEDTLS_CIPHER_CAMELLIA_256_CTR\000"
ARM GAS  C:\Users\Phuong\AppData\Local\Temp\ccINfzqY.s 			page 212


 10513      544C535F 
 10513      43495048 
 10513      45525F43 
 10513      414D454C 
 10514              	.LASF175:
 10515 0a8d 70745F69 		.ascii	"pt_index\000"
 10515      6E646578 
 10515      00
 10516              	.LASF163:
 10517 0a96 6D626564 		.ascii	"mbedtls_gcm_free\000"
 10517      746C735F 
 10517      67636D5F 
 10517      66726565 
 10517      00
 10518              	.LASF30:
 10519 0aa7 4D424544 		.ascii	"MBEDTLS_CIPHER_AES_192_CBC\000"
 10519      544C535F 
 10519      43495048 
 10519      45525F41 
 10519      45535F31 
 10520              	.LASF92:
 10521 0ac2 4D424544 		.ascii	"MBEDTLS_CIPHER_AES_192_OFB\000"
 10521      544C535F 
 10521      43495048 
 10521      45525F41 
 10521      45535F31 
 10522              	.LASF12:
 10523 0add 6C6F6E67 		.ascii	"long double\000"
 10523      20646F75 
 10523      626C6500 
 10524              	.LASF77:
 10525 0ae9 4D424544 		.ascii	"MBEDTLS_CIPHER_ARIA_192_CBC\000"
 10525      544C535F 
 10525      43495048 
 10525      45525F41 
 10525      5249415F 
 10526              	.LASF15:
 10527 0b05 4D424544 		.ascii	"MBEDTLS_CIPHER_ID_AES\000"
 10527      544C535F 
 10527      43495048 
 10527      45525F49 
 10527      445F4145 
 10528              	.LASF158:
 10529 0b1b 6D626564 		.ascii	"mbedtls_gcm_crypt_and_tag\000"
 10529      746C735F 
 10529      67636D5F 
 10529      63727970 
 10529      745F616E 
 10530              	.LASF170:
 10531 0b35 6B65795F 		.ascii	"key_index\000"
 10531      696E6465 
 10531      7800
 10532              	.LASF45:
 10533 0b3f 4D424544 		.ascii	"MBEDTLS_CIPHER_CAMELLIA_192_CBC\000"
 10533      544C535F 
 10533      43495048 
 10533      45525F43 
ARM GAS  C:\Users\Phuong\AppData\Local\Temp\ccINfzqY.s 			page 213


 10533      414D454C 
 10534              	.LASF154:
 10535 0b5f 6D626564 		.ascii	"mbedtls_gcm_finish\000"
 10535      746C735F 
 10535      67636D5F 
 10535      66696E69 
 10535      736800
 10536              	.LASF68:
 10537 0b72 4D424544 		.ascii	"MBEDTLS_CIPHER_AES_192_CCM\000"
 10537      544C535F 
 10537      43495048 
 10537      45525F41 
 10537      45535F31 
 10538              	.LASF2:
 10539 0b8d 73686F72 		.ascii	"short int\000"
 10539      7420696E 
 10539      7400
 10540              	.LASF168:
 10541 0b97 72657374 		.ascii	"rest_len\000"
 10541      5F6C656E 
 10541      00
 10542              	.LASF14:
 10543 0ba0 4D424544 		.ascii	"MBEDTLS_CIPHER_ID_NULL\000"
 10543      544C535F 
 10543      43495048 
 10543      45525F49 
 10543      445F4E55 
 10544              	.LASF138:
 10545 0bb7 6164645F 		.ascii	"add_len\000"
 10545      6C656E00 
 10546              	.LASF4:
 10547 0bbf 6C6F6E67 		.ascii	"long int\000"
 10547      20696E74 
 10547      00
 10548              	.LASF150:
 10549 0bc8 6C656E67 		.ascii	"length\000"
 10549      746800
 10550              	.LASF38:
 10551 0bcf 4D424544 		.ascii	"MBEDTLS_CIPHER_AES_128_GCM\000"
 10551      544C535F 
 10551      43495048 
 10551      45525F41 
 10551      45535F31 
 10552              	.LASF47:
 10553 0bea 4D424544 		.ascii	"MBEDTLS_CIPHER_CAMELLIA_128_CFB128\000"
 10553      544C535F 
 10553      43495048 
 10553      45525F43 
 10553      414D454C 
 10554              	.LASF89:
 10555 0c0d 4D424544 		.ascii	"MBEDTLS_CIPHER_ARIA_192_CCM\000"
 10555      544C535F 
 10555      43495048 
 10555      45525F41 
 10555      5249415F 
 10556              	.LASF66:
 10557 0c29 4D424544 		.ascii	"MBEDTLS_CIPHER_ARC4_128\000"
ARM GAS  C:\Users\Phuong\AppData\Local\Temp\ccINfzqY.s 			page 214


 10557      544C535F 
 10557      43495048 
 10557      45525F41 
 10557      5243345F 
 10558              	.LASF100:
 10559 0c41 4D424544 		.ascii	"MBEDTLS_MODE_ECB\000"
 10559      544C535F 
 10559      4D4F4445 
 10559      5F454342 
 10559      00
 10560              	.LASF136:
 10561 0c52 75696E74 		.ascii	"uint64_t\000"
 10561      36345F74 
 10561      00
 10562              	.LASF130:
 10563 0c5b 6765745F 		.ascii	"get_padding\000"
 10563      70616464 
 10563      696E6700 
 10564              	.LASF122:
 10565 0c67 626C6F63 		.ascii	"block_size\000"
 10565      6B5F7369 
 10565      7A6500
 10566              	.LASF71:
 10567 0c72 4D424544 		.ascii	"MBEDTLS_CIPHER_CAMELLIA_192_CCM\000"
 10567      544C535F 
 10567      43495048 
 10567      45525F43 
 10567      414D454C 
 10568              	.LASF118:
 10569 0c92 6B65795F 		.ascii	"key_bitlen\000"
 10569      6269746C 
 10569      656E00
 10570              	.LASF57:
 10571 0c9d 4D424544 		.ascii	"MBEDTLS_CIPHER_DES_CBC\000"
 10571      544C535F 
 10571      43495048 
 10571      45525F44 
 10571      45535F43 
 10572              	.LASF127:
 10573 0cb4 63697068 		.ascii	"cipher_info\000"
 10573      65725F69 
 10573      6E666F00 
 10574              	.LASF133:
 10575 0cc0 63697068 		.ascii	"cipher_ctx\000"
 10575      65725F63 
 10575      747800
 10576              	.LASF119:
 10577 0ccb 6E616D65 		.ascii	"name\000"
 10577      00
 10578              	.LASF97:
 10579 0cd0 4D424544 		.ascii	"MBEDTLS_CIPHER_CHACHA20_POLY1305\000"
 10579      544C535F 
 10579      43495048 
 10579      45525F43 
 10579      48414348 
 10580              	.LASF147:
 10581 0cf1 776F726B 		.ascii	"work_buf\000"
ARM GAS  C:\Users\Phuong\AppData\Local\Temp\ccINfzqY.s 			page 215


 10581      5F627566 
 10581      00
 10582              	.LASF94:
 10583 0cfa 4D424544 		.ascii	"MBEDTLS_CIPHER_AES_128_XTS\000"
 10583      544C535F 
 10583      43495048 
 10583      45525F41 
 10583      45535F31 
 10584              	.LASF172:
 10585 0d15 6164645F 		.ascii	"add_index\000"
 10585      696E6465 
 10585      7800
 10586              	.LASF21:
 10587 0d1f 4D424544 		.ascii	"MBEDTLS_CIPHER_ID_ARIA\000"
 10587      544C535F 
 10587      43495048 
 10587      45525F49 
 10587      445F4152 
 10588              	.LASF134:
 10589 0d36 73697A65 		.ascii	"sizetype\000"
 10589      74797065 
 10589      00
 10590              	.LASF18:
 10591 0d3f 4D424544 		.ascii	"MBEDTLS_CIPHER_ID_CAMELLIA\000"
 10591      544C535F 
 10591      43495048 
 10591      45525F49 
 10591      445F4341 
 10592              	.LASF5:
 10593 0d5a 6C6F6E67 		.ascii	"long unsigned int\000"
 10593      20756E73 
 10593      69676E65 
 10593      6420696E 
 10593      7400
 10594              	.LASF139:
 10595 0d6c 62617365 		.ascii	"base_ectr\000"
 10595      5F656374 
 10595      7200
 10596              	.LASF36:
 10597 0d76 4D424544 		.ascii	"MBEDTLS_CIPHER_AES_192_CTR\000"
 10597      544C535F 
 10597      43495048 
 10597      45525F41 
 10597      45535F31 
 10598              	.LASF151:
 10599 0d91 696E7075 		.ascii	"input\000"
 10599      7400
 10600              	.LASF16:
 10601 0d97 4D424544 		.ascii	"MBEDTLS_CIPHER_ID_DES\000"
 10601      544C535F 
 10601      43495048 
 10601      45525F49 
 10601      445F4445 
 10602              	.LASF179:
 10603 0dad 6D626564 		.ascii	"mbedtls_cipher_setup\000"
 10603      746C735F 
 10603      63697068 
ARM GAS  C:\Users\Phuong\AppData\Local\Temp\ccINfzqY.s 			page 216


 10603      65725F73 
 10603      65747570 
 10604              	.LASF83:
 10605 0dc2 4D424544 		.ascii	"MBEDTLS_CIPHER_ARIA_192_CTR\000"
 10605      544C535F 
 10605      43495048 
 10605      45525F41 
 10605      5249415F 
 10606              	.LASF116:
 10607 0dde 74797065 		.ascii	"type\000"
 10607      00
 10608              	.LASF152:
 10609 0de3 65637472 		.ascii	"ectr\000"
 10609      00
 10610              	.LASF1:
 10611 0de8 756E7369 		.ascii	"unsigned char\000"
 10611      676E6564 
 10611      20636861 
 10611      7200
 10612              	.LASF7:
 10613 0df6 5F5F7569 		.ascii	"__uint32_t\000"
 10613      6E743332 
 10613      5F7400
 10614              	.LASF95:
 10615 0e01 4D424544 		.ascii	"MBEDTLS_CIPHER_AES_256_XTS\000"
 10615      544C535F 
 10615      43495048 
 10615      45525F41 
 10615      45535F32 
 10616              	.LASF51:
 10617 0e1c 4D424544 		.ascii	"MBEDTLS_CIPHER_CAMELLIA_192_CTR\000"
 10617      544C535F 
 10617      43495048 
 10617      45525F43 
 10617      414D454C 
 10618              	.LASF101:
 10619 0e3c 4D424544 		.ascii	"MBEDTLS_MODE_CBC\000"
 10619      544C535F 
 10619      4D4F4445 
 10619      5F434243 
 10619      00
 10620              	.LASF145:
 10621 0e4d 6D626564 		.ascii	"mbedtls_gcm_starts\000"
 10621      746C735F 
 10621      67636D5F 
 10621      73746172 
 10621      747300
 10622              	.LASF103:
 10623 0e60 4D424544 		.ascii	"MBEDTLS_MODE_OFB\000"
 10623      544C535F 
 10623      4D4F4445 
 10623      5F4F4642 
 10623      00
 10624              	.LASF126:
 10625 0e71 6D626564 		.ascii	"mbedtls_cipher_context_t\000"
 10625      746C735F 
 10625      63697068 
ARM GAS  C:\Users\Phuong\AppData\Local\Temp\ccINfzqY.s 			page 217


 10625      65725F63 
 10625      6F6E7465 
 10626              	.LASF22:
 10627 0e8a 4D424544 		.ascii	"MBEDTLS_CIPHER_ID_CHACHA20\000"
 10627      544C535F 
 10627      43495048 
 10627      45525F49 
 10627      445F4348 
 10628              	.LASF62:
 10629 0ea5 4D424544 		.ascii	"MBEDTLS_CIPHER_BLOWFISH_ECB\000"
 10629      544C535F 
 10629      43495048 
 10629      45525F42 
 10629      4C4F5746 
 10630              	.LASF165:
 10631 0ec1 76657262 		.ascii	"verbose\000"
 10631      6F736500 
 10632              	.LASF17:
 10633 0ec9 4D424544 		.ascii	"MBEDTLS_CIPHER_ID_3DES\000"
 10633      544C535F 
 10633      43495048 
 10633      45525F49 
 10633      445F3344 
 10634              	.LASF0:
 10635 0ee0 7369676E 		.ascii	"signed char\000"
 10635      65642063 
 10635      68617200 
 10636              	.LASF164:
 10637 0eec 6D626564 		.ascii	"mbedtls_gcm_self_test\000"
 10637      746C735F 
 10637      67636D5F 
 10637      73656C66 
 10637      5F746573 
 10638              	.LASF3:
 10639 0f02 73686F72 		.ascii	"short unsigned int\000"
 10639      7420756E 
 10639      7369676E 
 10639      65642069 
 10639      6E7400
 10640              	.LASF182:
 10641 0f15 6D656D63 		.ascii	"memcpy\000"
 10641      707900
 10642              	.LASF61:
 10643 0f1c 4D424544 		.ascii	"MBEDTLS_CIPHER_DES_EDE3_CBC\000"
 10643      544C535F 
 10643      43495048 
 10643      45525F44 
 10643      45535F45 
 10644              	.LASF144:
 10645 0f38 6D626564 		.ascii	"mbedtls_gcm_setkey\000"
 10645      746C735F 
 10645      67636D5F 
 10645      7365746B 
 10645      657900
 10646              	.LASF107:
 10647 0f4b 4D424544 		.ascii	"MBEDTLS_MODE_CCM\000"
 10647      544C535F 
ARM GAS  C:\Users\Phuong\AppData\Local\Temp\ccINfzqY.s 			page 218


 10647      4D4F4445 
 10647      5F43434D 
 10647      00
 10648              	.LASF185:
 10649 0f5c 6D656D63 		.ascii	"memcmp\000"
 10649      6D7000
 10650              	.LASF85:
 10651 0f63 4D424544 		.ascii	"MBEDTLS_CIPHER_ARIA_128_GCM\000"
 10651      544C535F 
 10651      43495048 
 10651      45525F41 
 10651      5249415F 
 10652              	.LASF129:
 10653 0f7f 6164645F 		.ascii	"add_padding\000"
 10653      70616464 
 10653      696E6700 
 10654              	.LASF131:
 10655 0f8b 756E7072 		.ascii	"unprocessed_data\000"
 10655      6F636573 
 10655      7365645F 
 10655      64617461 
 10655      00
 10656              	.LASF53:
 10657 0f9c 4D424544 		.ascii	"MBEDTLS_CIPHER_CAMELLIA_128_GCM\000"
 10657      544C535F 
 10657      43495048 
 10657      45525F43 
 10657      414D454C 
 10658              	.LASF40:
 10659 0fbc 4D424544 		.ascii	"MBEDTLS_CIPHER_AES_256_GCM\000"
 10659      544C535F 
 10659      43495048 
 10659      45525F41 
 10659      45535F32 
 10660              	.LASF183:
 10661 0fd7 6D626564 		.ascii	"mbedtls_platform_zeroize\000"
 10661      746C735F 
 10661      706C6174 
 10661      666F726D 
 10661      5F7A6572 
 10662              	.LASF33:
 10663 0ff0 4D424544 		.ascii	"MBEDTLS_CIPHER_AES_192_CFB128\000"
 10663      544C535F 
 10663      43495048 
 10663      45525F41 
 10663      45535F31 
 10664              	.LASF80:
 10665 100e 4D424544 		.ascii	"MBEDTLS_CIPHER_ARIA_192_CFB128\000"
 10665      544C535F 
 10665      43495048 
 10665      45525F41 
 10665      5249415F 
 10666              		.ident	"GCC: (GNU Tools for ARM Embedded Processors) 5.4.1 20160609 (release) [ARM/embedded-5-bran
