ARM GAS  C:\Users\Phuong\AppData\Local\Temp\ccIw5O3o.s 			page 1


   1              		.syntax unified
   2              		.cpu cortex-m0plus
   3              		.fpu softvfp
   4              		.eabi_attribute 20, 1
   5              		.eabi_attribute 21, 1
   6              		.eabi_attribute 23, 3
   7              		.eabi_attribute 24, 1
   8              		.eabi_attribute 25, 1
   9              		.eabi_attribute 26, 1
  10              		.eabi_attribute 30, 1
  11              		.eabi_attribute 34, 0
  12              		.eabi_attribute 18, 4
  13              		.thumb
  14              		.syntax unified
  15              		.file	"heap_4.c"
  16              		.text
  17              	.Ltext0:
  18              		.cfi_sections	.debug_frame
  19              		.section	.text.prvHeapInit,"ax",%progbits
  20              		.align	2
  21              		.code	16
  22              		.thumb_func
  23              		.type	prvHeapInit, %function
  24              	prvHeapInit:
  25              	.LFB41:
  26              		.file 1 "Source\\FreeRTOS\\10.0.1\\Source\\portable\\MemMang\\heap_4.c"
   1:Source\FreeRTOS\10.0.1\Source\portable\MemMang/heap_4.c **** /*
   2:Source\FreeRTOS\10.0.1\Source\portable\MemMang/heap_4.c ****  * FreeRTOS Kernel V10.0.1
   3:Source\FreeRTOS\10.0.1\Source\portable\MemMang/heap_4.c ****  * Copyright (C) 2017 Amazon.com, Inc. or its affiliates.  All Rights Reserved.
   4:Source\FreeRTOS\10.0.1\Source\portable\MemMang/heap_4.c ****  *
   5:Source\FreeRTOS\10.0.1\Source\portable\MemMang/heap_4.c ****  * Permission is hereby granted, free of charge, to any person obtaining a copy of
   6:Source\FreeRTOS\10.0.1\Source\portable\MemMang/heap_4.c ****  * this software and associated documentation files (the "Software"), to deal in
   7:Source\FreeRTOS\10.0.1\Source\portable\MemMang/heap_4.c ****  * the Software without restriction, including without limitation the rights to
   8:Source\FreeRTOS\10.0.1\Source\portable\MemMang/heap_4.c ****  * use, copy, modify, merge, publish, distribute, sublicense, and/or sell copies of
   9:Source\FreeRTOS\10.0.1\Source\portable\MemMang/heap_4.c ****  * the Software, and to permit persons to whom the Software is furnished to do so,
  10:Source\FreeRTOS\10.0.1\Source\portable\MemMang/heap_4.c ****  * subject to the following conditions:
  11:Source\FreeRTOS\10.0.1\Source\portable\MemMang/heap_4.c ****  *
  12:Source\FreeRTOS\10.0.1\Source\portable\MemMang/heap_4.c ****  * The above copyright notice and this permission notice shall be included in all
  13:Source\FreeRTOS\10.0.1\Source\portable\MemMang/heap_4.c ****  * copies or substantial portions of the Software.
  14:Source\FreeRTOS\10.0.1\Source\portable\MemMang/heap_4.c ****  *
  15:Source\FreeRTOS\10.0.1\Source\portable\MemMang/heap_4.c ****  * THE SOFTWARE IS PROVIDED "AS IS", WITHOUT WARRANTY OF ANY KIND, EXPRESS OR
  16:Source\FreeRTOS\10.0.1\Source\portable\MemMang/heap_4.c ****  * IMPLIED, INCLUDING BUT NOT LIMITED TO THE WARRANTIES OF MERCHANTABILITY, FITNESS
  17:Source\FreeRTOS\10.0.1\Source\portable\MemMang/heap_4.c ****  * FOR A PARTICULAR PURPOSE AND NONINFRINGEMENT. IN NO EVENT SHALL THE AUTHORS OR
  18:Source\FreeRTOS\10.0.1\Source\portable\MemMang/heap_4.c ****  * COPYRIGHT HOLDERS BE LIABLE FOR ANY CLAIM, DAMAGES OR OTHER LIABILITY, WHETHER
  19:Source\FreeRTOS\10.0.1\Source\portable\MemMang/heap_4.c ****  * IN AN ACTION OF CONTRACT, TORT OR OTHERWISE, ARISING FROM, OUT OF OR IN
  20:Source\FreeRTOS\10.0.1\Source\portable\MemMang/heap_4.c ****  * CONNECTION WITH THE SOFTWARE OR THE USE OR OTHER DEALINGS IN THE SOFTWARE.
  21:Source\FreeRTOS\10.0.1\Source\portable\MemMang/heap_4.c ****  *
  22:Source\FreeRTOS\10.0.1\Source\portable\MemMang/heap_4.c ****  * http://www.FreeRTOS.org
  23:Source\FreeRTOS\10.0.1\Source\portable\MemMang/heap_4.c ****  * http://aws.amazon.com/freertos
  24:Source\FreeRTOS\10.0.1\Source\portable\MemMang/heap_4.c ****  *
  25:Source\FreeRTOS\10.0.1\Source\portable\MemMang/heap_4.c ****  * 1 tab == 4 spaces!
  26:Source\FreeRTOS\10.0.1\Source\portable\MemMang/heap_4.c ****  */
  27:Source\FreeRTOS\10.0.1\Source\portable\MemMang/heap_4.c **** 
  28:Source\FreeRTOS\10.0.1\Source\portable\MemMang/heap_4.c **** /*
  29:Source\FreeRTOS\10.0.1\Source\portable\MemMang/heap_4.c ****  * A sample implementation of pvPortMalloc() and vPortFree() that combines
  30:Source\FreeRTOS\10.0.1\Source\portable\MemMang/heap_4.c ****  * (coalescences) adjacent memory blocks as they are freed, and in so doing
  31:Source\FreeRTOS\10.0.1\Source\portable\MemMang/heap_4.c ****  * limits memory fragmentation.
ARM GAS  C:\Users\Phuong\AppData\Local\Temp\ccIw5O3o.s 			page 2


  32:Source\FreeRTOS\10.0.1\Source\portable\MemMang/heap_4.c ****  *
  33:Source\FreeRTOS\10.0.1\Source\portable\MemMang/heap_4.c ****  * See heap_1.c, heap_2.c and heap_3.c for alternative implementations, and the
  34:Source\FreeRTOS\10.0.1\Source\portable\MemMang/heap_4.c ****  * memory management pages of http://www.FreeRTOS.org for more information.
  35:Source\FreeRTOS\10.0.1\Source\portable\MemMang/heap_4.c ****  */
  36:Source\FreeRTOS\10.0.1\Source\portable\MemMang/heap_4.c **** #include <stdlib.h>
  37:Source\FreeRTOS\10.0.1\Source\portable\MemMang/heap_4.c **** 
  38:Source\FreeRTOS\10.0.1\Source\portable\MemMang/heap_4.c **** /* Defining MPU_WRAPPERS_INCLUDED_FROM_API_FILE prevents task.h from redefining
  39:Source\FreeRTOS\10.0.1\Source\portable\MemMang/heap_4.c **** all the API functions to use the MPU wrappers.  That should only be done when
  40:Source\FreeRTOS\10.0.1\Source\portable\MemMang/heap_4.c **** task.h is included from an application file. */
  41:Source\FreeRTOS\10.0.1\Source\portable\MemMang/heap_4.c **** #define MPU_WRAPPERS_INCLUDED_FROM_API_FILE
  42:Source\FreeRTOS\10.0.1\Source\portable\MemMang/heap_4.c **** 
  43:Source\FreeRTOS\10.0.1\Source\portable\MemMang/heap_4.c **** #include "FreeRTOS.h"
  44:Source\FreeRTOS\10.0.1\Source\portable\MemMang/heap_4.c **** #include "task.h"
  45:Source\FreeRTOS\10.0.1\Source\portable\MemMang/heap_4.c **** 
  46:Source\FreeRTOS\10.0.1\Source\portable\MemMang/heap_4.c **** #undef MPU_WRAPPERS_INCLUDED_FROM_API_FILE
  47:Source\FreeRTOS\10.0.1\Source\portable\MemMang/heap_4.c **** 
  48:Source\FreeRTOS\10.0.1\Source\portable\MemMang/heap_4.c **** #if( configSUPPORT_DYNAMIC_ALLOCATION == 0 )
  49:Source\FreeRTOS\10.0.1\Source\portable\MemMang/heap_4.c **** 	#error This file must not be used if configSUPPORT_DYNAMIC_ALLOCATION is 0
  50:Source\FreeRTOS\10.0.1\Source\portable\MemMang/heap_4.c **** #endif
  51:Source\FreeRTOS\10.0.1\Source\portable\MemMang/heap_4.c **** 
  52:Source\FreeRTOS\10.0.1\Source\portable\MemMang/heap_4.c **** /* Block sizes must not get too small. */
  53:Source\FreeRTOS\10.0.1\Source\portable\MemMang/heap_4.c **** #define heapMINIMUM_BLOCK_SIZE	( ( size_t ) ( xHeapStructSize << 1 ) )
  54:Source\FreeRTOS\10.0.1\Source\portable\MemMang/heap_4.c **** 
  55:Source\FreeRTOS\10.0.1\Source\portable\MemMang/heap_4.c **** /* Assumes 8bit bytes! */
  56:Source\FreeRTOS\10.0.1\Source\portable\MemMang/heap_4.c **** #define heapBITS_PER_BYTE		( ( size_t ) 8 )
  57:Source\FreeRTOS\10.0.1\Source\portable\MemMang/heap_4.c **** 
  58:Source\FreeRTOS\10.0.1\Source\portable\MemMang/heap_4.c **** /* Allocate the memory for the heap. */
  59:Source\FreeRTOS\10.0.1\Source\portable\MemMang/heap_4.c **** #if( configAPPLICATION_ALLOCATED_HEAP == 1 )
  60:Source\FreeRTOS\10.0.1\Source\portable\MemMang/heap_4.c **** 	/* The application writer has already defined the array used for the RTOS
  61:Source\FreeRTOS\10.0.1\Source\portable\MemMang/heap_4.c **** 	heap - probably so it can be placed in a special segment or address. */
  62:Source\FreeRTOS\10.0.1\Source\portable\MemMang/heap_4.c **** 	extern uint8_t ucHeap[ configTOTAL_HEAP_SIZE ];
  63:Source\FreeRTOS\10.0.1\Source\portable\MemMang/heap_4.c **** #else
  64:Source\FreeRTOS\10.0.1\Source\portable\MemMang/heap_4.c **** 	static uint8_t ucHeap[ configTOTAL_HEAP_SIZE ];
  65:Source\FreeRTOS\10.0.1\Source\portable\MemMang/heap_4.c **** #endif /* configAPPLICATION_ALLOCATED_HEAP */
  66:Source\FreeRTOS\10.0.1\Source\portable\MemMang/heap_4.c **** 
  67:Source\FreeRTOS\10.0.1\Source\portable\MemMang/heap_4.c **** /* Define the linked list structure.  This is used to link free blocks in order
  68:Source\FreeRTOS\10.0.1\Source\portable\MemMang/heap_4.c **** of their memory address. */
  69:Source\FreeRTOS\10.0.1\Source\portable\MemMang/heap_4.c **** typedef struct A_BLOCK_LINK
  70:Source\FreeRTOS\10.0.1\Source\portable\MemMang/heap_4.c **** {
  71:Source\FreeRTOS\10.0.1\Source\portable\MemMang/heap_4.c **** 	struct A_BLOCK_LINK *pxNextFreeBlock;	/*<< The next free block in the list. */
  72:Source\FreeRTOS\10.0.1\Source\portable\MemMang/heap_4.c **** 	size_t xBlockSize;						/*<< The size of the free block. */
  73:Source\FreeRTOS\10.0.1\Source\portable\MemMang/heap_4.c **** } BlockLink_t;
  74:Source\FreeRTOS\10.0.1\Source\portable\MemMang/heap_4.c **** 
  75:Source\FreeRTOS\10.0.1\Source\portable\MemMang/heap_4.c **** /*-----------------------------------------------------------*/
  76:Source\FreeRTOS\10.0.1\Source\portable\MemMang/heap_4.c **** 
  77:Source\FreeRTOS\10.0.1\Source\portable\MemMang/heap_4.c **** /*
  78:Source\FreeRTOS\10.0.1\Source\portable\MemMang/heap_4.c ****  * Inserts a block of memory that is being freed into the correct position in
  79:Source\FreeRTOS\10.0.1\Source\portable\MemMang/heap_4.c ****  * the list of free memory blocks.  The block being freed will be merged with
  80:Source\FreeRTOS\10.0.1\Source\portable\MemMang/heap_4.c ****  * the block in front it and/or the block behind it if the memory blocks are
  81:Source\FreeRTOS\10.0.1\Source\portable\MemMang/heap_4.c ****  * adjacent to each other.
  82:Source\FreeRTOS\10.0.1\Source\portable\MemMang/heap_4.c ****  */
  83:Source\FreeRTOS\10.0.1\Source\portable\MemMang/heap_4.c **** static void prvInsertBlockIntoFreeList( BlockLink_t *pxBlockToInsert );
  84:Source\FreeRTOS\10.0.1\Source\portable\MemMang/heap_4.c **** 
  85:Source\FreeRTOS\10.0.1\Source\portable\MemMang/heap_4.c **** /*
  86:Source\FreeRTOS\10.0.1\Source\portable\MemMang/heap_4.c ****  * Called automatically to setup the required heap structures the first time
  87:Source\FreeRTOS\10.0.1\Source\portable\MemMang/heap_4.c ****  * pvPortMalloc() is called.
  88:Source\FreeRTOS\10.0.1\Source\portable\MemMang/heap_4.c ****  */
ARM GAS  C:\Users\Phuong\AppData\Local\Temp\ccIw5O3o.s 			page 3


  89:Source\FreeRTOS\10.0.1\Source\portable\MemMang/heap_4.c **** static void prvHeapInit( void );
  90:Source\FreeRTOS\10.0.1\Source\portable\MemMang/heap_4.c **** 
  91:Source\FreeRTOS\10.0.1\Source\portable\MemMang/heap_4.c **** /*-----------------------------------------------------------*/
  92:Source\FreeRTOS\10.0.1\Source\portable\MemMang/heap_4.c **** 
  93:Source\FreeRTOS\10.0.1\Source\portable\MemMang/heap_4.c **** /* The size of the structure placed at the beginning of each allocated memory
  94:Source\FreeRTOS\10.0.1\Source\portable\MemMang/heap_4.c **** block must by correctly byte aligned. */
  95:Source\FreeRTOS\10.0.1\Source\portable\MemMang/heap_4.c **** static const size_t xHeapStructSize	= ( sizeof( BlockLink_t ) + ( ( size_t ) ( portBYTE_ALIGNMENT -
  96:Source\FreeRTOS\10.0.1\Source\portable\MemMang/heap_4.c **** 
  97:Source\FreeRTOS\10.0.1\Source\portable\MemMang/heap_4.c **** /* Create a couple of list links to mark the start and end of the list. */
  98:Source\FreeRTOS\10.0.1\Source\portable\MemMang/heap_4.c **** static BlockLink_t xStart, *pxEnd = NULL;
  99:Source\FreeRTOS\10.0.1\Source\portable\MemMang/heap_4.c **** 
 100:Source\FreeRTOS\10.0.1\Source\portable\MemMang/heap_4.c **** /* Keeps track of the number of free bytes remaining, but says nothing about
 101:Source\FreeRTOS\10.0.1\Source\portable\MemMang/heap_4.c **** fragmentation. */
 102:Source\FreeRTOS\10.0.1\Source\portable\MemMang/heap_4.c **** static size_t xFreeBytesRemaining = 0U;
 103:Source\FreeRTOS\10.0.1\Source\portable\MemMang/heap_4.c **** static size_t xMinimumEverFreeBytesRemaining = 0U;
 104:Source\FreeRTOS\10.0.1\Source\portable\MemMang/heap_4.c **** 
 105:Source\FreeRTOS\10.0.1\Source\portable\MemMang/heap_4.c **** /* Gets set to the top bit of an size_t type.  When this bit in the xBlockSize
 106:Source\FreeRTOS\10.0.1\Source\portable\MemMang/heap_4.c **** member of an BlockLink_t structure is set then the block belongs to the
 107:Source\FreeRTOS\10.0.1\Source\portable\MemMang/heap_4.c **** application.  When the bit is free the block is still part of the free heap
 108:Source\FreeRTOS\10.0.1\Source\portable\MemMang/heap_4.c **** space. */
 109:Source\FreeRTOS\10.0.1\Source\portable\MemMang/heap_4.c **** static size_t xBlockAllocatedBit = 0;
 110:Source\FreeRTOS\10.0.1\Source\portable\MemMang/heap_4.c **** 
 111:Source\FreeRTOS\10.0.1\Source\portable\MemMang/heap_4.c **** /*-----------------------------------------------------------*/
 112:Source\FreeRTOS\10.0.1\Source\portable\MemMang/heap_4.c **** 
 113:Source\FreeRTOS\10.0.1\Source\portable\MemMang/heap_4.c **** void *pvPortMalloc( size_t xWantedSize )
 114:Source\FreeRTOS\10.0.1\Source\portable\MemMang/heap_4.c **** {
 115:Source\FreeRTOS\10.0.1\Source\portable\MemMang/heap_4.c **** BlockLink_t *pxBlock, *pxPreviousBlock, *pxNewBlockLink;
 116:Source\FreeRTOS\10.0.1\Source\portable\MemMang/heap_4.c **** void *pvReturn = NULL;
 117:Source\FreeRTOS\10.0.1\Source\portable\MemMang/heap_4.c **** 
 118:Source\FreeRTOS\10.0.1\Source\portable\MemMang/heap_4.c **** 	vTaskSuspendAll();
 119:Source\FreeRTOS\10.0.1\Source\portable\MemMang/heap_4.c **** 	{
 120:Source\FreeRTOS\10.0.1\Source\portable\MemMang/heap_4.c **** 		/* If this is the first call to malloc then the heap will require
 121:Source\FreeRTOS\10.0.1\Source\portable\MemMang/heap_4.c **** 		initialisation to setup the list of free blocks. */
 122:Source\FreeRTOS\10.0.1\Source\portable\MemMang/heap_4.c **** 		if( pxEnd == NULL )
 123:Source\FreeRTOS\10.0.1\Source\portable\MemMang/heap_4.c **** 		{
 124:Source\FreeRTOS\10.0.1\Source\portable\MemMang/heap_4.c **** 			prvHeapInit();
 125:Source\FreeRTOS\10.0.1\Source\portable\MemMang/heap_4.c **** 		}
 126:Source\FreeRTOS\10.0.1\Source\portable\MemMang/heap_4.c **** 		else
 127:Source\FreeRTOS\10.0.1\Source\portable\MemMang/heap_4.c **** 		{
 128:Source\FreeRTOS\10.0.1\Source\portable\MemMang/heap_4.c **** 			mtCOVERAGE_TEST_MARKER();
 129:Source\FreeRTOS\10.0.1\Source\portable\MemMang/heap_4.c **** 		}
 130:Source\FreeRTOS\10.0.1\Source\portable\MemMang/heap_4.c **** 
 131:Source\FreeRTOS\10.0.1\Source\portable\MemMang/heap_4.c **** 		/* Check the requested block size is not so large that the top bit is
 132:Source\FreeRTOS\10.0.1\Source\portable\MemMang/heap_4.c **** 		set.  The top bit of the block size member of the BlockLink_t structure
 133:Source\FreeRTOS\10.0.1\Source\portable\MemMang/heap_4.c **** 		is used to determine who owns the block - the application or the
 134:Source\FreeRTOS\10.0.1\Source\portable\MemMang/heap_4.c **** 		kernel, so it must be free. */
 135:Source\FreeRTOS\10.0.1\Source\portable\MemMang/heap_4.c **** 		if( ( xWantedSize & xBlockAllocatedBit ) == 0 )
 136:Source\FreeRTOS\10.0.1\Source\portable\MemMang/heap_4.c **** 		{
 137:Source\FreeRTOS\10.0.1\Source\portable\MemMang/heap_4.c **** 			/* The wanted size is increased so it can contain a BlockLink_t
 138:Source\FreeRTOS\10.0.1\Source\portable\MemMang/heap_4.c **** 			structure in addition to the requested amount of bytes. */
 139:Source\FreeRTOS\10.0.1\Source\portable\MemMang/heap_4.c **** 			if( xWantedSize > 0 )
 140:Source\FreeRTOS\10.0.1\Source\portable\MemMang/heap_4.c **** 			{
 141:Source\FreeRTOS\10.0.1\Source\portable\MemMang/heap_4.c **** 				xWantedSize += xHeapStructSize;
 142:Source\FreeRTOS\10.0.1\Source\portable\MemMang/heap_4.c **** 
 143:Source\FreeRTOS\10.0.1\Source\portable\MemMang/heap_4.c **** 				/* Ensure that blocks are always aligned to the required number
 144:Source\FreeRTOS\10.0.1\Source\portable\MemMang/heap_4.c **** 				of bytes. */
 145:Source\FreeRTOS\10.0.1\Source\portable\MemMang/heap_4.c **** 				if( ( xWantedSize & portBYTE_ALIGNMENT_MASK ) != 0x00 )
ARM GAS  C:\Users\Phuong\AppData\Local\Temp\ccIw5O3o.s 			page 4


 146:Source\FreeRTOS\10.0.1\Source\portable\MemMang/heap_4.c **** 				{
 147:Source\FreeRTOS\10.0.1\Source\portable\MemMang/heap_4.c **** 					/* Byte alignment required. */
 148:Source\FreeRTOS\10.0.1\Source\portable\MemMang/heap_4.c **** 					xWantedSize += ( portBYTE_ALIGNMENT - ( xWantedSize & portBYTE_ALIGNMENT_MASK ) );
 149:Source\FreeRTOS\10.0.1\Source\portable\MemMang/heap_4.c **** 					configASSERT( ( xWantedSize & portBYTE_ALIGNMENT_MASK ) == 0 );
 150:Source\FreeRTOS\10.0.1\Source\portable\MemMang/heap_4.c **** 				}
 151:Source\FreeRTOS\10.0.1\Source\portable\MemMang/heap_4.c **** 				else
 152:Source\FreeRTOS\10.0.1\Source\portable\MemMang/heap_4.c **** 				{
 153:Source\FreeRTOS\10.0.1\Source\portable\MemMang/heap_4.c **** 					mtCOVERAGE_TEST_MARKER();
 154:Source\FreeRTOS\10.0.1\Source\portable\MemMang/heap_4.c **** 				}
 155:Source\FreeRTOS\10.0.1\Source\portable\MemMang/heap_4.c **** 			}
 156:Source\FreeRTOS\10.0.1\Source\portable\MemMang/heap_4.c **** 			else
 157:Source\FreeRTOS\10.0.1\Source\portable\MemMang/heap_4.c **** 			{
 158:Source\FreeRTOS\10.0.1\Source\portable\MemMang/heap_4.c **** 				mtCOVERAGE_TEST_MARKER();
 159:Source\FreeRTOS\10.0.1\Source\portable\MemMang/heap_4.c **** 			}
 160:Source\FreeRTOS\10.0.1\Source\portable\MemMang/heap_4.c **** 
 161:Source\FreeRTOS\10.0.1\Source\portable\MemMang/heap_4.c **** 			if( ( xWantedSize > 0 ) && ( xWantedSize <= xFreeBytesRemaining ) )
 162:Source\FreeRTOS\10.0.1\Source\portable\MemMang/heap_4.c **** 			{
 163:Source\FreeRTOS\10.0.1\Source\portable\MemMang/heap_4.c **** 				/* Traverse the list from the start	(lowest address) block until
 164:Source\FreeRTOS\10.0.1\Source\portable\MemMang/heap_4.c **** 				one	of adequate size is found. */
 165:Source\FreeRTOS\10.0.1\Source\portable\MemMang/heap_4.c **** 				pxPreviousBlock = &xStart;
 166:Source\FreeRTOS\10.0.1\Source\portable\MemMang/heap_4.c **** 				pxBlock = xStart.pxNextFreeBlock;
 167:Source\FreeRTOS\10.0.1\Source\portable\MemMang/heap_4.c **** 				while( ( pxBlock->xBlockSize < xWantedSize ) && ( pxBlock->pxNextFreeBlock != NULL ) )
 168:Source\FreeRTOS\10.0.1\Source\portable\MemMang/heap_4.c **** 				{
 169:Source\FreeRTOS\10.0.1\Source\portable\MemMang/heap_4.c **** 					pxPreviousBlock = pxBlock;
 170:Source\FreeRTOS\10.0.1\Source\portable\MemMang/heap_4.c **** 					pxBlock = pxBlock->pxNextFreeBlock;
 171:Source\FreeRTOS\10.0.1\Source\portable\MemMang/heap_4.c **** 				}
 172:Source\FreeRTOS\10.0.1\Source\portable\MemMang/heap_4.c **** 
 173:Source\FreeRTOS\10.0.1\Source\portable\MemMang/heap_4.c **** 				/* If the end marker was reached then a block of adequate size
 174:Source\FreeRTOS\10.0.1\Source\portable\MemMang/heap_4.c **** 				was	not found. */
 175:Source\FreeRTOS\10.0.1\Source\portable\MemMang/heap_4.c **** 				if( pxBlock != pxEnd )
 176:Source\FreeRTOS\10.0.1\Source\portable\MemMang/heap_4.c **** 				{
 177:Source\FreeRTOS\10.0.1\Source\portable\MemMang/heap_4.c **** 					/* Return the memory space pointed to - jumping over the
 178:Source\FreeRTOS\10.0.1\Source\portable\MemMang/heap_4.c **** 					BlockLink_t structure at its start. */
 179:Source\FreeRTOS\10.0.1\Source\portable\MemMang/heap_4.c **** 					pvReturn = ( void * ) ( ( ( uint8_t * ) pxPreviousBlock->pxNextFreeBlock ) + xHeapStructSize )
 180:Source\FreeRTOS\10.0.1\Source\portable\MemMang/heap_4.c **** 
 181:Source\FreeRTOS\10.0.1\Source\portable\MemMang/heap_4.c **** 					/* This block is being returned for use so must be taken out
 182:Source\FreeRTOS\10.0.1\Source\portable\MemMang/heap_4.c **** 					of the list of free blocks. */
 183:Source\FreeRTOS\10.0.1\Source\portable\MemMang/heap_4.c **** 					pxPreviousBlock->pxNextFreeBlock = pxBlock->pxNextFreeBlock;
 184:Source\FreeRTOS\10.0.1\Source\portable\MemMang/heap_4.c **** 
 185:Source\FreeRTOS\10.0.1\Source\portable\MemMang/heap_4.c **** 					/* If the block is larger than required it can be split into
 186:Source\FreeRTOS\10.0.1\Source\portable\MemMang/heap_4.c **** 					two. */
 187:Source\FreeRTOS\10.0.1\Source\portable\MemMang/heap_4.c **** 					if( ( pxBlock->xBlockSize - xWantedSize ) > heapMINIMUM_BLOCK_SIZE )
 188:Source\FreeRTOS\10.0.1\Source\portable\MemMang/heap_4.c **** 					{
 189:Source\FreeRTOS\10.0.1\Source\portable\MemMang/heap_4.c **** 						/* This block is to be split into two.  Create a new
 190:Source\FreeRTOS\10.0.1\Source\portable\MemMang/heap_4.c **** 						block following the number of bytes requested. The void
 191:Source\FreeRTOS\10.0.1\Source\portable\MemMang/heap_4.c **** 						cast is used to prevent byte alignment warnings from the
 192:Source\FreeRTOS\10.0.1\Source\portable\MemMang/heap_4.c **** 						compiler. */
 193:Source\FreeRTOS\10.0.1\Source\portable\MemMang/heap_4.c **** 						pxNewBlockLink = ( void * ) ( ( ( uint8_t * ) pxBlock ) + xWantedSize );
 194:Source\FreeRTOS\10.0.1\Source\portable\MemMang/heap_4.c **** 						configASSERT( ( ( ( size_t ) pxNewBlockLink ) & portBYTE_ALIGNMENT_MASK ) == 0 );
 195:Source\FreeRTOS\10.0.1\Source\portable\MemMang/heap_4.c **** 
 196:Source\FreeRTOS\10.0.1\Source\portable\MemMang/heap_4.c **** 						/* Calculate the sizes of two blocks split from the
 197:Source\FreeRTOS\10.0.1\Source\portable\MemMang/heap_4.c **** 						single block. */
 198:Source\FreeRTOS\10.0.1\Source\portable\MemMang/heap_4.c **** 						pxNewBlockLink->xBlockSize = pxBlock->xBlockSize - xWantedSize;
 199:Source\FreeRTOS\10.0.1\Source\portable\MemMang/heap_4.c **** 						pxBlock->xBlockSize = xWantedSize;
 200:Source\FreeRTOS\10.0.1\Source\portable\MemMang/heap_4.c **** 
 201:Source\FreeRTOS\10.0.1\Source\portable\MemMang/heap_4.c **** 						/* Insert the new block into the list of free blocks. */
 202:Source\FreeRTOS\10.0.1\Source\portable\MemMang/heap_4.c **** 						prvInsertBlockIntoFreeList( pxNewBlockLink );
ARM GAS  C:\Users\Phuong\AppData\Local\Temp\ccIw5O3o.s 			page 5


 203:Source\FreeRTOS\10.0.1\Source\portable\MemMang/heap_4.c **** 					}
 204:Source\FreeRTOS\10.0.1\Source\portable\MemMang/heap_4.c **** 					else
 205:Source\FreeRTOS\10.0.1\Source\portable\MemMang/heap_4.c **** 					{
 206:Source\FreeRTOS\10.0.1\Source\portable\MemMang/heap_4.c **** 						mtCOVERAGE_TEST_MARKER();
 207:Source\FreeRTOS\10.0.1\Source\portable\MemMang/heap_4.c **** 					}
 208:Source\FreeRTOS\10.0.1\Source\portable\MemMang/heap_4.c **** 
 209:Source\FreeRTOS\10.0.1\Source\portable\MemMang/heap_4.c **** 					xFreeBytesRemaining -= pxBlock->xBlockSize;
 210:Source\FreeRTOS\10.0.1\Source\portable\MemMang/heap_4.c **** 
 211:Source\FreeRTOS\10.0.1\Source\portable\MemMang/heap_4.c **** 					if( xFreeBytesRemaining < xMinimumEverFreeBytesRemaining )
 212:Source\FreeRTOS\10.0.1\Source\portable\MemMang/heap_4.c **** 					{
 213:Source\FreeRTOS\10.0.1\Source\portable\MemMang/heap_4.c **** 						xMinimumEverFreeBytesRemaining = xFreeBytesRemaining;
 214:Source\FreeRTOS\10.0.1\Source\portable\MemMang/heap_4.c **** 					}
 215:Source\FreeRTOS\10.0.1\Source\portable\MemMang/heap_4.c **** 					else
 216:Source\FreeRTOS\10.0.1\Source\portable\MemMang/heap_4.c **** 					{
 217:Source\FreeRTOS\10.0.1\Source\portable\MemMang/heap_4.c **** 						mtCOVERAGE_TEST_MARKER();
 218:Source\FreeRTOS\10.0.1\Source\portable\MemMang/heap_4.c **** 					}
 219:Source\FreeRTOS\10.0.1\Source\portable\MemMang/heap_4.c **** 
 220:Source\FreeRTOS\10.0.1\Source\portable\MemMang/heap_4.c **** 					/* The block is being returned - it is allocated and owned
 221:Source\FreeRTOS\10.0.1\Source\portable\MemMang/heap_4.c **** 					by the application and has no "next" block. */
 222:Source\FreeRTOS\10.0.1\Source\portable\MemMang/heap_4.c **** 					pxBlock->xBlockSize |= xBlockAllocatedBit;
 223:Source\FreeRTOS\10.0.1\Source\portable\MemMang/heap_4.c **** 					pxBlock->pxNextFreeBlock = NULL;
 224:Source\FreeRTOS\10.0.1\Source\portable\MemMang/heap_4.c **** 				}
 225:Source\FreeRTOS\10.0.1\Source\portable\MemMang/heap_4.c **** 				else
 226:Source\FreeRTOS\10.0.1\Source\portable\MemMang/heap_4.c **** 				{
 227:Source\FreeRTOS\10.0.1\Source\portable\MemMang/heap_4.c **** 					mtCOVERAGE_TEST_MARKER();
 228:Source\FreeRTOS\10.0.1\Source\portable\MemMang/heap_4.c **** 				}
 229:Source\FreeRTOS\10.0.1\Source\portable\MemMang/heap_4.c **** 			}
 230:Source\FreeRTOS\10.0.1\Source\portable\MemMang/heap_4.c **** 			else
 231:Source\FreeRTOS\10.0.1\Source\portable\MemMang/heap_4.c **** 			{
 232:Source\FreeRTOS\10.0.1\Source\portable\MemMang/heap_4.c **** 				mtCOVERAGE_TEST_MARKER();
 233:Source\FreeRTOS\10.0.1\Source\portable\MemMang/heap_4.c **** 			}
 234:Source\FreeRTOS\10.0.1\Source\portable\MemMang/heap_4.c **** 		}
 235:Source\FreeRTOS\10.0.1\Source\portable\MemMang/heap_4.c **** 		else
 236:Source\FreeRTOS\10.0.1\Source\portable\MemMang/heap_4.c **** 		{
 237:Source\FreeRTOS\10.0.1\Source\portable\MemMang/heap_4.c **** 			mtCOVERAGE_TEST_MARKER();
 238:Source\FreeRTOS\10.0.1\Source\portable\MemMang/heap_4.c **** 		}
 239:Source\FreeRTOS\10.0.1\Source\portable\MemMang/heap_4.c **** 
 240:Source\FreeRTOS\10.0.1\Source\portable\MemMang/heap_4.c **** 		traceMALLOC( pvReturn, xWantedSize );
 241:Source\FreeRTOS\10.0.1\Source\portable\MemMang/heap_4.c **** 	}
 242:Source\FreeRTOS\10.0.1\Source\portable\MemMang/heap_4.c **** 	( void ) xTaskResumeAll();
 243:Source\FreeRTOS\10.0.1\Source\portable\MemMang/heap_4.c **** 
 244:Source\FreeRTOS\10.0.1\Source\portable\MemMang/heap_4.c **** 	#if( configUSE_MALLOC_FAILED_HOOK == 1 )
 245:Source\FreeRTOS\10.0.1\Source\portable\MemMang/heap_4.c **** 	{
 246:Source\FreeRTOS\10.0.1\Source\portable\MemMang/heap_4.c **** 		if( pvReturn == NULL )
 247:Source\FreeRTOS\10.0.1\Source\portable\MemMang/heap_4.c **** 		{
 248:Source\FreeRTOS\10.0.1\Source\portable\MemMang/heap_4.c **** 			extern void vApplicationMallocFailedHook( void );
 249:Source\FreeRTOS\10.0.1\Source\portable\MemMang/heap_4.c **** 			vApplicationMallocFailedHook();
 250:Source\FreeRTOS\10.0.1\Source\portable\MemMang/heap_4.c **** 		}
 251:Source\FreeRTOS\10.0.1\Source\portable\MemMang/heap_4.c **** 		else
 252:Source\FreeRTOS\10.0.1\Source\portable\MemMang/heap_4.c **** 		{
 253:Source\FreeRTOS\10.0.1\Source\portable\MemMang/heap_4.c **** 			mtCOVERAGE_TEST_MARKER();
 254:Source\FreeRTOS\10.0.1\Source\portable\MemMang/heap_4.c **** 		}
 255:Source\FreeRTOS\10.0.1\Source\portable\MemMang/heap_4.c **** 	}
 256:Source\FreeRTOS\10.0.1\Source\portable\MemMang/heap_4.c **** 	#endif
 257:Source\FreeRTOS\10.0.1\Source\portable\MemMang/heap_4.c **** 
 258:Source\FreeRTOS\10.0.1\Source\portable\MemMang/heap_4.c **** 	configASSERT( ( ( ( size_t ) pvReturn ) & ( size_t ) portBYTE_ALIGNMENT_MASK ) == 0 );
 259:Source\FreeRTOS\10.0.1\Source\portable\MemMang/heap_4.c **** 	return pvReturn;
ARM GAS  C:\Users\Phuong\AppData\Local\Temp\ccIw5O3o.s 			page 6


 260:Source\FreeRTOS\10.0.1\Source\portable\MemMang/heap_4.c **** }
 261:Source\FreeRTOS\10.0.1\Source\portable\MemMang/heap_4.c **** /*-----------------------------------------------------------*/
 262:Source\FreeRTOS\10.0.1\Source\portable\MemMang/heap_4.c **** 
 263:Source\FreeRTOS\10.0.1\Source\portable\MemMang/heap_4.c **** void vPortFree( void *pv )
 264:Source\FreeRTOS\10.0.1\Source\portable\MemMang/heap_4.c **** {
 265:Source\FreeRTOS\10.0.1\Source\portable\MemMang/heap_4.c **** uint8_t *puc = ( uint8_t * ) pv;
 266:Source\FreeRTOS\10.0.1\Source\portable\MemMang/heap_4.c **** BlockLink_t *pxLink;
 267:Source\FreeRTOS\10.0.1\Source\portable\MemMang/heap_4.c **** 
 268:Source\FreeRTOS\10.0.1\Source\portable\MemMang/heap_4.c **** 	if( pv != NULL )
 269:Source\FreeRTOS\10.0.1\Source\portable\MemMang/heap_4.c **** 	{
 270:Source\FreeRTOS\10.0.1\Source\portable\MemMang/heap_4.c **** 		/* The memory being freed will have an BlockLink_t structure immediately
 271:Source\FreeRTOS\10.0.1\Source\portable\MemMang/heap_4.c **** 		before it. */
 272:Source\FreeRTOS\10.0.1\Source\portable\MemMang/heap_4.c **** 		puc -= xHeapStructSize;
 273:Source\FreeRTOS\10.0.1\Source\portable\MemMang/heap_4.c **** 
 274:Source\FreeRTOS\10.0.1\Source\portable\MemMang/heap_4.c **** 		/* This casting is to keep the compiler from issuing warnings. */
 275:Source\FreeRTOS\10.0.1\Source\portable\MemMang/heap_4.c **** 		pxLink = ( void * ) puc;
 276:Source\FreeRTOS\10.0.1\Source\portable\MemMang/heap_4.c **** 
 277:Source\FreeRTOS\10.0.1\Source\portable\MemMang/heap_4.c **** 		/* Check the block is actually allocated. */
 278:Source\FreeRTOS\10.0.1\Source\portable\MemMang/heap_4.c **** 		configASSERT( ( pxLink->xBlockSize & xBlockAllocatedBit ) != 0 );
 279:Source\FreeRTOS\10.0.1\Source\portable\MemMang/heap_4.c **** 		configASSERT( pxLink->pxNextFreeBlock == NULL );
 280:Source\FreeRTOS\10.0.1\Source\portable\MemMang/heap_4.c **** 
 281:Source\FreeRTOS\10.0.1\Source\portable\MemMang/heap_4.c **** 		if( ( pxLink->xBlockSize & xBlockAllocatedBit ) != 0 )
 282:Source\FreeRTOS\10.0.1\Source\portable\MemMang/heap_4.c **** 		{
 283:Source\FreeRTOS\10.0.1\Source\portable\MemMang/heap_4.c **** 			if( pxLink->pxNextFreeBlock == NULL )
 284:Source\FreeRTOS\10.0.1\Source\portable\MemMang/heap_4.c **** 			{
 285:Source\FreeRTOS\10.0.1\Source\portable\MemMang/heap_4.c **** 				/* The block is being returned to the heap - it is no longer
 286:Source\FreeRTOS\10.0.1\Source\portable\MemMang/heap_4.c **** 				allocated. */
 287:Source\FreeRTOS\10.0.1\Source\portable\MemMang/heap_4.c **** 				pxLink->xBlockSize &= ~xBlockAllocatedBit;
 288:Source\FreeRTOS\10.0.1\Source\portable\MemMang/heap_4.c **** 
 289:Source\FreeRTOS\10.0.1\Source\portable\MemMang/heap_4.c **** 				vTaskSuspendAll();
 290:Source\FreeRTOS\10.0.1\Source\portable\MemMang/heap_4.c **** 				{
 291:Source\FreeRTOS\10.0.1\Source\portable\MemMang/heap_4.c **** 					/* Add this block to the list of free blocks. */
 292:Source\FreeRTOS\10.0.1\Source\portable\MemMang/heap_4.c **** 					xFreeBytesRemaining += pxLink->xBlockSize;
 293:Source\FreeRTOS\10.0.1\Source\portable\MemMang/heap_4.c **** 					traceFREE( pv, pxLink->xBlockSize );
 294:Source\FreeRTOS\10.0.1\Source\portable\MemMang/heap_4.c **** 					prvInsertBlockIntoFreeList( ( ( BlockLink_t * ) pxLink ) );
 295:Source\FreeRTOS\10.0.1\Source\portable\MemMang/heap_4.c **** 				}
 296:Source\FreeRTOS\10.0.1\Source\portable\MemMang/heap_4.c **** 				( void ) xTaskResumeAll();
 297:Source\FreeRTOS\10.0.1\Source\portable\MemMang/heap_4.c **** 			}
 298:Source\FreeRTOS\10.0.1\Source\portable\MemMang/heap_4.c **** 			else
 299:Source\FreeRTOS\10.0.1\Source\portable\MemMang/heap_4.c **** 			{
 300:Source\FreeRTOS\10.0.1\Source\portable\MemMang/heap_4.c **** 				mtCOVERAGE_TEST_MARKER();
 301:Source\FreeRTOS\10.0.1\Source\portable\MemMang/heap_4.c **** 			}
 302:Source\FreeRTOS\10.0.1\Source\portable\MemMang/heap_4.c **** 		}
 303:Source\FreeRTOS\10.0.1\Source\portable\MemMang/heap_4.c **** 		else
 304:Source\FreeRTOS\10.0.1\Source\portable\MemMang/heap_4.c **** 		{
 305:Source\FreeRTOS\10.0.1\Source\portable\MemMang/heap_4.c **** 			mtCOVERAGE_TEST_MARKER();
 306:Source\FreeRTOS\10.0.1\Source\portable\MemMang/heap_4.c **** 		}
 307:Source\FreeRTOS\10.0.1\Source\portable\MemMang/heap_4.c **** 	}
 308:Source\FreeRTOS\10.0.1\Source\portable\MemMang/heap_4.c **** }
 309:Source\FreeRTOS\10.0.1\Source\portable\MemMang/heap_4.c **** /*-----------------------------------------------------------*/
 310:Source\FreeRTOS\10.0.1\Source\portable\MemMang/heap_4.c **** 
 311:Source\FreeRTOS\10.0.1\Source\portable\MemMang/heap_4.c **** size_t xPortGetFreeHeapSize( void )
 312:Source\FreeRTOS\10.0.1\Source\portable\MemMang/heap_4.c **** {
 313:Source\FreeRTOS\10.0.1\Source\portable\MemMang/heap_4.c **** 	return xFreeBytesRemaining;
 314:Source\FreeRTOS\10.0.1\Source\portable\MemMang/heap_4.c **** }
 315:Source\FreeRTOS\10.0.1\Source\portable\MemMang/heap_4.c **** /*-----------------------------------------------------------*/
 316:Source\FreeRTOS\10.0.1\Source\portable\MemMang/heap_4.c **** 
ARM GAS  C:\Users\Phuong\AppData\Local\Temp\ccIw5O3o.s 			page 7


 317:Source\FreeRTOS\10.0.1\Source\portable\MemMang/heap_4.c **** size_t xPortGetMinimumEverFreeHeapSize( void )
 318:Source\FreeRTOS\10.0.1\Source\portable\MemMang/heap_4.c **** {
 319:Source\FreeRTOS\10.0.1\Source\portable\MemMang/heap_4.c **** 	return xMinimumEverFreeBytesRemaining;
 320:Source\FreeRTOS\10.0.1\Source\portable\MemMang/heap_4.c **** }
 321:Source\FreeRTOS\10.0.1\Source\portable\MemMang/heap_4.c **** /*-----------------------------------------------------------*/
 322:Source\FreeRTOS\10.0.1\Source\portable\MemMang/heap_4.c **** 
 323:Source\FreeRTOS\10.0.1\Source\portable\MemMang/heap_4.c **** void vPortInitialiseBlocks( void )
 324:Source\FreeRTOS\10.0.1\Source\portable\MemMang/heap_4.c **** {
 325:Source\FreeRTOS\10.0.1\Source\portable\MemMang/heap_4.c **** 	/* This just exists to keep the linker quiet. */
 326:Source\FreeRTOS\10.0.1\Source\portable\MemMang/heap_4.c **** }
 327:Source\FreeRTOS\10.0.1\Source\portable\MemMang/heap_4.c **** /*-----------------------------------------------------------*/
 328:Source\FreeRTOS\10.0.1\Source\portable\MemMang/heap_4.c **** 
 329:Source\FreeRTOS\10.0.1\Source\portable\MemMang/heap_4.c **** static void prvHeapInit( void )
 330:Source\FreeRTOS\10.0.1\Source\portable\MemMang/heap_4.c **** {
  27              		.loc 1 330 0
  28              		.cfi_startproc
  29              		@ args = 0, pretend = 0, frame = 0
  30              		@ frame_needed = 0, uses_anonymous_args = 0
  31 0000 10B5     		push	{r4, lr}
  32              		.cfi_def_cfa_offset 8
  33              		.cfi_offset 4, -8
  34              		.cfi_offset 14, -4
  35              	.LVL0:
 331:Source\FreeRTOS\10.0.1\Source\portable\MemMang/heap_4.c **** BlockLink_t *pxFirstFreeBlock;
 332:Source\FreeRTOS\10.0.1\Source\portable\MemMang/heap_4.c **** uint8_t *pucAlignedHeap;
 333:Source\FreeRTOS\10.0.1\Source\portable\MemMang/heap_4.c **** size_t uxAddress;
 334:Source\FreeRTOS\10.0.1\Source\portable\MemMang/heap_4.c **** size_t xTotalHeapSize = configTOTAL_HEAP_SIZE;
 335:Source\FreeRTOS\10.0.1\Source\portable\MemMang/heap_4.c **** 
 336:Source\FreeRTOS\10.0.1\Source\portable\MemMang/heap_4.c **** 	/* Ensure the heap starts on a correctly aligned boundary. */
 337:Source\FreeRTOS\10.0.1\Source\portable\MemMang/heap_4.c **** 	uxAddress = ( size_t ) ucHeap;
  36              		.loc 1 337 0
  37 0002 114A     		ldr	r2, .L4
  38              	.LVL1:
 338:Source\FreeRTOS\10.0.1\Source\portable\MemMang/heap_4.c **** 
 339:Source\FreeRTOS\10.0.1\Source\portable\MemMang/heap_4.c **** 	if( ( uxAddress & portBYTE_ALIGNMENT_MASK ) != 0 )
  39              		.loc 1 339 0
  40 0004 5307     		lsls	r3, r2, #29
  41 0006 08D0     		beq	.L3
 340:Source\FreeRTOS\10.0.1\Source\portable\MemMang/heap_4.c **** 	{
 341:Source\FreeRTOS\10.0.1\Source\portable\MemMang/heap_4.c **** 		uxAddress += ( portBYTE_ALIGNMENT - 1 );
  42              		.loc 1 341 0
  43 0008 D11D     		adds	r1, r2, #7
  44              	.LVL2:
 342:Source\FreeRTOS\10.0.1\Source\portable\MemMang/heap_4.c **** 		uxAddress &= ~( ( size_t ) portBYTE_ALIGNMENT_MASK );
  45              		.loc 1 342 0
  46 000a 0723     		movs	r3, #7
  47 000c 9943     		bics	r1, r3
  48              	.LVL3:
 343:Source\FreeRTOS\10.0.1\Source\portable\MemMang/heap_4.c **** 		xTotalHeapSize -= uxAddress - ( size_t ) ucHeap;
  49              		.loc 1 343 0
  50 000e A023     		movs	r3, #160
  51 0010 1B02     		lsls	r3, r3, #8
  52 0012 5B1A     		subs	r3, r3, r1
  53 0014 9B18     		adds	r3, r3, r2
  54              	.LVL4:
 342:Source\FreeRTOS\10.0.1\Source\portable\MemMang/heap_4.c **** 		uxAddress &= ~( ( size_t ) portBYTE_ALIGNMENT_MASK );
  55              		.loc 1 342 0
ARM GAS  C:\Users\Phuong\AppData\Local\Temp\ccIw5O3o.s 			page 8


  56 0016 0A00     		movs	r2, r1
  57 0018 01E0     		b	.L2
  58              	.LVL5:
  59              	.L3:
 334:Source\FreeRTOS\10.0.1\Source\portable\MemMang/heap_4.c **** 
  60              		.loc 1 334 0
  61 001a A023     		movs	r3, #160
  62 001c 1B02     		lsls	r3, r3, #8
  63              	.LVL6:
  64              	.L2:
 344:Source\FreeRTOS\10.0.1\Source\portable\MemMang/heap_4.c **** 	}
 345:Source\FreeRTOS\10.0.1\Source\portable\MemMang/heap_4.c **** 
 346:Source\FreeRTOS\10.0.1\Source\portable\MemMang/heap_4.c **** 	pucAlignedHeap = ( uint8_t * ) uxAddress;
 347:Source\FreeRTOS\10.0.1\Source\portable\MemMang/heap_4.c **** 
 348:Source\FreeRTOS\10.0.1\Source\portable\MemMang/heap_4.c **** 	/* xStart is used to hold a pointer to the first item in the list of free
 349:Source\FreeRTOS\10.0.1\Source\portable\MemMang/heap_4.c **** 	blocks.  The void cast is used to prevent compiler warnings. */
 350:Source\FreeRTOS\10.0.1\Source\portable\MemMang/heap_4.c **** 	xStart.pxNextFreeBlock = ( void * ) pucAlignedHeap;
  65              		.loc 1 350 0
  66 001e 0B49     		ldr	r1, .L4+4
  67 0020 0A60     		str	r2, [r1]
 351:Source\FreeRTOS\10.0.1\Source\portable\MemMang/heap_4.c **** 	xStart.xBlockSize = ( size_t ) 0;
  68              		.loc 1 351 0
  69 0022 0020     		movs	r0, #0
  70 0024 4860     		str	r0, [r1, #4]
 352:Source\FreeRTOS\10.0.1\Source\portable\MemMang/heap_4.c **** 
 353:Source\FreeRTOS\10.0.1\Source\portable\MemMang/heap_4.c **** 	/* pxEnd is used to mark the end of the list of free blocks and is inserted
 354:Source\FreeRTOS\10.0.1\Source\portable\MemMang/heap_4.c **** 	at the end of the heap space. */
 355:Source\FreeRTOS\10.0.1\Source\portable\MemMang/heap_4.c **** 	uxAddress = ( ( size_t ) pucAlignedHeap ) + xTotalHeapSize;
  71              		.loc 1 355 0
  72 0026 D318     		adds	r3, r2, r3
  73              	.LVL7:
 356:Source\FreeRTOS\10.0.1\Source\portable\MemMang/heap_4.c **** 	uxAddress -= xHeapStructSize;
  74              		.loc 1 356 0
  75 0028 083B     		subs	r3, r3, #8
  76              	.LVL8:
 357:Source\FreeRTOS\10.0.1\Source\portable\MemMang/heap_4.c **** 	uxAddress &= ~( ( size_t ) portBYTE_ALIGNMENT_MASK );
  77              		.loc 1 357 0
  78 002a 0724     		movs	r4, #7
  79 002c A343     		bics	r3, r4
  80              	.LVL9:
 358:Source\FreeRTOS\10.0.1\Source\portable\MemMang/heap_4.c **** 	pxEnd = ( void * ) uxAddress;
  81              		.loc 1 358 0
  82 002e 8B60     		str	r3, [r1, #8]
 359:Source\FreeRTOS\10.0.1\Source\portable\MemMang/heap_4.c **** 	pxEnd->xBlockSize = 0;
  83              		.loc 1 359 0
  84 0030 5860     		str	r0, [r3, #4]
 360:Source\FreeRTOS\10.0.1\Source\portable\MemMang/heap_4.c **** 	pxEnd->pxNextFreeBlock = NULL;
  85              		.loc 1 360 0
  86 0032 1860     		str	r0, [r3]
  87              	.LVL10:
 361:Source\FreeRTOS\10.0.1\Source\portable\MemMang/heap_4.c **** 
 362:Source\FreeRTOS\10.0.1\Source\portable\MemMang/heap_4.c **** 	/* To start with there is a single free block that is sized to take up the
 363:Source\FreeRTOS\10.0.1\Source\portable\MemMang/heap_4.c **** 	entire heap space, minus the space taken by pxEnd. */
 364:Source\FreeRTOS\10.0.1\Source\portable\MemMang/heap_4.c **** 	pxFirstFreeBlock = ( void * ) pucAlignedHeap;
 365:Source\FreeRTOS\10.0.1\Source\portable\MemMang/heap_4.c **** 	pxFirstFreeBlock->xBlockSize = uxAddress - ( size_t ) pxFirstFreeBlock;
  88              		.loc 1 365 0
  89 0034 981A     		subs	r0, r3, r2
ARM GAS  C:\Users\Phuong\AppData\Local\Temp\ccIw5O3o.s 			page 9


  90 0036 5060     		str	r0, [r2, #4]
 366:Source\FreeRTOS\10.0.1\Source\portable\MemMang/heap_4.c **** 	pxFirstFreeBlock->pxNextFreeBlock = pxEnd;
  91              		.loc 1 366 0
  92 0038 1360     		str	r3, [r2]
 367:Source\FreeRTOS\10.0.1\Source\portable\MemMang/heap_4.c **** 
 368:Source\FreeRTOS\10.0.1\Source\portable\MemMang/heap_4.c **** 	/* Only one block exists - and it covers the entire usable heap space. */
 369:Source\FreeRTOS\10.0.1\Source\portable\MemMang/heap_4.c **** 	xMinimumEverFreeBytesRemaining = pxFirstFreeBlock->xBlockSize;
  93              		.loc 1 369 0
  94 003a C860     		str	r0, [r1, #12]
 370:Source\FreeRTOS\10.0.1\Source\portable\MemMang/heap_4.c **** 	xFreeBytesRemaining = pxFirstFreeBlock->xBlockSize;
  95              		.loc 1 370 0
  96 003c 0861     		str	r0, [r1, #16]
 371:Source\FreeRTOS\10.0.1\Source\portable\MemMang/heap_4.c **** 
 372:Source\FreeRTOS\10.0.1\Source\portable\MemMang/heap_4.c **** 	/* Work out the position of the top bit in a size_t variable. */
 373:Source\FreeRTOS\10.0.1\Source\portable\MemMang/heap_4.c **** 	xBlockAllocatedBit = ( ( size_t ) 1 ) << ( ( sizeof( size_t ) * heapBITS_PER_BYTE ) - 1 );
  97              		.loc 1 373 0
  98 003e 8023     		movs	r3, #128
  99              	.LVL11:
 100 0040 1B06     		lsls	r3, r3, #24
 101 0042 4B61     		str	r3, [r1, #20]
 374:Source\FreeRTOS\10.0.1\Source\portable\MemMang/heap_4.c **** }
 102              		.loc 1 374 0
 103              		@ sp needed
 104 0044 10BD     		pop	{r4, pc}
 105              	.L5:
 106 0046 C046     		.align	2
 107              	.L4:
 108 0048 00000000 		.word	.LANCHOR0
 109 004c 00A00000 		.word	.LANCHOR1
 110              		.cfi_endproc
 111              	.LFE41:
 112              		.size	prvHeapInit, .-prvHeapInit
 113              		.section	.text.prvInsertBlockIntoFreeList,"ax",%progbits
 114              		.align	2
 115              		.code	16
 116              		.thumb_func
 117              		.type	prvInsertBlockIntoFreeList, %function
 118              	prvInsertBlockIntoFreeList:
 119              	.LFB42:
 375:Source\FreeRTOS\10.0.1\Source\portable\MemMang/heap_4.c **** /*-----------------------------------------------------------*/
 376:Source\FreeRTOS\10.0.1\Source\portable\MemMang/heap_4.c **** 
 377:Source\FreeRTOS\10.0.1\Source\portable\MemMang/heap_4.c **** static void prvInsertBlockIntoFreeList( BlockLink_t *pxBlockToInsert )
 378:Source\FreeRTOS\10.0.1\Source\portable\MemMang/heap_4.c **** {
 120              		.loc 1 378 0
 121              		.cfi_startproc
 122              		@ args = 0, pretend = 0, frame = 0
 123              		@ frame_needed = 0, uses_anonymous_args = 0
 124              	.LVL12:
 125 0000 10B5     		push	{r4, lr}
 126              		.cfi_def_cfa_offset 8
 127              		.cfi_offset 4, -8
 128              		.cfi_offset 14, -4
 129              	.LVL13:
 379:Source\FreeRTOS\10.0.1\Source\portable\MemMang/heap_4.c **** BlockLink_t *pxIterator;
 380:Source\FreeRTOS\10.0.1\Source\portable\MemMang/heap_4.c **** uint8_t *puc;
 381:Source\FreeRTOS\10.0.1\Source\portable\MemMang/heap_4.c **** 
 382:Source\FreeRTOS\10.0.1\Source\portable\MemMang/heap_4.c **** 	/* Iterate through the list until a block is found that has a higher address
ARM GAS  C:\Users\Phuong\AppData\Local\Temp\ccIw5O3o.s 			page 10


 383:Source\FreeRTOS\10.0.1\Source\portable\MemMang/heap_4.c **** 	than the block being inserted. */
 384:Source\FreeRTOS\10.0.1\Source\portable\MemMang/heap_4.c **** 	for( pxIterator = &xStart; pxIterator->pxNextFreeBlock < pxBlockToInsert; pxIterator = pxIterator-
 130              		.loc 1 384 0
 131 0002 124B     		ldr	r3, .L14
 132 0004 00E0     		b	.L7
 133              	.LVL14:
 134              	.L13:
 135 0006 1300     		movs	r3, r2
 136              	.LVL15:
 137              	.L7:
 138              		.loc 1 384 0 is_stmt 0 discriminator 1
 139 0008 1A68     		ldr	r2, [r3]
 140 000a 8242     		cmp	r2, r0
 141 000c FBD3     		bcc	.L13
 142              	.LVL16:
 385:Source\FreeRTOS\10.0.1\Source\portable\MemMang/heap_4.c **** 	{
 386:Source\FreeRTOS\10.0.1\Source\portable\MemMang/heap_4.c **** 		/* Nothing to do here, just iterate to the right position. */
 387:Source\FreeRTOS\10.0.1\Source\portable\MemMang/heap_4.c **** 	}
 388:Source\FreeRTOS\10.0.1\Source\portable\MemMang/heap_4.c **** 
 389:Source\FreeRTOS\10.0.1\Source\portable\MemMang/heap_4.c **** 	/* Do the block being inserted, and the block it is being inserted after
 390:Source\FreeRTOS\10.0.1\Source\portable\MemMang/heap_4.c **** 	make a contiguous block of memory? */
 391:Source\FreeRTOS\10.0.1\Source\portable\MemMang/heap_4.c **** 	puc = ( uint8_t * ) pxIterator;
 392:Source\FreeRTOS\10.0.1\Source\portable\MemMang/heap_4.c **** 	if( ( puc + pxIterator->xBlockSize ) == ( uint8_t * ) pxBlockToInsert )
 143              		.loc 1 392 0 is_stmt 1
 144 000e 5C68     		ldr	r4, [r3, #4]
 145 0010 1919     		adds	r1, r3, r4
 146 0012 8842     		cmp	r0, r1
 147 0014 03D1     		bne	.L8
 393:Source\FreeRTOS\10.0.1\Source\portable\MemMang/heap_4.c **** 	{
 394:Source\FreeRTOS\10.0.1\Source\portable\MemMang/heap_4.c **** 		pxIterator->xBlockSize += pxBlockToInsert->xBlockSize;
 148              		.loc 1 394 0
 149 0016 4168     		ldr	r1, [r0, #4]
 150 0018 6118     		adds	r1, r4, r1
 151 001a 5960     		str	r1, [r3, #4]
 152              	.LVL17:
 395:Source\FreeRTOS\10.0.1\Source\portable\MemMang/heap_4.c **** 		pxBlockToInsert = pxIterator;
 153              		.loc 1 395 0
 154 001c 1800     		movs	r0, r3
 155              	.LVL18:
 156              	.L8:
 396:Source\FreeRTOS\10.0.1\Source\portable\MemMang/heap_4.c **** 	}
 397:Source\FreeRTOS\10.0.1\Source\portable\MemMang/heap_4.c **** 	else
 398:Source\FreeRTOS\10.0.1\Source\portable\MemMang/heap_4.c **** 	{
 399:Source\FreeRTOS\10.0.1\Source\portable\MemMang/heap_4.c **** 		mtCOVERAGE_TEST_MARKER();
 400:Source\FreeRTOS\10.0.1\Source\portable\MemMang/heap_4.c **** 	}
 401:Source\FreeRTOS\10.0.1\Source\portable\MemMang/heap_4.c **** 
 402:Source\FreeRTOS\10.0.1\Source\portable\MemMang/heap_4.c **** 	/* Do the block being inserted, and the block it is being inserted before
 403:Source\FreeRTOS\10.0.1\Source\portable\MemMang/heap_4.c **** 	make a contiguous block of memory? */
 404:Source\FreeRTOS\10.0.1\Source\portable\MemMang/heap_4.c **** 	puc = ( uint8_t * ) pxBlockToInsert;
 405:Source\FreeRTOS\10.0.1\Source\portable\MemMang/heap_4.c **** 	if( ( puc + pxBlockToInsert->xBlockSize ) == ( uint8_t * ) pxIterator->pxNextFreeBlock )
 157              		.loc 1 405 0
 158 001e 4468     		ldr	r4, [r0, #4]
 159 0020 0119     		adds	r1, r0, r4
 160 0022 8A42     		cmp	r2, r1
 161 0024 0CD1     		bne	.L9
 406:Source\FreeRTOS\10.0.1\Source\portable\MemMang/heap_4.c **** 	{
 407:Source\FreeRTOS\10.0.1\Source\portable\MemMang/heap_4.c **** 		if( pxIterator->pxNextFreeBlock != pxEnd )
ARM GAS  C:\Users\Phuong\AppData\Local\Temp\ccIw5O3o.s 			page 11


 162              		.loc 1 407 0
 163 0026 0949     		ldr	r1, .L14
 164 0028 8968     		ldr	r1, [r1, #8]
 165 002a 8A42     		cmp	r2, r1
 166 002c 06D0     		beq	.L10
 408:Source\FreeRTOS\10.0.1\Source\portable\MemMang/heap_4.c **** 		{
 409:Source\FreeRTOS\10.0.1\Source\portable\MemMang/heap_4.c **** 			/* Form one big block from the two blocks. */
 410:Source\FreeRTOS\10.0.1\Source\portable\MemMang/heap_4.c **** 			pxBlockToInsert->xBlockSize += pxIterator->pxNextFreeBlock->xBlockSize;
 167              		.loc 1 410 0
 168 002e 5268     		ldr	r2, [r2, #4]
 169 0030 A218     		adds	r2, r4, r2
 170 0032 4260     		str	r2, [r0, #4]
 411:Source\FreeRTOS\10.0.1\Source\portable\MemMang/heap_4.c **** 			pxBlockToInsert->pxNextFreeBlock = pxIterator->pxNextFreeBlock->pxNextFreeBlock;
 171              		.loc 1 411 0
 172 0034 1A68     		ldr	r2, [r3]
 173 0036 1268     		ldr	r2, [r2]
 174 0038 0260     		str	r2, [r0]
 175 003a 02E0     		b	.L11
 176              	.L10:
 412:Source\FreeRTOS\10.0.1\Source\portable\MemMang/heap_4.c **** 		}
 413:Source\FreeRTOS\10.0.1\Source\portable\MemMang/heap_4.c **** 		else
 414:Source\FreeRTOS\10.0.1\Source\portable\MemMang/heap_4.c **** 		{
 415:Source\FreeRTOS\10.0.1\Source\portable\MemMang/heap_4.c **** 			pxBlockToInsert->pxNextFreeBlock = pxEnd;
 177              		.loc 1 415 0
 178 003c 0160     		str	r1, [r0]
 179 003e 00E0     		b	.L11
 180              	.L9:
 416:Source\FreeRTOS\10.0.1\Source\portable\MemMang/heap_4.c **** 		}
 417:Source\FreeRTOS\10.0.1\Source\portable\MemMang/heap_4.c **** 	}
 418:Source\FreeRTOS\10.0.1\Source\portable\MemMang/heap_4.c **** 	else
 419:Source\FreeRTOS\10.0.1\Source\portable\MemMang/heap_4.c **** 	{
 420:Source\FreeRTOS\10.0.1\Source\portable\MemMang/heap_4.c **** 		pxBlockToInsert->pxNextFreeBlock = pxIterator->pxNextFreeBlock;
 181              		.loc 1 420 0
 182 0040 0260     		str	r2, [r0]
 183              	.L11:
 421:Source\FreeRTOS\10.0.1\Source\portable\MemMang/heap_4.c **** 	}
 422:Source\FreeRTOS\10.0.1\Source\portable\MemMang/heap_4.c **** 
 423:Source\FreeRTOS\10.0.1\Source\portable\MemMang/heap_4.c **** 	/* If the block being inserted plugged a gab, so was merged with the block
 424:Source\FreeRTOS\10.0.1\Source\portable\MemMang/heap_4.c **** 	before and the block after, then it's pxNextFreeBlock pointer will have
 425:Source\FreeRTOS\10.0.1\Source\portable\MemMang/heap_4.c **** 	already been set, and should not be set here as that would make it point
 426:Source\FreeRTOS\10.0.1\Source\portable\MemMang/heap_4.c **** 	to itself. */
 427:Source\FreeRTOS\10.0.1\Source\portable\MemMang/heap_4.c **** 	if( pxIterator != pxBlockToInsert )
 184              		.loc 1 427 0
 185 0042 9842     		cmp	r0, r3
 186 0044 00D0     		beq	.L6
 428:Source\FreeRTOS\10.0.1\Source\portable\MemMang/heap_4.c **** 	{
 429:Source\FreeRTOS\10.0.1\Source\portable\MemMang/heap_4.c **** 		pxIterator->pxNextFreeBlock = pxBlockToInsert;
 187              		.loc 1 429 0
 188 0046 1860     		str	r0, [r3]
 189              	.L6:
 430:Source\FreeRTOS\10.0.1\Source\portable\MemMang/heap_4.c **** 	}
 431:Source\FreeRTOS\10.0.1\Source\portable\MemMang/heap_4.c **** 	else
 432:Source\FreeRTOS\10.0.1\Source\portable\MemMang/heap_4.c **** 	{
 433:Source\FreeRTOS\10.0.1\Source\portable\MemMang/heap_4.c **** 		mtCOVERAGE_TEST_MARKER();
 434:Source\FreeRTOS\10.0.1\Source\portable\MemMang/heap_4.c **** 	}
 435:Source\FreeRTOS\10.0.1\Source\portable\MemMang/heap_4.c **** }
 190              		.loc 1 435 0
ARM GAS  C:\Users\Phuong\AppData\Local\Temp\ccIw5O3o.s 			page 12


 191              		@ sp needed
 192 0048 10BD     		pop	{r4, pc}
 193              	.L15:
 194 004a C046     		.align	2
 195              	.L14:
 196 004c 00A00000 		.word	.LANCHOR1
 197              		.cfi_endproc
 198              	.LFE42:
 199              		.size	prvInsertBlockIntoFreeList, .-prvInsertBlockIntoFreeList
 200              		.section	.text.pvPortMalloc,"ax",%progbits
 201              		.align	2
 202              		.global	pvPortMalloc
 203              		.code	16
 204              		.thumb_func
 205              		.type	pvPortMalloc, %function
 206              	pvPortMalloc:
 207              	.LFB36:
 114:Source\FreeRTOS\10.0.1\Source\portable\MemMang/heap_4.c **** BlockLink_t *pxBlock, *pxPreviousBlock, *pxNewBlockLink;
 208              		.loc 1 114 0
 209              		.cfi_startproc
 210              		@ args = 0, pretend = 0, frame = 0
 211              		@ frame_needed = 0, uses_anonymous_args = 0
 212              	.LVL19:
 213 0000 70B5     		push	{r4, r5, r6, lr}
 214              		.cfi_def_cfa_offset 16
 215              		.cfi_offset 4, -16
 216              		.cfi_offset 5, -12
 217              		.cfi_offset 6, -8
 218              		.cfi_offset 14, -4
 219 0002 0400     		movs	r4, r0
 220              	.LVL20:
 118:Source\FreeRTOS\10.0.1\Source\portable\MemMang/heap_4.c **** 	{
 221              		.loc 1 118 0
 222 0004 FFF7FEFF 		bl	vTaskSuspendAll
 223              	.LVL21:
 122:Source\FreeRTOS\10.0.1\Source\portable\MemMang/heap_4.c **** 		{
 224              		.loc 1 122 0
 225 0008 2F4B     		ldr	r3, .L35
 226 000a 9B68     		ldr	r3, [r3, #8]
 227 000c 002B     		cmp	r3, #0
 228 000e 01D1     		bne	.L17
 124:Source\FreeRTOS\10.0.1\Source\portable\MemMang/heap_4.c **** 		}
 229              		.loc 1 124 0
 230 0010 FFF7FEFF 		bl	prvHeapInit
 231              	.LVL22:
 232              	.L17:
 135:Source\FreeRTOS\10.0.1\Source\portable\MemMang/heap_4.c **** 		{
 233              		.loc 1 135 0
 234 0014 2C4B     		ldr	r3, .L35
 235 0016 5B69     		ldr	r3, [r3, #20]
 236 0018 2342     		tst	r3, r4
 237 001a 42D1     		bne	.L30
 139:Source\FreeRTOS\10.0.1\Source\portable\MemMang/heap_4.c **** 			{
 238              		.loc 1 139 0
 239 001c 002C     		cmp	r4, #0
 240 001e 09D0     		beq	.L19
 141:Source\FreeRTOS\10.0.1\Source\portable\MemMang/heap_4.c **** 
ARM GAS  C:\Users\Phuong\AppData\Local\Temp\ccIw5O3o.s 			page 13


 241              		.loc 1 141 0
 242 0020 0834     		adds	r4, r4, #8
 243              	.LVL23:
 145:Source\FreeRTOS\10.0.1\Source\portable\MemMang/heap_4.c **** 				{
 244              		.loc 1 145 0
 245 0022 6307     		lsls	r3, r4, #29
 246 0024 06D0     		beq	.L19
 148:Source\FreeRTOS\10.0.1\Source\portable\MemMang/heap_4.c **** 					configASSERT( ( xWantedSize & portBYTE_ALIGNMENT_MASK ) == 0 );
 247              		.loc 1 148 0
 248 0026 0723     		movs	r3, #7
 249 0028 9C43     		bics	r4, r3
 250              	.LVL24:
 251 002a 0834     		adds	r4, r4, #8
 252              	.LVL25:
 149:Source\FreeRTOS\10.0.1\Source\portable\MemMang/heap_4.c **** 				}
 253              		.loc 1 149 0
 254 002c 2342     		tst	r3, r4
 255 002e 01D0     		beq	.L19
 149:Source\FreeRTOS\10.0.1\Source\portable\MemMang/heap_4.c **** 				}
 256              		.loc 1 149 0 is_stmt 0 discriminator 1
 257              		.syntax divided
 258              	@ 149 "Source\FreeRTOS\10.0.1\Source\portable\MemMang\heap_4.c" 1
 259 0030 72B6     		 cpsid i 
 260              	@ 0 "" 2
 261              		.thumb
 262              		.syntax unified
 263              	.L20:
 264 0032 FEE7     		b	.L20
 265              	.L19:
 161:Source\FreeRTOS\10.0.1\Source\portable\MemMang/heap_4.c **** 			{
 266              		.loc 1 161 0 is_stmt 1
 267 0034 002C     		cmp	r4, #0
 268 0036 36D0     		beq	.L31
 161:Source\FreeRTOS\10.0.1\Source\portable\MemMang/heap_4.c **** 			{
 269              		.loc 1 161 0 is_stmt 0 discriminator 1
 270 0038 234B     		ldr	r3, .L35
 271 003a 1B69     		ldr	r3, [r3, #16]
 272 003c 9C42     		cmp	r4, r3
 273 003e 34D8     		bhi	.L32
 274              	.LVL26:
 166:Source\FreeRTOS\10.0.1\Source\portable\MemMang/heap_4.c **** 				while( ( pxBlock->xBlockSize < xWantedSize ) && ( pxBlock->pxNextFreeBlock != NULL ) )
 275              		.loc 1 166 0 is_stmt 1
 276 0040 214B     		ldr	r3, .L35
 277 0042 1D68     		ldr	r5, [r3]
 278              	.LVL27:
 167:Source\FreeRTOS\10.0.1\Source\portable\MemMang/heap_4.c **** 				{
 279              		.loc 1 167 0
 280 0044 01E0     		b	.L22
 281              	.LVL28:
 282              	.L33:
 169:Source\FreeRTOS\10.0.1\Source\portable\MemMang/heap_4.c **** 					pxBlock = pxBlock->pxNextFreeBlock;
 283              		.loc 1 169 0
 284 0046 2B00     		movs	r3, r5
 285              	.LVL29:
 170:Source\FreeRTOS\10.0.1\Source\portable\MemMang/heap_4.c **** 				}
 286              		.loc 1 170 0
 287 0048 1500     		movs	r5, r2
ARM GAS  C:\Users\Phuong\AppData\Local\Temp\ccIw5O3o.s 			page 14


 288              	.LVL30:
 289              	.L22:
 167:Source\FreeRTOS\10.0.1\Source\portable\MemMang/heap_4.c **** 				{
 290              		.loc 1 167 0
 291 004a 6A68     		ldr	r2, [r5, #4]
 292 004c 9442     		cmp	r4, r2
 293 004e 02D9     		bls	.L21
 167:Source\FreeRTOS\10.0.1\Source\portable\MemMang/heap_4.c **** 				{
 294              		.loc 1 167 0 is_stmt 0 discriminator 1
 295 0050 2A68     		ldr	r2, [r5]
 296 0052 002A     		cmp	r2, #0
 297 0054 F7D1     		bne	.L33
 298              	.L21:
 175:Source\FreeRTOS\10.0.1\Source\portable\MemMang/heap_4.c **** 				{
 299              		.loc 1 175 0 is_stmt 1
 300 0056 1C4A     		ldr	r2, .L35
 301 0058 9268     		ldr	r2, [r2, #8]
 302 005a 9542     		cmp	r5, r2
 303 005c 27D0     		beq	.L34
 179:Source\FreeRTOS\10.0.1\Source\portable\MemMang/heap_4.c **** 
 304              		.loc 1 179 0
 305 005e 1E68     		ldr	r6, [r3]
 306 0060 0836     		adds	r6, r6, #8
 307              	.LVL31:
 183:Source\FreeRTOS\10.0.1\Source\portable\MemMang/heap_4.c **** 
 308              		.loc 1 183 0
 309 0062 2A68     		ldr	r2, [r5]
 310 0064 1A60     		str	r2, [r3]
 187:Source\FreeRTOS\10.0.1\Source\portable\MemMang/heap_4.c **** 					{
 311              		.loc 1 187 0
 312 0066 6B68     		ldr	r3, [r5, #4]
 313              	.LVL32:
 314 0068 1B1B     		subs	r3, r3, r4
 315 006a 102B     		cmp	r3, #16
 316 006c 08D9     		bls	.L23
 193:Source\FreeRTOS\10.0.1\Source\portable\MemMang/heap_4.c **** 						configASSERT( ( ( ( size_t ) pxNewBlockLink ) & portBYTE_ALIGNMENT_MASK ) == 0 );
 317              		.loc 1 193 0
 318 006e 2819     		adds	r0, r5, r4
 319              	.LVL33:
 194:Source\FreeRTOS\10.0.1\Source\portable\MemMang/heap_4.c **** 
 320              		.loc 1 194 0
 321 0070 4207     		lsls	r2, r0, #29
 322 0072 01D0     		beq	.L24
 194:Source\FreeRTOS\10.0.1\Source\portable\MemMang/heap_4.c **** 
 323              		.loc 1 194 0 is_stmt 0 discriminator 1
 324              		.syntax divided
 325              	@ 194 "Source\FreeRTOS\10.0.1\Source\portable\MemMang\heap_4.c" 1
 326 0074 72B6     		 cpsid i 
 327              	@ 0 "" 2
 328              		.thumb
 329              		.syntax unified
 330              	.L25:
 331 0076 FEE7     		b	.L25
 332              	.L24:
 198:Source\FreeRTOS\10.0.1\Source\portable\MemMang/heap_4.c **** 						pxBlock->xBlockSize = xWantedSize;
 333              		.loc 1 198 0 is_stmt 1
 334 0078 4360     		str	r3, [r0, #4]
ARM GAS  C:\Users\Phuong\AppData\Local\Temp\ccIw5O3o.s 			page 15


 199:Source\FreeRTOS\10.0.1\Source\portable\MemMang/heap_4.c **** 
 335              		.loc 1 199 0
 336 007a 6C60     		str	r4, [r5, #4]
 202:Source\FreeRTOS\10.0.1\Source\portable\MemMang/heap_4.c **** 					}
 337              		.loc 1 202 0
 338 007c FFF7FEFF 		bl	prvInsertBlockIntoFreeList
 339              	.LVL34:
 340              	.L23:
 209:Source\FreeRTOS\10.0.1\Source\portable\MemMang/heap_4.c **** 
 341              		.loc 1 209 0
 342 0080 6A68     		ldr	r2, [r5, #4]
 343 0082 1149     		ldr	r1, .L35
 344 0084 0B69     		ldr	r3, [r1, #16]
 345 0086 9B1A     		subs	r3, r3, r2
 346 0088 0B61     		str	r3, [r1, #16]
 211:Source\FreeRTOS\10.0.1\Source\portable\MemMang/heap_4.c **** 					{
 347              		.loc 1 211 0
 348 008a C968     		ldr	r1, [r1, #12]
 349 008c 8B42     		cmp	r3, r1
 350 008e 01D2     		bcs	.L26
 213:Source\FreeRTOS\10.0.1\Source\portable\MemMang/heap_4.c **** 					}
 351              		.loc 1 213 0
 352 0090 0D49     		ldr	r1, .L35
 353 0092 CB60     		str	r3, [r1, #12]
 354              	.L26:
 222:Source\FreeRTOS\10.0.1\Source\portable\MemMang/heap_4.c **** 					pxBlock->pxNextFreeBlock = NULL;
 355              		.loc 1 222 0
 356 0094 0C4B     		ldr	r3, .L35
 357 0096 5B69     		ldr	r3, [r3, #20]
 358 0098 1A43     		orrs	r2, r3
 359 009a 6A60     		str	r2, [r5, #4]
 223:Source\FreeRTOS\10.0.1\Source\portable\MemMang/heap_4.c **** 				}
 360              		.loc 1 223 0
 361 009c 0023     		movs	r3, #0
 362 009e 2B60     		str	r3, [r5]
 363 00a0 06E0     		b	.L18
 364              	.LVL35:
 365              	.L30:
 116:Source\FreeRTOS\10.0.1\Source\portable\MemMang/heap_4.c **** 
 366              		.loc 1 116 0
 367 00a2 0026     		movs	r6, #0
 368 00a4 04E0     		b	.L18
 369              	.L31:
 370 00a6 0026     		movs	r6, #0
 371 00a8 02E0     		b	.L18
 372              	.L32:
 373 00aa 0026     		movs	r6, #0
 374 00ac 00E0     		b	.L18
 375              	.LVL36:
 376              	.L34:
 377 00ae 0026     		movs	r6, #0
 378              	.LVL37:
 379              	.L18:
 242:Source\FreeRTOS\10.0.1\Source\portable\MemMang/heap_4.c **** 
 380              		.loc 1 242 0
 381 00b0 FFF7FEFF 		bl	xTaskResumeAll
 382              	.LVL38:
ARM GAS  C:\Users\Phuong\AppData\Local\Temp\ccIw5O3o.s 			page 16


 246:Source\FreeRTOS\10.0.1\Source\portable\MemMang/heap_4.c **** 		{
 383              		.loc 1 246 0
 384 00b4 002E     		cmp	r6, #0
 385 00b6 01D1     		bne	.L27
 386              	.LBB2:
 249:Source\FreeRTOS\10.0.1\Source\portable\MemMang/heap_4.c **** 		}
 387              		.loc 1 249 0
 388 00b8 FFF7FEFF 		bl	vApplicationMallocFailedHook
 389              	.LVL39:
 390              	.L27:
 391              	.LBE2:
 258:Source\FreeRTOS\10.0.1\Source\portable\MemMang/heap_4.c **** 	return pvReturn;
 392              		.loc 1 258 0
 393 00bc 7307     		lsls	r3, r6, #29
 394 00be 01D0     		beq	.L28
 258:Source\FreeRTOS\10.0.1\Source\portable\MemMang/heap_4.c **** 	return pvReturn;
 395              		.loc 1 258 0 is_stmt 0 discriminator 1
 396              		.syntax divided
 397              	@ 258 "Source\FreeRTOS\10.0.1\Source\portable\MemMang\heap_4.c" 1
 398 00c0 72B6     		 cpsid i 
 399              	@ 0 "" 2
 400              		.thumb
 401              		.syntax unified
 402              	.L29:
 403 00c2 FEE7     		b	.L29
 404              	.L28:
 260:Source\FreeRTOS\10.0.1\Source\portable\MemMang/heap_4.c **** /*-----------------------------------------------------------*/
 405              		.loc 1 260 0 is_stmt 1
 406 00c4 3000     		movs	r0, r6
 407              		@ sp needed
 408              	.LVL40:
 409              	.LVL41:
 410 00c6 70BD     		pop	{r4, r5, r6, pc}
 411              	.L36:
 412              		.align	2
 413              	.L35:
 414 00c8 00A00000 		.word	.LANCHOR1
 415              		.cfi_endproc
 416              	.LFE36:
 417              		.size	pvPortMalloc, .-pvPortMalloc
 418              		.section	.text.vPortFree,"ax",%progbits
 419              		.align	2
 420              		.global	vPortFree
 421              		.code	16
 422              		.thumb_func
 423              		.type	vPortFree, %function
 424              	vPortFree:
 425              	.LFB37:
 264:Source\FreeRTOS\10.0.1\Source\portable\MemMang/heap_4.c **** uint8_t *puc = ( uint8_t * ) pv;
 426              		.loc 1 264 0
 427              		.cfi_startproc
 428              		@ args = 0, pretend = 0, frame = 0
 429              		@ frame_needed = 0, uses_anonymous_args = 0
 430              	.LVL42:
 431 0000 70B5     		push	{r4, r5, r6, lr}
 432              		.cfi_def_cfa_offset 16
 433              		.cfi_offset 4, -16
ARM GAS  C:\Users\Phuong\AppData\Local\Temp\ccIw5O3o.s 			page 17


 434              		.cfi_offset 5, -12
 435              		.cfi_offset 6, -8
 436              		.cfi_offset 14, -4
 437              	.LVL43:
 268:Source\FreeRTOS\10.0.1\Source\portable\MemMang/heap_4.c **** 	{
 438              		.loc 1 268 0
 439 0002 0028     		cmp	r0, #0
 440 0004 25D0     		beq	.L37
 272:Source\FreeRTOS\10.0.1\Source\portable\MemMang/heap_4.c **** 
 441              		.loc 1 272 0
 442 0006 0500     		movs	r5, r0
 443 0008 083D     		subs	r5, r5, #8
 444              	.LVL44:
 278:Source\FreeRTOS\10.0.1\Source\portable\MemMang/heap_4.c **** 		configASSERT( pxLink->pxNextFreeBlock == NULL );
 445              		.loc 1 278 0
 446 000a 6B68     		ldr	r3, [r5, #4]
 447 000c 114A     		ldr	r2, .L43
 448 000e 5269     		ldr	r2, [r2, #20]
 449 0010 1400     		movs	r4, r2
 450 0012 1C40     		ands	r4, r3
 451 0014 01D1     		bne	.L39
 278:Source\FreeRTOS\10.0.1\Source\portable\MemMang/heap_4.c **** 		configASSERT( pxLink->pxNextFreeBlock == NULL );
 452              		.loc 1 278 0 is_stmt 0 discriminator 1
 453              		.syntax divided
 454              	@ 278 "Source\FreeRTOS\10.0.1\Source\portable\MemMang\heap_4.c" 1
 455 0016 72B6     		 cpsid i 
 456              	@ 0 "" 2
 457              		.thumb
 458              		.syntax unified
 459              	.L40:
 460 0018 FEE7     		b	.L40
 461              	.L39:
 279:Source\FreeRTOS\10.0.1\Source\portable\MemMang/heap_4.c **** 
 462              		.loc 1 279 0 is_stmt 1
 463 001a 0100     		movs	r1, r0
 464 001c 0839     		subs	r1, r1, #8
 465 001e 0968     		ldr	r1, [r1]
 466 0020 0029     		cmp	r1, #0
 467 0022 01D0     		beq	.L41
 279:Source\FreeRTOS\10.0.1\Source\portable\MemMang/heap_4.c **** 
 468              		.loc 1 279 0 is_stmt 0 discriminator 1
 469              		.syntax divided
 470              	@ 279 "Source\FreeRTOS\10.0.1\Source\portable\MemMang\heap_4.c" 1
 471 0024 72B6     		 cpsid i 
 472              	@ 0 "" 2
 473              		.thumb
 474              		.syntax unified
 475              	.L42:
 476 0026 FEE7     		b	.L42
 477              	.L41:
 281:Source\FreeRTOS\10.0.1\Source\portable\MemMang/heap_4.c **** 		{
 478              		.loc 1 281 0 is_stmt 1
 479 0028 002C     		cmp	r4, #0
 480 002a 12D0     		beq	.L37
 283:Source\FreeRTOS\10.0.1\Source\portable\MemMang/heap_4.c **** 			{
 481              		.loc 1 283 0
 482 002c 0029     		cmp	r1, #0
ARM GAS  C:\Users\Phuong\AppData\Local\Temp\ccIw5O3o.s 			page 18


 483 002e 10D1     		bne	.L37
 287:Source\FreeRTOS\10.0.1\Source\portable\MemMang/heap_4.c **** 
 484              		.loc 1 287 0
 485 0030 0838     		subs	r0, r0, #8
 486              	.LVL45:
 487 0032 0400     		movs	r4, r0
 488 0034 9343     		bics	r3, r2
 489 0036 4360     		str	r3, [r0, #4]
 289:Source\FreeRTOS\10.0.1\Source\portable\MemMang/heap_4.c **** 				{
 490              		.loc 1 289 0
 491 0038 FFF7FEFF 		bl	vTaskSuspendAll
 492              	.LVL46:
 292:Source\FreeRTOS\10.0.1\Source\portable\MemMang/heap_4.c **** 					traceFREE( pv, pxLink->xBlockSize );
 493              		.loc 1 292 0
 494 003c 6368     		ldr	r3, [r4, #4]
 495 003e 054A     		ldr	r2, .L43
 496 0040 1169     		ldr	r1, [r2, #16]
 497 0042 8C46     		mov	ip, r1
 498 0044 6344     		add	r3, r3, ip
 499 0046 1361     		str	r3, [r2, #16]
 294:Source\FreeRTOS\10.0.1\Source\portable\MemMang/heap_4.c **** 				}
 500              		.loc 1 294 0
 501 0048 2800     		movs	r0, r5
 502 004a FFF7FEFF 		bl	prvInsertBlockIntoFreeList
 503              	.LVL47:
 296:Source\FreeRTOS\10.0.1\Source\portable\MemMang/heap_4.c **** 			}
 504              		.loc 1 296 0
 505 004e FFF7FEFF 		bl	xTaskResumeAll
 506              	.LVL48:
 507              	.L37:
 308:Source\FreeRTOS\10.0.1\Source\portable\MemMang/heap_4.c **** /*-----------------------------------------------------------*/
 508              		.loc 1 308 0
 509              		@ sp needed
 510 0052 70BD     		pop	{r4, r5, r6, pc}
 511              	.L44:
 512              		.align	2
 513              	.L43:
 514 0054 00A00000 		.word	.LANCHOR1
 515              		.cfi_endproc
 516              	.LFE37:
 517              		.size	vPortFree, .-vPortFree
 518              		.section	.text.xPortGetFreeHeapSize,"ax",%progbits
 519              		.align	2
 520              		.global	xPortGetFreeHeapSize
 521              		.code	16
 522              		.thumb_func
 523              		.type	xPortGetFreeHeapSize, %function
 524              	xPortGetFreeHeapSize:
 525              	.LFB38:
 312:Source\FreeRTOS\10.0.1\Source\portable\MemMang/heap_4.c **** 	return xFreeBytesRemaining;
 526              		.loc 1 312 0
 527              		.cfi_startproc
 528              		@ args = 0, pretend = 0, frame = 0
 529              		@ frame_needed = 0, uses_anonymous_args = 0
 530              		@ link register save eliminated.
 313:Source\FreeRTOS\10.0.1\Source\portable\MemMang/heap_4.c **** }
 531              		.loc 1 313 0
ARM GAS  C:\Users\Phuong\AppData\Local\Temp\ccIw5O3o.s 			page 19


 532 0000 014B     		ldr	r3, .L46
 533 0002 1869     		ldr	r0, [r3, #16]
 314:Source\FreeRTOS\10.0.1\Source\portable\MemMang/heap_4.c **** /*-----------------------------------------------------------*/
 534              		.loc 1 314 0
 535              		@ sp needed
 536 0004 7047     		bx	lr
 537              	.L47:
 538 0006 C046     		.align	2
 539              	.L46:
 540 0008 00A00000 		.word	.LANCHOR1
 541              		.cfi_endproc
 542              	.LFE38:
 543              		.size	xPortGetFreeHeapSize, .-xPortGetFreeHeapSize
 544              		.section	.text.xPortGetMinimumEverFreeHeapSize,"ax",%progbits
 545              		.align	2
 546              		.global	xPortGetMinimumEverFreeHeapSize
 547              		.code	16
 548              		.thumb_func
 549              		.type	xPortGetMinimumEverFreeHeapSize, %function
 550              	xPortGetMinimumEverFreeHeapSize:
 551              	.LFB39:
 318:Source\FreeRTOS\10.0.1\Source\portable\MemMang/heap_4.c **** 	return xMinimumEverFreeBytesRemaining;
 552              		.loc 1 318 0
 553              		.cfi_startproc
 554              		@ args = 0, pretend = 0, frame = 0
 555              		@ frame_needed = 0, uses_anonymous_args = 0
 556              		@ link register save eliminated.
 319:Source\FreeRTOS\10.0.1\Source\portable\MemMang/heap_4.c **** }
 557              		.loc 1 319 0
 558 0000 014B     		ldr	r3, .L49
 559 0002 D868     		ldr	r0, [r3, #12]
 320:Source\FreeRTOS\10.0.1\Source\portable\MemMang/heap_4.c **** /*-----------------------------------------------------------*/
 560              		.loc 1 320 0
 561              		@ sp needed
 562 0004 7047     		bx	lr
 563              	.L50:
 564 0006 C046     		.align	2
 565              	.L49:
 566 0008 00A00000 		.word	.LANCHOR1
 567              		.cfi_endproc
 568              	.LFE39:
 569              		.size	xPortGetMinimumEverFreeHeapSize, .-xPortGetMinimumEverFreeHeapSize
 570              		.section	.text.vPortInitialiseBlocks,"ax",%progbits
 571              		.align	2
 572              		.global	vPortInitialiseBlocks
 573              		.code	16
 574              		.thumb_func
 575              		.type	vPortInitialiseBlocks, %function
 576              	vPortInitialiseBlocks:
 577              	.LFB40:
 324:Source\FreeRTOS\10.0.1\Source\portable\MemMang/heap_4.c **** 	/* This just exists to keep the linker quiet. */
 578              		.loc 1 324 0
 579              		.cfi_startproc
 580              		@ args = 0, pretend = 0, frame = 0
 581              		@ frame_needed = 0, uses_anonymous_args = 0
 582              		@ link register save eliminated.
 326:Source\FreeRTOS\10.0.1\Source\portable\MemMang/heap_4.c **** /*-----------------------------------------------------------*/
ARM GAS  C:\Users\Phuong\AppData\Local\Temp\ccIw5O3o.s 			page 20


 583              		.loc 1 326 0
 584              		@ sp needed
 585 0000 7047     		bx	lr
 586              		.cfi_endproc
 587              	.LFE40:
 588              		.size	vPortInitialiseBlocks, .-vPortInitialiseBlocks
 589 0002 C046     		.bss
 590              		.align	2
 591              		.set	.LANCHOR0,. + 0
 592              		.set	.LANCHOR1,. + 40960
 593              		.type	ucHeap, %object
 594              		.size	ucHeap, 40960
 595              	ucHeap:
 596 0000 00000000 		.space	40960
 596      00000000 
 596      00000000 
 596      00000000 
 596      00000000 
 597              		.type	xStart, %object
 598              		.size	xStart, 8
 599              	xStart:
 600 a000 00000000 		.space	8
 600      00000000 
 601              		.type	pxEnd, %object
 602              		.size	pxEnd, 4
 603              	pxEnd:
 604 a008 00000000 		.space	4
 605              		.type	xMinimumEverFreeBytesRemaining, %object
 606              		.size	xMinimumEverFreeBytesRemaining, 4
 607              	xMinimumEverFreeBytesRemaining:
 608 a00c 00000000 		.space	4
 609              		.type	xFreeBytesRemaining, %object
 610              		.size	xFreeBytesRemaining, 4
 611              	xFreeBytesRemaining:
 612 a010 00000000 		.space	4
 613              		.type	xBlockAllocatedBit, %object
 614              		.size	xBlockAllocatedBit, 4
 615              	xBlockAllocatedBit:
 616 a014 00000000 		.space	4
 617              		.text
 618              	.Letext0:
 619              		.file 2 "c:\\program files (x86)\\cypress\\psoc creator\\4.2\\psoc creator\\import\\gnu\\arm\\5.4.
 620              		.file 3 "c:\\program files (x86)\\cypress\\psoc creator\\4.2\\psoc creator\\import\\gnu\\arm\\5.4.
 621              		.file 4 "c:\\program files (x86)\\cypress\\psoc creator\\4.2\\psoc creator\\import\\gnu\\arm\\5.4.
 622              		.file 5 ".\\Source\\FreeRTOS\\10.0.1\\Source\\include/task.h"