ARM GAS  C:\Users\Phuong\AppData\Local\Temp\ccz0rMZh.s 			page 1


   1              		.syntax unified
   2              		.cpu cortex-m0plus
   3              		.fpu softvfp
   4              		.eabi_attribute 20, 1
   5              		.eabi_attribute 21, 1
   6              		.eabi_attribute 23, 3
   7              		.eabi_attribute 24, 1
   8              		.eabi_attribute 25, 1
   9              		.eabi_attribute 26, 1
  10              		.eabi_attribute 30, 1
  11              		.eabi_attribute 34, 0
  12              		.eabi_attribute 18, 4
  13              		.thumb
  14              		.syntax unified
  15              		.file	"hkdf.c"
  16              		.text
  17              	.Ltext0:
  18              		.cfi_sections	.debug_frame
  19              		.section	.text.mbedtls_hkdf_extract,"ax",%progbits
  20              		.align	2
  21              		.global	mbedtls_hkdf_extract
  22              		.code	16
  23              		.thumb_func
  24              		.type	mbedtls_hkdf_extract, %function
  25              	mbedtls_hkdf_extract:
  26              	.LFB1:
  27              		.file 1 "Source\\mbedtls_open\\library\\hkdf.c"
   1:Source\mbedtls_open\library/hkdf.c **** /*
   2:Source\mbedtls_open\library/hkdf.c ****  *  HKDF implementation -- RFC 5869
   3:Source\mbedtls_open\library/hkdf.c ****  *
   4:Source\mbedtls_open\library/hkdf.c ****  *  Copyright (C) 2016-2018, ARM Limited, All Rights Reserved
   5:Source\mbedtls_open\library/hkdf.c ****  *  SPDX-License-Identifier: Apache-2.0
   6:Source\mbedtls_open\library/hkdf.c ****  *
   7:Source\mbedtls_open\library/hkdf.c ****  *  Licensed under the Apache License, Version 2.0 (the "License"); you may
   8:Source\mbedtls_open\library/hkdf.c ****  *  not use this file except in compliance with the License.
   9:Source\mbedtls_open\library/hkdf.c ****  *  You may obtain a copy of the License at
  10:Source\mbedtls_open\library/hkdf.c ****  *
  11:Source\mbedtls_open\library/hkdf.c ****  *  http://www.apache.org/licenses/LICENSE-2.0
  12:Source\mbedtls_open\library/hkdf.c ****  *
  13:Source\mbedtls_open\library/hkdf.c ****  *  Unless required by applicable law or agreed to in writing, software
  14:Source\mbedtls_open\library/hkdf.c ****  *  distributed under the License is distributed on an "AS IS" BASIS, WITHOUT
  15:Source\mbedtls_open\library/hkdf.c ****  *  WARRANTIES OR CONDITIONS OF ANY KIND, either express or implied.
  16:Source\mbedtls_open\library/hkdf.c ****  *  See the License for the specific language governing permissions and
  17:Source\mbedtls_open\library/hkdf.c ****  *  limitations under the License.
  18:Source\mbedtls_open\library/hkdf.c ****  *
  19:Source\mbedtls_open\library/hkdf.c ****  *  This file is part of mbed TLS (https://tls.mbed.org)
  20:Source\mbedtls_open\library/hkdf.c ****  */
  21:Source\mbedtls_open\library/hkdf.c **** #if !defined(MBEDTLS_CONFIG_FILE)
  22:Source\mbedtls_open\library/hkdf.c **** #include "mbedtls/config.h"
  23:Source\mbedtls_open\library/hkdf.c **** #else
  24:Source\mbedtls_open\library/hkdf.c **** #include MBEDTLS_CONFIG_FILE
  25:Source\mbedtls_open\library/hkdf.c **** #endif
  26:Source\mbedtls_open\library/hkdf.c **** 
  27:Source\mbedtls_open\library/hkdf.c **** #if defined(MBEDTLS_HKDF_C)
  28:Source\mbedtls_open\library/hkdf.c **** 
  29:Source\mbedtls_open\library/hkdf.c **** #include <string.h>
  30:Source\mbedtls_open\library/hkdf.c **** #include "mbedtls/hkdf.h"
ARM GAS  C:\Users\Phuong\AppData\Local\Temp\ccz0rMZh.s 			page 2


  31:Source\mbedtls_open\library/hkdf.c **** #include "mbedtls/platform_util.h"
  32:Source\mbedtls_open\library/hkdf.c **** 
  33:Source\mbedtls_open\library/hkdf.c **** int mbedtls_hkdf( const mbedtls_md_info_t *md, const unsigned char *salt,
  34:Source\mbedtls_open\library/hkdf.c ****                   size_t salt_len, const unsigned char *ikm, size_t ikm_len,
  35:Source\mbedtls_open\library/hkdf.c ****                   const unsigned char *info, size_t info_len,
  36:Source\mbedtls_open\library/hkdf.c ****                   unsigned char *okm, size_t okm_len )
  37:Source\mbedtls_open\library/hkdf.c **** {
  38:Source\mbedtls_open\library/hkdf.c ****     int ret;
  39:Source\mbedtls_open\library/hkdf.c ****     unsigned char prk[MBEDTLS_MD_MAX_SIZE];
  40:Source\mbedtls_open\library/hkdf.c **** 
  41:Source\mbedtls_open\library/hkdf.c ****     ret = mbedtls_hkdf_extract( md, salt, salt_len, ikm, ikm_len, prk );
  42:Source\mbedtls_open\library/hkdf.c **** 
  43:Source\mbedtls_open\library/hkdf.c ****     if( ret == 0 )
  44:Source\mbedtls_open\library/hkdf.c ****     {
  45:Source\mbedtls_open\library/hkdf.c ****         ret = mbedtls_hkdf_expand( md, prk, mbedtls_md_get_size( md ),
  46:Source\mbedtls_open\library/hkdf.c ****                                    info, info_len, okm, okm_len );
  47:Source\mbedtls_open\library/hkdf.c ****     }
  48:Source\mbedtls_open\library/hkdf.c **** 
  49:Source\mbedtls_open\library/hkdf.c ****     mbedtls_platform_zeroize( prk, sizeof( prk ) );
  50:Source\mbedtls_open\library/hkdf.c **** 
  51:Source\mbedtls_open\library/hkdf.c ****     return( ret );
  52:Source\mbedtls_open\library/hkdf.c **** }
  53:Source\mbedtls_open\library/hkdf.c **** 
  54:Source\mbedtls_open\library/hkdf.c **** int mbedtls_hkdf_extract( const mbedtls_md_info_t *md,
  55:Source\mbedtls_open\library/hkdf.c ****                           const unsigned char *salt, size_t salt_len,
  56:Source\mbedtls_open\library/hkdf.c ****                           const unsigned char *ikm, size_t ikm_len,
  57:Source\mbedtls_open\library/hkdf.c ****                           unsigned char *prk )
  58:Source\mbedtls_open\library/hkdf.c **** {
  28              		.loc 1 58 0
  29              		.cfi_startproc
  30              		@ args = 8, pretend = 0, frame = 64
  31              		@ frame_needed = 0, uses_anonymous_args = 0
  32              	.LVL0:
  33 0000 F0B5     		push	{r4, r5, r6, r7, lr}
  34              		.cfi_def_cfa_offset 20
  35              		.cfi_offset 4, -20
  36              		.cfi_offset 5, -16
  37              		.cfi_offset 6, -12
  38              		.cfi_offset 7, -8
  39              		.cfi_offset 14, -4
  40 0002 93B0     		sub	sp, sp, #76
  41              		.cfi_def_cfa_offset 96
  42 0004 0500     		movs	r5, r0
  43 0006 0F00     		movs	r7, r1
  44 0008 1400     		movs	r4, r2
  45 000a 1E00     		movs	r6, r3
  59:Source\mbedtls_open\library/hkdf.c ****     unsigned char null_salt[MBEDTLS_MD_MAX_SIZE] = { '\0' };
  46              		.loc 1 59 0
  47 000c 4022     		movs	r2, #64
  48              	.LVL1:
  49 000e 0021     		movs	r1, #0
  50              	.LVL2:
  51 0010 02A8     		add	r0, sp, #8
  52              	.LVL3:
  53 0012 FFF7FEFF 		bl	memset
  54              	.LVL4:
  60:Source\mbedtls_open\library/hkdf.c **** 
ARM GAS  C:\Users\Phuong\AppData\Local\Temp\ccz0rMZh.s 			page 3


  61:Source\mbedtls_open\library/hkdf.c ****     if( salt == NULL )
  55              		.loc 1 61 0
  56 0016 002F     		cmp	r7, #0
  57 0018 07D1     		bne	.L2
  58              	.LBB2:
  62:Source\mbedtls_open\library/hkdf.c ****     {
  63:Source\mbedtls_open\library/hkdf.c ****         size_t hash_len;
  64:Source\mbedtls_open\library/hkdf.c **** 
  65:Source\mbedtls_open\library/hkdf.c ****         if( salt_len != 0 )
  59              		.loc 1 65 0
  60 001a 002C     		cmp	r4, #0
  61 001c 10D1     		bne	.L4
  66:Source\mbedtls_open\library/hkdf.c ****         {
  67:Source\mbedtls_open\library/hkdf.c ****             return MBEDTLS_ERR_HKDF_BAD_INPUT_DATA;
  68:Source\mbedtls_open\library/hkdf.c ****         }
  69:Source\mbedtls_open\library/hkdf.c **** 
  70:Source\mbedtls_open\library/hkdf.c ****         hash_len = mbedtls_md_get_size( md );
  62              		.loc 1 70 0
  63 001e 2800     		movs	r0, r5
  64 0020 FFF7FEFF 		bl	mbedtls_md_get_size
  65              	.LVL5:
  66 0024 041E     		subs	r4, r0, #0
  67              	.LVL6:
  71:Source\mbedtls_open\library/hkdf.c **** 
  72:Source\mbedtls_open\library/hkdf.c ****         if( hash_len == 0 )
  68              		.loc 1 72 0
  69 0026 0DD0     		beq	.L5
  73:Source\mbedtls_open\library/hkdf.c ****         {
  74:Source\mbedtls_open\library/hkdf.c ****             return MBEDTLS_ERR_HKDF_BAD_INPUT_DATA;
  75:Source\mbedtls_open\library/hkdf.c ****         }
  76:Source\mbedtls_open\library/hkdf.c **** 
  77:Source\mbedtls_open\library/hkdf.c ****         salt = null_salt;
  70              		.loc 1 77 0
  71 0028 02AF     		add	r7, sp, #8
  72              	.LVL7:
  73              	.L2:
  74              	.LBE2:
  78:Source\mbedtls_open\library/hkdf.c ****         salt_len = hash_len;
  79:Source\mbedtls_open\library/hkdf.c ****     }
  80:Source\mbedtls_open\library/hkdf.c **** 
  81:Source\mbedtls_open\library/hkdf.c ****     return( mbedtls_md_hmac( md, salt, salt_len, ikm, ikm_len, prk ) );
  75              		.loc 1 81 0
  76 002a 199B     		ldr	r3, [sp, #100]
  77 002c 0193     		str	r3, [sp, #4]
  78 002e 189B     		ldr	r3, [sp, #96]
  79 0030 0093     		str	r3, [sp]
  80 0032 3300     		movs	r3, r6
  81 0034 2200     		movs	r2, r4
  82 0036 3900     		movs	r1, r7
  83 0038 2800     		movs	r0, r5
  84 003a FFF7FEFF 		bl	mbedtls_md_hmac
  85              	.LVL8:
  86 003e 02E0     		b	.L3
  87              	.L4:
  88              	.LBB3:
  67:Source\mbedtls_open\library/hkdf.c ****         }
  89              		.loc 1 67 0
ARM GAS  C:\Users\Phuong\AppData\Local\Temp\ccz0rMZh.s 			page 4


  90 0040 0248     		ldr	r0, .L6
  91 0042 00E0     		b	.L3
  92              	.LVL9:
  93              	.L5:
  74:Source\mbedtls_open\library/hkdf.c ****         }
  94              		.loc 1 74 0
  95 0044 0148     		ldr	r0, .L6
  96              	.LVL10:
  97              	.L3:
  98              	.LBE3:
  82:Source\mbedtls_open\library/hkdf.c **** }
  99              		.loc 1 82 0
 100 0046 13B0     		add	sp, sp, #76
 101              		@ sp needed
 102              	.LVL11:
 103              	.LVL12:
 104              	.LVL13:
 105 0048 F0BD     		pop	{r4, r5, r6, r7, pc}
 106              	.L7:
 107 004a C046     		.align	2
 108              	.L6:
 109 004c 80A0FFFF 		.word	-24448
 110              		.cfi_endproc
 111              	.LFE1:
 112              		.size	mbedtls_hkdf_extract, .-mbedtls_hkdf_extract
 113              		.global	__aeabi_uidiv
 114              		.global	__aeabi_uidivmod
 115              		.section	.text.mbedtls_hkdf_expand,"ax",%progbits
 116              		.align	2
 117              		.global	mbedtls_hkdf_expand
 118              		.code	16
 119              		.thumb_func
 120              		.type	mbedtls_hkdf_expand, %function
 121              	mbedtls_hkdf_expand:
 122              	.LFB2:
  83:Source\mbedtls_open\library/hkdf.c **** 
  84:Source\mbedtls_open\library/hkdf.c **** int mbedtls_hkdf_expand( const mbedtls_md_info_t *md, const unsigned char *prk,
  85:Source\mbedtls_open\library/hkdf.c ****                          size_t prk_len, const unsigned char *info,
  86:Source\mbedtls_open\library/hkdf.c ****                          size_t info_len, unsigned char *okm, size_t okm_len )
  87:Source\mbedtls_open\library/hkdf.c **** {
 123              		.loc 1 87 0
 124              		.cfi_startproc
 125              		@ args = 12, pretend = 0, frame = 96
 126              		@ frame_needed = 0, uses_anonymous_args = 0
 127              	.LVL14:
 128 0000 F0B5     		push	{r4, r5, r6, r7, lr}
 129              		.cfi_def_cfa_offset 20
 130              		.cfi_offset 4, -20
 131              		.cfi_offset 5, -16
 132              		.cfi_offset 6, -12
 133              		.cfi_offset 7, -8
 134              		.cfi_offset 14, -4
 135 0002 5F46     		mov	r7, fp
 136 0004 80B4     		push	{r7}
 137              		.cfi_def_cfa_offset 24
 138              		.cfi_offset 11, -24
 139 0006 98B0     		sub	sp, sp, #96
ARM GAS  C:\Users\Phuong\AppData\Local\Temp\ccz0rMZh.s 			page 5


 140              		.cfi_def_cfa_offset 120
 141 0008 0600     		movs	r6, r0
 142 000a 0291     		str	r1, [sp, #8]
 143 000c 1700     		movs	r7, r2
 144 000e 0392     		str	r2, [sp, #12]
 145 0010 0193     		str	r3, [sp, #4]
 146              	.LVL15:
  88:Source\mbedtls_open\library/hkdf.c ****     size_t hash_len;
  89:Source\mbedtls_open\library/hkdf.c ****     size_t where = 0;
  90:Source\mbedtls_open\library/hkdf.c ****     size_t n;
  91:Source\mbedtls_open\library/hkdf.c ****     size_t t_len = 0;
  92:Source\mbedtls_open\library/hkdf.c ****     size_t i;
  93:Source\mbedtls_open\library/hkdf.c ****     int ret = 0;
  94:Source\mbedtls_open\library/hkdf.c ****     mbedtls_md_context_t ctx;
  95:Source\mbedtls_open\library/hkdf.c ****     unsigned char t[MBEDTLS_MD_MAX_SIZE];
  96:Source\mbedtls_open\library/hkdf.c **** 
  97:Source\mbedtls_open\library/hkdf.c ****     if( okm == NULL )
 147              		.loc 1 97 0
 148 0012 1F9A     		ldr	r2, [sp, #124]
 149              	.LVL16:
 150 0014 002A     		cmp	r2, #0
 151 0016 6BD0     		beq	.L17
  98:Source\mbedtls_open\library/hkdf.c ****     {
  99:Source\mbedtls_open\library/hkdf.c ****         return( MBEDTLS_ERR_HKDF_BAD_INPUT_DATA );
 100:Source\mbedtls_open\library/hkdf.c ****     }
 101:Source\mbedtls_open\library/hkdf.c **** 
 102:Source\mbedtls_open\library/hkdf.c ****     hash_len = mbedtls_md_get_size( md );
 152              		.loc 1 102 0
 153 0018 FFF7FEFF 		bl	mbedtls_md_get_size
 154              	.LVL17:
 155 001c 0500     		movs	r5, r0
 156 001e 0400     		movs	r4, r0
 157              	.LVL18:
 103:Source\mbedtls_open\library/hkdf.c **** 
 104:Source\mbedtls_open\library/hkdf.c ****     if( prk_len < hash_len || hash_len == 0 )
 158              		.loc 1 104 0
 159 0020 B842     		cmp	r0, r7
 160 0022 67D8     		bhi	.L18
 161              		.loc 1 104 0 is_stmt 0 discriminator 1
 162 0024 0028     		cmp	r0, #0
 163 0026 67D0     		beq	.L19
 105:Source\mbedtls_open\library/hkdf.c ****     {
 106:Source\mbedtls_open\library/hkdf.c ****         return( MBEDTLS_ERR_HKDF_BAD_INPUT_DATA );
 107:Source\mbedtls_open\library/hkdf.c ****     }
 108:Source\mbedtls_open\library/hkdf.c **** 
 109:Source\mbedtls_open\library/hkdf.c ****     if( info == NULL )
 164              		.loc 1 109 0 is_stmt 1
 165 0028 019B     		ldr	r3, [sp, #4]
 166 002a 002B     		cmp	r3, #0
 167 002c 02D1     		bne	.L10
 110:Source\mbedtls_open\library/hkdf.c ****     {
 111:Source\mbedtls_open\library/hkdf.c ****         info = (const unsigned char *) "";
 112:Source\mbedtls_open\library/hkdf.c ****         info_len = 0;
 168              		.loc 1 112 0
 169 002e 1E93     		str	r3, [sp, #120]
 111:Source\mbedtls_open\library/hkdf.c ****         info_len = 0;
 170              		.loc 1 111 0
ARM GAS  C:\Users\Phuong\AppData\Local\Temp\ccz0rMZh.s 			page 6


 171 0030 354B     		ldr	r3, .L23
 172 0032 0193     		str	r3, [sp, #4]
 173              	.LVL19:
 174              	.L10:
 113:Source\mbedtls_open\library/hkdf.c ****     }
 114:Source\mbedtls_open\library/hkdf.c **** 
 115:Source\mbedtls_open\library/hkdf.c ****     n = okm_len / hash_len;
 175              		.loc 1 115 0
 176 0034 2900     		movs	r1, r5
 177 0036 2098     		ldr	r0, [sp, #128]
 178              	.LVL20:
 179 0038 FFF7FEFF 		bl	__aeabi_uidiv
 180              	.LVL21:
 181 003c 8346     		mov	fp, r0
 182              	.LVL22:
 116:Source\mbedtls_open\library/hkdf.c **** 
 117:Source\mbedtls_open\library/hkdf.c ****     if( (okm_len % hash_len) != 0 )
 183              		.loc 1 117 0
 184 003e 2900     		movs	r1, r5
 185 0040 2098     		ldr	r0, [sp, #128]
 186              	.LVL23:
 187 0042 FFF7FEFF 		bl	__aeabi_uidivmod
 188              	.LVL24:
 189 0046 0029     		cmp	r1, #0
 190 0048 02D0     		beq	.L11
 118:Source\mbedtls_open\library/hkdf.c ****     {
 119:Source\mbedtls_open\library/hkdf.c ****         n++;
 191              		.loc 1 119 0
 192 004a 0123     		movs	r3, #1
 193 004c 9C46     		mov	ip, r3
 194 004e E344     		add	fp, fp, ip
 195              	.LVL25:
 196              	.L11:
 120:Source\mbedtls_open\library/hkdf.c ****     }
 121:Source\mbedtls_open\library/hkdf.c **** 
 122:Source\mbedtls_open\library/hkdf.c ****     /*
 123:Source\mbedtls_open\library/hkdf.c ****      * Per RFC 5869 Section 2.3, okm_len must not exceed
 124:Source\mbedtls_open\library/hkdf.c ****      * 255 times the hash length
 125:Source\mbedtls_open\library/hkdf.c ****      */
 126:Source\mbedtls_open\library/hkdf.c ****     if( n > 255 )
 197              		.loc 1 126 0
 198 0050 5B46     		mov	r3, fp
 199 0052 FF2B     		cmp	r3, #255
 200 0054 52D8     		bhi	.L21
 201              	.LVL26:
 127:Source\mbedtls_open\library/hkdf.c ****     {
 128:Source\mbedtls_open\library/hkdf.c ****         return( MBEDTLS_ERR_HKDF_BAD_INPUT_DATA );
 129:Source\mbedtls_open\library/hkdf.c ****     }
 130:Source\mbedtls_open\library/hkdf.c **** 
 131:Source\mbedtls_open\library/hkdf.c ****     mbedtls_md_init( &ctx );
 202              		.loc 1 131 0
 203 0056 15A8     		add	r0, sp, #84
 204 0058 FFF7FEFF 		bl	mbedtls_md_init
 205              	.LVL27:
 132:Source\mbedtls_open\library/hkdf.c **** 
 133:Source\mbedtls_open\library/hkdf.c ****     if( (ret = mbedtls_md_setup( &ctx, md, 1) ) != 0 )
 206              		.loc 1 133 0
ARM GAS  C:\Users\Phuong\AppData\Local\Temp\ccz0rMZh.s 			page 7


 207 005c 0122     		movs	r2, #1
 208 005e 3100     		movs	r1, r6
 209 0060 15A8     		add	r0, sp, #84
 210 0062 FFF7FEFF 		bl	mbedtls_md_setup
 211              	.LVL28:
 212 0066 051E     		subs	r5, r0, #0
 213              	.LVL29:
 214 0068 39D1     		bne	.L12
 215 006a 0127     		movs	r7, #1
 216              	.LVL30:
 217 006c 0023     		movs	r3, #0
 218 006e 0093     		str	r3, [sp]
 219 0070 0026     		movs	r6, #0
 220              	.LVL31:
 221 0072 32E0     		b	.L13
 222              	.LVL32:
 223              	.L16:
 224              	.LBB4:
 134:Source\mbedtls_open\library/hkdf.c ****     {
 135:Source\mbedtls_open\library/hkdf.c ****         goto exit;
 136:Source\mbedtls_open\library/hkdf.c ****     }
 137:Source\mbedtls_open\library/hkdf.c **** 
 138:Source\mbedtls_open\library/hkdf.c ****     /*
 139:Source\mbedtls_open\library/hkdf.c ****      * Compute T = T(1) | T(2) | T(3) | ... | T(N)
 140:Source\mbedtls_open\library/hkdf.c ****      * Where T(N) is defined in RFC 5869 Section 2.3
 141:Source\mbedtls_open\library/hkdf.c ****      */
 142:Source\mbedtls_open\library/hkdf.c ****     for( i = 1; i <= n; i++ )
 143:Source\mbedtls_open\library/hkdf.c ****     {
 144:Source\mbedtls_open\library/hkdf.c ****         size_t num_to_copy;
 145:Source\mbedtls_open\library/hkdf.c ****         unsigned char c = i & 0xff;
 225              		.loc 1 145 0
 226 0074 04AB     		add	r3, sp, #16
 227 0076 DF70     		strb	r7, [r3, #3]
 146:Source\mbedtls_open\library/hkdf.c **** 
 147:Source\mbedtls_open\library/hkdf.c ****         ret = mbedtls_md_hmac_starts( &ctx, prk, prk_len );
 228              		.loc 1 147 0
 229 0078 039A     		ldr	r2, [sp, #12]
 230 007a 0299     		ldr	r1, [sp, #8]
 231 007c 15A8     		add	r0, sp, #84
 232 007e FFF7FEFF 		bl	mbedtls_md_hmac_starts
 233              	.LVL33:
 234 0082 051E     		subs	r5, r0, #0
 235              	.LVL34:
 148:Source\mbedtls_open\library/hkdf.c ****         if( ret != 0 )
 236              		.loc 1 148 0
 237 0084 2BD1     		bne	.L12
 149:Source\mbedtls_open\library/hkdf.c ****         {
 150:Source\mbedtls_open\library/hkdf.c ****             goto exit;
 151:Source\mbedtls_open\library/hkdf.c ****         }
 152:Source\mbedtls_open\library/hkdf.c **** 
 153:Source\mbedtls_open\library/hkdf.c ****         ret = mbedtls_md_hmac_update( &ctx, t, t_len );
 238              		.loc 1 153 0
 239 0086 009A     		ldr	r2, [sp]
 240 0088 05A9     		add	r1, sp, #20
 241 008a 15A8     		add	r0, sp, #84
 242              	.LVL35:
 243 008c FFF7FEFF 		bl	mbedtls_md_hmac_update
ARM GAS  C:\Users\Phuong\AppData\Local\Temp\ccz0rMZh.s 			page 8


 244              	.LVL36:
 245 0090 051E     		subs	r5, r0, #0
 246              	.LVL37:
 154:Source\mbedtls_open\library/hkdf.c ****         if( ret != 0 )
 247              		.loc 1 154 0
 248 0092 24D1     		bne	.L12
 155:Source\mbedtls_open\library/hkdf.c ****         {
 156:Source\mbedtls_open\library/hkdf.c ****             goto exit;
 157:Source\mbedtls_open\library/hkdf.c ****         }
 158:Source\mbedtls_open\library/hkdf.c **** 
 159:Source\mbedtls_open\library/hkdf.c ****         ret = mbedtls_md_hmac_update( &ctx, info, info_len );
 249              		.loc 1 159 0
 250 0094 1E9A     		ldr	r2, [sp, #120]
 251 0096 0199     		ldr	r1, [sp, #4]
 252 0098 15A8     		add	r0, sp, #84
 253              	.LVL38:
 254 009a FFF7FEFF 		bl	mbedtls_md_hmac_update
 255              	.LVL39:
 256 009e 051E     		subs	r5, r0, #0
 257              	.LVL40:
 160:Source\mbedtls_open\library/hkdf.c ****         if( ret != 0 )
 258              		.loc 1 160 0
 259 00a0 1DD1     		bne	.L12
 161:Source\mbedtls_open\library/hkdf.c ****         {
 162:Source\mbedtls_open\library/hkdf.c ****             goto exit;
 163:Source\mbedtls_open\library/hkdf.c ****         }
 164:Source\mbedtls_open\library/hkdf.c **** 
 165:Source\mbedtls_open\library/hkdf.c ****         /* The constant concatenated to the end of each T(n) is a single octet.
 166:Source\mbedtls_open\library/hkdf.c ****          * */
 167:Source\mbedtls_open\library/hkdf.c ****         ret = mbedtls_md_hmac_update( &ctx, &c, 1 );
 260              		.loc 1 167 0
 261 00a2 0122     		movs	r2, #1
 262 00a4 04AB     		add	r3, sp, #16
 263 00a6 D91C     		adds	r1, r3, #3
 264 00a8 15A8     		add	r0, sp, #84
 265              	.LVL41:
 266 00aa FFF7FEFF 		bl	mbedtls_md_hmac_update
 267              	.LVL42:
 268 00ae 051E     		subs	r5, r0, #0
 269              	.LVL43:
 168:Source\mbedtls_open\library/hkdf.c ****         if( ret != 0 )
 270              		.loc 1 168 0
 271 00b0 15D1     		bne	.L12
 169:Source\mbedtls_open\library/hkdf.c ****         {
 170:Source\mbedtls_open\library/hkdf.c ****             goto exit;
 171:Source\mbedtls_open\library/hkdf.c ****         }
 172:Source\mbedtls_open\library/hkdf.c **** 
 173:Source\mbedtls_open\library/hkdf.c ****         ret = mbedtls_md_hmac_finish( &ctx, t );
 272              		.loc 1 173 0
 273 00b2 05A9     		add	r1, sp, #20
 274 00b4 15A8     		add	r0, sp, #84
 275              	.LVL44:
 276 00b6 FFF7FEFF 		bl	mbedtls_md_hmac_finish
 277              	.LVL45:
 278 00ba 051E     		subs	r5, r0, #0
 279              	.LVL46:
 174:Source\mbedtls_open\library/hkdf.c ****         if( ret != 0 )
ARM GAS  C:\Users\Phuong\AppData\Local\Temp\ccz0rMZh.s 			page 9


 280              		.loc 1 174 0
 281 00bc 0FD1     		bne	.L12
 175:Source\mbedtls_open\library/hkdf.c ****         {
 176:Source\mbedtls_open\library/hkdf.c ****             goto exit;
 177:Source\mbedtls_open\library/hkdf.c ****         }
 178:Source\mbedtls_open\library/hkdf.c **** 
 179:Source\mbedtls_open\library/hkdf.c ****         num_to_copy = i != n ? hash_len : okm_len - where;
 282              		.loc 1 179 0
 283 00be BB45     		cmp	fp, r7
 284 00c0 02D1     		bne	.L22
 285              		.loc 1 179 0 is_stmt 0 discriminator 1
 286 00c2 209B     		ldr	r3, [sp, #128]
 287 00c4 9A1B     		subs	r2, r3, r6
 288 00c6 00E0     		b	.L15
 289              	.L22:
 290              		.loc 1 179 0
 291 00c8 2200     		movs	r2, r4
 292              	.L15:
 293              	.LVL47:
 180:Source\mbedtls_open\library/hkdf.c ****         memcpy( okm + where, t, num_to_copy );
 294              		.loc 1 180 0 is_stmt 1 discriminator 4
 295 00ca 1F9B     		ldr	r3, [sp, #124]
 296 00cc 9819     		adds	r0, r3, r6
 297              	.LVL48:
 298 00ce 05A9     		add	r1, sp, #20
 299 00d0 FFF7FEFF 		bl	memcpy
 300              	.LVL49:
 181:Source\mbedtls_open\library/hkdf.c ****         where += hash_len;
 301              		.loc 1 181 0 discriminator 4
 302 00d4 3619     		adds	r6, r6, r4
 303              	.LVL50:
 304              	.LBE4:
 142:Source\mbedtls_open\library/hkdf.c ****     {
 305              		.loc 1 142 0 discriminator 4
 306 00d6 0137     		adds	r7, r7, #1
 307              	.LVL51:
 308              	.LBB5:
 182:Source\mbedtls_open\library/hkdf.c ****         t_len = hash_len;
 309              		.loc 1 182 0 discriminator 4
 310 00d8 0094     		str	r4, [sp]
 311              	.LVL52:
 312              	.L13:
 313              	.LBE5:
 142:Source\mbedtls_open\library/hkdf.c ****     {
 314              		.loc 1 142 0 discriminator 1
 315 00da BB45     		cmp	fp, r7
 316 00dc CAD2     		bcs	.L16
 317              	.LVL53:
 318              	.L12:
 183:Source\mbedtls_open\library/hkdf.c ****     }
 184:Source\mbedtls_open\library/hkdf.c **** 
 185:Source\mbedtls_open\library/hkdf.c **** exit:
 186:Source\mbedtls_open\library/hkdf.c ****     mbedtls_md_free( &ctx );
 319              		.loc 1 186 0
 320 00de 15A8     		add	r0, sp, #84
 321 00e0 FFF7FEFF 		bl	mbedtls_md_free
 322              	.LVL54:
ARM GAS  C:\Users\Phuong\AppData\Local\Temp\ccz0rMZh.s 			page 10


 187:Source\mbedtls_open\library/hkdf.c ****     mbedtls_platform_zeroize( t, sizeof( t ) );
 323              		.loc 1 187 0
 324 00e4 4021     		movs	r1, #64
 325 00e6 05A8     		add	r0, sp, #20
 326 00e8 FFF7FEFF 		bl	mbedtls_platform_zeroize
 327              	.LVL55:
 188:Source\mbedtls_open\library/hkdf.c **** 
 189:Source\mbedtls_open\library/hkdf.c ****     return( ret );
 328              		.loc 1 189 0
 329 00ec 2800     		movs	r0, r5
 330 00ee 06E0     		b	.L9
 331              	.LVL56:
 332              	.L17:
  99:Source\mbedtls_open\library/hkdf.c ****     }
 333              		.loc 1 99 0
 334 00f0 0648     		ldr	r0, .L23+4
 335              	.LVL57:
 336 00f2 04E0     		b	.L9
 337              	.LVL58:
 338              	.L18:
 106:Source\mbedtls_open\library/hkdf.c ****     }
 339              		.loc 1 106 0
 340 00f4 0548     		ldr	r0, .L23+4
 341              	.LVL59:
 342 00f6 02E0     		b	.L9
 343              	.LVL60:
 344              	.L19:
 345 00f8 0448     		ldr	r0, .L23+4
 346              	.LVL61:
 347 00fa 00E0     		b	.L9
 348              	.LVL62:
 349              	.L21:
 128:Source\mbedtls_open\library/hkdf.c ****     }
 350              		.loc 1 128 0
 351 00fc 0348     		ldr	r0, .L23+4
 352              	.LVL63:
 353              	.L9:
 190:Source\mbedtls_open\library/hkdf.c **** }
 354              		.loc 1 190 0
 355 00fe 18B0     		add	sp, sp, #96
 356              		@ sp needed
 357 0100 04BC     		pop	{r2}
 358 0102 9346     		mov	fp, r2
 359 0104 F0BD     		pop	{r4, r5, r6, r7, pc}
 360              	.L24:
 361 0106 C046     		.align	2
 362              	.L23:
 363 0108 00000000 		.word	.LC0
 364 010c 80A0FFFF 		.word	-24448
 365              		.cfi_endproc
 366              	.LFE2:
 367              		.size	mbedtls_hkdf_expand, .-mbedtls_hkdf_expand
 368              		.section	.text.mbedtls_hkdf,"ax",%progbits
 369              		.align	2
 370              		.global	mbedtls_hkdf
 371              		.code	16
 372              		.thumb_func
ARM GAS  C:\Users\Phuong\AppData\Local\Temp\ccz0rMZh.s 			page 11


 373              		.type	mbedtls_hkdf, %function
 374              	mbedtls_hkdf:
 375              	.LFB0:
  37:Source\mbedtls_open\library/hkdf.c ****     int ret;
 376              		.loc 1 37 0
 377              		.cfi_startproc
 378              		@ args = 20, pretend = 0, frame = 64
 379              		@ frame_needed = 0, uses_anonymous_args = 0
 380              	.LVL64:
 381 0000 30B5     		push	{r4, r5, lr}
 382              		.cfi_def_cfa_offset 12
 383              		.cfi_offset 4, -12
 384              		.cfi_offset 5, -8
 385              		.cfi_offset 14, -4
 386 0002 95B0     		sub	sp, sp, #84
 387              		.cfi_def_cfa_offset 96
 388 0004 0500     		movs	r5, r0
  41:Source\mbedtls_open\library/hkdf.c **** 
 389              		.loc 1 41 0
 390 0006 04A8     		add	r0, sp, #16
 391              	.LVL65:
 392 0008 0190     		str	r0, [sp, #4]
 393 000a 1898     		ldr	r0, [sp, #96]
 394 000c 0090     		str	r0, [sp]
 395 000e 2800     		movs	r0, r5
 396 0010 FFF7FEFF 		bl	mbedtls_hkdf_extract
 397              	.LVL66:
 398 0014 041E     		subs	r4, r0, #0
 399              	.LVL67:
  43:Source\mbedtls_open\library/hkdf.c ****     {
 400              		.loc 1 43 0
 401 0016 0FD1     		bne	.L26
  45:Source\mbedtls_open\library/hkdf.c ****                                    info, info_len, okm, okm_len );
 402              		.loc 1 45 0
 403 0018 2800     		movs	r0, r5
 404              	.LVL68:
 405 001a FFF7FEFF 		bl	mbedtls_md_get_size
 406              	.LVL69:
 407 001e 0200     		movs	r2, r0
 408 0020 1C9B     		ldr	r3, [sp, #112]
 409 0022 0293     		str	r3, [sp, #8]
 410 0024 1B9B     		ldr	r3, [sp, #108]
 411 0026 0193     		str	r3, [sp, #4]
 412 0028 1A9B     		ldr	r3, [sp, #104]
 413 002a 0093     		str	r3, [sp]
 414 002c 199B     		ldr	r3, [sp, #100]
 415 002e 04A9     		add	r1, sp, #16
 416 0030 2800     		movs	r0, r5
 417 0032 FFF7FEFF 		bl	mbedtls_hkdf_expand
 418              	.LVL70:
 419 0036 0400     		movs	r4, r0
 420              	.LVL71:
 421              	.L26:
  49:Source\mbedtls_open\library/hkdf.c **** 
 422              		.loc 1 49 0
 423 0038 4021     		movs	r1, #64
 424 003a 04A8     		add	r0, sp, #16
ARM GAS  C:\Users\Phuong\AppData\Local\Temp\ccz0rMZh.s 			page 12


 425              	.LVL72:
 426 003c FFF7FEFF 		bl	mbedtls_platform_zeroize
 427              	.LVL73:
  52:Source\mbedtls_open\library/hkdf.c **** 
 428              		.loc 1 52 0
 429 0040 2000     		movs	r0, r4
 430 0042 15B0     		add	sp, sp, #84
 431              		@ sp needed
 432              	.LVL74:
 433              	.LVL75:
 434 0044 30BD     		pop	{r4, r5, pc}
 435              		.cfi_endproc
 436              	.LFE0:
 437              		.size	mbedtls_hkdf, .-mbedtls_hkdf
 438 0046 C046     		.section	.rodata.str1.4,"aMS",%progbits,1
 439              		.align	2
 440              	.LC0:
 441 0000 00       		.ascii	"\000"
 442              		.text
 443              	.Letext0:
 444              		.file 2 "c:\\program files (x86)\\cypress\\psoc creator\\4.2\\psoc creator\\import\\gnu\\arm\\5.4.
 445              		.file 3 ".\\Source\\mbedtls_open\\include/mbedtls/md.h"
 446              		.file 4 ".\\Source\\mbedtls_open\\include/mbedtls/platform_util.h"