ARM GAS  C:\Users\Phuong\AppData\Local\Temp\cc7DxEYy.s 			page 1


   1              		.syntax unified
   2              		.cpu cortex-m0plus
   3              		.fpu softvfp
   4              		.eabi_attribute 20, 1
   5              		.eabi_attribute 21, 1
   6              		.eabi_attribute 23, 3
   7              		.eabi_attribute 24, 1
   8              		.eabi_attribute 25, 1
   9              		.eabi_attribute 26, 1
  10              		.eabi_attribute 30, 1
  11              		.eabi_attribute 34, 0
  12              		.eabi_attribute 18, 4
  13              		.thumb
  14              		.syntax unified
  15              		.file	"hmacsha256.c"
  16              		.text
  17              	.Ltext0:
  18              		.cfi_sections	.debug_frame
  19              		.section	.text.HMACSHA256_ComputeHash,"ax",%progbits
  20              		.align	2
  21              		.global	HMACSHA256_ComputeHash
  22              		.code	16
  23              		.thumb_func
  24              		.type	HMACSHA256_ComputeHash, %function
  25              	HMACSHA256_ComputeHash:
  26              	.LFB0:
  27              		.file 1 "Source\\azure_iot_sdk\\c-utility\\src\\hmacsha256.c"
   1:Source\azure_iot_sdk\c-utility\src/hmacsha256.c **** // Copyright (c) Microsoft. All rights reserved.
   2:Source\azure_iot_sdk\c-utility\src/hmacsha256.c **** // Licensed under the MIT license. See LICENSE file in the project root for full license informatio
   3:Source\azure_iot_sdk\c-utility\src/hmacsha256.c **** 
   4:Source\azure_iot_sdk\c-utility\src/hmacsha256.c **** #include <stddef.h>
   5:Source\azure_iot_sdk\c-utility\src/hmacsha256.c **** #include "azure_c_shared_utility/hmacsha256.h"
   6:Source\azure_iot_sdk\c-utility\src/hmacsha256.c **** #include "azure_c_shared_utility/hmac.h"
   7:Source\azure_iot_sdk\c-utility\src/hmacsha256.c **** #include "azure_c_shared_utility/buffer_.h"
   8:Source\azure_iot_sdk\c-utility\src/hmacsha256.c **** 
   9:Source\azure_iot_sdk\c-utility\src/hmacsha256.c **** HMACSHA256_RESULT HMACSHA256_ComputeHash(const unsigned char* key, size_t keyLen, const unsigned ch
  10:Source\azure_iot_sdk\c-utility\src/hmacsha256.c **** {
  28              		.loc 1 10 0
  29              		.cfi_startproc
  30              		@ args = 4, pretend = 0, frame = 0
  31              		@ frame_needed = 0, uses_anonymous_args = 0
  32              	.LVL0:
  33 0000 F0B5     		push	{r4, r5, r6, r7, lr}
  34              		.cfi_def_cfa_offset 20
  35              		.cfi_offset 4, -20
  36              		.cfi_offset 5, -16
  37              		.cfi_offset 6, -12
  38              		.cfi_offset 7, -8
  39              		.cfi_offset 14, -4
  40 0002 83B0     		sub	sp, sp, #12
  41              		.cfi_def_cfa_offset 32
  42 0004 0400     		movs	r4, r0
  43 0006 0D00     		movs	r5, r1
  44 0008 1600     		movs	r6, r2
  45 000a 1F00     		movs	r7, r3
  11:Source\azure_iot_sdk\c-utility\src/hmacsha256.c ****     HMACSHA256_RESULT result;
  12:Source\azure_iot_sdk\c-utility\src/hmacsha256.c **** 
ARM GAS  C:\Users\Phuong\AppData\Local\Temp\cc7DxEYy.s 			page 2


  13:Source\azure_iot_sdk\c-utility\src/hmacsha256.c ****     if (key == NULL ||
  46              		.loc 1 13 0
  47 000c 0028     		cmp	r0, #0
  48 000e 1CD0     		beq	.L3
  49              		.loc 1 13 0 is_stmt 0 discriminator 1
  50 0010 0029     		cmp	r1, #0
  51 0012 1CD0     		beq	.L4
  14:Source\azure_iot_sdk\c-utility\src/hmacsha256.c ****         keyLen == 0 ||
  52              		.loc 1 14 0 is_stmt 1
  53 0014 002A     		cmp	r2, #0
  54 0016 1CD0     		beq	.L5
  15:Source\azure_iot_sdk\c-utility\src/hmacsha256.c ****         payload == NULL ||
  55              		.loc 1 15 0
  56 0018 002B     		cmp	r3, #0
  57 001a 1CD0     		beq	.L6
  16:Source\azure_iot_sdk\c-utility\src/hmacsha256.c ****         payloadLen == 0 ||
  58              		.loc 1 16 0
  59 001c 089B     		ldr	r3, [sp, #32]
  60              	.LVL1:
  61 001e 002B     		cmp	r3, #0
  62 0020 1BD0     		beq	.L7
  17:Source\azure_iot_sdk\c-utility\src/hmacsha256.c ****         hash == NULL)
  18:Source\azure_iot_sdk\c-utility\src/hmacsha256.c ****     {
  19:Source\azure_iot_sdk\c-utility\src/hmacsha256.c ****         result = HMACSHA256_INVALID_ARG;
  20:Source\azure_iot_sdk\c-utility\src/hmacsha256.c ****     }
  21:Source\azure_iot_sdk\c-utility\src/hmacsha256.c ****     else
  22:Source\azure_iot_sdk\c-utility\src/hmacsha256.c ****     {
  23:Source\azure_iot_sdk\c-utility\src/hmacsha256.c ****         if ((BUFFER_enlarge(hash, 32) != 0) ||
  63              		.loc 1 23 0
  64 0022 2021     		movs	r1, #32
  65              	.LVL2:
  66 0024 1800     		movs	r0, r3
  67              	.LVL3:
  68 0026 FFF7FEFF 		bl	BUFFER_enlarge
  69              	.LVL4:
  70 002a 0028     		cmp	r0, #0
  71 002c 17D1     		bne	.L8
  24:Source\azure_iot_sdk\c-utility\src/hmacsha256.c ****             (hmac(SHA256, payload, (int)payloadLen, key, (int)keyLen, BUFFER_u_char(hash) ) != 0))
  72              		.loc 1 24 0 discriminator 1
  73 002e 0898     		ldr	r0, [sp, #32]
  74 0030 FFF7FEFF 		bl	BUFFER_u_char
  75              	.LVL5:
  76 0034 0190     		str	r0, [sp, #4]
  77 0036 0095     		str	r5, [sp]
  78 0038 2300     		movs	r3, r4
  79 003a 3A00     		movs	r2, r7
  80 003c 3100     		movs	r1, r6
  81 003e 0220     		movs	r0, #2
  82 0040 FFF7FEFF 		bl	hmac
  83              	.LVL6:
  23:Source\azure_iot_sdk\c-utility\src/hmacsha256.c ****             (hmac(SHA256, payload, (int)payloadLen, key, (int)keyLen, BUFFER_u_char(hash) ) != 0))
  84              		.loc 1 23 0 discriminator 1
  85 0044 0028     		cmp	r0, #0
  86 0046 0CD1     		bne	.L9
  87 0048 0CE0     		b	.L2
  88              	.LVL7:
  89              	.L3:
ARM GAS  C:\Users\Phuong\AppData\Local\Temp\cc7DxEYy.s 			page 3


  19:Source\azure_iot_sdk\c-utility\src/hmacsha256.c ****     }
  90              		.loc 1 19 0
  91 004a 0120     		movs	r0, #1
  92              	.LVL8:
  93 004c 0AE0     		b	.L2
  94              	.LVL9:
  95              	.L4:
  96 004e 0120     		movs	r0, #1
  97              	.LVL10:
  98 0050 08E0     		b	.L2
  99              	.LVL11:
 100              	.L5:
 101 0052 0120     		movs	r0, #1
 102              	.LVL12:
 103 0054 06E0     		b	.L2
 104              	.LVL13:
 105              	.L6:
 106 0056 0120     		movs	r0, #1
 107              	.LVL14:
 108 0058 04E0     		b	.L2
 109              	.LVL15:
 110              	.L7:
 111 005a 0120     		movs	r0, #1
 112              	.LVL16:
 113 005c 02E0     		b	.L2
 114              	.LVL17:
 115              	.L8:
  25:Source\azure_iot_sdk\c-utility\src/hmacsha256.c ****         {
  26:Source\azure_iot_sdk\c-utility\src/hmacsha256.c ****             result = HMACSHA256_ERROR;
 116              		.loc 1 26 0
 117 005e 0220     		movs	r0, #2
 118 0060 00E0     		b	.L2
 119              	.L9:
 120 0062 0220     		movs	r0, #2
 121              	.L2:
 122              	.LVL18:
  27:Source\azure_iot_sdk\c-utility\src/hmacsha256.c ****         }
  28:Source\azure_iot_sdk\c-utility\src/hmacsha256.c ****         else
  29:Source\azure_iot_sdk\c-utility\src/hmacsha256.c ****         {
  30:Source\azure_iot_sdk\c-utility\src/hmacsha256.c ****             result = HMACSHA256_OK;
  31:Source\azure_iot_sdk\c-utility\src/hmacsha256.c ****         }
  32:Source\azure_iot_sdk\c-utility\src/hmacsha256.c ****     }
  33:Source\azure_iot_sdk\c-utility\src/hmacsha256.c **** 
  34:Source\azure_iot_sdk\c-utility\src/hmacsha256.c ****     return result;
  35:Source\azure_iot_sdk\c-utility\src/hmacsha256.c **** }
 123              		.loc 1 35 0
 124 0064 03B0     		add	sp, sp, #12
 125              		@ sp needed
 126              	.LVL19:
 127              	.LVL20:
 128              	.LVL21:
 129              	.LVL22:
 130 0066 F0BD     		pop	{r4, r5, r6, r7, pc}
 131              		.cfi_endproc
 132              	.LFE0:
 133              		.size	HMACSHA256_ComputeHash, .-HMACSHA256_ComputeHash
 134              		.text
ARM GAS  C:\Users\Phuong\AppData\Local\Temp\cc7DxEYy.s 			page 4


 135              	.Letext0:
 136              		.file 2 "c:\\program files (x86)\\cypress\\psoc creator\\4.2\\psoc creator\\import\\gnu\\arm\\5.4.
 137              		.file 3 ".\\Source\\azure_iot_sdk\\c-utility\\inc/azure_c_shared_utility/buffer_.h"
 138              		.file 4 ".\\Source\\azure_iot_sdk\\c-utility\\inc/azure_c_shared_utility/hmacsha256.h"
 139              		.file 5 ".\\Source\\azure_iot_sdk\\c-utility\\inc/azure_c_shared_utility/sha.h"
 140              		.file 6 ".\\Source\\azure_iot_sdk\\c-utility\\inc/azure_c_shared_utility/hmac.h"