ARM GAS  C:\Users\Phuong\AppData\Local\Temp\cc3BsBtt.s 			page 1


   1              		.syntax unified
   2              		.cpu cortex-m0plus
   3              		.fpu softvfp
   4              		.eabi_attribute 20, 1
   5              		.eabi_attribute 21, 1
   6              		.eabi_attribute 23, 3
   7              		.eabi_attribute 24, 1
   8              		.eabi_attribute 25, 1
   9              		.eabi_attribute 26, 1
  10              		.eabi_attribute 30, 1
  11              		.eabi_attribute 34, 0
  12              		.eabi_attribute 18, 4
  13              		.thumb
  14              		.syntax unified
  15              		.file	"hmac_drbg.c"
  16              		.text
  17              	.Ltext0:
  18              		.cfi_sections	.debug_frame
  19              		.section	.text.hmac_drbg_self_test_entropy,"ax",%progbits
  20              		.align	2
  21              		.code	16
  22              		.thumb_func
  23              		.type	hmac_drbg_self_test_entropy, %function
  24              	hmac_drbg_self_test_entropy:
  25              	.LFB12:
  26              		.file 1 "Source\\mbedtls_open\\library\\hmac_drbg.c"
   1:Source\mbedtls_open\library/hmac_drbg.c **** /*
   2:Source\mbedtls_open\library/hmac_drbg.c ****  *  HMAC_DRBG implementation (NIST SP 800-90)
   3:Source\mbedtls_open\library/hmac_drbg.c ****  *
   4:Source\mbedtls_open\library/hmac_drbg.c ****  *  Copyright (C) 2006-2015, ARM Limited, All Rights Reserved
   5:Source\mbedtls_open\library/hmac_drbg.c ****  *  SPDX-License-Identifier: Apache-2.0
   6:Source\mbedtls_open\library/hmac_drbg.c ****  *
   7:Source\mbedtls_open\library/hmac_drbg.c ****  *  Licensed under the Apache License, Version 2.0 (the "License"); you may
   8:Source\mbedtls_open\library/hmac_drbg.c ****  *  not use this file except in compliance with the License.
   9:Source\mbedtls_open\library/hmac_drbg.c ****  *  You may obtain a copy of the License at
  10:Source\mbedtls_open\library/hmac_drbg.c ****  *
  11:Source\mbedtls_open\library/hmac_drbg.c ****  *  http://www.apache.org/licenses/LICENSE-2.0
  12:Source\mbedtls_open\library/hmac_drbg.c ****  *
  13:Source\mbedtls_open\library/hmac_drbg.c ****  *  Unless required by applicable law or agreed to in writing, software
  14:Source\mbedtls_open\library/hmac_drbg.c ****  *  distributed under the License is distributed on an "AS IS" BASIS, WITHOUT
  15:Source\mbedtls_open\library/hmac_drbg.c ****  *  WARRANTIES OR CONDITIONS OF ANY KIND, either express or implied.
  16:Source\mbedtls_open\library/hmac_drbg.c ****  *  See the License for the specific language governing permissions and
  17:Source\mbedtls_open\library/hmac_drbg.c ****  *  limitations under the License.
  18:Source\mbedtls_open\library/hmac_drbg.c ****  *
  19:Source\mbedtls_open\library/hmac_drbg.c ****  *  This file is part of mbed TLS (https://tls.mbed.org)
  20:Source\mbedtls_open\library/hmac_drbg.c ****  */
  21:Source\mbedtls_open\library/hmac_drbg.c **** 
  22:Source\mbedtls_open\library/hmac_drbg.c **** /*
  23:Source\mbedtls_open\library/hmac_drbg.c ****  *  The NIST SP 800-90A DRBGs are described in the following publication.
  24:Source\mbedtls_open\library/hmac_drbg.c ****  *  http://csrc.nist.gov/publications/nistpubs/800-90A/SP800-90A.pdf
  25:Source\mbedtls_open\library/hmac_drbg.c ****  *  References below are based on rev. 1 (January 2012).
  26:Source\mbedtls_open\library/hmac_drbg.c ****  */
  27:Source\mbedtls_open\library/hmac_drbg.c **** 
  28:Source\mbedtls_open\library/hmac_drbg.c **** #if !defined(MBEDTLS_CONFIG_FILE)
  29:Source\mbedtls_open\library/hmac_drbg.c **** #include "mbedtls/config.h"
  30:Source\mbedtls_open\library/hmac_drbg.c **** #else
  31:Source\mbedtls_open\library/hmac_drbg.c **** #include MBEDTLS_CONFIG_FILE
ARM GAS  C:\Users\Phuong\AppData\Local\Temp\cc3BsBtt.s 			page 2


  32:Source\mbedtls_open\library/hmac_drbg.c **** #endif
  33:Source\mbedtls_open\library/hmac_drbg.c **** 
  34:Source\mbedtls_open\library/hmac_drbg.c **** #if defined(MBEDTLS_HMAC_DRBG_C)
  35:Source\mbedtls_open\library/hmac_drbg.c **** 
  36:Source\mbedtls_open\library/hmac_drbg.c **** #include "mbedtls/hmac_drbg.h"
  37:Source\mbedtls_open\library/hmac_drbg.c **** #include "mbedtls/platform_util.h"
  38:Source\mbedtls_open\library/hmac_drbg.c **** 
  39:Source\mbedtls_open\library/hmac_drbg.c **** #include <string.h>
  40:Source\mbedtls_open\library/hmac_drbg.c **** 
  41:Source\mbedtls_open\library/hmac_drbg.c **** #if defined(MBEDTLS_FS_IO)
  42:Source\mbedtls_open\library/hmac_drbg.c **** #include <stdio.h>
  43:Source\mbedtls_open\library/hmac_drbg.c **** #endif
  44:Source\mbedtls_open\library/hmac_drbg.c **** 
  45:Source\mbedtls_open\library/hmac_drbg.c **** #if defined(MBEDTLS_SELF_TEST)
  46:Source\mbedtls_open\library/hmac_drbg.c **** #if defined(MBEDTLS_PLATFORM_C)
  47:Source\mbedtls_open\library/hmac_drbg.c **** #include "mbedtls/platform.h"
  48:Source\mbedtls_open\library/hmac_drbg.c **** #else
  49:Source\mbedtls_open\library/hmac_drbg.c **** #include <stdio.h>
  50:Source\mbedtls_open\library/hmac_drbg.c **** #define mbedtls_printf printf
  51:Source\mbedtls_open\library/hmac_drbg.c **** #endif /* MBEDTLS_SELF_TEST */
  52:Source\mbedtls_open\library/hmac_drbg.c **** #endif /* MBEDTLS_PLATFORM_C */
  53:Source\mbedtls_open\library/hmac_drbg.c **** 
  54:Source\mbedtls_open\library/hmac_drbg.c **** /*
  55:Source\mbedtls_open\library/hmac_drbg.c ****  * HMAC_DRBG context initialization
  56:Source\mbedtls_open\library/hmac_drbg.c ****  */
  57:Source\mbedtls_open\library/hmac_drbg.c **** void mbedtls_hmac_drbg_init( mbedtls_hmac_drbg_context *ctx )
  58:Source\mbedtls_open\library/hmac_drbg.c **** {
  59:Source\mbedtls_open\library/hmac_drbg.c ****     memset( ctx, 0, sizeof( mbedtls_hmac_drbg_context ) );
  60:Source\mbedtls_open\library/hmac_drbg.c **** 
  61:Source\mbedtls_open\library/hmac_drbg.c **** #if defined(MBEDTLS_THREADING_C)
  62:Source\mbedtls_open\library/hmac_drbg.c ****     mbedtls_mutex_init( &ctx->mutex );
  63:Source\mbedtls_open\library/hmac_drbg.c **** #endif
  64:Source\mbedtls_open\library/hmac_drbg.c **** }
  65:Source\mbedtls_open\library/hmac_drbg.c **** 
  66:Source\mbedtls_open\library/hmac_drbg.c **** /*
  67:Source\mbedtls_open\library/hmac_drbg.c ****  * HMAC_DRBG update, using optional additional data (10.1.2.2)
  68:Source\mbedtls_open\library/hmac_drbg.c ****  */
  69:Source\mbedtls_open\library/hmac_drbg.c **** void mbedtls_hmac_drbg_update( mbedtls_hmac_drbg_context *ctx,
  70:Source\mbedtls_open\library/hmac_drbg.c ****                        const unsigned char *additional, size_t add_len )
  71:Source\mbedtls_open\library/hmac_drbg.c **** {
  72:Source\mbedtls_open\library/hmac_drbg.c ****     size_t md_len = mbedtls_md_get_size( ctx->md_ctx.md_info );
  73:Source\mbedtls_open\library/hmac_drbg.c ****     unsigned char rounds = ( additional != NULL && add_len != 0 ) ? 2 : 1;
  74:Source\mbedtls_open\library/hmac_drbg.c ****     unsigned char sep[1];
  75:Source\mbedtls_open\library/hmac_drbg.c ****     unsigned char K[MBEDTLS_MD_MAX_SIZE];
  76:Source\mbedtls_open\library/hmac_drbg.c **** 
  77:Source\mbedtls_open\library/hmac_drbg.c ****     for( sep[0] = 0; sep[0] < rounds; sep[0]++ )
  78:Source\mbedtls_open\library/hmac_drbg.c ****     {
  79:Source\mbedtls_open\library/hmac_drbg.c ****         /* Step 1 or 4 */
  80:Source\mbedtls_open\library/hmac_drbg.c ****         mbedtls_md_hmac_reset( &ctx->md_ctx );
  81:Source\mbedtls_open\library/hmac_drbg.c ****         mbedtls_md_hmac_update( &ctx->md_ctx, ctx->V, md_len );
  82:Source\mbedtls_open\library/hmac_drbg.c ****         mbedtls_md_hmac_update( &ctx->md_ctx, sep, 1 );
  83:Source\mbedtls_open\library/hmac_drbg.c ****         if( rounds == 2 )
  84:Source\mbedtls_open\library/hmac_drbg.c ****             mbedtls_md_hmac_update( &ctx->md_ctx, additional, add_len );
  85:Source\mbedtls_open\library/hmac_drbg.c ****         mbedtls_md_hmac_finish( &ctx->md_ctx, K );
  86:Source\mbedtls_open\library/hmac_drbg.c **** 
  87:Source\mbedtls_open\library/hmac_drbg.c ****         /* Step 2 or 5 */
  88:Source\mbedtls_open\library/hmac_drbg.c ****         mbedtls_md_hmac_starts( &ctx->md_ctx, K, md_len );
ARM GAS  C:\Users\Phuong\AppData\Local\Temp\cc3BsBtt.s 			page 3


  89:Source\mbedtls_open\library/hmac_drbg.c ****         mbedtls_md_hmac_update( &ctx->md_ctx, ctx->V, md_len );
  90:Source\mbedtls_open\library/hmac_drbg.c ****         mbedtls_md_hmac_finish( &ctx->md_ctx, ctx->V );
  91:Source\mbedtls_open\library/hmac_drbg.c ****     }
  92:Source\mbedtls_open\library/hmac_drbg.c **** }
  93:Source\mbedtls_open\library/hmac_drbg.c **** 
  94:Source\mbedtls_open\library/hmac_drbg.c **** /*
  95:Source\mbedtls_open\library/hmac_drbg.c ****  * Simplified HMAC_DRBG initialisation (for use with deterministic ECDSA)
  96:Source\mbedtls_open\library/hmac_drbg.c ****  */
  97:Source\mbedtls_open\library/hmac_drbg.c **** int mbedtls_hmac_drbg_seed_buf( mbedtls_hmac_drbg_context *ctx,
  98:Source\mbedtls_open\library/hmac_drbg.c ****                         const mbedtls_md_info_t * md_info,
  99:Source\mbedtls_open\library/hmac_drbg.c ****                         const unsigned char *data, size_t data_len )
 100:Source\mbedtls_open\library/hmac_drbg.c **** {
 101:Source\mbedtls_open\library/hmac_drbg.c ****     int ret;
 102:Source\mbedtls_open\library/hmac_drbg.c **** 
 103:Source\mbedtls_open\library/hmac_drbg.c ****     if( ( ret = mbedtls_md_setup( &ctx->md_ctx, md_info, 1 ) ) != 0 )
 104:Source\mbedtls_open\library/hmac_drbg.c ****         return( ret );
 105:Source\mbedtls_open\library/hmac_drbg.c **** 
 106:Source\mbedtls_open\library/hmac_drbg.c ****     /*
 107:Source\mbedtls_open\library/hmac_drbg.c ****      * Set initial working state.
 108:Source\mbedtls_open\library/hmac_drbg.c ****      * Use the V memory location, which is currently all 0, to initialize the
 109:Source\mbedtls_open\library/hmac_drbg.c ****      * MD context with an all-zero key. Then set V to its initial value.
 110:Source\mbedtls_open\library/hmac_drbg.c ****      */
 111:Source\mbedtls_open\library/hmac_drbg.c ****     mbedtls_md_hmac_starts( &ctx->md_ctx, ctx->V, mbedtls_md_get_size( md_info ) );
 112:Source\mbedtls_open\library/hmac_drbg.c ****     memset( ctx->V, 0x01, mbedtls_md_get_size( md_info ) );
 113:Source\mbedtls_open\library/hmac_drbg.c **** 
 114:Source\mbedtls_open\library/hmac_drbg.c ****     mbedtls_hmac_drbg_update( ctx, data, data_len );
 115:Source\mbedtls_open\library/hmac_drbg.c **** 
 116:Source\mbedtls_open\library/hmac_drbg.c ****     return( 0 );
 117:Source\mbedtls_open\library/hmac_drbg.c **** }
 118:Source\mbedtls_open\library/hmac_drbg.c **** 
 119:Source\mbedtls_open\library/hmac_drbg.c **** /*
 120:Source\mbedtls_open\library/hmac_drbg.c ****  * HMAC_DRBG reseeding: 10.1.2.4 (arabic) + 9.2 (Roman)
 121:Source\mbedtls_open\library/hmac_drbg.c ****  */
 122:Source\mbedtls_open\library/hmac_drbg.c **** int mbedtls_hmac_drbg_reseed( mbedtls_hmac_drbg_context *ctx,
 123:Source\mbedtls_open\library/hmac_drbg.c ****                       const unsigned char *additional, size_t len )
 124:Source\mbedtls_open\library/hmac_drbg.c **** {
 125:Source\mbedtls_open\library/hmac_drbg.c ****     unsigned char seed[MBEDTLS_HMAC_DRBG_MAX_SEED_INPUT];
 126:Source\mbedtls_open\library/hmac_drbg.c ****     size_t seedlen;
 127:Source\mbedtls_open\library/hmac_drbg.c **** 
 128:Source\mbedtls_open\library/hmac_drbg.c ****     /* III. Check input length */
 129:Source\mbedtls_open\library/hmac_drbg.c ****     if( len > MBEDTLS_HMAC_DRBG_MAX_INPUT ||
 130:Source\mbedtls_open\library/hmac_drbg.c ****         ctx->entropy_len + len > MBEDTLS_HMAC_DRBG_MAX_SEED_INPUT )
 131:Source\mbedtls_open\library/hmac_drbg.c ****     {
 132:Source\mbedtls_open\library/hmac_drbg.c ****         return( MBEDTLS_ERR_HMAC_DRBG_INPUT_TOO_BIG );
 133:Source\mbedtls_open\library/hmac_drbg.c ****     }
 134:Source\mbedtls_open\library/hmac_drbg.c **** 
 135:Source\mbedtls_open\library/hmac_drbg.c ****     memset( seed, 0, MBEDTLS_HMAC_DRBG_MAX_SEED_INPUT );
 136:Source\mbedtls_open\library/hmac_drbg.c **** 
 137:Source\mbedtls_open\library/hmac_drbg.c ****     /* IV. Gather entropy_len bytes of entropy for the seed */
 138:Source\mbedtls_open\library/hmac_drbg.c ****     if( ctx->f_entropy( ctx->p_entropy, seed, ctx->entropy_len ) != 0 )
 139:Source\mbedtls_open\library/hmac_drbg.c ****         return( MBEDTLS_ERR_HMAC_DRBG_ENTROPY_SOURCE_FAILED );
 140:Source\mbedtls_open\library/hmac_drbg.c **** 
 141:Source\mbedtls_open\library/hmac_drbg.c ****     seedlen = ctx->entropy_len;
 142:Source\mbedtls_open\library/hmac_drbg.c **** 
 143:Source\mbedtls_open\library/hmac_drbg.c ****     /* 1. Concatenate entropy and additional data if any */
 144:Source\mbedtls_open\library/hmac_drbg.c ****     if( additional != NULL && len != 0 )
 145:Source\mbedtls_open\library/hmac_drbg.c ****     {
ARM GAS  C:\Users\Phuong\AppData\Local\Temp\cc3BsBtt.s 			page 4


 146:Source\mbedtls_open\library/hmac_drbg.c ****         memcpy( seed + seedlen, additional, len );
 147:Source\mbedtls_open\library/hmac_drbg.c ****         seedlen += len;
 148:Source\mbedtls_open\library/hmac_drbg.c ****     }
 149:Source\mbedtls_open\library/hmac_drbg.c **** 
 150:Source\mbedtls_open\library/hmac_drbg.c ****     /* 2. Update state */
 151:Source\mbedtls_open\library/hmac_drbg.c ****     mbedtls_hmac_drbg_update( ctx, seed, seedlen );
 152:Source\mbedtls_open\library/hmac_drbg.c **** 
 153:Source\mbedtls_open\library/hmac_drbg.c ****     /* 3. Reset reseed_counter */
 154:Source\mbedtls_open\library/hmac_drbg.c ****     ctx->reseed_counter = 1;
 155:Source\mbedtls_open\library/hmac_drbg.c **** 
 156:Source\mbedtls_open\library/hmac_drbg.c ****     /* 4. Done */
 157:Source\mbedtls_open\library/hmac_drbg.c ****     return( 0 );
 158:Source\mbedtls_open\library/hmac_drbg.c **** }
 159:Source\mbedtls_open\library/hmac_drbg.c **** 
 160:Source\mbedtls_open\library/hmac_drbg.c **** /*
 161:Source\mbedtls_open\library/hmac_drbg.c ****  * HMAC_DRBG initialisation (10.1.2.3 + 9.1)
 162:Source\mbedtls_open\library/hmac_drbg.c ****  */
 163:Source\mbedtls_open\library/hmac_drbg.c **** int mbedtls_hmac_drbg_seed( mbedtls_hmac_drbg_context *ctx,
 164:Source\mbedtls_open\library/hmac_drbg.c ****                     const mbedtls_md_info_t * md_info,
 165:Source\mbedtls_open\library/hmac_drbg.c ****                     int (*f_entropy)(void *, unsigned char *, size_t),
 166:Source\mbedtls_open\library/hmac_drbg.c ****                     void *p_entropy,
 167:Source\mbedtls_open\library/hmac_drbg.c ****                     const unsigned char *custom,
 168:Source\mbedtls_open\library/hmac_drbg.c ****                     size_t len )
 169:Source\mbedtls_open\library/hmac_drbg.c **** {
 170:Source\mbedtls_open\library/hmac_drbg.c ****     int ret;
 171:Source\mbedtls_open\library/hmac_drbg.c ****     size_t entropy_len, md_size;
 172:Source\mbedtls_open\library/hmac_drbg.c **** 
 173:Source\mbedtls_open\library/hmac_drbg.c ****     if( ( ret = mbedtls_md_setup( &ctx->md_ctx, md_info, 1 ) ) != 0 )
 174:Source\mbedtls_open\library/hmac_drbg.c ****         return( ret );
 175:Source\mbedtls_open\library/hmac_drbg.c **** 
 176:Source\mbedtls_open\library/hmac_drbg.c ****     md_size = mbedtls_md_get_size( md_info );
 177:Source\mbedtls_open\library/hmac_drbg.c **** 
 178:Source\mbedtls_open\library/hmac_drbg.c ****     /*
 179:Source\mbedtls_open\library/hmac_drbg.c ****      * Set initial working state.
 180:Source\mbedtls_open\library/hmac_drbg.c ****      * Use the V memory location, which is currently all 0, to initialize the
 181:Source\mbedtls_open\library/hmac_drbg.c ****      * MD context with an all-zero key. Then set V to its initial value.
 182:Source\mbedtls_open\library/hmac_drbg.c ****      */
 183:Source\mbedtls_open\library/hmac_drbg.c ****     mbedtls_md_hmac_starts( &ctx->md_ctx, ctx->V, md_size );
 184:Source\mbedtls_open\library/hmac_drbg.c ****     memset( ctx->V, 0x01, md_size );
 185:Source\mbedtls_open\library/hmac_drbg.c **** 
 186:Source\mbedtls_open\library/hmac_drbg.c ****     ctx->f_entropy = f_entropy;
 187:Source\mbedtls_open\library/hmac_drbg.c ****     ctx->p_entropy = p_entropy;
 188:Source\mbedtls_open\library/hmac_drbg.c **** 
 189:Source\mbedtls_open\library/hmac_drbg.c ****     ctx->reseed_interval = MBEDTLS_HMAC_DRBG_RESEED_INTERVAL;
 190:Source\mbedtls_open\library/hmac_drbg.c **** 
 191:Source\mbedtls_open\library/hmac_drbg.c ****     /*
 192:Source\mbedtls_open\library/hmac_drbg.c ****      * See SP800-57 5.6.1 (p. 65-66) for the security strength provided by
 193:Source\mbedtls_open\library/hmac_drbg.c ****      * each hash function, then according to SP800-90A rev1 10.1 table 2,
 194:Source\mbedtls_open\library/hmac_drbg.c ****      * min_entropy_len (in bits) is security_strength.
 195:Source\mbedtls_open\library/hmac_drbg.c ****      *
 196:Source\mbedtls_open\library/hmac_drbg.c ****      * (This also matches the sizes used in the NIST test vectors.)
 197:Source\mbedtls_open\library/hmac_drbg.c ****      */
 198:Source\mbedtls_open\library/hmac_drbg.c ****     entropy_len = md_size <= 20 ? 16 : /* 160-bits hash -> 128 bits */
 199:Source\mbedtls_open\library/hmac_drbg.c ****                   md_size <= 28 ? 24 : /* 224-bits hash -> 192 bits */
 200:Source\mbedtls_open\library/hmac_drbg.c ****                                   32;  /* better (256+) -> 256 bits */
 201:Source\mbedtls_open\library/hmac_drbg.c **** 
 202:Source\mbedtls_open\library/hmac_drbg.c ****     /*
ARM GAS  C:\Users\Phuong\AppData\Local\Temp\cc3BsBtt.s 			page 5


 203:Source\mbedtls_open\library/hmac_drbg.c ****      * For initialisation, use more entropy to emulate a nonce
 204:Source\mbedtls_open\library/hmac_drbg.c ****      * (Again, matches test vectors.)
 205:Source\mbedtls_open\library/hmac_drbg.c ****      */
 206:Source\mbedtls_open\library/hmac_drbg.c ****     ctx->entropy_len = entropy_len * 3 / 2;
 207:Source\mbedtls_open\library/hmac_drbg.c **** 
 208:Source\mbedtls_open\library/hmac_drbg.c ****     if( ( ret = mbedtls_hmac_drbg_reseed( ctx, custom, len ) ) != 0 )
 209:Source\mbedtls_open\library/hmac_drbg.c ****         return( ret );
 210:Source\mbedtls_open\library/hmac_drbg.c **** 
 211:Source\mbedtls_open\library/hmac_drbg.c ****     ctx->entropy_len = entropy_len;
 212:Source\mbedtls_open\library/hmac_drbg.c **** 
 213:Source\mbedtls_open\library/hmac_drbg.c ****     return( 0 );
 214:Source\mbedtls_open\library/hmac_drbg.c **** }
 215:Source\mbedtls_open\library/hmac_drbg.c **** 
 216:Source\mbedtls_open\library/hmac_drbg.c **** /*
 217:Source\mbedtls_open\library/hmac_drbg.c ****  * Set prediction resistance
 218:Source\mbedtls_open\library/hmac_drbg.c ****  */
 219:Source\mbedtls_open\library/hmac_drbg.c **** void mbedtls_hmac_drbg_set_prediction_resistance( mbedtls_hmac_drbg_context *ctx,
 220:Source\mbedtls_open\library/hmac_drbg.c ****                                           int resistance )
 221:Source\mbedtls_open\library/hmac_drbg.c **** {
 222:Source\mbedtls_open\library/hmac_drbg.c ****     ctx->prediction_resistance = resistance;
 223:Source\mbedtls_open\library/hmac_drbg.c **** }
 224:Source\mbedtls_open\library/hmac_drbg.c **** 
 225:Source\mbedtls_open\library/hmac_drbg.c **** /*
 226:Source\mbedtls_open\library/hmac_drbg.c ****  * Set entropy length grabbed for reseeds
 227:Source\mbedtls_open\library/hmac_drbg.c ****  */
 228:Source\mbedtls_open\library/hmac_drbg.c **** void mbedtls_hmac_drbg_set_entropy_len( mbedtls_hmac_drbg_context *ctx, size_t len )
 229:Source\mbedtls_open\library/hmac_drbg.c **** {
 230:Source\mbedtls_open\library/hmac_drbg.c ****     ctx->entropy_len = len;
 231:Source\mbedtls_open\library/hmac_drbg.c **** }
 232:Source\mbedtls_open\library/hmac_drbg.c **** 
 233:Source\mbedtls_open\library/hmac_drbg.c **** /*
 234:Source\mbedtls_open\library/hmac_drbg.c ****  * Set reseed interval
 235:Source\mbedtls_open\library/hmac_drbg.c ****  */
 236:Source\mbedtls_open\library/hmac_drbg.c **** void mbedtls_hmac_drbg_set_reseed_interval( mbedtls_hmac_drbg_context *ctx, int interval )
 237:Source\mbedtls_open\library/hmac_drbg.c **** {
 238:Source\mbedtls_open\library/hmac_drbg.c ****     ctx->reseed_interval = interval;
 239:Source\mbedtls_open\library/hmac_drbg.c **** }
 240:Source\mbedtls_open\library/hmac_drbg.c **** 
 241:Source\mbedtls_open\library/hmac_drbg.c **** /*
 242:Source\mbedtls_open\library/hmac_drbg.c ****  * HMAC_DRBG random function with optional additional data:
 243:Source\mbedtls_open\library/hmac_drbg.c ****  * 10.1.2.5 (arabic) + 9.3 (Roman)
 244:Source\mbedtls_open\library/hmac_drbg.c ****  */
 245:Source\mbedtls_open\library/hmac_drbg.c **** int mbedtls_hmac_drbg_random_with_add( void *p_rng,
 246:Source\mbedtls_open\library/hmac_drbg.c ****                                unsigned char *output, size_t out_len,
 247:Source\mbedtls_open\library/hmac_drbg.c ****                                const unsigned char *additional, size_t add_len )
 248:Source\mbedtls_open\library/hmac_drbg.c **** {
 249:Source\mbedtls_open\library/hmac_drbg.c ****     int ret;
 250:Source\mbedtls_open\library/hmac_drbg.c ****     mbedtls_hmac_drbg_context *ctx = (mbedtls_hmac_drbg_context *) p_rng;
 251:Source\mbedtls_open\library/hmac_drbg.c ****     size_t md_len = mbedtls_md_get_size( ctx->md_ctx.md_info );
 252:Source\mbedtls_open\library/hmac_drbg.c ****     size_t left = out_len;
 253:Source\mbedtls_open\library/hmac_drbg.c ****     unsigned char *out = output;
 254:Source\mbedtls_open\library/hmac_drbg.c **** 
 255:Source\mbedtls_open\library/hmac_drbg.c ****     /* II. Check request length */
 256:Source\mbedtls_open\library/hmac_drbg.c ****     if( out_len > MBEDTLS_HMAC_DRBG_MAX_REQUEST )
 257:Source\mbedtls_open\library/hmac_drbg.c ****         return( MBEDTLS_ERR_HMAC_DRBG_REQUEST_TOO_BIG );
 258:Source\mbedtls_open\library/hmac_drbg.c **** 
 259:Source\mbedtls_open\library/hmac_drbg.c ****     /* III. Check input length */
ARM GAS  C:\Users\Phuong\AppData\Local\Temp\cc3BsBtt.s 			page 6


 260:Source\mbedtls_open\library/hmac_drbg.c ****     if( add_len > MBEDTLS_HMAC_DRBG_MAX_INPUT )
 261:Source\mbedtls_open\library/hmac_drbg.c ****         return( MBEDTLS_ERR_HMAC_DRBG_INPUT_TOO_BIG );
 262:Source\mbedtls_open\library/hmac_drbg.c **** 
 263:Source\mbedtls_open\library/hmac_drbg.c ****     /* 1. (aka VII and IX) Check reseed counter and PR */
 264:Source\mbedtls_open\library/hmac_drbg.c ****     if( ctx->f_entropy != NULL && /* For no-reseeding instances */
 265:Source\mbedtls_open\library/hmac_drbg.c ****         ( ctx->prediction_resistance == MBEDTLS_HMAC_DRBG_PR_ON ||
 266:Source\mbedtls_open\library/hmac_drbg.c ****           ctx->reseed_counter > ctx->reseed_interval ) )
 267:Source\mbedtls_open\library/hmac_drbg.c ****     {
 268:Source\mbedtls_open\library/hmac_drbg.c ****         if( ( ret = mbedtls_hmac_drbg_reseed( ctx, additional, add_len ) ) != 0 )
 269:Source\mbedtls_open\library/hmac_drbg.c ****             return( ret );
 270:Source\mbedtls_open\library/hmac_drbg.c **** 
 271:Source\mbedtls_open\library/hmac_drbg.c ****         add_len = 0; /* VII.4 */
 272:Source\mbedtls_open\library/hmac_drbg.c ****     }
 273:Source\mbedtls_open\library/hmac_drbg.c **** 
 274:Source\mbedtls_open\library/hmac_drbg.c ****     /* 2. Use additional data if any */
 275:Source\mbedtls_open\library/hmac_drbg.c ****     if( additional != NULL && add_len != 0 )
 276:Source\mbedtls_open\library/hmac_drbg.c ****         mbedtls_hmac_drbg_update( ctx, additional, add_len );
 277:Source\mbedtls_open\library/hmac_drbg.c **** 
 278:Source\mbedtls_open\library/hmac_drbg.c ****     /* 3, 4, 5. Generate bytes */
 279:Source\mbedtls_open\library/hmac_drbg.c ****     while( left != 0 )
 280:Source\mbedtls_open\library/hmac_drbg.c ****     {
 281:Source\mbedtls_open\library/hmac_drbg.c ****         size_t use_len = left > md_len ? md_len : left;
 282:Source\mbedtls_open\library/hmac_drbg.c **** 
 283:Source\mbedtls_open\library/hmac_drbg.c ****         mbedtls_md_hmac_reset( &ctx->md_ctx );
 284:Source\mbedtls_open\library/hmac_drbg.c ****         mbedtls_md_hmac_update( &ctx->md_ctx, ctx->V, md_len );
 285:Source\mbedtls_open\library/hmac_drbg.c ****         mbedtls_md_hmac_finish( &ctx->md_ctx, ctx->V );
 286:Source\mbedtls_open\library/hmac_drbg.c **** 
 287:Source\mbedtls_open\library/hmac_drbg.c ****         memcpy( out, ctx->V, use_len );
 288:Source\mbedtls_open\library/hmac_drbg.c ****         out += use_len;
 289:Source\mbedtls_open\library/hmac_drbg.c ****         left -= use_len;
 290:Source\mbedtls_open\library/hmac_drbg.c ****     }
 291:Source\mbedtls_open\library/hmac_drbg.c **** 
 292:Source\mbedtls_open\library/hmac_drbg.c ****     /* 6. Update */
 293:Source\mbedtls_open\library/hmac_drbg.c ****     mbedtls_hmac_drbg_update( ctx, additional, add_len );
 294:Source\mbedtls_open\library/hmac_drbg.c **** 
 295:Source\mbedtls_open\library/hmac_drbg.c ****     /* 7. Update reseed counter */
 296:Source\mbedtls_open\library/hmac_drbg.c ****     ctx->reseed_counter++;
 297:Source\mbedtls_open\library/hmac_drbg.c **** 
 298:Source\mbedtls_open\library/hmac_drbg.c ****     /* 8. Done */
 299:Source\mbedtls_open\library/hmac_drbg.c ****     return( 0 );
 300:Source\mbedtls_open\library/hmac_drbg.c **** }
 301:Source\mbedtls_open\library/hmac_drbg.c **** 
 302:Source\mbedtls_open\library/hmac_drbg.c **** /*
 303:Source\mbedtls_open\library/hmac_drbg.c ****  * HMAC_DRBG random function
 304:Source\mbedtls_open\library/hmac_drbg.c ****  */
 305:Source\mbedtls_open\library/hmac_drbg.c **** int mbedtls_hmac_drbg_random( void *p_rng, unsigned char *output, size_t out_len )
 306:Source\mbedtls_open\library/hmac_drbg.c **** {
 307:Source\mbedtls_open\library/hmac_drbg.c ****     int ret;
 308:Source\mbedtls_open\library/hmac_drbg.c ****     mbedtls_hmac_drbg_context *ctx = (mbedtls_hmac_drbg_context *) p_rng;
 309:Source\mbedtls_open\library/hmac_drbg.c **** 
 310:Source\mbedtls_open\library/hmac_drbg.c **** #if defined(MBEDTLS_THREADING_C)
 311:Source\mbedtls_open\library/hmac_drbg.c ****     if( ( ret = mbedtls_mutex_lock( &ctx->mutex ) ) != 0 )
 312:Source\mbedtls_open\library/hmac_drbg.c ****         return( ret );
 313:Source\mbedtls_open\library/hmac_drbg.c **** #endif
 314:Source\mbedtls_open\library/hmac_drbg.c **** 
 315:Source\mbedtls_open\library/hmac_drbg.c ****     ret = mbedtls_hmac_drbg_random_with_add( ctx, output, out_len, NULL, 0 );
 316:Source\mbedtls_open\library/hmac_drbg.c **** 
ARM GAS  C:\Users\Phuong\AppData\Local\Temp\cc3BsBtt.s 			page 7


 317:Source\mbedtls_open\library/hmac_drbg.c **** #if defined(MBEDTLS_THREADING_C)
 318:Source\mbedtls_open\library/hmac_drbg.c ****     if( mbedtls_mutex_unlock( &ctx->mutex ) != 0 )
 319:Source\mbedtls_open\library/hmac_drbg.c ****         return( MBEDTLS_ERR_THREADING_MUTEX_ERROR );
 320:Source\mbedtls_open\library/hmac_drbg.c **** #endif
 321:Source\mbedtls_open\library/hmac_drbg.c **** 
 322:Source\mbedtls_open\library/hmac_drbg.c ****     return( ret );
 323:Source\mbedtls_open\library/hmac_drbg.c **** }
 324:Source\mbedtls_open\library/hmac_drbg.c **** 
 325:Source\mbedtls_open\library/hmac_drbg.c **** /*
 326:Source\mbedtls_open\library/hmac_drbg.c ****  * Free an HMAC_DRBG context
 327:Source\mbedtls_open\library/hmac_drbg.c ****  */
 328:Source\mbedtls_open\library/hmac_drbg.c **** void mbedtls_hmac_drbg_free( mbedtls_hmac_drbg_context *ctx )
 329:Source\mbedtls_open\library/hmac_drbg.c **** {
 330:Source\mbedtls_open\library/hmac_drbg.c ****     if( ctx == NULL )
 331:Source\mbedtls_open\library/hmac_drbg.c ****         return;
 332:Source\mbedtls_open\library/hmac_drbg.c **** 
 333:Source\mbedtls_open\library/hmac_drbg.c **** #if defined(MBEDTLS_THREADING_C)
 334:Source\mbedtls_open\library/hmac_drbg.c ****     mbedtls_mutex_free( &ctx->mutex );
 335:Source\mbedtls_open\library/hmac_drbg.c **** #endif
 336:Source\mbedtls_open\library/hmac_drbg.c ****     mbedtls_md_free( &ctx->md_ctx );
 337:Source\mbedtls_open\library/hmac_drbg.c ****     mbedtls_platform_zeroize( ctx, sizeof( mbedtls_hmac_drbg_context ) );
 338:Source\mbedtls_open\library/hmac_drbg.c **** }
 339:Source\mbedtls_open\library/hmac_drbg.c **** 
 340:Source\mbedtls_open\library/hmac_drbg.c **** #if defined(MBEDTLS_FS_IO)
 341:Source\mbedtls_open\library/hmac_drbg.c **** int mbedtls_hmac_drbg_write_seed_file( mbedtls_hmac_drbg_context *ctx, const char *path )
 342:Source\mbedtls_open\library/hmac_drbg.c **** {
 343:Source\mbedtls_open\library/hmac_drbg.c ****     int ret;
 344:Source\mbedtls_open\library/hmac_drbg.c ****     FILE *f;
 345:Source\mbedtls_open\library/hmac_drbg.c ****     unsigned char buf[ MBEDTLS_HMAC_DRBG_MAX_INPUT ];
 346:Source\mbedtls_open\library/hmac_drbg.c **** 
 347:Source\mbedtls_open\library/hmac_drbg.c ****     if( ( f = fopen( path, "wb" ) ) == NULL )
 348:Source\mbedtls_open\library/hmac_drbg.c ****         return( MBEDTLS_ERR_HMAC_DRBG_FILE_IO_ERROR );
 349:Source\mbedtls_open\library/hmac_drbg.c **** 
 350:Source\mbedtls_open\library/hmac_drbg.c ****     if( ( ret = mbedtls_hmac_drbg_random( ctx, buf, sizeof( buf ) ) ) != 0 )
 351:Source\mbedtls_open\library/hmac_drbg.c ****         goto exit;
 352:Source\mbedtls_open\library/hmac_drbg.c **** 
 353:Source\mbedtls_open\library/hmac_drbg.c ****     if( fwrite( buf, 1, sizeof( buf ), f ) != sizeof( buf ) )
 354:Source\mbedtls_open\library/hmac_drbg.c ****     {
 355:Source\mbedtls_open\library/hmac_drbg.c ****         ret = MBEDTLS_ERR_HMAC_DRBG_FILE_IO_ERROR;
 356:Source\mbedtls_open\library/hmac_drbg.c ****         goto exit;
 357:Source\mbedtls_open\library/hmac_drbg.c ****     }
 358:Source\mbedtls_open\library/hmac_drbg.c **** 
 359:Source\mbedtls_open\library/hmac_drbg.c ****     ret = 0;
 360:Source\mbedtls_open\library/hmac_drbg.c **** 
 361:Source\mbedtls_open\library/hmac_drbg.c **** exit:
 362:Source\mbedtls_open\library/hmac_drbg.c ****     fclose( f );
 363:Source\mbedtls_open\library/hmac_drbg.c ****     mbedtls_platform_zeroize( buf, sizeof( buf ) );
 364:Source\mbedtls_open\library/hmac_drbg.c **** 
 365:Source\mbedtls_open\library/hmac_drbg.c ****     return( ret );
 366:Source\mbedtls_open\library/hmac_drbg.c **** }
 367:Source\mbedtls_open\library/hmac_drbg.c **** 
 368:Source\mbedtls_open\library/hmac_drbg.c **** int mbedtls_hmac_drbg_update_seed_file( mbedtls_hmac_drbg_context *ctx, const char *path )
 369:Source\mbedtls_open\library/hmac_drbg.c **** {
 370:Source\mbedtls_open\library/hmac_drbg.c ****     int ret = 0;
 371:Source\mbedtls_open\library/hmac_drbg.c ****     FILE *f;
 372:Source\mbedtls_open\library/hmac_drbg.c ****     size_t n;
 373:Source\mbedtls_open\library/hmac_drbg.c ****     unsigned char buf[ MBEDTLS_HMAC_DRBG_MAX_INPUT ];
ARM GAS  C:\Users\Phuong\AppData\Local\Temp\cc3BsBtt.s 			page 8


 374:Source\mbedtls_open\library/hmac_drbg.c **** 
 375:Source\mbedtls_open\library/hmac_drbg.c ****     if( ( f = fopen( path, "rb" ) ) == NULL )
 376:Source\mbedtls_open\library/hmac_drbg.c ****         return( MBEDTLS_ERR_HMAC_DRBG_FILE_IO_ERROR );
 377:Source\mbedtls_open\library/hmac_drbg.c **** 
 378:Source\mbedtls_open\library/hmac_drbg.c ****     fseek( f, 0, SEEK_END );
 379:Source\mbedtls_open\library/hmac_drbg.c ****     n = (size_t) ftell( f );
 380:Source\mbedtls_open\library/hmac_drbg.c ****     fseek( f, 0, SEEK_SET );
 381:Source\mbedtls_open\library/hmac_drbg.c **** 
 382:Source\mbedtls_open\library/hmac_drbg.c ****     if( n > MBEDTLS_HMAC_DRBG_MAX_INPUT )
 383:Source\mbedtls_open\library/hmac_drbg.c ****     {
 384:Source\mbedtls_open\library/hmac_drbg.c ****         fclose( f );
 385:Source\mbedtls_open\library/hmac_drbg.c ****         return( MBEDTLS_ERR_HMAC_DRBG_INPUT_TOO_BIG );
 386:Source\mbedtls_open\library/hmac_drbg.c ****     }
 387:Source\mbedtls_open\library/hmac_drbg.c **** 
 388:Source\mbedtls_open\library/hmac_drbg.c ****     if( fread( buf, 1, n, f ) != n )
 389:Source\mbedtls_open\library/hmac_drbg.c ****         ret = MBEDTLS_ERR_HMAC_DRBG_FILE_IO_ERROR;
 390:Source\mbedtls_open\library/hmac_drbg.c ****     else
 391:Source\mbedtls_open\library/hmac_drbg.c ****         mbedtls_hmac_drbg_update( ctx, buf, n );
 392:Source\mbedtls_open\library/hmac_drbg.c **** 
 393:Source\mbedtls_open\library/hmac_drbg.c ****     fclose( f );
 394:Source\mbedtls_open\library/hmac_drbg.c **** 
 395:Source\mbedtls_open\library/hmac_drbg.c ****     mbedtls_platform_zeroize( buf, sizeof( buf ) );
 396:Source\mbedtls_open\library/hmac_drbg.c **** 
 397:Source\mbedtls_open\library/hmac_drbg.c ****     if( ret != 0 )
 398:Source\mbedtls_open\library/hmac_drbg.c ****         return( ret );
 399:Source\mbedtls_open\library/hmac_drbg.c **** 
 400:Source\mbedtls_open\library/hmac_drbg.c ****     return( mbedtls_hmac_drbg_write_seed_file( ctx, path ) );
 401:Source\mbedtls_open\library/hmac_drbg.c **** }
 402:Source\mbedtls_open\library/hmac_drbg.c **** #endif /* MBEDTLS_FS_IO */
 403:Source\mbedtls_open\library/hmac_drbg.c **** 
 404:Source\mbedtls_open\library/hmac_drbg.c **** 
 405:Source\mbedtls_open\library/hmac_drbg.c **** #if defined(MBEDTLS_SELF_TEST)
 406:Source\mbedtls_open\library/hmac_drbg.c **** 
 407:Source\mbedtls_open\library/hmac_drbg.c **** #if !defined(MBEDTLS_SHA1_C)
 408:Source\mbedtls_open\library/hmac_drbg.c **** /* Dummy checkup routine */
 409:Source\mbedtls_open\library/hmac_drbg.c **** int mbedtls_hmac_drbg_self_test( int verbose )
 410:Source\mbedtls_open\library/hmac_drbg.c **** {
 411:Source\mbedtls_open\library/hmac_drbg.c ****     (void) verbose;
 412:Source\mbedtls_open\library/hmac_drbg.c ****     return( 0 );
 413:Source\mbedtls_open\library/hmac_drbg.c **** }
 414:Source\mbedtls_open\library/hmac_drbg.c **** #else
 415:Source\mbedtls_open\library/hmac_drbg.c **** 
 416:Source\mbedtls_open\library/hmac_drbg.c **** #define OUTPUT_LEN  80
 417:Source\mbedtls_open\library/hmac_drbg.c **** 
 418:Source\mbedtls_open\library/hmac_drbg.c **** /* From a NIST PR=true test vector */
 419:Source\mbedtls_open\library/hmac_drbg.c **** static const unsigned char entropy_pr[] = {
 420:Source\mbedtls_open\library/hmac_drbg.c ****     0xa0, 0xc9, 0xab, 0x58, 0xf1, 0xe2, 0xe5, 0xa4, 0xde, 0x3e, 0xbd, 0x4f,
 421:Source\mbedtls_open\library/hmac_drbg.c ****     0xf7, 0x3e, 0x9c, 0x5b, 0x64, 0xef, 0xd8, 0xca, 0x02, 0x8c, 0xf8, 0x11,
 422:Source\mbedtls_open\library/hmac_drbg.c ****     0x48, 0xa5, 0x84, 0xfe, 0x69, 0xab, 0x5a, 0xee, 0x42, 0xaa, 0x4d, 0x42,
 423:Source\mbedtls_open\library/hmac_drbg.c ****     0x17, 0x60, 0x99, 0xd4, 0x5e, 0x13, 0x97, 0xdc, 0x40, 0x4d, 0x86, 0xa3,
 424:Source\mbedtls_open\library/hmac_drbg.c ****     0x7b, 0xf5, 0x59, 0x54, 0x75, 0x69, 0x51, 0xe4 };
 425:Source\mbedtls_open\library/hmac_drbg.c **** static const unsigned char result_pr[OUTPUT_LEN] = {
 426:Source\mbedtls_open\library/hmac_drbg.c ****     0x9a, 0x00, 0xa2, 0xd0, 0x0e, 0xd5, 0x9b, 0xfe, 0x31, 0xec, 0xb1, 0x39,
 427:Source\mbedtls_open\library/hmac_drbg.c ****     0x9b, 0x60, 0x81, 0x48, 0xd1, 0x96, 0x9d, 0x25, 0x0d, 0x3c, 0x1e, 0x94,
 428:Source\mbedtls_open\library/hmac_drbg.c ****     0x10, 0x10, 0x98, 0x12, 0x93, 0x25, 0xca, 0xb8, 0xfc, 0xcc, 0x2d, 0x54,
 429:Source\mbedtls_open\library/hmac_drbg.c ****     0x73, 0x19, 0x70, 0xc0, 0x10, 0x7a, 0xa4, 0x89, 0x25, 0x19, 0x95, 0x5e,
 430:Source\mbedtls_open\library/hmac_drbg.c ****     0x4b, 0xc6, 0x00, 0x1d, 0x7f, 0x4e, 0x6a, 0x2b, 0xf8, 0xa3, 0x01, 0xab,
ARM GAS  C:\Users\Phuong\AppData\Local\Temp\cc3BsBtt.s 			page 9


 431:Source\mbedtls_open\library/hmac_drbg.c ****     0x46, 0x05, 0x5c, 0x09, 0xa6, 0x71, 0x88, 0xf1, 0xa7, 0x40, 0xee, 0xf3,
 432:Source\mbedtls_open\library/hmac_drbg.c ****     0xe1, 0x5c, 0x02, 0x9b, 0x44, 0xaf, 0x03, 0x44 };
 433:Source\mbedtls_open\library/hmac_drbg.c **** 
 434:Source\mbedtls_open\library/hmac_drbg.c **** /* From a NIST PR=false test vector */
 435:Source\mbedtls_open\library/hmac_drbg.c **** static const unsigned char entropy_nopr[] = {
 436:Source\mbedtls_open\library/hmac_drbg.c ****     0x79, 0x34, 0x9b, 0xbf, 0x7c, 0xdd, 0xa5, 0x79, 0x95, 0x57, 0x86, 0x66,
 437:Source\mbedtls_open\library/hmac_drbg.c ****     0x21, 0xc9, 0x13, 0x83, 0x11, 0x46, 0x73, 0x3a, 0xbf, 0x8c, 0x35, 0xc8,
 438:Source\mbedtls_open\library/hmac_drbg.c ****     0xc7, 0x21, 0x5b, 0x5b, 0x96, 0xc4, 0x8e, 0x9b, 0x33, 0x8c, 0x74, 0xe3,
 439:Source\mbedtls_open\library/hmac_drbg.c ****     0xe9, 0x9d, 0xfe, 0xdf };
 440:Source\mbedtls_open\library/hmac_drbg.c **** static const unsigned char result_nopr[OUTPUT_LEN] = {
 441:Source\mbedtls_open\library/hmac_drbg.c ****     0xc6, 0xa1, 0x6a, 0xb8, 0xd4, 0x20, 0x70, 0x6f, 0x0f, 0x34, 0xab, 0x7f,
 442:Source\mbedtls_open\library/hmac_drbg.c ****     0xec, 0x5a, 0xdc, 0xa9, 0xd8, 0xca, 0x3a, 0x13, 0x3e, 0x15, 0x9c, 0xa6,
 443:Source\mbedtls_open\library/hmac_drbg.c ****     0xac, 0x43, 0xc6, 0xf8, 0xa2, 0xbe, 0x22, 0x83, 0x4a, 0x4c, 0x0a, 0x0a,
 444:Source\mbedtls_open\library/hmac_drbg.c ****     0xff, 0xb1, 0x0d, 0x71, 0x94, 0xf1, 0xc1, 0xa5, 0xcf, 0x73, 0x22, 0xec,
 445:Source\mbedtls_open\library/hmac_drbg.c ****     0x1a, 0xe0, 0x96, 0x4e, 0xd4, 0xbf, 0x12, 0x27, 0x46, 0xe0, 0x87, 0xfd,
 446:Source\mbedtls_open\library/hmac_drbg.c ****     0xb5, 0xb3, 0xe9, 0x1b, 0x34, 0x93, 0xd5, 0xbb, 0x98, 0xfa, 0xed, 0x49,
 447:Source\mbedtls_open\library/hmac_drbg.c ****     0xe8, 0x5f, 0x13, 0x0f, 0xc8, 0xa4, 0x59, 0xb7 };
 448:Source\mbedtls_open\library/hmac_drbg.c **** 
 449:Source\mbedtls_open\library/hmac_drbg.c **** /* "Entropy" from buffer */
 450:Source\mbedtls_open\library/hmac_drbg.c **** static size_t test_offset;
 451:Source\mbedtls_open\library/hmac_drbg.c **** static int hmac_drbg_self_test_entropy( void *data,
 452:Source\mbedtls_open\library/hmac_drbg.c ****                                         unsigned char *buf, size_t len )
 453:Source\mbedtls_open\library/hmac_drbg.c **** {
  27              		.loc 1 453 0
  28              		.cfi_startproc
  29              		@ args = 0, pretend = 0, frame = 0
  30              		@ frame_needed = 0, uses_anonymous_args = 0
  31              	.LVL0:
  32 0000 70B5     		push	{r4, r5, r6, lr}
  33              		.cfi_def_cfa_offset 16
  34              		.cfi_offset 4, -16
  35              		.cfi_offset 5, -12
  36              		.cfi_offset 6, -8
  37              		.cfi_offset 14, -4
  38 0002 0B00     		movs	r3, r1
  39 0004 1400     		movs	r4, r2
  40              	.LVL1:
 454:Source\mbedtls_open\library/hmac_drbg.c ****     const unsigned char *p = data;
 455:Source\mbedtls_open\library/hmac_drbg.c ****     memcpy( buf, p + test_offset, len );
  41              		.loc 1 455 0
  42 0006 054D     		ldr	r5, .L2
  43 0008 2E68     		ldr	r6, [r5]
  44 000a 8119     		adds	r1, r0, r6
  45              	.LVL2:
  46 000c 1800     		movs	r0, r3
  47              	.LVL3:
  48 000e FFF7FEFF 		bl	memcpy
  49              	.LVL4:
 456:Source\mbedtls_open\library/hmac_drbg.c ****     test_offset += len;
  50              		.loc 1 456 0
  51 0012 3419     		adds	r4, r6, r4
  52              	.LVL5:
  53 0014 2C60     		str	r4, [r5]
 457:Source\mbedtls_open\library/hmac_drbg.c ****     return( 0 );
 458:Source\mbedtls_open\library/hmac_drbg.c **** }
  54              		.loc 1 458 0
  55 0016 0020     		movs	r0, #0
ARM GAS  C:\Users\Phuong\AppData\Local\Temp\cc3BsBtt.s 			page 10


  56              		@ sp needed
  57 0018 70BD     		pop	{r4, r5, r6, pc}
  58              	.L3:
  59 001a C046     		.align	2
  60              	.L2:
  61 001c 00000000 		.word	.LANCHOR0
  62              		.cfi_endproc
  63              	.LFE12:
  64              		.size	hmac_drbg_self_test_entropy, .-hmac_drbg_self_test_entropy
  65              		.section	.text.mbedtls_hmac_drbg_init,"ax",%progbits
  66              		.align	2
  67              		.global	mbedtls_hmac_drbg_init
  68              		.code	16
  69              		.thumb_func
  70              		.type	mbedtls_hmac_drbg_init, %function
  71              	mbedtls_hmac_drbg_init:
  72              	.LFB1:
  58:Source\mbedtls_open\library/hmac_drbg.c ****     memset( ctx, 0, sizeof( mbedtls_hmac_drbg_context ) );
  73              		.loc 1 58 0
  74              		.cfi_startproc
  75              		@ args = 0, pretend = 0, frame = 0
  76              		@ frame_needed = 0, uses_anonymous_args = 0
  77              	.LVL6:
  78 0000 10B5     		push	{r4, lr}
  79              		.cfi_def_cfa_offset 8
  80              		.cfi_offset 4, -8
  81              		.cfi_offset 14, -4
  59:Source\mbedtls_open\library/hmac_drbg.c **** 
  82              		.loc 1 59 0
  83 0002 6422     		movs	r2, #100
  84 0004 0021     		movs	r1, #0
  85 0006 FFF7FEFF 		bl	memset
  86              	.LVL7:
  64:Source\mbedtls_open\library/hmac_drbg.c **** 
  87              		.loc 1 64 0
  88              		@ sp needed
  89 000a 10BD     		pop	{r4, pc}
  90              		.cfi_endproc
  91              	.LFE1:
  92              		.size	mbedtls_hmac_drbg_init, .-mbedtls_hmac_drbg_init
  93              		.section	.text.mbedtls_hmac_drbg_update,"ax",%progbits
  94              		.align	2
  95              		.global	mbedtls_hmac_drbg_update
  96              		.code	16
  97              		.thumb_func
  98              		.type	mbedtls_hmac_drbg_update, %function
  99              	mbedtls_hmac_drbg_update:
 100              	.LFB2:
  71:Source\mbedtls_open\library/hmac_drbg.c ****     size_t md_len = mbedtls_md_get_size( ctx->md_ctx.md_info );
 101              		.loc 1 71 0
 102              		.cfi_startproc
 103              		@ args = 0, pretend = 0, frame = 80
 104              		@ frame_needed = 0, uses_anonymous_args = 0
 105              	.LVL8:
 106 0000 F0B5     		push	{r4, r5, r6, r7, lr}
 107              		.cfi_def_cfa_offset 20
 108              		.cfi_offset 4, -20
ARM GAS  C:\Users\Phuong\AppData\Local\Temp\cc3BsBtt.s 			page 11


 109              		.cfi_offset 5, -16
 110              		.cfi_offset 6, -12
 111              		.cfi_offset 7, -8
 112              		.cfi_offset 14, -4
 113 0002 95B0     		sub	sp, sp, #84
 114              		.cfi_def_cfa_offset 104
 115 0004 0400     		movs	r4, r0
 116 0006 0D00     		movs	r5, r1
 117 0008 0091     		str	r1, [sp]
 118 000a 1700     		movs	r7, r2
 119 000c 0192     		str	r2, [sp, #4]
  72:Source\mbedtls_open\library/hmac_drbg.c ****     unsigned char rounds = ( additional != NULL && add_len != 0 ) ? 2 : 1;
 120              		.loc 1 72 0
 121 000e 0068     		ldr	r0, [r0]
 122              	.LVL9:
 123 0010 FFF7FEFF 		bl	mbedtls_md_get_size
 124              	.LVL10:
 125 0014 0600     		movs	r6, r0
 126              	.LVL11:
  73:Source\mbedtls_open\library/hmac_drbg.c ****     unsigned char sep[1];
 127              		.loc 1 73 0
 128 0016 002D     		cmp	r5, #0
 129 0018 03D0     		beq	.L10
  73:Source\mbedtls_open\library/hmac_drbg.c ****     unsigned char sep[1];
 130              		.loc 1 73 0 is_stmt 0 discriminator 1
 131 001a 002F     		cmp	r7, #0
 132 001c 03D1     		bne	.L11
  73:Source\mbedtls_open\library/hmac_drbg.c ****     unsigned char sep[1];
 133              		.loc 1 73 0
 134 001e 0127     		movs	r7, #1
 135              	.LVL12:
 136 0020 02E0     		b	.L6
 137              	.LVL13:
 138              	.L10:
 139 0022 0127     		movs	r7, #1
 140              	.LVL14:
 141 0024 00E0     		b	.L6
 142              	.LVL15:
 143              	.L11:
 144 0026 0227     		movs	r7, #2
 145              	.LVL16:
 146              	.L6:
  77:Source\mbedtls_open\library/hmac_drbg.c ****     {
 147              		.loc 1 77 0 is_stmt 1 discriminator 6
 148 0028 0022     		movs	r2, #0
 149 002a 13AB     		add	r3, sp, #76
 150 002c 1A70     		strb	r2, [r3]
 151 002e 2BE0     		b	.L7
 152              	.LVL17:
 153              	.L9:
  80:Source\mbedtls_open\library/hmac_drbg.c ****         mbedtls_md_hmac_update( &ctx->md_ctx, ctx->V, md_len );
 154              		.loc 1 80 0
 155 0030 2000     		movs	r0, r4
 156 0032 FFF7FEFF 		bl	mbedtls_md_hmac_reset
 157              	.LVL18:
  81:Source\mbedtls_open\library/hmac_drbg.c ****         mbedtls_md_hmac_update( &ctx->md_ctx, sep, 1 );
 158              		.loc 1 81 0
ARM GAS  C:\Users\Phuong\AppData\Local\Temp\cc3BsBtt.s 			page 12


 159 0036 2500     		movs	r5, r4
 160 0038 0C35     		adds	r5, r5, #12
 161 003a 3200     		movs	r2, r6
 162 003c 2900     		movs	r1, r5
 163 003e 2000     		movs	r0, r4
 164 0040 FFF7FEFF 		bl	mbedtls_md_hmac_update
 165              	.LVL19:
  82:Source\mbedtls_open\library/hmac_drbg.c ****         if( rounds == 2 )
 166              		.loc 1 82 0
 167 0044 0122     		movs	r2, #1
 168 0046 13A9     		add	r1, sp, #76
 169 0048 2000     		movs	r0, r4
 170 004a FFF7FEFF 		bl	mbedtls_md_hmac_update
 171              	.LVL20:
  83:Source\mbedtls_open\library/hmac_drbg.c ****             mbedtls_md_hmac_update( &ctx->md_ctx, additional, add_len );
 172              		.loc 1 83 0
 173 004e 022F     		cmp	r7, #2
 174 0050 04D1     		bne	.L8
  84:Source\mbedtls_open\library/hmac_drbg.c ****         mbedtls_md_hmac_finish( &ctx->md_ctx, K );
 175              		.loc 1 84 0
 176 0052 019A     		ldr	r2, [sp, #4]
 177 0054 0099     		ldr	r1, [sp]
 178 0056 2000     		movs	r0, r4
 179 0058 FFF7FEFF 		bl	mbedtls_md_hmac_update
 180              	.LVL21:
 181              	.L8:
  85:Source\mbedtls_open\library/hmac_drbg.c **** 
 182              		.loc 1 85 0 discriminator 2
 183 005c 03A9     		add	r1, sp, #12
 184 005e 2000     		movs	r0, r4
 185 0060 FFF7FEFF 		bl	mbedtls_md_hmac_finish
 186              	.LVL22:
  88:Source\mbedtls_open\library/hmac_drbg.c ****         mbedtls_md_hmac_update( &ctx->md_ctx, ctx->V, md_len );
 187              		.loc 1 88 0 discriminator 2
 188 0064 3200     		movs	r2, r6
 189 0066 03A9     		add	r1, sp, #12
 190 0068 2000     		movs	r0, r4
 191 006a FFF7FEFF 		bl	mbedtls_md_hmac_starts
 192              	.LVL23:
  89:Source\mbedtls_open\library/hmac_drbg.c ****         mbedtls_md_hmac_finish( &ctx->md_ctx, ctx->V );
 193              		.loc 1 89 0 discriminator 2
 194 006e 3200     		movs	r2, r6
 195 0070 2900     		movs	r1, r5
 196 0072 2000     		movs	r0, r4
 197 0074 FFF7FEFF 		bl	mbedtls_md_hmac_update
 198              	.LVL24:
  90:Source\mbedtls_open\library/hmac_drbg.c ****     }
 199              		.loc 1 90 0 discriminator 2
 200 0078 2900     		movs	r1, r5
 201 007a 2000     		movs	r0, r4
 202 007c FFF7FEFF 		bl	mbedtls_md_hmac_finish
 203              	.LVL25:
  77:Source\mbedtls_open\library/hmac_drbg.c ****     {
 204              		.loc 1 77 0 discriminator 2
 205 0080 13AA     		add	r2, sp, #76
 206 0082 1378     		ldrb	r3, [r2]
 207 0084 0133     		adds	r3, r3, #1
ARM GAS  C:\Users\Phuong\AppData\Local\Temp\cc3BsBtt.s 			page 13


 208 0086 1370     		strb	r3, [r2]
 209              	.L7:
  77:Source\mbedtls_open\library/hmac_drbg.c ****     {
 210              		.loc 1 77 0 is_stmt 0 discriminator 1
 211 0088 13AB     		add	r3, sp, #76
 212 008a 1B78     		ldrb	r3, [r3]
 213 008c 9F42     		cmp	r7, r3
 214 008e CFD8     		bhi	.L9
  92:Source\mbedtls_open\library/hmac_drbg.c **** 
 215              		.loc 1 92 0 is_stmt 1
 216 0090 15B0     		add	sp, sp, #84
 217              	.LVL26:
 218              		@ sp needed
 219              	.LVL27:
 220              	.LVL28:
 221              	.LVL29:
 222 0092 F0BD     		pop	{r4, r5, r6, r7, pc}
 223              		.cfi_endproc
 224              	.LFE2:
 225              		.size	mbedtls_hmac_drbg_update, .-mbedtls_hmac_drbg_update
 226              		.section	.text.mbedtls_hmac_drbg_seed_buf,"ax",%progbits
 227              		.align	2
 228              		.global	mbedtls_hmac_drbg_seed_buf
 229              		.code	16
 230              		.thumb_func
 231              		.type	mbedtls_hmac_drbg_seed_buf, %function
 232              	mbedtls_hmac_drbg_seed_buf:
 233              	.LFB3:
 100:Source\mbedtls_open\library/hmac_drbg.c ****     int ret;
 234              		.loc 1 100 0
 235              		.cfi_startproc
 236              		@ args = 0, pretend = 0, frame = 8
 237              		@ frame_needed = 0, uses_anonymous_args = 0
 238              	.LVL30:
 239 0000 F0B5     		push	{r4, r5, r6, r7, lr}
 240              		.cfi_def_cfa_offset 20
 241              		.cfi_offset 4, -20
 242              		.cfi_offset 5, -16
 243              		.cfi_offset 6, -12
 244              		.cfi_offset 7, -8
 245              		.cfi_offset 14, -4
 246 0002 83B0     		sub	sp, sp, #12
 247              		.cfi_def_cfa_offset 32
 248 0004 0400     		movs	r4, r0
 249 0006 0D00     		movs	r5, r1
 250 0008 1600     		movs	r6, r2
 251 000a 0193     		str	r3, [sp, #4]
 103:Source\mbedtls_open\library/hmac_drbg.c ****         return( ret );
 252              		.loc 1 103 0
 253 000c 0122     		movs	r2, #1
 254              	.LVL31:
 255 000e FFF7FEFF 		bl	mbedtls_md_setup
 256              	.LVL32:
 257 0012 0028     		cmp	r0, #0
 258 0014 17D1     		bne	.L13
 111:Source\mbedtls_open\library/hmac_drbg.c ****     memset( ctx->V, 0x01, mbedtls_md_get_size( md_info ) );
 259              		.loc 1 111 0
ARM GAS  C:\Users\Phuong\AppData\Local\Temp\cc3BsBtt.s 			page 14


 260 0016 2700     		movs	r7, r4
 261 0018 0C37     		adds	r7, r7, #12
 262 001a 2800     		movs	r0, r5
 263              	.LVL33:
 264 001c FFF7FEFF 		bl	mbedtls_md_get_size
 265              	.LVL34:
 266 0020 0200     		movs	r2, r0
 267 0022 3900     		movs	r1, r7
 268 0024 2000     		movs	r0, r4
 269 0026 FFF7FEFF 		bl	mbedtls_md_hmac_starts
 270              	.LVL35:
 112:Source\mbedtls_open\library/hmac_drbg.c **** 
 271              		.loc 1 112 0
 272 002a 2800     		movs	r0, r5
 273 002c FFF7FEFF 		bl	mbedtls_md_get_size
 274              	.LVL36:
 275 0030 0200     		movs	r2, r0
 276 0032 0121     		movs	r1, #1
 277 0034 3800     		movs	r0, r7
 278 0036 FFF7FEFF 		bl	memset
 279              	.LVL37:
 114:Source\mbedtls_open\library/hmac_drbg.c **** 
 280              		.loc 1 114 0
 281 003a 019A     		ldr	r2, [sp, #4]
 282 003c 3100     		movs	r1, r6
 283 003e 2000     		movs	r0, r4
 284 0040 FFF7FEFF 		bl	mbedtls_hmac_drbg_update
 285              	.LVL38:
 116:Source\mbedtls_open\library/hmac_drbg.c **** }
 286              		.loc 1 116 0
 287 0044 0020     		movs	r0, #0
 288              	.L13:
 117:Source\mbedtls_open\library/hmac_drbg.c **** 
 289              		.loc 1 117 0
 290 0046 03B0     		add	sp, sp, #12
 291              		@ sp needed
 292              	.LVL39:
 293              	.LVL40:
 294              	.LVL41:
 295 0048 F0BD     		pop	{r4, r5, r6, r7, pc}
 296              		.cfi_endproc
 297              	.LFE3:
 298              		.size	mbedtls_hmac_drbg_seed_buf, .-mbedtls_hmac_drbg_seed_buf
 299 004a C046     		.section	.text.mbedtls_hmac_drbg_reseed,"ax",%progbits
 300              		.align	2
 301              		.global	mbedtls_hmac_drbg_reseed
 302              		.code	16
 303              		.thumb_func
 304              		.type	mbedtls_hmac_drbg_reseed, %function
 305              	mbedtls_hmac_drbg_reseed:
 306              	.LFB4:
 124:Source\mbedtls_open\library/hmac_drbg.c ****     unsigned char seed[MBEDTLS_HMAC_DRBG_MAX_SEED_INPUT];
 307              		.loc 1 124 0
 308              		.cfi_startproc
 309              		@ args = 0, pretend = 0, frame = 392
 310              		@ frame_needed = 0, uses_anonymous_args = 0
 311              	.LVL42:
ARM GAS  C:\Users\Phuong\AppData\Local\Temp\cc3BsBtt.s 			page 15


 312 0000 F0B5     		push	{r4, r5, r6, r7, lr}
 313              		.cfi_def_cfa_offset 20
 314              		.cfi_offset 4, -20
 315              		.cfi_offset 5, -16
 316              		.cfi_offset 6, -12
 317              		.cfi_offset 7, -8
 318              		.cfi_offset 14, -4
 319 0002 E3B0     		sub	sp, sp, #396
 320              		.cfi_def_cfa_offset 416
 321 0004 0400     		movs	r4, r0
 322 0006 0191     		str	r1, [sp, #4]
 323 0008 1500     		movs	r5, r2
 129:Source\mbedtls_open\library/hmac_drbg.c ****         ctx->entropy_len + len > MBEDTLS_HMAC_DRBG_MAX_SEED_INPUT )
 324              		.loc 1 129 0
 325 000a 8023     		movs	r3, #128
 326 000c 5B00     		lsls	r3, r3, #1
 327 000e 9A42     		cmp	r2, r3
 328 0010 27D8     		bhi	.L18
 130:Source\mbedtls_open\library/hmac_drbg.c ****     {
 329              		.loc 1 130 0 discriminator 1
 330 0012 026D     		ldr	r2, [r0, #80]
 331              	.LVL43:
 332 0014 AB18     		adds	r3, r5, r2
 129:Source\mbedtls_open\library/hmac_drbg.c ****         ctx->entropy_len + len > MBEDTLS_HMAC_DRBG_MAX_SEED_INPUT )
 333              		.loc 1 129 0 discriminator 1
 334 0016 C022     		movs	r2, #192
 335 0018 5200     		lsls	r2, r2, #1
 336 001a 9342     		cmp	r3, r2
 337 001c 24D8     		bhi	.L19
 135:Source\mbedtls_open\library/hmac_drbg.c **** 
 338              		.loc 1 135 0
 339 001e 0021     		movs	r1, #0
 340              	.LVL44:
 341 0020 02A8     		add	r0, sp, #8
 342              	.LVL45:
 343 0022 FFF7FEFF 		bl	memset
 344              	.LVL46:
 138:Source\mbedtls_open\library/hmac_drbg.c ****         return( MBEDTLS_ERR_HMAC_DRBG_ENTROPY_SOURCE_FAILED );
 345              		.loc 1 138 0
 346 0026 226D     		ldr	r2, [r4, #80]
 347 0028 02A9     		add	r1, sp, #8
 348 002a 206E     		ldr	r0, [r4, #96]
 349 002c E66D     		ldr	r6, [r4, #92]
 350 002e B047     		blx	r6
 351              	.LVL47:
 352 0030 071E     		subs	r7, r0, #0
 353 0032 1CD1     		bne	.L20
 141:Source\mbedtls_open\library/hmac_drbg.c **** 
 354              		.loc 1 141 0
 355 0034 266D     		ldr	r6, [r4, #80]
 356              	.LVL48:
 144:Source\mbedtls_open\library/hmac_drbg.c ****     {
 357              		.loc 1 144 0
 358 0036 019B     		ldr	r3, [sp, #4]
 359 0038 002B     		cmp	r3, #0
 360 003a 0AD0     		beq	.L17
 144:Source\mbedtls_open\library/hmac_drbg.c ****     {
ARM GAS  C:\Users\Phuong\AppData\Local\Temp\cc3BsBtt.s 			page 16


 361              		.loc 1 144 0 is_stmt 0 discriminator 1
 362 003c 002D     		cmp	r5, #0
 363 003e 08D0     		beq	.L17
 146:Source\mbedtls_open\library/hmac_drbg.c ****         seedlen += len;
 364              		.loc 1 146 0 is_stmt 1
 365 0040 3000     		movs	r0, r6
 366 0042 02AB     		add	r3, sp, #8
 367 0044 9C46     		mov	ip, r3
 368 0046 6044     		add	r0, r0, ip
 369 0048 2A00     		movs	r2, r5
 370 004a 0199     		ldr	r1, [sp, #4]
 371 004c FFF7FEFF 		bl	memcpy
 372              	.LVL49:
 147:Source\mbedtls_open\library/hmac_drbg.c ****     }
 373              		.loc 1 147 0
 374 0050 7619     		adds	r6, r6, r5
 375              	.LVL50:
 376              	.L17:
 151:Source\mbedtls_open\library/hmac_drbg.c **** 
 377              		.loc 1 151 0
 378 0052 3200     		movs	r2, r6
 379 0054 02A9     		add	r1, sp, #8
 380 0056 2000     		movs	r0, r4
 381 0058 FFF7FEFF 		bl	mbedtls_hmac_drbg_update
 382              	.LVL51:
 154:Source\mbedtls_open\library/hmac_drbg.c **** 
 383              		.loc 1 154 0
 384 005c 0123     		movs	r3, #1
 385 005e E364     		str	r3, [r4, #76]
 157:Source\mbedtls_open\library/hmac_drbg.c **** }
 386              		.loc 1 157 0
 387 0060 07E0     		b	.L16
 388              	.LVL52:
 389              	.L18:
 132:Source\mbedtls_open\library/hmac_drbg.c ****     }
 390              		.loc 1 132 0
 391 0062 0527     		movs	r7, #5
 392 0064 7F42     		rsbs	r7, r7, #0
 393 0066 04E0     		b	.L16
 394              	.LVL53:
 395              	.L19:
 396 0068 0527     		movs	r7, #5
 397 006a 7F42     		rsbs	r7, r7, #0
 398 006c 01E0     		b	.L16
 399              	.LVL54:
 400              	.L20:
 139:Source\mbedtls_open\library/hmac_drbg.c **** 
 401              		.loc 1 139 0
 402 006e 0927     		movs	r7, #9
 403 0070 7F42     		rsbs	r7, r7, #0
 404              	.L16:
 158:Source\mbedtls_open\library/hmac_drbg.c **** 
 405              		.loc 1 158 0
 406 0072 3800     		movs	r0, r7
 407 0074 63B0     		add	sp, sp, #396
 408              		@ sp needed
 409              	.LVL55:
ARM GAS  C:\Users\Phuong\AppData\Local\Temp\cc3BsBtt.s 			page 17


 410              	.LVL56:
 411 0076 F0BD     		pop	{r4, r5, r6, r7, pc}
 412              		.cfi_endproc
 413              	.LFE4:
 414              		.size	mbedtls_hmac_drbg_reseed, .-mbedtls_hmac_drbg_reseed
 415              		.section	.text.mbedtls_hmac_drbg_seed,"ax",%progbits
 416              		.align	2
 417              		.global	mbedtls_hmac_drbg_seed
 418              		.code	16
 419              		.thumb_func
 420              		.type	mbedtls_hmac_drbg_seed, %function
 421              	mbedtls_hmac_drbg_seed:
 422              	.LFB5:
 169:Source\mbedtls_open\library/hmac_drbg.c ****     int ret;
 423              		.loc 1 169 0
 424              		.cfi_startproc
 425              		@ args = 8, pretend = 0, frame = 8
 426              		@ frame_needed = 0, uses_anonymous_args = 0
 427              	.LVL57:
 428 0000 F0B5     		push	{r4, r5, r6, r7, lr}
 429              		.cfi_def_cfa_offset 20
 430              		.cfi_offset 4, -20
 431              		.cfi_offset 5, -16
 432              		.cfi_offset 6, -12
 433              		.cfi_offset 7, -8
 434              		.cfi_offset 14, -4
 435 0002 4F46     		mov	r7, r9
 436 0004 80B4     		push	{r7}
 437              		.cfi_def_cfa_offset 24
 438              		.cfi_offset 9, -24
 439 0006 82B0     		sub	sp, sp, #8
 440              		.cfi_def_cfa_offset 32
 441 0008 0700     		movs	r7, r0
 442 000a 0C00     		movs	r4, r1
 443 000c 1600     		movs	r6, r2
 444 000e 1D00     		movs	r5, r3
 173:Source\mbedtls_open\library/hmac_drbg.c ****         return( ret );
 445              		.loc 1 173 0
 446 0010 0122     		movs	r2, #1
 447              	.LVL58:
 448 0012 FFF7FEFF 		bl	mbedtls_md_setup
 449              	.LVL59:
 450 0016 0028     		cmp	r0, #0
 451 0018 2AD1     		bne	.L22
 176:Source\mbedtls_open\library/hmac_drbg.c **** 
 452              		.loc 1 176 0
 453 001a 2000     		movs	r0, r4
 454              	.LVL60:
 455 001c FFF7FEFF 		bl	mbedtls_md_get_size
 456              	.LVL61:
 457 0020 0200     		movs	r2, r0
 458 0022 8146     		mov	r9, r0
 459              	.LVL62:
 183:Source\mbedtls_open\library/hmac_drbg.c ****     memset( ctx->V, 0x01, md_size );
 460              		.loc 1 183 0
 461 0024 3C00     		movs	r4, r7
 462              	.LVL63:
ARM GAS  C:\Users\Phuong\AppData\Local\Temp\cc3BsBtt.s 			page 18


 463 0026 0C34     		adds	r4, r4, #12
 464 0028 0190     		str	r0, [sp, #4]
 465 002a 2100     		movs	r1, r4
 466 002c 3800     		movs	r0, r7
 467              	.LVL64:
 468 002e FFF7FEFF 		bl	mbedtls_md_hmac_starts
 469              	.LVL65:
 184:Source\mbedtls_open\library/hmac_drbg.c **** 
 470              		.loc 1 184 0
 471 0032 019A     		ldr	r2, [sp, #4]
 472 0034 0121     		movs	r1, #1
 473 0036 2000     		movs	r0, r4
 474 0038 FFF7FEFF 		bl	memset
 475              	.LVL66:
 186:Source\mbedtls_open\library/hmac_drbg.c ****     ctx->p_entropy = p_entropy;
 476              		.loc 1 186 0
 477 003c FE65     		str	r6, [r7, #92]
 187:Source\mbedtls_open\library/hmac_drbg.c **** 
 478              		.loc 1 187 0
 479 003e 3D66     		str	r5, [r7, #96]
 189:Source\mbedtls_open\library/hmac_drbg.c **** 
 480              		.loc 1 189 0
 481 0040 0D4B     		ldr	r3, .L28
 482 0042 BB65     		str	r3, [r7, #88]
 198:Source\mbedtls_open\library/hmac_drbg.c ****                   md_size <= 28 ? 24 : /* 224-bits hash -> 192 bits */
 483              		.loc 1 198 0
 484 0044 4B46     		mov	r3, r9
 485 0046 142B     		cmp	r3, #20
 486 0048 03D9     		bls	.L25
 198:Source\mbedtls_open\library/hmac_drbg.c ****                   md_size <= 28 ? 24 : /* 224-bits hash -> 192 bits */
 487              		.loc 1 198 0 is_stmt 0 discriminator 1
 488 004a 1C2B     		cmp	r3, #28
 489 004c 03D8     		bhi	.L26
 198:Source\mbedtls_open\library/hmac_drbg.c ****                   md_size <= 28 ? 24 : /* 224-bits hash -> 192 bits */
 490              		.loc 1 198 0
 491 004e 1824     		movs	r4, #24
 492 0050 02E0     		b	.L23
 493              	.L25:
 494 0052 1024     		movs	r4, #16
 495 0054 00E0     		b	.L23
 496              	.L26:
 497 0056 2024     		movs	r4, #32
 498              	.L23:
 499              	.LVL67:
 206:Source\mbedtls_open\library/hmac_drbg.c **** 
 500              		.loc 1 206 0 is_stmt 1 discriminator 8
 501 0058 6300     		lsls	r3, r4, #1
 502 005a 1B19     		adds	r3, r3, r4
 503 005c 5B08     		lsrs	r3, r3, #1
 504 005e 3B65     		str	r3, [r7, #80]
 208:Source\mbedtls_open\library/hmac_drbg.c ****         return( ret );
 505              		.loc 1 208 0 discriminator 8
 506 0060 099A     		ldr	r2, [sp, #36]
 507 0062 0899     		ldr	r1, [sp, #32]
 508 0064 3800     		movs	r0, r7
 509 0066 FFF7FEFF 		bl	mbedtls_hmac_drbg_reseed
 510              	.LVL68:
ARM GAS  C:\Users\Phuong\AppData\Local\Temp\cc3BsBtt.s 			page 19


 511 006a 0028     		cmp	r0, #0
 512 006c 00D1     		bne	.L22
 211:Source\mbedtls_open\library/hmac_drbg.c **** 
 513              		.loc 1 211 0
 514 006e 3C65     		str	r4, [r7, #80]
 515              	.LVL69:
 516              	.L22:
 214:Source\mbedtls_open\library/hmac_drbg.c **** 
 517              		.loc 1 214 0
 518 0070 02B0     		add	sp, sp, #8
 519              		@ sp needed
 520              	.LVL70:
 521              	.LVL71:
 522              	.LVL72:
 523 0072 04BC     		pop	{r2}
 524 0074 9146     		mov	r9, r2
 525 0076 F0BD     		pop	{r4, r5, r6, r7, pc}
 526              	.L29:
 527              		.align	2
 528              	.L28:
 529 0078 10270000 		.word	10000
 530              		.cfi_endproc
 531              	.LFE5:
 532              		.size	mbedtls_hmac_drbg_seed, .-mbedtls_hmac_drbg_seed
 533              		.section	.text.mbedtls_hmac_drbg_set_prediction_resistance,"ax",%progbits
 534              		.align	2
 535              		.global	mbedtls_hmac_drbg_set_prediction_resistance
 536              		.code	16
 537              		.thumb_func
 538              		.type	mbedtls_hmac_drbg_set_prediction_resistance, %function
 539              	mbedtls_hmac_drbg_set_prediction_resistance:
 540              	.LFB6:
 221:Source\mbedtls_open\library/hmac_drbg.c ****     ctx->prediction_resistance = resistance;
 541              		.loc 1 221 0
 542              		.cfi_startproc
 543              		@ args = 0, pretend = 0, frame = 0
 544              		@ frame_needed = 0, uses_anonymous_args = 0
 545              		@ link register save eliminated.
 546              	.LVL73:
 222:Source\mbedtls_open\library/hmac_drbg.c **** }
 547              		.loc 1 222 0
 548 0000 4165     		str	r1, [r0, #84]
 223:Source\mbedtls_open\library/hmac_drbg.c **** 
 549              		.loc 1 223 0
 550              		@ sp needed
 551 0002 7047     		bx	lr
 552              		.cfi_endproc
 553              	.LFE6:
 554              		.size	mbedtls_hmac_drbg_set_prediction_resistance, .-mbedtls_hmac_drbg_set_prediction_resistance
 555              		.section	.text.mbedtls_hmac_drbg_set_entropy_len,"ax",%progbits
 556              		.align	2
 557              		.global	mbedtls_hmac_drbg_set_entropy_len
 558              		.code	16
 559              		.thumb_func
 560              		.type	mbedtls_hmac_drbg_set_entropy_len, %function
 561              	mbedtls_hmac_drbg_set_entropy_len:
 562              	.LFB7:
ARM GAS  C:\Users\Phuong\AppData\Local\Temp\cc3BsBtt.s 			page 20


 229:Source\mbedtls_open\library/hmac_drbg.c ****     ctx->entropy_len = len;
 563              		.loc 1 229 0
 564              		.cfi_startproc
 565              		@ args = 0, pretend = 0, frame = 0
 566              		@ frame_needed = 0, uses_anonymous_args = 0
 567              		@ link register save eliminated.
 568              	.LVL74:
 230:Source\mbedtls_open\library/hmac_drbg.c **** }
 569              		.loc 1 230 0
 570 0000 0165     		str	r1, [r0, #80]
 231:Source\mbedtls_open\library/hmac_drbg.c **** 
 571              		.loc 1 231 0
 572              		@ sp needed
 573 0002 7047     		bx	lr
 574              		.cfi_endproc
 575              	.LFE7:
 576              		.size	mbedtls_hmac_drbg_set_entropy_len, .-mbedtls_hmac_drbg_set_entropy_len
 577              		.section	.text.mbedtls_hmac_drbg_set_reseed_interval,"ax",%progbits
 578              		.align	2
 579              		.global	mbedtls_hmac_drbg_set_reseed_interval
 580              		.code	16
 581              		.thumb_func
 582              		.type	mbedtls_hmac_drbg_set_reseed_interval, %function
 583              	mbedtls_hmac_drbg_set_reseed_interval:
 584              	.LFB8:
 237:Source\mbedtls_open\library/hmac_drbg.c ****     ctx->reseed_interval = interval;
 585              		.loc 1 237 0
 586              		.cfi_startproc
 587              		@ args = 0, pretend = 0, frame = 0
 588              		@ frame_needed = 0, uses_anonymous_args = 0
 589              		@ link register save eliminated.
 590              	.LVL75:
 238:Source\mbedtls_open\library/hmac_drbg.c **** }
 591              		.loc 1 238 0
 592 0000 8165     		str	r1, [r0, #88]
 239:Source\mbedtls_open\library/hmac_drbg.c **** 
 593              		.loc 1 239 0
 594              		@ sp needed
 595 0002 7047     		bx	lr
 596              		.cfi_endproc
 597              	.LFE8:
 598              		.size	mbedtls_hmac_drbg_set_reseed_interval, .-mbedtls_hmac_drbg_set_reseed_interval
 599              		.section	.text.mbedtls_hmac_drbg_random_with_add,"ax",%progbits
 600              		.align	2
 601              		.global	mbedtls_hmac_drbg_random_with_add
 602              		.code	16
 603              		.thumb_func
 604              		.type	mbedtls_hmac_drbg_random_with_add, %function
 605              	mbedtls_hmac_drbg_random_with_add:
 606              	.LFB9:
 248:Source\mbedtls_open\library/hmac_drbg.c ****     int ret;
 607              		.loc 1 248 0
 608              		.cfi_startproc
 609              		@ args = 4, pretend = 0, frame = 16
 610              		@ frame_needed = 0, uses_anonymous_args = 0
 611              	.LVL76:
 612 0000 F0B5     		push	{r4, r5, r6, r7, lr}
ARM GAS  C:\Users\Phuong\AppData\Local\Temp\cc3BsBtt.s 			page 21


 613              		.cfi_def_cfa_offset 20
 614              		.cfi_offset 4, -20
 615              		.cfi_offset 5, -16
 616              		.cfi_offset 6, -12
 617              		.cfi_offset 7, -8
 618              		.cfi_offset 14, -4
 619 0002 85B0     		sub	sp, sp, #20
 620              		.cfi_def_cfa_offset 40
 621 0004 0700     		movs	r7, r0
 622 0006 0E00     		movs	r6, r1
 623 0008 1500     		movs	r5, r2
 624 000a 0393     		str	r3, [sp, #12]
 625              	.LVL77:
 251:Source\mbedtls_open\library/hmac_drbg.c ****     size_t left = out_len;
 626              		.loc 1 251 0
 627 000c 0068     		ldr	r0, [r0]
 628              	.LVL78:
 629 000e FFF7FEFF 		bl	mbedtls_md_get_size
 630              	.LVL79:
 631 0012 0290     		str	r0, [sp, #8]
 632              	.LVL80:
 256:Source\mbedtls_open\library/hmac_drbg.c ****         return( MBEDTLS_ERR_HMAC_DRBG_REQUEST_TOO_BIG );
 633              		.loc 1 256 0
 634 0014 8023     		movs	r3, #128
 635 0016 DB00     		lsls	r3, r3, #3
 636 0018 9D42     		cmp	r5, r3
 637 001a 4AD8     		bhi	.L41
 260:Source\mbedtls_open\library/hmac_drbg.c ****         return( MBEDTLS_ERR_HMAC_DRBG_INPUT_TOO_BIG );
 638              		.loc 1 260 0
 639 001c 8023     		movs	r3, #128
 640 001e 5B00     		lsls	r3, r3, #1
 641 0020 0A9A     		ldr	r2, [sp, #40]
 642 0022 9A42     		cmp	r2, r3
 643 0024 48D8     		bhi	.L42
 264:Source\mbedtls_open\library/hmac_drbg.c ****         ( ctx->prediction_resistance == MBEDTLS_HMAC_DRBG_PR_ON ||
 644              		.loc 1 264 0
 645 0026 FB6D     		ldr	r3, [r7, #92]
 646 0028 002B     		cmp	r3, #0
 647 002a 0FD0     		beq	.L35
 264:Source\mbedtls_open\library/hmac_drbg.c ****         ( ctx->prediction_resistance == MBEDTLS_HMAC_DRBG_PR_ON ||
 648              		.loc 1 264 0 is_stmt 0 discriminator 1
 649 002c 7B6D     		ldr	r3, [r7, #84]
 650 002e 012B     		cmp	r3, #1
 651 0030 03D0     		beq	.L36
 265:Source\mbedtls_open\library/hmac_drbg.c ****           ctx->reseed_counter > ctx->reseed_interval ) )
 652              		.loc 1 265 0 is_stmt 1
 653 0032 FB6C     		ldr	r3, [r7, #76]
 654 0034 BA6D     		ldr	r2, [r7, #88]
 655 0036 9342     		cmp	r3, r2
 656 0038 08DD     		ble	.L35
 657              	.L36:
 268:Source\mbedtls_open\library/hmac_drbg.c ****             return( ret );
 658              		.loc 1 268 0
 659 003a 0A9A     		ldr	r2, [sp, #40]
 660 003c 0399     		ldr	r1, [sp, #12]
 661 003e 3800     		movs	r0, r7
 662              	.LVL81:
ARM GAS  C:\Users\Phuong\AppData\Local\Temp\cc3BsBtt.s 			page 22


 663 0040 FFF7FEFF 		bl	mbedtls_hmac_drbg_reseed
 664              	.LVL82:
 665 0044 0028     		cmp	r0, #0
 666 0046 39D1     		bne	.L34
 271:Source\mbedtls_open\library/hmac_drbg.c ****     }
 667              		.loc 1 271 0
 668 0048 0023     		movs	r3, #0
 669 004a 0A93     		str	r3, [sp, #40]
 670              	.LVL83:
 671              	.L35:
 275:Source\mbedtls_open\library/hmac_drbg.c ****         mbedtls_hmac_drbg_update( ctx, additional, add_len );
 672              		.loc 1 275 0
 673 004c 039B     		ldr	r3, [sp, #12]
 674 004e 002B     		cmp	r3, #0
 675 0050 23D0     		beq	.L38
 275:Source\mbedtls_open\library/hmac_drbg.c ****         mbedtls_hmac_drbg_update( ctx, additional, add_len );
 676              		.loc 1 275 0 is_stmt 0 discriminator 1
 677 0052 0A9B     		ldr	r3, [sp, #40]
 678 0054 002B     		cmp	r3, #0
 679 0056 20D0     		beq	.L38
 276:Source\mbedtls_open\library/hmac_drbg.c **** 
 680              		.loc 1 276 0 is_stmt 1
 681 0058 1A00     		movs	r2, r3
 682 005a 0399     		ldr	r1, [sp, #12]
 683 005c 3800     		movs	r0, r7
 684 005e FFF7FEFF 		bl	mbedtls_hmac_drbg_update
 685              	.LVL84:
 686 0062 1AE0     		b	.L38
 687              	.LVL85:
 688              	.L40:
 689              	.LBB2:
 281:Source\mbedtls_open\library/hmac_drbg.c **** 
 690              		.loc 1 281 0
 691 0064 2C00     		movs	r4, r5
 692 0066 029A     		ldr	r2, [sp, #8]
 693 0068 9542     		cmp	r5, r2
 694 006a 00D9     		bls	.L39
 695              	.LVL86:
 696 006c 1400     		movs	r4, r2
 697              	.LVL87:
 698              	.L39:
 283:Source\mbedtls_open\library/hmac_drbg.c ****         mbedtls_md_hmac_update( &ctx->md_ctx, ctx->V, md_len );
 699              		.loc 1 283 0
 700 006e 3800     		movs	r0, r7
 701 0070 FFF7FEFF 		bl	mbedtls_md_hmac_reset
 702              	.LVL88:
 284:Source\mbedtls_open\library/hmac_drbg.c ****         mbedtls_md_hmac_finish( &ctx->md_ctx, ctx->V );
 703              		.loc 1 284 0
 704 0074 3B00     		movs	r3, r7
 705 0076 0C33     		adds	r3, r3, #12
 706 0078 029A     		ldr	r2, [sp, #8]
 707 007a 0193     		str	r3, [sp, #4]
 708 007c 1900     		movs	r1, r3
 709 007e 3800     		movs	r0, r7
 710 0080 FFF7FEFF 		bl	mbedtls_md_hmac_update
 711              	.LVL89:
 285:Source\mbedtls_open\library/hmac_drbg.c **** 
ARM GAS  C:\Users\Phuong\AppData\Local\Temp\cc3BsBtt.s 			page 23


 712              		.loc 1 285 0
 713 0084 0199     		ldr	r1, [sp, #4]
 714 0086 3800     		movs	r0, r7
 715 0088 FFF7FEFF 		bl	mbedtls_md_hmac_finish
 716              	.LVL90:
 287:Source\mbedtls_open\library/hmac_drbg.c ****         out += use_len;
 717              		.loc 1 287 0
 718 008c 2200     		movs	r2, r4
 719 008e 0199     		ldr	r1, [sp, #4]
 720 0090 3000     		movs	r0, r6
 721 0092 FFF7FEFF 		bl	memcpy
 722              	.LVL91:
 288:Source\mbedtls_open\library/hmac_drbg.c ****         left -= use_len;
 723              		.loc 1 288 0
 724 0096 3619     		adds	r6, r6, r4
 725              	.LVL92:
 289:Source\mbedtls_open\library/hmac_drbg.c ****     }
 726              		.loc 1 289 0
 727 0098 2D1B     		subs	r5, r5, r4
 728              	.LVL93:
 729              	.L38:
 730              	.LBE2:
 279:Source\mbedtls_open\library/hmac_drbg.c ****     {
 731              		.loc 1 279 0
 732 009a 002D     		cmp	r5, #0
 733 009c E2D1     		bne	.L40
 293:Source\mbedtls_open\library/hmac_drbg.c **** 
 734              		.loc 1 293 0
 735 009e 0A9A     		ldr	r2, [sp, #40]
 736 00a0 0399     		ldr	r1, [sp, #12]
 737 00a2 3800     		movs	r0, r7
 738 00a4 FFF7FEFF 		bl	mbedtls_hmac_drbg_update
 739              	.LVL94:
 296:Source\mbedtls_open\library/hmac_drbg.c **** 
 740              		.loc 1 296 0
 741 00a8 FB6C     		ldr	r3, [r7, #76]
 742 00aa 0133     		adds	r3, r3, #1
 743 00ac FB64     		str	r3, [r7, #76]
 299:Source\mbedtls_open\library/hmac_drbg.c **** }
 744              		.loc 1 299 0
 745 00ae 0020     		movs	r0, #0
 746 00b0 04E0     		b	.L34
 747              	.LVL95:
 748              	.L41:
 257:Source\mbedtls_open\library/hmac_drbg.c **** 
 749              		.loc 1 257 0
 750 00b2 0320     		movs	r0, #3
 751              	.LVL96:
 752 00b4 4042     		rsbs	r0, r0, #0
 753 00b6 01E0     		b	.L34
 754              	.LVL97:
 755              	.L42:
 261:Source\mbedtls_open\library/hmac_drbg.c **** 
 756              		.loc 1 261 0
 757 00b8 0520     		movs	r0, #5
 758              	.LVL98:
 759 00ba 4042     		rsbs	r0, r0, #0
ARM GAS  C:\Users\Phuong\AppData\Local\Temp\cc3BsBtt.s 			page 24


 760              	.LVL99:
 761              	.L34:
 300:Source\mbedtls_open\library/hmac_drbg.c **** 
 762              		.loc 1 300 0
 763 00bc 05B0     		add	sp, sp, #20
 764              		@ sp needed
 765              	.LVL100:
 766              	.LVL101:
 767              	.LVL102:
 768 00be F0BD     		pop	{r4, r5, r6, r7, pc}
 769              		.cfi_endproc
 770              	.LFE9:
 771              		.size	mbedtls_hmac_drbg_random_with_add, .-mbedtls_hmac_drbg_random_with_add
 772              		.section	.text.mbedtls_hmac_drbg_random,"ax",%progbits
 773              		.align	2
 774              		.global	mbedtls_hmac_drbg_random
 775              		.code	16
 776              		.thumb_func
 777              		.type	mbedtls_hmac_drbg_random, %function
 778              	mbedtls_hmac_drbg_random:
 779              	.LFB10:
 306:Source\mbedtls_open\library/hmac_drbg.c ****     int ret;
 780              		.loc 1 306 0
 781              		.cfi_startproc
 782              		@ args = 0, pretend = 0, frame = 0
 783              		@ frame_needed = 0, uses_anonymous_args = 0
 784              	.LVL103:
 785 0000 00B5     		push	{lr}
 786              		.cfi_def_cfa_offset 4
 787              		.cfi_offset 14, -4
 788 0002 83B0     		sub	sp, sp, #12
 789              		.cfi_def_cfa_offset 16
 790              	.LVL104:
 315:Source\mbedtls_open\library/hmac_drbg.c **** 
 791              		.loc 1 315 0
 792 0004 0023     		movs	r3, #0
 793 0006 0093     		str	r3, [sp]
 794 0008 FFF7FEFF 		bl	mbedtls_hmac_drbg_random_with_add
 795              	.LVL105:
 323:Source\mbedtls_open\library/hmac_drbg.c **** 
 796              		.loc 1 323 0
 797 000c 03B0     		add	sp, sp, #12
 798              		@ sp needed
 799 000e 00BD     		pop	{pc}
 800              		.cfi_endproc
 801              	.LFE10:
 802              		.size	mbedtls_hmac_drbg_random, .-mbedtls_hmac_drbg_random
 803              		.section	.text.mbedtls_hmac_drbg_free,"ax",%progbits
 804              		.align	2
 805              		.global	mbedtls_hmac_drbg_free
 806              		.code	16
 807              		.thumb_func
 808              		.type	mbedtls_hmac_drbg_free, %function
 809              	mbedtls_hmac_drbg_free:
 810              	.LFB11:
 329:Source\mbedtls_open\library/hmac_drbg.c ****     if( ctx == NULL )
 811              		.loc 1 329 0
ARM GAS  C:\Users\Phuong\AppData\Local\Temp\cc3BsBtt.s 			page 25


 812              		.cfi_startproc
 813              		@ args = 0, pretend = 0, frame = 0
 814              		@ frame_needed = 0, uses_anonymous_args = 0
 815              	.LVL106:
 816 0000 10B5     		push	{r4, lr}
 817              		.cfi_def_cfa_offset 8
 818              		.cfi_offset 4, -8
 819              		.cfi_offset 14, -4
 820 0002 041E     		subs	r4, r0, #0
 330:Source\mbedtls_open\library/hmac_drbg.c ****         return;
 821              		.loc 1 330 0
 822 0004 05D0     		beq	.L45
 336:Source\mbedtls_open\library/hmac_drbg.c ****     mbedtls_platform_zeroize( ctx, sizeof( mbedtls_hmac_drbg_context ) );
 823              		.loc 1 336 0
 824 0006 FFF7FEFF 		bl	mbedtls_md_free
 825              	.LVL107:
 337:Source\mbedtls_open\library/hmac_drbg.c **** }
 826              		.loc 1 337 0
 827 000a 6421     		movs	r1, #100
 828 000c 2000     		movs	r0, r4
 829 000e FFF7FEFF 		bl	mbedtls_platform_zeroize
 830              	.LVL108:
 831              	.L45:
 338:Source\mbedtls_open\library/hmac_drbg.c **** 
 832              		.loc 1 338 0
 833              		@ sp needed
 834              	.LVL109:
 835 0012 10BD     		pop	{r4, pc}
 836              		.cfi_endproc
 837              	.LFE11:
 838              		.size	mbedtls_hmac_drbg_free, .-mbedtls_hmac_drbg_free
 839              		.section	.text.mbedtls_hmac_drbg_self_test,"ax",%progbits
 840              		.align	2
 841              		.global	mbedtls_hmac_drbg_self_test
 842              		.code	16
 843              		.thumb_func
 844              		.type	mbedtls_hmac_drbg_self_test, %function
 845              	mbedtls_hmac_drbg_self_test:
 846              	.LFB13:
 459:Source\mbedtls_open\library/hmac_drbg.c **** 
 460:Source\mbedtls_open\library/hmac_drbg.c **** #define CHK( c )    if( (c) != 0 )                          \
 461:Source\mbedtls_open\library/hmac_drbg.c ****                     {                                       \
 462:Source\mbedtls_open\library/hmac_drbg.c ****                         if( verbose != 0 )                  \
 463:Source\mbedtls_open\library/hmac_drbg.c ****                             mbedtls_printf( "failed\n" );  \
 464:Source\mbedtls_open\library/hmac_drbg.c ****                         return( 1 );                        \
 465:Source\mbedtls_open\library/hmac_drbg.c ****                     }
 466:Source\mbedtls_open\library/hmac_drbg.c **** 
 467:Source\mbedtls_open\library/hmac_drbg.c **** /*
 468:Source\mbedtls_open\library/hmac_drbg.c ****  * Checkup routine for HMAC_DRBG with SHA-1
 469:Source\mbedtls_open\library/hmac_drbg.c ****  */
 470:Source\mbedtls_open\library/hmac_drbg.c **** int mbedtls_hmac_drbg_self_test( int verbose )
 471:Source\mbedtls_open\library/hmac_drbg.c **** {
 847              		.loc 1 471 0
 848              		.cfi_startproc
 849              		@ args = 0, pretend = 0, frame = 184
 850              		@ frame_needed = 0, uses_anonymous_args = 0
 851              	.LVL110:
ARM GAS  C:\Users\Phuong\AppData\Local\Temp\cc3BsBtt.s 			page 26


 852 0000 30B5     		push	{r4, r5, lr}
 853              		.cfi_def_cfa_offset 12
 854              		.cfi_offset 4, -12
 855              		.cfi_offset 5, -8
 856              		.cfi_offset 14, -4
 857 0002 B1B0     		sub	sp, sp, #196
 858              		.cfi_def_cfa_offset 208
 859 0004 0400     		movs	r4, r0
 472:Source\mbedtls_open\library/hmac_drbg.c ****     mbedtls_hmac_drbg_context ctx;
 473:Source\mbedtls_open\library/hmac_drbg.c ****     unsigned char buf[OUTPUT_LEN];
 474:Source\mbedtls_open\library/hmac_drbg.c ****     const mbedtls_md_info_t *md_info = mbedtls_md_info_from_type( MBEDTLS_MD_SHA1 );
 860              		.loc 1 474 0
 861 0006 0420     		movs	r0, #4
 862              	.LVL111:
 863 0008 FFF7FEFF 		bl	mbedtls_md_info_from_type
 864              	.LVL112:
 865 000c 0500     		movs	r5, r0
 866              	.LVL113:
 475:Source\mbedtls_open\library/hmac_drbg.c **** 
 476:Source\mbedtls_open\library/hmac_drbg.c ****     mbedtls_hmac_drbg_init( &ctx );
 867              		.loc 1 476 0
 868 000e 17A8     		add	r0, sp, #92
 869              	.LVL114:
 870 0010 FFF7FEFF 		bl	mbedtls_hmac_drbg_init
 871              	.LVL115:
 477:Source\mbedtls_open\library/hmac_drbg.c **** 
 478:Source\mbedtls_open\library/hmac_drbg.c ****     /*
 479:Source\mbedtls_open\library/hmac_drbg.c ****      * PR = True
 480:Source\mbedtls_open\library/hmac_drbg.c ****      */
 481:Source\mbedtls_open\library/hmac_drbg.c ****     if( verbose != 0 )
 872              		.loc 1 481 0
 873 0014 002C     		cmp	r4, #0
 874 0016 02D0     		beq	.L48
 482:Source\mbedtls_open\library/hmac_drbg.c ****         mbedtls_printf( "  HMAC_DRBG (PR = True) : " );
 875              		.loc 1 482 0
 876 0018 6748     		ldr	r0, .L71
 877 001a FFF7FEFF 		bl	printf
 878              	.LVL116:
 879              	.L48:
 483:Source\mbedtls_open\library/hmac_drbg.c **** 
 484:Source\mbedtls_open\library/hmac_drbg.c ****     test_offset = 0;
 880              		.loc 1 484 0
 881 001e 0023     		movs	r3, #0
 882 0020 664A     		ldr	r2, .L71+4
 883 0022 1360     		str	r3, [r2]
 485:Source\mbedtls_open\library/hmac_drbg.c ****     CHK( mbedtls_hmac_drbg_seed( &ctx, md_info,
 884              		.loc 1 485 0
 885 0024 0193     		str	r3, [sp, #4]
 886 0026 0093     		str	r3, [sp]
 887 0028 654B     		ldr	r3, .L71+8
 888 002a 664A     		ldr	r2, .L71+12
 889 002c 2900     		movs	r1, r5
 890 002e 17A8     		add	r0, sp, #92
 891 0030 FFF7FEFF 		bl	mbedtls_hmac_drbg_seed
 892              	.LVL117:
 893 0034 0028     		cmp	r0, #0
 894 0036 07D0     		beq	.L49
ARM GAS  C:\Users\Phuong\AppData\Local\Temp\cc3BsBtt.s 			page 27


 895              		.loc 1 485 0 is_stmt 0 discriminator 1
 896 0038 002C     		cmp	r4, #0
 897 003a 00D1     		bne	.LCB867
 898 003c A7E0     		b	.L62	@long jump
 899              	.LCB867:
 900              		.loc 1 485 0 discriminator 2
 901 003e 6248     		ldr	r0, .L71+16
 902 0040 FFF7FEFF 		bl	puts
 903              	.LVL118:
 904 0044 0125     		movs	r5, #1
 905              	.LVL119:
 906 0046 B3E0     		b	.L50
 907              	.LVL120:
 908              	.L49:
 486:Source\mbedtls_open\library/hmac_drbg.c ****                          hmac_drbg_self_test_entropy, (void *) entropy_pr,
 487:Source\mbedtls_open\library/hmac_drbg.c ****                          NULL, 0 ) );
 488:Source\mbedtls_open\library/hmac_drbg.c ****     mbedtls_hmac_drbg_set_prediction_resistance( &ctx, MBEDTLS_HMAC_DRBG_PR_ON );
 909              		.loc 1 488 0 is_stmt 1
 910 0048 0121     		movs	r1, #1
 911 004a 17A8     		add	r0, sp, #92
 912 004c FFF7FEFF 		bl	mbedtls_hmac_drbg_set_prediction_resistance
 913              	.LVL121:
 489:Source\mbedtls_open\library/hmac_drbg.c ****     CHK( mbedtls_hmac_drbg_random( &ctx, buf, OUTPUT_LEN ) );
 914              		.loc 1 489 0
 915 0050 5022     		movs	r2, #80
 916 0052 03A9     		add	r1, sp, #12
 917 0054 17A8     		add	r0, sp, #92
 918 0056 FFF7FEFF 		bl	mbedtls_hmac_drbg_random
 919              	.LVL122:
 920 005a 0028     		cmp	r0, #0
 921 005c 07D0     		beq	.L51
 922              		.loc 1 489 0 is_stmt 0 discriminator 1
 923 005e 002C     		cmp	r4, #0
 924 0060 00D1     		bne	.LCB891
 925 0062 96E0     		b	.L63	@long jump
 926              	.LCB891:
 927              		.loc 1 489 0 discriminator 2
 928 0064 5848     		ldr	r0, .L71+16
 929 0066 FFF7FEFF 		bl	puts
 930              	.LVL123:
 931 006a 0125     		movs	r5, #1
 932              	.LVL124:
 933 006c A0E0     		b	.L50
 934              	.LVL125:
 935              	.L51:
 490:Source\mbedtls_open\library/hmac_drbg.c ****     CHK( mbedtls_hmac_drbg_random( &ctx, buf, OUTPUT_LEN ) );
 936              		.loc 1 490 0 is_stmt 1
 937 006e 5022     		movs	r2, #80
 938 0070 03A9     		add	r1, sp, #12
 939 0072 17A8     		add	r0, sp, #92
 940 0074 FFF7FEFF 		bl	mbedtls_hmac_drbg_random
 941              	.LVL126:
 942 0078 0028     		cmp	r0, #0
 943 007a 07D0     		beq	.L52
 944              		.loc 1 490 0 is_stmt 0 discriminator 1
 945 007c 002C     		cmp	r4, #0
 946 007e 00D1     		bne	.LCB910
ARM GAS  C:\Users\Phuong\AppData\Local\Temp\cc3BsBtt.s 			page 28


 947 0080 89E0     		b	.L64	@long jump
 948              	.LCB910:
 949              		.loc 1 490 0 discriminator 2
 950 0082 5148     		ldr	r0, .L71+16
 951 0084 FFF7FEFF 		bl	puts
 952              	.LVL127:
 953 0088 0125     		movs	r5, #1
 954              	.LVL128:
 955 008a 91E0     		b	.L50
 956              	.LVL129:
 957              	.L52:
 491:Source\mbedtls_open\library/hmac_drbg.c ****     CHK( memcmp( buf, result_pr, OUTPUT_LEN ) );
 958              		.loc 1 491 0 is_stmt 1
 959 008c 5022     		movs	r2, #80
 960 008e 4C49     		ldr	r1, .L71+8
 961 0090 3831     		adds	r1, r1, #56
 962 0092 03A8     		add	r0, sp, #12
 963 0094 FFF7FEFF 		bl	memcmp
 964              	.LVL130:
 965 0098 0028     		cmp	r0, #0
 966 009a 06D0     		beq	.L53
 967              		.loc 1 491 0 is_stmt 0 discriminator 1
 968 009c 002C     		cmp	r4, #0
 969 009e 7CD0     		beq	.L65
 970              		.loc 1 491 0 discriminator 2
 971 00a0 4948     		ldr	r0, .L71+16
 972 00a2 FFF7FEFF 		bl	puts
 973              	.LVL131:
 974 00a6 0125     		movs	r5, #1
 975              	.LVL132:
 976 00a8 82E0     		b	.L50
 977              	.LVL133:
 978              	.L53:
 492:Source\mbedtls_open\library/hmac_drbg.c ****     mbedtls_hmac_drbg_free( &ctx );
 979              		.loc 1 492 0 is_stmt 1
 980 00aa 17A8     		add	r0, sp, #92
 981 00ac FFF7FEFF 		bl	mbedtls_hmac_drbg_free
 982              	.LVL134:
 493:Source\mbedtls_open\library/hmac_drbg.c **** 
 494:Source\mbedtls_open\library/hmac_drbg.c ****     mbedtls_hmac_drbg_free( &ctx );
 983              		.loc 1 494 0
 984 00b0 17A8     		add	r0, sp, #92
 985 00b2 FFF7FEFF 		bl	mbedtls_hmac_drbg_free
 986              	.LVL135:
 495:Source\mbedtls_open\library/hmac_drbg.c **** 
 496:Source\mbedtls_open\library/hmac_drbg.c ****     if( verbose != 0 )
 987              		.loc 1 496 0
 988 00b6 002C     		cmp	r4, #0
 989 00b8 02D0     		beq	.L54
 497:Source\mbedtls_open\library/hmac_drbg.c ****         mbedtls_printf( "passed\n" );
 990              		.loc 1 497 0
 991 00ba 4448     		ldr	r0, .L71+20
 992 00bc FFF7FEFF 		bl	puts
 993              	.LVL136:
 994              	.L54:
 498:Source\mbedtls_open\library/hmac_drbg.c **** 
 499:Source\mbedtls_open\library/hmac_drbg.c ****     /*
ARM GAS  C:\Users\Phuong\AppData\Local\Temp\cc3BsBtt.s 			page 29


 500:Source\mbedtls_open\library/hmac_drbg.c ****      * PR = False
 501:Source\mbedtls_open\library/hmac_drbg.c ****      */
 502:Source\mbedtls_open\library/hmac_drbg.c ****     if( verbose != 0 )
 995              		.loc 1 502 0
 996 00c0 002C     		cmp	r4, #0
 997 00c2 02D0     		beq	.L55
 503:Source\mbedtls_open\library/hmac_drbg.c ****         mbedtls_printf( "  HMAC_DRBG (PR = False) : " );
 998              		.loc 1 503 0
 999 00c4 4248     		ldr	r0, .L71+24
 1000 00c6 FFF7FEFF 		bl	printf
 1001              	.LVL137:
 1002              	.L55:
 504:Source\mbedtls_open\library/hmac_drbg.c **** 
 505:Source\mbedtls_open\library/hmac_drbg.c ****     mbedtls_hmac_drbg_init( &ctx );
 1003              		.loc 1 505 0
 1004 00ca 17A8     		add	r0, sp, #92
 1005 00cc FFF7FEFF 		bl	mbedtls_hmac_drbg_init
 1006              	.LVL138:
 506:Source\mbedtls_open\library/hmac_drbg.c **** 
 507:Source\mbedtls_open\library/hmac_drbg.c ****     test_offset = 0;
 1007              		.loc 1 507 0
 1008 00d0 0023     		movs	r3, #0
 1009 00d2 3A4A     		ldr	r2, .L71+4
 1010 00d4 1360     		str	r3, [r2]
 508:Source\mbedtls_open\library/hmac_drbg.c ****     CHK( mbedtls_hmac_drbg_seed( &ctx, md_info,
 1011              		.loc 1 508 0
 1012 00d6 0193     		str	r3, [sp, #4]
 1013 00d8 0093     		str	r3, [sp]
 1014 00da 3E4B     		ldr	r3, .L71+28
 1015 00dc 0833     		adds	r3, r3, #8
 1016 00de 394A     		ldr	r2, .L71+12
 1017 00e0 2900     		movs	r1, r5
 1018 00e2 17A8     		add	r0, sp, #92
 1019 00e4 FFF7FEFF 		bl	mbedtls_hmac_drbg_seed
 1020              	.LVL139:
 1021 00e8 0028     		cmp	r0, #0
 1022 00ea 06D0     		beq	.L56
 1023              		.loc 1 508 0 is_stmt 0 discriminator 1
 1024 00ec 002C     		cmp	r4, #0
 1025 00ee 56D0     		beq	.L66
 1026              		.loc 1 508 0 discriminator 2
 1027 00f0 3548     		ldr	r0, .L71+16
 1028 00f2 FFF7FEFF 		bl	puts
 1029              	.LVL140:
 1030 00f6 0125     		movs	r5, #1
 1031              	.LVL141:
 1032 00f8 5AE0     		b	.L50
 1033              	.LVL142:
 1034              	.L56:
 509:Source\mbedtls_open\library/hmac_drbg.c ****                          hmac_drbg_self_test_entropy, (void *) entropy_nopr,
 510:Source\mbedtls_open\library/hmac_drbg.c ****                          NULL, 0 ) );
 511:Source\mbedtls_open\library/hmac_drbg.c ****     CHK( mbedtls_hmac_drbg_reseed( &ctx, NULL, 0 ) );
 1035              		.loc 1 511 0 is_stmt 1
 1036 00fa 0022     		movs	r2, #0
 1037 00fc 0021     		movs	r1, #0
 1038 00fe 17A8     		add	r0, sp, #92
 1039 0100 FFF7FEFF 		bl	mbedtls_hmac_drbg_reseed
ARM GAS  C:\Users\Phuong\AppData\Local\Temp\cc3BsBtt.s 			page 30


 1040              	.LVL143:
 1041 0104 0028     		cmp	r0, #0
 1042 0106 06D0     		beq	.L57
 1043              		.loc 1 511 0 is_stmt 0 discriminator 1
 1044 0108 002C     		cmp	r4, #0
 1045 010a 4AD0     		beq	.L67
 1046              		.loc 1 511 0 discriminator 2
 1047 010c 2E48     		ldr	r0, .L71+16
 1048 010e FFF7FEFF 		bl	puts
 1049              	.LVL144:
 1050 0112 0125     		movs	r5, #1
 1051              	.LVL145:
 1052 0114 4CE0     		b	.L50
 1053              	.LVL146:
 1054              	.L57:
 512:Source\mbedtls_open\library/hmac_drbg.c ****     CHK( mbedtls_hmac_drbg_random( &ctx, buf, OUTPUT_LEN ) );
 1055              		.loc 1 512 0 is_stmt 1
 1056 0116 5022     		movs	r2, #80
 1057 0118 03A9     		add	r1, sp, #12
 1058 011a 17A8     		add	r0, sp, #92
 1059 011c FFF7FEFF 		bl	mbedtls_hmac_drbg_random
 1060              	.LVL147:
 1061 0120 0028     		cmp	r0, #0
 1062 0122 06D0     		beq	.L58
 1063              		.loc 1 512 0 is_stmt 0 discriminator 1
 1064 0124 002C     		cmp	r4, #0
 1065 0126 3ED0     		beq	.L68
 1066              		.loc 1 512 0 discriminator 2
 1067 0128 2748     		ldr	r0, .L71+16
 1068 012a FFF7FEFF 		bl	puts
 1069              	.LVL148:
 1070 012e 0125     		movs	r5, #1
 1071              	.LVL149:
 1072 0130 3EE0     		b	.L50
 1073              	.LVL150:
 1074              	.L58:
 513:Source\mbedtls_open\library/hmac_drbg.c ****     CHK( mbedtls_hmac_drbg_random( &ctx, buf, OUTPUT_LEN ) );
 1075              		.loc 1 513 0 is_stmt 1
 1076 0132 5022     		movs	r2, #80
 1077 0134 03A9     		add	r1, sp, #12
 1078 0136 17A8     		add	r0, sp, #92
 1079 0138 FFF7FEFF 		bl	mbedtls_hmac_drbg_random
 1080              	.LVL151:
 1081 013c 0028     		cmp	r0, #0
 1082 013e 06D0     		beq	.L59
 1083              		.loc 1 513 0 is_stmt 0 discriminator 1
 1084 0140 002C     		cmp	r4, #0
 1085 0142 32D0     		beq	.L69
 1086              		.loc 1 513 0 discriminator 2
 1087 0144 2048     		ldr	r0, .L71+16
 1088 0146 FFF7FEFF 		bl	puts
 1089              	.LVL152:
 1090 014a 0125     		movs	r5, #1
 1091              	.LVL153:
 1092 014c 30E0     		b	.L50
 1093              	.LVL154:
 1094              	.L59:
ARM GAS  C:\Users\Phuong\AppData\Local\Temp\cc3BsBtt.s 			page 31


 514:Source\mbedtls_open\library/hmac_drbg.c ****     CHK( memcmp( buf, result_nopr, OUTPUT_LEN ) );
 1095              		.loc 1 514 0 is_stmt 1
 1096 014e 5022     		movs	r2, #80
 1097 0150 2049     		ldr	r1, .L71+28
 1098 0152 3031     		adds	r1, r1, #48
 1099 0154 03A8     		add	r0, sp, #12
 1100 0156 FFF7FEFF 		bl	memcmp
 1101              	.LVL155:
 1102 015a 051E     		subs	r5, r0, #0
 1103              	.LVL156:
 1104 015c 06D0     		beq	.L60
 1105              		.loc 1 514 0 is_stmt 0 discriminator 1
 1106 015e 002C     		cmp	r4, #0
 1107 0160 25D0     		beq	.L70
 1108              		.loc 1 514 0 discriminator 2
 1109 0162 1948     		ldr	r0, .L71+16
 1110 0164 FFF7FEFF 		bl	puts
 1111              	.LVL157:
 1112 0168 0125     		movs	r5, #1
 1113 016a 21E0     		b	.L50
 1114              	.L60:
 515:Source\mbedtls_open\library/hmac_drbg.c ****     mbedtls_hmac_drbg_free( &ctx );
 1115              		.loc 1 515 0 is_stmt 1
 1116 016c 17A8     		add	r0, sp, #92
 1117 016e FFF7FEFF 		bl	mbedtls_hmac_drbg_free
 1118              	.LVL158:
 516:Source\mbedtls_open\library/hmac_drbg.c **** 
 517:Source\mbedtls_open\library/hmac_drbg.c ****     mbedtls_hmac_drbg_free( &ctx );
 1119              		.loc 1 517 0
 1120 0172 17A8     		add	r0, sp, #92
 1121 0174 FFF7FEFF 		bl	mbedtls_hmac_drbg_free
 1122              	.LVL159:
 518:Source\mbedtls_open\library/hmac_drbg.c **** 
 519:Source\mbedtls_open\library/hmac_drbg.c ****     if( verbose != 0 )
 1123              		.loc 1 519 0
 1124 0178 002C     		cmp	r4, #0
 1125 017a 02D0     		beq	.L61
 520:Source\mbedtls_open\library/hmac_drbg.c ****         mbedtls_printf( "passed\n" );
 1126              		.loc 1 520 0
 1127 017c 1348     		ldr	r0, .L71+20
 1128 017e FFF7FEFF 		bl	puts
 1129              	.LVL160:
 1130              	.L61:
 521:Source\mbedtls_open\library/hmac_drbg.c **** 
 522:Source\mbedtls_open\library/hmac_drbg.c ****     if( verbose != 0 )
 1131              		.loc 1 522 0
 1132 0182 002C     		cmp	r4, #0
 1133 0184 14D0     		beq	.L50
 523:Source\mbedtls_open\library/hmac_drbg.c ****         mbedtls_printf( "\n" );
 1134              		.loc 1 523 0
 1135 0186 0A20     		movs	r0, #10
 1136 0188 FFF7FEFF 		bl	putchar
 1137              	.LVL161:
 1138 018c 10E0     		b	.L50
 1139              	.LVL162:
 1140              	.L62:
 485:Source\mbedtls_open\library/hmac_drbg.c ****                          hmac_drbg_self_test_entropy, (void *) entropy_pr,
ARM GAS  C:\Users\Phuong\AppData\Local\Temp\cc3BsBtt.s 			page 32


 1141              		.loc 1 485 0
 1142 018e 0125     		movs	r5, #1
 1143              	.LVL163:
 1144 0190 0EE0     		b	.L50
 1145              	.LVL164:
 1146              	.L63:
 489:Source\mbedtls_open\library/hmac_drbg.c ****     CHK( mbedtls_hmac_drbg_random( &ctx, buf, OUTPUT_LEN ) );
 1147              		.loc 1 489 0
 1148 0192 0125     		movs	r5, #1
 1149              	.LVL165:
 1150 0194 0CE0     		b	.L50
 1151              	.LVL166:
 1152              	.L64:
 490:Source\mbedtls_open\library/hmac_drbg.c ****     CHK( memcmp( buf, result_pr, OUTPUT_LEN ) );
 1153              		.loc 1 490 0
 1154 0196 0125     		movs	r5, #1
 1155              	.LVL167:
 1156 0198 0AE0     		b	.L50
 1157              	.LVL168:
 1158              	.L65:
 491:Source\mbedtls_open\library/hmac_drbg.c ****     mbedtls_hmac_drbg_free( &ctx );
 1159              		.loc 1 491 0
 1160 019a 0125     		movs	r5, #1
 1161              	.LVL169:
 1162 019c 08E0     		b	.L50
 1163              	.LVL170:
 1164              	.L66:
 508:Source\mbedtls_open\library/hmac_drbg.c ****                          hmac_drbg_self_test_entropy, (void *) entropy_nopr,
 1165              		.loc 1 508 0
 1166 019e 0125     		movs	r5, #1
 1167              	.LVL171:
 1168 01a0 06E0     		b	.L50
 1169              	.LVL172:
 1170              	.L67:
 511:Source\mbedtls_open\library/hmac_drbg.c ****     CHK( mbedtls_hmac_drbg_random( &ctx, buf, OUTPUT_LEN ) );
 1171              		.loc 1 511 0
 1172 01a2 0125     		movs	r5, #1
 1173              	.LVL173:
 1174 01a4 04E0     		b	.L50
 1175              	.LVL174:
 1176              	.L68:
 512:Source\mbedtls_open\library/hmac_drbg.c ****     CHK( mbedtls_hmac_drbg_random( &ctx, buf, OUTPUT_LEN ) );
 1177              		.loc 1 512 0
 1178 01a6 0125     		movs	r5, #1
 1179              	.LVL175:
 1180 01a8 02E0     		b	.L50
 1181              	.LVL176:
 1182              	.L69:
 513:Source\mbedtls_open\library/hmac_drbg.c ****     CHK( memcmp( buf, result_nopr, OUTPUT_LEN ) );
 1183              		.loc 1 513 0
 1184 01aa 0125     		movs	r5, #1
 1185              	.LVL177:
 1186 01ac 00E0     		b	.L50
 1187              	.L70:
 514:Source\mbedtls_open\library/hmac_drbg.c ****     mbedtls_hmac_drbg_free( &ctx );
 1188              		.loc 1 514 0
 1189 01ae 0125     		movs	r5, #1
ARM GAS  C:\Users\Phuong\AppData\Local\Temp\cc3BsBtt.s 			page 33


 1190              	.L50:
 524:Source\mbedtls_open\library/hmac_drbg.c **** 
 525:Source\mbedtls_open\library/hmac_drbg.c ****     return( 0 );
 526:Source\mbedtls_open\library/hmac_drbg.c **** }
 1191              		.loc 1 526 0
 1192 01b0 2800     		movs	r0, r5
 1193 01b2 31B0     		add	sp, sp, #196
 1194              		@ sp needed
 1195              	.LVL178:
 1196 01b4 30BD     		pop	{r4, r5, pc}
 1197              	.L72:
 1198 01b6 C046     		.align	2
 1199              	.L71:
 1200 01b8 00000000 		.word	.LC1
 1201 01bc 00000000 		.word	.LANCHOR0
 1202 01c0 00000000 		.word	.LANCHOR1
 1203 01c4 00000000 		.word	hmac_drbg_self_test_entropy
 1204 01c8 1C000000 		.word	.LC6
 1205 01cc 24000000 		.word	.LC8
 1206 01d0 2C000000 		.word	.LC10
 1207 01d4 80000000 		.word	.LANCHOR2
 1208              		.cfi_endproc
 1209              	.LFE13:
 1210              		.size	mbedtls_hmac_drbg_self_test, .-mbedtls_hmac_drbg_self_test
 1211              		.section	.rodata
 1212              		.align	2
 1213              		.set	.LANCHOR1,. + 0
 1214              		.set	.LANCHOR2,. + 128
 1215              		.type	entropy_pr, %object
 1216              		.size	entropy_pr, 56
 1217              	entropy_pr:
 1218 0000 A0       		.byte	-96
 1219 0001 C9       		.byte	-55
 1220 0002 AB       		.byte	-85
 1221 0003 58       		.byte	88
 1222 0004 F1       		.byte	-15
 1223 0005 E2       		.byte	-30
 1224 0006 E5       		.byte	-27
 1225 0007 A4       		.byte	-92
 1226 0008 DE       		.byte	-34
 1227 0009 3E       		.byte	62
 1228 000a BD       		.byte	-67
 1229 000b 4F       		.byte	79
 1230 000c F7       		.byte	-9
 1231 000d 3E       		.byte	62
 1232 000e 9C       		.byte	-100
 1233 000f 5B       		.byte	91
 1234 0010 64       		.byte	100
 1235 0011 EF       		.byte	-17
 1236 0012 D8       		.byte	-40
 1237 0013 CA       		.byte	-54
 1238 0014 02       		.byte	2
 1239 0015 8C       		.byte	-116
 1240 0016 F8       		.byte	-8
 1241 0017 11       		.byte	17
 1242 0018 48       		.byte	72
 1243 0019 A5       		.byte	-91
ARM GAS  C:\Users\Phuong\AppData\Local\Temp\cc3BsBtt.s 			page 34


 1244 001a 84       		.byte	-124
 1245 001b FE       		.byte	-2
 1246 001c 69       		.byte	105
 1247 001d AB       		.byte	-85
 1248 001e 5A       		.byte	90
 1249 001f EE       		.byte	-18
 1250 0020 42       		.byte	66
 1251 0021 AA       		.byte	-86
 1252 0022 4D       		.byte	77
 1253 0023 42       		.byte	66
 1254 0024 17       		.byte	23
 1255 0025 60       		.byte	96
 1256 0026 99       		.byte	-103
 1257 0027 D4       		.byte	-44
 1258 0028 5E       		.byte	94
 1259 0029 13       		.byte	19
 1260 002a 97       		.byte	-105
 1261 002b DC       		.byte	-36
 1262 002c 40       		.byte	64
 1263 002d 4D       		.byte	77
 1264 002e 86       		.byte	-122
 1265 002f A3       		.byte	-93
 1266 0030 7B       		.byte	123
 1267 0031 F5       		.byte	-11
 1268 0032 59       		.byte	89
 1269 0033 54       		.byte	84
 1270 0034 75       		.byte	117
 1271 0035 69       		.byte	105
 1272 0036 51       		.byte	81
 1273 0037 E4       		.byte	-28
 1274              		.type	result_pr, %object
 1275              		.size	result_pr, 80
 1276              	result_pr:
 1277 0038 9A       		.byte	-102
 1278 0039 00       		.byte	0
 1279 003a A2       		.byte	-94
 1280 003b D0       		.byte	-48
 1281 003c 0E       		.byte	14
 1282 003d D5       		.byte	-43
 1283 003e 9B       		.byte	-101
 1284 003f FE       		.byte	-2
 1285 0040 31       		.byte	49
 1286 0041 EC       		.byte	-20
 1287 0042 B1       		.byte	-79
 1288 0043 39       		.byte	57
 1289 0044 9B       		.byte	-101
 1290 0045 60       		.byte	96
 1291 0046 81       		.byte	-127
 1292 0047 48       		.byte	72
 1293 0048 D1       		.byte	-47
 1294 0049 96       		.byte	-106
 1295 004a 9D       		.byte	-99
 1296 004b 25       		.byte	37
 1297 004c 0D       		.byte	13
 1298 004d 3C       		.byte	60
 1299 004e 1E       		.byte	30
 1300 004f 94       		.byte	-108
ARM GAS  C:\Users\Phuong\AppData\Local\Temp\cc3BsBtt.s 			page 35


 1301 0050 10       		.byte	16
 1302 0051 10       		.byte	16
 1303 0052 98       		.byte	-104
 1304 0053 12       		.byte	18
 1305 0054 93       		.byte	-109
 1306 0055 25       		.byte	37
 1307 0056 CA       		.byte	-54
 1308 0057 B8       		.byte	-72
 1309 0058 FC       		.byte	-4
 1310 0059 CC       		.byte	-52
 1311 005a 2D       		.byte	45
 1312 005b 54       		.byte	84
 1313 005c 73       		.byte	115
 1314 005d 19       		.byte	25
 1315 005e 70       		.byte	112
 1316 005f C0       		.byte	-64
 1317 0060 10       		.byte	16
 1318 0061 7A       		.byte	122
 1319 0062 A4       		.byte	-92
 1320 0063 89       		.byte	-119
 1321 0064 25       		.byte	37
 1322 0065 19       		.byte	25
 1323 0066 95       		.byte	-107
 1324 0067 5E       		.byte	94
 1325 0068 4B       		.byte	75
 1326 0069 C6       		.byte	-58
 1327 006a 00       		.byte	0
 1328 006b 1D       		.byte	29
 1329 006c 7F       		.byte	127
 1330 006d 4E       		.byte	78
 1331 006e 6A       		.byte	106
 1332 006f 2B       		.byte	43
 1333 0070 F8       		.byte	-8
 1334 0071 A3       		.byte	-93
 1335 0072 01       		.byte	1
 1336 0073 AB       		.byte	-85
 1337 0074 46       		.byte	70
 1338 0075 05       		.byte	5
 1339 0076 5C       		.byte	92
 1340 0077 09       		.byte	9
 1341 0078 A6       		.byte	-90
 1342 0079 71       		.byte	113
 1343 007a 88       		.byte	-120
 1344 007b F1       		.byte	-15
 1345 007c A7       		.byte	-89
 1346 007d 40       		.byte	64
 1347 007e EE       		.byte	-18
 1348 007f F3       		.byte	-13
 1349 0080 E1       		.byte	-31
 1350 0081 5C       		.byte	92
 1351 0082 02       		.byte	2
 1352 0083 9B       		.byte	-101
 1353 0084 44       		.byte	68
 1354 0085 AF       		.byte	-81
 1355 0086 03       		.byte	3
 1356 0087 44       		.byte	68
 1357              		.type	entropy_nopr, %object
ARM GAS  C:\Users\Phuong\AppData\Local\Temp\cc3BsBtt.s 			page 36


 1358              		.size	entropy_nopr, 40
 1359              	entropy_nopr:
 1360 0088 79       		.byte	121
 1361 0089 34       		.byte	52
 1362 008a 9B       		.byte	-101
 1363 008b BF       		.byte	-65
 1364 008c 7C       		.byte	124
 1365 008d DD       		.byte	-35
 1366 008e A5       		.byte	-91
 1367 008f 79       		.byte	121
 1368 0090 95       		.byte	-107
 1369 0091 57       		.byte	87
 1370 0092 86       		.byte	-122
 1371 0093 66       		.byte	102
 1372 0094 21       		.byte	33
 1373 0095 C9       		.byte	-55
 1374 0096 13       		.byte	19
 1375 0097 83       		.byte	-125
 1376 0098 11       		.byte	17
 1377 0099 46       		.byte	70
 1378 009a 73       		.byte	115
 1379 009b 3A       		.byte	58
 1380 009c BF       		.byte	-65
 1381 009d 8C       		.byte	-116
 1382 009e 35       		.byte	53
 1383 009f C8       		.byte	-56
 1384 00a0 C7       		.byte	-57
 1385 00a1 21       		.byte	33
 1386 00a2 5B       		.byte	91
 1387 00a3 5B       		.byte	91
 1388 00a4 96       		.byte	-106
 1389 00a5 C4       		.byte	-60
 1390 00a6 8E       		.byte	-114
 1391 00a7 9B       		.byte	-101
 1392 00a8 33       		.byte	51
 1393 00a9 8C       		.byte	-116
 1394 00aa 74       		.byte	116
 1395 00ab E3       		.byte	-29
 1396 00ac E9       		.byte	-23
 1397 00ad 9D       		.byte	-99
 1398 00ae FE       		.byte	-2
 1399 00af DF       		.byte	-33
 1400              		.type	result_nopr, %object
 1401              		.size	result_nopr, 80
 1402              	result_nopr:
 1403 00b0 C6       		.byte	-58
 1404 00b1 A1       		.byte	-95
 1405 00b2 6A       		.byte	106
 1406 00b3 B8       		.byte	-72
 1407 00b4 D4       		.byte	-44
 1408 00b5 20       		.byte	32
 1409 00b6 70       		.byte	112
 1410 00b7 6F       		.byte	111
 1411 00b8 0F       		.byte	15
 1412 00b9 34       		.byte	52
 1413 00ba AB       		.byte	-85
 1414 00bb 7F       		.byte	127
ARM GAS  C:\Users\Phuong\AppData\Local\Temp\cc3BsBtt.s 			page 37


 1415 00bc EC       		.byte	-20
 1416 00bd 5A       		.byte	90
 1417 00be DC       		.byte	-36
 1418 00bf A9       		.byte	-87
 1419 00c0 D8       		.byte	-40
 1420 00c1 CA       		.byte	-54
 1421 00c2 3A       		.byte	58
 1422 00c3 13       		.byte	19
 1423 00c4 3E       		.byte	62
 1424 00c5 15       		.byte	21
 1425 00c6 9C       		.byte	-100
 1426 00c7 A6       		.byte	-90
 1427 00c8 AC       		.byte	-84
 1428 00c9 43       		.byte	67
 1429 00ca C6       		.byte	-58
 1430 00cb F8       		.byte	-8
 1431 00cc A2       		.byte	-94
 1432 00cd BE       		.byte	-66
 1433 00ce 22       		.byte	34
 1434 00cf 83       		.byte	-125
 1435 00d0 4A       		.byte	74
 1436 00d1 4C       		.byte	76
 1437 00d2 0A       		.byte	10
 1438 00d3 0A       		.byte	10
 1439 00d4 FF       		.byte	-1
 1440 00d5 B1       		.byte	-79
 1441 00d6 0D       		.byte	13
 1442 00d7 71       		.byte	113
 1443 00d8 94       		.byte	-108
 1444 00d9 F1       		.byte	-15
 1445 00da C1       		.byte	-63
 1446 00db A5       		.byte	-91
 1447 00dc CF       		.byte	-49
 1448 00dd 73       		.byte	115
 1449 00de 22       		.byte	34
 1450 00df EC       		.byte	-20
 1451 00e0 1A       		.byte	26
 1452 00e1 E0       		.byte	-32
 1453 00e2 96       		.byte	-106
 1454 00e3 4E       		.byte	78
 1455 00e4 D4       		.byte	-44
 1456 00e5 BF       		.byte	-65
 1457 00e6 12       		.byte	18
 1458 00e7 27       		.byte	39
 1459 00e8 46       		.byte	70
 1460 00e9 E0       		.byte	-32
 1461 00ea 87       		.byte	-121
 1462 00eb FD       		.byte	-3
 1463 00ec B5       		.byte	-75
 1464 00ed B3       		.byte	-77
 1465 00ee E9       		.byte	-23
 1466 00ef 1B       		.byte	27
 1467 00f0 34       		.byte	52
 1468 00f1 93       		.byte	-109
 1469 00f2 D5       		.byte	-43
 1470 00f3 BB       		.byte	-69
 1471 00f4 98       		.byte	-104
ARM GAS  C:\Users\Phuong\AppData\Local\Temp\cc3BsBtt.s 			page 38


 1472 00f5 FA       		.byte	-6
 1473 00f6 ED       		.byte	-19
 1474 00f7 49       		.byte	73
 1475 00f8 E8       		.byte	-24
 1476 00f9 5F       		.byte	95
 1477 00fa 13       		.byte	19
 1478 00fb 0F       		.byte	15
 1479 00fc C8       		.byte	-56
 1480 00fd A4       		.byte	-92
 1481 00fe 59       		.byte	89
 1482 00ff B7       		.byte	-73
 1483              		.section	.rodata.str1.4,"aMS",%progbits,1
 1484              		.align	2
 1485              	.LC1:
 1486 0000 2020484D 		.ascii	"  HMAC_DRBG (PR = True) : \000"
 1486      41435F44 
 1486      52424720 
 1486      28505220 
 1486      3D205472 
 1487 001b 00       		.space	1
 1488              	.LC6:
 1489 001c 6661696C 		.ascii	"failed\000"
 1489      656400
 1490 0023 00       		.space	1
 1491              	.LC8:
 1492 0024 70617373 		.ascii	"passed\000"
 1492      656400
 1493 002b 00       		.space	1
 1494              	.LC10:
 1495 002c 2020484D 		.ascii	"  HMAC_DRBG (PR = False) : \000"
 1495      41435F44 
 1495      52424720 
 1495      28505220 
 1495      3D204661 
 1496              		.bss
 1497              		.align	2
 1498              		.set	.LANCHOR0,. + 0
 1499              		.type	test_offset, %object
 1500              		.size	test_offset, 4
 1501              	test_offset:
 1502 0000 00000000 		.space	4
 1503              		.text
 1504              	.Letext0:
 1505              		.file 2 "c:\\program files (x86)\\cypress\\psoc creator\\4.2\\psoc creator\\import\\gnu\\arm\\5.4.
 1506              		.file 3 ".\\Source\\mbedtls_open\\include/mbedtls/md.h"
 1507              		.file 4 ".\\Source\\mbedtls_open\\include/mbedtls/hmac_drbg.h"
 1508              		.file 5 "c:\\program files (x86)\\cypress\\psoc creator\\4.2\\psoc creator\\import\\gnu\\arm\\5.4.
 1509              		.file 6 ".\\Source\\mbedtls_open\\include/mbedtls/platform_util.h"
 1510              		.file 7 "c:\\program files (x86)\\cypress\\psoc creator\\4.2\\psoc creator\\import\\gnu\\arm\\5.4.
 1511              		.file 8 "<built-in>"