ARM GAS  C:\Users\Phuong\AppData\Local\Temp\ccKPluhm.s 			page 1


   1              		.syntax unified
   2              		.cpu cortex-m0plus
   3              		.fpu softvfp
   4              		.eabi_attribute 20, 1
   5              		.eabi_attribute 21, 1
   6              		.eabi_attribute 23, 3
   7              		.eabi_attribute 24, 1
   8              		.eabi_attribute 25, 1
   9              		.eabi_attribute 26, 1
  10              		.eabi_attribute 30, 1
  11              		.eabi_attribute 34, 0
  12              		.eabi_attribute 18, 4
  13              		.thumb
  14              		.syntax unified
  15              		.file	"igmp.c"
  16              		.text
  17              	.Ltext0:
  18              		.cfi_sections	.debug_frame
  19              		.section	.text.igmp_remove_group,"ax",%progbits
  20              		.align	2
  21              		.code	16
  22              		.thumb_func
  23              		.type	igmp_remove_group, %function
  24              	igmp_remove_group:
  25              	.LFB59:
  26              		.file 1 "Source\\LwIP\\src\\core\\ipv4\\igmp.c"
   1:Source\LwIP\src\core\ipv4/igmp.c **** /**
   2:Source\LwIP\src\core\ipv4/igmp.c ****  * @file
   3:Source\LwIP\src\core\ipv4/igmp.c ****  * IGMP - Internet Group Management Protocol
   4:Source\LwIP\src\core\ipv4/igmp.c ****  *
   5:Source\LwIP\src\core\ipv4/igmp.c ****  * @defgroup igmp IGMP
   6:Source\LwIP\src\core\ipv4/igmp.c ****  * @ingroup ip4
   7:Source\LwIP\src\core\ipv4/igmp.c ****  * To be called from TCPIP thread
   8:Source\LwIP\src\core\ipv4/igmp.c ****  */
   9:Source\LwIP\src\core\ipv4/igmp.c **** 
  10:Source\LwIP\src\core\ipv4/igmp.c **** /*
  11:Source\LwIP\src\core\ipv4/igmp.c ****  * Copyright (c) 2002 CITEL Technologies Ltd.
  12:Source\LwIP\src\core\ipv4/igmp.c ****  * All rights reserved.
  13:Source\LwIP\src\core\ipv4/igmp.c ****  *
  14:Source\LwIP\src\core\ipv4/igmp.c ****  * Redistribution and use in source and binary forms, with or without
  15:Source\LwIP\src\core\ipv4/igmp.c ****  * modification, are permitted provided that the following conditions
  16:Source\LwIP\src\core\ipv4/igmp.c ****  * are met:
  17:Source\LwIP\src\core\ipv4/igmp.c ****  * 1. Redistributions of source code must retain the above copyright
  18:Source\LwIP\src\core\ipv4/igmp.c ****  *    notice, this list of conditions and the following disclaimer.
  19:Source\LwIP\src\core\ipv4/igmp.c ****  * 2. Redistributions in binary form must reproduce the above copyright
  20:Source\LwIP\src\core\ipv4/igmp.c ****  *    notice, this list of conditions and the following disclaimer in the
  21:Source\LwIP\src\core\ipv4/igmp.c ****  *    documentation and/or other materials provided with the distribution.
  22:Source\LwIP\src\core\ipv4/igmp.c ****  * 3. Neither the name of CITEL Technologies Ltd nor the names of its contributors
  23:Source\LwIP\src\core\ipv4/igmp.c ****  *    may be used to endorse or promote products derived from this software
  24:Source\LwIP\src\core\ipv4/igmp.c ****  *    without specific prior written permission.
  25:Source\LwIP\src\core\ipv4/igmp.c ****  *
  26:Source\LwIP\src\core\ipv4/igmp.c ****  * THIS SOFTWARE IS PROVIDED BY CITEL TECHNOLOGIES AND CONTRIBUTORS ``AS IS''
  27:Source\LwIP\src\core\ipv4/igmp.c ****  * AND ANY EXPRESS OR IMPLIED WARRANTIES, INCLUDING, BUT NOT LIMITED TO, THE
  28:Source\LwIP\src\core\ipv4/igmp.c ****  * IMPLIED WARRANTIES OF MERCHANTABILITY AND FITNESS FOR A PARTICULAR PURPOSE
  29:Source\LwIP\src\core\ipv4/igmp.c ****  * ARE DISCLAIMED.  IN NO EVENT SHALL CITEL TECHNOLOGIES OR CONTRIBUTORS BE LIABLE
  30:Source\LwIP\src\core\ipv4/igmp.c ****  * FOR ANY DIRECT, INDIRECT, INCIDENTAL, SPECIAL, EXEMPLARY, OR CONSEQUENTIAL
  31:Source\LwIP\src\core\ipv4/igmp.c ****  * DAMAGES (INCLUDING, BUT NOT LIMITED TO, PROCUREMENT OF SUBSTITUTE GOODS
ARM GAS  C:\Users\Phuong\AppData\Local\Temp\ccKPluhm.s 			page 2


  32:Source\LwIP\src\core\ipv4/igmp.c ****  * OR SERVICES; LOSS OF USE, DATA, OR PROFITS; OR BUSINESS INTERRUPTION)
  33:Source\LwIP\src\core\ipv4/igmp.c ****  * HOWEVER CAUSED AND ON ANY THEORY OF LIABILITY, WHETHER IN CONTRACT, STRICT
  34:Source\LwIP\src\core\ipv4/igmp.c ****  * LIABILITY, OR TORT (INCLUDING NEGLIGENCE OR OTHERWISE) ARISING IN ANY WAY
  35:Source\LwIP\src\core\ipv4/igmp.c ****  * OUT OF THE USE OF THIS SOFTWARE, EVEN IF ADVISED OF THE POSSIBILITY OF
  36:Source\LwIP\src\core\ipv4/igmp.c ****  * SUCH DAMAGE.
  37:Source\LwIP\src\core\ipv4/igmp.c ****  *
  38:Source\LwIP\src\core\ipv4/igmp.c ****  * This file is a contribution to the lwIP TCP/IP stack.
  39:Source\LwIP\src\core\ipv4/igmp.c ****  * The Swedish Institute of Computer Science and Adam Dunkels
  40:Source\LwIP\src\core\ipv4/igmp.c ****  * are specifically granted permission to redistribute this
  41:Source\LwIP\src\core\ipv4/igmp.c ****  * source code.
  42:Source\LwIP\src\core\ipv4/igmp.c **** */
  43:Source\LwIP\src\core\ipv4/igmp.c **** 
  44:Source\LwIP\src\core\ipv4/igmp.c **** /*-------------------------------------------------------------
  45:Source\LwIP\src\core\ipv4/igmp.c **** Note 1)
  46:Source\LwIP\src\core\ipv4/igmp.c **** Although the rfc requires V1 AND V2 capability
  47:Source\LwIP\src\core\ipv4/igmp.c **** we will only support v2 since now V1 is very old (August 1989)
  48:Source\LwIP\src\core\ipv4/igmp.c **** V1 can be added if required
  49:Source\LwIP\src\core\ipv4/igmp.c **** 
  50:Source\LwIP\src\core\ipv4/igmp.c **** a debug print and statistic have been implemented to
  51:Source\LwIP\src\core\ipv4/igmp.c **** show this up.
  52:Source\LwIP\src\core\ipv4/igmp.c **** -------------------------------------------------------------
  53:Source\LwIP\src\core\ipv4/igmp.c **** -------------------------------------------------------------
  54:Source\LwIP\src\core\ipv4/igmp.c **** Note 2)
  55:Source\LwIP\src\core\ipv4/igmp.c **** A query for a specific group address (as opposed to ALLHOSTS)
  56:Source\LwIP\src\core\ipv4/igmp.c **** has now been implemented as I am unsure if it is required
  57:Source\LwIP\src\core\ipv4/igmp.c **** 
  58:Source\LwIP\src\core\ipv4/igmp.c **** a debug print and statistic have been implemented to
  59:Source\LwIP\src\core\ipv4/igmp.c **** show this up.
  60:Source\LwIP\src\core\ipv4/igmp.c **** -------------------------------------------------------------
  61:Source\LwIP\src\core\ipv4/igmp.c **** -------------------------------------------------------------
  62:Source\LwIP\src\core\ipv4/igmp.c **** Note 3)
  63:Source\LwIP\src\core\ipv4/igmp.c **** The router alert rfc 2113 is implemented in outgoing packets
  64:Source\LwIP\src\core\ipv4/igmp.c **** but not checked rigorously incoming
  65:Source\LwIP\src\core\ipv4/igmp.c **** -------------------------------------------------------------
  66:Source\LwIP\src\core\ipv4/igmp.c **** Steve Reynolds
  67:Source\LwIP\src\core\ipv4/igmp.c **** ------------------------------------------------------------*/
  68:Source\LwIP\src\core\ipv4/igmp.c **** 
  69:Source\LwIP\src\core\ipv4/igmp.c **** /*-----------------------------------------------------------------------------
  70:Source\LwIP\src\core\ipv4/igmp.c ****  * RFC 988  - Host extensions for IP multicasting                         - V0
  71:Source\LwIP\src\core\ipv4/igmp.c ****  * RFC 1054 - Host extensions for IP multicasting                         -
  72:Source\LwIP\src\core\ipv4/igmp.c ****  * RFC 1112 - Host extensions for IP multicasting                         - V1
  73:Source\LwIP\src\core\ipv4/igmp.c ****  * RFC 2236 - Internet Group Management Protocol, Version 2               - V2  <- this code is bas
  74:Source\LwIP\src\core\ipv4/igmp.c ****  * RFC 3376 - Internet Group Management Protocol, Version 3               - V3
  75:Source\LwIP\src\core\ipv4/igmp.c ****  * RFC 4604 - Using Internet Group Management Protocol Version 3...       - V3+
  76:Source\LwIP\src\core\ipv4/igmp.c ****  * RFC 2113 - IP Router Alert Option                                      -
  77:Source\LwIP\src\core\ipv4/igmp.c ****  *----------------------------------------------------------------------------*/
  78:Source\LwIP\src\core\ipv4/igmp.c **** 
  79:Source\LwIP\src\core\ipv4/igmp.c **** /*-----------------------------------------------------------------------------
  80:Source\LwIP\src\core\ipv4/igmp.c ****  * Includes
  81:Source\LwIP\src\core\ipv4/igmp.c ****  *----------------------------------------------------------------------------*/
  82:Source\LwIP\src\core\ipv4/igmp.c **** 
  83:Source\LwIP\src\core\ipv4/igmp.c **** #include "lwip/opt.h"
  84:Source\LwIP\src\core\ipv4/igmp.c **** 
  85:Source\LwIP\src\core\ipv4/igmp.c **** #if LWIP_IPV4 && LWIP_IGMP /* don't build if not configured for use in lwipopts.h */
  86:Source\LwIP\src\core\ipv4/igmp.c **** 
  87:Source\LwIP\src\core\ipv4/igmp.c **** #include "lwip/igmp.h"
  88:Source\LwIP\src\core\ipv4/igmp.c **** #include "lwip/debug.h"
ARM GAS  C:\Users\Phuong\AppData\Local\Temp\ccKPluhm.s 			page 3


  89:Source\LwIP\src\core\ipv4/igmp.c **** #include "lwip/def.h"
  90:Source\LwIP\src\core\ipv4/igmp.c **** #include "lwip/mem.h"
  91:Source\LwIP\src\core\ipv4/igmp.c **** #include "lwip/ip.h"
  92:Source\LwIP\src\core\ipv4/igmp.c **** #include "lwip/inet_chksum.h"
  93:Source\LwIP\src\core\ipv4/igmp.c **** #include "lwip/netif.h"
  94:Source\LwIP\src\core\ipv4/igmp.c **** #include "lwip/stats.h"
  95:Source\LwIP\src\core\ipv4/igmp.c **** #include "lwip/prot/igmp.h"
  96:Source\LwIP\src\core\ipv4/igmp.c **** 
  97:Source\LwIP\src\core\ipv4/igmp.c **** #include "string.h"
  98:Source\LwIP\src\core\ipv4/igmp.c **** 
  99:Source\LwIP\src\core\ipv4/igmp.c **** static struct igmp_group *igmp_lookup_group(struct netif *ifp, const ip4_addr_t *addr);
 100:Source\LwIP\src\core\ipv4/igmp.c **** static err_t  igmp_remove_group(struct netif* netif, struct igmp_group *group);
 101:Source\LwIP\src\core\ipv4/igmp.c **** static void   igmp_timeout(struct netif *netif, struct igmp_group *group);
 102:Source\LwIP\src\core\ipv4/igmp.c **** static void   igmp_start_timer(struct igmp_group *group, u8_t max_time);
 103:Source\LwIP\src\core\ipv4/igmp.c **** static void   igmp_delaying_member(struct igmp_group *group, u8_t maxresp);
 104:Source\LwIP\src\core\ipv4/igmp.c **** static err_t  igmp_ip_output_if(struct pbuf *p, const ip4_addr_t *src, const ip4_addr_t *dest, stru
 105:Source\LwIP\src\core\ipv4/igmp.c **** static void   igmp_send(struct netif *netif, struct igmp_group *group, u8_t type);
 106:Source\LwIP\src\core\ipv4/igmp.c **** 
 107:Source\LwIP\src\core\ipv4/igmp.c **** static ip4_addr_t     allsystems;
 108:Source\LwIP\src\core\ipv4/igmp.c **** static ip4_addr_t     allrouters;
 109:Source\LwIP\src\core\ipv4/igmp.c **** 
 110:Source\LwIP\src\core\ipv4/igmp.c **** /**
 111:Source\LwIP\src\core\ipv4/igmp.c ****  * Initialize the IGMP module
 112:Source\LwIP\src\core\ipv4/igmp.c ****  */
 113:Source\LwIP\src\core\ipv4/igmp.c **** void
 114:Source\LwIP\src\core\ipv4/igmp.c **** igmp_init(void)
 115:Source\LwIP\src\core\ipv4/igmp.c **** {
 116:Source\LwIP\src\core\ipv4/igmp.c ****   LWIP_DEBUGF(IGMP_DEBUG, ("igmp_init: initializing\n"));
 117:Source\LwIP\src\core\ipv4/igmp.c **** 
 118:Source\LwIP\src\core\ipv4/igmp.c ****   IP4_ADDR(&allsystems, 224, 0, 0, 1);
 119:Source\LwIP\src\core\ipv4/igmp.c ****   IP4_ADDR(&allrouters, 224, 0, 0, 2);
 120:Source\LwIP\src\core\ipv4/igmp.c **** }
 121:Source\LwIP\src\core\ipv4/igmp.c **** 
 122:Source\LwIP\src\core\ipv4/igmp.c **** /**
 123:Source\LwIP\src\core\ipv4/igmp.c ****  * Start IGMP processing on interface
 124:Source\LwIP\src\core\ipv4/igmp.c ****  *
 125:Source\LwIP\src\core\ipv4/igmp.c ****  * @param netif network interface on which start IGMP processing
 126:Source\LwIP\src\core\ipv4/igmp.c ****  */
 127:Source\LwIP\src\core\ipv4/igmp.c **** err_t
 128:Source\LwIP\src\core\ipv4/igmp.c **** igmp_start(struct netif *netif)
 129:Source\LwIP\src\core\ipv4/igmp.c **** {
 130:Source\LwIP\src\core\ipv4/igmp.c ****   struct igmp_group* group;
 131:Source\LwIP\src\core\ipv4/igmp.c **** 
 132:Source\LwIP\src\core\ipv4/igmp.c ****   LWIP_DEBUGF(IGMP_DEBUG, ("igmp_start: starting IGMP processing on if %p\n", (void*)netif));
 133:Source\LwIP\src\core\ipv4/igmp.c **** 
 134:Source\LwIP\src\core\ipv4/igmp.c ****   group = igmp_lookup_group(netif, &allsystems);
 135:Source\LwIP\src\core\ipv4/igmp.c **** 
 136:Source\LwIP\src\core\ipv4/igmp.c ****   if (group != NULL) {
 137:Source\LwIP\src\core\ipv4/igmp.c ****     group->group_state = IGMP_GROUP_IDLE_MEMBER;
 138:Source\LwIP\src\core\ipv4/igmp.c ****     group->use++;
 139:Source\LwIP\src\core\ipv4/igmp.c **** 
 140:Source\LwIP\src\core\ipv4/igmp.c ****     /* Allow the igmp messages at the MAC level */
 141:Source\LwIP\src\core\ipv4/igmp.c ****     if (netif->igmp_mac_filter != NULL) {
 142:Source\LwIP\src\core\ipv4/igmp.c ****       LWIP_DEBUGF(IGMP_DEBUG, ("igmp_start: igmp_mac_filter(ADD "));
 143:Source\LwIP\src\core\ipv4/igmp.c ****       ip4_addr_debug_print_val(IGMP_DEBUG, allsystems);
 144:Source\LwIP\src\core\ipv4/igmp.c ****       LWIP_DEBUGF(IGMP_DEBUG, (") on if %p\n", (void*)netif));
 145:Source\LwIP\src\core\ipv4/igmp.c ****       netif->igmp_mac_filter(netif, &allsystems, NETIF_ADD_MAC_FILTER);
ARM GAS  C:\Users\Phuong\AppData\Local\Temp\ccKPluhm.s 			page 4


 146:Source\LwIP\src\core\ipv4/igmp.c ****     }
 147:Source\LwIP\src\core\ipv4/igmp.c **** 
 148:Source\LwIP\src\core\ipv4/igmp.c ****     return ERR_OK;
 149:Source\LwIP\src\core\ipv4/igmp.c ****   }
 150:Source\LwIP\src\core\ipv4/igmp.c **** 
 151:Source\LwIP\src\core\ipv4/igmp.c ****   return ERR_MEM;
 152:Source\LwIP\src\core\ipv4/igmp.c **** }
 153:Source\LwIP\src\core\ipv4/igmp.c **** 
 154:Source\LwIP\src\core\ipv4/igmp.c **** /**
 155:Source\LwIP\src\core\ipv4/igmp.c ****  * Stop IGMP processing on interface
 156:Source\LwIP\src\core\ipv4/igmp.c ****  *
 157:Source\LwIP\src\core\ipv4/igmp.c ****  * @param netif network interface on which stop IGMP processing
 158:Source\LwIP\src\core\ipv4/igmp.c ****  */
 159:Source\LwIP\src\core\ipv4/igmp.c **** err_t
 160:Source\LwIP\src\core\ipv4/igmp.c **** igmp_stop(struct netif *netif)
 161:Source\LwIP\src\core\ipv4/igmp.c **** {
 162:Source\LwIP\src\core\ipv4/igmp.c ****   struct igmp_group *group = netif_igmp_data(netif);
 163:Source\LwIP\src\core\ipv4/igmp.c **** 
 164:Source\LwIP\src\core\ipv4/igmp.c ****   netif_set_client_data(netif, LWIP_NETIF_CLIENT_DATA_INDEX_IGMP, NULL);
 165:Source\LwIP\src\core\ipv4/igmp.c **** 
 166:Source\LwIP\src\core\ipv4/igmp.c ****   while (group != NULL) {
 167:Source\LwIP\src\core\ipv4/igmp.c ****     struct igmp_group *next = group->next; /* avoid use-after-free below */
 168:Source\LwIP\src\core\ipv4/igmp.c **** 
 169:Source\LwIP\src\core\ipv4/igmp.c ****     /* disable the group at the MAC level */
 170:Source\LwIP\src\core\ipv4/igmp.c ****     if (netif->igmp_mac_filter != NULL) {
 171:Source\LwIP\src\core\ipv4/igmp.c ****       LWIP_DEBUGF(IGMP_DEBUG, ("igmp_stop: igmp_mac_filter(DEL "));
 172:Source\LwIP\src\core\ipv4/igmp.c ****       ip4_addr_debug_print(IGMP_DEBUG, &group->group_address);
 173:Source\LwIP\src\core\ipv4/igmp.c ****       LWIP_DEBUGF(IGMP_DEBUG, (") on if %p\n", (void*)netif));
 174:Source\LwIP\src\core\ipv4/igmp.c ****       netif->igmp_mac_filter(netif, &(group->group_address), NETIF_DEL_MAC_FILTER);
 175:Source\LwIP\src\core\ipv4/igmp.c ****     }
 176:Source\LwIP\src\core\ipv4/igmp.c **** 
 177:Source\LwIP\src\core\ipv4/igmp.c ****     /* free group */
 178:Source\LwIP\src\core\ipv4/igmp.c ****     memp_free(MEMP_IGMP_GROUP, group);
 179:Source\LwIP\src\core\ipv4/igmp.c **** 
 180:Source\LwIP\src\core\ipv4/igmp.c ****     /* move to "next" */
 181:Source\LwIP\src\core\ipv4/igmp.c ****     group = next;
 182:Source\LwIP\src\core\ipv4/igmp.c ****   }
 183:Source\LwIP\src\core\ipv4/igmp.c ****   return ERR_OK;
 184:Source\LwIP\src\core\ipv4/igmp.c **** }
 185:Source\LwIP\src\core\ipv4/igmp.c **** 
 186:Source\LwIP\src\core\ipv4/igmp.c **** /**
 187:Source\LwIP\src\core\ipv4/igmp.c ****  * Report IGMP memberships for this interface
 188:Source\LwIP\src\core\ipv4/igmp.c ****  *
 189:Source\LwIP\src\core\ipv4/igmp.c ****  * @param netif network interface on which report IGMP memberships
 190:Source\LwIP\src\core\ipv4/igmp.c ****  */
 191:Source\LwIP\src\core\ipv4/igmp.c **** void
 192:Source\LwIP\src\core\ipv4/igmp.c **** igmp_report_groups(struct netif *netif)
 193:Source\LwIP\src\core\ipv4/igmp.c **** {
 194:Source\LwIP\src\core\ipv4/igmp.c ****   struct igmp_group *group = netif_igmp_data(netif);
 195:Source\LwIP\src\core\ipv4/igmp.c **** 
 196:Source\LwIP\src\core\ipv4/igmp.c ****   LWIP_DEBUGF(IGMP_DEBUG, ("igmp_report_groups: sending IGMP reports on if %p\n", (void*)netif));
 197:Source\LwIP\src\core\ipv4/igmp.c **** 
 198:Source\LwIP\src\core\ipv4/igmp.c ****   /* Skip the first group in the list, it is always the allsystems group added in igmp_start() */
 199:Source\LwIP\src\core\ipv4/igmp.c ****   if(group != NULL) {
 200:Source\LwIP\src\core\ipv4/igmp.c ****     group = group->next;
 201:Source\LwIP\src\core\ipv4/igmp.c ****   }
 202:Source\LwIP\src\core\ipv4/igmp.c ****   
ARM GAS  C:\Users\Phuong\AppData\Local\Temp\ccKPluhm.s 			page 5


 203:Source\LwIP\src\core\ipv4/igmp.c ****   while (group != NULL) {
 204:Source\LwIP\src\core\ipv4/igmp.c ****     igmp_delaying_member(group, IGMP_JOIN_DELAYING_MEMBER_TMR);
 205:Source\LwIP\src\core\ipv4/igmp.c ****     group = group->next;
 206:Source\LwIP\src\core\ipv4/igmp.c ****   }
 207:Source\LwIP\src\core\ipv4/igmp.c **** }
 208:Source\LwIP\src\core\ipv4/igmp.c **** 
 209:Source\LwIP\src\core\ipv4/igmp.c **** /**
 210:Source\LwIP\src\core\ipv4/igmp.c ****  * Search for a group in the global igmp_group_list
 211:Source\LwIP\src\core\ipv4/igmp.c ****  *
 212:Source\LwIP\src\core\ipv4/igmp.c ****  * @param ifp the network interface for which to look
 213:Source\LwIP\src\core\ipv4/igmp.c ****  * @param addr the group ip address to search for
 214:Source\LwIP\src\core\ipv4/igmp.c ****  * @return a struct igmp_group* if the group has been found,
 215:Source\LwIP\src\core\ipv4/igmp.c ****  *         NULL if the group wasn't found.
 216:Source\LwIP\src\core\ipv4/igmp.c ****  */
 217:Source\LwIP\src\core\ipv4/igmp.c **** struct igmp_group *
 218:Source\LwIP\src\core\ipv4/igmp.c **** igmp_lookfor_group(struct netif *ifp, const ip4_addr_t *addr)
 219:Source\LwIP\src\core\ipv4/igmp.c **** {
 220:Source\LwIP\src\core\ipv4/igmp.c ****   struct igmp_group *group = netif_igmp_data(ifp);
 221:Source\LwIP\src\core\ipv4/igmp.c **** 
 222:Source\LwIP\src\core\ipv4/igmp.c ****   while (group != NULL) {
 223:Source\LwIP\src\core\ipv4/igmp.c ****     if (ip4_addr_cmp(&(group->group_address), addr)) {
 224:Source\LwIP\src\core\ipv4/igmp.c ****       return group;
 225:Source\LwIP\src\core\ipv4/igmp.c ****     }
 226:Source\LwIP\src\core\ipv4/igmp.c ****     group = group->next;
 227:Source\LwIP\src\core\ipv4/igmp.c ****   }
 228:Source\LwIP\src\core\ipv4/igmp.c **** 
 229:Source\LwIP\src\core\ipv4/igmp.c ****   /* to be clearer, we return NULL here instead of
 230:Source\LwIP\src\core\ipv4/igmp.c ****    * 'group' (which is also NULL at this point).
 231:Source\LwIP\src\core\ipv4/igmp.c ****    */
 232:Source\LwIP\src\core\ipv4/igmp.c ****   return NULL;
 233:Source\LwIP\src\core\ipv4/igmp.c **** }
 234:Source\LwIP\src\core\ipv4/igmp.c **** 
 235:Source\LwIP\src\core\ipv4/igmp.c **** /**
 236:Source\LwIP\src\core\ipv4/igmp.c ****  * Search for a specific igmp group and create a new one if not found-
 237:Source\LwIP\src\core\ipv4/igmp.c ****  *
 238:Source\LwIP\src\core\ipv4/igmp.c ****  * @param ifp the network interface for which to look
 239:Source\LwIP\src\core\ipv4/igmp.c ****  * @param addr the group ip address to search
 240:Source\LwIP\src\core\ipv4/igmp.c ****  * @return a struct igmp_group*,
 241:Source\LwIP\src\core\ipv4/igmp.c ****  *         NULL on memory error.
 242:Source\LwIP\src\core\ipv4/igmp.c ****  */
 243:Source\LwIP\src\core\ipv4/igmp.c **** static struct igmp_group *
 244:Source\LwIP\src\core\ipv4/igmp.c **** igmp_lookup_group(struct netif *ifp, const ip4_addr_t *addr)
 245:Source\LwIP\src\core\ipv4/igmp.c **** {
 246:Source\LwIP\src\core\ipv4/igmp.c ****   struct igmp_group *group;
 247:Source\LwIP\src\core\ipv4/igmp.c ****   struct igmp_group *list_head = netif_igmp_data(ifp);
 248:Source\LwIP\src\core\ipv4/igmp.c **** 
 249:Source\LwIP\src\core\ipv4/igmp.c ****   /* Search if the group already exists */
 250:Source\LwIP\src\core\ipv4/igmp.c ****   group = igmp_lookfor_group(ifp, addr);
 251:Source\LwIP\src\core\ipv4/igmp.c ****   if (group != NULL) {
 252:Source\LwIP\src\core\ipv4/igmp.c ****     /* Group already exists. */
 253:Source\LwIP\src\core\ipv4/igmp.c ****     return group;
 254:Source\LwIP\src\core\ipv4/igmp.c ****   }
 255:Source\LwIP\src\core\ipv4/igmp.c ****   
 256:Source\LwIP\src\core\ipv4/igmp.c ****   /* Group doesn't exist yet, create a new one */
 257:Source\LwIP\src\core\ipv4/igmp.c ****   group = (struct igmp_group *)memp_malloc(MEMP_IGMP_GROUP);
 258:Source\LwIP\src\core\ipv4/igmp.c ****   if (group != NULL) {
 259:Source\LwIP\src\core\ipv4/igmp.c ****     ip4_addr_set(&(group->group_address), addr);
ARM GAS  C:\Users\Phuong\AppData\Local\Temp\ccKPluhm.s 			page 6


 260:Source\LwIP\src\core\ipv4/igmp.c ****     group->timer              = 0; /* Not running */
 261:Source\LwIP\src\core\ipv4/igmp.c ****     group->group_state        = IGMP_GROUP_NON_MEMBER;
 262:Source\LwIP\src\core\ipv4/igmp.c ****     group->last_reporter_flag = 0;
 263:Source\LwIP\src\core\ipv4/igmp.c ****     group->use                = 0;
 264:Source\LwIP\src\core\ipv4/igmp.c **** 
 265:Source\LwIP\src\core\ipv4/igmp.c ****     /* Ensure allsystems group is always first in list */    
 266:Source\LwIP\src\core\ipv4/igmp.c ****     if (list_head == NULL) {
 267:Source\LwIP\src\core\ipv4/igmp.c ****       /* this is the first entry in linked list */
 268:Source\LwIP\src\core\ipv4/igmp.c ****       LWIP_ASSERT("igmp_lookup_group: first group must be allsystems",
 269:Source\LwIP\src\core\ipv4/igmp.c ****         (ip4_addr_cmp(addr, &allsystems) != 0));
 270:Source\LwIP\src\core\ipv4/igmp.c ****       group->next = NULL;
 271:Source\LwIP\src\core\ipv4/igmp.c ****       netif_set_client_data(ifp, LWIP_NETIF_CLIENT_DATA_INDEX_IGMP, group);
 272:Source\LwIP\src\core\ipv4/igmp.c ****     } else {
 273:Source\LwIP\src\core\ipv4/igmp.c ****       /* append _after_ first entry */
 274:Source\LwIP\src\core\ipv4/igmp.c ****       LWIP_ASSERT("igmp_lookup_group: all except first group must not be allsystems",
 275:Source\LwIP\src\core\ipv4/igmp.c ****         (ip4_addr_cmp(addr, &allsystems) == 0));
 276:Source\LwIP\src\core\ipv4/igmp.c ****       group->next = list_head->next;
 277:Source\LwIP\src\core\ipv4/igmp.c ****       list_head->next = group;
 278:Source\LwIP\src\core\ipv4/igmp.c ****     }
 279:Source\LwIP\src\core\ipv4/igmp.c ****   }
 280:Source\LwIP\src\core\ipv4/igmp.c **** 
 281:Source\LwIP\src\core\ipv4/igmp.c ****   LWIP_DEBUGF(IGMP_DEBUG, ("igmp_lookup_group: %sallocated a new group with address ", (group?"":"i
 282:Source\LwIP\src\core\ipv4/igmp.c ****   ip4_addr_debug_print(IGMP_DEBUG, addr);
 283:Source\LwIP\src\core\ipv4/igmp.c ****   LWIP_DEBUGF(IGMP_DEBUG, (" on if %p\n", (void*)ifp));
 284:Source\LwIP\src\core\ipv4/igmp.c **** 
 285:Source\LwIP\src\core\ipv4/igmp.c ****   return group;
 286:Source\LwIP\src\core\ipv4/igmp.c **** }
 287:Source\LwIP\src\core\ipv4/igmp.c **** 
 288:Source\LwIP\src\core\ipv4/igmp.c **** /**
 289:Source\LwIP\src\core\ipv4/igmp.c ****  * Remove a group in the global igmp_group_list, but don't free it yet
 290:Source\LwIP\src\core\ipv4/igmp.c ****  *
 291:Source\LwIP\src\core\ipv4/igmp.c ****  * @param group the group to remove from the global igmp_group_list
 292:Source\LwIP\src\core\ipv4/igmp.c ****  * @return ERR_OK if group was removed from the list, an err_t otherwise
 293:Source\LwIP\src\core\ipv4/igmp.c ****  */
 294:Source\LwIP\src\core\ipv4/igmp.c **** static err_t
 295:Source\LwIP\src\core\ipv4/igmp.c **** igmp_remove_group(struct netif* netif, struct igmp_group *group)
 296:Source\LwIP\src\core\ipv4/igmp.c **** {
  27              		.loc 1 296 0
  28              		.cfi_startproc
  29              		@ args = 0, pretend = 0, frame = 0
  30              		@ frame_needed = 0, uses_anonymous_args = 0
  31              		@ link register save eliminated.
  32              	.LVL0:
 297:Source\LwIP\src\core\ipv4/igmp.c ****   err_t err = ERR_OK;
 298:Source\LwIP\src\core\ipv4/igmp.c ****   struct igmp_group *tmp_group;
 299:Source\LwIP\src\core\ipv4/igmp.c **** 
 300:Source\LwIP\src\core\ipv4/igmp.c ****   /* Skip the first group in the list, it is always the allsystems group added in igmp_start() */
 301:Source\LwIP\src\core\ipv4/igmp.c ****   for (tmp_group = netif_igmp_data(netif); tmp_group != NULL; tmp_group = tmp_group->next) {
  33              		.loc 1 301 0
  34 0000 836A     		ldr	r3, [r0, #40]
  35              	.LVL1:
  36 0002 06E0     		b	.L2
  37              	.L4:
 302:Source\LwIP\src\core\ipv4/igmp.c ****     if (tmp_group->next == group) {
  38              		.loc 1 302 0
  39 0004 1A68     		ldr	r2, [r3]
  40 0006 8A42     		cmp	r2, r1
ARM GAS  C:\Users\Phuong\AppData\Local\Temp\ccKPluhm.s 			page 7


  41 0008 02D1     		bne	.L6
 303:Source\LwIP\src\core\ipv4/igmp.c ****       tmp_group->next = group->next;
  42              		.loc 1 303 0
  43 000a 0A68     		ldr	r2, [r1]
  44 000c 1A60     		str	r2, [r3]
 304:Source\LwIP\src\core\ipv4/igmp.c ****       break;
  45              		.loc 1 304 0
  46 000e 02E0     		b	.L3
  47              	.L6:
 301:Source\LwIP\src\core\ipv4/igmp.c ****     if (tmp_group->next == group) {
  48              		.loc 1 301 0
  49 0010 1300     		movs	r3, r2
  50              	.LVL2:
  51              	.L2:
 301:Source\LwIP\src\core\ipv4/igmp.c ****     if (tmp_group->next == group) {
  52              		.loc 1 301 0 is_stmt 0 discriminator 1
  53 0012 002B     		cmp	r3, #0
  54 0014 F6D1     		bne	.L4
  55              	.L3:
 305:Source\LwIP\src\core\ipv4/igmp.c ****     }
 306:Source\LwIP\src\core\ipv4/igmp.c ****   }
 307:Source\LwIP\src\core\ipv4/igmp.c ****   /* Group not found in the global igmp_group_list */
 308:Source\LwIP\src\core\ipv4/igmp.c ****   if (tmp_group == NULL) {
  56              		.loc 1 308 0 is_stmt 1
  57 0016 002B     		cmp	r3, #0
  58 0018 01D0     		beq	.L7
 297:Source\LwIP\src\core\ipv4/igmp.c ****   struct igmp_group *tmp_group;
  59              		.loc 1 297 0
  60 001a 0020     		movs	r0, #0
  61              	.LVL3:
  62 001c 01E0     		b	.L5
  63              	.LVL4:
  64              	.L7:
 309:Source\LwIP\src\core\ipv4/igmp.c ****     err = ERR_ARG;
  65              		.loc 1 309 0
  66 001e 1020     		movs	r0, #16
  67              	.LVL5:
  68 0020 4042     		rsbs	r0, r0, #0
  69              	.L5:
  70              	.LVL6:
 310:Source\LwIP\src\core\ipv4/igmp.c ****   }
 311:Source\LwIP\src\core\ipv4/igmp.c **** 
 312:Source\LwIP\src\core\ipv4/igmp.c ****   return err;
 313:Source\LwIP\src\core\ipv4/igmp.c **** }
  71              		.loc 1 313 0
  72              		@ sp needed
  73 0022 7047     		bx	lr
  74              		.cfi_endproc
  75              	.LFE59:
  76              		.size	igmp_remove_group, .-igmp_remove_group
  77              		.global	__aeabi_uidivmod
  78              		.section	.text.igmp_start_timer,"ax",%progbits
  79              		.align	2
  80              		.code	16
  81              		.thumb_func
  82              		.type	igmp_start_timer, %function
  83              	igmp_start_timer:
ARM GAS  C:\Users\Phuong\AppData\Local\Temp\ccKPluhm.s 			page 8


  84              	.LFB67:
 314:Source\LwIP\src\core\ipv4/igmp.c **** 
 315:Source\LwIP\src\core\ipv4/igmp.c **** /**
 316:Source\LwIP\src\core\ipv4/igmp.c ****  * Called from ip_input() if a new IGMP packet is received.
 317:Source\LwIP\src\core\ipv4/igmp.c ****  *
 318:Source\LwIP\src\core\ipv4/igmp.c ****  * @param p received igmp packet, p->payload pointing to the igmp header
 319:Source\LwIP\src\core\ipv4/igmp.c ****  * @param inp network interface on which the packet was received
 320:Source\LwIP\src\core\ipv4/igmp.c ****  * @param dest destination ip address of the igmp packet
 321:Source\LwIP\src\core\ipv4/igmp.c ****  */
 322:Source\LwIP\src\core\ipv4/igmp.c **** void
 323:Source\LwIP\src\core\ipv4/igmp.c **** igmp_input(struct pbuf *p, struct netif *inp, const ip4_addr_t *dest)
 324:Source\LwIP\src\core\ipv4/igmp.c **** {
 325:Source\LwIP\src\core\ipv4/igmp.c ****   struct igmp_msg*   igmp;
 326:Source\LwIP\src\core\ipv4/igmp.c ****   struct igmp_group* group;
 327:Source\LwIP\src\core\ipv4/igmp.c ****   struct igmp_group* groupref;
 328:Source\LwIP\src\core\ipv4/igmp.c **** 
 329:Source\LwIP\src\core\ipv4/igmp.c ****   IGMP_STATS_INC(igmp.recv);
 330:Source\LwIP\src\core\ipv4/igmp.c **** 
 331:Source\LwIP\src\core\ipv4/igmp.c ****   /* Note that the length CAN be greater than 8 but only 8 are used - All are included in the check
 332:Source\LwIP\src\core\ipv4/igmp.c ****   if (p->len < IGMP_MINLEN) {
 333:Source\LwIP\src\core\ipv4/igmp.c ****     pbuf_free(p);
 334:Source\LwIP\src\core\ipv4/igmp.c ****     IGMP_STATS_INC(igmp.lenerr);
 335:Source\LwIP\src\core\ipv4/igmp.c ****     LWIP_DEBUGF(IGMP_DEBUG, ("igmp_input: length error\n"));
 336:Source\LwIP\src\core\ipv4/igmp.c ****     return;
 337:Source\LwIP\src\core\ipv4/igmp.c ****   }
 338:Source\LwIP\src\core\ipv4/igmp.c **** 
 339:Source\LwIP\src\core\ipv4/igmp.c ****   LWIP_DEBUGF(IGMP_DEBUG, ("igmp_input: message from "));
 340:Source\LwIP\src\core\ipv4/igmp.c ****   ip4_addr_debug_print(IGMP_DEBUG, &(ip4_current_header()->src));
 341:Source\LwIP\src\core\ipv4/igmp.c ****   LWIP_DEBUGF(IGMP_DEBUG, (" to address "));
 342:Source\LwIP\src\core\ipv4/igmp.c ****   ip4_addr_debug_print(IGMP_DEBUG, &(ip4_current_header()->dest));
 343:Source\LwIP\src\core\ipv4/igmp.c ****   LWIP_DEBUGF(IGMP_DEBUG, (" on if %p\n", (void*)inp));
 344:Source\LwIP\src\core\ipv4/igmp.c **** 
 345:Source\LwIP\src\core\ipv4/igmp.c ****   /* Now calculate and check the checksum */
 346:Source\LwIP\src\core\ipv4/igmp.c ****   igmp = (struct igmp_msg *)p->payload;
 347:Source\LwIP\src\core\ipv4/igmp.c ****   if (inet_chksum(igmp, p->len)) {
 348:Source\LwIP\src\core\ipv4/igmp.c ****     pbuf_free(p);
 349:Source\LwIP\src\core\ipv4/igmp.c ****     IGMP_STATS_INC(igmp.chkerr);
 350:Source\LwIP\src\core\ipv4/igmp.c ****     LWIP_DEBUGF(IGMP_DEBUG, ("igmp_input: checksum error\n"));
 351:Source\LwIP\src\core\ipv4/igmp.c ****     return;
 352:Source\LwIP\src\core\ipv4/igmp.c ****   }
 353:Source\LwIP\src\core\ipv4/igmp.c **** 
 354:Source\LwIP\src\core\ipv4/igmp.c ****   /* Packet is ok so find an existing group */
 355:Source\LwIP\src\core\ipv4/igmp.c ****   group = igmp_lookfor_group(inp, dest); /* use the destination IP address of incoming packet */
 356:Source\LwIP\src\core\ipv4/igmp.c **** 
 357:Source\LwIP\src\core\ipv4/igmp.c ****   /* If group can be found or create... */
 358:Source\LwIP\src\core\ipv4/igmp.c ****   if (!group) {
 359:Source\LwIP\src\core\ipv4/igmp.c ****     pbuf_free(p);
 360:Source\LwIP\src\core\ipv4/igmp.c ****     IGMP_STATS_INC(igmp.drop);
 361:Source\LwIP\src\core\ipv4/igmp.c ****     LWIP_DEBUGF(IGMP_DEBUG, ("igmp_input: IGMP frame not for us\n"));
 362:Source\LwIP\src\core\ipv4/igmp.c ****     return;
 363:Source\LwIP\src\core\ipv4/igmp.c ****   }
 364:Source\LwIP\src\core\ipv4/igmp.c **** 
 365:Source\LwIP\src\core\ipv4/igmp.c ****   /* NOW ACT ON THE INCOMING MESSAGE TYPE... */
 366:Source\LwIP\src\core\ipv4/igmp.c ****   switch (igmp->igmp_msgtype) {
 367:Source\LwIP\src\core\ipv4/igmp.c ****   case IGMP_MEMB_QUERY:
 368:Source\LwIP\src\core\ipv4/igmp.c ****     /* IGMP_MEMB_QUERY to the "all systems" address ? */
 369:Source\LwIP\src\core\ipv4/igmp.c ****     if ((ip4_addr_cmp(dest, &allsystems)) && ip4_addr_isany(&igmp->igmp_group_address)) {
ARM GAS  C:\Users\Phuong\AppData\Local\Temp\ccKPluhm.s 			page 9


 370:Source\LwIP\src\core\ipv4/igmp.c ****       /* THIS IS THE GENERAL QUERY */
 371:Source\LwIP\src\core\ipv4/igmp.c ****       LWIP_DEBUGF(IGMP_DEBUG, ("igmp_input: General IGMP_MEMB_QUERY on \"ALL SYSTEMS\" address (224
 372:Source\LwIP\src\core\ipv4/igmp.c **** 
 373:Source\LwIP\src\core\ipv4/igmp.c ****       if (igmp->igmp_maxresp == 0) {
 374:Source\LwIP\src\core\ipv4/igmp.c ****         IGMP_STATS_INC(igmp.rx_v1);
 375:Source\LwIP\src\core\ipv4/igmp.c ****         LWIP_DEBUGF(IGMP_DEBUG, ("igmp_input: got an all hosts query with time== 0 - this is V1 and
 376:Source\LwIP\src\core\ipv4/igmp.c ****         igmp->igmp_maxresp = IGMP_V1_DELAYING_MEMBER_TMR;
 377:Source\LwIP\src\core\ipv4/igmp.c ****       } else {
 378:Source\LwIP\src\core\ipv4/igmp.c ****         IGMP_STATS_INC(igmp.rx_general);
 379:Source\LwIP\src\core\ipv4/igmp.c ****       }
 380:Source\LwIP\src\core\ipv4/igmp.c **** 
 381:Source\LwIP\src\core\ipv4/igmp.c ****       groupref = netif_igmp_data(inp);
 382:Source\LwIP\src\core\ipv4/igmp.c ****       
 383:Source\LwIP\src\core\ipv4/igmp.c ****       /* Do not send messages on the all systems group address! */
 384:Source\LwIP\src\core\ipv4/igmp.c ****       /* Skip the first group in the list, it is always the allsystems group added in igmp_start() 
 385:Source\LwIP\src\core\ipv4/igmp.c ****       if(groupref != NULL) {
 386:Source\LwIP\src\core\ipv4/igmp.c ****         groupref = groupref->next;
 387:Source\LwIP\src\core\ipv4/igmp.c ****       }
 388:Source\LwIP\src\core\ipv4/igmp.c **** 
 389:Source\LwIP\src\core\ipv4/igmp.c ****       while (groupref) {
 390:Source\LwIP\src\core\ipv4/igmp.c ****         igmp_delaying_member(groupref, igmp->igmp_maxresp);
 391:Source\LwIP\src\core\ipv4/igmp.c ****         groupref = groupref->next;
 392:Source\LwIP\src\core\ipv4/igmp.c ****       }
 393:Source\LwIP\src\core\ipv4/igmp.c ****     } else {
 394:Source\LwIP\src\core\ipv4/igmp.c ****       /* IGMP_MEMB_QUERY to a specific group ? */
 395:Source\LwIP\src\core\ipv4/igmp.c ****       if (!ip4_addr_isany(&igmp->igmp_group_address)) {
 396:Source\LwIP\src\core\ipv4/igmp.c ****         LWIP_DEBUGF(IGMP_DEBUG, ("igmp_input: IGMP_MEMB_QUERY to a specific group "));
 397:Source\LwIP\src\core\ipv4/igmp.c ****         ip4_addr_debug_print(IGMP_DEBUG, &igmp->igmp_group_address);
 398:Source\LwIP\src\core\ipv4/igmp.c ****         if (ip4_addr_cmp(dest, &allsystems)) {
 399:Source\LwIP\src\core\ipv4/igmp.c ****           ip4_addr_t groupaddr;
 400:Source\LwIP\src\core\ipv4/igmp.c ****           LWIP_DEBUGF(IGMP_DEBUG, (" using \"ALL SYSTEMS\" address (224.0.0.1) [igmp_maxresp=%i]\n"
 401:Source\LwIP\src\core\ipv4/igmp.c ****           /* we first need to re-look for the group since we used dest last time */
 402:Source\LwIP\src\core\ipv4/igmp.c ****           ip4_addr_copy(groupaddr, igmp->igmp_group_address);
 403:Source\LwIP\src\core\ipv4/igmp.c ****           group = igmp_lookfor_group(inp, &groupaddr);
 404:Source\LwIP\src\core\ipv4/igmp.c ****         } else {
 405:Source\LwIP\src\core\ipv4/igmp.c ****           LWIP_DEBUGF(IGMP_DEBUG, (" with the group address as destination [igmp_maxresp=%i]\n", (i
 406:Source\LwIP\src\core\ipv4/igmp.c ****         }
 407:Source\LwIP\src\core\ipv4/igmp.c **** 
 408:Source\LwIP\src\core\ipv4/igmp.c ****         if (group != NULL) {
 409:Source\LwIP\src\core\ipv4/igmp.c ****           IGMP_STATS_INC(igmp.rx_group);
 410:Source\LwIP\src\core\ipv4/igmp.c ****           igmp_delaying_member(group, igmp->igmp_maxresp);
 411:Source\LwIP\src\core\ipv4/igmp.c ****         } else {
 412:Source\LwIP\src\core\ipv4/igmp.c ****           IGMP_STATS_INC(igmp.drop);
 413:Source\LwIP\src\core\ipv4/igmp.c ****         }
 414:Source\LwIP\src\core\ipv4/igmp.c ****       } else {
 415:Source\LwIP\src\core\ipv4/igmp.c ****         IGMP_STATS_INC(igmp.proterr);
 416:Source\LwIP\src\core\ipv4/igmp.c ****       }
 417:Source\LwIP\src\core\ipv4/igmp.c ****     }
 418:Source\LwIP\src\core\ipv4/igmp.c ****     break;
 419:Source\LwIP\src\core\ipv4/igmp.c ****   case IGMP_V2_MEMB_REPORT:
 420:Source\LwIP\src\core\ipv4/igmp.c ****     LWIP_DEBUGF(IGMP_DEBUG, ("igmp_input: IGMP_V2_MEMB_REPORT\n"));
 421:Source\LwIP\src\core\ipv4/igmp.c ****     IGMP_STATS_INC(igmp.rx_report);
 422:Source\LwIP\src\core\ipv4/igmp.c ****     if (group->group_state == IGMP_GROUP_DELAYING_MEMBER) {
 423:Source\LwIP\src\core\ipv4/igmp.c ****       /* This is on a specific group we have already looked up */
 424:Source\LwIP\src\core\ipv4/igmp.c ****       group->timer = 0; /* stopped */
 425:Source\LwIP\src\core\ipv4/igmp.c ****       group->group_state = IGMP_GROUP_IDLE_MEMBER;
 426:Source\LwIP\src\core\ipv4/igmp.c ****       group->last_reporter_flag = 0;
ARM GAS  C:\Users\Phuong\AppData\Local\Temp\ccKPluhm.s 			page 10


 427:Source\LwIP\src\core\ipv4/igmp.c ****     }
 428:Source\LwIP\src\core\ipv4/igmp.c ****     break;
 429:Source\LwIP\src\core\ipv4/igmp.c ****   default:
 430:Source\LwIP\src\core\ipv4/igmp.c ****     LWIP_DEBUGF(IGMP_DEBUG, ("igmp_input: unexpected msg %d in state %d on group %p on if %p\n",
 431:Source\LwIP\src\core\ipv4/igmp.c ****       igmp->igmp_msgtype, group->group_state, (void*)&group, (void*)inp));
 432:Source\LwIP\src\core\ipv4/igmp.c ****     IGMP_STATS_INC(igmp.proterr);
 433:Source\LwIP\src\core\ipv4/igmp.c ****     break;
 434:Source\LwIP\src\core\ipv4/igmp.c ****   }
 435:Source\LwIP\src\core\ipv4/igmp.c **** 
 436:Source\LwIP\src\core\ipv4/igmp.c ****   pbuf_free(p);
 437:Source\LwIP\src\core\ipv4/igmp.c ****   return;
 438:Source\LwIP\src\core\ipv4/igmp.c **** }
 439:Source\LwIP\src\core\ipv4/igmp.c **** 
 440:Source\LwIP\src\core\ipv4/igmp.c **** /**
 441:Source\LwIP\src\core\ipv4/igmp.c ****  * @ingroup igmp
 442:Source\LwIP\src\core\ipv4/igmp.c ****  * Join a group on one network interface.
 443:Source\LwIP\src\core\ipv4/igmp.c ****  *
 444:Source\LwIP\src\core\ipv4/igmp.c ****  * @param ifaddr ip address of the network interface which should join a new group
 445:Source\LwIP\src\core\ipv4/igmp.c ****  * @param groupaddr the ip address of the group which to join
 446:Source\LwIP\src\core\ipv4/igmp.c ****  * @return ERR_OK if group was joined on the netif(s), an err_t otherwise
 447:Source\LwIP\src\core\ipv4/igmp.c ****  */
 448:Source\LwIP\src\core\ipv4/igmp.c **** err_t
 449:Source\LwIP\src\core\ipv4/igmp.c **** igmp_joingroup(const ip4_addr_t *ifaddr, const ip4_addr_t *groupaddr)
 450:Source\LwIP\src\core\ipv4/igmp.c **** {
 451:Source\LwIP\src\core\ipv4/igmp.c ****   err_t err = ERR_VAL; /* no matching interface */
 452:Source\LwIP\src\core\ipv4/igmp.c ****   struct netif *netif;
 453:Source\LwIP\src\core\ipv4/igmp.c **** 
 454:Source\LwIP\src\core\ipv4/igmp.c ****   /* make sure it is multicast address */
 455:Source\LwIP\src\core\ipv4/igmp.c ****   LWIP_ERROR("igmp_joingroup: attempt to join non-multicast address", ip4_addr_ismulticast(groupadd
 456:Source\LwIP\src\core\ipv4/igmp.c ****   LWIP_ERROR("igmp_joingroup: attempt to join allsystems address", (!ip4_addr_cmp(groupaddr, &allsy
 457:Source\LwIP\src\core\ipv4/igmp.c **** 
 458:Source\LwIP\src\core\ipv4/igmp.c ****   /* loop through netif's */
 459:Source\LwIP\src\core\ipv4/igmp.c ****   netif = netif_list;
 460:Source\LwIP\src\core\ipv4/igmp.c ****   while (netif != NULL) {
 461:Source\LwIP\src\core\ipv4/igmp.c ****     /* Should we join this interface ? */
 462:Source\LwIP\src\core\ipv4/igmp.c ****     if ((netif->flags & NETIF_FLAG_IGMP) && ((ip4_addr_isany(ifaddr) || ip4_addr_cmp(netif_ip4_addr
 463:Source\LwIP\src\core\ipv4/igmp.c ****       err = igmp_joingroup_netif(netif, groupaddr);
 464:Source\LwIP\src\core\ipv4/igmp.c ****       if (err != ERR_OK) {
 465:Source\LwIP\src\core\ipv4/igmp.c ****         /* Return an error even if some network interfaces are joined */
 466:Source\LwIP\src\core\ipv4/igmp.c ****         /** @todo undo any other netif already joined */
 467:Source\LwIP\src\core\ipv4/igmp.c ****         return err;
 468:Source\LwIP\src\core\ipv4/igmp.c ****       }
 469:Source\LwIP\src\core\ipv4/igmp.c ****     }
 470:Source\LwIP\src\core\ipv4/igmp.c ****     /* proceed to next network interface */
 471:Source\LwIP\src\core\ipv4/igmp.c ****     netif = netif->next;
 472:Source\LwIP\src\core\ipv4/igmp.c ****   }
 473:Source\LwIP\src\core\ipv4/igmp.c **** 
 474:Source\LwIP\src\core\ipv4/igmp.c ****   return err;
 475:Source\LwIP\src\core\ipv4/igmp.c **** }
 476:Source\LwIP\src\core\ipv4/igmp.c **** 
 477:Source\LwIP\src\core\ipv4/igmp.c **** /**
 478:Source\LwIP\src\core\ipv4/igmp.c ****  * @ingroup igmp
 479:Source\LwIP\src\core\ipv4/igmp.c ****  * Join a group on one network interface.
 480:Source\LwIP\src\core\ipv4/igmp.c ****  *
 481:Source\LwIP\src\core\ipv4/igmp.c ****  * @param netif the network interface which should join a new group
 482:Source\LwIP\src\core\ipv4/igmp.c ****  * @param groupaddr the ip address of the group which to join
 483:Source\LwIP\src\core\ipv4/igmp.c ****  * @return ERR_OK if group was joined on the netif, an err_t otherwise
ARM GAS  C:\Users\Phuong\AppData\Local\Temp\ccKPluhm.s 			page 11


 484:Source\LwIP\src\core\ipv4/igmp.c ****  */
 485:Source\LwIP\src\core\ipv4/igmp.c **** err_t
 486:Source\LwIP\src\core\ipv4/igmp.c **** igmp_joingroup_netif(struct netif *netif, const ip4_addr_t *groupaddr)
 487:Source\LwIP\src\core\ipv4/igmp.c **** {
 488:Source\LwIP\src\core\ipv4/igmp.c ****   struct igmp_group *group;
 489:Source\LwIP\src\core\ipv4/igmp.c **** 
 490:Source\LwIP\src\core\ipv4/igmp.c ****   /* make sure it is multicast address */
 491:Source\LwIP\src\core\ipv4/igmp.c ****   LWIP_ERROR("igmp_joingroup_netif: attempt to join non-multicast address", ip4_addr_ismulticast(gr
 492:Source\LwIP\src\core\ipv4/igmp.c ****   LWIP_ERROR("igmp_joingroup_netif: attempt to join allsystems address", (!ip4_addr_cmp(groupaddr, 
 493:Source\LwIP\src\core\ipv4/igmp.c **** 
 494:Source\LwIP\src\core\ipv4/igmp.c ****   /* make sure it is an igmp-enabled netif */
 495:Source\LwIP\src\core\ipv4/igmp.c ****   LWIP_ERROR("igmp_joingroup_netif: attempt to join on non-IGMP netif", netif->flags & NETIF_FLAG_I
 496:Source\LwIP\src\core\ipv4/igmp.c **** 
 497:Source\LwIP\src\core\ipv4/igmp.c ****   /* find group or create a new one if not found */
 498:Source\LwIP\src\core\ipv4/igmp.c ****   group = igmp_lookup_group(netif, groupaddr);
 499:Source\LwIP\src\core\ipv4/igmp.c **** 
 500:Source\LwIP\src\core\ipv4/igmp.c ****   if (group != NULL) {
 501:Source\LwIP\src\core\ipv4/igmp.c ****     /* This should create a new group, check the state to make sure */
 502:Source\LwIP\src\core\ipv4/igmp.c ****     if (group->group_state != IGMP_GROUP_NON_MEMBER) {
 503:Source\LwIP\src\core\ipv4/igmp.c ****       LWIP_DEBUGF(IGMP_DEBUG, ("igmp_joingroup_netif: join to group not in state IGMP_GROUP_NON_MEM
 504:Source\LwIP\src\core\ipv4/igmp.c ****     } else {
 505:Source\LwIP\src\core\ipv4/igmp.c ****       /* OK - it was new group */
 506:Source\LwIP\src\core\ipv4/igmp.c ****       LWIP_DEBUGF(IGMP_DEBUG, ("igmp_joingroup_netif: join to new group: "));
 507:Source\LwIP\src\core\ipv4/igmp.c ****       ip4_addr_debug_print(IGMP_DEBUG, groupaddr);
 508:Source\LwIP\src\core\ipv4/igmp.c ****       LWIP_DEBUGF(IGMP_DEBUG, ("\n"));
 509:Source\LwIP\src\core\ipv4/igmp.c **** 
 510:Source\LwIP\src\core\ipv4/igmp.c ****       /* If first use of the group, allow the group at the MAC level */
 511:Source\LwIP\src\core\ipv4/igmp.c ****       if ((group->use==0) && (netif->igmp_mac_filter != NULL)) {
 512:Source\LwIP\src\core\ipv4/igmp.c ****         LWIP_DEBUGF(IGMP_DEBUG, ("igmp_joingroup_netif: igmp_mac_filter(ADD "));
 513:Source\LwIP\src\core\ipv4/igmp.c ****         ip4_addr_debug_print(IGMP_DEBUG, groupaddr);
 514:Source\LwIP\src\core\ipv4/igmp.c ****         LWIP_DEBUGF(IGMP_DEBUG, (") on if %p\n", (void*)netif));
 515:Source\LwIP\src\core\ipv4/igmp.c ****         netif->igmp_mac_filter(netif, groupaddr, NETIF_ADD_MAC_FILTER);
 516:Source\LwIP\src\core\ipv4/igmp.c ****       }
 517:Source\LwIP\src\core\ipv4/igmp.c **** 
 518:Source\LwIP\src\core\ipv4/igmp.c ****       IGMP_STATS_INC(igmp.tx_join);
 519:Source\LwIP\src\core\ipv4/igmp.c ****       igmp_send(netif, group, IGMP_V2_MEMB_REPORT);
 520:Source\LwIP\src\core\ipv4/igmp.c **** 
 521:Source\LwIP\src\core\ipv4/igmp.c ****       igmp_start_timer(group, IGMP_JOIN_DELAYING_MEMBER_TMR);
 522:Source\LwIP\src\core\ipv4/igmp.c **** 
 523:Source\LwIP\src\core\ipv4/igmp.c ****       /* Need to work out where this timer comes from */
 524:Source\LwIP\src\core\ipv4/igmp.c ****       group->group_state = IGMP_GROUP_DELAYING_MEMBER;
 525:Source\LwIP\src\core\ipv4/igmp.c ****     }
 526:Source\LwIP\src\core\ipv4/igmp.c ****     /* Increment group use */
 527:Source\LwIP\src\core\ipv4/igmp.c ****     group->use++;
 528:Source\LwIP\src\core\ipv4/igmp.c ****     /* Join on this interface */
 529:Source\LwIP\src\core\ipv4/igmp.c ****     return ERR_OK;
 530:Source\LwIP\src\core\ipv4/igmp.c ****   } else {
 531:Source\LwIP\src\core\ipv4/igmp.c ****     LWIP_DEBUGF(IGMP_DEBUG, ("igmp_joingroup_netif: Not enough memory to join to group\n"));
 532:Source\LwIP\src\core\ipv4/igmp.c ****     return ERR_MEM;
 533:Source\LwIP\src\core\ipv4/igmp.c ****   }
 534:Source\LwIP\src\core\ipv4/igmp.c **** }
 535:Source\LwIP\src\core\ipv4/igmp.c **** 
 536:Source\LwIP\src\core\ipv4/igmp.c **** /**
 537:Source\LwIP\src\core\ipv4/igmp.c ****  * @ingroup igmp
 538:Source\LwIP\src\core\ipv4/igmp.c ****  * Leave a group on one network interface.
 539:Source\LwIP\src\core\ipv4/igmp.c ****  *
 540:Source\LwIP\src\core\ipv4/igmp.c ****  * @param ifaddr ip address of the network interface which should leave a group
ARM GAS  C:\Users\Phuong\AppData\Local\Temp\ccKPluhm.s 			page 12


 541:Source\LwIP\src\core\ipv4/igmp.c ****  * @param groupaddr the ip address of the group which to leave
 542:Source\LwIP\src\core\ipv4/igmp.c ****  * @return ERR_OK if group was left on the netif(s), an err_t otherwise
 543:Source\LwIP\src\core\ipv4/igmp.c ****  */
 544:Source\LwIP\src\core\ipv4/igmp.c **** err_t
 545:Source\LwIP\src\core\ipv4/igmp.c **** igmp_leavegroup(const ip4_addr_t *ifaddr, const ip4_addr_t *groupaddr)
 546:Source\LwIP\src\core\ipv4/igmp.c **** {
 547:Source\LwIP\src\core\ipv4/igmp.c ****   err_t err = ERR_VAL; /* no matching interface */
 548:Source\LwIP\src\core\ipv4/igmp.c ****   struct netif *netif;
 549:Source\LwIP\src\core\ipv4/igmp.c **** 
 550:Source\LwIP\src\core\ipv4/igmp.c ****   /* make sure it is multicast address */
 551:Source\LwIP\src\core\ipv4/igmp.c ****   LWIP_ERROR("igmp_leavegroup: attempt to leave non-multicast address", ip4_addr_ismulticast(groupa
 552:Source\LwIP\src\core\ipv4/igmp.c ****   LWIP_ERROR("igmp_leavegroup: attempt to leave allsystems address", (!ip4_addr_cmp(groupaddr, &all
 553:Source\LwIP\src\core\ipv4/igmp.c **** 
 554:Source\LwIP\src\core\ipv4/igmp.c ****   /* loop through netif's */
 555:Source\LwIP\src\core\ipv4/igmp.c ****   netif = netif_list;
 556:Source\LwIP\src\core\ipv4/igmp.c ****   while (netif != NULL) {
 557:Source\LwIP\src\core\ipv4/igmp.c ****     /* Should we leave this interface ? */
 558:Source\LwIP\src\core\ipv4/igmp.c ****     if ((netif->flags & NETIF_FLAG_IGMP) && ((ip4_addr_isany(ifaddr) || ip4_addr_cmp(netif_ip4_addr
 559:Source\LwIP\src\core\ipv4/igmp.c ****       err_t res = igmp_leavegroup_netif(netif, groupaddr);
 560:Source\LwIP\src\core\ipv4/igmp.c ****       if (err != ERR_OK) {
 561:Source\LwIP\src\core\ipv4/igmp.c ****         /* Store this result if we have not yet gotten a success */
 562:Source\LwIP\src\core\ipv4/igmp.c ****         err = res;
 563:Source\LwIP\src\core\ipv4/igmp.c ****       }
 564:Source\LwIP\src\core\ipv4/igmp.c ****     }
 565:Source\LwIP\src\core\ipv4/igmp.c ****     /* proceed to next network interface */
 566:Source\LwIP\src\core\ipv4/igmp.c ****     netif = netif->next;
 567:Source\LwIP\src\core\ipv4/igmp.c ****   }
 568:Source\LwIP\src\core\ipv4/igmp.c **** 
 569:Source\LwIP\src\core\ipv4/igmp.c ****   return err;
 570:Source\LwIP\src\core\ipv4/igmp.c **** }
 571:Source\LwIP\src\core\ipv4/igmp.c **** 
 572:Source\LwIP\src\core\ipv4/igmp.c **** /**
 573:Source\LwIP\src\core\ipv4/igmp.c ****  * @ingroup igmp
 574:Source\LwIP\src\core\ipv4/igmp.c ****  * Leave a group on one network interface.
 575:Source\LwIP\src\core\ipv4/igmp.c ****  *
 576:Source\LwIP\src\core\ipv4/igmp.c ****  * @param netif the network interface which should leave a group
 577:Source\LwIP\src\core\ipv4/igmp.c ****  * @param groupaddr the ip address of the group which to leave
 578:Source\LwIP\src\core\ipv4/igmp.c ****  * @return ERR_OK if group was left on the netif, an err_t otherwise
 579:Source\LwIP\src\core\ipv4/igmp.c ****  */
 580:Source\LwIP\src\core\ipv4/igmp.c **** err_t
 581:Source\LwIP\src\core\ipv4/igmp.c **** igmp_leavegroup_netif(struct netif *netif, const ip4_addr_t *groupaddr)
 582:Source\LwIP\src\core\ipv4/igmp.c **** {
 583:Source\LwIP\src\core\ipv4/igmp.c ****   struct igmp_group *group;
 584:Source\LwIP\src\core\ipv4/igmp.c **** 
 585:Source\LwIP\src\core\ipv4/igmp.c ****   /* make sure it is multicast address */
 586:Source\LwIP\src\core\ipv4/igmp.c ****   LWIP_ERROR("igmp_leavegroup_netif: attempt to leave non-multicast address", ip4_addr_ismulticast(
 587:Source\LwIP\src\core\ipv4/igmp.c ****   LWIP_ERROR("igmp_leavegroup_netif: attempt to leave allsystems address", (!ip4_addr_cmp(groupaddr
 588:Source\LwIP\src\core\ipv4/igmp.c **** 
 589:Source\LwIP\src\core\ipv4/igmp.c ****   /* make sure it is an igmp-enabled netif */
 590:Source\LwIP\src\core\ipv4/igmp.c ****   LWIP_ERROR("igmp_leavegroup_netif: attempt to leave on non-IGMP netif", netif->flags & NETIF_FLAG
 591:Source\LwIP\src\core\ipv4/igmp.c **** 
 592:Source\LwIP\src\core\ipv4/igmp.c ****   /* find group */
 593:Source\LwIP\src\core\ipv4/igmp.c ****   group = igmp_lookfor_group(netif, groupaddr);
 594:Source\LwIP\src\core\ipv4/igmp.c **** 
 595:Source\LwIP\src\core\ipv4/igmp.c ****   if (group != NULL) {
 596:Source\LwIP\src\core\ipv4/igmp.c ****     /* Only send a leave if the flag is set according to the state diagram */
 597:Source\LwIP\src\core\ipv4/igmp.c ****     LWIP_DEBUGF(IGMP_DEBUG, ("igmp_leavegroup_netif: Leaving group: "));
ARM GAS  C:\Users\Phuong\AppData\Local\Temp\ccKPluhm.s 			page 13


 598:Source\LwIP\src\core\ipv4/igmp.c ****     ip4_addr_debug_print(IGMP_DEBUG, groupaddr);
 599:Source\LwIP\src\core\ipv4/igmp.c ****     LWIP_DEBUGF(IGMP_DEBUG, ("\n"));
 600:Source\LwIP\src\core\ipv4/igmp.c **** 
 601:Source\LwIP\src\core\ipv4/igmp.c ****     /* If there is no other use of the group */
 602:Source\LwIP\src\core\ipv4/igmp.c ****     if (group->use <= 1) {
 603:Source\LwIP\src\core\ipv4/igmp.c ****       /* Remove the group from the list */
 604:Source\LwIP\src\core\ipv4/igmp.c ****       igmp_remove_group(netif, group);
 605:Source\LwIP\src\core\ipv4/igmp.c **** 
 606:Source\LwIP\src\core\ipv4/igmp.c ****       /* If we are the last reporter for this group */
 607:Source\LwIP\src\core\ipv4/igmp.c ****       if (group->last_reporter_flag) {
 608:Source\LwIP\src\core\ipv4/igmp.c ****         LWIP_DEBUGF(IGMP_DEBUG, ("igmp_leavegroup_netif: sending leaving group\n"));
 609:Source\LwIP\src\core\ipv4/igmp.c ****         IGMP_STATS_INC(igmp.tx_leave);
 610:Source\LwIP\src\core\ipv4/igmp.c ****         igmp_send(netif, group, IGMP_LEAVE_GROUP);
 611:Source\LwIP\src\core\ipv4/igmp.c ****       }
 612:Source\LwIP\src\core\ipv4/igmp.c **** 
 613:Source\LwIP\src\core\ipv4/igmp.c ****       /* Disable the group at the MAC level */
 614:Source\LwIP\src\core\ipv4/igmp.c ****       if (netif->igmp_mac_filter != NULL) {
 615:Source\LwIP\src\core\ipv4/igmp.c ****         LWIP_DEBUGF(IGMP_DEBUG, ("igmp_leavegroup_netif: igmp_mac_filter(DEL "));
 616:Source\LwIP\src\core\ipv4/igmp.c ****         ip4_addr_debug_print(IGMP_DEBUG, groupaddr);
 617:Source\LwIP\src\core\ipv4/igmp.c ****         LWIP_DEBUGF(IGMP_DEBUG, (") on if %p\n", (void*)netif));
 618:Source\LwIP\src\core\ipv4/igmp.c ****         netif->igmp_mac_filter(netif, groupaddr, NETIF_DEL_MAC_FILTER);
 619:Source\LwIP\src\core\ipv4/igmp.c ****       }
 620:Source\LwIP\src\core\ipv4/igmp.c **** 
 621:Source\LwIP\src\core\ipv4/igmp.c ****       /* Free group struct */
 622:Source\LwIP\src\core\ipv4/igmp.c ****       memp_free(MEMP_IGMP_GROUP, group);
 623:Source\LwIP\src\core\ipv4/igmp.c ****     } else {
 624:Source\LwIP\src\core\ipv4/igmp.c ****       /* Decrement group use */
 625:Source\LwIP\src\core\ipv4/igmp.c ****       group->use--;
 626:Source\LwIP\src\core\ipv4/igmp.c ****     }
 627:Source\LwIP\src\core\ipv4/igmp.c ****     return ERR_OK;
 628:Source\LwIP\src\core\ipv4/igmp.c ****   } else {
 629:Source\LwIP\src\core\ipv4/igmp.c ****     LWIP_DEBUGF(IGMP_DEBUG, ("igmp_leavegroup_netif: not member of group\n"));
 630:Source\LwIP\src\core\ipv4/igmp.c ****     return ERR_VAL;
 631:Source\LwIP\src\core\ipv4/igmp.c ****   }
 632:Source\LwIP\src\core\ipv4/igmp.c **** }
 633:Source\LwIP\src\core\ipv4/igmp.c **** 
 634:Source\LwIP\src\core\ipv4/igmp.c **** /**
 635:Source\LwIP\src\core\ipv4/igmp.c ****  * The igmp timer function (both for NO_SYS=1 and =0)
 636:Source\LwIP\src\core\ipv4/igmp.c ****  * Should be called every IGMP_TMR_INTERVAL milliseconds (100 ms is default).
 637:Source\LwIP\src\core\ipv4/igmp.c ****  */
 638:Source\LwIP\src\core\ipv4/igmp.c **** void
 639:Source\LwIP\src\core\ipv4/igmp.c **** igmp_tmr(void)
 640:Source\LwIP\src\core\ipv4/igmp.c **** {
 641:Source\LwIP\src\core\ipv4/igmp.c ****   struct netif *netif = netif_list;
 642:Source\LwIP\src\core\ipv4/igmp.c **** 
 643:Source\LwIP\src\core\ipv4/igmp.c ****   while (netif != NULL) {
 644:Source\LwIP\src\core\ipv4/igmp.c ****     struct igmp_group *group = netif_igmp_data(netif);
 645:Source\LwIP\src\core\ipv4/igmp.c **** 
 646:Source\LwIP\src\core\ipv4/igmp.c ****     while (group != NULL) {
 647:Source\LwIP\src\core\ipv4/igmp.c ****       if (group->timer > 0) {
 648:Source\LwIP\src\core\ipv4/igmp.c ****         group->timer--;
 649:Source\LwIP\src\core\ipv4/igmp.c ****         if (group->timer == 0) {
 650:Source\LwIP\src\core\ipv4/igmp.c ****           igmp_timeout(netif, group);
 651:Source\LwIP\src\core\ipv4/igmp.c ****         }
 652:Source\LwIP\src\core\ipv4/igmp.c ****       }
 653:Source\LwIP\src\core\ipv4/igmp.c ****       group = group->next;
 654:Source\LwIP\src\core\ipv4/igmp.c ****     }
ARM GAS  C:\Users\Phuong\AppData\Local\Temp\ccKPluhm.s 			page 14


 655:Source\LwIP\src\core\ipv4/igmp.c ****     netif = netif->next;
 656:Source\LwIP\src\core\ipv4/igmp.c ****   }
 657:Source\LwIP\src\core\ipv4/igmp.c **** }
 658:Source\LwIP\src\core\ipv4/igmp.c **** 
 659:Source\LwIP\src\core\ipv4/igmp.c **** /**
 660:Source\LwIP\src\core\ipv4/igmp.c ****  * Called if a timeout for one group is reached.
 661:Source\LwIP\src\core\ipv4/igmp.c ****  * Sends a report for this group.
 662:Source\LwIP\src\core\ipv4/igmp.c ****  *
 663:Source\LwIP\src\core\ipv4/igmp.c ****  * @param group an igmp_group for which a timeout is reached
 664:Source\LwIP\src\core\ipv4/igmp.c ****  */
 665:Source\LwIP\src\core\ipv4/igmp.c **** static void
 666:Source\LwIP\src\core\ipv4/igmp.c **** igmp_timeout(struct netif *netif, struct igmp_group *group)
 667:Source\LwIP\src\core\ipv4/igmp.c **** {
 668:Source\LwIP\src\core\ipv4/igmp.c ****   /* If the state is IGMP_GROUP_DELAYING_MEMBER then we send a report for this group
 669:Source\LwIP\src\core\ipv4/igmp.c ****      (unless it is the allsystems group) */
 670:Source\LwIP\src\core\ipv4/igmp.c ****   if ((group->group_state == IGMP_GROUP_DELAYING_MEMBER) &&
 671:Source\LwIP\src\core\ipv4/igmp.c ****       (!(ip4_addr_cmp(&(group->group_address), &allsystems)))) {
 672:Source\LwIP\src\core\ipv4/igmp.c ****     LWIP_DEBUGF(IGMP_DEBUG, ("igmp_timeout: report membership for group with address "));
 673:Source\LwIP\src\core\ipv4/igmp.c ****     ip4_addr_debug_print(IGMP_DEBUG, &(group->group_address));
 674:Source\LwIP\src\core\ipv4/igmp.c ****     LWIP_DEBUGF(IGMP_DEBUG, (" on if %p\n", (void*)netif));
 675:Source\LwIP\src\core\ipv4/igmp.c **** 
 676:Source\LwIP\src\core\ipv4/igmp.c ****     group->group_state = IGMP_GROUP_IDLE_MEMBER;
 677:Source\LwIP\src\core\ipv4/igmp.c ****     
 678:Source\LwIP\src\core\ipv4/igmp.c ****     IGMP_STATS_INC(igmp.tx_report);
 679:Source\LwIP\src\core\ipv4/igmp.c ****     igmp_send(netif, group, IGMP_V2_MEMB_REPORT);
 680:Source\LwIP\src\core\ipv4/igmp.c ****   }
 681:Source\LwIP\src\core\ipv4/igmp.c **** }
 682:Source\LwIP\src\core\ipv4/igmp.c **** 
 683:Source\LwIP\src\core\ipv4/igmp.c **** /**
 684:Source\LwIP\src\core\ipv4/igmp.c ****  * Start a timer for an igmp group
 685:Source\LwIP\src\core\ipv4/igmp.c ****  *
 686:Source\LwIP\src\core\ipv4/igmp.c ****  * @param group the igmp_group for which to start a timer
 687:Source\LwIP\src\core\ipv4/igmp.c ****  * @param max_time the time in multiples of IGMP_TMR_INTERVAL (decrease with
 688:Source\LwIP\src\core\ipv4/igmp.c ****  *        every call to igmp_tmr())
 689:Source\LwIP\src\core\ipv4/igmp.c ****  */
 690:Source\LwIP\src\core\ipv4/igmp.c **** static void
 691:Source\LwIP\src\core\ipv4/igmp.c **** igmp_start_timer(struct igmp_group *group, u8_t max_time)
 692:Source\LwIP\src\core\ipv4/igmp.c **** {
  85              		.loc 1 692 0
  86              		.cfi_startproc
  87              		@ args = 0, pretend = 0, frame = 0
  88              		@ frame_needed = 0, uses_anonymous_args = 0
  89              	.LVL7:
  90 0000 70B5     		push	{r4, r5, r6, lr}
  91              		.cfi_def_cfa_offset 16
  92              		.cfi_offset 4, -16
  93              		.cfi_offset 5, -12
  94              		.cfi_offset 6, -8
  95              		.cfi_offset 14, -4
  96 0002 0400     		movs	r4, r0
  97 0004 0D00     		movs	r5, r1
 693:Source\LwIP\src\core\ipv4/igmp.c **** #ifdef LWIP_RAND
 694:Source\LwIP\src\core\ipv4/igmp.c ****   group->timer = max_time > 2 ? (LWIP_RAND() % max_time) : 1;
  98              		.loc 1 694 0
  99 0006 0229     		cmp	r1, #2
 100 0008 06D9     		bls	.L11
 101              		.loc 1 694 0 is_stmt 0 discriminator 1
ARM GAS  C:\Users\Phuong\AppData\Local\Temp\ccKPluhm.s 			page 15


 102 000a FFF7FEFF 		bl	sys_rand16
 103              	.LVL8:
 104 000e 2900     		movs	r1, r5
 105 0010 FFF7FEFF 		bl	__aeabi_uidivmod
 106              	.LVL9:
 107 0014 89B2     		uxth	r1, r1
 108 0016 00E0     		b	.L9
 109              	.LVL10:
 110              	.L11:
 111              		.loc 1 694 0
 112 0018 0121     		movs	r1, #1
 113              	.LVL11:
 114              	.L9:
 115              		.loc 1 694 0 discriminator 4
 116 001a 6181     		strh	r1, [r4, #10]
 695:Source\LwIP\src\core\ipv4/igmp.c **** #else /* LWIP_RAND */
 696:Source\LwIP\src\core\ipv4/igmp.c ****   /* ATTENTION: use this only if absolutely necessary! */
 697:Source\LwIP\src\core\ipv4/igmp.c ****   group->timer = max_time / 2;
 698:Source\LwIP\src\core\ipv4/igmp.c **** #endif /* LWIP_RAND */
 699:Source\LwIP\src\core\ipv4/igmp.c **** 
 700:Source\LwIP\src\core\ipv4/igmp.c ****   if (group->timer == 0) {
 117              		.loc 1 700 0 is_stmt 1 discriminator 4
 118 001c 0029     		cmp	r1, #0
 119 001e 01D1     		bne	.L8
 701:Source\LwIP\src\core\ipv4/igmp.c ****     group->timer = 1;
 120              		.loc 1 701 0
 121 0020 0123     		movs	r3, #1
 122 0022 6381     		strh	r3, [r4, #10]
 123              	.L8:
 702:Source\LwIP\src\core\ipv4/igmp.c ****   }
 703:Source\LwIP\src\core\ipv4/igmp.c **** }
 124              		.loc 1 703 0
 125              		@ sp needed
 126              	.LVL12:
 127 0024 70BD     		pop	{r4, r5, r6, pc}
 128              		.cfi_endproc
 129              	.LFE67:
 130              		.size	igmp_start_timer, .-igmp_start_timer
 131 0026 C046     		.section	.text.igmp_delaying_member,"ax",%progbits
 132              		.align	2
 133              		.code	16
 134              		.thumb_func
 135              		.type	igmp_delaying_member, %function
 136              	igmp_delaying_member:
 137              	.LFB68:
 704:Source\LwIP\src\core\ipv4/igmp.c **** 
 705:Source\LwIP\src\core\ipv4/igmp.c **** /**
 706:Source\LwIP\src\core\ipv4/igmp.c ****  * Delaying membership report for a group if necessary
 707:Source\LwIP\src\core\ipv4/igmp.c ****  *
 708:Source\LwIP\src\core\ipv4/igmp.c ****  * @param group the igmp_group for which "delaying" membership report
 709:Source\LwIP\src\core\ipv4/igmp.c ****  * @param maxresp query delay
 710:Source\LwIP\src\core\ipv4/igmp.c ****  */
 711:Source\LwIP\src\core\ipv4/igmp.c **** static void
 712:Source\LwIP\src\core\ipv4/igmp.c **** igmp_delaying_member(struct igmp_group *group, u8_t maxresp)
 713:Source\LwIP\src\core\ipv4/igmp.c **** {
 138              		.loc 1 713 0
 139              		.cfi_startproc
ARM GAS  C:\Users\Phuong\AppData\Local\Temp\ccKPluhm.s 			page 16


 140              		@ args = 0, pretend = 0, frame = 0
 141              		@ frame_needed = 0, uses_anonymous_args = 0
 142              	.LVL13:
 143 0000 10B5     		push	{r4, lr}
 144              		.cfi_def_cfa_offset 8
 145              		.cfi_offset 4, -8
 146              		.cfi_offset 14, -4
 147 0002 0400     		movs	r4, r0
 714:Source\LwIP\src\core\ipv4/igmp.c ****   if ((group->group_state == IGMP_GROUP_IDLE_MEMBER) ||
 148              		.loc 1 714 0
 149 0004 437A     		ldrb	r3, [r0, #9]
 150 0006 022B     		cmp	r3, #2
 151 0008 07D0     		beq	.L13
 152              		.loc 1 714 0 is_stmt 0 discriminator 1
 153 000a 012B     		cmp	r3, #1
 154 000c 0AD1     		bne	.L12
 715:Source\LwIP\src\core\ipv4/igmp.c ****      ((group->group_state == IGMP_GROUP_DELAYING_MEMBER) &&
 716:Source\LwIP\src\core\ipv4/igmp.c ****       ((group->timer == 0) || (maxresp < group->timer)))) {
 155              		.loc 1 716 0 is_stmt 1
 156 000e 4389     		ldrh	r3, [r0, #10]
 715:Source\LwIP\src\core\ipv4/igmp.c ****      ((group->group_state == IGMP_GROUP_DELAYING_MEMBER) &&
 157              		.loc 1 715 0
 158 0010 002B     		cmp	r3, #0
 159 0012 02D0     		beq	.L13
 160              		.loc 1 716 0
 161 0014 8AB2     		uxth	r2, r1
 162 0016 9342     		cmp	r3, r2
 163 0018 04D9     		bls	.L12
 164              	.L13:
 717:Source\LwIP\src\core\ipv4/igmp.c ****     igmp_start_timer(group, maxresp);
 165              		.loc 1 717 0
 166 001a 2000     		movs	r0, r4
 167              	.LVL14:
 168 001c FFF7FEFF 		bl	igmp_start_timer
 169              	.LVL15:
 718:Source\LwIP\src\core\ipv4/igmp.c ****     group->group_state = IGMP_GROUP_DELAYING_MEMBER;
 170              		.loc 1 718 0
 171 0020 0123     		movs	r3, #1
 172 0022 6372     		strb	r3, [r4, #9]
 173              	.L12:
 719:Source\LwIP\src\core\ipv4/igmp.c ****   }
 720:Source\LwIP\src\core\ipv4/igmp.c **** }
 174              		.loc 1 720 0
 175              		@ sp needed
 176              	.LVL16:
 177 0024 10BD     		pop	{r4, pc}
 178              		.cfi_endproc
 179              	.LFE68:
 180              		.size	igmp_delaying_member, .-igmp_delaying_member
 181 0026 C046     		.section	.text.igmp_ip_output_if,"ax",%progbits
 182              		.align	2
 183              		.code	16
 184              		.thumb_func
 185              		.type	igmp_ip_output_if, %function
 186              	igmp_ip_output_if:
 187              	.LFB69:
 721:Source\LwIP\src\core\ipv4/igmp.c **** 
ARM GAS  C:\Users\Phuong\AppData\Local\Temp\ccKPluhm.s 			page 17


 722:Source\LwIP\src\core\ipv4/igmp.c **** 
 723:Source\LwIP\src\core\ipv4/igmp.c **** /**
 724:Source\LwIP\src\core\ipv4/igmp.c ****  * Sends an IP packet on a network interface. This function constructs the IP header
 725:Source\LwIP\src\core\ipv4/igmp.c ****  * and calculates the IP header checksum. If the source IP address is NULL,
 726:Source\LwIP\src\core\ipv4/igmp.c ****  * the IP address of the outgoing network interface is filled in as source address.
 727:Source\LwIP\src\core\ipv4/igmp.c ****  *
 728:Source\LwIP\src\core\ipv4/igmp.c ****  * @param p the packet to send (p->payload points to the data, e.g. next
 729:Source\LwIP\src\core\ipv4/igmp.c ****             protocol header; if dest == LWIP_IP_HDRINCL, p already includes an
 730:Source\LwIP\src\core\ipv4/igmp.c ****             IP header and p->payload points to that IP header)
 731:Source\LwIP\src\core\ipv4/igmp.c ****  * @param src the source IP address to send from (if src == IP4_ADDR_ANY, the
 732:Source\LwIP\src\core\ipv4/igmp.c ****  *         IP  address of the netif used to send is used as source address)
 733:Source\LwIP\src\core\ipv4/igmp.c ****  * @param dest the destination IP address to send the packet to
 734:Source\LwIP\src\core\ipv4/igmp.c ****  * @param netif the netif on which to send this packet
 735:Source\LwIP\src\core\ipv4/igmp.c ****  * @return ERR_OK if the packet was sent OK
 736:Source\LwIP\src\core\ipv4/igmp.c ****  *         ERR_BUF if p doesn't have enough space for IP/LINK headers
 737:Source\LwIP\src\core\ipv4/igmp.c ****  *         returns errors returned by netif->output
 738:Source\LwIP\src\core\ipv4/igmp.c ****  */
 739:Source\LwIP\src\core\ipv4/igmp.c **** static err_t
 740:Source\LwIP\src\core\ipv4/igmp.c **** igmp_ip_output_if(struct pbuf *p, const ip4_addr_t *src, const ip4_addr_t *dest, struct netif *neti
 741:Source\LwIP\src\core\ipv4/igmp.c **** {
 188              		.loc 1 741 0
 189              		.cfi_startproc
 190              		@ args = 0, pretend = 0, frame = 8
 191              		@ frame_needed = 0, uses_anonymous_args = 0
 192              	.LVL17:
 193 0000 F0B5     		push	{r4, r5, r6, r7, lr}
 194              		.cfi_def_cfa_offset 20
 195              		.cfi_offset 4, -20
 196              		.cfi_offset 5, -16
 197              		.cfi_offset 6, -12
 198              		.cfi_offset 7, -8
 199              		.cfi_offset 14, -4
 200 0002 89B0     		sub	sp, sp, #36
 201              		.cfi_def_cfa_offset 56
 202 0004 9C46     		mov	ip, r3
 742:Source\LwIP\src\core\ipv4/igmp.c ****   /* This is the "router alert" option */
 743:Source\LwIP\src\core\ipv4/igmp.c ****   u16_t ra[2];
 744:Source\LwIP\src\core\ipv4/igmp.c ****   ra[0] = PP_HTONS(ROUTER_ALERT);
 203              		.loc 1 744 0
 204 0006 07AC     		add	r4, sp, #28
 205 0008 0A4B     		ldr	r3, .L16
 206              	.LVL18:
 207 000a 2380     		strh	r3, [r4]
 745:Source\LwIP\src\core\ipv4/igmp.c ****   ra[1] = 0x0000; /* Router shall examine packet */
 208              		.loc 1 745 0
 209 000c 0026     		movs	r6, #0
 210 000e 6680     		strh	r6, [r4, #2]
 746:Source\LwIP\src\core\ipv4/igmp.c ****   IGMP_STATS_INC(igmp.xmit);
 211              		.loc 1 746 0
 212 0010 094B     		ldr	r3, .L16+4
 213 0012 7827     		movs	r7, #120
 214 0014 DD5B     		ldrh	r5, [r3, r7]
 215 0016 0135     		adds	r5, r5, #1
 216 0018 DD53     		strh	r5, [r3, r7]
 747:Source\LwIP\src\core\ipv4/igmp.c ****   return ip4_output_if_opt(p, src, dest, IGMP_TTL, 0, IP_PROTO_IGMP, netif, ra, ROUTER_ALERTLEN);
 217              		.loc 1 747 0
 218 001a 0423     		movs	r3, #4
ARM GAS  C:\Users\Phuong\AppData\Local\Temp\ccKPluhm.s 			page 18


 219 001c 0493     		str	r3, [sp, #16]
 220 001e 0394     		str	r4, [sp, #12]
 221 0020 6346     		mov	r3, ip
 222 0022 0293     		str	r3, [sp, #8]
 223 0024 0223     		movs	r3, #2
 224 0026 0193     		str	r3, [sp, #4]
 225 0028 0096     		str	r6, [sp]
 226 002a 013B     		subs	r3, r3, #1
 227 002c FFF7FEFF 		bl	ip4_output_if_opt
 228              	.LVL19:
 748:Source\LwIP\src\core\ipv4/igmp.c **** }
 229              		.loc 1 748 0
 230 0030 09B0     		add	sp, sp, #36
 231              		@ sp needed
 232 0032 F0BD     		pop	{r4, r5, r6, r7, pc}
 233              	.L17:
 234              		.align	2
 235              	.L16:
 236 0034 94040000 		.word	1172
 237 0038 00000000 		.word	lwip_stats
 238              		.cfi_endproc
 239              	.LFE69:
 240              		.size	igmp_ip_output_if, .-igmp_ip_output_if
 241              		.section	.text.igmp_send,"ax",%progbits
 242              		.align	2
 243              		.code	16
 244              		.thumb_func
 245              		.type	igmp_send, %function
 246              	igmp_send:
 247              	.LFB70:
 749:Source\LwIP\src\core\ipv4/igmp.c **** 
 750:Source\LwIP\src\core\ipv4/igmp.c **** /**
 751:Source\LwIP\src\core\ipv4/igmp.c ****  * Send an igmp packet to a specific group.
 752:Source\LwIP\src\core\ipv4/igmp.c ****  *
 753:Source\LwIP\src\core\ipv4/igmp.c ****  * @param group the group to which to send the packet
 754:Source\LwIP\src\core\ipv4/igmp.c ****  * @param type the type of igmp packet to send
 755:Source\LwIP\src\core\ipv4/igmp.c ****  */
 756:Source\LwIP\src\core\ipv4/igmp.c **** static void
 757:Source\LwIP\src\core\ipv4/igmp.c **** igmp_send(struct netif *netif, struct igmp_group *group, u8_t type)
 758:Source\LwIP\src\core\ipv4/igmp.c **** {
 248              		.loc 1 758 0
 249              		.cfi_startproc
 250              		@ args = 0, pretend = 0, frame = 8
 251              		@ frame_needed = 0, uses_anonymous_args = 0
 252              	.LVL20:
 253 0000 F0B5     		push	{r4, r5, r6, r7, lr}
 254              		.cfi_def_cfa_offset 20
 255              		.cfi_offset 4, -20
 256              		.cfi_offset 5, -16
 257              		.cfi_offset 6, -12
 258              		.cfi_offset 7, -8
 259              		.cfi_offset 14, -4
 260 0002 4F46     		mov	r7, r9
 261 0004 4646     		mov	r6, r8
 262 0006 C0B4     		push	{r6, r7}
 263              		.cfi_def_cfa_offset 28
 264              		.cfi_offset 8, -28
ARM GAS  C:\Users\Phuong\AppData\Local\Temp\ccKPluhm.s 			page 19


 265              		.cfi_offset 9, -24
 266 0008 83B0     		sub	sp, sp, #12
 267              		.cfi_def_cfa_offset 40
 268 000a 0700     		movs	r7, r0
 269 000c 8846     		mov	r8, r1
 270 000e 1600     		movs	r6, r2
 271              	.LVL21:
 759:Source\LwIP\src\core\ipv4/igmp.c ****   struct pbuf*     p    = NULL;
 760:Source\LwIP\src\core\ipv4/igmp.c ****   struct igmp_msg* igmp = NULL;
 761:Source\LwIP\src\core\ipv4/igmp.c ****   ip4_addr_t   src  = *IP4_ADDR_ANY4;
 272              		.loc 1 761 0
 273 0010 294B     		ldr	r3, .L25
 274 0012 1B68     		ldr	r3, [r3]
 275 0014 0193     		str	r3, [sp, #4]
 276              	.LVL22:
 762:Source\LwIP\src\core\ipv4/igmp.c ****   ip4_addr_t*  dest = NULL;
 763:Source\LwIP\src\core\ipv4/igmp.c **** 
 764:Source\LwIP\src\core\ipv4/igmp.c ****   /* IP header + "router alert" option + IGMP header */
 765:Source\LwIP\src\core\ipv4/igmp.c ****   p = pbuf_alloc(PBUF_TRANSPORT, IGMP_MINLEN, PBUF_RAM);
 277              		.loc 1 765 0
 278 0016 0022     		movs	r2, #0
 279              	.LVL23:
 280 0018 0821     		movs	r1, #8
 281              	.LVL24:
 282 001a 0020     		movs	r0, #0
 283              	.LVL25:
 284 001c FFF7FEFF 		bl	pbuf_alloc
 285              	.LVL26:
 286 0020 041E     		subs	r4, r0, #0
 287              	.LVL27:
 766:Source\LwIP\src\core\ipv4/igmp.c **** 
 767:Source\LwIP\src\core\ipv4/igmp.c ****   if (p) {
 288              		.loc 1 767 0
 289 0022 3FD0     		beq	.L19
 768:Source\LwIP\src\core\ipv4/igmp.c ****     igmp = (struct igmp_msg *)p->payload;
 290              		.loc 1 768 0
 291 0024 4568     		ldr	r5, [r0, #4]
 292              	.LVL28:
 769:Source\LwIP\src\core\ipv4/igmp.c ****     LWIP_ASSERT("igmp_send: check that first pbuf can hold struct igmp_msg",
 770:Source\LwIP\src\core\ipv4/igmp.c ****                (p->len >= sizeof(struct igmp_msg)));
 771:Source\LwIP\src\core\ipv4/igmp.c ****     ip4_addr_copy(src, *netif_ip4_addr(netif));
 293              		.loc 1 771 0
 294 0026 7B68     		ldr	r3, [r7, #4]
 295 0028 0193     		str	r3, [sp, #4]
 772:Source\LwIP\src\core\ipv4/igmp.c **** 
 773:Source\LwIP\src\core\ipv4/igmp.c ****     if (type == IGMP_V2_MEMB_REPORT) {
 296              		.loc 1 773 0
 297 002a 162E     		cmp	r6, #22
 298 002c 0FD1     		bne	.L20
 774:Source\LwIP\src\core\ipv4/igmp.c ****       dest = &(group->group_address);
 299              		.loc 1 774 0
 300 002e 0423     		movs	r3, #4
 301 0030 4344     		add	r3, r3, r8
 302 0032 9946     		mov	r9, r3
 303              	.LVL29:
 775:Source\LwIP\src\core\ipv4/igmp.c ****       ip4_addr_copy(igmp->igmp_group_address, group->group_address);
 304              		.loc 1 775 0
ARM GAS  C:\Users\Phuong\AppData\Local\Temp\ccKPluhm.s 			page 20


 305 0034 4346     		mov	r3, r8
 306              	.LVL30:
 307 0036 5B68     		ldr	r3, [r3, #4]
 308 0038 2B71     		strb	r3, [r5, #4]
 309 003a 1A0A     		lsrs	r2, r3, #8
 310 003c 6A71     		strb	r2, [r5, #5]
 311 003e 1A0C     		lsrs	r2, r3, #16
 312 0040 AA71     		strb	r2, [r5, #6]
 313 0042 1B0E     		lsrs	r3, r3, #24
 314 0044 EB71     		strb	r3, [r5, #7]
 776:Source\LwIP\src\core\ipv4/igmp.c ****       group->last_reporter_flag = 1; /* Remember we were the last to report */
 315              		.loc 1 776 0
 316 0046 0123     		movs	r3, #1
 317 0048 4246     		mov	r2, r8
 318 004a 1372     		strb	r3, [r2, #8]
 319 004c 0FE0     		b	.L21
 320              	.LVL31:
 321              	.L20:
 777:Source\LwIP\src\core\ipv4/igmp.c ****     } else {
 778:Source\LwIP\src\core\ipv4/igmp.c ****       if (type == IGMP_LEAVE_GROUP) {
 322              		.loc 1 778 0
 323 004e 172E     		cmp	r6, #23
 324 0050 0BD1     		bne	.L24
 325              	.LVL32:
 779:Source\LwIP\src\core\ipv4/igmp.c ****         dest = &allrouters;
 780:Source\LwIP\src\core\ipv4/igmp.c ****         ip4_addr_copy(igmp->igmp_group_address, group->group_address);
 326              		.loc 1 780 0
 327 0052 4346     		mov	r3, r8
 328 0054 5B68     		ldr	r3, [r3, #4]
 329 0056 2B71     		strb	r3, [r5, #4]
 330 0058 1A0A     		lsrs	r2, r3, #8
 331 005a 6A71     		strb	r2, [r5, #5]
 332 005c 1A0C     		lsrs	r2, r3, #16
 333 005e AA71     		strb	r2, [r5, #6]
 334 0060 1B0E     		lsrs	r3, r3, #24
 335 0062 EB71     		strb	r3, [r5, #7]
 779:Source\LwIP\src\core\ipv4/igmp.c ****         dest = &allrouters;
 336              		.loc 1 779 0
 337 0064 154B     		ldr	r3, .L25+4
 338 0066 9946     		mov	r9, r3
 339 0068 01E0     		b	.L21
 340              	.LVL33:
 341              	.L24:
 762:Source\LwIP\src\core\ipv4/igmp.c **** 
 342              		.loc 1 762 0
 343 006a 0023     		movs	r3, #0
 344 006c 9946     		mov	r9, r3
 345              	.LVL34:
 346              	.L21:
 781:Source\LwIP\src\core\ipv4/igmp.c ****       }
 782:Source\LwIP\src\core\ipv4/igmp.c ****     }
 783:Source\LwIP\src\core\ipv4/igmp.c **** 
 784:Source\LwIP\src\core\ipv4/igmp.c ****     if ((type == IGMP_V2_MEMB_REPORT) || (type == IGMP_LEAVE_GROUP)) {
 347              		.loc 1 784 0
 348 006e 3300     		movs	r3, r6
 349 0070 163B     		subs	r3, r3, #22
 350 0072 DBB2     		uxtb	r3, r3
ARM GAS  C:\Users\Phuong\AppData\Local\Temp\ccKPluhm.s 			page 21


 351 0074 012B     		cmp	r3, #1
 352 0076 11D8     		bhi	.L22
 785:Source\LwIP\src\core\ipv4/igmp.c ****       igmp->igmp_msgtype  = type;
 353              		.loc 1 785 0
 354 0078 2E70     		strb	r6, [r5]
 786:Source\LwIP\src\core\ipv4/igmp.c ****       igmp->igmp_maxresp  = 0;
 355              		.loc 1 786 0
 356 007a 0023     		movs	r3, #0
 357 007c 6B70     		strb	r3, [r5, #1]
 787:Source\LwIP\src\core\ipv4/igmp.c ****       igmp->igmp_checksum = 0;
 358              		.loc 1 787 0
 359 007e AB70     		strb	r3, [r5, #2]
 360 0080 EB70     		strb	r3, [r5, #3]
 788:Source\LwIP\src\core\ipv4/igmp.c ****       igmp->igmp_checksum = inet_chksum(igmp, IGMP_MINLEN);
 361              		.loc 1 788 0
 362 0082 0821     		movs	r1, #8
 363 0084 2800     		movs	r0, r5
 364              	.LVL35:
 365 0086 FFF7FEFF 		bl	inet_chksum
 366              	.LVL36:
 367 008a A870     		strb	r0, [r5, #2]
 368 008c 000A     		lsrs	r0, r0, #8
 369 008e E870     		strb	r0, [r5, #3]
 789:Source\LwIP\src\core\ipv4/igmp.c **** 
 790:Source\LwIP\src\core\ipv4/igmp.c ****       igmp_ip_output_if(p, &src, dest, netif);
 370              		.loc 1 790 0
 371 0090 3B00     		movs	r3, r7
 372 0092 4A46     		mov	r2, r9
 373 0094 01A9     		add	r1, sp, #4
 374 0096 2000     		movs	r0, r4
 375 0098 FFF7FEFF 		bl	igmp_ip_output_if
 376              	.LVL37:
 377              	.L22:
 791:Source\LwIP\src\core\ipv4/igmp.c ****     }
 792:Source\LwIP\src\core\ipv4/igmp.c **** 
 793:Source\LwIP\src\core\ipv4/igmp.c ****     pbuf_free(p);
 378              		.loc 1 793 0
 379 009c 2000     		movs	r0, r4
 380 009e FFF7FEFF 		bl	pbuf_free
 381              	.LVL38:
 382 00a2 04E0     		b	.L18
 383              	.LVL39:
 384              	.L19:
 794:Source\LwIP\src\core\ipv4/igmp.c ****   } else {
 795:Source\LwIP\src\core\ipv4/igmp.c ****     LWIP_DEBUGF(IGMP_DEBUG, ("igmp_send: not enough memory for igmp_send\n"));
 796:Source\LwIP\src\core\ipv4/igmp.c ****     IGMP_STATS_INC(igmp.memerr);
 385              		.loc 1 796 0
 386 00a4 0649     		ldr	r1, .L25+8
 387 00a6 8222     		movs	r2, #130
 388 00a8 8B5A     		ldrh	r3, [r1, r2]
 389 00aa 0133     		adds	r3, r3, #1
 390 00ac 8B52     		strh	r3, [r1, r2]
 391              	.LVL40:
 392              	.L18:
 797:Source\LwIP\src\core\ipv4/igmp.c ****   }
 798:Source\LwIP\src\core\ipv4/igmp.c **** }
 393              		.loc 1 798 0
ARM GAS  C:\Users\Phuong\AppData\Local\Temp\ccKPluhm.s 			page 22


 394 00ae 03B0     		add	sp, sp, #12
 395              		@ sp needed
 396              	.LVL41:
 397              	.LVL42:
 398              	.LVL43:
 399 00b0 0CBC     		pop	{r2, r3}
 400 00b2 9046     		mov	r8, r2
 401 00b4 9946     		mov	r9, r3
 402 00b6 F0BD     		pop	{r4, r5, r6, r7, pc}
 403              	.L26:
 404              		.align	2
 405              	.L25:
 406 00b8 00000000 		.word	ip_addr_any
 407 00bc 00000000 		.word	.LANCHOR0
 408 00c0 00000000 		.word	lwip_stats
 409              		.cfi_endproc
 410              	.LFE70:
 411              		.size	igmp_send, .-igmp_send
 412              		.section	.text.igmp_timeout,"ax",%progbits
 413              		.align	2
 414              		.code	16
 415              		.thumb_func
 416              		.type	igmp_timeout, %function
 417              	igmp_timeout:
 418              	.LFB66:
 667:Source\LwIP\src\core\ipv4/igmp.c ****   /* If the state is IGMP_GROUP_DELAYING_MEMBER then we send a report for this group
 419              		.loc 1 667 0
 420              		.cfi_startproc
 421              		@ args = 0, pretend = 0, frame = 0
 422              		@ frame_needed = 0, uses_anonymous_args = 0
 423              	.LVL44:
 424 0000 10B5     		push	{r4, lr}
 425              		.cfi_def_cfa_offset 8
 426              		.cfi_offset 4, -8
 427              		.cfi_offset 14, -4
 670:Source\LwIP\src\core\ipv4/igmp.c ****       (!(ip4_addr_cmp(&(group->group_address), &allsystems)))) {
 428              		.loc 1 670 0
 429 0002 4B7A     		ldrb	r3, [r1, #9]
 430 0004 012B     		cmp	r3, #1
 431 0006 0ED1     		bne	.L27
 671:Source\LwIP\src\core\ipv4/igmp.c ****     LWIP_DEBUGF(IGMP_DEBUG, ("igmp_timeout: report membership for group with address "));
 432              		.loc 1 671 0 discriminator 1
 433 0008 074B     		ldr	r3, .L29
 434 000a 5B68     		ldr	r3, [r3, #4]
 670:Source\LwIP\src\core\ipv4/igmp.c ****       (!(ip4_addr_cmp(&(group->group_address), &allsystems)))) {
 435              		.loc 1 670 0 discriminator 1
 436 000c 4A68     		ldr	r2, [r1, #4]
 437 000e 9A42     		cmp	r2, r3
 438 0010 09D0     		beq	.L27
 676:Source\LwIP\src\core\ipv4/igmp.c ****     
 439              		.loc 1 676 0
 440 0012 0223     		movs	r3, #2
 441 0014 4B72     		strb	r3, [r1, #9]
 678:Source\LwIP\src\core\ipv4/igmp.c ****     igmp_send(netif, group, IGMP_V2_MEMB_REPORT);
 442              		.loc 1 678 0
 443 0016 054C     		ldr	r4, .L29+4
 444 0018 9222     		movs	r2, #146
ARM GAS  C:\Users\Phuong\AppData\Local\Temp\ccKPluhm.s 			page 23


 445 001a A35A     		ldrh	r3, [r4, r2]
 446 001c 0133     		adds	r3, r3, #1
 447 001e A352     		strh	r3, [r4, r2]
 679:Source\LwIP\src\core\ipv4/igmp.c ****   }
 448              		.loc 1 679 0
 449 0020 7C3A     		subs	r2, r2, #124
 450 0022 FFF7FEFF 		bl	igmp_send
 451              	.LVL45:
 452              	.L27:
 681:Source\LwIP\src\core\ipv4/igmp.c **** 
 453              		.loc 1 681 0
 454              		@ sp needed
 455 0026 10BD     		pop	{r4, pc}
 456              	.L30:
 457              		.align	2
 458              	.L29:
 459 0028 00000000 		.word	.LANCHOR0
 460 002c 00000000 		.word	lwip_stats
 461              		.cfi_endproc
 462              	.LFE66:
 463              		.size	igmp_timeout, .-igmp_timeout
 464              		.section	.text.igmp_init,"ax",%progbits
 465              		.align	2
 466              		.global	igmp_init
 467              		.code	16
 468              		.thumb_func
 469              		.type	igmp_init, %function
 470              	igmp_init:
 471              	.LFB53:
 115:Source\LwIP\src\core\ipv4/igmp.c ****   LWIP_DEBUGF(IGMP_DEBUG, ("igmp_init: initializing\n"));
 472              		.loc 1 115 0
 473              		.cfi_startproc
 474              		@ args = 0, pretend = 0, frame = 0
 475              		@ frame_needed = 0, uses_anonymous_args = 0
 476              		@ link register save eliminated.
 118:Source\LwIP\src\core\ipv4/igmp.c ****   IP4_ADDR(&allrouters, 224, 0, 0, 2);
 477              		.loc 1 118 0
 478 0000 024B     		ldr	r3, .L32
 479 0002 034A     		ldr	r2, .L32+4
 480 0004 5A60     		str	r2, [r3, #4]
 119:Source\LwIP\src\core\ipv4/igmp.c **** }
 481              		.loc 1 119 0
 482 0006 034A     		ldr	r2, .L32+8
 483 0008 1A60     		str	r2, [r3]
 120:Source\LwIP\src\core\ipv4/igmp.c **** 
 484              		.loc 1 120 0
 485              		@ sp needed
 486 000a 7047     		bx	lr
 487              	.L33:
 488              		.align	2
 489              	.L32:
 490 000c 00000000 		.word	.LANCHOR0
 491 0010 E0000001 		.word	16777440
 492 0014 E0000002 		.word	33554656
 493              		.cfi_endproc
 494              	.LFE53:
 495              		.size	igmp_init, .-igmp_init
ARM GAS  C:\Users\Phuong\AppData\Local\Temp\ccKPluhm.s 			page 24


 496              		.section	.text.igmp_stop,"ax",%progbits
 497              		.align	2
 498              		.global	igmp_stop
 499              		.code	16
 500              		.thumb_func
 501              		.type	igmp_stop, %function
 502              	igmp_stop:
 503              	.LFB55:
 161:Source\LwIP\src\core\ipv4/igmp.c ****   struct igmp_group *group = netif_igmp_data(netif);
 504              		.loc 1 161 0
 505              		.cfi_startproc
 506              		@ args = 0, pretend = 0, frame = 0
 507              		@ frame_needed = 0, uses_anonymous_args = 0
 508              	.LVL46:
 509 0000 70B5     		push	{r4, r5, r6, lr}
 510              		.cfi_def_cfa_offset 16
 511              		.cfi_offset 4, -16
 512              		.cfi_offset 5, -12
 513              		.cfi_offset 6, -8
 514              		.cfi_offset 14, -4
 515 0002 0600     		movs	r6, r0
 162:Source\LwIP\src\core\ipv4/igmp.c **** 
 516              		.loc 1 162 0
 517 0004 846A     		ldr	r4, [r0, #40]
 518              	.LVL47:
 164:Source\LwIP\src\core\ipv4/igmp.c **** 
 519              		.loc 1 164 0
 520 0006 0023     		movs	r3, #0
 521 0008 8362     		str	r3, [r0, #40]
 166:Source\LwIP\src\core\ipv4/igmp.c ****     struct igmp_group *next = group->next; /* avoid use-after-free below */
 522              		.loc 1 166 0
 523 000a 0CE0     		b	.L35
 524              	.LVL48:
 525              	.L37:
 526              	.LBB2:
 167:Source\LwIP\src\core\ipv4/igmp.c **** 
 527              		.loc 1 167 0
 528 000c 2568     		ldr	r5, [r4]
 529              	.LVL49:
 170:Source\LwIP\src\core\ipv4/igmp.c ****       LWIP_DEBUGF(IGMP_DEBUG, ("igmp_stop: igmp_mac_filter(DEL "));
 530              		.loc 1 170 0
 531 000e 736C     		ldr	r3, [r6, #68]
 532 0010 002B     		cmp	r3, #0
 533 0012 03D0     		beq	.L36
 174:Source\LwIP\src\core\ipv4/igmp.c ****     }
 534              		.loc 1 174 0
 535 0014 211D     		adds	r1, r4, #4
 536 0016 0022     		movs	r2, #0
 537 0018 3000     		movs	r0, r6
 538 001a 9847     		blx	r3
 539              	.LVL50:
 540              	.L36:
 178:Source\LwIP\src\core\ipv4/igmp.c **** 
 541              		.loc 1 178 0
 542 001c 2100     		movs	r1, r4
 543 001e 0B20     		movs	r0, #11
 544 0020 FFF7FEFF 		bl	memp_free
ARM GAS  C:\Users\Phuong\AppData\Local\Temp\ccKPluhm.s 			page 25


 545              	.LVL51:
 181:Source\LwIP\src\core\ipv4/igmp.c ****   }
 546              		.loc 1 181 0
 547 0024 2C00     		movs	r4, r5
 548              	.LVL52:
 549              	.L35:
 550              	.LBE2:
 166:Source\LwIP\src\core\ipv4/igmp.c ****     struct igmp_group *next = group->next; /* avoid use-after-free below */
 551              		.loc 1 166 0
 552 0026 002C     		cmp	r4, #0
 553 0028 F0D1     		bne	.L37
 184:Source\LwIP\src\core\ipv4/igmp.c **** 
 554              		.loc 1 184 0
 555 002a 0020     		movs	r0, #0
 556              		@ sp needed
 557              	.LVL53:
 558              	.LVL54:
 559 002c 70BD     		pop	{r4, r5, r6, pc}
 560              		.cfi_endproc
 561              	.LFE55:
 562              		.size	igmp_stop, .-igmp_stop
 563 002e C046     		.section	.text.igmp_report_groups,"ax",%progbits
 564              		.align	2
 565              		.global	igmp_report_groups
 566              		.code	16
 567              		.thumb_func
 568              		.type	igmp_report_groups, %function
 569              	igmp_report_groups:
 570              	.LFB56:
 193:Source\LwIP\src\core\ipv4/igmp.c ****   struct igmp_group *group = netif_igmp_data(netif);
 571              		.loc 1 193 0
 572              		.cfi_startproc
 573              		@ args = 0, pretend = 0, frame = 0
 574              		@ frame_needed = 0, uses_anonymous_args = 0
 575              	.LVL55:
 576 0000 10B5     		push	{r4, lr}
 577              		.cfi_def_cfa_offset 8
 578              		.cfi_offset 4, -8
 579              		.cfi_offset 14, -4
 194:Source\LwIP\src\core\ipv4/igmp.c **** 
 580              		.loc 1 194 0
 581 0002 846A     		ldr	r4, [r0, #40]
 582              	.LVL56:
 199:Source\LwIP\src\core\ipv4/igmp.c ****     group = group->next;
 583              		.loc 1 199 0
 584 0004 002C     		cmp	r4, #0
 585 0006 06D0     		beq	.L40
 200:Source\LwIP\src\core\ipv4/igmp.c ****   }
 586              		.loc 1 200 0
 587 0008 2468     		ldr	r4, [r4]
 588              	.LVL57:
 589 000a 04E0     		b	.L40
 590              	.LVL58:
 591              	.L41:
 204:Source\LwIP\src\core\ipv4/igmp.c ****     group = group->next;
 592              		.loc 1 204 0
 593 000c 0521     		movs	r1, #5
ARM GAS  C:\Users\Phuong\AppData\Local\Temp\ccKPluhm.s 			page 26


 594 000e 2000     		movs	r0, r4
 595 0010 FFF7FEFF 		bl	igmp_delaying_member
 596              	.LVL59:
 205:Source\LwIP\src\core\ipv4/igmp.c ****   }
 597              		.loc 1 205 0
 598 0014 2468     		ldr	r4, [r4]
 599              	.LVL60:
 600              	.L40:
 203:Source\LwIP\src\core\ipv4/igmp.c ****     igmp_delaying_member(group, IGMP_JOIN_DELAYING_MEMBER_TMR);
 601              		.loc 1 203 0
 602 0016 002C     		cmp	r4, #0
 603 0018 F8D1     		bne	.L41
 207:Source\LwIP\src\core\ipv4/igmp.c **** 
 604              		.loc 1 207 0
 605              		@ sp needed
 606              	.LVL61:
 607 001a 10BD     		pop	{r4, pc}
 608              		.cfi_endproc
 609              	.LFE56:
 610              		.size	igmp_report_groups, .-igmp_report_groups
 611              		.section	.text.igmp_lookfor_group,"ax",%progbits
 612              		.align	2
 613              		.global	igmp_lookfor_group
 614              		.code	16
 615              		.thumb_func
 616              		.type	igmp_lookfor_group, %function
 617              	igmp_lookfor_group:
 618              	.LFB57:
 219:Source\LwIP\src\core\ipv4/igmp.c ****   struct igmp_group *group = netif_igmp_data(ifp);
 619              		.loc 1 219 0
 620              		.cfi_startproc
 621              		@ args = 0, pretend = 0, frame = 0
 622              		@ frame_needed = 0, uses_anonymous_args = 0
 623              		@ link register save eliminated.
 624              	.LVL62:
 220:Source\LwIP\src\core\ipv4/igmp.c **** 
 625              		.loc 1 220 0
 626 0000 806A     		ldr	r0, [r0, #40]
 627              	.LVL63:
 222:Source\LwIP\src\core\ipv4/igmp.c ****     if (ip4_addr_cmp(&(group->group_address), addr)) {
 628              		.loc 1 222 0
 629 0002 04E0     		b	.L43
 630              	.L45:
 223:Source\LwIP\src\core\ipv4/igmp.c ****       return group;
 631              		.loc 1 223 0
 632 0004 4368     		ldr	r3, [r0, #4]
 633 0006 0A68     		ldr	r2, [r1]
 634 0008 9342     		cmp	r3, r2
 635 000a 02D0     		beq	.L44
 226:Source\LwIP\src\core\ipv4/igmp.c ****   }
 636              		.loc 1 226 0
 637 000c 0068     		ldr	r0, [r0]
 638              	.LVL64:
 639              	.L43:
 222:Source\LwIP\src\core\ipv4/igmp.c ****     if (ip4_addr_cmp(&(group->group_address), addr)) {
 640              		.loc 1 222 0
 641 000e 0028     		cmp	r0, #0
ARM GAS  C:\Users\Phuong\AppData\Local\Temp\ccKPluhm.s 			page 27


 642 0010 F8D1     		bne	.L45
 643              	.L44:
 233:Source\LwIP\src\core\ipv4/igmp.c **** 
 644              		.loc 1 233 0
 645              		@ sp needed
 646 0012 7047     		bx	lr
 647              		.cfi_endproc
 648              	.LFE57:
 649              		.size	igmp_lookfor_group, .-igmp_lookfor_group
 650              		.section	.text.igmp_lookup_group,"ax",%progbits
 651              		.align	2
 652              		.code	16
 653              		.thumb_func
 654              		.type	igmp_lookup_group, %function
 655              	igmp_lookup_group:
 656              	.LFB58:
 245:Source\LwIP\src\core\ipv4/igmp.c ****   struct igmp_group *group;
 657              		.loc 1 245 0
 658              		.cfi_startproc
 659              		@ args = 0, pretend = 0, frame = 0
 660              		@ frame_needed = 0, uses_anonymous_args = 0
 661              	.LVL65:
 662 0000 70B5     		push	{r4, r5, r6, lr}
 663              		.cfi_def_cfa_offset 16
 664              		.cfi_offset 4, -16
 665              		.cfi_offset 5, -12
 666              		.cfi_offset 6, -8
 667              		.cfi_offset 14, -4
 668 0002 0400     		movs	r4, r0
 669 0004 0D00     		movs	r5, r1
 247:Source\LwIP\src\core\ipv4/igmp.c **** 
 670              		.loc 1 247 0
 671 0006 866A     		ldr	r6, [r0, #40]
 672              	.LVL66:
 250:Source\LwIP\src\core\ipv4/igmp.c ****   if (group != NULL) {
 673              		.loc 1 250 0
 674 0008 FFF7FEFF 		bl	igmp_lookfor_group
 675              	.LVL67:
 251:Source\LwIP\src\core\ipv4/igmp.c ****     /* Group already exists. */
 676              		.loc 1 251 0
 677 000c 0028     		cmp	r0, #0
 678 000e 1CD1     		bne	.L48
 257:Source\LwIP\src\core\ipv4/igmp.c ****   if (group != NULL) {
 679              		.loc 1 257 0
 680 0010 0222     		movs	r2, #2
 681 0012 FF32     		adds	r2, r2, #255
 682 0014 0D49     		ldr	r1, .L54
 683 0016 0B30     		adds	r0, r0, #11
 684              	.LVL68:
 685 0018 FFF7FEFF 		bl	memp_malloc_fn
 686              	.LVL69:
 258:Source\LwIP\src\core\ipv4/igmp.c ****     ip4_addr_set(&(group->group_address), addr);
 687              		.loc 1 258 0
 688 001c 0028     		cmp	r0, #0
 689 001e 14D0     		beq	.L48
 259:Source\LwIP\src\core\ipv4/igmp.c ****     group->timer              = 0; /* Not running */
 690              		.loc 1 259 0
ARM GAS  C:\Users\Phuong\AppData\Local\Temp\ccKPluhm.s 			page 28


 691 0020 002D     		cmp	r5, #0
 692 0022 01D0     		beq	.L53
 259:Source\LwIP\src\core\ipv4/igmp.c ****     group->timer              = 0; /* Not running */
 693              		.loc 1 259 0 is_stmt 0 discriminator 1
 694 0024 2B68     		ldr	r3, [r5]
 695 0026 00E0     		b	.L49
 696              	.L53:
 259:Source\LwIP\src\core\ipv4/igmp.c ****     group->timer              = 0; /* Not running */
 697              		.loc 1 259 0
 698 0028 0023     		movs	r3, #0
 699              	.L49:
 259:Source\LwIP\src\core\ipv4/igmp.c ****     group->timer              = 0; /* Not running */
 700              		.loc 1 259 0 discriminator 4
 701 002a 4360     		str	r3, [r0, #4]
 260:Source\LwIP\src\core\ipv4/igmp.c ****     group->group_state        = IGMP_GROUP_NON_MEMBER;
 702              		.loc 1 260 0 is_stmt 1 discriminator 4
 703 002c 0023     		movs	r3, #0
 704 002e 4381     		strh	r3, [r0, #10]
 261:Source\LwIP\src\core\ipv4/igmp.c ****     group->last_reporter_flag = 0;
 705              		.loc 1 261 0 discriminator 4
 706 0030 0022     		movs	r2, #0
 707 0032 4272     		strb	r2, [r0, #9]
 262:Source\LwIP\src\core\ipv4/igmp.c ****     group->use                = 0;
 708              		.loc 1 262 0 discriminator 4
 709 0034 0372     		strb	r3, [r0, #8]
 263:Source\LwIP\src\core\ipv4/igmp.c **** 
 710              		.loc 1 263 0 discriminator 4
 711 0036 0373     		strb	r3, [r0, #12]
 266:Source\LwIP\src\core\ipv4/igmp.c ****       /* this is the first entry in linked list */
 712              		.loc 1 266 0 discriminator 4
 713 0038 002E     		cmp	r6, #0
 714 003a 03D1     		bne	.L50
 270:Source\LwIP\src\core\ipv4/igmp.c ****       netif_set_client_data(ifp, LWIP_NETIF_CLIENT_DATA_INDEX_IGMP, group);
 715              		.loc 1 270 0
 716 003c 0023     		movs	r3, #0
 717 003e 0360     		str	r3, [r0]
 271:Source\LwIP\src\core\ipv4/igmp.c ****     } else {
 718              		.loc 1 271 0
 719 0040 A062     		str	r0, [r4, #40]
 720 0042 02E0     		b	.L48
 721              	.L50:
 276:Source\LwIP\src\core\ipv4/igmp.c ****       list_head->next = group;
 722              		.loc 1 276 0
 723 0044 3368     		ldr	r3, [r6]
 724 0046 0360     		str	r3, [r0]
 277:Source\LwIP\src\core\ipv4/igmp.c ****     }
 725              		.loc 1 277 0
 726 0048 3060     		str	r0, [r6]
 727              	.L48:
 286:Source\LwIP\src\core\ipv4/igmp.c **** 
 728              		.loc 1 286 0
 729              		@ sp needed
 730              	.LVL70:
 731              	.LVL71:
 732              	.LVL72:
 733 004a 70BD     		pop	{r4, r5, r6, pc}
 734              	.L55:
ARM GAS  C:\Users\Phuong\AppData\Local\Temp\ccKPluhm.s 			page 29


 735              		.align	2
 736              	.L54:
 737 004c 00000000 		.word	.LC7
 738              		.cfi_endproc
 739              	.LFE58:
 740              		.size	igmp_lookup_group, .-igmp_lookup_group
 741              		.section	.text.igmp_start,"ax",%progbits
 742              		.align	2
 743              		.global	igmp_start
 744              		.code	16
 745              		.thumb_func
 746              		.type	igmp_start, %function
 747              	igmp_start:
 748              	.LFB54:
 129:Source\LwIP\src\core\ipv4/igmp.c ****   struct igmp_group* group;
 749              		.loc 1 129 0
 750              		.cfi_startproc
 751              		@ args = 0, pretend = 0, frame = 0
 752              		@ frame_needed = 0, uses_anonymous_args = 0
 753              	.LVL73:
 754 0000 10B5     		push	{r4, lr}
 755              		.cfi_def_cfa_offset 8
 756              		.cfi_offset 4, -8
 757              		.cfi_offset 14, -4
 758 0002 0400     		movs	r4, r0
 134:Source\LwIP\src\core\ipv4/igmp.c **** 
 759              		.loc 1 134 0
 760 0004 0C49     		ldr	r1, .L60
 761 0006 0431     		adds	r1, r1, #4
 762 0008 FFF7FEFF 		bl	igmp_lookup_group
 763              	.LVL74:
 136:Source\LwIP\src\core\ipv4/igmp.c ****     group->group_state = IGMP_GROUP_IDLE_MEMBER;
 764              		.loc 1 136 0
 765 000c 0028     		cmp	r0, #0
 766 000e 0ED0     		beq	.L58
 137:Source\LwIP\src\core\ipv4/igmp.c ****     group->use++;
 767              		.loc 1 137 0
 768 0010 0223     		movs	r3, #2
 769 0012 4372     		strb	r3, [r0, #9]
 138:Source\LwIP\src\core\ipv4/igmp.c **** 
 770              		.loc 1 138 0
 771 0014 037B     		ldrb	r3, [r0, #12]
 772 0016 0133     		adds	r3, r3, #1
 773 0018 0373     		strb	r3, [r0, #12]
 141:Source\LwIP\src\core\ipv4/igmp.c ****       LWIP_DEBUGF(IGMP_DEBUG, ("igmp_start: igmp_mac_filter(ADD "));
 774              		.loc 1 141 0
 775 001a 636C     		ldr	r3, [r4, #68]
 776 001c 002B     		cmp	r3, #0
 777 001e 09D0     		beq	.L59
 145:Source\LwIP\src\core\ipv4/igmp.c ****     }
 778              		.loc 1 145 0
 779 0020 0122     		movs	r2, #1
 780 0022 0549     		ldr	r1, .L60
 781 0024 0431     		adds	r1, r1, #4
 782 0026 2000     		movs	r0, r4
 783              	.LVL75:
 784 0028 9847     		blx	r3
ARM GAS  C:\Users\Phuong\AppData\Local\Temp\ccKPluhm.s 			page 30


 785              	.LVL76:
 148:Source\LwIP\src\core\ipv4/igmp.c ****   }
 786              		.loc 1 148 0
 787 002a 0020     		movs	r0, #0
 788 002c 03E0     		b	.L57
 789              	.LVL77:
 790              	.L58:
 151:Source\LwIP\src\core\ipv4/igmp.c **** }
 791              		.loc 1 151 0
 792 002e 0120     		movs	r0, #1
 793              	.LVL78:
 794 0030 4042     		rsbs	r0, r0, #0
 795 0032 00E0     		b	.L57
 796              	.LVL79:
 797              	.L59:
 148:Source\LwIP\src\core\ipv4/igmp.c ****   }
 798              		.loc 1 148 0
 799 0034 0020     		movs	r0, #0
 800              	.LVL80:
 801              	.L57:
 152:Source\LwIP\src\core\ipv4/igmp.c **** 
 802              		.loc 1 152 0
 803              		@ sp needed
 804              	.LVL81:
 805 0036 10BD     		pop	{r4, pc}
 806              	.L61:
 807              		.align	2
 808              	.L60:
 809 0038 00000000 		.word	.LANCHOR0
 810              		.cfi_endproc
 811              	.LFE54:
 812              		.size	igmp_start, .-igmp_start
 813              		.section	.text.igmp_input,"ax",%progbits
 814              		.align	2
 815              		.global	igmp_input
 816              		.code	16
 817              		.thumb_func
 818              		.type	igmp_input, %function
 819              	igmp_input:
 820              	.LFB60:
 324:Source\LwIP\src\core\ipv4/igmp.c ****   struct igmp_msg*   igmp;
 821              		.loc 1 324 0
 822              		.cfi_startproc
 823              		@ args = 0, pretend = 0, frame = 8
 824              		@ frame_needed = 0, uses_anonymous_args = 0
 825              	.LVL82:
 826 0000 F0B5     		push	{r4, r5, r6, r7, lr}
 827              		.cfi_def_cfa_offset 20
 828              		.cfi_offset 4, -20
 829              		.cfi_offset 5, -16
 830              		.cfi_offset 6, -12
 831              		.cfi_offset 7, -8
 832              		.cfi_offset 14, -4
 833 0002 4746     		mov	r7, r8
 834 0004 80B4     		push	{r7}
 835              		.cfi_def_cfa_offset 24
 836              		.cfi_offset 8, -24
ARM GAS  C:\Users\Phuong\AppData\Local\Temp\ccKPluhm.s 			page 31


 837 0006 82B0     		sub	sp, sp, #8
 838              		.cfi_def_cfa_offset 32
 839 0008 0600     		movs	r6, r0
 840 000a 0D00     		movs	r5, r1
 841 000c 1400     		movs	r4, r2
 329:Source\LwIP\src\core\ipv4/igmp.c **** 
 842              		.loc 1 329 0
 843 000e 5649     		ldr	r1, .L82
 844              	.LVL83:
 845 0010 7A22     		movs	r2, #122
 846              	.LVL84:
 847 0012 8B5A     		ldrh	r3, [r1, r2]
 848 0014 0133     		adds	r3, r3, #1
 849 0016 8B52     		strh	r3, [r1, r2]
 332:Source\LwIP\src\core\ipv4/igmp.c ****     pbuf_free(p);
 850              		.loc 1 332 0
 851 0018 4189     		ldrh	r1, [r0, #10]
 852 001a 0729     		cmp	r1, #7
 853 001c 07D8     		bhi	.L63
 333:Source\LwIP\src\core\ipv4/igmp.c ****     IGMP_STATS_INC(igmp.lenerr);
 854              		.loc 1 333 0
 855 001e FFF7FEFF 		bl	pbuf_free
 856              	.LVL85:
 334:Source\LwIP\src\core\ipv4/igmp.c ****     LWIP_DEBUGF(IGMP_DEBUG, ("igmp_input: length error\n"));
 857              		.loc 1 334 0
 858 0022 5149     		ldr	r1, .L82
 859 0024 8022     		movs	r2, #128
 860 0026 8B5A     		ldrh	r3, [r1, r2]
 861 0028 0133     		adds	r3, r3, #1
 862 002a 8B52     		strh	r3, [r1, r2]
 336:Source\LwIP\src\core\ipv4/igmp.c ****   }
 863              		.loc 1 336 0
 864 002c 98E0     		b	.L62
 865              	.LVL86:
 866              	.L63:
 346:Source\LwIP\src\core\ipv4/igmp.c ****   if (inet_chksum(igmp, p->len)) {
 867              		.loc 1 346 0
 868 002e 4768     		ldr	r7, [r0, #4]
 869              	.LVL87:
 347:Source\LwIP\src\core\ipv4/igmp.c ****     pbuf_free(p);
 870              		.loc 1 347 0
 871 0030 3800     		movs	r0, r7
 872              	.LVL88:
 873 0032 FFF7FEFF 		bl	inet_chksum
 874              	.LVL89:
 875 0036 0028     		cmp	r0, #0
 876 0038 08D0     		beq	.L65
 348:Source\LwIP\src\core\ipv4/igmp.c ****     IGMP_STATS_INC(igmp.chkerr);
 877              		.loc 1 348 0
 878 003a 3000     		movs	r0, r6
 879 003c FFF7FEFF 		bl	pbuf_free
 880              	.LVL90:
 349:Source\LwIP\src\core\ipv4/igmp.c ****     LWIP_DEBUGF(IGMP_DEBUG, ("igmp_input: checksum error\n"));
 881              		.loc 1 349 0
 882 0040 4949     		ldr	r1, .L82
 883 0042 7E22     		movs	r2, #126
 884 0044 8B5A     		ldrh	r3, [r1, r2]
ARM GAS  C:\Users\Phuong\AppData\Local\Temp\ccKPluhm.s 			page 32


 885 0046 0133     		adds	r3, r3, #1
 886 0048 8B52     		strh	r3, [r1, r2]
 351:Source\LwIP\src\core\ipv4/igmp.c ****   }
 887              		.loc 1 351 0
 888 004a 89E0     		b	.L62
 889              	.L65:
 355:Source\LwIP\src\core\ipv4/igmp.c **** 
 890              		.loc 1 355 0
 891 004c 2100     		movs	r1, r4
 892 004e 2800     		movs	r0, r5
 893 0050 FFF7FEFF 		bl	igmp_lookfor_group
 894              	.LVL91:
 358:Source\LwIP\src\core\ipv4/igmp.c ****     pbuf_free(p);
 895              		.loc 1 358 0
 896 0054 0028     		cmp	r0, #0
 897 0056 08D1     		bne	.L66
 359:Source\LwIP\src\core\ipv4/igmp.c ****     IGMP_STATS_INC(igmp.drop);
 898              		.loc 1 359 0
 899 0058 3000     		movs	r0, r6
 900              	.LVL92:
 901 005a FFF7FEFF 		bl	pbuf_free
 902              	.LVL93:
 360:Source\LwIP\src\core\ipv4/igmp.c ****     LWIP_DEBUGF(IGMP_DEBUG, ("igmp_input: IGMP frame not for us\n"));
 903              		.loc 1 360 0
 904 005e 4249     		ldr	r1, .L82
 905 0060 7C22     		movs	r2, #124
 906 0062 8B5A     		ldrh	r3, [r1, r2]
 907 0064 0133     		adds	r3, r3, #1
 908 0066 8B52     		strh	r3, [r1, r2]
 362:Source\LwIP\src\core\ipv4/igmp.c ****   }
 909              		.loc 1 362 0
 910 0068 7AE0     		b	.L62
 911              	.LVL94:
 912              	.L66:
 366:Source\LwIP\src\core\ipv4/igmp.c ****   case IGMP_MEMB_QUERY:
 913              		.loc 1 366 0
 914 006a 3B78     		ldrb	r3, [r7]
 915 006c 112B     		cmp	r3, #17
 916 006e 02D0     		beq	.L68
 917 0070 162B     		cmp	r3, #22
 918 0072 5ED0     		beq	.L69
 919 0074 6CE0     		b	.L81
 920              	.L68:
 369:Source\LwIP\src\core\ipv4/igmp.c ****       /* THIS IS THE GENERAL QUERY */
 921              		.loc 1 369 0
 922 0076 2368     		ldr	r3, [r4]
 923 0078 9846     		mov	r8, r3
 924 007a 3C4B     		ldr	r3, .L82+4
 925 007c 5B68     		ldr	r3, [r3, #4]
 926 007e 9C46     		mov	ip, r3
 927 0080 9845     		cmp	r8, r3
 928 0082 2AD1     		bne	.L70
 369:Source\LwIP\src\core\ipv4/igmp.c ****       /* THIS IS THE GENERAL QUERY */
 929              		.loc 1 369 0 is_stmt 0 discriminator 1
 930 0084 3B1D     		adds	r3, r7, #4
 931 0086 0BD0     		beq	.L71
 369:Source\LwIP\src\core\ipv4/igmp.c ****       /* THIS IS THE GENERAL QUERY */
ARM GAS  C:\Users\Phuong\AppData\Local\Temp\ccKPluhm.s 			page 33


 932              		.loc 1 369 0 discriminator 2
 933 0088 3C79     		ldrb	r4, [r7, #4]
 934              	.LVL95:
 935 008a 7A79     		ldrb	r2, [r7, #5]
 936 008c 1202     		lsls	r2, r2, #8
 937 008e 2243     		orrs	r2, r4
 938 0090 BB79     		ldrb	r3, [r7, #6]
 939 0092 1B04     		lsls	r3, r3, #16
 940 0094 1343     		orrs	r3, r2
 941 0096 1A00     		movs	r2, r3
 942 0098 FB79     		ldrb	r3, [r7, #7]
 943 009a 1B06     		lsls	r3, r3, #24
 944 009c 1343     		orrs	r3, r2
 945 009e 1CD1     		bne	.L70
 946              	.L71:
 373:Source\LwIP\src\core\ipv4/igmp.c ****         IGMP_STATS_INC(igmp.rx_v1);
 947              		.loc 1 373 0 is_stmt 1
 948 00a0 7B78     		ldrb	r3, [r7, #1]
 949 00a2 002B     		cmp	r3, #0
 950 00a4 07D1     		bne	.L72
 374:Source\LwIP\src\core\ipv4/igmp.c ****         LWIP_DEBUGF(IGMP_DEBUG, ("igmp_input: got an all hosts query with time== 0 - this is V1 and
 951              		.loc 1 374 0
 952 00a6 3049     		ldr	r1, .L82
 953 00a8 8622     		movs	r2, #134
 954 00aa 8B5A     		ldrh	r3, [r1, r2]
 955 00ac 0133     		adds	r3, r3, #1
 956 00ae 8B52     		strh	r3, [r1, r2]
 376:Source\LwIP\src\core\ipv4/igmp.c ****       } else {
 957              		.loc 1 376 0
 958 00b0 0A23     		movs	r3, #10
 959 00b2 7B70     		strb	r3, [r7, #1]
 960 00b4 04E0     		b	.L73
 961              	.L72:
 378:Source\LwIP\src\core\ipv4/igmp.c ****       }
 962              		.loc 1 378 0
 963 00b6 2C49     		ldr	r1, .L82
 964 00b8 8A22     		movs	r2, #138
 965 00ba 8B5A     		ldrh	r3, [r1, r2]
 966 00bc 0133     		adds	r3, r3, #1
 967 00be 8B52     		strh	r3, [r1, r2]
 968              	.L73:
 381:Source\LwIP\src\core\ipv4/igmp.c ****       
 969              		.loc 1 381 0
 970 00c0 AC6A     		ldr	r4, [r5, #40]
 971              	.LVL96:
 385:Source\LwIP\src\core\ipv4/igmp.c ****         groupref = groupref->next;
 972              		.loc 1 385 0
 973 00c2 002C     		cmp	r4, #0
 974 00c4 06D0     		beq	.L75
 386:Source\LwIP\src\core\ipv4/igmp.c ****       }
 975              		.loc 1 386 0
 976 00c6 2468     		ldr	r4, [r4]
 977              	.LVL97:
 978 00c8 04E0     		b	.L75
 979              	.LVL98:
 980              	.L76:
 390:Source\LwIP\src\core\ipv4/igmp.c ****         groupref = groupref->next;
ARM GAS  C:\Users\Phuong\AppData\Local\Temp\ccKPluhm.s 			page 34


 981              		.loc 1 390 0
 982 00ca 7978     		ldrb	r1, [r7, #1]
 983 00cc 2000     		movs	r0, r4
 984 00ce FFF7FEFF 		bl	igmp_delaying_member
 985              	.LVL99:
 391:Source\LwIP\src\core\ipv4/igmp.c ****       }
 986              		.loc 1 391 0
 987 00d2 2468     		ldr	r4, [r4]
 988              	.LVL100:
 989              	.L75:
 389:Source\LwIP\src\core\ipv4/igmp.c ****         igmp_delaying_member(groupref, igmp->igmp_maxresp);
 990              		.loc 1 389 0
 991 00d4 002C     		cmp	r4, #0
 992 00d6 F8D1     		bne	.L76
 993 00d8 3FE0     		b	.L77
 994              	.LVL101:
 995              	.L70:
 395:Source\LwIP\src\core\ipv4/igmp.c ****         LWIP_DEBUGF(IGMP_DEBUG, ("igmp_input: IGMP_MEMB_QUERY to a specific group "));
 996              		.loc 1 395 0
 997 00da 3B1D     		adds	r3, r7, #4
 998 00dc 23D0     		beq	.L78
 395:Source\LwIP\src\core\ipv4/igmp.c ****         LWIP_DEBUGF(IGMP_DEBUG, ("igmp_input: IGMP_MEMB_QUERY to a specific group "));
 999              		.loc 1 395 0 is_stmt 0 discriminator 1
 1000 00de 3C79     		ldrb	r4, [r7, #4]
 1001 00e0 7A79     		ldrb	r2, [r7, #5]
 1002 00e2 1202     		lsls	r2, r2, #8
 1003 00e4 2243     		orrs	r2, r4
 1004 00e6 BB79     		ldrb	r3, [r7, #6]
 1005 00e8 1B04     		lsls	r3, r3, #16
 1006 00ea 1343     		orrs	r3, r2
 1007 00ec 1A00     		movs	r2, r3
 1008 00ee FB79     		ldrb	r3, [r7, #7]
 1009 00f0 1B06     		lsls	r3, r3, #24
 1010 00f2 1343     		orrs	r3, r2
 1011 00f4 17D0     		beq	.L78
 398:Source\LwIP\src\core\ipv4/igmp.c ****           ip4_addr_t groupaddr;
 1012              		.loc 1 398 0 is_stmt 1
 1013 00f6 E045     		cmp	r8, ip
 1014 00f8 04D1     		bne	.L79
 1015              	.LBB3:
 402:Source\LwIP\src\core\ipv4/igmp.c ****           group = igmp_lookfor_group(inp, &groupaddr);
 1016              		.loc 1 402 0
 1017 00fa 0193     		str	r3, [sp, #4]
 403:Source\LwIP\src\core\ipv4/igmp.c ****         } else {
 1018              		.loc 1 403 0
 1019 00fc 01A9     		add	r1, sp, #4
 1020 00fe 2800     		movs	r0, r5
 1021              	.LVL102:
 1022 0100 FFF7FEFF 		bl	igmp_lookfor_group
 1023              	.LVL103:
 1024              	.L79:
 1025              	.LBE3:
 408:Source\LwIP\src\core\ipv4/igmp.c ****           IGMP_STATS_INC(igmp.rx_group);
 1026              		.loc 1 408 0
 1027 0104 0028     		cmp	r0, #0
 1028 0106 08D0     		beq	.L80
 409:Source\LwIP\src\core\ipv4/igmp.c ****           igmp_delaying_member(group, igmp->igmp_maxresp);
ARM GAS  C:\Users\Phuong\AppData\Local\Temp\ccKPluhm.s 			page 35


 1029              		.loc 1 409 0
 1030 0108 1749     		ldr	r1, .L82
 1031 010a 8822     		movs	r2, #136
 1032 010c 8B5A     		ldrh	r3, [r1, r2]
 1033 010e 0133     		adds	r3, r3, #1
 1034 0110 8B52     		strh	r3, [r1, r2]
 410:Source\LwIP\src\core\ipv4/igmp.c ****         } else {
 1035              		.loc 1 410 0
 1036 0112 7978     		ldrb	r1, [r7, #1]
 1037 0114 FFF7FEFF 		bl	igmp_delaying_member
 1038              	.LVL104:
 1039 0118 1FE0     		b	.L77
 1040              	.LVL105:
 1041              	.L80:
 412:Source\LwIP\src\core\ipv4/igmp.c ****         }
 1042              		.loc 1 412 0
 1043 011a 1349     		ldr	r1, .L82
 1044 011c 7C22     		movs	r2, #124
 1045 011e 8B5A     		ldrh	r3, [r1, r2]
 1046 0120 0133     		adds	r3, r3, #1
 1047 0122 8B52     		strh	r3, [r1, r2]
 1048 0124 19E0     		b	.L77
 1049              	.L78:
 415:Source\LwIP\src\core\ipv4/igmp.c ****       }
 1050              		.loc 1 415 0
 1051 0126 1049     		ldr	r1, .L82
 1052 0128 8422     		movs	r2, #132
 1053 012a 8B5A     		ldrh	r3, [r1, r2]
 1054 012c 0133     		adds	r3, r3, #1
 1055 012e 8B52     		strh	r3, [r1, r2]
 1056 0130 13E0     		b	.L77
 1057              	.LVL106:
 1058              	.L69:
 421:Source\LwIP\src\core\ipv4/igmp.c ****     if (group->group_state == IGMP_GROUP_DELAYING_MEMBER) {
 1059              		.loc 1 421 0
 1060 0132 0D49     		ldr	r1, .L82
 1061 0134 8C22     		movs	r2, #140
 1062 0136 8B5A     		ldrh	r3, [r1, r2]
 1063 0138 0133     		adds	r3, r3, #1
 1064 013a 8B52     		strh	r3, [r1, r2]
 422:Source\LwIP\src\core\ipv4/igmp.c ****       /* This is on a specific group we have already looked up */
 1065              		.loc 1 422 0
 1066 013c 437A     		ldrb	r3, [r0, #9]
 1067 013e 012B     		cmp	r3, #1
 1068 0140 0BD1     		bne	.L77
 424:Source\LwIP\src\core\ipv4/igmp.c ****       group->group_state = IGMP_GROUP_IDLE_MEMBER;
 1069              		.loc 1 424 0
 1070 0142 0023     		movs	r3, #0
 1071 0144 4381     		strh	r3, [r0, #10]
 425:Source\LwIP\src\core\ipv4/igmp.c ****       group->last_reporter_flag = 0;
 1072              		.loc 1 425 0
 1073 0146 0233     		adds	r3, r3, #2
 1074 0148 4372     		strb	r3, [r0, #9]
 426:Source\LwIP\src\core\ipv4/igmp.c ****     }
 1075              		.loc 1 426 0
 1076 014a 0023     		movs	r3, #0
 1077 014c 0372     		strb	r3, [r0, #8]
ARM GAS  C:\Users\Phuong\AppData\Local\Temp\ccKPluhm.s 			page 36


 1078 014e 04E0     		b	.L77
 1079              	.L81:
 432:Source\LwIP\src\core\ipv4/igmp.c ****     break;
 1080              		.loc 1 432 0
 1081 0150 0549     		ldr	r1, .L82
 1082 0152 8422     		movs	r2, #132
 1083 0154 8B5A     		ldrh	r3, [r1, r2]
 1084 0156 0133     		adds	r3, r3, #1
 1085 0158 8B52     		strh	r3, [r1, r2]
 1086              	.LVL107:
 1087              	.L77:
 436:Source\LwIP\src\core\ipv4/igmp.c ****   return;
 1088              		.loc 1 436 0
 1089 015a 3000     		movs	r0, r6
 1090 015c FFF7FEFF 		bl	pbuf_free
 1091              	.LVL108:
 1092              	.L62:
 438:Source\LwIP\src\core\ipv4/igmp.c **** 
 1093              		.loc 1 438 0
 1094 0160 02B0     		add	sp, sp, #8
 1095              		@ sp needed
 1096              	.LVL109:
 1097              	.LVL110:
 1098 0162 04BC     		pop	{r2}
 1099 0164 9046     		mov	r8, r2
 1100 0166 F0BD     		pop	{r4, r5, r6, r7, pc}
 1101              	.L83:
 1102              		.align	2
 1103              	.L82:
 1104 0168 00000000 		.word	lwip_stats
 1105 016c 00000000 		.word	.LANCHOR0
 1106              		.cfi_endproc
 1107              	.LFE60:
 1108              		.size	igmp_input, .-igmp_input
 1109              		.section	.text.igmp_joingroup_netif,"ax",%progbits
 1110              		.align	2
 1111              		.global	igmp_joingroup_netif
 1112              		.code	16
 1113              		.thumb_func
 1114              		.type	igmp_joingroup_netif, %function
 1115              	igmp_joingroup_netif:
 1116              	.LFB62:
 487:Source\LwIP\src\core\ipv4/igmp.c ****   struct igmp_group *group;
 1117              		.loc 1 487 0
 1118              		.cfi_startproc
 1119              		@ args = 0, pretend = 0, frame = 0
 1120              		@ frame_needed = 0, uses_anonymous_args = 0
 1121              	.LVL111:
 1122 0000 70B5     		push	{r4, r5, r6, lr}
 1123              		.cfi_def_cfa_offset 16
 1124              		.cfi_offset 4, -16
 1125              		.cfi_offset 5, -12
 1126              		.cfi_offset 6, -8
 1127              		.cfi_offset 14, -4
 1128 0002 0500     		movs	r5, r0
 1129 0004 0E00     		movs	r6, r1
 491:Source\LwIP\src\core\ipv4/igmp.c ****   LWIP_ERROR("igmp_joingroup_netif: attempt to join allsystems address", (!ip4_addr_cmp(groupaddr, 
ARM GAS  C:\Users\Phuong\AppData\Local\Temp\ccKPluhm.s 			page 37


 1130              		.loc 1 491 0
 1131 0006 0A68     		ldr	r2, [r1]
 1132 0008 F023     		movs	r3, #240
 1133 000a 1340     		ands	r3, r2
 1134 000c E02B     		cmp	r3, #224
 1135 000e 2DD1     		bne	.L88
 492:Source\LwIP\src\core\ipv4/igmp.c **** 
 1136              		.loc 1 492 0
 1137 0010 1C4B     		ldr	r3, .L92
 1138 0012 5B68     		ldr	r3, [r3, #4]
 1139 0014 9A42     		cmp	r2, r3
 1140 0016 2CD0     		beq	.L89
 495:Source\LwIP\src\core\ipv4/igmp.c **** 
 1141              		.loc 1 495 0
 1142 0018 3D23     		movs	r3, #61
 1143 001a C35C     		ldrb	r3, [r0, r3]
 1144 001c 9B06     		lsls	r3, r3, #26
 1145 001e 2BD5     		bpl	.L90
 498:Source\LwIP\src\core\ipv4/igmp.c **** 
 1146              		.loc 1 498 0
 1147 0020 FFF7FEFF 		bl	igmp_lookup_group
 1148              	.LVL112:
 1149 0024 041E     		subs	r4, r0, #0
 1150              	.LVL113:
 500:Source\LwIP\src\core\ipv4/igmp.c ****     /* This should create a new group, check the state to make sure */
 1151              		.loc 1 500 0
 1152 0026 2AD0     		beq	.L91
 502:Source\LwIP\src\core\ipv4/igmp.c ****       LWIP_DEBUGF(IGMP_DEBUG, ("igmp_joingroup_netif: join to group not in state IGMP_GROUP_NON_MEM
 1153              		.loc 1 502 0
 1154 0028 437A     		ldrb	r3, [r0, #9]
 1155 002a 002B     		cmp	r3, #0
 1156 002c 19D1     		bne	.L86
 511:Source\LwIP\src\core\ipv4/igmp.c ****         LWIP_DEBUGF(IGMP_DEBUG, ("igmp_joingroup_netif: igmp_mac_filter(ADD "));
 1157              		.loc 1 511 0
 1158 002e 037B     		ldrb	r3, [r0, #12]
 1159 0030 002B     		cmp	r3, #0
 1160 0032 06D1     		bne	.L87
 511:Source\LwIP\src\core\ipv4/igmp.c ****         LWIP_DEBUGF(IGMP_DEBUG, ("igmp_joingroup_netif: igmp_mac_filter(ADD "));
 1161              		.loc 1 511 0 is_stmt 0 discriminator 1
 1162 0034 6B6C     		ldr	r3, [r5, #68]
 1163 0036 002B     		cmp	r3, #0
 1164 0038 03D0     		beq	.L87
 515:Source\LwIP\src\core\ipv4/igmp.c ****       }
 1165              		.loc 1 515 0 is_stmt 1
 1166 003a 0122     		movs	r2, #1
 1167 003c 3100     		movs	r1, r6
 1168 003e 2800     		movs	r0, r5
 1169              	.LVL114:
 1170 0040 9847     		blx	r3
 1171              	.LVL115:
 1172              	.L87:
 518:Source\LwIP\src\core\ipv4/igmp.c ****       igmp_send(netif, group, IGMP_V2_MEMB_REPORT);
 1173              		.loc 1 518 0
 1174 0042 1149     		ldr	r1, .L92+4
 1175 0044 8E22     		movs	r2, #142
 1176 0046 8B5A     		ldrh	r3, [r1, r2]
 1177 0048 0133     		adds	r3, r3, #1
ARM GAS  C:\Users\Phuong\AppData\Local\Temp\ccKPluhm.s 			page 38


 1178 004a 8B52     		strh	r3, [r1, r2]
 519:Source\LwIP\src\core\ipv4/igmp.c **** 
 1179              		.loc 1 519 0
 1180 004c 783A     		subs	r2, r2, #120
 1181 004e 2100     		movs	r1, r4
 1182 0050 2800     		movs	r0, r5
 1183 0052 FFF7FEFF 		bl	igmp_send
 1184              	.LVL116:
 521:Source\LwIP\src\core\ipv4/igmp.c **** 
 1185              		.loc 1 521 0
 1186 0056 0521     		movs	r1, #5
 1187 0058 2000     		movs	r0, r4
 1188 005a FFF7FEFF 		bl	igmp_start_timer
 1189              	.LVL117:
 524:Source\LwIP\src\core\ipv4/igmp.c ****     }
 1190              		.loc 1 524 0
 1191 005e 0123     		movs	r3, #1
 1192 0060 6372     		strb	r3, [r4, #9]
 1193              	.L86:
 527:Source\LwIP\src\core\ipv4/igmp.c ****     /* Join on this interface */
 1194              		.loc 1 527 0
 1195 0062 237B     		ldrb	r3, [r4, #12]
 1196 0064 0133     		adds	r3, r3, #1
 1197 0066 2373     		strb	r3, [r4, #12]
 529:Source\LwIP\src\core\ipv4/igmp.c ****   } else {
 1198              		.loc 1 529 0
 1199 0068 0020     		movs	r0, #0
 1200 006a 0AE0     		b	.L85
 1201              	.LVL118:
 1202              	.L88:
 491:Source\LwIP\src\core\ipv4/igmp.c ****   LWIP_ERROR("igmp_joingroup_netif: attempt to join allsystems address", (!ip4_addr_cmp(groupaddr, 
 1203              		.loc 1 491 0
 1204 006c 0620     		movs	r0, #6
 1205              	.LVL119:
 1206 006e 4042     		rsbs	r0, r0, #0
 1207 0070 07E0     		b	.L85
 1208              	.LVL120:
 1209              	.L89:
 492:Source\LwIP\src\core\ipv4/igmp.c **** 
 1210              		.loc 1 492 0
 1211 0072 0620     		movs	r0, #6
 1212              	.LVL121:
 1213 0074 4042     		rsbs	r0, r0, #0
 1214 0076 04E0     		b	.L85
 1215              	.LVL122:
 1216              	.L90:
 495:Source\LwIP\src\core\ipv4/igmp.c **** 
 1217              		.loc 1 495 0
 1218 0078 0620     		movs	r0, #6
 1219              	.LVL123:
 1220 007a 4042     		rsbs	r0, r0, #0
 1221 007c 01E0     		b	.L85
 1222              	.LVL124:
 1223              	.L91:
 532:Source\LwIP\src\core\ipv4/igmp.c ****   }
 1224              		.loc 1 532 0
 1225 007e 0120     		movs	r0, #1
ARM GAS  C:\Users\Phuong\AppData\Local\Temp\ccKPluhm.s 			page 39


 1226              	.LVL125:
 1227 0080 4042     		rsbs	r0, r0, #0
 1228              	.LVL126:
 1229              	.L85:
 534:Source\LwIP\src\core\ipv4/igmp.c **** 
 1230              		.loc 1 534 0
 1231              		@ sp needed
 1232              	.LVL127:
 1233              	.LVL128:
 1234 0082 70BD     		pop	{r4, r5, r6, pc}
 1235              	.L93:
 1236              		.align	2
 1237              	.L92:
 1238 0084 00000000 		.word	.LANCHOR0
 1239 0088 00000000 		.word	lwip_stats
 1240              		.cfi_endproc
 1241              	.LFE62:
 1242              		.size	igmp_joingroup_netif, .-igmp_joingroup_netif
 1243              		.section	.text.igmp_joingroup,"ax",%progbits
 1244              		.align	2
 1245              		.global	igmp_joingroup
 1246              		.code	16
 1247              		.thumb_func
 1248              		.type	igmp_joingroup, %function
 1249              	igmp_joingroup:
 1250              	.LFB61:
 450:Source\LwIP\src\core\ipv4/igmp.c ****   err_t err = ERR_VAL; /* no matching interface */
 1251              		.loc 1 450 0
 1252              		.cfi_startproc
 1253              		@ args = 0, pretend = 0, frame = 0
 1254              		@ frame_needed = 0, uses_anonymous_args = 0
 1255              	.LVL129:
 1256 0000 70B5     		push	{r4, r5, r6, lr}
 1257              		.cfi_def_cfa_offset 16
 1258              		.cfi_offset 4, -16
 1259              		.cfi_offset 5, -12
 1260              		.cfi_offset 6, -8
 1261              		.cfi_offset 14, -4
 1262 0002 0600     		movs	r6, r0
 1263 0004 0D00     		movs	r5, r1
 1264              	.LVL130:
 455:Source\LwIP\src\core\ipv4/igmp.c ****   LWIP_ERROR("igmp_joingroup: attempt to join allsystems address", (!ip4_addr_cmp(groupaddr, &allsy
 1265              		.loc 1 455 0
 1266 0006 0A68     		ldr	r2, [r1]
 1267 0008 F023     		movs	r3, #240
 1268 000a 1340     		ands	r3, r2
 1269 000c E02B     		cmp	r3, #224
 1270 000e 1ED1     		bne	.L100
 456:Source\LwIP\src\core\ipv4/igmp.c **** 
 1271              		.loc 1 456 0
 1272 0010 124B     		ldr	r3, .L103
 1273 0012 5B68     		ldr	r3, [r3, #4]
 1274 0014 9A42     		cmp	r2, r3
 1275 0016 1DD0     		beq	.L101
 459:Source\LwIP\src\core\ipv4/igmp.c ****   while (netif != NULL) {
 1276              		.loc 1 459 0
 1277 0018 114B     		ldr	r3, .L103+4
ARM GAS  C:\Users\Phuong\AppData\Local\Temp\ccKPluhm.s 			page 40


 1278 001a 1C68     		ldr	r4, [r3]
 1279              	.LVL131:
 451:Source\LwIP\src\core\ipv4/igmp.c ****   struct netif *netif;
 1280              		.loc 1 451 0
 1281 001c 0620     		movs	r0, #6
 1282              	.LVL132:
 1283 001e 4042     		rsbs	r0, r0, #0
 460:Source\LwIP\src\core\ipv4/igmp.c ****     /* Should we join this interface ? */
 1284              		.loc 1 460 0
 1285 0020 12E0     		b	.L96
 1286              	.LVL133:
 1287              	.L99:
 462:Source\LwIP\src\core\ipv4/igmp.c ****       err = igmp_joingroup_netif(netif, groupaddr);
 1288              		.loc 1 462 0
 1289 0022 3D23     		movs	r3, #61
 1290 0024 E35C     		ldrb	r3, [r4, r3]
 1291 0026 9B06     		lsls	r3, r3, #26
 1292 0028 0DD5     		bpl	.L97
 462:Source\LwIP\src\core\ipv4/igmp.c ****       err = igmp_joingroup_netif(netif, groupaddr);
 1293              		.loc 1 462 0 is_stmt 0 discriminator 1
 1294 002a 002E     		cmp	r6, #0
 1295 002c 05D0     		beq	.L98
 462:Source\LwIP\src\core\ipv4/igmp.c ****       err = igmp_joingroup_netif(netif, groupaddr);
 1296              		.loc 1 462 0 discriminator 2
 1297 002e 3368     		ldr	r3, [r6]
 1298 0030 002B     		cmp	r3, #0
 1299 0032 02D0     		beq	.L98
 462:Source\LwIP\src\core\ipv4/igmp.c ****       err = igmp_joingroup_netif(netif, groupaddr);
 1300              		.loc 1 462 0 discriminator 3
 1301 0034 6268     		ldr	r2, [r4, #4]
 1302 0036 9342     		cmp	r3, r2
 1303 0038 05D1     		bne	.L97
 1304              	.L98:
 463:Source\LwIP\src\core\ipv4/igmp.c ****       if (err != ERR_OK) {
 1305              		.loc 1 463 0 is_stmt 1
 1306 003a 2900     		movs	r1, r5
 1307 003c 2000     		movs	r0, r4
 1308              	.LVL134:
 1309 003e FFF7FEFF 		bl	igmp_joingroup_netif
 1310              	.LVL135:
 464:Source\LwIP\src\core\ipv4/igmp.c ****         /* Return an error even if some network interfaces are joined */
 1311              		.loc 1 464 0
 1312 0042 0028     		cmp	r0, #0
 1313 0044 08D1     		bne	.L95
 1314              	.LVL136:
 1315              	.L97:
 471:Source\LwIP\src\core\ipv4/igmp.c ****   }
 1316              		.loc 1 471 0
 1317 0046 2468     		ldr	r4, [r4]
 1318              	.LVL137:
 1319              	.L96:
 460:Source\LwIP\src\core\ipv4/igmp.c ****     /* Should we join this interface ? */
 1320              		.loc 1 460 0
 1321 0048 002C     		cmp	r4, #0
 1322 004a EAD1     		bne	.L99
 1323 004c 04E0     		b	.L95
 1324              	.LVL138:
ARM GAS  C:\Users\Phuong\AppData\Local\Temp\ccKPluhm.s 			page 41


 1325              	.L100:
 455:Source\LwIP\src\core\ipv4/igmp.c ****   LWIP_ERROR("igmp_joingroup: attempt to join allsystems address", (!ip4_addr_cmp(groupaddr, &allsy
 1326              		.loc 1 455 0
 1327 004e 0620     		movs	r0, #6
 1328              	.LVL139:
 1329 0050 4042     		rsbs	r0, r0, #0
 1330 0052 01E0     		b	.L95
 1331              	.LVL140:
 1332              	.L101:
 456:Source\LwIP\src\core\ipv4/igmp.c **** 
 1333              		.loc 1 456 0
 1334 0054 0620     		movs	r0, #6
 1335              	.LVL141:
 1336 0056 4042     		rsbs	r0, r0, #0
 1337              	.LVL142:
 1338              	.L95:
 475:Source\LwIP\src\core\ipv4/igmp.c **** 
 1339              		.loc 1 475 0
 1340              		@ sp needed
 1341              	.LVL143:
 1342              	.LVL144:
 1343 0058 70BD     		pop	{r4, r5, r6, pc}
 1344              	.L104:
 1345 005a C046     		.align	2
 1346              	.L103:
 1347 005c 00000000 		.word	.LANCHOR0
 1348 0060 00000000 		.word	netif_list
 1349              		.cfi_endproc
 1350              	.LFE61:
 1351              		.size	igmp_joingroup, .-igmp_joingroup
 1352              		.section	.text.igmp_leavegroup_netif,"ax",%progbits
 1353              		.align	2
 1354              		.global	igmp_leavegroup_netif
 1355              		.code	16
 1356              		.thumb_func
 1357              		.type	igmp_leavegroup_netif, %function
 1358              	igmp_leavegroup_netif:
 1359              	.LFB64:
 582:Source\LwIP\src\core\ipv4/igmp.c ****   struct igmp_group *group;
 1360              		.loc 1 582 0
 1361              		.cfi_startproc
 1362              		@ args = 0, pretend = 0, frame = 0
 1363              		@ frame_needed = 0, uses_anonymous_args = 0
 1364              	.LVL145:
 1365 0000 70B5     		push	{r4, r5, r6, lr}
 1366              		.cfi_def_cfa_offset 16
 1367              		.cfi_offset 4, -16
 1368              		.cfi_offset 5, -12
 1369              		.cfi_offset 6, -8
 1370              		.cfi_offset 14, -4
 1371 0002 0400     		movs	r4, r0
 1372 0004 0E00     		movs	r6, r1
 586:Source\LwIP\src\core\ipv4/igmp.c ****   LWIP_ERROR("igmp_leavegroup_netif: attempt to leave allsystems address", (!ip4_addr_cmp(groupaddr
 1373              		.loc 1 586 0
 1374 0006 0A68     		ldr	r2, [r1]
 1375 0008 F023     		movs	r3, #240
 1376 000a 1340     		ands	r3, r2
ARM GAS  C:\Users\Phuong\AppData\Local\Temp\ccKPluhm.s 			page 42


 1377 000c E02B     		cmp	r3, #224
 1378 000e 30D1     		bne	.L110
 587:Source\LwIP\src\core\ipv4/igmp.c **** 
 1379              		.loc 1 587 0
 1380 0010 1E4B     		ldr	r3, .L114
 1381 0012 5B68     		ldr	r3, [r3, #4]
 1382 0014 9A42     		cmp	r2, r3
 1383 0016 2FD0     		beq	.L111
 590:Source\LwIP\src\core\ipv4/igmp.c **** 
 1384              		.loc 1 590 0
 1385 0018 3D23     		movs	r3, #61
 1386 001a C35C     		ldrb	r3, [r0, r3]
 1387 001c 9B06     		lsls	r3, r3, #26
 1388 001e 2ED5     		bpl	.L112
 593:Source\LwIP\src\core\ipv4/igmp.c **** 
 1389              		.loc 1 593 0
 1390 0020 FFF7FEFF 		bl	igmp_lookfor_group
 1391              	.LVL146:
 1392 0024 051E     		subs	r5, r0, #0
 1393              	.LVL147:
 595:Source\LwIP\src\core\ipv4/igmp.c ****     /* Only send a leave if the flag is set according to the state diagram */
 1394              		.loc 1 595 0
 1395 0026 2DD0     		beq	.L113
 602:Source\LwIP\src\core\ipv4/igmp.c ****       /* Remove the group from the list */
 1396              		.loc 1 602 0
 1397 0028 037B     		ldrb	r3, [r0, #12]
 1398 002a 012B     		cmp	r3, #1
 1399 002c 1DD8     		bhi	.L107
 604:Source\LwIP\src\core\ipv4/igmp.c **** 
 1400              		.loc 1 604 0
 1401 002e 0100     		movs	r1, r0
 1402 0030 2000     		movs	r0, r4
 1403              	.LVL148:
 1404 0032 FFF7FEFF 		bl	igmp_remove_group
 1405              	.LVL149:
 607:Source\LwIP\src\core\ipv4/igmp.c ****         LWIP_DEBUGF(IGMP_DEBUG, ("igmp_leavegroup_netif: sending leaving group\n"));
 1406              		.loc 1 607 0
 1407 0036 2B7A     		ldrb	r3, [r5, #8]
 1408 0038 002B     		cmp	r3, #0
 1409 003a 09D0     		beq	.L108
 609:Source\LwIP\src\core\ipv4/igmp.c ****         igmp_send(netif, group, IGMP_LEAVE_GROUP);
 1410              		.loc 1 609 0
 1411 003c 1449     		ldr	r1, .L114+4
 1412 003e 9022     		movs	r2, #144
 1413 0040 8B5A     		ldrh	r3, [r1, r2]
 1414 0042 0133     		adds	r3, r3, #1
 1415 0044 8B52     		strh	r3, [r1, r2]
 610:Source\LwIP\src\core\ipv4/igmp.c ****       }
 1416              		.loc 1 610 0
 1417 0046 793A     		subs	r2, r2, #121
 1418 0048 2900     		movs	r1, r5
 1419 004a 2000     		movs	r0, r4
 1420 004c FFF7FEFF 		bl	igmp_send
 1421              	.LVL150:
 1422              	.L108:
 614:Source\LwIP\src\core\ipv4/igmp.c ****         LWIP_DEBUGF(IGMP_DEBUG, ("igmp_leavegroup_netif: igmp_mac_filter(DEL "));
 1423              		.loc 1 614 0
ARM GAS  C:\Users\Phuong\AppData\Local\Temp\ccKPluhm.s 			page 43


 1424 0050 636C     		ldr	r3, [r4, #68]
 1425 0052 002B     		cmp	r3, #0
 1426 0054 03D0     		beq	.L109
 618:Source\LwIP\src\core\ipv4/igmp.c ****       }
 1427              		.loc 1 618 0
 1428 0056 0022     		movs	r2, #0
 1429 0058 3100     		movs	r1, r6
 1430 005a 2000     		movs	r0, r4
 1431 005c 9847     		blx	r3
 1432              	.LVL151:
 1433              	.L109:
 622:Source\LwIP\src\core\ipv4/igmp.c ****     } else {
 1434              		.loc 1 622 0
 1435 005e 2900     		movs	r1, r5
 1436 0060 0B20     		movs	r0, #11
 1437 0062 FFF7FEFF 		bl	memp_free
 1438              	.LVL152:
 627:Source\LwIP\src\core\ipv4/igmp.c ****   } else {
 1439              		.loc 1 627 0
 1440 0066 0020     		movs	r0, #0
 1441 0068 0EE0     		b	.L106
 1442              	.LVL153:
 1443              	.L107:
 625:Source\LwIP\src\core\ipv4/igmp.c ****     }
 1444              		.loc 1 625 0
 1445 006a 013B     		subs	r3, r3, #1
 1446 006c 0373     		strb	r3, [r0, #12]
 627:Source\LwIP\src\core\ipv4/igmp.c ****   } else {
 1447              		.loc 1 627 0
 1448 006e 0020     		movs	r0, #0
 1449              	.LVL154:
 1450 0070 0AE0     		b	.L106
 1451              	.LVL155:
 1452              	.L110:
 586:Source\LwIP\src\core\ipv4/igmp.c ****   LWIP_ERROR("igmp_leavegroup_netif: attempt to leave allsystems address", (!ip4_addr_cmp(groupaddr
 1453              		.loc 1 586 0
 1454 0072 0620     		movs	r0, #6
 1455              	.LVL156:
 1456 0074 4042     		rsbs	r0, r0, #0
 1457 0076 07E0     		b	.L106
 1458              	.LVL157:
 1459              	.L111:
 587:Source\LwIP\src\core\ipv4/igmp.c **** 
 1460              		.loc 1 587 0
 1461 0078 0620     		movs	r0, #6
 1462              	.LVL158:
 1463 007a 4042     		rsbs	r0, r0, #0
 1464 007c 04E0     		b	.L106
 1465              	.LVL159:
 1466              	.L112:
 590:Source\LwIP\src\core\ipv4/igmp.c **** 
 1467              		.loc 1 590 0
 1468 007e 0620     		movs	r0, #6
 1469              	.LVL160:
 1470 0080 4042     		rsbs	r0, r0, #0
 1471 0082 01E0     		b	.L106
 1472              	.LVL161:
ARM GAS  C:\Users\Phuong\AppData\Local\Temp\ccKPluhm.s 			page 44


 1473              	.L113:
 630:Source\LwIP\src\core\ipv4/igmp.c ****   }
 1474              		.loc 1 630 0
 1475 0084 0620     		movs	r0, #6
 1476              	.LVL162:
 1477 0086 4042     		rsbs	r0, r0, #0
 1478              	.LVL163:
 1479              	.L106:
 632:Source\LwIP\src\core\ipv4/igmp.c **** 
 1480              		.loc 1 632 0
 1481              		@ sp needed
 1482              	.LVL164:
 1483              	.LVL165:
 1484 0088 70BD     		pop	{r4, r5, r6, pc}
 1485              	.L115:
 1486 008a C046     		.align	2
 1487              	.L114:
 1488 008c 00000000 		.word	.LANCHOR0
 1489 0090 00000000 		.word	lwip_stats
 1490              		.cfi_endproc
 1491              	.LFE64:
 1492              		.size	igmp_leavegroup_netif, .-igmp_leavegroup_netif
 1493              		.section	.text.igmp_leavegroup,"ax",%progbits
 1494              		.align	2
 1495              		.global	igmp_leavegroup
 1496              		.code	16
 1497              		.thumb_func
 1498              		.type	igmp_leavegroup, %function
 1499              	igmp_leavegroup:
 1500              	.LFB63:
 546:Source\LwIP\src\core\ipv4/igmp.c ****   err_t err = ERR_VAL; /* no matching interface */
 1501              		.loc 1 546 0
 1502              		.cfi_startproc
 1503              		@ args = 0, pretend = 0, frame = 0
 1504              		@ frame_needed = 0, uses_anonymous_args = 0
 1505              	.LVL166:
 1506 0000 F8B5     		push	{r3, r4, r5, r6, r7, lr}
 1507              		.cfi_def_cfa_offset 24
 1508              		.cfi_offset 3, -24
 1509              		.cfi_offset 4, -20
 1510              		.cfi_offset 5, -16
 1511              		.cfi_offset 6, -12
 1512              		.cfi_offset 7, -8
 1513              		.cfi_offset 14, -4
 1514 0002 0500     		movs	r5, r0
 1515 0004 0F00     		movs	r7, r1
 1516              	.LVL167:
 551:Source\LwIP\src\core\ipv4/igmp.c ****   LWIP_ERROR("igmp_leavegroup: attempt to leave allsystems address", (!ip4_addr_cmp(groupaddr, &all
 1517              		.loc 1 551 0
 1518 0006 0A68     		ldr	r2, [r1]
 1519 0008 F023     		movs	r3, #240
 1520 000a 1340     		ands	r3, r2
 1521 000c E02B     		cmp	r3, #224
 1522 000e 20D1     		bne	.L122
 552:Source\LwIP\src\core\ipv4/igmp.c **** 
 1523              		.loc 1 552 0
 1524 0010 134B     		ldr	r3, .L125
ARM GAS  C:\Users\Phuong\AppData\Local\Temp\ccKPluhm.s 			page 45


 1525 0012 5B68     		ldr	r3, [r3, #4]
 1526 0014 9A42     		cmp	r2, r3
 1527 0016 1FD0     		beq	.L123
 555:Source\LwIP\src\core\ipv4/igmp.c ****   while (netif != NULL) {
 1528              		.loc 1 555 0
 1529 0018 124B     		ldr	r3, .L125+4
 1530 001a 1C68     		ldr	r4, [r3]
 1531              	.LVL168:
 547:Source\LwIP\src\core\ipv4/igmp.c ****   struct netif *netif;
 1532              		.loc 1 547 0
 1533 001c 0626     		movs	r6, #6
 1534 001e 7642     		rsbs	r6, r6, #0
 556:Source\LwIP\src\core\ipv4/igmp.c ****     /* Should we leave this interface ? */
 1535              		.loc 1 556 0
 1536 0020 13E0     		b	.L118
 1537              	.LVL169:
 1538              	.L121:
 558:Source\LwIP\src\core\ipv4/igmp.c ****       err_t res = igmp_leavegroup_netif(netif, groupaddr);
 1539              		.loc 1 558 0
 1540 0022 3D23     		movs	r3, #61
 1541 0024 E35C     		ldrb	r3, [r4, r3]
 1542 0026 9B06     		lsls	r3, r3, #26
 1543 0028 0ED5     		bpl	.L119
 558:Source\LwIP\src\core\ipv4/igmp.c ****       err_t res = igmp_leavegroup_netif(netif, groupaddr);
 1544              		.loc 1 558 0 is_stmt 0 discriminator 1
 1545 002a 002D     		cmp	r5, #0
 1546 002c 05D0     		beq	.L120
 558:Source\LwIP\src\core\ipv4/igmp.c ****       err_t res = igmp_leavegroup_netif(netif, groupaddr);
 1547              		.loc 1 558 0 discriminator 2
 1548 002e 2B68     		ldr	r3, [r5]
 1549 0030 002B     		cmp	r3, #0
 1550 0032 02D0     		beq	.L120
 558:Source\LwIP\src\core\ipv4/igmp.c ****       err_t res = igmp_leavegroup_netif(netif, groupaddr);
 1551              		.loc 1 558 0 discriminator 3
 1552 0034 6268     		ldr	r2, [r4, #4]
 1553 0036 9342     		cmp	r3, r2
 1554 0038 06D1     		bne	.L119
 1555              	.L120:
 1556              	.LBB4:
 559:Source\LwIP\src\core\ipv4/igmp.c ****       if (err != ERR_OK) {
 1557              		.loc 1 559 0 is_stmt 1
 1558 003a 3900     		movs	r1, r7
 1559 003c 2000     		movs	r0, r4
 1560 003e FFF7FEFF 		bl	igmp_leavegroup_netif
 1561              	.LVL170:
 560:Source\LwIP\src\core\ipv4/igmp.c ****         /* Store this result if we have not yet gotten a success */
 1562              		.loc 1 560 0
 1563 0042 002E     		cmp	r6, #0
 1564 0044 00D0     		beq	.L119
 562:Source\LwIP\src\core\ipv4/igmp.c ****       }
 1565              		.loc 1 562 0
 1566 0046 0600     		movs	r6, r0
 1567              	.LVL171:
 1568              	.L119:
 1569              	.LBE4:
 566:Source\LwIP\src\core\ipv4/igmp.c ****   }
 1570              		.loc 1 566 0
ARM GAS  C:\Users\Phuong\AppData\Local\Temp\ccKPluhm.s 			page 46


 1571 0048 2468     		ldr	r4, [r4]
 1572              	.LVL172:
 1573              	.L118:
 556:Source\LwIP\src\core\ipv4/igmp.c ****     /* Should we leave this interface ? */
 1574              		.loc 1 556 0
 1575 004a 002C     		cmp	r4, #0
 1576 004c E9D1     		bne	.L121
 569:Source\LwIP\src\core\ipv4/igmp.c **** }
 1577              		.loc 1 569 0
 1578 004e 3000     		movs	r0, r6
 1579 0050 04E0     		b	.L117
 1580              	.LVL173:
 1581              	.L122:
 551:Source\LwIP\src\core\ipv4/igmp.c ****   LWIP_ERROR("igmp_leavegroup: attempt to leave allsystems address", (!ip4_addr_cmp(groupaddr, &all
 1582              		.loc 1 551 0
 1583 0052 0620     		movs	r0, #6
 1584              	.LVL174:
 1585 0054 4042     		rsbs	r0, r0, #0
 1586 0056 01E0     		b	.L117
 1587              	.LVL175:
 1588              	.L123:
 552:Source\LwIP\src\core\ipv4/igmp.c **** 
 1589              		.loc 1 552 0
 1590 0058 0620     		movs	r0, #6
 1591              	.LVL176:
 1592 005a 4042     		rsbs	r0, r0, #0
 1593              	.LVL177:
 1594              	.L117:
 570:Source\LwIP\src\core\ipv4/igmp.c **** 
 1595              		.loc 1 570 0
 1596              		@ sp needed
 1597              	.LVL178:
 1598              	.LVL179:
 1599 005c F8BD     		pop	{r3, r4, r5, r6, r7, pc}
 1600              	.L126:
 1601 005e C046     		.align	2
 1602              	.L125:
 1603 0060 00000000 		.word	.LANCHOR0
 1604 0064 00000000 		.word	netif_list
 1605              		.cfi_endproc
 1606              	.LFE63:
 1607              		.size	igmp_leavegroup, .-igmp_leavegroup
 1608              		.section	.text.igmp_tmr,"ax",%progbits
 1609              		.align	2
 1610              		.global	igmp_tmr
 1611              		.code	16
 1612              		.thumb_func
 1613              		.type	igmp_tmr, %function
 1614              	igmp_tmr:
 1615              	.LFB65:
 640:Source\LwIP\src\core\ipv4/igmp.c ****   struct netif *netif = netif_list;
 1616              		.loc 1 640 0
 1617              		.cfi_startproc
 1618              		@ args = 0, pretend = 0, frame = 0
 1619              		@ frame_needed = 0, uses_anonymous_args = 0
 1620 0000 70B5     		push	{r4, r5, r6, lr}
 1621              		.cfi_def_cfa_offset 16
ARM GAS  C:\Users\Phuong\AppData\Local\Temp\ccKPluhm.s 			page 47


 1622              		.cfi_offset 4, -16
 1623              		.cfi_offset 5, -12
 1624              		.cfi_offset 6, -8
 1625              		.cfi_offset 14, -4
 641:Source\LwIP\src\core\ipv4/igmp.c **** 
 1626              		.loc 1 641 0
 1627 0002 0C4B     		ldr	r3, .L133
 1628 0004 1D68     		ldr	r5, [r3]
 1629              	.LVL180:
 643:Source\LwIP\src\core\ipv4/igmp.c ****     struct igmp_group *group = netif_igmp_data(netif);
 1630              		.loc 1 643 0
 1631 0006 11E0     		b	.L128
 1632              	.L132:
 1633              	.LBB5:
 644:Source\LwIP\src\core\ipv4/igmp.c **** 
 1634              		.loc 1 644 0
 1635 0008 AC6A     		ldr	r4, [r5, #40]
 1636              	.LVL181:
 646:Source\LwIP\src\core\ipv4/igmp.c ****       if (group->timer > 0) {
 1637              		.loc 1 646 0
 1638 000a 0CE0     		b	.L129
 1639              	.L131:
 647:Source\LwIP\src\core\ipv4/igmp.c ****         group->timer--;
 1640              		.loc 1 647 0
 1641 000c 6389     		ldrh	r3, [r4, #10]
 1642 000e 002B     		cmp	r3, #0
 1643 0010 08D0     		beq	.L130
 648:Source\LwIP\src\core\ipv4/igmp.c ****         if (group->timer == 0) {
 1644              		.loc 1 648 0
 1645 0012 013B     		subs	r3, r3, #1
 1646 0014 9BB2     		uxth	r3, r3
 1647 0016 6381     		strh	r3, [r4, #10]
 649:Source\LwIP\src\core\ipv4/igmp.c ****           igmp_timeout(netif, group);
 1648              		.loc 1 649 0
 1649 0018 002B     		cmp	r3, #0
 1650 001a 03D1     		bne	.L130
 650:Source\LwIP\src\core\ipv4/igmp.c ****         }
 1651              		.loc 1 650 0
 1652 001c 2100     		movs	r1, r4
 1653 001e 2800     		movs	r0, r5
 1654 0020 FFF7FEFF 		bl	igmp_timeout
 1655              	.LVL182:
 1656              	.L130:
 653:Source\LwIP\src\core\ipv4/igmp.c ****     }
 1657              		.loc 1 653 0
 1658 0024 2468     		ldr	r4, [r4]
 1659              	.LVL183:
 1660              	.L129:
 646:Source\LwIP\src\core\ipv4/igmp.c ****       if (group->timer > 0) {
 1661              		.loc 1 646 0
 1662 0026 002C     		cmp	r4, #0
 1663 0028 F0D1     		bne	.L131
 655:Source\LwIP\src\core\ipv4/igmp.c ****   }
 1664              		.loc 1 655 0
 1665 002a 2D68     		ldr	r5, [r5]
 1666              	.LVL184:
 1667              	.L128:
ARM GAS  C:\Users\Phuong\AppData\Local\Temp\ccKPluhm.s 			page 48


 1668              	.LBE5:
 643:Source\LwIP\src\core\ipv4/igmp.c ****     struct igmp_group *group = netif_igmp_data(netif);
 1669              		.loc 1 643 0
 1670 002c 002D     		cmp	r5, #0
 1671 002e EBD1     		bne	.L132
 657:Source\LwIP\src\core\ipv4/igmp.c **** 
 1672              		.loc 1 657 0
 1673              		@ sp needed
 1674              	.LVL185:
 1675 0030 70BD     		pop	{r4, r5, r6, pc}
 1676              	.L134:
 1677 0032 C046     		.align	2
 1678              	.L133:
 1679 0034 00000000 		.word	netif_list
 1680              		.cfi_endproc
 1681              	.LFE65:
 1682              		.size	igmp_tmr, .-igmp_tmr
 1683              		.section	.rodata.str1.4,"aMS",%progbits,1
 1684              		.align	2
 1685              	.LC7:
 1686 0000 536F7572 		.ascii	"Source\\LwIP\\src\\core\\ipv4\\igmp.c\000"
 1686      63655C4C 
 1686      7749505C 
 1686      7372635C 
 1686      636F7265 
 1687              		.bss
 1688              		.align	2
 1689              		.set	.LANCHOR0,. + 0
 1690              		.type	allrouters, %object
 1691              		.size	allrouters, 4
 1692              	allrouters:
 1693 0000 00000000 		.space	4
 1694              		.type	allsystems, %object
 1695              		.size	allsystems, 4
 1696              	allsystems:
 1697 0004 00000000 		.space	4
 1698              		.text
 1699              	.Letext0:
 1700              		.file 2 "c:\\program files (x86)\\cypress\\psoc creator\\4.2\\psoc creator\\import\\gnu\\arm\\5.4.
 1701              		.file 3 "c:\\program files (x86)\\cypress\\psoc creator\\4.2\\psoc creator\\import\\gnu\\arm\\5.4.
 1702              		.file 4 "c:\\program files (x86)\\cypress\\psoc creator\\4.2\\psoc creator\\import\\gnu\\arm\\5.4.
 1703              		.file 5 ".\\Source\\LwIP\\src\\include/arch/cc.h"
 1704              		.file 6 ".\\Source\\LwIP\\src\\include/lwip/ip4_addr.h"
 1705              		.file 7 ".\\Source\\LwIP\\src\\include/lwip/ip_addr.h"
 1706              		.file 8 ".\\Source\\LwIP\\src\\include/lwip/err.h"
 1707              		.file 9 ".\\Source\\LwIP\\src\\include/lwip/pbuf.h"
 1708              		.file 10 ".\\Source\\LwIP\\src\\include/lwip/mem.h"
 1709              		.file 11 ".\\Source\\LwIP\\src\\include/lwip/memp.h"
 1710              		.file 12 ".\\Source\\LwIP\\src\\include/lwip/stats.h"
 1711              		.file 13 ".\\Source\\LwIP\\src\\include/lwip/netif.h"
 1712              		.file 14 ".\\Source\\LwIP\\src\\include/lwip/igmp.h"
 1713              		.file 15 ".\\Source\\LwIP\\src\\include/lwip/prot/ip4.h"
 1714              		.file 16 ".\\Source\\LwIP\\src\\include/lwip/ip.h"
 1715              		.file 17 ".\\Source\\LwIP\\src\\include/lwip/prot/igmp.h"
 1716              		.file 18 ".\\Source\\LwIP\\src\\include/arch/sys_arch.h"
 1717              		.file 19 ".\\Source\\LwIP\\src\\include/lwip/ip4.h"
 1718              		.file 20 ".\\Source\\LwIP\\src\\include/lwip/inet_chksum.h"
ARM GAS  C:\Users\Phuong\AppData\Local\Temp\ccKPluhm.s 			page 49


 1719              		.section	.debug_info,"",%progbits
 1720              	.Ldebug_info0:
 1721 0000 06130000 		.4byte	0x1306
 1722 0004 0400     		.2byte	0x4
 1723 0006 00000000 		.4byte	.Ldebug_abbrev0
 1724 000a 04       		.byte	0x4
 1725 000b 01       		.uleb128 0x1
 1726 000c 7A070000 		.4byte	.LASF204
 1727 0010 0C       		.byte	0xc
 1728 0011 F3090000 		.4byte	.LASF205
 1729 0015 C8040000 		.4byte	.LASF206
 1730 0019 00000000 		.4byte	.Ldebug_ranges0+0
 1731 001d 00000000 		.4byte	0
 1732 0021 00000000 		.4byte	.Ldebug_line0
 1733 0025 02       		.uleb128 0x2
 1734 0026 01       		.byte	0x1
 1735 0027 06       		.byte	0x6
 1736 0028 4C010000 		.4byte	.LASF0
 1737 002c 02       		.uleb128 0x2
 1738 002d 01       		.byte	0x1
 1739 002e 08       		.byte	0x8
 1740 002f 0F090000 		.4byte	.LASF1
 1741 0033 02       		.uleb128 0x2
 1742 0034 02       		.byte	0x2
 1743 0035 05       		.byte	0x5
 1744 0036 92060000 		.4byte	.LASF2
 1745 003a 02       		.uleb128 0x2
 1746 003b 02       		.byte	0x2
 1747 003c 07       		.byte	0x7
 1748 003d 7F030000 		.4byte	.LASF3
 1749 0041 02       		.uleb128 0x2
 1750 0042 04       		.byte	0x4
 1751 0043 05       		.byte	0x5
 1752 0044 BE010000 		.4byte	.LASF4
 1753 0048 03       		.uleb128 0x3
 1754 0049 AA020000 		.4byte	.LASF9
 1755 004d 02       		.byte	0x2
 1756 004e 41       		.byte	0x41
 1757 004f 53000000 		.4byte	0x53
 1758 0053 02       		.uleb128 0x2
 1759 0054 04       		.byte	0x4
 1760 0055 07       		.byte	0x7
 1761 0056 33030000 		.4byte	.LASF5
 1762 005a 02       		.uleb128 0x2
 1763 005b 08       		.byte	0x8
 1764 005c 05       		.byte	0x5
 1765 005d 3E010000 		.4byte	.LASF6
 1766 0061 02       		.uleb128 0x2
 1767 0062 08       		.byte	0x8
 1768 0063 07       		.byte	0x7
 1769 0064 CE000000 		.4byte	.LASF7
 1770 0068 04       		.uleb128 0x4
 1771 0069 04       		.byte	0x4
 1772 006a 05       		.byte	0x5
 1773 006b 696E7400 		.ascii	"int\000"
 1774 006f 02       		.uleb128 0x2
 1775 0070 04       		.byte	0x4
ARM GAS  C:\Users\Phuong\AppData\Local\Temp\ccKPluhm.s 			page 50


 1776 0071 07       		.byte	0x7
 1777 0072 3A080000 		.4byte	.LASF8
 1778 0076 03       		.uleb128 0x3
 1779 0077 CE020000 		.4byte	.LASF10
 1780 007b 03       		.byte	0x3
 1781 007c D8       		.byte	0xd8
 1782 007d 6F000000 		.4byte	0x6f
 1783 0081 02       		.uleb128 0x2
 1784 0082 08       		.byte	0x8
 1785 0083 04       		.byte	0x4
 1786 0084 0C080000 		.4byte	.LASF11
 1787 0088 05       		.uleb128 0x5
 1788 0089 04       		.byte	0x4
 1789 008a 02       		.uleb128 0x2
 1790 008b 04       		.byte	0x4
 1791 008c 07       		.byte	0x7
 1792 008d A0040000 		.4byte	.LASF12
 1793 0091 02       		.uleb128 0x2
 1794 0092 01       		.byte	0x1
 1795 0093 08       		.byte	0x8
 1796 0094 18080000 		.4byte	.LASF13
 1797 0098 06       		.uleb128 0x6
 1798 0099 04       		.byte	0x4
 1799 009a 9E000000 		.4byte	0x9e
 1800 009e 07       		.uleb128 0x7
 1801 009f 91000000 		.4byte	0x91
 1802 00a3 03       		.uleb128 0x3
 1803 00a4 5E070000 		.4byte	.LASF14
 1804 00a8 04       		.byte	0x4
 1805 00a9 30       		.byte	0x30
 1806 00aa 48000000 		.4byte	0x48
 1807 00ae 02       		.uleb128 0x2
 1808 00af 04       		.byte	0x4
 1809 00b0 04       		.byte	0x4
 1810 00b1 B4090000 		.4byte	.LASF15
 1811 00b5 02       		.uleb128 0x2
 1812 00b6 08       		.byte	0x8
 1813 00b7 04       		.byte	0x4
 1814 00b8 73020000 		.4byte	.LASF16
 1815 00bc 08       		.uleb128 0x8
 1816 00bd 88000000 		.4byte	0x88
 1817 00c1 CC000000 		.4byte	0xcc
 1818 00c5 09       		.uleb128 0x9
 1819 00c6 8A000000 		.4byte	0x8a
 1820 00ca 01       		.byte	0x1
 1821 00cb 00       		.byte	0
 1822 00cc 03       		.uleb128 0x3
 1823 00cd 06030000 		.4byte	.LASF17
 1824 00d1 05       		.byte	0x5
 1825 00d2 31       		.byte	0x31
 1826 00d3 2C000000 		.4byte	0x2c
 1827 00d7 03       		.uleb128 0x3
 1828 00d8 33070000 		.4byte	.LASF18
 1829 00dc 05       		.byte	0x5
 1830 00dd 32       		.byte	0x32
 1831 00de 25000000 		.4byte	0x25
 1832 00e2 03       		.uleb128 0x3
ARM GAS  C:\Users\Phuong\AppData\Local\Temp\ccKPluhm.s 			page 51


 1833 00e3 4A090000 		.4byte	.LASF19
 1834 00e7 05       		.byte	0x5
 1835 00e8 33       		.byte	0x33
 1836 00e9 3A000000 		.4byte	0x3a
 1837 00ed 03       		.uleb128 0x3
 1838 00ee 01060000 		.4byte	.LASF20
 1839 00f2 05       		.byte	0x5
 1840 00f3 34       		.byte	0x34
 1841 00f4 33000000 		.4byte	0x33
 1842 00f8 03       		.uleb128 0x3
 1843 00f9 51030000 		.4byte	.LASF21
 1844 00fd 05       		.byte	0x5
 1845 00fe 35       		.byte	0x35
 1846 00ff 53000000 		.4byte	0x53
 1847 0103 0A       		.uleb128 0xa
 1848 0104 E7010000 		.4byte	.LASF51
 1849 0108 04       		.byte	0x4
 1850 0109 06       		.byte	0x6
 1851 010a 33       		.byte	0x33
 1852 010b 1C010000 		.4byte	0x11c
 1853 010f 0B       		.uleb128 0xb
 1854 0110 E5000000 		.4byte	.LASF53
 1855 0114 06       		.byte	0x6
 1856 0115 34       		.byte	0x34
 1857 0116 F8000000 		.4byte	0xf8
 1858 011a 00       		.byte	0
 1859 011b 00       		.byte	0
 1860 011c 03       		.uleb128 0x3
 1861 011d 3F090000 		.4byte	.LASF22
 1862 0121 06       		.byte	0x6
 1863 0122 39       		.byte	0x39
 1864 0123 03010000 		.4byte	0x103
 1865 0127 08       		.uleb128 0x8
 1866 0128 E2000000 		.4byte	0xe2
 1867 012c 37010000 		.4byte	0x137
 1868 0130 09       		.uleb128 0x9
 1869 0131 8A000000 		.4byte	0x8a
 1870 0135 01       		.byte	0x1
 1871 0136 00       		.byte	0
 1872 0137 03       		.uleb128 0x3
 1873 0138 86040000 		.4byte	.LASF23
 1874 013c 07       		.byte	0x7
 1875 013d F4       		.byte	0xf4
 1876 013e 1C010000 		.4byte	0x11c
 1877 0142 03       		.uleb128 0x3
 1878 0143 9A040000 		.4byte	.LASF24
 1879 0147 08       		.byte	0x8
 1880 0148 39       		.byte	0x39
 1881 0149 D7000000 		.4byte	0xd7
 1882 014d 0C       		.uleb128 0xc
 1883 014e 01       		.byte	0x1
 1884 014f 25000000 		.4byte	0x25
 1885 0153 08       		.byte	0x8
 1886 0154 3D       		.byte	0x3d
 1887 0155 C0010000 		.4byte	0x1c0
 1888 0159 0D       		.uleb128 0xd
 1889 015a 73000000 		.4byte	.LASF25
ARM GAS  C:\Users\Phuong\AppData\Local\Temp\ccKPluhm.s 			page 52


 1890 015e 00       		.byte	0
 1891 015f 0E       		.uleb128 0xe
 1892 0160 74080000 		.4byte	.LASF26
 1893 0164 7F       		.sleb128 -1
 1894 0165 0E       		.uleb128 0xe
 1895 0166 50090000 		.4byte	.LASF27
 1896 016a 7E       		.sleb128 -2
 1897 016b 0E       		.uleb128 0xe
 1898 016c FA020000 		.4byte	.LASF28
 1899 0170 7D       		.sleb128 -3
 1900 0171 0E       		.uleb128 0xe
 1901 0172 2D090000 		.4byte	.LASF29
 1902 0176 7C       		.sleb128 -4
 1903 0177 0E       		.uleb128 0xe
 1904 0178 F2050000 		.4byte	.LASF30
 1905 017c 7B       		.sleb128 -5
 1906 017d 0E       		.uleb128 0xe
 1907 017e 2E060000 		.4byte	.LASF31
 1908 0182 7A       		.sleb128 -6
 1909 0183 0E       		.uleb128 0xe
 1910 0184 CB090000 		.4byte	.LASF32
 1911 0188 79       		.sleb128 -7
 1912 0189 0E       		.uleb128 0xe
 1913 018a 60010000 		.4byte	.LASF33
 1914 018e 78       		.sleb128 -8
 1915 018f 0E       		.uleb128 0xe
 1916 0190 45030000 		.4byte	.LASF34
 1917 0194 77       		.sleb128 -9
 1918 0195 0E       		.uleb128 0xe
 1919 0196 70090000 		.4byte	.LASF35
 1920 019a 76       		.sleb128 -10
 1921 019b 0E       		.uleb128 0xe
 1922 019c 5C060000 		.4byte	.LASF36
 1923 01a0 75       		.sleb128 -11
 1924 01a1 0E       		.uleb128 0xe
 1925 01a2 59020000 		.4byte	.LASF37
 1926 01a6 74       		.sleb128 -12
 1927 01a7 0E       		.uleb128 0xe
 1928 01a8 71070000 		.4byte	.LASF38
 1929 01ac 73       		.sleb128 -13
 1930 01ad 0E       		.uleb128 0xe
 1931 01ae 56070000 		.4byte	.LASF39
 1932 01b2 72       		.sleb128 -14
 1933 01b3 0E       		.uleb128 0xe
 1934 01b4 24090000 		.4byte	.LASF40
 1935 01b8 71       		.sleb128 -15
 1936 01b9 0E       		.uleb128 0xe
 1937 01ba 54060000 		.4byte	.LASF41
 1938 01be 70       		.sleb128 -16
 1939 01bf 00       		.byte	0
 1940 01c0 0C       		.uleb128 0xc
 1941 01c1 01       		.byte	0x1
 1942 01c2 2C000000 		.4byte	0x2c
 1943 01c6 09       		.byte	0x9
 1944 01c7 48       		.byte	0x48
 1945 01c8 EB010000 		.4byte	0x1eb
 1946 01cc 0D       		.uleb128 0xd
ARM GAS  C:\Users\Phuong\AppData\Local\Temp\ccKPluhm.s 			page 53


 1947 01cd ED030000 		.4byte	.LASF42
 1948 01d1 00       		.byte	0
 1949 01d2 0D       		.uleb128 0xd
 1950 01d3 5E0A0000 		.4byte	.LASF43
 1951 01d7 01       		.byte	0x1
 1952 01d8 0D       		.uleb128 0xd
 1953 01d9 E8050000 		.4byte	.LASF44
 1954 01dd 02       		.byte	0x2
 1955 01de 0D       		.uleb128 0xd
 1956 01df DA090000 		.4byte	.LASF45
 1957 01e3 03       		.byte	0x3
 1958 01e4 0D       		.uleb128 0xd
 1959 01e5 38070000 		.4byte	.LASF46
 1960 01e9 04       		.byte	0x4
 1961 01ea 00       		.byte	0
 1962 01eb 0C       		.uleb128 0xc
 1963 01ec 01       		.byte	0x1
 1964 01ed 2C000000 		.4byte	0x2c
 1965 01f1 09       		.byte	0x9
 1966 01f2 65       		.byte	0x65
 1967 01f3 10020000 		.4byte	0x210
 1968 01f7 0D       		.uleb128 0xd
 1969 01f8 D5060000 		.4byte	.LASF47
 1970 01fc 00       		.byte	0
 1971 01fd 0D       		.uleb128 0xd
 1972 01fe A6050000 		.4byte	.LASF48
 1973 0202 01       		.byte	0x1
 1974 0203 0D       		.uleb128 0xd
 1975 0204 16020000 		.4byte	.LASF49
 1976 0208 02       		.byte	0x2
 1977 0209 0D       		.uleb128 0xd
 1978 020a D0010000 		.4byte	.LASF50
 1979 020e 03       		.byte	0x3
 1980 020f 00       		.byte	0
 1981 0210 0A       		.uleb128 0xa
 1982 0211 65000000 		.4byte	.LASF52
 1983 0215 10       		.byte	0x10
 1984 0216 09       		.byte	0x9
 1985 0217 8E       		.byte	0x8e
 1986 0218 71020000 		.4byte	0x271
 1987 021c 0B       		.uleb128 0xb
 1988 021d 2A010000 		.4byte	.LASF54
 1989 0221 09       		.byte	0x9
 1990 0222 90       		.byte	0x90
 1991 0223 71020000 		.4byte	0x271
 1992 0227 00       		.byte	0
 1993 0228 0B       		.uleb128 0xb
 1994 0229 7D050000 		.4byte	.LASF55
 1995 022d 09       		.byte	0x9
 1996 022e 93       		.byte	0x93
 1997 022f 88000000 		.4byte	0x88
 1998 0233 04       		.byte	0x4
 1999 0234 0B       		.uleb128 0xb
 2000 0235 96010000 		.4byte	.LASF56
 2001 0239 09       		.byte	0x9
 2002 023a 9C       		.byte	0x9c
 2003 023b E2000000 		.4byte	0xe2
ARM GAS  C:\Users\Phuong\AppData\Local\Temp\ccKPluhm.s 			page 54


 2004 023f 08       		.byte	0x8
 2005 0240 0F       		.uleb128 0xf
 2006 0241 6C656E00 		.ascii	"len\000"
 2007 0245 09       		.byte	0x9
 2008 0246 9F       		.byte	0x9f
 2009 0247 E2000000 		.4byte	0xe2
 2010 024b 0A       		.byte	0xa
 2011 024c 0B       		.uleb128 0xb
 2012 024d B9000000 		.4byte	.LASF57
 2013 0251 09       		.byte	0x9
 2014 0252 A2       		.byte	0xa2
 2015 0253 CC000000 		.4byte	0xcc
 2016 0257 0C       		.byte	0xc
 2017 0258 0B       		.uleb128 0xb
 2018 0259 98090000 		.4byte	.LASF58
 2019 025d 09       		.byte	0x9
 2020 025e A5       		.byte	0xa5
 2021 025f CC000000 		.4byte	0xcc
 2022 0263 0D       		.byte	0xd
 2023 0264 0F       		.uleb128 0xf
 2024 0265 72656600 		.ascii	"ref\000"
 2025 0269 09       		.byte	0x9
 2026 026a AC       		.byte	0xac
 2027 026b E2000000 		.4byte	0xe2
 2028 026f 0E       		.byte	0xe
 2029 0270 00       		.byte	0
 2030 0271 06       		.uleb128 0x6
 2031 0272 04       		.byte	0x4
 2032 0273 10020000 		.4byte	0x210
 2033 0277 03       		.uleb128 0x3
 2034 0278 58090000 		.4byte	.LASF59
 2035 027c 0A       		.byte	0xa
 2036 027d 32       		.byte	0x32
 2037 027e 76000000 		.4byte	0x76
 2038 0282 0C       		.uleb128 0xc
 2039 0283 01       		.byte	0x1
 2040 0284 2C000000 		.4byte	0x2c
 2041 0288 0B       		.byte	0xb
 2042 0289 34       		.byte	0x34
 2043 028a F5020000 		.4byte	0x2f5
 2044 028e 0D       		.uleb128 0xd
 2045 028f DA010000 		.4byte	.LASF60
 2046 0293 00       		.byte	0
 2047 0294 0D       		.uleb128 0xd
 2048 0295 82020000 		.4byte	.LASF61
 2049 0299 01       		.byte	0x1
 2050 029a 0D       		.uleb128 0xd
 2051 029b 64030000 		.4byte	.LASF62
 2052 029f 02       		.byte	0x2
 2053 02a0 0D       		.uleb128 0xd
 2054 02a1 B5020000 		.4byte	.LASF63
 2055 02a5 03       		.byte	0x3
 2056 02a6 0D       		.uleb128 0xd
 2057 02a7 09010000 		.4byte	.LASF64
 2058 02ab 04       		.byte	0x4
 2059 02ac 0D       		.uleb128 0xd
 2060 02ad A0000000 		.4byte	.LASF65
ARM GAS  C:\Users\Phuong\AppData\Local\Temp\ccKPluhm.s 			page 55


 2061 02b1 05       		.byte	0x5
 2062 02b2 0D       		.uleb128 0xd
 2063 02b3 5C080000 		.4byte	.LASF66
 2064 02b7 06       		.byte	0x6
 2065 02b8 0D       		.uleb128 0xd
 2066 02b9 7C080000 		.4byte	.LASF67
 2067 02bd 07       		.byte	0x7
 2068 02be 0D       		.uleb128 0xd
 2069 02bf BB030000 		.4byte	.LASF68
 2070 02c3 08       		.byte	0x8
 2071 02c4 0D       		.uleb128 0xd
 2072 02c5 EE080000 		.4byte	.LASF69
 2073 02c9 09       		.byte	0x9
 2074 02ca 0D       		.uleb128 0xd
 2075 02cb 2F010000 		.4byte	.LASF70
 2076 02cf 0A       		.byte	0xa
 2077 02d0 0D       		.uleb128 0xd
 2078 02d1 19030000 		.4byte	.LASF71
 2079 02d5 0B       		.byte	0xb
 2080 02d6 0D       		.uleb128 0xd
 2081 02d7 54000000 		.4byte	.LASF72
 2082 02db 0C       		.byte	0xc
 2083 02dc 0D       		.uleb128 0xd
 2084 02dd 7A000000 		.4byte	.LASF73
 2085 02e1 0D       		.byte	0xd
 2086 02e2 0D       		.uleb128 0xd
 2087 02e3 29030000 		.4byte	.LASF74
 2088 02e7 0E       		.byte	0xe
 2089 02e8 0D       		.uleb128 0xd
 2090 02e9 92080000 		.4byte	.LASF75
 2091 02ed 0F       		.byte	0xf
 2092 02ee 0D       		.uleb128 0xd
 2093 02ef A1020000 		.4byte	.LASF76
 2094 02f3 10       		.byte	0x10
 2095 02f4 00       		.byte	0
 2096 02f5 0A       		.uleb128 0xa
 2097 02f6 86090000 		.4byte	.LASF77
 2098 02fa 18       		.byte	0x18
 2099 02fb 0C       		.byte	0xc
 2100 02fc 62       		.byte	0x62
 2101 02fd 4A030000 		.4byte	0x34a
 2102 0301 0B       		.uleb128 0xb
 2103 0302 57030000 		.4byte	.LASF78
 2104 0306 0C       		.byte	0xc
 2105 0307 64       		.byte	0x64
 2106 0308 98000000 		.4byte	0x98
 2107 030c 00       		.byte	0
 2108 030d 0F       		.uleb128 0xf
 2109 030e 65727200 		.ascii	"err\000"
 2110 0312 0C       		.byte	0xc
 2111 0313 66       		.byte	0x66
 2112 0314 E2000000 		.4byte	0xe2
 2113 0318 04       		.byte	0x4
 2114 0319 0B       		.uleb128 0xb
 2115 031a BA090000 		.4byte	.LASF79
 2116 031e 0C       		.byte	0xc
 2117 031f 67       		.byte	0x67
ARM GAS  C:\Users\Phuong\AppData\Local\Temp\ccKPluhm.s 			page 56


 2118 0320 77020000 		.4byte	0x277
 2119 0324 08       		.byte	0x8
 2120 0325 0B       		.uleb128 0xb
 2121 0326 C8050000 		.4byte	.LASF80
 2122 032a 0C       		.byte	0xc
 2123 032b 68       		.byte	0x68
 2124 032c 77020000 		.4byte	0x277
 2125 0330 0C       		.byte	0xc
 2126 0331 0F       		.uleb128 0xf
 2127 0332 6D617800 		.ascii	"max\000"
 2128 0336 0C       		.byte	0xc
 2129 0337 69       		.byte	0x69
 2130 0338 77020000 		.4byte	0x277
 2131 033c 10       		.byte	0x10
 2132 033d 0B       		.uleb128 0xb
 2133 033e 6B020000 		.4byte	.LASF81
 2134 0342 0C       		.byte	0xc
 2135 0343 6A       		.byte	0x6a
 2136 0344 E2000000 		.4byte	0xe2
 2137 0348 14       		.byte	0x14
 2138 0349 00       		.byte	0
 2139 034a 06       		.uleb128 0x6
 2140 034b 04       		.byte	0x4
 2141 034c F5020000 		.4byte	0x2f5
 2142 0350 0A       		.uleb128 0xa
 2143 0351 3B0A0000 		.4byte	.LASF82
 2144 0355 18       		.byte	0x18
 2145 0356 0C       		.byte	0xc
 2146 0357 40       		.byte	0x40
 2147 0358 EC030000 		.4byte	0x3ec
 2148 035c 0B       		.uleb128 0xb
 2149 035d 710A0000 		.4byte	.LASF83
 2150 0361 0C       		.byte	0xc
 2151 0362 41       		.byte	0x41
 2152 0363 E2000000 		.4byte	0xe2
 2153 0367 00       		.byte	0
 2154 0368 0B       		.uleb128 0xb
 2155 0369 33020000 		.4byte	.LASF84
 2156 036d 0C       		.byte	0xc
 2157 036e 42       		.byte	0x42
 2158 036f E2000000 		.4byte	0xe2
 2159 0373 02       		.byte	0x2
 2160 0374 0F       		.uleb128 0xf
 2161 0375 667700   		.ascii	"fw\000"
 2162 0378 0C       		.byte	0xc
 2163 0379 43       		.byte	0x43
 2164 037a E2000000 		.4byte	0xe2
 2165 037e 04       		.byte	0x4
 2166 037f 0B       		.uleb128 0xb
 2167 0380 AC060000 		.4byte	.LASF85
 2168 0384 0C       		.byte	0xc
 2169 0385 44       		.byte	0x44
 2170 0386 E2000000 		.4byte	0xe2
 2171 038a 06       		.byte	0x6
 2172 038b 0B       		.uleb128 0xb
 2173 038c C7000000 		.4byte	.LASF86
 2174 0390 0C       		.byte	0xc
ARM GAS  C:\Users\Phuong\AppData\Local\Temp\ccKPluhm.s 			page 57


 2175 0391 45       		.byte	0x45
 2176 0392 E2000000 		.4byte	0xe2
 2177 0396 08       		.byte	0x8
 2178 0397 0B       		.uleb128 0xb
 2179 0398 08000000 		.4byte	.LASF87
 2180 039c 0C       		.byte	0xc
 2181 039d 46       		.byte	0x46
 2182 039e E2000000 		.4byte	0xe2
 2183 03a2 0A       		.byte	0xa
 2184 03a3 0B       		.uleb128 0xb
 2185 03a4 02010000 		.4byte	.LASF88
 2186 03a8 0C       		.byte	0xc
 2187 03a9 47       		.byte	0x47
 2188 03aa E2000000 		.4byte	0xe2
 2189 03ae 0C       		.byte	0xc
 2190 03af 0B       		.uleb128 0xb
 2191 03b0 07060000 		.4byte	.LASF89
 2192 03b4 0C       		.byte	0xc
 2193 03b5 48       		.byte	0x48
 2194 03b6 E2000000 		.4byte	0xe2
 2195 03ba 0E       		.byte	0xe
 2196 03bb 0B       		.uleb128 0xb
 2197 03bc F2020000 		.4byte	.LASF90
 2198 03c0 0C       		.byte	0xc
 2199 03c1 49       		.byte	0x49
 2200 03c2 E2000000 		.4byte	0xe2
 2201 03c6 10       		.byte	0x10
 2202 03c7 0B       		.uleb128 0xb
 2203 03c8 B0080000 		.4byte	.LASF91
 2204 03cc 0C       		.byte	0xc
 2205 03cd 4A       		.byte	0x4a
 2206 03ce E2000000 		.4byte	0xe2
 2207 03d2 12       		.byte	0x12
 2208 03d3 0F       		.uleb128 0xf
 2209 03d4 65727200 		.ascii	"err\000"
 2210 03d8 0C       		.byte	0xc
 2211 03d9 4B       		.byte	0x4b
 2212 03da E2000000 		.4byte	0xe2
 2213 03de 14       		.byte	0x14
 2214 03df 0B       		.uleb128 0xb
 2215 03e0 16010000 		.4byte	.LASF92
 2216 03e4 0C       		.byte	0xc
 2217 03e5 4C       		.byte	0x4c
 2218 03e6 E2000000 		.4byte	0xe2
 2219 03ea 16       		.byte	0x16
 2220 03eb 00       		.byte	0
 2221 03ec 0A       		.uleb128 0xa
 2222 03ed E7020000 		.4byte	.LASF93
 2223 03f1 1C       		.byte	0x1c
 2224 03f2 0C       		.byte	0xc
 2225 03f3 50       		.byte	0x50
 2226 03f4 A1040000 		.4byte	0x4a1
 2227 03f8 0B       		.uleb128 0xb
 2228 03f9 710A0000 		.4byte	.LASF83
 2229 03fd 0C       		.byte	0xc
 2230 03fe 51       		.byte	0x51
 2231 03ff E2000000 		.4byte	0xe2
ARM GAS  C:\Users\Phuong\AppData\Local\Temp\ccKPluhm.s 			page 58


 2232 0403 00       		.byte	0
 2233 0404 0B       		.uleb128 0xb
 2234 0405 33020000 		.4byte	.LASF84
 2235 0409 0C       		.byte	0xc
 2236 040a 52       		.byte	0x52
 2237 040b E2000000 		.4byte	0xe2
 2238 040f 02       		.byte	0x2
 2239 0410 0B       		.uleb128 0xb
 2240 0411 AC060000 		.4byte	.LASF85
 2241 0415 0C       		.byte	0xc
 2242 0416 53       		.byte	0x53
 2243 0417 E2000000 		.4byte	0xe2
 2244 041b 04       		.byte	0x4
 2245 041c 0B       		.uleb128 0xb
 2246 041d C7000000 		.4byte	.LASF86
 2247 0421 0C       		.byte	0xc
 2248 0422 54       		.byte	0x54
 2249 0423 E2000000 		.4byte	0xe2
 2250 0427 06       		.byte	0x6
 2251 0428 0B       		.uleb128 0xb
 2252 0429 08000000 		.4byte	.LASF87
 2253 042d 0C       		.byte	0xc
 2254 042e 55       		.byte	0x55
 2255 042f E2000000 		.4byte	0xe2
 2256 0433 08       		.byte	0x8
 2257 0434 0B       		.uleb128 0xb
 2258 0435 02010000 		.4byte	.LASF88
 2259 0439 0C       		.byte	0xc
 2260 043a 56       		.byte	0x56
 2261 043b E2000000 		.4byte	0xe2
 2262 043f 0A       		.byte	0xa
 2263 0440 0B       		.uleb128 0xb
 2264 0441 F2020000 		.4byte	.LASF90
 2265 0445 0C       		.byte	0xc
 2266 0446 57       		.byte	0x57
 2267 0447 E2000000 		.4byte	0xe2
 2268 044b 0C       		.byte	0xc
 2269 044c 0B       		.uleb128 0xb
 2270 044d 4E060000 		.4byte	.LASF94
 2271 0451 0C       		.byte	0xc
 2272 0452 58       		.byte	0x58
 2273 0453 E2000000 		.4byte	0xe2
 2274 0457 0E       		.byte	0xe
 2275 0458 0B       		.uleb128 0xb
 2276 0459 89080000 		.4byte	.LASF95
 2277 045d 0C       		.byte	0xc
 2278 045e 59       		.byte	0x59
 2279 045f E2000000 		.4byte	0xe2
 2280 0463 10       		.byte	0x10
 2281 0464 0B       		.uleb128 0xb
 2282 0465 9E090000 		.4byte	.LASF96
 2283 0469 0C       		.byte	0xc
 2284 046a 5A       		.byte	0x5a
 2285 046b E2000000 		.4byte	0xe2
 2286 046f 12       		.byte	0x12
 2287 0470 0B       		.uleb128 0xb
 2288 0471 E3030000 		.4byte	.LASF97
ARM GAS  C:\Users\Phuong\AppData\Local\Temp\ccKPluhm.s 			page 59


 2289 0475 0C       		.byte	0xc
 2290 0476 5B       		.byte	0x5b
 2291 0477 E2000000 		.4byte	0xe2
 2292 047b 14       		.byte	0x14
 2293 047c 0B       		.uleb128 0xb
 2294 047d 00000000 		.4byte	.LASF98
 2295 0481 0C       		.byte	0xc
 2296 0482 5C       		.byte	0x5c
 2297 0483 E2000000 		.4byte	0xe2
 2298 0487 16       		.byte	0x16
 2299 0488 0B       		.uleb128 0xb
 2300 0489 CC060000 		.4byte	.LASF99
 2301 048d 0C       		.byte	0xc
 2302 048e 5D       		.byte	0x5d
 2303 048f E2000000 		.4byte	0xe2
 2304 0493 18       		.byte	0x18
 2305 0494 0B       		.uleb128 0xb
 2306 0495 260A0000 		.4byte	.LASF100
 2307 0499 0C       		.byte	0xc
 2308 049a 5E       		.byte	0x5e
 2309 049b E2000000 		.4byte	0xe2
 2310 049f 1A       		.byte	0x1a
 2311 04a0 00       		.byte	0
 2312 04a1 0A       		.uleb128 0xa
 2313 04a2 AF050000 		.4byte	.LASF101
 2314 04a6 06       		.byte	0x6
 2315 04a7 0C       		.byte	0xc
 2316 04a8 6E       		.byte	0x6e
 2317 04a9 D2040000 		.4byte	0x4d2
 2318 04ad 0B       		.uleb128 0xb
 2319 04ae C8050000 		.4byte	.LASF80
 2320 04b2 0C       		.byte	0xc
 2321 04b3 6F       		.byte	0x6f
 2322 04b4 E2000000 		.4byte	0xe2
 2323 04b8 00       		.byte	0
 2324 04b9 0F       		.uleb128 0xf
 2325 04ba 6D617800 		.ascii	"max\000"
 2326 04be 0C       		.byte	0xc
 2327 04bf 70       		.byte	0x70
 2328 04c0 E2000000 		.4byte	0xe2
 2329 04c4 02       		.byte	0x2
 2330 04c5 0F       		.uleb128 0xf
 2331 04c6 65727200 		.ascii	"err\000"
 2332 04ca 0C       		.byte	0xc
 2333 04cb 71       		.byte	0x71
 2334 04cc E2000000 		.4byte	0xe2
 2335 04d0 04       		.byte	0x4
 2336 04d1 00       		.byte	0
 2337 04d2 0A       		.uleb128 0xa
 2338 04d3 17040000 		.4byte	.LASF102
 2339 04d7 12       		.byte	0x12
 2340 04d8 0C       		.byte	0xc
 2341 04d9 75       		.byte	0x75
 2342 04da 03050000 		.4byte	0x503
 2343 04de 0F       		.uleb128 0xf
 2344 04df 73656D00 		.ascii	"sem\000"
 2345 04e3 0C       		.byte	0xc
ARM GAS  C:\Users\Phuong\AppData\Local\Temp\ccKPluhm.s 			page 60


 2346 04e4 76       		.byte	0x76
 2347 04e5 A1040000 		.4byte	0x4a1
 2348 04e9 00       		.byte	0
 2349 04ea 0B       		.uleb128 0xb
 2350 04eb 36060000 		.4byte	.LASF103
 2351 04ef 0C       		.byte	0xc
 2352 04f0 77       		.byte	0x77
 2353 04f1 A1040000 		.4byte	0x4a1
 2354 04f5 06       		.byte	0x6
 2355 04f6 0B       		.uleb128 0xb
 2356 04f7 81040000 		.4byte	.LASF104
 2357 04fb 0C       		.byte	0xc
 2358 04fc 78       		.byte	0x78
 2359 04fd A1040000 		.4byte	0x4a1
 2360 0501 0C       		.byte	0xc
 2361 0502 00       		.byte	0
 2362 0503 10       		.uleb128 0x10
 2363 0504 CD050000 		.4byte	.LASF105
 2364 0508 1801     		.2byte	0x118
 2365 050a 0C       		.byte	0xc
 2366 050b E8       		.byte	0xe8
 2367 050c 8D050000 		.4byte	0x58d
 2368 0510 0B       		.uleb128 0xb
 2369 0511 C9020000 		.4byte	.LASF106
 2370 0515 0C       		.byte	0xc
 2371 0516 EB       		.byte	0xeb
 2372 0517 50030000 		.4byte	0x350
 2373 051b 00       		.byte	0
 2374 051c 0B       		.uleb128 0xb
 2375 051d 1D090000 		.4byte	.LASF107
 2376 0521 0C       		.byte	0xc
 2377 0522 EF       		.byte	0xef
 2378 0523 50030000 		.4byte	0x350
 2379 0527 18       		.byte	0x18
 2380 0528 0B       		.uleb128 0xb
 2381 0529 98000000 		.4byte	.LASF108
 2382 052d 0C       		.byte	0xc
 2383 052e F3       		.byte	0xf3
 2384 052f 50030000 		.4byte	0x350
 2385 0533 30       		.byte	0x30
 2386 0534 0F       		.uleb128 0xf
 2387 0535 697000   		.ascii	"ip\000"
 2388 0538 0C       		.byte	0xc
 2389 0539 F7       		.byte	0xf7
 2390 053a 50030000 		.4byte	0x350
 2391 053e 48       		.byte	0x48
 2392 053f 0B       		.uleb128 0xb
 2393 0540 D4050000 		.4byte	.LASF109
 2394 0544 0C       		.byte	0xc
 2395 0545 FB       		.byte	0xfb
 2396 0546 50030000 		.4byte	0x350
 2397 054a 60       		.byte	0x60
 2398 054b 0B       		.uleb128 0xb
 2399 054c A9090000 		.4byte	.LASF110
 2400 0550 0C       		.byte	0xc
 2401 0551 FF       		.byte	0xff
 2402 0552 EC030000 		.4byte	0x3ec
ARM GAS  C:\Users\Phuong\AppData\Local\Temp\ccKPluhm.s 			page 61


 2403 0556 78       		.byte	0x78
 2404 0557 11       		.uleb128 0x11
 2405 0558 75647000 		.ascii	"udp\000"
 2406 055c 0C       		.byte	0xc
 2407 055d 0301     		.2byte	0x103
 2408 055f 50030000 		.4byte	0x350
 2409 0563 94       		.byte	0x94
 2410 0564 11       		.uleb128 0x11
 2411 0565 74637000 		.ascii	"tcp\000"
 2412 0569 0C       		.byte	0xc
 2413 056a 0701     		.2byte	0x107
 2414 056c 50030000 		.4byte	0x350
 2415 0570 AC       		.byte	0xac
 2416 0571 12       		.uleb128 0x12
 2417 0572 0F000000 		.4byte	.LASF111
 2418 0576 0C       		.byte	0xc
 2419 0577 0F01     		.2byte	0x10f
 2420 0579 8D050000 		.4byte	0x58d
 2421 057d C4       		.byte	0xc4
 2422 057e 13       		.uleb128 0x13
 2423 057f 73797300 		.ascii	"sys\000"
 2424 0583 0C       		.byte	0xc
 2425 0584 1301     		.2byte	0x113
 2426 0586 D2040000 		.4byte	0x4d2
 2427 058a 0401     		.2byte	0x104
 2428 058c 00       		.byte	0
 2429 058d 08       		.uleb128 0x8
 2430 058e 4A030000 		.4byte	0x34a
 2431 0592 9D050000 		.4byte	0x59d
 2432 0596 09       		.uleb128 0x9
 2433 0597 8A000000 		.4byte	0x8a
 2434 059b 0F       		.byte	0xf
 2435 059c 00       		.byte	0
 2436 059d 14       		.uleb128 0x14
 2437 059e F0010000 		.4byte	.LASF115
 2438 05a2 01       		.byte	0x1
 2439 05a3 2C000000 		.4byte	0x2c
 2440 05a7 0D       		.byte	0xd
 2441 05a8 6B       		.byte	0x6b
 2442 05a9 C0050000 		.4byte	0x5c0
 2443 05ad 0D       		.uleb128 0xd
 2444 05ae F7060000 		.4byte	.LASF112
 2445 05b2 00       		.byte	0
 2446 05b3 0D       		.uleb128 0xd
 2447 05b4 70060000 		.4byte	.LASF113
 2448 05b8 01       		.byte	0x1
 2449 05b9 0D       		.uleb128 0xd
 2450 05ba 38020000 		.4byte	.LASF114
 2451 05be 02       		.byte	0x2
 2452 05bf 00       		.byte	0
 2453 05c0 14       		.uleb128 0x14
 2454 05c1 21040000 		.4byte	.LASF116
 2455 05c5 01       		.byte	0x1
 2456 05c6 2C000000 		.4byte	0x2c
 2457 05ca 0D       		.byte	0xd
 2458 05cb 8F       		.byte	0x8f
 2459 05cc DD050000 		.4byte	0x5dd
ARM GAS  C:\Users\Phuong\AppData\Local\Temp\ccKPluhm.s 			page 62


 2460 05d0 0D       		.uleb128 0xd
 2461 05d1 CE030000 		.4byte	.LASF117
 2462 05d5 00       		.byte	0
 2463 05d6 0D       		.uleb128 0xd
 2464 05d7 41070000 		.4byte	.LASF118
 2465 05db 01       		.byte	0x1
 2466 05dc 00       		.byte	0
 2467 05dd 06       		.uleb128 0x6
 2468 05de 04       		.byte	0x4
 2469 05df E3050000 		.4byte	0x5e3
 2470 05e3 0A       		.uleb128 0xa
 2471 05e4 BD040000 		.4byte	.LASF119
 2472 05e8 48       		.byte	0x48
 2473 05e9 0D       		.byte	0xd
 2474 05ea E1       		.byte	0xe1
 2475 05eb DF060000 		.4byte	0x6df
 2476 05ef 0B       		.uleb128 0xb
 2477 05f0 2A010000 		.4byte	.LASF54
 2478 05f4 0D       		.byte	0xd
 2479 05f5 E3       		.byte	0xe3
 2480 05f6 DD050000 		.4byte	0x5dd
 2481 05fa 00       		.byte	0
 2482 05fb 0B       		.uleb128 0xb
 2483 05fc 9E050000 		.4byte	.LASF120
 2484 0600 0D       		.byte	0xd
 2485 0601 E7       		.byte	0xe7
 2486 0602 37010000 		.4byte	0x137
 2487 0606 04       		.byte	0x4
 2488 0607 0B       		.uleb128 0xb
 2489 0608 8F020000 		.4byte	.LASF121
 2490 060c 0D       		.byte	0xd
 2491 060d E8       		.byte	0xe8
 2492 060e 37010000 		.4byte	0x137
 2493 0612 08       		.byte	0x8
 2494 0613 0F       		.uleb128 0xf
 2495 0614 677700   		.ascii	"gw\000"
 2496 0617 0D       		.byte	0xd
 2497 0618 E9       		.byte	0xe9
 2498 0619 37010000 		.4byte	0x137
 2499 061d 0C       		.byte	0xc
 2500 061e 0B       		.uleb128 0xb
 2501 061f F1060000 		.4byte	.LASF122
 2502 0623 0D       		.byte	0xd
 2503 0624 F4       		.byte	0xf4
 2504 0625 DF060000 		.4byte	0x6df
 2505 0629 10       		.byte	0x10
 2506 062a 0B       		.uleb128 0xb
 2507 062b 7A040000 		.4byte	.LASF123
 2508 062f 0D       		.byte	0xd
 2509 0630 FA       		.byte	0xfa
 2510 0631 04070000 		.4byte	0x704
 2511 0635 14       		.byte	0x14
 2512 0636 0B       		.uleb128 0xb
 2513 0637 300A0000 		.4byte	.LASF124
 2514 063b 0D       		.byte	0xd
 2515 063c FF       		.byte	0xff
 2516 063d 39070000 		.4byte	0x739
ARM GAS  C:\Users\Phuong\AppData\Local\Temp\ccKPluhm.s 			page 63


 2517 0641 18       		.byte	0x18
 2518 0642 12       		.uleb128 0x12
 2519 0643 BC060000 		.4byte	.LASF125
 2520 0647 0D       		.byte	0xd
 2521 0648 0A01     		.2byte	0x10a
 2522 064a 5E070000 		.4byte	0x75e
 2523 064e 1C       		.byte	0x1c
 2524 064f 12       		.uleb128 0x12
 2525 0650 AF010000 		.4byte	.LASF126
 2526 0654 0D       		.byte	0xd
 2527 0655 1701     		.2byte	0x117
 2528 0657 88000000 		.4byte	0x88
 2529 065b 20       		.byte	0x20
 2530 065c 12       		.uleb128 0x12
 2531 065d 03090000 		.4byte	.LASF127
 2532 0661 0D       		.byte	0xd
 2533 0662 1901     		.2byte	0x119
 2534 0664 BC000000 		.4byte	0xbc
 2535 0668 24       		.byte	0x24
 2536 0669 12       		.uleb128 0x12
 2537 066a 6A000000 		.4byte	.LASF128
 2538 066e 0D       		.byte	0xd
 2539 066f 2101     		.2byte	0x121
 2540 0671 CC000000 		.4byte	0xcc
 2541 0675 2C       		.byte	0x2c
 2542 0676 12       		.uleb128 0x12
 2543 0677 B5010000 		.4byte	.LASF129
 2544 067b 0D       		.byte	0xd
 2545 067c 2501     		.2byte	0x125
 2546 067e 98000000 		.4byte	0x98
 2547 0682 30       		.byte	0x30
 2548 0683 11       		.uleb128 0x11
 2549 0684 6D747500 		.ascii	"mtu\000"
 2550 0688 0D       		.byte	0xd
 2551 0689 2B01     		.2byte	0x12b
 2552 068b E2000000 		.4byte	0xe2
 2553 068f 34       		.byte	0x34
 2554 0690 12       		.uleb128 0x12
 2555 0691 FC030000 		.4byte	.LASF130
 2556 0695 0D       		.byte	0xd
 2557 0696 2D01     		.2byte	0x12d
 2558 0698 CC000000 		.4byte	0xcc
 2559 069c 36       		.byte	0x36
 2560 069d 12       		.uleb128 0x12
 2561 069e 84010000 		.4byte	.LASF131
 2562 06a2 0D       		.byte	0xd
 2563 06a3 2F01     		.2byte	0x12f
 2564 06a5 A4070000 		.4byte	0x7a4
 2565 06a9 37       		.byte	0x37
 2566 06aa 12       		.uleb128 0x12
 2567 06ab 98090000 		.4byte	.LASF58
 2568 06af 0D       		.byte	0xd
 2569 06b0 3101     		.2byte	0x131
 2570 06b2 CC000000 		.4byte	0xcc
 2571 06b6 3D       		.byte	0x3d
 2572 06b7 12       		.uleb128 0x12
 2573 06b8 57030000 		.4byte	.LASF78
ARM GAS  C:\Users\Phuong\AppData\Local\Temp\ccKPluhm.s 			page 64


 2574 06bc 0D       		.byte	0xd
 2575 06bd 3301     		.2byte	0x133
 2576 06bf B4070000 		.4byte	0x7b4
 2577 06c3 3E       		.byte	0x3e
 2578 06c4 11       		.uleb128 0x11
 2579 06c5 6E756D00 		.ascii	"num\000"
 2580 06c9 0D       		.byte	0xd
 2581 06ca 3501     		.2byte	0x135
 2582 06cc CC000000 		.4byte	0xcc
 2583 06d0 40       		.byte	0x40
 2584 06d1 12       		.uleb128 0x12
 2585 06d2 6D050000 		.4byte	.LASF132
 2586 06d6 0D       		.byte	0xd
 2587 06d7 4301     		.2byte	0x143
 2588 06d9 7A070000 		.4byte	0x77a
 2589 06dd 44       		.byte	0x44
 2590 06de 00       		.byte	0
 2591 06df 03       		.uleb128 0x3
 2592 06e0 D9050000 		.4byte	.LASF133
 2593 06e4 0D       		.byte	0xd
 2594 06e5 A2       		.byte	0xa2
 2595 06e6 EA060000 		.4byte	0x6ea
 2596 06ea 06       		.uleb128 0x6
 2597 06eb 04       		.byte	0x4
 2598 06ec F0060000 		.4byte	0x6f0
 2599 06f0 15       		.uleb128 0x15
 2600 06f1 42010000 		.4byte	0x142
 2601 06f5 04070000 		.4byte	0x704
 2602 06f9 16       		.uleb128 0x16
 2603 06fa 71020000 		.4byte	0x271
 2604 06fe 16       		.uleb128 0x16
 2605 06ff DD050000 		.4byte	0x5dd
 2606 0703 00       		.byte	0
 2607 0704 03       		.uleb128 0x3
 2608 0705 9C060000 		.4byte	.LASF134
 2609 0709 0D       		.byte	0xd
 2610 070a AD       		.byte	0xad
 2611 070b 0F070000 		.4byte	0x70f
 2612 070f 06       		.uleb128 0x6
 2613 0710 04       		.byte	0x4
 2614 0711 15070000 		.4byte	0x715
 2615 0715 15       		.uleb128 0x15
 2616 0716 42010000 		.4byte	0x142
 2617 071a 2E070000 		.4byte	0x72e
 2618 071e 16       		.uleb128 0x16
 2619 071f DD050000 		.4byte	0x5dd
 2620 0723 16       		.uleb128 0x16
 2621 0724 71020000 		.4byte	0x271
 2622 0728 16       		.uleb128 0x16
 2623 0729 2E070000 		.4byte	0x72e
 2624 072d 00       		.byte	0
 2625 072e 06       		.uleb128 0x6
 2626 072f 04       		.byte	0x4
 2627 0730 34070000 		.4byte	0x734
 2628 0734 07       		.uleb128 0x7
 2629 0735 1C010000 		.4byte	0x11c
 2630 0739 03       		.uleb128 0x3
ARM GAS  C:\Users\Phuong\AppData\Local\Temp\ccKPluhm.s 			page 65


 2631 073a A9040000 		.4byte	.LASF135
 2632 073e 0D       		.byte	0xd
 2633 073f C4       		.byte	0xc4
 2634 0740 44070000 		.4byte	0x744
 2635 0744 06       		.uleb128 0x6
 2636 0745 04       		.byte	0x4
 2637 0746 4A070000 		.4byte	0x74a
 2638 074a 15       		.uleb128 0x15
 2639 074b 42010000 		.4byte	0x142
 2640 074f 5E070000 		.4byte	0x75e
 2641 0753 16       		.uleb128 0x16
 2642 0754 DD050000 		.4byte	0x5dd
 2643 0758 16       		.uleb128 0x16
 2644 0759 71020000 		.4byte	0x271
 2645 075d 00       		.byte	0
 2646 075e 03       		.uleb128 0x3
 2647 075f 22000000 		.4byte	.LASF136
 2648 0763 0D       		.byte	0xd
 2649 0764 C6       		.byte	0xc6
 2650 0765 69070000 		.4byte	0x769
 2651 0769 06       		.uleb128 0x6
 2652 076a 04       		.byte	0x4
 2653 076b 6F070000 		.4byte	0x76f
 2654 076f 17       		.uleb128 0x17
 2655 0770 7A070000 		.4byte	0x77a
 2656 0774 16       		.uleb128 0x16
 2657 0775 DD050000 		.4byte	0x5dd
 2658 0779 00       		.byte	0
 2659 077a 03       		.uleb128 0x3
 2660 077b 3B000000 		.4byte	.LASF137
 2661 077f 0D       		.byte	0xd
 2662 0780 C9       		.byte	0xc9
 2663 0781 85070000 		.4byte	0x785
 2664 0785 06       		.uleb128 0x6
 2665 0786 04       		.byte	0x4
 2666 0787 8B070000 		.4byte	0x78b
 2667 078b 15       		.uleb128 0x15
 2668 078c 42010000 		.4byte	0x142
 2669 0790 A4070000 		.4byte	0x7a4
 2670 0794 16       		.uleb128 0x16
 2671 0795 DD050000 		.4byte	0x5dd
 2672 0799 16       		.uleb128 0x16
 2673 079a 2E070000 		.4byte	0x72e
 2674 079e 16       		.uleb128 0x16
 2675 079f C0050000 		.4byte	0x5c0
 2676 07a3 00       		.byte	0
 2677 07a4 08       		.uleb128 0x8
 2678 07a5 CC000000 		.4byte	0xcc
 2679 07a9 B4070000 		.4byte	0x7b4
 2680 07ad 09       		.uleb128 0x9
 2681 07ae 8A000000 		.4byte	0x8a
 2682 07b2 05       		.byte	0x5
 2683 07b3 00       		.byte	0
 2684 07b4 08       		.uleb128 0x8
 2685 07b5 91000000 		.4byte	0x91
 2686 07b9 C4070000 		.4byte	0x7c4
 2687 07bd 09       		.uleb128 0x9
ARM GAS  C:\Users\Phuong\AppData\Local\Temp\ccKPluhm.s 			page 66


 2688 07be 8A000000 		.4byte	0x8a
 2689 07c2 01       		.byte	0x1
 2690 07c3 00       		.byte	0
 2691 07c4 0A       		.uleb128 0xa
 2692 07c5 65060000 		.4byte	.LASF138
 2693 07c9 10       		.byte	0x10
 2694 07ca 0E       		.byte	0xe
 2695 07cb 4A       		.byte	0x4a
 2696 07cc 19080000 		.4byte	0x819
 2697 07d0 0B       		.uleb128 0xb
 2698 07d1 2A010000 		.4byte	.LASF54
 2699 07d5 0E       		.byte	0xe
 2700 07d6 4C       		.byte	0x4c
 2701 07d7 19080000 		.4byte	0x819
 2702 07db 00       		.byte	0
 2703 07dc 0B       		.uleb128 0xb
 2704 07dd 14000000 		.4byte	.LASF139
 2705 07e1 0E       		.byte	0xe
 2706 07e2 4E       		.byte	0x4e
 2707 07e3 1C010000 		.4byte	0x11c
 2708 07e7 04       		.byte	0x4
 2709 07e8 0B       		.uleb128 0xb
 2710 07e9 39040000 		.4byte	.LASF140
 2711 07ed 0E       		.byte	0xe
 2712 07ee 50       		.byte	0x50
 2713 07ef CC000000 		.4byte	0xcc
 2714 07f3 08       		.byte	0x8
 2715 07f4 0B       		.uleb128 0xb
 2716 07f5 68080000 		.4byte	.LASF141
 2717 07f9 0E       		.byte	0xe
 2718 07fa 52       		.byte	0x52
 2719 07fb CC000000 		.4byte	0xcc
 2720 07ff 09       		.byte	0x9
 2721 0800 0B       		.uleb128 0xb
 2722 0801 AE090000 		.4byte	.LASF142
 2723 0805 0E       		.byte	0xe
 2724 0806 54       		.byte	0x54
 2725 0807 E2000000 		.4byte	0xe2
 2726 080b 0A       		.byte	0xa
 2727 080c 0F       		.uleb128 0xf
 2728 080d 75736500 		.ascii	"use\000"
 2729 0811 0E       		.byte	0xe
 2730 0812 56       		.byte	0x56
 2731 0813 CC000000 		.4byte	0xcc
 2732 0817 0C       		.byte	0xc
 2733 0818 00       		.byte	0
 2734 0819 06       		.uleb128 0x6
 2735 081a 04       		.byte	0x4
 2736 081b C4070000 		.4byte	0x7c4
 2737 081f 0A       		.uleb128 0xa
 2738 0820 07040000 		.4byte	.LASF143
 2739 0824 04       		.byte	0x4
 2740 0825 0F       		.byte	0xf
 2741 0826 35       		.byte	0x35
 2742 0827 38080000 		.4byte	0x838
 2743 082b 0B       		.uleb128 0xb
 2744 082c E5000000 		.4byte	.LASF53
ARM GAS  C:\Users\Phuong\AppData\Local\Temp\ccKPluhm.s 			page 67


 2745 0830 0F       		.byte	0xf
 2746 0831 36       		.byte	0x36
 2747 0832 F8000000 		.4byte	0xf8
 2748 0836 00       		.byte	0
 2749 0837 00       		.byte	0
 2750 0838 03       		.uleb128 0x3
 2751 0839 92030000 		.4byte	.LASF144
 2752 083d 0F       		.byte	0xf
 2753 083e 3D       		.byte	0x3d
 2754 083f 1F080000 		.4byte	0x81f
 2755 0843 0A       		.uleb128 0xa
 2756 0844 78030000 		.4byte	.LASF145
 2757 0848 14       		.byte	0x14
 2758 0849 0F       		.byte	0xf
 2759 084a 47       		.byte	0x47
 2760 084b C8080000 		.4byte	0x8c8
 2761 084f 0B       		.uleb128 0xb
 2762 0850 80090000 		.4byte	.LASF146
 2763 0854 0F       		.byte	0xf
 2764 0855 49       		.byte	0x49
 2765 0856 CC000000 		.4byte	0xcc
 2766 085a 00       		.byte	0
 2767 085b 0B       		.uleb128 0xb
 2768 085c 7B090000 		.4byte	.LASF147
 2769 0860 0F       		.byte	0xf
 2770 0861 4B       		.byte	0x4b
 2771 0862 CC000000 		.4byte	0xcc
 2772 0866 01       		.byte	0x1
 2773 0867 0B       		.uleb128 0xb
 2774 0868 850A0000 		.4byte	.LASF148
 2775 086c 0F       		.byte	0xf
 2776 086d 4D       		.byte	0x4d
 2777 086e E2000000 		.4byte	0xe2
 2778 0872 02       		.byte	0x2
 2779 0873 0F       		.uleb128 0xf
 2780 0874 5F696400 		.ascii	"_id\000"
 2781 0878 0F       		.byte	0xf
 2782 0879 4F       		.byte	0x4f
 2783 087a E2000000 		.4byte	0xe2
 2784 087e 04       		.byte	0x4
 2785 087f 0B       		.uleb128 0xb
 2786 0880 7A020000 		.4byte	.LASF149
 2787 0884 0F       		.byte	0xf
 2788 0885 51       		.byte	0x51
 2789 0886 E2000000 		.4byte	0xe2
 2790 088a 06       		.byte	0x6
 2791 088b 0B       		.uleb128 0xb
 2792 088c C3040000 		.4byte	.LASF150
 2793 0890 0F       		.byte	0xf
 2794 0891 57       		.byte	0x57
 2795 0892 CC000000 		.4byte	0xcc
 2796 0896 08       		.byte	0x8
 2797 0897 0B       		.uleb128 0xb
 2798 0898 71030000 		.4byte	.LASF151
 2799 089c 0F       		.byte	0xf
 2800 089d 59       		.byte	0x59
 2801 089e CC000000 		.4byte	0xcc
ARM GAS  C:\Users\Phuong\AppData\Local\Temp\ccKPluhm.s 			page 68


 2802 08a2 09       		.byte	0x9
 2803 08a3 0B       		.uleb128 0xb
 2804 08a4 5C030000 		.4byte	.LASF152
 2805 08a8 0F       		.byte	0xf
 2806 08a9 5B       		.byte	0x5b
 2807 08aa E2000000 		.4byte	0xe2
 2808 08ae 0A       		.byte	0xa
 2809 08af 0F       		.uleb128 0xf
 2810 08b0 73726300 		.ascii	"src\000"
 2811 08b4 0F       		.byte	0xf
 2812 08b5 5D       		.byte	0x5d
 2813 08b6 38080000 		.4byte	0x838
 2814 08ba 0C       		.byte	0xc
 2815 08bb 0B       		.uleb128 0xb
 2816 08bc 14060000 		.4byte	.LASF153
 2817 08c0 0F       		.byte	0xf
 2818 08c1 5E       		.byte	0x5e
 2819 08c2 38080000 		.4byte	0x838
 2820 08c6 10       		.byte	0x10
 2821 08c7 00       		.byte	0
 2822 08c8 0A       		.uleb128 0xa
 2823 08c9 C0090000 		.4byte	.LASF154
 2824 08cd 18       		.byte	0x18
 2825 08ce 10       		.byte	0x10
 2826 08cf 69       		.byte	0x69
 2827 08d0 1D090000 		.4byte	0x91d
 2828 08d4 0B       		.uleb128 0xb
 2829 08d5 EA000000 		.4byte	.LASF155
 2830 08d9 10       		.byte	0x10
 2831 08da 6C       		.byte	0x6c
 2832 08db DD050000 		.4byte	0x5dd
 2833 08df 00       		.byte	0
 2834 08e0 0B       		.uleb128 0xb
 2835 08e1 1F020000 		.4byte	.LASF156
 2836 08e5 10       		.byte	0x10
 2837 08e6 6E       		.byte	0x6e
 2838 08e7 DD050000 		.4byte	0x5dd
 2839 08eb 04       		.byte	0x4
 2840 08ec 0B       		.uleb128 0xb
 2841 08ed DB080000 		.4byte	.LASF157
 2842 08f1 10       		.byte	0x10
 2843 08f2 71       		.byte	0x71
 2844 08f3 1D090000 		.4byte	0x91d
 2845 08f7 08       		.byte	0x8
 2846 08f8 0B       		.uleb128 0xb
 2847 08f9 19070000 		.4byte	.LASF158
 2848 08fd 10       		.byte	0x10
 2849 08fe 78       		.byte	0x78
 2850 08ff E2000000 		.4byte	0xe2
 2851 0903 0C       		.byte	0xc
 2852 0904 0B       		.uleb128 0xb
 2853 0905 9F030000 		.4byte	.LASF159
 2854 0909 10       		.byte	0x10
 2855 090a 7A       		.byte	0x7a
 2856 090b 37010000 		.4byte	0x137
 2857 090f 10       		.byte	0x10
 2858 0910 0B       		.uleb128 0xb
ARM GAS  C:\Users\Phuong\AppData\Local\Temp\ccKPluhm.s 			page 69


 2859 0911 85000000 		.4byte	.LASF160
 2860 0915 10       		.byte	0x10
 2861 0916 7C       		.byte	0x7c
 2862 0917 37010000 		.4byte	0x137
 2863 091b 14       		.byte	0x14
 2864 091c 00       		.byte	0
 2865 091d 06       		.uleb128 0x6
 2866 091e 04       		.byte	0x4
 2867 091f 43080000 		.4byte	0x843
 2868 0923 0A       		.uleb128 0xa
 2869 0924 C7010000 		.4byte	.LASF161
 2870 0928 08       		.byte	0x8
 2871 0929 11       		.byte	0x11
 2872 092a 4B       		.byte	0x4b
 2873 092b 60090000 		.4byte	0x960
 2874 092f 0B       		.uleb128 0xb
 2875 0930 E6090000 		.4byte	.LASF162
 2876 0934 11       		.byte	0x11
 2877 0935 4C       		.byte	0x4c
 2878 0936 CC000000 		.4byte	0xcc
 2879 093a 00       		.byte	0
 2880 093b 0B       		.uleb128 0xb
 2881 093c 63090000 		.4byte	.LASF163
 2882 0940 11       		.byte	0x11
 2883 0941 4D       		.byte	0x4d
 2884 0942 CC000000 		.4byte	0xcc
 2885 0946 01       		.byte	0x1
 2886 0947 0B       		.uleb128 0xb
 2887 0948 0B030000 		.4byte	.LASF164
 2888 094c 11       		.byte	0x11
 2889 094d 4E       		.byte	0x4e
 2890 094e E2000000 		.4byte	0xe2
 2891 0952 02       		.byte	0x2
 2892 0953 0B       		.uleb128 0xb
 2893 0954 DE060000 		.4byte	.LASF165
 2894 0958 11       		.byte	0x11
 2895 0959 4F       		.byte	0x4f
 2896 095a 38080000 		.4byte	0x838
 2897 095e 04       		.byte	0x4
 2898 095f 00       		.byte	0
 2899 0960 18       		.uleb128 0x18
 2900 0961 1D080000 		.4byte	.LASF172
 2901 0965 01       		.byte	0x1
 2902 0966 2701     		.2byte	0x127
 2903 0968 42010000 		.4byte	0x142
 2904 096c 00000000 		.4byte	.LFB59
 2905 0970 24000000 		.4byte	.LFE59-.LFB59
 2906 0974 01       		.uleb128 0x1
 2907 0975 9C       		.byte	0x9c
 2908 0976 B7090000 		.4byte	0x9b7
 2909 097a 19       		.uleb128 0x19
 2910 097b BD040000 		.4byte	.LASF119
 2911 097f 01       		.byte	0x1
 2912 0980 2701     		.2byte	0x127
 2913 0982 DD050000 		.4byte	0x5dd
 2914 0986 00000000 		.4byte	.LLST0
 2915 098a 1A       		.uleb128 0x1a
ARM GAS  C:\Users\Phuong\AppData\Local\Temp\ccKPluhm.s 			page 70


 2916 098b 9E010000 		.4byte	.LASF166
 2917 098f 01       		.byte	0x1
 2918 0990 2701     		.2byte	0x127
 2919 0992 19080000 		.4byte	0x819
 2920 0996 01       		.uleb128 0x1
 2921 0997 51       		.byte	0x51
 2922 0998 1B       		.uleb128 0x1b
 2923 0999 65727200 		.ascii	"err\000"
 2924 099d 01       		.byte	0x1
 2925 099e 2901     		.2byte	0x129
 2926 09a0 42010000 		.4byte	0x142
 2927 09a4 3A000000 		.4byte	.LLST1
 2928 09a8 1C       		.uleb128 0x1c
 2929 09a9 90040000 		.4byte	.LASF167
 2930 09ad 01       		.byte	0x1
 2931 09ae 2A01     		.2byte	0x12a
 2932 09b0 19080000 		.4byte	0x819
 2933 09b4 01       		.uleb128 0x1
 2934 09b5 53       		.byte	0x53
 2935 09b6 00       		.byte	0
 2936 09b7 1D       		.uleb128 0x1d
 2937 09b8 B7080000 		.4byte	.LASF169
 2938 09bc 01       		.byte	0x1
 2939 09bd B302     		.2byte	0x2b3
 2940 09bf 00000000 		.4byte	.LFB67
 2941 09c3 26000000 		.4byte	.LFE67-.LFB67
 2942 09c7 01       		.uleb128 0x1
 2943 09c8 9C       		.byte	0x9c
 2944 09c9 F7090000 		.4byte	0x9f7
 2945 09cd 19       		.uleb128 0x19
 2946 09ce 9E010000 		.4byte	.LASF166
 2947 09d2 01       		.byte	0x1
 2948 09d3 B302     		.2byte	0x2b3
 2949 09d5 19080000 		.4byte	0x819
 2950 09d9 59000000 		.4byte	.LLST2
 2951 09dd 19       		.uleb128 0x19
 2952 09de BE000000 		.4byte	.LASF168
 2953 09e2 01       		.byte	0x1
 2954 09e3 B302     		.2byte	0x2b3
 2955 09e5 CC000000 		.4byte	0xcc
 2956 09e9 9B000000 		.4byte	.LLST3
 2957 09ed 1E       		.uleb128 0x1e
 2958 09ee 0E000000 		.4byte	.LVL8
 2959 09f2 BC120000 		.4byte	0x12bc
 2960 09f6 00       		.byte	0
 2961 09f7 1F       		.uleb128 0x1f
 2962 09f8 47080000 		.4byte	.LASF170
 2963 09fc 01       		.byte	0x1
 2964 09fd C802     		.2byte	0x2c8
 2965 09ff 00000000 		.4byte	.LFB68
 2966 0a03 26000000 		.4byte	.LFE68-.LFB68
 2967 0a07 01       		.uleb128 0x1
 2968 0a08 9C       		.byte	0x9c
 2969 0a09 3E0A0000 		.4byte	0xa3e
 2970 0a0d 19       		.uleb128 0x19
 2971 0a0e 9E010000 		.4byte	.LASF166
 2972 0a12 01       		.byte	0x1
ARM GAS  C:\Users\Phuong\AppData\Local\Temp\ccKPluhm.s 			page 71


 2973 0a13 C802     		.2byte	0x2c8
 2974 0a15 19080000 		.4byte	0x819
 2975 0a19 D5000000 		.4byte	.LLST4
 2976 0a1d 19       		.uleb128 0x19
 2977 0a1e 90090000 		.4byte	.LASF171
 2978 0a22 01       		.byte	0x1
 2979 0a23 C802     		.2byte	0x2c8
 2980 0a25 CC000000 		.4byte	0xcc
 2981 0a29 01010000 		.4byte	.LLST5
 2982 0a2d 20       		.uleb128 0x20
 2983 0a2e 20000000 		.4byte	.LVL15
 2984 0a32 B7090000 		.4byte	0x9b7
 2985 0a36 21       		.uleb128 0x21
 2986 0a37 01       		.uleb128 0x1
 2987 0a38 50       		.byte	0x50
 2988 0a39 02       		.uleb128 0x2
 2989 0a3a 74       		.byte	0x74
 2990 0a3b 00       		.sleb128 0
 2991 0a3c 00       		.byte	0
 2992 0a3d 00       		.byte	0
 2993 0a3e 18       		.uleb128 0x18
 2994 0a3f 140A0000 		.4byte	.LASF173
 2995 0a43 01       		.byte	0x1
 2996 0a44 E402     		.2byte	0x2e4
 2997 0a46 42010000 		.4byte	0x142
 2998 0a4a 00000000 		.4byte	.LFB69
 2999 0a4e 3C000000 		.4byte	.LFE69-.LFB69
 3000 0a52 01       		.uleb128 0x1
 3001 0a53 9C       		.byte	0x9c
 3002 0a54 EB0A0000 		.4byte	0xaeb
 3003 0a58 22       		.uleb128 0x22
 3004 0a59 7000     		.ascii	"p\000"
 3005 0a5b 01       		.byte	0x1
 3006 0a5c E402     		.2byte	0x2e4
 3007 0a5e 71020000 		.4byte	0x271
 3008 0a62 22010000 		.4byte	.LLST6
 3009 0a66 22       		.uleb128 0x22
 3010 0a67 73726300 		.ascii	"src\000"
 3011 0a6b 01       		.byte	0x1
 3012 0a6c E402     		.2byte	0x2e4
 3013 0a6e 2E070000 		.4byte	0x72e
 3014 0a72 43010000 		.4byte	.LLST7
 3015 0a76 19       		.uleb128 0x19
 3016 0a77 14060000 		.4byte	.LASF153
 3017 0a7b 01       		.byte	0x1
 3018 0a7c E402     		.2byte	0x2e4
 3019 0a7e 2E070000 		.4byte	0x72e
 3020 0a82 64010000 		.4byte	.LLST8
 3021 0a86 19       		.uleb128 0x19
 3022 0a87 BD040000 		.4byte	.LASF119
 3023 0a8b 01       		.byte	0x1
 3024 0a8c E402     		.2byte	0x2e4
 3025 0a8e DD050000 		.4byte	0x5dd
 3026 0a92 85010000 		.4byte	.LLST9
 3027 0a96 23       		.uleb128 0x23
 3028 0a97 726100   		.ascii	"ra\000"
 3029 0a9a 01       		.byte	0x1
ARM GAS  C:\Users\Phuong\AppData\Local\Temp\ccKPluhm.s 			page 72


 3030 0a9b E702     		.2byte	0x2e7
 3031 0a9d 27010000 		.4byte	0x127
 3032 0aa1 02       		.uleb128 0x2
 3033 0aa2 91       		.byte	0x91
 3034 0aa3 64       		.sleb128 -28
 3035 0aa4 20       		.uleb128 0x20
 3036 0aa5 30000000 		.4byte	.LVL19
 3037 0aa9 C7120000 		.4byte	0x12c7
 3038 0aad 21       		.uleb128 0x21
 3039 0aae 01       		.uleb128 0x1
 3040 0aaf 50       		.byte	0x50
 3041 0ab0 03       		.uleb128 0x3
 3042 0ab1 F3       		.byte	0xf3
 3043 0ab2 01       		.uleb128 0x1
 3044 0ab3 50       		.byte	0x50
 3045 0ab4 21       		.uleb128 0x21
 3046 0ab5 01       		.uleb128 0x1
 3047 0ab6 51       		.byte	0x51
 3048 0ab7 03       		.uleb128 0x3
 3049 0ab8 F3       		.byte	0xf3
 3050 0ab9 01       		.uleb128 0x1
 3051 0aba 51       		.byte	0x51
 3052 0abb 21       		.uleb128 0x21
 3053 0abc 01       		.uleb128 0x1
 3054 0abd 52       		.byte	0x52
 3055 0abe 03       		.uleb128 0x3
 3056 0abf F3       		.byte	0xf3
 3057 0ac0 01       		.uleb128 0x1
 3058 0ac1 52       		.byte	0x52
 3059 0ac2 21       		.uleb128 0x21
 3060 0ac3 01       		.uleb128 0x1
 3061 0ac4 53       		.byte	0x53
 3062 0ac5 01       		.uleb128 0x1
 3063 0ac6 31       		.byte	0x31
 3064 0ac7 21       		.uleb128 0x21
 3065 0ac8 02       		.uleb128 0x2
 3066 0ac9 7D       		.byte	0x7d
 3067 0aca 00       		.sleb128 0
 3068 0acb 02       		.uleb128 0x2
 3069 0acc 76       		.byte	0x76
 3070 0acd 00       		.sleb128 0
 3071 0ace 21       		.uleb128 0x21
 3072 0acf 02       		.uleb128 0x2
 3073 0ad0 7D       		.byte	0x7d
 3074 0ad1 04       		.sleb128 4
 3075 0ad2 01       		.uleb128 0x1
 3076 0ad3 32       		.byte	0x32
 3077 0ad4 21       		.uleb128 0x21
 3078 0ad5 02       		.uleb128 0x2
 3079 0ad6 7D       		.byte	0x7d
 3080 0ad7 08       		.sleb128 8
 3081 0ad8 03       		.uleb128 0x3
 3082 0ad9 F3       		.byte	0xf3
 3083 0ada 01       		.uleb128 0x1
 3084 0adb 53       		.byte	0x53
 3085 0adc 21       		.uleb128 0x21
 3086 0add 02       		.uleb128 0x2
ARM GAS  C:\Users\Phuong\AppData\Local\Temp\ccKPluhm.s 			page 73


 3087 0ade 7D       		.byte	0x7d
 3088 0adf 0C       		.sleb128 12
 3089 0ae0 02       		.uleb128 0x2
 3090 0ae1 74       		.byte	0x74
 3091 0ae2 00       		.sleb128 0
 3092 0ae3 21       		.uleb128 0x21
 3093 0ae4 02       		.uleb128 0x2
 3094 0ae5 7D       		.byte	0x7d
 3095 0ae6 10       		.sleb128 16
 3096 0ae7 01       		.uleb128 0x1
 3097 0ae8 34       		.byte	0x34
 3098 0ae9 00       		.byte	0
 3099 0aea 00       		.byte	0
 3100 0aeb 1F       		.uleb128 0x1f
 3101 0aec 97020000 		.4byte	.LASF174
 3102 0af0 01       		.byte	0x1
 3103 0af1 F502     		.2byte	0x2f5
 3104 0af3 00000000 		.4byte	.LFB70
 3105 0af7 C4000000 		.4byte	.LFE70-.LFB70
 3106 0afb 01       		.uleb128 0x1
 3107 0afc 9C       		.byte	0x9c
 3108 0afd DB0B0000 		.4byte	0xbdb
 3109 0b01 19       		.uleb128 0x19
 3110 0b02 BD040000 		.4byte	.LASF119
 3111 0b06 01       		.byte	0x1
 3112 0b07 F502     		.2byte	0x2f5
 3113 0b09 DD050000 		.4byte	0x5dd
 3114 0b0d B1010000 		.4byte	.LLST10
 3115 0b11 19       		.uleb128 0x19
 3116 0b12 9E010000 		.4byte	.LASF166
 3117 0b16 01       		.byte	0x1
 3118 0b17 F502     		.2byte	0x2f5
 3119 0b19 19080000 		.4byte	0x819
 3120 0b1d DD010000 		.4byte	.LLST11
 3121 0b21 19       		.uleb128 0x19
 3122 0b22 B9000000 		.4byte	.LASF57
 3123 0b26 01       		.byte	0x1
 3124 0b27 F502     		.2byte	0x2f5
 3125 0b29 CC000000 		.4byte	0xcc
 3126 0b2d 09020000 		.4byte	.LLST12
 3127 0b31 1B       		.uleb128 0x1b
 3128 0b32 7000     		.ascii	"p\000"
 3129 0b34 01       		.byte	0x1
 3130 0b35 F702     		.2byte	0x2f7
 3131 0b37 71020000 		.4byte	0x271
 3132 0b3b 2A020000 		.4byte	.LLST13
 3133 0b3f 24       		.uleb128 0x24
 3134 0b40 A9090000 		.4byte	.LASF110
 3135 0b44 01       		.byte	0x1
 3136 0b45 F802     		.2byte	0x2f8
 3137 0b47 DB0B0000 		.4byte	0xbdb
 3138 0b4b 6A020000 		.4byte	.LLST14
 3139 0b4f 23       		.uleb128 0x23
 3140 0b50 73726300 		.ascii	"src\000"
 3141 0b54 01       		.byte	0x1
 3142 0b55 F902     		.2byte	0x2f9
 3143 0b57 1C010000 		.4byte	0x11c
ARM GAS  C:\Users\Phuong\AppData\Local\Temp\ccKPluhm.s 			page 74


 3144 0b5b 02       		.uleb128 0x2
 3145 0b5c 91       		.byte	0x91
 3146 0b5d 5C       		.sleb128 -36
 3147 0b5e 24       		.uleb128 0x24
 3148 0b5f 14060000 		.4byte	.LASF153
 3149 0b63 01       		.byte	0x1
 3150 0b64 FA02     		.2byte	0x2fa
 3151 0b66 E10B0000 		.4byte	0xbe1
 3152 0b6a 95020000 		.4byte	.LLST15
 3153 0b6e 25       		.uleb128 0x25
 3154 0b6f 20000000 		.4byte	.LVL26
 3155 0b73 D2120000 		.4byte	0x12d2
 3156 0b77 8B0B0000 		.4byte	0xb8b
 3157 0b7b 21       		.uleb128 0x21
 3158 0b7c 01       		.uleb128 0x1
 3159 0b7d 50       		.byte	0x50
 3160 0b7e 01       		.uleb128 0x1
 3161 0b7f 30       		.byte	0x30
 3162 0b80 21       		.uleb128 0x21
 3163 0b81 01       		.uleb128 0x1
 3164 0b82 51       		.byte	0x51
 3165 0b83 01       		.uleb128 0x1
 3166 0b84 38       		.byte	0x38
 3167 0b85 21       		.uleb128 0x21
 3168 0b86 01       		.uleb128 0x1
 3169 0b87 52       		.byte	0x52
 3170 0b88 01       		.uleb128 0x1
 3171 0b89 30       		.byte	0x30
 3172 0b8a 00       		.byte	0
 3173 0b8b 25       		.uleb128 0x25
 3174 0b8c 8A000000 		.4byte	.LVL36
 3175 0b90 DD120000 		.4byte	0x12dd
 3176 0b94 A40B0000 		.4byte	0xba4
 3177 0b98 21       		.uleb128 0x21
 3178 0b99 01       		.uleb128 0x1
 3179 0b9a 50       		.byte	0x50
 3180 0b9b 02       		.uleb128 0x2
 3181 0b9c 75       		.byte	0x75
 3182 0b9d 00       		.sleb128 0
 3183 0b9e 21       		.uleb128 0x21
 3184 0b9f 01       		.uleb128 0x1
 3185 0ba0 51       		.byte	0x51
 3186 0ba1 01       		.uleb128 0x1
 3187 0ba2 38       		.byte	0x38
 3188 0ba3 00       		.byte	0
 3189 0ba4 25       		.uleb128 0x25
 3190 0ba5 9C000000 		.4byte	.LVL37
 3191 0ba9 3E0A0000 		.4byte	0xa3e
 3192 0bad CA0B0000 		.4byte	0xbca
 3193 0bb1 21       		.uleb128 0x21
 3194 0bb2 01       		.uleb128 0x1
 3195 0bb3 50       		.byte	0x50
 3196 0bb4 02       		.uleb128 0x2
 3197 0bb5 74       		.byte	0x74
 3198 0bb6 00       		.sleb128 0
 3199 0bb7 21       		.uleb128 0x21
 3200 0bb8 01       		.uleb128 0x1
ARM GAS  C:\Users\Phuong\AppData\Local\Temp\ccKPluhm.s 			page 75


 3201 0bb9 51       		.byte	0x51
 3202 0bba 02       		.uleb128 0x2
 3203 0bbb 91       		.byte	0x91
 3204 0bbc 5C       		.sleb128 -36
 3205 0bbd 21       		.uleb128 0x21
 3206 0bbe 01       		.uleb128 0x1
 3207 0bbf 52       		.byte	0x52
 3208 0bc0 02       		.uleb128 0x2
 3209 0bc1 79       		.byte	0x79
 3210 0bc2 00       		.sleb128 0
 3211 0bc3 21       		.uleb128 0x21
 3212 0bc4 01       		.uleb128 0x1
 3213 0bc5 53       		.byte	0x53
 3214 0bc6 02       		.uleb128 0x2
 3215 0bc7 77       		.byte	0x77
 3216 0bc8 00       		.sleb128 0
 3217 0bc9 00       		.byte	0
 3218 0bca 20       		.uleb128 0x20
 3219 0bcb A2000000 		.4byte	.LVL38
 3220 0bcf E8120000 		.4byte	0x12e8
 3221 0bd3 21       		.uleb128 0x21
 3222 0bd4 01       		.uleb128 0x1
 3223 0bd5 50       		.byte	0x50
 3224 0bd6 02       		.uleb128 0x2
 3225 0bd7 74       		.byte	0x74
 3226 0bd8 00       		.sleb128 0
 3227 0bd9 00       		.byte	0
 3228 0bda 00       		.byte	0
 3229 0bdb 06       		.uleb128 0x6
 3230 0bdc 04       		.byte	0x4
 3231 0bdd 23090000 		.4byte	0x923
 3232 0be1 06       		.uleb128 0x6
 3233 0be2 04       		.byte	0x4
 3234 0be3 1C010000 		.4byte	0x11c
 3235 0be7 1F       		.uleb128 0x1f
 3236 0be8 510A0000 		.4byte	.LASF175
 3237 0bec 01       		.byte	0x1
 3238 0bed 9A02     		.2byte	0x29a
 3239 0bef 00000000 		.4byte	.LFB66
 3240 0bf3 30000000 		.4byte	.LFE66-.LFB66
 3241 0bf7 01       		.uleb128 0x1
 3242 0bf8 9C       		.byte	0x9c
 3243 0bf9 3B0C0000 		.4byte	0xc3b
 3244 0bfd 19       		.uleb128 0x19
 3245 0bfe BD040000 		.4byte	.LASF119
 3246 0c02 01       		.byte	0x1
 3247 0c03 9A02     		.2byte	0x29a
 3248 0c05 DD050000 		.4byte	0x5dd
 3249 0c09 FE020000 		.4byte	.LLST16
 3250 0c0d 19       		.uleb128 0x19
 3251 0c0e 9E010000 		.4byte	.LASF166
 3252 0c12 01       		.byte	0x1
 3253 0c13 9A02     		.2byte	0x29a
 3254 0c15 19080000 		.4byte	0x819
 3255 0c19 1F030000 		.4byte	.LLST17
 3256 0c1d 20       		.uleb128 0x20
 3257 0c1e 26000000 		.4byte	.LVL45
ARM GAS  C:\Users\Phuong\AppData\Local\Temp\ccKPluhm.s 			page 76


 3258 0c22 EB0A0000 		.4byte	0xaeb
 3259 0c26 21       		.uleb128 0x21
 3260 0c27 01       		.uleb128 0x1
 3261 0c28 50       		.byte	0x50
 3262 0c29 03       		.uleb128 0x3
 3263 0c2a F3       		.byte	0xf3
 3264 0c2b 01       		.uleb128 0x1
 3265 0c2c 50       		.byte	0x50
 3266 0c2d 21       		.uleb128 0x21
 3267 0c2e 01       		.uleb128 0x1
 3268 0c2f 51       		.byte	0x51
 3269 0c30 03       		.uleb128 0x3
 3270 0c31 F3       		.byte	0xf3
 3271 0c32 01       		.uleb128 0x1
 3272 0c33 51       		.byte	0x51
 3273 0c34 21       		.uleb128 0x21
 3274 0c35 01       		.uleb128 0x1
 3275 0c36 52       		.byte	0x52
 3276 0c37 01       		.uleb128 0x1
 3277 0c38 46       		.byte	0x46
 3278 0c39 00       		.byte	0
 3279 0c3a 00       		.byte	0
 3280 0c3b 26       		.uleb128 0x26
 3281 0c3c F8000000 		.4byte	.LASF207
 3282 0c40 01       		.byte	0x1
 3283 0c41 72       		.byte	0x72
 3284 0c42 00000000 		.4byte	.LFB53
 3285 0c46 18000000 		.4byte	.LFE53-.LFB53
 3286 0c4a 01       		.uleb128 0x1
 3287 0c4b 9C       		.byte	0x9c
 3288 0c4c 27       		.uleb128 0x27
 3289 0c4d 35090000 		.4byte	.LASF176
 3290 0c51 01       		.byte	0x1
 3291 0c52 A0       		.byte	0xa0
 3292 0c53 42010000 		.4byte	0x142
 3293 0c57 00000000 		.4byte	.LFB55
 3294 0c5b 2E000000 		.4byte	.LFE55-.LFB55
 3295 0c5f 01       		.uleb128 0x1
 3296 0c60 9C       		.byte	0x9c
 3297 0c61 CD0C0000 		.4byte	0xccd
 3298 0c65 28       		.uleb128 0x28
 3299 0c66 BD040000 		.4byte	.LASF119
 3300 0c6a 01       		.byte	0x1
 3301 0c6b A0       		.byte	0xa0
 3302 0c6c DD050000 		.4byte	0x5dd
 3303 0c70 40030000 		.4byte	.LLST18
 3304 0c74 29       		.uleb128 0x29
 3305 0c75 9E010000 		.4byte	.LASF166
 3306 0c79 01       		.byte	0x1
 3307 0c7a A2       		.byte	0xa2
 3308 0c7b 19080000 		.4byte	0x819
 3309 0c7f 6C030000 		.4byte	.LLST19
 3310 0c83 2A       		.uleb128 0x2a
 3311 0c84 0C000000 		.4byte	.LBB2
 3312 0c88 1A000000 		.4byte	.LBE2-.LBB2
 3313 0c8c 29       		.uleb128 0x29
 3314 0c8d 2A010000 		.4byte	.LASF54
ARM GAS  C:\Users\Phuong\AppData\Local\Temp\ccKPluhm.s 			page 77


 3315 0c91 01       		.byte	0x1
 3316 0c92 A7       		.byte	0xa7
 3317 0c93 19080000 		.4byte	0x819
 3318 0c97 95030000 		.4byte	.LLST20
 3319 0c9b 2B       		.uleb128 0x2b
 3320 0c9c 1C000000 		.4byte	.LVL50
 3321 0ca0 B60C0000 		.4byte	0xcb6
 3322 0ca4 21       		.uleb128 0x21
 3323 0ca5 01       		.uleb128 0x1
 3324 0ca6 50       		.byte	0x50
 3325 0ca7 02       		.uleb128 0x2
 3326 0ca8 76       		.byte	0x76
 3327 0ca9 00       		.sleb128 0
 3328 0caa 21       		.uleb128 0x21
 3329 0cab 01       		.uleb128 0x1
 3330 0cac 51       		.byte	0x51
 3331 0cad 02       		.uleb128 0x2
 3332 0cae 74       		.byte	0x74
 3333 0caf 04       		.sleb128 4
 3334 0cb0 21       		.uleb128 0x21
 3335 0cb1 01       		.uleb128 0x1
 3336 0cb2 52       		.byte	0x52
 3337 0cb3 01       		.uleb128 0x1
 3338 0cb4 30       		.byte	0x30
 3339 0cb5 00       		.byte	0
 3340 0cb6 20       		.uleb128 0x20
 3341 0cb7 24000000 		.4byte	.LVL51
 3342 0cbb F3120000 		.4byte	0x12f3
 3343 0cbf 21       		.uleb128 0x21
 3344 0cc0 01       		.uleb128 0x1
 3345 0cc1 50       		.byte	0x50
 3346 0cc2 01       		.uleb128 0x1
 3347 0cc3 3B       		.byte	0x3b
 3348 0cc4 21       		.uleb128 0x21
 3349 0cc5 01       		.uleb128 0x1
 3350 0cc6 51       		.byte	0x51
 3351 0cc7 02       		.uleb128 0x2
 3352 0cc8 74       		.byte	0x74
 3353 0cc9 00       		.sleb128 0
 3354 0cca 00       		.byte	0
 3355 0ccb 00       		.byte	0
 3356 0ccc 00       		.byte	0
 3357 0ccd 2C       		.uleb128 0x2c
 3358 0cce C8080000 		.4byte	.LASF181
 3359 0cd2 01       		.byte	0x1
 3360 0cd3 C0       		.byte	0xc0
 3361 0cd4 00000000 		.4byte	.LFB56
 3362 0cd8 1C000000 		.4byte	.LFE56-.LFB56
 3363 0cdc 01       		.uleb128 0x1
 3364 0cdd 9C       		.byte	0x9c
 3365 0cde 160D0000 		.4byte	0xd16
 3366 0ce2 28       		.uleb128 0x28
 3367 0ce3 BD040000 		.4byte	.LASF119
 3368 0ce7 01       		.byte	0x1
 3369 0ce8 C0       		.byte	0xc0
 3370 0ce9 DD050000 		.4byte	0x5dd
 3371 0ced A8030000 		.4byte	.LLST21
ARM GAS  C:\Users\Phuong\AppData\Local\Temp\ccKPluhm.s 			page 78


 3372 0cf1 29       		.uleb128 0x29
 3373 0cf2 9E010000 		.4byte	.LASF166
 3374 0cf6 01       		.byte	0x1
 3375 0cf7 C2       		.byte	0xc2
 3376 0cf8 19080000 		.4byte	0x819
 3377 0cfc C9030000 		.4byte	.LLST22
 3378 0d00 20       		.uleb128 0x20
 3379 0d01 14000000 		.4byte	.LVL59
 3380 0d05 F7090000 		.4byte	0x9f7
 3381 0d09 21       		.uleb128 0x21
 3382 0d0a 01       		.uleb128 0x1
 3383 0d0b 50       		.byte	0x50
 3384 0d0c 02       		.uleb128 0x2
 3385 0d0d 74       		.byte	0x74
 3386 0d0e 00       		.sleb128 0
 3387 0d0f 21       		.uleb128 0x21
 3388 0d10 01       		.uleb128 0x1
 3389 0d11 51       		.byte	0x51
 3390 0d12 01       		.uleb128 0x1
 3391 0d13 35       		.byte	0x35
 3392 0d14 00       		.byte	0
 3393 0d15 00       		.byte	0
 3394 0d16 27       		.uleb128 0x27
 3395 0d17 71010000 		.4byte	.LASF177
 3396 0d1b 01       		.byte	0x1
 3397 0d1c DA       		.byte	0xda
 3398 0d1d 19080000 		.4byte	0x819
 3399 0d21 00000000 		.4byte	.LFB57
 3400 0d25 14000000 		.4byte	.LFE57-.LFB57
 3401 0d29 01       		.uleb128 0x1
 3402 0d2a 9C       		.byte	0x9c
 3403 0d2b 590D0000 		.4byte	0xd59
 3404 0d2f 2D       		.uleb128 0x2d
 3405 0d30 69667000 		.ascii	"ifp\000"
 3406 0d34 01       		.byte	0x1
 3407 0d35 DA       		.byte	0xda
 3408 0d36 DD050000 		.4byte	0x5dd
 3409 0d3a DC030000 		.4byte	.LLST23
 3410 0d3e 2E       		.uleb128 0x2e
 3411 0d3f E5000000 		.4byte	.LASF53
 3412 0d43 01       		.byte	0x1
 3413 0d44 DA       		.byte	0xda
 3414 0d45 2E070000 		.4byte	0x72e
 3415 0d49 01       		.uleb128 0x1
 3416 0d4a 51       		.byte	0x51
 3417 0d4b 2F       		.uleb128 0x2f
 3418 0d4c 9E010000 		.4byte	.LASF166
 3419 0d50 01       		.byte	0x1
 3420 0d51 DC       		.byte	0xdc
 3421 0d52 19080000 		.4byte	0x819
 3422 0d56 01       		.uleb128 0x1
 3423 0d57 50       		.byte	0x50
 3424 0d58 00       		.byte	0
 3425 0d59 30       		.uleb128 0x30
 3426 0d5a 3C060000 		.4byte	.LASF178
 3427 0d5e 01       		.byte	0x1
 3428 0d5f F4       		.byte	0xf4
ARM GAS  C:\Users\Phuong\AppData\Local\Temp\ccKPluhm.s 			page 79


 3429 0d60 19080000 		.4byte	0x819
 3430 0d64 00000000 		.4byte	.LFB58
 3431 0d68 50000000 		.4byte	.LFE58-.LFB58
 3432 0d6c 01       		.uleb128 0x1
 3433 0d6d 9C       		.byte	0x9c
 3434 0d6e E30D0000 		.4byte	0xde3
 3435 0d72 2D       		.uleb128 0x2d
 3436 0d73 69667000 		.ascii	"ifp\000"
 3437 0d77 01       		.byte	0x1
 3438 0d78 F4       		.byte	0xf4
 3439 0d79 DD050000 		.4byte	0x5dd
 3440 0d7d FD030000 		.4byte	.LLST24
 3441 0d81 28       		.uleb128 0x28
 3442 0d82 E5000000 		.4byte	.LASF53
 3443 0d86 01       		.byte	0x1
 3444 0d87 F4       		.byte	0xf4
 3445 0d88 2E070000 		.4byte	0x72e
 3446 0d8c 29040000 		.4byte	.LLST25
 3447 0d90 29       		.uleb128 0x29
 3448 0d91 9E010000 		.4byte	.LASF166
 3449 0d95 01       		.byte	0x1
 3450 0d96 F6       		.byte	0xf6
 3451 0d97 19080000 		.4byte	0x819
 3452 0d9b 55040000 		.4byte	.LLST26
 3453 0d9f 29       		.uleb128 0x29
 3454 0da0 470A0000 		.4byte	.LASF179
 3455 0da4 01       		.byte	0x1
 3456 0da5 F7       		.byte	0xf7
 3457 0da6 19080000 		.4byte	0x819
 3458 0daa 80040000 		.4byte	.LLST27
 3459 0dae 25       		.uleb128 0x25
 3460 0daf 0C000000 		.4byte	.LVL67
 3461 0db3 160D0000 		.4byte	0xd16
 3462 0db7 C80D0000 		.4byte	0xdc8
 3463 0dbb 21       		.uleb128 0x21
 3464 0dbc 01       		.uleb128 0x1
 3465 0dbd 50       		.byte	0x50
 3466 0dbe 02       		.uleb128 0x2
 3467 0dbf 74       		.byte	0x74
 3468 0dc0 00       		.sleb128 0
 3469 0dc1 21       		.uleb128 0x21
 3470 0dc2 01       		.uleb128 0x1
 3471 0dc3 51       		.byte	0x51
 3472 0dc4 02       		.uleb128 0x2
 3473 0dc5 75       		.byte	0x75
 3474 0dc6 00       		.sleb128 0
 3475 0dc7 00       		.byte	0
 3476 0dc8 20       		.uleb128 0x20
 3477 0dc9 1C000000 		.4byte	.LVL69
 3478 0dcd FE120000 		.4byte	0x12fe
 3479 0dd1 21       		.uleb128 0x21
 3480 0dd2 01       		.uleb128 0x1
 3481 0dd3 51       		.byte	0x51
 3482 0dd4 05       		.uleb128 0x5
 3483 0dd5 03       		.byte	0x3
 3484 0dd6 00000000 		.4byte	.LC7
 3485 0dda 21       		.uleb128 0x21
ARM GAS  C:\Users\Phuong\AppData\Local\Temp\ccKPluhm.s 			page 80


 3486 0ddb 01       		.uleb128 0x1
 3487 0ddc 52       		.byte	0x52
 3488 0ddd 03       		.uleb128 0x3
 3489 0dde 0A       		.byte	0xa
 3490 0ddf 0101     		.2byte	0x101
 3491 0de1 00       		.byte	0
 3492 0de2 00       		.byte	0
 3493 0de3 27       		.uleb128 0x27
 3494 0de4 1F010000 		.4byte	.LASF180
 3495 0de8 01       		.byte	0x1
 3496 0de9 80       		.byte	0x80
 3497 0dea 42010000 		.4byte	0x142
 3498 0dee 00000000 		.4byte	.LFB54
 3499 0df2 3C000000 		.4byte	.LFE54-.LFB54
 3500 0df6 01       		.uleb128 0x1
 3501 0df7 9C       		.byte	0x9c
 3502 0df8 520E0000 		.4byte	0xe52
 3503 0dfc 28       		.uleb128 0x28
 3504 0dfd BD040000 		.4byte	.LASF119
 3505 0e01 01       		.byte	0x1
 3506 0e02 80       		.byte	0x80
 3507 0e03 DD050000 		.4byte	0x5dd
 3508 0e07 93040000 		.4byte	.LLST28
 3509 0e0b 29       		.uleb128 0x29
 3510 0e0c 9E010000 		.4byte	.LASF166
 3511 0e10 01       		.byte	0x1
 3512 0e11 82       		.byte	0x82
 3513 0e12 19080000 		.4byte	0x819
 3514 0e16 BF040000 		.4byte	.LLST29
 3515 0e1a 25       		.uleb128 0x25
 3516 0e1b 0C000000 		.4byte	.LVL74
 3517 0e1f 590D0000 		.4byte	0xd59
 3518 0e23 370E0000 		.4byte	0xe37
 3519 0e27 21       		.uleb128 0x21
 3520 0e28 01       		.uleb128 0x1
 3521 0e29 50       		.byte	0x50
 3522 0e2a 02       		.uleb128 0x2
 3523 0e2b 74       		.byte	0x74
 3524 0e2c 00       		.sleb128 0
 3525 0e2d 21       		.uleb128 0x21
 3526 0e2e 01       		.uleb128 0x1
 3527 0e2f 51       		.byte	0x51
 3528 0e30 05       		.uleb128 0x5
 3529 0e31 03       		.byte	0x3
 3530 0e32 04000000 		.4byte	.LANCHOR0+4
 3531 0e36 00       		.byte	0
 3532 0e37 31       		.uleb128 0x31
 3533 0e38 2A000000 		.4byte	.LVL76
 3534 0e3c 21       		.uleb128 0x21
 3535 0e3d 01       		.uleb128 0x1
 3536 0e3e 50       		.byte	0x50
 3537 0e3f 02       		.uleb128 0x2
 3538 0e40 74       		.byte	0x74
 3539 0e41 00       		.sleb128 0
 3540 0e42 21       		.uleb128 0x21
 3541 0e43 01       		.uleb128 0x1
 3542 0e44 51       		.byte	0x51
ARM GAS  C:\Users\Phuong\AppData\Local\Temp\ccKPluhm.s 			page 81


 3543 0e45 05       		.uleb128 0x5
 3544 0e46 03       		.byte	0x3
 3545 0e47 04000000 		.4byte	.LANCHOR0+4
 3546 0e4b 21       		.uleb128 0x21
 3547 0e4c 01       		.uleb128 0x1
 3548 0e4d 52       		.byte	0x52
 3549 0e4e 01       		.uleb128 0x1
 3550 0e4f 31       		.byte	0x31
 3551 0e50 00       		.byte	0
 3552 0e51 00       		.byte	0
 3553 0e52 32       		.uleb128 0x32
 3554 0e53 8B010000 		.4byte	.LASF182
 3555 0e57 01       		.byte	0x1
 3556 0e58 4301     		.2byte	0x143
 3557 0e5a 00000000 		.4byte	.LFB60
 3558 0e5e 70010000 		.4byte	.LFE60-.LFB60
 3559 0e62 01       		.uleb128 0x1
 3560 0e63 9C       		.byte	0x9c
 3561 0e64 910F0000 		.4byte	0xf91
 3562 0e68 22       		.uleb128 0x22
 3563 0e69 7000     		.ascii	"p\000"
 3564 0e6b 01       		.byte	0x1
 3565 0e6c 4301     		.2byte	0x143
 3566 0e6e 71020000 		.4byte	0x271
 3567 0e72 E8040000 		.4byte	.LLST30
 3568 0e76 22       		.uleb128 0x22
 3569 0e77 696E7000 		.ascii	"inp\000"
 3570 0e7b 01       		.byte	0x1
 3571 0e7c 4301     		.2byte	0x143
 3572 0e7e DD050000 		.4byte	0x5dd
 3573 0e82 2A050000 		.4byte	.LLST31
 3574 0e86 19       		.uleb128 0x19
 3575 0e87 14060000 		.4byte	.LASF153
 3576 0e8b 01       		.byte	0x1
 3577 0e8c 4301     		.2byte	0x143
 3578 0e8e 2E070000 		.4byte	0x72e
 3579 0e92 56050000 		.4byte	.LLST32
 3580 0e96 24       		.uleb128 0x24
 3581 0e97 A9090000 		.4byte	.LASF110
 3582 0e9b 01       		.byte	0x1
 3583 0e9c 4501     		.2byte	0x145
 3584 0e9e DB0B0000 		.4byte	0xbdb
 3585 0ea2 9B050000 		.4byte	.LLST33
 3586 0ea6 24       		.uleb128 0x24
 3587 0ea7 9E010000 		.4byte	.LASF166
 3588 0eab 01       		.byte	0x1
 3589 0eac 4601     		.2byte	0x146
 3590 0eae 19080000 		.4byte	0x819
 3591 0eb2 AE050000 		.4byte	.LLST34
 3592 0eb6 24       		.uleb128 0x24
 3593 0eb7 95050000 		.4byte	.LASF183
 3594 0ebb 01       		.byte	0x1
 3595 0ebc 4701     		.2byte	0x147
 3596 0ebe 19080000 		.4byte	0x819
 3597 0ec2 ED050000 		.4byte	.LLST35
 3598 0ec6 33       		.uleb128 0x33
 3599 0ec7 FA000000 		.4byte	.LBB3
ARM GAS  C:\Users\Phuong\AppData\Local\Temp\ccKPluhm.s 			page 82


 3600 0ecb 0A000000 		.4byte	.LBE3-.LBB3
 3601 0ecf F90E0000 		.4byte	0xef9
 3602 0ed3 1C       		.uleb128 0x1c
 3603 0ed4 67070000 		.4byte	.LASF184
 3604 0ed8 01       		.byte	0x1
 3605 0ed9 8F01     		.2byte	0x18f
 3606 0edb 1C010000 		.4byte	0x11c
 3607 0edf 02       		.uleb128 0x2
 3608 0ee0 91       		.byte	0x91
 3609 0ee1 64       		.sleb128 -28
 3610 0ee2 20       		.uleb128 0x20
 3611 0ee3 04010000 		.4byte	.LVL103
 3612 0ee7 160D0000 		.4byte	0xd16
 3613 0eeb 21       		.uleb128 0x21
 3614 0eec 01       		.uleb128 0x1
 3615 0eed 50       		.byte	0x50
 3616 0eee 02       		.uleb128 0x2
 3617 0eef 75       		.byte	0x75
 3618 0ef0 00       		.sleb128 0
 3619 0ef1 21       		.uleb128 0x21
 3620 0ef2 01       		.uleb128 0x1
 3621 0ef3 51       		.byte	0x51
 3622 0ef4 02       		.uleb128 0x2
 3623 0ef5 91       		.byte	0x91
 3624 0ef6 64       		.sleb128 -28
 3625 0ef7 00       		.byte	0
 3626 0ef8 00       		.byte	0
 3627 0ef9 25       		.uleb128 0x25
 3628 0efa 22000000 		.4byte	.LVL85
 3629 0efe E8120000 		.4byte	0x12e8
 3630 0f02 0D0F0000 		.4byte	0xf0d
 3631 0f06 21       		.uleb128 0x21
 3632 0f07 01       		.uleb128 0x1
 3633 0f08 50       		.byte	0x50
 3634 0f09 02       		.uleb128 0x2
 3635 0f0a 76       		.byte	0x76
 3636 0f0b 00       		.sleb128 0
 3637 0f0c 00       		.byte	0
 3638 0f0d 25       		.uleb128 0x25
 3639 0f0e 36000000 		.4byte	.LVL89
 3640 0f12 DD120000 		.4byte	0x12dd
 3641 0f16 210F0000 		.4byte	0xf21
 3642 0f1a 21       		.uleb128 0x21
 3643 0f1b 01       		.uleb128 0x1
 3644 0f1c 50       		.byte	0x50
 3645 0f1d 02       		.uleb128 0x2
 3646 0f1e 77       		.byte	0x77
 3647 0f1f 00       		.sleb128 0
 3648 0f20 00       		.byte	0
 3649 0f21 25       		.uleb128 0x25
 3650 0f22 40000000 		.4byte	.LVL90
 3651 0f26 E8120000 		.4byte	0x12e8
 3652 0f2a 350F0000 		.4byte	0xf35
 3653 0f2e 21       		.uleb128 0x21
 3654 0f2f 01       		.uleb128 0x1
 3655 0f30 50       		.byte	0x50
 3656 0f31 02       		.uleb128 0x2
ARM GAS  C:\Users\Phuong\AppData\Local\Temp\ccKPluhm.s 			page 83


 3657 0f32 76       		.byte	0x76
 3658 0f33 00       		.sleb128 0
 3659 0f34 00       		.byte	0
 3660 0f35 25       		.uleb128 0x25
 3661 0f36 54000000 		.4byte	.LVL91
 3662 0f3a 160D0000 		.4byte	0xd16
 3663 0f3e 4F0F0000 		.4byte	0xf4f
 3664 0f42 21       		.uleb128 0x21
 3665 0f43 01       		.uleb128 0x1
 3666 0f44 50       		.byte	0x50
 3667 0f45 02       		.uleb128 0x2
 3668 0f46 75       		.byte	0x75
 3669 0f47 00       		.sleb128 0
 3670 0f48 21       		.uleb128 0x21
 3671 0f49 01       		.uleb128 0x1
 3672 0f4a 51       		.byte	0x51
 3673 0f4b 02       		.uleb128 0x2
 3674 0f4c 74       		.byte	0x74
 3675 0f4d 00       		.sleb128 0
 3676 0f4e 00       		.byte	0
 3677 0f4f 25       		.uleb128 0x25
 3678 0f50 5E000000 		.4byte	.LVL93
 3679 0f54 E8120000 		.4byte	0x12e8
 3680 0f58 630F0000 		.4byte	0xf63
 3681 0f5c 21       		.uleb128 0x21
 3682 0f5d 01       		.uleb128 0x1
 3683 0f5e 50       		.byte	0x50
 3684 0f5f 02       		.uleb128 0x2
 3685 0f60 76       		.byte	0x76
 3686 0f61 00       		.sleb128 0
 3687 0f62 00       		.byte	0
 3688 0f63 25       		.uleb128 0x25
 3689 0f64 D2000000 		.4byte	.LVL99
 3690 0f68 F7090000 		.4byte	0x9f7
 3691 0f6c 770F0000 		.4byte	0xf77
 3692 0f70 21       		.uleb128 0x21
 3693 0f71 01       		.uleb128 0x1
 3694 0f72 50       		.byte	0x50
 3695 0f73 02       		.uleb128 0x2
 3696 0f74 74       		.byte	0x74
 3697 0f75 00       		.sleb128 0
 3698 0f76 00       		.byte	0
 3699 0f77 1E       		.uleb128 0x1e
 3700 0f78 18010000 		.4byte	.LVL104
 3701 0f7c F7090000 		.4byte	0x9f7
 3702 0f80 20       		.uleb128 0x20
 3703 0f81 60010000 		.4byte	.LVL108
 3704 0f85 E8120000 		.4byte	0x12e8
 3705 0f89 21       		.uleb128 0x21
 3706 0f8a 01       		.uleb128 0x1
 3707 0f8b 50       		.byte	0x50
 3708 0f8c 02       		.uleb128 0x2
 3709 0f8d 76       		.byte	0x76
 3710 0f8e 00       		.sleb128 0
 3711 0f8f 00       		.byte	0
 3712 0f90 00       		.byte	0
 3713 0f91 34       		.uleb128 0x34
ARM GAS  C:\Users\Phuong\AppData\Local\Temp\ccKPluhm.s 			page 84


 3714 0f92 19060000 		.4byte	.LASF185
 3715 0f96 01       		.byte	0x1
 3716 0f97 E601     		.2byte	0x1e6
 3717 0f99 42010000 		.4byte	0x142
 3718 0f9d 00000000 		.4byte	.LFB62
 3719 0fa1 8C000000 		.4byte	.LFE62-.LFB62
 3720 0fa5 01       		.uleb128 0x1
 3721 0fa6 9C       		.byte	0x9c
 3722 0fa7 45100000 		.4byte	0x1045
 3723 0fab 19       		.uleb128 0x19
 3724 0fac BD040000 		.4byte	.LASF119
 3725 0fb0 01       		.byte	0x1
 3726 0fb1 E601     		.2byte	0x1e6
 3727 0fb3 DD050000 		.4byte	0x5dd
 3728 0fb7 00060000 		.4byte	.LLST36
 3729 0fbb 19       		.uleb128 0x19
 3730 0fbc 67070000 		.4byte	.LASF184
 3731 0fc0 01       		.byte	0x1
 3732 0fc1 E601     		.2byte	0x1e6
 3733 0fc3 2E070000 		.4byte	0x72e
 3734 0fc7 6E060000 		.4byte	.LLST37
 3735 0fcb 24       		.uleb128 0x24
 3736 0fcc 9E010000 		.4byte	.LASF166
 3737 0fd0 01       		.byte	0x1
 3738 0fd1 E801     		.2byte	0x1e8
 3739 0fd3 19080000 		.4byte	0x819
 3740 0fd7 B0060000 		.4byte	.LLST38
 3741 0fdb 25       		.uleb128 0x25
 3742 0fdc 24000000 		.4byte	.LVL112
 3743 0fe0 590D0000 		.4byte	0xd59
 3744 0fe4 F50F0000 		.4byte	0xff5
 3745 0fe8 21       		.uleb128 0x21
 3746 0fe9 01       		.uleb128 0x1
 3747 0fea 50       		.byte	0x50
 3748 0feb 02       		.uleb128 0x2
 3749 0fec 75       		.byte	0x75
 3750 0fed 00       		.sleb128 0
 3751 0fee 21       		.uleb128 0x21
 3752 0fef 01       		.uleb128 0x1
 3753 0ff0 51       		.byte	0x51
 3754 0ff1 02       		.uleb128 0x2
 3755 0ff2 76       		.byte	0x76
 3756 0ff3 00       		.sleb128 0
 3757 0ff4 00       		.byte	0
 3758 0ff5 2B       		.uleb128 0x2b
 3759 0ff6 42000000 		.4byte	.LVL115
 3760 0ffa 10100000 		.4byte	0x1010
 3761 0ffe 21       		.uleb128 0x21
 3762 0fff 01       		.uleb128 0x1
 3763 1000 50       		.byte	0x50
 3764 1001 02       		.uleb128 0x2
 3765 1002 75       		.byte	0x75
 3766 1003 00       		.sleb128 0
 3767 1004 21       		.uleb128 0x21
 3768 1005 01       		.uleb128 0x1
 3769 1006 51       		.byte	0x51
 3770 1007 02       		.uleb128 0x2
ARM GAS  C:\Users\Phuong\AppData\Local\Temp\ccKPluhm.s 			page 85


 3771 1008 76       		.byte	0x76
 3772 1009 00       		.sleb128 0
 3773 100a 21       		.uleb128 0x21
 3774 100b 01       		.uleb128 0x1
 3775 100c 52       		.byte	0x52
 3776 100d 01       		.uleb128 0x1
 3777 100e 31       		.byte	0x31
 3778 100f 00       		.byte	0
 3779 1010 25       		.uleb128 0x25
 3780 1011 56000000 		.4byte	.LVL116
 3781 1015 EB0A0000 		.4byte	0xaeb
 3782 1019 2F100000 		.4byte	0x102f
 3783 101d 21       		.uleb128 0x21
 3784 101e 01       		.uleb128 0x1
 3785 101f 50       		.byte	0x50
 3786 1020 02       		.uleb128 0x2
 3787 1021 75       		.byte	0x75
 3788 1022 00       		.sleb128 0
 3789 1023 21       		.uleb128 0x21
 3790 1024 01       		.uleb128 0x1
 3791 1025 51       		.byte	0x51
 3792 1026 02       		.uleb128 0x2
 3793 1027 74       		.byte	0x74
 3794 1028 00       		.sleb128 0
 3795 1029 21       		.uleb128 0x21
 3796 102a 01       		.uleb128 0x1
 3797 102b 52       		.byte	0x52
 3798 102c 01       		.uleb128 0x1
 3799 102d 46       		.byte	0x46
 3800 102e 00       		.byte	0
 3801 102f 20       		.uleb128 0x20
 3802 1030 5E000000 		.4byte	.LVL117
 3803 1034 B7090000 		.4byte	0x9b7
 3804 1038 21       		.uleb128 0x21
 3805 1039 01       		.uleb128 0x1
 3806 103a 50       		.byte	0x50
 3807 103b 02       		.uleb128 0x2
 3808 103c 74       		.byte	0x74
 3809 103d 00       		.sleb128 0
 3810 103e 21       		.uleb128 0x21
 3811 103f 01       		.uleb128 0x1
 3812 1040 51       		.byte	0x51
 3813 1041 01       		.uleb128 0x1
 3814 1042 35       		.byte	0x35
 3815 1043 00       		.byte	0
 3816 1044 00       		.byte	0
 3817 1045 34       		.uleb128 0x34
 3818 1046 A1080000 		.4byte	.LASF186
 3819 104a 01       		.byte	0x1
 3820 104b C101     		.2byte	0x1c1
 3821 104d 42010000 		.4byte	0x142
 3822 1051 00000000 		.4byte	.LFB61
 3823 1055 64000000 		.4byte	.LFE61-.LFB61
 3824 1059 01       		.uleb128 0x1
 3825 105a 9C       		.byte	0x9c
 3826 105b B6100000 		.4byte	0x10b6
 3827 105f 19       		.uleb128 0x19
ARM GAS  C:\Users\Phuong\AppData\Local\Temp\ccKPluhm.s 			page 86


 3828 1060 0D060000 		.4byte	.LASF187
 3829 1064 01       		.byte	0x1
 3830 1065 C101     		.2byte	0x1c1
 3831 1067 2E070000 		.4byte	0x72e
 3832 106b E4060000 		.4byte	.LLST39
 3833 106f 19       		.uleb128 0x19
 3834 1070 67070000 		.4byte	.LASF184
 3835 1074 01       		.byte	0x1
 3836 1075 C101     		.2byte	0x1c1
 3837 1077 2E070000 		.4byte	0x72e
 3838 107b 3C070000 		.4byte	.LLST40
 3839 107f 1B       		.uleb128 0x1b
 3840 1080 65727200 		.ascii	"err\000"
 3841 1084 01       		.byte	0x1
 3842 1085 C301     		.2byte	0x1c3
 3843 1087 42010000 		.4byte	0x142
 3844 108b 7E070000 		.4byte	.LLST41
 3845 108f 24       		.uleb128 0x24
 3846 1090 BD040000 		.4byte	.LASF119
 3847 1094 01       		.byte	0x1
 3848 1095 C401     		.2byte	0x1c4
 3849 1097 DD050000 		.4byte	0x5dd
 3850 109b B6070000 		.4byte	.LLST42
 3851 109f 20       		.uleb128 0x20
 3852 10a0 42000000 		.4byte	.LVL135
 3853 10a4 910F0000 		.4byte	0xf91
 3854 10a8 21       		.uleb128 0x21
 3855 10a9 01       		.uleb128 0x1
 3856 10aa 50       		.byte	0x50
 3857 10ab 02       		.uleb128 0x2
 3858 10ac 74       		.byte	0x74
 3859 10ad 00       		.sleb128 0
 3860 10ae 21       		.uleb128 0x21
 3861 10af 01       		.uleb128 0x1
 3862 10b0 51       		.byte	0x51
 3863 10b1 02       		.uleb128 0x2
 3864 10b2 75       		.byte	0x75
 3865 10b3 00       		.sleb128 0
 3866 10b4 00       		.byte	0
 3867 10b5 00       		.byte	0
 3868 10b6 34       		.uleb128 0x34
 3869 10b7 64040000 		.4byte	.LASF188
 3870 10bb 01       		.byte	0x1
 3871 10bc 4502     		.2byte	0x245
 3872 10be 42010000 		.4byte	0x142
 3873 10c2 00000000 		.4byte	.LFB64
 3874 10c6 94000000 		.4byte	.LFE64-.LFB64
 3875 10ca 01       		.uleb128 0x1
 3876 10cb 9C       		.byte	0x9c
 3877 10cc 84110000 		.4byte	0x1184
 3878 10d0 19       		.uleb128 0x19
 3879 10d1 BD040000 		.4byte	.LASF119
 3880 10d5 01       		.byte	0x1
 3881 10d6 4502     		.2byte	0x245
 3882 10d8 DD050000 		.4byte	0x5dd
 3883 10dc C9070000 		.4byte	.LLST43
 3884 10e0 19       		.uleb128 0x19
ARM GAS  C:\Users\Phuong\AppData\Local\Temp\ccKPluhm.s 			page 87


 3885 10e1 67070000 		.4byte	.LASF184
 3886 10e5 01       		.byte	0x1
 3887 10e6 4502     		.2byte	0x245
 3888 10e8 2E070000 		.4byte	0x72e
 3889 10ec 37080000 		.4byte	.LLST44
 3890 10f0 24       		.uleb128 0x24
 3891 10f1 9E010000 		.4byte	.LASF166
 3892 10f5 01       		.byte	0x1
 3893 10f6 4702     		.2byte	0x247
 3894 10f8 19080000 		.4byte	0x819
 3895 10fc 79080000 		.4byte	.LLST45
 3896 1100 25       		.uleb128 0x25
 3897 1101 24000000 		.4byte	.LVL146
 3898 1105 160D0000 		.4byte	0xd16
 3899 1109 1A110000 		.4byte	0x111a
 3900 110d 21       		.uleb128 0x21
 3901 110e 01       		.uleb128 0x1
 3902 110f 50       		.byte	0x50
 3903 1110 02       		.uleb128 0x2
 3904 1111 74       		.byte	0x74
 3905 1112 00       		.sleb128 0
 3906 1113 21       		.uleb128 0x21
 3907 1114 01       		.uleb128 0x1
 3908 1115 51       		.byte	0x51
 3909 1116 02       		.uleb128 0x2
 3910 1117 76       		.byte	0x76
 3911 1118 00       		.sleb128 0
 3912 1119 00       		.byte	0
 3913 111a 25       		.uleb128 0x25
 3914 111b 36000000 		.4byte	.LVL149
 3915 111f 60090000 		.4byte	0x960
 3916 1123 34110000 		.4byte	0x1134
 3917 1127 21       		.uleb128 0x21
 3918 1128 01       		.uleb128 0x1
 3919 1129 50       		.byte	0x50
 3920 112a 02       		.uleb128 0x2
 3921 112b 74       		.byte	0x74
 3922 112c 00       		.sleb128 0
 3923 112d 21       		.uleb128 0x21
 3924 112e 01       		.uleb128 0x1
 3925 112f 51       		.byte	0x51
 3926 1130 02       		.uleb128 0x2
 3927 1131 75       		.byte	0x75
 3928 1132 00       		.sleb128 0
 3929 1133 00       		.byte	0
 3930 1134 25       		.uleb128 0x25
 3931 1135 50000000 		.4byte	.LVL150
 3932 1139 EB0A0000 		.4byte	0xaeb
 3933 113d 53110000 		.4byte	0x1153
 3934 1141 21       		.uleb128 0x21
 3935 1142 01       		.uleb128 0x1
 3936 1143 50       		.byte	0x50
 3937 1144 02       		.uleb128 0x2
 3938 1145 74       		.byte	0x74
 3939 1146 00       		.sleb128 0
 3940 1147 21       		.uleb128 0x21
 3941 1148 01       		.uleb128 0x1
ARM GAS  C:\Users\Phuong\AppData\Local\Temp\ccKPluhm.s 			page 88


 3942 1149 51       		.byte	0x51
 3943 114a 02       		.uleb128 0x2
 3944 114b 75       		.byte	0x75
 3945 114c 00       		.sleb128 0
 3946 114d 21       		.uleb128 0x21
 3947 114e 01       		.uleb128 0x1
 3948 114f 52       		.byte	0x52
 3949 1150 01       		.uleb128 0x1
 3950 1151 47       		.byte	0x47
 3951 1152 00       		.byte	0
 3952 1153 2B       		.uleb128 0x2b
 3953 1154 5E000000 		.4byte	.LVL151
 3954 1158 6E110000 		.4byte	0x116e
 3955 115c 21       		.uleb128 0x21
 3956 115d 01       		.uleb128 0x1
 3957 115e 50       		.byte	0x50
 3958 115f 02       		.uleb128 0x2
 3959 1160 74       		.byte	0x74
 3960 1161 00       		.sleb128 0
 3961 1162 21       		.uleb128 0x21
 3962 1163 01       		.uleb128 0x1
 3963 1164 51       		.byte	0x51
 3964 1165 02       		.uleb128 0x2
 3965 1166 76       		.byte	0x76
 3966 1167 00       		.sleb128 0
 3967 1168 21       		.uleb128 0x21
 3968 1169 01       		.uleb128 0x1
 3969 116a 52       		.byte	0x52
 3970 116b 01       		.uleb128 0x1
 3971 116c 30       		.byte	0x30
 3972 116d 00       		.byte	0
 3973 116e 20       		.uleb128 0x20
 3974 116f 66000000 		.4byte	.LVL152
 3975 1173 F3120000 		.4byte	0x12f3
 3976 1177 21       		.uleb128 0x21
 3977 1178 01       		.uleb128 0x1
 3978 1179 50       		.byte	0x50
 3979 117a 01       		.uleb128 0x1
 3980 117b 3B       		.byte	0x3b
 3981 117c 21       		.uleb128 0x21
 3982 117d 01       		.uleb128 0x1
 3983 117e 51       		.byte	0x51
 3984 117f 02       		.uleb128 0x2
 3985 1180 75       		.byte	0x75
 3986 1181 00       		.sleb128 0
 3987 1182 00       		.byte	0
 3988 1183 00       		.byte	0
 3989 1184 34       		.uleb128 0x34
 3990 1185 85050000 		.4byte	.LASF189
 3991 1189 01       		.byte	0x1
 3992 118a 2102     		.2byte	0x221
 3993 118c 42010000 		.4byte	0x142
 3994 1190 00000000 		.4byte	.LFB63
 3995 1194 68000000 		.4byte	.LFE63-.LFB63
 3996 1198 01       		.uleb128 0x1
 3997 1199 9C       		.byte	0x9c
 3998 119a 0F120000 		.4byte	0x120f
ARM GAS  C:\Users\Phuong\AppData\Local\Temp\ccKPluhm.s 			page 89


 3999 119e 19       		.uleb128 0x19
 4000 119f 0D060000 		.4byte	.LASF187
 4001 11a3 01       		.byte	0x1
 4002 11a4 2102     		.2byte	0x221
 4003 11a6 2E070000 		.4byte	0x72e
 4004 11aa CE080000 		.4byte	.LLST46
 4005 11ae 19       		.uleb128 0x19
 4006 11af 67070000 		.4byte	.LASF184
 4007 11b3 01       		.byte	0x1
 4008 11b4 2102     		.2byte	0x221
 4009 11b6 2E070000 		.4byte	0x72e
 4010 11ba 26090000 		.4byte	.LLST47
 4011 11be 1B       		.uleb128 0x1b
 4012 11bf 65727200 		.ascii	"err\000"
 4013 11c3 01       		.byte	0x1
 4014 11c4 2302     		.2byte	0x223
 4015 11c6 42010000 		.4byte	0x142
 4016 11ca 68090000 		.4byte	.LLST48
 4017 11ce 24       		.uleb128 0x24
 4018 11cf BD040000 		.4byte	.LASF119
 4019 11d3 01       		.byte	0x1
 4020 11d4 2402     		.2byte	0x224
 4021 11d6 DD050000 		.4byte	0x5dd
 4022 11da 95090000 		.4byte	.LLST49
 4023 11de 2A       		.uleb128 0x2a
 4024 11df 3A000000 		.4byte	.LBB4
 4025 11e3 0E000000 		.4byte	.LBE4-.LBB4
 4026 11e7 1B       		.uleb128 0x1b
 4027 11e8 72657300 		.ascii	"res\000"
 4028 11ec 01       		.byte	0x1
 4029 11ed 2F02     		.2byte	0x22f
 4030 11ef 42010000 		.4byte	0x142
 4031 11f3 A8090000 		.4byte	.LLST50
 4032 11f7 20       		.uleb128 0x20
 4033 11f8 42000000 		.4byte	.LVL170
 4034 11fc B6100000 		.4byte	0x10b6
 4035 1200 21       		.uleb128 0x21
 4036 1201 01       		.uleb128 0x1
 4037 1202 50       		.byte	0x50
 4038 1203 02       		.uleb128 0x2
 4039 1204 74       		.byte	0x74
 4040 1205 00       		.sleb128 0
 4041 1206 21       		.uleb128 0x21
 4042 1207 01       		.uleb128 0x1
 4043 1208 51       		.byte	0x51
 4044 1209 02       		.uleb128 0x2
 4045 120a 77       		.byte	0x77
 4046 120b 00       		.sleb128 0
 4047 120c 00       		.byte	0
 4048 120d 00       		.byte	0
 4049 120e 00       		.byte	0
 4050 120f 32       		.uleb128 0x32
 4051 1210 68010000 		.4byte	.LASF190
 4052 1214 01       		.byte	0x1
 4053 1215 7F02     		.2byte	0x27f
 4054 1217 00000000 		.4byte	.LFB65
 4055 121b 38000000 		.4byte	.LFE65-.LFB65
ARM GAS  C:\Users\Phuong\AppData\Local\Temp\ccKPluhm.s 			page 90


 4056 121f 01       		.uleb128 0x1
 4057 1220 9C       		.byte	0x9c
 4058 1221 66120000 		.4byte	0x1266
 4059 1225 24       		.uleb128 0x24
 4060 1226 BD040000 		.4byte	.LASF119
 4061 122a 01       		.byte	0x1
 4062 122b 8102     		.2byte	0x281
 4063 122d DD050000 		.4byte	0x5dd
 4064 1231 BB090000 		.4byte	.LLST51
 4065 1235 2A       		.uleb128 0x2a
 4066 1236 08000000 		.4byte	.LBB5
 4067 123a 24000000 		.4byte	.LBE5-.LBB5
 4068 123e 24       		.uleb128 0x24
 4069 123f 9E010000 		.4byte	.LASF166
 4070 1243 01       		.byte	0x1
 4071 1244 8402     		.2byte	0x284
 4072 1246 19080000 		.4byte	0x819
 4073 124a CE090000 		.4byte	.LLST52
 4074 124e 20       		.uleb128 0x20
 4075 124f 24000000 		.4byte	.LVL182
 4076 1253 E70B0000 		.4byte	0xbe7
 4077 1257 21       		.uleb128 0x21
 4078 1258 01       		.uleb128 0x1
 4079 1259 50       		.byte	0x50
 4080 125a 02       		.uleb128 0x2
 4081 125b 75       		.byte	0x75
 4082 125c 00       		.sleb128 0
 4083 125d 21       		.uleb128 0x21
 4084 125e 01       		.uleb128 0x1
 4085 125f 51       		.byte	0x51
 4086 1260 02       		.uleb128 0x2
 4087 1261 74       		.byte	0x74
 4088 1262 00       		.sleb128 0
 4089 1263 00       		.byte	0
 4090 1264 00       		.byte	0
 4091 1265 00       		.byte	0
 4092 1266 2F       		.uleb128 0x2f
 4093 1267 A4010000 		.4byte	.LASF191
 4094 126b 01       		.byte	0x1
 4095 126c 6B       		.byte	0x6b
 4096 126d 1C010000 		.4byte	0x11c
 4097 1271 05       		.uleb128 0x5
 4098 1272 03       		.byte	0x3
 4099 1273 04000000 		.4byte	allsystems
 4100 1277 2F       		.uleb128 0x2f
 4101 1278 2F080000 		.4byte	.LASF192
 4102 127c 01       		.byte	0x1
 4103 127d 6C       		.byte	0x6c
 4104 127e 1C010000 		.4byte	0x11c
 4105 1282 05       		.uleb128 0x5
 4106 1283 03       		.byte	0x3
 4107 1284 00000000 		.4byte	allrouters
 4108 1288 35       		.uleb128 0x35
 4109 1289 4C040000 		.4byte	.LASF193
 4110 128d 07       		.byte	0x7
 4111 128e 5201     		.2byte	0x152
 4112 1290 94120000 		.4byte	0x1294
ARM GAS  C:\Users\Phuong\AppData\Local\Temp\ccKPluhm.s 			page 91


 4113 1294 07       		.uleb128 0x7
 4114 1295 37010000 		.4byte	0x137
 4115 1299 35       		.uleb128 0x35
 4116 129a B1060000 		.4byte	.LASF194
 4117 129e 0C       		.byte	0xc
 4118 129f 3001     		.2byte	0x130
 4119 12a1 03050000 		.4byte	0x503
 4120 12a5 35       		.uleb128 0x35
 4121 12a6 BD050000 		.4byte	.LASF195
 4122 12aa 0D       		.byte	0xd
 4123 12ab 6101     		.2byte	0x161
 4124 12ad DD050000 		.4byte	0x5dd
 4125 12b1 36       		.uleb128 0x36
 4126 12b2 58010000 		.4byte	.LASF196
 4127 12b6 10       		.byte	0x10
 4128 12b7 7E       		.byte	0x7e
 4129 12b8 C8080000 		.4byte	0x8c8
 4130 12bc 37       		.uleb128 0x37
 4131 12bd 60020000 		.4byte	.LASF197
 4132 12c1 60020000 		.4byte	.LASF197
 4133 12c5 12       		.byte	0x12
 4134 12c6 36       		.byte	0x36
 4135 12c7 37       		.uleb128 0x37
 4136 12c8 D5020000 		.4byte	.LASF198
 4137 12cc D5020000 		.4byte	.LASF198
 4138 12d0 13       		.byte	0x13
 4139 12d1 53       		.byte	0x53
 4140 12d2 37       		.uleb128 0x37
 4141 12d3 660A0000 		.4byte	.LASF199
 4142 12d7 660A0000 		.4byte	.LASF199
 4143 12db 09       		.byte	0x9
 4144 12dc DF       		.byte	0xdf
 4145 12dd 37       		.uleb128 0x37
 4146 12de 58040000 		.4byte	.LASF200
 4147 12e2 58040000 		.4byte	.LASF200
 4148 12e6 14       		.byte	0x14
 4149 12e7 4A       		.byte	0x4a
 4150 12e8 37       		.uleb128 0x37
 4151 12e9 B1030000 		.4byte	.LASF201
 4152 12ed B1030000 		.4byte	.LASF201
 4153 12f1 09       		.byte	0x9
 4154 12f2 E9       		.byte	0xe9
 4155 12f3 37       		.uleb128 0x37
 4156 12f4 AF000000 		.4byte	.LASF202
 4157 12f8 AF000000 		.4byte	.LASF202
 4158 12fc 0B       		.byte	0xb
 4159 12fd 95       		.byte	0x95
 4160 12fe 37       		.uleb128 0x37
 4161 12ff 760A0000 		.4byte	.LASF203
 4162 1303 760A0000 		.4byte	.LASF203
 4163 1307 0B       		.byte	0xb
 4164 1308 90       		.byte	0x90
 4165 1309 00       		.byte	0
 4166              		.section	.debug_abbrev,"",%progbits
 4167              	.Ldebug_abbrev0:
 4168 0000 01       		.uleb128 0x1
 4169 0001 11       		.uleb128 0x11
ARM GAS  C:\Users\Phuong\AppData\Local\Temp\ccKPluhm.s 			page 92


 4170 0002 01       		.byte	0x1
 4171 0003 25       		.uleb128 0x25
 4172 0004 0E       		.uleb128 0xe
 4173 0005 13       		.uleb128 0x13
 4174 0006 0B       		.uleb128 0xb
 4175 0007 03       		.uleb128 0x3
 4176 0008 0E       		.uleb128 0xe
 4177 0009 1B       		.uleb128 0x1b
 4178 000a 0E       		.uleb128 0xe
 4179 000b 55       		.uleb128 0x55
 4180 000c 17       		.uleb128 0x17
 4181 000d 11       		.uleb128 0x11
 4182 000e 01       		.uleb128 0x1
 4183 000f 10       		.uleb128 0x10
 4184 0010 17       		.uleb128 0x17
 4185 0011 00       		.byte	0
 4186 0012 00       		.byte	0
 4187 0013 02       		.uleb128 0x2
 4188 0014 24       		.uleb128 0x24
 4189 0015 00       		.byte	0
 4190 0016 0B       		.uleb128 0xb
 4191 0017 0B       		.uleb128 0xb
 4192 0018 3E       		.uleb128 0x3e
 4193 0019 0B       		.uleb128 0xb
 4194 001a 03       		.uleb128 0x3
 4195 001b 0E       		.uleb128 0xe
 4196 001c 00       		.byte	0
 4197 001d 00       		.byte	0
 4198 001e 03       		.uleb128 0x3
 4199 001f 16       		.uleb128 0x16
 4200 0020 00       		.byte	0
 4201 0021 03       		.uleb128 0x3
 4202 0022 0E       		.uleb128 0xe
 4203 0023 3A       		.uleb128 0x3a
 4204 0024 0B       		.uleb128 0xb
 4205 0025 3B       		.uleb128 0x3b
 4206 0026 0B       		.uleb128 0xb
 4207 0027 49       		.uleb128 0x49
 4208 0028 13       		.uleb128 0x13
 4209 0029 00       		.byte	0
 4210 002a 00       		.byte	0
 4211 002b 04       		.uleb128 0x4
 4212 002c 24       		.uleb128 0x24
 4213 002d 00       		.byte	0
 4214 002e 0B       		.uleb128 0xb
 4215 002f 0B       		.uleb128 0xb
 4216 0030 3E       		.uleb128 0x3e
 4217 0031 0B       		.uleb128 0xb
 4218 0032 03       		.uleb128 0x3
 4219 0033 08       		.uleb128 0x8
 4220 0034 00       		.byte	0
 4221 0035 00       		.byte	0
 4222 0036 05       		.uleb128 0x5
 4223 0037 0F       		.uleb128 0xf
 4224 0038 00       		.byte	0
 4225 0039 0B       		.uleb128 0xb
 4226 003a 0B       		.uleb128 0xb
ARM GAS  C:\Users\Phuong\AppData\Local\Temp\ccKPluhm.s 			page 93


 4227 003b 00       		.byte	0
 4228 003c 00       		.byte	0
 4229 003d 06       		.uleb128 0x6
 4230 003e 0F       		.uleb128 0xf
 4231 003f 00       		.byte	0
 4232 0040 0B       		.uleb128 0xb
 4233 0041 0B       		.uleb128 0xb
 4234 0042 49       		.uleb128 0x49
 4235 0043 13       		.uleb128 0x13
 4236 0044 00       		.byte	0
 4237 0045 00       		.byte	0
 4238 0046 07       		.uleb128 0x7
 4239 0047 26       		.uleb128 0x26
 4240 0048 00       		.byte	0
 4241 0049 49       		.uleb128 0x49
 4242 004a 13       		.uleb128 0x13
 4243 004b 00       		.byte	0
 4244 004c 00       		.byte	0
 4245 004d 08       		.uleb128 0x8
 4246 004e 01       		.uleb128 0x1
 4247 004f 01       		.byte	0x1
 4248 0050 49       		.uleb128 0x49
 4249 0051 13       		.uleb128 0x13
 4250 0052 01       		.uleb128 0x1
 4251 0053 13       		.uleb128 0x13
 4252 0054 00       		.byte	0
 4253 0055 00       		.byte	0
 4254 0056 09       		.uleb128 0x9
 4255 0057 21       		.uleb128 0x21
 4256 0058 00       		.byte	0
 4257 0059 49       		.uleb128 0x49
 4258 005a 13       		.uleb128 0x13
 4259 005b 2F       		.uleb128 0x2f
 4260 005c 0B       		.uleb128 0xb
 4261 005d 00       		.byte	0
 4262 005e 00       		.byte	0
 4263 005f 0A       		.uleb128 0xa
 4264 0060 13       		.uleb128 0x13
 4265 0061 01       		.byte	0x1
 4266 0062 03       		.uleb128 0x3
 4267 0063 0E       		.uleb128 0xe
 4268 0064 0B       		.uleb128 0xb
 4269 0065 0B       		.uleb128 0xb
 4270 0066 3A       		.uleb128 0x3a
 4271 0067 0B       		.uleb128 0xb
 4272 0068 3B       		.uleb128 0x3b
 4273 0069 0B       		.uleb128 0xb
 4274 006a 01       		.uleb128 0x1
 4275 006b 13       		.uleb128 0x13
 4276 006c 00       		.byte	0
 4277 006d 00       		.byte	0
 4278 006e 0B       		.uleb128 0xb
 4279 006f 0D       		.uleb128 0xd
 4280 0070 00       		.byte	0
 4281 0071 03       		.uleb128 0x3
 4282 0072 0E       		.uleb128 0xe
 4283 0073 3A       		.uleb128 0x3a
ARM GAS  C:\Users\Phuong\AppData\Local\Temp\ccKPluhm.s 			page 94


 4284 0074 0B       		.uleb128 0xb
 4285 0075 3B       		.uleb128 0x3b
 4286 0076 0B       		.uleb128 0xb
 4287 0077 49       		.uleb128 0x49
 4288 0078 13       		.uleb128 0x13
 4289 0079 38       		.uleb128 0x38
 4290 007a 0B       		.uleb128 0xb
 4291 007b 00       		.byte	0
 4292 007c 00       		.byte	0
 4293 007d 0C       		.uleb128 0xc
 4294 007e 04       		.uleb128 0x4
 4295 007f 01       		.byte	0x1
 4296 0080 0B       		.uleb128 0xb
 4297 0081 0B       		.uleb128 0xb
 4298 0082 49       		.uleb128 0x49
 4299 0083 13       		.uleb128 0x13
 4300 0084 3A       		.uleb128 0x3a
 4301 0085 0B       		.uleb128 0xb
 4302 0086 3B       		.uleb128 0x3b
 4303 0087 0B       		.uleb128 0xb
 4304 0088 01       		.uleb128 0x1
 4305 0089 13       		.uleb128 0x13
 4306 008a 00       		.byte	0
 4307 008b 00       		.byte	0
 4308 008c 0D       		.uleb128 0xd
 4309 008d 28       		.uleb128 0x28
 4310 008e 00       		.byte	0
 4311 008f 03       		.uleb128 0x3
 4312 0090 0E       		.uleb128 0xe
 4313 0091 1C       		.uleb128 0x1c
 4314 0092 0B       		.uleb128 0xb
 4315 0093 00       		.byte	0
 4316 0094 00       		.byte	0
 4317 0095 0E       		.uleb128 0xe
 4318 0096 28       		.uleb128 0x28
 4319 0097 00       		.byte	0
 4320 0098 03       		.uleb128 0x3
 4321 0099 0E       		.uleb128 0xe
 4322 009a 1C       		.uleb128 0x1c
 4323 009b 0D       		.uleb128 0xd
 4324 009c 00       		.byte	0
 4325 009d 00       		.byte	0
 4326 009e 0F       		.uleb128 0xf
 4327 009f 0D       		.uleb128 0xd
 4328 00a0 00       		.byte	0
 4329 00a1 03       		.uleb128 0x3
 4330 00a2 08       		.uleb128 0x8
 4331 00a3 3A       		.uleb128 0x3a
 4332 00a4 0B       		.uleb128 0xb
 4333 00a5 3B       		.uleb128 0x3b
 4334 00a6 0B       		.uleb128 0xb
 4335 00a7 49       		.uleb128 0x49
 4336 00a8 13       		.uleb128 0x13
 4337 00a9 38       		.uleb128 0x38
 4338 00aa 0B       		.uleb128 0xb
 4339 00ab 00       		.byte	0
 4340 00ac 00       		.byte	0
ARM GAS  C:\Users\Phuong\AppData\Local\Temp\ccKPluhm.s 			page 95


 4341 00ad 10       		.uleb128 0x10
 4342 00ae 13       		.uleb128 0x13
 4343 00af 01       		.byte	0x1
 4344 00b0 03       		.uleb128 0x3
 4345 00b1 0E       		.uleb128 0xe
 4346 00b2 0B       		.uleb128 0xb
 4347 00b3 05       		.uleb128 0x5
 4348 00b4 3A       		.uleb128 0x3a
 4349 00b5 0B       		.uleb128 0xb
 4350 00b6 3B       		.uleb128 0x3b
 4351 00b7 0B       		.uleb128 0xb
 4352 00b8 01       		.uleb128 0x1
 4353 00b9 13       		.uleb128 0x13
 4354 00ba 00       		.byte	0
 4355 00bb 00       		.byte	0
 4356 00bc 11       		.uleb128 0x11
 4357 00bd 0D       		.uleb128 0xd
 4358 00be 00       		.byte	0
 4359 00bf 03       		.uleb128 0x3
 4360 00c0 08       		.uleb128 0x8
 4361 00c1 3A       		.uleb128 0x3a
 4362 00c2 0B       		.uleb128 0xb
 4363 00c3 3B       		.uleb128 0x3b
 4364 00c4 05       		.uleb128 0x5
 4365 00c5 49       		.uleb128 0x49
 4366 00c6 13       		.uleb128 0x13
 4367 00c7 38       		.uleb128 0x38
 4368 00c8 0B       		.uleb128 0xb
 4369 00c9 00       		.byte	0
 4370 00ca 00       		.byte	0
 4371 00cb 12       		.uleb128 0x12
 4372 00cc 0D       		.uleb128 0xd
 4373 00cd 00       		.byte	0
 4374 00ce 03       		.uleb128 0x3
 4375 00cf 0E       		.uleb128 0xe
 4376 00d0 3A       		.uleb128 0x3a
 4377 00d1 0B       		.uleb128 0xb
 4378 00d2 3B       		.uleb128 0x3b
 4379 00d3 05       		.uleb128 0x5
 4380 00d4 49       		.uleb128 0x49
 4381 00d5 13       		.uleb128 0x13
 4382 00d6 38       		.uleb128 0x38
 4383 00d7 0B       		.uleb128 0xb
 4384 00d8 00       		.byte	0
 4385 00d9 00       		.byte	0
 4386 00da 13       		.uleb128 0x13
 4387 00db 0D       		.uleb128 0xd
 4388 00dc 00       		.byte	0
 4389 00dd 03       		.uleb128 0x3
 4390 00de 08       		.uleb128 0x8
 4391 00df 3A       		.uleb128 0x3a
 4392 00e0 0B       		.uleb128 0xb
 4393 00e1 3B       		.uleb128 0x3b
 4394 00e2 05       		.uleb128 0x5
 4395 00e3 49       		.uleb128 0x49
 4396 00e4 13       		.uleb128 0x13
 4397 00e5 38       		.uleb128 0x38
ARM GAS  C:\Users\Phuong\AppData\Local\Temp\ccKPluhm.s 			page 96


 4398 00e6 05       		.uleb128 0x5
 4399 00e7 00       		.byte	0
 4400 00e8 00       		.byte	0
 4401 00e9 14       		.uleb128 0x14
 4402 00ea 04       		.uleb128 0x4
 4403 00eb 01       		.byte	0x1
 4404 00ec 03       		.uleb128 0x3
 4405 00ed 0E       		.uleb128 0xe
 4406 00ee 0B       		.uleb128 0xb
 4407 00ef 0B       		.uleb128 0xb
 4408 00f0 49       		.uleb128 0x49
 4409 00f1 13       		.uleb128 0x13
 4410 00f2 3A       		.uleb128 0x3a
 4411 00f3 0B       		.uleb128 0xb
 4412 00f4 3B       		.uleb128 0x3b
 4413 00f5 0B       		.uleb128 0xb
 4414 00f6 01       		.uleb128 0x1
 4415 00f7 13       		.uleb128 0x13
 4416 00f8 00       		.byte	0
 4417 00f9 00       		.byte	0
 4418 00fa 15       		.uleb128 0x15
 4419 00fb 15       		.uleb128 0x15
 4420 00fc 01       		.byte	0x1
 4421 00fd 27       		.uleb128 0x27
 4422 00fe 19       		.uleb128 0x19
 4423 00ff 49       		.uleb128 0x49
 4424 0100 13       		.uleb128 0x13
 4425 0101 01       		.uleb128 0x1
 4426 0102 13       		.uleb128 0x13
 4427 0103 00       		.byte	0
 4428 0104 00       		.byte	0
 4429 0105 16       		.uleb128 0x16
 4430 0106 05       		.uleb128 0x5
 4431 0107 00       		.byte	0
 4432 0108 49       		.uleb128 0x49
 4433 0109 13       		.uleb128 0x13
 4434 010a 00       		.byte	0
 4435 010b 00       		.byte	0
 4436 010c 17       		.uleb128 0x17
 4437 010d 15       		.uleb128 0x15
 4438 010e 01       		.byte	0x1
 4439 010f 27       		.uleb128 0x27
 4440 0110 19       		.uleb128 0x19
 4441 0111 01       		.uleb128 0x1
 4442 0112 13       		.uleb128 0x13
 4443 0113 00       		.byte	0
 4444 0114 00       		.byte	0
 4445 0115 18       		.uleb128 0x18
 4446 0116 2E       		.uleb128 0x2e
 4447 0117 01       		.byte	0x1
 4448 0118 03       		.uleb128 0x3
 4449 0119 0E       		.uleb128 0xe
 4450 011a 3A       		.uleb128 0x3a
 4451 011b 0B       		.uleb128 0xb
 4452 011c 3B       		.uleb128 0x3b
 4453 011d 05       		.uleb128 0x5
 4454 011e 27       		.uleb128 0x27
ARM GAS  C:\Users\Phuong\AppData\Local\Temp\ccKPluhm.s 			page 97


 4455 011f 19       		.uleb128 0x19
 4456 0120 49       		.uleb128 0x49
 4457 0121 13       		.uleb128 0x13
 4458 0122 11       		.uleb128 0x11
 4459 0123 01       		.uleb128 0x1
 4460 0124 12       		.uleb128 0x12
 4461 0125 06       		.uleb128 0x6
 4462 0126 40       		.uleb128 0x40
 4463 0127 18       		.uleb128 0x18
 4464 0128 9742     		.uleb128 0x2117
 4465 012a 19       		.uleb128 0x19
 4466 012b 01       		.uleb128 0x1
 4467 012c 13       		.uleb128 0x13
 4468 012d 00       		.byte	0
 4469 012e 00       		.byte	0
 4470 012f 19       		.uleb128 0x19
 4471 0130 05       		.uleb128 0x5
 4472 0131 00       		.byte	0
 4473 0132 03       		.uleb128 0x3
 4474 0133 0E       		.uleb128 0xe
 4475 0134 3A       		.uleb128 0x3a
 4476 0135 0B       		.uleb128 0xb
 4477 0136 3B       		.uleb128 0x3b
 4478 0137 05       		.uleb128 0x5
 4479 0138 49       		.uleb128 0x49
 4480 0139 13       		.uleb128 0x13
 4481 013a 02       		.uleb128 0x2
 4482 013b 17       		.uleb128 0x17
 4483 013c 00       		.byte	0
 4484 013d 00       		.byte	0
 4485 013e 1A       		.uleb128 0x1a
 4486 013f 05       		.uleb128 0x5
 4487 0140 00       		.byte	0
 4488 0141 03       		.uleb128 0x3
 4489 0142 0E       		.uleb128 0xe
 4490 0143 3A       		.uleb128 0x3a
 4491 0144 0B       		.uleb128 0xb
 4492 0145 3B       		.uleb128 0x3b
 4493 0146 05       		.uleb128 0x5
 4494 0147 49       		.uleb128 0x49
 4495 0148 13       		.uleb128 0x13
 4496 0149 02       		.uleb128 0x2
 4497 014a 18       		.uleb128 0x18
 4498 014b 00       		.byte	0
 4499 014c 00       		.byte	0
 4500 014d 1B       		.uleb128 0x1b
 4501 014e 34       		.uleb128 0x34
 4502 014f 00       		.byte	0
 4503 0150 03       		.uleb128 0x3
 4504 0151 08       		.uleb128 0x8
 4505 0152 3A       		.uleb128 0x3a
 4506 0153 0B       		.uleb128 0xb
 4507 0154 3B       		.uleb128 0x3b
 4508 0155 05       		.uleb128 0x5
 4509 0156 49       		.uleb128 0x49
 4510 0157 13       		.uleb128 0x13
 4511 0158 02       		.uleb128 0x2
ARM GAS  C:\Users\Phuong\AppData\Local\Temp\ccKPluhm.s 			page 98


 4512 0159 17       		.uleb128 0x17
 4513 015a 00       		.byte	0
 4514 015b 00       		.byte	0
 4515 015c 1C       		.uleb128 0x1c
 4516 015d 34       		.uleb128 0x34
 4517 015e 00       		.byte	0
 4518 015f 03       		.uleb128 0x3
 4519 0160 0E       		.uleb128 0xe
 4520 0161 3A       		.uleb128 0x3a
 4521 0162 0B       		.uleb128 0xb
 4522 0163 3B       		.uleb128 0x3b
 4523 0164 05       		.uleb128 0x5
 4524 0165 49       		.uleb128 0x49
 4525 0166 13       		.uleb128 0x13
 4526 0167 02       		.uleb128 0x2
 4527 0168 18       		.uleb128 0x18
 4528 0169 00       		.byte	0
 4529 016a 00       		.byte	0
 4530 016b 1D       		.uleb128 0x1d
 4531 016c 2E       		.uleb128 0x2e
 4532 016d 01       		.byte	0x1
 4533 016e 03       		.uleb128 0x3
 4534 016f 0E       		.uleb128 0xe
 4535 0170 3A       		.uleb128 0x3a
 4536 0171 0B       		.uleb128 0xb
 4537 0172 3B       		.uleb128 0x3b
 4538 0173 05       		.uleb128 0x5
 4539 0174 27       		.uleb128 0x27
 4540 0175 19       		.uleb128 0x19
 4541 0176 11       		.uleb128 0x11
 4542 0177 01       		.uleb128 0x1
 4543 0178 12       		.uleb128 0x12
 4544 0179 06       		.uleb128 0x6
 4545 017a 40       		.uleb128 0x40
 4546 017b 18       		.uleb128 0x18
 4547 017c 9642     		.uleb128 0x2116
 4548 017e 19       		.uleb128 0x19
 4549 017f 01       		.uleb128 0x1
 4550 0180 13       		.uleb128 0x13
 4551 0181 00       		.byte	0
 4552 0182 00       		.byte	0
 4553 0183 1E       		.uleb128 0x1e
 4554 0184 898201   		.uleb128 0x4109
 4555 0187 00       		.byte	0
 4556 0188 11       		.uleb128 0x11
 4557 0189 01       		.uleb128 0x1
 4558 018a 31       		.uleb128 0x31
 4559 018b 13       		.uleb128 0x13
 4560 018c 00       		.byte	0
 4561 018d 00       		.byte	0
 4562 018e 1F       		.uleb128 0x1f
 4563 018f 2E       		.uleb128 0x2e
 4564 0190 01       		.byte	0x1
 4565 0191 03       		.uleb128 0x3
 4566 0192 0E       		.uleb128 0xe
 4567 0193 3A       		.uleb128 0x3a
 4568 0194 0B       		.uleb128 0xb
ARM GAS  C:\Users\Phuong\AppData\Local\Temp\ccKPluhm.s 			page 99


 4569 0195 3B       		.uleb128 0x3b
 4570 0196 05       		.uleb128 0x5
 4571 0197 27       		.uleb128 0x27
 4572 0198 19       		.uleb128 0x19
 4573 0199 11       		.uleb128 0x11
 4574 019a 01       		.uleb128 0x1
 4575 019b 12       		.uleb128 0x12
 4576 019c 06       		.uleb128 0x6
 4577 019d 40       		.uleb128 0x40
 4578 019e 18       		.uleb128 0x18
 4579 019f 9742     		.uleb128 0x2117
 4580 01a1 19       		.uleb128 0x19
 4581 01a2 01       		.uleb128 0x1
 4582 01a3 13       		.uleb128 0x13
 4583 01a4 00       		.byte	0
 4584 01a5 00       		.byte	0
 4585 01a6 20       		.uleb128 0x20
 4586 01a7 898201   		.uleb128 0x4109
 4587 01aa 01       		.byte	0x1
 4588 01ab 11       		.uleb128 0x11
 4589 01ac 01       		.uleb128 0x1
 4590 01ad 31       		.uleb128 0x31
 4591 01ae 13       		.uleb128 0x13
 4592 01af 00       		.byte	0
 4593 01b0 00       		.byte	0
 4594 01b1 21       		.uleb128 0x21
 4595 01b2 8A8201   		.uleb128 0x410a
 4596 01b5 00       		.byte	0
 4597 01b6 02       		.uleb128 0x2
 4598 01b7 18       		.uleb128 0x18
 4599 01b8 9142     		.uleb128 0x2111
 4600 01ba 18       		.uleb128 0x18
 4601 01bb 00       		.byte	0
 4602 01bc 00       		.byte	0
 4603 01bd 22       		.uleb128 0x22
 4604 01be 05       		.uleb128 0x5
 4605 01bf 00       		.byte	0
 4606 01c0 03       		.uleb128 0x3
 4607 01c1 08       		.uleb128 0x8
 4608 01c2 3A       		.uleb128 0x3a
 4609 01c3 0B       		.uleb128 0xb
 4610 01c4 3B       		.uleb128 0x3b
 4611 01c5 05       		.uleb128 0x5
 4612 01c6 49       		.uleb128 0x49
 4613 01c7 13       		.uleb128 0x13
 4614 01c8 02       		.uleb128 0x2
 4615 01c9 17       		.uleb128 0x17
 4616 01ca 00       		.byte	0
 4617 01cb 00       		.byte	0
 4618 01cc 23       		.uleb128 0x23
 4619 01cd 34       		.uleb128 0x34
 4620 01ce 00       		.byte	0
 4621 01cf 03       		.uleb128 0x3
 4622 01d0 08       		.uleb128 0x8
 4623 01d1 3A       		.uleb128 0x3a
 4624 01d2 0B       		.uleb128 0xb
 4625 01d3 3B       		.uleb128 0x3b
ARM GAS  C:\Users\Phuong\AppData\Local\Temp\ccKPluhm.s 			page 100


 4626 01d4 05       		.uleb128 0x5
 4627 01d5 49       		.uleb128 0x49
 4628 01d6 13       		.uleb128 0x13
 4629 01d7 02       		.uleb128 0x2
 4630 01d8 18       		.uleb128 0x18
 4631 01d9 00       		.byte	0
 4632 01da 00       		.byte	0
 4633 01db 24       		.uleb128 0x24
 4634 01dc 34       		.uleb128 0x34
 4635 01dd 00       		.byte	0
 4636 01de 03       		.uleb128 0x3
 4637 01df 0E       		.uleb128 0xe
 4638 01e0 3A       		.uleb128 0x3a
 4639 01e1 0B       		.uleb128 0xb
 4640 01e2 3B       		.uleb128 0x3b
 4641 01e3 05       		.uleb128 0x5
 4642 01e4 49       		.uleb128 0x49
 4643 01e5 13       		.uleb128 0x13
 4644 01e6 02       		.uleb128 0x2
 4645 01e7 17       		.uleb128 0x17
 4646 01e8 00       		.byte	0
 4647 01e9 00       		.byte	0
 4648 01ea 25       		.uleb128 0x25
 4649 01eb 898201   		.uleb128 0x4109
 4650 01ee 01       		.byte	0x1
 4651 01ef 11       		.uleb128 0x11
 4652 01f0 01       		.uleb128 0x1
 4653 01f1 31       		.uleb128 0x31
 4654 01f2 13       		.uleb128 0x13
 4655 01f3 01       		.uleb128 0x1
 4656 01f4 13       		.uleb128 0x13
 4657 01f5 00       		.byte	0
 4658 01f6 00       		.byte	0
 4659 01f7 26       		.uleb128 0x26
 4660 01f8 2E       		.uleb128 0x2e
 4661 01f9 00       		.byte	0
 4662 01fa 3F       		.uleb128 0x3f
 4663 01fb 19       		.uleb128 0x19
 4664 01fc 03       		.uleb128 0x3
 4665 01fd 0E       		.uleb128 0xe
 4666 01fe 3A       		.uleb128 0x3a
 4667 01ff 0B       		.uleb128 0xb
 4668 0200 3B       		.uleb128 0x3b
 4669 0201 0B       		.uleb128 0xb
 4670 0202 27       		.uleb128 0x27
 4671 0203 19       		.uleb128 0x19
 4672 0204 11       		.uleb128 0x11
 4673 0205 01       		.uleb128 0x1
 4674 0206 12       		.uleb128 0x12
 4675 0207 06       		.uleb128 0x6
 4676 0208 40       		.uleb128 0x40
 4677 0209 18       		.uleb128 0x18
 4678 020a 9742     		.uleb128 0x2117
 4679 020c 19       		.uleb128 0x19
 4680 020d 00       		.byte	0
 4681 020e 00       		.byte	0
 4682 020f 27       		.uleb128 0x27
ARM GAS  C:\Users\Phuong\AppData\Local\Temp\ccKPluhm.s 			page 101


 4683 0210 2E       		.uleb128 0x2e
 4684 0211 01       		.byte	0x1
 4685 0212 3F       		.uleb128 0x3f
 4686 0213 19       		.uleb128 0x19
 4687 0214 03       		.uleb128 0x3
 4688 0215 0E       		.uleb128 0xe
 4689 0216 3A       		.uleb128 0x3a
 4690 0217 0B       		.uleb128 0xb
 4691 0218 3B       		.uleb128 0x3b
 4692 0219 0B       		.uleb128 0xb
 4693 021a 27       		.uleb128 0x27
 4694 021b 19       		.uleb128 0x19
 4695 021c 49       		.uleb128 0x49
 4696 021d 13       		.uleb128 0x13
 4697 021e 11       		.uleb128 0x11
 4698 021f 01       		.uleb128 0x1
 4699 0220 12       		.uleb128 0x12
 4700 0221 06       		.uleb128 0x6
 4701 0222 40       		.uleb128 0x40
 4702 0223 18       		.uleb128 0x18
 4703 0224 9742     		.uleb128 0x2117
 4704 0226 19       		.uleb128 0x19
 4705 0227 01       		.uleb128 0x1
 4706 0228 13       		.uleb128 0x13
 4707 0229 00       		.byte	0
 4708 022a 00       		.byte	0
 4709 022b 28       		.uleb128 0x28
 4710 022c 05       		.uleb128 0x5
 4711 022d 00       		.byte	0
 4712 022e 03       		.uleb128 0x3
 4713 022f 0E       		.uleb128 0xe
 4714 0230 3A       		.uleb128 0x3a
 4715 0231 0B       		.uleb128 0xb
 4716 0232 3B       		.uleb128 0x3b
 4717 0233 0B       		.uleb128 0xb
 4718 0234 49       		.uleb128 0x49
 4719 0235 13       		.uleb128 0x13
 4720 0236 02       		.uleb128 0x2
 4721 0237 17       		.uleb128 0x17
 4722 0238 00       		.byte	0
 4723 0239 00       		.byte	0
 4724 023a 29       		.uleb128 0x29
 4725 023b 34       		.uleb128 0x34
 4726 023c 00       		.byte	0
 4727 023d 03       		.uleb128 0x3
 4728 023e 0E       		.uleb128 0xe
 4729 023f 3A       		.uleb128 0x3a
 4730 0240 0B       		.uleb128 0xb
 4731 0241 3B       		.uleb128 0x3b
 4732 0242 0B       		.uleb128 0xb
 4733 0243 49       		.uleb128 0x49
 4734 0244 13       		.uleb128 0x13
 4735 0245 02       		.uleb128 0x2
 4736 0246 17       		.uleb128 0x17
 4737 0247 00       		.byte	0
 4738 0248 00       		.byte	0
 4739 0249 2A       		.uleb128 0x2a
ARM GAS  C:\Users\Phuong\AppData\Local\Temp\ccKPluhm.s 			page 102


 4740 024a 0B       		.uleb128 0xb
 4741 024b 01       		.byte	0x1
 4742 024c 11       		.uleb128 0x11
 4743 024d 01       		.uleb128 0x1
 4744 024e 12       		.uleb128 0x12
 4745 024f 06       		.uleb128 0x6
 4746 0250 00       		.byte	0
 4747 0251 00       		.byte	0
 4748 0252 2B       		.uleb128 0x2b
 4749 0253 898201   		.uleb128 0x4109
 4750 0256 01       		.byte	0x1
 4751 0257 11       		.uleb128 0x11
 4752 0258 01       		.uleb128 0x1
 4753 0259 01       		.uleb128 0x1
 4754 025a 13       		.uleb128 0x13
 4755 025b 00       		.byte	0
 4756 025c 00       		.byte	0
 4757 025d 2C       		.uleb128 0x2c
 4758 025e 2E       		.uleb128 0x2e
 4759 025f 01       		.byte	0x1
 4760 0260 3F       		.uleb128 0x3f
 4761 0261 19       		.uleb128 0x19
 4762 0262 03       		.uleb128 0x3
 4763 0263 0E       		.uleb128 0xe
 4764 0264 3A       		.uleb128 0x3a
 4765 0265 0B       		.uleb128 0xb
 4766 0266 3B       		.uleb128 0x3b
 4767 0267 0B       		.uleb128 0xb
 4768 0268 27       		.uleb128 0x27
 4769 0269 19       		.uleb128 0x19
 4770 026a 11       		.uleb128 0x11
 4771 026b 01       		.uleb128 0x1
 4772 026c 12       		.uleb128 0x12
 4773 026d 06       		.uleb128 0x6
 4774 026e 40       		.uleb128 0x40
 4775 026f 18       		.uleb128 0x18
 4776 0270 9742     		.uleb128 0x2117
 4777 0272 19       		.uleb128 0x19
 4778 0273 01       		.uleb128 0x1
 4779 0274 13       		.uleb128 0x13
 4780 0275 00       		.byte	0
 4781 0276 00       		.byte	0
 4782 0277 2D       		.uleb128 0x2d
 4783 0278 05       		.uleb128 0x5
 4784 0279 00       		.byte	0
 4785 027a 03       		.uleb128 0x3
 4786 027b 08       		.uleb128 0x8
 4787 027c 3A       		.uleb128 0x3a
 4788 027d 0B       		.uleb128 0xb
 4789 027e 3B       		.uleb128 0x3b
 4790 027f 0B       		.uleb128 0xb
 4791 0280 49       		.uleb128 0x49
 4792 0281 13       		.uleb128 0x13
 4793 0282 02       		.uleb128 0x2
 4794 0283 17       		.uleb128 0x17
 4795 0284 00       		.byte	0
 4796 0285 00       		.byte	0
ARM GAS  C:\Users\Phuong\AppData\Local\Temp\ccKPluhm.s 			page 103


 4797 0286 2E       		.uleb128 0x2e
 4798 0287 05       		.uleb128 0x5
 4799 0288 00       		.byte	0
 4800 0289 03       		.uleb128 0x3
 4801 028a 0E       		.uleb128 0xe
 4802 028b 3A       		.uleb128 0x3a
 4803 028c 0B       		.uleb128 0xb
 4804 028d 3B       		.uleb128 0x3b
 4805 028e 0B       		.uleb128 0xb
 4806 028f 49       		.uleb128 0x49
 4807 0290 13       		.uleb128 0x13
 4808 0291 02       		.uleb128 0x2
 4809 0292 18       		.uleb128 0x18
 4810 0293 00       		.byte	0
 4811 0294 00       		.byte	0
 4812 0295 2F       		.uleb128 0x2f
 4813 0296 34       		.uleb128 0x34
 4814 0297 00       		.byte	0
 4815 0298 03       		.uleb128 0x3
 4816 0299 0E       		.uleb128 0xe
 4817 029a 3A       		.uleb128 0x3a
 4818 029b 0B       		.uleb128 0xb
 4819 029c 3B       		.uleb128 0x3b
 4820 029d 0B       		.uleb128 0xb
 4821 029e 49       		.uleb128 0x49
 4822 029f 13       		.uleb128 0x13
 4823 02a0 02       		.uleb128 0x2
 4824 02a1 18       		.uleb128 0x18
 4825 02a2 00       		.byte	0
 4826 02a3 00       		.byte	0
 4827 02a4 30       		.uleb128 0x30
 4828 02a5 2E       		.uleb128 0x2e
 4829 02a6 01       		.byte	0x1
 4830 02a7 03       		.uleb128 0x3
 4831 02a8 0E       		.uleb128 0xe
 4832 02a9 3A       		.uleb128 0x3a
 4833 02aa 0B       		.uleb128 0xb
 4834 02ab 3B       		.uleb128 0x3b
 4835 02ac 0B       		.uleb128 0xb
 4836 02ad 27       		.uleb128 0x27
 4837 02ae 19       		.uleb128 0x19
 4838 02af 49       		.uleb128 0x49
 4839 02b0 13       		.uleb128 0x13
 4840 02b1 11       		.uleb128 0x11
 4841 02b2 01       		.uleb128 0x1
 4842 02b3 12       		.uleb128 0x12
 4843 02b4 06       		.uleb128 0x6
 4844 02b5 40       		.uleb128 0x40
 4845 02b6 18       		.uleb128 0x18
 4846 02b7 9742     		.uleb128 0x2117
 4847 02b9 19       		.uleb128 0x19
 4848 02ba 01       		.uleb128 0x1
 4849 02bb 13       		.uleb128 0x13
 4850 02bc 00       		.byte	0
 4851 02bd 00       		.byte	0
 4852 02be 31       		.uleb128 0x31
 4853 02bf 898201   		.uleb128 0x4109
ARM GAS  C:\Users\Phuong\AppData\Local\Temp\ccKPluhm.s 			page 104


 4854 02c2 01       		.byte	0x1
 4855 02c3 11       		.uleb128 0x11
 4856 02c4 01       		.uleb128 0x1
 4857 02c5 00       		.byte	0
 4858 02c6 00       		.byte	0
 4859 02c7 32       		.uleb128 0x32
 4860 02c8 2E       		.uleb128 0x2e
 4861 02c9 01       		.byte	0x1
 4862 02ca 3F       		.uleb128 0x3f
 4863 02cb 19       		.uleb128 0x19
 4864 02cc 03       		.uleb128 0x3
 4865 02cd 0E       		.uleb128 0xe
 4866 02ce 3A       		.uleb128 0x3a
 4867 02cf 0B       		.uleb128 0xb
 4868 02d0 3B       		.uleb128 0x3b
 4869 02d1 05       		.uleb128 0x5
 4870 02d2 27       		.uleb128 0x27
 4871 02d3 19       		.uleb128 0x19
 4872 02d4 11       		.uleb128 0x11
 4873 02d5 01       		.uleb128 0x1
 4874 02d6 12       		.uleb128 0x12
 4875 02d7 06       		.uleb128 0x6
 4876 02d8 40       		.uleb128 0x40
 4877 02d9 18       		.uleb128 0x18
 4878 02da 9742     		.uleb128 0x2117
 4879 02dc 19       		.uleb128 0x19
 4880 02dd 01       		.uleb128 0x1
 4881 02de 13       		.uleb128 0x13
 4882 02df 00       		.byte	0
 4883 02e0 00       		.byte	0
 4884 02e1 33       		.uleb128 0x33
 4885 02e2 0B       		.uleb128 0xb
 4886 02e3 01       		.byte	0x1
 4887 02e4 11       		.uleb128 0x11
 4888 02e5 01       		.uleb128 0x1
 4889 02e6 12       		.uleb128 0x12
 4890 02e7 06       		.uleb128 0x6
 4891 02e8 01       		.uleb128 0x1
 4892 02e9 13       		.uleb128 0x13
 4893 02ea 00       		.byte	0
 4894 02eb 00       		.byte	0
 4895 02ec 34       		.uleb128 0x34
 4896 02ed 2E       		.uleb128 0x2e
 4897 02ee 01       		.byte	0x1
 4898 02ef 3F       		.uleb128 0x3f
 4899 02f0 19       		.uleb128 0x19
 4900 02f1 03       		.uleb128 0x3
 4901 02f2 0E       		.uleb128 0xe
 4902 02f3 3A       		.uleb128 0x3a
 4903 02f4 0B       		.uleb128 0xb
 4904 02f5 3B       		.uleb128 0x3b
 4905 02f6 05       		.uleb128 0x5
 4906 02f7 27       		.uleb128 0x27
 4907 02f8 19       		.uleb128 0x19
 4908 02f9 49       		.uleb128 0x49
 4909 02fa 13       		.uleb128 0x13
 4910 02fb 11       		.uleb128 0x11
ARM GAS  C:\Users\Phuong\AppData\Local\Temp\ccKPluhm.s 			page 105


 4911 02fc 01       		.uleb128 0x1
 4912 02fd 12       		.uleb128 0x12
 4913 02fe 06       		.uleb128 0x6
 4914 02ff 40       		.uleb128 0x40
 4915 0300 18       		.uleb128 0x18
 4916 0301 9742     		.uleb128 0x2117
 4917 0303 19       		.uleb128 0x19
 4918 0304 01       		.uleb128 0x1
 4919 0305 13       		.uleb128 0x13
 4920 0306 00       		.byte	0
 4921 0307 00       		.byte	0
 4922 0308 35       		.uleb128 0x35
 4923 0309 34       		.uleb128 0x34
 4924 030a 00       		.byte	0
 4925 030b 03       		.uleb128 0x3
 4926 030c 0E       		.uleb128 0xe
 4927 030d 3A       		.uleb128 0x3a
 4928 030e 0B       		.uleb128 0xb
 4929 030f 3B       		.uleb128 0x3b
 4930 0310 05       		.uleb128 0x5
 4931 0311 49       		.uleb128 0x49
 4932 0312 13       		.uleb128 0x13
 4933 0313 3F       		.uleb128 0x3f
 4934 0314 19       		.uleb128 0x19
 4935 0315 3C       		.uleb128 0x3c
 4936 0316 19       		.uleb128 0x19
 4937 0317 00       		.byte	0
 4938 0318 00       		.byte	0
 4939 0319 36       		.uleb128 0x36
 4940 031a 34       		.uleb128 0x34
 4941 031b 00       		.byte	0
 4942 031c 03       		.uleb128 0x3
 4943 031d 0E       		.uleb128 0xe
 4944 031e 3A       		.uleb128 0x3a
 4945 031f 0B       		.uleb128 0xb
 4946 0320 3B       		.uleb128 0x3b
 4947 0321 0B       		.uleb128 0xb
 4948 0322 49       		.uleb128 0x49
 4949 0323 13       		.uleb128 0x13
 4950 0324 3F       		.uleb128 0x3f
 4951 0325 19       		.uleb128 0x19
 4952 0326 3C       		.uleb128 0x3c
 4953 0327 19       		.uleb128 0x19
 4954 0328 00       		.byte	0
 4955 0329 00       		.byte	0
 4956 032a 37       		.uleb128 0x37
 4957 032b 2E       		.uleb128 0x2e
 4958 032c 00       		.byte	0
 4959 032d 3F       		.uleb128 0x3f
 4960 032e 19       		.uleb128 0x19
 4961 032f 3C       		.uleb128 0x3c
 4962 0330 19       		.uleb128 0x19
 4963 0331 6E       		.uleb128 0x6e
 4964 0332 0E       		.uleb128 0xe
 4965 0333 03       		.uleb128 0x3
 4966 0334 0E       		.uleb128 0xe
 4967 0335 3A       		.uleb128 0x3a
ARM GAS  C:\Users\Phuong\AppData\Local\Temp\ccKPluhm.s 			page 106


 4968 0336 0B       		.uleb128 0xb
 4969 0337 3B       		.uleb128 0x3b
 4970 0338 0B       		.uleb128 0xb
 4971 0339 00       		.byte	0
 4972 033a 00       		.byte	0
 4973 033b 00       		.byte	0
 4974              		.section	.debug_loc,"",%progbits
 4975              	.Ldebug_loc0:
 4976              	.LLST0:
 4977 0000 00000000 		.4byte	.LVL0
 4978 0004 1C000000 		.4byte	.LVL3
 4979 0008 0100     		.2byte	0x1
 4980 000a 50       		.byte	0x50
 4981 000b 1C000000 		.4byte	.LVL3
 4982 000f 1E000000 		.4byte	.LVL4
 4983 0013 0400     		.2byte	0x4
 4984 0015 F3       		.byte	0xf3
 4985 0016 01       		.uleb128 0x1
 4986 0017 50       		.byte	0x50
 4987 0018 9F       		.byte	0x9f
 4988 0019 1E000000 		.4byte	.LVL4
 4989 001d 20000000 		.4byte	.LVL5
 4990 0021 0100     		.2byte	0x1
 4991 0023 50       		.byte	0x50
 4992 0024 20000000 		.4byte	.LVL5
 4993 0028 24000000 		.4byte	.LFE59
 4994 002c 0400     		.2byte	0x4
 4995 002e F3       		.byte	0xf3
 4996 002f 01       		.uleb128 0x1
 4997 0030 50       		.byte	0x50
 4998 0031 9F       		.byte	0x9f
 4999 0032 00000000 		.4byte	0
 5000 0036 00000000 		.4byte	0
 5001              	.LLST1:
 5002 003a 00000000 		.4byte	.LVL0
 5003 003e 22000000 		.4byte	.LVL6
 5004 0042 0200     		.2byte	0x2
 5005 0044 30       		.byte	0x30
 5006 0045 9F       		.byte	0x9f
 5007 0046 22000000 		.4byte	.LVL6
 5008 004a 24000000 		.4byte	.LFE59
 5009 004e 0100     		.2byte	0x1
 5010 0050 50       		.byte	0x50
 5011 0051 00000000 		.4byte	0
 5012 0055 00000000 		.4byte	0
 5013              	.LLST2:
 5014 0059 00000000 		.4byte	.LVL7
 5015 005d 0D000000 		.4byte	.LVL8-1
 5016 0061 0100     		.2byte	0x1
 5017 0063 50       		.byte	0x50
 5018 0064 0D000000 		.4byte	.LVL8-1
 5019 0068 18000000 		.4byte	.LVL10
 5020 006c 0100     		.2byte	0x1
 5021 006e 54       		.byte	0x54
 5022 006f 18000000 		.4byte	.LVL10
 5023 0073 1A000000 		.4byte	.LVL11
 5024 0077 0100     		.2byte	0x1
ARM GAS  C:\Users\Phuong\AppData\Local\Temp\ccKPluhm.s 			page 107


 5025 0079 50       		.byte	0x50
 5026 007a 1A000000 		.4byte	.LVL11
 5027 007e 24000000 		.4byte	.LVL12
 5028 0082 0100     		.2byte	0x1
 5029 0084 54       		.byte	0x54
 5030 0085 24000000 		.4byte	.LVL12
 5031 0089 26000000 		.4byte	.LFE67
 5032 008d 0400     		.2byte	0x4
 5033 008f F3       		.byte	0xf3
 5034 0090 01       		.uleb128 0x1
 5035 0091 50       		.byte	0x50
 5036 0092 9F       		.byte	0x9f
 5037 0093 00000000 		.4byte	0
 5038 0097 00000000 		.4byte	0
 5039              	.LLST3:
 5040 009b 00000000 		.4byte	.LVL7
 5041 009f 0D000000 		.4byte	.LVL8-1
 5042 00a3 0100     		.2byte	0x1
 5043 00a5 51       		.byte	0x51
 5044 00a6 0D000000 		.4byte	.LVL8-1
 5045 00aa 18000000 		.4byte	.LVL10
 5046 00ae 0400     		.2byte	0x4
 5047 00b0 F3       		.byte	0xf3
 5048 00b1 01       		.uleb128 0x1
 5049 00b2 51       		.byte	0x51
 5050 00b3 9F       		.byte	0x9f
 5051 00b4 18000000 		.4byte	.LVL10
 5052 00b8 1A000000 		.4byte	.LVL11
 5053 00bc 0100     		.2byte	0x1
 5054 00be 51       		.byte	0x51
 5055 00bf 1A000000 		.4byte	.LVL11
 5056 00c3 26000000 		.4byte	.LFE67
 5057 00c7 0400     		.2byte	0x4
 5058 00c9 F3       		.byte	0xf3
 5059 00ca 01       		.uleb128 0x1
 5060 00cb 51       		.byte	0x51
 5061 00cc 9F       		.byte	0x9f
 5062 00cd 00000000 		.4byte	0
 5063 00d1 00000000 		.4byte	0
 5064              	.LLST4:
 5065 00d5 00000000 		.4byte	.LVL13
 5066 00d9 1C000000 		.4byte	.LVL14
 5067 00dd 0100     		.2byte	0x1
 5068 00df 50       		.byte	0x50
 5069 00e0 1C000000 		.4byte	.LVL14
 5070 00e4 24000000 		.4byte	.LVL16
 5071 00e8 0100     		.2byte	0x1
 5072 00ea 54       		.byte	0x54
 5073 00eb 24000000 		.4byte	.LVL16
 5074 00ef 26000000 		.4byte	.LFE68
 5075 00f3 0400     		.2byte	0x4
 5076 00f5 F3       		.byte	0xf3
 5077 00f6 01       		.uleb128 0x1
 5078 00f7 50       		.byte	0x50
 5079 00f8 9F       		.byte	0x9f
 5080 00f9 00000000 		.4byte	0
 5081 00fd 00000000 		.4byte	0
ARM GAS  C:\Users\Phuong\AppData\Local\Temp\ccKPluhm.s 			page 108


 5082              	.LLST5:
 5083 0101 00000000 		.4byte	.LVL13
 5084 0105 1F000000 		.4byte	.LVL15-1
 5085 0109 0100     		.2byte	0x1
 5086 010b 51       		.byte	0x51
 5087 010c 1F000000 		.4byte	.LVL15-1
 5088 0110 26000000 		.4byte	.LFE68
 5089 0114 0400     		.2byte	0x4
 5090 0116 F3       		.byte	0xf3
 5091 0117 01       		.uleb128 0x1
 5092 0118 51       		.byte	0x51
 5093 0119 9F       		.byte	0x9f
 5094 011a 00000000 		.4byte	0
 5095 011e 00000000 		.4byte	0
 5096              	.LLST6:
 5097 0122 00000000 		.4byte	.LVL17
 5098 0126 2F000000 		.4byte	.LVL19-1
 5099 012a 0100     		.2byte	0x1
 5100 012c 50       		.byte	0x50
 5101 012d 2F000000 		.4byte	.LVL19-1
 5102 0131 3C000000 		.4byte	.LFE69
 5103 0135 0400     		.2byte	0x4
 5104 0137 F3       		.byte	0xf3
 5105 0138 01       		.uleb128 0x1
 5106 0139 50       		.byte	0x50
 5107 013a 9F       		.byte	0x9f
 5108 013b 00000000 		.4byte	0
 5109 013f 00000000 		.4byte	0
 5110              	.LLST7:
 5111 0143 00000000 		.4byte	.LVL17
 5112 0147 2F000000 		.4byte	.LVL19-1
 5113 014b 0100     		.2byte	0x1
 5114 014d 51       		.byte	0x51
 5115 014e 2F000000 		.4byte	.LVL19-1
 5116 0152 3C000000 		.4byte	.LFE69
 5117 0156 0400     		.2byte	0x4
 5118 0158 F3       		.byte	0xf3
 5119 0159 01       		.uleb128 0x1
 5120 015a 51       		.byte	0x51
 5121 015b 9F       		.byte	0x9f
 5122 015c 00000000 		.4byte	0
 5123 0160 00000000 		.4byte	0
 5124              	.LLST8:
 5125 0164 00000000 		.4byte	.LVL17
 5126 0168 2F000000 		.4byte	.LVL19-1
 5127 016c 0100     		.2byte	0x1
 5128 016e 52       		.byte	0x52
 5129 016f 2F000000 		.4byte	.LVL19-1
 5130 0173 3C000000 		.4byte	.LFE69
 5131 0177 0400     		.2byte	0x4
 5132 0179 F3       		.byte	0xf3
 5133 017a 01       		.uleb128 0x1
 5134 017b 52       		.byte	0x52
 5135 017c 9F       		.byte	0x9f
 5136 017d 00000000 		.4byte	0
 5137 0181 00000000 		.4byte	0
 5138              	.LLST9:
ARM GAS  C:\Users\Phuong\AppData\Local\Temp\ccKPluhm.s 			page 109


 5139 0185 00000000 		.4byte	.LVL17
 5140 0189 0A000000 		.4byte	.LVL18
 5141 018d 0100     		.2byte	0x1
 5142 018f 53       		.byte	0x53
 5143 0190 0A000000 		.4byte	.LVL18
 5144 0194 2F000000 		.4byte	.LVL19-1
 5145 0198 0100     		.2byte	0x1
 5146 019a 5C       		.byte	0x5c
 5147 019b 2F000000 		.4byte	.LVL19-1
 5148 019f 3C000000 		.4byte	.LFE69
 5149 01a3 0400     		.2byte	0x4
 5150 01a5 F3       		.byte	0xf3
 5151 01a6 01       		.uleb128 0x1
 5152 01a7 53       		.byte	0x53
 5153 01a8 9F       		.byte	0x9f
 5154 01a9 00000000 		.4byte	0
 5155 01ad 00000000 		.4byte	0
 5156              	.LLST10:
 5157 01b1 00000000 		.4byte	.LVL20
 5158 01b5 1C000000 		.4byte	.LVL25
 5159 01b9 0100     		.2byte	0x1
 5160 01bb 50       		.byte	0x50
 5161 01bc 1C000000 		.4byte	.LVL25
 5162 01c0 B0000000 		.4byte	.LVL42
 5163 01c4 0100     		.2byte	0x1
 5164 01c6 57       		.byte	0x57
 5165 01c7 B0000000 		.4byte	.LVL42
 5166 01cb C4000000 		.4byte	.LFE70
 5167 01cf 0400     		.2byte	0x4
 5168 01d1 F3       		.byte	0xf3
 5169 01d2 01       		.uleb128 0x1
 5170 01d3 50       		.byte	0x50
 5171 01d4 9F       		.byte	0x9f
 5172 01d5 00000000 		.4byte	0
 5173 01d9 00000000 		.4byte	0
 5174              	.LLST11:
 5175 01dd 00000000 		.4byte	.LVL20
 5176 01e1 1A000000 		.4byte	.LVL24
 5177 01e5 0100     		.2byte	0x1
 5178 01e7 51       		.byte	0x51
 5179 01e8 1A000000 		.4byte	.LVL24
 5180 01ec B0000000 		.4byte	.LVL43
 5181 01f0 0100     		.2byte	0x1
 5182 01f2 58       		.byte	0x58
 5183 01f3 B0000000 		.4byte	.LVL43
 5184 01f7 C4000000 		.4byte	.LFE70
 5185 01fb 0400     		.2byte	0x4
 5186 01fd F3       		.byte	0xf3
 5187 01fe 01       		.uleb128 0x1
 5188 01ff 51       		.byte	0x51
 5189 0200 9F       		.byte	0x9f
 5190 0201 00000000 		.4byte	0
 5191 0205 00000000 		.4byte	0
 5192              	.LLST12:
 5193 0209 00000000 		.4byte	.LVL20
 5194 020d 18000000 		.4byte	.LVL23
 5195 0211 0100     		.2byte	0x1
ARM GAS  C:\Users\Phuong\AppData\Local\Temp\ccKPluhm.s 			page 110


 5196 0213 52       		.byte	0x52
 5197 0214 18000000 		.4byte	.LVL23
 5198 0218 C4000000 		.4byte	.LFE70
 5199 021c 0400     		.2byte	0x4
 5200 021e F3       		.byte	0xf3
 5201 021f 01       		.uleb128 0x1
 5202 0220 52       		.byte	0x52
 5203 0221 9F       		.byte	0x9f
 5204 0222 00000000 		.4byte	0
 5205 0226 00000000 		.4byte	0
 5206              	.LLST13:
 5207 022a 10000000 		.4byte	.LVL21
 5208 022e 22000000 		.4byte	.LVL27
 5209 0232 0200     		.2byte	0x2
 5210 0234 30       		.byte	0x30
 5211 0235 9F       		.byte	0x9f
 5212 0236 22000000 		.4byte	.LVL27
 5213 023a 86000000 		.4byte	.LVL35
 5214 023e 0100     		.2byte	0x1
 5215 0240 50       		.byte	0x50
 5216 0241 86000000 		.4byte	.LVL35
 5217 0245 A4000000 		.4byte	.LVL39
 5218 0249 0100     		.2byte	0x1
 5219 024b 54       		.byte	0x54
 5220 024c A4000000 		.4byte	.LVL39
 5221 0250 AE000000 		.4byte	.LVL40
 5222 0254 0100     		.2byte	0x1
 5223 0256 50       		.byte	0x50
 5224 0257 AE000000 		.4byte	.LVL40
 5225 025b B0000000 		.4byte	.LVL41
 5226 025f 0100     		.2byte	0x1
 5227 0261 54       		.byte	0x54
 5228 0262 00000000 		.4byte	0
 5229 0266 00000000 		.4byte	0
 5230              	.LLST14:
 5231 026a 10000000 		.4byte	.LVL21
 5232 026e 26000000 		.4byte	.LVL28
 5233 0272 0200     		.2byte	0x2
 5234 0274 30       		.byte	0x30
 5235 0275 9F       		.byte	0x9f
 5236 0276 26000000 		.4byte	.LVL28
 5237 027a A4000000 		.4byte	.LVL39
 5238 027e 0100     		.2byte	0x1
 5239 0280 55       		.byte	0x55
 5240 0281 A4000000 		.4byte	.LVL39
 5241 0285 AE000000 		.4byte	.LVL40
 5242 0289 0200     		.2byte	0x2
 5243 028b 30       		.byte	0x30
 5244 028c 9F       		.byte	0x9f
 5245 028d 00000000 		.4byte	0
 5246 0291 00000000 		.4byte	0
 5247              	.LLST15:
 5248 0295 16000000 		.4byte	.LVL22
 5249 0299 34000000 		.4byte	.LVL29
 5250 029d 0200     		.2byte	0x2
 5251 029f 30       		.byte	0x30
 5252 02a0 9F       		.byte	0x9f
ARM GAS  C:\Users\Phuong\AppData\Local\Temp\ccKPluhm.s 			page 111


 5253 02a1 34000000 		.4byte	.LVL29
 5254 02a5 36000000 		.4byte	.LVL30
 5255 02a9 0100     		.2byte	0x1
 5256 02ab 53       		.byte	0x53
 5257 02ac 36000000 		.4byte	.LVL30
 5258 02b0 4E000000 		.4byte	.LVL31
 5259 02b4 0100     		.2byte	0x1
 5260 02b6 59       		.byte	0x59
 5261 02b7 4E000000 		.4byte	.LVL31
 5262 02bb 52000000 		.4byte	.LVL32
 5263 02bf 0200     		.2byte	0x2
 5264 02c1 30       		.byte	0x30
 5265 02c2 9F       		.byte	0x9f
 5266 02c3 52000000 		.4byte	.LVL32
 5267 02c7 6A000000 		.4byte	.LVL33
 5268 02cb 0600     		.2byte	0x6
 5269 02cd 03       		.byte	0x3
 5270 02ce 00000000 		.4byte	allrouters
 5271 02d2 9F       		.byte	0x9f
 5272 02d3 6A000000 		.4byte	.LVL33
 5273 02d7 6E000000 		.4byte	.LVL34
 5274 02db 0200     		.2byte	0x2
 5275 02dd 30       		.byte	0x30
 5276 02de 9F       		.byte	0x9f
 5277 02df 6E000000 		.4byte	.LVL34
 5278 02e3 A4000000 		.4byte	.LVL39
 5279 02e7 0100     		.2byte	0x1
 5280 02e9 59       		.byte	0x59
 5281 02ea A4000000 		.4byte	.LVL39
 5282 02ee AE000000 		.4byte	.LVL40
 5283 02f2 0200     		.2byte	0x2
 5284 02f4 30       		.byte	0x30
 5285 02f5 9F       		.byte	0x9f
 5286 02f6 00000000 		.4byte	0
 5287 02fa 00000000 		.4byte	0
 5288              	.LLST16:
 5289 02fe 00000000 		.4byte	.LVL44
 5290 0302 25000000 		.4byte	.LVL45-1
 5291 0306 0100     		.2byte	0x1
 5292 0308 50       		.byte	0x50
 5293 0309 25000000 		.4byte	.LVL45-1
 5294 030d 30000000 		.4byte	.LFE66
 5295 0311 0400     		.2byte	0x4
 5296 0313 F3       		.byte	0xf3
 5297 0314 01       		.uleb128 0x1
 5298 0315 50       		.byte	0x50
 5299 0316 9F       		.byte	0x9f
 5300 0317 00000000 		.4byte	0
 5301 031b 00000000 		.4byte	0
 5302              	.LLST17:
 5303 031f 00000000 		.4byte	.LVL44
 5304 0323 25000000 		.4byte	.LVL45-1
 5305 0327 0100     		.2byte	0x1
 5306 0329 51       		.byte	0x51
 5307 032a 25000000 		.4byte	.LVL45-1
 5308 032e 30000000 		.4byte	.LFE66
 5309 0332 0400     		.2byte	0x4
ARM GAS  C:\Users\Phuong\AppData\Local\Temp\ccKPluhm.s 			page 112


 5310 0334 F3       		.byte	0xf3
 5311 0335 01       		.uleb128 0x1
 5312 0336 51       		.byte	0x51
 5313 0337 9F       		.byte	0x9f
 5314 0338 00000000 		.4byte	0
 5315 033c 00000000 		.4byte	0
 5316              	.LLST18:
 5317 0340 00000000 		.4byte	.LVL46
 5318 0344 0C000000 		.4byte	.LVL48
 5319 0348 0100     		.2byte	0x1
 5320 034a 50       		.byte	0x50
 5321 034b 0C000000 		.4byte	.LVL48
 5322 034f 2C000000 		.4byte	.LVL54
 5323 0353 0100     		.2byte	0x1
 5324 0355 56       		.byte	0x56
 5325 0356 2C000000 		.4byte	.LVL54
 5326 035a 2E000000 		.4byte	.LFE55
 5327 035e 0400     		.2byte	0x4
 5328 0360 F3       		.byte	0xf3
 5329 0361 01       		.uleb128 0x1
 5330 0362 50       		.byte	0x50
 5331 0363 9F       		.byte	0x9f
 5332 0364 00000000 		.4byte	0
 5333 0368 00000000 		.4byte	0
 5334              	.LLST19:
 5335 036c 06000000 		.4byte	.LVL47
 5336 0370 24000000 		.4byte	.LVL51
 5337 0374 0100     		.2byte	0x1
 5338 0376 54       		.byte	0x54
 5339 0377 24000000 		.4byte	.LVL51
 5340 037b 26000000 		.4byte	.LVL52
 5341 037f 0100     		.2byte	0x1
 5342 0381 55       		.byte	0x55
 5343 0382 26000000 		.4byte	.LVL52
 5344 0386 2C000000 		.4byte	.LVL53
 5345 038a 0100     		.2byte	0x1
 5346 038c 54       		.byte	0x54
 5347 038d 00000000 		.4byte	0
 5348 0391 00000000 		.4byte	0
 5349              	.LLST20:
 5350 0395 0E000000 		.4byte	.LVL49
 5351 0399 26000000 		.4byte	.LVL52
 5352 039d 0100     		.2byte	0x1
 5353 039f 55       		.byte	0x55
 5354 03a0 00000000 		.4byte	0
 5355 03a4 00000000 		.4byte	0
 5356              	.LLST21:
 5357 03a8 00000000 		.4byte	.LVL55
 5358 03ac 0C000000 		.4byte	.LVL58
 5359 03b0 0100     		.2byte	0x1
 5360 03b2 50       		.byte	0x50
 5361 03b3 0C000000 		.4byte	.LVL58
 5362 03b7 1C000000 		.4byte	.LFE56
 5363 03bb 0400     		.2byte	0x4
 5364 03bd F3       		.byte	0xf3
 5365 03be 01       		.uleb128 0x1
 5366 03bf 50       		.byte	0x50
ARM GAS  C:\Users\Phuong\AppData\Local\Temp\ccKPluhm.s 			page 113


 5367 03c0 9F       		.byte	0x9f
 5368 03c1 00000000 		.4byte	0
 5369 03c5 00000000 		.4byte	0
 5370              	.LLST22:
 5371 03c9 04000000 		.4byte	.LVL56
 5372 03cd 1A000000 		.4byte	.LVL61
 5373 03d1 0100     		.2byte	0x1
 5374 03d3 54       		.byte	0x54
 5375 03d4 00000000 		.4byte	0
 5376 03d8 00000000 		.4byte	0
 5377              	.LLST23:
 5378 03dc 00000000 		.4byte	.LVL62
 5379 03e0 02000000 		.4byte	.LVL63
 5380 03e4 0100     		.2byte	0x1
 5381 03e6 50       		.byte	0x50
 5382 03e7 02000000 		.4byte	.LVL63
 5383 03eb 14000000 		.4byte	.LFE57
 5384 03ef 0400     		.2byte	0x4
 5385 03f1 F3       		.byte	0xf3
 5386 03f2 01       		.uleb128 0x1
 5387 03f3 50       		.byte	0x50
 5388 03f4 9F       		.byte	0x9f
 5389 03f5 00000000 		.4byte	0
 5390 03f9 00000000 		.4byte	0
 5391              	.LLST24:
 5392 03fd 00000000 		.4byte	.LVL65
 5393 0401 0B000000 		.4byte	.LVL67-1
 5394 0405 0100     		.2byte	0x1
 5395 0407 50       		.byte	0x50
 5396 0408 0B000000 		.4byte	.LVL67-1
 5397 040c 4A000000 		.4byte	.LVL70
 5398 0410 0100     		.2byte	0x1
 5399 0412 54       		.byte	0x54
 5400 0413 4A000000 		.4byte	.LVL70
 5401 0417 50000000 		.4byte	.LFE58
 5402 041b 0400     		.2byte	0x4
 5403 041d F3       		.byte	0xf3
 5404 041e 01       		.uleb128 0x1
 5405 041f 50       		.byte	0x50
 5406 0420 9F       		.byte	0x9f
 5407 0421 00000000 		.4byte	0
 5408 0425 00000000 		.4byte	0
 5409              	.LLST25:
 5410 0429 00000000 		.4byte	.LVL65
 5411 042d 0B000000 		.4byte	.LVL67-1
 5412 0431 0100     		.2byte	0x1
 5413 0433 51       		.byte	0x51
 5414 0434 0B000000 		.4byte	.LVL67-1
 5415 0438 4A000000 		.4byte	.LVL71
 5416 043c 0100     		.2byte	0x1
 5417 043e 55       		.byte	0x55
 5418 043f 4A000000 		.4byte	.LVL71
 5419 0443 50000000 		.4byte	.LFE58
 5420 0447 0400     		.2byte	0x4
 5421 0449 F3       		.byte	0xf3
 5422 044a 01       		.uleb128 0x1
 5423 044b 51       		.byte	0x51
ARM GAS  C:\Users\Phuong\AppData\Local\Temp\ccKPluhm.s 			page 114


 5424 044c 9F       		.byte	0x9f
 5425 044d 00000000 		.4byte	0
 5426 0451 00000000 		.4byte	0
 5427              	.LLST26:
 5428 0455 0C000000 		.4byte	.LVL67
 5429 0459 18000000 		.4byte	.LVL68
 5430 045d 0100     		.2byte	0x1
 5431 045f 50       		.byte	0x50
 5432 0460 18000000 		.4byte	.LVL68
 5433 0464 1B000000 		.4byte	.LVL69-1
 5434 0468 0300     		.2byte	0x3
 5435 046a 70       		.byte	0x70
 5436 046b 75       		.sleb128 -11
 5437 046c 9F       		.byte	0x9f
 5438 046d 1C000000 		.4byte	.LVL69
 5439 0471 50000000 		.4byte	.LFE58
 5440 0475 0100     		.2byte	0x1
 5441 0477 50       		.byte	0x50
 5442 0478 00000000 		.4byte	0
 5443 047c 00000000 		.4byte	0
 5444              	.LLST27:
 5445 0480 08000000 		.4byte	.LVL66
 5446 0484 4A000000 		.4byte	.LVL72
 5447 0488 0100     		.2byte	0x1
 5448 048a 56       		.byte	0x56
 5449 048b 00000000 		.4byte	0
 5450 048f 00000000 		.4byte	0
 5451              	.LLST28:
 5452 0493 00000000 		.4byte	.LVL73
 5453 0497 0B000000 		.4byte	.LVL74-1
 5454 049b 0100     		.2byte	0x1
 5455 049d 50       		.byte	0x50
 5456 049e 0B000000 		.4byte	.LVL74-1
 5457 04a2 36000000 		.4byte	.LVL81
 5458 04a6 0100     		.2byte	0x1
 5459 04a8 54       		.byte	0x54
 5460 04a9 36000000 		.4byte	.LVL81
 5461 04ad 3C000000 		.4byte	.LFE54
 5462 04b1 0400     		.2byte	0x4
 5463 04b3 F3       		.byte	0xf3
 5464 04b4 01       		.uleb128 0x1
 5465 04b5 50       		.byte	0x50
 5466 04b6 9F       		.byte	0x9f
 5467 04b7 00000000 		.4byte	0
 5468 04bb 00000000 		.4byte	0
 5469              	.LLST29:
 5470 04bf 0C000000 		.4byte	.LVL74
 5471 04c3 28000000 		.4byte	.LVL75
 5472 04c7 0100     		.2byte	0x1
 5473 04c9 50       		.byte	0x50
 5474 04ca 2E000000 		.4byte	.LVL77
 5475 04ce 30000000 		.4byte	.LVL78
 5476 04d2 0100     		.2byte	0x1
 5477 04d4 50       		.byte	0x50
 5478 04d5 34000000 		.4byte	.LVL79
 5479 04d9 36000000 		.4byte	.LVL80
 5480 04dd 0100     		.2byte	0x1
ARM GAS  C:\Users\Phuong\AppData\Local\Temp\ccKPluhm.s 			page 115


 5481 04df 50       		.byte	0x50
 5482 04e0 00000000 		.4byte	0
 5483 04e4 00000000 		.4byte	0
 5484              	.LLST30:
 5485 04e8 00000000 		.4byte	.LVL82
 5486 04ec 21000000 		.4byte	.LVL85-1
 5487 04f0 0100     		.2byte	0x1
 5488 04f2 50       		.byte	0x50
 5489 04f3 21000000 		.4byte	.LVL85-1
 5490 04f7 2E000000 		.4byte	.LVL86
 5491 04fb 0100     		.2byte	0x1
 5492 04fd 56       		.byte	0x56
 5493 04fe 2E000000 		.4byte	.LVL86
 5494 0502 32000000 		.4byte	.LVL88
 5495 0506 0100     		.2byte	0x1
 5496 0508 50       		.byte	0x50
 5497 0509 32000000 		.4byte	.LVL88
 5498 050d 62010000 		.4byte	.LVL110
 5499 0511 0100     		.2byte	0x1
 5500 0513 56       		.byte	0x56
 5501 0514 62010000 		.4byte	.LVL110
 5502 0518 70010000 		.4byte	.LFE60
 5503 051c 0400     		.2byte	0x4
 5504 051e F3       		.byte	0xf3
 5505 051f 01       		.uleb128 0x1
 5506 0520 50       		.byte	0x50
 5507 0521 9F       		.byte	0x9f
 5508 0522 00000000 		.4byte	0
 5509 0526 00000000 		.4byte	0
 5510              	.LLST31:
 5511 052a 00000000 		.4byte	.LVL82
 5512 052e 10000000 		.4byte	.LVL83
 5513 0532 0100     		.2byte	0x1
 5514 0534 51       		.byte	0x51
 5515 0535 10000000 		.4byte	.LVL83
 5516 0539 62010000 		.4byte	.LVL109
 5517 053d 0100     		.2byte	0x1
 5518 053f 55       		.byte	0x55
 5519 0540 62010000 		.4byte	.LVL109
 5520 0544 70010000 		.4byte	.LFE60
 5521 0548 0400     		.2byte	0x4
 5522 054a F3       		.byte	0xf3
 5523 054b 01       		.uleb128 0x1
 5524 054c 51       		.byte	0x51
 5525 054d 9F       		.byte	0x9f
 5526 054e 00000000 		.4byte	0
 5527 0552 00000000 		.4byte	0
 5528              	.LLST32:
 5529 0556 00000000 		.4byte	.LVL82
 5530 055a 12000000 		.4byte	.LVL84
 5531 055e 0100     		.2byte	0x1
 5532 0560 52       		.byte	0x52
 5533 0561 12000000 		.4byte	.LVL84
 5534 0565 8A000000 		.4byte	.LVL95
 5535 0569 0100     		.2byte	0x1
 5536 056b 54       		.byte	0x54
 5537 056c 8A000000 		.4byte	.LVL95
ARM GAS  C:\Users\Phuong\AppData\Local\Temp\ccKPluhm.s 			page 116


 5538 0570 32010000 		.4byte	.LVL106
 5539 0574 0400     		.2byte	0x4
 5540 0576 F3       		.byte	0xf3
 5541 0577 01       		.uleb128 0x1
 5542 0578 52       		.byte	0x52
 5543 0579 9F       		.byte	0x9f
 5544 057a 32010000 		.4byte	.LVL106
 5545 057e 5A010000 		.4byte	.LVL107
 5546 0582 0100     		.2byte	0x1
 5547 0584 54       		.byte	0x54
 5548 0585 5A010000 		.4byte	.LVL107
 5549 0589 70010000 		.4byte	.LFE60
 5550 058d 0400     		.2byte	0x4
 5551 058f F3       		.byte	0xf3
 5552 0590 01       		.uleb128 0x1
 5553 0591 52       		.byte	0x52
 5554 0592 9F       		.byte	0x9f
 5555 0593 00000000 		.4byte	0
 5556 0597 00000000 		.4byte	0
 5557              	.LLST33:
 5558 059b 30000000 		.4byte	.LVL87
 5559 059f 60010000 		.4byte	.LVL108
 5560 05a3 0100     		.2byte	0x1
 5561 05a5 57       		.byte	0x57
 5562 05a6 00000000 		.4byte	0
 5563 05aa 00000000 		.4byte	0
 5564              	.LLST34:
 5565 05ae 54000000 		.4byte	.LVL91
 5566 05b2 5A000000 		.4byte	.LVL92
 5567 05b6 0100     		.2byte	0x1
 5568 05b8 50       		.byte	0x50
 5569 05b9 6A000000 		.4byte	.LVL94
 5570 05bd CA000000 		.4byte	.LVL98
 5571 05c1 0100     		.2byte	0x1
 5572 05c3 50       		.byte	0x50
 5573 05c4 DA000000 		.4byte	.LVL101
 5574 05c8 00010000 		.4byte	.LVL102
 5575 05cc 0100     		.2byte	0x1
 5576 05ce 50       		.byte	0x50
 5577 05cf 04010000 		.4byte	.LVL103
 5578 05d3 17010000 		.4byte	.LVL104-1
 5579 05d7 0100     		.2byte	0x1
 5580 05d9 50       		.byte	0x50
 5581 05da 1A010000 		.4byte	.LVL105
 5582 05de 5A010000 		.4byte	.LVL107
 5583 05e2 0100     		.2byte	0x1
 5584 05e4 50       		.byte	0x50
 5585 05e5 00000000 		.4byte	0
 5586 05e9 00000000 		.4byte	0
 5587              	.LLST35:
 5588 05ed C2000000 		.4byte	.LVL96
 5589 05f1 DA000000 		.4byte	.LVL101
 5590 05f5 0100     		.2byte	0x1
 5591 05f7 54       		.byte	0x54
 5592 05f8 00000000 		.4byte	0
 5593 05fc 00000000 		.4byte	0
 5594              	.LLST36:
ARM GAS  C:\Users\Phuong\AppData\Local\Temp\ccKPluhm.s 			page 117


 5595 0600 00000000 		.4byte	.LVL111
 5596 0604 23000000 		.4byte	.LVL112-1
 5597 0608 0100     		.2byte	0x1
 5598 060a 50       		.byte	0x50
 5599 060b 23000000 		.4byte	.LVL112-1
 5600 060f 6C000000 		.4byte	.LVL118
 5601 0613 0100     		.2byte	0x1
 5602 0615 55       		.byte	0x55
 5603 0616 6C000000 		.4byte	.LVL118
 5604 061a 6E000000 		.4byte	.LVL119
 5605 061e 0100     		.2byte	0x1
 5606 0620 50       		.byte	0x50
 5607 0621 6E000000 		.4byte	.LVL119
 5608 0625 72000000 		.4byte	.LVL120
 5609 0629 0100     		.2byte	0x1
 5610 062b 55       		.byte	0x55
 5611 062c 72000000 		.4byte	.LVL120
 5612 0630 74000000 		.4byte	.LVL121
 5613 0634 0100     		.2byte	0x1
 5614 0636 50       		.byte	0x50
 5615 0637 74000000 		.4byte	.LVL121
 5616 063b 78000000 		.4byte	.LVL122
 5617 063f 0100     		.2byte	0x1
 5618 0641 55       		.byte	0x55
 5619 0642 78000000 		.4byte	.LVL122
 5620 0646 7A000000 		.4byte	.LVL123
 5621 064a 0100     		.2byte	0x1
 5622 064c 50       		.byte	0x50
 5623 064d 7A000000 		.4byte	.LVL123
 5624 0651 82000000 		.4byte	.LVL127
 5625 0655 0100     		.2byte	0x1
 5626 0657 55       		.byte	0x55
 5627 0658 82000000 		.4byte	.LVL127
 5628 065c 8C000000 		.4byte	.LFE62
 5629 0660 0400     		.2byte	0x4
 5630 0662 F3       		.byte	0xf3
 5631 0663 01       		.uleb128 0x1
 5632 0664 50       		.byte	0x50
 5633 0665 9F       		.byte	0x9f
 5634 0666 00000000 		.4byte	0
 5635 066a 00000000 		.4byte	0
 5636              	.LLST37:
 5637 066e 00000000 		.4byte	.LVL111
 5638 0672 23000000 		.4byte	.LVL112-1
 5639 0676 0100     		.2byte	0x1
 5640 0678 51       		.byte	0x51
 5641 0679 23000000 		.4byte	.LVL112-1
 5642 067d 6C000000 		.4byte	.LVL118
 5643 0681 0100     		.2byte	0x1
 5644 0683 56       		.byte	0x56
 5645 0684 6C000000 		.4byte	.LVL118
 5646 0688 7E000000 		.4byte	.LVL124
 5647 068c 0100     		.2byte	0x1
 5648 068e 51       		.byte	0x51
 5649 068f 7E000000 		.4byte	.LVL124
 5650 0693 82000000 		.4byte	.LVL128
 5651 0697 0100     		.2byte	0x1
ARM GAS  C:\Users\Phuong\AppData\Local\Temp\ccKPluhm.s 			page 118


 5652 0699 56       		.byte	0x56
 5653 069a 82000000 		.4byte	.LVL128
 5654 069e 8C000000 		.4byte	.LFE62
 5655 06a2 0400     		.2byte	0x4
 5656 06a4 F3       		.byte	0xf3
 5657 06a5 01       		.uleb128 0x1
 5658 06a6 51       		.byte	0x51
 5659 06a7 9F       		.byte	0x9f
 5660 06a8 00000000 		.4byte	0
 5661 06ac 00000000 		.4byte	0
 5662              	.LLST38:
 5663 06b0 26000000 		.4byte	.LVL113
 5664 06b4 40000000 		.4byte	.LVL114
 5665 06b8 0100     		.2byte	0x1
 5666 06ba 50       		.byte	0x50
 5667 06bb 40000000 		.4byte	.LVL114
 5668 06bf 6C000000 		.4byte	.LVL118
 5669 06c3 0100     		.2byte	0x1
 5670 06c5 54       		.byte	0x54
 5671 06c6 7E000000 		.4byte	.LVL124
 5672 06ca 80000000 		.4byte	.LVL125
 5673 06ce 0100     		.2byte	0x1
 5674 06d0 50       		.byte	0x50
 5675 06d1 80000000 		.4byte	.LVL125
 5676 06d5 82000000 		.4byte	.LVL126
 5677 06d9 0100     		.2byte	0x1
 5678 06db 54       		.byte	0x54
 5679 06dc 00000000 		.4byte	0
 5680 06e0 00000000 		.4byte	0
 5681              	.LLST39:
 5682 06e4 00000000 		.4byte	.LVL129
 5683 06e8 1E000000 		.4byte	.LVL132
 5684 06ec 0100     		.2byte	0x1
 5685 06ee 50       		.byte	0x50
 5686 06ef 1E000000 		.4byte	.LVL132
 5687 06f3 4E000000 		.4byte	.LVL138
 5688 06f7 0100     		.2byte	0x1
 5689 06f9 56       		.byte	0x56
 5690 06fa 4E000000 		.4byte	.LVL138
 5691 06fe 50000000 		.4byte	.LVL139
 5692 0702 0100     		.2byte	0x1
 5693 0704 50       		.byte	0x50
 5694 0705 50000000 		.4byte	.LVL139
 5695 0709 54000000 		.4byte	.LVL140
 5696 070d 0100     		.2byte	0x1
 5697 070f 56       		.byte	0x56
 5698 0710 54000000 		.4byte	.LVL140
 5699 0714 56000000 		.4byte	.LVL141
 5700 0718 0100     		.2byte	0x1
 5701 071a 50       		.byte	0x50
 5702 071b 56000000 		.4byte	.LVL141
 5703 071f 58000000 		.4byte	.LVL144
 5704 0723 0100     		.2byte	0x1
 5705 0725 56       		.byte	0x56
 5706 0726 58000000 		.4byte	.LVL144
 5707 072a 64000000 		.4byte	.LFE61
 5708 072e 0400     		.2byte	0x4
ARM GAS  C:\Users\Phuong\AppData\Local\Temp\ccKPluhm.s 			page 119


 5709 0730 F3       		.byte	0xf3
 5710 0731 01       		.uleb128 0x1
 5711 0732 50       		.byte	0x50
 5712 0733 9F       		.byte	0x9f
 5713 0734 00000000 		.4byte	0
 5714 0738 00000000 		.4byte	0
 5715              	.LLST40:
 5716 073c 00000000 		.4byte	.LVL129
 5717 0740 22000000 		.4byte	.LVL133
 5718 0744 0100     		.2byte	0x1
 5719 0746 51       		.byte	0x51
 5720 0747 22000000 		.4byte	.LVL133
 5721 074b 4E000000 		.4byte	.LVL138
 5722 074f 0100     		.2byte	0x1
 5723 0751 55       		.byte	0x55
 5724 0752 4E000000 		.4byte	.LVL138
 5725 0756 58000000 		.4byte	.LVL142
 5726 075a 0100     		.2byte	0x1
 5727 075c 51       		.byte	0x51
 5728 075d 58000000 		.4byte	.LVL142
 5729 0761 58000000 		.4byte	.LVL143
 5730 0765 0100     		.2byte	0x1
 5731 0767 55       		.byte	0x55
 5732 0768 58000000 		.4byte	.LVL143
 5733 076c 64000000 		.4byte	.LFE61
 5734 0770 0400     		.2byte	0x4
 5735 0772 F3       		.byte	0xf3
 5736 0773 01       		.uleb128 0x1
 5737 0774 51       		.byte	0x51
 5738 0775 9F       		.byte	0x9f
 5739 0776 00000000 		.4byte	0
 5740 077a 00000000 		.4byte	0
 5741              	.LLST41:
 5742 077e 06000000 		.4byte	.LVL130
 5743 0782 22000000 		.4byte	.LVL133
 5744 0786 0300     		.2byte	0x3
 5745 0788 09       		.byte	0x9
 5746 0789 FA       		.byte	0xfa
 5747 078a 9F       		.byte	0x9f
 5748 078b 22000000 		.4byte	.LVL133
 5749 078f 3E000000 		.4byte	.LVL134
 5750 0793 0100     		.2byte	0x1
 5751 0795 50       		.byte	0x50
 5752 0796 42000000 		.4byte	.LVL135
 5753 079a 4E000000 		.4byte	.LVL138
 5754 079e 0100     		.2byte	0x1
 5755 07a0 50       		.byte	0x50
 5756 07a1 4E000000 		.4byte	.LVL138
 5757 07a5 58000000 		.4byte	.LVL142
 5758 07a9 0300     		.2byte	0x3
 5759 07ab 09       		.byte	0x9
 5760 07ac FA       		.byte	0xfa
 5761 07ad 9F       		.byte	0x9f
 5762 07ae 00000000 		.4byte	0
 5763 07b2 00000000 		.4byte	0
 5764              	.LLST42:
 5765 07b6 1C000000 		.4byte	.LVL131
ARM GAS  C:\Users\Phuong\AppData\Local\Temp\ccKPluhm.s 			page 120


 5766 07ba 4E000000 		.4byte	.LVL138
 5767 07be 0100     		.2byte	0x1
 5768 07c0 54       		.byte	0x54
 5769 07c1 00000000 		.4byte	0
 5770 07c5 00000000 		.4byte	0
 5771              	.LLST43:
 5772 07c9 00000000 		.4byte	.LVL145
 5773 07cd 23000000 		.4byte	.LVL146-1
 5774 07d1 0100     		.2byte	0x1
 5775 07d3 50       		.byte	0x50
 5776 07d4 23000000 		.4byte	.LVL146-1
 5777 07d8 72000000 		.4byte	.LVL155
 5778 07dc 0100     		.2byte	0x1
 5779 07de 54       		.byte	0x54
 5780 07df 72000000 		.4byte	.LVL155
 5781 07e3 74000000 		.4byte	.LVL156
 5782 07e7 0100     		.2byte	0x1
 5783 07e9 50       		.byte	0x50
 5784 07ea 74000000 		.4byte	.LVL156
 5785 07ee 78000000 		.4byte	.LVL157
 5786 07f2 0100     		.2byte	0x1
 5787 07f4 54       		.byte	0x54
 5788 07f5 78000000 		.4byte	.LVL157
 5789 07f9 7A000000 		.4byte	.LVL158
 5790 07fd 0100     		.2byte	0x1
 5791 07ff 50       		.byte	0x50
 5792 0800 7A000000 		.4byte	.LVL158
 5793 0804 7E000000 		.4byte	.LVL159
 5794 0808 0100     		.2byte	0x1
 5795 080a 54       		.byte	0x54
 5796 080b 7E000000 		.4byte	.LVL159
 5797 080f 80000000 		.4byte	.LVL160
 5798 0813 0100     		.2byte	0x1
 5799 0815 50       		.byte	0x50
 5800 0816 80000000 		.4byte	.LVL160
 5801 081a 88000000 		.4byte	.LVL164
 5802 081e 0100     		.2byte	0x1
 5803 0820 54       		.byte	0x54
 5804 0821 88000000 		.4byte	.LVL164
 5805 0825 94000000 		.4byte	.LFE64
 5806 0829 0400     		.2byte	0x4
 5807 082b F3       		.byte	0xf3
 5808 082c 01       		.uleb128 0x1
 5809 082d 50       		.byte	0x50
 5810 082e 9F       		.byte	0x9f
 5811 082f 00000000 		.4byte	0
 5812 0833 00000000 		.4byte	0
 5813              	.LLST44:
 5814 0837 00000000 		.4byte	.LVL145
 5815 083b 23000000 		.4byte	.LVL146-1
 5816 083f 0100     		.2byte	0x1
 5817 0841 51       		.byte	0x51
 5818 0842 23000000 		.4byte	.LVL146-1
 5819 0846 72000000 		.4byte	.LVL155
 5820 084a 0100     		.2byte	0x1
 5821 084c 56       		.byte	0x56
 5822 084d 72000000 		.4byte	.LVL155
ARM GAS  C:\Users\Phuong\AppData\Local\Temp\ccKPluhm.s 			page 121


 5823 0851 84000000 		.4byte	.LVL161
 5824 0855 0100     		.2byte	0x1
 5825 0857 51       		.byte	0x51
 5826 0858 84000000 		.4byte	.LVL161
 5827 085c 88000000 		.4byte	.LVL165
 5828 0860 0100     		.2byte	0x1
 5829 0862 56       		.byte	0x56
 5830 0863 88000000 		.4byte	.LVL165
 5831 0867 94000000 		.4byte	.LFE64
 5832 086b 0400     		.2byte	0x4
 5833 086d F3       		.byte	0xf3
 5834 086e 01       		.uleb128 0x1
 5835 086f 51       		.byte	0x51
 5836 0870 9F       		.byte	0x9f
 5837 0871 00000000 		.4byte	0
 5838 0875 00000000 		.4byte	0
 5839              	.LLST45:
 5840 0879 26000000 		.4byte	.LVL147
 5841 087d 32000000 		.4byte	.LVL148
 5842 0881 0100     		.2byte	0x1
 5843 0883 50       		.byte	0x50
 5844 0884 32000000 		.4byte	.LVL148
 5845 0888 35000000 		.4byte	.LVL149-1
 5846 088c 0100     		.2byte	0x1
 5847 088e 51       		.byte	0x51
 5848 088f 35000000 		.4byte	.LVL149-1
 5849 0893 6A000000 		.4byte	.LVL153
 5850 0897 0100     		.2byte	0x1
 5851 0899 55       		.byte	0x55
 5852 089a 6A000000 		.4byte	.LVL153
 5853 089e 70000000 		.4byte	.LVL154
 5854 08a2 0100     		.2byte	0x1
 5855 08a4 50       		.byte	0x50
 5856 08a5 70000000 		.4byte	.LVL154
 5857 08a9 72000000 		.4byte	.LVL155
 5858 08ad 0100     		.2byte	0x1
 5859 08af 55       		.byte	0x55
 5860 08b0 84000000 		.4byte	.LVL161
 5861 08b4 86000000 		.4byte	.LVL162
 5862 08b8 0100     		.2byte	0x1
 5863 08ba 50       		.byte	0x50
 5864 08bb 86000000 		.4byte	.LVL162
 5865 08bf 88000000 		.4byte	.LVL163
 5866 08c3 0100     		.2byte	0x1
 5867 08c5 55       		.byte	0x55
 5868 08c6 00000000 		.4byte	0
 5869 08ca 00000000 		.4byte	0
 5870              	.LLST46:
 5871 08ce 00000000 		.4byte	.LVL166
 5872 08d2 22000000 		.4byte	.LVL169
 5873 08d6 0100     		.2byte	0x1
 5874 08d8 50       		.byte	0x50
 5875 08d9 22000000 		.4byte	.LVL169
 5876 08dd 52000000 		.4byte	.LVL173
 5877 08e1 0100     		.2byte	0x1
 5878 08e3 55       		.byte	0x55
 5879 08e4 52000000 		.4byte	.LVL173
ARM GAS  C:\Users\Phuong\AppData\Local\Temp\ccKPluhm.s 			page 122


 5880 08e8 54000000 		.4byte	.LVL174
 5881 08ec 0100     		.2byte	0x1
 5882 08ee 50       		.byte	0x50
 5883 08ef 54000000 		.4byte	.LVL174
 5884 08f3 58000000 		.4byte	.LVL175
 5885 08f7 0100     		.2byte	0x1
 5886 08f9 55       		.byte	0x55
 5887 08fa 58000000 		.4byte	.LVL175
 5888 08fe 5A000000 		.4byte	.LVL176
 5889 0902 0100     		.2byte	0x1
 5890 0904 50       		.byte	0x50
 5891 0905 5A000000 		.4byte	.LVL176
 5892 0909 5C000000 		.4byte	.LVL178
 5893 090d 0100     		.2byte	0x1
 5894 090f 55       		.byte	0x55
 5895 0910 5C000000 		.4byte	.LVL178
 5896 0914 68000000 		.4byte	.LFE63
 5897 0918 0400     		.2byte	0x4
 5898 091a F3       		.byte	0xf3
 5899 091b 01       		.uleb128 0x1
 5900 091c 50       		.byte	0x50
 5901 091d 9F       		.byte	0x9f
 5902 091e 00000000 		.4byte	0
 5903 0922 00000000 		.4byte	0
 5904              	.LLST47:
 5905 0926 00000000 		.4byte	.LVL166
 5906 092a 22000000 		.4byte	.LVL169
 5907 092e 0100     		.2byte	0x1
 5908 0930 51       		.byte	0x51
 5909 0931 22000000 		.4byte	.LVL169
 5910 0935 52000000 		.4byte	.LVL173
 5911 0939 0100     		.2byte	0x1
 5912 093b 57       		.byte	0x57
 5913 093c 52000000 		.4byte	.LVL173
 5914 0940 5C000000 		.4byte	.LVL177
 5915 0944 0100     		.2byte	0x1
 5916 0946 51       		.byte	0x51
 5917 0947 5C000000 		.4byte	.LVL177
 5918 094b 5C000000 		.4byte	.LVL179
 5919 094f 0100     		.2byte	0x1
 5920 0951 57       		.byte	0x57
 5921 0952 5C000000 		.4byte	.LVL179
 5922 0956 68000000 		.4byte	.LFE63
 5923 095a 0400     		.2byte	0x4
 5924 095c F3       		.byte	0xf3
 5925 095d 01       		.uleb128 0x1
 5926 095e 51       		.byte	0x51
 5927 095f 9F       		.byte	0x9f
 5928 0960 00000000 		.4byte	0
 5929 0964 00000000 		.4byte	0
 5930              	.LLST48:
 5931 0968 06000000 		.4byte	.LVL167
 5932 096c 22000000 		.4byte	.LVL169
 5933 0970 0300     		.2byte	0x3
 5934 0972 09       		.byte	0x9
 5935 0973 FA       		.byte	0xfa
 5936 0974 9F       		.byte	0x9f
ARM GAS  C:\Users\Phuong\AppData\Local\Temp\ccKPluhm.s 			page 123


 5937 0975 22000000 		.4byte	.LVL169
 5938 0979 52000000 		.4byte	.LVL173
 5939 097d 0100     		.2byte	0x1
 5940 097f 56       		.byte	0x56
 5941 0980 52000000 		.4byte	.LVL173
 5942 0984 5C000000 		.4byte	.LVL177
 5943 0988 0300     		.2byte	0x3
 5944 098a 09       		.byte	0x9
 5945 098b FA       		.byte	0xfa
 5946 098c 9F       		.byte	0x9f
 5947 098d 00000000 		.4byte	0
 5948 0991 00000000 		.4byte	0
 5949              	.LLST49:
 5950 0995 1C000000 		.4byte	.LVL168
 5951 0999 52000000 		.4byte	.LVL173
 5952 099d 0100     		.2byte	0x1
 5953 099f 54       		.byte	0x54
 5954 09a0 00000000 		.4byte	0
 5955 09a4 00000000 		.4byte	0
 5956              	.LLST50:
 5957 09a8 42000000 		.4byte	.LVL170
 5958 09ac 48000000 		.4byte	.LVL171
 5959 09b0 0100     		.2byte	0x1
 5960 09b2 50       		.byte	0x50
 5961 09b3 00000000 		.4byte	0
 5962 09b7 00000000 		.4byte	0
 5963              	.LLST51:
 5964 09bb 06000000 		.4byte	.LVL180
 5965 09bf 30000000 		.4byte	.LVL185
 5966 09c3 0100     		.2byte	0x1
 5967 09c5 55       		.byte	0x55
 5968 09c6 00000000 		.4byte	0
 5969 09ca 00000000 		.4byte	0
 5970              	.LLST52:
 5971 09ce 0A000000 		.4byte	.LVL181
 5972 09d2 2C000000 		.4byte	.LVL184
 5973 09d6 0100     		.2byte	0x1
 5974 09d8 54       		.byte	0x54
 5975 09d9 00000000 		.4byte	0
 5976 09dd 00000000 		.4byte	0
 5977              		.section	.debug_aranges,"",%progbits
 5978 0000 A4000000 		.4byte	0xa4
 5979 0004 0200     		.2byte	0x2
 5980 0006 00000000 		.4byte	.Ldebug_info0
 5981 000a 04       		.byte	0x4
 5982 000b 00       		.byte	0
 5983 000c 0000     		.2byte	0
 5984 000e 0000     		.2byte	0
 5985 0010 00000000 		.4byte	.LFB59
 5986 0014 24000000 		.4byte	.LFE59-.LFB59
 5987 0018 00000000 		.4byte	.LFB67
 5988 001c 26000000 		.4byte	.LFE67-.LFB67
 5989 0020 00000000 		.4byte	.LFB68
 5990 0024 26000000 		.4byte	.LFE68-.LFB68
 5991 0028 00000000 		.4byte	.LFB69
 5992 002c 3C000000 		.4byte	.LFE69-.LFB69
 5993 0030 00000000 		.4byte	.LFB70
ARM GAS  C:\Users\Phuong\AppData\Local\Temp\ccKPluhm.s 			page 124


 5994 0034 C4000000 		.4byte	.LFE70-.LFB70
 5995 0038 00000000 		.4byte	.LFB66
 5996 003c 30000000 		.4byte	.LFE66-.LFB66
 5997 0040 00000000 		.4byte	.LFB53
 5998 0044 18000000 		.4byte	.LFE53-.LFB53
 5999 0048 00000000 		.4byte	.LFB55
 6000 004c 2E000000 		.4byte	.LFE55-.LFB55
 6001 0050 00000000 		.4byte	.LFB56
 6002 0054 1C000000 		.4byte	.LFE56-.LFB56
 6003 0058 00000000 		.4byte	.LFB57
 6004 005c 14000000 		.4byte	.LFE57-.LFB57
 6005 0060 00000000 		.4byte	.LFB58
 6006 0064 50000000 		.4byte	.LFE58-.LFB58
 6007 0068 00000000 		.4byte	.LFB54
 6008 006c 3C000000 		.4byte	.LFE54-.LFB54
 6009 0070 00000000 		.4byte	.LFB60
 6010 0074 70010000 		.4byte	.LFE60-.LFB60
 6011 0078 00000000 		.4byte	.LFB62
 6012 007c 8C000000 		.4byte	.LFE62-.LFB62
 6013 0080 00000000 		.4byte	.LFB61
 6014 0084 64000000 		.4byte	.LFE61-.LFB61
 6015 0088 00000000 		.4byte	.LFB64
 6016 008c 94000000 		.4byte	.LFE64-.LFB64
 6017 0090 00000000 		.4byte	.LFB63
 6018 0094 68000000 		.4byte	.LFE63-.LFB63
 6019 0098 00000000 		.4byte	.LFB65
 6020 009c 38000000 		.4byte	.LFE65-.LFB65
 6021 00a0 00000000 		.4byte	0
 6022 00a4 00000000 		.4byte	0
 6023              		.section	.debug_ranges,"",%progbits
 6024              	.Ldebug_ranges0:
 6025 0000 00000000 		.4byte	.LFB59
 6026 0004 24000000 		.4byte	.LFE59
 6027 0008 00000000 		.4byte	.LFB67
 6028 000c 26000000 		.4byte	.LFE67
 6029 0010 00000000 		.4byte	.LFB68
 6030 0014 26000000 		.4byte	.LFE68
 6031 0018 00000000 		.4byte	.LFB69
 6032 001c 3C000000 		.4byte	.LFE69
 6033 0020 00000000 		.4byte	.LFB70
 6034 0024 C4000000 		.4byte	.LFE70
 6035 0028 00000000 		.4byte	.LFB66
 6036 002c 30000000 		.4byte	.LFE66
 6037 0030 00000000 		.4byte	.LFB53
 6038 0034 18000000 		.4byte	.LFE53
 6039 0038 00000000 		.4byte	.LFB55
 6040 003c 2E000000 		.4byte	.LFE55
 6041 0040 00000000 		.4byte	.LFB56
 6042 0044 1C000000 		.4byte	.LFE56
 6043 0048 00000000 		.4byte	.LFB57
 6044 004c 14000000 		.4byte	.LFE57
 6045 0050 00000000 		.4byte	.LFB58
 6046 0054 50000000 		.4byte	.LFE58
 6047 0058 00000000 		.4byte	.LFB54
 6048 005c 3C000000 		.4byte	.LFE54
 6049 0060 00000000 		.4byte	.LFB60
 6050 0064 70010000 		.4byte	.LFE60
ARM GAS  C:\Users\Phuong\AppData\Local\Temp\ccKPluhm.s 			page 125


 6051 0068 00000000 		.4byte	.LFB62
 6052 006c 8C000000 		.4byte	.LFE62
 6053 0070 00000000 		.4byte	.LFB61
 6054 0074 64000000 		.4byte	.LFE61
 6055 0078 00000000 		.4byte	.LFB64
 6056 007c 94000000 		.4byte	.LFE64
 6057 0080 00000000 		.4byte	.LFB63
 6058 0084 68000000 		.4byte	.LFE63
 6059 0088 00000000 		.4byte	.LFB65
 6060 008c 38000000 		.4byte	.LFE65
 6061 0090 00000000 		.4byte	0
 6062 0094 00000000 		.4byte	0
 6063              		.section	.debug_line,"",%progbits
 6064              	.Ldebug_line0:
 6065 0000 8D050000 		.section	.debug_str,"MS",%progbits,1
 6065      0200C402 
 6065      00000201 
 6065      FB0E0D00 
 6065      01010101 
 6066              	.LASF98:
 6067 0000 74785F6A 		.ascii	"tx_join\000"
 6067      6F696E00 
 6068              	.LASF87:
 6069 0008 6C656E65 		.ascii	"lenerr\000"
 6069      727200
 6070              	.LASF111:
 6071 000f 6D656D70 		.ascii	"memp\000"
 6071      00
 6072              	.LASF139:
 6073 0014 67726F75 		.ascii	"group_address\000"
 6073      705F6164 
 6073      64726573 
 6073      7300
 6074              	.LASF136:
 6075 0022 6E657469 		.ascii	"netif_status_callback_fn\000"
 6075      665F7374 
 6075      61747573 
 6075      5F63616C 
 6075      6C626163 
 6076              	.LASF137:
 6077 003b 6E657469 		.ascii	"netif_igmp_mac_filter_fn\000"
 6077      665F6967 
 6077      6D705F6D 
 6077      61635F66 
 6077      696C7465 
 6078              	.LASF72:
 6079 0054 4D454D50 		.ascii	"MEMP_SYS_TIMEOUT\000"
 6079      5F535953 
 6079      5F54494D 
 6079      454F5554 
 6079      00
 6080              	.LASF52:
 6081 0065 70627566 		.ascii	"pbuf\000"
 6081      00
 6082              	.LASF128:
 6083 006a 72735F63 		.ascii	"rs_count\000"
 6083      6F756E74 
ARM GAS  C:\Users\Phuong\AppData\Local\Temp\ccKPluhm.s 			page 126


 6083      00
 6084              	.LASF25:
 6085 0073 4552525F 		.ascii	"ERR_OK\000"
 6085      4F4B00
 6086              	.LASF73:
 6087 007a 4D454D50 		.ascii	"MEMP_NETDB\000"
 6087      5F4E4554 
 6087      444200
 6088              	.LASF160:
 6089 0085 63757272 		.ascii	"current_iphdr_dest\000"
 6089      656E745F 
 6089      69706864 
 6089      725F6465 
 6089      737400
 6090              	.LASF108:
 6091 0098 69705F66 		.ascii	"ip_frag\000"
 6091      72616700 
 6092              	.LASF65:
 6093 00a0 4D454D50 		.ascii	"MEMP_REASSDATA\000"
 6093      5F524541 
 6093      53534441 
 6093      544100
 6094              	.LASF202:
 6095 00af 6D656D70 		.ascii	"memp_free\000"
 6095      5F667265 
 6095      6500
 6096              	.LASF57:
 6097 00b9 74797065 		.ascii	"type\000"
 6097      00
 6098              	.LASF168:
 6099 00be 6D61785F 		.ascii	"max_time\000"
 6099      74696D65 
 6099      00
 6100              	.LASF86:
 6101 00c7 63686B65 		.ascii	"chkerr\000"
 6101      727200
 6102              	.LASF7:
 6103 00ce 6C6F6E67 		.ascii	"long long unsigned int\000"
 6103      206C6F6E 
 6103      6720756E 
 6103      7369676E 
 6103      65642069 
 6104              	.LASF53:
 6105 00e5 61646472 		.ascii	"addr\000"
 6105      00
 6106              	.LASF155:
 6107 00ea 63757272 		.ascii	"current_netif\000"
 6107      656E745F 
 6107      6E657469 
 6107      6600
 6108              	.LASF207:
 6109 00f8 69676D70 		.ascii	"igmp_init\000"
 6109      5F696E69 
 6109      7400
 6110              	.LASF88:
 6111 0102 6D656D65 		.ascii	"memerr\000"
 6111      727200
ARM GAS  C:\Users\Phuong\AppData\Local\Temp\ccKPluhm.s 			page 127


 6112              	.LASF64:
 6113 0109 4D454D50 		.ascii	"MEMP_TCP_SEG\000"
 6113      5F544350 
 6113      5F534547 
 6113      00
 6114              	.LASF92:
 6115 0116 63616368 		.ascii	"cachehit\000"
 6115      65686974 
 6115      00
 6116              	.LASF180:
 6117 011f 69676D70 		.ascii	"igmp_start\000"
 6117      5F737461 
 6117      727400
 6118              	.LASF54:
 6119 012a 6E657874 		.ascii	"next\000"
 6119      00
 6120              	.LASF70:
 6121 012f 4D454D50 		.ascii	"MEMP_ARP_QUEUE\000"
 6121      5F415250 
 6121      5F515545 
 6121      554500
 6122              	.LASF6:
 6123 013e 6C6F6E67 		.ascii	"long long int\000"
 6123      206C6F6E 
 6123      6720696E 
 6123      7400
 6124              	.LASF0:
 6125 014c 7369676E 		.ascii	"signed char\000"
 6125      65642063 
 6125      68617200 
 6126              	.LASF196:
 6127 0158 69705F64 		.ascii	"ip_data\000"
 6127      61746100 
 6128              	.LASF33:
 6129 0160 4552525F 		.ascii	"ERR_USE\000"
 6129      55534500 
 6130              	.LASF190:
 6131 0168 69676D70 		.ascii	"igmp_tmr\000"
 6131      5F746D72 
 6131      00
 6132              	.LASF177:
 6133 0171 69676D70 		.ascii	"igmp_lookfor_group\000"
 6133      5F6C6F6F 
 6133      6B666F72 
 6133      5F67726F 
 6133      757000
 6134              	.LASF131:
 6135 0184 68776164 		.ascii	"hwaddr\000"
 6135      647200
 6136              	.LASF182:
 6137 018b 69676D70 		.ascii	"igmp_input\000"
 6137      5F696E70 
 6137      757400
 6138              	.LASF56:
 6139 0196 746F745F 		.ascii	"tot_len\000"
 6139      6C656E00 
 6140              	.LASF166:
ARM GAS  C:\Users\Phuong\AppData\Local\Temp\ccKPluhm.s 			page 128


 6141 019e 67726F75 		.ascii	"group\000"
 6141      7000
 6142              	.LASF191:
 6143 01a4 616C6C73 		.ascii	"allsystems\000"
 6143      79737465 
 6143      6D7300
 6144              	.LASF126:
 6145 01af 73746174 		.ascii	"state\000"
 6145      6500
 6146              	.LASF129:
 6147 01b5 686F7374 		.ascii	"hostname\000"
 6147      6E616D65 
 6147      00
 6148              	.LASF4:
 6149 01be 6C6F6E67 		.ascii	"long int\000"
 6149      20696E74 
 6149      00
 6150              	.LASF161:
 6151 01c7 69676D70 		.ascii	"igmp_msg\000"
 6151      5F6D7367 
 6151      00
 6152              	.LASF50:
 6153 01d0 50425546 		.ascii	"PBUF_POOL\000"
 6153      5F504F4F 
 6153      4C00
 6154              	.LASF60:
 6155 01da 4D454D50 		.ascii	"MEMP_RAW_PCB\000"
 6155      5F524157 
 6155      5F504342 
 6155      00
 6156              	.LASF51:
 6157 01e7 6970345F 		.ascii	"ip4_addr\000"
 6157      61646472 
 6157      00
 6158              	.LASF115:
 6159 01f0 6C776970 		.ascii	"lwip_internal_netif_client_data_index\000"
 6159      5F696E74 
 6159      65726E61 
 6159      6C5F6E65 
 6159      7469665F 
 6160              	.LASF49:
 6161 0216 50425546 		.ascii	"PBUF_REF\000"
 6161      5F524546 
 6161      00
 6162              	.LASF156:
 6163 021f 63757272 		.ascii	"current_input_netif\000"
 6163      656E745F 
 6163      696E7075 
 6163      745F6E65 
 6163      74696600 
 6164              	.LASF84:
 6165 0233 72656376 		.ascii	"recv\000"
 6165      00
 6166              	.LASF114:
 6167 0238 4C574950 		.ascii	"LWIP_NETIF_CLIENT_DATA_INDEX_MAX\000"
 6167      5F4E4554 
 6167      49465F43 
ARM GAS  C:\Users\Phuong\AppData\Local\Temp\ccKPluhm.s 			page 129


 6167      4C49454E 
 6167      545F4441 
 6168              	.LASF37:
 6169 0259 4552525F 		.ascii	"ERR_IF\000"
 6169      494600
 6170              	.LASF197:
 6171 0260 7379735F 		.ascii	"sys_rand16\000"
 6171      72616E64 
 6171      313600
 6172              	.LASF81:
 6173 026b 696C6C65 		.ascii	"illegal\000"
 6173      67616C00 
 6174              	.LASF16:
 6175 0273 646F7562 		.ascii	"double\000"
 6175      6C6500
 6176              	.LASF149:
 6177 027a 5F6F6666 		.ascii	"_offset\000"
 6177      73657400 
 6178              	.LASF61:
 6179 0282 4D454D50 		.ascii	"MEMP_UDP_PCB\000"
 6179      5F554450 
 6179      5F504342 
 6179      00
 6180              	.LASF121:
 6181 028f 6E65746D 		.ascii	"netmask\000"
 6181      61736B00 
 6182              	.LASF174:
 6183 0297 69676D70 		.ascii	"igmp_send\000"
 6183      5F73656E 
 6183      6400
 6184              	.LASF76:
 6185 02a1 4D454D50 		.ascii	"MEMP_MAX\000"
 6185      5F4D4158 
 6185      00
 6186              	.LASF9:
 6187 02aa 5F5F7569 		.ascii	"__uint32_t\000"
 6187      6E743332 
 6187      5F7400
 6188              	.LASF63:
 6189 02b5 4D454D50 		.ascii	"MEMP_TCP_PCB_LISTEN\000"
 6189      5F544350 
 6189      5F504342 
 6189      5F4C4953 
 6189      54454E00 
 6190              	.LASF106:
 6191 02c9 6C696E6B 		.ascii	"link\000"
 6191      00
 6192              	.LASF10:
 6193 02ce 73697A65 		.ascii	"size_t\000"
 6193      5F7400
 6194              	.LASF198:
 6195 02d5 6970345F 		.ascii	"ip4_output_if_opt\000"
 6195      6F757470 
 6195      75745F69 
 6195      665F6F70 
 6195      7400
 6196              	.LASF93:
ARM GAS  C:\Users\Phuong\AppData\Local\Temp\ccKPluhm.s 			page 130


 6197 02e7 73746174 		.ascii	"stats_igmp\000"
 6197      735F6967 
 6197      6D7000
 6198              	.LASF90:
 6199 02f2 70726F74 		.ascii	"proterr\000"
 6199      65727200 
 6200              	.LASF28:
 6201 02fa 4552525F 		.ascii	"ERR_TIMEOUT\000"
 6201      54494D45 
 6201      4F555400 
 6202              	.LASF17:
 6203 0306 75385F74 		.ascii	"u8_t\000"
 6203      00
 6204              	.LASF164:
 6205 030b 69676D70 		.ascii	"igmp_checksum\000"
 6205      5F636865 
 6205      636B7375 
 6205      6D00
 6206              	.LASF71:
 6207 0319 4D454D50 		.ascii	"MEMP_IGMP_GROUP\000"
 6207      5F49474D 
 6207      505F4752 
 6207      4F555000 
 6208              	.LASF74:
 6209 0329 4D454D50 		.ascii	"MEMP_PBUF\000"
 6209      5F504255 
 6209      4600
 6210              	.LASF5:
 6211 0333 6C6F6E67 		.ascii	"long unsigned int\000"
 6211      20756E73 
 6211      69676E65 
 6211      6420696E 
 6211      7400
 6212              	.LASF34:
 6213 0345 4552525F 		.ascii	"ERR_ALREADY\000"
 6213      414C5245 
 6213      41445900 
 6214              	.LASF21:
 6215 0351 7533325F 		.ascii	"u32_t\000"
 6215      7400
 6216              	.LASF78:
 6217 0357 6E616D65 		.ascii	"name\000"
 6217      00
 6218              	.LASF152:
 6219 035c 5F63686B 		.ascii	"_chksum\000"
 6219      73756D00 
 6220              	.LASF62:
 6221 0364 4D454D50 		.ascii	"MEMP_TCP_PCB\000"
 6221      5F544350 
 6221      5F504342 
 6221      00
 6222              	.LASF151:
 6223 0371 5F70726F 		.ascii	"_proto\000"
 6223      746F00
 6224              	.LASF145:
 6225 0378 69705F68 		.ascii	"ip_hdr\000"
 6225      647200
ARM GAS  C:\Users\Phuong\AppData\Local\Temp\ccKPluhm.s 			page 131


 6226              	.LASF3:
 6227 037f 73686F72 		.ascii	"short unsigned int\000"
 6227      7420756E 
 6227      7369676E 
 6227      65642069 
 6227      6E7400
 6228              	.LASF144:
 6229 0392 6970345F 		.ascii	"ip4_addr_p_t\000"
 6229      61646472 
 6229      5F705F74 
 6229      00
 6230              	.LASF159:
 6231 039f 63757272 		.ascii	"current_iphdr_src\000"
 6231      656E745F 
 6231      69706864 
 6231      725F7372 
 6231      6300
 6232              	.LASF201:
 6233 03b1 70627566 		.ascii	"pbuf_free\000"
 6233      5F667265 
 6233      6500
 6234              	.LASF68:
 6235 03bb 4D454D50 		.ascii	"MEMP_TCPIP_MSG_API\000"
 6235      5F544350 
 6235      49505F4D 
 6235      53475F41 
 6235      504900
 6236              	.LASF117:
 6237 03ce 4E455449 		.ascii	"NETIF_DEL_MAC_FILTER\000"
 6237      465F4445 
 6237      4C5F4D41 
 6237      435F4649 
 6237      4C544552 
 6238              	.LASF97:
 6239 03e3 72785F72 		.ascii	"rx_report\000"
 6239      65706F72 
 6239      7400
 6240              	.LASF42:
 6241 03ed 50425546 		.ascii	"PBUF_TRANSPORT\000"
 6241      5F545241 
 6241      4E53504F 
 6241      525400
 6242              	.LASF130:
 6243 03fc 68776164 		.ascii	"hwaddr_len\000"
 6243      64725F6C 
 6243      656E00
 6244              	.LASF143:
 6245 0407 6970345F 		.ascii	"ip4_addr_packed\000"
 6245      61646472 
 6245      5F706163 
 6245      6B656400 
 6246              	.LASF102:
 6247 0417 73746174 		.ascii	"stats_sys\000"
 6247      735F7379 
 6247      7300
 6248              	.LASF116:
 6249 0421 6E657469 		.ascii	"netif_mac_filter_action\000"
ARM GAS  C:\Users\Phuong\AppData\Local\Temp\ccKPluhm.s 			page 132


 6249      665F6D61 
 6249      635F6669 
 6249      6C746572 
 6249      5F616374 
 6250              	.LASF140:
 6251 0439 6C617374 		.ascii	"last_reporter_flag\000"
 6251      5F726570 
 6251      6F727465 
 6251      725F666C 
 6251      616700
 6252              	.LASF193:
 6253 044c 69705F61 		.ascii	"ip_addr_any\000"
 6253      6464725F 
 6253      616E7900 
 6254              	.LASF200:
 6255 0458 696E6574 		.ascii	"inet_chksum\000"
 6255      5F63686B 
 6255      73756D00 
 6256              	.LASF188:
 6257 0464 69676D70 		.ascii	"igmp_leavegroup_netif\000"
 6257      5F6C6561 
 6257      76656772 
 6257      6F75705F 
 6257      6E657469 
 6258              	.LASF123:
 6259 047a 6F757470 		.ascii	"output\000"
 6259      757400
 6260              	.LASF104:
 6261 0481 6D626F78 		.ascii	"mbox\000"
 6261      00
 6262              	.LASF23:
 6263 0486 69705F61 		.ascii	"ip_addr_t\000"
 6263      6464725F 
 6263      7400
 6264              	.LASF167:
 6265 0490 746D705F 		.ascii	"tmp_group\000"
 6265      67726F75 
 6265      7000
 6266              	.LASF24:
 6267 049a 6572725F 		.ascii	"err_t\000"
 6267      7400
 6268              	.LASF12:
 6269 04a0 73697A65 		.ascii	"sizetype\000"
 6269      74797065 
 6269      00
 6270              	.LASF135:
 6271 04a9 6E657469 		.ascii	"netif_linkoutput_fn\000"
 6271      665F6C69 
 6271      6E6B6F75 
 6271      74707574 
 6271      5F666E00 
 6272              	.LASF119:
 6273 04bd 6E657469 		.ascii	"netif\000"
 6273      6600
 6274              	.LASF150:
 6275 04c3 5F74746C 		.ascii	"_ttl\000"
 6275      00
ARM GAS  C:\Users\Phuong\AppData\Local\Temp\ccKPluhm.s 			page 133


 6276              	.LASF206:
 6277 04c8 433A5C55 		.ascii	"C:\\Users\\Phuong\\Documents\\PSoC Creator\\Dec0820"
 6277      73657273 
 6277      5C506875 
 6277      6F6E675C 
 6277      446F6375 
 6278 04f6 31385C69 		.ascii	"18\\iot-sdk-iot-dev\\PSOC6_FreeRTOS+LwIP+MbedTLS_Az"
 6278      6F742D73 
 6278      646B2D69 
 6278      6F742D64 
 6278      65765C50 
 6279 0527 7572652D 		.ascii	"ure-IOT-Hub-Demo\\PSOC6_FreeRTOS+LwIP+MbedTLS_Azure"
 6279      494F542D 
 6279      4875622D 
 6279      44656D6F 
 6279      5C50534F 
 6280 0559 2D494F54 		.ascii	"-IOT-Hub-Demo.cydsn\000"
 6280      2D487562 
 6280      2D44656D 
 6280      6F2E6379 
 6280      64736E00 
 6281              	.LASF132:
 6282 056d 69676D70 		.ascii	"igmp_mac_filter\000"
 6282      5F6D6163 
 6282      5F66696C 
 6282      74657200 
 6283              	.LASF55:
 6284 057d 7061796C 		.ascii	"payload\000"
 6284      6F616400 
 6285              	.LASF189:
 6286 0585 69676D70 		.ascii	"igmp_leavegroup\000"
 6286      5F6C6561 
 6286      76656772 
 6286      6F757000 
 6287              	.LASF183:
 6288 0595 67726F75 		.ascii	"groupref\000"
 6288      70726566 
 6288      00
 6289              	.LASF120:
 6290 059e 69705F61 		.ascii	"ip_addr\000"
 6290      64647200 
 6291              	.LASF48:
 6292 05a6 50425546 		.ascii	"PBUF_ROM\000"
 6292      5F524F4D 
 6292      00
 6293              	.LASF101:
 6294 05af 73746174 		.ascii	"stats_syselem\000"
 6294      735F7379 
 6294      73656C65 
 6294      6D00
 6295              	.LASF195:
 6296 05bd 6E657469 		.ascii	"netif_list\000"
 6296      665F6C69 
 6296      737400
 6297              	.LASF80:
 6298 05c8 75736564 		.ascii	"used\000"
 6298      00
ARM GAS  C:\Users\Phuong\AppData\Local\Temp\ccKPluhm.s 			page 134


 6299              	.LASF105:
 6300 05cd 73746174 		.ascii	"stats_\000"
 6300      735F00
 6301              	.LASF109:
 6302 05d4 69636D70 		.ascii	"icmp\000"
 6302      00
 6303              	.LASF133:
 6304 05d9 6E657469 		.ascii	"netif_input_fn\000"
 6304      665F696E 
 6304      7075745F 
 6304      666E00
 6305              	.LASF44:
 6306 05e8 50425546 		.ascii	"PBUF_LINK\000"
 6306      5F4C494E 
 6306      4B00
 6307              	.LASF30:
 6308 05f2 4552525F 		.ascii	"ERR_INPROGRESS\000"
 6308      494E5052 
 6308      4F475245 
 6308      535300
 6309              	.LASF20:
 6310 0601 7331365F 		.ascii	"s16_t\000"
 6310      7400
 6311              	.LASF89:
 6312 0607 72746572 		.ascii	"rterr\000"
 6312      7200
 6313              	.LASF187:
 6314 060d 69666164 		.ascii	"ifaddr\000"
 6314      647200
 6315              	.LASF153:
 6316 0614 64657374 		.ascii	"dest\000"
 6316      00
 6317              	.LASF185:
 6318 0619 69676D70 		.ascii	"igmp_joingroup_netif\000"
 6318      5F6A6F69 
 6318      6E67726F 
 6318      75705F6E 
 6318      65746966 
 6319              	.LASF31:
 6320 062e 4552525F 		.ascii	"ERR_VAL\000"
 6320      56414C00 
 6321              	.LASF103:
 6322 0636 6D757465 		.ascii	"mutex\000"
 6322      7800
 6323              	.LASF178:
 6324 063c 69676D70 		.ascii	"igmp_lookup_group\000"
 6324      5F6C6F6F 
 6324      6B75705F 
 6324      67726F75 
 6324      7000
 6325              	.LASF94:
 6326 064e 72785F76 		.ascii	"rx_v1\000"
 6326      3100
 6327              	.LASF41:
 6328 0654 4552525F 		.ascii	"ERR_ARG\000"
 6328      41524700 
 6329              	.LASF36:
ARM GAS  C:\Users\Phuong\AppData\Local\Temp\ccKPluhm.s 			page 135


 6330 065c 4552525F 		.ascii	"ERR_CONN\000"
 6330      434F4E4E 
 6330      00
 6331              	.LASF138:
 6332 0665 69676D70 		.ascii	"igmp_group\000"
 6332      5F67726F 
 6332      757000
 6333              	.LASF113:
 6334 0670 4C574950 		.ascii	"LWIP_NETIF_CLIENT_DATA_INDEX_IGMP\000"
 6334      5F4E4554 
 6334      49465F43 
 6334      4C49454E 
 6334      545F4441 
 6335              	.LASF2:
 6336 0692 73686F72 		.ascii	"short int\000"
 6336      7420696E 
 6336      7400
 6337              	.LASF134:
 6338 069c 6E657469 		.ascii	"netif_output_fn\000"
 6338      665F6F75 
 6338      74707574 
 6338      5F666E00 
 6339              	.LASF85:
 6340 06ac 64726F70 		.ascii	"drop\000"
 6340      00
 6341              	.LASF194:
 6342 06b1 6C776970 		.ascii	"lwip_stats\000"
 6342      5F737461 
 6342      747300
 6343              	.LASF125:
 6344 06bc 73746174 		.ascii	"status_callback\000"
 6344      75735F63 
 6344      616C6C62 
 6344      61636B00 
 6345              	.LASF99:
 6346 06cc 74785F6C 		.ascii	"tx_leave\000"
 6346      65617665 
 6346      00
 6347              	.LASF47:
 6348 06d5 50425546 		.ascii	"PBUF_RAM\000"
 6348      5F52414D 
 6348      00
 6349              	.LASF165:
 6350 06de 69676D70 		.ascii	"igmp_group_address\000"
 6350      5F67726F 
 6350      75705F61 
 6350      64647265 
 6350      737300
 6351              	.LASF122:
 6352 06f1 696E7075 		.ascii	"input\000"
 6352      7400
 6353              	.LASF112:
 6354 06f7 4C574950 		.ascii	"LWIP_NETIF_CLIENT_DATA_INDEX_DHCP\000"
 6354      5F4E4554 
 6354      49465F43 
 6354      4C49454E 
 6354      545F4441 
ARM GAS  C:\Users\Phuong\AppData\Local\Temp\ccKPluhm.s 			page 136


 6355              	.LASF158:
 6356 0719 63757272 		.ascii	"current_ip_header_tot_len\000"
 6356      656E745F 
 6356      69705F68 
 6356      65616465 
 6356      725F746F 
 6357              	.LASF18:
 6358 0733 73385F74 		.ascii	"s8_t\000"
 6358      00
 6359              	.LASF46:
 6360 0738 50425546 		.ascii	"PBUF_RAW\000"
 6360      5F524157 
 6360      00
 6361              	.LASF118:
 6362 0741 4E455449 		.ascii	"NETIF_ADD_MAC_FILTER\000"
 6362      465F4144 
 6362      445F4D41 
 6362      435F4649 
 6362      4C544552 
 6363              	.LASF39:
 6364 0756 4552525F 		.ascii	"ERR_RST\000"
 6364      52535400 
 6365              	.LASF14:
 6366 075e 75696E74 		.ascii	"uint32_t\000"
 6366      33325F74 
 6366      00
 6367              	.LASF184:
 6368 0767 67726F75 		.ascii	"groupaddr\000"
 6368      70616464 
 6368      7200
 6369              	.LASF38:
 6370 0771 4552525F 		.ascii	"ERR_ABRT\000"
 6370      41425254 
 6370      00
 6371              	.LASF204:
 6372 077a 474E5520 		.ascii	"GNU C11 5.4.1 20160609 (release) [ARM/embedded-5-br"
 6372      43313120 
 6372      352E342E 
 6372      31203230 
 6372      31363036 
 6373 07ad 616E6368 		.ascii	"anch revision 237715] -mcpu=cortex-m0plus -mthumb -"
 6373      20726576 
 6373      6973696F 
 6373      6E203233 
 6373      37373135 
 6374 07e0 67202D4F 		.ascii	"g -Og -ffunction-sections -ffat-lto-objects\000"
 6374      67202D66 
 6374      66756E63 
 6374      74696F6E 
 6374      2D736563 
 6375              	.LASF11:
 6376 080c 6C6F6E67 		.ascii	"long double\000"
 6376      20646F75 
 6376      626C6500 
 6377              	.LASF13:
 6378 0818 63686172 		.ascii	"char\000"
 6378      00
ARM GAS  C:\Users\Phuong\AppData\Local\Temp\ccKPluhm.s 			page 137


 6379              	.LASF172:
 6380 081d 69676D70 		.ascii	"igmp_remove_group\000"
 6380      5F72656D 
 6380      6F76655F 
 6380      67726F75 
 6380      7000
 6381              	.LASF192:
 6382 082f 616C6C72 		.ascii	"allrouters\000"
 6382      6F757465 
 6382      727300
 6383              	.LASF8:
 6384 083a 756E7369 		.ascii	"unsigned int\000"
 6384      676E6564 
 6384      20696E74 
 6384      00
 6385              	.LASF170:
 6386 0847 69676D70 		.ascii	"igmp_delaying_member\000"
 6386      5F64656C 
 6386      6179696E 
 6386      675F6D65 
 6386      6D626572 
 6387              	.LASF66:
 6388 085c 4D454D50 		.ascii	"MEMP_NETBUF\000"
 6388      5F4E4554 
 6388      42554600 
 6389              	.LASF141:
 6390 0868 67726F75 		.ascii	"group_state\000"
 6390      705F7374 
 6390      61746500 
 6391              	.LASF26:
 6392 0874 4552525F 		.ascii	"ERR_MEM\000"
 6392      4D454D00 
 6393              	.LASF67:
 6394 087c 4D454D50 		.ascii	"MEMP_NETCONN\000"
 6394      5F4E4554 
 6394      434F4E4E 
 6394      00
 6395              	.LASF95:
 6396 0889 72785F67 		.ascii	"rx_group\000"
 6396      726F7570 
 6396      00
 6397              	.LASF75:
 6398 0892 4D454D50 		.ascii	"MEMP_PBUF_POOL\000"
 6398      5F504255 
 6398      465F504F 
 6398      4F4C00
 6399              	.LASF186:
 6400 08a1 69676D70 		.ascii	"igmp_joingroup\000"
 6400      5F6A6F69 
 6400      6E67726F 
 6400      757000
 6401              	.LASF91:
 6402 08b0 6F707465 		.ascii	"opterr\000"
 6402      727200
 6403              	.LASF169:
 6404 08b7 69676D70 		.ascii	"igmp_start_timer\000"
 6404      5F737461 
ARM GAS  C:\Users\Phuong\AppData\Local\Temp\ccKPluhm.s 			page 138


 6404      72745F74 
 6404      696D6572 
 6404      00
 6405              	.LASF181:
 6406 08c8 69676D70 		.ascii	"igmp_report_groups\000"
 6406      5F726570 
 6406      6F72745F 
 6406      67726F75 
 6406      707300
 6407              	.LASF157:
 6408 08db 63757272 		.ascii	"current_ip4_header\000"
 6408      656E745F 
 6408      6970345F 
 6408      68656164 
 6408      657200
 6409              	.LASF69:
 6410 08ee 4D454D50 		.ascii	"MEMP_TCPIP_MSG_INPKT\000"
 6410      5F544350 
 6410      49505F4D 
 6410      53475F49 
 6410      4E504B54 
 6411              	.LASF127:
 6412 0903 636C6965 		.ascii	"client_data\000"
 6412      6E745F64 
 6412      61746100 
 6413              	.LASF1:
 6414 090f 756E7369 		.ascii	"unsigned char\000"
 6414      676E6564 
 6414      20636861 
 6414      7200
 6415              	.LASF107:
 6416 091d 65746861 		.ascii	"etharp\000"
 6416      727000
 6417              	.LASF40:
 6418 0924 4552525F 		.ascii	"ERR_CLSD\000"
 6418      434C5344 
 6418      00
 6419              	.LASF29:
 6420 092d 4552525F 		.ascii	"ERR_RTE\000"
 6420      52544500 
 6421              	.LASF176:
 6422 0935 69676D70 		.ascii	"igmp_stop\000"
 6422      5F73746F 
 6422      7000
 6423              	.LASF22:
 6424 093f 6970345F 		.ascii	"ip4_addr_t\000"
 6424      61646472 
 6424      5F7400
 6425              	.LASF19:
 6426 094a 7531365F 		.ascii	"u16_t\000"
 6426      7400
 6427              	.LASF27:
 6428 0950 4552525F 		.ascii	"ERR_BUF\000"
 6428      42554600 
 6429              	.LASF59:
 6430 0958 6D656D5F 		.ascii	"mem_size_t\000"
 6430      73697A65 
ARM GAS  C:\Users\Phuong\AppData\Local\Temp\ccKPluhm.s 			page 139


 6430      5F7400
 6431              	.LASF163:
 6432 0963 69676D70 		.ascii	"igmp_maxresp\000"
 6432      5F6D6178 
 6432      72657370 
 6432      00
 6433              	.LASF35:
 6434 0970 4552525F 		.ascii	"ERR_ISCONN\000"
 6434      4953434F 
 6434      4E4E00
 6435              	.LASF147:
 6436 097b 5F746F73 		.ascii	"_tos\000"
 6436      00
 6437              	.LASF146:
 6438 0980 5F765F68 		.ascii	"_v_hl\000"
 6438      6C00
 6439              	.LASF77:
 6440 0986 73746174 		.ascii	"stats_mem\000"
 6440      735F6D65 
 6440      6D00
 6441              	.LASF171:
 6442 0990 6D617872 		.ascii	"maxresp\000"
 6442      65737000 
 6443              	.LASF58:
 6444 0998 666C6167 		.ascii	"flags\000"
 6444      7300
 6445              	.LASF96:
 6446 099e 72785F67 		.ascii	"rx_general\000"
 6446      656E6572 
 6446      616C00
 6447              	.LASF110:
 6448 09a9 69676D70 		.ascii	"igmp\000"
 6448      00
 6449              	.LASF142:
 6450 09ae 74696D65 		.ascii	"timer\000"
 6450      7200
 6451              	.LASF15:
 6452 09b4 666C6F61 		.ascii	"float\000"
 6452      7400
 6453              	.LASF79:
 6454 09ba 61766169 		.ascii	"avail\000"
 6454      6C00
 6455              	.LASF154:
 6456 09c0 69705F67 		.ascii	"ip_globals\000"
 6456      6C6F6261 
 6456      6C7300
 6457              	.LASF32:
 6458 09cb 4552525F 		.ascii	"ERR_WOULDBLOCK\000"
 6458      574F554C 
 6458      44424C4F 
 6458      434B00
 6459              	.LASF45:
 6460 09da 50425546 		.ascii	"PBUF_RAW_TX\000"
 6460      5F524157 
 6460      5F545800 
 6461              	.LASF162:
 6462 09e6 69676D70 		.ascii	"igmp_msgtype\000"
ARM GAS  C:\Users\Phuong\AppData\Local\Temp\ccKPluhm.s 			page 140


 6462      5F6D7367 
 6462      74797065 
 6462      00
 6463              	.LASF205:
 6464 09f3 536F7572 		.ascii	"Source\\LwIP\\src\\core\\ipv4\\igmp.c\000"
 6464      63655C4C 
 6464      7749505C 
 6464      7372635C 
 6464      636F7265 
 6465              	.LASF173:
 6466 0a14 69676D70 		.ascii	"igmp_ip_output_if\000"
 6466      5F69705F 
 6466      6F757470 
 6466      75745F69 
 6466      6600
 6467              	.LASF100:
 6468 0a26 74785F72 		.ascii	"tx_report\000"
 6468      65706F72 
 6468      7400
 6469              	.LASF124:
 6470 0a30 6C696E6B 		.ascii	"linkoutput\000"
 6470      6F757470 
 6470      757400
 6471              	.LASF82:
 6472 0a3b 73746174 		.ascii	"stats_proto\000"
 6472      735F7072 
 6472      6F746F00 
 6473              	.LASF179:
 6474 0a47 6C697374 		.ascii	"list_head\000"
 6474      5F686561 
 6474      6400
 6475              	.LASF175:
 6476 0a51 69676D70 		.ascii	"igmp_timeout\000"
 6476      5F74696D 
 6476      656F7574 
 6476      00
 6477              	.LASF43:
 6478 0a5e 50425546 		.ascii	"PBUF_IP\000"
 6478      5F495000 
 6479              	.LASF199:
 6480 0a66 70627566 		.ascii	"pbuf_alloc\000"
 6480      5F616C6C 
 6480      6F6300
 6481              	.LASF83:
 6482 0a71 786D6974 		.ascii	"xmit\000"
 6482      00
 6483              	.LASF203:
 6484 0a76 6D656D70 		.ascii	"memp_malloc_fn\000"
 6484      5F6D616C 
 6484      6C6F635F 
 6484      666E00
 6485              	.LASF148:
 6486 0a85 5F6C656E 		.ascii	"_len\000"
 6486      00
 6487              		.ident	"GCC: (GNU Tools for ARM Embedded Processors) 5.4.1 20160609 (release) [ARM/embedded-5-bran
