ARM GAS  C:\Users\Phuong\AppData\Local\Temp\ccKPluhm.s 			page 1


   1              		.syntax unified
   2              		.cpu cortex-m0plus
   3              		.fpu softvfp
   4              		.eabi_attribute 20, 1
   5              		.eabi_attribute 21, 1
   6              		.eabi_attribute 23, 3
   7              		.eabi_attribute 24, 1
   8              		.eabi_attribute 25, 1
   9              		.eabi_attribute 26, 1
  10              		.eabi_attribute 30, 1
  11              		.eabi_attribute 34, 0
  12              		.eabi_attribute 18, 4
  13              		.thumb
  14              		.syntax unified
  15              		.file	"igmp.c"
  16              		.text
  17              	.Ltext0:
  18              		.cfi_sections	.debug_frame
  19              		.section	.text.igmp_remove_group,"ax",%progbits
  20              		.align	2
  21              		.code	16
  22              		.thumb_func
  23              		.type	igmp_remove_group, %function
  24              	igmp_remove_group:
  25              	.LFB59:
  26              		.file 1 "Source\\LwIP\\src\\core\\ipv4\\igmp.c"
   1:Source\LwIP\src\core\ipv4/igmp.c **** /**
   2:Source\LwIP\src\core\ipv4/igmp.c ****  * @file
   3:Source\LwIP\src\core\ipv4/igmp.c ****  * IGMP - Internet Group Management Protocol
   4:Source\LwIP\src\core\ipv4/igmp.c ****  *
   5:Source\LwIP\src\core\ipv4/igmp.c ****  * @defgroup igmp IGMP
   6:Source\LwIP\src\core\ipv4/igmp.c ****  * @ingroup ip4
   7:Source\LwIP\src\core\ipv4/igmp.c ****  * To be called from TCPIP thread
   8:Source\LwIP\src\core\ipv4/igmp.c ****  */
   9:Source\LwIP\src\core\ipv4/igmp.c **** 
  10:Source\LwIP\src\core\ipv4/igmp.c **** /*
  11:Source\LwIP\src\core\ipv4/igmp.c ****  * Copyright (c) 2002 CITEL Technologies Ltd.
  12:Source\LwIP\src\core\ipv4/igmp.c ****  * All rights reserved.
  13:Source\LwIP\src\core\ipv4/igmp.c ****  *
  14:Source\LwIP\src\core\ipv4/igmp.c ****  * Redistribution and use in source and binary forms, with or without
  15:Source\LwIP\src\core\ipv4/igmp.c ****  * modification, are permitted provided that the following conditions
  16:Source\LwIP\src\core\ipv4/igmp.c ****  * are met:
  17:Source\LwIP\src\core\ipv4/igmp.c ****  * 1. Redistributions of source code must retain the above copyright
  18:Source\LwIP\src\core\ipv4/igmp.c ****  *    notice, this list of conditions and the following disclaimer.
  19:Source\LwIP\src\core\ipv4/igmp.c ****  * 2. Redistributions in binary form must reproduce the above copyright
  20:Source\LwIP\src\core\ipv4/igmp.c ****  *    notice, this list of conditions and the following disclaimer in the
  21:Source\LwIP\src\core\ipv4/igmp.c ****  *    documentation and/or other materials provided with the distribution.
  22:Source\LwIP\src\core\ipv4/igmp.c ****  * 3. Neither the name of CITEL Technologies Ltd nor the names of its contributors
  23:Source\LwIP\src\core\ipv4/igmp.c ****  *    may be used to endorse or promote products derived from this software
  24:Source\LwIP\src\core\ipv4/igmp.c ****  *    without specific prior written permission.
  25:Source\LwIP\src\core\ipv4/igmp.c ****  *
  26:Source\LwIP\src\core\ipv4/igmp.c ****  * THIS SOFTWARE IS PROVIDED BY CITEL TECHNOLOGIES AND CONTRIBUTORS ``AS IS''
  27:Source\LwIP\src\core\ipv4/igmp.c ****  * AND ANY EXPRESS OR IMPLIED WARRANTIES, INCLUDING, BUT NOT LIMITED TO, THE
  28:Source\LwIP\src\core\ipv4/igmp.c ****  * IMPLIED WARRANTIES OF MERCHANTABILITY AND FITNESS FOR A PARTICULAR PURPOSE
  29:Source\LwIP\src\core\ipv4/igmp.c ****  * ARE DISCLAIMED.  IN NO EVENT SHALL CITEL TECHNOLOGIES OR CONTRIBUTORS BE LIABLE
  30:Source\LwIP\src\core\ipv4/igmp.c ****  * FOR ANY DIRECT, INDIRECT, INCIDENTAL, SPECIAL, EXEMPLARY, OR CONSEQUENTIAL
  31:Source\LwIP\src\core\ipv4/igmp.c ****  * DAMAGES (INCLUDING, BUT NOT LIMITED TO, PROCUREMENT OF SUBSTITUTE GOODS
ARM GAS  C:\Users\Phuong\AppData\Local\Temp\ccKPluhm.s 			page 2


  32:Source\LwIP\src\core\ipv4/igmp.c ****  * OR SERVICES; LOSS OF USE, DATA, OR PROFITS; OR BUSINESS INTERRUPTION)
  33:Source\LwIP\src\core\ipv4/igmp.c ****  * HOWEVER CAUSED AND ON ANY THEORY OF LIABILITY, WHETHER IN CONTRACT, STRICT
  34:Source\LwIP\src\core\ipv4/igmp.c ****  * LIABILITY, OR TORT (INCLUDING NEGLIGENCE OR OTHERWISE) ARISING IN ANY WAY
  35:Source\LwIP\src\core\ipv4/igmp.c ****  * OUT OF THE USE OF THIS SOFTWARE, EVEN IF ADVISED OF THE POSSIBILITY OF
  36:Source\LwIP\src\core\ipv4/igmp.c ****  * SUCH DAMAGE.
  37:Source\LwIP\src\core\ipv4/igmp.c ****  *
  38:Source\LwIP\src\core\ipv4/igmp.c ****  * This file is a contribution to the lwIP TCP/IP stack.
  39:Source\LwIP\src\core\ipv4/igmp.c ****  * The Swedish Institute of Computer Science and Adam Dunkels
  40:Source\LwIP\src\core\ipv4/igmp.c ****  * are specifically granted permission to redistribute this
  41:Source\LwIP\src\core\ipv4/igmp.c ****  * source code.
  42:Source\LwIP\src\core\ipv4/igmp.c **** */
  43:Source\LwIP\src\core\ipv4/igmp.c **** 
  44:Source\LwIP\src\core\ipv4/igmp.c **** /*-------------------------------------------------------------
  45:Source\LwIP\src\core\ipv4/igmp.c **** Note 1)
  46:Source\LwIP\src\core\ipv4/igmp.c **** Although the rfc requires V1 AND V2 capability
  47:Source\LwIP\src\core\ipv4/igmp.c **** we will only support v2 since now V1 is very old (August 1989)
  48:Source\LwIP\src\core\ipv4/igmp.c **** V1 can be added if required
  49:Source\LwIP\src\core\ipv4/igmp.c **** 
  50:Source\LwIP\src\core\ipv4/igmp.c **** a debug print and statistic have been implemented to
  51:Source\LwIP\src\core\ipv4/igmp.c **** show this up.
  52:Source\LwIP\src\core\ipv4/igmp.c **** -------------------------------------------------------------
  53:Source\LwIP\src\core\ipv4/igmp.c **** -------------------------------------------------------------
  54:Source\LwIP\src\core\ipv4/igmp.c **** Note 2)
  55:Source\LwIP\src\core\ipv4/igmp.c **** A query for a specific group address (as opposed to ALLHOSTS)
  56:Source\LwIP\src\core\ipv4/igmp.c **** has now been implemented as I am unsure if it is required
  57:Source\LwIP\src\core\ipv4/igmp.c **** 
  58:Source\LwIP\src\core\ipv4/igmp.c **** a debug print and statistic have been implemented to
  59:Source\LwIP\src\core\ipv4/igmp.c **** show this up.
  60:Source\LwIP\src\core\ipv4/igmp.c **** -------------------------------------------------------------
  61:Source\LwIP\src\core\ipv4/igmp.c **** -------------------------------------------------------------
  62:Source\LwIP\src\core\ipv4/igmp.c **** Note 3)
  63:Source\LwIP\src\core\ipv4/igmp.c **** The router alert rfc 2113 is implemented in outgoing packets
  64:Source\LwIP\src\core\ipv4/igmp.c **** but not checked rigorously incoming
  65:Source\LwIP\src\core\ipv4/igmp.c **** -------------------------------------------------------------
  66:Source\LwIP\src\core\ipv4/igmp.c **** Steve Reynolds
  67:Source\LwIP\src\core\ipv4/igmp.c **** ------------------------------------------------------------*/
  68:Source\LwIP\src\core\ipv4/igmp.c **** 
  69:Source\LwIP\src\core\ipv4/igmp.c **** /*-----------------------------------------------------------------------------
  70:Source\LwIP\src\core\ipv4/igmp.c ****  * RFC 988  - Host extensions for IP multicasting                         - V0
  71:Source\LwIP\src\core\ipv4/igmp.c ****  * RFC 1054 - Host extensions for IP multicasting                         -
  72:Source\LwIP\src\core\ipv4/igmp.c ****  * RFC 1112 - Host extensions for IP multicasting                         - V1
  73:Source\LwIP\src\core\ipv4/igmp.c ****  * RFC 2236 - Internet Group Management Protocol, Version 2               - V2  <- this code is bas
  74:Source\LwIP\src\core\ipv4/igmp.c ****  * RFC 3376 - Internet Group Management Protocol, Version 3               - V3
  75:Source\LwIP\src\core\ipv4/igmp.c ****  * RFC 4604 - Using Internet Group Management Protocol Version 3...       - V3+
  76:Source\LwIP\src\core\ipv4/igmp.c ****  * RFC 2113 - IP Router Alert Option                                      -
  77:Source\LwIP\src\core\ipv4/igmp.c ****  *----------------------------------------------------------------------------*/
  78:Source\LwIP\src\core\ipv4/igmp.c **** 
  79:Source\LwIP\src\core\ipv4/igmp.c **** /*-----------------------------------------------------------------------------
  80:Source\LwIP\src\core\ipv4/igmp.c ****  * Includes
  81:Source\LwIP\src\core\ipv4/igmp.c ****  *----------------------------------------------------------------------------*/
  82:Source\LwIP\src\core\ipv4/igmp.c **** 
  83:Source\LwIP\src\core\ipv4/igmp.c **** #include "lwip/opt.h"
  84:Source\LwIP\src\core\ipv4/igmp.c **** 
  85:Source\LwIP\src\core\ipv4/igmp.c **** #if LWIP_IPV4 && LWIP_IGMP /* don't build if not configured for use in lwipopts.h */
  86:Source\LwIP\src\core\ipv4/igmp.c **** 
  87:Source\LwIP\src\core\ipv4/igmp.c **** #include "lwip/igmp.h"
  88:Source\LwIP\src\core\ipv4/igmp.c **** #include "lwip/debug.h"
ARM GAS  C:\Users\Phuong\AppData\Local\Temp\ccKPluhm.s 			page 3


  89:Source\LwIP\src\core\ipv4/igmp.c **** #include "lwip/def.h"
  90:Source\LwIP\src\core\ipv4/igmp.c **** #include "lwip/mem.h"
  91:Source\LwIP\src\core\ipv4/igmp.c **** #include "lwip/ip.h"
  92:Source\LwIP\src\core\ipv4/igmp.c **** #include "lwip/inet_chksum.h"
  93:Source\LwIP\src\core\ipv4/igmp.c **** #include "lwip/netif.h"
  94:Source\LwIP\src\core\ipv4/igmp.c **** #include "lwip/stats.h"
  95:Source\LwIP\src\core\ipv4/igmp.c **** #include "lwip/prot/igmp.h"
  96:Source\LwIP\src\core\ipv4/igmp.c **** 
  97:Source\LwIP\src\core\ipv4/igmp.c **** #include "string.h"
  98:Source\LwIP\src\core\ipv4/igmp.c **** 
  99:Source\LwIP\src\core\ipv4/igmp.c **** static struct igmp_group *igmp_lookup_group(struct netif *ifp, const ip4_addr_t *addr);
 100:Source\LwIP\src\core\ipv4/igmp.c **** static err_t  igmp_remove_group(struct netif* netif, struct igmp_group *group);
 101:Source\LwIP\src\core\ipv4/igmp.c **** static void   igmp_timeout(struct netif *netif, struct igmp_group *group);
 102:Source\LwIP\src\core\ipv4/igmp.c **** static void   igmp_start_timer(struct igmp_group *group, u8_t max_time);
 103:Source\LwIP\src\core\ipv4/igmp.c **** static void   igmp_delaying_member(struct igmp_group *group, u8_t maxresp);
 104:Source\LwIP\src\core\ipv4/igmp.c **** static err_t  igmp_ip_output_if(struct pbuf *p, const ip4_addr_t *src, const ip4_addr_t *dest, stru
 105:Source\LwIP\src\core\ipv4/igmp.c **** static void   igmp_send(struct netif *netif, struct igmp_group *group, u8_t type);
 106:Source\LwIP\src\core\ipv4/igmp.c **** 
 107:Source\LwIP\src\core\ipv4/igmp.c **** static ip4_addr_t     allsystems;
 108:Source\LwIP\src\core\ipv4/igmp.c **** static ip4_addr_t     allrouters;
 109:Source\LwIP\src\core\ipv4/igmp.c **** 
 110:Source\LwIP\src\core\ipv4/igmp.c **** /**
 111:Source\LwIP\src\core\ipv4/igmp.c ****  * Initialize the IGMP module
 112:Source\LwIP\src\core\ipv4/igmp.c ****  */
 113:Source\LwIP\src\core\ipv4/igmp.c **** void
 114:Source\LwIP\src\core\ipv4/igmp.c **** igmp_init(void)
 115:Source\LwIP\src\core\ipv4/igmp.c **** {
 116:Source\LwIP\src\core\ipv4/igmp.c ****   LWIP_DEBUGF(IGMP_DEBUG, ("igmp_init: initializing\n"));
 117:Source\LwIP\src\core\ipv4/igmp.c **** 
 118:Source\LwIP\src\core\ipv4/igmp.c ****   IP4_ADDR(&allsystems, 224, 0, 0, 1);
 119:Source\LwIP\src\core\ipv4/igmp.c ****   IP4_ADDR(&allrouters, 224, 0, 0, 2);
 120:Source\LwIP\src\core\ipv4/igmp.c **** }
 121:Source\LwIP\src\core\ipv4/igmp.c **** 
 122:Source\LwIP\src\core\ipv4/igmp.c **** /**
 123:Source\LwIP\src\core\ipv4/igmp.c ****  * Start IGMP processing on interface
 124:Source\LwIP\src\core\ipv4/igmp.c ****  *
 125:Source\LwIP\src\core\ipv4/igmp.c ****  * @param netif network interface on which start IGMP processing
 126:Source\LwIP\src\core\ipv4/igmp.c ****  */
 127:Source\LwIP\src\core\ipv4/igmp.c **** err_t
 128:Source\LwIP\src\core\ipv4/igmp.c **** igmp_start(struct netif *netif)
 129:Source\LwIP\src\core\ipv4/igmp.c **** {
 130:Source\LwIP\src\core\ipv4/igmp.c ****   struct igmp_group* group;
 131:Source\LwIP\src\core\ipv4/igmp.c **** 
 132:Source\LwIP\src\core\ipv4/igmp.c ****   LWIP_DEBUGF(IGMP_DEBUG, ("igmp_start: starting IGMP processing on if %p\n", (void*)netif));
 133:Source\LwIP\src\core\ipv4/igmp.c **** 
 134:Source\LwIP\src\core\ipv4/igmp.c ****   group = igmp_lookup_group(netif, &allsystems);
 135:Source\LwIP\src\core\ipv4/igmp.c **** 
 136:Source\LwIP\src\core\ipv4/igmp.c ****   if (group != NULL) {
 137:Source\LwIP\src\core\ipv4/igmp.c ****     group->group_state = IGMP_GROUP_IDLE_MEMBER;
 138:Source\LwIP\src\core\ipv4/igmp.c ****     group->use++;
 139:Source\LwIP\src\core\ipv4/igmp.c **** 
 140:Source\LwIP\src\core\ipv4/igmp.c ****     /* Allow the igmp messages at the MAC level */
 141:Source\LwIP\src\core\ipv4/igmp.c ****     if (netif->igmp_mac_filter != NULL) {
 142:Source\LwIP\src\core\ipv4/igmp.c ****       LWIP_DEBUGF(IGMP_DEBUG, ("igmp_start: igmp_mac_filter(ADD "));
 143:Source\LwIP\src\core\ipv4/igmp.c ****       ip4_addr_debug_print_val(IGMP_DEBUG, allsystems);
 144:Source\LwIP\src\core\ipv4/igmp.c ****       LWIP_DEBUGF(IGMP_DEBUG, (") on if %p\n", (void*)netif));
 145:Source\LwIP\src\core\ipv4/igmp.c ****       netif->igmp_mac_filter(netif, &allsystems, NETIF_ADD_MAC_FILTER);
ARM GAS  C:\Users\Phuong\AppData\Local\Temp\ccKPluhm.s 			page 4


 146:Source\LwIP\src\core\ipv4/igmp.c ****     }
 147:Source\LwIP\src\core\ipv4/igmp.c **** 
 148:Source\LwIP\src\core\ipv4/igmp.c ****     return ERR_OK;
 149:Source\LwIP\src\core\ipv4/igmp.c ****   }
 150:Source\LwIP\src\core\ipv4/igmp.c **** 
 151:Source\LwIP\src\core\ipv4/igmp.c ****   return ERR_MEM;
 152:Source\LwIP\src\core\ipv4/igmp.c **** }
 153:Source\LwIP\src\core\ipv4/igmp.c **** 
 154:Source\LwIP\src\core\ipv4/igmp.c **** /**
 155:Source\LwIP\src\core\ipv4/igmp.c ****  * Stop IGMP processing on interface
 156:Source\LwIP\src\core\ipv4/igmp.c ****  *
 157:Source\LwIP\src\core\ipv4/igmp.c ****  * @param netif network interface on which stop IGMP processing
 158:Source\LwIP\src\core\ipv4/igmp.c ****  */
 159:Source\LwIP\src\core\ipv4/igmp.c **** err_t
 160:Source\LwIP\src\core\ipv4/igmp.c **** igmp_stop(struct netif *netif)
 161:Source\LwIP\src\core\ipv4/igmp.c **** {
 162:Source\LwIP\src\core\ipv4/igmp.c ****   struct igmp_group *group = netif_igmp_data(netif);
 163:Source\LwIP\src\core\ipv4/igmp.c **** 
 164:Source\LwIP\src\core\ipv4/igmp.c ****   netif_set_client_data(netif, LWIP_NETIF_CLIENT_DATA_INDEX_IGMP, NULL);
 165:Source\LwIP\src\core\ipv4/igmp.c **** 
 166:Source\LwIP\src\core\ipv4/igmp.c ****   while (group != NULL) {
 167:Source\LwIP\src\core\ipv4/igmp.c ****     struct igmp_group *next = group->next; /* avoid use-after-free below */
 168:Source\LwIP\src\core\ipv4/igmp.c **** 
 169:Source\LwIP\src\core\ipv4/igmp.c ****     /* disable the group at the MAC level */
 170:Source\LwIP\src\core\ipv4/igmp.c ****     if (netif->igmp_mac_filter != NULL) {
 171:Source\LwIP\src\core\ipv4/igmp.c ****       LWIP_DEBUGF(IGMP_DEBUG, ("igmp_stop: igmp_mac_filter(DEL "));
 172:Source\LwIP\src\core\ipv4/igmp.c ****       ip4_addr_debug_print(IGMP_DEBUG, &group->group_address);
 173:Source\LwIP\src\core\ipv4/igmp.c ****       LWIP_DEBUGF(IGMP_DEBUG, (") on if %p\n", (void*)netif));
 174:Source\LwIP\src\core\ipv4/igmp.c ****       netif->igmp_mac_filter(netif, &(group->group_address), NETIF_DEL_MAC_FILTER);
 175:Source\LwIP\src\core\ipv4/igmp.c ****     }
 176:Source\LwIP\src\core\ipv4/igmp.c **** 
 177:Source\LwIP\src\core\ipv4/igmp.c ****     /* free group */
 178:Source\LwIP\src\core\ipv4/igmp.c ****     memp_free(MEMP_IGMP_GROUP, group);
 179:Source\LwIP\src\core\ipv4/igmp.c **** 
 180:Source\LwIP\src\core\ipv4/igmp.c ****     /* move to "next" */
 181:Source\LwIP\src\core\ipv4/igmp.c ****     group = next;
 182:Source\LwIP\src\core\ipv4/igmp.c ****   }
 183:Source\LwIP\src\core\ipv4/igmp.c ****   return ERR_OK;
 184:Source\LwIP\src\core\ipv4/igmp.c **** }
 185:Source\LwIP\src\core\ipv4/igmp.c **** 
 186:Source\LwIP\src\core\ipv4/igmp.c **** /**
 187:Source\LwIP\src\core\ipv4/igmp.c ****  * Report IGMP memberships for this interface
 188:Source\LwIP\src\core\ipv4/igmp.c ****  *
 189:Source\LwIP\src\core\ipv4/igmp.c ****  * @param netif network interface on which report IGMP memberships
 190:Source\LwIP\src\core\ipv4/igmp.c ****  */
 191:Source\LwIP\src\core\ipv4/igmp.c **** void
 192:Source\LwIP\src\core\ipv4/igmp.c **** igmp_report_groups(struct netif *netif)
 193:Source\LwIP\src\core\ipv4/igmp.c **** {
 194:Source\LwIP\src\core\ipv4/igmp.c ****   struct igmp_group *group = netif_igmp_data(netif);
 195:Source\LwIP\src\core\ipv4/igmp.c **** 
 196:Source\LwIP\src\core\ipv4/igmp.c ****   LWIP_DEBUGF(IGMP_DEBUG, ("igmp_report_groups: sending IGMP reports on if %p\n", (void*)netif));
 197:Source\LwIP\src\core\ipv4/igmp.c **** 
 198:Source\LwIP\src\core\ipv4/igmp.c ****   /* Skip the first group in the list, it is always the allsystems group added in igmp_start() */
 199:Source\LwIP\src\core\ipv4/igmp.c ****   if(group != NULL) {
 200:Source\LwIP\src\core\ipv4/igmp.c ****     group = group->next;
 201:Source\LwIP\src\core\ipv4/igmp.c ****   }
 202:Source\LwIP\src\core\ipv4/igmp.c ****   
ARM GAS  C:\Users\Phuong\AppData\Local\Temp\ccKPluhm.s 			page 5


 203:Source\LwIP\src\core\ipv4/igmp.c ****   while (group != NULL) {
 204:Source\LwIP\src\core\ipv4/igmp.c ****     igmp_delaying_member(group, IGMP_JOIN_DELAYING_MEMBER_TMR);
 205:Source\LwIP\src\core\ipv4/igmp.c ****     group = group->next;
 206:Source\LwIP\src\core\ipv4/igmp.c ****   }
 207:Source\LwIP\src\core\ipv4/igmp.c **** }
 208:Source\LwIP\src\core\ipv4/igmp.c **** 
 209:Source\LwIP\src\core\ipv4/igmp.c **** /**
 210:Source\LwIP\src\core\ipv4/igmp.c ****  * Search for a group in the global igmp_group_list
 211:Source\LwIP\src\core\ipv4/igmp.c ****  *
 212:Source\LwIP\src\core\ipv4/igmp.c ****  * @param ifp the network interface for which to look
 213:Source\LwIP\src\core\ipv4/igmp.c ****  * @param addr the group ip address to search for
 214:Source\LwIP\src\core\ipv4/igmp.c ****  * @return a struct igmp_group* if the group has been found,
 215:Source\LwIP\src\core\ipv4/igmp.c ****  *         NULL if the group wasn't found.
 216:Source\LwIP\src\core\ipv4/igmp.c ****  */
 217:Source\LwIP\src\core\ipv4/igmp.c **** struct igmp_group *
 218:Source\LwIP\src\core\ipv4/igmp.c **** igmp_lookfor_group(struct netif *ifp, const ip4_addr_t *addr)
 219:Source\LwIP\src\core\ipv4/igmp.c **** {
 220:Source\LwIP\src\core\ipv4/igmp.c ****   struct igmp_group *group = netif_igmp_data(ifp);
 221:Source\LwIP\src\core\ipv4/igmp.c **** 
 222:Source\LwIP\src\core\ipv4/igmp.c ****   while (group != NULL) {
 223:Source\LwIP\src\core\ipv4/igmp.c ****     if (ip4_addr_cmp(&(group->group_address), addr)) {
 224:Source\LwIP\src\core\ipv4/igmp.c ****       return group;
 225:Source\LwIP\src\core\ipv4/igmp.c ****     }
 226:Source\LwIP\src\core\ipv4/igmp.c ****     group = group->next;
 227:Source\LwIP\src\core\ipv4/igmp.c ****   }
 228:Source\LwIP\src\core\ipv4/igmp.c **** 
 229:Source\LwIP\src\core\ipv4/igmp.c ****   /* to be clearer, we return NULL here instead of
 230:Source\LwIP\src\core\ipv4/igmp.c ****    * 'group' (which is also NULL at this point).
 231:Source\LwIP\src\core\ipv4/igmp.c ****    */
 232:Source\LwIP\src\core\ipv4/igmp.c ****   return NULL;
 233:Source\LwIP\src\core\ipv4/igmp.c **** }
 234:Source\LwIP\src\core\ipv4/igmp.c **** 
 235:Source\LwIP\src\core\ipv4/igmp.c **** /**
 236:Source\LwIP\src\core\ipv4/igmp.c ****  * Search for a specific igmp group and create a new one if not found-
 237:Source\LwIP\src\core\ipv4/igmp.c ****  *
 238:Source\LwIP\src\core\ipv4/igmp.c ****  * @param ifp the network interface for which to look
 239:Source\LwIP\src\core\ipv4/igmp.c ****  * @param addr the group ip address to search
 240:Source\LwIP\src\core\ipv4/igmp.c ****  * @return a struct igmp_group*,
 241:Source\LwIP\src\core\ipv4/igmp.c ****  *         NULL on memory error.
 242:Source\LwIP\src\core\ipv4/igmp.c ****  */
 243:Source\LwIP\src\core\ipv4/igmp.c **** static struct igmp_group *
 244:Source\LwIP\src\core\ipv4/igmp.c **** igmp_lookup_group(struct netif *ifp, const ip4_addr_t *addr)
 245:Source\LwIP\src\core\ipv4/igmp.c **** {
 246:Source\LwIP\src\core\ipv4/igmp.c ****   struct igmp_group *group;
 247:Source\LwIP\src\core\ipv4/igmp.c ****   struct igmp_group *list_head = netif_igmp_data(ifp);
 248:Source\LwIP\src\core\ipv4/igmp.c **** 
 249:Source\LwIP\src\core\ipv4/igmp.c ****   /* Search if the group already exists */
 250:Source\LwIP\src\core\ipv4/igmp.c ****   group = igmp_lookfor_group(ifp, addr);
 251:Source\LwIP\src\core\ipv4/igmp.c ****   if (group != NULL) {
 252:Source\LwIP\src\core\ipv4/igmp.c ****     /* Group already exists. */
 253:Source\LwIP\src\core\ipv4/igmp.c ****     return group;
 254:Source\LwIP\src\core\ipv4/igmp.c ****   }
 255:Source\LwIP\src\core\ipv4/igmp.c ****   
 256:Source\LwIP\src\core\ipv4/igmp.c ****   /* Group doesn't exist yet, create a new one */
 257:Source\LwIP\src\core\ipv4/igmp.c ****   group = (struct igmp_group *)memp_malloc(MEMP_IGMP_GROUP);
 258:Source\LwIP\src\core\ipv4/igmp.c ****   if (group != NULL) {
 259:Source\LwIP\src\core\ipv4/igmp.c ****     ip4_addr_set(&(group->group_address), addr);
ARM GAS  C:\Users\Phuong\AppData\Local\Temp\ccKPluhm.s 			page 6


 260:Source\LwIP\src\core\ipv4/igmp.c ****     group->timer              = 0; /* Not running */
 261:Source\LwIP\src\core\ipv4/igmp.c ****     group->group_state        = IGMP_GROUP_NON_MEMBER;
 262:Source\LwIP\src\core\ipv4/igmp.c ****     group->last_reporter_flag = 0;
 263:Source\LwIP\src\core\ipv4/igmp.c ****     group->use                = 0;
 264:Source\LwIP\src\core\ipv4/igmp.c **** 
 265:Source\LwIP\src\core\ipv4/igmp.c ****     /* Ensure allsystems group is always first in list */    
 266:Source\LwIP\src\core\ipv4/igmp.c ****     if (list_head == NULL) {
 267:Source\LwIP\src\core\ipv4/igmp.c ****       /* this is the first entry in linked list */
 268:Source\LwIP\src\core\ipv4/igmp.c ****       LWIP_ASSERT("igmp_lookup_group: first group must be allsystems",
 269:Source\LwIP\src\core\ipv4/igmp.c ****         (ip4_addr_cmp(addr, &allsystems) != 0));
 270:Source\LwIP\src\core\ipv4/igmp.c ****       group->next = NULL;
 271:Source\LwIP\src\core\ipv4/igmp.c ****       netif_set_client_data(ifp, LWIP_NETIF_CLIENT_DATA_INDEX_IGMP, group);
 272:Source\LwIP\src\core\ipv4/igmp.c ****     } else {
 273:Source\LwIP\src\core\ipv4/igmp.c ****       /* append _after_ first entry */
 274:Source\LwIP\src\core\ipv4/igmp.c ****       LWIP_ASSERT("igmp_lookup_group: all except first group must not be allsystems",
 275:Source\LwIP\src\core\ipv4/igmp.c ****         (ip4_addr_cmp(addr, &allsystems) == 0));
 276:Source\LwIP\src\core\ipv4/igmp.c ****       group->next = list_head->next;
 277:Source\LwIP\src\core\ipv4/igmp.c ****       list_head->next = group;
 278:Source\LwIP\src\core\ipv4/igmp.c ****     }
 279:Source\LwIP\src\core\ipv4/igmp.c ****   }
 280:Source\LwIP\src\core\ipv4/igmp.c **** 
 281:Source\LwIP\src\core\ipv4/igmp.c ****   LWIP_DEBUGF(IGMP_DEBUG, ("igmp_lookup_group: %sallocated a new group with address ", (group?"":"i
 282:Source\LwIP\src\core\ipv4/igmp.c ****   ip4_addr_debug_print(IGMP_DEBUG, addr);
 283:Source\LwIP\src\core\ipv4/igmp.c ****   LWIP_DEBUGF(IGMP_DEBUG, (" on if %p\n", (void*)ifp));
 284:Source\LwIP\src\core\ipv4/igmp.c **** 
 285:Source\LwIP\src\core\ipv4/igmp.c ****   return group;
 286:Source\LwIP\src\core\ipv4/igmp.c **** }
 287:Source\LwIP\src\core\ipv4/igmp.c **** 
 288:Source\LwIP\src\core\ipv4/igmp.c **** /**
 289:Source\LwIP\src\core\ipv4/igmp.c ****  * Remove a group in the global igmp_group_list, but don't free it yet
 290:Source\LwIP\src\core\ipv4/igmp.c ****  *
 291:Source\LwIP\src\core\ipv4/igmp.c ****  * @param group the group to remove from the global igmp_group_list
 292:Source\LwIP\src\core\ipv4/igmp.c ****  * @return ERR_OK if group was removed from the list, an err_t otherwise
 293:Source\LwIP\src\core\ipv4/igmp.c ****  */
 294:Source\LwIP\src\core\ipv4/igmp.c **** static err_t
 295:Source\LwIP\src\core\ipv4/igmp.c **** igmp_remove_group(struct netif* netif, struct igmp_group *group)
 296:Source\LwIP\src\core\ipv4/igmp.c **** {
  27              		.loc 1 296 0
  28              		.cfi_startproc
  29              		@ args = 0, pretend = 0, frame = 0
  30              		@ frame_needed = 0, uses_anonymous_args = 0
  31              		@ link register save eliminated.
  32              	.LVL0:
 297:Source\LwIP\src\core\ipv4/igmp.c ****   err_t err = ERR_OK;
 298:Source\LwIP\src\core\ipv4/igmp.c ****   struct igmp_group *tmp_group;
 299:Source\LwIP\src\core\ipv4/igmp.c **** 
 300:Source\LwIP\src\core\ipv4/igmp.c ****   /* Skip the first group in the list, it is always the allsystems group added in igmp_start() */
 301:Source\LwIP\src\core\ipv4/igmp.c ****   for (tmp_group = netif_igmp_data(netif); tmp_group != NULL; tmp_group = tmp_group->next) {
  33              		.loc 1 301 0
  34 0000 836A     		ldr	r3, [r0, #40]
  35              	.LVL1:
  36 0002 06E0     		b	.L2
  37              	.L4:
 302:Source\LwIP\src\core\ipv4/igmp.c ****     if (tmp_group->next == group) {
  38              		.loc 1 302 0
  39 0004 1A68     		ldr	r2, [r3]
  40 0006 8A42     		cmp	r2, r1
ARM GAS  C:\Users\Phuong\AppData\Local\Temp\ccKPluhm.s 			page 7


  41 0008 02D1     		bne	.L6
 303:Source\LwIP\src\core\ipv4/igmp.c ****       tmp_group->next = group->next;
  42              		.loc 1 303 0
  43 000a 0A68     		ldr	r2, [r1]
  44 000c 1A60     		str	r2, [r3]
 304:Source\LwIP\src\core\ipv4/igmp.c ****       break;
  45              		.loc 1 304 0
  46 000e 02E0     		b	.L3
  47              	.L6:
 301:Source\LwIP\src\core\ipv4/igmp.c ****     if (tmp_group->next == group) {
  48              		.loc 1 301 0
  49 0010 1300     		movs	r3, r2
  50              	.LVL2:
  51              	.L2:
 301:Source\LwIP\src\core\ipv4/igmp.c ****     if (tmp_group->next == group) {
  52              		.loc 1 301 0 is_stmt 0 discriminator 1
  53 0012 002B     		cmp	r3, #0
  54 0014 F6D1     		bne	.L4
  55              	.L3:
 305:Source\LwIP\src\core\ipv4/igmp.c ****     }
 306:Source\LwIP\src\core\ipv4/igmp.c ****   }
 307:Source\LwIP\src\core\ipv4/igmp.c ****   /* Group not found in the global igmp_group_list */
 308:Source\LwIP\src\core\ipv4/igmp.c ****   if (tmp_group == NULL) {
  56              		.loc 1 308 0 is_stmt 1
  57 0016 002B     		cmp	r3, #0
  58 0018 01D0     		beq	.L7
 297:Source\LwIP\src\core\ipv4/igmp.c ****   struct igmp_group *tmp_group;
  59              		.loc 1 297 0
  60 001a 0020     		movs	r0, #0
  61              	.LVL3:
  62 001c 01E0     		b	.L5
  63              	.LVL4:
  64              	.L7:
 309:Source\LwIP\src\core\ipv4/igmp.c ****     err = ERR_ARG;
  65              		.loc 1 309 0
  66 001e 1020     		movs	r0, #16
  67              	.LVL5:
  68 0020 4042     		rsbs	r0, r0, #0
  69              	.L5:
  70              	.LVL6:
 310:Source\LwIP\src\core\ipv4/igmp.c ****   }
 311:Source\LwIP\src\core\ipv4/igmp.c **** 
 312:Source\LwIP\src\core\ipv4/igmp.c ****   return err;
 313:Source\LwIP\src\core\ipv4/igmp.c **** }
  71              		.loc 1 313 0
  72              		@ sp needed
  73 0022 7047     		bx	lr
  74              		.cfi_endproc
  75              	.LFE59:
  76              		.size	igmp_remove_group, .-igmp_remove_group
  77              		.global	__aeabi_uidivmod
  78              		.section	.text.igmp_start_timer,"ax",%progbits
  79              		.align	2
  80              		.code	16
  81              		.thumb_func
  82              		.type	igmp_start_timer, %function
  83              	igmp_start_timer:
ARM GAS  C:\Users\Phuong\AppData\Local\Temp\ccKPluhm.s 			page 8


  84              	.LFB67:
 314:Source\LwIP\src\core\ipv4/igmp.c **** 
 315:Source\LwIP\src\core\ipv4/igmp.c **** /**
 316:Source\LwIP\src\core\ipv4/igmp.c ****  * Called from ip_input() if a new IGMP packet is received.
 317:Source\LwIP\src\core\ipv4/igmp.c ****  *
 318:Source\LwIP\src\core\ipv4/igmp.c ****  * @param p received igmp packet, p->payload pointing to the igmp header
 319:Source\LwIP\src\core\ipv4/igmp.c ****  * @param inp network interface on which the packet was received
 320:Source\LwIP\src\core\ipv4/igmp.c ****  * @param dest destination ip address of the igmp packet
 321:Source\LwIP\src\core\ipv4/igmp.c ****  */
 322:Source\LwIP\src\core\ipv4/igmp.c **** void
 323:Source\LwIP\src\core\ipv4/igmp.c **** igmp_input(struct pbuf *p, struct netif *inp, const ip4_addr_t *dest)
 324:Source\LwIP\src\core\ipv4/igmp.c **** {
 325:Source\LwIP\src\core\ipv4/igmp.c ****   struct igmp_msg*   igmp;
 326:Source\LwIP\src\core\ipv4/igmp.c ****   struct igmp_group* group;
 327:Source\LwIP\src\core\ipv4/igmp.c ****   struct igmp_group* groupref;
 328:Source\LwIP\src\core\ipv4/igmp.c **** 
 329:Source\LwIP\src\core\ipv4/igmp.c ****   IGMP_STATS_INC(igmp.recv);
 330:Source\LwIP\src\core\ipv4/igmp.c **** 
 331:Source\LwIP\src\core\ipv4/igmp.c ****   /* Note that the length CAN be greater than 8 but only 8 are used - All are included in the check
 332:Source\LwIP\src\core\ipv4/igmp.c ****   if (p->len < IGMP_MINLEN) {
 333:Source\LwIP\src\core\ipv4/igmp.c ****     pbuf_free(p);
 334:Source\LwIP\src\core\ipv4/igmp.c ****     IGMP_STATS_INC(igmp.lenerr);
 335:Source\LwIP\src\core\ipv4/igmp.c ****     LWIP_DEBUGF(IGMP_DEBUG, ("igmp_input: length error\n"));
 336:Source\LwIP\src\core\ipv4/igmp.c ****     return;
 337:Source\LwIP\src\core\ipv4/igmp.c ****   }
 338:Source\LwIP\src\core\ipv4/igmp.c **** 
 339:Source\LwIP\src\core\ipv4/igmp.c ****   LWIP_DEBUGF(IGMP_DEBUG, ("igmp_input: message from "));
 340:Source\LwIP\src\core\ipv4/igmp.c ****   ip4_addr_debug_print(IGMP_DEBUG, &(ip4_current_header()->src));
 341:Source\LwIP\src\core\ipv4/igmp.c ****   LWIP_DEBUGF(IGMP_DEBUG, (" to address "));
 342:Source\LwIP\src\core\ipv4/igmp.c ****   ip4_addr_debug_print(IGMP_DEBUG, &(ip4_current_header()->dest));
 343:Source\LwIP\src\core\ipv4/igmp.c ****   LWIP_DEBUGF(IGMP_DEBUG, (" on if %p\n", (void*)inp));
 344:Source\LwIP\src\core\ipv4/igmp.c **** 
 345:Source\LwIP\src\core\ipv4/igmp.c ****   /* Now calculate and check the checksum */
 346:Source\LwIP\src\core\ipv4/igmp.c ****   igmp = (struct igmp_msg *)p->payload;
 347:Source\LwIP\src\core\ipv4/igmp.c ****   if (inet_chksum(igmp, p->len)) {
 348:Source\LwIP\src\core\ipv4/igmp.c ****     pbuf_free(p);
 349:Source\LwIP\src\core\ipv4/igmp.c ****     IGMP_STATS_INC(igmp.chkerr);
 350:Source\LwIP\src\core\ipv4/igmp.c ****     LWIP_DEBUGF(IGMP_DEBUG, ("igmp_input: checksum error\n"));
 351:Source\LwIP\src\core\ipv4/igmp.c ****     return;
 352:Source\LwIP\src\core\ipv4/igmp.c ****   }
 353:Source\LwIP\src\core\ipv4/igmp.c **** 
 354:Source\LwIP\src\core\ipv4/igmp.c ****   /* Packet is ok so find an existing group */
 355:Source\LwIP\src\core\ipv4/igmp.c ****   group = igmp_lookfor_group(inp, dest); /* use the destination IP address of incoming packet */
 356:Source\LwIP\src\core\ipv4/igmp.c **** 
 357:Source\LwIP\src\core\ipv4/igmp.c ****   /* If group can be found or create... */
 358:Source\LwIP\src\core\ipv4/igmp.c ****   if (!group) {
 359:Source\LwIP\src\core\ipv4/igmp.c ****     pbuf_free(p);
 360:Source\LwIP\src\core\ipv4/igmp.c ****     IGMP_STATS_INC(igmp.drop);
 361:Source\LwIP\src\core\ipv4/igmp.c ****     LWIP_DEBUGF(IGMP_DEBUG, ("igmp_input: IGMP frame not for us\n"));
 362:Source\LwIP\src\core\ipv4/igmp.c ****     return;
 363:Source\LwIP\src\core\ipv4/igmp.c ****   }
 364:Source\LwIP\src\core\ipv4/igmp.c **** 
 365:Source\LwIP\src\core\ipv4/igmp.c ****   /* NOW ACT ON THE INCOMING MESSAGE TYPE... */
 366:Source\LwIP\src\core\ipv4/igmp.c ****   switch (igmp->igmp_msgtype) {
 367:Source\LwIP\src\core\ipv4/igmp.c ****   case IGMP_MEMB_QUERY:
 368:Source\LwIP\src\core\ipv4/igmp.c ****     /* IGMP_MEMB_QUERY to the "all systems" address ? */
 369:Source\LwIP\src\core\ipv4/igmp.c ****     if ((ip4_addr_cmp(dest, &allsystems)) && ip4_addr_isany(&igmp->igmp_group_address)) {
ARM GAS  C:\Users\Phuong\AppData\Local\Temp\ccKPluhm.s 			page 9


 370:Source\LwIP\src\core\ipv4/igmp.c ****       /* THIS IS THE GENERAL QUERY */
 371:Source\LwIP\src\core\ipv4/igmp.c ****       LWIP_DEBUGF(IGMP_DEBUG, ("igmp_input: General IGMP_MEMB_QUERY on \"ALL SYSTEMS\" address (224
 372:Source\LwIP\src\core\ipv4/igmp.c **** 
 373:Source\LwIP\src\core\ipv4/igmp.c ****       if (igmp->igmp_maxresp == 0) {
 374:Source\LwIP\src\core\ipv4/igmp.c ****         IGMP_STATS_INC(igmp.rx_v1);
 375:Source\LwIP\src\core\ipv4/igmp.c ****         LWIP_DEBUGF(IGMP_DEBUG, ("igmp_input: got an all hosts query with time== 0 - this is V1 and
 376:Source\LwIP\src\core\ipv4/igmp.c ****         igmp->igmp_maxresp = IGMP_V1_DELAYING_MEMBER_TMR;
 377:Source\LwIP\src\core\ipv4/igmp.c ****       } else {
 378:Source\LwIP\src\core\ipv4/igmp.c ****         IGMP_STATS_INC(igmp.rx_general);
 379:Source\LwIP\src\core\ipv4/igmp.c ****       }
 380:Source\LwIP\src\core\ipv4/igmp.c **** 
 381:Source\LwIP\src\core\ipv4/igmp.c ****       groupref = netif_igmp_data(inp);
 382:Source\LwIP\src\core\ipv4/igmp.c ****       
 383:Source\LwIP\src\core\ipv4/igmp.c ****       /* Do not send messages on the all systems group address! */
 384:Source\LwIP\src\core\ipv4/igmp.c ****       /* Skip the first group in the list, it is always the allsystems group added in igmp_start() 
 385:Source\LwIP\src\core\ipv4/igmp.c ****       if(groupref != NULL) {
 386:Source\LwIP\src\core\ipv4/igmp.c ****         groupref = groupref->next;
 387:Source\LwIP\src\core\ipv4/igmp.c ****       }
 388:Source\LwIP\src\core\ipv4/igmp.c **** 
 389:Source\LwIP\src\core\ipv4/igmp.c ****       while (groupref) {
 390:Source\LwIP\src\core\ipv4/igmp.c ****         igmp_delaying_member(groupref, igmp->igmp_maxresp);
 391:Source\LwIP\src\core\ipv4/igmp.c ****         groupref = groupref->next;
 392:Source\LwIP\src\core\ipv4/igmp.c ****       }
 393:Source\LwIP\src\core\ipv4/igmp.c ****     } else {
 394:Source\LwIP\src\core\ipv4/igmp.c ****       /* IGMP_MEMB_QUERY to a specific group ? */
 395:Source\LwIP\src\core\ipv4/igmp.c ****       if (!ip4_addr_isany(&igmp->igmp_group_address)) {
 396:Source\LwIP\src\core\ipv4/igmp.c ****         LWIP_DEBUGF(IGMP_DEBUG, ("igmp_input: IGMP_MEMB_QUERY to a specific group "));
 397:Source\LwIP\src\core\ipv4/igmp.c ****         ip4_addr_debug_print(IGMP_DEBUG, &igmp->igmp_group_address);
 398:Source\LwIP\src\core\ipv4/igmp.c ****         if (ip4_addr_cmp(dest, &allsystems)) {
 399:Source\LwIP\src\core\ipv4/igmp.c ****           ip4_addr_t groupaddr;
 400:Source\LwIP\src\core\ipv4/igmp.c ****           LWIP_DEBUGF(IGMP_DEBUG, (" using \"ALL SYSTEMS\" address (224.0.0.1) [igmp_maxresp=%i]\n"
 401:Source\LwIP\src\core\ipv4/igmp.c ****           /* we first need to re-look for the group since we used dest last time */
 402:Source\LwIP\src\core\ipv4/igmp.c ****           ip4_addr_copy(groupaddr, igmp->igmp_group_address);
 403:Source\LwIP\src\core\ipv4/igmp.c ****           group = igmp_lookfor_group(inp, &groupaddr);
 404:Source\LwIP\src\core\ipv4/igmp.c ****         } else {
 405:Source\LwIP\src\core\ipv4/igmp.c ****           LWIP_DEBUGF(IGMP_DEBUG, (" with the group address as destination [igmp_maxresp=%i]\n", (i
 406:Source\LwIP\src\core\ipv4/igmp.c ****         }
 407:Source\LwIP\src\core\ipv4/igmp.c **** 
 408:Source\LwIP\src\core\ipv4/igmp.c ****         if (group != NULL) {
 409:Source\LwIP\src\core\ipv4/igmp.c ****           IGMP_STATS_INC(igmp.rx_group);
 410:Source\LwIP\src\core\ipv4/igmp.c ****           igmp_delaying_member(group, igmp->igmp_maxresp);
 411:Source\LwIP\src\core\ipv4/igmp.c ****         } else {
 412:Source\LwIP\src\core\ipv4/igmp.c ****           IGMP_STATS_INC(igmp.drop);
 413:Source\LwIP\src\core\ipv4/igmp.c ****         }
 414:Source\LwIP\src\core\ipv4/igmp.c ****       } else {
 415:Source\LwIP\src\core\ipv4/igmp.c ****         IGMP_STATS_INC(igmp.proterr);
 416:Source\LwIP\src\core\ipv4/igmp.c ****       }
 417:Source\LwIP\src\core\ipv4/igmp.c ****     }
 418:Source\LwIP\src\core\ipv4/igmp.c ****     break;
 419:Source\LwIP\src\core\ipv4/igmp.c ****   case IGMP_V2_MEMB_REPORT:
 420:Source\LwIP\src\core\ipv4/igmp.c ****     LWIP_DEBUGF(IGMP_DEBUG, ("igmp_input: IGMP_V2_MEMB_REPORT\n"));
 421:Source\LwIP\src\core\ipv4/igmp.c ****     IGMP_STATS_INC(igmp.rx_report);
 422:Source\LwIP\src\core\ipv4/igmp.c ****     if (group->group_state == IGMP_GROUP_DELAYING_MEMBER) {
 423:Source\LwIP\src\core\ipv4/igmp.c ****       /* This is on a specific group we have already looked up */
 424:Source\LwIP\src\core\ipv4/igmp.c ****       group->timer = 0; /* stopped */
 425:Source\LwIP\src\core\ipv4/igmp.c ****       group->group_state = IGMP_GROUP_IDLE_MEMBER;
 426:Source\LwIP\src\core\ipv4/igmp.c ****       group->last_reporter_flag = 0;
ARM GAS  C:\Users\Phuong\AppData\Local\Temp\ccKPluhm.s 			page 10


 427:Source\LwIP\src\core\ipv4/igmp.c ****     }
 428:Source\LwIP\src\core\ipv4/igmp.c ****     break;
 429:Source\LwIP\src\core\ipv4/igmp.c ****   default:
 430:Source\LwIP\src\core\ipv4/igmp.c ****     LWIP_DEBUGF(IGMP_DEBUG, ("igmp_input: unexpected msg %d in state %d on group %p on if %p\n",
 431:Source\LwIP\src\core\ipv4/igmp.c ****       igmp->igmp_msgtype, group->group_state, (void*)&group, (void*)inp));
 432:Source\LwIP\src\core\ipv4/igmp.c ****     IGMP_STATS_INC(igmp.proterr);
 433:Source\LwIP\src\core\ipv4/igmp.c ****     break;
 434:Source\LwIP\src\core\ipv4/igmp.c ****   }
 435:Source\LwIP\src\core\ipv4/igmp.c **** 
 436:Source\LwIP\src\core\ipv4/igmp.c ****   pbuf_free(p);
 437:Source\LwIP\src\core\ipv4/igmp.c ****   return;
 438:Source\LwIP\src\core\ipv4/igmp.c **** }
 439:Source\LwIP\src\core\ipv4/igmp.c **** 
 440:Source\LwIP\src\core\ipv4/igmp.c **** /**
 441:Source\LwIP\src\core\ipv4/igmp.c ****  * @ingroup igmp
 442:Source\LwIP\src\core\ipv4/igmp.c ****  * Join a group on one network interface.
 443:Source\LwIP\src\core\ipv4/igmp.c ****  *
 444:Source\LwIP\src\core\ipv4/igmp.c ****  * @param ifaddr ip address of the network interface which should join a new group
 445:Source\LwIP\src\core\ipv4/igmp.c ****  * @param groupaddr the ip address of the group which to join
 446:Source\LwIP\src\core\ipv4/igmp.c ****  * @return ERR_OK if group was joined on the netif(s), an err_t otherwise
 447:Source\LwIP\src\core\ipv4/igmp.c ****  */
 448:Source\LwIP\src\core\ipv4/igmp.c **** err_t
 449:Source\LwIP\src\core\ipv4/igmp.c **** igmp_joingroup(const ip4_addr_t *ifaddr, const ip4_addr_t *groupaddr)
 450:Source\LwIP\src\core\ipv4/igmp.c **** {
 451:Source\LwIP\src\core\ipv4/igmp.c ****   err_t err = ERR_VAL; /* no matching interface */
 452:Source\LwIP\src\core\ipv4/igmp.c ****   struct netif *netif;
 453:Source\LwIP\src\core\ipv4/igmp.c **** 
 454:Source\LwIP\src\core\ipv4/igmp.c ****   /* make sure it is multicast address */
 455:Source\LwIP\src\core\ipv4/igmp.c ****   LWIP_ERROR("igmp_joingroup: attempt to join non-multicast address", ip4_addr_ismulticast(groupadd
 456:Source\LwIP\src\core\ipv4/igmp.c ****   LWIP_ERROR("igmp_joingroup: attempt to join allsystems address", (!ip4_addr_cmp(groupaddr, &allsy
 457:Source\LwIP\src\core\ipv4/igmp.c **** 
 458:Source\LwIP\src\core\ipv4/igmp.c ****   /* loop through netif's */
 459:Source\LwIP\src\core\ipv4/igmp.c ****   netif = netif_list;
 460:Source\LwIP\src\core\ipv4/igmp.c ****   while (netif != NULL) {
 461:Source\LwIP\src\core\ipv4/igmp.c ****     /* Should we join this interface ? */
 462:Source\LwIP\src\core\ipv4/igmp.c ****     if ((netif->flags & NETIF_FLAG_IGMP) && ((ip4_addr_isany(ifaddr) || ip4_addr_cmp(netif_ip4_addr
 463:Source\LwIP\src\core\ipv4/igmp.c ****       err = igmp_joingroup_netif(netif, groupaddr);
 464:Source\LwIP\src\core\ipv4/igmp.c ****       if (err != ERR_OK) {
 465:Source\LwIP\src\core\ipv4/igmp.c ****         /* Return an error even if some network interfaces are joined */
 466:Source\LwIP\src\core\ipv4/igmp.c ****         /** @todo undo any other netif already joined */
 467:Source\LwIP\src\core\ipv4/igmp.c ****         return err;
 468:Source\LwIP\src\core\ipv4/igmp.c ****       }
 469:Source\LwIP\src\core\ipv4/igmp.c ****     }
 470:Source\LwIP\src\core\ipv4/igmp.c ****     /* proceed to next network interface */
 471:Source\LwIP\src\core\ipv4/igmp.c ****     netif = netif->next;
 472:Source\LwIP\src\core\ipv4/igmp.c ****   }
 473:Source\LwIP\src\core\ipv4/igmp.c **** 
 474:Source\LwIP\src\core\ipv4/igmp.c ****   return err;
 475:Source\LwIP\src\core\ipv4/igmp.c **** }
 476:Source\LwIP\src\core\ipv4/igmp.c **** 
 477:Source\LwIP\src\core\ipv4/igmp.c **** /**
 478:Source\LwIP\src\core\ipv4/igmp.c ****  * @ingroup igmp
 479:Source\LwIP\src\core\ipv4/igmp.c ****  * Join a group on one network interface.
 480:Source\LwIP\src\core\ipv4/igmp.c ****  *
 481:Source\LwIP\src\core\ipv4/igmp.c ****  * @param netif the network interface which should join a new group
 482:Source\LwIP\src\core\ipv4/igmp.c ****  * @param groupaddr the ip address of the group which to join
 483:Source\LwIP\src\core\ipv4/igmp.c ****  * @return ERR_OK if group was joined on the netif, an err_t otherwise
ARM GAS  C:\Users\Phuong\AppData\Local\Temp\ccKPluhm.s 			page 11


 484:Source\LwIP\src\core\ipv4/igmp.c ****  */
 485:Source\LwIP\src\core\ipv4/igmp.c **** err_t
 486:Source\LwIP\src\core\ipv4/igmp.c **** igmp_joingroup_netif(struct netif *netif, const ip4_addr_t *groupaddr)
 487:Source\LwIP\src\core\ipv4/igmp.c **** {
 488:Source\LwIP\src\core\ipv4/igmp.c ****   struct igmp_group *group;
 489:Source\LwIP\src\core\ipv4/igmp.c **** 
 490:Source\LwIP\src\core\ipv4/igmp.c ****   /* make sure it is multicast address */
 491:Source\LwIP\src\core\ipv4/igmp.c ****   LWIP_ERROR("igmp_joingroup_netif: attempt to join non-multicast address", ip4_addr_ismulticast(gr
 492:Source\LwIP\src\core\ipv4/igmp.c ****   LWIP_ERROR("igmp_joingroup_netif: attempt to join allsystems address", (!ip4_addr_cmp(groupaddr, 
 493:Source\LwIP\src\core\ipv4/igmp.c **** 
 494:Source\LwIP\src\core\ipv4/igmp.c ****   /* make sure it is an igmp-enabled netif */
 495:Source\LwIP\src\core\ipv4/igmp.c ****   LWIP_ERROR("igmp_joingroup_netif: attempt to join on non-IGMP netif", netif->flags & NETIF_FLAG_I
 496:Source\LwIP\src\core\ipv4/igmp.c **** 
 497:Source\LwIP\src\core\ipv4/igmp.c ****   /* find group or create a new one if not found */
 498:Source\LwIP\src\core\ipv4/igmp.c ****   group = igmp_lookup_group(netif, groupaddr);
 499:Source\LwIP\src\core\ipv4/igmp.c **** 
 500:Source\LwIP\src\core\ipv4/igmp.c ****   if (group != NULL) {
 501:Source\LwIP\src\core\ipv4/igmp.c ****     /* This should create a new group, check the state to make sure */
 502:Source\LwIP\src\core\ipv4/igmp.c ****     if (group->group_state != IGMP_GROUP_NON_MEMBER) {
 503:Source\LwIP\src\core\ipv4/igmp.c ****       LWIP_DEBUGF(IGMP_DEBUG, ("igmp_joingroup_netif: join to group not in state IGMP_GROUP_NON_MEM
 504:Source\LwIP\src\core\ipv4/igmp.c ****     } else {
 505:Source\LwIP\src\core\ipv4/igmp.c ****       /* OK - it was new group */
 506:Source\LwIP\src\core\ipv4/igmp.c ****       LWIP_DEBUGF(IGMP_DEBUG, ("igmp_joingroup_netif: join to new group: "));
 507:Source\LwIP\src\core\ipv4/igmp.c ****       ip4_addr_debug_print(IGMP_DEBUG, groupaddr);
 508:Source\LwIP\src\core\ipv4/igmp.c ****       LWIP_DEBUGF(IGMP_DEBUG, ("\n"));
 509:Source\LwIP\src\core\ipv4/igmp.c **** 
 510:Source\LwIP\src\core\ipv4/igmp.c ****       /* If first use of the group, allow the group at the MAC level */
 511:Source\LwIP\src\core\ipv4/igmp.c ****       if ((group->use==0) && (netif->igmp_mac_filter != NULL)) {
 512:Source\LwIP\src\core\ipv4/igmp.c ****         LWIP_DEBUGF(IGMP_DEBUG, ("igmp_joingroup_netif: igmp_mac_filter(ADD "));
 513:Source\LwIP\src\core\ipv4/igmp.c ****         ip4_addr_debug_print(IGMP_DEBUG, groupaddr);
 514:Source\LwIP\src\core\ipv4/igmp.c ****         LWIP_DEBUGF(IGMP_DEBUG, (") on if %p\n", (void*)netif));
 515:Source\LwIP\src\core\ipv4/igmp.c ****         netif->igmp_mac_filter(netif, groupaddr, NETIF_ADD_MAC_FILTER);
 516:Source\LwIP\src\core\ipv4/igmp.c ****       }
 517:Source\LwIP\src\core\ipv4/igmp.c **** 
 518:Source\LwIP\src\core\ipv4/igmp.c ****       IGMP_STATS_INC(igmp.tx_join);
 519:Source\LwIP\src\core\ipv4/igmp.c ****       igmp_send(netif, group, IGMP_V2_MEMB_REPORT);
 520:Source\LwIP\src\core\ipv4/igmp.c **** 
 521:Source\LwIP\src\core\ipv4/igmp.c ****       igmp_start_timer(group, IGMP_JOIN_DELAYING_MEMBER_TMR);
 522:Source\LwIP\src\core\ipv4/igmp.c **** 
 523:Source\LwIP\src\core\ipv4/igmp.c ****       /* Need to work out where this timer comes from */
 524:Source\LwIP\src\core\ipv4/igmp.c ****       group->group_state = IGMP_GROUP_DELAYING_MEMBER;
 525:Source\LwIP\src\core\ipv4/igmp.c ****     }
 526:Source\LwIP\src\core\ipv4/igmp.c ****     /* Increment group use */
 527:Source\LwIP\src\core\ipv4/igmp.c ****     group->use++;
 528:Source\LwIP\src\core\ipv4/igmp.c ****     /* Join on this interface */
 529:Source\LwIP\src\core\ipv4/igmp.c ****     return ERR_OK;
 530:Source\LwIP\src\core\ipv4/igmp.c ****   } else {
 531:Source\LwIP\src\core\ipv4/igmp.c ****     LWIP_DEBUGF(IGMP_DEBUG, ("igmp_joingroup_netif: Not enough memory to join to group\n"));
 532:Source\LwIP\src\core\ipv4/igmp.c ****     return ERR_MEM;
 533:Source\LwIP\src\core\ipv4/igmp.c ****   }
 534:Source\LwIP\src\core\ipv4/igmp.c **** }
 535:Source\LwIP\src\core\ipv4/igmp.c **** 
 536:Source\LwIP\src\core\ipv4/igmp.c **** /**
 537:Source\LwIP\src\core\ipv4/igmp.c ****  * @ingroup igmp
 538:Source\LwIP\src\core\ipv4/igmp.c ****  * Leave a group on one network interface.
 539:Source\LwIP\src\core\ipv4/igmp.c ****  *
 540:Source\LwIP\src\core\ipv4/igmp.c ****  * @param ifaddr ip address of the network interface which should leave a group
ARM GAS  C:\Users\Phuong\AppData\Local\Temp\ccKPluhm.s 			page 12


 541:Source\LwIP\src\core\ipv4/igmp.c ****  * @param groupaddr the ip address of the group which to leave
 542:Source\LwIP\src\core\ipv4/igmp.c ****  * @return ERR_OK if group was left on the netif(s), an err_t otherwise
 543:Source\LwIP\src\core\ipv4/igmp.c ****  */
 544:Source\LwIP\src\core\ipv4/igmp.c **** err_t
 545:Source\LwIP\src\core\ipv4/igmp.c **** igmp_leavegroup(const ip4_addr_t *ifaddr, const ip4_addr_t *groupaddr)
 546:Source\LwIP\src\core\ipv4/igmp.c **** {
 547:Source\LwIP\src\core\ipv4/igmp.c ****   err_t err = ERR_VAL; /* no matching interface */
 548:Source\LwIP\src\core\ipv4/igmp.c ****   struct netif *netif;
 549:Source\LwIP\src\core\ipv4/igmp.c **** 
 550:Source\LwIP\src\core\ipv4/igmp.c ****   /* make sure it is multicast address */
 551:Source\LwIP\src\core\ipv4/igmp.c ****   LWIP_ERROR("igmp_leavegroup: attempt to leave non-multicast address", ip4_addr_ismulticast(groupa
 552:Source\LwIP\src\core\ipv4/igmp.c ****   LWIP_ERROR("igmp_leavegroup: attempt to leave allsystems address", (!ip4_addr_cmp(groupaddr, &all
 553:Source\LwIP\src\core\ipv4/igmp.c **** 
 554:Source\LwIP\src\core\ipv4/igmp.c ****   /* loop through netif's */
 555:Source\LwIP\src\core\ipv4/igmp.c ****   netif = netif_list;
 556:Source\LwIP\src\core\ipv4/igmp.c ****   while (netif != NULL) {
 557:Source\LwIP\src\core\ipv4/igmp.c ****     /* Should we leave this interface ? */
 558:Source\LwIP\src\core\ipv4/igmp.c ****     if ((netif->flags & NETIF_FLAG_IGMP) && ((ip4_addr_isany(ifaddr) || ip4_addr_cmp(netif_ip4_addr
 559:Source\LwIP\src\core\ipv4/igmp.c ****       err_t res = igmp_leavegroup_netif(netif, groupaddr);
 560:Source\LwIP\src\core\ipv4/igmp.c ****       if (err != ERR_OK) {
 561:Source\LwIP\src\core\ipv4/igmp.c ****         /* Store this result if we have not yet gotten a success */
 562:Source\LwIP\src\core\ipv4/igmp.c ****         err = res;
 563:Source\LwIP\src\core\ipv4/igmp.c ****       }
 564:Source\LwIP\src\core\ipv4/igmp.c ****     }
 565:Source\LwIP\src\core\ipv4/igmp.c ****     /* proceed to next network interface */
 566:Source\LwIP\src\core\ipv4/igmp.c ****     netif = netif->next;
 567:Source\LwIP\src\core\ipv4/igmp.c ****   }
 568:Source\LwIP\src\core\ipv4/igmp.c **** 
 569:Source\LwIP\src\core\ipv4/igmp.c ****   return err;
 570:Source\LwIP\src\core\ipv4/igmp.c **** }
 571:Source\LwIP\src\core\ipv4/igmp.c **** 
 572:Source\LwIP\src\core\ipv4/igmp.c **** /**
 573:Source\LwIP\src\core\ipv4/igmp.c ****  * @ingroup igmp
 574:Source\LwIP\src\core\ipv4/igmp.c ****  * Leave a group on one network interface.
 575:Source\LwIP\src\core\ipv4/igmp.c ****  *
 576:Source\LwIP\src\core\ipv4/igmp.c ****  * @param netif the network interface which should leave a group
 577:Source\LwIP\src\core\ipv4/igmp.c ****  * @param groupaddr the ip address of the group which to leave
 578:Source\LwIP\src\core\ipv4/igmp.c ****  * @return ERR_OK if group was left on the netif, an err_t otherwise
 579:Source\LwIP\src\core\ipv4/igmp.c ****  */
 580:Source\LwIP\src\core\ipv4/igmp.c **** err_t
 581:Source\LwIP\src\core\ipv4/igmp.c **** igmp_leavegroup_netif(struct netif *netif, const ip4_addr_t *groupaddr)
 582:Source\LwIP\src\core\ipv4/igmp.c **** {
 583:Source\LwIP\src\core\ipv4/igmp.c ****   struct igmp_group *group;
 584:Source\LwIP\src\core\ipv4/igmp.c **** 
 585:Source\LwIP\src\core\ipv4/igmp.c ****   /* make sure it is multicast address */
 586:Source\LwIP\src\core\ipv4/igmp.c ****   LWIP_ERROR("igmp_leavegroup_netif: attempt to leave non-multicast address", ip4_addr_ismulticast(
 587:Source\LwIP\src\core\ipv4/igmp.c ****   LWIP_ERROR("igmp_leavegroup_netif: attempt to leave allsystems address", (!ip4_addr_cmp(groupaddr
 588:Source\LwIP\src\core\ipv4/igmp.c **** 
 589:Source\LwIP\src\core\ipv4/igmp.c ****   /* make sure it is an igmp-enabled netif */
 590:Source\LwIP\src\core\ipv4/igmp.c ****   LWIP_ERROR("igmp_leavegroup_netif: attempt to leave on non-IGMP netif", netif->flags & NETIF_FLAG
 591:Source\LwIP\src\core\ipv4/igmp.c **** 
 592:Source\LwIP\src\core\ipv4/igmp.c ****   /* find group */
 593:Source\LwIP\src\core\ipv4/igmp.c ****   group = igmp_lookfor_group(netif, groupaddr);
 594:Source\LwIP\src\core\ipv4/igmp.c **** 
 595:Source\LwIP\src\core\ipv4/igmp.c ****   if (group != NULL) {
 596:Source\LwIP\src\core\ipv4/igmp.c ****     /* Only send a leave if the flag is set according to the state diagram */
 597:Source\LwIP\src\core\ipv4/igmp.c ****     LWIP_DEBUGF(IGMP_DEBUG, ("igmp_leavegroup_netif: Leaving group: "));
ARM GAS  C:\Users\Phuong\AppData\Local\Temp\ccKPluhm.s 			page 13


 598:Source\LwIP\src\core\ipv4/igmp.c ****     ip4_addr_debug_print(IGMP_DEBUG, groupaddr);
 599:Source\LwIP\src\core\ipv4/igmp.c ****     LWIP_DEBUGF(IGMP_DEBUG, ("\n"));
 600:Source\LwIP\src\core\ipv4/igmp.c **** 
 601:Source\LwIP\src\core\ipv4/igmp.c ****     /* If there is no other use of the group */
 602:Source\LwIP\src\core\ipv4/igmp.c ****     if (group->use <= 1) {
 603:Source\LwIP\src\core\ipv4/igmp.c ****       /* Remove the group from the list */
 604:Source\LwIP\src\core\ipv4/igmp.c ****       igmp_remove_group(netif, group);
 605:Source\LwIP\src\core\ipv4/igmp.c **** 
 606:Source\LwIP\src\core\ipv4/igmp.c ****       /* If we are the last reporter for this group */
 607:Source\LwIP\src\core\ipv4/igmp.c ****       if (group->last_reporter_flag) {
 608:Source\LwIP\src\core\ipv4/igmp.c ****         LWIP_DEBUGF(IGMP_DEBUG, ("igmp_leavegroup_netif: sending leaving group\n"));
 609:Source\LwIP\src\core\ipv4/igmp.c ****         IGMP_STATS_INC(igmp.tx_leave);
 610:Source\LwIP\src\core\ipv4/igmp.c ****         igmp_send(netif, group, IGMP_LEAVE_GROUP);
 611:Source\LwIP\src\core\ipv4/igmp.c ****       }
 612:Source\LwIP\src\core\ipv4/igmp.c **** 
 613:Source\LwIP\src\core\ipv4/igmp.c ****       /* Disable the group at the MAC level */
 614:Source\LwIP\src\core\ipv4/igmp.c ****       if (netif->igmp_mac_filter != NULL) {
 615:Source\LwIP\src\core\ipv4/igmp.c ****         LWIP_DEBUGF(IGMP_DEBUG, ("igmp_leavegroup_netif: igmp_mac_filter(DEL "));
 616:Source\LwIP\src\core\ipv4/igmp.c ****         ip4_addr_debug_print(IGMP_DEBUG, groupaddr);
 617:Source\LwIP\src\core\ipv4/igmp.c ****         LWIP_DEBUGF(IGMP_DEBUG, (") on if %p\n", (void*)netif));
 618:Source\LwIP\src\core\ipv4/igmp.c ****         netif->igmp_mac_filter(netif, groupaddr, NETIF_DEL_MAC_FILTER);
 619:Source\LwIP\src\core\ipv4/igmp.c ****       }
 620:Source\LwIP\src\core\ipv4/igmp.c **** 
 621:Source\LwIP\src\core\ipv4/igmp.c ****       /* Free group struct */
 622:Source\LwIP\src\core\ipv4/igmp.c ****       memp_free(MEMP_IGMP_GROUP, group);
 623:Source\LwIP\src\core\ipv4/igmp.c ****     } else {
 624:Source\LwIP\src\core\ipv4/igmp.c ****       /* Decrement group use */
 625:Source\LwIP\src\core\ipv4/igmp.c ****       group->use--;
 626:Source\LwIP\src\core\ipv4/igmp.c ****     }
 627:Source\LwIP\src\core\ipv4/igmp.c ****     return ERR_OK;
 628:Source\LwIP\src\core\ipv4/igmp.c ****   } else {
 629:Source\LwIP\src\core\ipv4/igmp.c ****     LWIP_DEBUGF(IGMP_DEBUG, ("igmp_leavegroup_netif: not member of group\n"));
 630:Source\LwIP\src\core\ipv4/igmp.c ****     return ERR_VAL;
 631:Source\LwIP\src\core\ipv4/igmp.c ****   }
 632:Source\LwIP\src\core\ipv4/igmp.c **** }
 633:Source\LwIP\src\core\ipv4/igmp.c **** 
 634:Source\LwIP\src\core\ipv4/igmp.c **** /**
 635:Source\LwIP\src\core\ipv4/igmp.c ****  * The igmp timer function (both for NO_SYS=1 and =0)
 636:Source\LwIP\src\core\ipv4/igmp.c ****  * Should be called every IGMP_TMR_INTERVAL milliseconds (100 ms is default).
 637:Source\LwIP\src\core\ipv4/igmp.c ****  */
 638:Source\LwIP\src\core\ipv4/igmp.c **** void
 639:Source\LwIP\src\core\ipv4/igmp.c **** igmp_tmr(void)
 640:Source\LwIP\src\core\ipv4/igmp.c **** {
 641:Source\LwIP\src\core\ipv4/igmp.c ****   struct netif *netif = netif_list;
 642:Source\LwIP\src\core\ipv4/igmp.c **** 
 643:Source\LwIP\src\core\ipv4/igmp.c ****   while (netif != NULL) {
 644:Source\LwIP\src\core\ipv4/igmp.c ****     struct igmp_group *group = netif_igmp_data(netif);
 645:Source\LwIP\src\core\ipv4/igmp.c **** 
 646:Source\LwIP\src\core\ipv4/igmp.c ****     while (group != NULL) {
 647:Source\LwIP\src\core\ipv4/igmp.c ****       if (group->timer > 0) {
 648:Source\LwIP\src\core\ipv4/igmp.c ****         group->timer--;
 649:Source\LwIP\src\core\ipv4/igmp.c ****         if (group->timer == 0) {
 650:Source\LwIP\src\core\ipv4/igmp.c ****           igmp_timeout(netif, group);
 651:Source\LwIP\src\core\ipv4/igmp.c ****         }
 652:Source\LwIP\src\core\ipv4/igmp.c ****       }
 653:Source\LwIP\src\core\ipv4/igmp.c ****       group = group->next;
 654:Source\LwIP\src\core\ipv4/igmp.c ****     }
ARM GAS  C:\Users\Phuong\AppData\Local\Temp\ccKPluhm.s 			page 14


 655:Source\LwIP\src\core\ipv4/igmp.c ****     netif = netif->next;
 656:Source\LwIP\src\core\ipv4/igmp.c ****   }
 657:Source\LwIP\src\core\ipv4/igmp.c **** }
 658:Source\LwIP\src\core\ipv4/igmp.c **** 
 659:Source\LwIP\src\core\ipv4/igmp.c **** /**
 660:Source\LwIP\src\core\ipv4/igmp.c ****  * Called if a timeout for one group is reached.
 661:Source\LwIP\src\core\ipv4/igmp.c ****  * Sends a report for this group.
 662:Source\LwIP\src\core\ipv4/igmp.c ****  *
 663:Source\LwIP\src\core\ipv4/igmp.c ****  * @param group an igmp_group for which a timeout is reached
 664:Source\LwIP\src\core\ipv4/igmp.c ****  */
 665:Source\LwIP\src\core\ipv4/igmp.c **** static void
 666:Source\LwIP\src\core\ipv4/igmp.c **** igmp_timeout(struct netif *netif, struct igmp_group *group)
 667:Source\LwIP\src\core\ipv4/igmp.c **** {
 668:Source\LwIP\src\core\ipv4/igmp.c ****   /* If the state is IGMP_GROUP_DELAYING_MEMBER then we send a report for this group
 669:Source\LwIP\src\core\ipv4/igmp.c ****      (unless it is the allsystems group) */
 670:Source\LwIP\src\core\ipv4/igmp.c ****   if ((group->group_state == IGMP_GROUP_DELAYING_MEMBER) &&
 671:Source\LwIP\src\core\ipv4/igmp.c ****       (!(ip4_addr_cmp(&(group->group_address), &allsystems)))) {
 672:Source\LwIP\src\core\ipv4/igmp.c ****     LWIP_DEBUGF(IGMP_DEBUG, ("igmp_timeout: report membership for group with address "));
 673:Source\LwIP\src\core\ipv4/igmp.c ****     ip4_addr_debug_print(IGMP_DEBUG, &(group->group_address));
 674:Source\LwIP\src\core\ipv4/igmp.c ****     LWIP_DEBUGF(IGMP_DEBUG, (" on if %p\n", (void*)netif));
 675:Source\LwIP\src\core\ipv4/igmp.c **** 
 676:Source\LwIP\src\core\ipv4/igmp.c ****     group->group_state = IGMP_GROUP_IDLE_MEMBER;
 677:Source\LwIP\src\core\ipv4/igmp.c ****     
 678:Source\LwIP\src\core\ipv4/igmp.c ****     IGMP_STATS_INC(igmp.tx_report);
 679:Source\LwIP\src\core\ipv4/igmp.c ****     igmp_send(netif, group, IGMP_V2_MEMB_REPORT);
 680:Source\LwIP\src\core\ipv4/igmp.c ****   }
 681:Source\LwIP\src\core\ipv4/igmp.c **** }
 682:Source\LwIP\src\core\ipv4/igmp.c **** 
 683:Source\LwIP\src\core\ipv4/igmp.c **** /**
 684:Source\LwIP\src\core\ipv4/igmp.c ****  * Start a timer for an igmp group
 685:Source\LwIP\src\core\ipv4/igmp.c ****  *
 686:Source\LwIP\src\core\ipv4/igmp.c ****  * @param group the igmp_group for which to start a timer
 687:Source\LwIP\src\core\ipv4/igmp.c ****  * @param max_time the time in multiples of IGMP_TMR_INTERVAL (decrease with
 688:Source\LwIP\src\core\ipv4/igmp.c ****  *        every call to igmp_tmr())
 689:Source\LwIP\src\core\ipv4/igmp.c ****  */
 690:Source\LwIP\src\core\ipv4/igmp.c **** static void
 691:Source\LwIP\src\core\ipv4/igmp.c **** igmp_start_timer(struct igmp_group *group, u8_t max_time)
 692:Source\LwIP\src\core\ipv4/igmp.c **** {
  85              		.loc 1 692 0
  86              		.cfi_startproc
  87              		@ args = 0, pretend = 0, frame = 0
  88              		@ frame_needed = 0, uses_anonymous_args = 0
  89              	.LVL7:
  90 0000 70B5     		push	{r4, r5, r6, lr}
  91              		.cfi_def_cfa_offset 16
  92              		.cfi_offset 4, -16
  93              		.cfi_offset 5, -12
  94              		.cfi_offset 6, -8
  95              		.cfi_offset 14, -4
  96 0002 0400     		movs	r4, r0
  97 0004 0D00     		movs	r5, r1
 693:Source\LwIP\src\core\ipv4/igmp.c **** #ifdef LWIP_RAND
 694:Source\LwIP\src\core\ipv4/igmp.c ****   group->timer = max_time > 2 ? (LWIP_RAND() % max_time) : 1;
  98              		.loc 1 694 0
  99 0006 0229     		cmp	r1, #2
 100 0008 06D9     		bls	.L11
 101              		.loc 1 694 0 is_stmt 0 discriminator 1
ARM GAS  C:\Users\Phuong\AppData\Local\Temp\ccKPluhm.s 			page 15


 102 000a FFF7FEFF 		bl	sys_rand16
 103              	.LVL8:
 104 000e 2900     		movs	r1, r5
 105 0010 FFF7FEFF 		bl	__aeabi_uidivmod
 106              	.LVL9:
 107 0014 89B2     		uxth	r1, r1
 108 0016 00E0     		b	.L9
 109              	.LVL10:
 110              	.L11:
 111              		.loc 1 694 0
 112 0018 0121     		movs	r1, #1
 113              	.LVL11:
 114              	.L9:
 115              		.loc 1 694 0 discriminator 4
 116 001a 6181     		strh	r1, [r4, #10]
 695:Source\LwIP\src\core\ipv4/igmp.c **** #else /* LWIP_RAND */
 696:Source\LwIP\src\core\ipv4/igmp.c ****   /* ATTENTION: use this only if absolutely necessary! */
 697:Source\LwIP\src\core\ipv4/igmp.c ****   group->timer = max_time / 2;
 698:Source\LwIP\src\core\ipv4/igmp.c **** #endif /* LWIP_RAND */
 699:Source\LwIP\src\core\ipv4/igmp.c **** 
 700:Source\LwIP\src\core\ipv4/igmp.c ****   if (group->timer == 0) {
 117              		.loc 1 700 0 is_stmt 1 discriminator 4
 118 001c 0029     		cmp	r1, #0
 119 001e 01D1     		bne	.L8
 701:Source\LwIP\src\core\ipv4/igmp.c ****     group->timer = 1;
 120              		.loc 1 701 0
 121 0020 0123     		movs	r3, #1
 122 0022 6381     		strh	r3, [r4, #10]
 123              	.L8:
 702:Source\LwIP\src\core\ipv4/igmp.c ****   }
 703:Source\LwIP\src\core\ipv4/igmp.c **** }
 124              		.loc 1 703 0
 125              		@ sp needed
 126              	.LVL12:
 127 0024 70BD     		pop	{r4, r5, r6, pc}
 128              		.cfi_endproc
 129              	.LFE67:
 130              		.size	igmp_start_timer, .-igmp_start_timer
 131 0026 C046     		.section	.text.igmp_delaying_member,"ax",%progbits
 132              		.align	2
 133              		.code	16
 134              		.thumb_func
 135              		.type	igmp_delaying_member, %function
 136              	igmp_delaying_member:
 137              	.LFB68:
 704:Source\LwIP\src\core\ipv4/igmp.c **** 
 705:Source\LwIP\src\core\ipv4/igmp.c **** /**
 706:Source\LwIP\src\core\ipv4/igmp.c ****  * Delaying membership report for a group if necessary
 707:Source\LwIP\src\core\ipv4/igmp.c ****  *
 708:Source\LwIP\src\core\ipv4/igmp.c ****  * @param group the igmp_group for which "delaying" membership report
 709:Source\LwIP\src\core\ipv4/igmp.c ****  * @param maxresp query delay
 710:Source\LwIP\src\core\ipv4/igmp.c ****  */
 711:Source\LwIP\src\core\ipv4/igmp.c **** static void
 712:Source\LwIP\src\core\ipv4/igmp.c **** igmp_delaying_member(struct igmp_group *group, u8_t maxresp)
 713:Source\LwIP\src\core\ipv4/igmp.c **** {
 138              		.loc 1 713 0
 139              		.cfi_startproc
ARM GAS  C:\Users\Phuong\AppData\Local\Temp\ccKPluhm.s 			page 16


 140              		@ args = 0, pretend = 0, frame = 0
 141              		@ frame_needed = 0, uses_anonymous_args = 0
 142              	.LVL13:
 143 0000 10B5     		push	{r4, lr}
 144              		.cfi_def_cfa_offset 8
 145              		.cfi_offset 4, -8
 146              		.cfi_offset 14, -4
 147 0002 0400     		movs	r4, r0
 714:Source\LwIP\src\core\ipv4/igmp.c ****   if ((group->group_state == IGMP_GROUP_IDLE_MEMBER) ||
 148              		.loc 1 714 0
 149 0004 437A     		ldrb	r3, [r0, #9]
 150 0006 022B     		cmp	r3, #2
 151 0008 07D0     		beq	.L13
 152              		.loc 1 714 0 is_stmt 0 discriminator 1
 153 000a 012B     		cmp	r3, #1
 154 000c 0AD1     		bne	.L12
 715:Source\LwIP\src\core\ipv4/igmp.c ****      ((group->group_state == IGMP_GROUP_DELAYING_MEMBER) &&
 716:Source\LwIP\src\core\ipv4/igmp.c ****       ((group->timer == 0) || (maxresp < group->timer)))) {
 155              		.loc 1 716 0 is_stmt 1
 156 000e 4389     		ldrh	r3, [r0, #10]
 715:Source\LwIP\src\core\ipv4/igmp.c ****      ((group->group_state == IGMP_GROUP_DELAYING_MEMBER) &&
 157              		.loc 1 715 0
 158 0010 002B     		cmp	r3, #0
 159 0012 02D0     		beq	.L13
 160              		.loc 1 716 0
 161 0014 8AB2     		uxth	r2, r1
 162 0016 9342     		cmp	r3, r2
 163 0018 04D9     		bls	.L12
 164              	.L13:
 717:Source\LwIP\src\core\ipv4/igmp.c ****     igmp_start_timer(group, maxresp);
 165              		.loc 1 717 0
 166 001a 2000     		movs	r0, r4
 167              	.LVL14:
 168 001c FFF7FEFF 		bl	igmp_start_timer
 169              	.LVL15:
 718:Source\LwIP\src\core\ipv4/igmp.c ****     group->group_state = IGMP_GROUP_DELAYING_MEMBER;
 170              		.loc 1 718 0
 171 0020 0123     		movs	r3, #1
 172 0022 6372     		strb	r3, [r4, #9]
 173              	.L12:
 719:Source\LwIP\src\core\ipv4/igmp.c ****   }
 720:Source\LwIP\src\core\ipv4/igmp.c **** }
 174              		.loc 1 720 0
 175              		@ sp needed
 176              	.LVL16:
 177 0024 10BD     		pop	{r4, pc}
 178              		.cfi_endproc
 179              	.LFE68:
 180              		.size	igmp_delaying_member, .-igmp_delaying_member
 181 0026 C046     		.section	.text.igmp_ip_output_if,"ax",%progbits
 182              		.align	2
 183              		.code	16
 184              		.thumb_func
 185              		.type	igmp_ip_output_if, %function
 186              	igmp_ip_output_if:
 187              	.LFB69:
 721:Source\LwIP\src\core\ipv4/igmp.c **** 
ARM GAS  C:\Users\Phuong\AppData\Local\Temp\ccKPluhm.s 			page 17


 722:Source\LwIP\src\core\ipv4/igmp.c **** 
 723:Source\LwIP\src\core\ipv4/igmp.c **** /**
 724:Source\LwIP\src\core\ipv4/igmp.c ****  * Sends an IP packet on a network interface. This function constructs the IP header
 725:Source\LwIP\src\core\ipv4/igmp.c ****  * and calculates the IP header checksum. If the source IP address is NULL,
 726:Source\LwIP\src\core\ipv4/igmp.c ****  * the IP address of the outgoing network interface is filled in as source address.
 727:Source\LwIP\src\core\ipv4/igmp.c ****  *
 728:Source\LwIP\src\core\ipv4/igmp.c ****  * @param p the packet to send (p->payload points to the data, e.g. next
 729:Source\LwIP\src\core\ipv4/igmp.c ****             protocol header; if dest == LWIP_IP_HDRINCL, p already includes an
 730:Source\LwIP\src\core\ipv4/igmp.c ****             IP header and p->payload points to that IP header)
 731:Source\LwIP\src\core\ipv4/igmp.c ****  * @param src the source IP address to send from (if src == IP4_ADDR_ANY, the
 732:Source\LwIP\src\core\ipv4/igmp.c ****  *         IP  address of the netif used to send is used as source address)
 733:Source\LwIP\src\core\ipv4/igmp.c ****  * @param dest the destination IP address to send the packet to
 734:Source\LwIP\src\core\ipv4/igmp.c ****  * @param netif the netif on which to send this packet
 735:Source\LwIP\src\core\ipv4/igmp.c ****  * @return ERR_OK if the packet was sent OK
 736:Source\LwIP\src\core\ipv4/igmp.c ****  *         ERR_BUF if p doesn't have enough space for IP/LINK headers
 737:Source\LwIP\src\core\ipv4/igmp.c ****  *         returns errors returned by netif->output
 738:Source\LwIP\src\core\ipv4/igmp.c ****  */
 739:Source\LwIP\src\core\ipv4/igmp.c **** static err_t
 740:Source\LwIP\src\core\ipv4/igmp.c **** igmp_ip_output_if(struct pbuf *p, const ip4_addr_t *src, const ip4_addr_t *dest, struct netif *neti
 741:Source\LwIP\src\core\ipv4/igmp.c **** {
 188              		.loc 1 741 0
 189              		.cfi_startproc
 190              		@ args = 0, pretend = 0, frame = 8
 191              		@ frame_needed = 0, uses_anonymous_args = 0
 192              	.LVL17:
 193 0000 F0B5     		push	{r4, r5, r6, r7, lr}
 194              		.cfi_def_cfa_offset 20
 195              		.cfi_offset 4, -20
 196              		.cfi_offset 5, -16
 197              		.cfi_offset 6, -12
 198              		.cfi_offset 7, -8
 199              		.cfi_offset 14, -4
 200 0002 89B0     		sub	sp, sp, #36
 201              		.cfi_def_cfa_offset 56
 202 0004 9C46     		mov	ip, r3
 742:Source\LwIP\src\core\ipv4/igmp.c ****   /* This is the "router alert" option */
 743:Source\LwIP\src\core\ipv4/igmp.c ****   u16_t ra[2];
 744:Source\LwIP\src\core\ipv4/igmp.c ****   ra[0] = PP_HTONS(ROUTER_ALERT);
 203              		.loc 1 744 0
 204 0006 07AC     		add	r4, sp, #28
 205 0008 0A4B     		ldr	r3, .L16
 206              	.LVL18:
 207 000a 2380     		strh	r3, [r4]
 745:Source\LwIP\src\core\ipv4/igmp.c ****   ra[1] = 0x0000; /* Router shall examine packet */
 208              		.loc 1 745 0
 209 000c 0026     		movs	r6, #0
 210 000e 6680     		strh	r6, [r4, #2]
 746:Source\LwIP\src\core\ipv4/igmp.c ****   IGMP_STATS_INC(igmp.xmit);
 211              		.loc 1 746 0
 212 0010 094B     		ldr	r3, .L16+4
 213 0012 7827     		movs	r7, #120
 214 0014 DD5B     		ldrh	r5, [r3, r7]
 215 0016 0135     		adds	r5, r5, #1
 216 0018 DD53     		strh	r5, [r3, r7]
 747:Source\LwIP\src\core\ipv4/igmp.c ****   return ip4_output_if_opt(p, src, dest, IGMP_TTL, 0, IP_PROTO_IGMP, netif, ra, ROUTER_ALERTLEN);
 217              		.loc 1 747 0
 218 001a 0423     		movs	r3, #4
ARM GAS  C:\Users\Phuong\AppData\Local\Temp\ccKPluhm.s 			page 18


 219 001c 0493     		str	r3, [sp, #16]
 220 001e 0394     		str	r4, [sp, #12]
 221 0020 6346     		mov	r3, ip
 222 0022 0293     		str	r3, [sp, #8]
 223 0024 0223     		movs	r3, #2
 224 0026 0193     		str	r3, [sp, #4]
 225 0028 0096     		str	r6, [sp]
 226 002a 013B     		subs	r3, r3, #1
 227 002c FFF7FEFF 		bl	ip4_output_if_opt
 228              	.LVL19:
 748:Source\LwIP\src\core\ipv4/igmp.c **** }
 229              		.loc 1 748 0
 230 0030 09B0     		add	sp, sp, #36
 231              		@ sp needed
 232 0032 F0BD     		pop	{r4, r5, r6, r7, pc}
 233              	.L17:
 234              		.align	2
 235              	.L16:
 236 0034 94040000 		.word	1172
 237 0038 00000000 		.word	lwip_stats
 238              		.cfi_endproc
 239              	.LFE69:
 240              		.size	igmp_ip_output_if, .-igmp_ip_output_if
 241              		.section	.text.igmp_send,"ax",%progbits
 242              		.align	2
 243              		.code	16
 244              		.thumb_func
 245              		.type	igmp_send, %function
 246              	igmp_send:
 247              	.LFB70:
 749:Source\LwIP\src\core\ipv4/igmp.c **** 
 750:Source\LwIP\src\core\ipv4/igmp.c **** /**
 751:Source\LwIP\src\core\ipv4/igmp.c ****  * Send an igmp packet to a specific group.
 752:Source\LwIP\src\core\ipv4/igmp.c ****  *
 753:Source\LwIP\src\core\ipv4/igmp.c ****  * @param group the group to which to send the packet
 754:Source\LwIP\src\core\ipv4/igmp.c ****  * @param type the type of igmp packet to send
 755:Source\LwIP\src\core\ipv4/igmp.c ****  */
 756:Source\LwIP\src\core\ipv4/igmp.c **** static void
 757:Source\LwIP\src\core\ipv4/igmp.c **** igmp_send(struct netif *netif, struct igmp_group *group, u8_t type)
 758:Source\LwIP\src\core\ipv4/igmp.c **** {
 248              		.loc 1 758 0
 249              		.cfi_startproc
 250              		@ args = 0, pretend = 0, frame = 8
 251              		@ frame_needed = 0, uses_anonymous_args = 0
 252              	.LVL20:
 253 0000 F0B5     		push	{r4, r5, r6, r7, lr}
 254              		.cfi_def_cfa_offset 20
 255              		.cfi_offset 4, -20
 256              		.cfi_offset 5, -16
 257              		.cfi_offset 6, -12
 258              		.cfi_offset 7, -8
 259              		.cfi_offset 14, -4
 260 0002 4F46     		mov	r7, r9
 261 0004 4646     		mov	r6, r8
 262 0006 C0B4     		push	{r6, r7}
 263              		.cfi_def_cfa_offset 28
 264              		.cfi_offset 8, -28
ARM GAS  C:\Users\Phuong\AppData\Local\Temp\ccKPluhm.s 			page 19


 265              		.cfi_offset 9, -24
 266 0008 83B0     		sub	sp, sp, #12
 267              		.cfi_def_cfa_offset 40
 268 000a 0700     		movs	r7, r0
 269 000c 8846     		mov	r8, r1
 270 000e 1600     		movs	r6, r2
 271              	.LVL21:
 759:Source\LwIP\src\core\ipv4/igmp.c ****   struct pbuf*     p    = NULL;
 760:Source\LwIP\src\core\ipv4/igmp.c ****   struct igmp_msg* igmp = NULL;
 761:Source\LwIP\src\core\ipv4/igmp.c ****   ip4_addr_t   src  = *IP4_ADDR_ANY4;
 272              		.loc 1 761 0
 273 0010 294B     		ldr	r3, .L25
 274 0012 1B68     		ldr	r3, [r3]
 275 0014 0193     		str	r3, [sp, #4]
 276              	.LVL22:
 762:Source\LwIP\src\core\ipv4/igmp.c ****   ip4_addr_t*  dest = NULL;
 763:Source\LwIP\src\core\ipv4/igmp.c **** 
 764:Source\LwIP\src\core\ipv4/igmp.c ****   /* IP header + "router alert" option + IGMP header */
 765:Source\LwIP\src\core\ipv4/igmp.c ****   p = pbuf_alloc(PBUF_TRANSPORT, IGMP_MINLEN, PBUF_RAM);
 277              		.loc 1 765 0
 278 0016 0022     		movs	r2, #0
 279              	.LVL23:
 280 0018 0821     		movs	r1, #8
 281              	.LVL24:
 282 001a 0020     		movs	r0, #0
 283              	.LVL25:
 284 001c FFF7FEFF 		bl	pbuf_alloc
 285              	.LVL26:
 286 0020 041E     		subs	r4, r0, #0
 287              	.LVL27:
 766:Source\LwIP\src\core\ipv4/igmp.c **** 
 767:Source\LwIP\src\core\ipv4/igmp.c ****   if (p) {
 288              		.loc 1 767 0
 289 0022 3FD0     		beq	.L19
 768:Source\LwIP\src\core\ipv4/igmp.c ****     igmp = (struct igmp_msg *)p->payload;
 290              		.loc 1 768 0
 291 0024 4568     		ldr	r5, [r0, #4]
 292              	.LVL28:
 769:Source\LwIP\src\core\ipv4/igmp.c ****     LWIP_ASSERT("igmp_send: check that first pbuf can hold struct igmp_msg",
 770:Source\LwIP\src\core\ipv4/igmp.c ****                (p->len >= sizeof(struct igmp_msg)));
 771:Source\LwIP\src\core\ipv4/igmp.c ****     ip4_addr_copy(src, *netif_ip4_addr(netif));
 293              		.loc 1 771 0
 294 0026 7B68     		ldr	r3, [r7, #4]
 295 0028 0193     		str	r3, [sp, #4]
 772:Source\LwIP\src\core\ipv4/igmp.c **** 
 773:Source\LwIP\src\core\ipv4/igmp.c ****     if (type == IGMP_V2_MEMB_REPORT) {
 296              		.loc 1 773 0
 297 002a 162E     		cmp	r6, #22
 298 002c 0FD1     		bne	.L20
 774:Source\LwIP\src\core\ipv4/igmp.c ****       dest = &(group->group_address);
 299              		.loc 1 774 0
 300 002e 0423     		movs	r3, #4
 301 0030 4344     		add	r3, r3, r8
 302 0032 9946     		mov	r9, r3
 303              	.LVL29:
 775:Source\LwIP\src\core\ipv4/igmp.c ****       ip4_addr_copy(igmp->igmp_group_address, group->group_address);
 304              		.loc 1 775 0
ARM GAS  C:\Users\Phuong\AppData\Local\Temp\ccKPluhm.s 			page 20


 305 0034 4346     		mov	r3, r8
 306              	.LVL30:
 307 0036 5B68     		ldr	r3, [r3, #4]
 308 0038 2B71     		strb	r3, [r5, #4]
 309 003a 1A0A     		lsrs	r2, r3, #8
 310 003c 6A71     		strb	r2, [r5, #5]
 311 003e 1A0C     		lsrs	r2, r3, #16
 312 0040 AA71     		strb	r2, [r5, #6]
 313 0042 1B0E     		lsrs	r3, r3, #24
 314 0044 EB71     		strb	r3, [r5, #7]
 776:Source\LwIP\src\core\ipv4/igmp.c ****       group->last_reporter_flag = 1; /* Remember we were the last to report */
 315              		.loc 1 776 0
 316 0046 0123     		movs	r3, #1
 317 0048 4246     		mov	r2, r8
 318 004a 1372     		strb	r3, [r2, #8]
 319 004c 0FE0     		b	.L21
 320              	.LVL31:
 321              	.L20:
 777:Source\LwIP\src\core\ipv4/igmp.c ****     } else {
 778:Source\LwIP\src\core\ipv4/igmp.c ****       if (type == IGMP_LEAVE_GROUP) {
 322              		.loc 1 778 0
 323 004e 172E     		cmp	r6, #23
 324 0050 0BD1     		bne	.L24
 325              	.LVL32:
 779:Source\LwIP\src\core\ipv4/igmp.c ****         dest = &allrouters;
 780:Source\LwIP\src\core\ipv4/igmp.c ****         ip4_addr_copy(igmp->igmp_group_address, group->group_address);
 326              		.loc 1 780 0
 327 0052 4346     		mov	r3, r8
 328 0054 5B68     		ldr	r3, [r3, #4]
 329 0056 2B71     		strb	r3, [r5, #4]
 330 0058 1A0A     		lsrs	r2, r3, #8
 331 005a 6A71     		strb	r2, [r5, #5]
 332 005c 1A0C     		lsrs	r2, r3, #16
 333 005e AA71     		strb	r2, [r5, #6]
 334 0060 1B0E     		lsrs	r3, r3, #24
 335 0062 EB71     		strb	r3, [r5, #7]
 779:Source\LwIP\src\core\ipv4/igmp.c ****         dest = &allrouters;
 336              		.loc 1 779 0
 337 0064 154B     		ldr	r3, .L25+4
 338 0066 9946     		mov	r9, r3
 339 0068 01E0     		b	.L21
 340              	.LVL33:
 341              	.L24:
 762:Source\LwIP\src\core\ipv4/igmp.c **** 
 342              		.loc 1 762 0
 343 006a 0023     		movs	r3, #0
 344 006c 9946     		mov	r9, r3
 345              	.LVL34:
 346              	.L21:
 781:Source\LwIP\src\core\ipv4/igmp.c ****       }
 782:Source\LwIP\src\core\ipv4/igmp.c ****     }
 783:Source\LwIP\src\core\ipv4/igmp.c **** 
 784:Source\LwIP\src\core\ipv4/igmp.c ****     if ((type == IGMP_V2_MEMB_REPORT) || (type == IGMP_LEAVE_GROUP)) {
 347              		.loc 1 784 0
 348 006e 3300     		movs	r3, r6
 349 0070 163B     		subs	r3, r3, #22
 350 0072 DBB2     		uxtb	r3, r3
ARM GAS  C:\Users\Phuong\AppData\Local\Temp\ccKPluhm.s 			page 21


 351 0074 012B     		cmp	r3, #1
 352 0076 11D8     		bhi	.L22
 785:Source\LwIP\src\core\ipv4/igmp.c ****       igmp->igmp_msgtype  = type;
 353              		.loc 1 785 0
 354 0078 2E70     		strb	r6, [r5]
 786:Source\LwIP\src\core\ipv4/igmp.c ****       igmp->igmp_maxresp  = 0;
 355              		.loc 1 786 0
 356 007a 0023     		movs	r3, #0
 357 007c 6B70     		strb	r3, [r5, #1]
 787:Source\LwIP\src\core\ipv4/igmp.c ****       igmp->igmp_checksum = 0;
 358              		.loc 1 787 0
 359 007e AB70     		strb	r3, [r5, #2]
 360 0080 EB70     		strb	r3, [r5, #3]
 788:Source\LwIP\src\core\ipv4/igmp.c ****       igmp->igmp_checksum = inet_chksum(igmp, IGMP_MINLEN);
 361              		.loc 1 788 0
 362 0082 0821     		movs	r1, #8
 363 0084 2800     		movs	r0, r5
 364              	.LVL35:
 365 0086 FFF7FEFF 		bl	inet_chksum
 366              	.LVL36:
 367 008a A870     		strb	r0, [r5, #2]
 368 008c 000A     		lsrs	r0, r0, #8
 369 008e E870     		strb	r0, [r5, #3]
 789:Source\LwIP\src\core\ipv4/igmp.c **** 
 790:Source\LwIP\src\core\ipv4/igmp.c ****       igmp_ip_output_if(p, &src, dest, netif);
 370              		.loc 1 790 0
 371 0090 3B00     		movs	r3, r7
 372 0092 4A46     		mov	r2, r9
 373 0094 01A9     		add	r1, sp, #4
 374 0096 2000     		movs	r0, r4
 375 0098 FFF7FEFF 		bl	igmp_ip_output_if
 376              	.LVL37:
 377              	.L22:
 791:Source\LwIP\src\core\ipv4/igmp.c ****     }
 792:Source\LwIP\src\core\ipv4/igmp.c **** 
 793:Source\LwIP\src\core\ipv4/igmp.c ****     pbuf_free(p);
 378              		.loc 1 793 0
 379 009c 2000     		movs	r0, r4
 380 009e FFF7FEFF 		bl	pbuf_free
 381              	.LVL38:
 382 00a2 04E0     		b	.L18
 383              	.LVL39:
 384              	.L19:
 794:Source\LwIP\src\core\ipv4/igmp.c ****   } else {
 795:Source\LwIP\src\core\ipv4/igmp.c ****     LWIP_DEBUGF(IGMP_DEBUG, ("igmp_send: not enough memory for igmp_send\n"));
 796:Source\LwIP\src\core\ipv4/igmp.c ****     IGMP_STATS_INC(igmp.memerr);
 385              		.loc 1 796 0
 386 00a4 0649     		ldr	r1, .L25+8
 387 00a6 8222     		movs	r2, #130
 388 00a8 8B5A     		ldrh	r3, [r1, r2]
 389 00aa 0133     		adds	r3, r3, #1
 390 00ac 8B52     		strh	r3, [r1, r2]
 391              	.LVL40:
 392              	.L18:
 797:Source\LwIP\src\core\ipv4/igmp.c ****   }
 798:Source\LwIP\src\core\ipv4/igmp.c **** }
 393              		.loc 1 798 0
ARM GAS  C:\Users\Phuong\AppData\Local\Temp\ccKPluhm.s 			page 22


 394 00ae 03B0     		add	sp, sp, #12
 395              		@ sp needed
 396              	.LVL41:
 397              	.LVL42:
 398              	.LVL43:
 399 00b0 0CBC     		pop	{r2, r3}
 400 00b2 9046     		mov	r8, r2
 401 00b4 9946     		mov	r9, r3
 402 00b6 F0BD     		pop	{r4, r5, r6, r7, pc}
 403              	.L26:
 404              		.align	2
 405              	.L25:
 406 00b8 00000000 		.word	ip_addr_any
 407 00bc 00000000 		.word	.LANCHOR0
 408 00c0 00000000 		.word	lwip_stats
 409              		.cfi_endproc
 410              	.LFE70:
 411              		.size	igmp_send, .-igmp_send
 412              		.section	.text.igmp_timeout,"ax",%progbits
 413              		.align	2
 414              		.code	16
 415              		.thumb_func
 416              		.type	igmp_timeout, %function
 417              	igmp_timeout:
 418              	.LFB66:
 667:Source\LwIP\src\core\ipv4/igmp.c ****   /* If the state is IGMP_GROUP_DELAYING_MEMBER then we send a report for this group
 419              		.loc 1 667 0
 420              		.cfi_startproc
 421              		@ args = 0, pretend = 0, frame = 0
 422              		@ frame_needed = 0, uses_anonymous_args = 0
 423              	.LVL44:
 424 0000 10B5     		push	{r4, lr}
 425              		.cfi_def_cfa_offset 8
 426              		.cfi_offset 4, -8
 427              		.cfi_offset 14, -4
 670:Source\LwIP\src\core\ipv4/igmp.c ****       (!(ip4_addr_cmp(&(group->group_address), &allsystems)))) {
 428              		.loc 1 670 0
 429 0002 4B7A     		ldrb	r3, [r1, #9]
 430 0004 012B     		cmp	r3, #1
 431 0006 0ED1     		bne	.L27
 671:Source\LwIP\src\core\ipv4/igmp.c ****     LWIP_DEBUGF(IGMP_DEBUG, ("igmp_timeout: report membership for group with address "));
 432              		.loc 1 671 0 discriminator 1
 433 0008 074B     		ldr	r3, .L29
 434 000a 5B68     		ldr	r3, [r3, #4]
 670:Source\LwIP\src\core\ipv4/igmp.c ****       (!(ip4_addr_cmp(&(group->group_address), &allsystems)))) {
 435              		.loc 1 670 0 discriminator 1
 436 000c 4A68     		ldr	r2, [r1, #4]
 437 000e 9A42     		cmp	r2, r3
 438 0010 09D0     		beq	.L27
 676:Source\LwIP\src\core\ipv4/igmp.c ****     
 439              		.loc 1 676 0
 440 0012 0223     		movs	r3, #2
 441 0014 4B72     		strb	r3, [r1, #9]
 678:Source\LwIP\src\core\ipv4/igmp.c ****     igmp_send(netif, group, IGMP_V2_MEMB_REPORT);
 442              		.loc 1 678 0
 443 0016 054C     		ldr	r4, .L29+4
 444 0018 9222     		movs	r2, #146
ARM GAS  C:\Users\Phuong\AppData\Local\Temp\ccKPluhm.s 			page 23


 445 001a A35A     		ldrh	r3, [r4, r2]
 446 001c 0133     		adds	r3, r3, #1
 447 001e A352     		strh	r3, [r4, r2]
 679:Source\LwIP\src\core\ipv4/igmp.c ****   }
 448              		.loc 1 679 0
 449 0020 7C3A     		subs	r2, r2, #124
 450 0022 FFF7FEFF 		bl	igmp_send
 451              	.LVL45:
 452              	.L27:
 681:Source\LwIP\src\core\ipv4/igmp.c **** 
 453              		.loc 1 681 0
 454              		@ sp needed
 455 0026 10BD     		pop	{r4, pc}
 456              	.L30:
 457              		.align	2
 458              	.L29:
 459 0028 00000000 		.word	.LANCHOR0
 460 002c 00000000 		.word	lwip_stats
 461              		.cfi_endproc
 462              	.LFE66:
 463              		.size	igmp_timeout, .-igmp_timeout
 464              		.section	.text.igmp_init,"ax",%progbits
 465              		.align	2
 466              		.global	igmp_init
 467              		.code	16
 468              		.thumb_func
 469              		.type	igmp_init, %function
 470              	igmp_init:
 471              	.LFB53:
 115:Source\LwIP\src\core\ipv4/igmp.c ****   LWIP_DEBUGF(IGMP_DEBUG, ("igmp_init: initializing\n"));
 472              		.loc 1 115 0
 473              		.cfi_startproc
 474              		@ args = 0, pretend = 0, frame = 0
 475              		@ frame_needed = 0, uses_anonymous_args = 0
 476              		@ link register save eliminated.
 118:Source\LwIP\src\core\ipv4/igmp.c ****   IP4_ADDR(&allrouters, 224, 0, 0, 2);
 477              		.loc 1 118 0
 478 0000 024B     		ldr	r3, .L32
 479 0002 034A     		ldr	r2, .L32+4
 480 0004 5A60     		str	r2, [r3, #4]
 119:Source\LwIP\src\core\ipv4/igmp.c **** }
 481              		.loc 1 119 0
 482 0006 034A     		ldr	r2, .L32+8
 483 0008 1A60     		str	r2, [r3]
 120:Source\LwIP\src\core\ipv4/igmp.c **** 
 484              		.loc 1 120 0
 485              		@ sp needed
 486 000a 7047     		bx	lr
 487              	.L33:
 488              		.align	2
 489              	.L32:
 490 000c 00000000 		.word	.LANCHOR0
 491 0010 E0000001 		.word	16777440
 492 0014 E0000002 		.word	33554656
 493              		.cfi_endproc
 494              	.LFE53:
 495              		.size	igmp_init, .-igmp_init
ARM GAS  C:\Users\Phuong\AppData\Local\Temp\ccKPluhm.s 			page 24


 496              		.section	.text.igmp_stop,"ax",%progbits
 497              		.align	2
 498              		.global	igmp_stop
 499              		.code	16
 500              		.thumb_func
 501              		.type	igmp_stop, %function
 502              	igmp_stop:
 503              	.LFB55:
 161:Source\LwIP\src\core\ipv4/igmp.c ****   struct igmp_group *group = netif_igmp_data(netif);
 504              		.loc 1 161 0
 505              		.cfi_startproc
 506              		@ args = 0, pretend = 0, frame = 0
 507              		@ frame_needed = 0, uses_anonymous_args = 0
 508              	.LVL46:
 509 0000 70B5     		push	{r4, r5, r6, lr}
 510              		.cfi_def_cfa_offset 16
 511              		.cfi_offset 4, -16
 512              		.cfi_offset 5, -12
 513              		.cfi_offset 6, -8
 514              		.cfi_offset 14, -4
 515 0002 0600     		movs	r6, r0
 162:Source\LwIP\src\core\ipv4/igmp.c **** 
 516              		.loc 1 162 0
 517 0004 846A     		ldr	r4, [r0, #40]
 518              	.LVL47:
 164:Source\LwIP\src\core\ipv4/igmp.c **** 
 519              		.loc 1 164 0
 520 0006 0023     		movs	r3, #0
 521 0008 8362     		str	r3, [r0, #40]
 166:Source\LwIP\src\core\ipv4/igmp.c ****     struct igmp_group *next = group->next; /* avoid use-after-free below */
 522              		.loc 1 166 0
 523 000a 0CE0     		b	.L35
 524              	.LVL48:
 525              	.L37:
 526              	.LBB2:
 167:Source\LwIP\src\core\ipv4/igmp.c **** 
 527              		.loc 1 167 0
 528 000c 2568     		ldr	r5, [r4]
 529              	.LVL49:
 170:Source\LwIP\src\core\ipv4/igmp.c ****       LWIP_DEBUGF(IGMP_DEBUG, ("igmp_stop: igmp_mac_filter(DEL "));
 530              		.loc 1 170 0
 531 000e 736C     		ldr	r3, [r6, #68]
 532 0010 002B     		cmp	r3, #0
 533 0012 03D0     		beq	.L36
 174:Source\LwIP\src\core\ipv4/igmp.c ****     }
 534              		.loc 1 174 0
 535 0014 211D     		adds	r1, r4, #4
 536 0016 0022     		movs	r2, #0
 537 0018 3000     		movs	r0, r6
 538 001a 9847     		blx	r3
 539              	.LVL50:
 540              	.L36:
 178:Source\LwIP\src\core\ipv4/igmp.c **** 
 541              		.loc 1 178 0
 542 001c 2100     		movs	r1, r4
 543 001e 0B20     		movs	r0, #11
 544 0020 FFF7FEFF 		bl	memp_free
ARM GAS  C:\Users\Phuong\AppData\Local\Temp\ccKPluhm.s 			page 25


 545              	.LVL51:
 181:Source\LwIP\src\core\ipv4/igmp.c ****   }
 546              		.loc 1 181 0
 547 0024 2C00     		movs	r4, r5
 548              	.LVL52:
 549              	.L35:
 550              	.LBE2:
 166:Source\LwIP\src\core\ipv4/igmp.c ****     struct igmp_group *next = group->next; /* avoid use-after-free below */
 551              		.loc 1 166 0
 552 0026 002C     		cmp	r4, #0
 553 0028 F0D1     		bne	.L37
 184:Source\LwIP\src\core\ipv4/igmp.c **** 
 554              		.loc 1 184 0
 555 002a 0020     		movs	r0, #0
 556              		@ sp needed
 557              	.LVL53:
 558              	.LVL54:
 559 002c 70BD     		pop	{r4, r5, r6, pc}
 560              		.cfi_endproc
 561              	.LFE55:
 562              		.size	igmp_stop, .-igmp_stop
 563 002e C046     		.section	.text.igmp_report_groups,"ax",%progbits
 564              		.align	2
 565              		.global	igmp_report_groups
 566              		.code	16
 567              		.thumb_func
 568              		.type	igmp_report_groups, %function
 569              	igmp_report_groups:
 570              	.LFB56:
 193:Source\LwIP\src\core\ipv4/igmp.c ****   struct igmp_group *group = netif_igmp_data(netif);
 571              		.loc 1 193 0
 572              		.cfi_startproc
 573              		@ args = 0, pretend = 0, frame = 0
 574              		@ frame_needed = 0, uses_anonymous_args = 0
 575              	.LVL55:
 576 0000 10B5     		push	{r4, lr}
 577              		.cfi_def_cfa_offset 8
 578              		.cfi_offset 4, -8
 579              		.cfi_offset 14, -4
 194:Source\LwIP\src\core\ipv4/igmp.c **** 
 580              		.loc 1 194 0
 581 0002 846A     		ldr	r4, [r0, #40]
 582              	.LVL56:
 199:Source\LwIP\src\core\ipv4/igmp.c ****     group = group->next;
 583              		.loc 1 199 0
 584 0004 002C     		cmp	r4, #0
 585 0006 06D0     		beq	.L40
 200:Source\LwIP\src\core\ipv4/igmp.c ****   }
 586              		.loc 1 200 0
 587 0008 2468     		ldr	r4, [r4]
 588              	.LVL57:
 589 000a 04E0     		b	.L40
 590              	.LVL58:
 591              	.L41:
 204:Source\LwIP\src\core\ipv4/igmp.c ****     group = group->next;
 592              		.loc 1 204 0
 593 000c 0521     		movs	r1, #5
ARM GAS  C:\Users\Phuong\AppData\Local\Temp\ccKPluhm.s 			page 26


 594 000e 2000     		movs	r0, r4
 595 0010 FFF7FEFF 		bl	igmp_delaying_member
 596              	.LVL59:
 205:Source\LwIP\src\core\ipv4/igmp.c ****   }
 597              		.loc 1 205 0
 598 0014 2468     		ldr	r4, [r4]
 599              	.LVL60:
 600              	.L40:
 203:Source\LwIP\src\core\ipv4/igmp.c ****     igmp_delaying_member(group, IGMP_JOIN_DELAYING_MEMBER_TMR);
 601              		.loc 1 203 0
 602 0016 002C     		cmp	r4, #0
 603 0018 F8D1     		bne	.L41
 207:Source\LwIP\src\core\ipv4/igmp.c **** 
 604              		.loc 1 207 0
 605              		@ sp needed
 606              	.LVL61:
 607 001a 10BD     		pop	{r4, pc}
 608              		.cfi_endproc
 609              	.LFE56:
 610              		.size	igmp_report_groups, .-igmp_report_groups
 611              		.section	.text.igmp_lookfor_group,"ax",%progbits
 612              		.align	2
 613              		.global	igmp_lookfor_group
 614              		.code	16
 615              		.thumb_func
 616              		.type	igmp_lookfor_group, %function
 617              	igmp_lookfor_group:
 618              	.LFB57:
 219:Source\LwIP\src\core\ipv4/igmp.c ****   struct igmp_group *group = netif_igmp_data(ifp);
 619              		.loc 1 219 0
 620              		.cfi_startproc
 621              		@ args = 0, pretend = 0, frame = 0
 622              		@ frame_needed = 0, uses_anonymous_args = 0
 623              		@ link register save eliminated.
 624              	.LVL62:
 220:Source\LwIP\src\core\ipv4/igmp.c **** 
 625              		.loc 1 220 0
 626 0000 806A     		ldr	r0, [r0, #40]
 627              	.LVL63:
 222:Source\LwIP\src\core\ipv4/igmp.c ****     if (ip4_addr_cmp(&(group->group_address), addr)) {
 628              		.loc 1 222 0
 629 0002 04E0     		b	.L43
 630              	.L45:
 223:Source\LwIP\src\core\ipv4/igmp.c ****       return group;
 631              		.loc 1 223 0
 632 0004 4368     		ldr	r3, [r0, #4]
 633 0006 0A68     		ldr	r2, [r1]
 634 0008 9342     		cmp	r3, r2
 635 000a 02D0     		beq	.L44
 226:Source\LwIP\src\core\ipv4/igmp.c ****   }
 636              		.loc 1 226 0
 637 000c 0068     		ldr	r0, [r0]
 638              	.LVL64:
 639              	.L43:
 222:Source\LwIP\src\core\ipv4/igmp.c ****     if (ip4_addr_cmp(&(group->group_address), addr)) {
 640              		.loc 1 222 0
 641 000e 0028     		cmp	r0, #0
ARM GAS  C:\Users\Phuong\AppData\Local\Temp\ccKPluhm.s 			page 27


 642 0010 F8D1     		bne	.L45
 643              	.L44:
 233:Source\LwIP\src\core\ipv4/igmp.c **** 
 644              		.loc 1 233 0
 645              		@ sp needed
 646 0012 7047     		bx	lr
 647              		.cfi_endproc
 648              	.LFE57:
 649              		.size	igmp_lookfor_group, .-igmp_lookfor_group
 650              		.section	.text.igmp_lookup_group,"ax",%progbits
 651              		.align	2
 652              		.code	16
 653              		.thumb_func
 654              		.type	igmp_lookup_group, %function
 655              	igmp_lookup_group:
 656              	.LFB58:
 245:Source\LwIP\src\core\ipv4/igmp.c ****   struct igmp_group *group;
 657              		.loc 1 245 0
 658              		.cfi_startproc
 659              		@ args = 0, pretend = 0, frame = 0
 660              		@ frame_needed = 0, uses_anonymous_args = 0
 661              	.LVL65:
 662 0000 70B5     		push	{r4, r5, r6, lr}
 663              		.cfi_def_cfa_offset 16
 664              		.cfi_offset 4, -16
 665              		.cfi_offset 5, -12
 666              		.cfi_offset 6, -8
 667              		.cfi_offset 14, -4
 668 0002 0400     		movs	r4, r0
 669 0004 0D00     		movs	r5, r1
 247:Source\LwIP\src\core\ipv4/igmp.c **** 
 670              		.loc 1 247 0
 671 0006 866A     		ldr	r6, [r0, #40]
 672              	.LVL66:
 250:Source\LwIP\src\core\ipv4/igmp.c ****   if (group != NULL) {
 673              		.loc 1 250 0
 674 0008 FFF7FEFF 		bl	igmp_lookfor_group
 675              	.LVL67:
 251:Source\LwIP\src\core\ipv4/igmp.c ****     /* Group already exists. */
 676              		.loc 1 251 0
 677 000c 0028     		cmp	r0, #0
 678 000e 1CD1     		bne	.L48
 257:Source\LwIP\src\core\ipv4/igmp.c ****   if (group != NULL) {
 679              		.loc 1 257 0
 680 0010 0222     		movs	r2, #2
 681 0012 FF32     		adds	r2, r2, #255
 682 0014 0D49     		ldr	r1, .L54
 683 0016 0B30     		adds	r0, r0, #11
 684              	.LVL68:
 685 0018 FFF7FEFF 		bl	memp_malloc_fn
 686              	.LVL69:
 258:Source\LwIP\src\core\ipv4/igmp.c ****     ip4_addr_set(&(group->group_address), addr);
 687              		.loc 1 258 0
 688 001c 0028     		cmp	r0, #0
 689 001e 14D0     		beq	.L48
 259:Source\LwIP\src\core\ipv4/igmp.c ****     group->timer              = 0; /* Not running */
 690              		.loc 1 259 0
ARM GAS  C:\Users\Phuong\AppData\Local\Temp\ccKPluhm.s 			page 28


 691 0020 002D     		cmp	r5, #0
 692 0022 01D0     		beq	.L53
 259:Source\LwIP\src\core\ipv4/igmp.c ****     group->timer              = 0; /* Not running */
 693              		.loc 1 259 0 is_stmt 0 discriminator 1
 694 0024 2B68     		ldr	r3, [r5]
 695 0026 00E0     		b	.L49
 696              	.L53:
 259:Source\LwIP\src\core\ipv4/igmp.c ****     group->timer              = 0; /* Not running */
 697              		.loc 1 259 0
 698 0028 0023     		movs	r3, #0
 699              	.L49:
 259:Source\LwIP\src\core\ipv4/igmp.c ****     group->timer              = 0; /* Not running */
 700              		.loc 1 259 0 discriminator 4
 701 002a 4360     		str	r3, [r0, #4]
 260:Source\LwIP\src\core\ipv4/igmp.c ****     group->group_state        = IGMP_GROUP_NON_MEMBER;
 702              		.loc 1 260 0 is_stmt 1 discriminator 4
 703 002c 0023     		movs	r3, #0
 704 002e 4381     		strh	r3, [r0, #10]
 261:Source\LwIP\src\core\ipv4/igmp.c ****     group->last_reporter_flag = 0;
 705              		.loc 1 261 0 discriminator 4
 706 0030 0022     		movs	r2, #0
 707 0032 4272     		strb	r2, [r0, #9]
 262:Source\LwIP\src\core\ipv4/igmp.c ****     group->use                = 0;
 708              		.loc 1 262 0 discriminator 4
 709 0034 0372     		strb	r3, [r0, #8]
 263:Source\LwIP\src\core\ipv4/igmp.c **** 
 710              		.loc 1 263 0 discriminator 4
 711 0036 0373     		strb	r3, [r0, #12]
 266:Source\LwIP\src\core\ipv4/igmp.c ****       /* this is the first entry in linked list */
 712              		.loc 1 266 0 discriminator 4
 713 0038 002E     		cmp	r6, #0
 714 003a 03D1     		bne	.L50
 270:Source\LwIP\src\core\ipv4/igmp.c ****       netif_set_client_data(ifp, LWIP_NETIF_CLIENT_DATA_INDEX_IGMP, group);
 715              		.loc 1 270 0
 716 003c 0023     		movs	r3, #0
 717 003e 0360     		str	r3, [r0]
 271:Source\LwIP\src\core\ipv4/igmp.c ****     } else {
 718              		.loc 1 271 0
 719 0040 A062     		str	r0, [r4, #40]
 720 0042 02E0     		b	.L48
 721              	.L50:
 276:Source\LwIP\src\core\ipv4/igmp.c ****       list_head->next = group;
 722              		.loc 1 276 0
 723 0044 3368     		ldr	r3, [r6]
 724 0046 0360     		str	r3, [r0]
 277:Source\LwIP\src\core\ipv4/igmp.c ****     }
 725              		.loc 1 277 0
 726 0048 3060     		str	r0, [r6]
 727              	.L48:
 286:Source\LwIP\src\core\ipv4/igmp.c **** 
 728              		.loc 1 286 0
 729              		@ sp needed
 730              	.LVL70:
 731              	.LVL71:
 732              	.LVL72:
 733 004a 70BD     		pop	{r4, r5, r6, pc}
 734              	.L55:
ARM GAS  C:\Users\Phuong\AppData\Local\Temp\ccKPluhm.s 			page 29


 735              		.align	2
 736              	.L54:
 737 004c 00000000 		.word	.LC7
 738              		.cfi_endproc
 739              	.LFE58:
 740              		.size	igmp_lookup_group, .-igmp_lookup_group
 741              		.section	.text.igmp_start,"ax",%progbits
 742              		.align	2
 743              		.global	igmp_start
 744              		.code	16
 745              		.thumb_func
 746              		.type	igmp_start, %function
 747              	igmp_start:
 748              	.LFB54:
 129:Source\LwIP\src\core\ipv4/igmp.c ****   struct igmp_group* group;
 749              		.loc 1 129 0
 750              		.cfi_startproc
 751              		@ args = 0, pretend = 0, frame = 0
 752              		@ frame_needed = 0, uses_anonymous_args = 0
 753              	.LVL73:
 754 0000 10B5     		push	{r4, lr}
 755              		.cfi_def_cfa_offset 8
 756              		.cfi_offset 4, -8
 757              		.cfi_offset 14, -4
 758 0002 0400     		movs	r4, r0
 134:Source\LwIP\src\core\ipv4/igmp.c **** 
 759              		.loc 1 134 0
 760 0004 0C49     		ldr	r1, .L60
 761 0006 0431     		adds	r1, r1, #4
 762 0008 FFF7FEFF 		bl	igmp_lookup_group
 763              	.LVL74:
 136:Source\LwIP\src\core\ipv4/igmp.c ****     group->group_state = IGMP_GROUP_IDLE_MEMBER;
 764              		.loc 1 136 0
 765 000c 0028     		cmp	r0, #0
 766 000e 0ED0     		beq	.L58
 137:Source\LwIP\src\core\ipv4/igmp.c ****     group->use++;
 767              		.loc 1 137 0
 768 0010 0223     		movs	r3, #2
 769 0012 4372     		strb	r3, [r0, #9]
 138:Source\LwIP\src\core\ipv4/igmp.c **** 
 770              		.loc 1 138 0
 771 0014 037B     		ldrb	r3, [r0, #12]
 772 0016 0133     		adds	r3, r3, #1
 773 0018 0373     		strb	r3, [r0, #12]
 141:Source\LwIP\src\core\ipv4/igmp.c ****       LWIP_DEBUGF(IGMP_DEBUG, ("igmp_start: igmp_mac_filter(ADD "));
 774              		.loc 1 141 0
 775 001a 636C     		ldr	r3, [r4, #68]
 776 001c 002B     		cmp	r3, #0
 777 001e 09D0     		beq	.L59
 145:Source\LwIP\src\core\ipv4/igmp.c ****     }
 778              		.loc 1 145 0
 779 0020 0122     		movs	r2, #1
 780 0022 0549     		ldr	r1, .L60
 781 0024 0431     		adds	r1, r1, #4
 782 0026 2000     		movs	r0, r4
 783              	.LVL75:
 784 0028 9847     		blx	r3
ARM GAS  C:\Users\Phuong\AppData\Local\Temp\ccKPluhm.s 			page 30


 785              	.LVL76:
 148:Source\LwIP\src\core\ipv4/igmp.c ****   }
 786              		.loc 1 148 0
 787 002a 0020     		movs	r0, #0
 788 002c 03E0     		b	.L57
 789              	.LVL77:
 790              	.L58:
 151:Source\LwIP\src\core\ipv4/igmp.c **** }
 791              		.loc 1 151 0
 792 002e 0120     		movs	r0, #1
 793              	.LVL78:
 794 0030 4042     		rsbs	r0, r0, #0
 795 0032 00E0     		b	.L57
 796              	.LVL79:
 797              	.L59:
 148:Source\LwIP\src\core\ipv4/igmp.c ****   }
 798              		.loc 1 148 0
 799 0034 0020     		movs	r0, #0
 800              	.LVL80:
 801              	.L57:
 152:Source\LwIP\src\core\ipv4/igmp.c **** 
 802              		.loc 1 152 0
 803              		@ sp needed
 804              	.LVL81:
 805 0036 10BD     		pop	{r4, pc}
 806              	.L61:
 807              		.align	2
 808              	.L60:
 809 0038 00000000 		.word	.LANCHOR0
 810              		.cfi_endproc
 811              	.LFE54:
 812              		.size	igmp_start, .-igmp_start
 813              		.section	.text.igmp_input,"ax",%progbits
 814              		.align	2
 815              		.global	igmp_input
 816              		.code	16
 817              		.thumb_func
 818              		.type	igmp_input, %function
 819              	igmp_input:
 820              	.LFB60:
 324:Source\LwIP\src\core\ipv4/igmp.c ****   struct igmp_msg*   igmp;
 821              		.loc 1 324 0
 822              		.cfi_startproc
 823              		@ args = 0, pretend = 0, frame = 8
 824              		@ frame_needed = 0, uses_anonymous_args = 0
 825              	.LVL82:
 826 0000 F0B5     		push	{r4, r5, r6, r7, lr}
 827              		.cfi_def_cfa_offset 20
 828              		.cfi_offset 4, -20
 829              		.cfi_offset 5, -16
 830              		.cfi_offset 6, -12
 831              		.cfi_offset 7, -8
 832              		.cfi_offset 14, -4
 833 0002 4746     		mov	r7, r8
 834 0004 80B4     		push	{r7}
 835              		.cfi_def_cfa_offset 24
 836              		.cfi_offset 8, -24
ARM GAS  C:\Users\Phuong\AppData\Local\Temp\ccKPluhm.s 			page 31


 837 0006 82B0     		sub	sp, sp, #8
 838              		.cfi_def_cfa_offset 32
 839 0008 0600     		movs	r6, r0
 840 000a 0D00     		movs	r5, r1
 841 000c 1400     		movs	r4, r2
 329:Source\LwIP\src\core\ipv4/igmp.c **** 
 842              		.loc 1 329 0
 843 000e 5649     		ldr	r1, .L82
 844              	.LVL83:
 845 0010 7A22     		movs	r2, #122
 846              	.LVL84:
 847 0012 8B5A     		ldrh	r3, [r1, r2]
 848 0014 0133     		adds	r3, r3, #1
 849 0016 8B52     		strh	r3, [r1, r2]
 332:Source\LwIP\src\core\ipv4/igmp.c ****     pbuf_free(p);
 850              		.loc 1 332 0
 851 0018 4189     		ldrh	r1, [r0, #10]
 852 001a 0729     		cmp	r1, #7
 853 001c 07D8     		bhi	.L63
 333:Source\LwIP\src\core\ipv4/igmp.c ****     IGMP_STATS_INC(igmp.lenerr);
 854              		.loc 1 333 0
 855 001e FFF7FEFF 		bl	pbuf_free
 856              	.LVL85:
 334:Source\LwIP\src\core\ipv4/igmp.c ****     LWIP_DEBUGF(IGMP_DEBUG, ("igmp_input: length error\n"));
 857              		.loc 1 334 0
 858 0022 5149     		ldr	r1, .L82
 859 0024 8022     		movs	r2, #128
 860 0026 8B5A     		ldrh	r3, [r1, r2]
 861 0028 0133     		adds	r3, r3, #1
 862 002a 8B52     		strh	r3, [r1, r2]
 336:Source\LwIP\src\core\ipv4/igmp.c ****   }
 863              		.loc 1 336 0
 864 002c 98E0     		b	.L62
 865              	.LVL86:
 866              	.L63:
 346:Source\LwIP\src\core\ipv4/igmp.c ****   if (inet_chksum(igmp, p->len)) {
 867              		.loc 1 346 0
 868 002e 4768     		ldr	r7, [r0, #4]
 869              	.LVL87:
 347:Source\LwIP\src\core\ipv4/igmp.c ****     pbuf_free(p);
 870              		.loc 1 347 0
 871 0030 3800     		movs	r0, r7
 872              	.LVL88:
 873 0032 FFF7FEFF 		bl	inet_chksum
 874              	.LVL89:
 875 0036 0028     		cmp	r0, #0
 876 0038 08D0     		beq	.L65
 348:Source\LwIP\src\core\ipv4/igmp.c ****     IGMP_STATS_INC(igmp.chkerr);
 877              		.loc 1 348 0
 878 003a 3000     		movs	r0, r6
 879 003c FFF7FEFF 		bl	pbuf_free
 880              	.LVL90:
 349:Source\LwIP\src\core\ipv4/igmp.c ****     LWIP_DEBUGF(IGMP_DEBUG, ("igmp_input: checksum error\n"));
 881              		.loc 1 349 0
 882 0040 4949     		ldr	r1, .L82
 883 0042 7E22     		movs	r2, #126
 884 0044 8B5A     		ldrh	r3, [r1, r2]
ARM GAS  C:\Users\Phuong\AppData\Local\Temp\ccKPluhm.s 			page 32


 885 0046 0133     		adds	r3, r3, #1
 886 0048 8B52     		strh	r3, [r1, r2]
 351:Source\LwIP\src\core\ipv4/igmp.c ****   }
 887              		.loc 1 351 0
 888 004a 89E0     		b	.L62
 889              	.L65:
 355:Source\LwIP\src\core\ipv4/igmp.c **** 
 890              		.loc 1 355 0
 891 004c 2100     		movs	r1, r4
 892 004e 2800     		movs	r0, r5
 893 0050 FFF7FEFF 		bl	igmp_lookfor_group
 894              	.LVL91:
 358:Source\LwIP\src\core\ipv4/igmp.c ****     pbuf_free(p);
 895              		.loc 1 358 0
 896 0054 0028     		cmp	r0, #0
 897 0056 08D1     		bne	.L66
 359:Source\LwIP\src\core\ipv4/igmp.c ****     IGMP_STATS_INC(igmp.drop);
 898              		.loc 1 359 0
 899 0058 3000     		movs	r0, r6
 900              	.LVL92:
 901 005a FFF7FEFF 		bl	pbuf_free
 902              	.LVL93:
 360:Source\LwIP\src\core\ipv4/igmp.c ****     LWIP_DEBUGF(IGMP_DEBUG, ("igmp_input: IGMP frame not for us\n"));
 903              		.loc 1 360 0
 904 005e 4249     		ldr	r1, .L82
 905 0060 7C22     		movs	r2, #124
 906 0062 8B5A     		ldrh	r3, [r1, r2]
 907 0064 0133     		adds	r3, r3, #1
 908 0066 8B52     		strh	r3, [r1, r2]
 362:Source\LwIP\src\core\ipv4/igmp.c ****   }
 909              		.loc 1 362 0
 910 0068 7AE0     		b	.L62
 911              	.LVL94:
 912              	.L66:
 366:Source\LwIP\src\core\ipv4/igmp.c ****   case IGMP_MEMB_QUERY:
 913              		.loc 1 366 0
 914 006a 3B78     		ldrb	r3, [r7]
 915 006c 112B     		cmp	r3, #17
 916 006e 02D0     		beq	.L68
 917 0070 162B     		cmp	r3, #22
 918 0072 5ED0     		beq	.L69
 919 0074 6CE0     		b	.L81
 920              	.L68:
 369:Source\LwIP\src\core\ipv4/igmp.c ****       /* THIS IS THE GENERAL QUERY */
 921              		.loc 1 369 0
 922 0076 2368     		ldr	r3, [r4]
 923 0078 9846     		mov	r8, r3
 924 007a 3C4B     		ldr	r3, .L82+4
 925 007c 5B68     		ldr	r3, [r3, #4]
 926 007e 9C46     		mov	ip, r3
 927 0080 9845     		cmp	r8, r3
 928 0082 2AD1     		bne	.L70
 369:Source\LwIP\src\core\ipv4/igmp.c ****       /* THIS IS THE GENERAL QUERY */
 929              		.loc 1 369 0 is_stmt 0 discriminator 1
 930 0084 3B1D     		adds	r3, r7, #4
 931 0086 0BD0     		beq	.L71
 369:Source\LwIP\src\core\ipv4/igmp.c ****       /* THIS IS THE GENERAL QUERY */
ARM GAS  C:\Users\Phuong\AppData\Local\Temp\ccKPluhm.s 			page 33


 932              		.loc 1 369 0 discriminator 2
 933 0088 3C79     		ldrb	r4, [r7, #4]
 934              	.LVL95:
 935 008a 7A79     		ldrb	r2, [r7, #5]
 936 008c 1202     		lsls	r2, r2, #8
 937 008e 2243     		orrs	r2, r4
 938 0090 BB79     		ldrb	r3, [r7, #6]
 939 0092 1B04     		lsls	r3, r3, #16
 940 0094 1343     		orrs	r3, r2
 941 0096 1A00     		movs	r2, r3
 942 0098 FB79     		ldrb	r3, [r7, #7]
 943 009a 1B06     		lsls	r3, r3, #24
 944 009c 1343     		orrs	r3, r2
 945 009e 1CD1     		bne	.L70
 946              	.L71:
 373:Source\LwIP\src\core\ipv4/igmp.c ****         IGMP_STATS_INC(igmp.rx_v1);
 947              		.loc 1 373 0 is_stmt 1
 948 00a0 7B78     		ldrb	r3, [r7, #1]
 949 00a2 002B     		cmp	r3, #0
 950 00a4 07D1     		bne	.L72
 374:Source\LwIP\src\core\ipv4/igmp.c ****         LWIP_DEBUGF(IGMP_DEBUG, ("igmp_input: got an all hosts query with time== 0 - this is V1 and
 951              		.loc 1 374 0
 952 00a6 3049     		ldr	r1, .L82
 953 00a8 8622     		movs	r2, #134
 954 00aa 8B5A     		ldrh	r3, [r1, r2]
 955 00ac 0133     		adds	r3, r3, #1
 956 00ae 8B52     		strh	r3, [r1, r2]
 376:Source\LwIP\src\core\ipv4/igmp.c ****       } else {
 957              		.loc 1 376 0
 958 00b0 0A23     		movs	r3, #10
 959 00b2 7B70     		strb	r3, [r7, #1]
 960 00b4 04E0     		b	.L73
 961              	.L72:
 378:Source\LwIP\src\core\ipv4/igmp.c ****       }
 962              		.loc 1 378 0
 963 00b6 2C49     		ldr	r1, .L82
 964 00b8 8A22     		movs	r2, #138
 965 00ba 8B5A     		ldrh	r3, [r1, r2]
 966 00bc 0133     		adds	r3, r3, #1
 967 00be 8B52     		strh	r3, [r1, r2]
 968              	.L73:
 381:Source\LwIP\src\core\ipv4/igmp.c ****       
 969              		.loc 1 381 0
 970 00c0 AC6A     		ldr	r4, [r5, #40]
 971              	.LVL96:
 385:Source\LwIP\src\core\ipv4/igmp.c ****         groupref = groupref->next;
 972              		.loc 1 385 0
 973 00c2 002C     		cmp	r4, #0
 974 00c4 06D0     		beq	.L75
 386:Source\LwIP\src\core\ipv4/igmp.c ****       }
 975              		.loc 1 386 0
 976 00c6 2468     		ldr	r4, [r4]
 977              	.LVL97:
 978 00c8 04E0     		b	.L75
 979              	.LVL98:
 980              	.L76:
 390:Source\LwIP\src\core\ipv4/igmp.c ****         groupref = groupref->next;
ARM GAS  C:\Users\Phuong\AppData\Local\Temp\ccKPluhm.s 			page 34


 981              		.loc 1 390 0
 982 00ca 7978     		ldrb	r1, [r7, #1]
 983 00cc 2000     		movs	r0, r4
 984 00ce FFF7FEFF 		bl	igmp_delaying_member
 985              	.LVL99:
 391:Source\LwIP\src\core\ipv4/igmp.c ****       }
 986              		.loc 1 391 0
 987 00d2 2468     		ldr	r4, [r4]
 988              	.LVL100:
 989              	.L75:
 389:Source\LwIP\src\core\ipv4/igmp.c ****         igmp_delaying_member(groupref, igmp->igmp_maxresp);
 990              		.loc 1 389 0
 991 00d4 002C     		cmp	r4, #0
 992 00d6 F8D1     		bne	.L76
 993 00d8 3FE0     		b	.L77
 994              	.LVL101:
 995              	.L70:
 395:Source\LwIP\src\core\ipv4/igmp.c ****         LWIP_DEBUGF(IGMP_DEBUG, ("igmp_input: IGMP_MEMB_QUERY to a specific group "));
 996              		.loc 1 395 0
 997 00da 3B1D     		adds	r3, r7, #4
 998 00dc 23D0     		beq	.L78
 395:Source\LwIP\src\core\ipv4/igmp.c ****         LWIP_DEBUGF(IGMP_DEBUG, ("igmp_input: IGMP_MEMB_QUERY to a specific group "));
 999              		.loc 1 395 0 is_stmt 0 discriminator 1
 1000 00de 3C79     		ldrb	r4, [r7, #4]
 1001 00e0 7A79     		ldrb	r2, [r7, #5]
 1002 00e2 1202     		lsls	r2, r2, #8
 1003 00e4 2243     		orrs	r2, r4
 1004 00e6 BB79     		ldrb	r3, [r7, #6]
 1005 00e8 1B04     		lsls	r3, r3, #16
 1006 00ea 1343     		orrs	r3, r2
 1007 00ec 1A00     		movs	r2, r3
 1008 00ee FB79     		ldrb	r3, [r7, #7]
 1009 00f0 1B06     		lsls	r3, r3, #24
 1010 00f2 1343     		orrs	r3, r2
 1011 00f4 17D0     		beq	.L78
 398:Source\LwIP\src\core\ipv4/igmp.c ****           ip4_addr_t groupaddr;
 1012              		.loc 1 398 0 is_stmt 1
 1013 00f6 E045     		cmp	r8, ip
 1014 00f8 04D1     		bne	.L79
 1015              	.LBB3:
 402:Source\LwIP\src\core\ipv4/igmp.c ****           group = igmp_lookfor_group(inp, &groupaddr);
 1016              		.loc 1 402 0
 1017 00fa 0193     		str	r3, [sp, #4]
 403:Source\LwIP\src\core\ipv4/igmp.c ****         } else {
 1018              		.loc 1 403 0
 1019 00fc 01A9     		add	r1, sp, #4
 1020 00fe 2800     		movs	r0, r5
 1021              	.LVL102:
 1022 0100 FFF7FEFF 		bl	igmp_lookfor_group
 1023              	.LVL103:
 1024              	.L79:
 1025              	.LBE3:
 408:Source\LwIP\src\core\ipv4/igmp.c ****           IGMP_STATS_INC(igmp.rx_group);
 1026              		.loc 1 408 0
 1027 0104 0028     		cmp	r0, #0
 1028 0106 08D0     		beq	.L80
 409:Source\LwIP\src\core\ipv4/igmp.c ****           igmp_delaying_member(group, igmp->igmp_maxresp);
ARM GAS  C:\Users\Phuong\AppData\Local\Temp\ccKPluhm.s 			page 35


 1029              		.loc 1 409 0
 1030 0108 1749     		ldr	r1, .L82
 1031 010a 8822     		movs	r2, #136
 1032 010c 8B5A     		ldrh	r3, [r1, r2]
 1033 010e 0133     		adds	r3, r3, #1
 1034 0110 8B52     		strh	r3, [r1, r2]
 410:Source\LwIP\src\core\ipv4/igmp.c ****         } else {
 1035              		.loc 1 410 0
 1036 0112 7978     		ldrb	r1, [r7, #1]
 1037 0114 FFF7FEFF 		bl	igmp_delaying_member
 1038              	.LVL104:
 1039 0118 1FE0     		b	.L77
 1040              	.LVL105:
 1041              	.L80:
 412:Source\LwIP\src\core\ipv4/igmp.c ****         }
 1042              		.loc 1 412 0
 1043 011a 1349     		ldr	r1, .L82
 1044 011c 7C22     		movs	r2, #124
 1045 011e 8B5A     		ldrh	r3, [r1, r2]
 1046 0120 0133     		adds	r3, r3, #1
 1047 0122 8B52     		strh	r3, [r1, r2]
 1048 0124 19E0     		b	.L77
 1049              	.L78:
 415:Source\LwIP\src\core\ipv4/igmp.c ****       }
 1050              		.loc 1 415 0
 1051 0126 1049     		ldr	r1, .L82
 1052 0128 8422     		movs	r2, #132
 1053 012a 8B5A     		ldrh	r3, [r1, r2]
 1054 012c 0133     		adds	r3, r3, #1
 1055 012e 8B52     		strh	r3, [r1, r2]
 1056 0130 13E0     		b	.L77
 1057              	.LVL106:
 1058              	.L69:
 421:Source\LwIP\src\core\ipv4/igmp.c ****     if (group->group_state == IGMP_GROUP_DELAYING_MEMBER) {
 1059              		.loc 1 421 0
 1060 0132 0D49     		ldr	r1, .L82
 1061 0134 8C22     		movs	r2, #140
 1062 0136 8B5A     		ldrh	r3, [r1, r2]
 1063 0138 0133     		adds	r3, r3, #1
 1064 013a 8B52     		strh	r3, [r1, r2]
 422:Source\LwIP\src\core\ipv4/igmp.c ****       /* This is on a specific group we have already looked up */
 1065              		.loc 1 422 0
 1066 013c 437A     		ldrb	r3, [r0, #9]
 1067 013e 012B     		cmp	r3, #1
 1068 0140 0BD1     		bne	.L77
 424:Source\LwIP\src\core\ipv4/igmp.c ****       group->group_state = IGMP_GROUP_IDLE_MEMBER;
 1069              		.loc 1 424 0
 1070 0142 0023     		movs	r3, #0
 1071 0144 4381     		strh	r3, [r0, #10]
 425:Source\LwIP\src\core\ipv4/igmp.c ****       group->last_reporter_flag = 0;
 1072              		.loc 1 425 0
 1073 0146 0233     		adds	r3, r3, #2
 1074 0148 4372     		strb	r3, [r0, #9]
 426:Source\LwIP\src\core\ipv4/igmp.c ****     }
 1075              		.loc 1 426 0
 1076 014a 0023     		movs	r3, #0
 1077 014c 0372     		strb	r3, [r0, #8]
ARM GAS  C:\Users\Phuong\AppData\Local\Temp\ccKPluhm.s 			page 36


 1078 014e 04E0     		b	.L77
 1079              	.L81:
 432:Source\LwIP\src\core\ipv4/igmp.c ****     break;
 1080              		.loc 1 432 0
 1081 0150 0549     		ldr	r1, .L82
 1082 0152 8422     		movs	r2, #132
 1083 0154 8B5A     		ldrh	r3, [r1, r2]
 1084 0156 0133     		adds	r3, r3, #1
 1085 0158 8B52     		strh	r3, [r1, r2]
 1086              	.LVL107:
 1087              	.L77:
 436:Source\LwIP\src\core\ipv4/igmp.c ****   return;
 1088              		.loc 1 436 0
 1089 015a 3000     		movs	r0, r6
 1090 015c FFF7FEFF 		bl	pbuf_free
 1091              	.LVL108:
 1092              	.L62:
 438:Source\LwIP\src\core\ipv4/igmp.c **** 
 1093              		.loc 1 438 0
 1094 0160 02B0     		add	sp, sp, #8
 1095              		@ sp needed
 1096              	.LVL109:
 1097              	.LVL110:
 1098 0162 04BC     		pop	{r2}
 1099 0164 9046     		mov	r8, r2
 1100 0166 F0BD     		pop	{r4, r5, r6, r7, pc}
 1101              	.L83:
 1102              		.align	2
 1103              	.L82:
 1104 0168 00000000 		.word	lwip_stats
 1105 016c 00000000 		.word	.LANCHOR0
 1106              		.cfi_endproc
 1107              	.LFE60:
 1108              		.size	igmp_input, .-igmp_input
 1109              		.section	.text.igmp_joingroup_netif,"ax",%progbits
 1110              		.align	2
 1111              		.global	igmp_joingroup_netif
 1112              		.code	16
 1113              		.thumb_func
 1114              		.type	igmp_joingroup_netif, %function
 1115              	igmp_joingroup_netif:
 1116              	.LFB62:
 487:Source\LwIP\src\core\ipv4/igmp.c ****   struct igmp_group *group;
 1117              		.loc 1 487 0
 1118              		.cfi_startproc
 1119              		@ args = 0, pretend = 0, frame = 0
 1120              		@ frame_needed = 0, uses_anonymous_args = 0
 1121              	.LVL111:
 1122 0000 70B5     		push	{r4, r5, r6, lr}
 1123              		.cfi_def_cfa_offset 16
 1124              		.cfi_offset 4, -16
 1125              		.cfi_offset 5, -12
 1126              		.cfi_offset 6, -8
 1127              		.cfi_offset 14, -4
 1128 0002 0500     		movs	r5, r0
 1129 0004 0E00     		movs	r6, r1
 491:Source\LwIP\src\core\ipv4/igmp.c ****   LWIP_ERROR("igmp_joingroup_netif: attempt to join allsystems address", (!ip4_addr_cmp(groupaddr, 
ARM GAS  C:\Users\Phuong\AppData\Local\Temp\ccKPluhm.s 			page 37


 1130              		.loc 1 491 0
 1131 0006 0A68     		ldr	r2, [r1]
 1132 0008 F023     		movs	r3, #240
 1133 000a 1340     		ands	r3, r2
 1134 000c E02B     		cmp	r3, #224
 1135 000e 2DD1     		bne	.L88
 492:Source\LwIP\src\core\ipv4/igmp.c **** 
 1136              		.loc 1 492 0
 1137 0010 1C4B     		ldr	r3, .L92
 1138 0012 5B68     		ldr	r3, [r3, #4]
 1139 0014 9A42     		cmp	r2, r3
 1140 0016 2CD0     		beq	.L89
 495:Source\LwIP\src\core\ipv4/igmp.c **** 
 1141              		.loc 1 495 0
 1142 0018 3D23     		movs	r3, #61
 1143 001a C35C     		ldrb	r3, [r0, r3]
 1144 001c 9B06     		lsls	r3, r3, #26
 1145 001e 2BD5     		bpl	.L90
 498:Source\LwIP\src\core\ipv4/igmp.c **** 
 1146              		.loc 1 498 0
 1147 0020 FFF7FEFF 		bl	igmp_lookup_group
 1148              	.LVL112:
 1149 0024 041E     		subs	r4, r0, #0
 1150              	.LVL113:
 500:Source\LwIP\src\core\ipv4/igmp.c ****     /* This should create a new group, check the state to make sure */
 1151              		.loc 1 500 0
 1152 0026 2AD0     		beq	.L91
 502:Source\LwIP\src\core\ipv4/igmp.c ****       LWIP_DEBUGF(IGMP_DEBUG, ("igmp_joingroup_netif: join to group not in state IGMP_GROUP_NON_MEM
 1153              		.loc 1 502 0
 1154 0028 437A     		ldrb	r3, [r0, #9]
 1155 002a 002B     		cmp	r3, #0
 1156 002c 19D1     		bne	.L86
 511:Source\LwIP\src\core\ipv4/igmp.c ****         LWIP_DEBUGF(IGMP_DEBUG, ("igmp_joingroup_netif: igmp_mac_filter(ADD "));
 1157              		.loc 1 511 0
 1158 002e 037B     		ldrb	r3, [r0, #12]
 1159 0030 002B     		cmp	r3, #0
 1160 0032 06D1     		bne	.L87
 511:Source\LwIP\src\core\ipv4/igmp.c ****         LWIP_DEBUGF(IGMP_DEBUG, ("igmp_joingroup_netif: igmp_mac_filter(ADD "));
 1161              		.loc 1 511 0 is_stmt 0 discriminator 1
 1162 0034 6B6C     		ldr	r3, [r5, #68]
 1163 0036 002B     		cmp	r3, #0
 1164 0038 03D0     		beq	.L87
 515:Source\LwIP\src\core\ipv4/igmp.c ****       }
 1165              		.loc 1 515 0 is_stmt 1
 1166 003a 0122     		movs	r2, #1
 1167 003c 3100     		movs	r1, r6
 1168 003e 2800     		movs	r0, r5
 1169              	.LVL114:
 1170 0040 9847     		blx	r3
 1171              	.LVL115:
 1172              	.L87:
 518:Source\LwIP\src\core\ipv4/igmp.c ****       igmp_send(netif, group, IGMP_V2_MEMB_REPORT);
 1173              		.loc 1 518 0
 1174 0042 1149     		ldr	r1, .L92+4
 1175 0044 8E22     		movs	r2, #142
 1176 0046 8B5A     		ldrh	r3, [r1, r2]
 1177 0048 0133     		adds	r3, r3, #1
ARM GAS  C:\Users\Phuong\AppData\Local\Temp\ccKPluhm.s 			page 38


 1178 004a 8B52     		strh	r3, [r1, r2]
 519:Source\LwIP\src\core\ipv4/igmp.c **** 
 1179              		.loc 1 519 0
 1180 004c 783A     		subs	r2, r2, #120
 1181 004e 2100     		movs	r1, r4
 1182 0050 2800     		movs	r0, r5
 1183 0052 FFF7FEFF 		bl	igmp_send
 1184              	.LVL116:
 521:Source\LwIP\src\core\ipv4/igmp.c **** 
 1185              		.loc 1 521 0
 1186 0056 0521     		movs	r1, #5
 1187 0058 2000     		movs	r0, r4
 1188 005a FFF7FEFF 		bl	igmp_start_timer
 1189              	.LVL117:
 524:Source\LwIP\src\core\ipv4/igmp.c ****     }
 1190              		.loc 1 524 0
 1191 005e 0123     		movs	r3, #1
 1192 0060 6372     		strb	r3, [r4, #9]
 1193              	.L86:
 527:Source\LwIP\src\core\ipv4/igmp.c ****     /* Join on this interface */
 1194              		.loc 1 527 0
 1195 0062 237B     		ldrb	r3, [r4, #12]
 1196 0064 0133     		adds	r3, r3, #1
 1197 0066 2373     		strb	r3, [r4, #12]
 529:Source\LwIP\src\core\ipv4/igmp.c ****   } else {
 1198              		.loc 1 529 0
 1199 0068 0020     		movs	r0, #0
 1200 006a 0AE0     		b	.L85
 1201              	.LVL118:
 1202              	.L88:
 491:Source\LwIP\src\core\ipv4/igmp.c ****   LWIP_ERROR("igmp_joingroup_netif: attempt to join allsystems address", (!ip4_addr_cmp(groupaddr, 
 1203              		.loc 1 491 0
 1204 006c 0620     		movs	r0, #6
 1205              	.LVL119:
 1206 006e 4042     		rsbs	r0, r0, #0
 1207 0070 07E0     		b	.L85
 1208              	.LVL120:
 1209              	.L89:
 492:Source\LwIP\src\core\ipv4/igmp.c **** 
 1210              		.loc 1 492 0
 1211 0072 0620     		movs	r0, #6
 1212              	.LVL121:
 1213 0074 4042     		rsbs	r0, r0, #0
 1214 0076 04E0     		b	.L85
 1215              	.LVL122:
 1216              	.L90:
 495:Source\LwIP\src\core\ipv4/igmp.c **** 
 1217              		.loc 1 495 0
 1218 0078 0620     		movs	r0, #6
 1219              	.LVL123:
 1220 007a 4042     		rsbs	r0, r0, #0
 1221 007c 01E0     		b	.L85
 1222              	.LVL124:
 1223              	.L91:
 532:Source\LwIP\src\core\ipv4/igmp.c ****   }
 1224              		.loc 1 532 0
 1225 007e 0120     		movs	r0, #1
ARM GAS  C:\Users\Phuong\AppData\Local\Temp\ccKPluhm.s 			page 39


 1226              	.LVL125:
 1227 0080 4042     		rsbs	r0, r0, #0
 1228              	.LVL126:
 1229              	.L85:
 534:Source\LwIP\src\core\ipv4/igmp.c **** 
 1230              		.loc 1 534 0
 1231              		@ sp needed
 1232              	.LVL127:
 1233              	.LVL128:
 1234 0082 70BD     		pop	{r4, r5, r6, pc}
 1235              	.L93:
 1236              		.align	2
 1237              	.L92:
 1238 0084 00000000 		.word	.LANCHOR0
 1239 0088 00000000 		.word	lwip_stats
 1240              		.cfi_endproc
 1241              	.LFE62:
 1242              		.size	igmp_joingroup_netif, .-igmp_joingroup_netif
 1243              		.section	.text.igmp_joingroup,"ax",%progbits
 1244              		.align	2
 1245              		.global	igmp_joingroup
 1246              		.code	16
 1247              		.thumb_func
 1248              		.type	igmp_joingroup, %function
 1249              	igmp_joingroup:
 1250              	.LFB61:
 450:Source\LwIP\src\core\ipv4/igmp.c ****   err_t err = ERR_VAL; /* no matching interface */
 1251              		.loc 1 450 0
 1252              		.cfi_startproc
 1253              		@ args = 0, pretend = 0, frame = 0
 1254              		@ frame_needed = 0, uses_anonymous_args = 0
 1255              	.LVL129:
 1256 0000 70B5     		push	{r4, r5, r6, lr}
 1257              		.cfi_def_cfa_offset 16
 1258              		.cfi_offset 4, -16
 1259              		.cfi_offset 5, -12
 1260              		.cfi_offset 6, -8
 1261              		.cfi_offset 14, -4
 1262 0002 0600     		movs	r6, r0
 1263 0004 0D00     		movs	r5, r1
 1264              	.LVL130:
 455:Source\LwIP\src\core\ipv4/igmp.c ****   LWIP_ERROR("igmp_joingroup: attempt to join allsystems address", (!ip4_addr_cmp(groupaddr, &allsy
 1265              		.loc 1 455 0
 1266 0006 0A68     		ldr	r2, [r1]
 1267 0008 F023     		movs	r3, #240
 1268 000a 1340     		ands	r3, r2
 1269 000c E02B     		cmp	r3, #224
 1270 000e 1ED1     		bne	.L100
 456:Source\LwIP\src\core\ipv4/igmp.c **** 
 1271              		.loc 1 456 0
 1272 0010 124B     		ldr	r3, .L103
 1273 0012 5B68     		ldr	r3, [r3, #4]
 1274 0014 9A42     		cmp	r2, r3
 1275 0016 1DD0     		beq	.L101
 459:Source\LwIP\src\core\ipv4/igmp.c ****   while (netif != NULL) {
 1276              		.loc 1 459 0
 1277 0018 114B     		ldr	r3, .L103+4
ARM GAS  C:\Users\Phuong\AppData\Local\Temp\ccKPluhm.s 			page 40


 1278 001a 1C68     		ldr	r4, [r3]
 1279              	.LVL131:
 451:Source\LwIP\src\core\ipv4/igmp.c ****   struct netif *netif;
 1280              		.loc 1 451 0
 1281 001c 0620     		movs	r0, #6
 1282              	.LVL132:
 1283 001e 4042     		rsbs	r0, r0, #0
 460:Source\LwIP\src\core\ipv4/igmp.c ****     /* Should we join this interface ? */
 1284              		.loc 1 460 0
 1285 0020 12E0     		b	.L96
 1286              	.LVL133:
 1287              	.L99:
 462:Source\LwIP\src\core\ipv4/igmp.c ****       err = igmp_joingroup_netif(netif, groupaddr);
 1288              		.loc 1 462 0
 1289 0022 3D23     		movs	r3, #61
 1290 0024 E35C     		ldrb	r3, [r4, r3]
 1291 0026 9B06     		lsls	r3, r3, #26
 1292 0028 0DD5     		bpl	.L97
 462:Source\LwIP\src\core\ipv4/igmp.c ****       err = igmp_joingroup_netif(netif, groupaddr);
 1293              		.loc 1 462 0 is_stmt 0 discriminator 1
 1294 002a 002E     		cmp	r6, #0
 1295 002c 05D0     		beq	.L98
 462:Source\LwIP\src\core\ipv4/igmp.c ****       err = igmp_joingroup_netif(netif, groupaddr);
 1296              		.loc 1 462 0 discriminator 2
 1297 002e 3368     		ldr	r3, [r6]
 1298 0030 002B     		cmp	r3, #0
 1299 0032 02D0     		beq	.L98
 462:Source\LwIP\src\core\ipv4/igmp.c ****       err = igmp_joingroup_netif(netif, groupaddr);
 1300              		.loc 1 462 0 discriminator 3
 1301 0034 6268     		ldr	r2, [r4, #4]
 1302 0036 9342     		cmp	r3, r2
 1303 0038 05D1     		bne	.L97
 1304              	.L98:
 463:Source\LwIP\src\core\ipv4/igmp.c ****       if (err != ERR_OK) {
 1305              		.loc 1 463 0 is_stmt 1
 1306 003a 2900     		movs	r1, r5
 1307 003c 2000     		movs	r0, r4
 1308              	.LVL134:
 1309 003e FFF7FEFF 		bl	igmp_joingroup_netif
 1310              	.LVL135:
 464:Source\LwIP\src\core\ipv4/igmp.c ****         /* Return an error even if some network interfaces are joined */
 1311              		.loc 1 464 0
 1312 0042 0028     		cmp	r0, #0
 1313 0044 08D1     		bne	.L95
 1314              	.LVL136:
 1315              	.L97:
 471:Source\LwIP\src\core\ipv4/igmp.c ****   }
 1316              		.loc 1 471 0
 1317 0046 2468     		ldr	r4, [r4]
 1318              	.LVL137:
 1319              	.L96:
 460:Source\LwIP\src\core\ipv4/igmp.c ****     /* Should we join this interface ? */
 1320              		.loc 1 460 0
 1321 0048 002C     		cmp	r4, #0
 1322 004a EAD1     		bne	.L99
 1323 004c 04E0     		b	.L95
 1324              	.LVL138:
ARM GAS  C:\Users\Phuong\AppData\Local\Temp\ccKPluhm.s 			page 41


 1325              	.L100:
 455:Source\LwIP\src\core\ipv4/igmp.c ****   LWIP_ERROR("igmp_joingroup: attempt to join allsystems address", (!ip4_addr_cmp(groupaddr, &allsy
 1326              		.loc 1 455 0
 1327 004e 0620     		movs	r0, #6
 1328              	.LVL139:
 1329 0050 4042     		rsbs	r0, r0, #0
 1330 0052 01E0     		b	.L95
 1331              	.LVL140:
 1332              	.L101:
 456:Source\LwIP\src\core\ipv4/igmp.c **** 
 1333              		.loc 1 456 0
 1334 0054 0620     		movs	r0, #6
 1335              	.LVL141:
 1336 0056 4042     		rsbs	r0, r0, #0
 1337              	.LVL142:
 1338              	.L95:
 475:Source\LwIP\src\core\ipv4/igmp.c **** 
 1339              		.loc 1 475 0
 1340              		@ sp needed
 1341              	.LVL143:
 1342              	.LVL144:
 1343 0058 70BD     		pop	{r4, r5, r6, pc}
 1344              	.L104:
 1345 005a C046     		.align	2
 1346              	.L103:
 1347 005c 00000000 		.word	.LANCHOR0
 1348 0060 00000000 		.word	netif_list
 1349              		.cfi_endproc
 1350              	.LFE61:
 1351              		.size	igmp_joingroup, .-igmp_joingroup
 1352              		.section	.text.igmp_leavegroup_netif,"ax",%progbits
 1353              		.align	2
 1354              		.global	igmp_leavegroup_netif
 1355              		.code	16
 1356              		.thumb_func
 1357              		.type	igmp_leavegroup_netif, %function
 1358              	igmp_leavegroup_netif:
 1359              	.LFB64:
 582:Source\LwIP\src\core\ipv4/igmp.c ****   struct igmp_group *group;
 1360              		.loc 1 582 0
 1361              		.cfi_startproc
 1362              		@ args = 0, pretend = 0, frame = 0
 1363              		@ frame_needed = 0, uses_anonymous_args = 0
 1364              	.LVL145:
 1365 0000 70B5     		push	{r4, r5, r6, lr}
 1366              		.cfi_def_cfa_offset 16
 1367              		.cfi_offset 4, -16
 1368              		.cfi_offset 5, -12
 1369              		.cfi_offset 6, -8
 1370              		.cfi_offset 14, -4
 1371 0002 0400     		movs	r4, r0
 1372 0004 0E00     		movs	r6, r1
 586:Source\LwIP\src\core\ipv4/igmp.c ****   LWIP_ERROR("igmp_leavegroup_netif: attempt to leave allsystems address", (!ip4_addr_cmp(groupaddr
 1373              		.loc 1 586 0
 1374 0006 0A68     		ldr	r2, [r1]
 1375 0008 F023     		movs	r3, #240
 1376 000a 1340     		ands	r3, r2
ARM GAS  C:\Users\Phuong\AppData\Local\Temp\ccKPluhm.s 			page 42


 1377 000c E02B     		cmp	r3, #224
 1378 000e 30D1     		bne	.L110
 587:Source\LwIP\src\core\ipv4/igmp.c **** 
 1379              		.loc 1 587 0
 1380 0010 1E4B     		ldr	r3, .L114
 1381 0012 5B68     		ldr	r3, [r3, #4]
 1382 0014 9A42     		cmp	r2, r3
 1383 0016 2FD0     		beq	.L111
 590:Source\LwIP\src\core\ipv4/igmp.c **** 
 1384              		.loc 1 590 0
 1385 0018 3D23     		movs	r3, #61
 1386 001a C35C     		ldrb	r3, [r0, r3]
 1387 001c 9B06     		lsls	r3, r3, #26
 1388 001e 2ED5     		bpl	.L112
 593:Source\LwIP\src\core\ipv4/igmp.c **** 
 1389              		.loc 1 593 0
 1390 0020 FFF7FEFF 		bl	igmp_lookfor_group
 1391              	.LVL146:
 1392 0024 051E     		subs	r5, r0, #0
 1393              	.LVL147:
 595:Source\LwIP\src\core\ipv4/igmp.c ****     /* Only send a leave if the flag is set according to the state diagram */
 1394              		.loc 1 595 0
 1395 0026 2DD0     		beq	.L113
 602:Source\LwIP\src\core\ipv4/igmp.c ****       /* Remove the group from the list */
 1396              		.loc 1 602 0
 1397 0028 037B     		ldrb	r3, [r0, #12]
 1398 002a 012B     		cmp	r3, #1
 1399 002c 1DD8     		bhi	.L107
 604:Source\LwIP\src\core\ipv4/igmp.c **** 
 1400              		.loc 1 604 0
 1401 002e 0100     		movs	r1, r0
 1402 0030 2000     		movs	r0, r4
 1403              	.LVL148:
 1404 0032 FFF7FEFF 		bl	igmp_remove_group
 1405              	.LVL149:
 607:Source\LwIP\src\core\ipv4/igmp.c ****         LWIP_DEBUGF(IGMP_DEBUG, ("igmp_leavegroup_netif: sending leaving group\n"));
 1406              		.loc 1 607 0
 1407 0036 2B7A     		ldrb	r3, [r5, #8]
 1408 0038 002B     		cmp	r3, #0
 1409 003a 09D0     		beq	.L108
 609:Source\LwIP\src\core\ipv4/igmp.c ****         igmp_send(netif, group, IGMP_LEAVE_GROUP);
 1410              		.loc 1 609 0
 1411 003c 1449     		ldr	r1, .L114+4
 1412 003e 9022     		movs	r2, #144
 1413 0040 8B5A     		ldrh	r3, [r1, r2]
 1414 0042 0133     		adds	r3, r3, #1
 1415 0044 8B52     		strh	r3, [r1, r2]
 610:Source\LwIP\src\core\ipv4/igmp.c ****       }
 1416              		.loc 1 610 0
 1417 0046 793A     		subs	r2, r2, #121
 1418 0048 2900     		movs	r1, r5
 1419 004a 2000     		movs	r0, r4
 1420 004c FFF7FEFF 		bl	igmp_send
 1421              	.LVL150:
 1422              	.L108:
 614:Source\LwIP\src\core\ipv4/igmp.c ****         LWIP_DEBUGF(IGMP_DEBUG, ("igmp_leavegroup_netif: igmp_mac_filter(DEL "));
 1423              		.loc 1 614 0
ARM GAS  C:\Users\Phuong\AppData\Local\Temp\ccKPluhm.s 			page 43


 1424 0050 636C     		ldr	r3, [r4, #68]
 1425 0052 002B     		cmp	r3, #0
 1426 0054 03D0     		beq	.L109
 618:Source\LwIP\src\core\ipv4/igmp.c ****       }
 1427              		.loc 1 618 0
 1428 0056 0022     		movs	r2, #0
 1429 0058 3100     		movs	r1, r6
 1430 005a 2000     		movs	r0, r4
 1431 005c 9847     		blx	r3
 1432              	.LVL151:
 1433              	.L109:
 622:Source\LwIP\src\core\ipv4/igmp.c ****     } else {
 1434              		.loc 1 622 0
 1435 005e 2900     		movs	r1, r5
 1436 0060 0B20     		movs	r0, #11
 1437 0062 FFF7FEFF 		bl	memp_free
 1438              	.LVL152:
 627:Source\LwIP\src\core\ipv4/igmp.c ****   } else {
 1439              		.loc 1 627 0
 1440 0066 0020     		movs	r0, #0
 1441 0068 0EE0     		b	.L106
 1442              	.LVL153:
 1443              	.L107:
 625:Source\LwIP\src\core\ipv4/igmp.c ****     }
 1444              		.loc 1 625 0
 1445 006a 013B     		subs	r3, r3, #1
 1446 006c 0373     		strb	r3, [r0, #12]
 627:Source\LwIP\src\core\ipv4/igmp.c ****   } else {
 1447              		.loc 1 627 0
 1448 006e 0020     		movs	r0, #0
 1449              	.LVL154:
 1450 0070 0AE0     		b	.L106
 1451              	.LVL155:
 1452              	.L110:
 586:Source\LwIP\src\core\ipv4/igmp.c ****   LWIP_ERROR("igmp_leavegroup_netif: attempt to leave allsystems address", (!ip4_addr_cmp(groupaddr
 1453              		.loc 1 586 0
 1454 0072 0620     		movs	r0, #6
 1455              	.LVL156:
 1456 0074 4042     		rsbs	r0, r0, #0
 1457 0076 07E0     		b	.L106
 1458              	.LVL157:
 1459              	.L111:
 587:Source\LwIP\src\core\ipv4/igmp.c **** 
 1460              		.loc 1 587 0
 1461 0078 0620     		movs	r0, #6
 1462              	.LVL158:
 1463 007a 4042     		rsbs	r0, r0, #0
 1464 007c 04E0     		b	.L106
 1465              	.LVL159:
 1466              	.L112:
 590:Source\LwIP\src\core\ipv4/igmp.c **** 
 1467              		.loc 1 590 0
 1468 007e 0620     		movs	r0, #6
 1469              	.LVL160:
 1470 0080 4042     		rsbs	r0, r0, #0
 1471 0082 01E0     		b	.L106
 1472              	.LVL161:
ARM GAS  C:\Users\Phuong\AppData\Local\Temp\ccKPluhm.s 			page 44


 1473              	.L113:
 630:Source\LwIP\src\core\ipv4/igmp.c ****   }
 1474              		.loc 1 630 0
 1475 0084 0620     		movs	r0, #6
 1476              	.LVL162:
 1477 0086 4042     		rsbs	r0, r0, #0
 1478              	.LVL163:
 1479              	.L106:
 632:Source\LwIP\src\core\ipv4/igmp.c **** 
 1480              		.loc 1 632 0
 1481              		@ sp needed
 1482              	.LVL164:
 1483              	.LVL165:
 1484 0088 70BD     		pop	{r4, r5, r6, pc}
 1485              	.L115:
 1486 008a C046     		.align	2
 1487              	.L114:
 1488 008c 00000000 		.word	.LANCHOR0
 1489 0090 00000000 		.word	lwip_stats
 1490              		.cfi_endproc
 1491              	.LFE64:
 1492              		.size	igmp_leavegroup_netif, .-igmp_leavegroup_netif
 1493              		.section	.text.igmp_leavegroup,"ax",%progbits
 1494              		.align	2
 1495              		.global	igmp_leavegroup
 1496              		.code	16
 1497              		.thumb_func
 1498              		.type	igmp_leavegroup, %function
 1499              	igmp_leavegroup:
 1500              	.LFB63:
 546:Source\LwIP\src\core\ipv4/igmp.c ****   err_t err = ERR_VAL; /* no matching interface */
 1501              		.loc 1 546 0
 1502              		.cfi_startproc
 1503              		@ args = 0, pretend = 0, frame = 0
 1504              		@ frame_needed = 0, uses_anonymous_args = 0
 1505              	.LVL166:
 1506 0000 F8B5     		push	{r3, r4, r5, r6, r7, lr}
 1507              		.cfi_def_cfa_offset 24
 1508              		.cfi_offset 3, -24
 1509              		.cfi_offset 4, -20
 1510              		.cfi_offset 5, -16
 1511              		.cfi_offset 6, -12
 1512              		.cfi_offset 7, -8
 1513              		.cfi_offset 14, -4
 1514 0002 0500     		movs	r5, r0
 1515 0004 0F00     		movs	r7, r1
 1516              	.LVL167:
 551:Source\LwIP\src\core\ipv4/igmp.c ****   LWIP_ERROR("igmp_leavegroup: attempt to leave allsystems address", (!ip4_addr_cmp(groupaddr, &all
 1517              		.loc 1 551 0
 1518 0006 0A68     		ldr	r2, [r1]
 1519 0008 F023     		movs	r3, #240
 1520 000a 1340     		ands	r3, r2
 1521 000c E02B     		cmp	r3, #224
 1522 000e 20D1     		bne	.L122
 552:Source\LwIP\src\core\ipv4/igmp.c **** 
 1523              		.loc 1 552 0
 1524 0010 134B     		ldr	r3, .L125
ARM GAS  C:\Users\Phuong\AppData\Local\Temp\ccKPluhm.s 			page 45


 1525 0012 5B68     		ldr	r3, [r3, #4]
 1526 0014 9A42     		cmp	r2, r3
 1527 0016 1FD0     		beq	.L123
 555:Source\LwIP\src\core\ipv4/igmp.c ****   while (netif != NULL) {
 1528              		.loc 1 555 0
 1529 0018 124B     		ldr	r3, .L125+4
 1530 001a 1C68     		ldr	r4, [r3]
 1531              	.LVL168:
 547:Source\LwIP\src\core\ipv4/igmp.c ****   struct netif *netif;
 1532              		.loc 1 547 0
 1533 001c 0626     		movs	r6, #6
 1534 001e 7642     		rsbs	r6, r6, #0
 556:Source\LwIP\src\core\ipv4/igmp.c ****     /* Should we leave this interface ? */
 1535              		.loc 1 556 0
 1536 0020 13E0     		b	.L118
 1537              	.LVL169:
 1538              	.L121:
 558:Source\LwIP\src\core\ipv4/igmp.c ****       err_t res = igmp_leavegroup_netif(netif, groupaddr);
 1539              		.loc 1 558 0
 1540 0022 3D23     		movs	r3, #61
 1541 0024 E35C     		ldrb	r3, [r4, r3]
 1542 0026 9B06     		lsls	r3, r3, #26
 1543 0028 0ED5     		bpl	.L119
 558:Source\LwIP\src\core\ipv4/igmp.c ****       err_t res = igmp_leavegroup_netif(netif, groupaddr);
 1544              		.loc 1 558 0 is_stmt 0 discriminator 1
 1545 002a 002D     		cmp	r5, #0
 1546 002c 05D0     		beq	.L120
 558:Source\LwIP\src\core\ipv4/igmp.c ****       err_t res = igmp_leavegroup_netif(netif, groupaddr);
 1547              		.loc 1 558 0 discriminator 2
 1548 002e 2B68     		ldr	r3, [r5]
 1549 0030 002B     		cmp	r3, #0
 1550 0032 02D0     		beq	.L120
 558:Source\LwIP\src\core\ipv4/igmp.c ****       err_t res = igmp_leavegroup_netif(netif, groupaddr);
 1551              		.loc 1 558 0 discriminator 3
 1552 0034 6268     		ldr	r2, [r4, #4]
 1553 0036 9342     		cmp	r3, r2
 1554 0038 06D1     		bne	.L119
 1555              	.L120:
 1556              	.LBB4:
 559:Source\LwIP\src\core\ipv4/igmp.c ****       if (err != ERR_OK) {
 1557              		.loc 1 559 0 is_stmt 1
 1558 003a 3900     		movs	r1, r7
 1559 003c 2000     		movs	r0, r4
 1560 003e FFF7FEFF 		bl	igmp_leavegroup_netif
 1561              	.LVL170:
 560:Source\LwIP\src\core\ipv4/igmp.c ****         /* Store this result if we have not yet gotten a success */
 1562              		.loc 1 560 0
 1563 0042 002E     		cmp	r6, #0
 1564 0044 00D0     		beq	.L119
 562:Source\LwIP\src\core\ipv4/igmp.c ****       }
 1565              		.loc 1 562 0
 1566 0046 0600     		movs	r6, r0
 1567              	.LVL171:
 1568              	.L119:
 1569              	.LBE4:
 566:Source\LwIP\src\core\ipv4/igmp.c ****   }
 1570              		.loc 1 566 0
ARM GAS  C:\Users\Phuong\AppData\Local\Temp\ccKPluhm.s 			page 46


 1571 0048 2468     		ldr	r4, [r4]
 1572              	.LVL172:
 1573              	.L118:
 556:Source\LwIP\src\core\ipv4/igmp.c ****     /* Should we leave this interface ? */
 1574              		.loc 1 556 0
 1575 004a 002C     		cmp	r4, #0
 1576 004c E9D1     		bne	.L121
 569:Source\LwIP\src\core\ipv4/igmp.c **** }
 1577              		.loc 1 569 0
 1578 004e 3000     		movs	r0, r6
 1579 0050 04E0     		b	.L117
 1580              	.LVL173:
 1581              	.L122:
 551:Source\LwIP\src\core\ipv4/igmp.c ****   LWIP_ERROR("igmp_leavegroup: attempt to leave allsystems address", (!ip4_addr_cmp(groupaddr, &all
 1582              		.loc 1 551 0
 1583 0052 0620     		movs	r0, #6
 1584              	.LVL174:
 1585 0054 4042     		rsbs	r0, r0, #0
 1586 0056 01E0     		b	.L117
 1587              	.LVL175:
 1588              	.L123:
 552:Source\LwIP\src\core\ipv4/igmp.c **** 
 1589              		.loc 1 552 0
 1590 0058 0620     		movs	r0, #6
 1591              	.LVL176:
 1592 005a 4042     		rsbs	r0, r0, #0
 1593              	.LVL177:
 1594              	.L117:
 570:Source\LwIP\src\core\ipv4/igmp.c **** 
 1595              		.loc 1 570 0
 1596              		@ sp needed
 1597              	.LVL178:
 1598              	.LVL179:
 1599 005c F8BD     		pop	{r3, r4, r5, r6, r7, pc}
 1600              	.L126:
 1601 005e C046     		.align	2
 1602              	.L125:
 1603 0060 00000000 		.word	.LANCHOR0
 1604 0064 00000000 		.word	netif_list
 1605              		.cfi_endproc
 1606              	.LFE63:
 1607              		.size	igmp_leavegroup, .-igmp_leavegroup
 1608              		.section	.text.igmp_tmr,"ax",%progbits
 1609              		.align	2
 1610              		.global	igmp_tmr
 1611              		.code	16
 1612              		.thumb_func
 1613              		.type	igmp_tmr, %function
 1614              	igmp_tmr:
 1615              	.LFB65:
 640:Source\LwIP\src\core\ipv4/igmp.c ****   struct netif *netif = netif_list;
 1616              		.loc 1 640 0
 1617              		.cfi_startproc
 1618              		@ args = 0, pretend = 0, frame = 0
 1619              		@ frame_needed = 0, uses_anonymous_args = 0
 1620 0000 70B5     		push	{r4, r5, r6, lr}
 1621              		.cfi_def_cfa_offset 16
ARM GAS  C:\Users\Phuong\AppData\Local\Temp\ccKPluhm.s 			page 47


 1622              		.cfi_offset 4, -16
 1623              		.cfi_offset 5, -12
 1624              		.cfi_offset 6, -8
 1625              		.cfi_offset 14, -4
 641:Source\LwIP\src\core\ipv4/igmp.c **** 
 1626              		.loc 1 641 0
 1627 0002 0C4B     		ldr	r3, .L133
 1628 0004 1D68     		ldr	r5, [r3]
 1629              	.LVL180:
 643:Source\LwIP\src\core\ipv4/igmp.c ****     struct igmp_group *group = netif_igmp_data(netif);
 1630              		.loc 1 643 0
 1631 0006 11E0     		b	.L128
 1632              	.L132:
 1633              	.LBB5:
 644:Source\LwIP\src\core\ipv4/igmp.c **** 
 1634              		.loc 1 644 0
 1635 0008 AC6A     		ldr	r4, [r5, #40]
 1636              	.LVL181:
 646:Source\LwIP\src\core\ipv4/igmp.c ****       if (group->timer > 0) {
 1637              		.loc 1 646 0
 1638 000a 0CE0     		b	.L129
 1639              	.L131:
 647:Source\LwIP\src\core\ipv4/igmp.c ****         group->timer--;
 1640              		.loc 1 647 0
 1641 000c 6389     		ldrh	r3, [r4, #10]
 1642 000e 002B     		cmp	r3, #0
 1643 0010 08D0     		beq	.L130
 648:Source\LwIP\src\core\ipv4/igmp.c ****         if (group->timer == 0) {
 1644              		.loc 1 648 0
 1645 0012 013B     		subs	r3, r3, #1
 1646 0014 9BB2     		uxth	r3, r3
 1647 0016 6381     		strh	r3, [r4, #10]
 649:Source\LwIP\src\core\ipv4/igmp.c ****           igmp_timeout(netif, group);
 1648              		.loc 1 649 0
 1649 0018 002B     		cmp	r3, #0
 1650 001a 03D1     		bne	.L130
 650:Source\LwIP\src\core\ipv4/igmp.c ****         }
 1651              		.loc 1 650 0
 1652 001c 2100     		movs	r1, r4
 1653 001e 2800     		movs	r0, r5
 1654 0020 FFF7FEFF 		bl	igmp_timeout
 1655              	.LVL182:
 1656              	.L130:
 653:Source\LwIP\src\core\ipv4/igmp.c ****     }
 1657              		.loc 1 653 0
 1658 0024 2468     		ldr	r4, [r4]
 1659              	.LVL183:
 1660              	.L129:
 646:Source\LwIP\src\core\ipv4/igmp.c ****       if (group->timer > 0) {
 1661              		.loc 1 646 0
 1662 0026 002C     		cmp	r4, #0
 1663 0028 F0D1     		bne	.L131
 655:Source\LwIP\src\core\ipv4/igmp.c ****   }
 1664              		.loc 1 655 0
 1665 002a 2D68     		ldr	r5, [r5]
 1666              	.LVL184:
 1667              	.L128:
ARM GAS  C:\Users\Phuong\AppData\Local\Temp\ccKPluhm.s 			page 48


 1668              	.LBE5:
 643:Source\LwIP\src\core\ipv4/igmp.c ****     struct igmp_group *group = netif_igmp_data(netif);
 1669              		.loc 1 643 0
 1670 002c 002D     		cmp	r5, #0
 1671 002e EBD1     		bne	.L132
 657:Source\LwIP\src\core\ipv4/igmp.c **** 
 1672              		.loc 1 657 0
 1673              		@ sp needed
 1674              	.LVL185:
 1675 0030 70BD     		pop	{r4, r5, r6, pc}
 1676              	.L134:
 1677 0032 C046     		.align	2
 1678              	.L133:
 1679 0034 00000000 		.word	netif_list
 1680              		.cfi_endproc
 1681              	.LFE65:
 1682              		.size	igmp_tmr, .-igmp_tmr
 1683              		.section	.rodata.str1.4,"aMS",%progbits,1
 1684              		.align	2
 1685              	.LC7:
 1686 0000 536F7572 		.ascii	"Source\\LwIP\\src\\core\\ipv4\\igmp.c\000"
 1686      63655C4C 
 1686      7749505C 
 1686      7372635C 
 1686      636F7265 
 1687              		.bss
 1688              		.align	2
 1689              		.set	.LANCHOR0,. + 0
 1690              		.type	allrouters, %object
 1691              		.size	allrouters, 4
 1692              	allrouters:
 1693 0000 00000000 		.space	4
 1694              		.type	allsystems, %object
 1695              		.size	allsystems, 4
 1696              	allsystems:
 1697 0004 00000000 		.space	4
 1698              		.text
 1699              	.Letext0:
 1700              		.file 2 "c:\\program files (x86)\\cypress\\psoc creator\\4.2\\psoc creator\\import\\gnu\\arm\\5.4.
 1701              		.file 3 "c:\\program files (x86)\\cypress\\psoc creator\\4.2\\psoc creator\\import\\gnu\\arm\\5.4.
 1702              		.file 4 "c:\\program files (x86)\\cypress\\psoc creator\\4.2\\psoc creator\\import\\gnu\\arm\\5.4.
 1703              		.file 5 ".\\Source\\LwIP\\src\\include/arch/cc.h"
 1704              		.file 6 ".\\Source\\LwIP\\src\\include/lwip/ip4_addr.h"
 1705              		.file 7 ".\\Source\\LwIP\\src\\include/lwip/ip_addr.h"
 1706              		.file 8 ".\\Source\\LwIP\\src\\include/lwip/err.h"
 1707              		.file 9 ".\\Source\\LwIP\\src\\include/lwip/pbuf.h"
 1708              		.file 10 ".\\Source\\LwIP\\src\\include/lwip/mem.h"
 1709              		.file 11 ".\\Source\\LwIP\\src\\include/lwip/memp.h"
 1710              		.file 12 ".\\Source\\LwIP\\src\\include/lwip/stats.h"
 1711              		.file 13 ".\\Source\\LwIP\\src\\include/lwip/netif.h"
 1712              		.file 14 ".\\Source\\LwIP\\src\\include/lwip/igmp.h"
 1713              		.file 15 ".\\Source\\LwIP\\src\\include/lwip/prot/ip4.h"
 1714              		.file 16 ".\\Source\\LwIP\\src\\include/lwip/ip.h"
 1715              		.file 17 ".\\Source\\LwIP\\src\\include/lwip/prot/igmp.h"
 1716              		.file 18 ".\\Source\\LwIP\\src\\include/arch/sys_arch.h"
 1717              		.file 19 ".\\Source\\LwIP\\src\\include/lwip/ip4.h"
 1718              		.file 20 ".\\Source\\LwIP\\src\\include/lwip/inet_chksum.h"
ARM GAS  C:\Users\Phuong\AppData\Local\Temp\ccKPluhm.s 			page 49

