ARM GAS  C:\Users\Phuong\AppData\Local\Temp\ccG70vIr.s 			page 1


   1              		.syntax unified
   2              		.cpu cortex-m0plus
   3              		.fpu softvfp
   4              		.eabi_attribute 20, 1
   5              		.eabi_attribute 21, 1
   6              		.eabi_attribute 23, 3
   7              		.eabi_attribute 24, 1
   8              		.eabi_attribute 25, 1
   9              		.eabi_attribute 26, 1
  10              		.eabi_attribute 30, 1
  11              		.eabi_attribute 34, 0
  12              		.eabi_attribute 18, 4
  13              		.thumb
  14              		.syntax unified
  15              		.file	"inet_chksum.c"
  16              		.text
  17              	.Ltext0:
  18              		.cfi_sections	.debug_frame
  19              		.section	.text.lwip_standard_chksum,"ax",%progbits
  20              		.align	2
  21              		.global	lwip_standard_chksum
  22              		.code	16
  23              		.thumb_func
  24              		.type	lwip_standard_chksum, %function
  25              	lwip_standard_chksum:
  26              	.LFB53:
  27              		.file 1 "Source\\LwIP\\src\\core\\inet_chksum.c"
   1:Source\LwIP\src\core/inet_chksum.c **** /**
   2:Source\LwIP\src\core/inet_chksum.c ****  * @file
   3:Source\LwIP\src\core/inet_chksum.c ****  * Incluse internet checksum functions.\n
   4:Source\LwIP\src\core/inet_chksum.c ****  *
   5:Source\LwIP\src\core/inet_chksum.c ****  * These are some reference implementations of the checksum algorithm, with the
   6:Source\LwIP\src\core/inet_chksum.c ****  * aim of being simple, correct and fully portable. Checksumming is the
   7:Source\LwIP\src\core/inet_chksum.c ****  * first thing you would want to optimize for your platform. If you create
   8:Source\LwIP\src\core/inet_chksum.c ****  * your own version, link it in and in your cc.h put:
   9:Source\LwIP\src\core/inet_chksum.c ****  *
  10:Source\LwIP\src\core/inet_chksum.c ****  * \#define LWIP_CHKSUM your_checksum_routine
  11:Source\LwIP\src\core/inet_chksum.c ****  * 
  12:Source\LwIP\src\core/inet_chksum.c ****  * Or you can select from the implementations below by defining
  13:Source\LwIP\src\core/inet_chksum.c ****  * LWIP_CHKSUM_ALGORITHM to 1, 2 or 3.
  14:Source\LwIP\src\core/inet_chksum.c ****  */
  15:Source\LwIP\src\core/inet_chksum.c **** 
  16:Source\LwIP\src\core/inet_chksum.c **** /*
  17:Source\LwIP\src\core/inet_chksum.c ****  * Copyright (c) 2001-2004 Swedish Institute of Computer Science.
  18:Source\LwIP\src\core/inet_chksum.c ****  * All rights reserved.
  19:Source\LwIP\src\core/inet_chksum.c ****  *
  20:Source\LwIP\src\core/inet_chksum.c ****  * Redistribution and use in source and binary forms, with or without modification,
  21:Source\LwIP\src\core/inet_chksum.c ****  * are permitted provided that the following conditions are met:
  22:Source\LwIP\src\core/inet_chksum.c ****  *
  23:Source\LwIP\src\core/inet_chksum.c ****  * 1. Redistributions of source code must retain the above copyright notice,
  24:Source\LwIP\src\core/inet_chksum.c ****  *    this list of conditions and the following disclaimer.
  25:Source\LwIP\src\core/inet_chksum.c ****  * 2. Redistributions in binary form must reproduce the above copyright notice,
  26:Source\LwIP\src\core/inet_chksum.c ****  *    this list of conditions and the following disclaimer in the documentation
  27:Source\LwIP\src\core/inet_chksum.c ****  *    and/or other materials provided with the distribution.
  28:Source\LwIP\src\core/inet_chksum.c ****  * 3. The name of the author may not be used to endorse or promote products
  29:Source\LwIP\src\core/inet_chksum.c ****  *    derived from this software without specific prior written permission.
  30:Source\LwIP\src\core/inet_chksum.c ****  *
ARM GAS  C:\Users\Phuong\AppData\Local\Temp\ccG70vIr.s 			page 2


  31:Source\LwIP\src\core/inet_chksum.c ****  * THIS SOFTWARE IS PROVIDED BY THE AUTHOR ``AS IS'' AND ANY EXPRESS OR IMPLIED
  32:Source\LwIP\src\core/inet_chksum.c ****  * WARRANTIES, INCLUDING, BUT NOT LIMITED TO, THE IMPLIED WARRANTIES OF
  33:Source\LwIP\src\core/inet_chksum.c ****  * MERCHANTABILITY AND FITNESS FOR A PARTICULAR PURPOSE ARE DISCLAIMED. IN NO EVENT
  34:Source\LwIP\src\core/inet_chksum.c ****  * SHALL THE AUTHOR BE LIABLE FOR ANY DIRECT, INDIRECT, INCIDENTAL, SPECIAL,
  35:Source\LwIP\src\core/inet_chksum.c ****  * EXEMPLARY, OR CONSEQUENTIAL DAMAGES (INCLUDING, BUT NOT LIMITED TO, PROCUREMENT
  36:Source\LwIP\src\core/inet_chksum.c ****  * OF SUBSTITUTE GOODS OR SERVICES; LOSS OF USE, DATA, OR PROFITS; OR BUSINESS
  37:Source\LwIP\src\core/inet_chksum.c ****  * INTERRUPTION) HOWEVER CAUSED AND ON ANY THEORY OF LIABILITY, WHETHER IN
  38:Source\LwIP\src\core/inet_chksum.c ****  * CONTRACT, STRICT LIABILITY, OR TORT (INCLUDING NEGLIGENCE OR OTHERWISE) ARISING
  39:Source\LwIP\src\core/inet_chksum.c ****  * IN ANY WAY OUT OF THE USE OF THIS SOFTWARE, EVEN IF ADVISED OF THE POSSIBILITY
  40:Source\LwIP\src\core/inet_chksum.c ****  * OF SUCH DAMAGE.
  41:Source\LwIP\src\core/inet_chksum.c ****  *
  42:Source\LwIP\src\core/inet_chksum.c ****  * This file is part of the lwIP TCP/IP stack.
  43:Source\LwIP\src\core/inet_chksum.c ****  *
  44:Source\LwIP\src\core/inet_chksum.c ****  * Author: Adam Dunkels <adam@sics.se>
  45:Source\LwIP\src\core/inet_chksum.c ****  *
  46:Source\LwIP\src\core/inet_chksum.c ****  */
  47:Source\LwIP\src\core/inet_chksum.c **** 
  48:Source\LwIP\src\core/inet_chksum.c **** #include "lwip/opt.h"
  49:Source\LwIP\src\core/inet_chksum.c **** 
  50:Source\LwIP\src\core/inet_chksum.c **** #include "lwip/inet_chksum.h"
  51:Source\LwIP\src\core/inet_chksum.c **** #include "lwip/def.h"
  52:Source\LwIP\src\core/inet_chksum.c **** #include "lwip/ip_addr.h"
  53:Source\LwIP\src\core/inet_chksum.c **** 
  54:Source\LwIP\src\core/inet_chksum.c **** #include <string.h>
  55:Source\LwIP\src\core/inet_chksum.c **** 
  56:Source\LwIP\src\core/inet_chksum.c **** #ifndef LWIP_CHKSUM
  57:Source\LwIP\src\core/inet_chksum.c **** # define LWIP_CHKSUM lwip_standard_chksum
  58:Source\LwIP\src\core/inet_chksum.c **** # ifndef LWIP_CHKSUM_ALGORITHM
  59:Source\LwIP\src\core/inet_chksum.c **** #  define LWIP_CHKSUM_ALGORITHM 2
  60:Source\LwIP\src\core/inet_chksum.c **** # endif
  61:Source\LwIP\src\core/inet_chksum.c **** u16_t lwip_standard_chksum(const void *dataptr, int len);
  62:Source\LwIP\src\core/inet_chksum.c **** #endif
  63:Source\LwIP\src\core/inet_chksum.c **** /* If none set: */
  64:Source\LwIP\src\core/inet_chksum.c **** #ifndef LWIP_CHKSUM_ALGORITHM
  65:Source\LwIP\src\core/inet_chksum.c **** # define LWIP_CHKSUM_ALGORITHM 0
  66:Source\LwIP\src\core/inet_chksum.c **** #endif
  67:Source\LwIP\src\core/inet_chksum.c **** 
  68:Source\LwIP\src\core/inet_chksum.c **** #if (LWIP_CHKSUM_ALGORITHM == 1) /* Version #1 */
  69:Source\LwIP\src\core/inet_chksum.c **** /**
  70:Source\LwIP\src\core/inet_chksum.c ****  * lwip checksum
  71:Source\LwIP\src\core/inet_chksum.c ****  *
  72:Source\LwIP\src\core/inet_chksum.c ****  * @param dataptr points to start of data to be summed at any boundary
  73:Source\LwIP\src\core/inet_chksum.c ****  * @param len length of data to be summed
  74:Source\LwIP\src\core/inet_chksum.c ****  * @return host order (!) lwip checksum (non-inverted Internet sum)
  75:Source\LwIP\src\core/inet_chksum.c ****  *
  76:Source\LwIP\src\core/inet_chksum.c ****  * @note accumulator size limits summable length to 64k
  77:Source\LwIP\src\core/inet_chksum.c ****  * @note host endianess is irrelevant (p3 RFC1071)
  78:Source\LwIP\src\core/inet_chksum.c ****  */
  79:Source\LwIP\src\core/inet_chksum.c **** u16_t
  80:Source\LwIP\src\core/inet_chksum.c **** lwip_standard_chksum(const void *dataptr, int len)
  81:Source\LwIP\src\core/inet_chksum.c **** {
  82:Source\LwIP\src\core/inet_chksum.c ****   u32_t acc;
  83:Source\LwIP\src\core/inet_chksum.c ****   u16_t src;
  84:Source\LwIP\src\core/inet_chksum.c ****   const u8_t *octetptr;
  85:Source\LwIP\src\core/inet_chksum.c **** 
  86:Source\LwIP\src\core/inet_chksum.c ****   acc = 0;
  87:Source\LwIP\src\core/inet_chksum.c ****   /* dataptr may be at odd or even addresses */
ARM GAS  C:\Users\Phuong\AppData\Local\Temp\ccG70vIr.s 			page 3


  88:Source\LwIP\src\core/inet_chksum.c ****   octetptr = (const u8_t*)dataptr;
  89:Source\LwIP\src\core/inet_chksum.c ****   while (len > 1) {
  90:Source\LwIP\src\core/inet_chksum.c ****     /* declare first octet as most significant
  91:Source\LwIP\src\core/inet_chksum.c ****        thus assume network order, ignoring host order */
  92:Source\LwIP\src\core/inet_chksum.c ****     src = (*octetptr) << 8;
  93:Source\LwIP\src\core/inet_chksum.c ****     octetptr++;
  94:Source\LwIP\src\core/inet_chksum.c ****     /* declare second octet as least significant */
  95:Source\LwIP\src\core/inet_chksum.c ****     src |= (*octetptr);
  96:Source\LwIP\src\core/inet_chksum.c ****     octetptr++;
  97:Source\LwIP\src\core/inet_chksum.c ****     acc += src;
  98:Source\LwIP\src\core/inet_chksum.c ****     len -= 2;
  99:Source\LwIP\src\core/inet_chksum.c ****   }
 100:Source\LwIP\src\core/inet_chksum.c ****   if (len > 0) {
 101:Source\LwIP\src\core/inet_chksum.c ****     /* accumulate remaining octet */
 102:Source\LwIP\src\core/inet_chksum.c ****     src = (*octetptr) << 8;
 103:Source\LwIP\src\core/inet_chksum.c ****     acc += src;
 104:Source\LwIP\src\core/inet_chksum.c ****   }
 105:Source\LwIP\src\core/inet_chksum.c ****   /* add deferred carry bits */
 106:Source\LwIP\src\core/inet_chksum.c ****   acc = (acc >> 16) + (acc & 0x0000ffffUL);
 107:Source\LwIP\src\core/inet_chksum.c ****   if ((acc & 0xffff0000UL) != 0) {
 108:Source\LwIP\src\core/inet_chksum.c ****     acc = (acc >> 16) + (acc & 0x0000ffffUL);
 109:Source\LwIP\src\core/inet_chksum.c ****   }
 110:Source\LwIP\src\core/inet_chksum.c ****   /* This maybe a little confusing: reorder sum using lwip_htons()
 111:Source\LwIP\src\core/inet_chksum.c ****      instead of lwip_ntohs() since it has a little less call overhead.
 112:Source\LwIP\src\core/inet_chksum.c ****      The caller must invert bits for Internet sum ! */
 113:Source\LwIP\src\core/inet_chksum.c ****   return lwip_htons((u16_t)acc);
 114:Source\LwIP\src\core/inet_chksum.c **** }
 115:Source\LwIP\src\core/inet_chksum.c **** #endif
 116:Source\LwIP\src\core/inet_chksum.c **** 
 117:Source\LwIP\src\core/inet_chksum.c **** #if (LWIP_CHKSUM_ALGORITHM == 2) /* Alternative version #2 */
 118:Source\LwIP\src\core/inet_chksum.c **** /*
 119:Source\LwIP\src\core/inet_chksum.c ****  * Curt McDowell
 120:Source\LwIP\src\core/inet_chksum.c ****  * Broadcom Corp.
 121:Source\LwIP\src\core/inet_chksum.c ****  * csm@broadcom.com
 122:Source\LwIP\src\core/inet_chksum.c ****  *
 123:Source\LwIP\src\core/inet_chksum.c ****  * IP checksum two bytes at a time with support for
 124:Source\LwIP\src\core/inet_chksum.c ****  * unaligned buffer.
 125:Source\LwIP\src\core/inet_chksum.c ****  * Works for len up to and including 0x20000.
 126:Source\LwIP\src\core/inet_chksum.c ****  * by Curt McDowell, Broadcom Corp. 12/08/2005
 127:Source\LwIP\src\core/inet_chksum.c ****  *
 128:Source\LwIP\src\core/inet_chksum.c ****  * @param dataptr points to start of data to be summed at any boundary
 129:Source\LwIP\src\core/inet_chksum.c ****  * @param len length of data to be summed
 130:Source\LwIP\src\core/inet_chksum.c ****  * @return host order (!) lwip checksum (non-inverted Internet sum)
 131:Source\LwIP\src\core/inet_chksum.c ****  */
 132:Source\LwIP\src\core/inet_chksum.c **** u16_t
 133:Source\LwIP\src\core/inet_chksum.c **** lwip_standard_chksum(const void *dataptr, int len)
 134:Source\LwIP\src\core/inet_chksum.c **** {
  28              		.loc 1 134 0
  29              		.cfi_startproc
  30              		@ args = 0, pretend = 0, frame = 8
  31              		@ frame_needed = 0, uses_anonymous_args = 0
  32              	.LVL0:
  33 0000 10B5     		push	{r4, lr}
  34              		.cfi_def_cfa_offset 8
  35              		.cfi_offset 4, -8
  36              		.cfi_offset 14, -4
  37 0002 82B0     		sub	sp, sp, #8
ARM GAS  C:\Users\Phuong\AppData\Local\Temp\ccG70vIr.s 			page 4


  38              		.cfi_def_cfa_offset 16
  39              	.LVL1:
 135:Source\LwIP\src\core/inet_chksum.c ****   const u8_t *pb = (const u8_t *)dataptr;
 136:Source\LwIP\src\core/inet_chksum.c ****   const u16_t *ps;
 137:Source\LwIP\src\core/inet_chksum.c ****   u16_t t = 0;
  40              		.loc 1 137 0
  41 0004 0022     		movs	r2, #0
  42 0006 6B46     		mov	r3, sp
  43 0008 DA80     		strh	r2, [r3, #6]
  44              	.LVL2:
 138:Source\LwIP\src\core/inet_chksum.c ****   u32_t sum = 0;
 139:Source\LwIP\src\core/inet_chksum.c ****   int odd = ((mem_ptr_t)pb & 1);
  45              		.loc 1 139 0
  46 000a 0124     		movs	r4, #1
  47 000c 0440     		ands	r4, r0
  48              	.LVL3:
 140:Source\LwIP\src\core/inet_chksum.c **** 
 141:Source\LwIP\src\core/inet_chksum.c ****   /* Get aligned to u16_t */
 142:Source\LwIP\src\core/inet_chksum.c ****   if (odd && len > 0) {
  49              		.loc 1 142 0
  50 000e 06D0     		beq	.L2
  51              		.loc 1 142 0 is_stmt 0 discriminator 1
  52 0010 0029     		cmp	r1, #0
  53 0012 04DD     		ble	.L2
  54              	.LVL4:
 143:Source\LwIP\src\core/inet_chksum.c ****     ((u8_t *)&t)[1] = *pb++;
  55              		.loc 1 143 0 is_stmt 1
  56 0014 0278     		ldrb	r2, [r0]
  57 0016 6B46     		mov	r3, sp
  58 0018 DA71     		strb	r2, [r3, #7]
 144:Source\LwIP\src\core/inet_chksum.c ****     len--;
  59              		.loc 1 144 0
  60 001a 0139     		subs	r1, r1, #1
  61              	.LVL5:
 143:Source\LwIP\src\core/inet_chksum.c ****     ((u8_t *)&t)[1] = *pb++;
  62              		.loc 1 143 0
  63 001c 0130     		adds	r0, r0, #1
  64              	.LVL6:
  65              	.L2:
 138:Source\LwIP\src\core/inet_chksum.c ****   int odd = ((mem_ptr_t)pb & 1);
  66              		.loc 1 138 0
  67 001e 0023     		movs	r3, #0
 145:Source\LwIP\src\core/inet_chksum.c ****   }
 146:Source\LwIP\src\core/inet_chksum.c **** 
 147:Source\LwIP\src\core/inet_chksum.c ****   /* Add the bulk of the data */
 148:Source\LwIP\src\core/inet_chksum.c ****   ps = (const u16_t *)(const void *)pb;
 149:Source\LwIP\src\core/inet_chksum.c ****   while (len > 1) {
  68              		.loc 1 149 0
  69 0020 03E0     		b	.L3
  70              	.LVL7:
  71              	.L4:
 150:Source\LwIP\src\core/inet_chksum.c ****     sum += *ps++;
  72              		.loc 1 150 0
  73 0022 0288     		ldrh	r2, [r0]
  74 0024 9B18     		adds	r3, r3, r2
  75              	.LVL8:
 151:Source\LwIP\src\core/inet_chksum.c ****     len -= 2;
ARM GAS  C:\Users\Phuong\AppData\Local\Temp\ccG70vIr.s 			page 5


  76              		.loc 1 151 0
  77 0026 0239     		subs	r1, r1, #2
  78              	.LVL9:
 150:Source\LwIP\src\core/inet_chksum.c ****     sum += *ps++;
  79              		.loc 1 150 0
  80 0028 0230     		adds	r0, r0, #2
  81              	.LVL10:
  82              	.L3:
 149:Source\LwIP\src\core/inet_chksum.c ****     sum += *ps++;
  83              		.loc 1 149 0
  84 002a 0129     		cmp	r1, #1
  85 002c F9DC     		bgt	.L4
 152:Source\LwIP\src\core/inet_chksum.c ****   }
 153:Source\LwIP\src\core/inet_chksum.c **** 
 154:Source\LwIP\src\core/inet_chksum.c ****   /* Consume left-over byte, if any */
 155:Source\LwIP\src\core/inet_chksum.c ****   if (len > 0) {
  86              		.loc 1 155 0
  87 002e 0029     		cmp	r1, #0
  88 0030 02DD     		ble	.L5
 156:Source\LwIP\src\core/inet_chksum.c ****     ((u8_t *)&t)[0] = *(const u8_t *)ps;
  89              		.loc 1 156 0
  90 0032 0178     		ldrb	r1, [r0]
  91              	.LVL11:
  92 0034 6A46     		mov	r2, sp
  93 0036 9171     		strb	r1, [r2, #6]
  94              	.L5:
 157:Source\LwIP\src\core/inet_chksum.c ****   }
 158:Source\LwIP\src\core/inet_chksum.c **** 
 159:Source\LwIP\src\core/inet_chksum.c ****   /* Add end bytes */
 160:Source\LwIP\src\core/inet_chksum.c ****   sum += t;
  95              		.loc 1 160 0
  96 0038 6A46     		mov	r2, sp
  97 003a 0632     		adds	r2, r2, #6
  98 003c 1288     		ldrh	r2, [r2]
  99 003e D318     		adds	r3, r2, r3
 100              	.LVL12:
 161:Source\LwIP\src\core/inet_chksum.c **** 
 162:Source\LwIP\src\core/inet_chksum.c ****   /* Fold 32-bit sum to 16 bits
 163:Source\LwIP\src\core/inet_chksum.c ****      calling this twice is probably faster than if statements... */
 164:Source\LwIP\src\core/inet_chksum.c ****   sum = FOLD_U32T(sum);
 101              		.loc 1 164 0
 102 0040 180C     		lsrs	r0, r3, #16
 103              	.LVL13:
 104 0042 1B04     		lsls	r3, r3, #16
 105              	.LVL14:
 106 0044 1B0C     		lsrs	r3, r3, #16
 107 0046 C318     		adds	r3, r0, r3
 108              	.LVL15:
 165:Source\LwIP\src\core/inet_chksum.c ****   sum = FOLD_U32T(sum);
 109              		.loc 1 165 0
 110 0048 180C     		lsrs	r0, r3, #16
 111 004a 1B04     		lsls	r3, r3, #16
 112              	.LVL16:
 113 004c 1B0C     		lsrs	r3, r3, #16
 114 004e C018     		adds	r0, r0, r3
 115              	.LVL17:
 166:Source\LwIP\src\core/inet_chksum.c **** 
ARM GAS  C:\Users\Phuong\AppData\Local\Temp\ccG70vIr.s 			page 6


 167:Source\LwIP\src\core/inet_chksum.c ****   /* Swap if alignment was odd */
 168:Source\LwIP\src\core/inet_chksum.c ****   if (odd) {
 116              		.loc 1 168 0
 117 0050 002C     		cmp	r4, #0
 118 0052 05D0     		beq	.L6
 169:Source\LwIP\src\core/inet_chksum.c ****     sum = SWAP_BYTES_IN_WORD(sum);
 119              		.loc 1 169 0
 120 0054 0306     		lsls	r3, r0, #24
 121 0056 1B0C     		lsrs	r3, r3, #16
 122 0058 000A     		lsrs	r0, r0, #8
 123              	.LVL18:
 124 005a FF22     		movs	r2, #255
 125 005c 1040     		ands	r0, r2
 126 005e 1843     		orrs	r0, r3
 127              	.LVL19:
 128              	.L6:
 170:Source\LwIP\src\core/inet_chksum.c ****   }
 171:Source\LwIP\src\core/inet_chksum.c **** 
 172:Source\LwIP\src\core/inet_chksum.c ****   return (u16_t)sum;
 129              		.loc 1 172 0
 130 0060 80B2     		uxth	r0, r0
 131              	.LVL20:
 173:Source\LwIP\src\core/inet_chksum.c **** }
 132              		.loc 1 173 0
 133 0062 02B0     		add	sp, sp, #8
 134              		@ sp needed
 135              	.LVL21:
 136 0064 10BD     		pop	{r4, pc}
 137              		.cfi_endproc
 138              	.LFE53:
 139              		.size	lwip_standard_chksum, .-lwip_standard_chksum
 140 0066 C046     		.section	.text.inet_cksum_pseudo_base,"ax",%progbits
 141              		.align	2
 142              		.code	16
 143              		.thumb_func
 144              		.type	inet_cksum_pseudo_base, %function
 145              	inet_cksum_pseudo_base:
 146              	.LFB54:
 174:Source\LwIP\src\core/inet_chksum.c **** #endif
 175:Source\LwIP\src\core/inet_chksum.c **** 
 176:Source\LwIP\src\core/inet_chksum.c **** #if (LWIP_CHKSUM_ALGORITHM == 3) /* Alternative version #3 */
 177:Source\LwIP\src\core/inet_chksum.c **** /**
 178:Source\LwIP\src\core/inet_chksum.c ****  * An optimized checksum routine. Basically, it uses loop-unrolling on
 179:Source\LwIP\src\core/inet_chksum.c ****  * the checksum loop, treating the head and tail bytes specially, whereas
 180:Source\LwIP\src\core/inet_chksum.c ****  * the inner loop acts on 8 bytes at a time.
 181:Source\LwIP\src\core/inet_chksum.c ****  *
 182:Source\LwIP\src\core/inet_chksum.c ****  * @arg start of buffer to be checksummed. May be an odd byte address.
 183:Source\LwIP\src\core/inet_chksum.c ****  * @len number of bytes in the buffer to be checksummed.
 184:Source\LwIP\src\core/inet_chksum.c ****  * @return host order (!) lwip checksum (non-inverted Internet sum)
 185:Source\LwIP\src\core/inet_chksum.c ****  *
 186:Source\LwIP\src\core/inet_chksum.c ****  * by Curt McDowell, Broadcom Corp. December 8th, 2005
 187:Source\LwIP\src\core/inet_chksum.c ****  */
 188:Source\LwIP\src\core/inet_chksum.c **** u16_t
 189:Source\LwIP\src\core/inet_chksum.c **** lwip_standard_chksum(const void *dataptr, int len)
 190:Source\LwIP\src\core/inet_chksum.c **** {
 191:Source\LwIP\src\core/inet_chksum.c ****   const u8_t *pb = (const u8_t *)dataptr;
 192:Source\LwIP\src\core/inet_chksum.c ****   const u16_t *ps;
ARM GAS  C:\Users\Phuong\AppData\Local\Temp\ccG70vIr.s 			page 7


 193:Source\LwIP\src\core/inet_chksum.c ****   u16_t t = 0;
 194:Source\LwIP\src\core/inet_chksum.c ****   const u32_t *pl;
 195:Source\LwIP\src\core/inet_chksum.c ****   u32_t sum = 0, tmp;
 196:Source\LwIP\src\core/inet_chksum.c ****   /* starts at odd byte address? */
 197:Source\LwIP\src\core/inet_chksum.c ****   int odd = ((mem_ptr_t)pb & 1);
 198:Source\LwIP\src\core/inet_chksum.c **** 
 199:Source\LwIP\src\core/inet_chksum.c ****   if (odd && len > 0) {
 200:Source\LwIP\src\core/inet_chksum.c ****     ((u8_t *)&t)[1] = *pb++;
 201:Source\LwIP\src\core/inet_chksum.c ****     len--;
 202:Source\LwIP\src\core/inet_chksum.c ****   }
 203:Source\LwIP\src\core/inet_chksum.c **** 
 204:Source\LwIP\src\core/inet_chksum.c ****   ps = (const u16_t *)(const void*)pb;
 205:Source\LwIP\src\core/inet_chksum.c **** 
 206:Source\LwIP\src\core/inet_chksum.c ****   if (((mem_ptr_t)ps & 3) && len > 1) {
 207:Source\LwIP\src\core/inet_chksum.c ****     sum += *ps++;
 208:Source\LwIP\src\core/inet_chksum.c ****     len -= 2;
 209:Source\LwIP\src\core/inet_chksum.c ****   }
 210:Source\LwIP\src\core/inet_chksum.c **** 
 211:Source\LwIP\src\core/inet_chksum.c ****   pl = (const u32_t *)(const void*)ps;
 212:Source\LwIP\src\core/inet_chksum.c **** 
 213:Source\LwIP\src\core/inet_chksum.c ****   while (len > 7)  {
 214:Source\LwIP\src\core/inet_chksum.c ****     tmp = sum + *pl++;          /* ping */
 215:Source\LwIP\src\core/inet_chksum.c ****     if (tmp < sum) {
 216:Source\LwIP\src\core/inet_chksum.c ****       tmp++;                    /* add back carry */
 217:Source\LwIP\src\core/inet_chksum.c ****     }
 218:Source\LwIP\src\core/inet_chksum.c **** 
 219:Source\LwIP\src\core/inet_chksum.c ****     sum = tmp + *pl++;          /* pong */
 220:Source\LwIP\src\core/inet_chksum.c ****     if (sum < tmp) {
 221:Source\LwIP\src\core/inet_chksum.c ****       sum++;                    /* add back carry */
 222:Source\LwIP\src\core/inet_chksum.c ****     }
 223:Source\LwIP\src\core/inet_chksum.c **** 
 224:Source\LwIP\src\core/inet_chksum.c ****     len -= 8;
 225:Source\LwIP\src\core/inet_chksum.c ****   }
 226:Source\LwIP\src\core/inet_chksum.c **** 
 227:Source\LwIP\src\core/inet_chksum.c ****   /* make room in upper bits */
 228:Source\LwIP\src\core/inet_chksum.c ****   sum = FOLD_U32T(sum);
 229:Source\LwIP\src\core/inet_chksum.c **** 
 230:Source\LwIP\src\core/inet_chksum.c ****   ps = (const u16_t *)pl;
 231:Source\LwIP\src\core/inet_chksum.c **** 
 232:Source\LwIP\src\core/inet_chksum.c ****   /* 16-bit aligned word remaining? */
 233:Source\LwIP\src\core/inet_chksum.c ****   while (len > 1) {
 234:Source\LwIP\src\core/inet_chksum.c ****     sum += *ps++;
 235:Source\LwIP\src\core/inet_chksum.c ****     len -= 2;
 236:Source\LwIP\src\core/inet_chksum.c ****   }
 237:Source\LwIP\src\core/inet_chksum.c **** 
 238:Source\LwIP\src\core/inet_chksum.c ****   /* dangling tail byte remaining? */
 239:Source\LwIP\src\core/inet_chksum.c ****   if (len > 0) {                /* include odd byte */
 240:Source\LwIP\src\core/inet_chksum.c ****     ((u8_t *)&t)[0] = *(const u8_t *)ps;
 241:Source\LwIP\src\core/inet_chksum.c ****   }
 242:Source\LwIP\src\core/inet_chksum.c **** 
 243:Source\LwIP\src\core/inet_chksum.c ****   sum += t;                     /* add end bytes */
 244:Source\LwIP\src\core/inet_chksum.c **** 
 245:Source\LwIP\src\core/inet_chksum.c ****   /* Fold 32-bit sum to 16 bits
 246:Source\LwIP\src\core/inet_chksum.c ****      calling this twice is probably faster than if statements... */
 247:Source\LwIP\src\core/inet_chksum.c ****   sum = FOLD_U32T(sum);
 248:Source\LwIP\src\core/inet_chksum.c ****   sum = FOLD_U32T(sum);
 249:Source\LwIP\src\core/inet_chksum.c **** 
ARM GAS  C:\Users\Phuong\AppData\Local\Temp\ccG70vIr.s 			page 8


 250:Source\LwIP\src\core/inet_chksum.c ****   if (odd) {
 251:Source\LwIP\src\core/inet_chksum.c ****     sum = SWAP_BYTES_IN_WORD(sum);
 252:Source\LwIP\src\core/inet_chksum.c ****   }
 253:Source\LwIP\src\core/inet_chksum.c **** 
 254:Source\LwIP\src\core/inet_chksum.c ****   return (u16_t)sum;
 255:Source\LwIP\src\core/inet_chksum.c **** }
 256:Source\LwIP\src\core/inet_chksum.c **** #endif
 257:Source\LwIP\src\core/inet_chksum.c **** 
 258:Source\LwIP\src\core/inet_chksum.c **** /** Parts of the pseudo checksum which are common to IPv4 and IPv6 */
 259:Source\LwIP\src\core/inet_chksum.c **** static u16_t
 260:Source\LwIP\src\core/inet_chksum.c **** inet_cksum_pseudo_base(struct pbuf *p, u8_t proto, u16_t proto_len, u32_t acc)
 261:Source\LwIP\src\core/inet_chksum.c **** {
 147              		.loc 1 261 0
 148              		.cfi_startproc
 149              		@ args = 0, pretend = 0, frame = 8
 150              		@ frame_needed = 0, uses_anonymous_args = 0
 151              	.LVL22:
 152 0000 F0B5     		push	{r4, r5, r6, r7, lr}
 153              		.cfi_def_cfa_offset 20
 154              		.cfi_offset 4, -20
 155              		.cfi_offset 5, -16
 156              		.cfi_offset 6, -12
 157              		.cfi_offset 7, -8
 158              		.cfi_offset 14, -4
 159 0002 83B0     		sub	sp, sp, #12
 160              		.cfi_def_cfa_offset 32
 161 0004 0600     		movs	r6, r0
 162 0006 0191     		str	r1, [sp, #4]
 163 0008 1500     		movs	r5, r2
 164 000a 1C00     		movs	r4, r3
 165              	.LVL23:
 262:Source\LwIP\src\core/inet_chksum.c ****   struct pbuf *q;
 263:Source\LwIP\src\core/inet_chksum.c ****   u8_t swapped = 0;
 166              		.loc 1 263 0
 167 000c 0027     		movs	r7, #0
 264:Source\LwIP\src\core/inet_chksum.c **** 
 265:Source\LwIP\src\core/inet_chksum.c ****   /* iterate through all pbuf in chain */
 266:Source\LwIP\src\core/inet_chksum.c ****   for (q = p; q != NULL; q = q->next) {
 168              		.loc 1 266 0
 169 000e 16E0     		b	.L8
 170              	.LVL24:
 171              	.L10:
 267:Source\LwIP\src\core/inet_chksum.c ****     LWIP_DEBUGF(INET_DEBUG, ("inet_chksum_pseudo(): checksumming pbuf %p (has next %p) \n",
 268:Source\LwIP\src\core/inet_chksum.c ****       (void *)q, (void *)q->next));
 269:Source\LwIP\src\core/inet_chksum.c ****     acc += LWIP_CHKSUM(q->payload, q->len);
 172              		.loc 1 269 0
 173 0010 7189     		ldrh	r1, [r6, #10]
 174 0012 7068     		ldr	r0, [r6, #4]
 175 0014 FFF7FEFF 		bl	lwip_standard_chksum
 176              	.LVL25:
 177 0018 0019     		adds	r0, r0, r4
 178              	.LVL26:
 270:Source\LwIP\src\core/inet_chksum.c ****     /*LWIP_DEBUGF(INET_DEBUG, ("inet_chksum_pseudo(): unwrapped lwip_chksum()=%"X32_F" \n", acc));*
 271:Source\LwIP\src\core/inet_chksum.c ****     /* just executing this next line is probably faster that the if statement needed
 272:Source\LwIP\src\core/inet_chksum.c ****        to check whether we really need to execute it, and does no harm */
 273:Source\LwIP\src\core/inet_chksum.c ****     acc = FOLD_U32T(acc);
 179              		.loc 1 273 0
ARM GAS  C:\Users\Phuong\AppData\Local\Temp\ccG70vIr.s 			page 9


 180 001a 030C     		lsrs	r3, r0, #16
 181 001c 0004     		lsls	r0, r0, #16
 182              	.LVL27:
 183 001e 000C     		lsrs	r0, r0, #16
 184 0020 1C18     		adds	r4, r3, r0
 185              	.LVL28:
 274:Source\LwIP\src\core/inet_chksum.c ****     if (q->len % 2 != 0) {
 186              		.loc 1 274 0
 187 0022 7389     		ldrh	r3, [r6, #10]
 188 0024 DB07     		lsls	r3, r3, #31
 189 0026 09D5     		bpl	.L9
 275:Source\LwIP\src\core/inet_chksum.c ****       swapped = 1 - swapped;
 190              		.loc 1 275 0
 191 0028 0123     		movs	r3, #1
 192 002a DF1B     		subs	r7, r3, r7
 193              	.LVL29:
 194 002c FFB2     		uxtb	r7, r7
 195              	.LVL30:
 276:Source\LwIP\src\core/inet_chksum.c ****       acc = SWAP_BYTES_IN_WORD(acc);
 196              		.loc 1 276 0
 197 002e 2306     		lsls	r3, r4, #24
 198 0030 1B0C     		lsrs	r3, r3, #16
 199 0032 200A     		lsrs	r0, r4, #8
 200 0034 FF22     		movs	r2, #255
 201 0036 1040     		ands	r0, r2
 202 0038 0343     		orrs	r3, r0
 203 003a 1C00     		movs	r4, r3
 204              	.LVL31:
 205              	.L9:
 266:Source\LwIP\src\core/inet_chksum.c ****     LWIP_DEBUGF(INET_DEBUG, ("inet_chksum_pseudo(): checksumming pbuf %p (has next %p) \n",
 206              		.loc 1 266 0 discriminator 2
 207 003c 3668     		ldr	r6, [r6]
 208              	.LVL32:
 209              	.L8:
 266:Source\LwIP\src\core/inet_chksum.c ****     LWIP_DEBUGF(INET_DEBUG, ("inet_chksum_pseudo(): checksumming pbuf %p (has next %p) \n",
 210              		.loc 1 266 0 is_stmt 0 discriminator 1
 211 003e 002E     		cmp	r6, #0
 212 0040 E6D1     		bne	.L10
 277:Source\LwIP\src\core/inet_chksum.c ****     }
 278:Source\LwIP\src\core/inet_chksum.c ****     /*LWIP_DEBUGF(INET_DEBUG, ("inet_chksum_pseudo(): wrapped lwip_chksum()=%"X32_F" \n", acc));*/
 279:Source\LwIP\src\core/inet_chksum.c ****   }
 280:Source\LwIP\src\core/inet_chksum.c **** 
 281:Source\LwIP\src\core/inet_chksum.c ****   if (swapped) {
 213              		.loc 1 281 0 is_stmt 1
 214 0042 002F     		cmp	r7, #0
 215 0044 06D0     		beq	.L11
 282:Source\LwIP\src\core/inet_chksum.c ****     acc = SWAP_BYTES_IN_WORD(acc);
 216              		.loc 1 282 0
 217 0046 2306     		lsls	r3, r4, #24
 218 0048 1B0C     		lsrs	r3, r3, #16
 219 004a 200A     		lsrs	r0, r4, #8
 220 004c FF22     		movs	r2, #255
 221 004e 1040     		ands	r0, r2
 222 0050 0343     		orrs	r3, r0
 223 0052 1C00     		movs	r4, r3
 224              	.LVL33:
 225              	.L11:
ARM GAS  C:\Users\Phuong\AppData\Local\Temp\ccG70vIr.s 			page 10


 283:Source\LwIP\src\core/inet_chksum.c ****   }
 284:Source\LwIP\src\core/inet_chksum.c **** 
 285:Source\LwIP\src\core/inet_chksum.c ****   acc += (u32_t)lwip_htons((u16_t)proto);
 226              		.loc 1 285 0
 227 0054 6B46     		mov	r3, sp
 228 0056 9888     		ldrh	r0, [r3, #4]
 229 0058 FFF7FEFF 		bl	lwip_htons
 230              	.LVL34:
 231 005c 2418     		adds	r4, r4, r0
 232              	.LVL35:
 286:Source\LwIP\src\core/inet_chksum.c ****   acc += (u32_t)lwip_htons(proto_len);
 233              		.loc 1 286 0
 234 005e 2800     		movs	r0, r5
 235 0060 FFF7FEFF 		bl	lwip_htons
 236              	.LVL36:
 237 0064 2018     		adds	r0, r4, r0
 238              	.LVL37:
 287:Source\LwIP\src\core/inet_chksum.c **** 
 288:Source\LwIP\src\core/inet_chksum.c ****   /* Fold 32-bit sum to 16 bits
 289:Source\LwIP\src\core/inet_chksum.c ****      calling this twice is probably faster than if statements... */
 290:Source\LwIP\src\core/inet_chksum.c ****   acc = FOLD_U32T(acc);
 239              		.loc 1 290 0
 240 0066 030C     		lsrs	r3, r0, #16
 241 0068 0004     		lsls	r0, r0, #16
 242              	.LVL38:
 243 006a 000C     		lsrs	r0, r0, #16
 244 006c 1818     		adds	r0, r3, r0
 245              	.LVL39:
 291:Source\LwIP\src\core/inet_chksum.c ****   acc = FOLD_U32T(acc);
 246              		.loc 1 291 0
 247 006e 030C     		lsrs	r3, r0, #16
 248 0070 0004     		lsls	r0, r0, #16
 249              	.LVL40:
 250 0072 000C     		lsrs	r0, r0, #16
 251 0074 1818     		adds	r0, r3, r0
 252              	.LVL41:
 292:Source\LwIP\src\core/inet_chksum.c ****   LWIP_DEBUGF(INET_DEBUG, ("inet_chksum_pseudo(): pbuf chain lwip_chksum()=%"X32_F"\n", acc));
 293:Source\LwIP\src\core/inet_chksum.c ****   return (u16_t)~(acc & 0xffffUL);
 253              		.loc 1 293 0
 254 0076 C043     		mvns	r0, r0
 255              	.LVL42:
 256 0078 80B2     		uxth	r0, r0
 257              	.LVL43:
 294:Source\LwIP\src\core/inet_chksum.c **** }
 258              		.loc 1 294 0
 259 007a 03B0     		add	sp, sp, #12
 260              		@ sp needed
 261              	.LVL44:
 262              	.LVL45:
 263 007c F0BD     		pop	{r4, r5, r6, r7, pc}
 264              		.cfi_endproc
 265              	.LFE54:
 266              		.size	inet_cksum_pseudo_base, .-inet_cksum_pseudo_base
 267 007e C046     		.section	.text.inet_cksum_pseudo_partial_base,"ax",%progbits
 268              		.align	2
 269              		.code	16
 270              		.thumb_func
ARM GAS  C:\Users\Phuong\AppData\Local\Temp\ccG70vIr.s 			page 11


 271              		.type	inet_cksum_pseudo_partial_base, %function
 272              	inet_cksum_pseudo_partial_base:
 273              	.LFB57:
 295:Source\LwIP\src\core/inet_chksum.c **** 
 296:Source\LwIP\src\core/inet_chksum.c **** #if LWIP_IPV4
 297:Source\LwIP\src\core/inet_chksum.c **** /* inet_chksum_pseudo:
 298:Source\LwIP\src\core/inet_chksum.c ****  *
 299:Source\LwIP\src\core/inet_chksum.c ****  * Calculates the IPv4 pseudo Internet checksum used by TCP and UDP for a pbuf chain.
 300:Source\LwIP\src\core/inet_chksum.c ****  * IP addresses are expected to be in network byte order.
 301:Source\LwIP\src\core/inet_chksum.c ****  *
 302:Source\LwIP\src\core/inet_chksum.c ****  * @param p chain of pbufs over that a checksum should be calculated (ip data part)
 303:Source\LwIP\src\core/inet_chksum.c ****  * @param src source ip address (used for checksum of pseudo header)
 304:Source\LwIP\src\core/inet_chksum.c ****  * @param dst destination ip address (used for checksum of pseudo header)
 305:Source\LwIP\src\core/inet_chksum.c ****  * @param proto ip protocol (used for checksum of pseudo header)
 306:Source\LwIP\src\core/inet_chksum.c ****  * @param proto_len length of the ip data part (used for checksum of pseudo header)
 307:Source\LwIP\src\core/inet_chksum.c ****  * @return checksum (as u16_t) to be saved directly in the protocol header
 308:Source\LwIP\src\core/inet_chksum.c ****  */
 309:Source\LwIP\src\core/inet_chksum.c **** u16_t
 310:Source\LwIP\src\core/inet_chksum.c **** inet_chksum_pseudo(struct pbuf *p, u8_t proto, u16_t proto_len,
 311:Source\LwIP\src\core/inet_chksum.c ****        const ip4_addr_t *src, const ip4_addr_t *dest)
 312:Source\LwIP\src\core/inet_chksum.c **** {
 313:Source\LwIP\src\core/inet_chksum.c ****   u32_t acc;
 314:Source\LwIP\src\core/inet_chksum.c ****   u32_t addr;
 315:Source\LwIP\src\core/inet_chksum.c **** 
 316:Source\LwIP\src\core/inet_chksum.c ****   addr = ip4_addr_get_u32(src);
 317:Source\LwIP\src\core/inet_chksum.c ****   acc = (addr & 0xffffUL);
 318:Source\LwIP\src\core/inet_chksum.c ****   acc += ((addr >> 16) & 0xffffUL);
 319:Source\LwIP\src\core/inet_chksum.c ****   addr = ip4_addr_get_u32(dest);
 320:Source\LwIP\src\core/inet_chksum.c ****   acc += (addr & 0xffffUL);
 321:Source\LwIP\src\core/inet_chksum.c ****   acc += ((addr >> 16) & 0xffffUL);
 322:Source\LwIP\src\core/inet_chksum.c ****   /* fold down to 16 bits */
 323:Source\LwIP\src\core/inet_chksum.c ****   acc = FOLD_U32T(acc);
 324:Source\LwIP\src\core/inet_chksum.c ****   acc = FOLD_U32T(acc);
 325:Source\LwIP\src\core/inet_chksum.c **** 
 326:Source\LwIP\src\core/inet_chksum.c ****   return inet_cksum_pseudo_base(p, proto, proto_len, acc);
 327:Source\LwIP\src\core/inet_chksum.c **** }
 328:Source\LwIP\src\core/inet_chksum.c **** #endif /* LWIP_IPV4 */
 329:Source\LwIP\src\core/inet_chksum.c **** 
 330:Source\LwIP\src\core/inet_chksum.c **** #if LWIP_IPV6
 331:Source\LwIP\src\core/inet_chksum.c **** /**
 332:Source\LwIP\src\core/inet_chksum.c ****  * Calculates the checksum with IPv6 pseudo header used by TCP and UDP for a pbuf chain.
 333:Source\LwIP\src\core/inet_chksum.c ****  * IPv6 addresses are expected to be in network byte order.
 334:Source\LwIP\src\core/inet_chksum.c ****  *
 335:Source\LwIP\src\core/inet_chksum.c ****  * @param p chain of pbufs over that a checksum should be calculated (ip data part)
 336:Source\LwIP\src\core/inet_chksum.c ****  * @param proto ipv6 protocol/next header (used for checksum of pseudo header)
 337:Source\LwIP\src\core/inet_chksum.c ****  * @param proto_len length of the ipv6 payload (used for checksum of pseudo header)
 338:Source\LwIP\src\core/inet_chksum.c ****  * @param src source ipv6 address (used for checksum of pseudo header)
 339:Source\LwIP\src\core/inet_chksum.c ****  * @param dest destination ipv6 address (used for checksum of pseudo header)
 340:Source\LwIP\src\core/inet_chksum.c ****  * @return checksum (as u16_t) to be saved directly in the protocol header
 341:Source\LwIP\src\core/inet_chksum.c ****  */
 342:Source\LwIP\src\core/inet_chksum.c **** u16_t
 343:Source\LwIP\src\core/inet_chksum.c **** ip6_chksum_pseudo(struct pbuf *p, u8_t proto, u16_t proto_len,
 344:Source\LwIP\src\core/inet_chksum.c ****        const ip6_addr_t *src, const ip6_addr_t *dest)
 345:Source\LwIP\src\core/inet_chksum.c **** {
 346:Source\LwIP\src\core/inet_chksum.c ****   u32_t acc = 0;
 347:Source\LwIP\src\core/inet_chksum.c ****   u32_t addr;
 348:Source\LwIP\src\core/inet_chksum.c ****   u8_t addr_part;
ARM GAS  C:\Users\Phuong\AppData\Local\Temp\ccG70vIr.s 			page 12


 349:Source\LwIP\src\core/inet_chksum.c **** 
 350:Source\LwIP\src\core/inet_chksum.c ****   for (addr_part = 0; addr_part < 4; addr_part++) {
 351:Source\LwIP\src\core/inet_chksum.c ****     addr = src->addr[addr_part];
 352:Source\LwIP\src\core/inet_chksum.c ****     acc += (addr & 0xffffUL);
 353:Source\LwIP\src\core/inet_chksum.c ****     acc += ((addr >> 16) & 0xffffUL);
 354:Source\LwIP\src\core/inet_chksum.c ****     addr = dest->addr[addr_part];
 355:Source\LwIP\src\core/inet_chksum.c ****     acc += (addr & 0xffffUL);
 356:Source\LwIP\src\core/inet_chksum.c ****     acc += ((addr >> 16) & 0xffffUL);
 357:Source\LwIP\src\core/inet_chksum.c ****   }
 358:Source\LwIP\src\core/inet_chksum.c ****   /* fold down to 16 bits */
 359:Source\LwIP\src\core/inet_chksum.c ****   acc = FOLD_U32T(acc);
 360:Source\LwIP\src\core/inet_chksum.c ****   acc = FOLD_U32T(acc);
 361:Source\LwIP\src\core/inet_chksum.c **** 
 362:Source\LwIP\src\core/inet_chksum.c ****   return inet_cksum_pseudo_base(p, proto, proto_len, acc);
 363:Source\LwIP\src\core/inet_chksum.c **** }
 364:Source\LwIP\src\core/inet_chksum.c **** #endif /* LWIP_IPV6 */
 365:Source\LwIP\src\core/inet_chksum.c **** 
 366:Source\LwIP\src\core/inet_chksum.c **** /* ip_chksum_pseudo:
 367:Source\LwIP\src\core/inet_chksum.c ****  *
 368:Source\LwIP\src\core/inet_chksum.c ****  * Calculates the IPv4 or IPv6 pseudo Internet checksum used by TCP and UDP for a pbuf chain.
 369:Source\LwIP\src\core/inet_chksum.c ****  * IP addresses are expected to be in network byte order.
 370:Source\LwIP\src\core/inet_chksum.c ****  *
 371:Source\LwIP\src\core/inet_chksum.c ****  * @param p chain of pbufs over that a checksum should be calculated (ip data part)
 372:Source\LwIP\src\core/inet_chksum.c ****  * @param src source ip address (used for checksum of pseudo header)
 373:Source\LwIP\src\core/inet_chksum.c ****  * @param dst destination ip address (used for checksum of pseudo header)
 374:Source\LwIP\src\core/inet_chksum.c ****  * @param proto ip protocol (used for checksum of pseudo header)
 375:Source\LwIP\src\core/inet_chksum.c ****  * @param proto_len length of the ip data part (used for checksum of pseudo header)
 376:Source\LwIP\src\core/inet_chksum.c ****  * @return checksum (as u16_t) to be saved directly in the protocol header
 377:Source\LwIP\src\core/inet_chksum.c ****  */
 378:Source\LwIP\src\core/inet_chksum.c **** u16_t
 379:Source\LwIP\src\core/inet_chksum.c **** ip_chksum_pseudo(struct pbuf *p, u8_t proto, u16_t proto_len,
 380:Source\LwIP\src\core/inet_chksum.c ****        const ip_addr_t *src, const ip_addr_t *dest)
 381:Source\LwIP\src\core/inet_chksum.c **** {
 382:Source\LwIP\src\core/inet_chksum.c **** #if LWIP_IPV6
 383:Source\LwIP\src\core/inet_chksum.c ****   if (IP_IS_V6(dest)) {
 384:Source\LwIP\src\core/inet_chksum.c ****     return ip6_chksum_pseudo(p, proto, proto_len, ip_2_ip6(src), ip_2_ip6(dest));
 385:Source\LwIP\src\core/inet_chksum.c ****   }
 386:Source\LwIP\src\core/inet_chksum.c **** #endif /* LWIP_IPV6 */
 387:Source\LwIP\src\core/inet_chksum.c **** #if LWIP_IPV4 && LWIP_IPV6
 388:Source\LwIP\src\core/inet_chksum.c ****   else
 389:Source\LwIP\src\core/inet_chksum.c **** #endif /* LWIP_IPV4 && LWIP_IPV6 */
 390:Source\LwIP\src\core/inet_chksum.c **** #if LWIP_IPV4
 391:Source\LwIP\src\core/inet_chksum.c ****   {
 392:Source\LwIP\src\core/inet_chksum.c ****     return inet_chksum_pseudo(p, proto, proto_len, ip_2_ip4(src), ip_2_ip4(dest));
 393:Source\LwIP\src\core/inet_chksum.c ****   }
 394:Source\LwIP\src\core/inet_chksum.c **** #endif /* LWIP_IPV4 */
 395:Source\LwIP\src\core/inet_chksum.c **** }
 396:Source\LwIP\src\core/inet_chksum.c **** 
 397:Source\LwIP\src\core/inet_chksum.c **** /** Parts of the pseudo checksum which are common to IPv4 and IPv6 */
 398:Source\LwIP\src\core/inet_chksum.c **** static u16_t
 399:Source\LwIP\src\core/inet_chksum.c **** inet_cksum_pseudo_partial_base(struct pbuf *p, u8_t proto, u16_t proto_len,
 400:Source\LwIP\src\core/inet_chksum.c ****        u16_t chksum_len, u32_t acc)
 401:Source\LwIP\src\core/inet_chksum.c **** {
 274              		.loc 1 401 0
 275              		.cfi_startproc
 276              		@ args = 4, pretend = 0, frame = 8
 277              		@ frame_needed = 0, uses_anonymous_args = 0
ARM GAS  C:\Users\Phuong\AppData\Local\Temp\ccG70vIr.s 			page 13


 278              	.LVL46:
 279 0000 F0B5     		push	{r4, r5, r6, r7, lr}
 280              		.cfi_def_cfa_offset 20
 281              		.cfi_offset 4, -20
 282              		.cfi_offset 5, -16
 283              		.cfi_offset 6, -12
 284              		.cfi_offset 7, -8
 285              		.cfi_offset 14, -4
 286 0002 4746     		mov	r7, r8
 287 0004 80B4     		push	{r7}
 288              		.cfi_def_cfa_offset 24
 289              		.cfi_offset 8, -24
 290 0006 82B0     		sub	sp, sp, #8
 291              		.cfi_def_cfa_offset 32
 292 0008 0600     		movs	r6, r0
 293 000a 0091     		str	r1, [sp]
 294 000c 0192     		str	r2, [sp, #4]
 295 000e 1F00     		movs	r7, r3
 296 0010 089C     		ldr	r4, [sp, #32]
 297              	.LVL47:
 402:Source\LwIP\src\core/inet_chksum.c ****   struct pbuf *q;
 403:Source\LwIP\src\core/inet_chksum.c ****   u8_t swapped = 0;
 298              		.loc 1 403 0
 299 0012 0023     		movs	r3, #0
 300              	.LVL48:
 301 0014 9846     		mov	r8, r3
 404:Source\LwIP\src\core/inet_chksum.c ****   u16_t chklen;
 405:Source\LwIP\src\core/inet_chksum.c **** 
 406:Source\LwIP\src\core/inet_chksum.c ****   /* iterate through all pbuf in chain */
 407:Source\LwIP\src\core/inet_chksum.c ****   for (q = p; (q != NULL) && (chksum_len > 0); q = q->next) {
 302              		.loc 1 407 0
 303 0016 1EE0     		b	.L13
 304              	.LVL49:
 305              	.L17:
 408:Source\LwIP\src\core/inet_chksum.c ****     LWIP_DEBUGF(INET_DEBUG, ("inet_chksum_pseudo(): checksumming pbuf %p (has next %p) \n",
 409:Source\LwIP\src\core/inet_chksum.c ****       (void *)q, (void *)q->next));
 410:Source\LwIP\src\core/inet_chksum.c ****     chklen = q->len;
 306              		.loc 1 410 0
 307 0018 7589     		ldrh	r5, [r6, #10]
 308              	.LVL50:
 411:Source\LwIP\src\core/inet_chksum.c ****     if (chklen > chksum_len) {
 309              		.loc 1 411 0
 310 001a AF42     		cmp	r7, r5
 311 001c 00D2     		bcs	.L14
 412:Source\LwIP\src\core/inet_chksum.c ****       chklen = chksum_len;
 312              		.loc 1 412 0
 313 001e 3D00     		movs	r5, r7
 314              	.LVL51:
 315              	.L14:
 413:Source\LwIP\src\core/inet_chksum.c ****     }
 414:Source\LwIP\src\core/inet_chksum.c ****     acc += LWIP_CHKSUM(q->payload, chklen);
 316              		.loc 1 414 0
 317 0020 2900     		movs	r1, r5
 318 0022 7068     		ldr	r0, [r6, #4]
 319 0024 FFF7FEFF 		bl	lwip_standard_chksum
 320              	.LVL52:
 321 0028 0019     		adds	r0, r0, r4
ARM GAS  C:\Users\Phuong\AppData\Local\Temp\ccG70vIr.s 			page 14


 322              	.LVL53:
 415:Source\LwIP\src\core/inet_chksum.c ****     chksum_len -= chklen;
 323              		.loc 1 415 0
 324 002a 7F1B     		subs	r7, r7, r5
 325              	.LVL54:
 326 002c BFB2     		uxth	r7, r7
 327              	.LVL55:
 416:Source\LwIP\src\core/inet_chksum.c ****     LWIP_ASSERT("delete me", chksum_len < 0x7fff);
 417:Source\LwIP\src\core/inet_chksum.c ****     /*LWIP_DEBUGF(INET_DEBUG, ("inet_chksum_pseudo(): unwrapped lwip_chksum()=%"X32_F" \n", acc));*
 418:Source\LwIP\src\core/inet_chksum.c ****     /* fold the upper bit down */
 419:Source\LwIP\src\core/inet_chksum.c ****     acc = FOLD_U32T(acc);
 328              		.loc 1 419 0
 329 002e 030C     		lsrs	r3, r0, #16
 330 0030 0004     		lsls	r0, r0, #16
 331              	.LVL56:
 332 0032 000C     		lsrs	r0, r0, #16
 333 0034 1C18     		adds	r4, r3, r0
 334              	.LVL57:
 420:Source\LwIP\src\core/inet_chksum.c ****     if (q->len % 2 != 0) {
 335              		.loc 1 420 0
 336 0036 7389     		ldrh	r3, [r6, #10]
 337 0038 DB07     		lsls	r3, r3, #31
 338 003a 0BD5     		bpl	.L15
 421:Source\LwIP\src\core/inet_chksum.c ****       swapped = 1 - swapped;
 339              		.loc 1 421 0
 340 003c 0123     		movs	r3, #1
 341 003e 4246     		mov	r2, r8
 342 0040 9B1A     		subs	r3, r3, r2
 343 0042 DBB2     		uxtb	r3, r3
 344 0044 9846     		mov	r8, r3
 345              	.LVL58:
 422:Source\LwIP\src\core/inet_chksum.c ****       acc = SWAP_BYTES_IN_WORD(acc);
 346              		.loc 1 422 0
 347 0046 2306     		lsls	r3, r4, #24
 348 0048 1B0C     		lsrs	r3, r3, #16
 349 004a 200A     		lsrs	r0, r4, #8
 350 004c FF22     		movs	r2, #255
 351 004e 1040     		ands	r0, r2
 352 0050 0343     		orrs	r3, r0
 353 0052 1C00     		movs	r4, r3
 354              	.LVL59:
 355              	.L15:
 407:Source\LwIP\src\core/inet_chksum.c ****     LWIP_DEBUGF(INET_DEBUG, ("inet_chksum_pseudo(): checksumming pbuf %p (has next %p) \n",
 356              		.loc 1 407 0 discriminator 2
 357 0054 3668     		ldr	r6, [r6]
 358              	.LVL60:
 359              	.L13:
 407:Source\LwIP\src\core/inet_chksum.c ****     LWIP_DEBUGF(INET_DEBUG, ("inet_chksum_pseudo(): checksumming pbuf %p (has next %p) \n",
 360              		.loc 1 407 0 is_stmt 0 discriminator 1
 361 0056 002E     		cmp	r6, #0
 362 0058 01D0     		beq	.L16
 407:Source\LwIP\src\core/inet_chksum.c ****     LWIP_DEBUGF(INET_DEBUG, ("inet_chksum_pseudo(): checksumming pbuf %p (has next %p) \n",
 363              		.loc 1 407 0 discriminator 3
 364 005a 002F     		cmp	r7, #0
 365 005c DCD1     		bne	.L17
 366              	.L16:
 423:Source\LwIP\src\core/inet_chksum.c ****     }
ARM GAS  C:\Users\Phuong\AppData\Local\Temp\ccG70vIr.s 			page 15


 424:Source\LwIP\src\core/inet_chksum.c ****     /*LWIP_DEBUGF(INET_DEBUG, ("inet_chksum_pseudo(): wrapped lwip_chksum()=%"X32_F" \n", acc));*/
 425:Source\LwIP\src\core/inet_chksum.c ****   }
 426:Source\LwIP\src\core/inet_chksum.c **** 
 427:Source\LwIP\src\core/inet_chksum.c ****   if (swapped) {
 367              		.loc 1 427 0 is_stmt 1
 368 005e 4346     		mov	r3, r8
 369 0060 002B     		cmp	r3, #0
 370 0062 06D0     		beq	.L18
 428:Source\LwIP\src\core/inet_chksum.c ****     acc = SWAP_BYTES_IN_WORD(acc);
 371              		.loc 1 428 0
 372 0064 2306     		lsls	r3, r4, #24
 373 0066 1B0C     		lsrs	r3, r3, #16
 374 0068 200A     		lsrs	r0, r4, #8
 375 006a FF22     		movs	r2, #255
 376 006c 1040     		ands	r0, r2
 377 006e 0343     		orrs	r3, r0
 378 0070 1C00     		movs	r4, r3
 379              	.LVL61:
 380              	.L18:
 429:Source\LwIP\src\core/inet_chksum.c ****   }
 430:Source\LwIP\src\core/inet_chksum.c **** 
 431:Source\LwIP\src\core/inet_chksum.c ****   acc += (u32_t)lwip_htons((u16_t)proto);
 381              		.loc 1 431 0
 382 0072 6B46     		mov	r3, sp
 383 0074 1888     		ldrh	r0, [r3]
 384 0076 FFF7FEFF 		bl	lwip_htons
 385              	.LVL62:
 386 007a 2418     		adds	r4, r4, r0
 387              	.LVL63:
 432:Source\LwIP\src\core/inet_chksum.c ****   acc += (u32_t)lwip_htons(proto_len);
 388              		.loc 1 432 0
 389 007c 0198     		ldr	r0, [sp, #4]
 390 007e FFF7FEFF 		bl	lwip_htons
 391              	.LVL64:
 392 0082 2018     		adds	r0, r4, r0
 393              	.LVL65:
 433:Source\LwIP\src\core/inet_chksum.c **** 
 434:Source\LwIP\src\core/inet_chksum.c ****   /* Fold 32-bit sum to 16 bits
 435:Source\LwIP\src\core/inet_chksum.c ****      calling this twice is probably faster than if statements... */
 436:Source\LwIP\src\core/inet_chksum.c ****   acc = FOLD_U32T(acc);
 394              		.loc 1 436 0
 395 0084 030C     		lsrs	r3, r0, #16
 396 0086 0004     		lsls	r0, r0, #16
 397              	.LVL66:
 398 0088 000C     		lsrs	r0, r0, #16
 399 008a 1818     		adds	r0, r3, r0
 400              	.LVL67:
 437:Source\LwIP\src\core/inet_chksum.c ****   acc = FOLD_U32T(acc);
 401              		.loc 1 437 0
 402 008c 030C     		lsrs	r3, r0, #16
 403 008e 0004     		lsls	r0, r0, #16
 404              	.LVL68:
 405 0090 000C     		lsrs	r0, r0, #16
 406 0092 1818     		adds	r0, r3, r0
 407              	.LVL69:
 438:Source\LwIP\src\core/inet_chksum.c ****   LWIP_DEBUGF(INET_DEBUG, ("inet_chksum_pseudo(): pbuf chain lwip_chksum()=%"X32_F"\n", acc));
 439:Source\LwIP\src\core/inet_chksum.c ****   return (u16_t)~(acc & 0xffffUL);
ARM GAS  C:\Users\Phuong\AppData\Local\Temp\ccG70vIr.s 			page 16


 408              		.loc 1 439 0
 409 0094 C043     		mvns	r0, r0
 410              	.LVL70:
 411 0096 80B2     		uxth	r0, r0
 412              	.LVL71:
 440:Source\LwIP\src\core/inet_chksum.c **** }
 413              		.loc 1 440 0
 414 0098 02B0     		add	sp, sp, #8
 415              		@ sp needed
 416              	.LVL72:
 417              	.LVL73:
 418              	.LVL74:
 419 009a 04BC     		pop	{r2}
 420 009c 9046     		mov	r8, r2
 421 009e F0BD     		pop	{r4, r5, r6, r7, pc}
 422              		.cfi_endproc
 423              	.LFE57:
 424              		.size	inet_cksum_pseudo_partial_base, .-inet_cksum_pseudo_partial_base
 425              		.section	.text.inet_chksum_pseudo,"ax",%progbits
 426              		.align	2
 427              		.global	inet_chksum_pseudo
 428              		.code	16
 429              		.thumb_func
 430              		.type	inet_chksum_pseudo, %function
 431              	inet_chksum_pseudo:
 432              	.LFB55:
 312:Source\LwIP\src\core/inet_chksum.c ****   u32_t acc;
 433              		.loc 1 312 0
 434              		.cfi_startproc
 435              		@ args = 4, pretend = 0, frame = 0
 436              		@ frame_needed = 0, uses_anonymous_args = 0
 437              	.LVL75:
 438 0000 70B5     		push	{r4, r5, r6, lr}
 439              		.cfi_def_cfa_offset 16
 440              		.cfi_offset 4, -16
 441              		.cfi_offset 5, -12
 442              		.cfi_offset 6, -8
 443              		.cfi_offset 14, -4
 316:Source\LwIP\src\core/inet_chksum.c ****   acc = (addr & 0xffffUL);
 444              		.loc 1 316 0
 445 0002 1B68     		ldr	r3, [r3]
 446              	.LVL76:
 317:Source\LwIP\src\core/inet_chksum.c ****   acc += ((addr >> 16) & 0xffffUL);
 447              		.loc 1 317 0
 448 0004 1E04     		lsls	r6, r3, #16
 449 0006 360C     		lsrs	r6, r6, #16
 450              	.LVL77:
 318:Source\LwIP\src\core/inet_chksum.c ****   addr = ip4_addr_get_u32(dest);
 451              		.loc 1 318 0
 452 0008 1B0C     		lsrs	r3, r3, #16
 453              	.LVL78:
 454 000a F618     		adds	r6, r6, r3
 455              	.LVL79:
 319:Source\LwIP\src\core/inet_chksum.c ****   acc += (addr & 0xffffUL);
 456              		.loc 1 319 0
 457 000c 049B     		ldr	r3, [sp, #16]
 458 000e 1B68     		ldr	r3, [r3]
ARM GAS  C:\Users\Phuong\AppData\Local\Temp\ccG70vIr.s 			page 17


 459              	.LVL80:
 320:Source\LwIP\src\core/inet_chksum.c ****   acc += ((addr >> 16) & 0xffffUL);
 460              		.loc 1 320 0
 461 0010 1D04     		lsls	r5, r3, #16
 462 0012 2D0C     		lsrs	r5, r5, #16
 463 0014 7519     		adds	r5, r6, r5
 464              	.LVL81:
 321:Source\LwIP\src\core/inet_chksum.c ****   /* fold down to 16 bits */
 465              		.loc 1 321 0
 466 0016 1B0C     		lsrs	r3, r3, #16
 467              	.LVL82:
 468 0018 ED18     		adds	r5, r5, r3
 469              	.LVL83:
 323:Source\LwIP\src\core/inet_chksum.c ****   acc = FOLD_U32T(acc);
 470              		.loc 1 323 0
 471 001a 2C0C     		lsrs	r4, r5, #16
 472 001c 2D04     		lsls	r5, r5, #16
 473              	.LVL84:
 474 001e 2D0C     		lsrs	r5, r5, #16
 475 0020 6419     		adds	r4, r4, r5
 476              	.LVL85:
 324:Source\LwIP\src\core/inet_chksum.c **** 
 477              		.loc 1 324 0
 478 0022 230C     		lsrs	r3, r4, #16
 479 0024 2404     		lsls	r4, r4, #16
 480              	.LVL86:
 481 0026 240C     		lsrs	r4, r4, #16
 482 0028 1B19     		adds	r3, r3, r4
 483              	.LVL87:
 326:Source\LwIP\src\core/inet_chksum.c **** }
 484              		.loc 1 326 0
 485 002a FFF7FEFF 		bl	inet_cksum_pseudo_base
 486              	.LVL88:
 327:Source\LwIP\src\core/inet_chksum.c **** #endif /* LWIP_IPV4 */
 487              		.loc 1 327 0
 488              		@ sp needed
 489 002e 70BD     		pop	{r4, r5, r6, pc}
 490              		.cfi_endproc
 491              	.LFE55:
 492              		.size	inet_chksum_pseudo, .-inet_chksum_pseudo
 493              		.section	.text.ip_chksum_pseudo,"ax",%progbits
 494              		.align	2
 495              		.global	ip_chksum_pseudo
 496              		.code	16
 497              		.thumb_func
 498              		.type	ip_chksum_pseudo, %function
 499              	ip_chksum_pseudo:
 500              	.LFB56:
 381:Source\LwIP\src\core/inet_chksum.c **** #if LWIP_IPV6
 501              		.loc 1 381 0
 502              		.cfi_startproc
 503              		@ args = 4, pretend = 0, frame = 0
 504              		@ frame_needed = 0, uses_anonymous_args = 0
 505              	.LVL89:
 506 0000 10B5     		push	{r4, lr}
 507              		.cfi_def_cfa_offset 8
 508              		.cfi_offset 4, -8
ARM GAS  C:\Users\Phuong\AppData\Local\Temp\ccG70vIr.s 			page 18


 509              		.cfi_offset 14, -4
 510 0002 82B0     		sub	sp, sp, #8
 511              		.cfi_def_cfa_offset 16
 392:Source\LwIP\src\core/inet_chksum.c ****   }
 512              		.loc 1 392 0
 513 0004 049C     		ldr	r4, [sp, #16]
 514 0006 0094     		str	r4, [sp]
 515 0008 FFF7FEFF 		bl	inet_chksum_pseudo
 516              	.LVL90:
 395:Source\LwIP\src\core/inet_chksum.c **** 
 517              		.loc 1 395 0
 518 000c 02B0     		add	sp, sp, #8
 519              		@ sp needed
 520 000e 10BD     		pop	{r4, pc}
 521              		.cfi_endproc
 522              	.LFE56:
 523              		.size	ip_chksum_pseudo, .-ip_chksum_pseudo
 524              		.section	.text.inet_chksum_pseudo_partial,"ax",%progbits
 525              		.align	2
 526              		.global	inet_chksum_pseudo_partial
 527              		.code	16
 528              		.thumb_func
 529              		.type	inet_chksum_pseudo_partial, %function
 530              	inet_chksum_pseudo_partial:
 531              	.LFB58:
 441:Source\LwIP\src\core/inet_chksum.c **** 
 442:Source\LwIP\src\core/inet_chksum.c **** #if LWIP_IPV4
 443:Source\LwIP\src\core/inet_chksum.c **** /* inet_chksum_pseudo_partial:
 444:Source\LwIP\src\core/inet_chksum.c ****  *
 445:Source\LwIP\src\core/inet_chksum.c ****  * Calculates the IPv4 pseudo Internet checksum used by TCP and UDP for a pbuf chain.
 446:Source\LwIP\src\core/inet_chksum.c ****  * IP addresses are expected to be in network byte order.
 447:Source\LwIP\src\core/inet_chksum.c ****  *
 448:Source\LwIP\src\core/inet_chksum.c ****  * @param p chain of pbufs over that a checksum should be calculated (ip data part)
 449:Source\LwIP\src\core/inet_chksum.c ****  * @param src source ip address (used for checksum of pseudo header)
 450:Source\LwIP\src\core/inet_chksum.c ****  * @param dst destination ip address (used for checksum of pseudo header)
 451:Source\LwIP\src\core/inet_chksum.c ****  * @param proto ip protocol (used for checksum of pseudo header)
 452:Source\LwIP\src\core/inet_chksum.c ****  * @param proto_len length of the ip data part (used for checksum of pseudo header)
 453:Source\LwIP\src\core/inet_chksum.c ****  * @return checksum (as u16_t) to be saved directly in the protocol header
 454:Source\LwIP\src\core/inet_chksum.c ****  */
 455:Source\LwIP\src\core/inet_chksum.c **** u16_t
 456:Source\LwIP\src\core/inet_chksum.c **** inet_chksum_pseudo_partial(struct pbuf *p, u8_t proto, u16_t proto_len,
 457:Source\LwIP\src\core/inet_chksum.c ****        u16_t chksum_len, const ip4_addr_t *src, const ip4_addr_t *dest)
 458:Source\LwIP\src\core/inet_chksum.c **** {
 532              		.loc 1 458 0
 533              		.cfi_startproc
 534              		@ args = 8, pretend = 0, frame = 0
 535              		@ frame_needed = 0, uses_anonymous_args = 0
 536              	.LVL91:
 537 0000 F0B5     		push	{r4, r5, r6, r7, lr}
 538              		.cfi_def_cfa_offset 20
 539              		.cfi_offset 4, -20
 540              		.cfi_offset 5, -16
 541              		.cfi_offset 6, -12
 542              		.cfi_offset 7, -8
 543              		.cfi_offset 14, -4
 544 0002 83B0     		sub	sp, sp, #12
 545              		.cfi_def_cfa_offset 32
ARM GAS  C:\Users\Phuong\AppData\Local\Temp\ccG70vIr.s 			page 19


 459:Source\LwIP\src\core/inet_chksum.c ****   u32_t acc;
 460:Source\LwIP\src\core/inet_chksum.c ****   u32_t addr;
 461:Source\LwIP\src\core/inet_chksum.c **** 
 462:Source\LwIP\src\core/inet_chksum.c ****   addr = ip4_addr_get_u32(src);
 546              		.loc 1 462 0
 547 0004 089C     		ldr	r4, [sp, #32]
 548 0006 2668     		ldr	r6, [r4]
 549              	.LVL92:
 463:Source\LwIP\src\core/inet_chksum.c ****   acc = (addr & 0xffffUL);
 550              		.loc 1 463 0
 551 0008 3704     		lsls	r7, r6, #16
 552 000a 3F0C     		lsrs	r7, r7, #16
 553              	.LVL93:
 464:Source\LwIP\src\core/inet_chksum.c ****   acc += ((addr >> 16) & 0xffffUL);
 554              		.loc 1 464 0
 555 000c 360C     		lsrs	r6, r6, #16
 556              	.LVL94:
 557 000e BF19     		adds	r7, r7, r6
 558              	.LVL95:
 465:Source\LwIP\src\core/inet_chksum.c ****   addr = ip4_addr_get_u32(dest);
 559              		.loc 1 465 0
 560 0010 099C     		ldr	r4, [sp, #36]
 561              	.LVL96:
 562 0012 2668     		ldr	r6, [r4]
 563              	.LVL97:
 466:Source\LwIP\src\core/inet_chksum.c ****   acc += (addr & 0xffffUL);
 564              		.loc 1 466 0
 565 0014 3504     		lsls	r5, r6, #16
 566 0016 2D0C     		lsrs	r5, r5, #16
 567 0018 7D19     		adds	r5, r7, r5
 568              	.LVL98:
 467:Source\LwIP\src\core/inet_chksum.c ****   acc += ((addr >> 16) & 0xffffUL);
 569              		.loc 1 467 0
 570 001a 360C     		lsrs	r6, r6, #16
 571              	.LVL99:
 572 001c AD19     		adds	r5, r5, r6
 573              	.LVL100:
 468:Source\LwIP\src\core/inet_chksum.c ****   /* fold down to 16 bits */
 469:Source\LwIP\src\core/inet_chksum.c ****   acc = FOLD_U32T(acc);
 574              		.loc 1 469 0
 575 001e 2C0C     		lsrs	r4, r5, #16
 576              	.LVL101:
 577 0020 2D04     		lsls	r5, r5, #16
 578              	.LVL102:
 579 0022 2D0C     		lsrs	r5, r5, #16
 580 0024 6419     		adds	r4, r4, r5
 581              	.LVL103:
 470:Source\LwIP\src\core/inet_chksum.c ****   acc = FOLD_U32T(acc);
 582              		.loc 1 470 0
 583 0026 250C     		lsrs	r5, r4, #16
 584 0028 2404     		lsls	r4, r4, #16
 585              	.LVL104:
 586 002a 240C     		lsrs	r4, r4, #16
 587 002c 2C19     		adds	r4, r5, r4
 588              	.LVL105:
 471:Source\LwIP\src\core/inet_chksum.c **** 
 472:Source\LwIP\src\core/inet_chksum.c ****   return inet_cksum_pseudo_partial_base(p, proto, proto_len, chksum_len, acc);
ARM GAS  C:\Users\Phuong\AppData\Local\Temp\ccG70vIr.s 			page 20


 589              		.loc 1 472 0
 590 002e 0094     		str	r4, [sp]
 591              	.LVL106:
 592 0030 FFF7FEFF 		bl	inet_cksum_pseudo_partial_base
 593              	.LVL107:
 473:Source\LwIP\src\core/inet_chksum.c **** }
 594              		.loc 1 473 0
 595 0034 03B0     		add	sp, sp, #12
 596              		@ sp needed
 597              	.LVL108:
 598 0036 F0BD     		pop	{r4, r5, r6, r7, pc}
 599              		.cfi_endproc
 600              	.LFE58:
 601              		.size	inet_chksum_pseudo_partial, .-inet_chksum_pseudo_partial
 602              		.section	.text.ip_chksum_pseudo_partial,"ax",%progbits
 603              		.align	2
 604              		.global	ip_chksum_pseudo_partial
 605              		.code	16
 606              		.thumb_func
 607              		.type	ip_chksum_pseudo_partial, %function
 608              	ip_chksum_pseudo_partial:
 609              	.LFB59:
 474:Source\LwIP\src\core/inet_chksum.c **** #endif /* LWIP_IPV4 */
 475:Source\LwIP\src\core/inet_chksum.c **** 
 476:Source\LwIP\src\core/inet_chksum.c **** #if LWIP_IPV6
 477:Source\LwIP\src\core/inet_chksum.c **** /**
 478:Source\LwIP\src\core/inet_chksum.c ****  * Calculates the checksum with IPv6 pseudo header used by TCP and UDP for a pbuf chain.
 479:Source\LwIP\src\core/inet_chksum.c ****  * IPv6 addresses are expected to be in network byte order. Will only compute for a
 480:Source\LwIP\src\core/inet_chksum.c ****  * portion of the payload.
 481:Source\LwIP\src\core/inet_chksum.c ****  *
 482:Source\LwIP\src\core/inet_chksum.c ****  * @param p chain of pbufs over that a checksum should be calculated (ip data part)
 483:Source\LwIP\src\core/inet_chksum.c ****  * @param proto ipv6 protocol/next header (used for checksum of pseudo header)
 484:Source\LwIP\src\core/inet_chksum.c ****  * @param proto_len length of the ipv6 payload (used for checksum of pseudo header)
 485:Source\LwIP\src\core/inet_chksum.c ****  * @param chksum_len number of payload bytes used to compute chksum
 486:Source\LwIP\src\core/inet_chksum.c ****  * @param src source ipv6 address (used for checksum of pseudo header)
 487:Source\LwIP\src\core/inet_chksum.c ****  * @param dest destination ipv6 address (used for checksum of pseudo header)
 488:Source\LwIP\src\core/inet_chksum.c ****  * @return checksum (as u16_t) to be saved directly in the protocol header
 489:Source\LwIP\src\core/inet_chksum.c ****  */
 490:Source\LwIP\src\core/inet_chksum.c **** u16_t
 491:Source\LwIP\src\core/inet_chksum.c **** ip6_chksum_pseudo_partial(struct pbuf *p, u8_t proto, u16_t proto_len,
 492:Source\LwIP\src\core/inet_chksum.c ****        u16_t chksum_len, const ip6_addr_t *src, const ip6_addr_t *dest)
 493:Source\LwIP\src\core/inet_chksum.c **** {
 494:Source\LwIP\src\core/inet_chksum.c ****   u32_t acc = 0;
 495:Source\LwIP\src\core/inet_chksum.c ****   u32_t addr;
 496:Source\LwIP\src\core/inet_chksum.c ****   u8_t addr_part;
 497:Source\LwIP\src\core/inet_chksum.c **** 
 498:Source\LwIP\src\core/inet_chksum.c ****   for (addr_part = 0; addr_part < 4; addr_part++) {
 499:Source\LwIP\src\core/inet_chksum.c ****     addr = src->addr[addr_part];
 500:Source\LwIP\src\core/inet_chksum.c ****     acc += (addr & 0xffffUL);
 501:Source\LwIP\src\core/inet_chksum.c ****     acc += ((addr >> 16) & 0xffffUL);
 502:Source\LwIP\src\core/inet_chksum.c ****     addr = dest->addr[addr_part];
 503:Source\LwIP\src\core/inet_chksum.c ****     acc += (addr & 0xffffUL);
 504:Source\LwIP\src\core/inet_chksum.c ****     acc += ((addr >> 16) & 0xffffUL);
 505:Source\LwIP\src\core/inet_chksum.c ****   }
 506:Source\LwIP\src\core/inet_chksum.c ****   /* fold down to 16 bits */
 507:Source\LwIP\src\core/inet_chksum.c ****   acc = FOLD_U32T(acc);
 508:Source\LwIP\src\core/inet_chksum.c ****   acc = FOLD_U32T(acc);
ARM GAS  C:\Users\Phuong\AppData\Local\Temp\ccG70vIr.s 			page 21


 509:Source\LwIP\src\core/inet_chksum.c **** 
 510:Source\LwIP\src\core/inet_chksum.c ****   return inet_cksum_pseudo_partial_base(p, proto, proto_len, chksum_len, acc);
 511:Source\LwIP\src\core/inet_chksum.c **** }
 512:Source\LwIP\src\core/inet_chksum.c **** #endif /* LWIP_IPV6 */
 513:Source\LwIP\src\core/inet_chksum.c **** 
 514:Source\LwIP\src\core/inet_chksum.c **** /* ip_chksum_pseudo_partial:
 515:Source\LwIP\src\core/inet_chksum.c ****  *
 516:Source\LwIP\src\core/inet_chksum.c ****  * Calculates the IPv4 or IPv6 pseudo Internet checksum used by TCP and UDP for a pbuf chain.
 517:Source\LwIP\src\core/inet_chksum.c ****  *
 518:Source\LwIP\src\core/inet_chksum.c ****  * @param p chain of pbufs over that a checksum should be calculated (ip data part)
 519:Source\LwIP\src\core/inet_chksum.c ****  * @param src source ip address (used for checksum of pseudo header)
 520:Source\LwIP\src\core/inet_chksum.c ****  * @param dst destination ip address (used for checksum of pseudo header)
 521:Source\LwIP\src\core/inet_chksum.c ****  * @param proto ip protocol (used for checksum of pseudo header)
 522:Source\LwIP\src\core/inet_chksum.c ****  * @param proto_len length of the ip data part (used for checksum of pseudo header)
 523:Source\LwIP\src\core/inet_chksum.c ****  * @return checksum (as u16_t) to be saved directly in the protocol header
 524:Source\LwIP\src\core/inet_chksum.c ****  */
 525:Source\LwIP\src\core/inet_chksum.c **** u16_t
 526:Source\LwIP\src\core/inet_chksum.c **** ip_chksum_pseudo_partial(struct pbuf *p, u8_t proto, u16_t proto_len,
 527:Source\LwIP\src\core/inet_chksum.c ****        u16_t chksum_len, const ip_addr_t *src, const ip_addr_t *dest)
 528:Source\LwIP\src\core/inet_chksum.c **** {
 610              		.loc 1 528 0
 611              		.cfi_startproc
 612              		@ args = 8, pretend = 0, frame = 0
 613              		@ frame_needed = 0, uses_anonymous_args = 0
 614              	.LVL109:
 615 0000 10B5     		push	{r4, lr}
 616              		.cfi_def_cfa_offset 8
 617              		.cfi_offset 4, -8
 618              		.cfi_offset 14, -4
 619 0002 82B0     		sub	sp, sp, #8
 620              		.cfi_def_cfa_offset 16
 529:Source\LwIP\src\core/inet_chksum.c **** #if LWIP_IPV6
 530:Source\LwIP\src\core/inet_chksum.c ****   if (IP_IS_V6(dest)) {
 531:Source\LwIP\src\core/inet_chksum.c ****     return ip6_chksum_pseudo_partial(p, proto, proto_len, chksum_len, ip_2_ip6(src), ip_2_ip6(dest)
 532:Source\LwIP\src\core/inet_chksum.c ****   }
 533:Source\LwIP\src\core/inet_chksum.c **** #endif /* LWIP_IPV6 */
 534:Source\LwIP\src\core/inet_chksum.c **** #if LWIP_IPV4 && LWIP_IPV6
 535:Source\LwIP\src\core/inet_chksum.c ****   else
 536:Source\LwIP\src\core/inet_chksum.c **** #endif /* LWIP_IPV4 && LWIP_IPV6 */
 537:Source\LwIP\src\core/inet_chksum.c **** #if LWIP_IPV4
 538:Source\LwIP\src\core/inet_chksum.c ****   {
 539:Source\LwIP\src\core/inet_chksum.c ****     return inet_chksum_pseudo_partial(p, proto, proto_len, chksum_len, ip_2_ip4(src), ip_2_ip4(dest
 621              		.loc 1 539 0
 622 0004 059C     		ldr	r4, [sp, #20]
 623 0006 0194     		str	r4, [sp, #4]
 624 0008 049C     		ldr	r4, [sp, #16]
 625 000a 0094     		str	r4, [sp]
 626 000c FFF7FEFF 		bl	inet_chksum_pseudo_partial
 627              	.LVL110:
 540:Source\LwIP\src\core/inet_chksum.c ****   }
 541:Source\LwIP\src\core/inet_chksum.c **** #endif /* LWIP_IPV4 */
 542:Source\LwIP\src\core/inet_chksum.c **** }
 628              		.loc 1 542 0
 629 0010 02B0     		add	sp, sp, #8
 630              		@ sp needed
 631 0012 10BD     		pop	{r4, pc}
 632              		.cfi_endproc
ARM GAS  C:\Users\Phuong\AppData\Local\Temp\ccG70vIr.s 			page 22


 633              	.LFE59:
 634              		.size	ip_chksum_pseudo_partial, .-ip_chksum_pseudo_partial
 635              		.section	.text.inet_chksum,"ax",%progbits
 636              		.align	2
 637              		.global	inet_chksum
 638              		.code	16
 639              		.thumb_func
 640              		.type	inet_chksum, %function
 641              	inet_chksum:
 642              	.LFB60:
 543:Source\LwIP\src\core/inet_chksum.c **** 
 544:Source\LwIP\src\core/inet_chksum.c **** /* inet_chksum:
 545:Source\LwIP\src\core/inet_chksum.c ****  *
 546:Source\LwIP\src\core/inet_chksum.c ****  * Calculates the Internet checksum over a portion of memory. Used primarily for IP
 547:Source\LwIP\src\core/inet_chksum.c ****  * and ICMP.
 548:Source\LwIP\src\core/inet_chksum.c ****  *
 549:Source\LwIP\src\core/inet_chksum.c ****  * @param dataptr start of the buffer to calculate the checksum (no alignment needed)
 550:Source\LwIP\src\core/inet_chksum.c ****  * @param len length of the buffer to calculate the checksum
 551:Source\LwIP\src\core/inet_chksum.c ****  * @return checksum (as u16_t) to be saved directly in the protocol header
 552:Source\LwIP\src\core/inet_chksum.c ****  */
 553:Source\LwIP\src\core/inet_chksum.c **** 
 554:Source\LwIP\src\core/inet_chksum.c **** u16_t
 555:Source\LwIP\src\core/inet_chksum.c **** inet_chksum(const void *dataptr, u16_t len)
 556:Source\LwIP\src\core/inet_chksum.c **** {
 643              		.loc 1 556 0
 644              		.cfi_startproc
 645              		@ args = 0, pretend = 0, frame = 0
 646              		@ frame_needed = 0, uses_anonymous_args = 0
 647              	.LVL111:
 648 0000 10B5     		push	{r4, lr}
 649              		.cfi_def_cfa_offset 8
 650              		.cfi_offset 4, -8
 651              		.cfi_offset 14, -4
 557:Source\LwIP\src\core/inet_chksum.c ****   return (u16_t)~(unsigned int)LWIP_CHKSUM(dataptr, len);
 652              		.loc 1 557 0
 653 0002 FFF7FEFF 		bl	lwip_standard_chksum
 654              	.LVL112:
 655 0006 C043     		mvns	r0, r0
 656 0008 80B2     		uxth	r0, r0
 558:Source\LwIP\src\core/inet_chksum.c **** }
 657              		.loc 1 558 0
 658              		@ sp needed
 659 000a 10BD     		pop	{r4, pc}
 660              		.cfi_endproc
 661              	.LFE60:
 662              		.size	inet_chksum, .-inet_chksum
 663              		.section	.text.inet_chksum_pbuf,"ax",%progbits
 664              		.align	2
 665              		.global	inet_chksum_pbuf
 666              		.code	16
 667              		.thumb_func
 668              		.type	inet_chksum_pbuf, %function
 669              	inet_chksum_pbuf:
 670              	.LFB61:
 559:Source\LwIP\src\core/inet_chksum.c **** 
 560:Source\LwIP\src\core/inet_chksum.c **** /**
 561:Source\LwIP\src\core/inet_chksum.c ****  * Calculate a checksum over a chain of pbufs (without pseudo-header, much like
ARM GAS  C:\Users\Phuong\AppData\Local\Temp\ccG70vIr.s 			page 23


 562:Source\LwIP\src\core/inet_chksum.c ****  * inet_chksum only pbufs are used).
 563:Source\LwIP\src\core/inet_chksum.c ****  *
 564:Source\LwIP\src\core/inet_chksum.c ****  * @param p pbuf chain over that the checksum should be calculated
 565:Source\LwIP\src\core/inet_chksum.c ****  * @return checksum (as u16_t) to be saved directly in the protocol header
 566:Source\LwIP\src\core/inet_chksum.c ****  */
 567:Source\LwIP\src\core/inet_chksum.c **** u16_t
 568:Source\LwIP\src\core/inet_chksum.c **** inet_chksum_pbuf(struct pbuf *p)
 569:Source\LwIP\src\core/inet_chksum.c **** {
 671              		.loc 1 569 0
 672              		.cfi_startproc
 673              		@ args = 0, pretend = 0, frame = 0
 674              		@ frame_needed = 0, uses_anonymous_args = 0
 675              	.LVL113:
 676 0000 70B5     		push	{r4, r5, r6, lr}
 677              		.cfi_def_cfa_offset 16
 678              		.cfi_offset 4, -16
 679              		.cfi_offset 5, -12
 680              		.cfi_offset 6, -8
 681              		.cfi_offset 14, -4
 682 0002 0500     		movs	r5, r0
 683              	.LVL114:
 570:Source\LwIP\src\core/inet_chksum.c ****   u32_t acc;
 571:Source\LwIP\src\core/inet_chksum.c ****   struct pbuf *q;
 572:Source\LwIP\src\core/inet_chksum.c ****   u8_t swapped;
 573:Source\LwIP\src\core/inet_chksum.c **** 
 574:Source\LwIP\src\core/inet_chksum.c ****   acc = 0;
 575:Source\LwIP\src\core/inet_chksum.c ****   swapped = 0;
 684              		.loc 1 575 0
 685 0004 0026     		movs	r6, #0
 574:Source\LwIP\src\core/inet_chksum.c ****   swapped = 0;
 686              		.loc 1 574 0
 687 0006 0024     		movs	r4, #0
 576:Source\LwIP\src\core/inet_chksum.c ****   for (q = p; q != NULL; q = q->next) {
 688              		.loc 1 576 0
 689 0008 16E0     		b	.L26
 690              	.LVL115:
 691              	.L28:
 577:Source\LwIP\src\core/inet_chksum.c ****     acc += LWIP_CHKSUM(q->payload, q->len);
 692              		.loc 1 577 0
 693 000a 6989     		ldrh	r1, [r5, #10]
 694 000c 6868     		ldr	r0, [r5, #4]
 695 000e FFF7FEFF 		bl	lwip_standard_chksum
 696              	.LVL116:
 697 0012 0019     		adds	r0, r0, r4
 698              	.LVL117:
 578:Source\LwIP\src\core/inet_chksum.c ****     acc = FOLD_U32T(acc);
 699              		.loc 1 578 0
 700 0014 040C     		lsrs	r4, r0, #16
 701 0016 0004     		lsls	r0, r0, #16
 702              	.LVL118:
 703 0018 000C     		lsrs	r0, r0, #16
 704 001a 2418     		adds	r4, r4, r0
 705              	.LVL119:
 579:Source\LwIP\src\core/inet_chksum.c ****     if (q->len % 2 != 0) {
 706              		.loc 1 579 0
 707 001c 6B89     		ldrh	r3, [r5, #10]
 708 001e DB07     		lsls	r3, r3, #31
ARM GAS  C:\Users\Phuong\AppData\Local\Temp\ccG70vIr.s 			page 24


 709 0020 09D5     		bpl	.L27
 580:Source\LwIP\src\core/inet_chksum.c ****       swapped = 1 - swapped;
 710              		.loc 1 580 0
 711 0022 0123     		movs	r3, #1
 712 0024 9E1B     		subs	r6, r3, r6
 713              	.LVL120:
 714 0026 F6B2     		uxtb	r6, r6
 715              	.LVL121:
 581:Source\LwIP\src\core/inet_chksum.c ****       acc = SWAP_BYTES_IN_WORD(acc);
 716              		.loc 1 581 0
 717 0028 2306     		lsls	r3, r4, #24
 718 002a 1B0C     		lsrs	r3, r3, #16
 719 002c 200A     		lsrs	r0, r4, #8
 720 002e FF24     		movs	r4, #255
 721              	.LVL122:
 722 0030 2040     		ands	r0, r4
 723 0032 0343     		orrs	r3, r0
 724 0034 1C00     		movs	r4, r3
 725              	.LVL123:
 726              	.L27:
 576:Source\LwIP\src\core/inet_chksum.c ****     acc += LWIP_CHKSUM(q->payload, q->len);
 727              		.loc 1 576 0 discriminator 2
 728 0036 2D68     		ldr	r5, [r5]
 729              	.LVL124:
 730              	.L26:
 576:Source\LwIP\src\core/inet_chksum.c ****     acc += LWIP_CHKSUM(q->payload, q->len);
 731              		.loc 1 576 0 is_stmt 0 discriminator 1
 732 0038 002D     		cmp	r5, #0
 733 003a E6D1     		bne	.L28
 582:Source\LwIP\src\core/inet_chksum.c ****     }
 583:Source\LwIP\src\core/inet_chksum.c ****   }
 584:Source\LwIP\src\core/inet_chksum.c **** 
 585:Source\LwIP\src\core/inet_chksum.c ****   if (swapped) {
 734              		.loc 1 585 0 is_stmt 1
 735 003c 002E     		cmp	r6, #0
 736 003e 06D0     		beq	.L29
 586:Source\LwIP\src\core/inet_chksum.c ****     acc = SWAP_BYTES_IN_WORD(acc);
 737              		.loc 1 586 0
 738 0040 2306     		lsls	r3, r4, #24
 739 0042 1B0C     		lsrs	r3, r3, #16
 740 0044 200A     		lsrs	r0, r4, #8
 741 0046 FF24     		movs	r4, #255
 742              	.LVL125:
 743 0048 2040     		ands	r0, r4
 744 004a 0343     		orrs	r3, r0
 745 004c 1C00     		movs	r4, r3
 746              	.LVL126:
 747              	.L29:
 587:Source\LwIP\src\core/inet_chksum.c ****   }
 588:Source\LwIP\src\core/inet_chksum.c ****   return (u16_t)~(acc & 0xffffUL);
 748              		.loc 1 588 0
 749 004e E043     		mvns	r0, r4
 750 0050 80B2     		uxth	r0, r0
 589:Source\LwIP\src\core/inet_chksum.c **** }
 751              		.loc 1 589 0
 752              		@ sp needed
 753              	.LVL127:
ARM GAS  C:\Users\Phuong\AppData\Local\Temp\ccG70vIr.s 			page 25


 754              	.LVL128:
 755              	.LVL129:
 756 0052 70BD     		pop	{r4, r5, r6, pc}
 757              		.cfi_endproc
 758              	.LFE61:
 759              		.size	inet_chksum_pbuf, .-inet_chksum_pbuf
 760              		.text
 761              	.Letext0:
 762              		.file 2 "c:\\program files (x86)\\cypress\\psoc creator\\4.2\\psoc creator\\import\\gnu\\arm\\5.4.
 763              		.file 3 "c:\\program files (x86)\\cypress\\psoc creator\\4.2\\psoc creator\\import\\gnu\\arm\\5.4.
 764              		.file 4 ".\\Source\\LwIP\\src\\include/arch/cc.h"
 765              		.file 5 ".\\Source\\LwIP\\src\\include/lwip/arch.h"
 766              		.file 6 ".\\Source\\LwIP\\src\\include/lwip/pbuf.h"
 767              		.file 7 ".\\Source\\LwIP\\src\\include/lwip/ip4_addr.h"
 768              		.file 8 ".\\Source\\LwIP\\src\\include/lwip/ip_addr.h"
 769              		.file 9 ".\\Source\\LwIP\\src\\include/lwip/def.h"