ARM GAS  C:\Users\Phuong\AppData\Local\Temp\ccPPbPWA.s 			page 1


   1              		.syntax unified
   2              		.cpu cortex-m0plus
   3              		.fpu softvfp
   4              		.eabi_attribute 20, 1
   5              		.eabi_attribute 21, 1
   6              		.eabi_attribute 23, 3
   7              		.eabi_attribute 24, 1
   8              		.eabi_attribute 25, 1
   9              		.eabi_attribute 26, 1
  10              		.eabi_attribute 30, 1
  11              		.eabi_attribute 34, 0
  12              		.eabi_attribute 18, 4
  13              		.thumb
  14              		.syntax unified
  15              		.file	"iothubtransport_amqp_cbs_auth.c"
  16              		.text
  17              	.Ltext0:
  18              		.cfi_sections	.debug_frame
  19              		.section	.text.update_state,"ax",%progbits
  20              		.align	2
  21              		.code	16
  22              		.thumb_func
  23              		.type	update_state, %function
  24              	update_state:
  25              	.LFB1:
  26              		.file 1 "Source\\azure_iot_sdk\\iothub_client\\src\\iothubtransport_amqp_cbs_auth.c"
   1:Source\azure_iot_sdk\iothub_client\src/iothubtransport_amqp_cbs_auth.c **** // Copyright (c) Microsoft. All rights reserved.
   2:Source\azure_iot_sdk\iothub_client\src/iothubtransport_amqp_cbs_auth.c **** // Licensed under the MIT license. See LICENSE file in the project root for full license informatio
   3:Source\azure_iot_sdk\iothub_client\src/iothubtransport_amqp_cbs_auth.c **** 
   4:Source\azure_iot_sdk\iothub_client\src/iothubtransport_amqp_cbs_auth.c **** #include <stdlib.h>
   5:Source\azure_iot_sdk\iothub_client\src/iothubtransport_amqp_cbs_auth.c **** #include "internal/iothubtransport_amqp_cbs_auth.h"
   6:Source\azure_iot_sdk\iothub_client\src/iothubtransport_amqp_cbs_auth.c **** #include "azure_c_shared_utility/optimize_size.h"
   7:Source\azure_iot_sdk\iothub_client\src/iothubtransport_amqp_cbs_auth.c **** #include "azure_c_shared_utility/gballoc.h"
   8:Source\azure_iot_sdk\iothub_client\src/iothubtransport_amqp_cbs_auth.c **** #include "azure_c_shared_utility/agenttime.h"
   9:Source\azure_iot_sdk\iothub_client\src/iothubtransport_amqp_cbs_auth.c **** #include "azure_c_shared_utility/xlogging.h"
  10:Source\azure_iot_sdk\iothub_client\src/iothubtransport_amqp_cbs_auth.c **** #include "azure_c_shared_utility/sastoken.h"
  11:Source\azure_iot_sdk\iothub_client\src/iothubtransport_amqp_cbs_auth.c **** 
  12:Source\azure_iot_sdk\iothub_client\src/iothubtransport_amqp_cbs_auth.c **** #define RESULT_OK                                 0
  13:Source\azure_iot_sdk\iothub_client\src/iothubtransport_amqp_cbs_auth.c **** #define INDEFINITE_TIME                           ((time_t)(-1))
  14:Source\azure_iot_sdk\iothub_client\src/iothubtransport_amqp_cbs_auth.c **** #define SAS_TOKEN_TYPE                            "servicebus.windows.net:sastoken"
  15:Source\azure_iot_sdk\iothub_client\src/iothubtransport_amqp_cbs_auth.c **** #define IOTHUB_DEVICES_PATH_FMT                   "%s/devices/%s"
  16:Source\azure_iot_sdk\iothub_client\src/iothubtransport_amqp_cbs_auth.c **** #define IOTHUB_DEVICES_MODULE_PATH_FMT            "%s/devices/%s/modules/%s"
  17:Source\azure_iot_sdk\iothub_client\src/iothubtransport_amqp_cbs_auth.c **** #define DEFAULT_CBS_REQUEST_TIMEOUT_SECS          UINT32_MAX
  18:Source\azure_iot_sdk\iothub_client\src/iothubtransport_amqp_cbs_auth.c **** #define DEFAULT_SAS_TOKEN_LIFETIME_SECS           3600
  19:Source\azure_iot_sdk\iothub_client\src/iothubtransport_amqp_cbs_auth.c **** #define DEFAULT_SAS_TOKEN_REFRESH_TIME_SECS       1800
  20:Source\azure_iot_sdk\iothub_client\src/iothubtransport_amqp_cbs_auth.c **** 
  21:Source\azure_iot_sdk\iothub_client\src/iothubtransport_amqp_cbs_auth.c **** typedef struct AUTHENTICATION_INSTANCE_TAG
  22:Source\azure_iot_sdk\iothub_client\src/iothubtransport_amqp_cbs_auth.c **** {
  23:Source\azure_iot_sdk\iothub_client\src/iothubtransport_amqp_cbs_auth.c ****     const char* device_id;
  24:Source\azure_iot_sdk\iothub_client\src/iothubtransport_amqp_cbs_auth.c ****     const char* module_id;
  25:Source\azure_iot_sdk\iothub_client\src/iothubtransport_amqp_cbs_auth.c ****     STRING_HANDLE iothub_host_fqdn;
  26:Source\azure_iot_sdk\iothub_client\src/iothubtransport_amqp_cbs_auth.c **** 
  27:Source\azure_iot_sdk\iothub_client\src/iothubtransport_amqp_cbs_auth.c ****     ON_AUTHENTICATION_STATE_CHANGED_CALLBACK on_state_changed_callback;
  28:Source\azure_iot_sdk\iothub_client\src/iothubtransport_amqp_cbs_auth.c ****     void* on_state_changed_callback_context;
  29:Source\azure_iot_sdk\iothub_client\src/iothubtransport_amqp_cbs_auth.c **** 
  30:Source\azure_iot_sdk\iothub_client\src/iothubtransport_amqp_cbs_auth.c ****     ON_AUTHENTICATION_ERROR_CALLBACK on_error_callback;
  31:Source\azure_iot_sdk\iothub_client\src/iothubtransport_amqp_cbs_auth.c ****     void* on_error_callback_context;
ARM GAS  C:\Users\Phuong\AppData\Local\Temp\ccPPbPWA.s 			page 2


  32:Source\azure_iot_sdk\iothub_client\src/iothubtransport_amqp_cbs_auth.c **** 
  33:Source\azure_iot_sdk\iothub_client\src/iothubtransport_amqp_cbs_auth.c ****     size_t cbs_request_timeout_secs;
  34:Source\azure_iot_sdk\iothub_client\src/iothubtransport_amqp_cbs_auth.c ****     size_t sas_token_lifetime_secs;
  35:Source\azure_iot_sdk\iothub_client\src/iothubtransport_amqp_cbs_auth.c ****     size_t sas_token_refresh_time_secs;
  36:Source\azure_iot_sdk\iothub_client\src/iothubtransport_amqp_cbs_auth.c **** 
  37:Source\azure_iot_sdk\iothub_client\src/iothubtransport_amqp_cbs_auth.c ****     AUTHENTICATION_STATE state;
  38:Source\azure_iot_sdk\iothub_client\src/iothubtransport_amqp_cbs_auth.c ****     CBS_HANDLE cbs_handle;
  39:Source\azure_iot_sdk\iothub_client\src/iothubtransport_amqp_cbs_auth.c **** 
  40:Source\azure_iot_sdk\iothub_client\src/iothubtransport_amqp_cbs_auth.c ****     bool is_cbs_put_token_in_progress;
  41:Source\azure_iot_sdk\iothub_client\src/iothubtransport_amqp_cbs_auth.c ****     bool is_sas_token_refresh_in_progress;
  42:Source\azure_iot_sdk\iothub_client\src/iothubtransport_amqp_cbs_auth.c **** 
  43:Source\azure_iot_sdk\iothub_client\src/iothubtransport_amqp_cbs_auth.c ****     time_t current_sas_token_put_time;
  44:Source\azure_iot_sdk\iothub_client\src/iothubtransport_amqp_cbs_auth.c **** 
  45:Source\azure_iot_sdk\iothub_client\src/iothubtransport_amqp_cbs_auth.c ****     // Auth module used to generating handle authorization
  46:Source\azure_iot_sdk\iothub_client\src/iothubtransport_amqp_cbs_auth.c ****     // with either SAS Token, x509 Certs, and Device SAS Token
  47:Source\azure_iot_sdk\iothub_client\src/iothubtransport_amqp_cbs_auth.c ****     IOTHUB_AUTHORIZATION_HANDLE authorization_module;
  48:Source\azure_iot_sdk\iothub_client\src/iothubtransport_amqp_cbs_auth.c **** } AUTHENTICATION_INSTANCE;
  49:Source\azure_iot_sdk\iothub_client\src/iothubtransport_amqp_cbs_auth.c **** 
  50:Source\azure_iot_sdk\iothub_client\src/iothubtransport_amqp_cbs_auth.c **** 
  51:Source\azure_iot_sdk\iothub_client\src/iothubtransport_amqp_cbs_auth.c **** // Helper functions:
  52:Source\azure_iot_sdk\iothub_client\src/iothubtransport_amqp_cbs_auth.c **** 
  53:Source\azure_iot_sdk\iothub_client\src/iothubtransport_amqp_cbs_auth.c **** static void update_state(AUTHENTICATION_INSTANCE* instance, AUTHENTICATION_STATE new_state)
  54:Source\azure_iot_sdk\iothub_client\src/iothubtransport_amqp_cbs_auth.c **** {
  27              		.loc 1 54 0
  28              		.cfi_startproc
  29              		@ args = 0, pretend = 0, frame = 0
  30              		@ frame_needed = 0, uses_anonymous_args = 0
  31              	.LVL0:
  32 0000 10B5     		push	{r4, lr}
  33              		.cfi_def_cfa_offset 8
  34              		.cfi_offset 4, -8
  35              		.cfi_offset 14, -4
  36 0002 0A00     		movs	r2, r1
  55:Source\azure_iot_sdk\iothub_client\src/iothubtransport_amqp_cbs_auth.c ****     if (new_state != instance->state)
  37              		.loc 1 55 0
  38 0004 2823     		movs	r3, #40
  39 0006 C15C     		ldrb	r1, [r0, r3]
  40              	.LVL1:
  41 0008 9142     		cmp	r1, r2
  42 000a 05D0     		beq	.L1
  43              	.LVL2:
  44              	.LBB2:
  56:Source\azure_iot_sdk\iothub_client\src/iothubtransport_amqp_cbs_auth.c ****     {
  57:Source\azure_iot_sdk\iothub_client\src/iothubtransport_amqp_cbs_auth.c ****         AUTHENTICATION_STATE previous_state = instance->state;
  58:Source\azure_iot_sdk\iothub_client\src/iothubtransport_amqp_cbs_auth.c ****         instance->state = new_state;
  45              		.loc 1 58 0
  46 000c C254     		strb	r2, [r0, r3]
  59:Source\azure_iot_sdk\iothub_client\src/iothubtransport_amqp_cbs_auth.c **** 
  60:Source\azure_iot_sdk\iothub_client\src/iothubtransport_amqp_cbs_auth.c ****         if (instance->on_state_changed_callback != NULL)
  47              		.loc 1 60 0
  48 000e C368     		ldr	r3, [r0, #12]
  49 0010 002B     		cmp	r3, #0
  50 0012 01D0     		beq	.L1
  61:Source\azure_iot_sdk\iothub_client\src/iothubtransport_amqp_cbs_auth.c ****         {
  62:Source\azure_iot_sdk\iothub_client\src/iothubtransport_amqp_cbs_auth.c ****             instance->on_state_changed_callback(instance->on_state_changed_callback_context, previo
  51              		.loc 1 62 0
  52 0014 0069     		ldr	r0, [r0, #16]
ARM GAS  C:\Users\Phuong\AppData\Local\Temp\ccPPbPWA.s 			page 3


  53              	.LVL3:
  54 0016 9847     		blx	r3
  55              	.LVL4:
  56              	.L1:
  57              	.LBE2:
  63:Source\azure_iot_sdk\iothub_client\src/iothubtransport_amqp_cbs_auth.c ****         }
  64:Source\azure_iot_sdk\iothub_client\src/iothubtransport_amqp_cbs_auth.c ****     }
  65:Source\azure_iot_sdk\iothub_client\src/iothubtransport_amqp_cbs_auth.c **** }
  58              		.loc 1 65 0
  59              		@ sp needed
  60 0018 10BD     		pop	{r4, pc}
  61              		.cfi_endproc
  62              	.LFE1:
  63              		.size	update_state, .-update_state
  64 001a C046     		.section	.text.notify_error,"ax",%progbits
  65              		.align	2
  66              		.code	16
  67              		.thumb_func
  68              		.type	notify_error, %function
  69              	notify_error:
  70              	.LFB2:
  66:Source\azure_iot_sdk\iothub_client\src/iothubtransport_amqp_cbs_auth.c **** 
  67:Source\azure_iot_sdk\iothub_client\src/iothubtransport_amqp_cbs_auth.c **** static void notify_error(AUTHENTICATION_INSTANCE* instance, AUTHENTICATION_ERROR_CODE error_code)
  68:Source\azure_iot_sdk\iothub_client\src/iothubtransport_amqp_cbs_auth.c **** {
  71              		.loc 1 68 0
  72              		.cfi_startproc
  73              		@ args = 0, pretend = 0, frame = 0
  74              		@ frame_needed = 0, uses_anonymous_args = 0
  75              	.LVL5:
  76 0000 10B5     		push	{r4, lr}
  77              		.cfi_def_cfa_offset 8
  78              		.cfi_offset 4, -8
  79              		.cfi_offset 14, -4
  69:Source\azure_iot_sdk\iothub_client\src/iothubtransport_amqp_cbs_auth.c ****     if (instance->on_error_callback != NULL)
  80              		.loc 1 69 0
  81 0002 4369     		ldr	r3, [r0, #20]
  82 0004 002B     		cmp	r3, #0
  83 0006 01D0     		beq	.L3
  70:Source\azure_iot_sdk\iothub_client\src/iothubtransport_amqp_cbs_auth.c ****     {
  71:Source\azure_iot_sdk\iothub_client\src/iothubtransport_amqp_cbs_auth.c ****         instance->on_error_callback(instance->on_error_callback_context, error_code);
  84              		.loc 1 71 0
  85 0008 8069     		ldr	r0, [r0, #24]
  86              	.LVL6:
  87 000a 9847     		blx	r3
  88              	.LVL7:
  89              	.L3:
  72:Source\azure_iot_sdk\iothub_client\src/iothubtransport_amqp_cbs_auth.c ****     }
  73:Source\azure_iot_sdk\iothub_client\src/iothubtransport_amqp_cbs_auth.c **** }
  90              		.loc 1 73 0
  91              		@ sp needed
  92 000c 10BD     		pop	{r4, pc}
  93              		.cfi_endproc
  94              	.LFE2:
  95              		.size	notify_error, .-notify_error
  96 000e C046     		.section	.text.on_cbs_put_token_complete_callback,"ax",%progbits
  97              		.align	2
  98              		.code	16
ARM GAS  C:\Users\Phuong\AppData\Local\Temp\ccPPbPWA.s 			page 4


  99              		.thumb_func
 100              		.type	on_cbs_put_token_complete_callback, %function
 101              	on_cbs_put_token_complete_callback:
 102              	.LFB6:
  74:Source\azure_iot_sdk\iothub_client\src/iothubtransport_amqp_cbs_auth.c **** 
  75:Source\azure_iot_sdk\iothub_client\src/iothubtransport_amqp_cbs_auth.c **** static int verify_cbs_put_token_timeout(AUTHENTICATION_INSTANCE* instance, bool* is_timed_out)
  76:Source\azure_iot_sdk\iothub_client\src/iothubtransport_amqp_cbs_auth.c **** {
  77:Source\azure_iot_sdk\iothub_client\src/iothubtransport_amqp_cbs_auth.c ****     int result;
  78:Source\azure_iot_sdk\iothub_client\src/iothubtransport_amqp_cbs_auth.c **** 
  79:Source\azure_iot_sdk\iothub_client\src/iothubtransport_amqp_cbs_auth.c ****     if (instance->current_sas_token_put_time == INDEFINITE_TIME)
  80:Source\azure_iot_sdk\iothub_client\src/iothubtransport_amqp_cbs_auth.c ****     {
  81:Source\azure_iot_sdk\iothub_client\src/iothubtransport_amqp_cbs_auth.c ****         result = __FAILURE__;
  82:Source\azure_iot_sdk\iothub_client\src/iothubtransport_amqp_cbs_auth.c ****         LogError("Failed verifying if cbs_put_token has timed out (current_sas_token_put_time is no
  83:Source\azure_iot_sdk\iothub_client\src/iothubtransport_amqp_cbs_auth.c ****     }
  84:Source\azure_iot_sdk\iothub_client\src/iothubtransport_amqp_cbs_auth.c ****     else
  85:Source\azure_iot_sdk\iothub_client\src/iothubtransport_amqp_cbs_auth.c ****     {
  86:Source\azure_iot_sdk\iothub_client\src/iothubtransport_amqp_cbs_auth.c ****         time_t current_time;
  87:Source\azure_iot_sdk\iothub_client\src/iothubtransport_amqp_cbs_auth.c **** 
  88:Source\azure_iot_sdk\iothub_client\src/iothubtransport_amqp_cbs_auth.c ****         if ((current_time = get_time(NULL)) == INDEFINITE_TIME)
  89:Source\azure_iot_sdk\iothub_client\src/iothubtransport_amqp_cbs_auth.c ****         {
  90:Source\azure_iot_sdk\iothub_client\src/iothubtransport_amqp_cbs_auth.c ****             result = __FAILURE__;
  91:Source\azure_iot_sdk\iothub_client\src/iothubtransport_amqp_cbs_auth.c ****             LogError("Failed verifying if cbs_put_token has timed out (get_time failed)");
  92:Source\azure_iot_sdk\iothub_client\src/iothubtransport_amqp_cbs_auth.c ****         }
  93:Source\azure_iot_sdk\iothub_client\src/iothubtransport_amqp_cbs_auth.c ****         // Codes_SRS_IOTHUBTRANSPORT_AMQP_AUTH_09_083: [authentication_do_work() shall check for au
  94:Source\azure_iot_sdk\iothub_client\src/iothubtransport_amqp_cbs_auth.c ****         else if ((uint32_t)get_difftime(current_time, instance->current_sas_token_put_time) >= inst
  95:Source\azure_iot_sdk\iothub_client\src/iothubtransport_amqp_cbs_auth.c ****         {
  96:Source\azure_iot_sdk\iothub_client\src/iothubtransport_amqp_cbs_auth.c ****             *is_timed_out = true;
  97:Source\azure_iot_sdk\iothub_client\src/iothubtransport_amqp_cbs_auth.c ****             result = RESULT_OK;
  98:Source\azure_iot_sdk\iothub_client\src/iothubtransport_amqp_cbs_auth.c ****         }
  99:Source\azure_iot_sdk\iothub_client\src/iothubtransport_amqp_cbs_auth.c ****         else
 100:Source\azure_iot_sdk\iothub_client\src/iothubtransport_amqp_cbs_auth.c ****         {
 101:Source\azure_iot_sdk\iothub_client\src/iothubtransport_amqp_cbs_auth.c ****             *is_timed_out = false;
 102:Source\azure_iot_sdk\iothub_client\src/iothubtransport_amqp_cbs_auth.c ****             result = RESULT_OK;
 103:Source\azure_iot_sdk\iothub_client\src/iothubtransport_amqp_cbs_auth.c ****         }
 104:Source\azure_iot_sdk\iothub_client\src/iothubtransport_amqp_cbs_auth.c ****     }
 105:Source\azure_iot_sdk\iothub_client\src/iothubtransport_amqp_cbs_auth.c **** 
 106:Source\azure_iot_sdk\iothub_client\src/iothubtransport_amqp_cbs_auth.c ****     return result;
 107:Source\azure_iot_sdk\iothub_client\src/iothubtransport_amqp_cbs_auth.c **** }
 108:Source\azure_iot_sdk\iothub_client\src/iothubtransport_amqp_cbs_auth.c **** 
 109:Source\azure_iot_sdk\iothub_client\src/iothubtransport_amqp_cbs_auth.c **** static int verify_sas_token_refresh_timeout(AUTHENTICATION_INSTANCE* instance, bool* is_timed_out)
 110:Source\azure_iot_sdk\iothub_client\src/iothubtransport_amqp_cbs_auth.c **** {
 111:Source\azure_iot_sdk\iothub_client\src/iothubtransport_amqp_cbs_auth.c ****     int result;
 112:Source\azure_iot_sdk\iothub_client\src/iothubtransport_amqp_cbs_auth.c **** 
 113:Source\azure_iot_sdk\iothub_client\src/iothubtransport_amqp_cbs_auth.c ****     if (instance->current_sas_token_put_time == INDEFINITE_TIME)
 114:Source\azure_iot_sdk\iothub_client\src/iothubtransport_amqp_cbs_auth.c ****     {
 115:Source\azure_iot_sdk\iothub_client\src/iothubtransport_amqp_cbs_auth.c ****         result = __FAILURE__;
 116:Source\azure_iot_sdk\iothub_client\src/iothubtransport_amqp_cbs_auth.c ****         LogError("Failed verifying if SAS token refresh timed out (current_sas_token_put_time is no
 117:Source\azure_iot_sdk\iothub_client\src/iothubtransport_amqp_cbs_auth.c ****     }
 118:Source\azure_iot_sdk\iothub_client\src/iothubtransport_amqp_cbs_auth.c ****     else
 119:Source\azure_iot_sdk\iothub_client\src/iothubtransport_amqp_cbs_auth.c ****     {
 120:Source\azure_iot_sdk\iothub_client\src/iothubtransport_amqp_cbs_auth.c ****         time_t current_time;
 121:Source\azure_iot_sdk\iothub_client\src/iothubtransport_amqp_cbs_auth.c **** 
 122:Source\azure_iot_sdk\iothub_client\src/iothubtransport_amqp_cbs_auth.c ****         if ((current_time = get_time(NULL)) == INDEFINITE_TIME)
 123:Source\azure_iot_sdk\iothub_client\src/iothubtransport_amqp_cbs_auth.c ****         {
 124:Source\azure_iot_sdk\iothub_client\src/iothubtransport_amqp_cbs_auth.c ****             result = __FAILURE__;
 125:Source\azure_iot_sdk\iothub_client\src/iothubtransport_amqp_cbs_auth.c ****             LogError("Failed verifying if SAS token refresh timed out (get_time failed)");
 126:Source\azure_iot_sdk\iothub_client\src/iothubtransport_amqp_cbs_auth.c ****         }
ARM GAS  C:\Users\Phuong\AppData\Local\Temp\ccPPbPWA.s 			page 5


 127:Source\azure_iot_sdk\iothub_client\src/iothubtransport_amqp_cbs_auth.c ****         else if ((uint32_t)get_difftime(current_time, instance->current_sas_token_put_time) >= inst
 128:Source\azure_iot_sdk\iothub_client\src/iothubtransport_amqp_cbs_auth.c ****         {
 129:Source\azure_iot_sdk\iothub_client\src/iothubtransport_amqp_cbs_auth.c ****             *is_timed_out = true;
 130:Source\azure_iot_sdk\iothub_client\src/iothubtransport_amqp_cbs_auth.c ****             result = RESULT_OK;
 131:Source\azure_iot_sdk\iothub_client\src/iothubtransport_amqp_cbs_auth.c ****         }
 132:Source\azure_iot_sdk\iothub_client\src/iothubtransport_amqp_cbs_auth.c ****         else
 133:Source\azure_iot_sdk\iothub_client\src/iothubtransport_amqp_cbs_auth.c ****         {
 134:Source\azure_iot_sdk\iothub_client\src/iothubtransport_amqp_cbs_auth.c ****             *is_timed_out = false;
 135:Source\azure_iot_sdk\iothub_client\src/iothubtransport_amqp_cbs_auth.c ****             result = RESULT_OK;
 136:Source\azure_iot_sdk\iothub_client\src/iothubtransport_amqp_cbs_auth.c ****         }
 137:Source\azure_iot_sdk\iothub_client\src/iothubtransport_amqp_cbs_auth.c ****     }
 138:Source\azure_iot_sdk\iothub_client\src/iothubtransport_amqp_cbs_auth.c **** 
 139:Source\azure_iot_sdk\iothub_client\src/iothubtransport_amqp_cbs_auth.c ****     return result;
 140:Source\azure_iot_sdk\iothub_client\src/iothubtransport_amqp_cbs_auth.c **** }
 141:Source\azure_iot_sdk\iothub_client\src/iothubtransport_amqp_cbs_auth.c **** 
 142:Source\azure_iot_sdk\iothub_client\src/iothubtransport_amqp_cbs_auth.c **** static STRING_HANDLE create_device_and_module_path(STRING_HANDLE iothub_host_fqdn, const char* devi
 143:Source\azure_iot_sdk\iothub_client\src/iothubtransport_amqp_cbs_auth.c **** {
 144:Source\azure_iot_sdk\iothub_client\src/iothubtransport_amqp_cbs_auth.c ****     STRING_HANDLE devices_and_modules_path;
 145:Source\azure_iot_sdk\iothub_client\src/iothubtransport_amqp_cbs_auth.c **** 
 146:Source\azure_iot_sdk\iothub_client\src/iothubtransport_amqp_cbs_auth.c ****     if (module_id == NULL)
 147:Source\azure_iot_sdk\iothub_client\src/iothubtransport_amqp_cbs_auth.c ****     {
 148:Source\azure_iot_sdk\iothub_client\src/iothubtransport_amqp_cbs_auth.c ****         if ((devices_and_modules_path = STRING_construct_sprintf(IOTHUB_DEVICES_PATH_FMT, STRING_c_
 149:Source\azure_iot_sdk\iothub_client\src/iothubtransport_amqp_cbs_auth.c ****         {
 150:Source\azure_iot_sdk\iothub_client\src/iothubtransport_amqp_cbs_auth.c ****             LogError("Failed creating devices_and_modules_path (STRING_new failed)");
 151:Source\azure_iot_sdk\iothub_client\src/iothubtransport_amqp_cbs_auth.c ****         }
 152:Source\azure_iot_sdk\iothub_client\src/iothubtransport_amqp_cbs_auth.c ****     }
 153:Source\azure_iot_sdk\iothub_client\src/iothubtransport_amqp_cbs_auth.c ****     else
 154:Source\azure_iot_sdk\iothub_client\src/iothubtransport_amqp_cbs_auth.c ****     {
 155:Source\azure_iot_sdk\iothub_client\src/iothubtransport_amqp_cbs_auth.c ****         if ((devices_and_modules_path = STRING_construct_sprintf(IOTHUB_DEVICES_MODULE_PATH_FMT, ST
 156:Source\azure_iot_sdk\iothub_client\src/iothubtransport_amqp_cbs_auth.c ****         {
 157:Source\azure_iot_sdk\iothub_client\src/iothubtransport_amqp_cbs_auth.c ****             LogError("Failed creating devices_and_modules_path (STRING_new failed)");
 158:Source\azure_iot_sdk\iothub_client\src/iothubtransport_amqp_cbs_auth.c ****         }
 159:Source\azure_iot_sdk\iothub_client\src/iothubtransport_amqp_cbs_auth.c ****     }
 160:Source\azure_iot_sdk\iothub_client\src/iothubtransport_amqp_cbs_auth.c ****     return devices_and_modules_path;
 161:Source\azure_iot_sdk\iothub_client\src/iothubtransport_amqp_cbs_auth.c **** }
 162:Source\azure_iot_sdk\iothub_client\src/iothubtransport_amqp_cbs_auth.c **** 
 163:Source\azure_iot_sdk\iothub_client\src/iothubtransport_amqp_cbs_auth.c **** static void on_cbs_put_token_complete_callback(void* context, CBS_OPERATION_RESULT operation_result
 164:Source\azure_iot_sdk\iothub_client\src/iothubtransport_amqp_cbs_auth.c **** {
 103              		.loc 1 164 0
 104              		.cfi_startproc
 105              		@ args = 0, pretend = 0, frame = 0
 106              		@ frame_needed = 0, uses_anonymous_args = 0
 107              	.LVL8:
 108 0000 F0B5     		push	{r4, r5, r6, r7, lr}
 109              		.cfi_def_cfa_offset 20
 110              		.cfi_offset 4, -20
 111              		.cfi_offset 5, -16
 112              		.cfi_offset 6, -12
 113              		.cfi_offset 7, -8
 114              		.cfi_offset 14, -4
 115 0002 87B0     		sub	sp, sp, #28
 116              		.cfi_def_cfa_offset 48
 117 0004 0400     		movs	r4, r0
 118 0006 1500     		movs	r5, r2
 119 0008 1E00     		movs	r6, r3
 120              	.LVL9:
 165:Source\azure_iot_sdk\iothub_client\src/iothubtransport_amqp_cbs_auth.c **** #ifdef NO_LOGGING
ARM GAS  C:\Users\Phuong\AppData\Local\Temp\ccPPbPWA.s 			page 6


 166:Source\azure_iot_sdk\iothub_client\src/iothubtransport_amqp_cbs_auth.c ****     UNUSED(status_code);
 167:Source\azure_iot_sdk\iothub_client\src/iothubtransport_amqp_cbs_auth.c ****     UNUSED(status_description);
 168:Source\azure_iot_sdk\iothub_client\src/iothubtransport_amqp_cbs_auth.c **** #endif
 169:Source\azure_iot_sdk\iothub_client\src/iothubtransport_amqp_cbs_auth.c ****     AUTHENTICATION_INSTANCE* instance = (AUTHENTICATION_INSTANCE*)context;
 170:Source\azure_iot_sdk\iothub_client\src/iothubtransport_amqp_cbs_auth.c **** 
 171:Source\azure_iot_sdk\iothub_client\src/iothubtransport_amqp_cbs_auth.c ****     // Codes_SRS_IOTHUBTRANSPORT_AMQP_AUTH_09_095: [`instance->is_sas_token_refresh_in_progress` an
 172:Source\azure_iot_sdk\iothub_client\src/iothubtransport_amqp_cbs_auth.c ****     instance->is_cbs_put_token_in_progress = false;
 121              		.loc 1 172 0
 122 000a 0022     		movs	r2, #0
 123              	.LVL10:
 124 000c 3023     		movs	r3, #48
 125              	.LVL11:
 126 000e C254     		strb	r2, [r0, r3]
 173:Source\azure_iot_sdk\iothub_client\src/iothubtransport_amqp_cbs_auth.c **** 
 174:Source\azure_iot_sdk\iothub_client\src/iothubtransport_amqp_cbs_auth.c ****     // Codes_SRS_IOTHUBTRANSPORT_AMQP_AUTH_09_091: [If `result` is CBS_OPERATION_RESULT_OK `instanc
 175:Source\azure_iot_sdk\iothub_client\src/iothubtransport_amqp_cbs_auth.c ****     if (operation_result == CBS_OPERATION_RESULT_OK)
 127              		.loc 1 175 0
 128 0010 0029     		cmp	r1, #0
 129 0012 03D1     		bne	.L6
 176:Source\azure_iot_sdk\iothub_client\src/iothubtransport_amqp_cbs_auth.c ****     {
 177:Source\azure_iot_sdk\iothub_client\src/iothubtransport_amqp_cbs_auth.c ****         update_state(instance, AUTHENTICATION_STATE_STARTED);
 130              		.loc 1 177 0
 131 0014 0231     		adds	r1, r1, #2
 132              	.LVL12:
 133 0016 FFF7FEFF 		bl	update_state
 134              	.LVL13:
 135 001a 21E0     		b	.L7
 136              	.LVL14:
 137              	.L6:
 138              	.LBB3:
 178:Source\azure_iot_sdk\iothub_client\src/iothubtransport_amqp_cbs_auth.c ****     }
 179:Source\azure_iot_sdk\iothub_client\src/iothubtransport_amqp_cbs_auth.c ****     else
 180:Source\azure_iot_sdk\iothub_client\src/iothubtransport_amqp_cbs_auth.c ****     {
 181:Source\azure_iot_sdk\iothub_client\src/iothubtransport_amqp_cbs_auth.c ****         LogError("CBS reported status code %u, error: '%s' for put-token operation for device '%s'"
 139              		.loc 1 181 0 discriminator 3
 140 001c FFF7FEFF 		bl	xlogging_get_log_function
 141              	.LVL15:
 142 0020 071E     		subs	r7, r0, #0
 143              	.LVL16:
 144 0022 0CD0     		beq	.L8
 145              		.loc 1 181 0 is_stmt 0 discriminator 4
 146 0024 2368     		ldr	r3, [r4]
 147 0026 0493     		str	r3, [sp, #16]
 148 0028 0396     		str	r6, [sp, #12]
 149 002a 0295     		str	r5, [sp, #8]
 150 002c 0F4B     		ldr	r3, .L10
 151 002e 0193     		str	r3, [sp, #4]
 152 0030 0123     		movs	r3, #1
 153 0032 0093     		str	r3, [sp]
 154 0034 B433     		adds	r3, r3, #180
 155 0036 0E4A     		ldr	r2, .L10+4
 156 0038 0E49     		ldr	r1, .L10+8
 157 003a 0020     		movs	r0, #0
 158              	.LVL17:
 159 003c B847     		blx	r7
 160              	.LVL18:
 161              	.L8:
ARM GAS  C:\Users\Phuong\AppData\Local\Temp\ccPPbPWA.s 			page 7


 162              	.LBE3:
 182:Source\azure_iot_sdk\iothub_client\src/iothubtransport_amqp_cbs_auth.c **** 
 183:Source\azure_iot_sdk\iothub_client\src/iothubtransport_amqp_cbs_auth.c ****         // Codes_SRS_IOTHUBTRANSPORT_AMQP_AUTH_09_092: [If `result` is not CBS_OPERATION_RESULT_OK 
 184:Source\azure_iot_sdk\iothub_client\src/iothubtransport_amqp_cbs_auth.c ****         update_state(instance, AUTHENTICATION_STATE_ERROR);
 163              		.loc 1 184 0 is_stmt 1
 164 003e 0321     		movs	r1, #3
 165 0040 2000     		movs	r0, r4
 166 0042 FFF7FEFF 		bl	update_state
 167              	.LVL19:
 185:Source\azure_iot_sdk\iothub_client\src/iothubtransport_amqp_cbs_auth.c **** 
 186:Source\azure_iot_sdk\iothub_client\src/iothubtransport_amqp_cbs_auth.c ****         // Codes_SRS_IOTHUBTRANSPORT_AMQP_AUTH_09_094: [If `result` is not CBS_OPERATION_RESULT_OK 
 187:Source\azure_iot_sdk\iothub_client\src/iothubtransport_amqp_cbs_auth.c ****         if (instance->is_sas_token_refresh_in_progress)
 168              		.loc 1 187 0
 169 0046 3123     		movs	r3, #49
 170 0048 E35C     		ldrb	r3, [r4, r3]
 171 004a 002B     		cmp	r3, #0
 172 004c 04D0     		beq	.L9
 188:Source\azure_iot_sdk\iothub_client\src/iothubtransport_amqp_cbs_auth.c ****         {
 189:Source\azure_iot_sdk\iothub_client\src/iothubtransport_amqp_cbs_auth.c ****             notify_error(instance, AUTHENTICATION_ERROR_SAS_REFRESH_FAILED);
 173              		.loc 1 189 0
 174 004e 0321     		movs	r1, #3
 175 0050 2000     		movs	r0, r4
 176 0052 FFF7FEFF 		bl	notify_error
 177              	.LVL20:
 178 0056 03E0     		b	.L7
 179              	.L9:
 190:Source\azure_iot_sdk\iothub_client\src/iothubtransport_amqp_cbs_auth.c ****         }
 191:Source\azure_iot_sdk\iothub_client\src/iothubtransport_amqp_cbs_auth.c ****         // Codes_SRS_IOTHUBTRANSPORT_AMQP_AUTH_09_093: [If `result` is not CBS_OPERATION_RESULT_OK 
 192:Source\azure_iot_sdk\iothub_client\src/iothubtransport_amqp_cbs_auth.c ****         else
 193:Source\azure_iot_sdk\iothub_client\src/iothubtransport_amqp_cbs_auth.c ****         {
 194:Source\azure_iot_sdk\iothub_client\src/iothubtransport_amqp_cbs_auth.c ****             notify_error(instance, AUTHENTICATION_ERROR_AUTH_FAILED);
 180              		.loc 1 194 0
 181 0058 0121     		movs	r1, #1
 182 005a 2000     		movs	r0, r4
 183 005c FFF7FEFF 		bl	notify_error
 184              	.LVL21:
 185              	.L7:
 195:Source\azure_iot_sdk\iothub_client\src/iothubtransport_amqp_cbs_auth.c ****         }
 196:Source\azure_iot_sdk\iothub_client\src/iothubtransport_amqp_cbs_auth.c ****     }
 197:Source\azure_iot_sdk\iothub_client\src/iothubtransport_amqp_cbs_auth.c **** 
 198:Source\azure_iot_sdk\iothub_client\src/iothubtransport_amqp_cbs_auth.c ****     instance->is_sas_token_refresh_in_progress = false;
 186              		.loc 1 198 0
 187 0060 0022     		movs	r2, #0
 188 0062 3123     		movs	r3, #49
 189 0064 E254     		strb	r2, [r4, r3]
 199:Source\azure_iot_sdk\iothub_client\src/iothubtransport_amqp_cbs_auth.c **** }
 190              		.loc 1 199 0
 191 0066 07B0     		add	sp, sp, #28
 192              		@ sp needed
 193              	.LVL22:
 194              	.LVL23:
 195              	.LVL24:
 196 0068 F0BD     		pop	{r4, r5, r6, r7, pc}
 197              	.L11:
 198 006a C046     		.align	2
 199              	.L10:
 200 006c 48000000 		.word	.LC3
ARM GAS  C:\Users\Phuong\AppData\Local\Temp\ccPPbPWA.s 			page 8


 201 0070 00000000 		.word	.LANCHOR0
 202 0074 00000000 		.word	.LC1
 203              		.cfi_endproc
 204              	.LFE6:
 205              		.size	on_cbs_put_token_complete_callback, .-on_cbs_put_token_complete_callback
 206              		.global	__aeabi_d2uiz
 207              		.section	.text.verify_cbs_put_token_timeout,"ax",%progbits
 208              		.align	2
 209              		.code	16
 210              		.thumb_func
 211              		.type	verify_cbs_put_token_timeout, %function
 212              	verify_cbs_put_token_timeout:
 213              	.LFB3:
  76:Source\azure_iot_sdk\iothub_client\src/iothubtransport_amqp_cbs_auth.c ****     int result;
 214              		.loc 1 76 0
 215              		.cfi_startproc
 216              		@ args = 0, pretend = 0, frame = 0
 217              		@ frame_needed = 0, uses_anonymous_args = 0
 218              	.LVL25:
 219 0000 30B5     		push	{r4, r5, lr}
 220              		.cfi_def_cfa_offset 12
 221              		.cfi_offset 4, -12
 222              		.cfi_offset 5, -8
 223              		.cfi_offset 14, -4
 224 0002 83B0     		sub	sp, sp, #12
 225              		.cfi_def_cfa_offset 24
 226 0004 0400     		movs	r4, r0
 227 0006 0D00     		movs	r5, r1
  79:Source\azure_iot_sdk\iothub_client\src/iothubtransport_amqp_cbs_auth.c ****     {
 228              		.loc 1 79 0
 229 0008 436B     		ldr	r3, [r0, #52]
 230 000a 0133     		adds	r3, r3, #1
 231 000c 0FD1     		bne	.L13
 232              	.LVL26:
 233              	.LBB4:
  82:Source\azure_iot_sdk\iothub_client\src/iothubtransport_amqp_cbs_auth.c ****     }
 234              		.loc 1 82 0
 235 000e FFF7FEFF 		bl	xlogging_get_log_function
 236              	.LVL27:
 237 0012 041E     		subs	r4, r0, #0
 238              	.LVL28:
 239 0014 30D0     		beq	.L17
  82:Source\azure_iot_sdk\iothub_client\src/iothubtransport_amqp_cbs_auth.c ****     }
 240              		.loc 1 82 0 is_stmt 0 discriminator 4
 241 0016 1B4B     		ldr	r3, .L19
 242 0018 0193     		str	r3, [sp, #4]
 243 001a 0123     		movs	r3, #1
 244 001c 0093     		str	r3, [sp]
 245 001e 5133     		adds	r3, r3, #81
 246 0020 194A     		ldr	r2, .L19+4
 247 0022 2432     		adds	r2, r2, #36
 248 0024 1949     		ldr	r1, .L19+8
 249 0026 0020     		movs	r0, #0
 250              	.LVL29:
 251 0028 A047     		blx	r4
 252              	.LVL30:
 253              	.LBE4:
ARM GAS  C:\Users\Phuong\AppData\Local\Temp\ccPPbPWA.s 			page 9


  81:Source\azure_iot_sdk\iothub_client\src/iothubtransport_amqp_cbs_auth.c ****         LogError("Failed verifying if cbs_put_token has timed out (current_sas_token_put_time is no
 254              		.loc 1 81 0 is_stmt 1 discriminator 4
 255 002a 5120     		movs	r0, #81
 256 002c 27E0     		b	.L14
 257              	.LVL31:
 258              	.L13:
 259              	.LBB5:
  88:Source\azure_iot_sdk\iothub_client\src/iothubtransport_amqp_cbs_auth.c ****         {
 260              		.loc 1 88 0
 261 002e 0020     		movs	r0, #0
 262              	.LVL32:
 263 0030 FFF7FEFF 		bl	get_time
 264              	.LVL33:
 265 0034 431C     		adds	r3, r0, #1
 266 0036 0FD1     		bne	.L15
 267              	.LVL34:
 268              	.LBB6:
  91:Source\azure_iot_sdk\iothub_client\src/iothubtransport_amqp_cbs_auth.c ****         }
 269              		.loc 1 91 0
 270 0038 FFF7FEFF 		bl	xlogging_get_log_function
 271              	.LVL35:
 272 003c 041E     		subs	r4, r0, #0
 273              	.LVL36:
 274 003e 1DD0     		beq	.L18
  91:Source\azure_iot_sdk\iothub_client\src/iothubtransport_amqp_cbs_auth.c ****         }
 275              		.loc 1 91 0 is_stmt 0 discriminator 4
 276 0040 134B     		ldr	r3, .L19+12
 277 0042 0193     		str	r3, [sp, #4]
 278 0044 0123     		movs	r3, #1
 279 0046 0093     		str	r3, [sp]
 280 0048 5A33     		adds	r3, r3, #90
 281 004a 0F4A     		ldr	r2, .L19+4
 282 004c 2432     		adds	r2, r2, #36
 283 004e 0F49     		ldr	r1, .L19+8
 284 0050 0020     		movs	r0, #0
 285              	.LVL37:
 286 0052 A047     		blx	r4
 287              	.LVL38:
 288              	.LBE6:
  90:Source\azure_iot_sdk\iothub_client\src/iothubtransport_amqp_cbs_auth.c ****             LogError("Failed verifying if cbs_put_token has timed out (get_time failed)");
 289              		.loc 1 90 0 is_stmt 1 discriminator 4
 290 0054 5A20     		movs	r0, #90
 291 0056 12E0     		b	.L14
 292              	.LVL39:
 293              	.L15:
  94:Source\azure_iot_sdk\iothub_client\src/iothubtransport_amqp_cbs_auth.c ****         {
 294              		.loc 1 94 0
 295 0058 616B     		ldr	r1, [r4, #52]
 296 005a FFF7FEFF 		bl	get_difftime
 297              	.LVL40:
 298 005e FFF7FEFF 		bl	__aeabi_d2uiz
 299              	.LVL41:
 300 0062 E369     		ldr	r3, [r4, #28]
 301 0064 9842     		cmp	r0, r3
 302 0066 03D3     		bcc	.L16
  96:Source\azure_iot_sdk\iothub_client\src/iothubtransport_amqp_cbs_auth.c ****             result = RESULT_OK;
 303              		.loc 1 96 0
ARM GAS  C:\Users\Phuong\AppData\Local\Temp\ccPPbPWA.s 			page 10


 304 0068 0123     		movs	r3, #1
 305 006a 2B70     		strb	r3, [r5]
 306              	.LVL42:
  97:Source\azure_iot_sdk\iothub_client\src/iothubtransport_amqp_cbs_auth.c ****         }
 307              		.loc 1 97 0
 308 006c 0020     		movs	r0, #0
 309 006e 06E0     		b	.L14
 310              	.LVL43:
 311              	.L16:
 101:Source\azure_iot_sdk\iothub_client\src/iothubtransport_amqp_cbs_auth.c ****             result = RESULT_OK;
 312              		.loc 1 101 0
 313 0070 0023     		movs	r3, #0
 314 0072 2B70     		strb	r3, [r5]
 315              	.LVL44:
 102:Source\azure_iot_sdk\iothub_client\src/iothubtransport_amqp_cbs_auth.c ****         }
 316              		.loc 1 102 0
 317 0074 0020     		movs	r0, #0
 318 0076 02E0     		b	.L14
 319              	.LVL45:
 320              	.L17:
 321              	.LBE5:
  81:Source\azure_iot_sdk\iothub_client\src/iothubtransport_amqp_cbs_auth.c ****         LogError("Failed verifying if cbs_put_token has timed out (current_sas_token_put_time is no
 322              		.loc 1 81 0
 323 0078 5120     		movs	r0, #81
 324              	.LVL46:
 325 007a 00E0     		b	.L14
 326              	.LVL47:
 327              	.L18:
 328              	.LBB7:
  90:Source\azure_iot_sdk\iothub_client\src/iothubtransport_amqp_cbs_auth.c ****             LogError("Failed verifying if cbs_put_token has timed out (get_time failed)");
 329              		.loc 1 90 0
 330 007c 5A20     		movs	r0, #90
 331              	.LVL48:
 332              	.L14:
 333              	.LBE7:
 107:Source\azure_iot_sdk\iothub_client\src/iothubtransport_amqp_cbs_auth.c **** 
 334              		.loc 1 107 0
 335 007e 03B0     		add	sp, sp, #12
 336              		@ sp needed
 337              	.LVL49:
 338 0080 30BD     		pop	{r4, r5, pc}
 339              	.L20:
 340 0082 C046     		.align	2
 341              	.L19:
 342 0084 9C000000 		.word	.LC7
 343 0088 00000000 		.word	.LANCHOR0
 344 008c 00000000 		.word	.LC1
 345 0090 F4000000 		.word	.LC9
 346              		.cfi_endproc
 347              	.LFE3:
 348              		.size	verify_cbs_put_token_timeout, .-verify_cbs_put_token_timeout
 349              		.section	.text.verify_sas_token_refresh_timeout,"ax",%progbits
 350              		.align	2
 351              		.code	16
 352              		.thumb_func
 353              		.type	verify_sas_token_refresh_timeout, %function
 354              	verify_sas_token_refresh_timeout:
ARM GAS  C:\Users\Phuong\AppData\Local\Temp\ccPPbPWA.s 			page 11


 355              	.LFB4:
 110:Source\azure_iot_sdk\iothub_client\src/iothubtransport_amqp_cbs_auth.c ****     int result;
 356              		.loc 1 110 0
 357              		.cfi_startproc
 358              		@ args = 0, pretend = 0, frame = 0
 359              		@ frame_needed = 0, uses_anonymous_args = 0
 360              	.LVL50:
 361 0000 30B5     		push	{r4, r5, lr}
 362              		.cfi_def_cfa_offset 12
 363              		.cfi_offset 4, -12
 364              		.cfi_offset 5, -8
 365              		.cfi_offset 14, -4
 366 0002 83B0     		sub	sp, sp, #12
 367              		.cfi_def_cfa_offset 24
 368 0004 0400     		movs	r4, r0
 369 0006 0D00     		movs	r5, r1
 113:Source\azure_iot_sdk\iothub_client\src/iothubtransport_amqp_cbs_auth.c ****     {
 370              		.loc 1 113 0
 371 0008 436B     		ldr	r3, [r0, #52]
 372 000a 0133     		adds	r3, r3, #1
 373 000c 0FD1     		bne	.L22
 374              	.LVL51:
 375              	.LBB8:
 116:Source\azure_iot_sdk\iothub_client\src/iothubtransport_amqp_cbs_auth.c ****     }
 376              		.loc 1 116 0
 377 000e FFF7FEFF 		bl	xlogging_get_log_function
 378              	.LVL52:
 379 0012 041E     		subs	r4, r0, #0
 380              	.LVL53:
 381 0014 30D0     		beq	.L26
 116:Source\azure_iot_sdk\iothub_client\src/iothubtransport_amqp_cbs_auth.c ****     }
 382              		.loc 1 116 0 is_stmt 0 discriminator 4
 383 0016 1B4B     		ldr	r3, .L28
 384 0018 0193     		str	r3, [sp, #4]
 385 001a 0123     		movs	r3, #1
 386 001c 0093     		str	r3, [sp]
 387 001e 7333     		adds	r3, r3, #115
 388 0020 194A     		ldr	r2, .L28+4
 389 0022 4432     		adds	r2, r2, #68
 390 0024 1949     		ldr	r1, .L28+8
 391 0026 0020     		movs	r0, #0
 392              	.LVL54:
 393 0028 A047     		blx	r4
 394              	.LVL55:
 395              	.LBE8:
 115:Source\azure_iot_sdk\iothub_client\src/iothubtransport_amqp_cbs_auth.c ****         LogError("Failed verifying if SAS token refresh timed out (current_sas_token_put_time is no
 396              		.loc 1 115 0 is_stmt 1 discriminator 4
 397 002a 7320     		movs	r0, #115
 398 002c 27E0     		b	.L23
 399              	.LVL56:
 400              	.L22:
 401              	.LBB9:
 122:Source\azure_iot_sdk\iothub_client\src/iothubtransport_amqp_cbs_auth.c ****         {
 402              		.loc 1 122 0
 403 002e 0020     		movs	r0, #0
 404              	.LVL57:
 405 0030 FFF7FEFF 		bl	get_time
ARM GAS  C:\Users\Phuong\AppData\Local\Temp\ccPPbPWA.s 			page 12


 406              	.LVL58:
 407 0034 431C     		adds	r3, r0, #1
 408 0036 0FD1     		bne	.L24
 409              	.LVL59:
 410              	.LBB10:
 125:Source\azure_iot_sdk\iothub_client\src/iothubtransport_amqp_cbs_auth.c ****         }
 411              		.loc 1 125 0
 412 0038 FFF7FEFF 		bl	xlogging_get_log_function
 413              	.LVL60:
 414 003c 041E     		subs	r4, r0, #0
 415              	.LVL61:
 416 003e 1DD0     		beq	.L27
 125:Source\azure_iot_sdk\iothub_client\src/iothubtransport_amqp_cbs_auth.c ****         }
 417              		.loc 1 125 0 is_stmt 0 discriminator 4
 418 0040 134B     		ldr	r3, .L28+12
 419 0042 0193     		str	r3, [sp, #4]
 420 0044 0123     		movs	r3, #1
 421 0046 0093     		str	r3, [sp]
 422 0048 7C33     		adds	r3, r3, #124
 423 004a 0F4A     		ldr	r2, .L28+4
 424 004c 4432     		adds	r2, r2, #68
 425 004e 0F49     		ldr	r1, .L28+8
 426 0050 0020     		movs	r0, #0
 427              	.LVL62:
 428 0052 A047     		blx	r4
 429              	.LVL63:
 430              	.LBE10:
 124:Source\azure_iot_sdk\iothub_client\src/iothubtransport_amqp_cbs_auth.c ****             LogError("Failed verifying if SAS token refresh timed out (get_time failed)");
 431              		.loc 1 124 0 is_stmt 1 discriminator 4
 432 0054 7C20     		movs	r0, #124
 433 0056 12E0     		b	.L23
 434              	.LVL64:
 435              	.L24:
 127:Source\azure_iot_sdk\iothub_client\src/iothubtransport_amqp_cbs_auth.c ****         {
 436              		.loc 1 127 0
 437 0058 616B     		ldr	r1, [r4, #52]
 438 005a FFF7FEFF 		bl	get_difftime
 439              	.LVL65:
 440 005e FFF7FEFF 		bl	__aeabi_d2uiz
 441              	.LVL66:
 442 0062 636A     		ldr	r3, [r4, #36]
 443 0064 9842     		cmp	r0, r3
 444 0066 03D3     		bcc	.L25
 129:Source\azure_iot_sdk\iothub_client\src/iothubtransport_amqp_cbs_auth.c ****             result = RESULT_OK;
 445              		.loc 1 129 0
 446 0068 0123     		movs	r3, #1
 447 006a 2B70     		strb	r3, [r5]
 448              	.LVL67:
 130:Source\azure_iot_sdk\iothub_client\src/iothubtransport_amqp_cbs_auth.c ****         }
 449              		.loc 1 130 0
 450 006c 0020     		movs	r0, #0
 451 006e 06E0     		b	.L23
 452              	.LVL68:
 453              	.L25:
 134:Source\azure_iot_sdk\iothub_client\src/iothubtransport_amqp_cbs_auth.c ****             result = RESULT_OK;
 454              		.loc 1 134 0
 455 0070 0023     		movs	r3, #0
ARM GAS  C:\Users\Phuong\AppData\Local\Temp\ccPPbPWA.s 			page 13


 456 0072 2B70     		strb	r3, [r5]
 457              	.LVL69:
 135:Source\azure_iot_sdk\iothub_client\src/iothubtransport_amqp_cbs_auth.c ****         }
 458              		.loc 1 135 0
 459 0074 0020     		movs	r0, #0
 460 0076 02E0     		b	.L23
 461              	.LVL70:
 462              	.L26:
 463              	.LBE9:
 115:Source\azure_iot_sdk\iothub_client\src/iothubtransport_amqp_cbs_auth.c ****         LogError("Failed verifying if SAS token refresh timed out (current_sas_token_put_time is no
 464              		.loc 1 115 0
 465 0078 7320     		movs	r0, #115
 466              	.LVL71:
 467 007a 00E0     		b	.L23
 468              	.LVL72:
 469              	.L27:
 470              	.LBB11:
 124:Source\azure_iot_sdk\iothub_client\src/iothubtransport_amqp_cbs_auth.c ****             LogError("Failed verifying if SAS token refresh timed out (get_time failed)");
 471              		.loc 1 124 0
 472 007c 7C20     		movs	r0, #124
 473              	.LVL73:
 474              	.L23:
 475              	.LBE11:
 140:Source\azure_iot_sdk\iothub_client\src/iothubtransport_amqp_cbs_auth.c **** 
 476              		.loc 1 140 0
 477 007e 03B0     		add	sp, sp, #12
 478              		@ sp needed
 479              	.LVL74:
 480 0080 30BD     		pop	{r4, r5, pc}
 481              	.L29:
 482 0082 C046     		.align	2
 483              	.L28:
 484 0084 38010000 		.word	.LC13
 485 0088 00000000 		.word	.LANCHOR0
 486 008c 00000000 		.word	.LC1
 487 0090 90010000 		.word	.LC15
 488              		.cfi_endproc
 489              	.LFE4:
 490              		.size	verify_sas_token_refresh_timeout, .-verify_sas_token_refresh_timeout
 491              		.section	.text.create_device_and_module_path,"ax",%progbits
 492              		.align	2
 493              		.code	16
 494              		.thumb_func
 495              		.type	create_device_and_module_path, %function
 496              	create_device_and_module_path:
 497              	.LFB5:
 143:Source\azure_iot_sdk\iothub_client\src/iothubtransport_amqp_cbs_auth.c ****     STRING_HANDLE devices_and_modules_path;
 498              		.loc 1 143 0
 499              		.cfi_startproc
 500              		@ args = 0, pretend = 0, frame = 0
 501              		@ frame_needed = 0, uses_anonymous_args = 0
 502              	.LVL75:
 503 0000 30B5     		push	{r4, r5, lr}
 504              		.cfi_def_cfa_offset 12
 505              		.cfi_offset 4, -12
 506              		.cfi_offset 5, -8
 507              		.cfi_offset 14, -4
ARM GAS  C:\Users\Phuong\AppData\Local\Temp\ccPPbPWA.s 			page 14


 508 0002 83B0     		sub	sp, sp, #12
 509              		.cfi_def_cfa_offset 24
 510 0004 0D00     		movs	r5, r1
 511 0006 141E     		subs	r4, r2, #0
 146:Source\azure_iot_sdk\iothub_client\src/iothubtransport_amqp_cbs_auth.c ****     {
 512              		.loc 1 146 0
 513 0008 17D1     		bne	.L31
 148:Source\azure_iot_sdk\iothub_client\src/iothubtransport_amqp_cbs_auth.c ****         {
 514              		.loc 1 148 0
 515 000a FFF7FEFF 		bl	STRING_c_str
 516              	.LVL76:
 517 000e 0100     		movs	r1, r0
 518 0010 2A00     		movs	r2, r5
 519 0012 1748     		ldr	r0, .L33
 520 0014 FFF7FEFF 		bl	STRING_construct_sprintf
 521              	.LVL77:
 522 0018 041E     		subs	r4, r0, #0
 523              	.LVL78:
 524 001a 26D1     		bne	.L32
 525              	.LBB12:
 150:Source\azure_iot_sdk\iothub_client\src/iothubtransport_amqp_cbs_auth.c ****         }
 526              		.loc 1 150 0 discriminator 3
 527 001c FFF7FEFF 		bl	xlogging_get_log_function
 528              	.LVL79:
 529 0020 051E     		subs	r5, r0, #0
 530              	.LVL80:
 531 0022 22D0     		beq	.L32
 150:Source\azure_iot_sdk\iothub_client\src/iothubtransport_amqp_cbs_auth.c ****         }
 532              		.loc 1 150 0 is_stmt 0 discriminator 4
 533 0024 134B     		ldr	r3, .L33+4
 534 0026 0193     		str	r3, [sp, #4]
 535 0028 0123     		movs	r3, #1
 536 002a 0093     		str	r3, [sp]
 537 002c 9533     		adds	r3, r3, #149
 538 002e 124A     		ldr	r2, .L33+8
 539 0030 6832     		adds	r2, r2, #104
 540 0032 1249     		ldr	r1, .L33+12
 541 0034 0020     		movs	r0, #0
 542              	.LVL81:
 543 0036 A847     		blx	r5
 544              	.LVL82:
 545 0038 17E0     		b	.L32
 546              	.LVL83:
 547              	.L31:
 548              	.LBE12:
 155:Source\azure_iot_sdk\iothub_client\src/iothubtransport_amqp_cbs_auth.c ****         {
 549              		.loc 1 155 0 is_stmt 1
 550 003a FFF7FEFF 		bl	STRING_c_str
 551              	.LVL84:
 552 003e 0100     		movs	r1, r0
 553 0040 2300     		movs	r3, r4
 554 0042 2A00     		movs	r2, r5
 555 0044 0E48     		ldr	r0, .L33+16
 556 0046 FFF7FEFF 		bl	STRING_construct_sprintf
 557              	.LVL85:
 558 004a 041E     		subs	r4, r0, #0
 559              	.LVL86:
ARM GAS  C:\Users\Phuong\AppData\Local\Temp\ccPPbPWA.s 			page 15


 560 004c 0DD1     		bne	.L32
 561              	.LBB13:
 157:Source\azure_iot_sdk\iothub_client\src/iothubtransport_amqp_cbs_auth.c ****         }
 562              		.loc 1 157 0 discriminator 3
 563 004e FFF7FEFF 		bl	xlogging_get_log_function
 564              	.LVL87:
 565 0052 051E     		subs	r5, r0, #0
 566              	.LVL88:
 567 0054 09D0     		beq	.L32
 157:Source\azure_iot_sdk\iothub_client\src/iothubtransport_amqp_cbs_auth.c ****         }
 568              		.loc 1 157 0 is_stmt 0 discriminator 4
 569 0056 074B     		ldr	r3, .L33+4
 570 0058 0193     		str	r3, [sp, #4]
 571 005a 0123     		movs	r3, #1
 572 005c 0093     		str	r3, [sp]
 573 005e 9C33     		adds	r3, r3, #156
 574 0060 054A     		ldr	r2, .L33+8
 575 0062 6832     		adds	r2, r2, #104
 576 0064 0549     		ldr	r1, .L33+12
 577 0066 0020     		movs	r0, #0
 578              	.LVL89:
 579 0068 A847     		blx	r5
 580              	.LVL90:
 581              	.L32:
 582              	.LBE13:
 161:Source\azure_iot_sdk\iothub_client\src/iothubtransport_amqp_cbs_auth.c **** 
 583              		.loc 1 161 0 is_stmt 1
 584 006a 2000     		movs	r0, r4
 585 006c 03B0     		add	sp, sp, #12
 586              		@ sp needed
 587              	.LVL91:
 588 006e 30BD     		pop	{r4, r5, pc}
 589              	.L34:
 590              		.align	2
 591              	.L33:
 592 0070 D4010000 		.word	.LC17
 593 0074 E4010000 		.word	.LC21
 594 0078 00000000 		.word	.LANCHOR0
 595 007c 00000000 		.word	.LC1
 596 0080 24020000 		.word	.LC23
 597              		.cfi_endproc
 598              	.LFE5:
 599              		.size	create_device_and_module_path, .-create_device_and_module_path
 600              		.section	.text.put_SAS_token_to_cbs,"ax",%progbits
 601              		.align	2
 602              		.code	16
 603              		.thumb_func
 604              		.type	put_SAS_token_to_cbs, %function
 605              	put_SAS_token_to_cbs:
 606              	.LFB7:
 200:Source\azure_iot_sdk\iothub_client\src/iothubtransport_amqp_cbs_auth.c **** 
 201:Source\azure_iot_sdk\iothub_client\src/iothubtransport_amqp_cbs_auth.c **** static int put_SAS_token_to_cbs(AUTHENTICATION_INSTANCE* instance, STRING_HANDLE cbs_audience, cons
 202:Source\azure_iot_sdk\iothub_client\src/iothubtransport_amqp_cbs_auth.c **** {
 607              		.loc 1 202 0
 608              		.cfi_startproc
 609              		@ args = 0, pretend = 0, frame = 0
 610              		@ frame_needed = 0, uses_anonymous_args = 0
ARM GAS  C:\Users\Phuong\AppData\Local\Temp\ccPPbPWA.s 			page 16


 611              	.LVL92:
 612 0000 70B5     		push	{r4, r5, r6, lr}
 613              		.cfi_def_cfa_offset 16
 614              		.cfi_offset 4, -16
 615              		.cfi_offset 5, -12
 616              		.cfi_offset 6, -8
 617              		.cfi_offset 14, -4
 618 0002 84B0     		sub	sp, sp, #16
 619              		.cfi_def_cfa_offset 32
 620 0004 0400     		movs	r4, r0
 621 0006 1500     		movs	r5, r2
 203:Source\azure_iot_sdk\iothub_client\src/iothubtransport_amqp_cbs_auth.c ****     int result;
 204:Source\azure_iot_sdk\iothub_client\src/iothubtransport_amqp_cbs_auth.c **** 
 205:Source\azure_iot_sdk\iothub_client\src/iothubtransport_amqp_cbs_auth.c ****     // Codes_SRS_IOTHUBTRANSPORT_AMQP_AUTH_09_043: [authentication_do_work() shall set `instance->i
 206:Source\azure_iot_sdk\iothub_client\src/iothubtransport_amqp_cbs_auth.c ****     // Codes_SRS_IOTHUBTRANSPORT_AMQP_AUTH_09_057: [authentication_do_work() shall set `instance->i
 207:Source\azure_iot_sdk\iothub_client\src/iothubtransport_amqp_cbs_auth.c ****     // Codes_SRS_IOTHUBTRANSPORT_AMQP_AUTH_09_075: [authentication_do_work() shall set `instance->i
 208:Source\azure_iot_sdk\iothub_client\src/iothubtransport_amqp_cbs_auth.c ****     instance->is_cbs_put_token_in_progress = true;
 622              		.loc 1 208 0
 623 0008 0122     		movs	r2, #1
 624              	.LVL93:
 625 000a 3023     		movs	r3, #48
 626 000c C254     		strb	r2, [r0, r3]
 209:Source\azure_iot_sdk\iothub_client\src/iothubtransport_amqp_cbs_auth.c **** 
 210:Source\azure_iot_sdk\iothub_client\src/iothubtransport_amqp_cbs_auth.c ****     // Codes_SRS_IOTHUBTRANSPORT_AMQP_AUTH_09_046: [The SAS token provided shall be sent to CBS usi
 211:Source\azure_iot_sdk\iothub_client\src/iothubtransport_amqp_cbs_auth.c ****     // Codes_SRS_IOTHUBTRANSPORT_AMQP_AUTH_09_058: [The SAS token shall be sent to CBS using cbs_pu
 212:Source\azure_iot_sdk\iothub_client\src/iothubtransport_amqp_cbs_auth.c ****     // Codes_SRS_IOTHUBTRANSPORT_AMQP_AUTH_09_076: [The SAS token shall be sent to CBS using cbs_pu
 213:Source\azure_iot_sdk\iothub_client\src/iothubtransport_amqp_cbs_auth.c ****     const char* cbs_audience_c_str = STRING_c_str(cbs_audience);
 627              		.loc 1 213 0
 628 000e 0800     		movs	r0, r1
 629              	.LVL94:
 630 0010 FFF7FEFF 		bl	STRING_c_str
 631              	.LVL95:
 632 0014 0200     		movs	r2, r0
 633              	.LVL96:
 214:Source\azure_iot_sdk\iothub_client\src/iothubtransport_amqp_cbs_auth.c ****     if (cbs_put_token_async(instance->cbs_handle, SAS_TOKEN_TYPE, cbs_audience_c_str, sas_token, on
 634              		.loc 1 214 0
 635 0016 0194     		str	r4, [sp, #4]
 636 0018 1C4B     		ldr	r3, .L40
 637 001a 0093     		str	r3, [sp]
 638 001c 2B00     		movs	r3, r5
 639 001e 1C49     		ldr	r1, .L40+4
 640 0020 E06A     		ldr	r0, [r4, #44]
 641              	.LVL97:
 642 0022 FFF7FEFF 		bl	cbs_put_token_async
 643              	.LVL98:
 644 0026 0028     		cmp	r0, #0
 645 0028 14D0     		beq	.L36
 215:Source\azure_iot_sdk\iothub_client\src/iothubtransport_amqp_cbs_auth.c ****     {
 216:Source\azure_iot_sdk\iothub_client\src/iothubtransport_amqp_cbs_auth.c ****         // Codes_SRS_IOTHUBTRANSPORT_AMQP_AUTH_09_048: [If cbs_put_token() failed, authentication_d
 217:Source\azure_iot_sdk\iothub_client\src/iothubtransport_amqp_cbs_auth.c ****         // Codes_SRS_IOTHUBTRANSPORT_AMQP_AUTH_09_060: [If cbs_put_token() fails, `instance->is_cbs
 218:Source\azure_iot_sdk\iothub_client\src/iothubtransport_amqp_cbs_auth.c ****         // Codes_SRS_IOTHUBTRANSPORT_AMQP_AUTH_09_078: [If cbs_put_token() fails, `instance->is_cbs
 219:Source\azure_iot_sdk\iothub_client\src/iothubtransport_amqp_cbs_auth.c ****         instance->is_cbs_put_token_in_progress = false;
 646              		.loc 1 219 0
 647 002a 0022     		movs	r2, #0
 648 002c 3023     		movs	r3, #48
 649 002e E254     		strb	r2, [r4, r3]
 650              	.LVL99:
ARM GAS  C:\Users\Phuong\AppData\Local\Temp\ccPPbPWA.s 			page 17


 651              	.LBB14:
 220:Source\azure_iot_sdk\iothub_client\src/iothubtransport_amqp_cbs_auth.c ****         result = __FAILURE__;
 221:Source\azure_iot_sdk\iothub_client\src/iothubtransport_amqp_cbs_auth.c ****         LogError("Failed putting SAS token to CBS for device '%s' (cbs_put_token failed)", instance
 652              		.loc 1 221 0
 653 0030 FFF7FEFF 		bl	xlogging_get_log_function
 654              	.LVL100:
 655 0034 051E     		subs	r5, r0, #0
 656              	.LVL101:
 657 0036 26D0     		beq	.L39
 658              		.loc 1 221 0 is_stmt 0 discriminator 4
 659 0038 2368     		ldr	r3, [r4]
 660 003a 0293     		str	r3, [sp, #8]
 661 003c 154B     		ldr	r3, .L40+8
 662 003e 0193     		str	r3, [sp, #4]
 663 0040 0123     		movs	r3, #1
 664 0042 0093     		str	r3, [sp]
 665 0044 DC33     		adds	r3, r3, #220
 666 0046 144A     		ldr	r2, .L40+12
 667 0048 0832     		adds	r2, r2, #8
 668 004a 1449     		ldr	r1, .L40+16
 669 004c 0020     		movs	r0, #0
 670              	.LVL102:
 671 004e A847     		blx	r5
 672              	.LVL103:
 673              	.LBE14:
 220:Source\azure_iot_sdk\iothub_client\src/iothubtransport_amqp_cbs_auth.c ****         result = __FAILURE__;
 674              		.loc 1 220 0 is_stmt 1 discriminator 4
 675 0050 DC20     		movs	r0, #220
 676 0052 19E0     		b	.L37
 677              	.LVL104:
 678              	.L36:
 679              	.LBB15:
 222:Source\azure_iot_sdk\iothub_client\src/iothubtransport_amqp_cbs_auth.c ****     }
 223:Source\azure_iot_sdk\iothub_client\src/iothubtransport_amqp_cbs_auth.c ****     else
 224:Source\azure_iot_sdk\iothub_client\src/iothubtransport_amqp_cbs_auth.c ****     {
 225:Source\azure_iot_sdk\iothub_client\src/iothubtransport_amqp_cbs_auth.c ****         // Codes_SRS_IOTHUBTRANSPORT_AMQP_AUTH_09_047: [If cbs_put_token() succeeds, authentication
 226:Source\azure_iot_sdk\iothub_client\src/iothubtransport_amqp_cbs_auth.c ****         // Codes_SRS_IOTHUBTRANSPORT_AMQP_AUTH_09_059: [If cbs_put_token() succeeds, authentication
 227:Source\azure_iot_sdk\iothub_client\src/iothubtransport_amqp_cbs_auth.c ****         // Codes_SRS_IOTHUBTRANSPORT_AMQP_AUTH_09_077: [If cbs_put_token() succeeds, authentication
 228:Source\azure_iot_sdk\iothub_client\src/iothubtransport_amqp_cbs_auth.c ****         time_t current_time;
 229:Source\azure_iot_sdk\iothub_client\src/iothubtransport_amqp_cbs_auth.c **** 
 230:Source\azure_iot_sdk\iothub_client\src/iothubtransport_amqp_cbs_auth.c ****         if ((current_time = get_time(NULL)) == INDEFINITE_TIME)
 680              		.loc 1 230 0
 681 0054 0020     		movs	r0, #0
 682 0056 FFF7FEFF 		bl	get_time
 683              	.LVL105:
 684 005a 0500     		movs	r5, r0
 685              	.LVL106:
 686 005c 431C     		adds	r3, r0, #1
 687 005e 0FD1     		bne	.L38
 688              	.LBB16:
 231:Source\azure_iot_sdk\iothub_client\src/iothubtransport_amqp_cbs_auth.c ****         {
 232:Source\azure_iot_sdk\iothub_client\src/iothubtransport_amqp_cbs_auth.c ****             LogError("Failed setting current_sas_token_put_time for device '%s' (get_time() failed)
 689              		.loc 1 232 0 discriminator 3
 690 0060 FFF7FEFF 		bl	xlogging_get_log_function
 691              	.LVL107:
 692 0064 061E     		subs	r6, r0, #0
 693              	.LVL108:
ARM GAS  C:\Users\Phuong\AppData\Local\Temp\ccPPbPWA.s 			page 18


 694 0066 0BD0     		beq	.L38
 695              		.loc 1 232 0 is_stmt 0 discriminator 4
 696 0068 2368     		ldr	r3, [r4]
 697 006a 0293     		str	r3, [sp, #8]
 698 006c 0C4B     		ldr	r3, .L40+20
 699 006e 0193     		str	r3, [sp, #4]
 700 0070 0123     		movs	r3, #1
 701 0072 0093     		str	r3, [sp]
 702 0074 E733     		adds	r3, r3, #231
 703 0076 084A     		ldr	r2, .L40+12
 704 0078 0832     		adds	r2, r2, #8
 705 007a 0849     		ldr	r1, .L40+16
 706 007c 0020     		movs	r0, #0
 707              	.LVL109:
 708 007e B047     		blx	r6
 709              	.LVL110:
 710              	.L38:
 711              	.LBE16:
 233:Source\azure_iot_sdk\iothub_client\src/iothubtransport_amqp_cbs_auth.c ****         }
 234:Source\azure_iot_sdk\iothub_client\src/iothubtransport_amqp_cbs_auth.c **** 
 235:Source\azure_iot_sdk\iothub_client\src/iothubtransport_amqp_cbs_auth.c ****         instance->current_sas_token_put_time = current_time; // If it failed, fear not. `current_sa
 712              		.loc 1 235 0 is_stmt 1
 713 0080 6563     		str	r5, [r4, #52]
 714              	.LVL111:
 236:Source\azure_iot_sdk\iothub_client\src/iothubtransport_amqp_cbs_auth.c **** 
 237:Source\azure_iot_sdk\iothub_client\src/iothubtransport_amqp_cbs_auth.c ****         result = RESULT_OK;
 715              		.loc 1 237 0
 716 0082 0020     		movs	r0, #0
 717 0084 00E0     		b	.L37
 718              	.LVL112:
 719              	.L39:
 720              	.LBE15:
 220:Source\azure_iot_sdk\iothub_client\src/iothubtransport_amqp_cbs_auth.c ****         LogError("Failed putting SAS token to CBS for device '%s' (cbs_put_token failed)", instance
 721              		.loc 1 220 0
 722 0086 DC20     		movs	r0, #220
 723              	.LVL113:
 724              	.L37:
 238:Source\azure_iot_sdk\iothub_client\src/iothubtransport_amqp_cbs_auth.c ****     }
 239:Source\azure_iot_sdk\iothub_client\src/iothubtransport_amqp_cbs_auth.c **** 
 240:Source\azure_iot_sdk\iothub_client\src/iothubtransport_amqp_cbs_auth.c ****     return result;
 241:Source\azure_iot_sdk\iothub_client\src/iothubtransport_amqp_cbs_auth.c **** }
 725              		.loc 1 241 0
 726 0088 04B0     		add	sp, sp, #16
 727              		@ sp needed
 728              	.LVL114:
 729 008a 70BD     		pop	{r4, r5, r6, pc}
 730              	.L41:
 731              		.align	2
 732              	.L40:
 733 008c 00000000 		.word	on_cbs_put_token_complete_callback
 734 0090 40020000 		.word	.LC25
 735 0094 60020000 		.word	.LC30
 736 0098 80000000 		.word	.LANCHOR1
 737 009c 00000000 		.word	.LC1
 738 00a0 A8020000 		.word	.LC32
 739              		.cfi_endproc
 740              	.LFE7:
ARM GAS  C:\Users\Phuong\AppData\Local\Temp\ccPPbPWA.s 			page 19


 741              		.size	put_SAS_token_to_cbs, .-put_SAS_token_to_cbs
 742              		.section	.text.create_and_put_SAS_token_to_cbs,"ax",%progbits
 743              		.align	2
 744              		.code	16
 745              		.thumb_func
 746              		.type	create_and_put_SAS_token_to_cbs, %function
 747              	create_and_put_SAS_token_to_cbs:
 748              	.LFB8:
 242:Source\azure_iot_sdk\iothub_client\src/iothubtransport_amqp_cbs_auth.c **** 
 243:Source\azure_iot_sdk\iothub_client\src/iothubtransport_amqp_cbs_auth.c **** static int create_and_put_SAS_token_to_cbs(AUTHENTICATION_INSTANCE* instance)
 244:Source\azure_iot_sdk\iothub_client\src/iothubtransport_amqp_cbs_auth.c **** {
 749              		.loc 1 244 0
 750              		.cfi_startproc
 751              		@ args = 0, pretend = 0, frame = 0
 752              		@ frame_needed = 0, uses_anonymous_args = 0
 753              	.LVL115:
 754 0000 F0B5     		push	{r4, r5, r6, r7, lr}
 755              		.cfi_def_cfa_offset 20
 756              		.cfi_offset 4, -20
 757              		.cfi_offset 5, -16
 758              		.cfi_offset 6, -12
 759              		.cfi_offset 7, -8
 760              		.cfi_offset 14, -4
 761 0002 83B0     		sub	sp, sp, #12
 762              		.cfi_def_cfa_offset 32
 763 0004 0400     		movs	r4, r0
 245:Source\azure_iot_sdk\iothub_client\src/iothubtransport_amqp_cbs_auth.c ****     int result;
 246:Source\azure_iot_sdk\iothub_client\src/iothubtransport_amqp_cbs_auth.c ****     char* sas_token;
 247:Source\azure_iot_sdk\iothub_client\src/iothubtransport_amqp_cbs_auth.c ****     STRING_HANDLE device_and_module_path;
 248:Source\azure_iot_sdk\iothub_client\src/iothubtransport_amqp_cbs_auth.c **** 
 249:Source\azure_iot_sdk\iothub_client\src/iothubtransport_amqp_cbs_auth.c ****     // Codes_SRS_IOTHUBTRANSPORT_AMQP_AUTH_09_053: [A STRING_HANDLE, referred to as `devices_and_mo
 250:Source\azure_iot_sdk\iothub_client\src/iothubtransport_amqp_cbs_auth.c ****     // Codes_SRS_IOTHUBTRANSPORT_AMQP_AUTH_09_071: [A STRING_HANDLE, referred to as `devices_and_mo
 251:Source\azure_iot_sdk\iothub_client\src/iothubtransport_amqp_cbs_auth.c ****     if ((device_and_module_path = create_device_and_module_path(instance->iothub_host_fqdn, instanc
 764              		.loc 1 251 0
 765 0006 4268     		ldr	r2, [r0, #4]
 766 0008 0168     		ldr	r1, [r0]
 767 000a 8068     		ldr	r0, [r0, #8]
 768              	.LVL116:
 769 000c FFF7FEFF 		bl	create_device_and_module_path
 770              	.LVL117:
 771 0010 051E     		subs	r5, r0, #0
 772              	.LVL118:
 773 0012 11D1     		bne	.L43
 774              	.LVL119:
 775              	.LBB17:
 252:Source\azure_iot_sdk\iothub_client\src/iothubtransport_amqp_cbs_auth.c ****     {
 253:Source\azure_iot_sdk\iothub_client\src/iothubtransport_amqp_cbs_auth.c ****         // Codes_SRS_IOTHUBTRANSPORT_AMQP_AUTH_09_054: [If `devices_and_modules_path` failed to be 
 254:Source\azure_iot_sdk\iothub_client\src/iothubtransport_amqp_cbs_auth.c ****         // Codes_SRS_IOTHUBTRANSPORT_AMQP_AUTH_09_072: [If `devices_and_modules_path` failed to be 
 255:Source\azure_iot_sdk\iothub_client\src/iothubtransport_amqp_cbs_auth.c ****         result = __FAILURE__;
 256:Source\azure_iot_sdk\iothub_client\src/iothubtransport_amqp_cbs_auth.c ****         sas_token = NULL;
 257:Source\azure_iot_sdk\iothub_client\src/iothubtransport_amqp_cbs_auth.c ****         LogError("Failed creating a SAS token (create_device_and_module_path() failed)");
 776              		.loc 1 257 0
 777 0014 FFF7FEFF 		bl	xlogging_get_log_function
 778              	.LVL120:
 779 0018 041E     		subs	r4, r0, #0
 780              	.LVL121:
 781 001a 00D1     		bne	.LCB845
ARM GAS  C:\Users\Phuong\AppData\Local\Temp\ccPPbPWA.s 			page 20


 782 001c CFE0     		b	.L53	@long jump
 783              	.LCB845:
 784              		.loc 1 257 0 is_stmt 0 discriminator 4
 785 001e 6A4B     		ldr	r3, .L64
 786 0020 0193     		str	r3, [sp, #4]
 787 0022 0123     		movs	r3, #1
 788 0024 0093     		str	r3, [sp]
 789 0026 0223     		movs	r3, #2
 790 0028 FF33     		adds	r3, r3, #255
 791 002a 684A     		ldr	r2, .L64+4
 792 002c 2032     		adds	r2, r2, #32
 793 002e 6849     		ldr	r1, .L64+8
 794 0030 0020     		movs	r0, #0
 795              	.LVL122:
 796 0032 A047     		blx	r4
 797              	.LVL123:
 798              	.LBE17:
 255:Source\azure_iot_sdk\iothub_client\src/iothubtransport_amqp_cbs_auth.c ****         sas_token = NULL;
 799              		.loc 1 255 0 is_stmt 1 discriminator 4
 800 0034 FF27     		movs	r7, #255
 801 0036 C3E0     		b	.L44
 802              	.LVL124:
 803              	.L43:
 804              	.LBB18:
 258:Source\azure_iot_sdk\iothub_client\src/iothubtransport_amqp_cbs_auth.c ****     }
 259:Source\azure_iot_sdk\iothub_client\src/iothubtransport_amqp_cbs_auth.c ****     else
 260:Source\azure_iot_sdk\iothub_client\src/iothubtransport_amqp_cbs_auth.c ****     {
 261:Source\azure_iot_sdk\iothub_client\src/iothubtransport_amqp_cbs_auth.c ****         /* Codes_SRS_IOTHUBTRANSPORT_AMQP_AUTH_07_001: [ authentication_do_work() shall determine w
 262:Source\azure_iot_sdk\iothub_client\src/iothubtransport_amqp_cbs_auth.c ****         IOTHUB_CREDENTIAL_TYPE cred_type = IoTHubClient_Auth_Get_Credential_Type(instance->authoriz
 805              		.loc 1 262 0
 806 0038 A06B     		ldr	r0, [r4, #56]
 807              	.LVL125:
 808 003a FFF7FEFF 		bl	IoTHubClient_Auth_Get_Credential_Type
 809              	.LVL126:
 263:Source\azure_iot_sdk\iothub_client\src/iothubtransport_amqp_cbs_auth.c ****         if (cred_type == IOTHUB_CREDENTIAL_TYPE_DEVICE_KEY || cred_type == IOTHUB_CREDENTIAL_TYPE_D
 810              		.loc 1 263 0
 811 003e 0128     		cmp	r0, #1
 812 0040 01D0     		beq	.L45
 813              		.loc 1 263 0 is_stmt 0 discriminator 1
 814 0042 0528     		cmp	r0, #5
 815 0044 1DD1     		bne	.L46
 816              	.L45:
 264:Source\azure_iot_sdk\iothub_client\src/iothubtransport_amqp_cbs_auth.c ****         {
 265:Source\azure_iot_sdk\iothub_client\src/iothubtransport_amqp_cbs_auth.c ****             /* Codes_SRS_IOTHUBTRANSPORT_AMQP_AUTH_09_049: [authentication_do_work() shall create a
 266:Source\azure_iot_sdk\iothub_client\src/iothubtransport_amqp_cbs_auth.c ****             sas_token = IoTHubClient_Auth_Get_SasToken(instance->authorization_module, STRING_c_str
 817              		.loc 1 266 0 is_stmt 1
 818 0046 A66B     		ldr	r6, [r4, #56]
 819 0048 2800     		movs	r0, r5
 820              	.LVL127:
 821 004a FFF7FEFF 		bl	STRING_c_str
 822              	.LVL128:
 823 004e 0100     		movs	r1, r0
 824 0050 0023     		movs	r3, #0
 825 0052 226A     		ldr	r2, [r4, #32]
 826 0054 3000     		movs	r0, r6
 827 0056 FFF7FEFF 		bl	IoTHubClient_Auth_Get_SasToken
 828              	.LVL129:
ARM GAS  C:\Users\Phuong\AppData\Local\Temp\ccPPbPWA.s 			page 21


 829 005a 061E     		subs	r6, r0, #0
 830              	.LVL130:
 267:Source\azure_iot_sdk\iothub_client\src/iothubtransport_amqp_cbs_auth.c ****             if (sas_token == NULL)
 831              		.loc 1 267 0
 832 005c 71D1     		bne	.L54
 833              	.LBB19:
 268:Source\azure_iot_sdk\iothub_client\src/iothubtransport_amqp_cbs_auth.c ****             {
 269:Source\azure_iot_sdk\iothub_client\src/iothubtransport_amqp_cbs_auth.c ****                 LogError("failure getting sas token.");
 834              		.loc 1 269 0 discriminator 3
 835 005e FFF7FEFF 		bl	xlogging_get_log_function
 836              	.LVL131:
 837 0062 071E     		subs	r7, r0, #0
 838              	.LVL132:
 839 0064 6FD0     		beq	.L55
 840              		.loc 1 269 0 is_stmt 0 discriminator 4
 841 0066 5B4B     		ldr	r3, .L64+12
 842 0068 0193     		str	r3, [sp, #4]
 843 006a 0123     		movs	r3, #1
 844 006c 0093     		str	r3, [sp]
 845 006e 0E23     		movs	r3, #14
 846 0070 FF33     		adds	r3, r3, #255
 847 0072 564A     		ldr	r2, .L64+4
 848 0074 2032     		adds	r2, r2, #32
 849 0076 5649     		ldr	r1, .L64+8
 850 0078 0020     		movs	r0, #0
 851              	.LVL133:
 852 007a B847     		blx	r7
 853              	.LVL134:
 854              	.LBE19:
 270:Source\azure_iot_sdk\iothub_client\src/iothubtransport_amqp_cbs_auth.c ****                 result = __FAILURE__;
 855              		.loc 1 270 0 is_stmt 1 discriminator 4
 856 007c 8727     		movs	r7, #135
 857              	.LVL135:
 858 007e 7F00     		lsls	r7, r7, #1
 859 0080 77E0     		b	.L47
 860              	.LVL136:
 861              	.L46:
 271:Source\azure_iot_sdk\iothub_client\src/iothubtransport_amqp_cbs_auth.c ****             }
 272:Source\azure_iot_sdk\iothub_client\src/iothubtransport_amqp_cbs_auth.c ****             else
 273:Source\azure_iot_sdk\iothub_client\src/iothubtransport_amqp_cbs_auth.c ****             {
 274:Source\azure_iot_sdk\iothub_client\src/iothubtransport_amqp_cbs_auth.c ****                 result = RESULT_OK;
 275:Source\azure_iot_sdk\iothub_client\src/iothubtransport_amqp_cbs_auth.c ****             }
 276:Source\azure_iot_sdk\iothub_client\src/iothubtransport_amqp_cbs_auth.c ****         }
 277:Source\azure_iot_sdk\iothub_client\src/iothubtransport_amqp_cbs_auth.c ****         else if (cred_type == IOTHUB_CREDENTIAL_TYPE_SAS_TOKEN)
 862              		.loc 1 277 0
 863 0082 0428     		cmp	r0, #4
 864 0084 46D1     		bne	.L48
 865              	.LBB20:
 278:Source\azure_iot_sdk\iothub_client\src/iothubtransport_amqp_cbs_auth.c ****         {
 279:Source\azure_iot_sdk\iothub_client\src/iothubtransport_amqp_cbs_auth.c ****             /* Codes_SRS_IOTHUBTRANSPORT_AMQP_AUTH_07_002: [ If credential Type is SAS_TOKEN authen
 280:Source\azure_iot_sdk\iothub_client\src/iothubtransport_amqp_cbs_auth.c ****             SAS_TOKEN_STATUS token_status = IoTHubClient_Auth_Is_SasToken_Valid(instance->authoriza
 866              		.loc 1 280 0
 867 0086 A06B     		ldr	r0, [r4, #56]
 868              	.LVL137:
 869 0088 FFF7FEFF 		bl	IoTHubClient_Auth_Is_SasToken_Valid
 870              	.LVL138:
 281:Source\azure_iot_sdk\iothub_client\src/iothubtransport_amqp_cbs_auth.c ****             if (token_status == SAS_TOKEN_STATUS_INVALID)
ARM GAS  C:\Users\Phuong\AppData\Local\Temp\ccPPbPWA.s 			page 22


 871              		.loc 1 281 0
 872 008c 0228     		cmp	r0, #2
 873 008e 12D1     		bne	.L49
 874              	.LBB21:
 282:Source\azure_iot_sdk\iothub_client\src/iothubtransport_amqp_cbs_auth.c ****             {
 283:Source\azure_iot_sdk\iothub_client\src/iothubtransport_amqp_cbs_auth.c ****                 LogError("sas token is invalid.");
 875              		.loc 1 283 0 discriminator 3
 876 0090 FFF7FEFF 		bl	xlogging_get_log_function
 877              	.LVL139:
 878 0094 061E     		subs	r6, r0, #0
 879              	.LVL140:
 880 0096 59D0     		beq	.L56
 881              		.loc 1 283 0 is_stmt 0 discriminator 4
 882 0098 4F4B     		ldr	r3, .L64+16
 883 009a 0193     		str	r3, [sp, #4]
 884 009c 0123     		movs	r3, #1
 885 009e 0093     		str	r3, [sp]
 886 00a0 1C23     		movs	r3, #28
 887 00a2 FF33     		adds	r3, r3, #255
 888 00a4 494A     		ldr	r2, .L64+4
 889 00a6 2032     		adds	r2, r2, #32
 890 00a8 4949     		ldr	r1, .L64+8
 891 00aa 0020     		movs	r0, #0
 892              	.LVL141:
 893 00ac B047     		blx	r6
 894              	.LVL142:
 895              	.LBE21:
 284:Source\azure_iot_sdk\iothub_client\src/iothubtransport_amqp_cbs_auth.c ****                 sas_token = NULL;
 896              		.loc 1 284 0 is_stmt 1 discriminator 4
 897 00ae 0026     		movs	r6, #0
 898              	.LVL143:
 285:Source\azure_iot_sdk\iothub_client\src/iothubtransport_amqp_cbs_auth.c ****                 result = __FAILURE__;
 899              		.loc 1 285 0 discriminator 4
 900 00b0 1E27     		movs	r7, #30
 901 00b2 FF37     		adds	r7, r7, #255
 902 00b4 5DE0     		b	.L47
 903              	.LVL144:
 904              	.L49:
 286:Source\azure_iot_sdk\iothub_client\src/iothubtransport_amqp_cbs_auth.c ****             }
 287:Source\azure_iot_sdk\iothub_client\src/iothubtransport_amqp_cbs_auth.c ****             else if (token_status == SAS_TOKEN_STATUS_FAILED)
 905              		.loc 1 287 0
 906 00b6 0028     		cmp	r0, #0
 907 00b8 12D1     		bne	.L50
 908              	.LBB22:
 288:Source\azure_iot_sdk\iothub_client\src/iothubtransport_amqp_cbs_auth.c ****             {
 289:Source\azure_iot_sdk\iothub_client\src/iothubtransport_amqp_cbs_auth.c ****                 LogError("testing Sas Token failed.");
 909              		.loc 1 289 0 discriminator 3
 910 00ba FFF7FEFF 		bl	xlogging_get_log_function
 911              	.LVL145:
 912 00be 061E     		subs	r6, r0, #0
 913              	.LVL146:
 914 00c0 48D0     		beq	.L57
 915              		.loc 1 289 0 is_stmt 0 discriminator 4
 916 00c2 464B     		ldr	r3, .L64+20
 917 00c4 0193     		str	r3, [sp, #4]
 918 00c6 0123     		movs	r3, #1
 919 00c8 0093     		str	r3, [sp]
ARM GAS  C:\Users\Phuong\AppData\Local\Temp\ccPPbPWA.s 			page 23


 920 00ca 2223     		movs	r3, #34
 921 00cc FF33     		adds	r3, r3, #255
 922 00ce 3F4A     		ldr	r2, .L64+4
 923 00d0 2032     		adds	r2, r2, #32
 924 00d2 3F49     		ldr	r1, .L64+8
 925 00d4 0020     		movs	r0, #0
 926              	.LVL147:
 927 00d6 B047     		blx	r6
 928              	.LVL148:
 929              	.LBE22:
 290:Source\azure_iot_sdk\iothub_client\src/iothubtransport_amqp_cbs_auth.c ****                 sas_token = NULL;
 930              		.loc 1 290 0 is_stmt 1 discriminator 4
 931 00d8 0026     		movs	r6, #0
 932              	.LVL149:
 291:Source\azure_iot_sdk\iothub_client\src/iothubtransport_amqp_cbs_auth.c ****                 result = __FAILURE__;
 933              		.loc 1 291 0 discriminator 4
 934 00da 2427     		movs	r7, #36
 935 00dc FF37     		adds	r7, r7, #255
 936 00de 48E0     		b	.L47
 937              	.LVL150:
 938              	.L50:
 292:Source\azure_iot_sdk\iothub_client\src/iothubtransport_amqp_cbs_auth.c ****             }
 293:Source\azure_iot_sdk\iothub_client\src/iothubtransport_amqp_cbs_auth.c ****             else
 294:Source\azure_iot_sdk\iothub_client\src/iothubtransport_amqp_cbs_auth.c ****             {
 295:Source\azure_iot_sdk\iothub_client\src/iothubtransport_amqp_cbs_auth.c ****                 /* Codes_SRS_IOTHUBTRANSPORT_AMQP_AUTH_09_049: [authentication_do_work() shall crea
 296:Source\azure_iot_sdk\iothub_client\src/iothubtransport_amqp_cbs_auth.c ****                 sas_token = IoTHubClient_Auth_Get_SasToken(instance->authorization_module, NULL, 0,
 939              		.loc 1 296 0
 940 00e0 0023     		movs	r3, #0
 941 00e2 0022     		movs	r2, #0
 942 00e4 0021     		movs	r1, #0
 943 00e6 A06B     		ldr	r0, [r4, #56]
 944              	.LVL151:
 945 00e8 FFF7FEFF 		bl	IoTHubClient_Auth_Get_SasToken
 946              	.LVL152:
 947 00ec 061E     		subs	r6, r0, #0
 948              	.LVL153:
 297:Source\azure_iot_sdk\iothub_client\src/iothubtransport_amqp_cbs_auth.c ****                 if (sas_token == NULL)
 949              		.loc 1 297 0
 950 00ee 35D1     		bne	.L58
 951              	.LBB23:
 298:Source\azure_iot_sdk\iothub_client\src/iothubtransport_amqp_cbs_auth.c ****                 {
 299:Source\azure_iot_sdk\iothub_client\src/iothubtransport_amqp_cbs_auth.c ****                     LogError("failure getting sas Token.");
 952              		.loc 1 299 0 discriminator 3
 953 00f0 FFF7FEFF 		bl	xlogging_get_log_function
 954              	.LVL154:
 955 00f4 071E     		subs	r7, r0, #0
 956              	.LVL155:
 957 00f6 33D0     		beq	.L59
 958              		.loc 1 299 0 is_stmt 0 discriminator 4
 959 00f8 394B     		ldr	r3, .L64+24
 960 00fa 0193     		str	r3, [sp, #4]
 961 00fc 0123     		movs	r3, #1
 962 00fe 0093     		str	r3, [sp]
 963 0100 2C23     		movs	r3, #44
 964 0102 FF33     		adds	r3, r3, #255
 965 0104 314A     		ldr	r2, .L64+4
 966 0106 2032     		adds	r2, r2, #32
ARM GAS  C:\Users\Phuong\AppData\Local\Temp\ccPPbPWA.s 			page 24


 967 0108 3149     		ldr	r1, .L64+8
 968 010a 0020     		movs	r0, #0
 969              	.LVL156:
 970 010c B847     		blx	r7
 971              	.LVL157:
 972              	.LBE23:
 300:Source\azure_iot_sdk\iothub_client\src/iothubtransport_amqp_cbs_auth.c ****                     result = __FAILURE__;
 973              		.loc 1 300 0 is_stmt 1 discriminator 4
 974 010e 9627     		movs	r7, #150
 975              	.LVL158:
 976 0110 7F00     		lsls	r7, r7, #1
 977 0112 2EE0     		b	.L47
 978              	.LVL159:
 979              	.L48:
 980              	.LBE20:
 301:Source\azure_iot_sdk\iothub_client\src/iothubtransport_amqp_cbs_auth.c ****                 }
 302:Source\azure_iot_sdk\iothub_client\src/iothubtransport_amqp_cbs_auth.c ****                 else
 303:Source\azure_iot_sdk\iothub_client\src/iothubtransport_amqp_cbs_auth.c ****                 {
 304:Source\azure_iot_sdk\iothub_client\src/iothubtransport_amqp_cbs_auth.c ****                     result = RESULT_OK;
 305:Source\azure_iot_sdk\iothub_client\src/iothubtransport_amqp_cbs_auth.c ****                 }
 306:Source\azure_iot_sdk\iothub_client\src/iothubtransport_amqp_cbs_auth.c ****             }
 307:Source\azure_iot_sdk\iothub_client\src/iothubtransport_amqp_cbs_auth.c ****         }
 308:Source\azure_iot_sdk\iothub_client\src/iothubtransport_amqp_cbs_auth.c ****         else if (cred_type == IOTHUB_CREDENTIAL_TYPE_X509 || cred_type == IOTHUB_CREDENTIAL_TYPE_X5
 981              		.loc 1 308 0
 982 0114 0238     		subs	r0, r0, #2
 983              	.LVL160:
 984 0116 C0B2     		uxtb	r0, r0
 985 0118 0128     		cmp	r0, #1
 986 011a 24D9     		bls	.L60
 987              	.LBB24:
 309:Source\azure_iot_sdk\iothub_client\src/iothubtransport_amqp_cbs_auth.c ****         {
 310:Source\azure_iot_sdk\iothub_client\src/iothubtransport_amqp_cbs_auth.c ****             sas_token = NULL;
 311:Source\azure_iot_sdk\iothub_client\src/iothubtransport_amqp_cbs_auth.c ****             result = RESULT_OK;
 312:Source\azure_iot_sdk\iothub_client\src/iothubtransport_amqp_cbs_auth.c ****         }
 313:Source\azure_iot_sdk\iothub_client\src/iothubtransport_amqp_cbs_auth.c ****         else
 314:Source\azure_iot_sdk\iothub_client\src/iothubtransport_amqp_cbs_auth.c ****         {
 315:Source\azure_iot_sdk\iothub_client\src/iothubtransport_amqp_cbs_auth.c ****             LogError("failure unknown credential type found.");
 988              		.loc 1 315 0 discriminator 3
 989 011c FFF7FEFF 		bl	xlogging_get_log_function
 990              	.LVL161:
 991 0120 061E     		subs	r6, r0, #0
 992              	.LVL162:
 993 0122 23D0     		beq	.L61
 994              		.loc 1 315 0 is_stmt 0 discriminator 4
 995 0124 2F4B     		ldr	r3, .L64+28
 996 0126 0193     		str	r3, [sp, #4]
 997 0128 0123     		movs	r3, #1
 998 012a 0093     		str	r3, [sp]
 999 012c 3C23     		movs	r3, #60
 1000 012e FF33     		adds	r3, r3, #255
 1001 0130 264A     		ldr	r2, .L64+4
 1002 0132 2032     		adds	r2, r2, #32
 1003 0134 2649     		ldr	r1, .L64+8
 1004 0136 0020     		movs	r0, #0
 1005              	.LVL163:
 1006 0138 B047     		blx	r6
 1007              	.LVL164:
ARM GAS  C:\Users\Phuong\AppData\Local\Temp\ccPPbPWA.s 			page 25


 1008              	.LBE24:
 316:Source\azure_iot_sdk\iothub_client\src/iothubtransport_amqp_cbs_auth.c ****             sas_token = NULL;
 1009              		.loc 1 316 0 is_stmt 1 discriminator 4
 1010 013a 0026     		movs	r6, #0
 1011              	.LVL165:
 317:Source\azure_iot_sdk\iothub_client\src/iothubtransport_amqp_cbs_auth.c ****             result = __FAILURE__;
 1012              		.loc 1 317 0 discriminator 4
 1013 013c 3E27     		movs	r7, #62
 1014 013e FF37     		adds	r7, r7, #255
 1015 0140 17E0     		b	.L47
 1016              	.LVL166:
 1017              	.L54:
 274:Source\azure_iot_sdk\iothub_client\src/iothubtransport_amqp_cbs_auth.c ****             }
 1018              		.loc 1 274 0
 1019 0142 0027     		movs	r7, #0
 1020 0144 15E0     		b	.L47
 1021              	.LVL167:
 1022              	.L55:
 270:Source\azure_iot_sdk\iothub_client\src/iothubtransport_amqp_cbs_auth.c ****             }
 1023              		.loc 1 270 0
 1024 0146 8727     		movs	r7, #135
 1025 0148 7F00     		lsls	r7, r7, #1
 1026 014a 12E0     		b	.L47
 1027              	.LVL168:
 1028              	.L56:
 1029              	.LBB25:
 284:Source\azure_iot_sdk\iothub_client\src/iothubtransport_amqp_cbs_auth.c ****                 result = __FAILURE__;
 1030              		.loc 1 284 0
 1031 014c 0026     		movs	r6, #0
 285:Source\azure_iot_sdk\iothub_client\src/iothubtransport_amqp_cbs_auth.c ****             }
 1032              		.loc 1 285 0
 1033 014e 1E27     		movs	r7, #30
 1034 0150 FF37     		adds	r7, r7, #255
 1035 0152 0EE0     		b	.L47
 1036              	.LVL169:
 1037              	.L57:
 290:Source\azure_iot_sdk\iothub_client\src/iothubtransport_amqp_cbs_auth.c ****                 result = __FAILURE__;
 1038              		.loc 1 290 0
 1039 0154 0026     		movs	r6, #0
 291:Source\azure_iot_sdk\iothub_client\src/iothubtransport_amqp_cbs_auth.c ****             }
 1040              		.loc 1 291 0
 1041 0156 2427     		movs	r7, #36
 1042 0158 FF37     		adds	r7, r7, #255
 1043 015a 0AE0     		b	.L47
 1044              	.LVL170:
 1045              	.L58:
 304:Source\azure_iot_sdk\iothub_client\src/iothubtransport_amqp_cbs_auth.c ****                 }
 1046              		.loc 1 304 0
 1047 015c 0027     		movs	r7, #0
 1048 015e 08E0     		b	.L47
 1049              	.LVL171:
 1050              	.L59:
 300:Source\azure_iot_sdk\iothub_client\src/iothubtransport_amqp_cbs_auth.c ****                 }
 1051              		.loc 1 300 0
 1052 0160 9627     		movs	r7, #150
 1053 0162 7F00     		lsls	r7, r7, #1
 1054 0164 05E0     		b	.L47
ARM GAS  C:\Users\Phuong\AppData\Local\Temp\ccPPbPWA.s 			page 26


 1055              	.LVL172:
 1056              	.L60:
 1057              	.LBE25:
 310:Source\azure_iot_sdk\iothub_client\src/iothubtransport_amqp_cbs_auth.c ****             result = RESULT_OK;
 1058              		.loc 1 310 0
 1059 0166 0026     		movs	r6, #0
 311:Source\azure_iot_sdk\iothub_client\src/iothubtransport_amqp_cbs_auth.c ****         }
 1060              		.loc 1 311 0
 1061 0168 0027     		movs	r7, #0
 1062 016a 02E0     		b	.L47
 1063              	.LVL173:
 1064              	.L61:
 316:Source\azure_iot_sdk\iothub_client\src/iothubtransport_amqp_cbs_auth.c ****             result = __FAILURE__;
 1065              		.loc 1 316 0
 1066 016c 0026     		movs	r6, #0
 1067              		.loc 1 317 0
 1068 016e 3E27     		movs	r7, #62
 1069 0170 FF37     		adds	r7, r7, #255
 1070              	.LVL174:
 1071              	.L47:
 318:Source\azure_iot_sdk\iothub_client\src/iothubtransport_amqp_cbs_auth.c ****         }
 319:Source\azure_iot_sdk\iothub_client\src/iothubtransport_amqp_cbs_auth.c **** 
 320:Source\azure_iot_sdk\iothub_client\src/iothubtransport_amqp_cbs_auth.c **** 
 321:Source\azure_iot_sdk\iothub_client\src/iothubtransport_amqp_cbs_auth.c ****         if (sas_token != NULL)
 1072              		.loc 1 321 0
 1073 0172 002E     		cmp	r6, #0
 1074 0174 1FD0     		beq	.L51
 322:Source\azure_iot_sdk\iothub_client\src/iothubtransport_amqp_cbs_auth.c ****         {
 323:Source\azure_iot_sdk\iothub_client\src/iothubtransport_amqp_cbs_auth.c ****             if (put_SAS_token_to_cbs(instance, device_and_module_path, sas_token) != RESULT_OK)
 1075              		.loc 1 323 0
 1076 0176 3200     		movs	r2, r6
 1077 0178 2900     		movs	r1, r5
 1078 017a 2000     		movs	r0, r4
 1079 017c FFF7FEFF 		bl	put_SAS_token_to_cbs
 1080              	.LVL175:
 1081 0180 0028     		cmp	r0, #0
 1082 0182 11D0     		beq	.L62
 1083              	.LVL176:
 1084              	.LBB26:
 324:Source\azure_iot_sdk\iothub_client\src/iothubtransport_amqp_cbs_auth.c ****             {
 325:Source\azure_iot_sdk\iothub_client\src/iothubtransport_amqp_cbs_auth.c ****                 result = __FAILURE__;
 326:Source\azure_iot_sdk\iothub_client\src/iothubtransport_amqp_cbs_auth.c ****                 LogError("Failed putting SAS token to CBS");
 1085              		.loc 1 326 0
 1086 0184 FFF7FEFF 		bl	xlogging_get_log_function
 1087              	.LVL177:
 1088 0188 041E     		subs	r4, r0, #0
 1089              	.LVL178:
 1090 018a 0FD0     		beq	.L63
 1091              		.loc 1 326 0 is_stmt 0 discriminator 4
 1092 018c 164B     		ldr	r3, .L64+32
 1093 018e 0193     		str	r3, [sp, #4]
 1094 0190 0123     		movs	r3, #1
 1095 0192 0093     		str	r3, [sp]
 1096 0194 4633     		adds	r3, r3, #70
 1097 0196 FF33     		adds	r3, r3, #255
 1098 0198 0C4A     		ldr	r2, .L64+4
 1099 019a 2032     		adds	r2, r2, #32
ARM GAS  C:\Users\Phuong\AppData\Local\Temp\ccPPbPWA.s 			page 27


 1100 019c 0C49     		ldr	r1, .L64+8
 1101 019e 0020     		movs	r0, #0
 1102              	.LVL179:
 1103 01a0 A047     		blx	r4
 1104              	.LVL180:
 1105              	.LBE26:
 325:Source\azure_iot_sdk\iothub_client\src/iothubtransport_amqp_cbs_auth.c ****                 LogError("Failed putting SAS token to CBS");
 1106              		.loc 1 325 0 is_stmt 1 discriminator 4
 1107 01a2 4627     		movs	r7, #70
 1108 01a4 FF37     		adds	r7, r7, #255
 1109 01a6 03E0     		b	.L52
 1110              	.LVL181:
 1111              	.L62:
 327:Source\azure_iot_sdk\iothub_client\src/iothubtransport_amqp_cbs_auth.c ****             }
 328:Source\azure_iot_sdk\iothub_client\src/iothubtransport_amqp_cbs_auth.c ****             else
 329:Source\azure_iot_sdk\iothub_client\src/iothubtransport_amqp_cbs_auth.c ****             {
 330:Source\azure_iot_sdk\iothub_client\src/iothubtransport_amqp_cbs_auth.c ****                 result = RESULT_OK;
 1112              		.loc 1 330 0
 1113 01a8 0027     		movs	r7, #0
 1114              	.LVL182:
 1115 01aa 01E0     		b	.L52
 1116              	.LVL183:
 1117              	.L63:
 325:Source\azure_iot_sdk\iothub_client\src/iothubtransport_amqp_cbs_auth.c ****                 LogError("Failed putting SAS token to CBS");
 1118              		.loc 1 325 0
 1119 01ac 4627     		movs	r7, #70
 1120 01ae FF37     		adds	r7, r7, #255
 1121              	.LVL184:
 1122              	.L52:
 331:Source\azure_iot_sdk\iothub_client\src/iothubtransport_amqp_cbs_auth.c ****             }
 332:Source\azure_iot_sdk\iothub_client\src/iothubtransport_amqp_cbs_auth.c ****             free(sas_token);
 1123              		.loc 1 332 0
 1124 01b0 3000     		movs	r0, r6
 1125 01b2 FFF7FEFF 		bl	free
 1126              	.LVL185:
 1127              	.L51:
 333:Source\azure_iot_sdk\iothub_client\src/iothubtransport_amqp_cbs_auth.c ****         }
 334:Source\azure_iot_sdk\iothub_client\src/iothubtransport_amqp_cbs_auth.c **** 
 335:Source\azure_iot_sdk\iothub_client\src/iothubtransport_amqp_cbs_auth.c ****         // Codes_SRS_IOTHUBTRANSPORT_AMQP_AUTH_09_081: [authentication_do_work() shall free the mem
 336:Source\azure_iot_sdk\iothub_client\src/iothubtransport_amqp_cbs_auth.c ****         STRING_delete(device_and_module_path);
 1128              		.loc 1 336 0
 1129 01b6 2800     		movs	r0, r5
 1130 01b8 FFF7FEFF 		bl	STRING_delete
 1131              	.LVL186:
 1132 01bc 00E0     		b	.L44
 1133              	.LVL187:
 1134              	.L53:
 1135              	.LBE18:
 255:Source\azure_iot_sdk\iothub_client\src/iothubtransport_amqp_cbs_auth.c ****         sas_token = NULL;
 1136              		.loc 1 255 0
 1137 01be FF27     		movs	r7, #255
 1138              	.LVL188:
 1139              	.L44:
 337:Source\azure_iot_sdk\iothub_client\src/iothubtransport_amqp_cbs_auth.c ****     }
 338:Source\azure_iot_sdk\iothub_client\src/iothubtransport_amqp_cbs_auth.c ****     return result;
 339:Source\azure_iot_sdk\iothub_client\src/iothubtransport_amqp_cbs_auth.c **** }
 1140              		.loc 1 339 0
ARM GAS  C:\Users\Phuong\AppData\Local\Temp\ccPPbPWA.s 			page 28


 1141 01c0 3800     		movs	r0, r7
 1142 01c2 03B0     		add	sp, sp, #12
 1143              		@ sp needed
 1144              	.LVL189:
 1145              	.LVL190:
 1146 01c4 F0BD     		pop	{r4, r5, r6, r7, pc}
 1147              	.L65:
 1148 01c6 C046     		.align	2
 1149              	.L64:
 1150 01c8 F8020000 		.word	.LC36
 1151 01cc 80000000 		.word	.LANCHOR1
 1152 01d0 00000000 		.word	.LC1
 1153 01d4 40030000 		.word	.LC38
 1154 01d8 5C030000 		.word	.LC40
 1155 01dc 74030000 		.word	.LC42
 1156 01e0 90030000 		.word	.LC44
 1157 01e4 AC030000 		.word	.LC46
 1158 01e8 D4030000 		.word	.LC48
 1159              		.cfi_endproc
 1160              	.LFE8:
 1161              		.size	create_and_put_SAS_token_to_cbs, .-create_and_put_SAS_token_to_cbs
 1162              		.section	.text.authentication_clone_option,"ax",%progbits
 1163              		.align	2
 1164              		.code	16
 1165              		.thumb_func
 1166              		.type	authentication_clone_option, %function
 1167              	authentication_clone_option:
 1168              	.LFB9:
 340:Source\azure_iot_sdk\iothub_client\src/iothubtransport_amqp_cbs_auth.c **** 
 341:Source\azure_iot_sdk\iothub_client\src/iothubtransport_amqp_cbs_auth.c **** // ---------- Set/Retrieve Options Helpers ----------//
 342:Source\azure_iot_sdk\iothub_client\src/iothubtransport_amqp_cbs_auth.c **** static void* authentication_clone_option(const char* name, const void* value)
 343:Source\azure_iot_sdk\iothub_client\src/iothubtransport_amqp_cbs_auth.c **** {
 1169              		.loc 1 343 0
 1170              		.cfi_startproc
 1171              		@ args = 0, pretend = 0, frame = 0
 1172              		@ frame_needed = 0, uses_anonymous_args = 0
 1173              	.LVL191:
 1174 0000 30B5     		push	{r4, r5, lr}
 1175              		.cfi_def_cfa_offset 12
 1176              		.cfi_offset 4, -12
 1177              		.cfi_offset 5, -8
 1178              		.cfi_offset 14, -4
 1179 0002 85B0     		sub	sp, sp, #20
 1180              		.cfi_def_cfa_offset 32
 1181 0004 0400     		movs	r4, r0
 1182 0006 0D00     		movs	r5, r1
 344:Source\azure_iot_sdk\iothub_client\src/iothubtransport_amqp_cbs_auth.c ****     void* result;
 345:Source\azure_iot_sdk\iothub_client\src/iothubtransport_amqp_cbs_auth.c **** 
 346:Source\azure_iot_sdk\iothub_client\src/iothubtransport_amqp_cbs_auth.c ****     if (name == NULL)
 1183              		.loc 1 346 0
 1184 0008 0028     		cmp	r0, #0
 1185 000a 10D1     		bne	.L67
 1186              	.LBB27:
 347:Source\azure_iot_sdk\iothub_client\src/iothubtransport_amqp_cbs_auth.c ****     {
 348:Source\azure_iot_sdk\iothub_client\src/iothubtransport_amqp_cbs_auth.c ****         LogError("Failed to clone authentication option (name is NULL)");
 1187              		.loc 1 348 0 discriminator 3
 1188 000c FFF7FEFF 		bl	xlogging_get_log_function
ARM GAS  C:\Users\Phuong\AppData\Local\Temp\ccPPbPWA.s 			page 29


 1189              	.LVL192:
 1190 0010 041E     		subs	r4, r0, #0
 1191              	.LVL193:
 1192 0012 48D0     		beq	.L70
 1193              		.loc 1 348 0 is_stmt 0 discriminator 4
 1194 0014 274B     		ldr	r3, .L72
 1195 0016 0193     		str	r3, [sp, #4]
 1196 0018 0123     		movs	r3, #1
 1197 001a 0093     		str	r3, [sp]
 1198 001c 5C33     		adds	r3, r3, #92
 1199 001e FF33     		adds	r3, r3, #255
 1200 0020 254A     		ldr	r2, .L72+4
 1201 0022 4032     		adds	r2, r2, #64
 1202 0024 2549     		ldr	r1, .L72+8
 1203 0026 0020     		movs	r0, #0
 1204              	.LVL194:
 1205 0028 A047     		blx	r4
 1206              	.LVL195:
 1207              	.LBE27:
 349:Source\azure_iot_sdk\iothub_client\src/iothubtransport_amqp_cbs_auth.c ****         result = NULL;
 1208              		.loc 1 349 0 is_stmt 1 discriminator 4
 1209 002a 0025     		movs	r5, #0
 1210              	.LVL196:
 1211 002c 3EE0     		b	.L68
 1212              	.LVL197:
 1213              	.L67:
 350:Source\azure_iot_sdk\iothub_client\src/iothubtransport_amqp_cbs_auth.c ****     }
 351:Source\azure_iot_sdk\iothub_client\src/iothubtransport_amqp_cbs_auth.c ****     else if (value == NULL)
 1214              		.loc 1 351 0
 1215 002e 0029     		cmp	r1, #0
 1216 0030 0FD1     		bne	.L69
 1217              	.LBB28:
 352:Source\azure_iot_sdk\iothub_client\src/iothubtransport_amqp_cbs_auth.c ****     {
 353:Source\azure_iot_sdk\iothub_client\src/iothubtransport_amqp_cbs_auth.c ****         LogError("Failed to clone authentication option (value is NULL)");
 1218              		.loc 1 353 0 discriminator 3
 1219 0032 FFF7FEFF 		bl	xlogging_get_log_function
 1220              	.LVL198:
 1221 0036 041E     		subs	r4, r0, #0
 1222              	.LVL199:
 1223 0038 38D0     		beq	.L68
 1224              		.loc 1 353 0 is_stmt 0 discriminator 4
 1225 003a 214B     		ldr	r3, .L72+12
 1226 003c 0193     		str	r3, [sp, #4]
 1227 003e 0123     		movs	r3, #1
 1228 0040 0093     		str	r3, [sp]
 1229 0042 6223     		movs	r3, #98
 1230 0044 FF33     		adds	r3, r3, #255
 1231 0046 1C4A     		ldr	r2, .L72+4
 1232 0048 4032     		adds	r2, r2, #64
 1233 004a 1C49     		ldr	r1, .L72+8
 1234 004c 0020     		movs	r0, #0
 1235              	.LVL200:
 1236 004e A047     		blx	r4
 1237              	.LVL201:
 1238 0050 2CE0     		b	.L68
 1239              	.LVL202:
 1240              	.L69:
ARM GAS  C:\Users\Phuong\AppData\Local\Temp\ccPPbPWA.s 			page 30


 1241              	.LBE28:
 354:Source\azure_iot_sdk\iothub_client\src/iothubtransport_amqp_cbs_auth.c ****         result = NULL;
 355:Source\azure_iot_sdk\iothub_client\src/iothubtransport_amqp_cbs_auth.c ****     }
 356:Source\azure_iot_sdk\iothub_client\src/iothubtransport_amqp_cbs_auth.c ****     else
 357:Source\azure_iot_sdk\iothub_client\src/iothubtransport_amqp_cbs_auth.c ****     {
 358:Source\azure_iot_sdk\iothub_client\src/iothubtransport_amqp_cbs_auth.c ****         if (strcmp(AUTHENTICATION_OPTION_CBS_REQUEST_TIMEOUT_SECS, name) == 0 ||
 1242              		.loc 1 358 0 is_stmt 1
 1243 0052 0100     		movs	r1, r0
 1244              	.LVL203:
 1245 0054 1B48     		ldr	r0, .L72+16
 1246              	.LVL204:
 1247 0056 FFF7FEFF 		bl	strcmp
 1248              	.LVL205:
 1249 005a 0028     		cmp	r0, #0
 1250 005c 26D0     		beq	.L68
 359:Source\azure_iot_sdk\iothub_client\src/iothubtransport_amqp_cbs_auth.c ****             strcmp(AUTHENTICATION_OPTION_SAS_TOKEN_REFRESH_TIME_SECS, name) == 0 ||
 1251              		.loc 1 359 0 discriminator 1
 1252 005e 2100     		movs	r1, r4
 1253 0060 1948     		ldr	r0, .L72+20
 1254 0062 FFF7FEFF 		bl	strcmp
 1255              	.LVL206:
 358:Source\azure_iot_sdk\iothub_client\src/iothubtransport_amqp_cbs_auth.c ****             strcmp(AUTHENTICATION_OPTION_SAS_TOKEN_REFRESH_TIME_SECS, name) == 0 ||
 1256              		.loc 1 358 0 discriminator 1
 1257 0066 0028     		cmp	r0, #0
 1258 0068 20D0     		beq	.L68
 360:Source\azure_iot_sdk\iothub_client\src/iothubtransport_amqp_cbs_auth.c ****             strcmp(AUTHENTICATION_OPTION_SAS_TOKEN_LIFETIME_SECS, name) == 0 ||
 1259              		.loc 1 360 0
 1260 006a 2100     		movs	r1, r4
 1261 006c 1748     		ldr	r0, .L72+24
 1262 006e FFF7FEFF 		bl	strcmp
 1263              	.LVL207:
 359:Source\azure_iot_sdk\iothub_client\src/iothubtransport_amqp_cbs_auth.c ****             strcmp(AUTHENTICATION_OPTION_SAS_TOKEN_REFRESH_TIME_SECS, name) == 0 ||
 1264              		.loc 1 359 0
 1265 0072 0028     		cmp	r0, #0
 1266 0074 1AD0     		beq	.L68
 361:Source\azure_iot_sdk\iothub_client\src/iothubtransport_amqp_cbs_auth.c ****             strcmp(AUTHENTICATION_OPTION_SAVED_OPTIONS, name) == 0)
 1267              		.loc 1 361 0
 1268 0076 2100     		movs	r1, r4
 1269 0078 1548     		ldr	r0, .L72+28
 1270 007a FFF7FEFF 		bl	strcmp
 1271              	.LVL208:
 360:Source\azure_iot_sdk\iothub_client\src/iothubtransport_amqp_cbs_auth.c ****             strcmp(AUTHENTICATION_OPTION_SAS_TOKEN_LIFETIME_SECS, name) == 0 ||
 1272              		.loc 1 360 0
 1273 007e 0028     		cmp	r0, #0
 1274 0080 14D0     		beq	.L68
 1275              	.LBB29:
 362:Source\azure_iot_sdk\iothub_client\src/iothubtransport_amqp_cbs_auth.c ****         {
 363:Source\azure_iot_sdk\iothub_client\src/iothubtransport_amqp_cbs_auth.c ****             result = (void*)value;
 364:Source\azure_iot_sdk\iothub_client\src/iothubtransport_amqp_cbs_auth.c ****         }
 365:Source\azure_iot_sdk\iothub_client\src/iothubtransport_amqp_cbs_auth.c ****         else
 366:Source\azure_iot_sdk\iothub_client\src/iothubtransport_amqp_cbs_auth.c ****         {
 367:Source\azure_iot_sdk\iothub_client\src/iothubtransport_amqp_cbs_auth.c ****             LogError("Failed to clone authentication option (option with name '%s' is not suppporte
 1276              		.loc 1 367 0 discriminator 3
 1277 0082 FFF7FEFF 		bl	xlogging_get_log_function
 1278              	.LVL209:
 1279 0086 051E     		subs	r5, r0, #0
 1280              	.LVL210:
ARM GAS  C:\Users\Phuong\AppData\Local\Temp\ccPPbPWA.s 			page 31


 1281 0088 0FD0     		beq	.L71
 1282              		.loc 1 367 0 is_stmt 0 discriminator 4
 1283 008a 0294     		str	r4, [sp, #8]
 1284 008c 114B     		ldr	r3, .L72+32
 1285 008e 0193     		str	r3, [sp, #4]
 1286 0090 0123     		movs	r3, #1
 1287 0092 0093     		str	r3, [sp]
 1288 0094 7023     		movs	r3, #112
 1289 0096 FF33     		adds	r3, r3, #255
 1290 0098 074A     		ldr	r2, .L72+4
 1291 009a 4032     		adds	r2, r2, #64
 1292 009c 0749     		ldr	r1, .L72+8
 1293 009e 0020     		movs	r0, #0
 1294              	.LVL211:
 1295 00a0 A847     		blx	r5
 1296              	.LVL212:
 1297              	.LBE29:
 368:Source\azure_iot_sdk\iothub_client\src/iothubtransport_amqp_cbs_auth.c ****             result = NULL;
 1298              		.loc 1 368 0 is_stmt 1 discriminator 4
 1299 00a2 0025     		movs	r5, #0
 1300              	.LVL213:
 1301 00a4 02E0     		b	.L68
 1302              	.LVL214:
 1303              	.L70:
 349:Source\azure_iot_sdk\iothub_client\src/iothubtransport_amqp_cbs_auth.c ****     }
 1304              		.loc 1 349 0
 1305 00a6 0025     		movs	r5, #0
 1306              	.LVL215:
 1307 00a8 00E0     		b	.L68
 1308              	.LVL216:
 1309              	.L71:
 1310              		.loc 1 368 0
 1311 00aa 0025     		movs	r5, #0
 1312              	.LVL217:
 1313              	.L68:
 369:Source\azure_iot_sdk\iothub_client\src/iothubtransport_amqp_cbs_auth.c ****         }
 370:Source\azure_iot_sdk\iothub_client\src/iothubtransport_amqp_cbs_auth.c ****     }
 371:Source\azure_iot_sdk\iothub_client\src/iothubtransport_amqp_cbs_auth.c **** 
 372:Source\azure_iot_sdk\iothub_client\src/iothubtransport_amqp_cbs_auth.c ****     return result;
 373:Source\azure_iot_sdk\iothub_client\src/iothubtransport_amqp_cbs_auth.c **** }
 1314              		.loc 1 373 0
 1315 00ac 2800     		movs	r0, r5
 1316 00ae 05B0     		add	sp, sp, #20
 1317              		@ sp needed
 1318              	.LVL218:
 1319 00b0 30BD     		pop	{r4, r5, pc}
 1320              	.L73:
 1321 00b2 C046     		.align	2
 1322              	.L72:
 1323 00b4 F4030000 		.word	.LC52
 1324 00b8 80000000 		.word	.LANCHOR1
 1325 00bc 00000000 		.word	.LC1
 1326 00c0 2C040000 		.word	.LC54
 1327 00c4 64040000 		.word	.LC56
 1328 00c8 80040000 		.word	.LC58
 1329 00cc 9C040000 		.word	.LC60
 1330 00d0 B4040000 		.word	.LC62
ARM GAS  C:\Users\Phuong\AppData\Local\Temp\ccPPbPWA.s 			page 32


 1331 00d4 D4040000 		.word	.LC64
 1332              		.cfi_endproc
 1333              	.LFE9:
 1334              		.size	authentication_clone_option, .-authentication_clone_option
 1335              		.section	.text.authentication_set_option,"ax",%progbits
 1336              		.align	2
 1337              		.global	authentication_set_option
 1338              		.code	16
 1339              		.thumb_func
 1340              		.type	authentication_set_option, %function
 1341              	authentication_set_option:
 1342              	.LFB16:
 374:Source\azure_iot_sdk\iothub_client\src/iothubtransport_amqp_cbs_auth.c **** 
 375:Source\azure_iot_sdk\iothub_client\src/iothubtransport_amqp_cbs_auth.c **** static void authentication_destroy_option(const char* name, const void* value)
 376:Source\azure_iot_sdk\iothub_client\src/iothubtransport_amqp_cbs_auth.c **** {
 377:Source\azure_iot_sdk\iothub_client\src/iothubtransport_amqp_cbs_auth.c ****     if (name == NULL)
 378:Source\azure_iot_sdk\iothub_client\src/iothubtransport_amqp_cbs_auth.c ****     {
 379:Source\azure_iot_sdk\iothub_client\src/iothubtransport_amqp_cbs_auth.c ****         LogError("Failed to destroy authentication option (name is NULL)");
 380:Source\azure_iot_sdk\iothub_client\src/iothubtransport_amqp_cbs_auth.c ****     }
 381:Source\azure_iot_sdk\iothub_client\src/iothubtransport_amqp_cbs_auth.c ****     else if (value == NULL)
 382:Source\azure_iot_sdk\iothub_client\src/iothubtransport_amqp_cbs_auth.c ****     {
 383:Source\azure_iot_sdk\iothub_client\src/iothubtransport_amqp_cbs_auth.c ****         LogError("Failed to destroy authentication option (value is NULL)");
 384:Source\azure_iot_sdk\iothub_client\src/iothubtransport_amqp_cbs_auth.c ****     }
 385:Source\azure_iot_sdk\iothub_client\src/iothubtransport_amqp_cbs_auth.c ****     else
 386:Source\azure_iot_sdk\iothub_client\src/iothubtransport_amqp_cbs_auth.c ****     {
 387:Source\azure_iot_sdk\iothub_client\src/iothubtransport_amqp_cbs_auth.c ****         if (strcmp(name, AUTHENTICATION_OPTION_SAVED_OPTIONS) == 0)
 388:Source\azure_iot_sdk\iothub_client\src/iothubtransport_amqp_cbs_auth.c ****         {
 389:Source\azure_iot_sdk\iothub_client\src/iothubtransport_amqp_cbs_auth.c ****             OptionHandler_Destroy((OPTIONHANDLER_HANDLE)value);
 390:Source\azure_iot_sdk\iothub_client\src/iothubtransport_amqp_cbs_auth.c ****         }
 391:Source\azure_iot_sdk\iothub_client\src/iothubtransport_amqp_cbs_auth.c ****     }
 392:Source\azure_iot_sdk\iothub_client\src/iothubtransport_amqp_cbs_auth.c **** }
 393:Source\azure_iot_sdk\iothub_client\src/iothubtransport_amqp_cbs_auth.c **** 
 394:Source\azure_iot_sdk\iothub_client\src/iothubtransport_amqp_cbs_auth.c **** // Public APIs:
 395:Source\azure_iot_sdk\iothub_client\src/iothubtransport_amqp_cbs_auth.c **** int authentication_start(AUTHENTICATION_HANDLE authentication_handle, const CBS_HANDLE cbs_handle)
 396:Source\azure_iot_sdk\iothub_client\src/iothubtransport_amqp_cbs_auth.c **** {
 397:Source\azure_iot_sdk\iothub_client\src/iothubtransport_amqp_cbs_auth.c ****     int result;
 398:Source\azure_iot_sdk\iothub_client\src/iothubtransport_amqp_cbs_auth.c **** 
 399:Source\azure_iot_sdk\iothub_client\src/iothubtransport_amqp_cbs_auth.c ****     // Codes_SRS_IOTHUBTRANSPORT_AMQP_AUTH_09_025: [If authentication_handle is NULL, authenticatio
 400:Source\azure_iot_sdk\iothub_client\src/iothubtransport_amqp_cbs_auth.c ****     if (authentication_handle == NULL)
 401:Source\azure_iot_sdk\iothub_client\src/iothubtransport_amqp_cbs_auth.c ****     {
 402:Source\azure_iot_sdk\iothub_client\src/iothubtransport_amqp_cbs_auth.c ****         result = __FAILURE__;
 403:Source\azure_iot_sdk\iothub_client\src/iothubtransport_amqp_cbs_auth.c ****         LogError("authentication_start failed (authentication_handle is NULL)");
 404:Source\azure_iot_sdk\iothub_client\src/iothubtransport_amqp_cbs_auth.c ****     }
 405:Source\azure_iot_sdk\iothub_client\src/iothubtransport_amqp_cbs_auth.c ****     // Codes_SRS_IOTHUBTRANSPORT_AMQP_AUTH_09_026: [If `cbs_handle` is NULL, authentication_start()
 406:Source\azure_iot_sdk\iothub_client\src/iothubtransport_amqp_cbs_auth.c ****     else if (cbs_handle == NULL)
 407:Source\azure_iot_sdk\iothub_client\src/iothubtransport_amqp_cbs_auth.c ****     {
 408:Source\azure_iot_sdk\iothub_client\src/iothubtransport_amqp_cbs_auth.c ****         result = __FAILURE__;
 409:Source\azure_iot_sdk\iothub_client\src/iothubtransport_amqp_cbs_auth.c ****         LogError("authentication_start failed (cbs_handle is NULL)");
 410:Source\azure_iot_sdk\iothub_client\src/iothubtransport_amqp_cbs_auth.c ****     }
 411:Source\azure_iot_sdk\iothub_client\src/iothubtransport_amqp_cbs_auth.c ****     else
 412:Source\azure_iot_sdk\iothub_client\src/iothubtransport_amqp_cbs_auth.c ****     {
 413:Source\azure_iot_sdk\iothub_client\src/iothubtransport_amqp_cbs_auth.c ****         AUTHENTICATION_INSTANCE* instance = (AUTHENTICATION_INSTANCE*)authentication_handle;
 414:Source\azure_iot_sdk\iothub_client\src/iothubtransport_amqp_cbs_auth.c **** 
 415:Source\azure_iot_sdk\iothub_client\src/iothubtransport_amqp_cbs_auth.c ****         // Codes_SRS_IOTHUBTRANSPORT_AMQP_AUTH_09_027: [If authenticate state has been started alre
 416:Source\azure_iot_sdk\iothub_client\src/iothubtransport_amqp_cbs_auth.c ****         if (instance->state != AUTHENTICATION_STATE_STOPPED)
 417:Source\azure_iot_sdk\iothub_client\src/iothubtransport_amqp_cbs_auth.c ****         {
 418:Source\azure_iot_sdk\iothub_client\src/iothubtransport_amqp_cbs_auth.c ****             result = __FAILURE__;
ARM GAS  C:\Users\Phuong\AppData\Local\Temp\ccPPbPWA.s 			page 33


 419:Source\azure_iot_sdk\iothub_client\src/iothubtransport_amqp_cbs_auth.c ****             LogError("authentication_start failed (messenger has already been started; current stat
 420:Source\azure_iot_sdk\iothub_client\src/iothubtransport_amqp_cbs_auth.c ****         }
 421:Source\azure_iot_sdk\iothub_client\src/iothubtransport_amqp_cbs_auth.c ****         else
 422:Source\azure_iot_sdk\iothub_client\src/iothubtransport_amqp_cbs_auth.c ****         {
 423:Source\azure_iot_sdk\iothub_client\src/iothubtransport_amqp_cbs_auth.c ****             // Codes_SRS_IOTHUBTRANSPORT_AMQP_AUTH_09_028: [authentication_start() shall save `cbs_
 424:Source\azure_iot_sdk\iothub_client\src/iothubtransport_amqp_cbs_auth.c ****             instance->cbs_handle = cbs_handle;
 425:Source\azure_iot_sdk\iothub_client\src/iothubtransport_amqp_cbs_auth.c **** 
 426:Source\azure_iot_sdk\iothub_client\src/iothubtransport_amqp_cbs_auth.c ****             // Codes_SRS_IOTHUBTRANSPORT_AMQP_AUTH_09_029: [If no failures occur, `instance->state`
 427:Source\azure_iot_sdk\iothub_client\src/iothubtransport_amqp_cbs_auth.c ****             update_state(instance, AUTHENTICATION_STATE_STARTING);
 428:Source\azure_iot_sdk\iothub_client\src/iothubtransport_amqp_cbs_auth.c **** 
 429:Source\azure_iot_sdk\iothub_client\src/iothubtransport_amqp_cbs_auth.c ****             // Codes_SRS_IOTHUBTRANSPORT_AMQP_AUTH_09_030: [If no failures occur, authentication_st
 430:Source\azure_iot_sdk\iothub_client\src/iothubtransport_amqp_cbs_auth.c ****             result = RESULT_OK;
 431:Source\azure_iot_sdk\iothub_client\src/iothubtransport_amqp_cbs_auth.c ****         }
 432:Source\azure_iot_sdk\iothub_client\src/iothubtransport_amqp_cbs_auth.c ****     }
 433:Source\azure_iot_sdk\iothub_client\src/iothubtransport_amqp_cbs_auth.c **** 
 434:Source\azure_iot_sdk\iothub_client\src/iothubtransport_amqp_cbs_auth.c ****     return result;
 435:Source\azure_iot_sdk\iothub_client\src/iothubtransport_amqp_cbs_auth.c **** }
 436:Source\azure_iot_sdk\iothub_client\src/iothubtransport_amqp_cbs_auth.c **** 
 437:Source\azure_iot_sdk\iothub_client\src/iothubtransport_amqp_cbs_auth.c **** int authentication_stop(AUTHENTICATION_HANDLE authentication_handle)
 438:Source\azure_iot_sdk\iothub_client\src/iothubtransport_amqp_cbs_auth.c **** {
 439:Source\azure_iot_sdk\iothub_client\src/iothubtransport_amqp_cbs_auth.c ****     int result;
 440:Source\azure_iot_sdk\iothub_client\src/iothubtransport_amqp_cbs_auth.c **** 
 441:Source\azure_iot_sdk\iothub_client\src/iothubtransport_amqp_cbs_auth.c ****     // Codes_SRS_IOTHUBTRANSPORT_AMQP_AUTH_09_031: [If `authentication_handle` is NULL, authenticat
 442:Source\azure_iot_sdk\iothub_client\src/iothubtransport_amqp_cbs_auth.c ****     if (authentication_handle == NULL)
 443:Source\azure_iot_sdk\iothub_client\src/iothubtransport_amqp_cbs_auth.c ****     {
 444:Source\azure_iot_sdk\iothub_client\src/iothubtransport_amqp_cbs_auth.c ****         result = __FAILURE__;
 445:Source\azure_iot_sdk\iothub_client\src/iothubtransport_amqp_cbs_auth.c ****         LogError("authentication_stop failed (authentication_handle is NULL)");
 446:Source\azure_iot_sdk\iothub_client\src/iothubtransport_amqp_cbs_auth.c ****     }
 447:Source\azure_iot_sdk\iothub_client\src/iothubtransport_amqp_cbs_auth.c ****     else
 448:Source\azure_iot_sdk\iothub_client\src/iothubtransport_amqp_cbs_auth.c ****     {
 449:Source\azure_iot_sdk\iothub_client\src/iothubtransport_amqp_cbs_auth.c ****         AUTHENTICATION_INSTANCE* instance = (AUTHENTICATION_INSTANCE*)authentication_handle;
 450:Source\azure_iot_sdk\iothub_client\src/iothubtransport_amqp_cbs_auth.c **** 
 451:Source\azure_iot_sdk\iothub_client\src/iothubtransport_amqp_cbs_auth.c ****         // Codes_SRS_IOTHUBTRANSPORT_AMQP_AUTH_09_032: [If `instance->state` is AUTHENTICATION_STAT
 452:Source\azure_iot_sdk\iothub_client\src/iothubtransport_amqp_cbs_auth.c ****         if (instance->state == AUTHENTICATION_STATE_STOPPED)
 453:Source\azure_iot_sdk\iothub_client\src/iothubtransport_amqp_cbs_auth.c ****         {
 454:Source\azure_iot_sdk\iothub_client\src/iothubtransport_amqp_cbs_auth.c ****             result = __FAILURE__;
 455:Source\azure_iot_sdk\iothub_client\src/iothubtransport_amqp_cbs_auth.c ****             LogError("authentication_stop failed (messenger is already stopped)");
 456:Source\azure_iot_sdk\iothub_client\src/iothubtransport_amqp_cbs_auth.c ****         }
 457:Source\azure_iot_sdk\iothub_client\src/iothubtransport_amqp_cbs_auth.c ****         else
 458:Source\azure_iot_sdk\iothub_client\src/iothubtransport_amqp_cbs_auth.c ****         {
 459:Source\azure_iot_sdk\iothub_client\src/iothubtransport_amqp_cbs_auth.c ****             // Codes_SRS_IOTHUBTRANSPORT_AMQP_AUTH_09_033: [`instance->cbs_handle` shall be set to 
 460:Source\azure_iot_sdk\iothub_client\src/iothubtransport_amqp_cbs_auth.c ****             instance->cbs_handle = NULL;
 461:Source\azure_iot_sdk\iothub_client\src/iothubtransport_amqp_cbs_auth.c **** 
 462:Source\azure_iot_sdk\iothub_client\src/iothubtransport_amqp_cbs_auth.c ****             // Codes_SRS_IOTHUBTRANSPORT_AMQP_AUTH_09_034: [`instance->state` shall be set to AUTHE
 463:Source\azure_iot_sdk\iothub_client\src/iothubtransport_amqp_cbs_auth.c ****             update_state(instance, AUTHENTICATION_STATE_STOPPED);
 464:Source\azure_iot_sdk\iothub_client\src/iothubtransport_amqp_cbs_auth.c **** 
 465:Source\azure_iot_sdk\iothub_client\src/iothubtransport_amqp_cbs_auth.c ****             // Codes_SRS_IOTHUBTRANSPORT_AMQP_AUTH_09_035: [authentication_stop() shall return succ
 466:Source\azure_iot_sdk\iothub_client\src/iothubtransport_amqp_cbs_auth.c ****             result = RESULT_OK;
 467:Source\azure_iot_sdk\iothub_client\src/iothubtransport_amqp_cbs_auth.c ****         }
 468:Source\azure_iot_sdk\iothub_client\src/iothubtransport_amqp_cbs_auth.c ****     }
 469:Source\azure_iot_sdk\iothub_client\src/iothubtransport_amqp_cbs_auth.c **** 
 470:Source\azure_iot_sdk\iothub_client\src/iothubtransport_amqp_cbs_auth.c ****     return result;
 471:Source\azure_iot_sdk\iothub_client\src/iothubtransport_amqp_cbs_auth.c **** }
 472:Source\azure_iot_sdk\iothub_client\src/iothubtransport_amqp_cbs_auth.c **** 
 473:Source\azure_iot_sdk\iothub_client\src/iothubtransport_amqp_cbs_auth.c **** void authentication_destroy(AUTHENTICATION_HANDLE authentication_handle)
 474:Source\azure_iot_sdk\iothub_client\src/iothubtransport_amqp_cbs_auth.c **** {
 475:Source\azure_iot_sdk\iothub_client\src/iothubtransport_amqp_cbs_auth.c ****     // Codes_SRS_IOTHUBTRANSPORT_AMQP_AUTH_09_106: [If authentication_handle is NULL, authenticatio
ARM GAS  C:\Users\Phuong\AppData\Local\Temp\ccPPbPWA.s 			page 34


 476:Source\azure_iot_sdk\iothub_client\src/iothubtransport_amqp_cbs_auth.c ****     if (authentication_handle == NULL)
 477:Source\azure_iot_sdk\iothub_client\src/iothubtransport_amqp_cbs_auth.c ****     {
 478:Source\azure_iot_sdk\iothub_client\src/iothubtransport_amqp_cbs_auth.c ****         LogError("authentication_destroy failed (authentication_handle is NULL)");
 479:Source\azure_iot_sdk\iothub_client\src/iothubtransport_amqp_cbs_auth.c ****     }
 480:Source\azure_iot_sdk\iothub_client\src/iothubtransport_amqp_cbs_auth.c ****     else
 481:Source\azure_iot_sdk\iothub_client\src/iothubtransport_amqp_cbs_auth.c ****     {
 482:Source\azure_iot_sdk\iothub_client\src/iothubtransport_amqp_cbs_auth.c ****         AUTHENTICATION_INSTANCE* instance = (AUTHENTICATION_INSTANCE*)authentication_handle;
 483:Source\azure_iot_sdk\iothub_client\src/iothubtransport_amqp_cbs_auth.c **** 
 484:Source\azure_iot_sdk\iothub_client\src/iothubtransport_amqp_cbs_auth.c ****         // Codes_SRS_IOTHUBTRANSPORT_AMQP_AUTH_09_107: [If `instance->state` is AUTHENTICATION_STAT
 485:Source\azure_iot_sdk\iothub_client\src/iothubtransport_amqp_cbs_auth.c ****         if (instance->state != AUTHENTICATION_STATE_STOPPED)
 486:Source\azure_iot_sdk\iothub_client\src/iothubtransport_amqp_cbs_auth.c ****         {
 487:Source\azure_iot_sdk\iothub_client\src/iothubtransport_amqp_cbs_auth.c ****             (void)authentication_stop(authentication_handle);
 488:Source\azure_iot_sdk\iothub_client\src/iothubtransport_amqp_cbs_auth.c ****         }
 489:Source\azure_iot_sdk\iothub_client\src/iothubtransport_amqp_cbs_auth.c ****         // Codes_SRS_IOTHUBTRANSPORT_AMQP_AUTH_09_108: [authentication_destroy() shall destroy all 
 490:Source\azure_iot_sdk\iothub_client\src/iothubtransport_amqp_cbs_auth.c ****         if (instance->iothub_host_fqdn != NULL)
 491:Source\azure_iot_sdk\iothub_client\src/iothubtransport_amqp_cbs_auth.c ****             STRING_delete(instance->iothub_host_fqdn);
 492:Source\azure_iot_sdk\iothub_client\src/iothubtransport_amqp_cbs_auth.c **** 
 493:Source\azure_iot_sdk\iothub_client\src/iothubtransport_amqp_cbs_auth.c ****         // Codes_SRS_IOTHUBTRANSPORT_AMQP_AUTH_09_108: [authentication_destroy() shall destroy all 
 494:Source\azure_iot_sdk\iothub_client\src/iothubtransport_amqp_cbs_auth.c ****         free(instance);
 495:Source\azure_iot_sdk\iothub_client\src/iothubtransport_amqp_cbs_auth.c ****     }
 496:Source\azure_iot_sdk\iothub_client\src/iothubtransport_amqp_cbs_auth.c **** }
 497:Source\azure_iot_sdk\iothub_client\src/iothubtransport_amqp_cbs_auth.c **** 
 498:Source\azure_iot_sdk\iothub_client\src/iothubtransport_amqp_cbs_auth.c **** AUTHENTICATION_HANDLE authentication_create(const AUTHENTICATION_CONFIG* config)
 499:Source\azure_iot_sdk\iothub_client\src/iothubtransport_amqp_cbs_auth.c **** {
 500:Source\azure_iot_sdk\iothub_client\src/iothubtransport_amqp_cbs_auth.c ****     AUTHENTICATION_HANDLE result;
 501:Source\azure_iot_sdk\iothub_client\src/iothubtransport_amqp_cbs_auth.c **** 
 502:Source\azure_iot_sdk\iothub_client\src/iothubtransport_amqp_cbs_auth.c ****     // Codes_SRS_IOTHUBTRANSPORT_AMQP_AUTH_09_001: [If parameter `config` is NULL, authentication_c
 503:Source\azure_iot_sdk\iothub_client\src/iothubtransport_amqp_cbs_auth.c ****     if (config == NULL)
 504:Source\azure_iot_sdk\iothub_client\src/iothubtransport_amqp_cbs_auth.c ****     {
 505:Source\azure_iot_sdk\iothub_client\src/iothubtransport_amqp_cbs_auth.c ****         result = NULL;
 506:Source\azure_iot_sdk\iothub_client\src/iothubtransport_amqp_cbs_auth.c ****         LogError("authentication_create failed (config is NULL)");
 507:Source\azure_iot_sdk\iothub_client\src/iothubtransport_amqp_cbs_auth.c ****     }
 508:Source\azure_iot_sdk\iothub_client\src/iothubtransport_amqp_cbs_auth.c ****     else if (config->authorization_module == NULL)
 509:Source\azure_iot_sdk\iothub_client\src/iothubtransport_amqp_cbs_auth.c ****     {
 510:Source\azure_iot_sdk\iothub_client\src/iothubtransport_amqp_cbs_auth.c ****         result = NULL;
 511:Source\azure_iot_sdk\iothub_client\src/iothubtransport_amqp_cbs_auth.c ****         LogError("authentication_create failed (config->authorization_module is NULL)");
 512:Source\azure_iot_sdk\iothub_client\src/iothubtransport_amqp_cbs_auth.c ****     }
 513:Source\azure_iot_sdk\iothub_client\src/iothubtransport_amqp_cbs_auth.c ****     // Codes_SRS_IOTHUBTRANSPORT_AMQP_AUTH_09_004: [If `config->iothub_host_fqdn` is NULL, authenti
 514:Source\azure_iot_sdk\iothub_client\src/iothubtransport_amqp_cbs_auth.c ****     else if (config->iothub_host_fqdn == NULL)
 515:Source\azure_iot_sdk\iothub_client\src/iothubtransport_amqp_cbs_auth.c ****     {
 516:Source\azure_iot_sdk\iothub_client\src/iothubtransport_amqp_cbs_auth.c ****         result = NULL;
 517:Source\azure_iot_sdk\iothub_client\src/iothubtransport_amqp_cbs_auth.c ****         LogError("authentication_create failed (config->iothub_host_fqdn is NULL)");
 518:Source\azure_iot_sdk\iothub_client\src/iothubtransport_amqp_cbs_auth.c ****     }
 519:Source\azure_iot_sdk\iothub_client\src/iothubtransport_amqp_cbs_auth.c ****     // Codes_SRS_IOTHUBTRANSPORT_AMQP_AUTH_09_005: [If `config->on_state_changed_callback` is NULL,
 520:Source\azure_iot_sdk\iothub_client\src/iothubtransport_amqp_cbs_auth.c ****     else if (config->on_state_changed_callback == NULL)
 521:Source\azure_iot_sdk\iothub_client\src/iothubtransport_amqp_cbs_auth.c ****     {
 522:Source\azure_iot_sdk\iothub_client\src/iothubtransport_amqp_cbs_auth.c ****         result = NULL;
 523:Source\azure_iot_sdk\iothub_client\src/iothubtransport_amqp_cbs_auth.c ****         LogError("authentication_create failed (config->on_state_changed_callback is NULL)");
 524:Source\azure_iot_sdk\iothub_client\src/iothubtransport_amqp_cbs_auth.c ****     }
 525:Source\azure_iot_sdk\iothub_client\src/iothubtransport_amqp_cbs_auth.c ****     else
 526:Source\azure_iot_sdk\iothub_client\src/iothubtransport_amqp_cbs_auth.c ****     {
 527:Source\azure_iot_sdk\iothub_client\src/iothubtransport_amqp_cbs_auth.c ****         AUTHENTICATION_INSTANCE* instance;
 528:Source\azure_iot_sdk\iothub_client\src/iothubtransport_amqp_cbs_auth.c **** 
 529:Source\azure_iot_sdk\iothub_client\src/iothubtransport_amqp_cbs_auth.c ****         // Codes_SRS_IOTHUBTRANSPORT_AMQP_AUTH_09_006: [authentication_create() shall allocate memo
 530:Source\azure_iot_sdk\iothub_client\src/iothubtransport_amqp_cbs_auth.c ****         if ((instance = (AUTHENTICATION_INSTANCE*)malloc(sizeof(AUTHENTICATION_INSTANCE))) == NULL)
 531:Source\azure_iot_sdk\iothub_client\src/iothubtransport_amqp_cbs_auth.c ****         {
 532:Source\azure_iot_sdk\iothub_client\src/iothubtransport_amqp_cbs_auth.c ****             // Codes_SRS_IOTHUBTRANSPORT_AMQP_AUTH_09_007: [If malloc() fails, authentication_creat
ARM GAS  C:\Users\Phuong\AppData\Local\Temp\ccPPbPWA.s 			page 35


 533:Source\azure_iot_sdk\iothub_client\src/iothubtransport_amqp_cbs_auth.c ****             result = NULL;
 534:Source\azure_iot_sdk\iothub_client\src/iothubtransport_amqp_cbs_auth.c ****             LogError("authentication_create failed (malloc failed)");
 535:Source\azure_iot_sdk\iothub_client\src/iothubtransport_amqp_cbs_auth.c ****         }
 536:Source\azure_iot_sdk\iothub_client\src/iothubtransport_amqp_cbs_auth.c ****         else
 537:Source\azure_iot_sdk\iothub_client\src/iothubtransport_amqp_cbs_auth.c ****         {
 538:Source\azure_iot_sdk\iothub_client\src/iothubtransport_amqp_cbs_auth.c ****             // Codes_SRS_IOTHUBTRANSPORT_AMQP_AUTH_09_123: [authentication_create() shall initializ
 539:Source\azure_iot_sdk\iothub_client\src/iothubtransport_amqp_cbs_auth.c ****             memset(instance, 0, sizeof(AUTHENTICATION_INSTANCE));
 540:Source\azure_iot_sdk\iothub_client\src/iothubtransport_amqp_cbs_auth.c **** 
 541:Source\azure_iot_sdk\iothub_client\src/iothubtransport_amqp_cbs_auth.c ****             // Codes_SRS_IOTHUBTRANSPORT_AMQP_AUTH_09_008: [authentication_create() shall save the 
 542:Source\azure_iot_sdk\iothub_client\src/iothubtransport_amqp_cbs_auth.c ****             if ((instance->device_id = IoTHubClient_Auth_Get_DeviceId(config->authorization_module)
 543:Source\azure_iot_sdk\iothub_client\src/iothubtransport_amqp_cbs_auth.c ****             {
 544:Source\azure_iot_sdk\iothub_client\src/iothubtransport_amqp_cbs_auth.c ****                 // Codes_SRS_IOTHUBTRANSPORT_AMQP_AUTH_09_009: [If STRING_construct() fails, authen
 545:Source\azure_iot_sdk\iothub_client\src/iothubtransport_amqp_cbs_auth.c ****                 result = NULL;
 546:Source\azure_iot_sdk\iothub_client\src/iothubtransport_amqp_cbs_auth.c ****                 LogError("authentication_create failed (config->device_id could not be copied; STRI
 547:Source\azure_iot_sdk\iothub_client\src/iothubtransport_amqp_cbs_auth.c ****             }
 548:Source\azure_iot_sdk\iothub_client\src/iothubtransport_amqp_cbs_auth.c ****             // Codes_SRS_IOTHUBTRANSPORT_AMQP_AUTH_09_016: [If provided, authentication_create() sh
 549:Source\azure_iot_sdk\iothub_client\src/iothubtransport_amqp_cbs_auth.c ****             else if ((instance->iothub_host_fqdn = STRING_construct(config->iothub_host_fqdn)) == N
 550:Source\azure_iot_sdk\iothub_client\src/iothubtransport_amqp_cbs_auth.c ****             {
 551:Source\azure_iot_sdk\iothub_client\src/iothubtransport_amqp_cbs_auth.c ****                 // Codes_SRS_IOTHUBTRANSPORT_AMQP_AUTH_09_017: [If STRING_clone() fails to copy `co
 552:Source\azure_iot_sdk\iothub_client\src/iothubtransport_amqp_cbs_auth.c ****                 result = NULL;
 553:Source\azure_iot_sdk\iothub_client\src/iothubtransport_amqp_cbs_auth.c ****                 LogError("authentication_create failed (config->iothub_host_fqdn could not be copie
 554:Source\azure_iot_sdk\iothub_client\src/iothubtransport_amqp_cbs_auth.c ****             }
 555:Source\azure_iot_sdk\iothub_client\src/iothubtransport_amqp_cbs_auth.c ****             else
 556:Source\azure_iot_sdk\iothub_client\src/iothubtransport_amqp_cbs_auth.c ****             {
 557:Source\azure_iot_sdk\iothub_client\src/iothubtransport_amqp_cbs_auth.c ****                 instance->state = AUTHENTICATION_STATE_STOPPED;
 558:Source\azure_iot_sdk\iothub_client\src/iothubtransport_amqp_cbs_auth.c **** 
 559:Source\azure_iot_sdk\iothub_client\src/iothubtransport_amqp_cbs_auth.c ****                 instance->module_id = IoTHubClient_Auth_Get_ModuleId(config->authorization_module);
 560:Source\azure_iot_sdk\iothub_client\src/iothubtransport_amqp_cbs_auth.c **** 
 561:Source\azure_iot_sdk\iothub_client\src/iothubtransport_amqp_cbs_auth.c ****                 // Codes_SRS_IOTHUBTRANSPORT_AMQP_AUTH_09_018: [authentication_create() shall save 
 562:Source\azure_iot_sdk\iothub_client\src/iothubtransport_amqp_cbs_auth.c ****                 instance->on_state_changed_callback = config->on_state_changed_callback;
 563:Source\azure_iot_sdk\iothub_client\src/iothubtransport_amqp_cbs_auth.c ****                 instance->on_state_changed_callback_context = config->on_state_changed_callback_con
 564:Source\azure_iot_sdk\iothub_client\src/iothubtransport_amqp_cbs_auth.c **** 
 565:Source\azure_iot_sdk\iothub_client\src/iothubtransport_amqp_cbs_auth.c ****                 // Codes_SRS_IOTHUBTRANSPORT_AMQP_AUTH_09_019: [authentication_create() shall save 
 566:Source\azure_iot_sdk\iothub_client\src/iothubtransport_amqp_cbs_auth.c ****                 instance->on_error_callback = config->on_error_callback;
 567:Source\azure_iot_sdk\iothub_client\src/iothubtransport_amqp_cbs_auth.c ****                 instance->on_error_callback_context = config->on_error_callback_context;
 568:Source\azure_iot_sdk\iothub_client\src/iothubtransport_amqp_cbs_auth.c **** 
 569:Source\azure_iot_sdk\iothub_client\src/iothubtransport_amqp_cbs_auth.c ****                 // Codes_SRS_IOTHUBTRANSPORT_AMQP_AUTH_09_021: [authentication_create() shall set `
 570:Source\azure_iot_sdk\iothub_client\src/iothubtransport_amqp_cbs_auth.c ****                 instance->cbs_request_timeout_secs = DEFAULT_CBS_REQUEST_TIMEOUT_SECS;
 571:Source\azure_iot_sdk\iothub_client\src/iothubtransport_amqp_cbs_auth.c ****                 // Codes_SRS_IOTHUBTRANSPORT_AMQP_AUTH_09_022: [authentication_create() shall set `
 572:Source\azure_iot_sdk\iothub_client\src/iothubtransport_amqp_cbs_auth.c ****                 instance->sas_token_lifetime_secs = DEFAULT_SAS_TOKEN_LIFETIME_SECS;
 573:Source\azure_iot_sdk\iothub_client\src/iothubtransport_amqp_cbs_auth.c ****                 // Codes_SRS_IOTHUBTRANSPORT_AMQP_AUTH_09_023: [authentication_create() shall set `
 574:Source\azure_iot_sdk\iothub_client\src/iothubtransport_amqp_cbs_auth.c ****                 instance->sas_token_refresh_time_secs = DEFAULT_SAS_TOKEN_REFRESH_TIME_SECS;
 575:Source\azure_iot_sdk\iothub_client\src/iothubtransport_amqp_cbs_auth.c **** 
 576:Source\azure_iot_sdk\iothub_client\src/iothubtransport_amqp_cbs_auth.c ****                 instance->authorization_module = config->authorization_module;
 577:Source\azure_iot_sdk\iothub_client\src/iothubtransport_amqp_cbs_auth.c **** 
 578:Source\azure_iot_sdk\iothub_client\src/iothubtransport_amqp_cbs_auth.c ****                 // Codes_SRS_IOTHUBTRANSPORT_AMQP_AUTH_09_024: [If no failure occurs, authenticatio
 579:Source\azure_iot_sdk\iothub_client\src/iothubtransport_amqp_cbs_auth.c ****                 result = (AUTHENTICATION_HANDLE)instance;
 580:Source\azure_iot_sdk\iothub_client\src/iothubtransport_amqp_cbs_auth.c ****             }
 581:Source\azure_iot_sdk\iothub_client\src/iothubtransport_amqp_cbs_auth.c **** 
 582:Source\azure_iot_sdk\iothub_client\src/iothubtransport_amqp_cbs_auth.c ****             // Codes_SRS_IOTHUBTRANSPORT_AMQP_AUTH_09_020: [If any failure occurs, authentication_c
 583:Source\azure_iot_sdk\iothub_client\src/iothubtransport_amqp_cbs_auth.c ****             if (result == NULL)
 584:Source\azure_iot_sdk\iothub_client\src/iothubtransport_amqp_cbs_auth.c ****             {
 585:Source\azure_iot_sdk\iothub_client\src/iothubtransport_amqp_cbs_auth.c ****                 authentication_destroy((AUTHENTICATION_HANDLE)instance);
 586:Source\azure_iot_sdk\iothub_client\src/iothubtransport_amqp_cbs_auth.c ****             }
 587:Source\azure_iot_sdk\iothub_client\src/iothubtransport_amqp_cbs_auth.c ****         }
 588:Source\azure_iot_sdk\iothub_client\src/iothubtransport_amqp_cbs_auth.c ****     }
 589:Source\azure_iot_sdk\iothub_client\src/iothubtransport_amqp_cbs_auth.c **** 
ARM GAS  C:\Users\Phuong\AppData\Local\Temp\ccPPbPWA.s 			page 36


 590:Source\azure_iot_sdk\iothub_client\src/iothubtransport_amqp_cbs_auth.c ****     return result;
 591:Source\azure_iot_sdk\iothub_client\src/iothubtransport_amqp_cbs_auth.c **** }
 592:Source\azure_iot_sdk\iothub_client\src/iothubtransport_amqp_cbs_auth.c **** 
 593:Source\azure_iot_sdk\iothub_client\src/iothubtransport_amqp_cbs_auth.c **** void authentication_do_work(AUTHENTICATION_HANDLE authentication_handle)
 594:Source\azure_iot_sdk\iothub_client\src/iothubtransport_amqp_cbs_auth.c **** {
 595:Source\azure_iot_sdk\iothub_client\src/iothubtransport_amqp_cbs_auth.c ****     // Codes_SRS_IOTHUBTRANSPORT_AMQP_AUTH_09_036: [If authentication_handle is NULL, authenticatio
 596:Source\azure_iot_sdk\iothub_client\src/iothubtransport_amqp_cbs_auth.c ****     if (authentication_handle == NULL)
 597:Source\azure_iot_sdk\iothub_client\src/iothubtransport_amqp_cbs_auth.c ****     {
 598:Source\azure_iot_sdk\iothub_client\src/iothubtransport_amqp_cbs_auth.c ****         LogError("authentication_do_work failed (authentication_handle is NULL)");
 599:Source\azure_iot_sdk\iothub_client\src/iothubtransport_amqp_cbs_auth.c ****     }
 600:Source\azure_iot_sdk\iothub_client\src/iothubtransport_amqp_cbs_auth.c ****     else
 601:Source\azure_iot_sdk\iothub_client\src/iothubtransport_amqp_cbs_auth.c ****     {
 602:Source\azure_iot_sdk\iothub_client\src/iothubtransport_amqp_cbs_auth.c ****         AUTHENTICATION_INSTANCE* instance = (AUTHENTICATION_INSTANCE*)authentication_handle;
 603:Source\azure_iot_sdk\iothub_client\src/iothubtransport_amqp_cbs_auth.c **** 
 604:Source\azure_iot_sdk\iothub_client\src/iothubtransport_amqp_cbs_auth.c ****         // Codes_SRS_IOTHUBTRANSPORT_AMQP_AUTH_09_038: [If `instance->is_cbs_put_token_in_progress`
 605:Source\azure_iot_sdk\iothub_client\src/iothubtransport_amqp_cbs_auth.c ****         if (instance->is_cbs_put_token_in_progress)
 606:Source\azure_iot_sdk\iothub_client\src/iothubtransport_amqp_cbs_auth.c ****         {
 607:Source\azure_iot_sdk\iothub_client\src/iothubtransport_amqp_cbs_auth.c ****             // Codes_SRS_IOTHUBTRANSPORT_AMQP_AUTH_09_084: [If no timeout has occurred, authenticat
 608:Source\azure_iot_sdk\iothub_client\src/iothubtransport_amqp_cbs_auth.c **** 
 609:Source\azure_iot_sdk\iothub_client\src/iothubtransport_amqp_cbs_auth.c ****             bool is_timed_out;
 610:Source\azure_iot_sdk\iothub_client\src/iothubtransport_amqp_cbs_auth.c ****             if (verify_cbs_put_token_timeout(instance, &is_timed_out) == RESULT_OK && is_timed_out)
 611:Source\azure_iot_sdk\iothub_client\src/iothubtransport_amqp_cbs_auth.c ****             {
 612:Source\azure_iot_sdk\iothub_client\src/iothubtransport_amqp_cbs_auth.c ****                 // Codes_SRS_IOTHUBTRANSPORT_AMQP_AUTH_09_085: [`instance->is_cbs_put_token_in_prog
 613:Source\azure_iot_sdk\iothub_client\src/iothubtransport_amqp_cbs_auth.c ****                 instance->is_cbs_put_token_in_progress = false;
 614:Source\azure_iot_sdk\iothub_client\src/iothubtransport_amqp_cbs_auth.c **** 
 615:Source\azure_iot_sdk\iothub_client\src/iothubtransport_amqp_cbs_auth.c ****                 // Codes_SRS_IOTHUBTRANSPORT_AMQP_AUTH_09_086: [`instance->state` shall be updated 
 616:Source\azure_iot_sdk\iothub_client\src/iothubtransport_amqp_cbs_auth.c ****                 update_state(instance, AUTHENTICATION_STATE_ERROR);
 617:Source\azure_iot_sdk\iothub_client\src/iothubtransport_amqp_cbs_auth.c **** 
 618:Source\azure_iot_sdk\iothub_client\src/iothubtransport_amqp_cbs_auth.c ****                 if (instance->is_sas_token_refresh_in_progress)
 619:Source\azure_iot_sdk\iothub_client\src/iothubtransport_amqp_cbs_auth.c ****                 {
 620:Source\azure_iot_sdk\iothub_client\src/iothubtransport_amqp_cbs_auth.c ****                     // Codes_SRS_IOTHUBTRANSPORT_AMQP_AUTH_09_087: [If `instance->is_sas_token_refr
 621:Source\azure_iot_sdk\iothub_client\src/iothubtransport_amqp_cbs_auth.c ****                     notify_error(instance, AUTHENTICATION_ERROR_SAS_REFRESH_TIMEOUT);
 622:Source\azure_iot_sdk\iothub_client\src/iothubtransport_amqp_cbs_auth.c ****                 }
 623:Source\azure_iot_sdk\iothub_client\src/iothubtransport_amqp_cbs_auth.c ****                 else
 624:Source\azure_iot_sdk\iothub_client\src/iothubtransport_amqp_cbs_auth.c ****                 {
 625:Source\azure_iot_sdk\iothub_client\src/iothubtransport_amqp_cbs_auth.c ****                     // Codes_SRS_IOTHUBTRANSPORT_AMQP_AUTH_09_088: [If `instance->is_sas_token_refr
 626:Source\azure_iot_sdk\iothub_client\src/iothubtransport_amqp_cbs_auth.c ****                     notify_error(instance, AUTHENTICATION_ERROR_AUTH_TIMEOUT);
 627:Source\azure_iot_sdk\iothub_client\src/iothubtransport_amqp_cbs_auth.c ****                 }
 628:Source\azure_iot_sdk\iothub_client\src/iothubtransport_amqp_cbs_auth.c **** 
 629:Source\azure_iot_sdk\iothub_client\src/iothubtransport_amqp_cbs_auth.c ****                 // Codes_SRS_IOTHUBTRANSPORT_AMQP_AUTH_09_089: [`instance->is_sas_token_refresh_in_
 630:Source\azure_iot_sdk\iothub_client\src/iothubtransport_amqp_cbs_auth.c ****                 instance->is_sas_token_refresh_in_progress = false;
 631:Source\azure_iot_sdk\iothub_client\src/iothubtransport_amqp_cbs_auth.c ****             }
 632:Source\azure_iot_sdk\iothub_client\src/iothubtransport_amqp_cbs_auth.c ****         }
 633:Source\azure_iot_sdk\iothub_client\src/iothubtransport_amqp_cbs_auth.c ****         else if (instance->state == AUTHENTICATION_STATE_STARTED)
 634:Source\azure_iot_sdk\iothub_client\src/iothubtransport_amqp_cbs_auth.c ****         {
 635:Source\azure_iot_sdk\iothub_client\src/iothubtransport_amqp_cbs_auth.c ****             // Codes_SRS_IOTHUBTRANSPORT_AMQP_AUTH_09_040: [If `instance->state` is AUTHENTICATION_
 636:Source\azure_iot_sdk\iothub_client\src/iothubtransport_amqp_cbs_auth.c ****             if (IoTHubClient_Auth_Get_Credential_Type(instance->authorization_module) == IOTHUB_CRE
 637:Source\azure_iot_sdk\iothub_client\src/iothubtransport_amqp_cbs_auth.c ****             {
 638:Source\azure_iot_sdk\iothub_client\src/iothubtransport_amqp_cbs_auth.c ****                 // Codes_SRS_IOTHUBTRANSPORT_AMQP_AUTH_09_039: [If `instance->state` is AUTHENTICAT
 639:Source\azure_iot_sdk\iothub_client\src/iothubtransport_amqp_cbs_auth.c ****                 // Codes_SRS_IOTHUBTRANSPORT_AMQP_AUTH_09_065: [The SAS token shall be refreshed if
 640:Source\azure_iot_sdk\iothub_client\src/iothubtransport_amqp_cbs_auth.c ****                 // Codes_SRS_IOTHUBTRANSPORT_AMQP_AUTH_09_066: [If SAS token does not need to be re
 641:Source\azure_iot_sdk\iothub_client\src/iothubtransport_amqp_cbs_auth.c ****                 bool is_timed_out;
 642:Source\azure_iot_sdk\iothub_client\src/iothubtransport_amqp_cbs_auth.c ****                 if (verify_sas_token_refresh_timeout(instance, &is_timed_out) == RESULT_OK && is_ti
 643:Source\azure_iot_sdk\iothub_client\src/iothubtransport_amqp_cbs_auth.c ****                 {
 644:Source\azure_iot_sdk\iothub_client\src/iothubtransport_amqp_cbs_auth.c ****                     // Codes_SRS_IOTHUBTRANSPORT_AMQP_AUTH_09_119: [authentication_do_work() shall 
 645:Source\azure_iot_sdk\iothub_client\src/iothubtransport_amqp_cbs_auth.c ****                     instance->is_sas_token_refresh_in_progress = true;
 646:Source\azure_iot_sdk\iothub_client\src/iothubtransport_amqp_cbs_auth.c **** 
ARM GAS  C:\Users\Phuong\AppData\Local\Temp\ccPPbPWA.s 			page 37


 647:Source\azure_iot_sdk\iothub_client\src/iothubtransport_amqp_cbs_auth.c ****                     // Codes_SRS_IOTHUBTRANSPORT_AMQP_AUTH_09_067: [authentication_do_work() shall 
 648:Source\azure_iot_sdk\iothub_client\src/iothubtransport_amqp_cbs_auth.c ****                     // Codes_SRS_IOTHUBTRANSPORT_AMQP_AUTH_09_069: [If using `instance->device_prim
 649:Source\azure_iot_sdk\iothub_client\src/iothubtransport_amqp_cbs_auth.c ****                     // Codes_SRS_IOTHUBTRANSPORT_AMQP_AUTH_09_068: [If using `instance->device_prim
 650:Source\azure_iot_sdk\iothub_client\src/iothubtransport_amqp_cbs_auth.c ****                     if (create_and_put_SAS_token_to_cbs(instance) != RESULT_OK)
 651:Source\azure_iot_sdk\iothub_client\src/iothubtransport_amqp_cbs_auth.c ****                     {
 652:Source\azure_iot_sdk\iothub_client\src/iothubtransport_amqp_cbs_auth.c ****                         LogError("Failed refreshing SAS token '%'", instance->device_id);
 653:Source\azure_iot_sdk\iothub_client\src/iothubtransport_amqp_cbs_auth.c ****                     }
 654:Source\azure_iot_sdk\iothub_client\src/iothubtransport_amqp_cbs_auth.c **** 
 655:Source\azure_iot_sdk\iothub_client\src/iothubtransport_amqp_cbs_auth.c ****                     if (!instance->is_cbs_put_token_in_progress)
 656:Source\azure_iot_sdk\iothub_client\src/iothubtransport_amqp_cbs_auth.c ****                     {
 657:Source\azure_iot_sdk\iothub_client\src/iothubtransport_amqp_cbs_auth.c ****                         // Codes_SRS_IOTHUBTRANSPORT_AMQP_AUTH_09_120: [If cbs_put_token() fails, `
 658:Source\azure_iot_sdk\iothub_client\src/iothubtransport_amqp_cbs_auth.c ****                         instance->is_sas_token_refresh_in_progress = false;
 659:Source\azure_iot_sdk\iothub_client\src/iothubtransport_amqp_cbs_auth.c **** 
 660:Source\azure_iot_sdk\iothub_client\src/iothubtransport_amqp_cbs_auth.c ****                         // Codes_SRS_IOTHUBTRANSPORT_AMQP_AUTH_09_079: [If cbs_put_token() fails, `
 661:Source\azure_iot_sdk\iothub_client\src/iothubtransport_amqp_cbs_auth.c ****                         update_state(instance, AUTHENTICATION_STATE_ERROR);
 662:Source\azure_iot_sdk\iothub_client\src/iothubtransport_amqp_cbs_auth.c **** 
 663:Source\azure_iot_sdk\iothub_client\src/iothubtransport_amqp_cbs_auth.c ****                         // Codes_SRS_IOTHUBTRANSPORT_AMQP_AUTH_09_080: [If cbs_put_token() fails, `
 664:Source\azure_iot_sdk\iothub_client\src/iothubtransport_amqp_cbs_auth.c ****                         notify_error(instance, AUTHENTICATION_ERROR_SAS_REFRESH_FAILED);
 665:Source\azure_iot_sdk\iothub_client\src/iothubtransport_amqp_cbs_auth.c ****                     }
 666:Source\azure_iot_sdk\iothub_client\src/iothubtransport_amqp_cbs_auth.c ****                 }
 667:Source\azure_iot_sdk\iothub_client\src/iothubtransport_amqp_cbs_auth.c ****             }
 668:Source\azure_iot_sdk\iothub_client\src/iothubtransport_amqp_cbs_auth.c ****         }
 669:Source\azure_iot_sdk\iothub_client\src/iothubtransport_amqp_cbs_auth.c ****         else if (instance->state == AUTHENTICATION_STATE_STARTING)
 670:Source\azure_iot_sdk\iothub_client\src/iothubtransport_amqp_cbs_auth.c ****         {
 671:Source\azure_iot_sdk\iothub_client\src/iothubtransport_amqp_cbs_auth.c ****             if (create_and_put_SAS_token_to_cbs(instance) != RESULT_OK)
 672:Source\azure_iot_sdk\iothub_client\src/iothubtransport_amqp_cbs_auth.c ****             {
 673:Source\azure_iot_sdk\iothub_client\src/iothubtransport_amqp_cbs_auth.c ****                 LogError("Failed authenticating device '%s' using device keys", instance->device_id
 674:Source\azure_iot_sdk\iothub_client\src/iothubtransport_amqp_cbs_auth.c ****             }
 675:Source\azure_iot_sdk\iothub_client\src/iothubtransport_amqp_cbs_auth.c **** 
 676:Source\azure_iot_sdk\iothub_client\src/iothubtransport_amqp_cbs_auth.c ****             if (!instance->is_cbs_put_token_in_progress)
 677:Source\azure_iot_sdk\iothub_client\src/iothubtransport_amqp_cbs_auth.c ****             {
 678:Source\azure_iot_sdk\iothub_client\src/iothubtransport_amqp_cbs_auth.c ****                 // Codes_SRS_IOTHUBTRANSPORT_AMQP_AUTH_09_061: [If cbs_put_token() fails, `instance
 679:Source\azure_iot_sdk\iothub_client\src/iothubtransport_amqp_cbs_auth.c ****                 // Codes_SRS_IOTHUBTRANSPORT_AMQP_AUTH_09_121: [If cbs_put_token() fails, `instance
 680:Source\azure_iot_sdk\iothub_client\src/iothubtransport_amqp_cbs_auth.c ****                 update_state(instance, AUTHENTICATION_STATE_ERROR);
 681:Source\azure_iot_sdk\iothub_client\src/iothubtransport_amqp_cbs_auth.c **** 
 682:Source\azure_iot_sdk\iothub_client\src/iothubtransport_amqp_cbs_auth.c ****                 // Codes_SRS_IOTHUBTRANSPORT_AMQP_AUTH_09_062: [If cbs_put_token() fails, `instance
 683:Source\azure_iot_sdk\iothub_client\src/iothubtransport_amqp_cbs_auth.c ****                 // Codes_SRS_IOTHUBTRANSPORT_AMQP_AUTH_09_122: [If cbs_put_token() fails, `instance
 684:Source\azure_iot_sdk\iothub_client\src/iothubtransport_amqp_cbs_auth.c ****                 notify_error(instance, AUTHENTICATION_ERROR_AUTH_FAILED);
 685:Source\azure_iot_sdk\iothub_client\src/iothubtransport_amqp_cbs_auth.c ****             }
 686:Source\azure_iot_sdk\iothub_client\src/iothubtransport_amqp_cbs_auth.c ****         }
 687:Source\azure_iot_sdk\iothub_client\src/iothubtransport_amqp_cbs_auth.c ****         else
 688:Source\azure_iot_sdk\iothub_client\src/iothubtransport_amqp_cbs_auth.c ****         {
 689:Source\azure_iot_sdk\iothub_client\src/iothubtransport_amqp_cbs_auth.c ****             // Codes_SRS_IOTHUBTRANSPORT_AMQP_AUTH_09_037: [If `instance->state` is not AUTHENTICAT
 690:Source\azure_iot_sdk\iothub_client\src/iothubtransport_amqp_cbs_auth.c ****             // Nothing to be done.
 691:Source\azure_iot_sdk\iothub_client\src/iothubtransport_amqp_cbs_auth.c ****         }
 692:Source\azure_iot_sdk\iothub_client\src/iothubtransport_amqp_cbs_auth.c ****     }
 693:Source\azure_iot_sdk\iothub_client\src/iothubtransport_amqp_cbs_auth.c **** }
 694:Source\azure_iot_sdk\iothub_client\src/iothubtransport_amqp_cbs_auth.c **** 
 695:Source\azure_iot_sdk\iothub_client\src/iothubtransport_amqp_cbs_auth.c **** int authentication_set_option(AUTHENTICATION_HANDLE authentication_handle, const char* name, void* 
 696:Source\azure_iot_sdk\iothub_client\src/iothubtransport_amqp_cbs_auth.c **** {
 1343              		.loc 1 696 0
 1344              		.cfi_startproc
 1345              		@ args = 0, pretend = 0, frame = 0
 1346              		@ frame_needed = 0, uses_anonymous_args = 0
 1347              	.LVL219:
 1348 0000 F0B5     		push	{r4, r5, r6, r7, lr}
 1349              		.cfi_def_cfa_offset 20
ARM GAS  C:\Users\Phuong\AppData\Local\Temp\ccPPbPWA.s 			page 38


 1350              		.cfi_offset 4, -20
 1351              		.cfi_offset 5, -16
 1352              		.cfi_offset 6, -12
 1353              		.cfi_offset 7, -8
 1354              		.cfi_offset 14, -4
 1355 0002 87B0     		sub	sp, sp, #28
 1356              		.cfi_def_cfa_offset 48
 1357 0004 0500     		movs	r5, r0
 1358 0006 0C00     		movs	r4, r1
 1359 0008 1600     		movs	r6, r2
 697:Source\azure_iot_sdk\iothub_client\src/iothubtransport_amqp_cbs_auth.c ****     int result;
 698:Source\azure_iot_sdk\iothub_client\src/iothubtransport_amqp_cbs_auth.c **** 
 699:Source\azure_iot_sdk\iothub_client\src/iothubtransport_amqp_cbs_auth.c ****     // Codes_SRS_IOTHUBTRANSPORT_AMQP_AUTH_09_097: [If `authentication_handle` or `name` or `value`
 700:Source\azure_iot_sdk\iothub_client\src/iothubtransport_amqp_cbs_auth.c ****     if (authentication_handle == NULL || name == NULL || value == NULL)
 1360              		.loc 1 700 0
 1361 000a 0028     		cmp	r0, #0
 1362 000c 03D0     		beq	.L75
 1363              		.loc 1 700 0 is_stmt 0 discriminator 1
 1364 000e 0029     		cmp	r1, #0
 1365 0010 01D0     		beq	.L75
 1366              		.loc 1 700 0 discriminator 2
 1367 0012 002A     		cmp	r2, #0
 1368 0014 13D1     		bne	.L76
 1369              	.L75:
 1370              	.LBB30:
 701:Source\azure_iot_sdk\iothub_client\src/iothubtransport_amqp_cbs_auth.c ****     {
 702:Source\azure_iot_sdk\iothub_client\src/iothubtransport_amqp_cbs_auth.c ****         LogError("authentication_set_option failed (one of the followin are NULL: authentication_ha
 1371              		.loc 1 702 0 is_stmt 1 discriminator 3
 1372 0016 FFF7FEFF 		bl	xlogging_get_log_function
 1373              	.LVL220:
 1374 001a 071E     		subs	r7, r0, #0
 1375              	.LVL221:
 1376 001c 56D0     		beq	.L82
 1377              		.loc 1 702 0 is_stmt 0 discriminator 4
 1378 001e 0496     		str	r6, [sp, #16]
 1379 0020 0394     		str	r4, [sp, #12]
 1380 0022 0295     		str	r5, [sp, #8]
 1381 0024 2E4B     		ldr	r3, .L86
 1382 0026 0193     		str	r3, [sp, #4]
 1383 0028 0123     		movs	r3, #1
 1384 002a 0093     		str	r3, [sp]
 1385 002c 2D4B     		ldr	r3, .L86+4
 1386 002e 2E4A     		ldr	r2, .L86+8
 1387 0030 5C32     		adds	r2, r2, #92
 1388 0032 2E49     		ldr	r1, .L86+12
 1389 0034 0020     		movs	r0, #0
 1390              	.LVL222:
 1391 0036 B847     		blx	r7
 1392              	.LVL223:
 1393              	.LBE30:
 703:Source\azure_iot_sdk\iothub_client\src/iothubtransport_amqp_cbs_auth.c ****             authentication_handle, name, value);
 704:Source\azure_iot_sdk\iothub_client\src/iothubtransport_amqp_cbs_auth.c ****         result = __FAILURE__;
 1394              		.loc 1 704 0 is_stmt 1 discriminator 4
 1395 0038 B020     		movs	r0, #176
 1396 003a 8000     		lsls	r0, r0, #2
 1397 003c 4EE0     		b	.L77
 1398              	.LVL224:
ARM GAS  C:\Users\Phuong\AppData\Local\Temp\ccPPbPWA.s 			page 39


 1399              	.L76:
 1400              	.LBB31:
 705:Source\azure_iot_sdk\iothub_client\src/iothubtransport_amqp_cbs_auth.c ****     }
 706:Source\azure_iot_sdk\iothub_client\src/iothubtransport_amqp_cbs_auth.c ****     else
 707:Source\azure_iot_sdk\iothub_client\src/iothubtransport_amqp_cbs_auth.c ****     {
 708:Source\azure_iot_sdk\iothub_client\src/iothubtransport_amqp_cbs_auth.c ****         AUTHENTICATION_INSTANCE* instance = (AUTHENTICATION_INSTANCE*)authentication_handle;
 709:Source\azure_iot_sdk\iothub_client\src/iothubtransport_amqp_cbs_auth.c **** 
 710:Source\azure_iot_sdk\iothub_client\src/iothubtransport_amqp_cbs_auth.c ****         // Codes_SRS_IOTHUBTRANSPORT_AMQP_AUTH_09_098: [If name matches AUTHENTICATION_OPTION_CBS_R
 711:Source\azure_iot_sdk\iothub_client\src/iothubtransport_amqp_cbs_auth.c ****         if (strcmp(AUTHENTICATION_OPTION_CBS_REQUEST_TIMEOUT_SECS, name) == 0)
 1401              		.loc 1 711 0
 1402 003e 2C48     		ldr	r0, .L86+16
 1403              	.LVL225:
 1404 0040 FFF7FEFF 		bl	strcmp
 1405              	.LVL226:
 1406 0044 0028     		cmp	r0, #0
 1407 0046 02D1     		bne	.L78
 712:Source\azure_iot_sdk\iothub_client\src/iothubtransport_amqp_cbs_auth.c ****         {
 713:Source\azure_iot_sdk\iothub_client\src/iothubtransport_amqp_cbs_auth.c ****             instance->cbs_request_timeout_secs = *((size_t*)value);
 1408              		.loc 1 713 0
 1409 0048 3368     		ldr	r3, [r6]
 1410 004a EB61     		str	r3, [r5, #28]
 1411              	.LVL227:
 1412 004c 46E0     		b	.L77
 1413              	.LVL228:
 1414              	.L78:
 714:Source\azure_iot_sdk\iothub_client\src/iothubtransport_amqp_cbs_auth.c ****             result = RESULT_OK;
 715:Source\azure_iot_sdk\iothub_client\src/iothubtransport_amqp_cbs_auth.c ****         }
 716:Source\azure_iot_sdk\iothub_client\src/iothubtransport_amqp_cbs_auth.c ****         // Codes_SRS_IOTHUBTRANSPORT_AMQP_AUTH_09_124: [If name matches AUTHENTICATION_OPTION_SAS_T
 717:Source\azure_iot_sdk\iothub_client\src/iothubtransport_amqp_cbs_auth.c ****         else if (strcmp(AUTHENTICATION_OPTION_SAS_TOKEN_REFRESH_TIME_SECS, name) == 0)
 1415              		.loc 1 717 0
 1416 004e 2100     		movs	r1, r4
 1417 0050 2848     		ldr	r0, .L86+20
 1418 0052 FFF7FEFF 		bl	strcmp
 1419              	.LVL229:
 1420 0056 0028     		cmp	r0, #0
 1421 0058 02D1     		bne	.L79
 718:Source\azure_iot_sdk\iothub_client\src/iothubtransport_amqp_cbs_auth.c ****         {
 719:Source\azure_iot_sdk\iothub_client\src/iothubtransport_amqp_cbs_auth.c ****             instance->sas_token_refresh_time_secs = *((size_t*)value);
 1422              		.loc 1 719 0
 1423 005a 3368     		ldr	r3, [r6]
 1424 005c 6B62     		str	r3, [r5, #36]
 1425              	.LVL230:
 1426 005e 3DE0     		b	.L77
 1427              	.LVL231:
 1428              	.L79:
 720:Source\azure_iot_sdk\iothub_client\src/iothubtransport_amqp_cbs_auth.c ****             result = RESULT_OK;
 721:Source\azure_iot_sdk\iothub_client\src/iothubtransport_amqp_cbs_auth.c ****         }
 722:Source\azure_iot_sdk\iothub_client\src/iothubtransport_amqp_cbs_auth.c ****         // Codes_SRS_IOTHUBTRANSPORT_AMQP_AUTH_09_125: [If name matches AUTHENTICATION_OPTION_SAS_T
 723:Source\azure_iot_sdk\iothub_client\src/iothubtransport_amqp_cbs_auth.c ****         else if (strcmp(AUTHENTICATION_OPTION_SAS_TOKEN_LIFETIME_SECS, name) == 0)
 1429              		.loc 1 723 0
 1430 0060 2100     		movs	r1, r4
 1431 0062 2548     		ldr	r0, .L86+24
 1432 0064 FFF7FEFF 		bl	strcmp
 1433              	.LVL232:
 1434 0068 0028     		cmp	r0, #0
 1435 006a 02D1     		bne	.L80
 724:Source\azure_iot_sdk\iothub_client\src/iothubtransport_amqp_cbs_auth.c ****         {
ARM GAS  C:\Users\Phuong\AppData\Local\Temp\ccPPbPWA.s 			page 40


 725:Source\azure_iot_sdk\iothub_client\src/iothubtransport_amqp_cbs_auth.c ****             instance->sas_token_lifetime_secs = *((size_t*)value);
 1436              		.loc 1 725 0
 1437 006c 3368     		ldr	r3, [r6]
 1438 006e 2B62     		str	r3, [r5, #32]
 1439              	.LVL233:
 1440 0070 34E0     		b	.L77
 1441              	.LVL234:
 1442              	.L80:
 726:Source\azure_iot_sdk\iothub_client\src/iothubtransport_amqp_cbs_auth.c ****             result = RESULT_OK;
 727:Source\azure_iot_sdk\iothub_client\src/iothubtransport_amqp_cbs_auth.c ****         }
 728:Source\azure_iot_sdk\iothub_client\src/iothubtransport_amqp_cbs_auth.c ****         else if (strcmp(AUTHENTICATION_OPTION_SAVED_OPTIONS, name) == 0)
 1443              		.loc 1 728 0
 1444 0072 2100     		movs	r1, r4
 1445 0074 2148     		ldr	r0, .L86+28
 1446 0076 FFF7FEFF 		bl	strcmp
 1447              	.LVL235:
 1448 007a 0028     		cmp	r0, #0
 1449 007c 15D1     		bne	.L81
 729:Source\azure_iot_sdk\iothub_client\src/iothubtransport_amqp_cbs_auth.c ****         {
 730:Source\azure_iot_sdk\iothub_client\src/iothubtransport_amqp_cbs_auth.c ****             // Codes_SRS_IOTHUBTRANSPORT_AMQP_AUTH_09_098: [If name matches AUTHENTICATION_OPTION_S
 731:Source\azure_iot_sdk\iothub_client\src/iothubtransport_amqp_cbs_auth.c ****             if (OptionHandler_FeedOptions((OPTIONHANDLER_HANDLE)value, authentication_handle) != OP
 1450              		.loc 1 731 0
 1451 007e 2900     		movs	r1, r5
 1452 0080 3000     		movs	r0, r6
 1453 0082 FFF7FEFF 		bl	OptionHandler_FeedOptions
 1454              	.LVL236:
 1455 0086 0028     		cmp	r0, #0
 1456 0088 23D0     		beq	.L83
 1457              	.LBB32:
 732:Source\azure_iot_sdk\iothub_client\src/iothubtransport_amqp_cbs_auth.c ****             {
 733:Source\azure_iot_sdk\iothub_client\src/iothubtransport_amqp_cbs_auth.c ****                 // Codes_SRS_IOTHUBTRANSPORT_AMQP_AUTH_09_126: [If OptionHandler_FeedOptions fails,
 734:Source\azure_iot_sdk\iothub_client\src/iothubtransport_amqp_cbs_auth.c ****                 LogError("authentication_set_option failed (OptionHandler_FeedOptions failed)");
 1458              		.loc 1 734 0 discriminator 3
 1459 008a FFF7FEFF 		bl	xlogging_get_log_function
 1460              	.LVL237:
 1461 008e 041E     		subs	r4, r0, #0
 1462              	.LVL238:
 1463 0090 21D0     		beq	.L84
 1464              		.loc 1 734 0 is_stmt 0 discriminator 4
 1465 0092 1B4B     		ldr	r3, .L86+32
 1466 0094 0193     		str	r3, [sp, #4]
 1467 0096 0123     		movs	r3, #1
 1468 0098 0093     		str	r3, [sp]
 1469 009a 1A4B     		ldr	r3, .L86+36
 1470 009c 124A     		ldr	r2, .L86+8
 1471 009e 5C32     		adds	r2, r2, #92
 1472 00a0 1249     		ldr	r1, .L86+12
 1473 00a2 0020     		movs	r0, #0
 1474              	.LVL239:
 1475 00a4 A047     		blx	r4
 1476              	.LVL240:
 1477              	.LBE32:
 735:Source\azure_iot_sdk\iothub_client\src/iothubtransport_amqp_cbs_auth.c ****                 result = __FAILURE__;
 1478              		.loc 1 735 0 is_stmt 1 discriminator 4
 1479 00a6 1848     		ldr	r0, .L86+40
 1480 00a8 18E0     		b	.L77
 1481              	.LVL241:
ARM GAS  C:\Users\Phuong\AppData\Local\Temp\ccPPbPWA.s 			page 41


 1482              	.L81:
 1483              	.LBB33:
 736:Source\azure_iot_sdk\iothub_client\src/iothubtransport_amqp_cbs_auth.c ****             }
 737:Source\azure_iot_sdk\iothub_client\src/iothubtransport_amqp_cbs_auth.c ****             else
 738:Source\azure_iot_sdk\iothub_client\src/iothubtransport_amqp_cbs_auth.c ****             {
 739:Source\azure_iot_sdk\iothub_client\src/iothubtransport_amqp_cbs_auth.c ****                 result = RESULT_OK;
 740:Source\azure_iot_sdk\iothub_client\src/iothubtransport_amqp_cbs_auth.c ****             }
 741:Source\azure_iot_sdk\iothub_client\src/iothubtransport_amqp_cbs_auth.c ****         }
 742:Source\azure_iot_sdk\iothub_client\src/iothubtransport_amqp_cbs_auth.c ****         else
 743:Source\azure_iot_sdk\iothub_client\src/iothubtransport_amqp_cbs_auth.c ****         {
 744:Source\azure_iot_sdk\iothub_client\src/iothubtransport_amqp_cbs_auth.c ****             // Codes_SRS_IOTHUBTRANSPORT_AMQP_AUTH_09_128: [If name does not match any supported op
 745:Source\azure_iot_sdk\iothub_client\src/iothubtransport_amqp_cbs_auth.c ****             LogError("authentication_set_option failed (option with name '%s' is not suppported)", 
 1484              		.loc 1 745 0 discriminator 3
 1485 00aa FFF7FEFF 		bl	xlogging_get_log_function
 1486              	.LVL242:
 1487 00ae 051E     		subs	r5, r0, #0
 1488              	.LVL243:
 1489 00b0 13D0     		beq	.L85
 1490              		.loc 1 745 0 is_stmt 0 discriminator 4
 1491 00b2 0294     		str	r4, [sp, #8]
 1492 00b4 154B     		ldr	r3, .L86+44
 1493 00b6 0193     		str	r3, [sp, #4]
 1494 00b8 0123     		movs	r3, #1
 1495 00ba 0093     		str	r3, [sp]
 1496 00bc 144B     		ldr	r3, .L86+48
 1497 00be 0A4A     		ldr	r2, .L86+8
 1498 00c0 5C32     		adds	r2, r2, #92
 1499 00c2 0A49     		ldr	r1, .L86+12
 1500 00c4 0020     		movs	r0, #0
 1501              	.LVL244:
 1502 00c6 A847     		blx	r5
 1503              	.LVL245:
 1504              	.LBE33:
 746:Source\azure_iot_sdk\iothub_client\src/iothubtransport_amqp_cbs_auth.c ****             result = __FAILURE__;
 1505              		.loc 1 746 0 is_stmt 1 discriminator 4
 1506 00c8 1248     		ldr	r0, .L86+52
 1507 00ca 07E0     		b	.L77
 1508              	.LVL246:
 1509              	.L82:
 1510              	.LBE31:
 704:Source\azure_iot_sdk\iothub_client\src/iothubtransport_amqp_cbs_auth.c ****     }
 1511              		.loc 1 704 0
 1512 00cc B020     		movs	r0, #176
 1513              	.LVL247:
 1514 00ce 8000     		lsls	r0, r0, #2
 1515 00d0 04E0     		b	.L77
 1516              	.LVL248:
 1517              	.L83:
 1518              	.LBB34:
 739:Source\azure_iot_sdk\iothub_client\src/iothubtransport_amqp_cbs_auth.c ****             }
 1519              		.loc 1 739 0
 1520 00d2 0020     		movs	r0, #0
 1521 00d4 02E0     		b	.L77
 1522              	.LVL249:
 1523              	.L84:
 735:Source\azure_iot_sdk\iothub_client\src/iothubtransport_amqp_cbs_auth.c ****             }
 1524              		.loc 1 735 0
ARM GAS  C:\Users\Phuong\AppData\Local\Temp\ccPPbPWA.s 			page 42


 1525 00d6 0C48     		ldr	r0, .L86+40
 1526              	.LVL250:
 1527 00d8 00E0     		b	.L77
 1528              	.LVL251:
 1529              	.L85:
 1530              		.loc 1 746 0
 1531 00da 0E48     		ldr	r0, .L86+52
 1532              	.LVL252:
 1533              	.L77:
 1534              	.LBE34:
 747:Source\azure_iot_sdk\iothub_client\src/iothubtransport_amqp_cbs_auth.c ****         }
 748:Source\azure_iot_sdk\iothub_client\src/iothubtransport_amqp_cbs_auth.c ****     }
 749:Source\azure_iot_sdk\iothub_client\src/iothubtransport_amqp_cbs_auth.c **** 
 750:Source\azure_iot_sdk\iothub_client\src/iothubtransport_amqp_cbs_auth.c ****     // Codes_SRS_IOTHUBTRANSPORT_AMQP_AUTH_09_099: [If no errors occur, authentication_set_option s
 751:Source\azure_iot_sdk\iothub_client\src/iothubtransport_amqp_cbs_auth.c ****     return result;
 752:Source\azure_iot_sdk\iothub_client\src/iothubtransport_amqp_cbs_auth.c **** }
 1535              		.loc 1 752 0
 1536 00dc 07B0     		add	sp, sp, #28
 1537              		@ sp needed
 1538              	.LVL253:
 1539 00de F0BD     		pop	{r4, r5, r6, r7, pc}
 1540              	.L87:
 1541              		.align	2
 1542              	.L86:
 1543 00e0 24050000 		.word	.LC68
 1544 00e4 BF020000 		.word	703
 1545 00e8 80000000 		.word	.LANCHOR1
 1546 00ec 00000000 		.word	.LC1
 1547 00f0 64040000 		.word	.LC56
 1548 00f4 80040000 		.word	.LC58
 1549 00f8 9C040000 		.word	.LC60
 1550 00fc B4040000 		.word	.LC62
 1551 0100 94050000 		.word	.LC74
 1552 0104 DE020000 		.word	734
 1553 0108 DF020000 		.word	735
 1554 010c D8050000 		.word	.LC76
 1555 0110 E9020000 		.word	745
 1556 0114 EA020000 		.word	746
 1557              		.cfi_endproc
 1558              	.LFE16:
 1559              		.size	authentication_set_option, .-authentication_set_option
 1560              		.section	.text.authentication_destroy_option,"ax",%progbits
 1561              		.align	2
 1562              		.code	16
 1563              		.thumb_func
 1564              		.type	authentication_destroy_option, %function
 1565              	authentication_destroy_option:
 1566              	.LFB10:
 376:Source\azure_iot_sdk\iothub_client\src/iothubtransport_amqp_cbs_auth.c ****     if (name == NULL)
 1567              		.loc 1 376 0
 1568              		.cfi_startproc
 1569              		@ args = 0, pretend = 0, frame = 0
 1570              		@ frame_needed = 0, uses_anonymous_args = 0
 1571              	.LVL254:
 1572 0000 10B5     		push	{r4, lr}
 1573              		.cfi_def_cfa_offset 8
 1574              		.cfi_offset 4, -8
ARM GAS  C:\Users\Phuong\AppData\Local\Temp\ccPPbPWA.s 			page 43


 1575              		.cfi_offset 14, -4
 1576 0002 82B0     		sub	sp, sp, #8
 1577              		.cfi_def_cfa_offset 16
 1578 0004 0C00     		movs	r4, r1
 377:Source\azure_iot_sdk\iothub_client\src/iothubtransport_amqp_cbs_auth.c ****     {
 1579              		.loc 1 377 0
 1580 0006 0028     		cmp	r0, #0
 1581 0008 0FD1     		bne	.L89
 1582              	.LBB35:
 379:Source\azure_iot_sdk\iothub_client\src/iothubtransport_amqp_cbs_auth.c ****     }
 1583              		.loc 1 379 0 discriminator 3
 1584 000a FFF7FEFF 		bl	xlogging_get_log_function
 1585              	.LVL255:
 1586 000e 041E     		subs	r4, r0, #0
 1587              	.LVL256:
 1588 0010 25D0     		beq	.L88
 379:Source\azure_iot_sdk\iothub_client\src/iothubtransport_amqp_cbs_auth.c ****     }
 1589              		.loc 1 379 0 is_stmt 0 discriminator 4
 1590 0012 144B     		ldr	r3, .L92
 1591 0014 0193     		str	r3, [sp, #4]
 1592 0016 0123     		movs	r3, #1
 1593 0018 0093     		str	r3, [sp]
 1594 001a 7C23     		movs	r3, #124
 1595 001c FF33     		adds	r3, r3, #255
 1596 001e 124A     		ldr	r2, .L92+4
 1597 0020 7832     		adds	r2, r2, #120
 1598 0022 1249     		ldr	r1, .L92+8
 1599 0024 0020     		movs	r0, #0
 1600              	.LVL257:
 1601 0026 A047     		blx	r4
 1602              	.LVL258:
 1603 0028 19E0     		b	.L88
 1604              	.LVL259:
 1605              	.L89:
 1606              	.LBE35:
 381:Source\azure_iot_sdk\iothub_client\src/iothubtransport_amqp_cbs_auth.c ****     {
 1607              		.loc 1 381 0 is_stmt 1
 1608 002a 0029     		cmp	r1, #0
 1609 002c 0FD1     		bne	.L91
 1610              	.LBB36:
 383:Source\azure_iot_sdk\iothub_client\src/iothubtransport_amqp_cbs_auth.c ****     }
 1611              		.loc 1 383 0 discriminator 3
 1612 002e FFF7FEFF 		bl	xlogging_get_log_function
 1613              	.LVL260:
 1614 0032 041E     		subs	r4, r0, #0
 1615              	.LVL261:
 1616 0034 13D0     		beq	.L88
 383:Source\azure_iot_sdk\iothub_client\src/iothubtransport_amqp_cbs_auth.c ****     }
 1617              		.loc 1 383 0 is_stmt 0 discriminator 4
 1618 0036 0E4B     		ldr	r3, .L92+12
 1619 0038 0193     		str	r3, [sp, #4]
 1620 003a 0123     		movs	r3, #1
 1621 003c 0093     		str	r3, [sp]
 1622 003e 8023     		movs	r3, #128
 1623 0040 FF33     		adds	r3, r3, #255
 1624 0042 094A     		ldr	r2, .L92+4
 1625 0044 7832     		adds	r2, r2, #120
ARM GAS  C:\Users\Phuong\AppData\Local\Temp\ccPPbPWA.s 			page 44


 1626 0046 0949     		ldr	r1, .L92+8
 1627 0048 0020     		movs	r0, #0
 1628              	.LVL262:
 1629 004a A047     		blx	r4
 1630              	.LVL263:
 1631 004c 07E0     		b	.L88
 1632              	.LVL264:
 1633              	.L91:
 1634              	.LBE36:
 387:Source\azure_iot_sdk\iothub_client\src/iothubtransport_amqp_cbs_auth.c ****         {
 1635              		.loc 1 387 0 is_stmt 1
 1636 004e 0949     		ldr	r1, .L92+16
 1637              	.LVL265:
 1638 0050 FFF7FEFF 		bl	strcmp
 1639              	.LVL266:
 1640 0054 0028     		cmp	r0, #0
 1641 0056 02D1     		bne	.L88
 389:Source\azure_iot_sdk\iothub_client\src/iothubtransport_amqp_cbs_auth.c ****         }
 1642              		.loc 1 389 0
 1643 0058 2000     		movs	r0, r4
 1644 005a FFF7FEFF 		bl	OptionHandler_Destroy
 1645              	.LVL267:
 1646              	.L88:
 392:Source\azure_iot_sdk\iothub_client\src/iothubtransport_amqp_cbs_auth.c **** 
 1647              		.loc 1 392 0
 1648 005e 02B0     		add	sp, sp, #8
 1649              		@ sp needed
 1650 0060 10BD     		pop	{r4, pc}
 1651              	.L93:
 1652 0062 C046     		.align	2
 1653              	.L92:
 1654 0064 24060000 		.word	.LC80
 1655 0068 80000000 		.word	.LANCHOR1
 1656 006c 00000000 		.word	.LC1
 1657 0070 5C060000 		.word	.LC82
 1658 0074 B4040000 		.word	.LC62
 1659              		.cfi_endproc
 1660              	.LFE10:
 1661              		.size	authentication_destroy_option, .-authentication_destroy_option
 1662              		.section	.text.authentication_start,"ax",%progbits
 1663              		.align	2
 1664              		.global	authentication_start
 1665              		.code	16
 1666              		.thumb_func
 1667              		.type	authentication_start, %function
 1668              	authentication_start:
 1669              	.LFB11:
 396:Source\azure_iot_sdk\iothub_client\src/iothubtransport_amqp_cbs_auth.c ****     int result;
 1670              		.loc 1 396 0
 1671              		.cfi_startproc
 1672              		@ args = 0, pretend = 0, frame = 0
 1673              		@ frame_needed = 0, uses_anonymous_args = 0
 1674              	.LVL268:
 1675 0000 30B5     		push	{r4, r5, lr}
 1676              		.cfi_def_cfa_offset 12
 1677              		.cfi_offset 4, -12
 1678              		.cfi_offset 5, -8
ARM GAS  C:\Users\Phuong\AppData\Local\Temp\ccPPbPWA.s 			page 45


 1679              		.cfi_offset 14, -4
 1680 0002 85B0     		sub	sp, sp, #20
 1681              		.cfi_def_cfa_offset 32
 1682 0004 041E     		subs	r4, r0, #0
 400:Source\azure_iot_sdk\iothub_client\src/iothubtransport_amqp_cbs_auth.c ****     {
 1683              		.loc 1 400 0
 1684 0006 11D1     		bne	.L95
 1685              	.LVL269:
 1686              	.LBB37:
 403:Source\azure_iot_sdk\iothub_client\src/iothubtransport_amqp_cbs_auth.c ****     }
 1687              		.loc 1 403 0
 1688 0008 FFF7FEFF 		bl	xlogging_get_log_function
 1689              	.LVL270:
 1690 000c 041E     		subs	r4, r0, #0
 1691              	.LVL271:
 1692 000e 40D0     		beq	.L99
 403:Source\azure_iot_sdk\iothub_client\src/iothubtransport_amqp_cbs_auth.c ****     }
 1693              		.loc 1 403 0 is_stmt 0 discriminator 4
 1694 0010 254B     		ldr	r3, .L102
 1695 0012 0193     		str	r3, [sp, #4]
 1696 0014 0123     		movs	r3, #1
 1697 0016 0093     		str	r3, [sp]
 1698 0018 9423     		movs	r3, #148
 1699 001a FF33     		adds	r3, r3, #255
 1700 001c 234A     		ldr	r2, .L102+4
 1701 001e 1832     		adds	r2, r2, #24
 1702 0020 2349     		ldr	r1, .L102+8
 1703 0022 0020     		movs	r0, #0
 1704              	.LVL272:
 1705 0024 A047     		blx	r4
 1706              	.LVL273:
 1707              	.LBE37:
 402:Source\azure_iot_sdk\iothub_client\src/iothubtransport_amqp_cbs_auth.c ****         LogError("authentication_start failed (authentication_handle is NULL)");
 1708              		.loc 1 402 0 is_stmt 1 discriminator 4
 1709 0026 C920     		movs	r0, #201
 1710 0028 4000     		lsls	r0, r0, #1
 1711 002a 3AE0     		b	.L96
 1712              	.LVL274:
 1713              	.L95:
 406:Source\azure_iot_sdk\iothub_client\src/iothubtransport_amqp_cbs_auth.c ****     {
 1714              		.loc 1 406 0
 1715 002c 0029     		cmp	r1, #0
 1716 002e 11D1     		bne	.L97
 1717              	.LVL275:
 1718              	.LBB38:
 409:Source\azure_iot_sdk\iothub_client\src/iothubtransport_amqp_cbs_auth.c ****     }
 1719              		.loc 1 409 0
 1720 0030 FFF7FEFF 		bl	xlogging_get_log_function
 1721              	.LVL276:
 1722 0034 041E     		subs	r4, r0, #0
 1723              	.LVL277:
 1724 0036 2FD0     		beq	.L100
 409:Source\azure_iot_sdk\iothub_client\src/iothubtransport_amqp_cbs_auth.c ****     }
 1725              		.loc 1 409 0 is_stmt 0 discriminator 4
 1726 0038 1E4B     		ldr	r3, .L102+12
 1727 003a 0193     		str	r3, [sp, #4]
 1728 003c 0123     		movs	r3, #1
ARM GAS  C:\Users\Phuong\AppData\Local\Temp\ccPPbPWA.s 			page 46


 1729 003e 0093     		str	r3, [sp]
 1730 0040 9A23     		movs	r3, #154
 1731 0042 FF33     		adds	r3, r3, #255
 1732 0044 194A     		ldr	r2, .L102+4
 1733 0046 1832     		adds	r2, r2, #24
 1734 0048 1949     		ldr	r1, .L102+8
 1735 004a 0020     		movs	r0, #0
 1736              	.LVL278:
 1737 004c A047     		blx	r4
 1738              	.LVL279:
 1739              	.LBE38:
 408:Source\azure_iot_sdk\iothub_client\src/iothubtransport_amqp_cbs_auth.c ****         LogError("authentication_start failed (cbs_handle is NULL)");
 1740              		.loc 1 408 0 is_stmt 1 discriminator 4
 1741 004e CC20     		movs	r0, #204
 1742 0050 4000     		lsls	r0, r0, #1
 1743 0052 26E0     		b	.L96
 1744              	.LVL280:
 1745              	.L97:
 1746              	.LBB39:
 416:Source\azure_iot_sdk\iothub_client\src/iothubtransport_amqp_cbs_auth.c ****         {
 1747              		.loc 1 416 0
 1748 0054 2823     		movs	r3, #40
 1749 0056 C35C     		ldrb	r3, [r0, r3]
 1750 0058 002B     		cmp	r3, #0
 1751 005a 14D0     		beq	.L98
 1752              	.LVL281:
 1753              	.LBB40:
 419:Source\azure_iot_sdk\iothub_client\src/iothubtransport_amqp_cbs_auth.c ****         }
 1754              		.loc 1 419 0
 1755 005c FFF7FEFF 		bl	xlogging_get_log_function
 1756              	.LVL282:
 1757 0060 051E     		subs	r5, r0, #0
 1758              	.LVL283:
 1759 0062 1CD0     		beq	.L101
 419:Source\azure_iot_sdk\iothub_client\src/iothubtransport_amqp_cbs_auth.c ****         }
 1760              		.loc 1 419 0 is_stmt 0 discriminator 4
 1761 0064 2823     		movs	r3, #40
 1762 0066 E35C     		ldrb	r3, [r4, r3]
 1763 0068 0293     		str	r3, [sp, #8]
 1764 006a 134B     		ldr	r3, .L102+16
 1765 006c 0193     		str	r3, [sp, #4]
 1766 006e 0123     		movs	r3, #1
 1767 0070 0093     		str	r3, [sp]
 1768 0072 A423     		movs	r3, #164
 1769 0074 FF33     		adds	r3, r3, #255
 1770 0076 0D4A     		ldr	r2, .L102+4
 1771 0078 1832     		adds	r2, r2, #24
 1772 007a 0D49     		ldr	r1, .L102+8
 1773 007c 0020     		movs	r0, #0
 1774              	.LVL284:
 1775 007e A847     		blx	r5
 1776              	.LVL285:
 1777              	.LBE40:
 418:Source\azure_iot_sdk\iothub_client\src/iothubtransport_amqp_cbs_auth.c ****             LogError("authentication_start failed (messenger has already been started; current stat
 1778              		.loc 1 418 0 is_stmt 1 discriminator 4
 1779 0080 D120     		movs	r0, #209
 1780 0082 4000     		lsls	r0, r0, #1
ARM GAS  C:\Users\Phuong\AppData\Local\Temp\ccPPbPWA.s 			page 47


 1781 0084 0DE0     		b	.L96
 1782              	.LVL286:
 1783              	.L98:
 424:Source\azure_iot_sdk\iothub_client\src/iothubtransport_amqp_cbs_auth.c **** 
 1784              		.loc 1 424 0
 1785 0086 C162     		str	r1, [r0, #44]
 427:Source\azure_iot_sdk\iothub_client\src/iothubtransport_amqp_cbs_auth.c **** 
 1786              		.loc 1 427 0
 1787 0088 0121     		movs	r1, #1
 1788              	.LVL287:
 1789 008a FFF7FEFF 		bl	update_state
 1790              	.LVL288:
 430:Source\azure_iot_sdk\iothub_client\src/iothubtransport_amqp_cbs_auth.c ****         }
 1791              		.loc 1 430 0
 1792 008e 0020     		movs	r0, #0
 1793 0090 07E0     		b	.L96
 1794              	.LVL289:
 1795              	.L99:
 1796              	.LBE39:
 402:Source\azure_iot_sdk\iothub_client\src/iothubtransport_amqp_cbs_auth.c ****         LogError("authentication_start failed (authentication_handle is NULL)");
 1797              		.loc 1 402 0
 1798 0092 C920     		movs	r0, #201
 1799              	.LVL290:
 1800 0094 4000     		lsls	r0, r0, #1
 1801 0096 04E0     		b	.L96
 1802              	.LVL291:
 1803              	.L100:
 408:Source\azure_iot_sdk\iothub_client\src/iothubtransport_amqp_cbs_auth.c ****         LogError("authentication_start failed (cbs_handle is NULL)");
 1804              		.loc 1 408 0
 1805 0098 CC20     		movs	r0, #204
 1806              	.LVL292:
 1807 009a 4000     		lsls	r0, r0, #1
 1808 009c 01E0     		b	.L96
 1809              	.LVL293:
 1810              	.L101:
 1811              	.LBB41:
 418:Source\azure_iot_sdk\iothub_client\src/iothubtransport_amqp_cbs_auth.c ****             LogError("authentication_start failed (messenger has already been started; current stat
 1812              		.loc 1 418 0
 1813 009e D120     		movs	r0, #209
 1814              	.LVL294:
 1815 00a0 4000     		lsls	r0, r0, #1
 1816              	.LVL295:
 1817              	.L96:
 1818              	.LBE41:
 435:Source\azure_iot_sdk\iothub_client\src/iothubtransport_amqp_cbs_auth.c **** 
 1819              		.loc 1 435 0
 1820 00a2 05B0     		add	sp, sp, #20
 1821              		@ sp needed
 1822 00a4 30BD     		pop	{r4, r5, pc}
 1823              	.L103:
 1824 00a6 C046     		.align	2
 1825              	.L102:
 1826 00a8 94060000 		.word	.LC87
 1827 00ac 00010000 		.word	.LANCHOR2
 1828 00b0 00000000 		.word	.LC1
 1829 00b4 D0060000 		.word	.LC89
 1830 00b8 04070000 		.word	.LC91
ARM GAS  C:\Users\Phuong\AppData\Local\Temp\ccPPbPWA.s 			page 48


 1831              		.cfi_endproc
 1832              	.LFE11:
 1833              		.size	authentication_start, .-authentication_start
 1834              		.section	.text.authentication_stop,"ax",%progbits
 1835              		.align	2
 1836              		.global	authentication_stop
 1837              		.code	16
 1838              		.thumb_func
 1839              		.type	authentication_stop, %function
 1840              	authentication_stop:
 1841              	.LFB12:
 438:Source\azure_iot_sdk\iothub_client\src/iothubtransport_amqp_cbs_auth.c ****     int result;
 1842              		.loc 1 438 0
 1843              		.cfi_startproc
 1844              		@ args = 0, pretend = 0, frame = 0
 1845              		@ frame_needed = 0, uses_anonymous_args = 0
 1846              	.LVL296:
 1847 0000 10B5     		push	{r4, lr}
 1848              		.cfi_def_cfa_offset 8
 1849              		.cfi_offset 4, -8
 1850              		.cfi_offset 14, -4
 1851 0002 82B0     		sub	sp, sp, #8
 1852              		.cfi_def_cfa_offset 16
 442:Source\azure_iot_sdk\iothub_client\src/iothubtransport_amqp_cbs_auth.c ****     {
 1853              		.loc 1 442 0
 1854 0004 0028     		cmp	r0, #0
 1855 0006 11D1     		bne	.L105
 1856              	.LVL297:
 1857              	.LBB42:
 445:Source\azure_iot_sdk\iothub_client\src/iothubtransport_amqp_cbs_auth.c ****     }
 1858              		.loc 1 445 0
 1859 0008 FFF7FEFF 		bl	xlogging_get_log_function
 1860              	.LVL298:
 1861 000c 041E     		subs	r4, r0, #0
 1862              	.LVL299:
 1863 000e 2AD0     		beq	.L108
 445:Source\azure_iot_sdk\iothub_client\src/iothubtransport_amqp_cbs_auth.c ****     }
 1864              		.loc 1 445 0 is_stmt 0 discriminator 4
 1865 0010 184B     		ldr	r3, .L110
 1866 0012 0193     		str	r3, [sp, #4]
 1867 0014 0123     		movs	r3, #1
 1868 0016 0093     		str	r3, [sp]
 1869 0018 BE23     		movs	r3, #190
 1870 001a FF33     		adds	r3, r3, #255
 1871 001c 164A     		ldr	r2, .L110+4
 1872 001e 3032     		adds	r2, r2, #48
 1873 0020 1649     		ldr	r1, .L110+8
 1874 0022 0020     		movs	r0, #0
 1875              	.LVL300:
 1876 0024 A047     		blx	r4
 1877              	.LVL301:
 1878              	.LBE42:
 444:Source\azure_iot_sdk\iothub_client\src/iothubtransport_amqp_cbs_auth.c ****         LogError("authentication_stop failed (authentication_handle is NULL)");
 1879              		.loc 1 444 0 is_stmt 1 discriminator 4
 1880 0026 DE20     		movs	r0, #222
 1881 0028 4000     		lsls	r0, r0, #1
 1882 002a 21E0     		b	.L106
ARM GAS  C:\Users\Phuong\AppData\Local\Temp\ccPPbPWA.s 			page 49


 1883              	.LVL302:
 1884              	.L105:
 1885              	.LBB43:
 452:Source\azure_iot_sdk\iothub_client\src/iothubtransport_amqp_cbs_auth.c ****         {
 1886              		.loc 1 452 0
 1887 002c 2823     		movs	r3, #40
 1888 002e C35C     		ldrb	r3, [r0, r3]
 1889 0030 002B     		cmp	r3, #0
 1890 0032 11D1     		bne	.L107
 1891              	.LVL303:
 1892              	.LBB44:
 455:Source\azure_iot_sdk\iothub_client\src/iothubtransport_amqp_cbs_auth.c ****         }
 1893              		.loc 1 455 0
 1894 0034 FFF7FEFF 		bl	xlogging_get_log_function
 1895              	.LVL304:
 1896 0038 041E     		subs	r4, r0, #0
 1897              	.LVL305:
 1898 003a 17D0     		beq	.L109
 455:Source\azure_iot_sdk\iothub_client\src/iothubtransport_amqp_cbs_auth.c ****         }
 1899              		.loc 1 455 0 is_stmt 0 discriminator 4
 1900 003c 104B     		ldr	r3, .L110+12
 1901 003e 0193     		str	r3, [sp, #4]
 1902 0040 0123     		movs	r3, #1
 1903 0042 0093     		str	r3, [sp]
 1904 0044 C823     		movs	r3, #200
 1905 0046 FF33     		adds	r3, r3, #255
 1906 0048 0B4A     		ldr	r2, .L110+4
 1907 004a 3032     		adds	r2, r2, #48
 1908 004c 0B49     		ldr	r1, .L110+8
 1909 004e 0020     		movs	r0, #0
 1910              	.LVL306:
 1911 0050 A047     		blx	r4
 1912              	.LVL307:
 1913              	.LBE44:
 454:Source\azure_iot_sdk\iothub_client\src/iothubtransport_amqp_cbs_auth.c ****             LogError("authentication_stop failed (messenger is already stopped)");
 1914              		.loc 1 454 0 is_stmt 1 discriminator 4
 1915 0052 E320     		movs	r0, #227
 1916 0054 4000     		lsls	r0, r0, #1
 1917 0056 0BE0     		b	.L106
 1918              	.LVL308:
 1919              	.L107:
 460:Source\azure_iot_sdk\iothub_client\src/iothubtransport_amqp_cbs_auth.c **** 
 1920              		.loc 1 460 0
 1921 0058 0023     		movs	r3, #0
 1922 005a C362     		str	r3, [r0, #44]
 463:Source\azure_iot_sdk\iothub_client\src/iothubtransport_amqp_cbs_auth.c **** 
 1923              		.loc 1 463 0
 1924 005c 0021     		movs	r1, #0
 1925 005e FFF7FEFF 		bl	update_state
 1926              	.LVL309:
 466:Source\azure_iot_sdk\iothub_client\src/iothubtransport_amqp_cbs_auth.c ****         }
 1927              		.loc 1 466 0
 1928 0062 0020     		movs	r0, #0
 1929 0064 04E0     		b	.L106
 1930              	.LVL310:
 1931              	.L108:
 1932              	.LBE43:
ARM GAS  C:\Users\Phuong\AppData\Local\Temp\ccPPbPWA.s 			page 50


 444:Source\azure_iot_sdk\iothub_client\src/iothubtransport_amqp_cbs_auth.c ****         LogError("authentication_stop failed (authentication_handle is NULL)");
 1933              		.loc 1 444 0
 1934 0066 DE20     		movs	r0, #222
 1935              	.LVL311:
 1936 0068 4000     		lsls	r0, r0, #1
 1937 006a 01E0     		b	.L106
 1938              	.LVL312:
 1939              	.L109:
 1940              	.LBB45:
 454:Source\azure_iot_sdk\iothub_client\src/iothubtransport_amqp_cbs_auth.c ****             LogError("authentication_stop failed (messenger is already stopped)");
 1941              		.loc 1 454 0
 1942 006c E320     		movs	r0, #227
 1943              	.LVL313:
 1944 006e 4000     		lsls	r0, r0, #1
 1945              	.LVL314:
 1946              	.L106:
 1947              	.LBE45:
 471:Source\azure_iot_sdk\iothub_client\src/iothubtransport_amqp_cbs_auth.c **** 
 1948              		.loc 1 471 0
 1949 0070 02B0     		add	sp, sp, #8
 1950              		@ sp needed
 1951 0072 10BD     		pop	{r4, pc}
 1952              	.L111:
 1953              		.align	2
 1954              	.L110:
 1955 0074 58070000 		.word	.LC95
 1956 0078 00010000 		.word	.LANCHOR2
 1957 007c 00000000 		.word	.LC1
 1958 0080 94070000 		.word	.LC97
 1959              		.cfi_endproc
 1960              	.LFE12:
 1961              		.size	authentication_stop, .-authentication_stop
 1962              		.section	.text.authentication_destroy,"ax",%progbits
 1963              		.align	2
 1964              		.global	authentication_destroy
 1965              		.code	16
 1966              		.thumb_func
 1967              		.type	authentication_destroy, %function
 1968              	authentication_destroy:
 1969              	.LFB13:
 474:Source\azure_iot_sdk\iothub_client\src/iothubtransport_amqp_cbs_auth.c ****     // Codes_SRS_IOTHUBTRANSPORT_AMQP_AUTH_09_106: [If authentication_handle is NULL, authenticatio
 1970              		.loc 1 474 0
 1971              		.cfi_startproc
 1972              		@ args = 0, pretend = 0, frame = 0
 1973              		@ frame_needed = 0, uses_anonymous_args = 0
 1974              	.LVL315:
 1975 0000 10B5     		push	{r4, lr}
 1976              		.cfi_def_cfa_offset 8
 1977              		.cfi_offset 4, -8
 1978              		.cfi_offset 14, -4
 1979 0002 82B0     		sub	sp, sp, #8
 1980              		.cfi_def_cfa_offset 16
 1981 0004 041E     		subs	r4, r0, #0
 476:Source\azure_iot_sdk\iothub_client\src/iothubtransport_amqp_cbs_auth.c ****     {
 1982              		.loc 1 476 0
 1983 0006 0FD1     		bne	.L113
 1984              	.LBB46:
ARM GAS  C:\Users\Phuong\AppData\Local\Temp\ccPPbPWA.s 			page 51


 478:Source\azure_iot_sdk\iothub_client\src/iothubtransport_amqp_cbs_auth.c ****     }
 1985              		.loc 1 478 0 discriminator 3
 1986 0008 FFF7FEFF 		bl	xlogging_get_log_function
 1987              	.LVL316:
 1988 000c 041E     		subs	r4, r0, #0
 1989              	.LVL317:
 1990 000e 19D0     		beq	.L112
 478:Source\azure_iot_sdk\iothub_client\src/iothubtransport_amqp_cbs_auth.c ****     }
 1991              		.loc 1 478 0 is_stmt 0 discriminator 4
 1992 0010 0D4B     		ldr	r3, .L117
 1993 0012 0193     		str	r3, [sp, #4]
 1994 0014 0123     		movs	r3, #1
 1995 0016 0093     		str	r3, [sp]
 1996 0018 DE33     		adds	r3, r3, #222
 1997 001a FF33     		adds	r3, r3, #255
 1998 001c 0B4A     		ldr	r2, .L117+4
 1999 001e 4432     		adds	r2, r2, #68
 2000 0020 0B49     		ldr	r1, .L117+8
 2001 0022 0020     		movs	r0, #0
 2002              	.LVL318:
 2003 0024 A047     		blx	r4
 2004              	.LVL319:
 2005 0026 0DE0     		b	.L112
 2006              	.LVL320:
 2007              	.L113:
 2008              	.LBE46:
 2009              	.LBB47:
 485:Source\azure_iot_sdk\iothub_client\src/iothubtransport_amqp_cbs_auth.c ****         {
 2010              		.loc 1 485 0 is_stmt 1
 2011 0028 2823     		movs	r3, #40
 2012 002a C35C     		ldrb	r3, [r0, r3]
 2013 002c 002B     		cmp	r3, #0
 2014 002e 01D0     		beq	.L115
 487:Source\azure_iot_sdk\iothub_client\src/iothubtransport_amqp_cbs_auth.c ****         }
 2015              		.loc 1 487 0
 2016 0030 FFF7FEFF 		bl	authentication_stop
 2017              	.LVL321:
 2018              	.L115:
 490:Source\azure_iot_sdk\iothub_client\src/iothubtransport_amqp_cbs_auth.c ****             STRING_delete(instance->iothub_host_fqdn);
 2019              		.loc 1 490 0
 2020 0034 A068     		ldr	r0, [r4, #8]
 2021 0036 0028     		cmp	r0, #0
 2022 0038 01D0     		beq	.L116
 491:Source\azure_iot_sdk\iothub_client\src/iothubtransport_amqp_cbs_auth.c **** 
 2023              		.loc 1 491 0
 2024 003a FFF7FEFF 		bl	STRING_delete
 2025              	.LVL322:
 2026              	.L116:
 494:Source\azure_iot_sdk\iothub_client\src/iothubtransport_amqp_cbs_auth.c ****     }
 2027              		.loc 1 494 0
 2028 003e 2000     		movs	r0, r4
 2029 0040 FFF7FEFF 		bl	free
 2030              	.LVL323:
 2031              	.L112:
 2032              	.LBE47:
 496:Source\azure_iot_sdk\iothub_client\src/iothubtransport_amqp_cbs_auth.c **** 
 2033              		.loc 1 496 0
ARM GAS  C:\Users\Phuong\AppData\Local\Temp\ccPPbPWA.s 			page 52


 2034 0044 02B0     		add	sp, sp, #8
 2035              		@ sp needed
 2036 0046 10BD     		pop	{r4, pc}
 2037              	.L118:
 2038              		.align	2
 2039              	.L117:
 2040 0048 D0070000 		.word	.LC101
 2041 004c 00010000 		.word	.LANCHOR2
 2042 0050 00000000 		.word	.LC1
 2043              		.cfi_endproc
 2044              	.LFE13:
 2045              		.size	authentication_destroy, .-authentication_destroy
 2046              		.section	.text.authentication_create,"ax",%progbits
 2047              		.align	2
 2048              		.global	authentication_create
 2049              		.code	16
 2050              		.thumb_func
 2051              		.type	authentication_create, %function
 2052              	authentication_create:
 2053              	.LFB14:
 499:Source\azure_iot_sdk\iothub_client\src/iothubtransport_amqp_cbs_auth.c ****     AUTHENTICATION_HANDLE result;
 2054              		.loc 1 499 0
 2055              		.cfi_startproc
 2056              		@ args = 0, pretend = 0, frame = 0
 2057              		@ frame_needed = 0, uses_anonymous_args = 0
 2058              	.LVL324:
 2059 0000 30B5     		push	{r4, r5, lr}
 2060              		.cfi_def_cfa_offset 12
 2061              		.cfi_offset 4, -12
 2062              		.cfi_offset 5, -8
 2063              		.cfi_offset 14, -4
 2064 0002 83B0     		sub	sp, sp, #12
 2065              		.cfi_def_cfa_offset 24
 2066 0004 041E     		subs	r4, r0, #0
 503:Source\azure_iot_sdk\iothub_client\src/iothubtransport_amqp_cbs_auth.c ****     {
 2067              		.loc 1 503 0
 2068 0006 11D1     		bne	.L120
 2069              	.LVL325:
 2070              	.LBB48:
 506:Source\azure_iot_sdk\iothub_client\src/iothubtransport_amqp_cbs_auth.c ****     }
 2071              		.loc 1 506 0
 2072 0008 FFF7FEFF 		bl	xlogging_get_log_function
 2073              	.LVL326:
 2074 000c 041E     		subs	r4, r0, #0
 2075              	.LVL327:
 2076 000e 00D1     		bne	.LCB2309
 2077 0010 B1E0     		b	.L129	@long jump
 2078              	.LCB2309:
 506:Source\azure_iot_sdk\iothub_client\src/iothubtransport_amqp_cbs_auth.c ****     }
 2079              		.loc 1 506 0 is_stmt 0 discriminator 4
 2080 0012 5F4B     		ldr	r3, .L136
 2081 0014 0193     		str	r3, [sp, #4]
 2082 0016 0123     		movs	r3, #1
 2083 0018 0093     		str	r3, [sp]
 2084 001a FA33     		adds	r3, r3, #250
 2085 001c FF33     		adds	r3, r3, #255
 2086 001e 5D4A     		ldr	r2, .L136+4
ARM GAS  C:\Users\Phuong\AppData\Local\Temp\ccPPbPWA.s 			page 53


 2087 0020 5C32     		adds	r2, r2, #92
 2088 0022 5D49     		ldr	r1, .L136+8
 2089 0024 0020     		movs	r0, #0
 2090              	.LVL328:
 2091 0026 A047     		blx	r4
 2092              	.LVL329:
 2093              	.LBE48:
 505:Source\azure_iot_sdk\iothub_client\src/iothubtransport_amqp_cbs_auth.c ****         LogError("authentication_create failed (config is NULL)");
 2094              		.loc 1 505 0 is_stmt 1 discriminator 4
 2095 0028 0024     		movs	r4, #0
 2096              	.LVL330:
 2097 002a ADE0     		b	.L121
 2098              	.LVL331:
 2099              	.L120:
 508:Source\azure_iot_sdk\iothub_client\src/iothubtransport_amqp_cbs_auth.c ****     {
 2100              		.loc 1 508 0
 2101 002c C369     		ldr	r3, [r0, #28]
 2102 002e 002B     		cmp	r3, #0
 2103 0030 10D1     		bne	.L122
 2104              	.LVL332:
 2105              	.LBB49:
 511:Source\azure_iot_sdk\iothub_client\src/iothubtransport_amqp_cbs_auth.c ****     }
 2106              		.loc 1 511 0
 2107 0032 FFF7FEFF 		bl	xlogging_get_log_function
 2108              	.LVL333:
 2109 0036 041E     		subs	r4, r0, #0
 2110              	.LVL334:
 2111 0038 00D1     		bne	.LCB2346
 2112 003a 9EE0     		b	.L130	@long jump
 2113              	.LCB2346:
 511:Source\azure_iot_sdk\iothub_client\src/iothubtransport_amqp_cbs_auth.c ****     }
 2114              		.loc 1 511 0 is_stmt 0 discriminator 4
 2115 003c 574B     		ldr	r3, .L136+12
 2116 003e 0193     		str	r3, [sp, #4]
 2117 0040 0123     		movs	r3, #1
 2118 0042 0093     		str	r3, [sp]
 2119 0044 564B     		ldr	r3, .L136+16
 2120 0046 534A     		ldr	r2, .L136+4
 2121 0048 5C32     		adds	r2, r2, #92
 2122 004a 5349     		ldr	r1, .L136+8
 2123 004c 0020     		movs	r0, #0
 2124              	.LVL335:
 2125 004e A047     		blx	r4
 2126              	.LVL336:
 2127              	.LBE49:
 510:Source\azure_iot_sdk\iothub_client\src/iothubtransport_amqp_cbs_auth.c ****         LogError("authentication_create failed (config->authorization_module is NULL)");
 2128              		.loc 1 510 0 is_stmt 1 discriminator 4
 2129 0050 0024     		movs	r4, #0
 2130              	.LVL337:
 2131 0052 99E0     		b	.L121
 2132              	.LVL338:
 2133              	.L122:
 514:Source\azure_iot_sdk\iothub_client\src/iothubtransport_amqp_cbs_auth.c ****     {
 2134              		.loc 1 514 0
 2135 0054 8368     		ldr	r3, [r0, #8]
 2136 0056 002B     		cmp	r3, #0
 2137 0058 10D1     		bne	.L123
ARM GAS  C:\Users\Phuong\AppData\Local\Temp\ccPPbPWA.s 			page 54


 2138              	.LVL339:
 2139              	.LBB50:
 517:Source\azure_iot_sdk\iothub_client\src/iothubtransport_amqp_cbs_auth.c ****     }
 2140              		.loc 1 517 0
 2141 005a FFF7FEFF 		bl	xlogging_get_log_function
 2142              	.LVL340:
 2143 005e 041E     		subs	r4, r0, #0
 2144              	.LVL341:
 2145 0060 00D1     		bne	.LCB2382
 2146 0062 8CE0     		b	.L131	@long jump
 2147              	.LCB2382:
 517:Source\azure_iot_sdk\iothub_client\src/iothubtransport_amqp_cbs_auth.c ****     }
 2148              		.loc 1 517 0 is_stmt 0 discriminator 4
 2149 0064 4F4B     		ldr	r3, .L136+20
 2150 0066 0193     		str	r3, [sp, #4]
 2151 0068 0123     		movs	r3, #1
 2152 006a 0093     		str	r3, [sp]
 2153 006c 4E4B     		ldr	r3, .L136+24
 2154 006e 494A     		ldr	r2, .L136+4
 2155 0070 5C32     		adds	r2, r2, #92
 2156 0072 4949     		ldr	r1, .L136+8
 2157 0074 0020     		movs	r0, #0
 2158              	.LVL342:
 2159 0076 A047     		blx	r4
 2160              	.LVL343:
 2161              	.LBE50:
 516:Source\azure_iot_sdk\iothub_client\src/iothubtransport_amqp_cbs_auth.c ****         LogError("authentication_create failed (config->iothub_host_fqdn is NULL)");
 2162              		.loc 1 516 0 is_stmt 1 discriminator 4
 2163 0078 0024     		movs	r4, #0
 2164              	.LVL344:
 2165 007a 85E0     		b	.L121
 2166              	.LVL345:
 2167              	.L123:
 520:Source\azure_iot_sdk\iothub_client\src/iothubtransport_amqp_cbs_auth.c ****     {
 2168              		.loc 1 520 0
 2169 007c C368     		ldr	r3, [r0, #12]
 2170 007e 002B     		cmp	r3, #0
 2171 0080 0FD1     		bne	.L124
 2172              	.LVL346:
 2173              	.LBB51:
 523:Source\azure_iot_sdk\iothub_client\src/iothubtransport_amqp_cbs_auth.c ****     }
 2174              		.loc 1 523 0
 2175 0082 FFF7FEFF 		bl	xlogging_get_log_function
 2176              	.LVL347:
 2177 0086 041E     		subs	r4, r0, #0
 2178              	.LVL348:
 2179 0088 7BD0     		beq	.L132
 523:Source\azure_iot_sdk\iothub_client\src/iothubtransport_amqp_cbs_auth.c ****     }
 2180              		.loc 1 523 0 is_stmt 0 discriminator 4
 2181 008a 484B     		ldr	r3, .L136+28
 2182 008c 0193     		str	r3, [sp, #4]
 2183 008e 0123     		movs	r3, #1
 2184 0090 0093     		str	r3, [sp]
 2185 0092 474B     		ldr	r3, .L136+32
 2186 0094 3F4A     		ldr	r2, .L136+4
 2187 0096 5C32     		adds	r2, r2, #92
 2188 0098 3F49     		ldr	r1, .L136+8
ARM GAS  C:\Users\Phuong\AppData\Local\Temp\ccPPbPWA.s 			page 55


 2189 009a 0020     		movs	r0, #0
 2190              	.LVL349:
 2191 009c A047     		blx	r4
 2192              	.LVL350:
 2193              	.LBE51:
 522:Source\azure_iot_sdk\iothub_client\src/iothubtransport_amqp_cbs_auth.c ****         LogError("authentication_create failed (config->on_state_changed_callback is NULL)");
 2194              		.loc 1 522 0 is_stmt 1 discriminator 4
 2195 009e 0024     		movs	r4, #0
 2196              	.LVL351:
 2197 00a0 72E0     		b	.L121
 2198              	.LVL352:
 2199              	.L124:
 2200              	.LBB52:
 530:Source\azure_iot_sdk\iothub_client\src/iothubtransport_amqp_cbs_auth.c ****         {
 2201              		.loc 1 530 0
 2202 00a2 3C20     		movs	r0, #60
 2203              	.LVL353:
 2204 00a4 FFF7FEFF 		bl	malloc
 2205              	.LVL354:
 2206 00a8 051E     		subs	r5, r0, #0
 2207              	.LVL355:
 2208 00aa 0FD1     		bne	.L125
 2209              	.LVL356:
 2210              	.LBB53:
 534:Source\azure_iot_sdk\iothub_client\src/iothubtransport_amqp_cbs_auth.c ****         }
 2211              		.loc 1 534 0
 2212 00ac FFF7FEFF 		bl	xlogging_get_log_function
 2213              	.LVL357:
 2214 00b0 041E     		subs	r4, r0, #0
 2215              	.LVL358:
 2216 00b2 68D0     		beq	.L133
 534:Source\azure_iot_sdk\iothub_client\src/iothubtransport_amqp_cbs_auth.c ****         }
 2217              		.loc 1 534 0 is_stmt 0 discriminator 4
 2218 00b4 3F4B     		ldr	r3, .L136+36
 2219 00b6 0193     		str	r3, [sp, #4]
 2220 00b8 0123     		movs	r3, #1
 2221 00ba 0093     		str	r3, [sp]
 2222 00bc 3E4B     		ldr	r3, .L136+40
 2223 00be 354A     		ldr	r2, .L136+4
 2224 00c0 5C32     		adds	r2, r2, #92
 2225 00c2 3549     		ldr	r1, .L136+8
 2226 00c4 0020     		movs	r0, #0
 2227              	.LVL359:
 2228 00c6 A047     		blx	r4
 2229              	.LVL360:
 2230              	.LBE53:
 533:Source\azure_iot_sdk\iothub_client\src/iothubtransport_amqp_cbs_auth.c ****             LogError("authentication_create failed (malloc failed)");
 2231              		.loc 1 533 0 is_stmt 1 discriminator 4
 2232 00c8 2C00     		movs	r4, r5
 2233              	.LVL361:
 2234 00ca 5DE0     		b	.L121
 2235              	.LVL362:
 2236              	.L125:
 539:Source\azure_iot_sdk\iothub_client\src/iothubtransport_amqp_cbs_auth.c **** 
 2237              		.loc 1 539 0
 2238 00cc 3C22     		movs	r2, #60
 2239 00ce 0021     		movs	r1, #0
ARM GAS  C:\Users\Phuong\AppData\Local\Temp\ccPPbPWA.s 			page 56


 2240 00d0 FFF7FEFF 		bl	memset
 2241              	.LVL363:
 542:Source\azure_iot_sdk\iothub_client\src/iothubtransport_amqp_cbs_auth.c ****             {
 2242              		.loc 1 542 0
 2243 00d4 E069     		ldr	r0, [r4, #28]
 2244 00d6 FFF7FEFF 		bl	IoTHubClient_Auth_Get_DeviceId
 2245              	.LVL364:
 2246 00da 2860     		str	r0, [r5]
 2247 00dc 0028     		cmp	r0, #0
 2248 00de 0FD1     		bne	.L126
 2249              	.LVL365:
 2250              	.LBB54:
 546:Source\azure_iot_sdk\iothub_client\src/iothubtransport_amqp_cbs_auth.c ****             }
 2251              		.loc 1 546 0
 2252 00e0 FFF7FEFF 		bl	xlogging_get_log_function
 2253              	.LVL366:
 2254 00e4 041E     		subs	r4, r0, #0
 2255              	.LVL367:
 2256 00e6 3DD0     		beq	.L134
 546:Source\azure_iot_sdk\iothub_client\src/iothubtransport_amqp_cbs_auth.c ****             }
 2257              		.loc 1 546 0 is_stmt 0 discriminator 4
 2258 00e8 344B     		ldr	r3, .L136+44
 2259 00ea 0193     		str	r3, [sp, #4]
 2260 00ec 0123     		movs	r3, #1
 2261 00ee 0093     		str	r3, [sp]
 2262 00f0 334B     		ldr	r3, .L136+48
 2263 00f2 284A     		ldr	r2, .L136+4
 2264 00f4 5C32     		adds	r2, r2, #92
 2265 00f6 2849     		ldr	r1, .L136+8
 2266 00f8 0020     		movs	r0, #0
 2267              	.LVL368:
 2268 00fa A047     		blx	r4
 2269              	.LVL369:
 2270              	.LBE54:
 545:Source\azure_iot_sdk\iothub_client\src/iothubtransport_amqp_cbs_auth.c ****                 LogError("authentication_create failed (config->device_id could not be copied; STRI
 2271              		.loc 1 545 0 is_stmt 1 discriminator 4
 2272 00fc 0024     		movs	r4, #0
 2273              	.LVL370:
 2274 00fe 34E0     		b	.L127
 2275              	.LVL371:
 2276              	.L126:
 549:Source\azure_iot_sdk\iothub_client\src/iothubtransport_amqp_cbs_auth.c ****             {
 2277              		.loc 1 549 0
 2278 0100 A068     		ldr	r0, [r4, #8]
 2279 0102 FFF7FEFF 		bl	STRING_construct
 2280              	.LVL372:
 2281 0106 A860     		str	r0, [r5, #8]
 2282 0108 0028     		cmp	r0, #0
 2283 010a 0FD1     		bne	.L128
 2284              	.LVL373:
 2285              	.LBB55:
 553:Source\azure_iot_sdk\iothub_client\src/iothubtransport_amqp_cbs_auth.c ****             }
 2286              		.loc 1 553 0
 2287 010c FFF7FEFF 		bl	xlogging_get_log_function
 2288              	.LVL374:
 2289 0110 041E     		subs	r4, r0, #0
 2290              	.LVL375:
ARM GAS  C:\Users\Phuong\AppData\Local\Temp\ccPPbPWA.s 			page 57


 2291 0112 29D0     		beq	.L135
 553:Source\azure_iot_sdk\iothub_client\src/iothubtransport_amqp_cbs_auth.c ****             }
 2292              		.loc 1 553 0 is_stmt 0 discriminator 4
 2293 0114 2B4B     		ldr	r3, .L136+52
 2294 0116 0193     		str	r3, [sp, #4]
 2295 0118 0123     		movs	r3, #1
 2296 011a 0093     		str	r3, [sp]
 2297 011c 2A4B     		ldr	r3, .L136+56
 2298 011e 1D4A     		ldr	r2, .L136+4
 2299 0120 5C32     		adds	r2, r2, #92
 2300 0122 1D49     		ldr	r1, .L136+8
 2301 0124 0020     		movs	r0, #0
 2302              	.LVL376:
 2303 0126 A047     		blx	r4
 2304              	.LVL377:
 2305              	.LBE55:
 552:Source\azure_iot_sdk\iothub_client\src/iothubtransport_amqp_cbs_auth.c ****                 LogError("authentication_create failed (config->iothub_host_fqdn could not be copie
 2306              		.loc 1 552 0 is_stmt 1 discriminator 4
 2307 0128 0024     		movs	r4, #0
 2308              	.LVL378:
 2309 012a 1EE0     		b	.L127
 2310              	.LVL379:
 2311              	.L128:
 557:Source\azure_iot_sdk\iothub_client\src/iothubtransport_amqp_cbs_auth.c **** 
 2312              		.loc 1 557 0
 2313 012c 0022     		movs	r2, #0
 2314 012e 2823     		movs	r3, #40
 2315 0130 EA54     		strb	r2, [r5, r3]
 559:Source\azure_iot_sdk\iothub_client\src/iothubtransport_amqp_cbs_auth.c **** 
 2316              		.loc 1 559 0
 2317 0132 E069     		ldr	r0, [r4, #28]
 2318 0134 FFF7FEFF 		bl	IoTHubClient_Auth_Get_ModuleId
 2319              	.LVL380:
 2320 0138 6860     		str	r0, [r5, #4]
 562:Source\azure_iot_sdk\iothub_client\src/iothubtransport_amqp_cbs_auth.c ****                 instance->on_state_changed_callback_context = config->on_state_changed_callback_con
 2321              		.loc 1 562 0
 2322 013a E368     		ldr	r3, [r4, #12]
 2323 013c EB60     		str	r3, [r5, #12]
 563:Source\azure_iot_sdk\iothub_client\src/iothubtransport_amqp_cbs_auth.c **** 
 2324              		.loc 1 563 0
 2325 013e 2369     		ldr	r3, [r4, #16]
 2326 0140 2B61     		str	r3, [r5, #16]
 566:Source\azure_iot_sdk\iothub_client\src/iothubtransport_amqp_cbs_auth.c ****                 instance->on_error_callback_context = config->on_error_callback_context;
 2327              		.loc 1 566 0
 2328 0142 6369     		ldr	r3, [r4, #20]
 2329 0144 6B61     		str	r3, [r5, #20]
 567:Source\azure_iot_sdk\iothub_client\src/iothubtransport_amqp_cbs_auth.c **** 
 2330              		.loc 1 567 0
 2331 0146 A369     		ldr	r3, [r4, #24]
 2332 0148 AB61     		str	r3, [r5, #24]
 570:Source\azure_iot_sdk\iothub_client\src/iothubtransport_amqp_cbs_auth.c ****                 // Codes_SRS_IOTHUBTRANSPORT_AMQP_AUTH_09_022: [authentication_create() shall set `
 2333              		.loc 1 570 0
 2334 014a 0123     		movs	r3, #1
 2335 014c 5B42     		rsbs	r3, r3, #0
 2336 014e EB61     		str	r3, [r5, #28]
 572:Source\azure_iot_sdk\iothub_client\src/iothubtransport_amqp_cbs_auth.c ****                 // Codes_SRS_IOTHUBTRANSPORT_AMQP_AUTH_09_023: [authentication_create() shall set `
 2337              		.loc 1 572 0
ARM GAS  C:\Users\Phuong\AppData\Local\Temp\ccPPbPWA.s 			page 58


 2338 0150 E123     		movs	r3, #225
 2339 0152 1B01     		lsls	r3, r3, #4
 2340 0154 2B62     		str	r3, [r5, #32]
 574:Source\azure_iot_sdk\iothub_client\src/iothubtransport_amqp_cbs_auth.c **** 
 2341              		.loc 1 574 0
 2342 0156 E123     		movs	r3, #225
 2343 0158 DB00     		lsls	r3, r3, #3
 2344 015a 6B62     		str	r3, [r5, #36]
 576:Source\azure_iot_sdk\iothub_client\src/iothubtransport_amqp_cbs_auth.c **** 
 2345              		.loc 1 576 0
 2346 015c E369     		ldr	r3, [r4, #28]
 2347 015e AB63     		str	r3, [r5, #56]
 2348              	.LVL381:
 579:Source\azure_iot_sdk\iothub_client\src/iothubtransport_amqp_cbs_auth.c ****             }
 2349              		.loc 1 579 0
 2350 0160 2C00     		movs	r4, r5
 2351              	.LVL382:
 2352 0162 02E0     		b	.L127
 2353              	.LVL383:
 2354              	.L134:
 545:Source\azure_iot_sdk\iothub_client\src/iothubtransport_amqp_cbs_auth.c ****                 LogError("authentication_create failed (config->device_id could not be copied; STRI
 2355              		.loc 1 545 0
 2356 0164 0024     		movs	r4, #0
 2357 0166 00E0     		b	.L127
 2358              	.LVL384:
 2359              	.L135:
 552:Source\azure_iot_sdk\iothub_client\src/iothubtransport_amqp_cbs_auth.c ****                 LogError("authentication_create failed (config->iothub_host_fqdn could not be copie
 2360              		.loc 1 552 0
 2361 0168 0024     		movs	r4, #0
 2362              	.LVL385:
 2363              	.L127:
 583:Source\azure_iot_sdk\iothub_client\src/iothubtransport_amqp_cbs_auth.c ****             {
 2364              		.loc 1 583 0
 2365 016a 002C     		cmp	r4, #0
 2366 016c 0CD1     		bne	.L121
 585:Source\azure_iot_sdk\iothub_client\src/iothubtransport_amqp_cbs_auth.c ****             }
 2367              		.loc 1 585 0
 2368 016e 2800     		movs	r0, r5
 2369 0170 FFF7FEFF 		bl	authentication_destroy
 2370              	.LVL386:
 2371 0174 08E0     		b	.L121
 2372              	.LVL387:
 2373              	.L129:
 2374              	.LBE52:
 505:Source\azure_iot_sdk\iothub_client\src/iothubtransport_amqp_cbs_auth.c ****         LogError("authentication_create failed (config is NULL)");
 2375              		.loc 1 505 0
 2376 0176 0024     		movs	r4, #0
 2377 0178 06E0     		b	.L121
 2378              	.LVL388:
 2379              	.L130:
 510:Source\azure_iot_sdk\iothub_client\src/iothubtransport_amqp_cbs_auth.c ****         LogError("authentication_create failed (config->authorization_module is NULL)");
 2380              		.loc 1 510 0
 2381 017a 0024     		movs	r4, #0
 2382 017c 04E0     		b	.L121
 2383              	.LVL389:
 2384              	.L131:
 516:Source\azure_iot_sdk\iothub_client\src/iothubtransport_amqp_cbs_auth.c ****         LogError("authentication_create failed (config->iothub_host_fqdn is NULL)");
ARM GAS  C:\Users\Phuong\AppData\Local\Temp\ccPPbPWA.s 			page 59


 2385              		.loc 1 516 0
 2386 017e 0024     		movs	r4, #0
 2387 0180 02E0     		b	.L121
 2388              	.LVL390:
 2389              	.L132:
 522:Source\azure_iot_sdk\iothub_client\src/iothubtransport_amqp_cbs_auth.c ****         LogError("authentication_create failed (config->on_state_changed_callback is NULL)");
 2390              		.loc 1 522 0
 2391 0182 0024     		movs	r4, #0
 2392 0184 00E0     		b	.L121
 2393              	.LVL391:
 2394              	.L133:
 2395              	.LBB56:
 533:Source\azure_iot_sdk\iothub_client\src/iothubtransport_amqp_cbs_auth.c ****             LogError("authentication_create failed (malloc failed)");
 2396              		.loc 1 533 0
 2397 0186 2C00     		movs	r4, r5
 2398              	.LVL392:
 2399              	.L121:
 2400              	.LBE56:
 591:Source\azure_iot_sdk\iothub_client\src/iothubtransport_amqp_cbs_auth.c **** 
 2401              		.loc 1 591 0
 2402 0188 2000     		movs	r0, r4
 2403 018a 03B0     		add	sp, sp, #12
 2404              		@ sp needed
 2405              	.LVL393:
 2406 018c 30BD     		pop	{r4, r5, pc}
 2407              	.L137:
 2408 018e C046     		.align	2
 2409              	.L136:
 2410 0190 10080000 		.word	.LC105
 2411 0194 00010000 		.word	.LANCHOR2
 2412 0198 00000000 		.word	.LC1
 2413 019c 40080000 		.word	.LC107
 2414 01a0 FF010000 		.word	511
 2415 01a4 84080000 		.word	.LC109
 2416 01a8 05020000 		.word	517
 2417 01ac C4080000 		.word	.LC111
 2418 01b0 0B020000 		.word	523
 2419 01b4 10090000 		.word	.LC113
 2420 01b8 16020000 		.word	534
 2421 01bc 40090000 		.word	.LC115
 2422 01c0 22020000 		.word	546
 2423 01c4 A0090000 		.word	.LC117
 2424 01c8 29020000 		.word	553
 2425              		.cfi_endproc
 2426              	.LFE14:
 2427              		.size	authentication_create, .-authentication_create
 2428              		.section	.text.authentication_do_work,"ax",%progbits
 2429              		.align	2
 2430              		.global	authentication_do_work
 2431              		.code	16
 2432              		.thumb_func
 2433              		.type	authentication_do_work, %function
 2434              	authentication_do_work:
 2435              	.LFB15:
 594:Source\azure_iot_sdk\iothub_client\src/iothubtransport_amqp_cbs_auth.c ****     // Codes_SRS_IOTHUBTRANSPORT_AMQP_AUTH_09_036: [If authentication_handle is NULL, authenticatio
 2436              		.loc 1 594 0
 2437              		.cfi_startproc
ARM GAS  C:\Users\Phuong\AppData\Local\Temp\ccPPbPWA.s 			page 60


 2438              		@ args = 0, pretend = 0, frame = 8
 2439              		@ frame_needed = 0, uses_anonymous_args = 0
 2440              	.LVL394:
 2441 0000 30B5     		push	{r4, r5, lr}
 2442              		.cfi_def_cfa_offset 12
 2443              		.cfi_offset 4, -12
 2444              		.cfi_offset 5, -8
 2445              		.cfi_offset 14, -4
 2446 0002 87B0     		sub	sp, sp, #28
 2447              		.cfi_def_cfa_offset 40
 2448 0004 041E     		subs	r4, r0, #0
 596:Source\azure_iot_sdk\iothub_client\src/iothubtransport_amqp_cbs_auth.c ****     {
 2449              		.loc 1 596 0
 2450 0006 0FD1     		bne	.L139
 2451              	.LBB57:
 598:Source\azure_iot_sdk\iothub_client\src/iothubtransport_amqp_cbs_auth.c ****     }
 2452              		.loc 1 598 0 discriminator 3
 2453 0008 FFF7FEFF 		bl	xlogging_get_log_function
 2454              	.LVL395:
 2455 000c 041E     		subs	r4, r0, #0
 2456              	.LVL396:
 2457 000e 00D1     		bne	.LCB2735
 2458 0010 91E0     		b	.L138	@long jump
 2459              	.LCB2735:
 598:Source\azure_iot_sdk\iothub_client\src/iothubtransport_amqp_cbs_auth.c ****     }
 2460              		.loc 1 598 0 is_stmt 0 discriminator 4
 2461 0012 4A4B     		ldr	r3, .L149
 2462 0014 0193     		str	r3, [sp, #4]
 2463 0016 0123     		movs	r3, #1
 2464 0018 0093     		str	r3, [sp]
 2465 001a 494B     		ldr	r3, .L149+4
 2466 001c 494A     		ldr	r2, .L149+8
 2467 001e 7432     		adds	r2, r2, #116
 2468 0020 4949     		ldr	r1, .L149+12
 2469 0022 0020     		movs	r0, #0
 2470              	.LVL397:
 2471 0024 A047     		blx	r4
 2472              	.LVL398:
 2473 0026 86E0     		b	.L138
 2474              	.LVL399:
 2475              	.L139:
 2476              	.LBE57:
 2477              	.LBB58:
 605:Source\azure_iot_sdk\iothub_client\src/iothubtransport_amqp_cbs_auth.c ****         {
 2478              		.loc 1 605 0 is_stmt 1
 2479 0028 3023     		movs	r3, #48
 2480 002a C35C     		ldrb	r3, [r0, r3]
 2481 002c 002B     		cmp	r3, #0
 2482 002e 22D0     		beq	.L141
 2483              	.LBB59:
 610:Source\azure_iot_sdk\iothub_client\src/iothubtransport_amqp_cbs_auth.c ****             {
 2484              		.loc 1 610 0
 2485 0030 1721     		movs	r1, #23
 2486 0032 6944     		add	r1, r1, sp
 2487 0034 FFF7FEFF 		bl	verify_cbs_put_token_timeout
 2488              	.LVL400:
 2489 0038 0028     		cmp	r0, #0
ARM GAS  C:\Users\Phuong\AppData\Local\Temp\ccPPbPWA.s 			page 61


 2490 003a 7CD1     		bne	.L138
 610:Source\azure_iot_sdk\iothub_client\src/iothubtransport_amqp_cbs_auth.c ****             {
 2491              		.loc 1 610 0 is_stmt 0 discriminator 1
 2492 003c 1723     		movs	r3, #23
 2493 003e 6B44     		add	r3, r3, sp
 2494 0040 1B78     		ldrb	r3, [r3]
 2495 0042 002B     		cmp	r3, #0
 2496 0044 77D0     		beq	.L138
 613:Source\azure_iot_sdk\iothub_client\src/iothubtransport_amqp_cbs_auth.c **** 
 2497              		.loc 1 613 0 is_stmt 1
 2498 0046 0022     		movs	r2, #0
 2499 0048 3023     		movs	r3, #48
 2500 004a E254     		strb	r2, [r4, r3]
 616:Source\azure_iot_sdk\iothub_client\src/iothubtransport_amqp_cbs_auth.c **** 
 2501              		.loc 1 616 0
 2502 004c 0321     		movs	r1, #3
 2503 004e 2000     		movs	r0, r4
 2504 0050 FFF7FEFF 		bl	update_state
 2505              	.LVL401:
 618:Source\azure_iot_sdk\iothub_client\src/iothubtransport_amqp_cbs_auth.c ****                 {
 2506              		.loc 1 618 0
 2507 0054 3123     		movs	r3, #49
 2508 0056 E35C     		ldrb	r3, [r4, r3]
 2509 0058 002B     		cmp	r3, #0
 2510 005a 04D0     		beq	.L143
 621:Source\azure_iot_sdk\iothub_client\src/iothubtransport_amqp_cbs_auth.c ****                 }
 2511              		.loc 1 621 0
 2512 005c 0221     		movs	r1, #2
 2513 005e 2000     		movs	r0, r4
 2514 0060 FFF7FEFF 		bl	notify_error
 2515              	.LVL402:
 2516 0064 03E0     		b	.L144
 2517              	.L143:
 626:Source\azure_iot_sdk\iothub_client\src/iothubtransport_amqp_cbs_auth.c ****                 }
 2518              		.loc 1 626 0
 2519 0066 0021     		movs	r1, #0
 2520 0068 2000     		movs	r0, r4
 2521 006a FFF7FEFF 		bl	notify_error
 2522              	.LVL403:
 2523              	.L144:
 630:Source\azure_iot_sdk\iothub_client\src/iothubtransport_amqp_cbs_auth.c ****             }
 2524              		.loc 1 630 0
 2525 006e 0022     		movs	r2, #0
 2526 0070 3123     		movs	r3, #49
 2527 0072 E254     		strb	r2, [r4, r3]
 2528 0074 5FE0     		b	.L138
 2529              	.LVL404:
 2530              	.L141:
 2531              	.LBE59:
 633:Source\azure_iot_sdk\iothub_client\src/iothubtransport_amqp_cbs_auth.c ****         {
 2532              		.loc 1 633 0
 2533 0076 2823     		movs	r3, #40
 2534 0078 C35C     		ldrb	r3, [r0, r3]
 2535 007a 022B     		cmp	r3, #2
 2536 007c 39D1     		bne	.L145
 636:Source\azure_iot_sdk\iothub_client\src/iothubtransport_amqp_cbs_auth.c ****             {
 2537              		.loc 1 636 0
ARM GAS  C:\Users\Phuong\AppData\Local\Temp\ccPPbPWA.s 			page 62


 2538 007e 806B     		ldr	r0, [r0, #56]
 2539              	.LVL405:
 2540 0080 FFF7FEFF 		bl	IoTHubClient_Auth_Get_Credential_Type
 2541              	.LVL406:
 2542 0084 0128     		cmp	r0, #1
 2543 0086 56D1     		bne	.L138
 2544              	.LBB60:
 642:Source\azure_iot_sdk\iothub_client\src/iothubtransport_amqp_cbs_auth.c ****                 {
 2545              		.loc 1 642 0
 2546 0088 1721     		movs	r1, #23
 2547 008a 6944     		add	r1, r1, sp
 2548 008c 2000     		movs	r0, r4
 2549 008e FFF7FEFF 		bl	verify_sas_token_refresh_timeout
 2550              	.LVL407:
 2551 0092 0028     		cmp	r0, #0
 2552 0094 4FD1     		bne	.L138
 642:Source\azure_iot_sdk\iothub_client\src/iothubtransport_amqp_cbs_auth.c ****                 {
 2553              		.loc 1 642 0 is_stmt 0 discriminator 1
 2554 0096 1723     		movs	r3, #23
 2555 0098 6B44     		add	r3, r3, sp
 2556 009a 1B78     		ldrb	r3, [r3]
 2557 009c 002B     		cmp	r3, #0
 2558 009e 4AD0     		beq	.L138
 645:Source\azure_iot_sdk\iothub_client\src/iothubtransport_amqp_cbs_auth.c **** 
 2559              		.loc 1 645 0 is_stmt 1
 2560 00a0 0122     		movs	r2, #1
 2561 00a2 3123     		movs	r3, #49
 2562 00a4 E254     		strb	r2, [r4, r3]
 650:Source\azure_iot_sdk\iothub_client\src/iothubtransport_amqp_cbs_auth.c ****                     {
 2563              		.loc 1 650 0
 2564 00a6 2000     		movs	r0, r4
 2565 00a8 FFF7FEFF 		bl	create_and_put_SAS_token_to_cbs
 2566              	.LVL408:
 2567 00ac 0028     		cmp	r0, #0
 2568 00ae 10D0     		beq	.L147
 2569              	.LBB61:
 652:Source\azure_iot_sdk\iothub_client\src/iothubtransport_amqp_cbs_auth.c ****                     }
 2570              		.loc 1 652 0 discriminator 3
 2571 00b0 FFF7FEFF 		bl	xlogging_get_log_function
 2572              	.LVL409:
 2573 00b4 051E     		subs	r5, r0, #0
 2574              	.LVL410:
 2575 00b6 0CD0     		beq	.L147
 652:Source\azure_iot_sdk\iothub_client\src/iothubtransport_amqp_cbs_auth.c ****                     }
 2576              		.loc 1 652 0 is_stmt 0 discriminator 4
 2577 00b8 2368     		ldr	r3, [r4]
 2578 00ba 0293     		str	r3, [sp, #8]
 2579 00bc 234B     		ldr	r3, .L149+16
 2580 00be 0193     		str	r3, [sp, #4]
 2581 00c0 0123     		movs	r3, #1
 2582 00c2 0093     		str	r3, [sp]
 2583 00c4 A323     		movs	r3, #163
 2584 00c6 9B00     		lsls	r3, r3, #2
 2585 00c8 1E4A     		ldr	r2, .L149+8
 2586 00ca 7432     		adds	r2, r2, #116
 2587 00cc 1E49     		ldr	r1, .L149+12
 2588 00ce 0020     		movs	r0, #0
ARM GAS  C:\Users\Phuong\AppData\Local\Temp\ccPPbPWA.s 			page 63


 2589              	.LVL411:
 2590 00d0 A847     		blx	r5
 2591              	.LVL412:
 2592              	.L147:
 2593              	.LBE61:
 655:Source\azure_iot_sdk\iothub_client\src/iothubtransport_amqp_cbs_auth.c ****                     {
 2594              		.loc 1 655 0 is_stmt 1
 2595 00d2 3023     		movs	r3, #48
 2596 00d4 E35C     		ldrb	r3, [r4, r3]
 2597 00d6 002B     		cmp	r3, #0
 2598 00d8 2DD1     		bne	.L138
 658:Source\azure_iot_sdk\iothub_client\src/iothubtransport_amqp_cbs_auth.c **** 
 2599              		.loc 1 658 0
 2600 00da 0022     		movs	r2, #0
 2601 00dc 3133     		adds	r3, r3, #49
 2602 00de E254     		strb	r2, [r4, r3]
 661:Source\azure_iot_sdk\iothub_client\src/iothubtransport_amqp_cbs_auth.c **** 
 2603              		.loc 1 661 0
 2604 00e0 0321     		movs	r1, #3
 2605 00e2 2000     		movs	r0, r4
 2606 00e4 FFF7FEFF 		bl	update_state
 2607              	.LVL413:
 664:Source\azure_iot_sdk\iothub_client\src/iothubtransport_amqp_cbs_auth.c ****                     }
 2608              		.loc 1 664 0
 2609 00e8 0321     		movs	r1, #3
 2610 00ea 2000     		movs	r0, r4
 2611 00ec FFF7FEFF 		bl	notify_error
 2612              	.LVL414:
 2613 00f0 21E0     		b	.L138
 2614              	.LVL415:
 2615              	.L145:
 2616              	.LBE60:
 669:Source\azure_iot_sdk\iothub_client\src/iothubtransport_amqp_cbs_auth.c ****         {
 2617              		.loc 1 669 0
 2618 00f2 012B     		cmp	r3, #1
 2619 00f4 1FD1     		bne	.L138
 671:Source\azure_iot_sdk\iothub_client\src/iothubtransport_amqp_cbs_auth.c ****             {
 2620              		.loc 1 671 0
 2621 00f6 FFF7FEFF 		bl	create_and_put_SAS_token_to_cbs
 2622              	.LVL416:
 2623 00fa 0028     		cmp	r0, #0
 2624 00fc 0FD0     		beq	.L148
 2625              	.LBB62:
 673:Source\azure_iot_sdk\iothub_client\src/iothubtransport_amqp_cbs_auth.c ****             }
 2626              		.loc 1 673 0 discriminator 3
 2627 00fe FFF7FEFF 		bl	xlogging_get_log_function
 2628              	.LVL417:
 2629 0102 051E     		subs	r5, r0, #0
 2630              	.LVL418:
 2631 0104 0BD0     		beq	.L148
 673:Source\azure_iot_sdk\iothub_client\src/iothubtransport_amqp_cbs_auth.c ****             }
 2632              		.loc 1 673 0 is_stmt 0 discriminator 4
 2633 0106 2368     		ldr	r3, [r4]
 2634 0108 0293     		str	r3, [sp, #8]
 2635 010a 114B     		ldr	r3, .L149+20
 2636 010c 0193     		str	r3, [sp, #4]
 2637 010e 0123     		movs	r3, #1
ARM GAS  C:\Users\Phuong\AppData\Local\Temp\ccPPbPWA.s 			page 64


 2638 0110 0093     		str	r3, [sp]
 2639 0112 104B     		ldr	r3, .L149+24
 2640 0114 0B4A     		ldr	r2, .L149+8
 2641 0116 7432     		adds	r2, r2, #116
 2642 0118 0B49     		ldr	r1, .L149+12
 2643 011a 0020     		movs	r0, #0
 2644              	.LVL419:
 2645 011c A847     		blx	r5
 2646              	.LVL420:
 2647              	.L148:
 2648              	.LBE62:
 676:Source\azure_iot_sdk\iothub_client\src/iothubtransport_amqp_cbs_auth.c ****             {
 2649              		.loc 1 676 0 is_stmt 1
 2650 011e 3023     		movs	r3, #48
 2651 0120 E35C     		ldrb	r3, [r4, r3]
 2652 0122 002B     		cmp	r3, #0
 2653 0124 07D1     		bne	.L138
 680:Source\azure_iot_sdk\iothub_client\src/iothubtransport_amqp_cbs_auth.c **** 
 2654              		.loc 1 680 0
 2655 0126 0321     		movs	r1, #3
 2656 0128 2000     		movs	r0, r4
 2657 012a FFF7FEFF 		bl	update_state
 2658              	.LVL421:
 684:Source\azure_iot_sdk\iothub_client\src/iothubtransport_amqp_cbs_auth.c ****             }
 2659              		.loc 1 684 0
 2660 012e 0121     		movs	r1, #1
 2661 0130 2000     		movs	r0, r4
 2662 0132 FFF7FEFF 		bl	notify_error
 2663              	.LVL422:
 2664              	.L138:
 2665              	.LBE58:
 693:Source\azure_iot_sdk\iothub_client\src/iothubtransport_amqp_cbs_auth.c **** 
 2666              		.loc 1 693 0
 2667 0136 07B0     		add	sp, sp, #28
 2668              		@ sp needed
 2669 0138 30BD     		pop	{r4, r5, pc}
 2670              	.L150:
 2671 013a C046     		.align	2
 2672              	.L149:
 2673 013c 080A0000 		.word	.LC121
 2674 0140 56020000 		.word	598
 2675 0144 00010000 		.word	.LANCHOR2
 2676 0148 00000000 		.word	.LC1
 2677 014c 480A0000 		.word	.LC123
 2678 0150 680A0000 		.word	.LC125
 2679 0154 A1020000 		.word	673
 2680              		.cfi_endproc
 2681              	.LFE15:
 2682              		.size	authentication_do_work, .-authentication_do_work
 2683              		.section	.text.authentication_retrieve_options,"ax",%progbits
 2684              		.align	2
 2685              		.global	authentication_retrieve_options
 2686              		.code	16
 2687              		.thumb_func
 2688              		.type	authentication_retrieve_options, %function
 2689              	authentication_retrieve_options:
 2690              	.LFB17:
ARM GAS  C:\Users\Phuong\AppData\Local\Temp\ccPPbPWA.s 			page 65


 753:Source\azure_iot_sdk\iothub_client\src/iothubtransport_amqp_cbs_auth.c **** 
 754:Source\azure_iot_sdk\iothub_client\src/iothubtransport_amqp_cbs_auth.c **** OPTIONHANDLER_HANDLE authentication_retrieve_options(AUTHENTICATION_HANDLE authentication_handle)
 755:Source\azure_iot_sdk\iothub_client\src/iothubtransport_amqp_cbs_auth.c **** {
 2691              		.loc 1 755 0
 2692              		.cfi_startproc
 2693              		@ args = 0, pretend = 0, frame = 0
 2694              		@ frame_needed = 0, uses_anonymous_args = 0
 2695              	.LVL423:
 2696 0000 30B5     		push	{r4, r5, lr}
 2697              		.cfi_def_cfa_offset 12
 2698              		.cfi_offset 4, -12
 2699              		.cfi_offset 5, -8
 2700              		.cfi_offset 14, -4
 2701 0002 85B0     		sub	sp, sp, #20
 2702              		.cfi_def_cfa_offset 32
 2703 0004 041E     		subs	r4, r0, #0
 756:Source\azure_iot_sdk\iothub_client\src/iothubtransport_amqp_cbs_auth.c ****     OPTIONHANDLER_HANDLE result;
 757:Source\azure_iot_sdk\iothub_client\src/iothubtransport_amqp_cbs_auth.c **** 
 758:Source\azure_iot_sdk\iothub_client\src/iothubtransport_amqp_cbs_auth.c ****     // Codes_SRS_IOTHUBTRANSPORT_AMQP_AUTH_09_100: [If `authentication_handle` is NULL, authenticat
 759:Source\azure_iot_sdk\iothub_client\src/iothubtransport_amqp_cbs_auth.c ****     if (authentication_handle == NULL)
 2704              		.loc 1 759 0
 2705 0006 10D1     		bne	.L152
 2706              	.LBB63:
 760:Source\azure_iot_sdk\iothub_client\src/iothubtransport_amqp_cbs_auth.c ****     {
 761:Source\azure_iot_sdk\iothub_client\src/iothubtransport_amqp_cbs_auth.c ****         LogError("Failed to retrieve options from authentication instance (authentication_handle is
 2707              		.loc 1 761 0 discriminator 3
 2708 0008 FFF7FEFF 		bl	xlogging_get_log_function
 2709              	.LVL424:
 2710 000c 041E     		subs	r4, r0, #0
 2711              	.LVL425:
 2712 000e 00D1     		bne	.LCB2992
 2713 0010 7EE0     		b	.L158	@long jump
 2714              	.LCB2992:
 2715              		.loc 1 761 0 is_stmt 0 discriminator 4
 2716 0012 424B     		ldr	r3, .L164
 2717 0014 0193     		str	r3, [sp, #4]
 2718 0016 0123     		movs	r3, #1
 2719 0018 0093     		str	r3, [sp]
 2720 001a 414B     		ldr	r3, .L164+4
 2721 001c 414A     		ldr	r2, .L164+8
 2722 001e 0C32     		adds	r2, r2, #12
 2723 0020 4149     		ldr	r1, .L164+12
 2724 0022 0020     		movs	r0, #0
 2725              	.LVL426:
 2726 0024 A047     		blx	r4
 2727              	.LVL427:
 2728              	.LBE63:
 762:Source\azure_iot_sdk\iothub_client\src/iothubtransport_amqp_cbs_auth.c ****         result = NULL;
 2729              		.loc 1 762 0 is_stmt 1 discriminator 4
 2730 0026 0024     		movs	r4, #0
 2731              	.LVL428:
 2732 0028 75E0     		b	.L153
 2733              	.LVL429:
 2734              	.L152:
 2735              	.LBB64:
 763:Source\azure_iot_sdk\iothub_client\src/iothubtransport_amqp_cbs_auth.c ****     }
 764:Source\azure_iot_sdk\iothub_client\src/iothubtransport_amqp_cbs_auth.c ****     else
ARM GAS  C:\Users\Phuong\AppData\Local\Temp\ccPPbPWA.s 			page 66


 765:Source\azure_iot_sdk\iothub_client\src/iothubtransport_amqp_cbs_auth.c ****     {
 766:Source\azure_iot_sdk\iothub_client\src/iothubtransport_amqp_cbs_auth.c ****         // Codes_SRS_IOTHUBTRANSPORT_AMQP_AUTH_09_101: [An OPTIONHANDLER_HANDLE instance shall be c
 767:Source\azure_iot_sdk\iothub_client\src/iothubtransport_amqp_cbs_auth.c ****         OPTIONHANDLER_HANDLE options = OptionHandler_Create(authentication_clone_option, authentica
 2736              		.loc 1 767 0
 2737 002a 404A     		ldr	r2, .L164+16
 2738 002c 4049     		ldr	r1, .L164+20
 2739 002e 4148     		ldr	r0, .L164+24
 2740              	.LVL430:
 2741 0030 FFF7FEFF 		bl	OptionHandler_Create
 2742              	.LVL431:
 2743 0034 051E     		subs	r5, r0, #0
 2744              	.LVL432:
 768:Source\azure_iot_sdk\iothub_client\src/iothubtransport_amqp_cbs_auth.c **** 
 769:Source\azure_iot_sdk\iothub_client\src/iothubtransport_amqp_cbs_auth.c ****         if (options == NULL)
 2745              		.loc 1 769 0
 2746 0036 10D1     		bne	.L154
 2747              	.LBB65:
 770:Source\azure_iot_sdk\iothub_client\src/iothubtransport_amqp_cbs_auth.c ****         {
 771:Source\azure_iot_sdk\iothub_client\src/iothubtransport_amqp_cbs_auth.c ****             // Codes_SRS_IOTHUBTRANSPORT_AMQP_AUTH_09_102: [If an OPTIONHANDLER_HANDLE instance fai
 772:Source\azure_iot_sdk\iothub_client\src/iothubtransport_amqp_cbs_auth.c ****             LogError("Failed to retrieve options from authentication instance (OptionHandler_Create
 2748              		.loc 1 772 0 discriminator 3
 2749 0038 FFF7FEFF 		bl	xlogging_get_log_function
 2750              	.LVL433:
 2751 003c 041E     		subs	r4, r0, #0
 2752              	.LVL434:
 2753 003e 69D0     		beq	.L159
 2754              		.loc 1 772 0 is_stmt 0 discriminator 4
 2755 0040 3D4B     		ldr	r3, .L164+28
 2756 0042 0193     		str	r3, [sp, #4]
 2757 0044 0123     		movs	r3, #1
 2758 0046 0093     		str	r3, [sp]
 2759 0048 C123     		movs	r3, #193
 2760 004a 9B00     		lsls	r3, r3, #2
 2761 004c 354A     		ldr	r2, .L164+8
 2762 004e 0C32     		adds	r2, r2, #12
 2763 0050 3549     		ldr	r1, .L164+12
 2764 0052 0020     		movs	r0, #0
 2765              	.LVL435:
 2766 0054 A047     		blx	r4
 2767              	.LVL436:
 2768              	.LBE65:
 773:Source\azure_iot_sdk\iothub_client\src/iothubtransport_amqp_cbs_auth.c ****             result = NULL;
 2769              		.loc 1 773 0 is_stmt 1 discriminator 4
 2770 0056 2C00     		movs	r4, r5
 2771              	.LVL437:
 2772 0058 5DE0     		b	.L153
 2773              	.LVL438:
 2774              	.L154:
 2775              	.LBB66:
 774:Source\azure_iot_sdk\iothub_client\src/iothubtransport_amqp_cbs_auth.c ****         }
 775:Source\azure_iot_sdk\iothub_client\src/iothubtransport_amqp_cbs_auth.c ****         else
 776:Source\azure_iot_sdk\iothub_client\src/iothubtransport_amqp_cbs_auth.c ****         {
 777:Source\azure_iot_sdk\iothub_client\src/iothubtransport_amqp_cbs_auth.c ****             AUTHENTICATION_INSTANCE* instance = (AUTHENTICATION_INSTANCE*)authentication_handle;
 778:Source\azure_iot_sdk\iothub_client\src/iothubtransport_amqp_cbs_auth.c **** 
 779:Source\azure_iot_sdk\iothub_client\src/iothubtransport_amqp_cbs_auth.c ****             // Codes_SRS_IOTHUBTRANSPORT_AMQP_AUTH_09_103: [Each option of `instance` shall be adde
 780:Source\azure_iot_sdk\iothub_client\src/iothubtransport_amqp_cbs_auth.c ****             // Codes_SRS_IOTHUBTRANSPORT_AMQP_AUTH_09_104: [If OptionHandler_AddOption fails, authe
 781:Source\azure_iot_sdk\iothub_client\src/iothubtransport_amqp_cbs_auth.c ****             if (OptionHandler_AddOption(options, AUTHENTICATION_OPTION_CBS_REQUEST_TIMEOUT_SECS, (v
ARM GAS  C:\Users\Phuong\AppData\Local\Temp\ccPPbPWA.s 			page 67


 2776              		.loc 1 781 0
 2777 005a 2200     		movs	r2, r4
 2778 005c 1C32     		adds	r2, r2, #28
 2779 005e 3749     		ldr	r1, .L164+32
 2780 0060 FFF7FEFF 		bl	OptionHandler_AddOption
 2781              	.LVL439:
 2782 0064 0028     		cmp	r0, #0
 2783 0066 11D0     		beq	.L155
 2784              	.LBB67:
 782:Source\azure_iot_sdk\iothub_client\src/iothubtransport_amqp_cbs_auth.c ****             {
 783:Source\azure_iot_sdk\iothub_client\src/iothubtransport_amqp_cbs_auth.c ****                 LogError("Failed to retrieve options from authentication instance (OptionHandler_Cr
 2785              		.loc 1 783 0 discriminator 3
 2786 0068 FFF7FEFF 		bl	xlogging_get_log_function
 2787              	.LVL440:
 2788 006c 041E     		subs	r4, r0, #0
 2789              	.LVL441:
 2790 006e 42D0     		beq	.L160
 2791              		.loc 1 783 0 is_stmt 0 discriminator 4
 2792 0070 324B     		ldr	r3, .L164+32
 2793 0072 0293     		str	r3, [sp, #8]
 2794 0074 324B     		ldr	r3, .L164+36
 2795 0076 0193     		str	r3, [sp, #4]
 2796 0078 0123     		movs	r3, #1
 2797 007a 0093     		str	r3, [sp]
 2798 007c 314B     		ldr	r3, .L164+40
 2799 007e 294A     		ldr	r2, .L164+8
 2800 0080 0C32     		adds	r2, r2, #12
 2801 0082 2949     		ldr	r1, .L164+12
 2802 0084 0020     		movs	r0, #0
 2803              	.LVL442:
 2804 0086 A047     		blx	r4
 2805              	.LVL443:
 2806              	.LBE67:
 784:Source\azure_iot_sdk\iothub_client\src/iothubtransport_amqp_cbs_auth.c ****                 result = NULL;
 2807              		.loc 1 784 0 is_stmt 1 discriminator 4
 2808 0088 0024     		movs	r4, #0
 2809              	.LVL444:
 2810 008a 3BE0     		b	.L156
 2811              	.LVL445:
 2812              	.L155:
 785:Source\azure_iot_sdk\iothub_client\src/iothubtransport_amqp_cbs_auth.c ****             }
 786:Source\azure_iot_sdk\iothub_client\src/iothubtransport_amqp_cbs_auth.c ****             else if (OptionHandler_AddOption(options, AUTHENTICATION_OPTION_SAS_TOKEN_REFRESH_TIME_
 2813              		.loc 1 786 0
 2814 008c 2200     		movs	r2, r4
 2815 008e 2432     		adds	r2, r2, #36
 2816 0090 2D49     		ldr	r1, .L164+44
 2817 0092 2800     		movs	r0, r5
 2818 0094 FFF7FEFF 		bl	OptionHandler_AddOption
 2819              	.LVL446:
 2820 0098 0028     		cmp	r0, #0
 2821 009a 12D0     		beq	.L157
 2822              	.LBB68:
 787:Source\azure_iot_sdk\iothub_client\src/iothubtransport_amqp_cbs_auth.c ****             {
 788:Source\azure_iot_sdk\iothub_client\src/iothubtransport_amqp_cbs_auth.c ****                 LogError("Failed to retrieve options from authentication instance (OptionHandler_Cr
 2823              		.loc 1 788 0 discriminator 3
 2824 009c FFF7FEFF 		bl	xlogging_get_log_function
 2825              	.LVL447:
ARM GAS  C:\Users\Phuong\AppData\Local\Temp\ccPPbPWA.s 			page 68


 2826 00a0 041E     		subs	r4, r0, #0
 2827              	.LVL448:
 2828 00a2 2AD0     		beq	.L161
 2829              		.loc 1 788 0 is_stmt 0 discriminator 4
 2830 00a4 284B     		ldr	r3, .L164+44
 2831 00a6 0293     		str	r3, [sp, #8]
 2832 00a8 254B     		ldr	r3, .L164+36
 2833 00aa 0193     		str	r3, [sp, #4]
 2834 00ac 0123     		movs	r3, #1
 2835 00ae 0093     		str	r3, [sp]
 2836 00b0 C523     		movs	r3, #197
 2837 00b2 9B00     		lsls	r3, r3, #2
 2838 00b4 1B4A     		ldr	r2, .L164+8
 2839 00b6 0C32     		adds	r2, r2, #12
 2840 00b8 1B49     		ldr	r1, .L164+12
 2841 00ba 0020     		movs	r0, #0
 2842              	.LVL449:
 2843 00bc A047     		blx	r4
 2844              	.LVL450:
 2845              	.LBE68:
 789:Source\azure_iot_sdk\iothub_client\src/iothubtransport_amqp_cbs_auth.c ****                 result = NULL;
 2846              		.loc 1 789 0 is_stmt 1 discriminator 4
 2847 00be 0024     		movs	r4, #0
 2848              	.LVL451:
 2849 00c0 20E0     		b	.L156
 2850              	.LVL452:
 2851              	.L157:
 790:Source\azure_iot_sdk\iothub_client\src/iothubtransport_amqp_cbs_auth.c ****             }
 791:Source\azure_iot_sdk\iothub_client\src/iothubtransport_amqp_cbs_auth.c ****             else if (OptionHandler_AddOption(options, AUTHENTICATION_OPTION_SAS_TOKEN_LIFETIME_SECS
 2852              		.loc 1 791 0
 2853 00c2 2200     		movs	r2, r4
 2854 00c4 2032     		adds	r2, r2, #32
 2855 00c6 2149     		ldr	r1, .L164+48
 2856 00c8 2800     		movs	r0, r5
 2857 00ca FFF7FEFF 		bl	OptionHandler_AddOption
 2858              	.LVL453:
 2859 00ce 0028     		cmp	r0, #0
 2860 00d0 15D0     		beq	.L162
 2861              	.LBB69:
 792:Source\azure_iot_sdk\iothub_client\src/iothubtransport_amqp_cbs_auth.c ****             {
 793:Source\azure_iot_sdk\iothub_client\src/iothubtransport_amqp_cbs_auth.c ****                 LogError("Failed to retrieve options from authentication instance (OptionHandler_Cr
 2862              		.loc 1 793 0 discriminator 3
 2863 00d2 FFF7FEFF 		bl	xlogging_get_log_function
 2864              	.LVL454:
 2865 00d6 041E     		subs	r4, r0, #0
 2866              	.LVL455:
 2867 00d8 13D0     		beq	.L163
 2868              		.loc 1 793 0 is_stmt 0 discriminator 4
 2869 00da 1C4B     		ldr	r3, .L164+48
 2870 00dc 0293     		str	r3, [sp, #8]
 2871 00de 184B     		ldr	r3, .L164+36
 2872 00e0 0193     		str	r3, [sp, #4]
 2873 00e2 0123     		movs	r3, #1
 2874 00e4 0093     		str	r3, [sp]
 2875 00e6 1A4B     		ldr	r3, .L164+52
 2876 00e8 0E4A     		ldr	r2, .L164+8
 2877 00ea 0C32     		adds	r2, r2, #12
ARM GAS  C:\Users\Phuong\AppData\Local\Temp\ccPPbPWA.s 			page 69


 2878 00ec 0E49     		ldr	r1, .L164+12
 2879 00ee 0020     		movs	r0, #0
 2880              	.LVL456:
 2881 00f0 A047     		blx	r4
 2882              	.LVL457:
 2883              	.LBE69:
 794:Source\azure_iot_sdk\iothub_client\src/iothubtransport_amqp_cbs_auth.c ****                 result = NULL;
 2884              		.loc 1 794 0 is_stmt 1 discriminator 4
 2885 00f2 0024     		movs	r4, #0
 2886              	.LVL458:
 2887 00f4 06E0     		b	.L156
 2888              	.LVL459:
 2889              	.L160:
 784:Source\azure_iot_sdk\iothub_client\src/iothubtransport_amqp_cbs_auth.c ****             }
 2890              		.loc 1 784 0
 2891 00f6 0024     		movs	r4, #0
 2892 00f8 04E0     		b	.L156
 2893              	.LVL460:
 2894              	.L161:
 789:Source\azure_iot_sdk\iothub_client\src/iothubtransport_amqp_cbs_auth.c ****             }
 2895              		.loc 1 789 0
 2896 00fa 0024     		movs	r4, #0
 2897 00fc 02E0     		b	.L156
 2898              	.LVL461:
 2899              	.L162:
 795:Source\azure_iot_sdk\iothub_client\src/iothubtransport_amqp_cbs_auth.c ****             }
 796:Source\azure_iot_sdk\iothub_client\src/iothubtransport_amqp_cbs_auth.c ****             else
 797:Source\azure_iot_sdk\iothub_client\src/iothubtransport_amqp_cbs_auth.c ****             {
 798:Source\azure_iot_sdk\iothub_client\src/iothubtransport_amqp_cbs_auth.c ****                 // Codes_SRS_IOTHUBTRANSPORT_AMQP_AUTH_09_127: [If no failures occur, authenticatio
 799:Source\azure_iot_sdk\iothub_client\src/iothubtransport_amqp_cbs_auth.c ****                 result = options;
 2900              		.loc 1 799 0
 2901 00fe 2C00     		movs	r4, r5
 2902              	.LVL462:
 2903 0100 00E0     		b	.L156
 2904              	.LVL463:
 2905              	.L163:
 794:Source\azure_iot_sdk\iothub_client\src/iothubtransport_amqp_cbs_auth.c ****             }
 2906              		.loc 1 794 0
 2907 0102 0024     		movs	r4, #0
 2908              	.LVL464:
 2909              	.L156:
 800:Source\azure_iot_sdk\iothub_client\src/iothubtransport_amqp_cbs_auth.c ****             }
 801:Source\azure_iot_sdk\iothub_client\src/iothubtransport_amqp_cbs_auth.c **** 
 802:Source\azure_iot_sdk\iothub_client\src/iothubtransport_amqp_cbs_auth.c ****             if (result == NULL)
 2910              		.loc 1 802 0
 2911 0104 002C     		cmp	r4, #0
 2912 0106 06D1     		bne	.L153
 803:Source\azure_iot_sdk\iothub_client\src/iothubtransport_amqp_cbs_auth.c ****             {
 804:Source\azure_iot_sdk\iothub_client\src/iothubtransport_amqp_cbs_auth.c ****                 // Codes_SRS_IOTHUBTRANSPORT_AMQP_AUTH_09_105: [If authentication_retrieve_options 
 805:Source\azure_iot_sdk\iothub_client\src/iothubtransport_amqp_cbs_auth.c ****                 OptionHandler_Destroy(options);
 2913              		.loc 1 805 0
 2914 0108 2800     		movs	r0, r5
 2915 010a FFF7FEFF 		bl	OptionHandler_Destroy
 2916              	.LVL465:
 2917 010e 02E0     		b	.L153
 2918              	.LVL466:
 2919              	.L158:
ARM GAS  C:\Users\Phuong\AppData\Local\Temp\ccPPbPWA.s 			page 70


 2920              	.LBE66:
 2921              	.LBE64:
 762:Source\azure_iot_sdk\iothub_client\src/iothubtransport_amqp_cbs_auth.c ****     }
 2922              		.loc 1 762 0
 2923 0110 0024     		movs	r4, #0
 2924 0112 00E0     		b	.L153
 2925              	.LVL467:
 2926              	.L159:
 2927              	.LBB70:
 773:Source\azure_iot_sdk\iothub_client\src/iothubtransport_amqp_cbs_auth.c ****         }
 2928              		.loc 1 773 0
 2929 0114 2C00     		movs	r4, r5
 2930              	.LVL468:
 2931              	.L153:
 2932              	.LBE70:
 806:Source\azure_iot_sdk\iothub_client\src/iothubtransport_amqp_cbs_auth.c ****             }
 807:Source\azure_iot_sdk\iothub_client\src/iothubtransport_amqp_cbs_auth.c ****         }
 808:Source\azure_iot_sdk\iothub_client\src/iothubtransport_amqp_cbs_auth.c ****     }
 809:Source\azure_iot_sdk\iothub_client\src/iothubtransport_amqp_cbs_auth.c ****     return result;
 810:Source\azure_iot_sdk\iothub_client\src/iothubtransport_amqp_cbs_auth.c **** }
 2933              		.loc 1 810 0
 2934 0116 2000     		movs	r0, r4
 2935 0118 05B0     		add	sp, sp, #20
 2936              		@ sp needed
 2937              	.LVL469:
 2938 011a 30BD     		pop	{r4, r5, pc}
 2939              	.L165:
 2940              		.align	2
 2941              	.L164:
 2942 011c 9C0A0000 		.word	.LC129
 2943 0120 F9020000 		.word	761
 2944 0124 80010000 		.word	.LANCHOR3
 2945 0128 00000000 		.word	.LC1
 2946 012c 00000000 		.word	authentication_set_option
 2947 0130 00000000 		.word	authentication_destroy_option
 2948 0134 00000000 		.word	authentication_clone_option
 2949 0138 F40A0000 		.word	.LC134
 2950 013c 64040000 		.word	.LC56
 2951 0140 4C0B0000 		.word	.LC137
 2952 0144 0F030000 		.word	783
 2953 0148 80040000 		.word	.LC58
 2954 014c 9C040000 		.word	.LC60
 2955 0150 19030000 		.word	793
 2956              		.cfi_endproc
 2957              	.LFE17:
 2958              		.size	authentication_retrieve_options, .-authentication_retrieve_options
 2959              		.section	.rodata
 2960              		.align	2
 2961              		.set	.LANCHOR0,. + 0
 2962              		.set	.LANCHOR1,. + 128
 2963              		.set	.LANCHOR2,. + 256
 2964              		.set	.LANCHOR3,. + 384
 2965              		.type	__func__.8006, %object
 2966              		.size	__func__.8006, 35
 2967              	__func__.8006:
 2968 0000 6F6E5F63 		.ascii	"on_cbs_put_token_complete_callback\000"
 2968      62735F70 
ARM GAS  C:\Users\Phuong\AppData\Local\Temp\ccPPbPWA.s 			page 71


 2968      75745F74 
 2968      6F6B656E 
 2968      5F636F6D 
 2969 0023 00       		.space	1
 2970              		.type	__func__.7965, %object
 2971              		.size	__func__.7965, 29
 2972              	__func__.7965:
 2973 0024 76657269 		.ascii	"verify_cbs_put_token_timeout\000"
 2973      66795F63 
 2973      62735F70 
 2973      75745F74 
 2973      6F6B656E 
 2974 0041 000000   		.space	3
 2975              		.type	__func__.7978, %object
 2976              		.size	__func__.7978, 33
 2977              	__func__.7978:
 2978 0044 76657269 		.ascii	"verify_sas_token_refresh_timeout\000"
 2978      66795F73 
 2978      61735F74 
 2978      6F6B656E 
 2978      5F726566 
 2979 0065 000000   		.space	3
 2980              		.type	__func__.7992, %object
 2981              		.size	__func__.7992, 30
 2982              	__func__.7992:
 2983 0068 63726561 		.ascii	"create_device_and_module_path\000"
 2983      74655F64 
 2983      65766963 
 2983      655F616E 
 2983      645F6D6F 
 2984 0086 0000     		.space	2
 2985              		.type	__func__.8017, %object
 2986              		.size	__func__.8017, 21
 2987              	__func__.8017:
 2988 0088 7075745F 		.ascii	"put_SAS_token_to_cbs\000"
 2988      5341535F 
 2988      746F6B65 
 2988      6E5F746F 
 2988      5F636273 
 2989 009d 000000   		.space	3
 2990              		.type	__func__.8031, %object
 2991              		.size	__func__.8031, 32
 2992              	__func__.8031:
 2993 00a0 63726561 		.ascii	"create_and_put_SAS_token_to_cbs\000"
 2993      74655F61 
 2993      6E645F70 
 2993      75745F53 
 2993      41535F74 
 2994              		.type	__func__.8060, %object
 2995              		.size	__func__.8060, 28
 2996              	__func__.8060:
 2997 00c0 61757468 		.ascii	"authentication_clone_option\000"
 2997      656E7469 
 2997      63617469 
 2997      6F6E5F63 
 2997      6C6F6E65 
 2998              		.type	__func__.8166, %object
ARM GAS  C:\Users\Phuong\AppData\Local\Temp\ccPPbPWA.s 			page 72


 2999              		.size	__func__.8166, 26
 3000              	__func__.8166:
 3001 00dc 61757468 		.ascii	"authentication_set_option\000"
 3001      656E7469 
 3001      63617469 
 3001      6F6E5F73 
 3001      65745F6F 
 3002 00f6 0000     		.space	2
 3003              		.type	__func__.8074, %object
 3004              		.size	__func__.8074, 30
 3005              	__func__.8074:
 3006 00f8 61757468 		.ascii	"authentication_destroy_option\000"
 3006      656E7469 
 3006      63617469 
 3006      6F6E5F64 
 3006      65737472 
 3007 0116 0000     		.space	2
 3008              		.type	__func__.8086, %object
 3009              		.size	__func__.8086, 21
 3010              	__func__.8086:
 3011 0118 61757468 		.ascii	"authentication_start\000"
 3011      656E7469 
 3011      63617469 
 3011      6F6E5F73 
 3011      74617274 
 3012 012d 000000   		.space	3
 3013              		.type	__func__.8101, %object
 3014              		.size	__func__.8101, 20
 3015              	__func__.8101:
 3016 0130 61757468 		.ascii	"authentication_stop\000"
 3016      656E7469 
 3016      63617469 
 3016      6F6E5F73 
 3016      746F7000 
 3017              		.type	__func__.8112, %object
 3018              		.size	__func__.8112, 23
 3019              	__func__.8112:
 3020 0144 61757468 		.ascii	"authentication_destroy\000"
 3020      656E7469 
 3020      63617469 
 3020      6F6E5F64 
 3020      65737472 
 3021 015b 00       		.space	1
 3022              		.type	__func__.8121, %object
 3023              		.size	__func__.8121, 22
 3024              	__func__.8121:
 3025 015c 61757468 		.ascii	"authentication_create\000"
 3025      656E7469 
 3025      63617469 
 3025      6F6E5F63 
 3025      72656174 
 3026 0172 0000     		.space	2
 3027              		.type	__func__.8147, %object
 3028              		.size	__func__.8147, 23
 3029              	__func__.8147:
 3030 0174 61757468 		.ascii	"authentication_do_work\000"
 3030      656E7469 
ARM GAS  C:\Users\Phuong\AppData\Local\Temp\ccPPbPWA.s 			page 73


 3030      63617469 
 3030      6F6E5F64 
 3030      6F5F776F 
 3031 018b 00       		.space	1
 3032              		.type	__func__.8181, %object
 3033              		.size	__func__.8181, 32
 3034              	__func__.8181:
 3035 018c 61757468 		.ascii	"authentication_retrieve_options\000"
 3035      656E7469 
 3035      63617469 
 3035      6F6E5F72 
 3035      65747269 
 3036              		.section	.rodata.str1.4,"aMS",%progbits,1
 3037              		.align	2
 3038              	.LC1:
 3039 0000 536F7572 		.ascii	"Source\\azure_iot_sdk\\iothub_client\\src\\iothubtr"
 3039      63655C61 
 3039      7A757265 
 3039      5F696F74 
 3039      5F73646B 
 3040 002f 616E7370 		.ascii	"ansport_amqp_cbs_auth.c\000"
 3040      6F72745F 
 3040      616D7170 
 3040      5F636273 
 3040      5F617574 
 3041 0047 00       		.space	1
 3042              	.LC3:
 3043 0048 43425320 		.ascii	"CBS reported status code %u, error: '%s' for put-to"
 3043      7265706F 
 3043      72746564 
 3043      20737461 
 3043      74757320 
 3044 007b 6B656E20 		.ascii	"ken operation for device '%s'\000"
 3044      6F706572 
 3044      6174696F 
 3044      6E20666F 
 3044      72206465 
 3045 0099 000000   		.space	3
 3046              	.LC7:
 3047 009c 4661696C 		.ascii	"Failed verifying if cbs_put_token has timed out (cu"
 3047      65642076 
 3047      65726966 
 3047      79696E67 
 3047      20696620 
 3048 00cf 7272656E 		.ascii	"rrent_sas_token_put_time is not set)\000"
 3048      745F7361 
 3048      735F746F 
 3048      6B656E5F 
 3048      7075745F 
 3049              	.LC9:
 3050 00f4 4661696C 		.ascii	"Failed verifying if cbs_put_token has timed out (ge"
 3050      65642076 
 3050      65726966 
 3050      79696E67 
 3050      20696620 
 3051 0127 745F7469 		.ascii	"t_time failed)\000"
 3051      6D652066 
ARM GAS  C:\Users\Phuong\AppData\Local\Temp\ccPPbPWA.s 			page 74


 3051      61696C65 
 3051      642900
 3052 0136 0000     		.space	2
 3053              	.LC13:
 3054 0138 4661696C 		.ascii	"Failed verifying if SAS token refresh timed out (cu"
 3054      65642076 
 3054      65726966 
 3054      79696E67 
 3054      20696620 
 3055 016b 7272656E 		.ascii	"rrent_sas_token_put_time is not set)\000"
 3055      745F7361 
 3055      735F746F 
 3055      6B656E5F 
 3055      7075745F 
 3056              	.LC15:
 3057 0190 4661696C 		.ascii	"Failed verifying if SAS token refresh timed out (ge"
 3057      65642076 
 3057      65726966 
 3057      79696E67 
 3057      20696620 
 3058 01c3 745F7469 		.ascii	"t_time failed)\000"
 3058      6D652066 
 3058      61696C65 
 3058      642900
 3059 01d2 0000     		.space	2
 3060              	.LC17:
 3061 01d4 25732F64 		.ascii	"%s/devices/%s\000"
 3061      65766963 
 3061      65732F25 
 3061      7300
 3062 01e2 0000     		.space	2
 3063              	.LC21:
 3064 01e4 4661696C 		.ascii	"Failed creating devices_and_modules_path (STRING_ne"
 3064      65642063 
 3064      72656174 
 3064      696E6720 
 3064      64657669 
 3065 0217 77206661 		.ascii	"w failed)\000"
 3065      696C6564 
 3065      2900
 3066 0221 000000   		.space	3
 3067              	.LC23:
 3068 0224 25732F64 		.ascii	"%s/devices/%s/modules/%s\000"
 3068      65766963 
 3068      65732F25 
 3068      732F6D6F 
 3068      64756C65 
 3069 023d 000000   		.space	3
 3070              	.LC25:
 3071 0240 73657276 		.ascii	"servicebus.windows.net:sastoken\000"
 3071      69636562 
 3071      75732E77 
 3071      696E646F 
 3071      77732E6E 
 3072              	.LC30:
 3073 0260 4661696C 		.ascii	"Failed putting SAS token to CBS for device '%s' (cb"
 3073      65642070 
ARM GAS  C:\Users\Phuong\AppData\Local\Temp\ccPPbPWA.s 			page 75


 3073      75747469 
 3073      6E672053 
 3073      41532074 
 3074 0293 735F7075 		.ascii	"s_put_token failed)\000"
 3074      745F746F 
 3074      6B656E20 
 3074      6661696C 
 3074      65642900 
 3075 02a7 00       		.space	1
 3076              	.LC32:
 3077 02a8 4661696C 		.ascii	"Failed setting current_sas_token_put_time for devic"
 3077      65642073 
 3077      65747469 
 3077      6E672063 
 3077      75727265 
 3078 02db 65202725 		.ascii	"e '%s' (get_time() failed)\000"
 3078      73272028 
 3078      6765745F 
 3078      74696D65 
 3078      28292066 
 3079 02f6 0000     		.space	2
 3080              	.LC36:
 3081 02f8 4661696C 		.ascii	"Failed creating a SAS token (create_device_and_modu"
 3081      65642063 
 3081      72656174 
 3081      696E6720 
 3081      61205341 
 3082 032b 6C655F70 		.ascii	"le_path() failed)\000"
 3082      61746828 
 3082      29206661 
 3082      696C6564 
 3082      2900
 3083 033d 000000   		.space	3
 3084              	.LC38:
 3085 0340 6661696C 		.ascii	"failure getting sas token.\000"
 3085      75726520 
 3085      67657474 
 3085      696E6720 
 3085      73617320 
 3086 035b 00       		.space	1
 3087              	.LC40:
 3088 035c 73617320 		.ascii	"sas token is invalid.\000"
 3088      746F6B65 
 3088      6E206973 
 3088      20696E76 
 3088      616C6964 
 3089 0372 0000     		.space	2
 3090              	.LC42:
 3091 0374 74657374 		.ascii	"testing Sas Token failed.\000"
 3091      696E6720 
 3091      53617320 
 3091      546F6B65 
 3091      6E206661 
 3092 038e 0000     		.space	2
 3093              	.LC44:
 3094 0390 6661696C 		.ascii	"failure getting sas Token.\000"
 3094      75726520 
ARM GAS  C:\Users\Phuong\AppData\Local\Temp\ccPPbPWA.s 			page 76


 3094      67657474 
 3094      696E6720 
 3094      73617320 
 3095 03ab 00       		.space	1
 3096              	.LC46:
 3097 03ac 6661696C 		.ascii	"failure unknown credential type found.\000"
 3097      75726520 
 3097      756E6B6E 
 3097      6F776E20 
 3097      63726564 
 3098 03d3 00       		.space	1
 3099              	.LC48:
 3100 03d4 4661696C 		.ascii	"Failed putting SAS token to CBS\000"
 3100      65642070 
 3100      75747469 
 3100      6E672053 
 3100      41532074 
 3101              	.LC52:
 3102 03f4 4661696C 		.ascii	"Failed to clone authentication option (name is NULL"
 3102      65642074 
 3102      6F20636C 
 3102      6F6E6520 
 3102      61757468 
 3103 0427 2900     		.ascii	")\000"
 3104 0429 000000   		.space	3
 3105              	.LC54:
 3106 042c 4661696C 		.ascii	"Failed to clone authentication option (value is NUL"
 3106      65642074 
 3106      6F20636C 
 3106      6F6E6520 
 3106      61757468 
 3107 045f 4C2900   		.ascii	"L)\000"
 3108 0462 0000     		.space	2
 3109              	.LC56:
 3110 0464 6362735F 		.ascii	"cbs_request_timeout_secs\000"
 3110      72657175 
 3110      6573745F 
 3110      74696D65 
 3110      6F75745F 
 3111 047d 000000   		.space	3
 3112              	.LC58:
 3113 0480 7361735F 		.ascii	"sas_token_refresh_time_secs\000"
 3113      746F6B65 
 3113      6E5F7265 
 3113      66726573 
 3113      685F7469 
 3114              	.LC60:
 3115 049c 7361735F 		.ascii	"sas_token_lifetime_secs\000"
 3115      746F6B65 
 3115      6E5F6C69 
 3115      66657469 
 3115      6D655F73 
 3116              	.LC62:
 3117 04b4 73617665 		.ascii	"saved_authentication_options\000"
 3117      645F6175 
 3117      7468656E 
 3117      74696361 
ARM GAS  C:\Users\Phuong\AppData\Local\Temp\ccPPbPWA.s 			page 77


 3117      74696F6E 
 3118 04d1 000000   		.space	3
 3119              	.LC64:
 3120 04d4 4661696C 		.ascii	"Failed to clone authentication option (option with "
 3120      65642074 
 3120      6F20636C 
 3120      6F6E6520 
 3120      61757468 
 3121 0507 6E616D65 		.ascii	"name '%s' is not suppported)\000"
 3121      20272573 
 3121      27206973 
 3121      206E6F74 
 3121      20737570 
 3122              	.LC68:
 3123 0524 61757468 		.ascii	"authentication_set_option failed (one of the follow"
 3123      656E7469 
 3123      63617469 
 3123      6F6E5F73 
 3123      65745F6F 
 3124 0557 696E2061 		.ascii	"in are NULL: authentication_handle=%p, name=%p, val"
 3124      7265204E 
 3124      554C4C3A 
 3124      20617574 
 3124      68656E74 
 3125 058a 75653D25 		.ascii	"ue=%p)\000"
 3125      702900
 3126 0591 000000   		.space	3
 3127              	.LC74:
 3128 0594 61757468 		.ascii	"authentication_set_option failed (OptionHandler_Fee"
 3128      656E7469 
 3128      63617469 
 3128      6F6E5F73 
 3128      65745F6F 
 3129 05c7 644F7074 		.ascii	"dOptions failed)\000"
 3129      696F6E73 
 3129      20666169 
 3129      6C656429 
 3129      00
 3130              	.LC76:
 3131 05d8 61757468 		.ascii	"authentication_set_option failed (option with name "
 3131      656E7469 
 3131      63617469 
 3131      6F6E5F73 
 3131      65745F6F 
 3132 060b 27257327 		.ascii	"'%s' is not suppported)\000"
 3132      20697320 
 3132      6E6F7420 
 3132      73757070 
 3132      706F7274 
 3133 0623 00       		.space	1
 3134              	.LC80:
 3135 0624 4661696C 		.ascii	"Failed to destroy authentication option (name is NU"
 3135      65642074 
 3135      6F206465 
 3135      7374726F 
 3135      79206175 
 3136 0657 4C4C2900 		.ascii	"LL)\000"
ARM GAS  C:\Users\Phuong\AppData\Local\Temp\ccPPbPWA.s 			page 78


 3137 065b 00       		.space	1
 3138              	.LC82:
 3139 065c 4661696C 		.ascii	"Failed to destroy authentication option (value is N"
 3139      65642074 
 3139      6F206465 
 3139      7374726F 
 3139      79206175 
 3140 068f 554C4C29 		.ascii	"ULL)\000"
 3140      00
 3141              	.LC87:
 3142 0694 61757468 		.ascii	"authentication_start failed (authentication_handle "
 3142      656E7469 
 3142      63617469 
 3142      6F6E5F73 
 3142      74617274 
 3143 06c7 6973204E 		.ascii	"is NULL)\000"
 3143      554C4C29 
 3143      00
 3144              	.LC89:
 3145 06d0 61757468 		.ascii	"authentication_start failed (cbs_handle is NULL)\000"
 3145      656E7469 
 3145      63617469 
 3145      6F6E5F73 
 3145      74617274 
 3146 0701 000000   		.space	3
 3147              	.LC91:
 3148 0704 61757468 		.ascii	"authentication_start failed (messenger has already "
 3148      656E7469 
 3148      63617469 
 3148      6F6E5F73 
 3148      74617274 
 3149 0737 6265656E 		.ascii	"been started; current state: %d)\000"
 3149      20737461 
 3149      72746564 
 3149      3B206375 
 3149      7272656E 
 3150              	.LC95:
 3151 0758 61757468 		.ascii	"authentication_stop failed (authentication_handle i"
 3151      656E7469 
 3151      63617469 
 3151      6F6E5F73 
 3151      746F7020 
 3152 078b 73204E55 		.ascii	"s NULL)\000"
 3152      4C4C2900 
 3153 0793 00       		.space	1
 3154              	.LC97:
