ARM GAS  C:\Users\Phuong\AppData\Local\Temp\cc32RpHN.s 			page 1


   1              		.syntax unified
   2              		.cpu cortex-m0plus
   3              		.fpu softvfp
   4              		.eabi_attribute 20, 1
   5              		.eabi_attribute 21, 1
   6              		.eabi_attribute 23, 3
   7              		.eabi_attribute 24, 1
   8              		.eabi_attribute 25, 1
   9              		.eabi_attribute 26, 1
  10              		.eabi_attribute 30, 1
  11              		.eabi_attribute 34, 0
  12              		.eabi_attribute 18, 4
  13              		.thumb
  14              		.syntax unified
  15              		.file	"iothubtransport_amqp_connection.c"
  16              		.text
  17              	.Ltext0:
  18              		.cfi_sections	.debug_frame
  19              		.section	.text.update_state,"ax",%progbits
  20              		.align	2
  21              		.code	16
  22              		.thumb_func
  23              		.type	update_state, %function
  24              	update_state:
  25              	.LFB4:
  26              		.file 1 "Source\\azure_iot_sdk\\iothub_client\\src\\iothubtransport_amqp_connection.c"
   1:Source\azure_iot_sdk\iothub_client\src/iothubtransport_amqp_connection.c **** // Copyright (c) Microsoft. All rights reserved.
   2:Source\azure_iot_sdk\iothub_client\src/iothubtransport_amqp_connection.c **** // Licensed under the MIT license. See LICENSE file in the project root for full license informatio
   3:Source\azure_iot_sdk\iothub_client\src/iothubtransport_amqp_connection.c **** 
   4:Source\azure_iot_sdk\iothub_client\src/iothubtransport_amqp_connection.c **** #include <stdlib.h>
   5:Source\azure_iot_sdk\iothub_client\src/iothubtransport_amqp_connection.c **** #include <limits.h>
   6:Source\azure_iot_sdk\iothub_client\src/iothubtransport_amqp_connection.c **** #include "internal/iothubtransport_amqp_connection.h"
   7:Source\azure_iot_sdk\iothub_client\src/iothubtransport_amqp_connection.c **** #include "azure_c_shared_utility/optimize_size.h"
   8:Source\azure_iot_sdk\iothub_client\src/iothubtransport_amqp_connection.c **** #include "azure_c_shared_utility/gballoc.h"
   9:Source\azure_iot_sdk\iothub_client\src/iothubtransport_amqp_connection.c **** #include "azure_c_shared_utility/strings.h"
  10:Source\azure_iot_sdk\iothub_client\src/iothubtransport_amqp_connection.c **** #include "azure_c_shared_utility/uniqueid.h"
  11:Source\azure_iot_sdk\iothub_client\src/iothubtransport_amqp_connection.c **** #include "azure_uamqp_c/sasl_mechanism.h"
  12:Source\azure_iot_sdk\iothub_client\src/iothubtransport_amqp_connection.c **** #include "azure_uamqp_c/saslclientio.h"
  13:Source\azure_iot_sdk\iothub_client\src/iothubtransport_amqp_connection.c **** #include "azure_uamqp_c/sasl_mssbcbs.h"
  14:Source\azure_iot_sdk\iothub_client\src/iothubtransport_amqp_connection.c **** #include "azure_uamqp_c/connection.h"
  15:Source\azure_iot_sdk\iothub_client\src/iothubtransport_amqp_connection.c **** #include "azure_c_shared_utility/xlogging.h"
  16:Source\azure_iot_sdk\iothub_client\src/iothubtransport_amqp_connection.c **** 
  17:Source\azure_iot_sdk\iothub_client\src/iothubtransport_amqp_connection.c **** #define RESULT_OK                            0
  18:Source\azure_iot_sdk\iothub_client\src/iothubtransport_amqp_connection.c **** #define DEFAULT_INCOMING_WINDOW_SIZE         UINT_MAX
  19:Source\azure_iot_sdk\iothub_client\src/iothubtransport_amqp_connection.c **** #define DEFAULT_OUTGOING_WINDOW_SIZE         100
  20:Source\azure_iot_sdk\iothub_client\src/iothubtransport_amqp_connection.c **** #define SASL_IO_OPTION_LOG_TRACE             "logtrace"
  21:Source\azure_iot_sdk\iothub_client\src/iothubtransport_amqp_connection.c **** #define DEFAULT_UNIQUE_ID_LENGTH             40
  22:Source\azure_iot_sdk\iothub_client\src/iothubtransport_amqp_connection.c **** 
  23:Source\azure_iot_sdk\iothub_client\src/iothubtransport_amqp_connection.c **** typedef struct AMQP_CONNECTION_INSTANCE_TAG
  24:Source\azure_iot_sdk\iothub_client\src/iothubtransport_amqp_connection.c **** {
  25:Source\azure_iot_sdk\iothub_client\src/iothubtransport_amqp_connection.c ****     STRING_HANDLE iothub_fqdn;
  26:Source\azure_iot_sdk\iothub_client\src/iothubtransport_amqp_connection.c ****     XIO_HANDLE underlying_io_transport;
  27:Source\azure_iot_sdk\iothub_client\src/iothubtransport_amqp_connection.c ****     CBS_HANDLE cbs_handle;
  28:Source\azure_iot_sdk\iothub_client\src/iothubtransport_amqp_connection.c ****     CONNECTION_HANDLE connection_handle;
  29:Source\azure_iot_sdk\iothub_client\src/iothubtransport_amqp_connection.c ****     SESSION_HANDLE session_handle;
  30:Source\azure_iot_sdk\iothub_client\src/iothubtransport_amqp_connection.c ****     XIO_HANDLE sasl_io;
  31:Source\azure_iot_sdk\iothub_client\src/iothubtransport_amqp_connection.c ****     SASL_MECHANISM_HANDLE sasl_mechanism;
ARM GAS  C:\Users\Phuong\AppData\Local\Temp\cc32RpHN.s 			page 2


  32:Source\azure_iot_sdk\iothub_client\src/iothubtransport_amqp_connection.c ****     bool has_cbs;
  33:Source\azure_iot_sdk\iothub_client\src/iothubtransport_amqp_connection.c ****     bool has_sasl_mechanism;
  34:Source\azure_iot_sdk\iothub_client\src/iothubtransport_amqp_connection.c ****     bool is_trace_on;
  35:Source\azure_iot_sdk\iothub_client\src/iothubtransport_amqp_connection.c ****     AMQP_CONNECTION_STATE current_state;
  36:Source\azure_iot_sdk\iothub_client\src/iothubtransport_amqp_connection.c ****     ON_AMQP_CONNECTION_STATE_CHANGED on_state_changed_callback;
  37:Source\azure_iot_sdk\iothub_client\src/iothubtransport_amqp_connection.c ****     const void* on_state_changed_context;
  38:Source\azure_iot_sdk\iothub_client\src/iothubtransport_amqp_connection.c ****     uint32_t svc2cl_keep_alive_timeout_secs;
  39:Source\azure_iot_sdk\iothub_client\src/iothubtransport_amqp_connection.c ****     double cl2svc_keep_alive_send_ratio;
  40:Source\azure_iot_sdk\iothub_client\src/iothubtransport_amqp_connection.c **** } AMQP_CONNECTION_INSTANCE;
  41:Source\azure_iot_sdk\iothub_client\src/iothubtransport_amqp_connection.c **** 
  42:Source\azure_iot_sdk\iothub_client\src/iothubtransport_amqp_connection.c **** 
  43:Source\azure_iot_sdk\iothub_client\src/iothubtransport_amqp_connection.c **** DEFINE_ENUM_STRINGS(AMQP_CONNECTION_STATE, AMQP_CONNECTION_STATE_VALUES);
  44:Source\azure_iot_sdk\iothub_client\src/iothubtransport_amqp_connection.c **** 
  45:Source\azure_iot_sdk\iothub_client\src/iothubtransport_amqp_connection.c **** 
  46:Source\azure_iot_sdk\iothub_client\src/iothubtransport_amqp_connection.c **** static int create_sasl_components(AMQP_CONNECTION_INSTANCE* instance)
  47:Source\azure_iot_sdk\iothub_client\src/iothubtransport_amqp_connection.c **** {
  48:Source\azure_iot_sdk\iothub_client\src/iothubtransport_amqp_connection.c ****     int result;
  49:Source\azure_iot_sdk\iothub_client\src/iothubtransport_amqp_connection.c ****     SASL_MECHANISM_HANDLE sasl_mechanism;
  50:Source\azure_iot_sdk\iothub_client\src/iothubtransport_amqp_connection.c ****     XIO_HANDLE sasl_io;
  51:Source\azure_iot_sdk\iothub_client\src/iothubtransport_amqp_connection.c **** 
  52:Source\azure_iot_sdk\iothub_client\src/iothubtransport_amqp_connection.c ****     // Codes_SRS_IOTHUBTRANSPORT_AMQP_CONNECTION_09_012: [`instance->sasl_mechanism` shall be creat
  53:Source\azure_iot_sdk\iothub_client\src/iothubtransport_amqp_connection.c ****     if ((sasl_mechanism = saslmechanism_create(saslmssbcbs_get_interface(), NULL)) == NULL)
  54:Source\azure_iot_sdk\iothub_client\src/iothubtransport_amqp_connection.c ****     {
  55:Source\azure_iot_sdk\iothub_client\src/iothubtransport_amqp_connection.c ****         // Codes_SRS_IOTHUBTRANSPORT_AMQP_CONNECTION_09_013: [If saslmechanism_create() fails, amqp
  56:Source\azure_iot_sdk\iothub_client\src/iothubtransport_amqp_connection.c ****         LogError("Failed creating the SASL mechanism (saslmechanism_create failed)");
  57:Source\azure_iot_sdk\iothub_client\src/iothubtransport_amqp_connection.c ****         result = __FAILURE__;
  58:Source\azure_iot_sdk\iothub_client\src/iothubtransport_amqp_connection.c ****     }
  59:Source\azure_iot_sdk\iothub_client\src/iothubtransport_amqp_connection.c ****     else
  60:Source\azure_iot_sdk\iothub_client\src/iothubtransport_amqp_connection.c ****     {
  61:Source\azure_iot_sdk\iothub_client\src/iothubtransport_amqp_connection.c ****         // Codes_SRS_IOTHUBTRANSPORT_AMQP_CONNECTION_09_014: [A SASLCLIENTIO_CONFIG shall be set wi
  62:Source\azure_iot_sdk\iothub_client\src/iothubtransport_amqp_connection.c ****         SASLCLIENTIO_CONFIG sasl_client_config;
  63:Source\azure_iot_sdk\iothub_client\src/iothubtransport_amqp_connection.c ****         sasl_client_config.sasl_mechanism = sasl_mechanism;
  64:Source\azure_iot_sdk\iothub_client\src/iothubtransport_amqp_connection.c ****         sasl_client_config.underlying_io = instance->underlying_io_transport;
  65:Source\azure_iot_sdk\iothub_client\src/iothubtransport_amqp_connection.c **** 
  66:Source\azure_iot_sdk\iothub_client\src/iothubtransport_amqp_connection.c ****         // Codes_SRS_IOTHUBTRANSPORT_AMQP_CONNECTION_09_015: [`instance->sasl_io` shall be created 
  67:Source\azure_iot_sdk\iothub_client\src/iothubtransport_amqp_connection.c ****         if ((sasl_io = xio_create(saslclientio_get_interface_description(), &sasl_client_config)) =
  68:Source\azure_iot_sdk\iothub_client\src/iothubtransport_amqp_connection.c ****         {
  69:Source\azure_iot_sdk\iothub_client\src/iothubtransport_amqp_connection.c ****             // Codes_SRS_IOTHUBTRANSPORT_AMQP_CONNECTION_09_016: [If xio_create() fails, amqp_conne
  70:Source\azure_iot_sdk\iothub_client\src/iothubtransport_amqp_connection.c ****             LogError("Failed creating the SASL I/O (xio_create failed)");
  71:Source\azure_iot_sdk\iothub_client\src/iothubtransport_amqp_connection.c ****             saslmechanism_destroy(sasl_mechanism);
  72:Source\azure_iot_sdk\iothub_client\src/iothubtransport_amqp_connection.c ****             result = __FAILURE__;
  73:Source\azure_iot_sdk\iothub_client\src/iothubtransport_amqp_connection.c ****         }
  74:Source\azure_iot_sdk\iothub_client\src/iothubtransport_amqp_connection.c ****         // Codes_SRS_IOTHUBTRANSPORT_AMQP_CONNECTION_09_017: [The sasl_io "logtrace" option shall b
  75:Source\azure_iot_sdk\iothub_client\src/iothubtransport_amqp_connection.c ****         else if (xio_setoption(sasl_io, SASL_IO_OPTION_LOG_TRACE, (const void*)&instance->is_trace_
  76:Source\azure_iot_sdk\iothub_client\src/iothubtransport_amqp_connection.c ****         {
  77:Source\azure_iot_sdk\iothub_client\src/iothubtransport_amqp_connection.c ****             LogError("Failed setting the SASL I/O logging trace option (xio_setoption failed)");
  78:Source\azure_iot_sdk\iothub_client\src/iothubtransport_amqp_connection.c ****             xio_destroy(sasl_io);
  79:Source\azure_iot_sdk\iothub_client\src/iothubtransport_amqp_connection.c ****             saslmechanism_destroy(sasl_mechanism);
  80:Source\azure_iot_sdk\iothub_client\src/iothubtransport_amqp_connection.c ****             result = __FAILURE__;
  81:Source\azure_iot_sdk\iothub_client\src/iothubtransport_amqp_connection.c ****         }
  82:Source\azure_iot_sdk\iothub_client\src/iothubtransport_amqp_connection.c ****         else
  83:Source\azure_iot_sdk\iothub_client\src/iothubtransport_amqp_connection.c ****         {
  84:Source\azure_iot_sdk\iothub_client\src/iothubtransport_amqp_connection.c ****             instance->sasl_mechanism = sasl_mechanism;
  85:Source\azure_iot_sdk\iothub_client\src/iothubtransport_amqp_connection.c ****             instance->sasl_io = sasl_io;
  86:Source\azure_iot_sdk\iothub_client\src/iothubtransport_amqp_connection.c ****             result = RESULT_OK;
  87:Source\azure_iot_sdk\iothub_client\src/iothubtransport_amqp_connection.c ****         }
  88:Source\azure_iot_sdk\iothub_client\src/iothubtransport_amqp_connection.c ****     }
ARM GAS  C:\Users\Phuong\AppData\Local\Temp\cc32RpHN.s 			page 3


  89:Source\azure_iot_sdk\iothub_client\src/iothubtransport_amqp_connection.c **** 
  90:Source\azure_iot_sdk\iothub_client\src/iothubtransport_amqp_connection.c ****     return result;
  91:Source\azure_iot_sdk\iothub_client\src/iothubtransport_amqp_connection.c **** }
  92:Source\azure_iot_sdk\iothub_client\src/iothubtransport_amqp_connection.c **** 
  93:Source\azure_iot_sdk\iothub_client\src/iothubtransport_amqp_connection.c **** static void update_state(AMQP_CONNECTION_INSTANCE* instance, AMQP_CONNECTION_STATE new_state)
  94:Source\azure_iot_sdk\iothub_client\src/iothubtransport_amqp_connection.c **** {
  27              		.loc 1 94 0
  28              		.cfi_startproc
  29              		@ args = 0, pretend = 0, frame = 0
  30              		@ frame_needed = 0, uses_anonymous_args = 0
  31              	.LVL0:
  32 0000 10B5     		push	{r4, lr}
  33              		.cfi_def_cfa_offset 8
  34              		.cfi_offset 4, -8
  35              		.cfi_offset 14, -4
  36 0002 0A00     		movs	r2, r1
  95:Source\azure_iot_sdk\iothub_client\src/iothubtransport_amqp_connection.c ****     if (new_state != instance->current_state)
  37              		.loc 1 95 0
  38 0004 C17F     		ldrb	r1, [r0, #31]
  39              	.LVL1:
  40 0006 9142     		cmp	r1, r2
  41 0008 05D0     		beq	.L1
  42              	.LVL2:
  43              	.LBB2:
  96:Source\azure_iot_sdk\iothub_client\src/iothubtransport_amqp_connection.c ****     {
  97:Source\azure_iot_sdk\iothub_client\src/iothubtransport_amqp_connection.c ****         AMQP_CONNECTION_STATE previous_state = instance->current_state;
  98:Source\azure_iot_sdk\iothub_client\src/iothubtransport_amqp_connection.c ****         instance->current_state = new_state;
  44              		.loc 1 98 0
  45 000a C277     		strb	r2, [r0, #31]
  99:Source\azure_iot_sdk\iothub_client\src/iothubtransport_amqp_connection.c **** 
 100:Source\azure_iot_sdk\iothub_client\src/iothubtransport_amqp_connection.c ****         if (instance->on_state_changed_callback != NULL)
  46              		.loc 1 100 0
  47 000c 036A     		ldr	r3, [r0, #32]
  48 000e 002B     		cmp	r3, #0
  49 0010 01D0     		beq	.L1
 101:Source\azure_iot_sdk\iothub_client\src/iothubtransport_amqp_connection.c ****         {
 102:Source\azure_iot_sdk\iothub_client\src/iothubtransport_amqp_connection.c ****             instance->on_state_changed_callback(instance->on_state_changed_context, previous_state,
  50              		.loc 1 102 0
  51 0012 406A     		ldr	r0, [r0, #36]
  52              	.LVL3:
  53 0014 9847     		blx	r3
  54              	.LVL4:
  55              	.L1:
  56              	.LBE2:
 103:Source\azure_iot_sdk\iothub_client\src/iothubtransport_amqp_connection.c ****         }
 104:Source\azure_iot_sdk\iothub_client\src/iothubtransport_amqp_connection.c ****     }
 105:Source\azure_iot_sdk\iothub_client\src/iothubtransport_amqp_connection.c **** }
  57              		.loc 1 105 0
  58              		@ sp needed
  59 0016 10BD     		pop	{r4, pc}
  60              		.cfi_endproc
  61              	.LFE4:
  62              		.size	update_state, .-update_state
  63              		.section	.text.on_connection_io_error,"ax",%progbits
  64              		.align	2
  65              		.code	16
  66              		.thumb_func
ARM GAS  C:\Users\Phuong\AppData\Local\Temp\cc32RpHN.s 			page 4


  67              		.type	on_connection_io_error, %function
  68              	on_connection_io_error:
  69              	.LFB5:
 106:Source\azure_iot_sdk\iothub_client\src/iothubtransport_amqp_connection.c **** 
 107:Source\azure_iot_sdk\iothub_client\src/iothubtransport_amqp_connection.c **** static void on_connection_io_error(void* context)
 108:Source\azure_iot_sdk\iothub_client\src/iothubtransport_amqp_connection.c **** {
  70              		.loc 1 108 0
  71              		.cfi_startproc
  72              		@ args = 0, pretend = 0, frame = 0
  73              		@ frame_needed = 0, uses_anonymous_args = 0
  74              	.LVL5:
  75 0000 10B5     		push	{r4, lr}
  76              		.cfi_def_cfa_offset 8
  77              		.cfi_offset 4, -8
  78              		.cfi_offset 14, -4
 109:Source\azure_iot_sdk\iothub_client\src/iothubtransport_amqp_connection.c ****     // Codes_SRS_IOTHUBTRANSPORT_AMQP_CONNECTION_09_022: [If the connection calls back with an I/O 
 110:Source\azure_iot_sdk\iothub_client\src/iothubtransport_amqp_connection.c ****     update_state((AMQP_CONNECTION_INSTANCE*)context, AMQP_CONNECTION_STATE_ERROR);
  79              		.loc 1 110 0
  80 0002 0221     		movs	r1, #2
  81 0004 FFF7FEFF 		bl	update_state
  82              	.LVL6:
 111:Source\azure_iot_sdk\iothub_client\src/iothubtransport_amqp_connection.c **** }
  83              		.loc 1 111 0
  84              		@ sp needed
  85 0008 10BD     		pop	{r4, pc}
  86              		.cfi_endproc
  87              	.LFE5:
  88              		.size	on_connection_io_error, .-on_connection_io_error
  89 000a C046     		.section	.text.on_connection_state_changed,"ax",%progbits
  90              		.align	2
  91              		.code	16
  92              		.thumb_func
  93              		.type	on_connection_state_changed, %function
  94              	on_connection_state_changed:
  95              	.LFB6:
 112:Source\azure_iot_sdk\iothub_client\src/iothubtransport_amqp_connection.c **** 
 113:Source\azure_iot_sdk\iothub_client\src/iothubtransport_amqp_connection.c **** static void on_connection_state_changed(void* context, CONNECTION_STATE new_connection_state, CONNE
 114:Source\azure_iot_sdk\iothub_client\src/iothubtransport_amqp_connection.c **** {
  96              		.loc 1 114 0
  97              		.cfi_startproc
  98              		@ args = 0, pretend = 0, frame = 0
  99              		@ frame_needed = 0, uses_anonymous_args = 0
 100              	.LVL7:
 101 0000 10B5     		push	{r4, lr}
 102              		.cfi_def_cfa_offset 8
 103              		.cfi_offset 4, -8
 104              		.cfi_offset 14, -4
 105              	.LVL8:
 115:Source\azure_iot_sdk\iothub_client\src/iothubtransport_amqp_connection.c ****     (void)previous_connection_state;
 116:Source\azure_iot_sdk\iothub_client\src/iothubtransport_amqp_connection.c **** 
 117:Source\azure_iot_sdk\iothub_client\src/iothubtransport_amqp_connection.c ****     AMQP_CONNECTION_INSTANCE* instance = (AMQP_CONNECTION_INSTANCE*)context;
 118:Source\azure_iot_sdk\iothub_client\src/iothubtransport_amqp_connection.c **** 
 119:Source\azure_iot_sdk\iothub_client\src/iothubtransport_amqp_connection.c ****     // Codes_SRS_IOTHUBTRANSPORT_AMQP_CONNECTION_09_063: [If `on_connection_state_changed` is calle
 120:Source\azure_iot_sdk\iothub_client\src/iothubtransport_amqp_connection.c ****     if (new_connection_state == CONNECTION_STATE_START)
 106              		.loc 1 120 0
 107 0002 0029     		cmp	r1, #0
 108 0004 09D1     		bne	.L5
ARM GAS  C:\Users\Phuong\AppData\Local\Temp\cc32RpHN.s 			page 5


 121:Source\azure_iot_sdk\iothub_client\src/iothubtransport_amqp_connection.c ****     {
 122:Source\azure_iot_sdk\iothub_client\src/iothubtransport_amqp_connection.c ****         // connection is using x509 authentication.
 123:Source\azure_iot_sdk\iothub_client\src/iothubtransport_amqp_connection.c ****         // At this point uamqp's connection only raises CONNECTION_STATE_START when using X509 auth
 124:Source\azure_iot_sdk\iothub_client\src/iothubtransport_amqp_connection.c ****         // So that should be all we expect to consider the amqp_connection_handle opened.
 125:Source\azure_iot_sdk\iothub_client\src/iothubtransport_amqp_connection.c ****         if (instance->has_cbs == false || instance->has_sasl_mechanism == false)
 109              		.loc 1 125 0
 110 0006 037F     		ldrb	r3, [r0, #28]
 111 0008 002B     		cmp	r3, #0
 112 000a 02D0     		beq	.L6
 113              		.loc 1 125 0 is_stmt 0 discriminator 1
 114 000c 437F     		ldrb	r3, [r0, #29]
 115 000e 002B     		cmp	r3, #0
 116 0010 16D1     		bne	.L4
 117              	.L6:
 126:Source\azure_iot_sdk\iothub_client\src/iothubtransport_amqp_connection.c ****         {
 127:Source\azure_iot_sdk\iothub_client\src/iothubtransport_amqp_connection.c ****             update_state(instance, AMQP_CONNECTION_STATE_OPENED);
 118              		.loc 1 127 0 is_stmt 1
 119 0012 0021     		movs	r1, #0
 120              	.LVL9:
 121 0014 FFF7FEFF 		bl	update_state
 122              	.LVL10:
 123 0018 12E0     		b	.L4
 124              	.LVL11:
 125              	.L5:
 128:Source\azure_iot_sdk\iothub_client\src/iothubtransport_amqp_connection.c ****         }
 129:Source\azure_iot_sdk\iothub_client\src/iothubtransport_amqp_connection.c ****     }
 130:Source\azure_iot_sdk\iothub_client\src/iothubtransport_amqp_connection.c ****     // Codes_SRS_IOTHUBTRANSPORT_AMQP_CONNECTION_09_064: [If `on_connection_state_changed` new stat
 131:Source\azure_iot_sdk\iothub_client\src/iothubtransport_amqp_connection.c ****     else if (new_connection_state == CONNECTION_STATE_OPENED)
 126              		.loc 1 131 0
 127 001a 0929     		cmp	r1, #9
 128 001c 03D1     		bne	.L8
 132:Source\azure_iot_sdk\iothub_client\src/iothubtransport_amqp_connection.c ****     {
 133:Source\azure_iot_sdk\iothub_client\src/iothubtransport_amqp_connection.c ****         update_state(instance, AMQP_CONNECTION_STATE_OPENED);
 129              		.loc 1 133 0
 130 001e 0021     		movs	r1, #0
 131              	.LVL12:
 132 0020 FFF7FEFF 		bl	update_state
 133              	.LVL13:
 134 0024 0CE0     		b	.L4
 135              	.LVL14:
 136              	.L8:
 134:Source\azure_iot_sdk\iothub_client\src/iothubtransport_amqp_connection.c ****     }
 135:Source\azure_iot_sdk\iothub_client\src/iothubtransport_amqp_connection.c ****     // Codes_SRS_IOTHUBTRANSPORT_AMQP_CONNECTION_09_065: [If `on_connection_state_changed` new stat
 136:Source\azure_iot_sdk\iothub_client\src/iothubtransport_amqp_connection.c ****     else if (new_connection_state == CONNECTION_STATE_END)
 137              		.loc 1 136 0
 138 0026 0D29     		cmp	r1, #13
 139 0028 03D1     		bne	.L9
 137:Source\azure_iot_sdk\iothub_client\src/iothubtransport_amqp_connection.c ****     {
 138:Source\azure_iot_sdk\iothub_client\src/iothubtransport_amqp_connection.c ****         update_state(instance, AMQP_CONNECTION_STATE_CLOSED);
 140              		.loc 1 138 0
 141 002a 0C39     		subs	r1, r1, #12
 142              	.LVL15:
 143 002c FFF7FEFF 		bl	update_state
 144              	.LVL16:
 145 0030 06E0     		b	.L4
 146              	.LVL17:
 147              	.L9:
ARM GAS  C:\Users\Phuong\AppData\Local\Temp\cc32RpHN.s 			page 6


 139:Source\azure_iot_sdk\iothub_client\src/iothubtransport_amqp_connection.c ****     }
 140:Source\azure_iot_sdk\iothub_client\src/iothubtransport_amqp_connection.c ****     // Codes_SRS_IOTHUBTRANSPORT_AMQP_CONNECTION_09_071: [If `on_connection_state_changed` new stat
 141:Source\azure_iot_sdk\iothub_client\src/iothubtransport_amqp_connection.c ****     else if (new_connection_state == CONNECTION_STATE_ERROR || new_connection_state == CONNECTION_S
 148              		.loc 1 141 0
 149 0032 0E29     		cmp	r1, #14
 150 0034 01D0     		beq	.L10
 151              		.loc 1 141 0 is_stmt 0 discriminator 1
 152 0036 0C29     		cmp	r1, #12
 153 0038 02D1     		bne	.L4
 154              	.L10:
 142:Source\azure_iot_sdk\iothub_client\src/iothubtransport_amqp_connection.c ****     {
 143:Source\azure_iot_sdk\iothub_client\src/iothubtransport_amqp_connection.c ****         update_state(instance, AMQP_CONNECTION_STATE_ERROR);
 155              		.loc 1 143 0 is_stmt 1
 156 003a 0221     		movs	r1, #2
 157              	.LVL18:
 158 003c FFF7FEFF 		bl	update_state
 159              	.LVL19:
 160              	.L4:
 144:Source\azure_iot_sdk\iothub_client\src/iothubtransport_amqp_connection.c ****     }
 145:Source\azure_iot_sdk\iothub_client\src/iothubtransport_amqp_connection.c **** }
 161              		.loc 1 145 0
 162              		@ sp needed
 163 0040 10BD     		pop	{r4, pc}
 164              		.cfi_endproc
 165              	.LFE6:
 166              		.size	on_connection_state_changed, .-on_connection_state_changed
 167 0042 C046     		.section	.text.on_cbs_error,"ax",%progbits
 168              		.align	2
 169              		.code	16
 170              		.thumb_func
 171              		.type	on_cbs_error, %function
 172              	on_cbs_error:
 173              	.LFB8:
 146:Source\azure_iot_sdk\iothub_client\src/iothubtransport_amqp_connection.c **** 
 147:Source\azure_iot_sdk\iothub_client\src/iothubtransport_amqp_connection.c **** static void on_cbs_open_complete(void* context, CBS_OPEN_COMPLETE_RESULT open_complete_result)
 148:Source\azure_iot_sdk\iothub_client\src/iothubtransport_amqp_connection.c **** {
 149:Source\azure_iot_sdk\iothub_client\src/iothubtransport_amqp_connection.c ****     (void)context;
 150:Source\azure_iot_sdk\iothub_client\src/iothubtransport_amqp_connection.c ****     (void)open_complete_result;
 151:Source\azure_iot_sdk\iothub_client\src/iothubtransport_amqp_connection.c ****     if (open_complete_result != CBS_OPEN_OK)
 152:Source\azure_iot_sdk\iothub_client\src/iothubtransport_amqp_connection.c ****     {
 153:Source\azure_iot_sdk\iothub_client\src/iothubtransport_amqp_connection.c ****         LogError("PSOC6---CBS open failed---PSOC6");
 154:Source\azure_iot_sdk\iothub_client\src/iothubtransport_amqp_connection.c ****     }
 155:Source\azure_iot_sdk\iothub_client\src/iothubtransport_amqp_connection.c **** }
 156:Source\azure_iot_sdk\iothub_client\src/iothubtransport_amqp_connection.c **** 
 157:Source\azure_iot_sdk\iothub_client\src/iothubtransport_amqp_connection.c **** static void on_cbs_error(void* context)
 158:Source\azure_iot_sdk\iothub_client\src/iothubtransport_amqp_connection.c **** {
 174              		.loc 1 158 0
 175              		.cfi_startproc
 176              		@ args = 0, pretend = 0, frame = 0
 177              		@ frame_needed = 0, uses_anonymous_args = 0
 178              	.LVL20:
 179 0000 10B5     		push	{r4, lr}
 180              		.cfi_def_cfa_offset 8
 181              		.cfi_offset 4, -8
 182              		.cfi_offset 14, -4
 183 0002 82B0     		sub	sp, sp, #8
 184              		.cfi_def_cfa_offset 16
ARM GAS  C:\Users\Phuong\AppData\Local\Temp\cc32RpHN.s 			page 7


 185              	.LBB3:
 159:Source\azure_iot_sdk\iothub_client\src/iothubtransport_amqp_connection.c ****     (void)context;
 160:Source\azure_iot_sdk\iothub_client\src/iothubtransport_amqp_connection.c ****     LogError("CBS Error occured");
 186              		.loc 1 160 0
 187 0004 FFF7FEFF 		bl	xlogging_get_log_function
 188              	.LVL21:
 189 0008 041E     		subs	r4, r0, #0
 190              	.LVL22:
 191 000a 08D0     		beq	.L11
 192              		.loc 1 160 0 is_stmt 0 discriminator 4
 193 000c 054B     		ldr	r3, .L13
 194 000e 0193     		str	r3, [sp, #4]
 195 0010 0123     		movs	r3, #1
 196 0012 0093     		str	r3, [sp]
 197 0014 9F33     		adds	r3, r3, #159
 198 0016 044A     		ldr	r2, .L13+4
 199 0018 0449     		ldr	r1, .L13+8
 200 001a 0020     		movs	r0, #0
 201              	.LVL23:
 202 001c A047     		blx	r4
 203              	.LVL24:
 204              	.L11:
 205              	.LBE3:
 161:Source\azure_iot_sdk\iothub_client\src/iothubtransport_amqp_connection.c **** }
 206              		.loc 1 161 0 is_stmt 1
 207 001e 02B0     		add	sp, sp, #8
 208              		@ sp needed
 209              	.LVL25:
 210 0020 10BD     		pop	{r4, pc}
 211              	.L14:
 212 0022 C046     		.align	2
 213              	.L13:
 214 0024 4C000000 		.word	.LC3
 215 0028 00000000 		.word	.LANCHOR0
 216 002c 00000000 		.word	.LC1
 217              		.cfi_endproc
 218              	.LFE8:
 219              		.size	on_cbs_error, .-on_cbs_error
 220              		.section	.text.on_cbs_open_complete,"ax",%progbits
 221              		.align	2
 222              		.code	16
 223              		.thumb_func
 224              		.type	on_cbs_open_complete, %function
 225              	on_cbs_open_complete:
 226              	.LFB7:
 148:Source\azure_iot_sdk\iothub_client\src/iothubtransport_amqp_connection.c ****     (void)context;
 227              		.loc 1 148 0
 228              		.cfi_startproc
 229              		@ args = 0, pretend = 0, frame = 0
 230              		@ frame_needed = 0, uses_anonymous_args = 0
 231              	.LVL26:
 232 0000 10B5     		push	{r4, lr}
 233              		.cfi_def_cfa_offset 8
 234              		.cfi_offset 4, -8
 235              		.cfi_offset 14, -4
 236 0002 82B0     		sub	sp, sp, #8
 237              		.cfi_def_cfa_offset 16
ARM GAS  C:\Users\Phuong\AppData\Local\Temp\cc32RpHN.s 			page 8


 151:Source\azure_iot_sdk\iothub_client\src/iothubtransport_amqp_connection.c ****     {
 238              		.loc 1 151 0
 239 0004 0029     		cmp	r1, #0
 240 0006 0DD0     		beq	.L15
 241              	.LBB4:
 153:Source\azure_iot_sdk\iothub_client\src/iothubtransport_amqp_connection.c ****     }
 242              		.loc 1 153 0 discriminator 3
 243 0008 FFF7FEFF 		bl	xlogging_get_log_function
 244              	.LVL27:
 245 000c 041E     		subs	r4, r0, #0
 246              	.LVL28:
 247 000e 09D0     		beq	.L15
 153:Source\azure_iot_sdk\iothub_client\src/iothubtransport_amqp_connection.c ****     }
 248              		.loc 1 153 0 is_stmt 0 discriminator 4
 249 0010 054B     		ldr	r3, .L17
 250 0012 0193     		str	r3, [sp, #4]
 251 0014 0123     		movs	r3, #1
 252 0016 0093     		str	r3, [sp]
 253 0018 9833     		adds	r3, r3, #152
 254 001a 044A     		ldr	r2, .L17+4
 255 001c 1032     		adds	r2, r2, #16
 256 001e 0449     		ldr	r1, .L17+8
 257 0020 0020     		movs	r0, #0
 258              	.LVL29:
 259 0022 A047     		blx	r4
 260              	.LVL30:
 261              	.L15:
 262              	.LBE4:
 155:Source\azure_iot_sdk\iothub_client\src/iothubtransport_amqp_connection.c **** 
 263              		.loc 1 155 0 is_stmt 1
 264 0024 02B0     		add	sp, sp, #8
 265              		@ sp needed
 266 0026 10BD     		pop	{r4, pc}
 267              	.L18:
 268              		.align	2
 269              	.L17:
 270 0028 60000000 		.word	.LC7
 271 002c 00000000 		.word	.LANCHOR0
 272 0030 00000000 		.word	.LC1
 273              		.cfi_endproc
 274              	.LFE7:
 275              		.size	on_cbs_open_complete, .-on_cbs_open_complete
 276              		.section	.text.create_sasl_components,"ax",%progbits
 277              		.align	2
 278              		.code	16
 279              		.thumb_func
 280              		.type	create_sasl_components, %function
 281              	create_sasl_components:
 282              	.LFB3:
  47:Source\azure_iot_sdk\iothub_client\src/iothubtransport_amqp_connection.c ****     int result;
 283              		.loc 1 47 0
 284              		.cfi_startproc
 285              		@ args = 0, pretend = 0, frame = 8
 286              		@ frame_needed = 0, uses_anonymous_args = 0
 287              	.LVL31:
 288 0000 70B5     		push	{r4, r5, r6, lr}
 289              		.cfi_def_cfa_offset 16
ARM GAS  C:\Users\Phuong\AppData\Local\Temp\cc32RpHN.s 			page 9


 290              		.cfi_offset 4, -16
 291              		.cfi_offset 5, -12
 292              		.cfi_offset 6, -8
 293              		.cfi_offset 14, -4
 294 0002 84B0     		sub	sp, sp, #16
 295              		.cfi_def_cfa_offset 32
 296 0004 0500     		movs	r5, r0
  53:Source\azure_iot_sdk\iothub_client\src/iothubtransport_amqp_connection.c ****     {
 297              		.loc 1 53 0
 298 0006 FFF7FEFF 		bl	saslmssbcbs_get_interface
 299              	.LVL32:
 300 000a 0021     		movs	r1, #0
 301 000c FFF7FEFF 		bl	saslmechanism_create
 302              	.LVL33:
 303 0010 041E     		subs	r4, r0, #0
 304              	.LVL34:
 305 0012 0FD1     		bne	.L20
 306              	.LBB5:
  56:Source\azure_iot_sdk\iothub_client\src/iothubtransport_amqp_connection.c ****         result = __FAILURE__;
 307              		.loc 1 56 0 discriminator 3
 308 0014 FFF7FEFF 		bl	xlogging_get_log_function
 309              	.LVL35:
 310 0018 041E     		subs	r4, r0, #0
 311              	.LVL36:
 312 001a 49D0     		beq	.L27
  56:Source\azure_iot_sdk\iothub_client\src/iothubtransport_amqp_connection.c ****         result = __FAILURE__;
 313              		.loc 1 56 0 is_stmt 0 discriminator 4
 314 001c 264B     		ldr	r3, .L28
 315 001e 0193     		str	r3, [sp, #4]
 316 0020 0123     		movs	r3, #1
 317 0022 0093     		str	r3, [sp]
 318 0024 3733     		adds	r3, r3, #55
 319 0026 254A     		ldr	r2, .L28+4
 320 0028 2832     		adds	r2, r2, #40
 321 002a 2549     		ldr	r1, .L28+8
 322 002c 0020     		movs	r0, #0
 323              	.LVL37:
 324 002e A047     		blx	r4
 325              	.LVL38:
 326              	.LBE5:
  57:Source\azure_iot_sdk\iothub_client\src/iothubtransport_amqp_connection.c ****     }
 327              		.loc 1 57 0 is_stmt 1 discriminator 4
 328 0030 3920     		movs	r0, #57
 329 0032 3EE0     		b	.L21
 330              	.LVL39:
 331              	.L20:
 332              	.LBB6:
  63:Source\azure_iot_sdk\iothub_client\src/iothubtransport_amqp_connection.c ****         sasl_client_config.underlying_io = instance->underlying_io_transport;
 333              		.loc 1 63 0
 334 0034 0390     		str	r0, [sp, #12]
  64:Source\azure_iot_sdk\iothub_client\src/iothubtransport_amqp_connection.c **** 
 335              		.loc 1 64 0
 336 0036 6B68     		ldr	r3, [r5, #4]
 337 0038 0293     		str	r3, [sp, #8]
  67:Source\azure_iot_sdk\iothub_client\src/iothubtransport_amqp_connection.c ****         {
 338              		.loc 1 67 0
 339 003a FFF7FEFF 		bl	saslclientio_get_interface_description
ARM GAS  C:\Users\Phuong\AppData\Local\Temp\cc32RpHN.s 			page 10


 340              	.LVL40:
 341 003e 02A9     		add	r1, sp, #8
 342 0040 FFF7FEFF 		bl	xio_create
 343              	.LVL41:
 344 0044 061E     		subs	r6, r0, #0
 345              	.LVL42:
 346 0046 12D1     		bne	.L22
 347              	.LBB7:
  70:Source\azure_iot_sdk\iothub_client\src/iothubtransport_amqp_connection.c ****             saslmechanism_destroy(sasl_mechanism);
 348              		.loc 1 70 0 discriminator 3
 349 0048 FFF7FEFF 		bl	xlogging_get_log_function
 350              	.LVL43:
 351 004c 051E     		subs	r5, r0, #0
 352              	.LVL44:
 353 004e 09D0     		beq	.L23
  70:Source\azure_iot_sdk\iothub_client\src/iothubtransport_amqp_connection.c ****             saslmechanism_destroy(sasl_mechanism);
 354              		.loc 1 70 0 is_stmt 0 discriminator 4
 355 0050 1C4B     		ldr	r3, .L28+12
 356 0052 0193     		str	r3, [sp, #4]
 357 0054 0123     		movs	r3, #1
 358 0056 0093     		str	r3, [sp]
 359 0058 4533     		adds	r3, r3, #69
 360 005a 184A     		ldr	r2, .L28+4
 361 005c 2832     		adds	r2, r2, #40
 362 005e 1849     		ldr	r1, .L28+8
 363 0060 0020     		movs	r0, #0
 364              	.LVL45:
 365 0062 A847     		blx	r5
 366              	.LVL46:
 367              	.L23:
 368              	.LBE7:
  71:Source\azure_iot_sdk\iothub_client\src/iothubtransport_amqp_connection.c ****             result = __FAILURE__;
 369              		.loc 1 71 0 is_stmt 1
 370 0064 2000     		movs	r0, r4
 371 0066 FFF7FEFF 		bl	saslmechanism_destroy
 372              	.LVL47:
  72:Source\azure_iot_sdk\iothub_client\src/iothubtransport_amqp_connection.c ****         }
 373              		.loc 1 72 0
 374 006a 4820     		movs	r0, #72
 375 006c 21E0     		b	.L21
 376              	.LVL48:
 377              	.L22:
  75:Source\azure_iot_sdk\iothub_client\src/iothubtransport_amqp_connection.c ****         {
 378              		.loc 1 75 0
 379 006e 2A00     		movs	r2, r5
 380 0070 1E32     		adds	r2, r2, #30
 381 0072 1549     		ldr	r1, .L28+16
 382 0074 FFF7FEFF 		bl	xio_setoption
 383              	.LVL49:
 384 0078 0028     		cmp	r0, #0
 385 007a 15D0     		beq	.L25
 386              	.LBB8:
  77:Source\azure_iot_sdk\iothub_client\src/iothubtransport_amqp_connection.c ****             xio_destroy(sasl_io);
 387              		.loc 1 77 0 discriminator 3
 388 007c FFF7FEFF 		bl	xlogging_get_log_function
 389              	.LVL50:
 390 0080 051E     		subs	r5, r0, #0
ARM GAS  C:\Users\Phuong\AppData\Local\Temp\cc32RpHN.s 			page 11


 391              	.LVL51:
 392 0082 09D0     		beq	.L26
  77:Source\azure_iot_sdk\iothub_client\src/iothubtransport_amqp_connection.c ****             xio_destroy(sasl_io);
 393              		.loc 1 77 0 is_stmt 0 discriminator 4
 394 0084 114B     		ldr	r3, .L28+20
 395 0086 0193     		str	r3, [sp, #4]
 396 0088 0123     		movs	r3, #1
 397 008a 0093     		str	r3, [sp]
 398 008c 4C33     		adds	r3, r3, #76
 399 008e 0B4A     		ldr	r2, .L28+4
 400 0090 2832     		adds	r2, r2, #40
 401 0092 0B49     		ldr	r1, .L28+8
 402 0094 0020     		movs	r0, #0
 403              	.LVL52:
 404 0096 A847     		blx	r5
 405              	.LVL53:
 406              	.L26:
 407              	.LBE8:
  78:Source\azure_iot_sdk\iothub_client\src/iothubtransport_amqp_connection.c ****             saslmechanism_destroy(sasl_mechanism);
 408              		.loc 1 78 0 is_stmt 1
 409 0098 3000     		movs	r0, r6
 410 009a FFF7FEFF 		bl	xio_destroy
 411              	.LVL54:
  79:Source\azure_iot_sdk\iothub_client\src/iothubtransport_amqp_connection.c ****             result = __FAILURE__;
 412              		.loc 1 79 0
 413 009e 2000     		movs	r0, r4
 414 00a0 FFF7FEFF 		bl	saslmechanism_destroy
 415              	.LVL55:
  80:Source\azure_iot_sdk\iothub_client\src/iothubtransport_amqp_connection.c ****         }
 416              		.loc 1 80 0
 417 00a4 5020     		movs	r0, #80
 418 00a6 04E0     		b	.L21
 419              	.LVL56:
 420              	.L25:
  84:Source\azure_iot_sdk\iothub_client\src/iothubtransport_amqp_connection.c ****             instance->sasl_io = sasl_io;
 421              		.loc 1 84 0
 422 00a8 AC61     		str	r4, [r5, #24]
  85:Source\azure_iot_sdk\iothub_client\src/iothubtransport_amqp_connection.c ****             result = RESULT_OK;
 423              		.loc 1 85 0
 424 00aa 6E61     		str	r6, [r5, #20]
 425              	.LVL57:
  86:Source\azure_iot_sdk\iothub_client\src/iothubtransport_amqp_connection.c ****         }
 426              		.loc 1 86 0
 427 00ac 0020     		movs	r0, #0
 428 00ae 00E0     		b	.L21
 429              	.LVL58:
 430              	.L27:
 431              	.LBE6:
  57:Source\azure_iot_sdk\iothub_client\src/iothubtransport_amqp_connection.c ****     }
 432              		.loc 1 57 0
 433 00b0 3920     		movs	r0, #57
 434              	.LVL59:
 435              	.L21:
  91:Source\azure_iot_sdk\iothub_client\src/iothubtransport_amqp_connection.c **** 
 436              		.loc 1 91 0
 437 00b2 04B0     		add	sp, sp, #16
 438              		@ sp needed
ARM GAS  C:\Users\Phuong\AppData\Local\Temp\cc32RpHN.s 			page 12


 439 00b4 70BD     		pop	{r4, r5, r6, pc}
 440              	.L29:
 441 00b6 C046     		.align	2
 442              	.L28:
 443 00b8 80000000 		.word	.LC11
 444 00bc 00000000 		.word	.LANCHOR0
 445 00c0 00000000 		.word	.LC1
 446 00c4 C4000000 		.word	.LC13
 447 00c8 F8000000 		.word	.LC15
 448 00cc 04010000 		.word	.LC17
 449              		.cfi_endproc
 450              	.LFE3:
 451              		.size	create_sasl_components, .-create_sasl_components
 452              		.section	.text.create_connection_handle,"ax",%progbits
 453              		.align	2
 454              		.code	16
 455              		.thumb_func
 456              		.type	create_connection_handle, %function
 457              	create_connection_handle:
 458              	.LFB9:
 162:Source\azure_iot_sdk\iothub_client\src/iothubtransport_amqp_connection.c **** 
 163:Source\azure_iot_sdk\iothub_client\src/iothubtransport_amqp_connection.c **** static int create_connection_handle(AMQP_CONNECTION_INSTANCE* instance)
 164:Source\azure_iot_sdk\iothub_client\src/iothubtransport_amqp_connection.c **** {
 459              		.loc 1 164 0
 460              		.cfi_startproc
 461              		@ args = 0, pretend = 0, frame = 0
 462              		@ frame_needed = 0, uses_anonymous_args = 0
 463              	.LVL60:
 464 0000 70B5     		push	{r4, r5, r6, lr}
 465              		.cfi_def_cfa_offset 16
 466              		.cfi_offset 4, -16
 467              		.cfi_offset 5, -12
 468              		.cfi_offset 6, -8
 469              		.cfi_offset 14, -4
 470 0002 86B0     		sub	sp, sp, #24
 471              		.cfi_def_cfa_offset 40
 472 0004 0500     		movs	r5, r0
 473              	.LVL61:
 165:Source\azure_iot_sdk\iothub_client\src/iothubtransport_amqp_connection.c ****     int result;
 166:Source\azure_iot_sdk\iothub_client\src/iothubtransport_amqp_connection.c ****     char* unique_container_id = NULL;
 167:Source\azure_iot_sdk\iothub_client\src/iothubtransport_amqp_connection.c ****     XIO_HANDLE connection_io_transport;
 168:Source\azure_iot_sdk\iothub_client\src/iothubtransport_amqp_connection.c **** 
 169:Source\azure_iot_sdk\iothub_client\src/iothubtransport_amqp_connection.c ****     // Codes_SRS_IOTHUBTRANSPORT_AMQP_CONNECTION_09_007: [If `instance->sasl_io` is defined it shal
 170:Source\azure_iot_sdk\iothub_client\src/iothubtransport_amqp_connection.c ****     if (instance->sasl_io != NULL)
 474              		.loc 1 170 0
 475 0006 4669     		ldr	r6, [r0, #20]
 476 0008 002E     		cmp	r6, #0
 477 000a 00D1     		bne	.L31
 171:Source\azure_iot_sdk\iothub_client\src/iothubtransport_amqp_connection.c ****     {
 172:Source\azure_iot_sdk\iothub_client\src/iothubtransport_amqp_connection.c ****         connection_io_transport = instance->sasl_io;
 173:Source\azure_iot_sdk\iothub_client\src/iothubtransport_amqp_connection.c ****     }
 174:Source\azure_iot_sdk\iothub_client\src/iothubtransport_amqp_connection.c ****     // Codes_SRS_IOTHUBTRANSPORT_AMQP_CONNECTION_09_018: [If `instance->sasl_io` is not defined, `i
 175:Source\azure_iot_sdk\iothub_client\src/iothubtransport_amqp_connection.c ****     else
 176:Source\azure_iot_sdk\iothub_client\src/iothubtransport_amqp_connection.c ****     {
 177:Source\azure_iot_sdk\iothub_client\src/iothubtransport_amqp_connection.c ****         connection_io_transport = instance->underlying_io_transport;
 478              		.loc 1 177 0
 479 000c 4668     		ldr	r6, [r0, #4]
ARM GAS  C:\Users\Phuong\AppData\Local\Temp\cc32RpHN.s 			page 13


 480              	.LVL62:
 481              	.L31:
 178:Source\azure_iot_sdk\iothub_client\src/iothubtransport_amqp_connection.c ****     }
 179:Source\azure_iot_sdk\iothub_client\src/iothubtransport_amqp_connection.c **** 
 180:Source\azure_iot_sdk\iothub_client\src/iothubtransport_amqp_connection.c ****     if ((unique_container_id = (char*)malloc(sizeof(char) * DEFAULT_UNIQUE_ID_LENGTH + 1)) == NULL)
 482              		.loc 1 180 0
 483 000e 2920     		movs	r0, #41
 484              	.LVL63:
 485 0010 FFF7FEFF 		bl	malloc
 486              	.LVL64:
 487 0014 041E     		subs	r4, r0, #0
 488              	.LVL65:
 489 0016 10D1     		bne	.L32
 490              	.LVL66:
 491              	.LBB9:
 181:Source\azure_iot_sdk\iothub_client\src/iothubtransport_amqp_connection.c ****     {
 182:Source\azure_iot_sdk\iothub_client\src/iothubtransport_amqp_connection.c ****         result = __LINE__;
 183:Source\azure_iot_sdk\iothub_client\src/iothubtransport_amqp_connection.c ****         LogError("Failed creating the AMQP connection (failed creating unique ID container)");
 492              		.loc 1 183 0
 493 0018 FFF7FEFF 		bl	xlogging_get_log_function
 494              	.LVL67:
 495 001c 051E     		subs	r5, r0, #0
 496              	.LVL68:
 497 001e 00D1     		bne	.LCB487
 498 0020 7DE0     		b	.L39	@long jump
 499              	.LCB487:
 500              		.loc 1 183 0 is_stmt 0 discriminator 4
 501 0022 474B     		ldr	r3, .L44
 502 0024 0193     		str	r3, [sp, #4]
 503 0026 0123     		movs	r3, #1
 504 0028 0093     		str	r3, [sp]
 505 002a B633     		adds	r3, r3, #182
 506 002c 454A     		ldr	r2, .L44+4
 507 002e 4032     		adds	r2, r2, #64
 508 0030 4549     		ldr	r1, .L44+8
 509 0032 0020     		movs	r0, #0
 510              	.LVL69:
 511 0034 A847     		blx	r5
 512              	.LVL70:
 513              	.LBE9:
 182:Source\azure_iot_sdk\iothub_client\src/iothubtransport_amqp_connection.c ****         LogError("Failed creating the AMQP connection (failed creating unique ID container)");
 514              		.loc 1 182 0 is_stmt 1 discriminator 4
 515 0036 B625     		movs	r5, #182
 516              	.LVL71:
 517 0038 7AE0     		b	.L33
 518              	.LVL72:
 519              	.L32:
 184:Source\azure_iot_sdk\iothub_client\src/iothubtransport_amqp_connection.c ****     }
 185:Source\azure_iot_sdk\iothub_client\src/iothubtransport_amqp_connection.c ****     else
 186:Source\azure_iot_sdk\iothub_client\src/iothubtransport_amqp_connection.c ****     {
 187:Source\azure_iot_sdk\iothub_client\src/iothubtransport_amqp_connection.c ****         memset(unique_container_id, 0, sizeof(char) * DEFAULT_UNIQUE_ID_LENGTH + 1);
 520              		.loc 1 187 0
 521 003a 2922     		movs	r2, #41
 522 003c 0021     		movs	r1, #0
 523 003e FFF7FEFF 		bl	memset
 524              	.LVL73:
 188:Source\azure_iot_sdk\iothub_client\src/iothubtransport_amqp_connection.c **** 
ARM GAS  C:\Users\Phuong\AppData\Local\Temp\cc32RpHN.s 			page 14


 189:Source\azure_iot_sdk\iothub_client\src/iothubtransport_amqp_connection.c ****         if (UniqueId_Generate(unique_container_id, DEFAULT_UNIQUE_ID_LENGTH) != UNIQUEID_OK)
 525              		.loc 1 189 0
 526 0042 2821     		movs	r1, #40
 527 0044 2000     		movs	r0, r4
 528 0046 FFF7FEFF 		bl	UniqueId_Generate
 529              	.LVL74:
 530 004a 0028     		cmp	r0, #0
 531 004c 0FD0     		beq	.L34
 532              	.LVL75:
 533              	.LBB10:
 190:Source\azure_iot_sdk\iothub_client\src/iothubtransport_amqp_connection.c ****         {
 191:Source\azure_iot_sdk\iothub_client\src/iothubtransport_amqp_connection.c ****             result = __FAILURE__;
 192:Source\azure_iot_sdk\iothub_client\src/iothubtransport_amqp_connection.c ****             LogError("Failed creating the AMQP connection (UniqueId_Generate failed)");
 534              		.loc 1 192 0
 535 004e FFF7FEFF 		bl	xlogging_get_log_function
 536              	.LVL76:
 537 0052 051E     		subs	r5, r0, #0
 538              	.LVL77:
 539 0054 65D0     		beq	.L40
 540              		.loc 1 192 0 is_stmt 0 discriminator 4
 541 0056 3D4B     		ldr	r3, .L44+12
 542 0058 0193     		str	r3, [sp, #4]
 543 005a 0123     		movs	r3, #1
 544 005c 0093     		str	r3, [sp]
 545 005e BF33     		adds	r3, r3, #191
 546 0060 384A     		ldr	r2, .L44+4
 547 0062 4032     		adds	r2, r2, #64
 548 0064 3849     		ldr	r1, .L44+8
 549 0066 0020     		movs	r0, #0
 550              	.LVL78:
 551 0068 A847     		blx	r5
 552              	.LVL79:
 553              	.LBE10:
 191:Source\azure_iot_sdk\iothub_client\src/iothubtransport_amqp_connection.c ****             LogError("Failed creating the AMQP connection (UniqueId_Generate failed)");
 554              		.loc 1 191 0 is_stmt 1 discriminator 4
 555 006a BF25     		movs	r5, #191
 556              	.LVL80:
 557 006c 60E0     		b	.L33
 558              	.LVL81:
 559              	.L34:
 193:Source\azure_iot_sdk\iothub_client\src/iothubtransport_amqp_connection.c ****         }
 194:Source\azure_iot_sdk\iothub_client\src/iothubtransport_amqp_connection.c ****         // Codes_SRS_IOTHUBTRANSPORT_AMQP_CONNECTION_09_019: [`instance->connection_handle` shall b
 195:Source\azure_iot_sdk\iothub_client\src/iothubtransport_amqp_connection.c ****         // Codes_SRS_IOTHUBTRANSPORT_AMQP_CONNECTION_09_020: [connection_create2() shall also recei
 196:Source\azure_iot_sdk\iothub_client\src/iothubtransport_amqp_connection.c ****         else if ((instance->connection_handle = connection_create2(connection_io_transport, STRING_
 560              		.loc 1 196 0
 561 006e 2868     		ldr	r0, [r5]
 562 0070 FFF7FEFF 		bl	STRING_c_str
 563              	.LVL82:
 564 0074 0100     		movs	r1, r0
 565 0076 0495     		str	r5, [sp, #16]
 566 0078 354B     		ldr	r3, .L44+16
 567 007a 0393     		str	r3, [sp, #12]
 568 007c 0295     		str	r5, [sp, #8]
 569 007e 354B     		ldr	r3, .L44+20
 570 0080 0193     		str	r3, [sp, #4]
 571 0082 0023     		movs	r3, #0
 572 0084 0093     		str	r3, [sp]
ARM GAS  C:\Users\Phuong\AppData\Local\Temp\cc32RpHN.s 			page 15


 573 0086 2200     		movs	r2, r4
 574 0088 3000     		movs	r0, r6
 575 008a FFF7FEFF 		bl	connection_create2
 576              	.LVL83:
 577 008e E860     		str	r0, [r5, #12]
 578 0090 0028     		cmp	r0, #0
 579 0092 0FD1     		bne	.L35
 580              	.LVL84:
 581              	.LBB11:
 197:Source\azure_iot_sdk\iothub_client\src/iothubtransport_amqp_connection.c ****         {
 198:Source\azure_iot_sdk\iothub_client\src/iothubtransport_amqp_connection.c ****             // Codes_SRS_IOTHUBTRANSPORT_AMQP_CONNECTION_09_021: [If connection_create2() fails, am
 199:Source\azure_iot_sdk\iothub_client\src/iothubtransport_amqp_connection.c ****             result = __FAILURE__;
 200:Source\azure_iot_sdk\iothub_client\src/iothubtransport_amqp_connection.c ****             LogError("Failed creating the AMQP connection (connection_create2 failed)");
 582              		.loc 1 200 0
 583 0094 FFF7FEFF 		bl	xlogging_get_log_function
 584              	.LVL85:
 585 0098 051E     		subs	r5, r0, #0
 586              	.LVL86:
 587 009a 44D0     		beq	.L41
 588              		.loc 1 200 0 is_stmt 0 discriminator 4
 589 009c 2E4B     		ldr	r3, .L44+24
 590 009e 0193     		str	r3, [sp, #4]
 591 00a0 0123     		movs	r3, #1
 592 00a2 0093     		str	r3, [sp]
 593 00a4 C733     		adds	r3, r3, #199
 594 00a6 274A     		ldr	r2, .L44+4
 595 00a8 4032     		adds	r2, r2, #64
 596 00aa 2749     		ldr	r1, .L44+8
 597 00ac 0020     		movs	r0, #0
 598              	.LVL87:
 599 00ae A847     		blx	r5
 600              	.LVL88:
 601              	.LBE11:
 199:Source\azure_iot_sdk\iothub_client\src/iothubtransport_amqp_connection.c ****             LogError("Failed creating the AMQP connection (connection_create2 failed)");
 602              		.loc 1 199 0 is_stmt 1 discriminator 4
 603 00b0 C725     		movs	r5, #199
 604              	.LVL89:
 605 00b2 3DE0     		b	.L33
 606              	.LVL90:
 607              	.L35:
 201:Source\azure_iot_sdk\iothub_client\src/iothubtransport_amqp_connection.c ****         }
 202:Source\azure_iot_sdk\iothub_client\src/iothubtransport_amqp_connection.c ****         else if (connection_set_idle_timeout(instance->connection_handle, 1000 * instance->svc2cl_k
 608              		.loc 1 202 0
 609 00b4 FA21     		movs	r1, #250
 610 00b6 8900     		lsls	r1, r1, #2
 611 00b8 AB6A     		ldr	r3, [r5, #40]
 612 00ba 5943     		muls	r1, r3
 613 00bc FFF7FEFF 		bl	connection_set_idle_timeout
 614              	.LVL91:
 615 00c0 0028     		cmp	r0, #0
 616 00c2 0FD0     		beq	.L36
 617              	.LVL92:
 618              	.LBB12:
 203:Source\azure_iot_sdk\iothub_client\src/iothubtransport_amqp_connection.c ****         {
 204:Source\azure_iot_sdk\iothub_client\src/iothubtransport_amqp_connection.c ****             // Codes_SRS_IOTHUBTRANSPORT_AMQP_CONNECTION_09_074: [If connection_set_idle_timeout() 
 205:Source\azure_iot_sdk\iothub_client\src/iothubtransport_amqp_connection.c ****             result = __FAILURE__;
 206:Source\azure_iot_sdk\iothub_client\src/iothubtransport_amqp_connection.c ****             LogError("Failed creating the AMQP connection (connection_set_idle_timeout failed)");
ARM GAS  C:\Users\Phuong\AppData\Local\Temp\cc32RpHN.s 			page 16


 619              		.loc 1 206 0
 620 00c4 FFF7FEFF 		bl	xlogging_get_log_function
 621              	.LVL93:
 622 00c8 051E     		subs	r5, r0, #0
 623              	.LVL94:
 624 00ca 2ED0     		beq	.L42
 625              		.loc 1 206 0 is_stmt 0 discriminator 4
 626 00cc 234B     		ldr	r3, .L44+28
 627 00ce 0193     		str	r3, [sp, #4]
 628 00d0 0123     		movs	r3, #1
 629 00d2 0093     		str	r3, [sp]
 630 00d4 CD33     		adds	r3, r3, #205
 631 00d6 1B4A     		ldr	r2, .L44+4
 632 00d8 4032     		adds	r2, r2, #64
 633 00da 1B49     		ldr	r1, .L44+8
 634 00dc 0020     		movs	r0, #0
 635              	.LVL95:
 636 00de A847     		blx	r5
 637              	.LVL96:
 638              	.LBE12:
 205:Source\azure_iot_sdk\iothub_client\src/iothubtransport_amqp_connection.c ****             LogError("Failed creating the AMQP connection (connection_set_idle_timeout failed)");
 639              		.loc 1 205 0 is_stmt 1 discriminator 4
 640 00e0 CD25     		movs	r5, #205
 641              	.LVL97:
 642 00e2 25E0     		b	.L33
 643              	.LVL98:
 644              	.L36:
 207:Source\azure_iot_sdk\iothub_client\src/iothubtransport_amqp_connection.c ****         }
 208:Source\azure_iot_sdk\iothub_client\src/iothubtransport_amqp_connection.c ****         else if (connection_set_remote_idle_timeout_empty_frame_send_ratio(instance->connection_han
 645              		.loc 1 208 0
 646 00e4 2A6B     		ldr	r2, [r5, #48]
 647 00e6 6B6B     		ldr	r3, [r5, #52]
 648 00e8 E868     		ldr	r0, [r5, #12]
 649 00ea FFF7FEFF 		bl	connection_set_remote_idle_timeout_empty_frame_send_ratio
 650              	.LVL99:
 651 00ee 0028     		cmp	r0, #0
 652 00f0 0FD0     		beq	.L37
 653              	.LVL100:
 654              	.LBB13:
 209:Source\azure_iot_sdk\iothub_client\src/iothubtransport_amqp_connection.c ****         {
 210:Source\azure_iot_sdk\iothub_client\src/iothubtransport_amqp_connection.c ****             // Codes_SRS_IOTHUBTRANSPORT_AMQP_CONNECTION_99_001: [If connection_set_remote_idle_tim
 211:Source\azure_iot_sdk\iothub_client\src/iothubtransport_amqp_connection.c ****             result = __FAILURE__;
 212:Source\azure_iot_sdk\iothub_client\src/iothubtransport_amqp_connection.c ****             LogError("Failed creating the AMQP connection (connection_set_remote_idle_timeout_empty
 655              		.loc 1 212 0
 656 00f2 FFF7FEFF 		bl	xlogging_get_log_function
 657              	.LVL101:
 658 00f6 051E     		subs	r5, r0, #0
 659              	.LVL102:
 660 00f8 19D0     		beq	.L43
 661              		.loc 1 212 0 is_stmt 0 discriminator 4
 662 00fa 194B     		ldr	r3, .L44+32
 663 00fc 0193     		str	r3, [sp, #4]
 664 00fe 0123     		movs	r3, #1
 665 0100 0093     		str	r3, [sp]
 666 0102 D333     		adds	r3, r3, #211
 667 0104 0F4A     		ldr	r2, .L44+4
 668 0106 4032     		adds	r2, r2, #64
ARM GAS  C:\Users\Phuong\AppData\Local\Temp\cc32RpHN.s 			page 17


 669 0108 0F49     		ldr	r1, .L44+8
 670 010a 0020     		movs	r0, #0
 671              	.LVL103:
 672 010c A847     		blx	r5
 673              	.LVL104:
 674              	.LBE13:
 211:Source\azure_iot_sdk\iothub_client\src/iothubtransport_amqp_connection.c ****             LogError("Failed creating the AMQP connection (connection_set_remote_idle_timeout_empty
 675              		.loc 1 211 0 is_stmt 1 discriminator 4
 676 010e D325     		movs	r5, #211
 677              	.LVL105:
 678 0110 0EE0     		b	.L33
 679              	.LVL106:
 680              	.L37:
 213:Source\azure_iot_sdk\iothub_client\src/iothubtransport_amqp_connection.c ****         }
 214:Source\azure_iot_sdk\iothub_client\src/iothubtransport_amqp_connection.c ****         else
 215:Source\azure_iot_sdk\iothub_client\src/iothubtransport_amqp_connection.c ****         {
 216:Source\azure_iot_sdk\iothub_client\src/iothubtransport_amqp_connection.c ****             // Codes_SRS_IOTHUBTRANSPORT_AMQP_CONNECTION_09_023: [The connection tracing shall be s
 217:Source\azure_iot_sdk\iothub_client\src/iothubtransport_amqp_connection.c ****             connection_set_trace(instance->connection_handle, instance->is_trace_on);
 681              		.loc 1 217 0
 682 0112 A97F     		ldrb	r1, [r5, #30]
 683 0114 E868     		ldr	r0, [r5, #12]
 684 0116 FFF7FEFF 		bl	connection_set_trace
 685              	.LVL107:
 218:Source\azure_iot_sdk\iothub_client\src/iothubtransport_amqp_connection.c **** 
 219:Source\azure_iot_sdk\iothub_client\src/iothubtransport_amqp_connection.c ****             result = RESULT_OK;
 686              		.loc 1 219 0
 687 011a 0025     		movs	r5, #0
 688              	.LVL108:
 689 011c 08E0     		b	.L33
 690              	.LVL109:
 691              	.L39:
 182:Source\azure_iot_sdk\iothub_client\src/iothubtransport_amqp_connection.c ****         LogError("Failed creating the AMQP connection (failed creating unique ID container)");
 692              		.loc 1 182 0
 693 011e B625     		movs	r5, #182
 694 0120 06E0     		b	.L33
 695              	.LVL110:
 696              	.L40:
 191:Source\azure_iot_sdk\iothub_client\src/iothubtransport_amqp_connection.c ****             LogError("Failed creating the AMQP connection (UniqueId_Generate failed)");
 697              		.loc 1 191 0
 698 0122 BF25     		movs	r5, #191
 699 0124 04E0     		b	.L33
 700              	.LVL111:
 701              	.L41:
 199:Source\azure_iot_sdk\iothub_client\src/iothubtransport_amqp_connection.c ****             LogError("Failed creating the AMQP connection (connection_create2 failed)");
 702              		.loc 1 199 0
 703 0126 C725     		movs	r5, #199
 704 0128 02E0     		b	.L33
 705              	.LVL112:
 706              	.L42:
 205:Source\azure_iot_sdk\iothub_client\src/iothubtransport_amqp_connection.c ****             LogError("Failed creating the AMQP connection (connection_set_idle_timeout failed)");
 707              		.loc 1 205 0
 708 012a CD25     		movs	r5, #205
 709 012c 00E0     		b	.L33
 710              	.LVL113:
 711              	.L43:
 211:Source\azure_iot_sdk\iothub_client\src/iothubtransport_amqp_connection.c ****             LogError("Failed creating the AMQP connection (connection_set_remote_idle_timeout_empty
 712              		.loc 1 211 0
ARM GAS  C:\Users\Phuong\AppData\Local\Temp\cc32RpHN.s 			page 18


 713 012e D325     		movs	r5, #211
 714              	.LVL114:
 715              	.L33:
 220:Source\azure_iot_sdk\iothub_client\src/iothubtransport_amqp_connection.c ****         }
 221:Source\azure_iot_sdk\iothub_client\src/iothubtransport_amqp_connection.c ****     }
 222:Source\azure_iot_sdk\iothub_client\src/iothubtransport_amqp_connection.c **** 
 223:Source\azure_iot_sdk\iothub_client\src/iothubtransport_amqp_connection.c ****     if (unique_container_id != NULL)
 716              		.loc 1 223 0
 717 0130 002C     		cmp	r4, #0
 718 0132 02D0     		beq	.L38
 224:Source\azure_iot_sdk\iothub_client\src/iothubtransport_amqp_connection.c ****     {
 225:Source\azure_iot_sdk\iothub_client\src/iothubtransport_amqp_connection.c ****         free(unique_container_id);
 719              		.loc 1 225 0
 720 0134 2000     		movs	r0, r4
 721 0136 FFF7FEFF 		bl	free
 722              	.LVL115:
 723              	.L38:
 226:Source\azure_iot_sdk\iothub_client\src/iothubtransport_amqp_connection.c ****     }
 227:Source\azure_iot_sdk\iothub_client\src/iothubtransport_amqp_connection.c **** 
 228:Source\azure_iot_sdk\iothub_client\src/iothubtransport_amqp_connection.c ****     return result;
 229:Source\azure_iot_sdk\iothub_client\src/iothubtransport_amqp_connection.c **** }
 724              		.loc 1 229 0
 725 013a 2800     		movs	r0, r5
 726 013c 06B0     		add	sp, sp, #24
 727              		@ sp needed
 728              	.LVL116:
 729              	.LVL117:
 730              	.LVL118:
 731 013e 70BD     		pop	{r4, r5, r6, pc}
 732              	.L45:
 733              		.align	2
 734              	.L44:
 735 0140 4C010000 		.word	.LC21
 736 0144 00000000 		.word	.LANCHOR0
 737 0148 00000000 		.word	.LC1
 738 014c 98010000 		.word	.LC23
 739 0150 00000000 		.word	on_connection_io_error
 740 0154 00000000 		.word	on_connection_state_changed
 741 0158 D8010000 		.word	.LC27
 742 015c 18020000 		.word	.LC29
 743 0160 64020000 		.word	.LC31
 744              		.cfi_endproc
 745              	.LFE9:
 746              		.size	create_connection_handle, .-create_connection_handle
 747              		.section	.text.create_session_handle,"ax",%progbits
 748              		.align	2
 749              		.code	16
 750              		.thumb_func
 751              		.type	create_session_handle, %function
 752              	create_session_handle:
 753              	.LFB10:
 230:Source\azure_iot_sdk\iothub_client\src/iothubtransport_amqp_connection.c **** 
 231:Source\azure_iot_sdk\iothub_client\src/iothubtransport_amqp_connection.c **** static int create_session_handle(AMQP_CONNECTION_INSTANCE* instance)
 232:Source\azure_iot_sdk\iothub_client\src/iothubtransport_amqp_connection.c **** {
 754              		.loc 1 232 0
 755              		.cfi_startproc
 756              		@ args = 0, pretend = 0, frame = 0
ARM GAS  C:\Users\Phuong\AppData\Local\Temp\cc32RpHN.s 			page 19


 757              		@ frame_needed = 0, uses_anonymous_args = 0
 758              	.LVL119:
 759 0000 30B5     		push	{r4, r5, lr}
 760              		.cfi_def_cfa_offset 12
 761              		.cfi_offset 4, -12
 762              		.cfi_offset 5, -8
 763              		.cfi_offset 14, -4
 764 0002 83B0     		sub	sp, sp, #12
 765              		.cfi_def_cfa_offset 24
 766 0004 0400     		movs	r4, r0
 233:Source\azure_iot_sdk\iothub_client\src/iothubtransport_amqp_connection.c ****     int result;
 234:Source\azure_iot_sdk\iothub_client\src/iothubtransport_amqp_connection.c **** 
 235:Source\azure_iot_sdk\iothub_client\src/iothubtransport_amqp_connection.c ****     // Codes_SRS_IOTHUBTRANSPORT_AMQP_CONNECTION_09_024: [`instance->session_handle` shall be creat
 236:Source\azure_iot_sdk\iothub_client\src/iothubtransport_amqp_connection.c ****     if ((instance->session_handle = session_create(instance->connection_handle, NULL, NULL)) == NUL
 767              		.loc 1 236 0
 768 0006 0022     		movs	r2, #0
 769 0008 0021     		movs	r1, #0
 770 000a C068     		ldr	r0, [r0, #12]
 771              	.LVL120:
 772 000c FFF7FEFF 		bl	session_create
 773              	.LVL121:
 774 0010 2061     		str	r0, [r4, #16]
 775 0012 0028     		cmp	r0, #0
 776 0014 0FD1     		bne	.L47
 777              	.LVL122:
 778              	.LBB14:
 237:Source\azure_iot_sdk\iothub_client\src/iothubtransport_amqp_connection.c ****     {
 238:Source\azure_iot_sdk\iothub_client\src/iothubtransport_amqp_connection.c ****         // Codes_SRS_IOTHUBTRANSPORT_AMQP_CONNECTION_09_025: [If session_create() fails, amqp_conne
 239:Source\azure_iot_sdk\iothub_client\src/iothubtransport_amqp_connection.c ****         result = __FAILURE__;
 240:Source\azure_iot_sdk\iothub_client\src/iothubtransport_amqp_connection.c ****         LogError("Failed creating the AMQP connection (connection_create2 failed)");
 779              		.loc 1 240 0
 780 0016 FFF7FEFF 		bl	xlogging_get_log_function
 781              	.LVL123:
 782 001a 041E     		subs	r4, r0, #0
 783              	.LVL124:
 784 001c 35D0     		beq	.L50
 785              		.loc 1 240 0 is_stmt 0 discriminator 4
 786 001e 1E4B     		ldr	r3, .L53
 787 0020 0193     		str	r3, [sp, #4]
 788 0022 0123     		movs	r3, #1
 789 0024 0093     		str	r3, [sp]
 790 0026 EF33     		adds	r3, r3, #239
 791 0028 1C4A     		ldr	r2, .L53+4
 792 002a 5C32     		adds	r2, r2, #92
 793 002c 1C49     		ldr	r1, .L53+8
 794 002e 0020     		movs	r0, #0
 795              	.LVL125:
 796 0030 A047     		blx	r4
 797              	.LVL126:
 798              	.LBE14:
 239:Source\azure_iot_sdk\iothub_client\src/iothubtransport_amqp_connection.c ****         LogError("Failed creating the AMQP connection (connection_create2 failed)");
 799              		.loc 1 239 0 is_stmt 1 discriminator 4
 800 0032 EF20     		movs	r0, #239
 801 0034 2EE0     		b	.L48
 802              	.LVL127:
 803              	.L47:
 241:Source\azure_iot_sdk\iothub_client\src/iothubtransport_amqp_connection.c ****     }
ARM GAS  C:\Users\Phuong\AppData\Local\Temp\cc32RpHN.s 			page 20


 242:Source\azure_iot_sdk\iothub_client\src/iothubtransport_amqp_connection.c ****     else
 243:Source\azure_iot_sdk\iothub_client\src/iothubtransport_amqp_connection.c ****     {
 244:Source\azure_iot_sdk\iothub_client\src/iothubtransport_amqp_connection.c ****         // Codes_SRS_IOTHUBTRANSPORT_AMQP_CONNECTION_09_026: [The `instance->session_handle` incomi
 245:Source\azure_iot_sdk\iothub_client\src/iothubtransport_amqp_connection.c ****         if (session_set_incoming_window(instance->session_handle, (uint32_t)DEFAULT_INCOMING_WINDOW
 804              		.loc 1 245 0
 805 0036 0121     		movs	r1, #1
 806 0038 4942     		rsbs	r1, r1, #0
 807 003a FFF7FEFF 		bl	session_set_incoming_window
 808              	.LVL128:
 809 003e 0028     		cmp	r0, #0
 810 0040 0DD0     		beq	.L49
 811              	.LBB15:
 246:Source\azure_iot_sdk\iothub_client\src/iothubtransport_amqp_connection.c ****         {
 247:Source\azure_iot_sdk\iothub_client\src/iothubtransport_amqp_connection.c ****             LogError("Failed to set the AMQP session incoming window size.");
 812              		.loc 1 247 0 discriminator 3
 813 0042 FFF7FEFF 		bl	xlogging_get_log_function
 814              	.LVL129:
 815 0046 051E     		subs	r5, r0, #0
 816              	.LVL130:
 817 0048 09D0     		beq	.L49
 818              		.loc 1 247 0 is_stmt 0 discriminator 4
 819 004a 164B     		ldr	r3, .L53+12
 820 004c 0193     		str	r3, [sp, #4]
 821 004e 0123     		movs	r3, #1
 822 0050 0093     		str	r3, [sp]
 823 0052 F633     		adds	r3, r3, #246
 824 0054 114A     		ldr	r2, .L53+4
 825 0056 5C32     		adds	r2, r2, #92
 826 0058 1149     		ldr	r1, .L53+8
 827 005a 0020     		movs	r0, #0
 828              	.LVL131:
 829 005c A847     		blx	r5
 830              	.LVL132:
 831              	.L49:
 832              	.LBE15:
 248:Source\azure_iot_sdk\iothub_client\src/iothubtransport_amqp_connection.c ****         }
 249:Source\azure_iot_sdk\iothub_client\src/iothubtransport_amqp_connection.c **** 
 250:Source\azure_iot_sdk\iothub_client\src/iothubtransport_amqp_connection.c ****         // Codes_SRS_IOTHUBTRANSPORT_AMQP_CONNECTION_09_027: [The `instance->session_handle` outgoi
 251:Source\azure_iot_sdk\iothub_client\src/iothubtransport_amqp_connection.c ****         if (session_set_outgoing_window(instance->session_handle, DEFAULT_OUTGOING_WINDOW_SIZE) != 
 833              		.loc 1 251 0 is_stmt 1
 834 005e 2069     		ldr	r0, [r4, #16]
 835 0060 6421     		movs	r1, #100
 836 0062 FFF7FEFF 		bl	session_set_outgoing_window
 837              	.LVL133:
 838 0066 0028     		cmp	r0, #0
 839 0068 11D0     		beq	.L51
 840              	.LBB16:
 252:Source\azure_iot_sdk\iothub_client\src/iothubtransport_amqp_connection.c ****         {
 253:Source\azure_iot_sdk\iothub_client\src/iothubtransport_amqp_connection.c ****             LogError("Failed to set the AMQP session outgoing window size.");
 841              		.loc 1 253 0 discriminator 3
 842 006a FFF7FEFF 		bl	xlogging_get_log_function
 843              	.LVL134:
 844 006e 041E     		subs	r4, r0, #0
 845              	.LVL135:
 846 0070 0FD0     		beq	.L52
 847              		.loc 1 253 0 is_stmt 0 discriminator 4
 848 0072 0D4B     		ldr	r3, .L53+16
ARM GAS  C:\Users\Phuong\AppData\Local\Temp\cc32RpHN.s 			page 21


 849 0074 0193     		str	r3, [sp, #4]
 850 0076 0123     		movs	r3, #1
 851 0078 0093     		str	r3, [sp]
 852 007a FC33     		adds	r3, r3, #252
 853 007c 074A     		ldr	r2, .L53+4
 854 007e 5C32     		adds	r2, r2, #92
 855 0080 0749     		ldr	r1, .L53+8
 856 0082 0020     		movs	r0, #0
 857              	.LVL136:
 858 0084 A047     		blx	r4
 859              	.LVL137:
 860              	.LBE16:
 254:Source\azure_iot_sdk\iothub_client\src/iothubtransport_amqp_connection.c ****         }
 255:Source\azure_iot_sdk\iothub_client\src/iothubtransport_amqp_connection.c **** 
 256:Source\azure_iot_sdk\iothub_client\src/iothubtransport_amqp_connection.c ****         result = RESULT_OK;
 861              		.loc 1 256 0 is_stmt 1 discriminator 4
 862 0086 0020     		movs	r0, #0
 863 0088 04E0     		b	.L48
 864              	.LVL138:
 865              	.L50:
 239:Source\azure_iot_sdk\iothub_client\src/iothubtransport_amqp_connection.c ****         LogError("Failed creating the AMQP connection (connection_create2 failed)");
 866              		.loc 1 239 0
 867 008a EF20     		movs	r0, #239
 868              	.LVL139:
 869 008c 02E0     		b	.L48
 870              	.LVL140:
 871              	.L51:
 872              		.loc 1 256 0
 873 008e 0020     		movs	r0, #0
 874 0090 00E0     		b	.L48
 875              	.LVL141:
 876              	.L52:
 877 0092 0020     		movs	r0, #0
 878              	.LVL142:
 879              	.L48:
 257:Source\azure_iot_sdk\iothub_client\src/iothubtransport_amqp_connection.c ****     }
 258:Source\azure_iot_sdk\iothub_client\src/iothubtransport_amqp_connection.c **** 
 259:Source\azure_iot_sdk\iothub_client\src/iothubtransport_amqp_connection.c ****     return result;
 260:Source\azure_iot_sdk\iothub_client\src/iothubtransport_amqp_connection.c **** }
 880              		.loc 1 260 0
 881 0094 03B0     		add	sp, sp, #12
 882              		@ sp needed
 883 0096 30BD     		pop	{r4, r5, pc}
 884              	.L54:
 885              		.align	2
 886              	.L53:
 887 0098 D8010000 		.word	.LC27
 888 009c 00000000 		.word	.LANCHOR0
 889 00a0 00000000 		.word	.LC1
 890 00a4 C4020000 		.word	.LC36
 891 00a8 FC020000 		.word	.LC38
 892              		.cfi_endproc
 893              	.LFE10:
 894              		.size	create_session_handle, .-create_session_handle
 895              		.section	.text.create_cbs_handle,"ax",%progbits
 896              		.align	2
 897              		.code	16
ARM GAS  C:\Users\Phuong\AppData\Local\Temp\cc32RpHN.s 			page 22


 898              		.thumb_func
 899              		.type	create_cbs_handle, %function
 900              	create_cbs_handle:
 901              	.LFB11:
 261:Source\azure_iot_sdk\iothub_client\src/iothubtransport_amqp_connection.c **** 
 262:Source\azure_iot_sdk\iothub_client\src/iothubtransport_amqp_connection.c **** static int create_cbs_handle(AMQP_CONNECTION_INSTANCE* instance)
 263:Source\azure_iot_sdk\iothub_client\src/iothubtransport_amqp_connection.c **** {
 902              		.loc 1 263 0
 903              		.cfi_startproc
 904              		@ args = 0, pretend = 0, frame = 0
 905              		@ frame_needed = 0, uses_anonymous_args = 0
 906              	.LVL143:
 907 0000 10B5     		push	{r4, lr}
 908              		.cfi_def_cfa_offset 8
 909              		.cfi_offset 4, -8
 910              		.cfi_offset 14, -4
 911 0002 82B0     		sub	sp, sp, #8
 912              		.cfi_def_cfa_offset 16
 913 0004 0400     		movs	r4, r0
 264:Source\azure_iot_sdk\iothub_client\src/iothubtransport_amqp_connection.c ****     int result;
 265:Source\azure_iot_sdk\iothub_client\src/iothubtransport_amqp_connection.c **** 
 266:Source\azure_iot_sdk\iothub_client\src/iothubtransport_amqp_connection.c ****     // Codes_SRS_IOTHUBTRANSPORT_AMQP_CONNECTION_09_029: [`instance->cbs_handle` shall be created u
 267:Source\azure_iot_sdk\iothub_client\src/iothubtransport_amqp_connection.c ****     if ((instance->cbs_handle = cbs_create(instance->session_handle)) == NULL)
 914              		.loc 1 267 0
 915 0006 0069     		ldr	r0, [r0, #16]
 916              	.LVL144:
 917 0008 FFF7FEFF 		bl	cbs_create
 918              	.LVL145:
 919 000c A060     		str	r0, [r4, #8]
 920 000e 0028     		cmp	r0, #0
 921 0010 11D1     		bne	.L56
 922              	.LVL146:
 923              	.LBB17:
 268:Source\azure_iot_sdk\iothub_client\src/iothubtransport_amqp_connection.c ****     {
 269:Source\azure_iot_sdk\iothub_client\src/iothubtransport_amqp_connection.c ****         // Codes_SRS_IOTHUBTRANSPORT_AMQP_CONNECTION_09_030: [If cbs_create() fails, amqp_connectio
 270:Source\azure_iot_sdk\iothub_client\src/iothubtransport_amqp_connection.c ****         result = __FAILURE__;
 271:Source\azure_iot_sdk\iothub_client\src/iothubtransport_amqp_connection.c ****         LogError("PSOC6---Failed to create the CBS connection---PSOC6");
 924              		.loc 1 271 0
 925 0012 FFF7FEFF 		bl	xlogging_get_log_function
 926              	.LVL147:
 927 0016 041E     		subs	r4, r0, #0
 928              	.LVL148:
 929 0018 27D0     		beq	.L58
 930              		.loc 1 271 0 is_stmt 0 discriminator 4
 931 001a 184B     		ldr	r3, .L61
 932 001c 0193     		str	r3, [sp, #4]
 933 001e 0123     		movs	r3, #1
 934 0020 0093     		str	r3, [sp]
 935 0022 1023     		movs	r3, #16
 936 0024 FF33     		adds	r3, r3, #255
 937 0026 164A     		ldr	r2, .L61+4
 938 0028 7432     		adds	r2, r2, #116
 939 002a 1649     		ldr	r1, .L61+8
 940 002c 0020     		movs	r0, #0
 941              	.LVL149:
 942 002e A047     		blx	r4
 943              	.LVL150:
ARM GAS  C:\Users\Phuong\AppData\Local\Temp\cc32RpHN.s 			page 23


 944              	.LBE17:
 270:Source\azure_iot_sdk\iothub_client\src/iothubtransport_amqp_connection.c ****         LogError("PSOC6---Failed to create the CBS connection---PSOC6");
 945              		.loc 1 270 0 is_stmt 1 discriminator 4
 946 0030 8720     		movs	r0, #135
 947 0032 4000     		lsls	r0, r0, #1
 948 0034 20E0     		b	.L57
 949              	.LVL151:
 950              	.L56:
 272:Source\azure_iot_sdk\iothub_client\src/iothubtransport_amqp_connection.c ****     }
 273:Source\azure_iot_sdk\iothub_client\src/iothubtransport_amqp_connection.c ****     // Codes_SRS_IOTHUBTRANSPORT_AMQP_CONNECTION_09_031: [`instance->cbs_handle` shall be opened us
 274:Source\azure_iot_sdk\iothub_client\src/iothubtransport_amqp_connection.c ****     else if (cbs_open_async(instance->cbs_handle, on_cbs_open_complete, instance->cbs_handle, on_cb
 951              		.loc 1 274 0
 952 0036 0090     		str	r0, [sp]
 953 0038 134B     		ldr	r3, .L61+12
 954 003a 0200     		movs	r2, r0
 955 003c 1349     		ldr	r1, .L61+16
 956 003e FFF7FEFF 		bl	cbs_open_async
 957              	.LVL152:
 958 0042 0028     		cmp	r0, #0
 959 0044 14D0     		beq	.L59
 960              	.LVL153:
 961              	.LBB18:
 275:Source\azure_iot_sdk\iothub_client\src/iothubtransport_amqp_connection.c ****     {
 276:Source\azure_iot_sdk\iothub_client\src/iothubtransport_amqp_connection.c ****         // Codes_SRS_IOTHUBTRANSPORT_AMQP_CONNECTION_09_032: [If cbs_open() fails, amqp_connection_
 277:Source\azure_iot_sdk\iothub_client\src/iothubtransport_amqp_connection.c ****         result = __FAILURE__;
 278:Source\azure_iot_sdk\iothub_client\src/iothubtransport_amqp_connection.c ****         LogError("PSOC6---Failed to open the connection with CBS---PSOC6");
 962              		.loc 1 278 0
 963 0046 FFF7FEFF 		bl	xlogging_get_log_function
 964              	.LVL154:
 965 004a 041E     		subs	r4, r0, #0
 966              	.LVL155:
 967 004c 12D0     		beq	.L60
 968              		.loc 1 278 0 is_stmt 0 discriminator 4
 969 004e 104B     		ldr	r3, .L61+20
 970 0050 0193     		str	r3, [sp, #4]
 971 0052 0123     		movs	r3, #1
 972 0054 0093     		str	r3, [sp]
 973 0056 1633     		adds	r3, r3, #22
 974 0058 FF33     		adds	r3, r3, #255
 975 005a 094A     		ldr	r2, .L61+4
 976 005c 7432     		adds	r2, r2, #116
 977 005e 0949     		ldr	r1, .L61+8
 978 0060 0020     		movs	r0, #0
 979              	.LVL156:
 980 0062 A047     		blx	r4
 981              	.LVL157:
 982              	.LBE18:
 277:Source\azure_iot_sdk\iothub_client\src/iothubtransport_amqp_connection.c ****         LogError("PSOC6---Failed to open the connection with CBS---PSOC6");
 983              		.loc 1 277 0 is_stmt 1 discriminator 4
 984 0064 1620     		movs	r0, #22
 985 0066 FF30     		adds	r0, r0, #255
 986 0068 06E0     		b	.L57
 987              	.LVL158:
 988              	.L58:
 270:Source\azure_iot_sdk\iothub_client\src/iothubtransport_amqp_connection.c ****         LogError("PSOC6---Failed to create the CBS connection---PSOC6");
 989              		.loc 1 270 0
 990 006a 8720     		movs	r0, #135
ARM GAS  C:\Users\Phuong\AppData\Local\Temp\cc32RpHN.s 			page 24


 991              	.LVL159:
 992 006c 4000     		lsls	r0, r0, #1
 993 006e 03E0     		b	.L57
 994              	.LVL160:
 995              	.L59:
 279:Source\azure_iot_sdk\iothub_client\src/iothubtransport_amqp_connection.c ****     }
 280:Source\azure_iot_sdk\iothub_client\src/iothubtransport_amqp_connection.c ****     else
 281:Source\azure_iot_sdk\iothub_client\src/iothubtransport_amqp_connection.c ****     {
 282:Source\azure_iot_sdk\iothub_client\src/iothubtransport_amqp_connection.c ****         result = RESULT_OK;
 996              		.loc 1 282 0
 997 0070 0020     		movs	r0, #0
 998 0072 01E0     		b	.L57
 999              	.LVL161:
 1000              	.L60:
 277:Source\azure_iot_sdk\iothub_client\src/iothubtransport_amqp_connection.c ****         LogError("PSOC6---Failed to open the connection with CBS---PSOC6");
 1001              		.loc 1 277 0
 1002 0074 1620     		movs	r0, #22
 1003              	.LVL162:
 1004 0076 FF30     		adds	r0, r0, #255
 1005              	.LVL163:
 1006              	.L57:
 283:Source\azure_iot_sdk\iothub_client\src/iothubtransport_amqp_connection.c ****     }
 284:Source\azure_iot_sdk\iothub_client\src/iothubtransport_amqp_connection.c **** 
 285:Source\azure_iot_sdk\iothub_client\src/iothubtransport_amqp_connection.c ****     return result;
 286:Source\azure_iot_sdk\iothub_client\src/iothubtransport_amqp_connection.c **** }
 1007              		.loc 1 286 0
 1008 0078 02B0     		add	sp, sp, #8
 1009              		@ sp needed
 1010 007a 10BD     		pop	{r4, pc}
 1011              	.L62:
 1012              		.align	2
 1013              	.L61:
 1014 007c 34030000 		.word	.LC42
 1015 0080 00000000 		.word	.LANCHOR0
 1016 0084 00000000 		.word	.LC1
 1017 0088 00000000 		.word	on_cbs_error
 1018 008c 00000000 		.word	on_cbs_open_complete
 1019 0090 68030000 		.word	.LC46
 1020              		.cfi_endproc
 1021              	.LFE11:
 1022              		.size	create_cbs_handle, .-create_cbs_handle
 1023              		.section	.text.AMQP_CONNECTION_STATEStrings,"ax",%progbits
 1024              		.align	2
 1025              		.global	AMQP_CONNECTION_STATEStrings
 1026              		.code	16
 1027              		.thumb_func
 1028              		.type	AMQP_CONNECTION_STATEStrings, %function
 1029              	AMQP_CONNECTION_STATEStrings:
 1030              	.LFB1:
  43:Source\azure_iot_sdk\iothub_client\src/iothubtransport_amqp_connection.c **** 
 1031              		.loc 1 43 0
 1032              		.cfi_startproc
 1033              		@ args = 0, pretend = 0, frame = 0
 1034              		@ frame_needed = 0, uses_anonymous_args = 0
 1035              		@ link register save eliminated.
 1036              	.LVL164:
  43:Source\azure_iot_sdk\iothub_client\src/iothubtransport_amqp_connection.c **** 
ARM GAS  C:\Users\Phuong\AppData\Local\Temp\cc32RpHN.s 			page 25


 1037              		.loc 1 43 0
 1038 0000 0228     		cmp	r0, #2
 1039 0002 03D8     		bhi	.L65
  43:Source\azure_iot_sdk\iothub_client\src/iothubtransport_amqp_connection.c **** 
 1040              		.loc 1 43 0 is_stmt 0 discriminator 2
 1041 0004 8000     		lsls	r0, r0, #2
 1042              	.LVL165:
 1043 0006 024B     		ldr	r3, .L66
 1044 0008 C058     		ldr	r0, [r0, r3]
 1045 000a 00E0     		b	.L64
 1046              	.LVL166:
 1047              	.L65:
  43:Source\azure_iot_sdk\iothub_client\src/iothubtransport_amqp_connection.c **** 
 1048              		.loc 1 43 0
 1049 000c 0020     		movs	r0, #0
 1050              	.LVL167:
 1051              	.L64:
 1052              		@ sp needed
 1053 000e 7047     		bx	lr
 1054              	.L67:
 1055              		.align	2
 1056              	.L66:
 1057 0010 00000000 		.word	.LANCHOR1
 1058              		.cfi_endproc
 1059              	.LFE1:
 1060              		.size	AMQP_CONNECTION_STATEStrings, .-AMQP_CONNECTION_STATEStrings
 1061              		.section	.text.AMQP_CONNECTION_STATE_FromString,"ax",%progbits
 1062              		.align	2
 1063              		.global	AMQP_CONNECTION_STATE_FromString
 1064              		.code	16
 1065              		.thumb_func
 1066              		.type	AMQP_CONNECTION_STATE_FromString, %function
 1067              	AMQP_CONNECTION_STATE_FromString:
 1068              	.LFB2:
  43:Source\azure_iot_sdk\iothub_client\src/iothubtransport_amqp_connection.c **** 
 1069              		.loc 1 43 0 is_stmt 1
 1070              		.cfi_startproc
 1071              		@ args = 0, pretend = 0, frame = 0
 1072              		@ frame_needed = 0, uses_anonymous_args = 0
 1073              	.LVL168:
 1074 0000 70B5     		push	{r4, r5, r6, lr}
 1075              		.cfi_def_cfa_offset 16
 1076              		.cfi_offset 4, -16
 1077              		.cfi_offset 5, -12
 1078              		.cfi_offset 6, -8
 1079              		.cfi_offset 14, -4
 1080 0002 0500     		movs	r5, r0
 1081 0004 0E00     		movs	r6, r1
  43:Source\azure_iot_sdk\iothub_client\src/iothubtransport_amqp_connection.c **** 
 1082              		.loc 1 43 0
 1083 0006 0028     		cmp	r0, #0
 1084 0008 12D0     		beq	.L73
  43:Source\azure_iot_sdk\iothub_client\src/iothubtransport_amqp_connection.c **** 
 1085              		.loc 1 43 0 is_stmt 0 discriminator 2
 1086 000a 0029     		cmp	r1, #0
 1087 000c 12D0     		beq	.L74
 1088 000e 0024     		movs	r4, #0
ARM GAS  C:\Users\Phuong\AppData\Local\Temp\cc32RpHN.s 			page 26


 1089 0010 0AE0     		b	.L70
 1090              	.LVL169:
 1091              	.L72:
 1092              	.LBB19:
  43:Source\azure_iot_sdk\iothub_client\src/iothubtransport_amqp_connection.c **** 
 1093              		.loc 1 43 0 discriminator 9
 1094 0012 A300     		lsls	r3, r4, #2
 1095 0014 084A     		ldr	r2, .L75
 1096 0016 9958     		ldr	r1, [r3, r2]
 1097 0018 2800     		movs	r0, r5
 1098 001a FFF7FEFF 		bl	strcmp
 1099              	.LVL170:
 1100 001e 0028     		cmp	r0, #0
 1101 0020 01D1     		bne	.L71
  43:Source\azure_iot_sdk\iothub_client\src/iothubtransport_amqp_connection.c **** 
 1102              		.loc 1 43 0 discriminator 6
 1103 0022 3470     		strb	r4, [r6]
 1104 0024 07E0     		b	.L69
 1105              	.L71:
  43:Source\azure_iot_sdk\iothub_client\src/iothubtransport_amqp_connection.c **** 
 1106              		.loc 1 43 0 discriminator 7
 1107 0026 0134     		adds	r4, r4, #1
 1108              	.LVL171:
 1109              	.L70:
  43:Source\azure_iot_sdk\iothub_client\src/iothubtransport_amqp_connection.c **** 
 1110              		.loc 1 43 0 discriminator 8
 1111 0028 022C     		cmp	r4, #2
 1112 002a F2D9     		bls	.L72
  43:Source\azure_iot_sdk\iothub_client\src/iothubtransport_amqp_connection.c **** 
 1113              		.loc 1 43 0
 1114 002c 2B20     		movs	r0, #43
 1115 002e 02E0     		b	.L69
 1116              	.LVL172:
 1117              	.L73:
 1118              	.LBE19:
 1119 0030 2B20     		movs	r0, #43
 1120              	.LVL173:
 1121 0032 00E0     		b	.L69
 1122              	.LVL174:
 1123              	.L74:
 1124 0034 2B20     		movs	r0, #43
 1125              	.LVL175:
 1126              	.L69:
 1127              		@ sp needed
 1128              	.LVL176:
 1129              	.LVL177:
 1130 0036 70BD     		pop	{r4, r5, r6, pc}
 1131              	.L76:
 1132              		.align	2
 1133              	.L75:
 1134 0038 00000000 		.word	.LANCHOR1
 1135              		.cfi_endproc
 1136              	.LFE2:
 1137              		.size	AMQP_CONNECTION_STATE_FromString, .-AMQP_CONNECTION_STATE_FromString
 1138              		.section	.text.amqp_connection_destroy,"ax",%progbits
 1139              		.align	2
 1140              		.global	amqp_connection_destroy
ARM GAS  C:\Users\Phuong\AppData\Local\Temp\cc32RpHN.s 			page 27


 1141              		.code	16
 1142              		.thumb_func
 1143              		.type	amqp_connection_destroy, %function
 1144              	amqp_connection_destroy:
 1145              	.LFB12:
 287:Source\azure_iot_sdk\iothub_client\src/iothubtransport_amqp_connection.c **** 
 288:Source\azure_iot_sdk\iothub_client\src/iothubtransport_amqp_connection.c **** 
 289:Source\azure_iot_sdk\iothub_client\src/iothubtransport_amqp_connection.c **** // Public APIS:
 290:Source\azure_iot_sdk\iothub_client\src/iothubtransport_amqp_connection.c **** 
 291:Source\azure_iot_sdk\iothub_client\src/iothubtransport_amqp_connection.c **** void amqp_connection_destroy(AMQP_CONNECTION_HANDLE conn_handle)
 292:Source\azure_iot_sdk\iothub_client\src/iothubtransport_amqp_connection.c **** {
 1146              		.loc 1 292 0 is_stmt 1
 1147              		.cfi_startproc
 1148              		@ args = 0, pretend = 0, frame = 0
 1149              		@ frame_needed = 0, uses_anonymous_args = 0
 1150              	.LVL178:
 1151 0000 10B5     		push	{r4, lr}
 1152              		.cfi_def_cfa_offset 8
 1153              		.cfi_offset 4, -8
 1154              		.cfi_offset 14, -4
 1155 0002 041E     		subs	r4, r0, #0
 293:Source\azure_iot_sdk\iothub_client\src/iothubtransport_amqp_connection.c ****     // Codes_SRS_IOTHUBTRANSPORT_AMQP_CONNECTION_09_035: [If `conn_handle` is NULL, amqp_connection
 294:Source\azure_iot_sdk\iothub_client\src/iothubtransport_amqp_connection.c ****     if (conn_handle != NULL)
 1156              		.loc 1 294 0
 1157 0004 20D0     		beq	.L77
 1158              	.LVL179:
 1159              	.LBB20:
 295:Source\azure_iot_sdk\iothub_client\src/iothubtransport_amqp_connection.c ****     {
 296:Source\azure_iot_sdk\iothub_client\src/iothubtransport_amqp_connection.c ****         AMQP_CONNECTION_INSTANCE* instance = (AMQP_CONNECTION_INSTANCE*)conn_handle;
 297:Source\azure_iot_sdk\iothub_client\src/iothubtransport_amqp_connection.c **** 
 298:Source\azure_iot_sdk\iothub_client\src/iothubtransport_amqp_connection.c ****         // Codes_SRS_IOTHUBTRANSPORT_AMQP_CONNECTION_09_036: [amqp_connection_destroy() shall destr
 299:Source\azure_iot_sdk\iothub_client\src/iothubtransport_amqp_connection.c ****         if (instance->cbs_handle != NULL)
 1160              		.loc 1 299 0
 1161 0006 8068     		ldr	r0, [r0, #8]
 1162              	.LVL180:
 1163 0008 0028     		cmp	r0, #0
 1164 000a 01D0     		beq	.L79
 300:Source\azure_iot_sdk\iothub_client\src/iothubtransport_amqp_connection.c ****         {
 301:Source\azure_iot_sdk\iothub_client\src/iothubtransport_amqp_connection.c ****             cbs_destroy(instance->cbs_handle);
 1165              		.loc 1 301 0
 1166 000c FFF7FEFF 		bl	cbs_destroy
 1167              	.LVL181:
 1168              	.L79:
 302:Source\azure_iot_sdk\iothub_client\src/iothubtransport_amqp_connection.c ****         }
 303:Source\azure_iot_sdk\iothub_client\src/iothubtransport_amqp_connection.c **** 
 304:Source\azure_iot_sdk\iothub_client\src/iothubtransport_amqp_connection.c ****         // Codes_SRS_IOTHUBTRANSPORT_AMQP_CONNECTION_09_037: [amqp_connection_destroy() shall destr
 305:Source\azure_iot_sdk\iothub_client\src/iothubtransport_amqp_connection.c ****         if (instance->session_handle != NULL)
 1169              		.loc 1 305 0
 1170 0010 2069     		ldr	r0, [r4, #16]
 1171 0012 0028     		cmp	r0, #0
 1172 0014 01D0     		beq	.L80
 306:Source\azure_iot_sdk\iothub_client\src/iothubtransport_amqp_connection.c ****         {
 307:Source\azure_iot_sdk\iothub_client\src/iothubtransport_amqp_connection.c ****             session_destroy(instance->session_handle);
 1173              		.loc 1 307 0
 1174 0016 FFF7FEFF 		bl	session_destroy
 1175              	.LVL182:
 1176              	.L80:
ARM GAS  C:\Users\Phuong\AppData\Local\Temp\cc32RpHN.s 			page 28


 308:Source\azure_iot_sdk\iothub_client\src/iothubtransport_amqp_connection.c ****         }
 309:Source\azure_iot_sdk\iothub_client\src/iothubtransport_amqp_connection.c **** 
 310:Source\azure_iot_sdk\iothub_client\src/iothubtransport_amqp_connection.c ****         // Codes_SRS_IOTHUBTRANSPORT_AMQP_CONNECTION_09_067: [amqp_connection_destroy() shall destr
 311:Source\azure_iot_sdk\iothub_client\src/iothubtransport_amqp_connection.c ****         if (instance->connection_handle != NULL)
 1177              		.loc 1 311 0
 1178 001a E068     		ldr	r0, [r4, #12]
 1179 001c 0028     		cmp	r0, #0
 1180 001e 01D0     		beq	.L81
 312:Source\azure_iot_sdk\iothub_client\src/iothubtransport_amqp_connection.c ****         {
 313:Source\azure_iot_sdk\iothub_client\src/iothubtransport_amqp_connection.c ****             connection_destroy(instance->connection_handle);
 1181              		.loc 1 313 0
 1182 0020 FFF7FEFF 		bl	connection_destroy
 1183              	.LVL183:
 1184              	.L81:
 314:Source\azure_iot_sdk\iothub_client\src/iothubtransport_amqp_connection.c ****         }
 315:Source\azure_iot_sdk\iothub_client\src/iothubtransport_amqp_connection.c **** 
 316:Source\azure_iot_sdk\iothub_client\src/iothubtransport_amqp_connection.c ****         // Codes_SRS_IOTHUBTRANSPORT_AMQP_CONNECTION_09_038: [amqp_connection_destroy() shall destr
 317:Source\azure_iot_sdk\iothub_client\src/iothubtransport_amqp_connection.c ****         if (instance->sasl_io != NULL)
 1185              		.loc 1 317 0
 1186 0024 6069     		ldr	r0, [r4, #20]
 1187 0026 0028     		cmp	r0, #0
 1188 0028 01D0     		beq	.L82
 318:Source\azure_iot_sdk\iothub_client\src/iothubtransport_amqp_connection.c ****         {
 319:Source\azure_iot_sdk\iothub_client\src/iothubtransport_amqp_connection.c ****             xio_destroy(instance->sasl_io);
 1189              		.loc 1 319 0
 1190 002a FFF7FEFF 		bl	xio_destroy
 1191              	.LVL184:
 1192              	.L82:
 320:Source\azure_iot_sdk\iothub_client\src/iothubtransport_amqp_connection.c ****         }
 321:Source\azure_iot_sdk\iothub_client\src/iothubtransport_amqp_connection.c **** 
 322:Source\azure_iot_sdk\iothub_client\src/iothubtransport_amqp_connection.c ****         // Codes_SRS_IOTHUBTRANSPORT_AMQP_CONNECTION_09_039: [amqp_connection_destroy() shall destr
 323:Source\azure_iot_sdk\iothub_client\src/iothubtransport_amqp_connection.c ****         if (instance->sasl_mechanism != NULL)
 1193              		.loc 1 323 0
 1194 002e A069     		ldr	r0, [r4, #24]
 1195 0030 0028     		cmp	r0, #0
 1196 0032 01D0     		beq	.L83
 324:Source\azure_iot_sdk\iothub_client\src/iothubtransport_amqp_connection.c ****         {
 325:Source\azure_iot_sdk\iothub_client\src/iothubtransport_amqp_connection.c ****             saslmechanism_destroy(instance->sasl_mechanism);
 1197              		.loc 1 325 0
 1198 0034 FFF7FEFF 		bl	saslmechanism_destroy
 1199              	.LVL185:
 1200              	.L83:
 326:Source\azure_iot_sdk\iothub_client\src/iothubtransport_amqp_connection.c ****         }
 327:Source\azure_iot_sdk\iothub_client\src/iothubtransport_amqp_connection.c **** 
 328:Source\azure_iot_sdk\iothub_client\src/iothubtransport_amqp_connection.c ****         // Codes_SRS_IOTHUBTRANSPORT_AMQP_CONNECTION_09_059: [amqp_connection_destroy() shall destr
 329:Source\azure_iot_sdk\iothub_client\src/iothubtransport_amqp_connection.c ****         if (instance->iothub_fqdn != NULL)
 1201              		.loc 1 329 0
 1202 0038 2068     		ldr	r0, [r4]
 1203 003a 0028     		cmp	r0, #0
 1204 003c 01D0     		beq	.L84
 330:Source\azure_iot_sdk\iothub_client\src/iothubtransport_amqp_connection.c ****         {
 331:Source\azure_iot_sdk\iothub_client\src/iothubtransport_amqp_connection.c ****             STRING_delete(instance->iothub_fqdn);
 1205              		.loc 1 331 0
 1206 003e FFF7FEFF 		bl	STRING_delete
 1207              	.LVL186:
 1208              	.L84:
 332:Source\azure_iot_sdk\iothub_client\src/iothubtransport_amqp_connection.c ****         }
ARM GAS  C:\Users\Phuong\AppData\Local\Temp\cc32RpHN.s 			page 29


 333:Source\azure_iot_sdk\iothub_client\src/iothubtransport_amqp_connection.c **** 
 334:Source\azure_iot_sdk\iothub_client\src/iothubtransport_amqp_connection.c ****         // Codes_SRS_IOTHUBTRANSPORT_AMQP_CONNECTION_09_040: [amqp_connection_destroy() shall free 
 335:Source\azure_iot_sdk\iothub_client\src/iothubtransport_amqp_connection.c ****         free(instance);
 1209              		.loc 1 335 0
 1210 0042 2000     		movs	r0, r4
 1211 0044 FFF7FEFF 		bl	free
 1212              	.LVL187:
 1213              	.L77:
 1214              	.LBE20:
 336:Source\azure_iot_sdk\iothub_client\src/iothubtransport_amqp_connection.c ****     }
 337:Source\azure_iot_sdk\iothub_client\src/iothubtransport_amqp_connection.c **** }
 1215              		.loc 1 337 0
 1216              		@ sp needed
 1217              	.LVL188:
 1218 0048 10BD     		pop	{r4, pc}
 1219              		.cfi_endproc
 1220              	.LFE12:
 1221              		.size	amqp_connection_destroy, .-amqp_connection_destroy
 1222 004a C046     		.section	.text.amqp_connection_create,"ax",%progbits
 1223              		.align	2
 1224              		.global	amqp_connection_create
 1225              		.code	16
 1226              		.thumb_func
 1227              		.type	amqp_connection_create, %function
 1228              	amqp_connection_create:
 1229              	.LFB13:
 338:Source\azure_iot_sdk\iothub_client\src/iothubtransport_amqp_connection.c **** 
 339:Source\azure_iot_sdk\iothub_client\src/iothubtransport_amqp_connection.c **** AMQP_CONNECTION_HANDLE amqp_connection_create(AMQP_CONNECTION_CONFIG* config)
 340:Source\azure_iot_sdk\iothub_client\src/iothubtransport_amqp_connection.c **** {
 1230              		.loc 1 340 0
 1231              		.cfi_startproc
 1232              		@ args = 0, pretend = 0, frame = 0
 1233              		@ frame_needed = 0, uses_anonymous_args = 0
 1234              	.LVL189:
 1235 0000 70B5     		push	{r4, r5, r6, lr}
 1236              		.cfi_def_cfa_offset 16
 1237              		.cfi_offset 4, -16
 1238              		.cfi_offset 5, -12
 1239              		.cfi_offset 6, -8
 1240              		.cfi_offset 14, -4
 1241 0002 82B0     		sub	sp, sp, #8
 1242              		.cfi_def_cfa_offset 24
 1243 0004 041E     		subs	r4, r0, #0
 341:Source\azure_iot_sdk\iothub_client\src/iothubtransport_amqp_connection.c ****     AMQP_CONNECTION_HANDLE result;
 342:Source\azure_iot_sdk\iothub_client\src/iothubtransport_amqp_connection.c **** 
 343:Source\azure_iot_sdk\iothub_client\src/iothubtransport_amqp_connection.c ****     // Codes_SRS_IOTHUBTRANSPORT_AMQP_CONNECTION_09_001: [If `config` is NULL, amqp_connection_crea
 344:Source\azure_iot_sdk\iothub_client\src/iothubtransport_amqp_connection.c ****     if (config == NULL)
 1244              		.loc 1 344 0
 1245 0006 11D1     		bne	.L86
 1246              	.LVL190:
 1247              	.LBB21:
 345:Source\azure_iot_sdk\iothub_client\src/iothubtransport_amqp_connection.c ****     {
 346:Source\azure_iot_sdk\iothub_client\src/iothubtransport_amqp_connection.c ****         result = NULL;
 347:Source\azure_iot_sdk\iothub_client\src/iothubtransport_amqp_connection.c ****         LogError("amqp_connection_create failed (config is NULL)");
 1248              		.loc 1 347 0
 1249 0008 FFF7FEFF 		bl	xlogging_get_log_function
 1250              	.LVL191:
ARM GAS  C:\Users\Phuong\AppData\Local\Temp\cc32RpHN.s 			page 30


 1251 000c 041E     		subs	r4, r0, #0
 1252              	.LVL192:
 1253 000e 00D1     		bne	.LCB1304
 1254 0010 02E1     		b	.L98	@long jump
 1255              	.LCB1304:
 1256              		.loc 1 347 0 is_stmt 0 discriminator 4
 1257 0012 864B     		ldr	r3, .L109
 1258 0014 0193     		str	r3, [sp, #4]
 1259 0016 0123     		movs	r3, #1
 1260 0018 0093     		str	r3, [sp]
 1261 001a 5C23     		movs	r3, #92
 1262 001c FF33     		adds	r3, r3, #255
 1263 001e 844A     		ldr	r2, .L109+4
 1264 0020 0832     		adds	r2, r2, #8
 1265 0022 8449     		ldr	r1, .L109+8
 1266 0024 0020     		movs	r0, #0
 1267              	.LVL193:
 1268 0026 A047     		blx	r4
 1269              	.LVL194:
 1270              	.LBE21:
 346:Source\azure_iot_sdk\iothub_client\src/iothubtransport_amqp_connection.c ****         LogError("amqp_connection_create failed (config is NULL)");
 1271              		.loc 1 346 0 is_stmt 1 discriminator 4
 1272 0028 0024     		movs	r4, #0
 1273              	.LVL195:
 1274 002a FCE0     		b	.L87
 1275              	.LVL196:
 1276              	.L86:
 348:Source\azure_iot_sdk\iothub_client\src/iothubtransport_amqp_connection.c ****     }
 349:Source\azure_iot_sdk\iothub_client\src/iothubtransport_amqp_connection.c ****     // Codes_SRS_IOTHUBTRANSPORT_AMQP_CONNECTION_09_002: [If `config->iothub_host_fqdn` is NULL, am
 350:Source\azure_iot_sdk\iothub_client\src/iothubtransport_amqp_connection.c ****     else if (config->iothub_host_fqdn == NULL)
 1277              		.loc 1 350 0
 1278 002c 0368     		ldr	r3, [r0]
 1279 002e 002B     		cmp	r3, #0
 1280 0030 11D1     		bne	.L88
 1281              	.LVL197:
 1282              	.LBB22:
 351:Source\azure_iot_sdk\iothub_client\src/iothubtransport_amqp_connection.c ****     {
 352:Source\azure_iot_sdk\iothub_client\src/iothubtransport_amqp_connection.c ****         result = NULL;
 353:Source\azure_iot_sdk\iothub_client\src/iothubtransport_amqp_connection.c ****         LogError("amqp_connection_create failed (config->iothub_host_fqdn is NULL)");
 1283              		.loc 1 353 0
 1284 0032 FFF7FEFF 		bl	xlogging_get_log_function
 1285              	.LVL198:
 1286 0036 041E     		subs	r4, r0, #0
 1287              	.LVL199:
 1288 0038 00D1     		bne	.LCB1341
 1289 003a EFE0     		b	.L99	@long jump
 1290              	.LCB1341:
 1291              		.loc 1 353 0 is_stmt 0 discriminator 4
 1292 003c 7E4B     		ldr	r3, .L109+12
 1293 003e 0193     		str	r3, [sp, #4]
 1294 0040 0123     		movs	r3, #1
 1295 0042 0093     		str	r3, [sp]
 1296 0044 6223     		movs	r3, #98
 1297 0046 FF33     		adds	r3, r3, #255
 1298 0048 794A     		ldr	r2, .L109+4
 1299 004a 0832     		adds	r2, r2, #8
 1300 004c 7949     		ldr	r1, .L109+8
ARM GAS  C:\Users\Phuong\AppData\Local\Temp\cc32RpHN.s 			page 31


 1301 004e 0020     		movs	r0, #0
 1302              	.LVL200:
 1303 0050 A047     		blx	r4
 1304              	.LVL201:
 1305              	.LBE22:
 352:Source\azure_iot_sdk\iothub_client\src/iothubtransport_amqp_connection.c ****         LogError("amqp_connection_create failed (config->iothub_host_fqdn is NULL)");
 1306              		.loc 1 352 0 is_stmt 1 discriminator 4
 1307 0052 0024     		movs	r4, #0
 1308              	.LVL202:
 1309 0054 E7E0     		b	.L87
 1310              	.LVL203:
 1311              	.L88:
 354:Source\azure_iot_sdk\iothub_client\src/iothubtransport_amqp_connection.c ****     }
 355:Source\azure_iot_sdk\iothub_client\src/iothubtransport_amqp_connection.c ****     // Codes_SRS_IOTHUBTRANSPORT_AMQP_CONNECTION_09_003: [If `config->underlying_io_transport` is N
 356:Source\azure_iot_sdk\iothub_client\src/iothubtransport_amqp_connection.c ****     else if (config->underlying_io_transport == NULL)
 1312              		.loc 1 356 0
 1313 0056 4368     		ldr	r3, [r0, #4]
 1314 0058 002B     		cmp	r3, #0
 1315 005a 11D1     		bne	.L89
 1316              	.LVL204:
 1317              	.LBB23:
 357:Source\azure_iot_sdk\iothub_client\src/iothubtransport_amqp_connection.c ****     {
 358:Source\azure_iot_sdk\iothub_client\src/iothubtransport_amqp_connection.c ****         result = NULL;
 359:Source\azure_iot_sdk\iothub_client\src/iothubtransport_amqp_connection.c ****         LogError("amqp_connection_create failed (config->underlying_io_transport is NULL)");
 1318              		.loc 1 359 0
 1319 005c FFF7FEFF 		bl	xlogging_get_log_function
 1320              	.LVL205:
 1321 0060 041E     		subs	r4, r0, #0
 1322              	.LVL206:
 1323 0062 00D1     		bne	.LCB1378
 1324 0064 DCE0     		b	.L100	@long jump
 1325              	.LCB1378:
 1326              		.loc 1 359 0 is_stmt 0 discriminator 4
 1327 0066 754B     		ldr	r3, .L109+16
 1328 0068 0193     		str	r3, [sp, #4]
 1329 006a 0123     		movs	r3, #1
 1330 006c 0093     		str	r3, [sp]
 1331 006e 6823     		movs	r3, #104
 1332 0070 FF33     		adds	r3, r3, #255
 1333 0072 6F4A     		ldr	r2, .L109+4
 1334 0074 0832     		adds	r2, r2, #8
 1335 0076 6F49     		ldr	r1, .L109+8
 1336 0078 0020     		movs	r0, #0
 1337              	.LVL207:
 1338 007a A047     		blx	r4
 1339              	.LVL208:
 1340              	.LBE23:
 358:Source\azure_iot_sdk\iothub_client\src/iothubtransport_amqp_connection.c ****         LogError("amqp_connection_create failed (config->underlying_io_transport is NULL)");
 1341              		.loc 1 358 0 is_stmt 1 discriminator 4
 1342 007c 0024     		movs	r4, #0
 1343              	.LVL209:
 1344 007e D2E0     		b	.L87
 1345              	.LVL210:
 1346              	.L89:
 1347              	.LBB24:
 360:Source\azure_iot_sdk\iothub_client\src/iothubtransport_amqp_connection.c ****     }
 361:Source\azure_iot_sdk\iothub_client\src/iothubtransport_amqp_connection.c ****     else
ARM GAS  C:\Users\Phuong\AppData\Local\Temp\cc32RpHN.s 			page 32


 362:Source\azure_iot_sdk\iothub_client\src/iothubtransport_amqp_connection.c ****     {
 363:Source\azure_iot_sdk\iothub_client\src/iothubtransport_amqp_connection.c ****         AMQP_CONNECTION_INSTANCE* instance;
 364:Source\azure_iot_sdk\iothub_client\src/iothubtransport_amqp_connection.c **** 
 365:Source\azure_iot_sdk\iothub_client\src/iothubtransport_amqp_connection.c ****         // Codes_SRS_IOTHUBTRANSPORT_AMQP_CONNECTION_09_057: [amqp_connection_create() shall alloca
 366:Source\azure_iot_sdk\iothub_client\src/iothubtransport_amqp_connection.c ****         if ((instance = (AMQP_CONNECTION_INSTANCE*)malloc(sizeof(AMQP_CONNECTION_INSTANCE))) == NUL
 1348              		.loc 1 366 0
 1349 0080 3820     		movs	r0, #56
 1350              	.LVL211:
 1351 0082 FFF7FEFF 		bl	malloc
 1352              	.LVL212:
 1353 0086 051E     		subs	r5, r0, #0
 1354              	.LVL213:
 1355 0088 11D1     		bne	.L90
 1356              	.LVL214:
 1357              	.LBB25:
 367:Source\azure_iot_sdk\iothub_client\src/iothubtransport_amqp_connection.c ****         {
 368:Source\azure_iot_sdk\iothub_client\src/iothubtransport_amqp_connection.c ****             // Codes_SRS_IOTHUBTRANSPORT_AMQP_CONNECTION_09_058: [If malloc() fails, amqp_connectio
 369:Source\azure_iot_sdk\iothub_client\src/iothubtransport_amqp_connection.c ****             result = NULL;
 370:Source\azure_iot_sdk\iothub_client\src/iothubtransport_amqp_connection.c ****             LogError("amqp_connection_create failed (malloc failed)");
 1358              		.loc 1 370 0
 1359 008a FFF7FEFF 		bl	xlogging_get_log_function
 1360              	.LVL215:
 1361 008e 041E     		subs	r4, r0, #0
 1362              	.LVL216:
 1363 0090 00D1     		bne	.LCB1420
 1364 0092 C7E0     		b	.L101	@long jump
 1365              	.LCB1420:
 1366              		.loc 1 370 0 is_stmt 0 discriminator 4
 1367 0094 6A4B     		ldr	r3, .L109+20
 1368 0096 0193     		str	r3, [sp, #4]
 1369 0098 0123     		movs	r3, #1
 1370 009a 0093     		str	r3, [sp]
 1371 009c 7233     		adds	r3, r3, #114
 1372 009e FF33     		adds	r3, r3, #255
 1373 00a0 634A     		ldr	r2, .L109+4
 1374 00a2 0832     		adds	r2, r2, #8
 1375 00a4 6349     		ldr	r1, .L109+8
 1376 00a6 0020     		movs	r0, #0
 1377              	.LVL217:
 1378 00a8 A047     		blx	r4
 1379              	.LVL218:
 1380              	.LBE25:
 369:Source\azure_iot_sdk\iothub_client\src/iothubtransport_amqp_connection.c ****             LogError("amqp_connection_create failed (malloc failed)");
 1381              		.loc 1 369 0 is_stmt 1 discriminator 4
 1382 00aa 2C00     		movs	r4, r5
 1383              	.LVL219:
 1384 00ac BBE0     		b	.L87
 1385              	.LVL220:
 1386              	.L90:
 371:Source\azure_iot_sdk\iothub_client\src/iothubtransport_amqp_connection.c ****         }
 372:Source\azure_iot_sdk\iothub_client\src/iothubtransport_amqp_connection.c ****         else
 373:Source\azure_iot_sdk\iothub_client\src/iothubtransport_amqp_connection.c ****         {
 374:Source\azure_iot_sdk\iothub_client\src/iothubtransport_amqp_connection.c ****             memset(instance, 0, sizeof(AMQP_CONNECTION_INSTANCE));
 1387              		.loc 1 374 0
 1388 00ae 3822     		movs	r2, #56
 1389 00b0 0021     		movs	r1, #0
 1390 00b2 FFF7FEFF 		bl	memset
ARM GAS  C:\Users\Phuong\AppData\Local\Temp\cc32RpHN.s 			page 33


 1391              	.LVL221:
 375:Source\azure_iot_sdk\iothub_client\src/iothubtransport_amqp_connection.c **** 
 376:Source\azure_iot_sdk\iothub_client\src/iothubtransport_amqp_connection.c ****             // Codes_SRS_IOTHUBTRANSPORT_AMQP_CONNECTION_09_005: [A copy of `config->iothub_host_fq
 377:Source\azure_iot_sdk\iothub_client\src/iothubtransport_amqp_connection.c ****             if ((instance->iothub_fqdn = STRING_construct(config->iothub_host_fqdn)) == NULL)
 1392              		.loc 1 377 0
 1393 00b6 2068     		ldr	r0, [r4]
 1394 00b8 FFF7FEFF 		bl	STRING_construct
 1395              	.LVL222:
 1396 00bc 2860     		str	r0, [r5]
 1397 00be 0028     		cmp	r0, #0
 1398 00c0 11D1     		bne	.L91
 1399              	.LVL223:
 1400              	.LBB26:
 378:Source\azure_iot_sdk\iothub_client\src/iothubtransport_amqp_connection.c ****             {
 379:Source\azure_iot_sdk\iothub_client\src/iothubtransport_amqp_connection.c ****                 // Codes_SRS_IOTHUBTRANSPORT_AMQP_CONNECTION_09_066: [If STRING_construct() fails, 
 380:Source\azure_iot_sdk\iothub_client\src/iothubtransport_amqp_connection.c ****                 result = NULL;
 381:Source\azure_iot_sdk\iothub_client\src/iothubtransport_amqp_connection.c ****                 LogError("amqp_connection_create failed (STRING_construct failed)");
 1401              		.loc 1 381 0
 1402 00c2 FFF7FEFF 		bl	xlogging_get_log_function
 1403              	.LVL224:
 1404 00c6 041E     		subs	r4, r0, #0
 1405              	.LVL225:
 1406 00c8 00D1     		bne	.LCB1465
 1407 00ca 92E0     		b	.L102	@long jump
 1408              	.LCB1465:
 1409              		.loc 1 381 0 is_stmt 0 discriminator 4
 1410 00cc 5D4B     		ldr	r3, .L109+24
 1411 00ce 0193     		str	r3, [sp, #4]
 1412 00d0 0123     		movs	r3, #1
 1413 00d2 0093     		str	r3, [sp]
 1414 00d4 7E23     		movs	r3, #126
 1415 00d6 FF33     		adds	r3, r3, #255
 1416 00d8 554A     		ldr	r2, .L109+4
 1417 00da 0832     		adds	r2, r2, #8
 1418 00dc 5549     		ldr	r1, .L109+8
 1419 00de 0020     		movs	r0, #0
 1420              	.LVL226:
 1421 00e0 A047     		blx	r4
 1422              	.LVL227:
 1423              	.LBE26:
 380:Source\azure_iot_sdk\iothub_client\src/iothubtransport_amqp_connection.c ****                 LogError("amqp_connection_create failed (STRING_construct failed)");
 1424              		.loc 1 380 0 is_stmt 1 discriminator 4
 1425 00e2 0024     		movs	r4, #0
 1426              	.LVL228:
 1427 00e4 92E0     		b	.L92
 1428              	.LVL229:
 1429              	.L91:
 382:Source\azure_iot_sdk\iothub_client\src/iothubtransport_amqp_connection.c ****             }
 383:Source\azure_iot_sdk\iothub_client\src/iothubtransport_amqp_connection.c ****             else
 384:Source\azure_iot_sdk\iothub_client\src/iothubtransport_amqp_connection.c ****             {
 385:Source\azure_iot_sdk\iothub_client\src/iothubtransport_amqp_connection.c ****                 // Codes_SRS_IOTHUBTRANSPORT_AMQP_CONNECTION_09_006: [`config->underlying_io_transp
 386:Source\azure_iot_sdk\iothub_client\src/iothubtransport_amqp_connection.c ****                 instance->underlying_io_transport = config->underlying_io_transport;
 1430              		.loc 1 386 0
 1431 00e6 6368     		ldr	r3, [r4, #4]
 1432 00e8 6B60     		str	r3, [r5, #4]
 387:Source\azure_iot_sdk\iothub_client\src/iothubtransport_amqp_connection.c ****                 // Codes_SRS_IOTHUBTRANSPORT_AMQP_CONNECTION_09_008: [`config->is_trace_on` shall b
 388:Source\azure_iot_sdk\iothub_client\src/iothubtransport_amqp_connection.c ****                 instance->is_trace_on = config->is_trace_on;
ARM GAS  C:\Users\Phuong\AppData\Local\Temp\cc32RpHN.s 			page 34


 1433              		.loc 1 388 0
 1434 00ea A37A     		ldrb	r3, [r4, #10]
 1435 00ec AB77     		strb	r3, [r5, #30]
 389:Source\azure_iot_sdk\iothub_client\src/iothubtransport_amqp_connection.c ****                 // Codes_SRS_IOTHUBTRANSPORT_AMQP_CONNECTION_09_060: [`config->on_state_changed_cal
 390:Source\azure_iot_sdk\iothub_client\src/iothubtransport_amqp_connection.c ****                 instance->on_state_changed_callback = config->on_state_changed_callback;
 1436              		.loc 1 390 0
 1437 00ee E368     		ldr	r3, [r4, #12]
 1438 00f0 2B62     		str	r3, [r5, #32]
 391:Source\azure_iot_sdk\iothub_client\src/iothubtransport_amqp_connection.c ****                 // Codes_SRS_IOTHUBTRANSPORT_AMQP_CONNECTION_09_061: [`config->on_state_changed_con
 392:Source\azure_iot_sdk\iothub_client\src/iothubtransport_amqp_connection.c ****                 instance->on_state_changed_context = config->on_state_changed_context;
 1439              		.loc 1 392 0
 1440 00f2 2369     		ldr	r3, [r4, #16]
 1441 00f4 6B62     		str	r3, [r5, #36]
 393:Source\azure_iot_sdk\iothub_client\src/iothubtransport_amqp_connection.c ****                 instance->has_sasl_mechanism = config->create_sasl_io;
 1442              		.loc 1 393 0
 1443 00f6 237A     		ldrb	r3, [r4, #8]
 1444 00f8 6B77     		strb	r3, [r5, #29]
 394:Source\azure_iot_sdk\iothub_client\src/iothubtransport_amqp_connection.c ****                 instance->has_cbs = config->create_cbs_connection;
 1445              		.loc 1 394 0
 1446 00fa 637A     		ldrb	r3, [r4, #9]
 1447 00fc 2B77     		strb	r3, [r5, #28]
 395:Source\azure_iot_sdk\iothub_client\src/iothubtransport_amqp_connection.c **** 
 396:Source\azure_iot_sdk\iothub_client\src/iothubtransport_amqp_connection.c ****                 instance->svc2cl_keep_alive_timeout_secs = (uint32_t)config->svc2cl_keep_alive_time
 1448              		.loc 1 396 0
 1449 00fe 6269     		ldr	r2, [r4, #20]
 1450 0100 AA62     		str	r2, [r5, #40]
 397:Source\azure_iot_sdk\iothub_client\src/iothubtransport_amqp_connection.c ****                 instance->cl2svc_keep_alive_send_ratio = (double)config->cl2svc_keep_alive_send_rat
 1451              		.loc 1 397 0
 1452 0102 A169     		ldr	r1, [r4, #24]
 1453 0104 E269     		ldr	r2, [r4, #28]
 1454 0106 2963     		str	r1, [r5, #48]
 1455 0108 6A63     		str	r2, [r5, #52]
 398:Source\azure_iot_sdk\iothub_client\src/iothubtransport_amqp_connection.c **** 
 399:Source\azure_iot_sdk\iothub_client\src/iothubtransport_amqp_connection.c ****                 instance->current_state = AMQP_CONNECTION_STATE_CLOSED;
 1456              		.loc 1 399 0
 1457 010a 0122     		movs	r2, #1
 1458 010c EA77     		strb	r2, [r5, #31]
 400:Source\azure_iot_sdk\iothub_client\src/iothubtransport_amqp_connection.c **** 
 401:Source\azure_iot_sdk\iothub_client\src/iothubtransport_amqp_connection.c ****                 if(config->create_cbs_connection)
 1459              		.loc 1 401 0
 1460 010e 002B     		cmp	r3, #0
 1461 0110 0ED0     		beq	.L93
 1462              	.LBB27:
 402:Source\azure_iot_sdk\iothub_client\src/iothubtransport_amqp_connection.c ****                 {
 403:Source\azure_iot_sdk\iothub_client\src/iothubtransport_amqp_connection.c ****                     LogError("PSOC6---amqp_connection_create_config_create_csb_connection_is_TRUE--
 1463              		.loc 1 403 0 discriminator 3
 1464 0112 FFF7FEFF 		bl	xlogging_get_log_function
 1465              	.LVL230:
 1466 0116 061E     		subs	r6, r0, #0
 1467              	.LVL231:
 1468 0118 0AD0     		beq	.L93
 1469              		.loc 1 403 0 is_stmt 0 discriminator 4
 1470 011a 4B4B     		ldr	r3, .L109+28
 1471 011c 0193     		str	r3, [sp, #4]
 1472 011e 0123     		movs	r3, #1
 1473 0120 0093     		str	r3, [sp]
 1474 0122 9423     		movs	r3, #148
ARM GAS  C:\Users\Phuong\AppData\Local\Temp\cc32RpHN.s 			page 35


 1475 0124 FF33     		adds	r3, r3, #255
 1476 0126 424A     		ldr	r2, .L109+4
 1477 0128 0832     		adds	r2, r2, #8
 1478 012a 4249     		ldr	r1, .L109+8
 1479 012c 0020     		movs	r0, #0
 1480              	.LVL232:
 1481 012e B047     		blx	r6
 1482              	.LVL233:
 1483              	.L93:
 1484              	.LBE27:
 404:Source\azure_iot_sdk\iothub_client\src/iothubtransport_amqp_connection.c ****                 }
 405:Source\azure_iot_sdk\iothub_client\src/iothubtransport_amqp_connection.c ****                 
 406:Source\azure_iot_sdk\iothub_client\src/iothubtransport_amqp_connection.c ****                 // Codes_SRS_IOTHUBTRANSPORT_AMQP_CONNECTION_09_011: [If `config->create_sasl_io` i
 407:Source\azure_iot_sdk\iothub_client\src/iothubtransport_amqp_connection.c ****                 if ((config->create_sasl_io || config->create_cbs_connection) && create_sasl_compon
 1485              		.loc 1 407 0 is_stmt 1
 1486 0130 237A     		ldrb	r3, [r4, #8]
 1487 0132 002B     		cmp	r3, #0
 1488 0134 02D1     		bne	.L94
 1489              		.loc 1 407 0 is_stmt 0 discriminator 2
 1490 0136 637A     		ldrb	r3, [r4, #9]
 1491 0138 002B     		cmp	r3, #0
 1492 013a 15D0     		beq	.L95
 1493              	.L94:
 1494              		.loc 1 407 0 discriminator 3
 1495 013c 2800     		movs	r0, r5
 1496 013e FFF7FEFF 		bl	create_sasl_components
 1497              	.LVL234:
 1498 0142 0028     		cmp	r0, #0
 1499 0144 10D0     		beq	.L95
 1500              	.LVL235:
 1501              	.LBB28:
 408:Source\azure_iot_sdk\iothub_client\src/iothubtransport_amqp_connection.c ****                 {
 409:Source\azure_iot_sdk\iothub_client\src/iothubtransport_amqp_connection.c ****                     result = NULL;
 410:Source\azure_iot_sdk\iothub_client\src/iothubtransport_amqp_connection.c ****                     LogError("PSOC6---amqp_connection_create failed (failed creating the SASL compo
 1502              		.loc 1 410 0 is_stmt 1
 1503 0146 FFF7FEFF 		bl	xlogging_get_log_function
 1504              	.LVL236:
 1505 014a 041E     		subs	r4, r0, #0
 1506              	.LVL237:
 1507 014c 53D0     		beq	.L103
 1508              		.loc 1 410 0 is_stmt 0 discriminator 4
 1509 014e 3F4B     		ldr	r3, .L109+32
 1510 0150 0193     		str	r3, [sp, #4]
 1511 0152 0123     		movs	r3, #1
 1512 0154 0093     		str	r3, [sp]
 1513 0156 9A33     		adds	r3, r3, #154
 1514 0158 FF33     		adds	r3, r3, #255
 1515 015a 354A     		ldr	r2, .L109+4
 1516 015c 0832     		adds	r2, r2, #8
 1517 015e 3549     		ldr	r1, .L109+8
 1518 0160 0020     		movs	r0, #0
 1519              	.LVL238:
 1520 0162 A047     		blx	r4
 1521              	.LVL239:
 1522              	.LBE28:
 409:Source\azure_iot_sdk\iothub_client\src/iothubtransport_amqp_connection.c ****                     LogError("PSOC6---amqp_connection_create failed (failed creating the SASL compo
 1523              		.loc 1 409 0 is_stmt 1 discriminator 4
ARM GAS  C:\Users\Phuong\AppData\Local\Temp\cc32RpHN.s 			page 36


 1524 0164 0024     		movs	r4, #0
 1525              	.LVL240:
 1526 0166 51E0     		b	.L92
 1527              	.LVL241:
 1528              	.L95:
 411:Source\azure_iot_sdk\iothub_client\src/iothubtransport_amqp_connection.c ****                 }
 412:Source\azure_iot_sdk\iothub_client\src/iothubtransport_amqp_connection.c ****                 else if (create_connection_handle(instance) != RESULT_OK)
 1529              		.loc 1 412 0
 1530 0168 2800     		movs	r0, r5
 1531 016a FFF7FEFF 		bl	create_connection_handle
 1532              	.LVL242:
 1533 016e 0028     		cmp	r0, #0
 1534 0170 10D0     		beq	.L96
 1535              	.LVL243:
 1536              	.LBB29:
 413:Source\azure_iot_sdk\iothub_client\src/iothubtransport_amqp_connection.c ****                 {
 414:Source\azure_iot_sdk\iothub_client\src/iothubtransport_amqp_connection.c ****                     result = NULL;
 415:Source\azure_iot_sdk\iothub_client\src/iothubtransport_amqp_connection.c ****                     LogError("amqp_connection_create failed (failed creating the AMQP connection)")
 1537              		.loc 1 415 0
 1538 0172 FFF7FEFF 		bl	xlogging_get_log_function
 1539              	.LVL244:
 1540 0176 041E     		subs	r4, r0, #0
 1541              	.LVL245:
 1542 0178 3FD0     		beq	.L104
 1543              		.loc 1 415 0 is_stmt 0 discriminator 4
 1544 017a 354B     		ldr	r3, .L109+36
 1545 017c 0193     		str	r3, [sp, #4]
 1546 017e 0123     		movs	r3, #1
 1547 0180 0093     		str	r3, [sp]
 1548 0182 A023     		movs	r3, #160
 1549 0184 FF33     		adds	r3, r3, #255
 1550 0186 2A4A     		ldr	r2, .L109+4
 1551 0188 0832     		adds	r2, r2, #8
 1552 018a 2A49     		ldr	r1, .L109+8
 1553 018c 0020     		movs	r0, #0
 1554              	.LVL246:
 1555 018e A047     		blx	r4
 1556              	.LVL247:
 1557              	.LBE29:
 414:Source\azure_iot_sdk\iothub_client\src/iothubtransport_amqp_connection.c ****                     LogError("amqp_connection_create failed (failed creating the AMQP connection)")
 1558              		.loc 1 414 0 is_stmt 1 discriminator 4
 1559 0190 0024     		movs	r4, #0
 1560              	.LVL248:
 1561 0192 3BE0     		b	.L92
 1562              	.LVL249:
 1563              	.L96:
 416:Source\azure_iot_sdk\iothub_client\src/iothubtransport_amqp_connection.c ****                 }
 417:Source\azure_iot_sdk\iothub_client\src/iothubtransport_amqp_connection.c ****                 else if (create_session_handle(instance) != RESULT_OK)
 1564              		.loc 1 417 0
 1565 0194 2800     		movs	r0, r5
 1566 0196 FFF7FEFF 		bl	create_session_handle
 1567              	.LVL250:
 1568 019a 0028     		cmp	r0, #0
 1569 019c 10D0     		beq	.L97
 1570              	.LVL251:
 1571              	.LBB30:
 418:Source\azure_iot_sdk\iothub_client\src/iothubtransport_amqp_connection.c ****                 {
ARM GAS  C:\Users\Phuong\AppData\Local\Temp\cc32RpHN.s 			page 37


 419:Source\azure_iot_sdk\iothub_client\src/iothubtransport_amqp_connection.c ****                     result = NULL;
 420:Source\azure_iot_sdk\iothub_client\src/iothubtransport_amqp_connection.c ****                     LogError("amqp_connection_create failed (failed creating the AMQP session)");
 1572              		.loc 1 420 0
 1573 019e FFF7FEFF 		bl	xlogging_get_log_function
 1574              	.LVL252:
 1575 01a2 041E     		subs	r4, r0, #0
 1576              	.LVL253:
 1577 01a4 2BD0     		beq	.L105
 1578              		.loc 1 420 0 is_stmt 0 discriminator 4
 1579 01a6 2B4B     		ldr	r3, .L109+40
 1580 01a8 0193     		str	r3, [sp, #4]
 1581 01aa 0123     		movs	r3, #1
 1582 01ac 0093     		str	r3, [sp]
 1583 01ae A433     		adds	r3, r3, #164
 1584 01b0 FF33     		adds	r3, r3, #255
 1585 01b2 1F4A     		ldr	r2, .L109+4
 1586 01b4 0832     		adds	r2, r2, #8
 1587 01b6 1F49     		ldr	r1, .L109+8
 1588 01b8 0020     		movs	r0, #0
 1589              	.LVL254:
 1590 01ba A047     		blx	r4
 1591              	.LVL255:
 1592              	.LBE30:
 419:Source\azure_iot_sdk\iothub_client\src/iothubtransport_amqp_connection.c ****                     LogError("amqp_connection_create failed (failed creating the AMQP session)");
 1593              		.loc 1 419 0 is_stmt 1 discriminator 4
 1594 01bc 0024     		movs	r4, #0
 1595              	.LVL256:
 1596 01be 25E0     		b	.L92
 1597              	.LVL257:
 1598              	.L97:
 421:Source\azure_iot_sdk\iothub_client\src/iothubtransport_amqp_connection.c ****                 }
 422:Source\azure_iot_sdk\iothub_client\src/iothubtransport_amqp_connection.c ****                 
 423:Source\azure_iot_sdk\iothub_client\src/iothubtransport_amqp_connection.c ****                 // Codes_SRS_IOTHUBTRANSPORT_AMQP_CONNECTION_09_028: [Only if `config->create_cbs_c
 424:Source\azure_iot_sdk\iothub_client\src/iothubtransport_amqp_connection.c ****                 else if (config->create_cbs_connection && create_cbs_handle(instance) != RESULT_OK)
 1599              		.loc 1 424 0
 1600 01c0 637A     		ldrb	r3, [r4, #9]
 1601 01c2 002B     		cmp	r3, #0
 1602 01c4 1DD0     		beq	.L106
 1603              		.loc 1 424 0 is_stmt 0 discriminator 1
 1604 01c6 2800     		movs	r0, r5
 1605 01c8 FFF7FEFF 		bl	create_cbs_handle
 1606              	.LVL258:
 1607 01cc 0028     		cmp	r0, #0
 1608 01ce 1AD0     		beq	.L107
 1609              	.LVL259:
 1610              	.LBB31:
 425:Source\azure_iot_sdk\iothub_client\src/iothubtransport_amqp_connection.c ****                 {
 426:Source\azure_iot_sdk\iothub_client\src/iothubtransport_amqp_connection.c ****                     result = NULL;
 427:Source\azure_iot_sdk\iothub_client\src/iothubtransport_amqp_connection.c ****                     LogError("PSOC6---amqp_connection_create failed (failed creating the CBS handle
 1611              		.loc 1 427 0 is_stmt 1
 1612 01d0 FFF7FEFF 		bl	xlogging_get_log_function
 1613              	.LVL260:
 1614 01d4 041E     		subs	r4, r0, #0
 1615              	.LVL261:
 1616 01d6 18D0     		beq	.L108
 1617              		.loc 1 427 0 is_stmt 0 discriminator 4
 1618 01d8 1F4B     		ldr	r3, .L109+44
ARM GAS  C:\Users\Phuong\AppData\Local\Temp\cc32RpHN.s 			page 38


 1619 01da 0193     		str	r3, [sp, #4]
 1620 01dc 0123     		movs	r3, #1
 1621 01de 0093     		str	r3, [sp]
 1622 01e0 AC23     		movs	r3, #172
 1623 01e2 FF33     		adds	r3, r3, #255
 1624 01e4 124A     		ldr	r2, .L109+4
 1625 01e6 0832     		adds	r2, r2, #8
 1626 01e8 1249     		ldr	r1, .L109+8
 1627 01ea 0020     		movs	r0, #0
 1628              	.LVL262:
 1629 01ec A047     		blx	r4
 1630              	.LVL263:
 1631              	.LBE31:
 426:Source\azure_iot_sdk\iothub_client\src/iothubtransport_amqp_connection.c ****                     LogError("PSOC6---amqp_connection_create failed (failed creating the CBS handle
 1632              		.loc 1 426 0 is_stmt 1 discriminator 4
 1633 01ee 0024     		movs	r4, #0
 1634              	.LVL264:
 1635 01f0 0CE0     		b	.L92
 1636              	.LVL265:
 1637              	.L102:
 380:Source\azure_iot_sdk\iothub_client\src/iothubtransport_amqp_connection.c ****                 LogError("amqp_connection_create failed (STRING_construct failed)");
 1638              		.loc 1 380 0
 1639 01f2 0024     		movs	r4, #0
 1640 01f4 0AE0     		b	.L92
 1641              	.LVL266:
 1642              	.L103:
 409:Source\azure_iot_sdk\iothub_client\src/iothubtransport_amqp_connection.c ****                     LogError("PSOC6---amqp_connection_create failed (failed creating the SASL compo
 1643              		.loc 1 409 0
 1644 01f6 0024     		movs	r4, #0
 1645 01f8 08E0     		b	.L92
 1646              	.LVL267:
 1647              	.L104:
 414:Source\azure_iot_sdk\iothub_client\src/iothubtransport_amqp_connection.c ****                     LogError("amqp_connection_create failed (failed creating the AMQP connection)")
 1648              		.loc 1 414 0
 1649 01fa 0024     		movs	r4, #0
 1650 01fc 06E0     		b	.L92
 1651              	.LVL268:
 1652              	.L105:
 419:Source\azure_iot_sdk\iothub_client\src/iothubtransport_amqp_connection.c ****                     LogError("amqp_connection_create failed (failed creating the AMQP session)");
 1653              		.loc 1 419 0
 1654 01fe 0024     		movs	r4, #0
 1655 0200 04E0     		b	.L92
 1656              	.LVL269:
 1657              	.L106:
 428:Source\azure_iot_sdk\iothub_client\src/iothubtransport_amqp_connection.c ****                 }
 429:Source\azure_iot_sdk\iothub_client\src/iothubtransport_amqp_connection.c ****                 else
 430:Source\azure_iot_sdk\iothub_client\src/iothubtransport_amqp_connection.c ****                 {
 431:Source\azure_iot_sdk\iothub_client\src/iothubtransport_amqp_connection.c ****                     // Codes_SRS_IOTHUBTRANSPORT_AMQP_CONNECTION_09_034: [If no failures occur, amq
 432:Source\azure_iot_sdk\iothub_client\src/iothubtransport_amqp_connection.c ****                     result = (AMQP_CONNECTION_HANDLE)instance;
 1658              		.loc 1 432 0
 1659 0202 2C00     		movs	r4, r5
 1660              	.LVL270:
 1661 0204 02E0     		b	.L92
 1662              	.LVL271:
 1663              	.L107:
 1664 0206 2C00     		movs	r4, r5
 1665              	.LVL272:
ARM GAS  C:\Users\Phuong\AppData\Local\Temp\cc32RpHN.s 			page 39


 1666 0208 00E0     		b	.L92
 1667              	.LVL273:
 1668              	.L108:
 426:Source\azure_iot_sdk\iothub_client\src/iothubtransport_amqp_connection.c ****                     LogError("PSOC6---amqp_connection_create failed (failed creating the CBS handle
 1669              		.loc 1 426 0
 1670 020a 0024     		movs	r4, #0
 1671              	.LVL274:
 1672              	.L92:
 433:Source\azure_iot_sdk\iothub_client\src/iothubtransport_amqp_connection.c ****                     
 434:Source\azure_iot_sdk\iothub_client\src/iothubtransport_amqp_connection.c ****                 }
 435:Source\azure_iot_sdk\iothub_client\src/iothubtransport_amqp_connection.c ****             }
 436:Source\azure_iot_sdk\iothub_client\src/iothubtransport_amqp_connection.c **** 
 437:Source\azure_iot_sdk\iothub_client\src/iothubtransport_amqp_connection.c ****             if (result == NULL)
 1673              		.loc 1 437 0
 1674 020c 002C     		cmp	r4, #0
 1675 020e 0AD1     		bne	.L87
 438:Source\azure_iot_sdk\iothub_client\src/iothubtransport_amqp_connection.c ****             {
 439:Source\azure_iot_sdk\iothub_client\src/iothubtransport_amqp_connection.c ****                 amqp_connection_destroy((AMQP_CONNECTION_HANDLE)instance);
 1676              		.loc 1 439 0
 1677 0210 2800     		movs	r0, r5
 1678 0212 FFF7FEFF 		bl	amqp_connection_destroy
 1679              	.LVL275:
 1680 0216 06E0     		b	.L87
 1681              	.LVL276:
 1682              	.L98:
 1683              	.LBE24:
 346:Source\azure_iot_sdk\iothub_client\src/iothubtransport_amqp_connection.c ****         LogError("amqp_connection_create failed (config is NULL)");
 1684              		.loc 1 346 0
 1685 0218 0024     		movs	r4, #0
 1686 021a 04E0     		b	.L87
 1687              	.LVL277:
 1688              	.L99:
 352:Source\azure_iot_sdk\iothub_client\src/iothubtransport_amqp_connection.c ****         LogError("amqp_connection_create failed (config->iothub_host_fqdn is NULL)");
 1689              		.loc 1 352 0
 1690 021c 0024     		movs	r4, #0
 1691 021e 02E0     		b	.L87
 1692              	.LVL278:
 1693              	.L100:
 358:Source\azure_iot_sdk\iothub_client\src/iothubtransport_amqp_connection.c ****         LogError("amqp_connection_create failed (config->underlying_io_transport is NULL)");
 1694              		.loc 1 358 0
 1695 0220 0024     		movs	r4, #0
 1696 0222 00E0     		b	.L87
 1697              	.LVL279:
 1698              	.L101:
 1699              	.LBB32:
 369:Source\azure_iot_sdk\iothub_client\src/iothubtransport_amqp_connection.c ****             LogError("amqp_connection_create failed (malloc failed)");
 1700              		.loc 1 369 0
 1701 0224 2C00     		movs	r4, r5
 1702              	.LVL280:
 1703              	.L87:
 1704              	.LBE32:
 440:Source\azure_iot_sdk\iothub_client\src/iothubtransport_amqp_connection.c ****             }
 441:Source\azure_iot_sdk\iothub_client\src/iothubtransport_amqp_connection.c ****         }
 442:Source\azure_iot_sdk\iothub_client\src/iothubtransport_amqp_connection.c ****     }
 443:Source\azure_iot_sdk\iothub_client\src/iothubtransport_amqp_connection.c **** 
 444:Source\azure_iot_sdk\iothub_client\src/iothubtransport_amqp_connection.c ****     return result;
 445:Source\azure_iot_sdk\iothub_client\src/iothubtransport_amqp_connection.c **** }
ARM GAS  C:\Users\Phuong\AppData\Local\Temp\cc32RpHN.s 			page 40


 1705              		.loc 1 445 0
 1706 0226 2000     		movs	r0, r4
 1707 0228 02B0     		add	sp, sp, #8
 1708              		@ sp needed
 1709              	.LVL281:
 1710 022a 70BD     		pop	{r4, r5, r6, pc}
 1711              	.L110:
 1712              		.align	2
 1713              	.L109:
 1714 022c A0030000 		.word	.LC52
 1715 0230 80000000 		.word	.LANCHOR2
 1716 0234 00000000 		.word	.LC1
 1717 0238 D0030000 		.word	.LC54
 1718 023c 14040000 		.word	.LC56
 1719 0240 5C040000 		.word	.LC58
 1720 0244 8C040000 		.word	.LC60
 1721 0248 C4040000 		.word	.LC62
 1722 024c 10050000 		.word	.LC64
 1723 0250 64050000 		.word	.LC66
 1724 0254 A8050000 		.word	.LC68
 1725 0258 EC050000 		.word	.LC70
 1726              		.cfi_endproc
 1727              	.LFE13:
 1728              		.size	amqp_connection_create, .-amqp_connection_create
 1729              		.section	.text.amqp_connection_do_work,"ax",%progbits
 1730              		.align	2
 1731              		.global	amqp_connection_do_work
 1732              		.code	16
 1733              		.thumb_func
 1734              		.type	amqp_connection_do_work, %function
 1735              	amqp_connection_do_work:
 1736              	.LFB14:
 446:Source\azure_iot_sdk\iothub_client\src/iothubtransport_amqp_connection.c **** 
 447:Source\azure_iot_sdk\iothub_client\src/iothubtransport_amqp_connection.c **** void amqp_connection_do_work(AMQP_CONNECTION_HANDLE conn_handle)
 448:Source\azure_iot_sdk\iothub_client\src/iothubtransport_amqp_connection.c **** {
 1737              		.loc 1 448 0
 1738              		.cfi_startproc
 1739              		@ args = 0, pretend = 0, frame = 0
 1740              		@ frame_needed = 0, uses_anonymous_args = 0
 1741              	.LVL282:
 1742 0000 10B5     		push	{r4, lr}
 1743              		.cfi_def_cfa_offset 8
 1744              		.cfi_offset 4, -8
 1745              		.cfi_offset 14, -4
 449:Source\azure_iot_sdk\iothub_client\src/iothubtransport_amqp_connection.c ****     // Codes_SRS_IOTHUBTRANSPORT_AMQP_CONNECTION_09_041: [If `conn_handle` is NULL, amqp_connection
 450:Source\azure_iot_sdk\iothub_client\src/iothubtransport_amqp_connection.c ****     if (conn_handle != NULL)
 1746              		.loc 1 450 0
 1747 0002 0028     		cmp	r0, #0
 1748 0004 02D0     		beq	.L111
 1749              	.LVL283:
 1750              	.LBB33:
 451:Source\azure_iot_sdk\iothub_client\src/iothubtransport_amqp_connection.c ****     {
 452:Source\azure_iot_sdk\iothub_client\src/iothubtransport_amqp_connection.c ****         AMQP_CONNECTION_INSTANCE* instance = (AMQP_CONNECTION_INSTANCE*)conn_handle;
 453:Source\azure_iot_sdk\iothub_client\src/iothubtransport_amqp_connection.c **** 
 454:Source\azure_iot_sdk\iothub_client\src/iothubtransport_amqp_connection.c ****         // Codes_SRS_IOTHUBTRANSPORT_AMQP_CONNECTION_09_042: [connection_dowork() shall be invoked 
 455:Source\azure_iot_sdk\iothub_client\src/iothubtransport_amqp_connection.c ****         connection_dowork(instance->connection_handle);
 1751              		.loc 1 455 0
ARM GAS  C:\Users\Phuong\AppData\Local\Temp\cc32RpHN.s 			page 41


 1752 0006 C068     		ldr	r0, [r0, #12]
 1753              	.LVL284:
 1754 0008 FFF7FEFF 		bl	connection_dowork
 1755              	.LVL285:
 1756              	.L111:
 1757              	.LBE33:
 456:Source\azure_iot_sdk\iothub_client\src/iothubtransport_amqp_connection.c ****     }
 457:Source\azure_iot_sdk\iothub_client\src/iothubtransport_amqp_connection.c **** }
 1758              		.loc 1 457 0
 1759              		@ sp needed
 1760 000c 10BD     		pop	{r4, pc}
 1761              		.cfi_endproc
 1762              	.LFE14:
 1763              		.size	amqp_connection_do_work, .-amqp_connection_do_work
 1764 000e C046     		.section	.text.amqp_connection_get_session_handle,"ax",%progbits
 1765              		.align	2
 1766              		.global	amqp_connection_get_session_handle
 1767              		.code	16
 1768              		.thumb_func
 1769              		.type	amqp_connection_get_session_handle, %function
 1770              	amqp_connection_get_session_handle:
 1771              	.LFB15:
 458:Source\azure_iot_sdk\iothub_client\src/iothubtransport_amqp_connection.c **** 
 459:Source\azure_iot_sdk\iothub_client\src/iothubtransport_amqp_connection.c **** int amqp_connection_get_session_handle(AMQP_CONNECTION_HANDLE conn_handle, SESSION_HANDLE* session_
 460:Source\azure_iot_sdk\iothub_client\src/iothubtransport_amqp_connection.c **** {
 1772              		.loc 1 460 0
 1773              		.cfi_startproc
 1774              		@ args = 0, pretend = 0, frame = 0
 1775              		@ frame_needed = 0, uses_anonymous_args = 0
 1776              	.LVL286:
 1777 0000 10B5     		push	{r4, lr}
 1778              		.cfi_def_cfa_offset 8
 1779              		.cfi_offset 4, -8
 1780              		.cfi_offset 14, -4
 1781 0002 82B0     		sub	sp, sp, #8
 1782              		.cfi_def_cfa_offset 16
 461:Source\azure_iot_sdk\iothub_client\src/iothubtransport_amqp_connection.c ****     int result;
 462:Source\azure_iot_sdk\iothub_client\src/iothubtransport_amqp_connection.c **** 
 463:Source\azure_iot_sdk\iothub_client\src/iothubtransport_amqp_connection.c ****     // Codes_SRS_IOTHUBTRANSPORT_AMQP_CONNECTION_09_043: [If `conn_handle` is NULL, amqp_connection
 464:Source\azure_iot_sdk\iothub_client\src/iothubtransport_amqp_connection.c ****     if (conn_handle == NULL)
 1783              		.loc 1 464 0
 1784 0004 0028     		cmp	r0, #0
 1785 0006 11D1     		bne	.L114
 1786              	.LVL287:
 1787              	.LBB34:
 465:Source\azure_iot_sdk\iothub_client\src/iothubtransport_amqp_connection.c ****     {
 466:Source\azure_iot_sdk\iothub_client\src/iothubtransport_amqp_connection.c ****         result = __FAILURE__;
 467:Source\azure_iot_sdk\iothub_client\src/iothubtransport_amqp_connection.c ****         LogError("amqp_connection_get_session_handle failed (conn_handle is NULL)");
 1788              		.loc 1 467 0
 1789 0008 FFF7FEFF 		bl	xlogging_get_log_function
 1790              	.LVL288:
 1791 000c 041E     		subs	r4, r0, #0
 1792              	.LVL289:
 1793 000e 25D0     		beq	.L117
 1794              		.loc 1 467 0 is_stmt 0 discriminator 4
 1795 0010 164B     		ldr	r3, .L119
 1796 0012 0193     		str	r3, [sp, #4]
ARM GAS  C:\Users\Phuong\AppData\Local\Temp\cc32RpHN.s 			page 42


 1797 0014 0123     		movs	r3, #1
 1798 0016 0093     		str	r3, [sp]
 1799 0018 D423     		movs	r3, #212
 1800 001a FF33     		adds	r3, r3, #255
 1801 001c 144A     		ldr	r2, .L119+4
 1802 001e 2032     		adds	r2, r2, #32
 1803 0020 1449     		ldr	r1, .L119+8
 1804 0022 0020     		movs	r0, #0
 1805              	.LVL290:
 1806 0024 A047     		blx	r4
 1807              	.LVL291:
 1808              	.LBE34:
 466:Source\azure_iot_sdk\iothub_client\src/iothubtransport_amqp_connection.c ****         LogError("amqp_connection_get_session_handle failed (conn_handle is NULL)");
 1809              		.loc 1 466 0 is_stmt 1 discriminator 4
 1810 0026 E920     		movs	r0, #233
 1811 0028 4000     		lsls	r0, r0, #1
 1812 002a 1CE0     		b	.L115
 1813              	.LVL292:
 1814              	.L114:
 468:Source\azure_iot_sdk\iothub_client\src/iothubtransport_amqp_connection.c ****     }
 469:Source\azure_iot_sdk\iothub_client\src/iothubtransport_amqp_connection.c ****     // Codes_SRS_IOTHUBTRANSPORT_AMQP_CONNECTION_09_044: [If `session_handle` is NULL, amqp_connect
 470:Source\azure_iot_sdk\iothub_client\src/iothubtransport_amqp_connection.c ****     else if (session_handle == NULL)
 1815              		.loc 1 470 0
 1816 002c 0029     		cmp	r1, #0
 1817 002e 11D1     		bne	.L116
 1818              	.LVL293:
 1819              	.LBB35:
 471:Source\azure_iot_sdk\iothub_client\src/iothubtransport_amqp_connection.c ****     {
 472:Source\azure_iot_sdk\iothub_client\src/iothubtransport_amqp_connection.c ****         result = __FAILURE__;
 473:Source\azure_iot_sdk\iothub_client\src/iothubtransport_amqp_connection.c ****         LogError("amqp_connection_get_session_handle failed (session_handle is NULL)");
 1820              		.loc 1 473 0
 1821 0030 FFF7FEFF 		bl	xlogging_get_log_function
 1822              	.LVL294:
 1823 0034 041E     		subs	r4, r0, #0
 1824              	.LVL295:
 1825 0036 14D0     		beq	.L118
 1826              		.loc 1 473 0 is_stmt 0 discriminator 4
 1827 0038 0F4B     		ldr	r3, .L119+12
 1828 003a 0193     		str	r3, [sp, #4]
 1829 003c 0123     		movs	r3, #1
 1830 003e 0093     		str	r3, [sp]
 1831 0040 DA23     		movs	r3, #218
 1832 0042 FF33     		adds	r3, r3, #255
 1833 0044 0A4A     		ldr	r2, .L119+4
 1834 0046 2032     		adds	r2, r2, #32
 1835 0048 0A49     		ldr	r1, .L119+8
 1836 004a 0020     		movs	r0, #0
 1837              	.LVL296:
 1838 004c A047     		blx	r4
 1839              	.LVL297:
 1840              	.LBE35:
 472:Source\azure_iot_sdk\iothub_client\src/iothubtransport_amqp_connection.c ****         LogError("amqp_connection_get_session_handle failed (session_handle is NULL)");
 1841              		.loc 1 472 0 is_stmt 1 discriminator 4
 1842 004e EC20     		movs	r0, #236
 1843 0050 4000     		lsls	r0, r0, #1
 1844 0052 08E0     		b	.L115
 1845              	.LVL298:
ARM GAS  C:\Users\Phuong\AppData\Local\Temp\cc32RpHN.s 			page 43


 1846              	.L116:
 1847              	.LBB36:
 474:Source\azure_iot_sdk\iothub_client\src/iothubtransport_amqp_connection.c ****     }
 475:Source\azure_iot_sdk\iothub_client\src/iothubtransport_amqp_connection.c ****     else
 476:Source\azure_iot_sdk\iothub_client\src/iothubtransport_amqp_connection.c ****     {
 477:Source\azure_iot_sdk\iothub_client\src/iothubtransport_amqp_connection.c ****         AMQP_CONNECTION_INSTANCE* instance = (AMQP_CONNECTION_INSTANCE*)conn_handle;
 478:Source\azure_iot_sdk\iothub_client\src/iothubtransport_amqp_connection.c **** 
 479:Source\azure_iot_sdk\iothub_client\src/iothubtransport_amqp_connection.c ****         // Codes_SRS_IOTHUBTRANSPORT_AMQP_CONNECTION_09_045: [`session_handle` shall be set to poin
 480:Source\azure_iot_sdk\iothub_client\src/iothubtransport_amqp_connection.c ****         *session_handle = instance->session_handle;
 1848              		.loc 1 480 0
 1849 0054 0369     		ldr	r3, [r0, #16]
 1850 0056 0B60     		str	r3, [r1]
 1851              	.LVL299:
 481:Source\azure_iot_sdk\iothub_client\src/iothubtransport_amqp_connection.c **** 
 482:Source\azure_iot_sdk\iothub_client\src/iothubtransport_amqp_connection.c ****         // Codes_SRS_IOTHUBTRANSPORT_AMQP_CONNECTION_09_046: [amqp_connection_get_session_handle() 
 483:Source\azure_iot_sdk\iothub_client\src/iothubtransport_amqp_connection.c ****         result = RESULT_OK;
 1852              		.loc 1 483 0
 1853 0058 0020     		movs	r0, #0
 1854              	.LVL300:
 1855 005a 04E0     		b	.L115
 1856              	.LVL301:
 1857              	.L117:
 1858              	.LBE36:
 466:Source\azure_iot_sdk\iothub_client\src/iothubtransport_amqp_connection.c ****         LogError("amqp_connection_get_session_handle failed (conn_handle is NULL)");
 1859              		.loc 1 466 0
 1860 005c E920     		movs	r0, #233
 1861              	.LVL302:
 1862 005e 4000     		lsls	r0, r0, #1
 1863 0060 01E0     		b	.L115
 1864              	.LVL303:
 1865              	.L118:
 472:Source\azure_iot_sdk\iothub_client\src/iothubtransport_amqp_connection.c ****         LogError("amqp_connection_get_session_handle failed (session_handle is NULL)");
 1866              		.loc 1 472 0
 1867 0062 EC20     		movs	r0, #236
 1868              	.LVL304:
 1869 0064 4000     		lsls	r0, r0, #1
 1870              	.LVL305:
 1871              	.L115:
 484:Source\azure_iot_sdk\iothub_client\src/iothubtransport_amqp_connection.c ****     }
 485:Source\azure_iot_sdk\iothub_client\src/iothubtransport_amqp_connection.c **** 
 486:Source\azure_iot_sdk\iothub_client\src/iothubtransport_amqp_connection.c ****     return result;
 487:Source\azure_iot_sdk\iothub_client\src/iothubtransport_amqp_connection.c **** }
 1872              		.loc 1 487 0
 1873 0066 02B0     		add	sp, sp, #8
 1874              		@ sp needed
 1875 0068 10BD     		pop	{r4, pc}
 1876              	.L120:
 1877 006a C046     		.align	2
 1878              	.L119:
 1879 006c 3C060000 		.word	.LC74
 1880 0070 80000000 		.word	.LANCHOR2
 1881 0074 00000000 		.word	.LC1
 1882 0078 7C060000 		.word	.LC76
 1883              		.cfi_endproc
 1884              	.LFE15:
 1885              		.size	amqp_connection_get_session_handle, .-amqp_connection_get_session_handle
 1886              		.section	.text.amqp_connection_get_cbs_handle,"ax",%progbits
ARM GAS  C:\Users\Phuong\AppData\Local\Temp\cc32RpHN.s 			page 44


 1887              		.align	2
 1888              		.global	amqp_connection_get_cbs_handle
 1889              		.code	16
 1890              		.thumb_func
 1891              		.type	amqp_connection_get_cbs_handle, %function
 1892              	amqp_connection_get_cbs_handle:
 1893              	.LFB16:
 488:Source\azure_iot_sdk\iothub_client\src/iothubtransport_amqp_connection.c **** 
 489:Source\azure_iot_sdk\iothub_client\src/iothubtransport_amqp_connection.c **** int amqp_connection_get_cbs_handle(AMQP_CONNECTION_HANDLE conn_handle, CBS_HANDLE* cbs_handle)
 490:Source\azure_iot_sdk\iothub_client\src/iothubtransport_amqp_connection.c **** {
 1894              		.loc 1 490 0
 1895              		.cfi_startproc
 1896              		@ args = 0, pretend = 0, frame = 0
 1897              		@ frame_needed = 0, uses_anonymous_args = 0
 1898              	.LVL306:
 1899 0000 10B5     		push	{r4, lr}
 1900              		.cfi_def_cfa_offset 8
 1901              		.cfi_offset 4, -8
 1902              		.cfi_offset 14, -4
 1903 0002 82B0     		sub	sp, sp, #8
 1904              		.cfi_def_cfa_offset 16
 491:Source\azure_iot_sdk\iothub_client\src/iothubtransport_amqp_connection.c ****     int result;
 492:Source\azure_iot_sdk\iothub_client\src/iothubtransport_amqp_connection.c **** 
 493:Source\azure_iot_sdk\iothub_client\src/iothubtransport_amqp_connection.c ****     // Codes_SRS_IOTHUBTRANSPORT_AMQP_CONNECTION_09_047: [If `conn_handle` is NULL, amqp_connection
 494:Source\azure_iot_sdk\iothub_client\src/iothubtransport_amqp_connection.c ****     if (conn_handle == NULL)
 1905              		.loc 1 494 0
 1906 0004 0028     		cmp	r0, #0
 1907 0006 11D1     		bne	.L122
 1908              	.LVL307:
 1909              	.LBB37:
 495:Source\azure_iot_sdk\iothub_client\src/iothubtransport_amqp_connection.c ****     {
 496:Source\azure_iot_sdk\iothub_client\src/iothubtransport_amqp_connection.c ****         result = __FAILURE__;
 497:Source\azure_iot_sdk\iothub_client\src/iothubtransport_amqp_connection.c ****         LogError("amqp_connection_get_cbs_handle failed (conn_handle is NULL)");
 1910              		.loc 1 497 0
 1911 0008 FFF7FEFF 		bl	xlogging_get_log_function
 1912              	.LVL308:
 1913 000c 041E     		subs	r4, r0, #0
 1914              	.LVL309:
 1915 000e 38D0     		beq	.L126
 1916              		.loc 1 497 0 is_stmt 0 discriminator 4
 1917 0010 214B     		ldr	r3, .L129
 1918 0012 0193     		str	r3, [sp, #4]
 1919 0014 0123     		movs	r3, #1
 1920 0016 0093     		str	r3, [sp]
 1921 0018 F223     		movs	r3, #242
 1922 001a FF33     		adds	r3, r3, #255
 1923 001c 1F4A     		ldr	r2, .L129+4
 1924 001e 4432     		adds	r2, r2, #68
 1925 0020 1F49     		ldr	r1, .L129+8
 1926 0022 0020     		movs	r0, #0
 1927              	.LVL310:
 1928 0024 A047     		blx	r4
 1929              	.LVL311:
 1930              	.LBE37:
 496:Source\azure_iot_sdk\iothub_client\src/iothubtransport_amqp_connection.c ****         LogError("amqp_connection_get_cbs_handle failed (conn_handle is NULL)");
 1931              		.loc 1 496 0 is_stmt 1 discriminator 4
 1932 0026 F820     		movs	r0, #248
ARM GAS  C:\Users\Phuong\AppData\Local\Temp\cc32RpHN.s 			page 45


 1933 0028 4000     		lsls	r0, r0, #1
 1934 002a 32E0     		b	.L123
 1935              	.LVL312:
 1936              	.L122:
 498:Source\azure_iot_sdk\iothub_client\src/iothubtransport_amqp_connection.c ****     }
 499:Source\azure_iot_sdk\iothub_client\src/iothubtransport_amqp_connection.c ****     // Codes_SRS_IOTHUBTRANSPORT_AMQP_CONNECTION_09_048: [If `cbs_handle` is NULL, amqp_connection_
 500:Source\azure_iot_sdk\iothub_client\src/iothubtransport_amqp_connection.c ****     else if (cbs_handle == NULL)
 1937              		.loc 1 500 0
 1938 002c 0029     		cmp	r1, #0
 1939 002e 11D1     		bne	.L124
 1940              	.LVL313:
 1941              	.LBB38:
 501:Source\azure_iot_sdk\iothub_client\src/iothubtransport_amqp_connection.c ****     {
 502:Source\azure_iot_sdk\iothub_client\src/iothubtransport_amqp_connection.c ****         result = __FAILURE__;
 503:Source\azure_iot_sdk\iothub_client\src/iothubtransport_amqp_connection.c ****         LogError("amqp_connection_get_cbs_handle failed (parameter cbs_handle is NULL)");
 1942              		.loc 1 503 0
 1943 0030 FFF7FEFF 		bl	xlogging_get_log_function
 1944              	.LVL314:
 1945 0034 041E     		subs	r4, r0, #0
 1946              	.LVL315:
 1947 0036 27D0     		beq	.L127
 1948              		.loc 1 503 0 is_stmt 0 discriminator 4
 1949 0038 1A4B     		ldr	r3, .L129+12
 1950 003a 0193     		str	r3, [sp, #4]
 1951 003c 0123     		movs	r3, #1
 1952 003e 0093     		str	r3, [sp]
 1953 0040 F823     		movs	r3, #248
 1954 0042 FF33     		adds	r3, r3, #255
 1955 0044 154A     		ldr	r2, .L129+4
 1956 0046 4432     		adds	r2, r2, #68
 1957 0048 1549     		ldr	r1, .L129+8
 1958 004a 0020     		movs	r0, #0
 1959              	.LVL316:
 1960 004c A047     		blx	r4
 1961              	.LVL317:
 1962              	.LBE38:
 502:Source\azure_iot_sdk\iothub_client\src/iothubtransport_amqp_connection.c ****         LogError("amqp_connection_get_cbs_handle failed (parameter cbs_handle is NULL)");
 1963              		.loc 1 502 0 is_stmt 1 discriminator 4
 1964 004e FB20     		movs	r0, #251
 1965 0050 4000     		lsls	r0, r0, #1
 1966 0052 1EE0     		b	.L123
 1967              	.LVL318:
 1968              	.L124:
 1969              	.LBB39:
 504:Source\azure_iot_sdk\iothub_client\src/iothubtransport_amqp_connection.c ****     }
 505:Source\azure_iot_sdk\iothub_client\src/iothubtransport_amqp_connection.c ****     else
 506:Source\azure_iot_sdk\iothub_client\src/iothubtransport_amqp_connection.c ****     {
 507:Source\azure_iot_sdk\iothub_client\src/iothubtransport_amqp_connection.c ****         AMQP_CONNECTION_INSTANCE* instance = (AMQP_CONNECTION_INSTANCE*)conn_handle;
 508:Source\azure_iot_sdk\iothub_client\src/iothubtransport_amqp_connection.c **** 
 509:Source\azure_iot_sdk\iothub_client\src/iothubtransport_amqp_connection.c ****         // Codes_SRS_IOTHUBTRANSPORT_AMQP_CONNECTION_09_049: [If `instance->cbs_handle` is NULL, am
 510:Source\azure_iot_sdk\iothub_client\src/iothubtransport_amqp_connection.c ****         if (instance->cbs_handle == NULL)
 1970              		.loc 1 510 0
 1971 0054 8368     		ldr	r3, [r0, #8]
 1972 0056 002B     		cmp	r3, #0
 1973 0058 10D1     		bne	.L125
 1974              	.LVL319:
 1975              	.LBB40:
ARM GAS  C:\Users\Phuong\AppData\Local\Temp\cc32RpHN.s 			page 46


 511:Source\azure_iot_sdk\iothub_client\src/iothubtransport_amqp_connection.c ****         {
 512:Source\azure_iot_sdk\iothub_client\src/iothubtransport_amqp_connection.c ****             result = __FAILURE__;
 513:Source\azure_iot_sdk\iothub_client\src/iothubtransport_amqp_connection.c ****             LogError("amqp_connection_get_cbs_handle failed (there is not a cbs_handle to be return
 1976              		.loc 1 513 0
 1977 005a FFF7FEFF 		bl	xlogging_get_log_function
 1978              	.LVL320:
 1979 005e 041E     		subs	r4, r0, #0
 1980              	.LVL321:
 1981 0060 15D0     		beq	.L128
 1982              		.loc 1 513 0 is_stmt 0 discriminator 4
 1983 0062 114B     		ldr	r3, .L129+16
 1984 0064 0193     		str	r3, [sp, #4]
 1985 0066 0123     		movs	r3, #1
 1986 0068 0093     		str	r3, [sp]
 1987 006a 104B     		ldr	r3, .L129+20
 1988 006c 0B4A     		ldr	r2, .L129+4
 1989 006e 4432     		adds	r2, r2, #68
 1990 0070 0B49     		ldr	r1, .L129+8
 1991 0072 0020     		movs	r0, #0
 1992              	.LVL322:
 1993 0074 A047     		blx	r4
 1994              	.LVL323:
 1995              	.LBE40:
 512:Source\azure_iot_sdk\iothub_client\src/iothubtransport_amqp_connection.c ****             LogError("amqp_connection_get_cbs_handle failed (there is not a cbs_handle to be return
 1996              		.loc 1 512 0 is_stmt 1 discriminator 4
 1997 0076 8020     		movs	r0, #128
 1998 0078 8000     		lsls	r0, r0, #2
 1999 007a 0AE0     		b	.L123
 2000              	.LVL324:
 2001              	.L125:
 514:Source\azure_iot_sdk\iothub_client\src/iothubtransport_amqp_connection.c ****         }
 515:Source\azure_iot_sdk\iothub_client\src/iothubtransport_amqp_connection.c ****         else
 516:Source\azure_iot_sdk\iothub_client\src/iothubtransport_amqp_connection.c ****         {
 517:Source\azure_iot_sdk\iothub_client\src/iothubtransport_amqp_connection.c ****             // Codes_SRS_IOTHUBTRANSPORT_AMQP_CONNECTION_09_050: [`cbs_handle` shall be set to poin
 518:Source\azure_iot_sdk\iothub_client\src/iothubtransport_amqp_connection.c ****             *cbs_handle = instance->cbs_handle;
 2002              		.loc 1 518 0
 2003 007c 0B60     		str	r3, [r1]
 2004              	.LVL325:
 519:Source\azure_iot_sdk\iothub_client\src/iothubtransport_amqp_connection.c **** 
 520:Source\azure_iot_sdk\iothub_client\src/iothubtransport_amqp_connection.c ****             // Codes_SRS_IOTHUBTRANSPORT_AMQP_CONNECTION_09_051: [amqp_connection_get_cbs_handle() 
 521:Source\azure_iot_sdk\iothub_client\src/iothubtransport_amqp_connection.c ****             result = RESULT_OK;
 2005              		.loc 1 521 0
 2006 007e 0020     		movs	r0, #0
 2007              	.LVL326:
 2008 0080 07E0     		b	.L123
 2009              	.LVL327:
 2010              	.L126:
 2011              	.LBE39:
 496:Source\azure_iot_sdk\iothub_client\src/iothubtransport_amqp_connection.c ****         LogError("amqp_connection_get_cbs_handle failed (conn_handle is NULL)");
 2012              		.loc 1 496 0
 2013 0082 F820     		movs	r0, #248
 2014              	.LVL328:
 2015 0084 4000     		lsls	r0, r0, #1
 2016 0086 04E0     		b	.L123
 2017              	.LVL329:
 2018              	.L127:
 502:Source\azure_iot_sdk\iothub_client\src/iothubtransport_amqp_connection.c ****         LogError("amqp_connection_get_cbs_handle failed (parameter cbs_handle is NULL)");
ARM GAS  C:\Users\Phuong\AppData\Local\Temp\cc32RpHN.s 			page 47


 2019              		.loc 1 502 0
 2020 0088 FB20     		movs	r0, #251
 2021              	.LVL330:
 2022 008a 4000     		lsls	r0, r0, #1
 2023 008c 01E0     		b	.L123
 2024              	.LVL331:
 2025              	.L128:
 2026              	.LBB41:
 512:Source\azure_iot_sdk\iothub_client\src/iothubtransport_amqp_connection.c ****             LogError("amqp_connection_get_cbs_handle failed (there is not a cbs_handle to be return
 2027              		.loc 1 512 0
 2028 008e 8020     		movs	r0, #128
 2029              	.LVL332:
 2030 0090 8000     		lsls	r0, r0, #2
 2031              	.LVL333:
 2032              	.L123:
 2033              	.LBE41:
 522:Source\azure_iot_sdk\iothub_client\src/iothubtransport_amqp_connection.c ****         }
 523:Source\azure_iot_sdk\iothub_client\src/iothubtransport_amqp_connection.c ****     }
 524:Source\azure_iot_sdk\iothub_client\src/iothubtransport_amqp_connection.c **** 
 525:Source\azure_iot_sdk\iothub_client\src/iothubtransport_amqp_connection.c ****     return result;
 526:Source\azure_iot_sdk\iothub_client\src/iothubtransport_amqp_connection.c **** }
 2034              		.loc 1 526 0
 2035 0092 02B0     		add	sp, sp, #8
 2036              		@ sp needed
 2037 0094 10BD     		pop	{r4, pc}
 2038              	.L130:
 2039 0096 C046     		.align	2
 2040              	.L129:
 2041 0098 C0060000 		.word	.LC80
 2042 009c 80000000 		.word	.LANCHOR2
 2043 00a0 00000000 		.word	.LC1
 2044 00a4 FC060000 		.word	.LC82
 2045 00a8 44070000 		.word	.LC84
 2046 00ac 01020000 		.word	513
 2047              		.cfi_endproc
 2048              	.LFE16:
 2049              		.size	amqp_connection_get_cbs_handle, .-amqp_connection_get_cbs_handle
 2050              		.section	.text.amqp_connection_set_logging,"ax",%progbits
 2051              		.align	2
 2052              		.global	amqp_connection_set_logging
 2053              		.code	16
 2054              		.thumb_func
 2055              		.type	amqp_connection_set_logging, %function
 2056              	amqp_connection_set_logging:
 2057              	.LFB17:
 527:Source\azure_iot_sdk\iothub_client\src/iothubtransport_amqp_connection.c **** 
 528:Source\azure_iot_sdk\iothub_client\src/iothubtransport_amqp_connection.c **** int amqp_connection_set_logging(AMQP_CONNECTION_HANDLE conn_handle, bool is_trace_on)
 529:Source\azure_iot_sdk\iothub_client\src/iothubtransport_amqp_connection.c **** {
 2058              		.loc 1 529 0
 2059              		.cfi_startproc
 2060              		@ args = 0, pretend = 0, frame = 0
 2061              		@ frame_needed = 0, uses_anonymous_args = 0
 2062              	.LVL334:
 2063 0000 10B5     		push	{r4, lr}
 2064              		.cfi_def_cfa_offset 8
 2065              		.cfi_offset 4, -8
 2066              		.cfi_offset 14, -4
ARM GAS  C:\Users\Phuong\AppData\Local\Temp\cc32RpHN.s 			page 48


 2067 0002 82B0     		sub	sp, sp, #8
 2068              		.cfi_def_cfa_offset 16
 2069 0004 041E     		subs	r4, r0, #0
 530:Source\azure_iot_sdk\iothub_client\src/iothubtransport_amqp_connection.c ****     int result;
 531:Source\azure_iot_sdk\iothub_client\src/iothubtransport_amqp_connection.c **** 
 532:Source\azure_iot_sdk\iothub_client\src/iothubtransport_amqp_connection.c ****     // Codes_SRS_IOTHUBTRANSPORT_AMQP_CONNECTION_09_052: [If `conn_handle` is NULL, amqp_connection
 533:Source\azure_iot_sdk\iothub_client\src/iothubtransport_amqp_connection.c ****     if (conn_handle == NULL)
 2070              		.loc 1 533 0
 2071 0006 10D1     		bne	.L132
 2072              	.LVL335:
 2073              	.LBB42:
 534:Source\azure_iot_sdk\iothub_client\src/iothubtransport_amqp_connection.c ****     {
 535:Source\azure_iot_sdk\iothub_client\src/iothubtransport_amqp_connection.c ****         result = __FAILURE__;
 536:Source\azure_iot_sdk\iothub_client\src/iothubtransport_amqp_connection.c ****         LogError("amqp_connection_set_logging failed (conn_handle is NULL)");
 2074              		.loc 1 536 0
 2075 0008 FFF7FEFF 		bl	xlogging_get_log_function
 2076              	.LVL336:
 2077 000c 041E     		subs	r4, r0, #0
 2078              	.LVL337:
 2079 000e 2DD0     		beq	.L135
 2080              		.loc 1 536 0 is_stmt 0 discriminator 4
 2081 0010 194B     		ldr	r3, .L137
 2082 0012 0193     		str	r3, [sp, #4]
 2083 0014 0123     		movs	r3, #1
 2084 0016 0093     		str	r3, [sp]
 2085 0018 8623     		movs	r3, #134
 2086 001a 9B00     		lsls	r3, r3, #2
 2087 001c 174A     		ldr	r2, .L137+4
 2088 001e 6432     		adds	r2, r2, #100
 2089 0020 1749     		ldr	r1, .L137+8
 2090 0022 0020     		movs	r0, #0
 2091              	.LVL338:
 2092 0024 A047     		blx	r4
 2093              	.LVL339:
 2094              	.LBE42:
 535:Source\azure_iot_sdk\iothub_client\src/iothubtransport_amqp_connection.c ****         LogError("amqp_connection_set_logging failed (conn_handle is NULL)");
 2095              		.loc 1 535 0 is_stmt 1 discriminator 4
 2096 0026 1748     		ldr	r0, .L137+12
 2097 0028 23E0     		b	.L133
 2098              	.LVL340:
 2099              	.L132:
 2100              	.LBB43:
 537:Source\azure_iot_sdk\iothub_client\src/iothubtransport_amqp_connection.c ****     }
 538:Source\azure_iot_sdk\iothub_client\src/iothubtransport_amqp_connection.c ****     else
 539:Source\azure_iot_sdk\iothub_client\src/iothubtransport_amqp_connection.c ****     {
 540:Source\azure_iot_sdk\iothub_client\src/iothubtransport_amqp_connection.c ****         AMQP_CONNECTION_INSTANCE* instance = (AMQP_CONNECTION_INSTANCE*)conn_handle;
 541:Source\azure_iot_sdk\iothub_client\src/iothubtransport_amqp_connection.c **** 
 542:Source\azure_iot_sdk\iothub_client\src/iothubtransport_amqp_connection.c ****         // Codes_SRS_IOTHUBTRANSPORT_AMQP_CONNECTION_09_053: [`instance->is_trace_on` shall be set 
 543:Source\azure_iot_sdk\iothub_client\src/iothubtransport_amqp_connection.c ****         instance->is_trace_on = is_trace_on;
 2101              		.loc 1 543 0
 2102 002a 8177     		strb	r1, [r0, #30]
 544:Source\azure_iot_sdk\iothub_client\src/iothubtransport_amqp_connection.c **** 
 545:Source\azure_iot_sdk\iothub_client\src/iothubtransport_amqp_connection.c ****         // Codes_SRS_IOTHUBTRANSPORT_AMQP_CONNECTION_09_054: [Tracing on `instance->sasl_io` shall 
 546:Source\azure_iot_sdk\iothub_client\src/iothubtransport_amqp_connection.c ****         if (instance->sasl_io != NULL &&
 2103              		.loc 1 546 0
 2104 002c 4069     		ldr	r0, [r0, #20]
 2105              	.LVL341:
ARM GAS  C:\Users\Phuong\AppData\Local\Temp\cc32RpHN.s 			page 49


 2106 002e 0028     		cmp	r0, #0
 2107 0030 16D0     		beq	.L134
 547:Source\azure_iot_sdk\iothub_client\src/iothubtransport_amqp_connection.c ****             xio_setoption(instance->sasl_io, SASL_IO_OPTION_LOG_TRACE, (const void*)&instance->is_t
 2108              		.loc 1 547 0 discriminator 1
 2109 0032 2200     		movs	r2, r4
 2110 0034 1E32     		adds	r2, r2, #30
 2111 0036 1449     		ldr	r1, .L137+16
 2112              	.LVL342:
 2113 0038 FFF7FEFF 		bl	xio_setoption
 2114              	.LVL343:
 546:Source\azure_iot_sdk\iothub_client\src/iothubtransport_amqp_connection.c ****             xio_setoption(instance->sasl_io, SASL_IO_OPTION_LOG_TRACE, (const void*)&instance->is_t
 2115              		.loc 1 546 0 discriminator 1
 2116 003c 0028     		cmp	r0, #0
 2117 003e 0FD0     		beq	.L134
 2118              	.LVL344:
 2119              	.LBB44:
 548:Source\azure_iot_sdk\iothub_client\src/iothubtransport_amqp_connection.c ****         {
 549:Source\azure_iot_sdk\iothub_client\src/iothubtransport_amqp_connection.c ****             // Codes_SRS_IOTHUBTRANSPORT_AMQP_CONNECTION_09_072: [If xio_setoption() fails, amqp_co
 550:Source\azure_iot_sdk\iothub_client\src/iothubtransport_amqp_connection.c ****             result = __FAILURE__;
 551:Source\azure_iot_sdk\iothub_client\src/iothubtransport_amqp_connection.c ****             LogError("amqp_connection_set_logging failed (xio_setoption() failed)");
 2120              		.loc 1 551 0
 2121 0040 FFF7FEFF 		bl	xlogging_get_log_function
 2122              	.LVL345:
 2123 0044 041E     		subs	r4, r0, #0
 2124              	.LVL346:
 2125 0046 13D0     		beq	.L136
 2126              		.loc 1 551 0 is_stmt 0 discriminator 4
 2127 0048 104B     		ldr	r3, .L137+20
 2128 004a 0193     		str	r3, [sp, #4]
 2129 004c 0123     		movs	r3, #1
 2130 004e 0093     		str	r3, [sp]
 2131 0050 0F4B     		ldr	r3, .L137+24
 2132 0052 0A4A     		ldr	r2, .L137+4
 2133 0054 6432     		adds	r2, r2, #100
 2134 0056 0A49     		ldr	r1, .L137+8
 2135 0058 0020     		movs	r0, #0
 2136              	.LVL347:
 2137 005a A047     		blx	r4
 2138              	.LVL348:
 2139              	.LBE44:
 550:Source\azure_iot_sdk\iothub_client\src/iothubtransport_amqp_connection.c ****             LogError("amqp_connection_set_logging failed (xio_setoption() failed)");
 2140              		.loc 1 550 0 is_stmt 1 discriminator 4
 2141 005c 0D48     		ldr	r0, .L137+28
 2142 005e 08E0     		b	.L133
 2143              	.LVL349:
 2144              	.L134:
 552:Source\azure_iot_sdk\iothub_client\src/iothubtransport_amqp_connection.c ****         }
 553:Source\azure_iot_sdk\iothub_client\src/iothubtransport_amqp_connection.c ****         else
 554:Source\azure_iot_sdk\iothub_client\src/iothubtransport_amqp_connection.c ****         {
 555:Source\azure_iot_sdk\iothub_client\src/iothubtransport_amqp_connection.c ****             // Codes_SRS_IOTHUBTRANSPORT_AMQP_CONNECTION_09_055: [Tracing on `instance->connection_
 556:Source\azure_iot_sdk\iothub_client\src/iothubtransport_amqp_connection.c ****             connection_set_trace(instance->connection_handle, instance->is_trace_on);
 2145              		.loc 1 556 0
 2146 0060 A17F     		ldrb	r1, [r4, #30]
 2147 0062 E068     		ldr	r0, [r4, #12]
 2148 0064 FFF7FEFF 		bl	connection_set_trace
 2149              	.LVL350:
 557:Source\azure_iot_sdk\iothub_client\src/iothubtransport_amqp_connection.c **** 
ARM GAS  C:\Users\Phuong\AppData\Local\Temp\cc32RpHN.s 			page 50


 558:Source\azure_iot_sdk\iothub_client\src/iothubtransport_amqp_connection.c ****             // Codes_SRS_IOTHUBTRANSPORT_AMQP_CONNECTION_09_056: [amqp_connection_set_logging() sha
 559:Source\azure_iot_sdk\iothub_client\src/iothubtransport_amqp_connection.c ****             result = RESULT_OK;
 2150              		.loc 1 559 0
 2151 0068 0020     		movs	r0, #0
 2152 006a 02E0     		b	.L133
 2153              	.LVL351:
 2154              	.L135:
 2155              	.LBE43:
 535:Source\azure_iot_sdk\iothub_client\src/iothubtransport_amqp_connection.c ****         LogError("amqp_connection_set_logging failed (conn_handle is NULL)");
 2156              		.loc 1 535 0
 2157 006c 0548     		ldr	r0, .L137+12
 2158              	.LVL352:
 2159 006e 00E0     		b	.L133
 2160              	.LVL353:
 2161              	.L136:
 2162              	.LBB45:
 550:Source\azure_iot_sdk\iothub_client\src/iothubtransport_amqp_connection.c ****             LogError("amqp_connection_set_logging failed (xio_setoption() failed)");
 2163              		.loc 1 550 0
 2164 0070 0848     		ldr	r0, .L137+28
 2165              	.LVL354:
 2166              	.L133:
 2167              	.LBE45:
 560:Source\azure_iot_sdk\iothub_client\src/iothubtransport_amqp_connection.c ****         }
 561:Source\azure_iot_sdk\iothub_client\src/iothubtransport_amqp_connection.c ****     }
 562:Source\azure_iot_sdk\iothub_client\src/iothubtransport_amqp_connection.c **** 
 563:Source\azure_iot_sdk\iothub_client\src/iothubtransport_amqp_connection.c ****     return result;
 564:Source\azure_iot_sdk\iothub_client\src/iothubtransport_amqp_connection.c **** }
 2168              		.loc 1 564 0
 2169 0072 02B0     		add	sp, sp, #8
 2170              		@ sp needed
 2171 0074 10BD     		pop	{r4, pc}
 2172              	.L138:
 2173 0076 C046     		.align	2
 2174              	.L137:
 2175 0078 98070000 		.word	.LC88
 2176 007c 80000000 		.word	.LANCHOR2
 2177 0080 00000000 		.word	.LC1
 2178 0084 17020000 		.word	535
 2179 0088 F8000000 		.word	.LC15
 2180 008c D4070000 		.word	.LC91
 2181 0090 27020000 		.word	551
 2182 0094 26020000 		.word	550
 2183              		.cfi_endproc
 2184              	.LFE17:
 2185              		.size	amqp_connection_set_logging, .-amqp_connection_set_logging
 2186              		.global	AMQP_CONNECTION_STATEStringStorage
 2187              		.section	.rodata
 2188              		.align	2
 2189              		.set	.LANCHOR0,. + 0
 2190              		.set	.LANCHOR2,. + 128
 2191              		.type	__func__.7277, %object
 2192              		.size	__func__.7277, 13
 2193              	__func__.7277:
 2194 0000 6F6E5F63 		.ascii	"on_cbs_error\000"
 2194      62735F65 
 2194      72726F72 
 2194      00
ARM GAS  C:\Users\Phuong\AppData\Local\Temp\cc32RpHN.s 			page 51


 2195 000d 000000   		.space	3
 2196              		.type	__func__.7270, %object
 2197              		.size	__func__.7270, 21
 2198              	__func__.7270:
 2199 0010 6F6E5F63 		.ascii	"on_cbs_open_complete\000"
 2199      62735F6F 
 2199      70656E5F 
 2199      636F6D70 
 2199      6C657465 
 2200 0025 000000   		.space	3
 2201              		.type	__func__.7241, %object
 2202              		.size	__func__.7241, 23
 2203              	__func__.7241:
 2204 0028 63726561 		.ascii	"create_sasl_components\000"
 2204      74655F73 
 2204      61736C5F 
 2204      636F6D70 
 2204      6F6E656E 
 2205 003f 00       		.space	1
 2206              		.type	__func__.7287, %object
 2207              		.size	__func__.7287, 25
 2208              	__func__.7287:
 2209 0040 63726561 		.ascii	"create_connection_handle\000"
 2209      74655F63 
 2209      6F6E6E65 
 2209      6374696F 
 2209      6E5F6861 
 2210 0059 000000   		.space	3
 2211              		.type	__func__.7307, %object
 2212              		.size	__func__.7307, 22
 2213              	__func__.7307:
 2214 005c 63726561 		.ascii	"create_session_handle\000"
 2214      74655F73 
 2214      65737369 
 2214      6F6E5F68 
 2214      616E646C 
 2215 0072 0000     		.space	2
 2216              		.type	__func__.7321, %object
 2217              		.size	__func__.7321, 18
 2218              	__func__.7321:
 2219 0074 63726561 		.ascii	"create_cbs_handle\000"
 2219      74655F63 
 2219      62735F68 
 2219      616E646C 
 2219      6500
 2220 0086 0000     		.space	2
 2221              		.type	__func__.7336, %object
 2222              		.size	__func__.7336, 23
 2223              	__func__.7336:
 2224 0088 616D7170 		.ascii	"amqp_connection_create\000"
 2224      5F636F6E 
 2224      6E656374 
 2224      696F6E5F 
 2224      63726561 
 2225 009f 00       		.space	1
 2226              		.type	__func__.7377, %object
 2227              		.size	__func__.7377, 35
ARM GAS  C:\Users\Phuong\AppData\Local\Temp\cc32RpHN.s 			page 52


 2228              	__func__.7377:
 2229 00a0 616D7170 		.ascii	"amqp_connection_get_session_handle\000"
 2229      5F636F6E 
 2229      6E656374 
 2229      696F6E5F 
 2229      6765745F 
 2230 00c3 00       		.space	1
 2231              		.type	__func__.7390, %object
 2232              		.size	__func__.7390, 31
 2233              	__func__.7390:
 2234 00c4 616D7170 		.ascii	"amqp_connection_get_cbs_handle\000"
 2234      5F636F6E 
 2234      6E656374 
 2234      696F6E5F 
 2234      6765745F 
 2235 00e3 00       		.space	1
 2236              		.type	__func__.7406, %object
 2237              		.size	__func__.7406, 28
 2238              	__func__.7406:
 2239 00e4 616D7170 		.ascii	"amqp_connection_set_logging\000"
 2239      5F636F6E 
 2239      6E656374 
 2239      696F6E5F 
 2239      7365745F 
 2240              		.data
 2241              		.align	2
 2242              		.set	.LANCHOR1,. + 0
 2243              		.type	AMQP_CONNECTION_STATEStringStorage, %object
 2244              		.size	AMQP_CONNECTION_STATEStringStorage, 12
 2245              	AMQP_CONNECTION_STATEStringStorage:
 2246 0000 10080000 		.word	.LC93
 2247 0004 30080000 		.word	.LC94
 2248 0008 50080000 		.word	.LC95
 2249              		.section	.rodata.str1.4,"aMS",%progbits,1
 2250              		.align	2
 2251              	.LC1:
 2252 0000 536F7572 		.ascii	"Source\\azure_iot_sdk\\iothub_client\\src\\iothubtr"
 2252      63655C61 
 2252      7A757265 
 2252      5F696F74 
 2252      5F73646B 
 2253 002f 616E7370 		.ascii	"ansport_amqp_connection.c\000"
 2253      6F72745F 
 2253      616D7170 
 2253      5F636F6E 
 2253      6E656374 
 2254 0049 000000   		.space	3
 2255              	.LC3:
 2256 004c 43425320 		.ascii	"CBS Error occured\000"
 2256      4572726F 
 2256      72206F63 
 2256      63757265 
 2256      6400
 2257 005e 0000     		.space	2
 2258              	.LC7:
 2259 0060 50534F43 		.ascii	"PSOC6---CBS open failed---PSOC6\000"
 2259      362D2D2D 
ARM GAS  C:\Users\Phuong\AppData\Local\Temp\cc32RpHN.s 			page 53


 2259      43425320 
 2259      6F70656E 
 2259      20666169 
 2260              	.LC11:
 2261 0080 4661696C 		.ascii	"Failed creating the SASL mechanism (saslmechanism_c"
 2261      65642063 
 2261      72656174 
 2261      696E6720 
 2261      74686520 
 2262 00b3 72656174 		.ascii	"reate failed)\000"
 2262      65206661 
 2262      696C6564 
 2262      2900
 2263 00c1 000000   		.space	3
 2264              	.LC13:
 2265 00c4 4661696C 		.ascii	"Failed creating the SASL I/O (xio_create failed)\000"
 2265      65642063 
 2265      72656174 
 2265      696E6720 
 2265      74686520 
 2266 00f5 000000   		.space	3
 2267              	.LC15:
 2268 00f8 6C6F6774 		.ascii	"logtrace\000"
 2268      72616365 
 2268      00
 2269 0101 000000   		.space	3
 2270              	.LC17:
 2271 0104 4661696C 		.ascii	"Failed setting the SASL I/O logging trace option (x"
 2271      65642073 
 2271      65747469 
 2271      6E672074 
 2271      68652053 
 2272 0137 696F5F73 		.ascii	"io_setoption failed)\000"
 2272      65746F70 
 2272      74696F6E 
 2272      20666169 
 2272      6C656429 
 2273              	.LC21:
 2274 014c 4661696C 		.ascii	"Failed creating the AMQP connection (failed creatin"
 2274      65642063 
 2274      72656174 
 2274      696E6720 
 2274      74686520 
 2275 017f 6720756E 		.ascii	"g unique ID container)\000"
 2275      69717565 
 2275      20494420 
 2275      636F6E74 
 2275      61696E65 
 2276 0196 0000     		.space	2
 2277              	.LC23:
 2278 0198 4661696C 		.ascii	"Failed creating the AMQP connection (UniqueId_Gener"
 2278      65642063 
 2278      72656174 
 2278      696E6720 
 2278      74686520 
 2279 01cb 61746520 		.ascii	"ate failed)\000"
 2279      6661696C 
ARM GAS  C:\Users\Phuong\AppData\Local\Temp\cc32RpHN.s 			page 54


 2279      65642900 
 2280 01d7 00       		.space	1
 2281              	.LC27:
 2282 01d8 4661696C 		.ascii	"Failed creating the AMQP connection (connection_cre"
 2282      65642063 
 2282      72656174 
 2282      696E6720 
 2282      74686520 
 2283 020b 61746532 		.ascii	"ate2 failed)\000"
 2283      20666169 
 2283      6C656429 
 2283      00
 2284              	.LC29:
 2285 0218 4661696C 		.ascii	"Failed creating the AMQP connection (connection_set"
 2285      65642063 
 2285      72656174 
 2285      696E6720 
 2285      74686520 
 2286 024b 5F69646C 		.ascii	"_idle_timeout failed)\000"
 2286      655F7469 
 2286      6D656F75 
 2286      74206661 
 2286      696C6564 
 2287 0261 000000   		.space	3
 2288              	.LC31:
 2289 0264 4661696C 		.ascii	"Failed creating the AMQP connection (connection_set"
 2289      65642063 
 2289      72656174 
 2289      696E6720 
 2289      74686520 
 2290 0297 5F72656D 		.ascii	"_remote_idle_timeout_empty_frame_send_ratio)\000"
 2290      6F74655F 
 2290      69646C65 
 2290      5F74696D 
 2290      656F7574 
 2291              	.LC36:
 2292 02c4 4661696C 		.ascii	"Failed to set the AMQP session incoming window size"
 2292      65642074 
 2292      6F207365 
 2292      74207468 
 2292      6520414D 
 2293 02f7 2E00     		.ascii	".\000"
 2294 02f9 000000   		.space	3
 2295              	.LC38:
 2296 02fc 4661696C 		.ascii	"Failed to set the AMQP session outgoing window size"
 2296      65642074 
 2296      6F207365 
 2296      74207468 
 2296      6520414D 
 2297 032f 2E00     		.ascii	".\000"
 2298 0331 000000   		.space	3
 2299              	.LC42:
 2300 0334 50534F43 		.ascii	"PSOC6---Failed to create the CBS connection---PSOC6"
 2300      362D2D2D 
 2300      4661696C 
 2300      65642074 
 2300      6F206372 
ARM GAS  C:\Users\Phuong\AppData\Local\Temp\cc32RpHN.s 			page 55


 2301 0367 00       		.ascii	"\000"
 2302              	.LC46:
 2303 0368 50534F43 		.ascii	"PSOC6---Failed to open the connection with CBS---PS"
 2303      362D2D2D 
 2303      4661696C 
 2303      65642074 
 2303      6F206F70 
 2304 039b 4F433600 		.ascii	"OC6\000"
 2305 039f 00       		.space	1
 2306              	.LC52:
 2307 03a0 616D7170 		.ascii	"amqp_connection_create failed (config is NULL)\000"
 2307      5F636F6E 
 2307      6E656374 
 2307      696F6E5F 
 2307      63726561 
 2308 03cf 00       		.space	1
 2309              	.LC54:
 2310 03d0 616D7170 		.ascii	"amqp_connection_create failed (config->iothub_host_"
 2310      5F636F6E 
 2310      6E656374 
 2310      696F6E5F 
 2310      63726561 
 2311 0403 6671646E 		.ascii	"fqdn is NULL)\000"
 2311      20697320 
 2311      4E554C4C 
 2311      2900
 2312 0411 000000   		.space	3
 2313              	.LC56:
 2314 0414 616D7170 		.ascii	"amqp_connection_create failed (config->underlying_i"
 2314      5F636F6E 
 2314      6E656374 
 2314      696F6E5F 
 2314      63726561 
 2315 0447 6F5F7472 		.ascii	"o_transport is NULL)\000"
 2315      616E7370 
 2315      6F727420 
 2315      6973204E 
 2315      554C4C29 
 2316              	.LC58:
 2317 045c 616D7170 		.ascii	"amqp_connection_create failed (malloc failed)\000"
 2317      5F636F6E 
 2317      6E656374 
 2317      696F6E5F 
 2317      63726561 
 2318 048a 0000     		.space	2
 2319              	.LC60:
 2320 048c 616D7170 		.ascii	"amqp_connection_create failed (STRING_construct fai"
 2320      5F636F6E 
 2320      6E656374 
 2320      696F6E5F 
 2320      63726561 
 2321 04bf 6C656429 		.ascii	"led)\000"
 2321      00
 2322              	.LC62:
 2323 04c4 50534F43 		.ascii	"PSOC6---amqp_connection_create_config_create_csb_co"
 2323      362D2D2D 
 2323      616D7170 
ARM GAS  C:\Users\Phuong\AppData\Local\Temp\cc32RpHN.s 			page 56


 2323      5F636F6E 
 2323      6E656374 
 2324 04f7 6E6E6563 		.ascii	"nnection_is_TRUE---PSOC6\000"
 2324      74696F6E 
 2324      5F69735F 
 2324      54525545 
 2324      2D2D2D50 
 2325              	.LC64:
 2326 0510 50534F43 		.ascii	"PSOC6---amqp_connection_create failed (failed creat"
 2326      362D2D2D 
 2326      616D7170 
 2326      5F636F6E 
 2326      6E656374 
 2327 0543 696E6720 		.ascii	"ing the SASL components)---PSOC6\000"
 2327      74686520 
 2327      5341534C 
 2327      20636F6D 
 2327      706F6E65 
 2328              	.LC66:
 2329 0564 616D7170 		.ascii	"amqp_connection_create failed (failed creating the "
 2329      5F636F6E 
 2329      6E656374 
 2329      696F6E5F 
 2329      63726561 
 2330 0597 414D5150 		.ascii	"AMQP connection)\000"
 2330      20636F6E 
 2330      6E656374 
 2330      696F6E29 
 2330      00
 2331              	.LC68:
 2332 05a8 616D7170 		.ascii	"amqp_connection_create failed (failed creating the "
 2332      5F636F6E 
 2332      6E656374 
 2332      696F6E5F 
 2332      63726561 
 2333 05db 414D5150 		.ascii	"AMQP session)\000"
 2333      20736573 
 2333      73696F6E 
 2333      2900
 2334 05e9 000000   		.space	3
 2335              	.LC70:
 2336 05ec 50534F43 		.ascii	"PSOC6---amqp_connection_create failed (failed creat"
 2336      362D2D2D 
 2336      616D7170 
 2336      5F636F6E 
 2336      6E656374 
 2337 061f 696E6720 		.ascii	"ing the CBS handle)---PSOC6\000"
 2337      74686520 
 2337      43425320 
 2337      68616E64 
 2337      6C65292D 
 2338 063b 00       		.space	1
 2339              	.LC74:
 2340 063c 616D7170 		.ascii	"amqp_connection_get_session_handle failed (conn_han"
 2340      5F636F6E 
 2340      6E656374 
 2340      696F6E5F 
ARM GAS  C:\Users\Phuong\AppData\Local\Temp\cc32RpHN.s 			page 57


 2340      6765745F 
 2341 066f 646C6520 		.ascii	"dle is NULL)\000"
 2341      6973204E 
 2341      554C4C29 
 2341      00
 2342              	.LC76:
 2343 067c 616D7170 		.ascii	"amqp_connection_get_session_handle failed (session_"
 2343      5F636F6E 
 2343      6E656374 
 2343      696F6E5F 
 2343      6765745F 
 2344 06af 68616E64 		.ascii	"handle is NULL)\000"
 2344      6C652069 
 2344      73204E55 
 2344      4C4C2900 
 2345 06bf 00       		.space	1
 2346              	.LC80:
 2347 06c0 616D7170 		.ascii	"amqp_connection_get_cbs_handle failed (conn_handle "
 2347      5F636F6E 
 2347      6E656374 
 2347      696F6E5F 
 2347      6765745F 
 2348 06f3 6973204E 		.ascii	"is NULL)\000"
 2348      554C4C29 
 2348      00
 2349              	.LC82:
 2350 06fc 616D7170 		.ascii	"amqp_connection_get_cbs_handle failed (parameter cb"
 2350      5F636F6E 
 2350      6E656374 
 2350      696F6E5F 
 2350      6765745F 
 2351 072f 735F6861 		.ascii	"s_handle is NULL)\000"
 2351      6E646C65 
 2351      20697320 
 2351      4E554C4C 
 2351      2900
 2352 0741 000000   		.space	3
 2353              	.LC84:
 2354 0744 616D7170 		.ascii	"amqp_connection_get_cbs_handle failed (there is not"
 2354      5F636F6E 
 2354      6E656374 
 2354      696F6E5F 
 2354      6765745F 
 2355 0777 20612063 		.ascii	" a cbs_handle to be returned)\000"
 2355      62735F68 
 2355      616E646C 
 2355      6520746F 
 2355      20626520 
 2356 0795 000000   		.space	3
 2357              	.LC88:
 2358 0798 616D7170 		.ascii	"amqp_connection_set_logging failed (conn_handle is "
 2358      5F636F6E 
 2358      6E656374 
 2358      696F6E5F 
 2358      7365745F 
 2359 07cb 4E554C4C 		.ascii	"NULL)\000"
 2359      2900
ARM GAS  C:\Users\Phuong\AppData\Local\Temp\cc32RpHN.s 			page 58


 2360 07d1 000000   		.space	3
 2361              	.LC91:
 2362 07d4 616D7170 		.ascii	"amqp_connection_set_logging failed (xio_setoption()"
 2362      5F636F6E 
 2362      6E656374 
 2362      696F6E5F 
 2362      7365745F 
 2363 0807 20666169 		.ascii	" failed)\000"
 2363      6C656429 
 2363      00
 2364              	.LC93:
 2365 0810 414D5150 		.ascii	"AMQP_CONNECTION_STATE_OPENED\000"
 2365      5F434F4E 
 2365      4E454354 
 2365      494F4E5F 
 2365      53544154 
 2366 082d 000000   		.space	3
 2367              	.LC94:
 2368 0830 414D5150 		.ascii	"AMQP_CONNECTION_STATE_CLOSED\000"
 2368      5F434F4E 
 2368      4E454354 
 2368      494F4E5F 
 2368      53544154 
 2369 084d 000000   		.space	3
 2370              	.LC95:
 2371 0850 414D5150 		.ascii	"AMQP_CONNECTION_STATE_ERROR\000"
 2371      5F434F4E 
 2371      4E454354 
 2371      494F4E5F 
 2371      53544154 
 2372              		.text
 2373              	.Letext0:
 2374              		.file 2 "c:\\program files (x86)\\cypress\\psoc creator\\4.2\\psoc creator\\import\\gnu\\arm\\5.4.
 2375              		.file 3 "c:\\program files (x86)\\cypress\\psoc creator\\4.2\\psoc creator\\import\\gnu\\arm\\5.4.
 2376              		.file 4 ".\\Source\\azure_iot_sdk\\c-utility\\inc/azure_c_shared_utility/xio.h"
 2377              		.file 5 "c:\\program files (x86)\\cypress\\psoc creator\\4.2\\psoc creator\\import\\gnu\\arm\\5.4.
 2378              		.file 6 ".\\Source\\azure_iot_sdk\\uamqp\\inc/azure_uamqp_c/connection.h"
 2379              		.file 7 ".\\Source\\azure_iot_sdk\\uamqp\\inc/azure_uamqp_c/session.h"
 2380              		.file 8 ".\\Source\\azure_iot_sdk\\uamqp\\inc/azure_uamqp_c/cbs.h"
 2381              		.file 9 ".\\Source\\azure_iot_sdk\\iothub_client\\inc/internal/iothubtransport_amqp_connection.h"
 2382              		.file 10 ".\\Source\\azure_iot_sdk\\c-utility\\inc/azure_c_shared_utility/strings_types.h"
 2383              		.file 11 ".\\Source\\azure_iot_sdk\\c-utility\\inc/azure_c_shared_utility/uniqueid.h"
 2384              		.file 12 ".\\Source\\azure_iot_sdk\\uamqp\\inc/azure_uamqp_c/sasl_mechanism.h"
 2385              		.file 13 ".\\Source\\azure_iot_sdk\\uamqp\\inc/azure_uamqp_c/saslclientio.h"
 2386              		.file 14 ".\\Source\\azure_iot_sdk\\c-utility\\inc/azure_c_shared_utility/xlogging.h"
 2387              		.file 15 ".\\Source\\azure_iot_sdk\\uamqp\\inc/azure_uamqp_c/sasl_mssbcbs.h"
 2388              		.file 16 "c:\\program files (x86)\\cypress\\psoc creator\\4.2\\psoc creator\\import\\gnu\\arm\\5.4
 2389              		.file 17 ".\\Source\\azure_iot_sdk\\c-utility\\inc/azure_c_shared_utility/strings.h"
 2390              		.file 18 "c:\\program files (x86)\\cypress\\psoc creator\\4.2\\psoc creator\\import\\gnu\\arm\\5.4