ARM GAS  C:\Users\Phuong\AppData\Local\Temp\ccrNXYcn.s 			page 1


   1              		.syntax unified
   2              		.cpu cortex-m0plus
   3              		.fpu softvfp
   4              		.eabi_attribute 20, 1
   5              		.eabi_attribute 21, 1
   6              		.eabi_attribute 23, 3
   7              		.eabi_attribute 24, 1
   8              		.eabi_attribute 25, 1
   9              		.eabi_attribute 26, 1
  10              		.eabi_attribute 30, 1
  11              		.eabi_attribute 34, 0
  12              		.eabi_attribute 18, 4
  13              		.thumb
  14              		.syntax unified
  15              		.file	"iothubtransport_amqp_device.c"
  16              		.text
  17              	.Ltext0:
  18              		.cfi_sections	.debug_frame
  19              		.section	.text.update_state,"ax",%progbits
  20              		.align	2
  21              		.code	16
  22              		.thumb_func
  23              		.type	update_state, %function
  24              	update_state:
  25              	.LFB15:
  26              		.file 1 "Source\\azure_iot_sdk\\iothub_client\\src\\iothubtransport_amqp_device.c"
   1:Source\azure_iot_sdk\iothub_client\src/iothubtransport_amqp_device.c **** // Copyright (c) Microsoft. All rights reserved.
   2:Source\azure_iot_sdk\iothub_client\src/iothubtransport_amqp_device.c **** // Licensed under the MIT license. See LICENSE file in the project root for full license informatio
   3:Source\azure_iot_sdk\iothub_client\src/iothubtransport_amqp_device.c **** 
   4:Source\azure_iot_sdk\iothub_client\src/iothubtransport_amqp_device.c **** #include <stdlib.h>
   5:Source\azure_iot_sdk\iothub_client\src/iothubtransport_amqp_device.c **** #include "azure_c_shared_utility/optimize_size.h"
   6:Source\azure_iot_sdk\iothub_client\src/iothubtransport_amqp_device.c **** #include "azure_c_shared_utility/gballoc.h"
   7:Source\azure_iot_sdk\iothub_client\src/iothubtransport_amqp_device.c **** #include "azure_c_shared_utility/agenttime.h"
   8:Source\azure_iot_sdk\iothub_client\src/iothubtransport_amqp_device.c **** #include "azure_c_shared_utility/xlogging.h"
   9:Source\azure_iot_sdk\iothub_client\src/iothubtransport_amqp_device.c **** #include "azure_c_shared_utility/strings.h"
  10:Source\azure_iot_sdk\iothub_client\src/iothubtransport_amqp_device.c **** #include "internal/iothubtransport_amqp_cbs_auth.h"
  11:Source\azure_iot_sdk\iothub_client\src/iothubtransport_amqp_device.c **** #include "internal/iothubtransport_amqp_device.h"
  12:Source\azure_iot_sdk\iothub_client\src/iothubtransport_amqp_device.c **** #include "internal/iothubtransport_amqp_telemetry_messenger.h"
  13:Source\azure_iot_sdk\iothub_client\src/iothubtransport_amqp_device.c **** #include "internal/iothubtransport_amqp_twin_messenger.h"
  14:Source\azure_iot_sdk\iothub_client\src/iothubtransport_amqp_device.c **** 
  15:Source\azure_iot_sdk\iothub_client\src/iothubtransport_amqp_device.c **** DEFINE_ENUM_STRINGS(DEVICE_STATE, DEVICE_STATE_VALUES);
  16:Source\azure_iot_sdk\iothub_client\src/iothubtransport_amqp_device.c **** DEFINE_ENUM_STRINGS(DEVICE_AUTH_MODE, DEVICE_AUTH_MODE_VALUES);
  17:Source\azure_iot_sdk\iothub_client\src/iothubtransport_amqp_device.c **** DEFINE_ENUM_STRINGS(DEVICE_SEND_STATUS, DEVICE_SEND_STATUS_VALUES);
  18:Source\azure_iot_sdk\iothub_client\src/iothubtransport_amqp_device.c **** DEFINE_ENUM_STRINGS(D2C_EVENT_SEND_RESULT, D2C_EVENT_SEND_RESULT_VALUES);
  19:Source\azure_iot_sdk\iothub_client\src/iothubtransport_amqp_device.c **** DEFINE_ENUM_STRINGS(DEVICE_MESSAGE_DISPOSITION_RESULT, DEVICE_MESSAGE_DISPOSITION_RESULT_VALUES);
  20:Source\azure_iot_sdk\iothub_client\src/iothubtransport_amqp_device.c **** DEFINE_ENUM_STRINGS(DEVICE_TWIN_UPDATE_RESULT, DEVICE_TWIN_UPDATE_RESULT_STRINGS);
  21:Source\azure_iot_sdk\iothub_client\src/iothubtransport_amqp_device.c **** DEFINE_ENUM_STRINGS(DEVICE_TWIN_UPDATE_TYPE, DEVICE_TWIN_UPDATE_TYPE_STRINGS)
  22:Source\azure_iot_sdk\iothub_client\src/iothubtransport_amqp_device.c **** 
  23:Source\azure_iot_sdk\iothub_client\src/iothubtransport_amqp_device.c **** #define RESULT_OK                                  0
  24:Source\azure_iot_sdk\iothub_client\src/iothubtransport_amqp_device.c **** #define INDEFINITE_TIME                            ((time_t)-1)
  25:Source\azure_iot_sdk\iothub_client\src/iothubtransport_amqp_device.c **** #define DEFAULT_AUTH_STATE_CHANGED_TIMEOUT_SECS    60
  26:Source\azure_iot_sdk\iothub_client\src/iothubtransport_amqp_device.c **** #define DEFAULT_MSGR_STATE_CHANGED_TIMEOUT_SECS    60
  27:Source\azure_iot_sdk\iothub_client\src/iothubtransport_amqp_device.c **** 
  28:Source\azure_iot_sdk\iothub_client\src/iothubtransport_amqp_device.c **** static const char* DEVICE_OPTION_SAVED_AUTH_OPTIONS = "saved_device_auth_options";
  29:Source\azure_iot_sdk\iothub_client\src/iothubtransport_amqp_device.c **** static const char* DEVICE_OPTION_SAVED_MESSENGER_OPTIONS = "saved_device_messenger_options";
  30:Source\azure_iot_sdk\iothub_client\src/iothubtransport_amqp_device.c **** 
  31:Source\azure_iot_sdk\iothub_client\src/iothubtransport_amqp_device.c **** typedef struct DEVICE_INSTANCE_TAG
ARM GAS  C:\Users\Phuong\AppData\Local\Temp\ccrNXYcn.s 			page 2


  32:Source\azure_iot_sdk\iothub_client\src/iothubtransport_amqp_device.c **** {
  33:Source\azure_iot_sdk\iothub_client\src/iothubtransport_amqp_device.c ****     DEVICE_CONFIG* config;
  34:Source\azure_iot_sdk\iothub_client\src/iothubtransport_amqp_device.c ****     DEVICE_STATE state;
  35:Source\azure_iot_sdk\iothub_client\src/iothubtransport_amqp_device.c **** 
  36:Source\azure_iot_sdk\iothub_client\src/iothubtransport_amqp_device.c ****     SESSION_HANDLE session_handle;
  37:Source\azure_iot_sdk\iothub_client\src/iothubtransport_amqp_device.c ****     CBS_HANDLE cbs_handle;
  38:Source\azure_iot_sdk\iothub_client\src/iothubtransport_amqp_device.c **** 
  39:Source\azure_iot_sdk\iothub_client\src/iothubtransport_amqp_device.c ****     AUTHENTICATION_HANDLE authentication_handle;
  40:Source\azure_iot_sdk\iothub_client\src/iothubtransport_amqp_device.c ****     AUTHENTICATION_STATE auth_state;
  41:Source\azure_iot_sdk\iothub_client\src/iothubtransport_amqp_device.c ****     AUTHENTICATION_ERROR_CODE auth_error_code;
  42:Source\azure_iot_sdk\iothub_client\src/iothubtransport_amqp_device.c ****     time_t auth_state_last_changed_time;
  43:Source\azure_iot_sdk\iothub_client\src/iothubtransport_amqp_device.c ****     size_t auth_state_change_timeout_secs;
  44:Source\azure_iot_sdk\iothub_client\src/iothubtransport_amqp_device.c **** 
  45:Source\azure_iot_sdk\iothub_client\src/iothubtransport_amqp_device.c ****     TELEMETRY_MESSENGER_HANDLE messenger_handle;
  46:Source\azure_iot_sdk\iothub_client\src/iothubtransport_amqp_device.c ****     TELEMETRY_MESSENGER_STATE msgr_state;
  47:Source\azure_iot_sdk\iothub_client\src/iothubtransport_amqp_device.c ****     time_t msgr_state_last_changed_time;
  48:Source\azure_iot_sdk\iothub_client\src/iothubtransport_amqp_device.c ****     size_t msgr_state_change_timeout_secs;
  49:Source\azure_iot_sdk\iothub_client\src/iothubtransport_amqp_device.c **** 
  50:Source\azure_iot_sdk\iothub_client\src/iothubtransport_amqp_device.c ****     ON_DEVICE_C2D_MESSAGE_RECEIVED on_message_received_callback;
  51:Source\azure_iot_sdk\iothub_client\src/iothubtransport_amqp_device.c ****     void* on_message_received_context;
  52:Source\azure_iot_sdk\iothub_client\src/iothubtransport_amqp_device.c **** 
  53:Source\azure_iot_sdk\iothub_client\src/iothubtransport_amqp_device.c ****     TWIN_MESSENGER_HANDLE twin_messenger_handle;
  54:Source\azure_iot_sdk\iothub_client\src/iothubtransport_amqp_device.c ****     TWIN_MESSENGER_STATE twin_msgr_state;
  55:Source\azure_iot_sdk\iothub_client\src/iothubtransport_amqp_device.c ****     time_t twin_msgr_state_last_changed_time;
  56:Source\azure_iot_sdk\iothub_client\src/iothubtransport_amqp_device.c ****     size_t twin_msgr_state_change_timeout_secs;
  57:Source\azure_iot_sdk\iothub_client\src/iothubtransport_amqp_device.c ****     DEVICE_TWIN_UPDATE_RECEIVED_CALLBACK on_device_twin_update_received_callback;
  58:Source\azure_iot_sdk\iothub_client\src/iothubtransport_amqp_device.c ****     void* on_device_twin_update_received_context;
  59:Source\azure_iot_sdk\iothub_client\src/iothubtransport_amqp_device.c **** } AMQP_DEVICE_INSTANCE;
  60:Source\azure_iot_sdk\iothub_client\src/iothubtransport_amqp_device.c **** 
  61:Source\azure_iot_sdk\iothub_client\src/iothubtransport_amqp_device.c **** typedef struct DEVICE_SEND_EVENT_TASK_TAG
  62:Source\azure_iot_sdk\iothub_client\src/iothubtransport_amqp_device.c **** {
  63:Source\azure_iot_sdk\iothub_client\src/iothubtransport_amqp_device.c ****     ON_DEVICE_D2C_EVENT_SEND_COMPLETE on_event_send_complete_callback;
  64:Source\azure_iot_sdk\iothub_client\src/iothubtransport_amqp_device.c ****     void* on_event_send_complete_context;
  65:Source\azure_iot_sdk\iothub_client\src/iothubtransport_amqp_device.c **** } DEVICE_SEND_EVENT_TASK;
  66:Source\azure_iot_sdk\iothub_client\src/iothubtransport_amqp_device.c **** 
  67:Source\azure_iot_sdk\iothub_client\src/iothubtransport_amqp_device.c **** typedef struct DEVICE_SEND_TWIN_UPDATE_CONTEXT_TAG
  68:Source\azure_iot_sdk\iothub_client\src/iothubtransport_amqp_device.c **** {
  69:Source\azure_iot_sdk\iothub_client\src/iothubtransport_amqp_device.c ****     DEVICE_SEND_TWIN_UPDATE_COMPLETE_CALLBACK on_send_twin_update_complete_callback;
  70:Source\azure_iot_sdk\iothub_client\src/iothubtransport_amqp_device.c ****     void* context;
  71:Source\azure_iot_sdk\iothub_client\src/iothubtransport_amqp_device.c **** } DEVICE_SEND_TWIN_UPDATE_CONTEXT;
  72:Source\azure_iot_sdk\iothub_client\src/iothubtransport_amqp_device.c **** 
  73:Source\azure_iot_sdk\iothub_client\src/iothubtransport_amqp_device.c **** // Internal state control
  74:Source\azure_iot_sdk\iothub_client\src/iothubtransport_amqp_device.c **** static void update_state(AMQP_DEVICE_INSTANCE* instance, DEVICE_STATE new_state)
  75:Source\azure_iot_sdk\iothub_client\src/iothubtransport_amqp_device.c **** {
  27              		.loc 1 75 0
  28              		.cfi_startproc
  29              		@ args = 0, pretend = 0, frame = 0
  30              		@ frame_needed = 0, uses_anonymous_args = 0
  31              	.LVL0:
  32 0000 10B5     		push	{r4, lr}
  33              		.cfi_def_cfa_offset 8
  34              		.cfi_offset 4, -8
  35              		.cfi_offset 14, -4
  36 0002 0A00     		movs	r2, r1
  76:Source\azure_iot_sdk\iothub_client\src/iothubtransport_amqp_device.c ****     if (new_state != instance->state)
  37              		.loc 1 76 0
  38 0004 0179     		ldrb	r1, [r0, #4]
ARM GAS  C:\Users\Phuong\AppData\Local\Temp\ccrNXYcn.s 			page 3


  39              	.LVL1:
  40 0006 9142     		cmp	r1, r2
  41 0008 06D0     		beq	.L1
  42              	.LVL2:
  43              	.LBB2:
  77:Source\azure_iot_sdk\iothub_client\src/iothubtransport_amqp_device.c ****     {
  78:Source\azure_iot_sdk\iothub_client\src/iothubtransport_amqp_device.c ****         DEVICE_STATE previous_state = instance->state;
  79:Source\azure_iot_sdk\iothub_client\src/iothubtransport_amqp_device.c ****         instance->state = new_state;
  44              		.loc 1 79 0
  45 000a 0271     		strb	r2, [r0, #4]
  80:Source\azure_iot_sdk\iothub_client\src/iothubtransport_amqp_device.c **** 
  81:Source\azure_iot_sdk\iothub_client\src/iothubtransport_amqp_device.c ****         if (instance->config->on_state_changed_callback != NULL)
  46              		.loc 1 81 0
  47 000c 0068     		ldr	r0, [r0]
  48              	.LVL3:
  49 000e 4369     		ldr	r3, [r0, #20]
  50 0010 002B     		cmp	r3, #0
  51 0012 01D0     		beq	.L1
  82:Source\azure_iot_sdk\iothub_client\src/iothubtransport_amqp_device.c ****         {
  83:Source\azure_iot_sdk\iothub_client\src/iothubtransport_amqp_device.c ****             instance->config->on_state_changed_callback(instance->config->on_state_changed_context,
  52              		.loc 1 83 0
  53 0014 8069     		ldr	r0, [r0, #24]
  54 0016 9847     		blx	r3
  55              	.LVL4:
  56              	.L1:
  57              	.LBE2:
  84:Source\azure_iot_sdk\iothub_client\src/iothubtransport_amqp_device.c ****         }
  85:Source\azure_iot_sdk\iothub_client\src/iothubtransport_amqp_device.c ****     }
  86:Source\azure_iot_sdk\iothub_client\src/iothubtransport_amqp_device.c **** }
  58              		.loc 1 86 0
  59              		@ sp needed
  60 0018 10BD     		pop	{r4, pc}
  61              		.cfi_endproc
  62              	.LFE15:
  63              		.size	update_state, .-update_state
  64 001a C046     		.section	.text.get_d2c_event_send_result_from,"ax",%progbits
  65              		.align	2
  66              		.code	16
  67              		.thumb_func
  68              		.type	get_d2c_event_send_result_from, %function
  69              	get_d2c_event_send_result_from:
  70              	.LFB17:
  87:Source\azure_iot_sdk\iothub_client\src/iothubtransport_amqp_device.c **** 
  88:Source\azure_iot_sdk\iothub_client\src/iothubtransport_amqp_device.c **** static int is_timeout_reached(time_t start_time, size_t timeout_in_secs, int *is_timed_out)
  89:Source\azure_iot_sdk\iothub_client\src/iothubtransport_amqp_device.c **** {
  90:Source\azure_iot_sdk\iothub_client\src/iothubtransport_amqp_device.c ****     int result;
  91:Source\azure_iot_sdk\iothub_client\src/iothubtransport_amqp_device.c **** 
  92:Source\azure_iot_sdk\iothub_client\src/iothubtransport_amqp_device.c ****     if (start_time == INDEFINITE_TIME)
  93:Source\azure_iot_sdk\iothub_client\src/iothubtransport_amqp_device.c ****     {
  94:Source\azure_iot_sdk\iothub_client\src/iothubtransport_amqp_device.c ****         LogError("Failed to verify timeout (start_time is INDEFINITE)");
  95:Source\azure_iot_sdk\iothub_client\src/iothubtransport_amqp_device.c ****         result = __FAILURE__;
  96:Source\azure_iot_sdk\iothub_client\src/iothubtransport_amqp_device.c ****     }
  97:Source\azure_iot_sdk\iothub_client\src/iothubtransport_amqp_device.c ****     else
  98:Source\azure_iot_sdk\iothub_client\src/iothubtransport_amqp_device.c ****     {
  99:Source\azure_iot_sdk\iothub_client\src/iothubtransport_amqp_device.c ****         time_t current_time;
 100:Source\azure_iot_sdk\iothub_client\src/iothubtransport_amqp_device.c **** 
 101:Source\azure_iot_sdk\iothub_client\src/iothubtransport_amqp_device.c ****         if ((current_time = get_time(NULL)) == INDEFINITE_TIME)
ARM GAS  C:\Users\Phuong\AppData\Local\Temp\ccrNXYcn.s 			page 4


 102:Source\azure_iot_sdk\iothub_client\src/iothubtransport_amqp_device.c ****         {
 103:Source\azure_iot_sdk\iothub_client\src/iothubtransport_amqp_device.c ****             LogError("Failed to verify timeout (get_time failed)");
 104:Source\azure_iot_sdk\iothub_client\src/iothubtransport_amqp_device.c ****             result = __FAILURE__;
 105:Source\azure_iot_sdk\iothub_client\src/iothubtransport_amqp_device.c ****         }
 106:Source\azure_iot_sdk\iothub_client\src/iothubtransport_amqp_device.c ****         else
 107:Source\azure_iot_sdk\iothub_client\src/iothubtransport_amqp_device.c ****         {
 108:Source\azure_iot_sdk\iothub_client\src/iothubtransport_amqp_device.c ****             if (get_difftime(current_time, start_time) >= timeout_in_secs)
 109:Source\azure_iot_sdk\iothub_client\src/iothubtransport_amqp_device.c ****             {
 110:Source\azure_iot_sdk\iothub_client\src/iothubtransport_amqp_device.c ****                 *is_timed_out = 1;
 111:Source\azure_iot_sdk\iothub_client\src/iothubtransport_amqp_device.c ****             }
 112:Source\azure_iot_sdk\iothub_client\src/iothubtransport_amqp_device.c ****             else
 113:Source\azure_iot_sdk\iothub_client\src/iothubtransport_amqp_device.c ****             {
 114:Source\azure_iot_sdk\iothub_client\src/iothubtransport_amqp_device.c ****                 *is_timed_out = 0;
 115:Source\azure_iot_sdk\iothub_client\src/iothubtransport_amqp_device.c ****             }
 116:Source\azure_iot_sdk\iothub_client\src/iothubtransport_amqp_device.c **** 
 117:Source\azure_iot_sdk\iothub_client\src/iothubtransport_amqp_device.c ****             result = RESULT_OK;
 118:Source\azure_iot_sdk\iothub_client\src/iothubtransport_amqp_device.c ****         }
 119:Source\azure_iot_sdk\iothub_client\src/iothubtransport_amqp_device.c ****     }
 120:Source\azure_iot_sdk\iothub_client\src/iothubtransport_amqp_device.c **** 
 121:Source\azure_iot_sdk\iothub_client\src/iothubtransport_amqp_device.c ****     return result;
 122:Source\azure_iot_sdk\iothub_client\src/iothubtransport_amqp_device.c **** }
 123:Source\azure_iot_sdk\iothub_client\src/iothubtransport_amqp_device.c **** 
 124:Source\azure_iot_sdk\iothub_client\src/iothubtransport_amqp_device.c **** 
 125:Source\azure_iot_sdk\iothub_client\src/iothubtransport_amqp_device.c **** //---------- Callback Handlers ----------//
 126:Source\azure_iot_sdk\iothub_client\src/iothubtransport_amqp_device.c **** 
 127:Source\azure_iot_sdk\iothub_client\src/iothubtransport_amqp_device.c **** static D2C_EVENT_SEND_RESULT get_d2c_event_send_result_from(TELEMETRY_MESSENGER_EVENT_SEND_COMPLETE
 128:Source\azure_iot_sdk\iothub_client\src/iothubtransport_amqp_device.c **** {
  71              		.loc 1 128 0
  72              		.cfi_startproc
  73              		@ args = 0, pretend = 0, frame = 0
  74              		@ frame_needed = 0, uses_anonymous_args = 0
  75              		@ link register save eliminated.
  76              	.LVL5:
 129:Source\azure_iot_sdk\iothub_client\src/iothubtransport_amqp_device.c ****     D2C_EVENT_SEND_RESULT d2c_esr;
 130:Source\azure_iot_sdk\iothub_client\src/iothubtransport_amqp_device.c **** 
 131:Source\azure_iot_sdk\iothub_client\src/iothubtransport_amqp_device.c ****     switch (result)
  77              		.loc 1 131 0
  78 0000 0428     		cmp	r0, #4
  79 0002 0BD8     		bhi	.L4
  80 0004 8000     		lsls	r0, r0, #2
  81              	.LVL6:
  82 0006 074B     		ldr	r3, .L12
  83 0008 1B58     		ldr	r3, [r3, r0]
  84 000a 9F46     		mov	pc, r3
  85              		.section	.rodata
  86              		.align	2
  87              	.L6:
  88 0000 0C000000 		.word	.L5
  89 0004 20000000 		.word	.L11
  90 0008 10000000 		.word	.L8
  91 000c 14000000 		.word	.L9
  92 0010 18000000 		.word	.L10
  93              		.section	.text.get_d2c_event_send_result_from
  94              	.L5:
 132:Source\azure_iot_sdk\iothub_client\src/iothubtransport_amqp_device.c ****     {
 133:Source\azure_iot_sdk\iothub_client\src/iothubtransport_amqp_device.c ****         case TELEMETRY_MESSENGER_EVENT_SEND_COMPLETE_RESULT_OK:
 134:Source\azure_iot_sdk\iothub_client\src/iothubtransport_amqp_device.c ****             d2c_esr = D2C_EVENT_SEND_COMPLETE_RESULT_OK;
ARM GAS  C:\Users\Phuong\AppData\Local\Temp\ccrNXYcn.s 			page 5


  95              		.loc 1 134 0
  96 000c 0020     		movs	r0, #0
  97 000e 08E0     		b	.L7
  98              	.L8:
  99              	.LVL7:
 135:Source\azure_iot_sdk\iothub_client\src/iothubtransport_amqp_device.c ****             break;
 136:Source\azure_iot_sdk\iothub_client\src/iothubtransport_amqp_device.c ****         case TELEMETRY_MESSENGER_EVENT_SEND_COMPLETE_RESULT_ERROR_CANNOT_PARSE:
 137:Source\azure_iot_sdk\iothub_client\src/iothubtransport_amqp_device.c ****             d2c_esr = D2C_EVENT_SEND_COMPLETE_RESULT_ERROR_CANNOT_PARSE;
 138:Source\azure_iot_sdk\iothub_client\src/iothubtransport_amqp_device.c ****             break;
 139:Source\azure_iot_sdk\iothub_client\src/iothubtransport_amqp_device.c ****         case TELEMETRY_MESSENGER_EVENT_SEND_COMPLETE_RESULT_ERROR_FAIL_SENDING:
 140:Source\azure_iot_sdk\iothub_client\src/iothubtransport_amqp_device.c ****             d2c_esr = D2C_EVENT_SEND_COMPLETE_RESULT_ERROR_FAIL_SENDING;
 100              		.loc 1 140 0
 101 0010 0220     		movs	r0, #2
 141:Source\azure_iot_sdk\iothub_client\src/iothubtransport_amqp_device.c ****             break;
 102              		.loc 1 141 0
 103 0012 06E0     		b	.L7
 104              	.LVL8:
 105              	.L9:
 142:Source\azure_iot_sdk\iothub_client\src/iothubtransport_amqp_device.c ****         case TELEMETRY_MESSENGER_EVENT_SEND_COMPLETE_RESULT_ERROR_TIMEOUT:
 143:Source\azure_iot_sdk\iothub_client\src/iothubtransport_amqp_device.c ****             d2c_esr = D2C_EVENT_SEND_COMPLETE_RESULT_ERROR_TIMEOUT;
 106              		.loc 1 143 0
 107 0014 0320     		movs	r0, #3
 144:Source\azure_iot_sdk\iothub_client\src/iothubtransport_amqp_device.c ****             break;
 108              		.loc 1 144 0
 109 0016 04E0     		b	.L7
 110              	.LVL9:
 111              	.L10:
 145:Source\azure_iot_sdk\iothub_client\src/iothubtransport_amqp_device.c ****         case TELEMETRY_MESSENGER_EVENT_SEND_COMPLETE_RESULT_MESSENGER_DESTROYED:
 146:Source\azure_iot_sdk\iothub_client\src/iothubtransport_amqp_device.c ****             d2c_esr = D2C_EVENT_SEND_COMPLETE_RESULT_DEVICE_DESTROYED;
 112              		.loc 1 146 0
 113 0018 0420     		movs	r0, #4
 147:Source\azure_iot_sdk\iothub_client\src/iothubtransport_amqp_device.c ****             break;
 114              		.loc 1 147 0
 115 001a 02E0     		b	.L7
 116              	.LVL10:
 117              	.L4:
 148:Source\azure_iot_sdk\iothub_client\src/iothubtransport_amqp_device.c ****         default:
 149:Source\azure_iot_sdk\iothub_client\src/iothubtransport_amqp_device.c ****             // This is not expected. All states should be mapped.
 150:Source\azure_iot_sdk\iothub_client\src/iothubtransport_amqp_device.c ****             d2c_esr = D2C_EVENT_SEND_COMPLETE_RESULT_ERROR_UNKNOWN;
 118              		.loc 1 150 0
 119 001c 0520     		movs	r0, #5
 120              	.LVL11:
 151:Source\azure_iot_sdk\iothub_client\src/iothubtransport_amqp_device.c ****             break;
 121              		.loc 1 151 0
 122 001e 00E0     		b	.L7
 123              	.LVL12:
 124              	.L11:
 137:Source\azure_iot_sdk\iothub_client\src/iothubtransport_amqp_device.c ****             break;
 125              		.loc 1 137 0
 126 0020 0120     		movs	r0, #1
 127              	.L7:
 128              	.LVL13:
 152:Source\azure_iot_sdk\iothub_client\src/iothubtransport_amqp_device.c ****     };
 153:Source\azure_iot_sdk\iothub_client\src/iothubtransport_amqp_device.c **** 
 154:Source\azure_iot_sdk\iothub_client\src/iothubtransport_amqp_device.c ****     return d2c_esr;
 155:Source\azure_iot_sdk\iothub_client\src/iothubtransport_amqp_device.c **** }
 129              		.loc 1 155 0
ARM GAS  C:\Users\Phuong\AppData\Local\Temp\ccrNXYcn.s 			page 6


 130              		@ sp needed
 131 0022 7047     		bx	lr
 132              	.L13:
 133              		.align	2
 134              	.L12:
 135 0024 00000000 		.word	.L6
 136              		.cfi_endproc
 137              	.LFE17:
 138              		.size	get_d2c_event_send_result_from, .-get_d2c_event_send_result_from
 139              		.section	.text.get_device_twin_update_result_from,"ax",%progbits
 140              		.align	2
 141              		.code	16
 142              		.thumb_func
 143              		.type	get_device_twin_update_result_from, %function
 144              	get_device_twin_update_result_from:
 145              	.LFB22:
 156:Source\azure_iot_sdk\iothub_client\src/iothubtransport_amqp_device.c **** 
 157:Source\azure_iot_sdk\iothub_client\src/iothubtransport_amqp_device.c **** static void on_event_send_complete_messenger_callback(IOTHUB_MESSAGE_LIST* iothub_message, TELEMETR
 158:Source\azure_iot_sdk\iothub_client\src/iothubtransport_amqp_device.c **** {
 159:Source\azure_iot_sdk\iothub_client\src/iothubtransport_amqp_device.c ****     if (iothub_message == NULL || context == NULL)
 160:Source\azure_iot_sdk\iothub_client\src/iothubtransport_amqp_device.c ****     {
 161:Source\azure_iot_sdk\iothub_client\src/iothubtransport_amqp_device.c ****         LogError("on_event_send_complete_messenger_callback was invoked, but either iothub_message 
 162:Source\azure_iot_sdk\iothub_client\src/iothubtransport_amqp_device.c ****     }
 163:Source\azure_iot_sdk\iothub_client\src/iothubtransport_amqp_device.c ****     else
 164:Source\azure_iot_sdk\iothub_client\src/iothubtransport_amqp_device.c ****     {
 165:Source\azure_iot_sdk\iothub_client\src/iothubtransport_amqp_device.c ****         DEVICE_SEND_EVENT_TASK* send_task = (DEVICE_SEND_EVENT_TASK*)context;
 166:Source\azure_iot_sdk\iothub_client\src/iothubtransport_amqp_device.c **** 
 167:Source\azure_iot_sdk\iothub_client\src/iothubtransport_amqp_device.c ****         // Codes_SRS_DEVICE_09_059: [If `ev_send_comp_result` is TELEMETRY_MESSENGER_EVENT_SEND_COM
 168:Source\azure_iot_sdk\iothub_client\src/iothubtransport_amqp_device.c ****         // Codes_SRS_DEVICE_09_060: [If `ev_send_comp_result` is TELEMETRY_MESSENGER_EVENT_SEND_COM
 169:Source\azure_iot_sdk\iothub_client\src/iothubtransport_amqp_device.c ****         // Codes_SRS_DEVICE_09_061: [If `ev_send_comp_result` is TELEMETRY_MESSENGER_EVENT_SEND_COM
 170:Source\azure_iot_sdk\iothub_client\src/iothubtransport_amqp_device.c ****         // Codes_SRS_DEVICE_09_062: [If `ev_send_comp_result` is TELEMETRY_MESSENGER_EVENT_SEND_COM
 171:Source\azure_iot_sdk\iothub_client\src/iothubtransport_amqp_device.c ****         // Codes_SRS_DEVICE_09_063: [If `ev_send_comp_result` is TELEMETRY_MESSENGER_EVENT_SEND_COM
 172:Source\azure_iot_sdk\iothub_client\src/iothubtransport_amqp_device.c ****         D2C_EVENT_SEND_RESULT device_send_result = get_d2c_event_send_result_from(ev_send_comp_resu
 173:Source\azure_iot_sdk\iothub_client\src/iothubtransport_amqp_device.c **** 
 174:Source\azure_iot_sdk\iothub_client\src/iothubtransport_amqp_device.c ****         // Codes_SRS_DEVICE_09_064: [If provided, the user callback and context saved in `send_task
 175:Source\azure_iot_sdk\iothub_client\src/iothubtransport_amqp_device.c ****         if (send_task->on_event_send_complete_callback != NULL)
 176:Source\azure_iot_sdk\iothub_client\src/iothubtransport_amqp_device.c ****         {
 177:Source\azure_iot_sdk\iothub_client\src/iothubtransport_amqp_device.c ****             send_task->on_event_send_complete_callback(iothub_message, device_send_result, send_tas
 178:Source\azure_iot_sdk\iothub_client\src/iothubtransport_amqp_device.c ****         }
 179:Source\azure_iot_sdk\iothub_client\src/iothubtransport_amqp_device.c **** 
 180:Source\azure_iot_sdk\iothub_client\src/iothubtransport_amqp_device.c ****         // Codes_SRS_DEVICE_09_065: [The memory allocated for `send_task` shall be released]
 181:Source\azure_iot_sdk\iothub_client\src/iothubtransport_amqp_device.c ****         free(send_task);
 182:Source\azure_iot_sdk\iothub_client\src/iothubtransport_amqp_device.c ****     }
 183:Source\azure_iot_sdk\iothub_client\src/iothubtransport_amqp_device.c **** }
 184:Source\azure_iot_sdk\iothub_client\src/iothubtransport_amqp_device.c **** 
 185:Source\azure_iot_sdk\iothub_client\src/iothubtransport_amqp_device.c **** static void on_authentication_error_callback(void* context, AUTHENTICATION_ERROR_CODE error_code)
 186:Source\azure_iot_sdk\iothub_client\src/iothubtransport_amqp_device.c **** {
 187:Source\azure_iot_sdk\iothub_client\src/iothubtransport_amqp_device.c ****     if (context == NULL)
 188:Source\azure_iot_sdk\iothub_client\src/iothubtransport_amqp_device.c ****     {
 189:Source\azure_iot_sdk\iothub_client\src/iothubtransport_amqp_device.c ****         LogError("on_authentication_error_callback was invoked with error %d, but context is NULL",
 190:Source\azure_iot_sdk\iothub_client\src/iothubtransport_amqp_device.c ****     }
 191:Source\azure_iot_sdk\iothub_client\src/iothubtransport_amqp_device.c ****     else
 192:Source\azure_iot_sdk\iothub_client\src/iothubtransport_amqp_device.c ****     {
 193:Source\azure_iot_sdk\iothub_client\src/iothubtransport_amqp_device.c ****         AMQP_DEVICE_INSTANCE* instance = (AMQP_DEVICE_INSTANCE*)context;
 194:Source\azure_iot_sdk\iothub_client\src/iothubtransport_amqp_device.c ****         instance->auth_error_code = error_code;
 195:Source\azure_iot_sdk\iothub_client\src/iothubtransport_amqp_device.c ****     }
 196:Source\azure_iot_sdk\iothub_client\src/iothubtransport_amqp_device.c **** }
ARM GAS  C:\Users\Phuong\AppData\Local\Temp\ccrNXYcn.s 			page 7


 197:Source\azure_iot_sdk\iothub_client\src/iothubtransport_amqp_device.c **** 
 198:Source\azure_iot_sdk\iothub_client\src/iothubtransport_amqp_device.c **** static void on_authentication_state_changed_callback(void* context, AUTHENTICATION_STATE previous_s
 199:Source\azure_iot_sdk\iothub_client\src/iothubtransport_amqp_device.c **** {
 200:Source\azure_iot_sdk\iothub_client\src/iothubtransport_amqp_device.c ****     if (context == NULL)
 201:Source\azure_iot_sdk\iothub_client\src/iothubtransport_amqp_device.c ****     {
 202:Source\azure_iot_sdk\iothub_client\src/iothubtransport_amqp_device.c ****         LogError("on_authentication_state_changed_callback was invoked with new_state %d, but conte
 203:Source\azure_iot_sdk\iothub_client\src/iothubtransport_amqp_device.c ****     }
 204:Source\azure_iot_sdk\iothub_client\src/iothubtransport_amqp_device.c ****     else if (new_state != previous_state)
 205:Source\azure_iot_sdk\iothub_client\src/iothubtransport_amqp_device.c ****     {
 206:Source\azure_iot_sdk\iothub_client\src/iothubtransport_amqp_device.c ****         AMQP_DEVICE_INSTANCE* instance = (AMQP_DEVICE_INSTANCE*)context;
 207:Source\azure_iot_sdk\iothub_client\src/iothubtransport_amqp_device.c ****         instance->auth_state = new_state;
 208:Source\azure_iot_sdk\iothub_client\src/iothubtransport_amqp_device.c **** 
 209:Source\azure_iot_sdk\iothub_client\src/iothubtransport_amqp_device.c ****         if ((instance->auth_state_last_changed_time = get_time(NULL)) == INDEFINITE_TIME)
 210:Source\azure_iot_sdk\iothub_client\src/iothubtransport_amqp_device.c ****         {
 211:Source\azure_iot_sdk\iothub_client\src/iothubtransport_amqp_device.c ****             LogError("Device '%s' failed to set time of last authentication state change (get_time 
 212:Source\azure_iot_sdk\iothub_client\src/iothubtransport_amqp_device.c ****         }
 213:Source\azure_iot_sdk\iothub_client\src/iothubtransport_amqp_device.c ****     }
 214:Source\azure_iot_sdk\iothub_client\src/iothubtransport_amqp_device.c **** }
 215:Source\azure_iot_sdk\iothub_client\src/iothubtransport_amqp_device.c **** 
 216:Source\azure_iot_sdk\iothub_client\src/iothubtransport_amqp_device.c **** static void on_messenger_state_changed_callback(void* context, TELEMETRY_MESSENGER_STATE previous_s
 217:Source\azure_iot_sdk\iothub_client\src/iothubtransport_amqp_device.c **** {
 218:Source\azure_iot_sdk\iothub_client\src/iothubtransport_amqp_device.c ****     if (context == NULL)
 219:Source\azure_iot_sdk\iothub_client\src/iothubtransport_amqp_device.c ****     {
 220:Source\azure_iot_sdk\iothub_client\src/iothubtransport_amqp_device.c ****         LogError("on_messenger_state_changed_callback was invoked with new_state %d, but context is
 221:Source\azure_iot_sdk\iothub_client\src/iothubtransport_amqp_device.c ****     }
 222:Source\azure_iot_sdk\iothub_client\src/iothubtransport_amqp_device.c ****     else if (new_state != previous_state)
 223:Source\azure_iot_sdk\iothub_client\src/iothubtransport_amqp_device.c ****     {
 224:Source\azure_iot_sdk\iothub_client\src/iothubtransport_amqp_device.c ****         AMQP_DEVICE_INSTANCE* instance = (AMQP_DEVICE_INSTANCE*)context;
 225:Source\azure_iot_sdk\iothub_client\src/iothubtransport_amqp_device.c ****         instance->msgr_state = new_state;
 226:Source\azure_iot_sdk\iothub_client\src/iothubtransport_amqp_device.c **** 
 227:Source\azure_iot_sdk\iothub_client\src/iothubtransport_amqp_device.c ****         if ((instance->msgr_state_last_changed_time = get_time(NULL)) == INDEFINITE_TIME)
 228:Source\azure_iot_sdk\iothub_client\src/iothubtransport_amqp_device.c ****         {
 229:Source\azure_iot_sdk\iothub_client\src/iothubtransport_amqp_device.c ****             LogError("Device '%s' failed to set time of last messenger state change (get_time faile
 230:Source\azure_iot_sdk\iothub_client\src/iothubtransport_amqp_device.c ****         }
 231:Source\azure_iot_sdk\iothub_client\src/iothubtransport_amqp_device.c ****     }
 232:Source\azure_iot_sdk\iothub_client\src/iothubtransport_amqp_device.c **** }
 233:Source\azure_iot_sdk\iothub_client\src/iothubtransport_amqp_device.c **** 
 234:Source\azure_iot_sdk\iothub_client\src/iothubtransport_amqp_device.c **** static DEVICE_TWIN_UPDATE_RESULT get_device_twin_update_result_from(TWIN_REPORT_STATE_RESULT result
 235:Source\azure_iot_sdk\iothub_client\src/iothubtransport_amqp_device.c **** {
 146              		.loc 1 235 0
 147              		.cfi_startproc
 148              		@ args = 0, pretend = 0, frame = 0
 149              		@ frame_needed = 0, uses_anonymous_args = 0
 150              		@ link register save eliminated.
 151              	.LVL14:
 236:Source\azure_iot_sdk\iothub_client\src/iothubtransport_amqp_device.c ****     DEVICE_TWIN_UPDATE_RESULT device_result;
 237:Source\azure_iot_sdk\iothub_client\src/iothubtransport_amqp_device.c **** 
 238:Source\azure_iot_sdk\iothub_client\src/iothubtransport_amqp_device.c ****     switch (result)
 152              		.loc 1 238 0
 153 0000 0028     		cmp	r0, #0
 154 0002 00D0     		beq	.L15
 239:Source\azure_iot_sdk\iothub_client\src/iothubtransport_amqp_device.c ****     {
 240:Source\azure_iot_sdk\iothub_client\src/iothubtransport_amqp_device.c ****     case TWIN_REPORT_STATE_RESULT_SUCCESS:
 241:Source\azure_iot_sdk\iothub_client\src/iothubtransport_amqp_device.c ****         device_result = DEVICE_TWIN_UPDATE_RESULT_OK;
 242:Source\azure_iot_sdk\iothub_client\src/iothubtransport_amqp_device.c ****         break;
 243:Source\azure_iot_sdk\iothub_client\src/iothubtransport_amqp_device.c ****     case TWIN_REPORT_STATE_RESULT_ERROR:
 244:Source\azure_iot_sdk\iothub_client\src/iothubtransport_amqp_device.c ****         device_result = DEVICE_TWIN_UPDATE_RESULT_ERROR;
ARM GAS  C:\Users\Phuong\AppData\Local\Temp\ccrNXYcn.s 			page 8


 155              		.loc 1 244 0
 156 0004 0120     		movs	r0, #1
 157              	.LVL15:
 158              	.L15:
 245:Source\azure_iot_sdk\iothub_client\src/iothubtransport_amqp_device.c ****         break;
 246:Source\azure_iot_sdk\iothub_client\src/iothubtransport_amqp_device.c ****     default:
 247:Source\azure_iot_sdk\iothub_client\src/iothubtransport_amqp_device.c ****         device_result = DEVICE_TWIN_UPDATE_RESULT_ERROR;
 248:Source\azure_iot_sdk\iothub_client\src/iothubtransport_amqp_device.c ****     };
 249:Source\azure_iot_sdk\iothub_client\src/iothubtransport_amqp_device.c **** 
 250:Source\azure_iot_sdk\iothub_client\src/iothubtransport_amqp_device.c ****     return device_result;
 251:Source\azure_iot_sdk\iothub_client\src/iothubtransport_amqp_device.c **** }
 159              		.loc 1 251 0
 160              		@ sp needed
 161 0006 7047     		bx	lr
 162              		.cfi_endproc
 163              	.LFE22:
 164              		.size	get_device_twin_update_result_from, .-get_device_twin_update_result_from
 165              		.section	.text.set_authentication_config,"ax",%progbits
 166              		.align	2
 167              		.code	16
 168              		.thumb_func
 169              		.type	set_authentication_config, %function
 170              	set_authentication_config:
 171              	.LFB34:
 252:Source\azure_iot_sdk\iothub_client\src/iothubtransport_amqp_device.c **** 
 253:Source\azure_iot_sdk\iothub_client\src/iothubtransport_amqp_device.c **** static void on_report_state_complete_callback(TWIN_REPORT_STATE_RESULT result, TWIN_REPORT_STATE_RE
 254:Source\azure_iot_sdk\iothub_client\src/iothubtransport_amqp_device.c **** {
 255:Source\azure_iot_sdk\iothub_client\src/iothubtransport_amqp_device.c ****     (void)reason;
 256:Source\azure_iot_sdk\iothub_client\src/iothubtransport_amqp_device.c **** 
 257:Source\azure_iot_sdk\iothub_client\src/iothubtransport_amqp_device.c ****     if (context == NULL)
 258:Source\azure_iot_sdk\iothub_client\src/iothubtransport_amqp_device.c ****     {
 259:Source\azure_iot_sdk\iothub_client\src/iothubtransport_amqp_device.c ****         LogError("Invalid argument (context is NULL)");
 260:Source\azure_iot_sdk\iothub_client\src/iothubtransport_amqp_device.c ****     }
 261:Source\azure_iot_sdk\iothub_client\src/iothubtransport_amqp_device.c ****     else
 262:Source\azure_iot_sdk\iothub_client\src/iothubtransport_amqp_device.c ****     {
 263:Source\azure_iot_sdk\iothub_client\src/iothubtransport_amqp_device.c ****         DEVICE_SEND_TWIN_UPDATE_CONTEXT* twin_ctx = (DEVICE_SEND_TWIN_UPDATE_CONTEXT*)context;
 264:Source\azure_iot_sdk\iothub_client\src/iothubtransport_amqp_device.c **** 
 265:Source\azure_iot_sdk\iothub_client\src/iothubtransport_amqp_device.c ****         // Codes_SRS_DEVICE_09_141: [on_send_twin_update_complete_callback (if provided by user) sh
 266:Source\azure_iot_sdk\iothub_client\src/iothubtransport_amqp_device.c ****         if (twin_ctx->on_send_twin_update_complete_callback != NULL)
 267:Source\azure_iot_sdk\iothub_client\src/iothubtransport_amqp_device.c ****         {
 268:Source\azure_iot_sdk\iothub_client\src/iothubtransport_amqp_device.c ****             DEVICE_TWIN_UPDATE_RESULT device_result;
 269:Source\azure_iot_sdk\iothub_client\src/iothubtransport_amqp_device.c **** 
 270:Source\azure_iot_sdk\iothub_client\src/iothubtransport_amqp_device.c ****             device_result = get_device_twin_update_result_from(result);
 271:Source\azure_iot_sdk\iothub_client\src/iothubtransport_amqp_device.c **** 
 272:Source\azure_iot_sdk\iothub_client\src/iothubtransport_amqp_device.c ****             twin_ctx->on_send_twin_update_complete_callback(device_result, status_code, twin_ctx->c
 273:Source\azure_iot_sdk\iothub_client\src/iothubtransport_amqp_device.c ****         }
 274:Source\azure_iot_sdk\iothub_client\src/iothubtransport_amqp_device.c **** 
 275:Source\azure_iot_sdk\iothub_client\src/iothubtransport_amqp_device.c ****         // Codes_SRS_DEVICE_09_142: [Memory allocated for `context` shall be released]
 276:Source\azure_iot_sdk\iothub_client\src/iothubtransport_amqp_device.c ****         free(twin_ctx);
 277:Source\azure_iot_sdk\iothub_client\src/iothubtransport_amqp_device.c ****     }
 278:Source\azure_iot_sdk\iothub_client\src/iothubtransport_amqp_device.c **** }
 279:Source\azure_iot_sdk\iothub_client\src/iothubtransport_amqp_device.c **** 
 280:Source\azure_iot_sdk\iothub_client\src/iothubtransport_amqp_device.c **** static void on_twin_state_update_callback(TWIN_UPDATE_TYPE update_type, const char* payload, size_t
 281:Source\azure_iot_sdk\iothub_client\src/iothubtransport_amqp_device.c **** {
 282:Source\azure_iot_sdk\iothub_client\src/iothubtransport_amqp_device.c ****     if (payload == NULL || context == NULL)
 283:Source\azure_iot_sdk\iothub_client\src/iothubtransport_amqp_device.c ****     {
 284:Source\azure_iot_sdk\iothub_client\src/iothubtransport_amqp_device.c ****         LogError("Invalid argument (context=%p, payload=%p)", context, payload);
ARM GAS  C:\Users\Phuong\AppData\Local\Temp\ccrNXYcn.s 			page 9


 285:Source\azure_iot_sdk\iothub_client\src/iothubtransport_amqp_device.c ****     }
 286:Source\azure_iot_sdk\iothub_client\src/iothubtransport_amqp_device.c ****     else
 287:Source\azure_iot_sdk\iothub_client\src/iothubtransport_amqp_device.c ****     {
 288:Source\azure_iot_sdk\iothub_client\src/iothubtransport_amqp_device.c ****         AMQP_DEVICE_INSTANCE* instance = (AMQP_DEVICE_INSTANCE*)context;
 289:Source\azure_iot_sdk\iothub_client\src/iothubtransport_amqp_device.c **** 
 290:Source\azure_iot_sdk\iothub_client\src/iothubtransport_amqp_device.c ****         DEVICE_TWIN_UPDATE_TYPE device_update_type;
 291:Source\azure_iot_sdk\iothub_client\src/iothubtransport_amqp_device.c **** 
 292:Source\azure_iot_sdk\iothub_client\src/iothubtransport_amqp_device.c ****         if (update_type == TWIN_UPDATE_TYPE_COMPLETE)
 293:Source\azure_iot_sdk\iothub_client\src/iothubtransport_amqp_device.c ****         {
 294:Source\azure_iot_sdk\iothub_client\src/iothubtransport_amqp_device.c ****             device_update_type = DEVICE_TWIN_UPDATE_TYPE_COMPLETE;
 295:Source\azure_iot_sdk\iothub_client\src/iothubtransport_amqp_device.c ****         }
 296:Source\azure_iot_sdk\iothub_client\src/iothubtransport_amqp_device.c ****         else
 297:Source\azure_iot_sdk\iothub_client\src/iothubtransport_amqp_device.c ****         {
 298:Source\azure_iot_sdk\iothub_client\src/iothubtransport_amqp_device.c ****             device_update_type = DEVICE_TWIN_UPDATE_TYPE_PARTIAL;
 299:Source\azure_iot_sdk\iothub_client\src/iothubtransport_amqp_device.c ****         }
 300:Source\azure_iot_sdk\iothub_client\src/iothubtransport_amqp_device.c **** 
 301:Source\azure_iot_sdk\iothub_client\src/iothubtransport_amqp_device.c ****         // Codes_SRS_DEVICE_09_151: [on_device_twin_update_received_callback (provided by user) sha
 302:Source\azure_iot_sdk\iothub_client\src/iothubtransport_amqp_device.c ****         instance->on_device_twin_update_received_callback(device_update_type, (const unsigned char*
 303:Source\azure_iot_sdk\iothub_client\src/iothubtransport_amqp_device.c ****     }
 304:Source\azure_iot_sdk\iothub_client\src/iothubtransport_amqp_device.c **** }
 305:Source\azure_iot_sdk\iothub_client\src/iothubtransport_amqp_device.c **** 
 306:Source\azure_iot_sdk\iothub_client\src/iothubtransport_amqp_device.c **** static void on_twin_messenger_state_changed_callback(void* context, TWIN_MESSENGER_STATE previous_s
 307:Source\azure_iot_sdk\iothub_client\src/iothubtransport_amqp_device.c **** {
 308:Source\azure_iot_sdk\iothub_client\src/iothubtransport_amqp_device.c ****     if (context != NULL && new_state != previous_state)
 309:Source\azure_iot_sdk\iothub_client\src/iothubtransport_amqp_device.c ****     {
 310:Source\azure_iot_sdk\iothub_client\src/iothubtransport_amqp_device.c ****         AMQP_DEVICE_INSTANCE* instance = (AMQP_DEVICE_INSTANCE*)context;
 311:Source\azure_iot_sdk\iothub_client\src/iothubtransport_amqp_device.c ****         instance->twin_msgr_state = new_state;
 312:Source\azure_iot_sdk\iothub_client\src/iothubtransport_amqp_device.c **** 
 313:Source\azure_iot_sdk\iothub_client\src/iothubtransport_amqp_device.c ****         if ((instance->twin_msgr_state_last_changed_time = get_time(NULL)) == INDEFINITE_TIME)
 314:Source\azure_iot_sdk\iothub_client\src/iothubtransport_amqp_device.c ****         {
 315:Source\azure_iot_sdk\iothub_client\src/iothubtransport_amqp_device.c ****             LogError("Failed setting time of last twin messenger state changed event");
 316:Source\azure_iot_sdk\iothub_client\src/iothubtransport_amqp_device.c ****         }
 317:Source\azure_iot_sdk\iothub_client\src/iothubtransport_amqp_device.c ****     }
 318:Source\azure_iot_sdk\iothub_client\src/iothubtransport_amqp_device.c **** }
 319:Source\azure_iot_sdk\iothub_client\src/iothubtransport_amqp_device.c **** 
 320:Source\azure_iot_sdk\iothub_client\src/iothubtransport_amqp_device.c **** 
 321:Source\azure_iot_sdk\iothub_client\src/iothubtransport_amqp_device.c **** //---------- Message Dispostion ----------//
 322:Source\azure_iot_sdk\iothub_client\src/iothubtransport_amqp_device.c **** 
 323:Source\azure_iot_sdk\iothub_client\src/iothubtransport_amqp_device.c **** static DEVICE_MESSAGE_DISPOSITION_INFO* create_device_message_disposition_info_from(TELEMETRY_MESSE
 324:Source\azure_iot_sdk\iothub_client\src/iothubtransport_amqp_device.c **** {
 325:Source\azure_iot_sdk\iothub_client\src/iothubtransport_amqp_device.c ****     DEVICE_MESSAGE_DISPOSITION_INFO* device_disposition_info;
 326:Source\azure_iot_sdk\iothub_client\src/iothubtransport_amqp_device.c **** 
 327:Source\azure_iot_sdk\iothub_client\src/iothubtransport_amqp_device.c ****     if ((device_disposition_info = (DEVICE_MESSAGE_DISPOSITION_INFO*)malloc(sizeof(DEVICE_MESSAGE_D
 328:Source\azure_iot_sdk\iothub_client\src/iothubtransport_amqp_device.c ****     {
 329:Source\azure_iot_sdk\iothub_client\src/iothubtransport_amqp_device.c ****         LogError("Failed creating DEVICE_MESSAGE_DISPOSITION_INFO (malloc failed)");
 330:Source\azure_iot_sdk\iothub_client\src/iothubtransport_amqp_device.c ****     }
 331:Source\azure_iot_sdk\iothub_client\src/iothubtransport_amqp_device.c ****     else if (mallocAndStrcpy_s(&device_disposition_info->source, messenger_disposition_info->source
 332:Source\azure_iot_sdk\iothub_client\src/iothubtransport_amqp_device.c ****     {
 333:Source\azure_iot_sdk\iothub_client\src/iothubtransport_amqp_device.c ****         LogError("Failed creating DEVICE_MESSAGE_DISPOSITION_INFO (mallocAndStrcpy_s failed)");
 334:Source\azure_iot_sdk\iothub_client\src/iothubtransport_amqp_device.c ****         free(device_disposition_info);
 335:Source\azure_iot_sdk\iothub_client\src/iothubtransport_amqp_device.c ****         device_disposition_info = NULL;
 336:Source\azure_iot_sdk\iothub_client\src/iothubtransport_amqp_device.c ****     }
 337:Source\azure_iot_sdk\iothub_client\src/iothubtransport_amqp_device.c ****     else
 338:Source\azure_iot_sdk\iothub_client\src/iothubtransport_amqp_device.c ****     {
 339:Source\azure_iot_sdk\iothub_client\src/iothubtransport_amqp_device.c ****         device_disposition_info->message_id = messenger_disposition_info->message_id;
 340:Source\azure_iot_sdk\iothub_client\src/iothubtransport_amqp_device.c ****     }
 341:Source\azure_iot_sdk\iothub_client\src/iothubtransport_amqp_device.c **** 
ARM GAS  C:\Users\Phuong\AppData\Local\Temp\ccrNXYcn.s 			page 10


 342:Source\azure_iot_sdk\iothub_client\src/iothubtransport_amqp_device.c ****     return device_disposition_info;
 343:Source\azure_iot_sdk\iothub_client\src/iothubtransport_amqp_device.c **** }
 344:Source\azure_iot_sdk\iothub_client\src/iothubtransport_amqp_device.c **** 
 345:Source\azure_iot_sdk\iothub_client\src/iothubtransport_amqp_device.c **** static void destroy_device_disposition_info(DEVICE_MESSAGE_DISPOSITION_INFO* disposition_info)
 346:Source\azure_iot_sdk\iothub_client\src/iothubtransport_amqp_device.c **** {
 347:Source\azure_iot_sdk\iothub_client\src/iothubtransport_amqp_device.c ****     free(disposition_info->source);
 348:Source\azure_iot_sdk\iothub_client\src/iothubtransport_amqp_device.c ****     free(disposition_info);
 349:Source\azure_iot_sdk\iothub_client\src/iothubtransport_amqp_device.c **** }
 350:Source\azure_iot_sdk\iothub_client\src/iothubtransport_amqp_device.c **** 
 351:Source\azure_iot_sdk\iothub_client\src/iothubtransport_amqp_device.c **** static TELEMETRY_MESSENGER_MESSAGE_DISPOSITION_INFO* create_messenger_disposition_info(DEVICE_MESSA
 352:Source\azure_iot_sdk\iothub_client\src/iothubtransport_amqp_device.c **** {
 353:Source\azure_iot_sdk\iothub_client\src/iothubtransport_amqp_device.c ****     TELEMETRY_MESSENGER_MESSAGE_DISPOSITION_INFO* messenger_disposition_info;
 354:Source\azure_iot_sdk\iothub_client\src/iothubtransport_amqp_device.c **** 
 355:Source\azure_iot_sdk\iothub_client\src/iothubtransport_amqp_device.c ****     if ((messenger_disposition_info = (TELEMETRY_MESSENGER_MESSAGE_DISPOSITION_INFO*)malloc(sizeof(
 356:Source\azure_iot_sdk\iothub_client\src/iothubtransport_amqp_device.c ****     {
 357:Source\azure_iot_sdk\iothub_client\src/iothubtransport_amqp_device.c ****         LogError("Failed creating TELEMETRY_MESSENGER_MESSAGE_DISPOSITION_INFO (malloc failed)");
 358:Source\azure_iot_sdk\iothub_client\src/iothubtransport_amqp_device.c ****     }
 359:Source\azure_iot_sdk\iothub_client\src/iothubtransport_amqp_device.c ****     else if (mallocAndStrcpy_s(&messenger_disposition_info->source, device_disposition_info->source
 360:Source\azure_iot_sdk\iothub_client\src/iothubtransport_amqp_device.c ****     {
 361:Source\azure_iot_sdk\iothub_client\src/iothubtransport_amqp_device.c ****         LogError("Failed creating TELEMETRY_MESSENGER_MESSAGE_DISPOSITION_INFO (mallocAndStrcpy_s f
 362:Source\azure_iot_sdk\iothub_client\src/iothubtransport_amqp_device.c ****         free(messenger_disposition_info);
 363:Source\azure_iot_sdk\iothub_client\src/iothubtransport_amqp_device.c ****         messenger_disposition_info = NULL;
 364:Source\azure_iot_sdk\iothub_client\src/iothubtransport_amqp_device.c ****     }
 365:Source\azure_iot_sdk\iothub_client\src/iothubtransport_amqp_device.c ****     else
 366:Source\azure_iot_sdk\iothub_client\src/iothubtransport_amqp_device.c ****     {
 367:Source\azure_iot_sdk\iothub_client\src/iothubtransport_amqp_device.c ****         messenger_disposition_info->message_id = (delivery_number)device_disposition_info->message_
 368:Source\azure_iot_sdk\iothub_client\src/iothubtransport_amqp_device.c ****     }
 369:Source\azure_iot_sdk\iothub_client\src/iothubtransport_amqp_device.c **** 
 370:Source\azure_iot_sdk\iothub_client\src/iothubtransport_amqp_device.c ****     return messenger_disposition_info;
 371:Source\azure_iot_sdk\iothub_client\src/iothubtransport_amqp_device.c **** }
 372:Source\azure_iot_sdk\iothub_client\src/iothubtransport_amqp_device.c **** 
 373:Source\azure_iot_sdk\iothub_client\src/iothubtransport_amqp_device.c **** static void destroy_messenger_disposition_info(TELEMETRY_MESSENGER_MESSAGE_DISPOSITION_INFO* messen
 374:Source\azure_iot_sdk\iothub_client\src/iothubtransport_amqp_device.c **** {
 375:Source\azure_iot_sdk\iothub_client\src/iothubtransport_amqp_device.c ****     free(messenger_disposition_info->source);
 376:Source\azure_iot_sdk\iothub_client\src/iothubtransport_amqp_device.c ****     free(messenger_disposition_info);
 377:Source\azure_iot_sdk\iothub_client\src/iothubtransport_amqp_device.c **** }
 378:Source\azure_iot_sdk\iothub_client\src/iothubtransport_amqp_device.c **** 
 379:Source\azure_iot_sdk\iothub_client\src/iothubtransport_amqp_device.c **** static TELEMETRY_MESSENGER_DISPOSITION_RESULT get_messenger_message_disposition_result_from(DEVICE_
 380:Source\azure_iot_sdk\iothub_client\src/iothubtransport_amqp_device.c **** {
 381:Source\azure_iot_sdk\iothub_client\src/iothubtransport_amqp_device.c ****     TELEMETRY_MESSENGER_DISPOSITION_RESULT messenger_disposition_result;
 382:Source\azure_iot_sdk\iothub_client\src/iothubtransport_amqp_device.c **** 
 383:Source\azure_iot_sdk\iothub_client\src/iothubtransport_amqp_device.c ****     switch (device_disposition_result)
 384:Source\azure_iot_sdk\iothub_client\src/iothubtransport_amqp_device.c ****     {
 385:Source\azure_iot_sdk\iothub_client\src/iothubtransport_amqp_device.c ****         case DEVICE_MESSAGE_DISPOSITION_RESULT_NONE:
 386:Source\azure_iot_sdk\iothub_client\src/iothubtransport_amqp_device.c ****             messenger_disposition_result = TELEMETRY_MESSENGER_DISPOSITION_RESULT_NONE;
 387:Source\azure_iot_sdk\iothub_client\src/iothubtransport_amqp_device.c ****             break;
 388:Source\azure_iot_sdk\iothub_client\src/iothubtransport_amqp_device.c ****         case DEVICE_MESSAGE_DISPOSITION_RESULT_ACCEPTED:
 389:Source\azure_iot_sdk\iothub_client\src/iothubtransport_amqp_device.c ****             messenger_disposition_result = TELEMETRY_MESSENGER_DISPOSITION_RESULT_ACCEPTED;
 390:Source\azure_iot_sdk\iothub_client\src/iothubtransport_amqp_device.c ****             break;
 391:Source\azure_iot_sdk\iothub_client\src/iothubtransport_amqp_device.c ****         case DEVICE_MESSAGE_DISPOSITION_RESULT_REJECTED:
 392:Source\azure_iot_sdk\iothub_client\src/iothubtransport_amqp_device.c ****             messenger_disposition_result = TELEMETRY_MESSENGER_DISPOSITION_RESULT_REJECTED;
 393:Source\azure_iot_sdk\iothub_client\src/iothubtransport_amqp_device.c ****             break;
 394:Source\azure_iot_sdk\iothub_client\src/iothubtransport_amqp_device.c ****         case DEVICE_MESSAGE_DISPOSITION_RESULT_RELEASED:
 395:Source\azure_iot_sdk\iothub_client\src/iothubtransport_amqp_device.c ****             messenger_disposition_result = TELEMETRY_MESSENGER_DISPOSITION_RESULT_RELEASED;
 396:Source\azure_iot_sdk\iothub_client\src/iothubtransport_amqp_device.c ****             break;
 397:Source\azure_iot_sdk\iothub_client\src/iothubtransport_amqp_device.c ****         default:
 398:Source\azure_iot_sdk\iothub_client\src/iothubtransport_amqp_device.c ****             LogError("Failed to get the corresponding TELEMETRY_MESSENGER_DISPOSITION_RESULT (%d is
ARM GAS  C:\Users\Phuong\AppData\Local\Temp\ccrNXYcn.s 			page 11


 399:Source\azure_iot_sdk\iothub_client\src/iothubtransport_amqp_device.c ****             messenger_disposition_result = TELEMETRY_MESSENGER_DISPOSITION_RESULT_RELEASED;
 400:Source\azure_iot_sdk\iothub_client\src/iothubtransport_amqp_device.c ****             break;
 401:Source\azure_iot_sdk\iothub_client\src/iothubtransport_amqp_device.c ****     }
 402:Source\azure_iot_sdk\iothub_client\src/iothubtransport_amqp_device.c **** 
 403:Source\azure_iot_sdk\iothub_client\src/iothubtransport_amqp_device.c ****     return messenger_disposition_result;
 404:Source\azure_iot_sdk\iothub_client\src/iothubtransport_amqp_device.c **** }
 405:Source\azure_iot_sdk\iothub_client\src/iothubtransport_amqp_device.c **** 
 406:Source\azure_iot_sdk\iothub_client\src/iothubtransport_amqp_device.c **** static TELEMETRY_MESSENGER_DISPOSITION_RESULT on_messenger_message_received_callback(IOTHUB_MESSAGE
 407:Source\azure_iot_sdk\iothub_client\src/iothubtransport_amqp_device.c **** {
 408:Source\azure_iot_sdk\iothub_client\src/iothubtransport_amqp_device.c ****     TELEMETRY_MESSENGER_DISPOSITION_RESULT msgr_disposition_result;
 409:Source\azure_iot_sdk\iothub_client\src/iothubtransport_amqp_device.c **** 
 410:Source\azure_iot_sdk\iothub_client\src/iothubtransport_amqp_device.c ****     // Codes_SRS_DEVICE_09_070: [If `iothub_message_handle` or `context` is NULL, on_messenger_mess
 411:Source\azure_iot_sdk\iothub_client\src/iothubtransport_amqp_device.c ****     if (iothub_message_handle == NULL || context == NULL)
 412:Source\azure_iot_sdk\iothub_client\src/iothubtransport_amqp_device.c ****     {
 413:Source\azure_iot_sdk\iothub_client\src/iothubtransport_amqp_device.c ****         LogError("Failed receiving incoming C2D message (message handle (%p) or context (%p) is NUL
 414:Source\azure_iot_sdk\iothub_client\src/iothubtransport_amqp_device.c ****         msgr_disposition_result = TELEMETRY_MESSENGER_DISPOSITION_RESULT_RELEASED;
 415:Source\azure_iot_sdk\iothub_client\src/iothubtransport_amqp_device.c ****     }
 416:Source\azure_iot_sdk\iothub_client\src/iothubtransport_amqp_device.c ****     else
 417:Source\azure_iot_sdk\iothub_client\src/iothubtransport_amqp_device.c ****     {
 418:Source\azure_iot_sdk\iothub_client\src/iothubtransport_amqp_device.c ****         AMQP_DEVICE_INSTANCE* device_instance = (AMQP_DEVICE_INSTANCE*)context;
 419:Source\azure_iot_sdk\iothub_client\src/iothubtransport_amqp_device.c **** 
 420:Source\azure_iot_sdk\iothub_client\src/iothubtransport_amqp_device.c ****         if (device_instance->on_message_received_callback == NULL)
 421:Source\azure_iot_sdk\iothub_client\src/iothubtransport_amqp_device.c ****         {
 422:Source\azure_iot_sdk\iothub_client\src/iothubtransport_amqp_device.c ****             LogError("Device '%s' failed receiving incoming C2D message (callback is NULL)", device
 423:Source\azure_iot_sdk\iothub_client\src/iothubtransport_amqp_device.c ****             msgr_disposition_result = TELEMETRY_MESSENGER_DISPOSITION_RESULT_RELEASED;
 424:Source\azure_iot_sdk\iothub_client\src/iothubtransport_amqp_device.c ****         }
 425:Source\azure_iot_sdk\iothub_client\src/iothubtransport_amqp_device.c ****         else
 426:Source\azure_iot_sdk\iothub_client\src/iothubtransport_amqp_device.c ****         {
 427:Source\azure_iot_sdk\iothub_client\src/iothubtransport_amqp_device.c ****             DEVICE_MESSAGE_DISPOSITION_INFO* device_message_disposition_info;
 428:Source\azure_iot_sdk\iothub_client\src/iothubtransport_amqp_device.c **** 
 429:Source\azure_iot_sdk\iothub_client\src/iothubtransport_amqp_device.c ****             // Codes_SRS_DEVICE_09_119: [A DEVICE_MESSAGE_DISPOSITION_INFO instance shall be create
 430:Source\azure_iot_sdk\iothub_client\src/iothubtransport_amqp_device.c ****             if ((device_message_disposition_info = create_device_message_disposition_info_from(disp
 431:Source\azure_iot_sdk\iothub_client\src/iothubtransport_amqp_device.c ****             {
 432:Source\azure_iot_sdk\iothub_client\src/iothubtransport_amqp_device.c ****                 // Codes_SRS_DEVICE_09_120: [If the DEVICE_MESSAGE_DISPOSITION_INFO instance fails 
 433:Source\azure_iot_sdk\iothub_client\src/iothubtransport_amqp_device.c ****                 LogError("Device '%s' failed receiving incoming C2D message (failed creating DEVICE
 434:Source\azure_iot_sdk\iothub_client\src/iothubtransport_amqp_device.c ****                 msgr_disposition_result = TELEMETRY_MESSENGER_DISPOSITION_RESULT_RELEASED;
 435:Source\azure_iot_sdk\iothub_client\src/iothubtransport_amqp_device.c ****             }
 436:Source\azure_iot_sdk\iothub_client\src/iothubtransport_amqp_device.c ****             else
 437:Source\azure_iot_sdk\iothub_client\src/iothubtransport_amqp_device.c ****             {
 438:Source\azure_iot_sdk\iothub_client\src/iothubtransport_amqp_device.c ****                 // Codes_SRS_DEVICE_09_071: [The user callback shall be invoked, passing the contex
 439:Source\azure_iot_sdk\iothub_client\src/iothubtransport_amqp_device.c ****                 DEVICE_MESSAGE_DISPOSITION_RESULT device_disposition_result = device_instance->on_m
 440:Source\azure_iot_sdk\iothub_client\src/iothubtransport_amqp_device.c **** 
 441:Source\azure_iot_sdk\iothub_client\src/iothubtransport_amqp_device.c ****                 // Codes_SRS_DEVICE_09_072: [If the user callback returns DEVICE_MESSAGE_DISPOSITIO
 442:Source\azure_iot_sdk\iothub_client\src/iothubtransport_amqp_device.c ****                 // Codes_SRS_DEVICE_09_073: [If the user callback returns DEVICE_MESSAGE_DISPOSITIO
 443:Source\azure_iot_sdk\iothub_client\src/iothubtransport_amqp_device.c ****                 // Codes_SRS_DEVICE_09_074: [If the user callback returns DEVICE_MESSAGE_DISPOSITIO
 444:Source\azure_iot_sdk\iothub_client\src/iothubtransport_amqp_device.c ****                 msgr_disposition_result = get_messenger_message_disposition_result_from(device_disp
 445:Source\azure_iot_sdk\iothub_client\src/iothubtransport_amqp_device.c **** 
 446:Source\azure_iot_sdk\iothub_client\src/iothubtransport_amqp_device.c ****                 // Codes_SRS_DEVICE_09_121: [on_messenger_message_received_callback shall release t
 447:Source\azure_iot_sdk\iothub_client\src/iothubtransport_amqp_device.c ****                 destroy_device_disposition_info(device_message_disposition_info);
 448:Source\azure_iot_sdk\iothub_client\src/iothubtransport_amqp_device.c ****             }
 449:Source\azure_iot_sdk\iothub_client\src/iothubtransport_amqp_device.c ****         }
 450:Source\azure_iot_sdk\iothub_client\src/iothubtransport_amqp_device.c ****     }
 451:Source\azure_iot_sdk\iothub_client\src/iothubtransport_amqp_device.c **** 
 452:Source\azure_iot_sdk\iothub_client\src/iothubtransport_amqp_device.c ****     return msgr_disposition_result;
 453:Source\azure_iot_sdk\iothub_client\src/iothubtransport_amqp_device.c **** }
 454:Source\azure_iot_sdk\iothub_client\src/iothubtransport_amqp_device.c **** 
 455:Source\azure_iot_sdk\iothub_client\src/iothubtransport_amqp_device.c **** 
ARM GAS  C:\Users\Phuong\AppData\Local\Temp\ccrNXYcn.s 			page 12


 456:Source\azure_iot_sdk\iothub_client\src/iothubtransport_amqp_device.c **** //---------- Configuration Helpers ----------//
 457:Source\azure_iot_sdk\iothub_client\src/iothubtransport_amqp_device.c **** 
 458:Source\azure_iot_sdk\iothub_client\src/iothubtransport_amqp_device.c **** static void destroy_device_config(DEVICE_CONFIG* config)
 459:Source\azure_iot_sdk\iothub_client\src/iothubtransport_amqp_device.c **** {
 460:Source\azure_iot_sdk\iothub_client\src/iothubtransport_amqp_device.c ****     if (config != NULL)
 461:Source\azure_iot_sdk\iothub_client\src/iothubtransport_amqp_device.c ****     {
 462:Source\azure_iot_sdk\iothub_client\src/iothubtransport_amqp_device.c ****         free(config->product_info);
 463:Source\azure_iot_sdk\iothub_client\src/iothubtransport_amqp_device.c ****         free(config->iothub_host_fqdn);
 464:Source\azure_iot_sdk\iothub_client\src/iothubtransport_amqp_device.c ****         free(config);
 465:Source\azure_iot_sdk\iothub_client\src/iothubtransport_amqp_device.c ****     }
 466:Source\azure_iot_sdk\iothub_client\src/iothubtransport_amqp_device.c **** }
 467:Source\azure_iot_sdk\iothub_client\src/iothubtransport_amqp_device.c **** 
 468:Source\azure_iot_sdk\iothub_client\src/iothubtransport_amqp_device.c **** static DEVICE_CONFIG* clone_device_config(DEVICE_CONFIG *config)
 469:Source\azure_iot_sdk\iothub_client\src/iothubtransport_amqp_device.c **** {
 470:Source\azure_iot_sdk\iothub_client\src/iothubtransport_amqp_device.c ****     DEVICE_CONFIG* new_config;
 471:Source\azure_iot_sdk\iothub_client\src/iothubtransport_amqp_device.c **** 
 472:Source\azure_iot_sdk\iothub_client\src/iothubtransport_amqp_device.c ****     if ((new_config = (DEVICE_CONFIG*)malloc(sizeof(DEVICE_CONFIG))) == NULL)
 473:Source\azure_iot_sdk\iothub_client\src/iothubtransport_amqp_device.c ****     {
 474:Source\azure_iot_sdk\iothub_client\src/iothubtransport_amqp_device.c ****         LogError("Failed copying the DEVICE_CONFIG (malloc failed)");
 475:Source\azure_iot_sdk\iothub_client\src/iothubtransport_amqp_device.c ****     }
 476:Source\azure_iot_sdk\iothub_client\src/iothubtransport_amqp_device.c ****     else
 477:Source\azure_iot_sdk\iothub_client\src/iothubtransport_amqp_device.c ****     {
 478:Source\azure_iot_sdk\iothub_client\src/iothubtransport_amqp_device.c ****         int result;
 479:Source\azure_iot_sdk\iothub_client\src/iothubtransport_amqp_device.c ****         memset(new_config, 0, sizeof(DEVICE_CONFIG));
 480:Source\azure_iot_sdk\iothub_client\src/iothubtransport_amqp_device.c **** 
 481:Source\azure_iot_sdk\iothub_client\src/iothubtransport_amqp_device.c ****         if (config->product_info != NULL &&
 482:Source\azure_iot_sdk\iothub_client\src/iothubtransport_amqp_device.c ****             mallocAndStrcpy_s(&new_config->product_info, config->product_info) != RESULT_OK)
 483:Source\azure_iot_sdk\iothub_client\src/iothubtransport_amqp_device.c ****         {
 484:Source\azure_iot_sdk\iothub_client\src/iothubtransport_amqp_device.c ****             LogError("Failed copying the DEVICE_CONFIG (failed copying product_info)");
 485:Source\azure_iot_sdk\iothub_client\src/iothubtransport_amqp_device.c ****             result = __FAILURE__;
 486:Source\azure_iot_sdk\iothub_client\src/iothubtransport_amqp_device.c ****         }
 487:Source\azure_iot_sdk\iothub_client\src/iothubtransport_amqp_device.c ****         else if (mallocAndStrcpy_s(&new_config->iothub_host_fqdn, config->iothub_host_fqdn) != RESU
 488:Source\azure_iot_sdk\iothub_client\src/iothubtransport_amqp_device.c ****         {
 489:Source\azure_iot_sdk\iothub_client\src/iothubtransport_amqp_device.c ****             LogError("Failed copying the DEVICE_CONFIG (failed copying iothub_host_fqdn)");
 490:Source\azure_iot_sdk\iothub_client\src/iothubtransport_amqp_device.c ****             result = __FAILURE__;
 491:Source\azure_iot_sdk\iothub_client\src/iothubtransport_amqp_device.c ****         }
 492:Source\azure_iot_sdk\iothub_client\src/iothubtransport_amqp_device.c ****         else
 493:Source\azure_iot_sdk\iothub_client\src/iothubtransport_amqp_device.c ****         {
 494:Source\azure_iot_sdk\iothub_client\src/iothubtransport_amqp_device.c ****             new_config->authorization_module = config->authorization_module;
 495:Source\azure_iot_sdk\iothub_client\src/iothubtransport_amqp_device.c ****             new_config->authentication_mode = config->authentication_mode;
 496:Source\azure_iot_sdk\iothub_client\src/iothubtransport_amqp_device.c ****             new_config->on_state_changed_callback = config->on_state_changed_callback;
 497:Source\azure_iot_sdk\iothub_client\src/iothubtransport_amqp_device.c ****             new_config->on_state_changed_context = config->on_state_changed_context;
 498:Source\azure_iot_sdk\iothub_client\src/iothubtransport_amqp_device.c ****             new_config->device_id = IoTHubClient_Auth_Get_DeviceId(config->authorization_module);
 499:Source\azure_iot_sdk\iothub_client\src/iothubtransport_amqp_device.c ****             new_config->module_id = IoTHubClient_Auth_Get_ModuleId(config->authorization_module);
 500:Source\azure_iot_sdk\iothub_client\src/iothubtransport_amqp_device.c ****             result = RESULT_OK;
 501:Source\azure_iot_sdk\iothub_client\src/iothubtransport_amqp_device.c ****         }
 502:Source\azure_iot_sdk\iothub_client\src/iothubtransport_amqp_device.c **** 
 503:Source\azure_iot_sdk\iothub_client\src/iothubtransport_amqp_device.c ****         if (result != RESULT_OK)
 504:Source\azure_iot_sdk\iothub_client\src/iothubtransport_amqp_device.c ****         {
 505:Source\azure_iot_sdk\iothub_client\src/iothubtransport_amqp_device.c ****             destroy_device_config(new_config);
 506:Source\azure_iot_sdk\iothub_client\src/iothubtransport_amqp_device.c ****             new_config = NULL;
 507:Source\azure_iot_sdk\iothub_client\src/iothubtransport_amqp_device.c ****         }
 508:Source\azure_iot_sdk\iothub_client\src/iothubtransport_amqp_device.c ****     }
 509:Source\azure_iot_sdk\iothub_client\src/iothubtransport_amqp_device.c **** 
 510:Source\azure_iot_sdk\iothub_client\src/iothubtransport_amqp_device.c ****     return new_config;
 511:Source\azure_iot_sdk\iothub_client\src/iothubtransport_amqp_device.c **** }
 512:Source\azure_iot_sdk\iothub_client\src/iothubtransport_amqp_device.c **** 
ARM GAS  C:\Users\Phuong\AppData\Local\Temp\ccrNXYcn.s 			page 13


 513:Source\azure_iot_sdk\iothub_client\src/iothubtransport_amqp_device.c **** static void set_authentication_config(AMQP_DEVICE_INSTANCE* device_instance, AUTHENTICATION_CONFIG*
 514:Source\azure_iot_sdk\iothub_client\src/iothubtransport_amqp_device.c **** {
 172              		.loc 1 514 0
 173              		.cfi_startproc
 174              		@ args = 0, pretend = 0, frame = 0
 175              		@ frame_needed = 0, uses_anonymous_args = 0
 176              		@ link register save eliminated.
 177              	.LVL16:
 515:Source\azure_iot_sdk\iothub_client\src/iothubtransport_amqp_device.c ****     DEVICE_CONFIG *device_config = device_instance->config;
 178              		.loc 1 515 0
 179 0000 0368     		ldr	r3, [r0]
 180              	.LVL17:
 516:Source\azure_iot_sdk\iothub_client\src/iothubtransport_amqp_device.c **** 
 517:Source\azure_iot_sdk\iothub_client\src/iothubtransport_amqp_device.c ****     auth_config->device_id = device_config->device_id;
 181              		.loc 1 517 0
 182 0002 1A68     		ldr	r2, [r3]
 183 0004 0A60     		str	r2, [r1]
 518:Source\azure_iot_sdk\iothub_client\src/iothubtransport_amqp_device.c ****     auth_config->module_id = device_config->module_id;
 184              		.loc 1 518 0
 185 0006 5A68     		ldr	r2, [r3, #4]
 186 0008 4A60     		str	r2, [r1, #4]
 519:Source\azure_iot_sdk\iothub_client\src/iothubtransport_amqp_device.c ****     auth_config->iothub_host_fqdn = device_config->iothub_host_fqdn;
 187              		.loc 1 519 0
 188 000a DA68     		ldr	r2, [r3, #12]
 189 000c 8A60     		str	r2, [r1, #8]
 520:Source\azure_iot_sdk\iothub_client\src/iothubtransport_amqp_device.c ****     auth_config->on_error_callback = on_authentication_error_callback;
 190              		.loc 1 520 0
 191 000e 044A     		ldr	r2, .L20
 192 0010 4A61     		str	r2, [r1, #20]
 521:Source\azure_iot_sdk\iothub_client\src/iothubtransport_amqp_device.c ****     auth_config->on_error_callback_context = device_instance;
 193              		.loc 1 521 0
 194 0012 8861     		str	r0, [r1, #24]
 522:Source\azure_iot_sdk\iothub_client\src/iothubtransport_amqp_device.c ****     auth_config->on_state_changed_callback = on_authentication_state_changed_callback;
 195              		.loc 1 522 0
 196 0014 034A     		ldr	r2, .L20+4
 197 0016 CA60     		str	r2, [r1, #12]
 523:Source\azure_iot_sdk\iothub_client\src/iothubtransport_amqp_device.c ****     auth_config->on_state_changed_callback_context = device_instance;
 198              		.loc 1 523 0
 199 0018 0861     		str	r0, [r1, #16]
 524:Source\azure_iot_sdk\iothub_client\src/iothubtransport_amqp_device.c ****     auth_config->authorization_module = device_config->authorization_module;
 200              		.loc 1 524 0
 201 001a DB69     		ldr	r3, [r3, #28]
 202              	.LVL18:
 203 001c CB61     		str	r3, [r1, #28]
 525:Source\azure_iot_sdk\iothub_client\src/iothubtransport_amqp_device.c **** }
 204              		.loc 1 525 0
 205              		@ sp needed
 206 001e 7047     		bx	lr
 207              	.L21:
 208              		.align	2
 209              	.L20:
 210 0020 00000000 		.word	on_authentication_error_callback
 211 0024 00000000 		.word	on_authentication_state_changed_callback
 212              		.cfi_endproc
 213              	.LFE34:
 214              		.size	set_authentication_config, .-set_authentication_config
 215              		.section	.text.on_authentication_error_callback,"ax",%progbits
ARM GAS  C:\Users\Phuong\AppData\Local\Temp\ccrNXYcn.s 			page 14


 216              		.align	2
 217              		.code	16
 218              		.thumb_func
 219              		.type	on_authentication_error_callback, %function
 220              	on_authentication_error_callback:
 221              	.LFB19:
 186:Source\azure_iot_sdk\iothub_client\src/iothubtransport_amqp_device.c ****     if (context == NULL)
 222              		.loc 1 186 0
 223              		.cfi_startproc
 224              		@ args = 0, pretend = 0, frame = 0
 225              		@ frame_needed = 0, uses_anonymous_args = 0
 226              	.LVL19:
 227 0000 30B5     		push	{r4, r5, lr}
 228              		.cfi_def_cfa_offset 12
 229              		.cfi_offset 4, -12
 230              		.cfi_offset 5, -8
 231              		.cfi_offset 14, -4
 232 0002 85B0     		sub	sp, sp, #20
 233              		.cfi_def_cfa_offset 32
 234 0004 0C00     		movs	r4, r1
 187:Source\azure_iot_sdk\iothub_client\src/iothubtransport_amqp_device.c ****     {
 235              		.loc 1 187 0
 236 0006 0028     		cmp	r0, #0
 237 0008 0ED1     		bne	.L23
 238              	.LBB3:
 189:Source\azure_iot_sdk\iothub_client\src/iothubtransport_amqp_device.c ****     }
 239              		.loc 1 189 0 discriminator 3
 240 000a FFF7FEFF 		bl	xlogging_get_log_function
 241              	.LVL20:
 242 000e 051E     		subs	r5, r0, #0
 243              	.LVL21:
 244 0010 0BD0     		beq	.L22
 189:Source\azure_iot_sdk\iothub_client\src/iothubtransport_amqp_device.c ****     }
 245              		.loc 1 189 0 is_stmt 0 discriminator 4
 246 0012 0294     		str	r4, [sp, #8]
 247 0014 064B     		ldr	r3, .L25
 248 0016 0193     		str	r3, [sp, #4]
 249 0018 0123     		movs	r3, #1
 250 001a 0093     		str	r3, [sp]
 251 001c BC33     		adds	r3, r3, #188
 252 001e 054A     		ldr	r2, .L25+4
 253 0020 0549     		ldr	r1, .L25+8
 254 0022 0020     		movs	r0, #0
 255              	.LVL22:
 256 0024 A847     		blx	r5
 257              	.LVL23:
 258 0026 00E0     		b	.L22
 259              	.LVL24:
 260              	.L23:
 261              	.LBE3:
 262              	.LBB4:
 194:Source\azure_iot_sdk\iothub_client\src/iothubtransport_amqp_device.c ****     }
 263              		.loc 1 194 0 is_stmt 1
 264 0028 4175     		strb	r1, [r0, #21]
 265              	.LVL25:
 266              	.L22:
 267              	.LBE4:
ARM GAS  C:\Users\Phuong\AppData\Local\Temp\ccrNXYcn.s 			page 15


 196:Source\azure_iot_sdk\iothub_client\src/iothubtransport_amqp_device.c **** 
 268              		.loc 1 196 0
 269 002a 05B0     		add	sp, sp, #20
 270              		@ sp needed
 271 002c 30BD     		pop	{r4, r5, pc}
 272              	.L26:
 273 002e C046     		.align	2
 274              	.L25:
 275 0030 48000000 		.word	.LC6
 276 0034 14000000 		.word	.LANCHOR0
 277 0038 00000000 		.word	.LC4
 278              		.cfi_endproc
 279              	.LFE19:
 280              		.size	on_authentication_error_callback, .-on_authentication_error_callback
 281              		.section	.text.get_messenger_message_disposition_result_from,"ax",%progbits
 282              		.align	2
 283              		.code	16
 284              		.thumb_func
 285              		.type	get_messenger_message_disposition_result_from, %function
 286              	get_messenger_message_disposition_result_from:
 287              	.LFB30:
 380:Source\azure_iot_sdk\iothub_client\src/iothubtransport_amqp_device.c ****     TELEMETRY_MESSENGER_DISPOSITION_RESULT messenger_disposition_result;
 288              		.loc 1 380 0
 289              		.cfi_startproc
 290              		@ args = 0, pretend = 0, frame = 0
 291              		@ frame_needed = 0, uses_anonymous_args = 0
 292              	.LVL26:
 293 0000 30B5     		push	{r4, r5, lr}
 294              		.cfi_def_cfa_offset 12
 295              		.cfi_offset 4, -12
 296              		.cfi_offset 5, -8
 297              		.cfi_offset 14, -4
 298 0002 85B0     		sub	sp, sp, #20
 299              		.cfi_def_cfa_offset 32
 300 0004 0400     		movs	r4, r0
 383:Source\azure_iot_sdk\iothub_client\src/iothubtransport_amqp_device.c ****     {
 301              		.loc 1 383 0
 302 0006 0128     		cmp	r0, #1
 303 0008 1ED0     		beq	.L33
 304 000a 0028     		cmp	r0, #0
 305 000c 04D0     		beq	.L30
 306 000e 0228     		cmp	r0, #2
 307 0010 04D0     		beq	.L31
 308 0012 0328     		cmp	r0, #3
 309 0014 04D0     		beq	.L32
 310 0016 05E0     		b	.L35
 311              	.L30:
 386:Source\azure_iot_sdk\iothub_client\src/iothubtransport_amqp_device.c ****             break;
 312              		.loc 1 386 0
 313 0018 0020     		movs	r0, #0
 314              	.LVL27:
 315 001a 18E0     		b	.L29
 316              	.LVL28:
 317              	.L31:
 392:Source\azure_iot_sdk\iothub_client\src/iothubtransport_amqp_device.c ****             break;
 318              		.loc 1 392 0
 319 001c 0220     		movs	r0, #2
ARM GAS  C:\Users\Phuong\AppData\Local\Temp\ccrNXYcn.s 			page 16


 320              	.LVL29:
 393:Source\azure_iot_sdk\iothub_client\src/iothubtransport_amqp_device.c ****         case DEVICE_MESSAGE_DISPOSITION_RESULT_RELEASED:
 321              		.loc 1 393 0
 322 001e 16E0     		b	.L29
 323              	.LVL30:
 324              	.L32:
 395:Source\azure_iot_sdk\iothub_client\src/iothubtransport_amqp_device.c ****             break;
 325              		.loc 1 395 0
 326 0020 0320     		movs	r0, #3
 327              	.LVL31:
 396:Source\azure_iot_sdk\iothub_client\src/iothubtransport_amqp_device.c ****         default:
 328              		.loc 1 396 0
 329 0022 14E0     		b	.L29
 330              	.LVL32:
 331              	.L35:
 332              	.LBB5:
 398:Source\azure_iot_sdk\iothub_client\src/iothubtransport_amqp_device.c ****             messenger_disposition_result = TELEMETRY_MESSENGER_DISPOSITION_RESULT_RELEASED;
 333              		.loc 1 398 0 discriminator 3
 334 0024 FFF7FEFF 		bl	xlogging_get_log_function
 335              	.LVL33:
 336 0028 051E     		subs	r5, r0, #0
 337              	.LVL34:
 338 002a 0FD0     		beq	.L34
 398:Source\azure_iot_sdk\iothub_client\src/iothubtransport_amqp_device.c ****             messenger_disposition_result = TELEMETRY_MESSENGER_DISPOSITION_RESULT_RELEASED;
 339              		.loc 1 398 0 is_stmt 0 discriminator 4
 340 002c 0294     		str	r4, [sp, #8]
 341 002e 094B     		ldr	r3, .L36
 342 0030 0193     		str	r3, [sp, #4]
 343 0032 0123     		movs	r3, #1
 344 0034 0093     		str	r3, [sp]
 345 0036 8E33     		adds	r3, r3, #142
 346 0038 FF33     		adds	r3, r3, #255
 347 003a 074A     		ldr	r2, .L36+4
 348 003c 2432     		adds	r2, r2, #36
 349 003e 0749     		ldr	r1, .L36+8
 350 0040 0020     		movs	r0, #0
 351              	.LVL35:
 352 0042 A847     		blx	r5
 353              	.LVL36:
 354              	.LBE5:
 399:Source\azure_iot_sdk\iothub_client\src/iothubtransport_amqp_device.c ****             break;
 355              		.loc 1 399 0 is_stmt 1 discriminator 4
 356 0044 0320     		movs	r0, #3
 357 0046 02E0     		b	.L29
 358              	.LVL37:
 359              	.L33:
 389:Source\azure_iot_sdk\iothub_client\src/iothubtransport_amqp_device.c ****             break;
 360              		.loc 1 389 0
 361 0048 0120     		movs	r0, #1
 362              	.LVL38:
 363 004a 00E0     		b	.L29
 364              	.LVL39:
 365              	.L34:
 399:Source\azure_iot_sdk\iothub_client\src/iothubtransport_amqp_device.c ****             break;
 366              		.loc 1 399 0
 367 004c 0320     		movs	r0, #3
 368              	.LVL40:
ARM GAS  C:\Users\Phuong\AppData\Local\Temp\ccrNXYcn.s 			page 17


 369              	.L29:
 404:Source\azure_iot_sdk\iothub_client\src/iothubtransport_amqp_device.c **** 
 370              		.loc 1 404 0
 371 004e 05B0     		add	sp, sp, #20
 372              		@ sp needed
 373 0050 30BD     		pop	{r4, r5, pc}
 374              	.L37:
 375 0052 C046     		.align	2
 376              	.L36:
 377 0054 98000000 		.word	.LC10
 378 0058 14000000 		.word	.LANCHOR0
 379 005c 00000000 		.word	.LC4
 380              		.cfi_endproc
 381              	.LFE30:
 382              		.size	get_messenger_message_disposition_result_from, .-get_messenger_message_disposition_result_fr
 383              		.section	.text.on_twin_state_update_callback,"ax",%progbits
 384              		.align	2
 385              		.code	16
 386              		.thumb_func
 387              		.type	on_twin_state_update_callback, %function
 388              	on_twin_state_update_callback:
 389              	.LFB24:
 281:Source\azure_iot_sdk\iothub_client\src/iothubtransport_amqp_device.c ****     if (payload == NULL || context == NULL)
 390              		.loc 1 281 0
 391              		.cfi_startproc
 392              		@ args = 0, pretend = 0, frame = 0
 393              		@ frame_needed = 0, uses_anonymous_args = 0
 394              	.LVL41:
 395 0000 70B5     		push	{r4, r5, r6, lr}
 396              		.cfi_def_cfa_offset 16
 397              		.cfi_offset 4, -16
 398              		.cfi_offset 5, -12
 399              		.cfi_offset 6, -8
 400              		.cfi_offset 14, -4
 401 0002 84B0     		sub	sp, sp, #16
 402              		.cfi_def_cfa_offset 32
 403 0004 0D00     		movs	r5, r1
 404 0006 1C00     		movs	r4, r3
 282:Source\azure_iot_sdk\iothub_client\src/iothubtransport_amqp_device.c ****     {
 405              		.loc 1 282 0
 406 0008 0029     		cmp	r1, #0
 407 000a 01D0     		beq	.L39
 282:Source\azure_iot_sdk\iothub_client\src/iothubtransport_amqp_device.c ****     {
 408              		.loc 1 282 0 is_stmt 0 discriminator 1
 409 000c 002B     		cmp	r3, #0
 410 000e 11D1     		bne	.L40
 411              	.L39:
 412              	.LBB6:
 284:Source\azure_iot_sdk\iothub_client\src/iothubtransport_amqp_device.c ****     }
 413              		.loc 1 284 0 is_stmt 1 discriminator 3
 414 0010 FFF7FEFF 		bl	xlogging_get_log_function
 415              	.LVL42:
 416 0014 061E     		subs	r6, r0, #0
 417              	.LVL43:
 418 0016 14D0     		beq	.L38
 284:Source\azure_iot_sdk\iothub_client\src/iothubtransport_amqp_device.c ****     }
 419              		.loc 1 284 0 is_stmt 0 discriminator 4
ARM GAS  C:\Users\Phuong\AppData\Local\Temp\ccrNXYcn.s 			page 18


 420 0018 0395     		str	r5, [sp, #12]
 421 001a 0294     		str	r4, [sp, #8]
 422 001c 0A4B     		ldr	r3, .L44
 423 001e 0193     		str	r3, [sp, #4]
 424 0020 0123     		movs	r3, #1
 425 0022 0093     		str	r3, [sp]
 426 0024 1C33     		adds	r3, r3, #28
 427 0026 FF33     		adds	r3, r3, #255
 428 0028 084A     		ldr	r2, .L44+4
 429 002a 5432     		adds	r2, r2, #84
 430 002c 0849     		ldr	r1, .L44+8
 431 002e 0020     		movs	r0, #0
 432              	.LVL44:
 433 0030 B047     		blx	r6
 434              	.LVL45:
 435 0032 06E0     		b	.L38
 436              	.LVL46:
 437              	.L40:
 438              	.LBE6:
 439              	.LBB7:
 292:Source\azure_iot_sdk\iothub_client\src/iothubtransport_amqp_device.c ****         {
 440              		.loc 1 292 0 is_stmt 1
 441 0034 0128     		cmp	r0, #1
 442 0036 00D0     		beq	.L42
 298:Source\azure_iot_sdk\iothub_client\src/iothubtransport_amqp_device.c ****         }
 443              		.loc 1 298 0
 444 0038 0020     		movs	r0, #0
 445              	.LVL47:
 446              	.L42:
 302:Source\azure_iot_sdk\iothub_client\src/iothubtransport_amqp_device.c ****     }
 447              		.loc 1 302 0
 448 003a A66C     		ldr	r6, [r4, #72]
 449 003c E36C     		ldr	r3, [r4, #76]
 450              	.LVL48:
 451 003e 2900     		movs	r1, r5
 452              	.LVL49:
 453 0040 B047     		blx	r6
 454              	.LVL50:
 455              	.L38:
 456              	.LBE7:
 304:Source\azure_iot_sdk\iothub_client\src/iothubtransport_amqp_device.c **** 
 457              		.loc 1 304 0
 458 0042 04B0     		add	sp, sp, #16
 459              		@ sp needed
 460              	.LVL51:
 461              	.LVL52:
 462 0044 70BD     		pop	{r4, r5, r6, pc}
 463              	.L45:
 464 0046 C046     		.align	2
 465              	.L44:
 466 0048 F8000000 		.word	.LC14
 467 004c 14000000 		.word	.LANCHOR0
 468 0050 00000000 		.word	.LC4
 469              		.cfi_endproc
 470              	.LFE24:
 471              		.size	on_twin_state_update_callback, .-on_twin_state_update_callback
 472              		.section	.text.destroy_device_config,"ax",%progbits
ARM GAS  C:\Users\Phuong\AppData\Local\Temp\ccrNXYcn.s 			page 19


 473              		.align	2
 474              		.code	16
 475              		.thumb_func
 476              		.type	destroy_device_config, %function
 477              	destroy_device_config:
 478              	.LFB32:
 459:Source\azure_iot_sdk\iothub_client\src/iothubtransport_amqp_device.c ****     if (config != NULL)
 479              		.loc 1 459 0
 480              		.cfi_startproc
 481              		@ args = 0, pretend = 0, frame = 0
 482              		@ frame_needed = 0, uses_anonymous_args = 0
 483              	.LVL53:
 484 0000 10B5     		push	{r4, lr}
 485              		.cfi_def_cfa_offset 8
 486              		.cfi_offset 4, -8
 487              		.cfi_offset 14, -4
 488 0002 041E     		subs	r4, r0, #0
 460:Source\azure_iot_sdk\iothub_client\src/iothubtransport_amqp_device.c ****     {
 489              		.loc 1 460 0
 490 0004 08D0     		beq	.L46
 462:Source\azure_iot_sdk\iothub_client\src/iothubtransport_amqp_device.c ****         free(config->iothub_host_fqdn);
 491              		.loc 1 462 0
 492 0006 8068     		ldr	r0, [r0, #8]
 493              	.LVL54:
 494 0008 FFF7FEFF 		bl	free
 495              	.LVL55:
 463:Source\azure_iot_sdk\iothub_client\src/iothubtransport_amqp_device.c ****         free(config);
 496              		.loc 1 463 0
 497 000c E068     		ldr	r0, [r4, #12]
 498 000e FFF7FEFF 		bl	free
 499              	.LVL56:
 464:Source\azure_iot_sdk\iothub_client\src/iothubtransport_amqp_device.c ****     }
 500              		.loc 1 464 0
 501 0012 2000     		movs	r0, r4
 502 0014 FFF7FEFF 		bl	free
 503              	.LVL57:
 504              	.L46:
 466:Source\azure_iot_sdk\iothub_client\src/iothubtransport_amqp_device.c **** 
 505              		.loc 1 466 0
 506              		@ sp needed
 507              	.LVL58:
 508 0018 10BD     		pop	{r4, pc}
 509              		.cfi_endproc
 510              	.LFE32:
 511              		.size	destroy_device_config, .-destroy_device_config
 512 001a C046     		.section	.text.clone_device_config,"ax",%progbits
 513              		.align	2
 514              		.code	16
 515              		.thumb_func
 516              		.type	clone_device_config, %function
 517              	clone_device_config:
 518              	.LFB33:
 469:Source\azure_iot_sdk\iothub_client\src/iothubtransport_amqp_device.c ****     DEVICE_CONFIG* new_config;
 519              		.loc 1 469 0
 520              		.cfi_startproc
 521              		@ args = 0, pretend = 0, frame = 0
 522              		@ frame_needed = 0, uses_anonymous_args = 0
ARM GAS  C:\Users\Phuong\AppData\Local\Temp\ccrNXYcn.s 			page 20


 523              	.LVL59:
 524 0000 30B5     		push	{r4, r5, lr}
 525              		.cfi_def_cfa_offset 12
 526              		.cfi_offset 4, -12
 527              		.cfi_offset 5, -8
 528              		.cfi_offset 14, -4
 529 0002 83B0     		sub	sp, sp, #12
 530              		.cfi_def_cfa_offset 24
 531 0004 0500     		movs	r5, r0
 472:Source\azure_iot_sdk\iothub_client\src/iothubtransport_amqp_device.c ****     {
 532              		.loc 1 472 0
 533 0006 2020     		movs	r0, #32
 534              	.LVL60:
 535 0008 FFF7FEFF 		bl	malloc
 536              	.LVL61:
 537 000c 041E     		subs	r4, r0, #0
 538              	.LVL62:
 539 000e 0FD1     		bne	.L49
 540              	.LBB8:
 474:Source\azure_iot_sdk\iothub_client\src/iothubtransport_amqp_device.c ****     }
 541              		.loc 1 474 0 discriminator 3
 542 0010 FFF7FEFF 		bl	xlogging_get_log_function
 543              	.LVL63:
 544 0014 051E     		subs	r5, r0, #0
 545              	.LVL64:
 546 0016 60D0     		beq	.L50
 474:Source\azure_iot_sdk\iothub_client\src/iothubtransport_amqp_device.c ****     }
 547              		.loc 1 474 0 is_stmt 0 discriminator 4
 548 0018 314B     		ldr	r3, .L56
 549 001a 0193     		str	r3, [sp, #4]
 550 001c 0123     		movs	r3, #1
 551 001e 0093     		str	r3, [sp]
 552 0020 DA33     		adds	r3, r3, #218
 553 0022 FF33     		adds	r3, r3, #255
 554 0024 2F4A     		ldr	r2, .L56+4
 555 0026 7432     		adds	r2, r2, #116
 556 0028 2F49     		ldr	r1, .L56+8
 557 002a 0020     		movs	r0, #0
 558              	.LVL65:
 559 002c A847     		blx	r5
 560              	.LVL66:
 561 002e 54E0     		b	.L50
 562              	.LVL67:
 563              	.L49:
 564              	.LBE8:
 565              	.LBB9:
 479:Source\azure_iot_sdk\iothub_client\src/iothubtransport_amqp_device.c **** 
 566              		.loc 1 479 0 is_stmt 1
 567 0030 2022     		movs	r2, #32
 568 0032 0021     		movs	r1, #0
 569 0034 FFF7FEFF 		bl	memset
 570              	.LVL68:
 481:Source\azure_iot_sdk\iothub_client\src/iothubtransport_amqp_device.c ****             mallocAndStrcpy_s(&new_config->product_info, config->product_info) != RESULT_OK)
 571              		.loc 1 481 0
 572 0038 A968     		ldr	r1, [r5, #8]
 573 003a 0029     		cmp	r1, #0
 574 003c 17D0     		beq	.L51
ARM GAS  C:\Users\Phuong\AppData\Local\Temp\ccrNXYcn.s 			page 21


 482:Source\azure_iot_sdk\iothub_client\src/iothubtransport_amqp_device.c ****         {
 575              		.loc 1 482 0 discriminator 1
 576 003e 2000     		movs	r0, r4
 577 0040 0830     		adds	r0, r0, #8
 578 0042 FFF7FEFF 		bl	mallocAndStrcpy_s
 579              	.LVL69:
 481:Source\azure_iot_sdk\iothub_client\src/iothubtransport_amqp_device.c ****             mallocAndStrcpy_s(&new_config->product_info, config->product_info) != RESULT_OK)
 580              		.loc 1 481 0 discriminator 1
 581 0046 0028     		cmp	r0, #0
 582 0048 11D0     		beq	.L51
 583              	.LBB10:
 484:Source\azure_iot_sdk\iothub_client\src/iothubtransport_amqp_device.c ****             result = __FAILURE__;
 584              		.loc 1 484 0 discriminator 3
 585 004a FFF7FEFF 		bl	xlogging_get_log_function
 586              	.LVL70:
 587 004e 051E     		subs	r5, r0, #0
 588              	.LVL71:
 589 0050 38D0     		beq	.L54
 484:Source\azure_iot_sdk\iothub_client\src/iothubtransport_amqp_device.c ****             result = __FAILURE__;
 590              		.loc 1 484 0 is_stmt 0 discriminator 4
 591 0052 264B     		ldr	r3, .L56+12
 592 0054 0193     		str	r3, [sp, #4]
 593 0056 0123     		movs	r3, #1
 594 0058 0093     		str	r3, [sp]
 595 005a E433     		adds	r3, r3, #228
 596 005c FF33     		adds	r3, r3, #255
 597 005e 214A     		ldr	r2, .L56+4
 598 0060 7432     		adds	r2, r2, #116
 599 0062 2149     		ldr	r1, .L56+8
 600 0064 0020     		movs	r0, #0
 601              	.LVL72:
 602 0066 A847     		blx	r5
 603              	.LVL73:
 604              	.LBE10:
 485:Source\azure_iot_sdk\iothub_client\src/iothubtransport_amqp_device.c ****         }
 605              		.loc 1 485 0 is_stmt 1 discriminator 4
 606 0068 E623     		movs	r3, #230
 607 006a FF33     		adds	r3, r3, #255
 608 006c 2FE0     		b	.L52
 609              	.LVL74:
 610              	.L51:
 487:Source\azure_iot_sdk\iothub_client\src/iothubtransport_amqp_device.c ****         {
 611              		.loc 1 487 0
 612 006e 2000     		movs	r0, r4
 613 0070 0C30     		adds	r0, r0, #12
 614 0072 E968     		ldr	r1, [r5, #12]
 615 0074 FFF7FEFF 		bl	mallocAndStrcpy_s
 616              	.LVL75:
 617 0078 0028     		cmp	r0, #0
 618 007a 11D0     		beq	.L53
 619              	.LBB11:
 489:Source\azure_iot_sdk\iothub_client\src/iothubtransport_amqp_device.c ****             result = __FAILURE__;
 620              		.loc 1 489 0 discriminator 3
 621 007c FFF7FEFF 		bl	xlogging_get_log_function
 622              	.LVL76:
 623 0080 051E     		subs	r5, r0, #0
 624              	.LVL77:
ARM GAS  C:\Users\Phuong\AppData\Local\Temp\ccrNXYcn.s 			page 22


 625 0082 22D0     		beq	.L55
 489:Source\azure_iot_sdk\iothub_client\src/iothubtransport_amqp_device.c ****             result = __FAILURE__;
 626              		.loc 1 489 0 is_stmt 0 discriminator 4
 627 0084 1A4B     		ldr	r3, .L56+16
 628 0086 0193     		str	r3, [sp, #4]
 629 0088 0123     		movs	r3, #1
 630 008a 0093     		str	r3, [sp]
 631 008c EA23     		movs	r3, #234
 632 008e FF33     		adds	r3, r3, #255
 633 0090 144A     		ldr	r2, .L56+4
 634 0092 7432     		adds	r2, r2, #116
 635 0094 1449     		ldr	r1, .L56+8
 636 0096 0020     		movs	r0, #0
 637              	.LVL78:
 638 0098 A847     		blx	r5
 639              	.LVL79:
 640              	.LBE11:
 490:Source\azure_iot_sdk\iothub_client\src/iothubtransport_amqp_device.c ****         }
 641              		.loc 1 490 0 is_stmt 1 discriminator 4
 642 009a F523     		movs	r3, #245
 643 009c 5B00     		lsls	r3, r3, #1
 644 009e 16E0     		b	.L52
 645              	.LVL80:
 646              	.L53:
 494:Source\azure_iot_sdk\iothub_client\src/iothubtransport_amqp_device.c ****             new_config->authentication_mode = config->authentication_mode;
 647              		.loc 1 494 0
 648 00a0 EB69     		ldr	r3, [r5, #28]
 649 00a2 E361     		str	r3, [r4, #28]
 495:Source\azure_iot_sdk\iothub_client\src/iothubtransport_amqp_device.c ****             new_config->on_state_changed_callback = config->on_state_changed_callback;
 650              		.loc 1 495 0
 651 00a4 2B7C     		ldrb	r3, [r5, #16]
 652 00a6 2374     		strb	r3, [r4, #16]
 496:Source\azure_iot_sdk\iothub_client\src/iothubtransport_amqp_device.c ****             new_config->on_state_changed_context = config->on_state_changed_context;
 653              		.loc 1 496 0
 654 00a8 6B69     		ldr	r3, [r5, #20]
 655 00aa 6361     		str	r3, [r4, #20]
 497:Source\azure_iot_sdk\iothub_client\src/iothubtransport_amqp_device.c ****             new_config->device_id = IoTHubClient_Auth_Get_DeviceId(config->authorization_module);
 656              		.loc 1 497 0
 657 00ac AB69     		ldr	r3, [r5, #24]
 658 00ae A361     		str	r3, [r4, #24]
 498:Source\azure_iot_sdk\iothub_client\src/iothubtransport_amqp_device.c ****             new_config->module_id = IoTHubClient_Auth_Get_ModuleId(config->authorization_module);
 659              		.loc 1 498 0
 660 00b0 E869     		ldr	r0, [r5, #28]
 661 00b2 FFF7FEFF 		bl	IoTHubClient_Auth_Get_DeviceId
 662              	.LVL81:
 663 00b6 2060     		str	r0, [r4]
 499:Source\azure_iot_sdk\iothub_client\src/iothubtransport_amqp_device.c ****             result = RESULT_OK;
 664              		.loc 1 499 0
 665 00b8 E869     		ldr	r0, [r5, #28]
 666 00ba FFF7FEFF 		bl	IoTHubClient_Auth_Get_ModuleId
 667              	.LVL82:
 668 00be 6060     		str	r0, [r4, #4]
 669              	.LVL83:
 500:Source\azure_iot_sdk\iothub_client\src/iothubtransport_amqp_device.c ****         }
 670              		.loc 1 500 0
 671 00c0 0023     		movs	r3, #0
 672 00c2 04E0     		b	.L52
ARM GAS  C:\Users\Phuong\AppData\Local\Temp\ccrNXYcn.s 			page 23


 673              	.LVL84:
 674              	.L54:
 485:Source\azure_iot_sdk\iothub_client\src/iothubtransport_amqp_device.c ****         }
 675              		.loc 1 485 0
 676 00c4 E623     		movs	r3, #230
 677 00c6 FF33     		adds	r3, r3, #255
 678 00c8 01E0     		b	.L52
 679              	.LVL85:
 680              	.L55:
 490:Source\azure_iot_sdk\iothub_client\src/iothubtransport_amqp_device.c ****         }
 681              		.loc 1 490 0
 682 00ca F523     		movs	r3, #245
 683 00cc 5B00     		lsls	r3, r3, #1
 684              	.LVL86:
 685              	.L52:
 503:Source\azure_iot_sdk\iothub_client\src/iothubtransport_amqp_device.c ****         {
 686              		.loc 1 503 0
 687 00ce 002B     		cmp	r3, #0
 688 00d0 03D0     		beq	.L50
 505:Source\azure_iot_sdk\iothub_client\src/iothubtransport_amqp_device.c ****             new_config = NULL;
 689              		.loc 1 505 0
 690 00d2 2000     		movs	r0, r4
 691 00d4 FFF7FEFF 		bl	destroy_device_config
 692              	.LVL87:
 506:Source\azure_iot_sdk\iothub_client\src/iothubtransport_amqp_device.c ****         }
 693              		.loc 1 506 0
 694 00d8 0024     		movs	r4, #0
 695              	.LVL88:
 696              	.L50:
 697              	.LBE9:
 511:Source\azure_iot_sdk\iothub_client\src/iothubtransport_amqp_device.c **** 
 698              		.loc 1 511 0
 699 00da 2000     		movs	r0, r4
 700 00dc 03B0     		add	sp, sp, #12
 701              		@ sp needed
 702              	.LVL89:
 703 00de 30BD     		pop	{r4, r5, pc}
 704              	.L57:
 705              		.align	2
 706              	.L56:
 707 00e0 24010000 		.word	.LC18
 708 00e4 14000000 		.word	.LANCHOR0
 709 00e8 00000000 		.word	.LC4
 710 00ec 58010000 		.word	.LC20
 711 00f0 98010000 		.word	.LC22
 712              		.cfi_endproc
 713              	.LFE33:
 714              		.size	clone_device_config, .-clone_device_config
 715              		.section	.text.on_event_send_complete_messenger_callback,"ax",%progbits
 716              		.align	2
 717              		.code	16
 718              		.thumb_func
 719              		.type	on_event_send_complete_messenger_callback, %function
 720              	on_event_send_complete_messenger_callback:
 721              	.LFB18:
 158:Source\azure_iot_sdk\iothub_client\src/iothubtransport_amqp_device.c ****     if (iothub_message == NULL || context == NULL)
 722              		.loc 1 158 0
ARM GAS  C:\Users\Phuong\AppData\Local\Temp\ccrNXYcn.s 			page 24


 723              		.cfi_startproc
 724              		@ args = 0, pretend = 0, frame = 0
 725              		@ frame_needed = 0, uses_anonymous_args = 0
 726              	.LVL90:
 727 0000 70B5     		push	{r4, r5, r6, lr}
 728              		.cfi_def_cfa_offset 16
 729              		.cfi_offset 4, -16
 730              		.cfi_offset 5, -12
 731              		.cfi_offset 6, -8
 732              		.cfi_offset 14, -4
 733 0002 84B0     		sub	sp, sp, #16
 734              		.cfi_def_cfa_offset 32
 735 0004 0500     		movs	r5, r0
 736 0006 1400     		movs	r4, r2
 159:Source\azure_iot_sdk\iothub_client\src/iothubtransport_amqp_device.c ****     {
 737              		.loc 1 159 0
 738 0008 0028     		cmp	r0, #0
 739 000a 01D0     		beq	.L59
 159:Source\azure_iot_sdk\iothub_client\src/iothubtransport_amqp_device.c ****     {
 740              		.loc 1 159 0 is_stmt 0 discriminator 1
 741 000c 002A     		cmp	r2, #0
 742 000e 10D1     		bne	.L60
 743              	.L59:
 744              	.LBB12:
 161:Source\azure_iot_sdk\iothub_client\src/iothubtransport_amqp_device.c ****     }
 745              		.loc 1 161 0 is_stmt 1 discriminator 3
 746 0010 FFF7FEFF 		bl	xlogging_get_log_function
 747              	.LVL91:
 748 0014 061E     		subs	r6, r0, #0
 749              	.LVL92:
 750 0016 19D0     		beq	.L58
 161:Source\azure_iot_sdk\iothub_client\src/iothubtransport_amqp_device.c ****     }
 751              		.loc 1 161 0 is_stmt 0 discriminator 4
 752 0018 0394     		str	r4, [sp, #12]
 753 001a 0295     		str	r5, [sp, #8]
 754 001c 0C4B     		ldr	r3, .L63
 755 001e 0193     		str	r3, [sp, #4]
 756 0020 0123     		movs	r3, #1
 757 0022 0093     		str	r3, [sp]
 758 0024 A033     		adds	r3, r3, #160
 759 0026 0B4A     		ldr	r2, .L63+4
 760 0028 0832     		adds	r2, r2, #8
 761 002a 0B49     		ldr	r1, .L63+8
 762 002c 0020     		movs	r0, #0
 763              	.LVL93:
 764 002e B047     		blx	r6
 765              	.LVL94:
 766 0030 0CE0     		b	.L58
 767              	.LVL95:
 768              	.L60:
 769              	.LBE12:
 770              	.LBB13:
 172:Source\azure_iot_sdk\iothub_client\src/iothubtransport_amqp_device.c **** 
 771              		.loc 1 172 0 is_stmt 1
 772 0032 0800     		movs	r0, r1
 773              	.LVL96:
 774 0034 FFF7FEFF 		bl	get_d2c_event_send_result_from
ARM GAS  C:\Users\Phuong\AppData\Local\Temp\ccrNXYcn.s 			page 25


 775              	.LVL97:
 175:Source\azure_iot_sdk\iothub_client\src/iothubtransport_amqp_device.c ****         {
 776              		.loc 1 175 0
 777 0038 2368     		ldr	r3, [r4]
 778 003a 002B     		cmp	r3, #0
 779 003c 03D0     		beq	.L62
 177:Source\azure_iot_sdk\iothub_client\src/iothubtransport_amqp_device.c ****         }
 780              		.loc 1 177 0
 781 003e 6268     		ldr	r2, [r4, #4]
 782 0040 0100     		movs	r1, r0
 783 0042 2800     		movs	r0, r5
 784              	.LVL98:
 785 0044 9847     		blx	r3
 786              	.LVL99:
 787              	.L62:
 181:Source\azure_iot_sdk\iothub_client\src/iothubtransport_amqp_device.c ****     }
 788              		.loc 1 181 0
 789 0046 2000     		movs	r0, r4
 790 0048 FFF7FEFF 		bl	free
 791              	.LVL100:
 792              	.L58:
 793              	.LBE13:
 183:Source\azure_iot_sdk\iothub_client\src/iothubtransport_amqp_device.c **** 
 794              		.loc 1 183 0
 795 004c 04B0     		add	sp, sp, #16
 796              		@ sp needed
 797              	.LVL101:
 798              	.LVL102:
 799 004e 70BD     		pop	{r4, r5, r6, pc}
 800              	.L64:
 801              		.align	2
 802              	.L63:
 803 0050 DC010000 		.word	.LC26
 804 0054 94000000 		.word	.LANCHOR1
 805 0058 00000000 		.word	.LC4
 806              		.cfi_endproc
 807              	.LFE18:
 808              		.size	on_event_send_complete_messenger_callback, .-on_event_send_complete_messenger_callback
 809              		.section	.text.create_device_message_disposition_info_from,"ax",%progbits
 810              		.align	2
 811              		.code	16
 812              		.thumb_func
 813              		.type	create_device_message_disposition_info_from, %function
 814              	create_device_message_disposition_info_from:
 815              	.LFB26:
 324:Source\azure_iot_sdk\iothub_client\src/iothubtransport_amqp_device.c ****     DEVICE_MESSAGE_DISPOSITION_INFO* device_disposition_info;
 816              		.loc 1 324 0
 817              		.cfi_startproc
 818              		@ args = 0, pretend = 0, frame = 0
 819              		@ frame_needed = 0, uses_anonymous_args = 0
 820              	.LVL103:
 821 0000 30B5     		push	{r4, r5, lr}
 822              		.cfi_def_cfa_offset 12
 823              		.cfi_offset 4, -12
 824              		.cfi_offset 5, -8
 825              		.cfi_offset 14, -4
 826 0002 83B0     		sub	sp, sp, #12
ARM GAS  C:\Users\Phuong\AppData\Local\Temp\ccrNXYcn.s 			page 26


 827              		.cfi_def_cfa_offset 24
 828 0004 0500     		movs	r5, r0
 327:Source\azure_iot_sdk\iothub_client\src/iothubtransport_amqp_device.c ****     {
 829              		.loc 1 327 0
 830 0006 0820     		movs	r0, #8
 831              	.LVL104:
 832 0008 FFF7FEFF 		bl	malloc
 833              	.LVL105:
 834 000c 041E     		subs	r4, r0, #0
 835              	.LVL106:
 836 000e 0FD1     		bne	.L66
 837              	.LBB14:
 329:Source\azure_iot_sdk\iothub_client\src/iothubtransport_amqp_device.c ****     }
 838              		.loc 1 329 0 discriminator 3
 839 0010 FFF7FEFF 		bl	xlogging_get_log_function
 840              	.LVL107:
 841 0014 051E     		subs	r5, r0, #0
 842              	.LVL108:
 843 0016 27D0     		beq	.L67
 329:Source\azure_iot_sdk\iothub_client\src/iothubtransport_amqp_device.c ****     }
 844              		.loc 1 329 0 is_stmt 0 discriminator 4
 845 0018 154B     		ldr	r3, .L70
 846 001a 0193     		str	r3, [sp, #4]
 847 001c 0123     		movs	r3, #1
 848 001e 0093     		str	r3, [sp]
 849 0020 4A23     		movs	r3, #74
 850 0022 FF33     		adds	r3, r3, #255
 851 0024 134A     		ldr	r2, .L70+4
 852 0026 3432     		adds	r2, r2, #52
 853 0028 1349     		ldr	r1, .L70+8
 854 002a 0020     		movs	r0, #0
 855              	.LVL109:
 856 002c A847     		blx	r5
 857              	.LVL110:
 858 002e 1BE0     		b	.L67
 859              	.LVL111:
 860              	.L66:
 861              	.LBE14:
 331:Source\azure_iot_sdk\iothub_client\src/iothubtransport_amqp_device.c ****     {
 862              		.loc 1 331 0 is_stmt 1
 863 0030 0430     		adds	r0, r0, #4
 864              	.LVL112:
 865 0032 6968     		ldr	r1, [r5, #4]
 866 0034 FFF7FEFF 		bl	mallocAndStrcpy_s
 867              	.LVL113:
 868 0038 0028     		cmp	r0, #0
 869 003a 13D0     		beq	.L68
 870              	.LBB15:
 333:Source\azure_iot_sdk\iothub_client\src/iothubtransport_amqp_device.c ****         free(device_disposition_info);
 871              		.loc 1 333 0 discriminator 3
 872 003c FFF7FEFF 		bl	xlogging_get_log_function
 873              	.LVL114:
 874 0040 051E     		subs	r5, r0, #0
 875              	.LVL115:
 876 0042 0AD0     		beq	.L69
 333:Source\azure_iot_sdk\iothub_client\src/iothubtransport_amqp_device.c ****         free(device_disposition_info);
 877              		.loc 1 333 0 is_stmt 0 discriminator 4
ARM GAS  C:\Users\Phuong\AppData\Local\Temp\ccrNXYcn.s 			page 27


 878 0044 0D4B     		ldr	r3, .L70+12
 879 0046 0193     		str	r3, [sp, #4]
 880 0048 0123     		movs	r3, #1
 881 004a 0093     		str	r3, [sp]
 882 004c 4E23     		movs	r3, #78
 883 004e FF33     		adds	r3, r3, #255
 884 0050 084A     		ldr	r2, .L70+4
 885 0052 3432     		adds	r2, r2, #52
 886 0054 0849     		ldr	r1, .L70+8
 887 0056 0020     		movs	r0, #0
 888              	.LVL116:
 889 0058 A847     		blx	r5
 890              	.LVL117:
 891              	.L69:
 892              	.LBE15:
 334:Source\azure_iot_sdk\iothub_client\src/iothubtransport_amqp_device.c ****         device_disposition_info = NULL;
 893              		.loc 1 334 0 is_stmt 1
 894 005a 2000     		movs	r0, r4
 895 005c FFF7FEFF 		bl	free
 896              	.LVL118:
 335:Source\azure_iot_sdk\iothub_client\src/iothubtransport_amqp_device.c ****     }
 897              		.loc 1 335 0
 898 0060 0024     		movs	r4, #0
 899 0062 01E0     		b	.L67
 900              	.LVL119:
 901              	.L68:
 339:Source\azure_iot_sdk\iothub_client\src/iothubtransport_amqp_device.c ****     }
 902              		.loc 1 339 0
 903 0064 2B68     		ldr	r3, [r5]
 904 0066 2360     		str	r3, [r4]
 905              	.LVL120:
 906              	.L67:
 343:Source\azure_iot_sdk\iothub_client\src/iothubtransport_amqp_device.c **** 
 907              		.loc 1 343 0
 908 0068 2000     		movs	r0, r4
 909 006a 03B0     		add	sp, sp, #12
 910              		@ sp needed
 911              	.LVL121:
 912 006c 30BD     		pop	{r4, r5, pc}
 913              	.L71:
 914 006e C046     		.align	2
 915              	.L70:
 916 0070 4C020000 		.word	.LC30
 917 0074 94000000 		.word	.LANCHOR1
 918 0078 00000000 		.word	.LC4
 919 007c 8C020000 		.word	.LC32
 920              		.cfi_endproc
 921              	.LFE26:
 922              		.size	create_device_message_disposition_info_from, .-create_device_message_disposition_info_from
 923              		.section	.text.destroy_device_disposition_info,"ax",%progbits
 924              		.align	2
 925              		.code	16
 926              		.thumb_func
 927              		.type	destroy_device_disposition_info, %function
 928              	destroy_device_disposition_info:
 929              	.LFB27:
 346:Source\azure_iot_sdk\iothub_client\src/iothubtransport_amqp_device.c ****     free(disposition_info->source);
ARM GAS  C:\Users\Phuong\AppData\Local\Temp\ccrNXYcn.s 			page 28


 930              		.loc 1 346 0
 931              		.cfi_startproc
 932              		@ args = 0, pretend = 0, frame = 0
 933              		@ frame_needed = 0, uses_anonymous_args = 0
 934              	.LVL122:
 935 0000 10B5     		push	{r4, lr}
 936              		.cfi_def_cfa_offset 8
 937              		.cfi_offset 4, -8
 938              		.cfi_offset 14, -4
 939 0002 0400     		movs	r4, r0
 347:Source\azure_iot_sdk\iothub_client\src/iothubtransport_amqp_device.c ****     free(disposition_info);
 940              		.loc 1 347 0
 941 0004 4068     		ldr	r0, [r0, #4]
 942              	.LVL123:
 943 0006 FFF7FEFF 		bl	free
 944              	.LVL124:
 348:Source\azure_iot_sdk\iothub_client\src/iothubtransport_amqp_device.c **** }
 945              		.loc 1 348 0
 946 000a 2000     		movs	r0, r4
 947 000c FFF7FEFF 		bl	free
 948              	.LVL125:
 349:Source\azure_iot_sdk\iothub_client\src/iothubtransport_amqp_device.c **** 
 949              		.loc 1 349 0
 950              		@ sp needed
 951              	.LVL126:
 952 0010 10BD     		pop	{r4, pc}
 953              		.cfi_endproc
 954              	.LFE27:
 955              		.size	destroy_device_disposition_info, .-destroy_device_disposition_info
 956 0012 C046     		.section	.text.on_messenger_message_received_callback,"ax",%progbits
 957              		.align	2
 958              		.code	16
 959              		.thumb_func
 960              		.type	on_messenger_message_received_callback, %function
 961              	on_messenger_message_received_callback:
 962              	.LFB31:
 407:Source\azure_iot_sdk\iothub_client\src/iothubtransport_amqp_device.c ****     TELEMETRY_MESSENGER_DISPOSITION_RESULT msgr_disposition_result;
 963              		.loc 1 407 0
 964              		.cfi_startproc
 965              		@ args = 0, pretend = 0, frame = 0
 966              		@ frame_needed = 0, uses_anonymous_args = 0
 967              	.LVL127:
 968 0000 70B5     		push	{r4, r5, r6, lr}
 969              		.cfi_def_cfa_offset 16
 970              		.cfi_offset 4, -16
 971              		.cfi_offset 5, -12
 972              		.cfi_offset 6, -8
 973              		.cfi_offset 14, -4
 974 0002 84B0     		sub	sp, sp, #16
 975              		.cfi_def_cfa_offset 32
 976 0004 0600     		movs	r6, r0
 977 0006 1400     		movs	r4, r2
 411:Source\azure_iot_sdk\iothub_client\src/iothubtransport_amqp_device.c ****     {
 978              		.loc 1 411 0
 979 0008 0028     		cmp	r0, #0
 980 000a 01D0     		beq	.L74
 411:Source\azure_iot_sdk\iothub_client\src/iothubtransport_amqp_device.c ****     {
ARM GAS  C:\Users\Phuong\AppData\Local\Temp\ccrNXYcn.s 			page 29


 981              		.loc 1 411 0 is_stmt 0 discriminator 1
 982 000c 002A     		cmp	r2, #0
 983 000e 12D1     		bne	.L75
 984              	.L74:
 985              	.LBB16:
 413:Source\azure_iot_sdk\iothub_client\src/iothubtransport_amqp_device.c ****         msgr_disposition_result = TELEMETRY_MESSENGER_DISPOSITION_RESULT_RELEASED;
 986              		.loc 1 413 0 is_stmt 1 discriminator 3
 987 0010 FFF7FEFF 		bl	xlogging_get_log_function
 988              	.LVL128:
 989 0014 051E     		subs	r5, r0, #0
 990              	.LVL129:
 991 0016 4AD0     		beq	.L79
 413:Source\azure_iot_sdk\iothub_client\src/iothubtransport_amqp_device.c ****         msgr_disposition_result = TELEMETRY_MESSENGER_DISPOSITION_RESULT_RELEASED;
 992              		.loc 1 413 0 is_stmt 0 discriminator 4
 993 0018 0394     		str	r4, [sp, #12]
 994 001a 0296     		str	r6, [sp, #8]
 995 001c 284B     		ldr	r3, .L82
 996 001e 0193     		str	r3, [sp, #4]
 997 0020 0123     		movs	r3, #1
 998 0022 0093     		str	r3, [sp]
 999 0024 9E23     		movs	r3, #158
 1000 0026 FF33     		adds	r3, r3, #255
 1001 0028 264A     		ldr	r2, .L82+4
 1002 002a 6032     		adds	r2, r2, #96
 1003 002c 2649     		ldr	r1, .L82+8
 1004 002e 0020     		movs	r0, #0
 1005              	.LVL130:
 1006 0030 A847     		blx	r5
 1007              	.LVL131:
 1008              	.LBE16:
 414:Source\azure_iot_sdk\iothub_client\src/iothubtransport_amqp_device.c ****     }
 1009              		.loc 1 414 0 is_stmt 1 discriminator 4
 1010 0032 0324     		movs	r4, #3
 1011              	.LVL132:
 1012 0034 40E0     		b	.L76
 1013              	.LVL133:
 1014              	.L75:
 1015              	.LBB17:
 420:Source\azure_iot_sdk\iothub_client\src/iothubtransport_amqp_device.c ****         {
 1016              		.loc 1 420 0
 1017 0036 136B     		ldr	r3, [r2, #48]
 1018 0038 002B     		cmp	r3, #0
 1019 003a 13D1     		bne	.L77
 1020              	.LBB18:
 422:Source\azure_iot_sdk\iothub_client\src/iothubtransport_amqp_device.c ****             msgr_disposition_result = TELEMETRY_MESSENGER_DISPOSITION_RESULT_RELEASED;
 1021              		.loc 1 422 0 discriminator 3
 1022 003c FFF7FEFF 		bl	xlogging_get_log_function
 1023              	.LVL134:
 1024 0040 051E     		subs	r5, r0, #0
 1025              	.LVL135:
 1026 0042 36D0     		beq	.L80
 422:Source\azure_iot_sdk\iothub_client\src/iothubtransport_amqp_device.c ****             msgr_disposition_result = TELEMETRY_MESSENGER_DISPOSITION_RESULT_RELEASED;
 1027              		.loc 1 422 0 is_stmt 0 discriminator 4
 1028 0044 2368     		ldr	r3, [r4]
 1029 0046 1B68     		ldr	r3, [r3]
 1030 0048 0293     		str	r3, [sp, #8]
 1031 004a 204B     		ldr	r3, .L82+12
ARM GAS  C:\Users\Phuong\AppData\Local\Temp\ccrNXYcn.s 			page 30


 1032 004c 0193     		str	r3, [sp, #4]
 1033 004e 0123     		movs	r3, #1
 1034 0050 0093     		str	r3, [sp]
 1035 0052 A633     		adds	r3, r3, #166
 1036 0054 FF33     		adds	r3, r3, #255
 1037 0056 1B4A     		ldr	r2, .L82+4
 1038 0058 6032     		adds	r2, r2, #96
 1039 005a 1B49     		ldr	r1, .L82+8
 1040 005c 0020     		movs	r0, #0
 1041              	.LVL136:
 1042 005e A847     		blx	r5
 1043              	.LVL137:
 1044              	.LBE18:
 423:Source\azure_iot_sdk\iothub_client\src/iothubtransport_amqp_device.c ****         }
 1045              		.loc 1 423 0 is_stmt 1 discriminator 4
 1046 0060 0324     		movs	r4, #3
 1047              	.LVL138:
 1048 0062 29E0     		b	.L76
 1049              	.LVL139:
 1050              	.L77:
 1051              	.LBB19:
 430:Source\azure_iot_sdk\iothub_client\src/iothubtransport_amqp_device.c ****             {
 1052              		.loc 1 430 0
 1053 0064 0800     		movs	r0, r1
 1054              	.LVL140:
 1055 0066 FFF7FEFF 		bl	create_device_message_disposition_info_from
 1056              	.LVL141:
 1057 006a 051E     		subs	r5, r0, #0
 1058              	.LVL142:
 1059 006c 13D1     		bne	.L78
 1060              	.LBB20:
 433:Source\azure_iot_sdk\iothub_client\src/iothubtransport_amqp_device.c ****                 msgr_disposition_result = TELEMETRY_MESSENGER_DISPOSITION_RESULT_RELEASED;
 1061              		.loc 1 433 0 discriminator 3
 1062 006e FFF7FEFF 		bl	xlogging_get_log_function
 1063              	.LVL143:
 1064 0072 051E     		subs	r5, r0, #0
 1065              	.LVL144:
 1066 0074 1FD0     		beq	.L81
 433:Source\azure_iot_sdk\iothub_client\src/iothubtransport_amqp_device.c ****                 msgr_disposition_result = TELEMETRY_MESSENGER_DISPOSITION_RESULT_RELEASED;
 1067              		.loc 1 433 0 is_stmt 0 discriminator 4
 1068 0076 2368     		ldr	r3, [r4]
 1069 0078 1B68     		ldr	r3, [r3]
 1070 007a 0293     		str	r3, [sp, #8]
 1071 007c 144B     		ldr	r3, .L82+16
 1072 007e 0193     		str	r3, [sp, #4]
 1073 0080 0123     		movs	r3, #1
 1074 0082 0093     		str	r3, [sp]
 1075 0084 B223     		movs	r3, #178
 1076 0086 FF33     		adds	r3, r3, #255
 1077 0088 0E4A     		ldr	r2, .L82+4
 1078 008a 6032     		adds	r2, r2, #96
 1079 008c 0E49     		ldr	r1, .L82+8
 1080 008e 0020     		movs	r0, #0
 1081              	.LVL145:
 1082 0090 A847     		blx	r5
 1083              	.LVL146:
 1084              	.LBE20:
ARM GAS  C:\Users\Phuong\AppData\Local\Temp\ccrNXYcn.s 			page 31


 434:Source\azure_iot_sdk\iothub_client\src/iothubtransport_amqp_device.c ****             }
 1085              		.loc 1 434 0 is_stmt 1 discriminator 4
 1086 0092 0324     		movs	r4, #3
 1087              	.LVL147:
 1088 0094 10E0     		b	.L76
 1089              	.LVL148:
 1090              	.L78:
 1091              	.LBB21:
 439:Source\azure_iot_sdk\iothub_client\src/iothubtransport_amqp_device.c **** 
 1092              		.loc 1 439 0
 1093 0096 236B     		ldr	r3, [r4, #48]
 1094 0098 626B     		ldr	r2, [r4, #52]
 1095 009a 0100     		movs	r1, r0
 1096 009c 3000     		movs	r0, r6
 1097              	.LVL149:
 1098 009e 9847     		blx	r3
 1099              	.LVL150:
 444:Source\azure_iot_sdk\iothub_client\src/iothubtransport_amqp_device.c **** 
 1100              		.loc 1 444 0
 1101 00a0 FFF7FEFF 		bl	get_messenger_message_disposition_result_from
 1102              	.LVL151:
 1103 00a4 0400     		movs	r4, r0
 1104              	.LVL152:
 447:Source\azure_iot_sdk\iothub_client\src/iothubtransport_amqp_device.c ****             }
 1105              		.loc 1 447 0
 1106 00a6 2800     		movs	r0, r5
 1107              	.LVL153:
 1108 00a8 FFF7FEFF 		bl	destroy_device_disposition_info
 1109              	.LVL154:
 1110 00ac 04E0     		b	.L76
 1111              	.LVL155:
 1112              	.L79:
 1113              	.LBE21:
 1114              	.LBE19:
 1115              	.LBE17:
 414:Source\azure_iot_sdk\iothub_client\src/iothubtransport_amqp_device.c ****     }
 1116              		.loc 1 414 0
 1117 00ae 0324     		movs	r4, #3
 1118              	.LVL156:
 1119 00b0 02E0     		b	.L76
 1120              	.LVL157:
 1121              	.L80:
 1122              	.LBB23:
 423:Source\azure_iot_sdk\iothub_client\src/iothubtransport_amqp_device.c ****         }
 1123              		.loc 1 423 0
 1124 00b2 0324     		movs	r4, #3
 1125              	.LVL158:
 1126 00b4 00E0     		b	.L76
 1127              	.LVL159:
 1128              	.L81:
 1129              	.LBB22:
 434:Source\azure_iot_sdk\iothub_client\src/iothubtransport_amqp_device.c ****             }
 1130              		.loc 1 434 0
 1131 00b6 0324     		movs	r4, #3
 1132              	.LVL160:
 1133              	.L76:
 1134              	.LBE22:
ARM GAS  C:\Users\Phuong\AppData\Local\Temp\ccrNXYcn.s 			page 32


 1135              	.LBE23:
 453:Source\azure_iot_sdk\iothub_client\src/iothubtransport_amqp_device.c **** 
 1136              		.loc 1 453 0
 1137 00b8 2000     		movs	r0, r4
 1138 00ba 04B0     		add	sp, sp, #16
 1139              		@ sp needed
 1140              	.LVL161:
 1141              	.LVL162:
 1142 00bc 70BD     		pop	{r4, r5, r6, pc}
 1143              	.L83:
 1144 00be C046     		.align	2
 1145              	.L82:
 1146 00c0 D8020000 		.word	.LC36
 1147 00c4 94000000 		.word	.LANCHOR1
 1148 00c8 00000000 		.word	.LC4
 1149 00cc 2C030000 		.word	.LC38
 1150 00d0 74030000 		.word	.LC40
 1151              		.cfi_endproc
 1152              	.LFE31:
 1153              		.size	on_messenger_message_received_callback, .-on_messenger_message_received_callback
 1154              		.section	.text.create_messenger_disposition_info,"ax",%progbits
 1155              		.align	2
 1156              		.code	16
 1157              		.thumb_func
 1158              		.type	create_messenger_disposition_info, %function
 1159              	create_messenger_disposition_info:
 1160              	.LFB28:
 352:Source\azure_iot_sdk\iothub_client\src/iothubtransport_amqp_device.c ****     TELEMETRY_MESSENGER_MESSAGE_DISPOSITION_INFO* messenger_disposition_info;
 1161              		.loc 1 352 0
 1162              		.cfi_startproc
 1163              		@ args = 0, pretend = 0, frame = 0
 1164              		@ frame_needed = 0, uses_anonymous_args = 0
 1165              	.LVL163:
 1166 0000 30B5     		push	{r4, r5, lr}
 1167              		.cfi_def_cfa_offset 12
 1168              		.cfi_offset 4, -12
 1169              		.cfi_offset 5, -8
 1170              		.cfi_offset 14, -4
 1171 0002 83B0     		sub	sp, sp, #12
 1172              		.cfi_def_cfa_offset 24
 1173 0004 0500     		movs	r5, r0
 355:Source\azure_iot_sdk\iothub_client\src/iothubtransport_amqp_device.c ****     {
 1174              		.loc 1 355 0
 1175 0006 0820     		movs	r0, #8
 1176              	.LVL164:
 1177 0008 FFF7FEFF 		bl	malloc
 1178              	.LVL165:
 1179 000c 041E     		subs	r4, r0, #0
 1180              	.LVL166:
 1181 000e 0FD1     		bne	.L85
 1182              	.LBB24:
 357:Source\azure_iot_sdk\iothub_client\src/iothubtransport_amqp_device.c ****     }
 1183              		.loc 1 357 0 discriminator 3
 1184 0010 FFF7FEFF 		bl	xlogging_get_log_function
 1185              	.LVL167:
 1186 0014 051E     		subs	r5, r0, #0
 1187              	.LVL168:
ARM GAS  C:\Users\Phuong\AppData\Local\Temp\ccrNXYcn.s 			page 33


 1188 0016 27D0     		beq	.L86
 357:Source\azure_iot_sdk\iothub_client\src/iothubtransport_amqp_device.c ****     }
 1189              		.loc 1 357 0 is_stmt 0 discriminator 4
 1190 0018 154B     		ldr	r3, .L89
 1191 001a 0193     		str	r3, [sp, #4]
 1192 001c 0123     		movs	r3, #1
 1193 001e 0093     		str	r3, [sp]
 1194 0020 6623     		movs	r3, #102
 1195 0022 FF33     		adds	r3, r3, #255
 1196 0024 134A     		ldr	r2, .L89+4
 1197 0026 0832     		adds	r2, r2, #8
 1198 0028 1349     		ldr	r1, .L89+8
 1199 002a 0020     		movs	r0, #0
 1200              	.LVL169:
 1201 002c A847     		blx	r5
 1202              	.LVL170:
 1203 002e 1BE0     		b	.L86
 1204              	.LVL171:
 1205              	.L85:
 1206              	.LBE24:
 359:Source\azure_iot_sdk\iothub_client\src/iothubtransport_amqp_device.c ****     {
 1207              		.loc 1 359 0 is_stmt 1
 1208 0030 0430     		adds	r0, r0, #4
 1209              	.LVL172:
 1210 0032 6968     		ldr	r1, [r5, #4]
 1211 0034 FFF7FEFF 		bl	mallocAndStrcpy_s
 1212              	.LVL173:
 1213 0038 0028     		cmp	r0, #0
 1214 003a 13D0     		beq	.L87
 1215              	.LBB25:
 361:Source\azure_iot_sdk\iothub_client\src/iothubtransport_amqp_device.c ****         free(messenger_disposition_info);
 1216              		.loc 1 361 0 discriminator 3
 1217 003c FFF7FEFF 		bl	xlogging_get_log_function
 1218              	.LVL174:
 1219 0040 051E     		subs	r5, r0, #0
 1220              	.LVL175:
 1221 0042 0AD0     		beq	.L88
 361:Source\azure_iot_sdk\iothub_client\src/iothubtransport_amqp_device.c ****         free(messenger_disposition_info);
 1222              		.loc 1 361 0 is_stmt 0 discriminator 4
 1223 0044 0D4B     		ldr	r3, .L89+12
 1224 0046 0193     		str	r3, [sp, #4]
 1225 0048 0123     		movs	r3, #1
 1226 004a 0093     		str	r3, [sp]
 1227 004c 6A23     		movs	r3, #106
 1228 004e FF33     		adds	r3, r3, #255
 1229 0050 084A     		ldr	r2, .L89+4
 1230 0052 0832     		adds	r2, r2, #8
 1231 0054 0849     		ldr	r1, .L89+8
 1232 0056 0020     		movs	r0, #0
 1233              	.LVL176:
 1234 0058 A847     		blx	r5
 1235              	.LVL177:
 1236              	.L88:
 1237              	.LBE25:
 362:Source\azure_iot_sdk\iothub_client\src/iothubtransport_amqp_device.c ****         messenger_disposition_info = NULL;
 1238              		.loc 1 362 0 is_stmt 1
 1239 005a 2000     		movs	r0, r4
ARM GAS  C:\Users\Phuong\AppData\Local\Temp\ccrNXYcn.s 			page 34


 1240 005c FFF7FEFF 		bl	free
 1241              	.LVL178:
 363:Source\azure_iot_sdk\iothub_client\src/iothubtransport_amqp_device.c ****     }
 1242              		.loc 1 363 0
 1243 0060 0024     		movs	r4, #0
 1244 0062 01E0     		b	.L86
 1245              	.LVL179:
 1246              	.L87:
 367:Source\azure_iot_sdk\iothub_client\src/iothubtransport_amqp_device.c ****     }
 1247              		.loc 1 367 0
 1248 0064 2B68     		ldr	r3, [r5]
 1249 0066 2360     		str	r3, [r4]
 1250              	.LVL180:
 1251              	.L86:
 371:Source\azure_iot_sdk\iothub_client\src/iothubtransport_amqp_device.c **** 
 1252              		.loc 1 371 0
 1253 0068 2000     		movs	r0, r4
 1254 006a 03B0     		add	sp, sp, #12
 1255              		@ sp needed
 1256              	.LVL181:
 1257 006c 30BD     		pop	{r4, r5, pc}
 1258              	.L90:
 1259 006e C046     		.align	2
 1260              	.L89:
 1261 0070 D8030000 		.word	.LC44
 1262 0074 14010000 		.word	.LANCHOR2
 1263 0078 00000000 		.word	.LC4
 1264 007c 28040000 		.word	.LC46
 1265              		.cfi_endproc
 1266              	.LFE28:
 1267              		.size	create_messenger_disposition_info, .-create_messenger_disposition_info
 1268              		.section	.text.destroy_messenger_disposition_info,"ax",%progbits
 1269              		.align	2
 1270              		.code	16
 1271              		.thumb_func
 1272              		.type	destroy_messenger_disposition_info, %function
 1273              	destroy_messenger_disposition_info:
 1274              	.LFB29:
 374:Source\azure_iot_sdk\iothub_client\src/iothubtransport_amqp_device.c ****     free(messenger_disposition_info->source);
 1275              		.loc 1 374 0
 1276              		.cfi_startproc
 1277              		@ args = 0, pretend = 0, frame = 0
 1278              		@ frame_needed = 0, uses_anonymous_args = 0
 1279              	.LVL182:
 1280 0000 10B5     		push	{r4, lr}
 1281              		.cfi_def_cfa_offset 8
 1282              		.cfi_offset 4, -8
 1283              		.cfi_offset 14, -4
 1284 0002 0400     		movs	r4, r0
 375:Source\azure_iot_sdk\iothub_client\src/iothubtransport_amqp_device.c ****     free(messenger_disposition_info);
 1285              		.loc 1 375 0
 1286 0004 4068     		ldr	r0, [r0, #4]
 1287              	.LVL183:
 1288 0006 FFF7FEFF 		bl	free
 1289              	.LVL184:
 376:Source\azure_iot_sdk\iothub_client\src/iothubtransport_amqp_device.c **** }
 1290              		.loc 1 376 0
ARM GAS  C:\Users\Phuong\AppData\Local\Temp\ccrNXYcn.s 			page 35


 1291 000a 2000     		movs	r0, r4
 1292 000c FFF7FEFF 		bl	free
 1293              	.LVL185:
 377:Source\azure_iot_sdk\iothub_client\src/iothubtransport_amqp_device.c **** 
 1294              		.loc 1 377 0
 1295              		@ sp needed
 1296              	.LVL186:
 1297 0010 10BD     		pop	{r4, pc}
 1298              		.cfi_endproc
 1299              	.LFE29:
 1300              		.size	destroy_messenger_disposition_info, .-destroy_messenger_disposition_info
 1301 0012 C046     		.section	.text.on_report_state_complete_callback,"ax",%progbits
 1302              		.align	2
 1303              		.code	16
 1304              		.thumb_func
 1305              		.type	on_report_state_complete_callback, %function
 1306              	on_report_state_complete_callback:
 1307              	.LFB23:
 254:Source\azure_iot_sdk\iothub_client\src/iothubtransport_amqp_device.c ****     (void)reason;
 1308              		.loc 1 254 0
 1309              		.cfi_startproc
 1310              		@ args = 0, pretend = 0, frame = 0
 1311              		@ frame_needed = 0, uses_anonymous_args = 0
 1312              	.LVL187:
 1313 0000 70B5     		push	{r4, r5, r6, lr}
 1314              		.cfi_def_cfa_offset 16
 1315              		.cfi_offset 4, -16
 1316              		.cfi_offset 5, -12
 1317              		.cfi_offset 6, -8
 1318              		.cfi_offset 14, -4
 1319 0002 82B0     		sub	sp, sp, #8
 1320              		.cfi_def_cfa_offset 24
 1321 0004 1600     		movs	r6, r2
 1322 0006 1C1E     		subs	r4, r3, #0
 257:Source\azure_iot_sdk\iothub_client\src/iothubtransport_amqp_device.c ****     {
 1323              		.loc 1 257 0
 1324 0008 0FD1     		bne	.L93
 1325              	.LBB26:
 259:Source\azure_iot_sdk\iothub_client\src/iothubtransport_amqp_device.c ****     }
 1326              		.loc 1 259 0 discriminator 3
 1327 000a FFF7FEFF 		bl	xlogging_get_log_function
 1328              	.LVL188:
 1329 000e 041E     		subs	r4, r0, #0
 1330              	.LVL189:
 1331 0010 16D0     		beq	.L92
 259:Source\azure_iot_sdk\iothub_client\src/iothubtransport_amqp_device.c ****     }
 1332              		.loc 1 259 0 is_stmt 0 discriminator 4
 1333 0012 0C4B     		ldr	r3, .L96
 1334 0014 0193     		str	r3, [sp, #4]
 1335 0016 0123     		movs	r3, #1
 1336 0018 0093     		str	r3, [sp]
 1337 001a 0423     		movs	r3, #4
 1338 001c FF33     		adds	r3, r3, #255
 1339 001e 0A4A     		ldr	r2, .L96+4
 1340 0020 2C32     		adds	r2, r2, #44
 1341 0022 0A49     		ldr	r1, .L96+8
 1342 0024 0020     		movs	r0, #0
ARM GAS  C:\Users\Phuong\AppData\Local\Temp\ccrNXYcn.s 			page 36


 1343              	.LVL190:
 1344 0026 A047     		blx	r4
 1345              	.LVL191:
 1346 0028 0AE0     		b	.L92
 1347              	.LVL192:
 1348              	.L93:
 1349              	.LBE26:
 1350              	.LBB27:
 266:Source\azure_iot_sdk\iothub_client\src/iothubtransport_amqp_device.c ****         {
 1351              		.loc 1 266 0 is_stmt 1
 1352 002a 1D68     		ldr	r5, [r3]
 1353 002c 002D     		cmp	r5, #0
 1354 002e 04D0     		beq	.L95
 1355              	.LBB28:
 270:Source\azure_iot_sdk\iothub_client\src/iothubtransport_amqp_device.c **** 
 1356              		.loc 1 270 0
 1357 0030 FFF7FEFF 		bl	get_device_twin_update_result_from
 1358              	.LVL193:
 272:Source\azure_iot_sdk\iothub_client\src/iothubtransport_amqp_device.c ****         }
 1359              		.loc 1 272 0
 1360 0034 6268     		ldr	r2, [r4, #4]
 1361 0036 3100     		movs	r1, r6
 1362 0038 A847     		blx	r5
 1363              	.LVL194:
 1364              	.L95:
 1365              	.LBE28:
 276:Source\azure_iot_sdk\iothub_client\src/iothubtransport_amqp_device.c ****     }
 1366              		.loc 1 276 0
 1367 003a 2000     		movs	r0, r4
 1368 003c FFF7FEFF 		bl	free
 1369              	.LVL195:
 1370              	.L92:
 1371              	.LBE27:
 278:Source\azure_iot_sdk\iothub_client\src/iothubtransport_amqp_device.c **** 
 1372              		.loc 1 278 0
 1373 0040 02B0     		add	sp, sp, #8
 1374              		@ sp needed
 1375              	.LVL196:
 1376 0042 70BD     		pop	{r4, r5, r6, pc}
 1377              	.L97:
 1378              		.align	2
 1379              	.L96:
 1380 0044 80040000 		.word	.LC50
 1381 0048 14010000 		.word	.LANCHOR2
 1382 004c 00000000 		.word	.LC4
 1383              		.cfi_endproc
 1384              	.LFE23:
 1385              		.size	on_report_state_complete_callback, .-on_report_state_complete_callback
 1386              		.section	.text.create_authentication_instance,"ax",%progbits
 1387              		.align	2
 1388              		.code	16
 1389              		.thumb_func
 1390              		.type	create_authentication_instance, %function
 1391              	create_authentication_instance:
 1392              	.LFB36:
 526:Source\azure_iot_sdk\iothub_client\src/iothubtransport_amqp_device.c **** 
 527:Source\azure_iot_sdk\iothub_client\src/iothubtransport_amqp_device.c **** // Create and Destroy Helpers
ARM GAS  C:\Users\Phuong\AppData\Local\Temp\ccrNXYcn.s 			page 37


 528:Source\azure_iot_sdk\iothub_client\src/iothubtransport_amqp_device.c **** static void internal_destroy_device(AMQP_DEVICE_INSTANCE* instance)
 529:Source\azure_iot_sdk\iothub_client\src/iothubtransport_amqp_device.c **** {
 530:Source\azure_iot_sdk\iothub_client\src/iothubtransport_amqp_device.c ****     if (instance != NULL)
 531:Source\azure_iot_sdk\iothub_client\src/iothubtransport_amqp_device.c ****     {
 532:Source\azure_iot_sdk\iothub_client\src/iothubtransport_amqp_device.c ****         if (instance->messenger_handle != NULL)
 533:Source\azure_iot_sdk\iothub_client\src/iothubtransport_amqp_device.c ****         {
 534:Source\azure_iot_sdk\iothub_client\src/iothubtransport_amqp_device.c ****             telemetry_messenger_destroy(instance->messenger_handle);
 535:Source\azure_iot_sdk\iothub_client\src/iothubtransport_amqp_device.c ****         }
 536:Source\azure_iot_sdk\iothub_client\src/iothubtransport_amqp_device.c **** 
 537:Source\azure_iot_sdk\iothub_client\src/iothubtransport_amqp_device.c ****         if (instance->twin_messenger_handle != NULL)
 538:Source\azure_iot_sdk\iothub_client\src/iothubtransport_amqp_device.c ****         {
 539:Source\azure_iot_sdk\iothub_client\src/iothubtransport_amqp_device.c ****             twin_messenger_destroy(instance->twin_messenger_handle);
 540:Source\azure_iot_sdk\iothub_client\src/iothubtransport_amqp_device.c ****         }
 541:Source\azure_iot_sdk\iothub_client\src/iothubtransport_amqp_device.c **** 
 542:Source\azure_iot_sdk\iothub_client\src/iothubtransport_amqp_device.c ****         if (instance->authentication_handle != NULL)
 543:Source\azure_iot_sdk\iothub_client\src/iothubtransport_amqp_device.c ****         {
 544:Source\azure_iot_sdk\iothub_client\src/iothubtransport_amqp_device.c ****             authentication_destroy(instance->authentication_handle);
 545:Source\azure_iot_sdk\iothub_client\src/iothubtransport_amqp_device.c ****         }
 546:Source\azure_iot_sdk\iothub_client\src/iothubtransport_amqp_device.c **** 
 547:Source\azure_iot_sdk\iothub_client\src/iothubtransport_amqp_device.c ****         destroy_device_config(instance->config);
 548:Source\azure_iot_sdk\iothub_client\src/iothubtransport_amqp_device.c ****         free(instance);
 549:Source\azure_iot_sdk\iothub_client\src/iothubtransport_amqp_device.c ****     }
 550:Source\azure_iot_sdk\iothub_client\src/iothubtransport_amqp_device.c **** }
 551:Source\azure_iot_sdk\iothub_client\src/iothubtransport_amqp_device.c **** 
 552:Source\azure_iot_sdk\iothub_client\src/iothubtransport_amqp_device.c **** static int create_authentication_instance(AMQP_DEVICE_INSTANCE *instance)
 553:Source\azure_iot_sdk\iothub_client\src/iothubtransport_amqp_device.c **** {
 1393              		.loc 1 553 0
 1394              		.cfi_startproc
 1395              		@ args = 0, pretend = 0, frame = 32
 1396              		@ frame_needed = 0, uses_anonymous_args = 0
 1397              	.LVL197:
 1398 0000 10B5     		push	{r4, lr}
 1399              		.cfi_def_cfa_offset 8
 1400              		.cfi_offset 4, -8
 1401              		.cfi_offset 14, -4
 1402 0002 8AB0     		sub	sp, sp, #40
 1403              		.cfi_def_cfa_offset 48
 1404 0004 0400     		movs	r4, r0
 554:Source\azure_iot_sdk\iothub_client\src/iothubtransport_amqp_device.c ****     int result;
 555:Source\azure_iot_sdk\iothub_client\src/iothubtransport_amqp_device.c ****     AUTHENTICATION_CONFIG auth_config;
 556:Source\azure_iot_sdk\iothub_client\src/iothubtransport_amqp_device.c **** 
 557:Source\azure_iot_sdk\iothub_client\src/iothubtransport_amqp_device.c ****     set_authentication_config(instance, &auth_config);
 1405              		.loc 1 557 0
 1406 0006 02A9     		add	r1, sp, #8
 1407 0008 FFF7FEFF 		bl	set_authentication_config
 1408              	.LVL198:
 558:Source\azure_iot_sdk\iothub_client\src/iothubtransport_amqp_device.c **** 
 559:Source\azure_iot_sdk\iothub_client\src/iothubtransport_amqp_device.c ****     if ((instance->authentication_handle = authentication_create(&auth_config)) == NULL)
 1409              		.loc 1 559 0
 1410 000c 02A8     		add	r0, sp, #8
 1411 000e FFF7FEFF 		bl	authentication_create
 1412              	.LVL199:
 1413 0012 2061     		str	r0, [r4, #16]
 1414 0014 0028     		cmp	r0, #0
 1415 0016 0FD1     		bne	.L100
 1416              	.LBB29:
 560:Source\azure_iot_sdk\iothub_client\src/iothubtransport_amqp_device.c ****     {
ARM GAS  C:\Users\Phuong\AppData\Local\Temp\ccrNXYcn.s 			page 38


 561:Source\azure_iot_sdk\iothub_client\src/iothubtransport_amqp_device.c ****         LogError("Failed creating the AUTHENTICATION_HANDLE (authentication_create failed)");
 1417              		.loc 1 561 0 discriminator 3
 1418 0018 FFF7FEFF 		bl	xlogging_get_log_function
 1419              	.LVL200:
 1420 001c 041E     		subs	r4, r0, #0
 1421              	.LVL201:
 1422 001e 0DD0     		beq	.L101
 1423              		.loc 1 561 0 is_stmt 0 discriminator 4
 1424 0020 084B     		ldr	r3, .L102
 1425 0022 0193     		str	r3, [sp, #4]
 1426 0024 0123     		movs	r3, #1
 1427 0026 0093     		str	r3, [sp]
 1428 0028 074B     		ldr	r3, .L102+4
 1429 002a 084A     		ldr	r2, .L102+8
 1430 002c 5032     		adds	r2, r2, #80
 1431 002e 0849     		ldr	r1, .L102+12
 1432 0030 0020     		movs	r0, #0
 1433              	.LVL202:
 1434 0032 A047     		blx	r4
 1435              	.LVL203:
 1436              	.LBE29:
 562:Source\azure_iot_sdk\iothub_client\src/iothubtransport_amqp_device.c ****         result = __FAILURE__;
 1437              		.loc 1 562 0 is_stmt 1 discriminator 4
 1438 0034 0748     		ldr	r0, .L102+16
 1439 0036 02E0     		b	.L99
 1440              	.LVL204:
 1441              	.L100:
 563:Source\azure_iot_sdk\iothub_client\src/iothubtransport_amqp_device.c ****     }
 564:Source\azure_iot_sdk\iothub_client\src/iothubtransport_amqp_device.c ****     else
 565:Source\azure_iot_sdk\iothub_client\src/iothubtransport_amqp_device.c ****     {
 566:Source\azure_iot_sdk\iothub_client\src/iothubtransport_amqp_device.c ****         result = RESULT_OK;
 1442              		.loc 1 566 0
 1443 0038 0020     		movs	r0, #0
 1444 003a 00E0     		b	.L99
 1445              	.LVL205:
 1446              	.L101:
 562:Source\azure_iot_sdk\iothub_client\src/iothubtransport_amqp_device.c ****         result = __FAILURE__;
 1447              		.loc 1 562 0
 1448 003c 0548     		ldr	r0, .L102+16
 1449              	.LVL206:
 1450              	.L99:
 567:Source\azure_iot_sdk\iothub_client\src/iothubtransport_amqp_device.c ****     }
 568:Source\azure_iot_sdk\iothub_client\src/iothubtransport_amqp_device.c **** 
 569:Source\azure_iot_sdk\iothub_client\src/iothubtransport_amqp_device.c ****     return result;
 570:Source\azure_iot_sdk\iothub_client\src/iothubtransport_amqp_device.c **** }
 1451              		.loc 1 570 0
 1452 003e 0AB0     		add	sp, sp, #40
 1453              		@ sp needed
 1454 0040 10BD     		pop	{r4, pc}
 1455              	.L103:
 1456 0042 C046     		.align	2
 1457              	.L102:
 1458 0044 A4040000 		.word	.LC54
 1459 0048 31020000 		.word	561
 1460 004c 14010000 		.word	.LANCHOR2
 1461 0050 00000000 		.word	.LC4
 1462 0054 32020000 		.word	562
ARM GAS  C:\Users\Phuong\AppData\Local\Temp\ccrNXYcn.s 			page 39


 1463              		.cfi_endproc
 1464              	.LFE36:
 1465              		.size	create_authentication_instance, .-create_authentication_instance
 1466              		.section	.text.on_authentication_state_changed_callback,"ax",%progbits
 1467              		.align	2
 1468              		.code	16
 1469              		.thumb_func
 1470              		.type	on_authentication_state_changed_callback, %function
 1471              	on_authentication_state_changed_callback:
 1472              	.LFB20:
 199:Source\azure_iot_sdk\iothub_client\src/iothubtransport_amqp_device.c ****     if (context == NULL)
 1473              		.loc 1 199 0
 1474              		.cfi_startproc
 1475              		@ args = 0, pretend = 0, frame = 0
 1476              		@ frame_needed = 0, uses_anonymous_args = 0
 1477              	.LVL207:
 1478 0000 30B5     		push	{r4, r5, lr}
 1479              		.cfi_def_cfa_offset 12
 1480              		.cfi_offset 4, -12
 1481              		.cfi_offset 5, -8
 1482              		.cfi_offset 14, -4
 1483 0002 85B0     		sub	sp, sp, #20
 1484              		.cfi_def_cfa_offset 32
 1485 0004 0400     		movs	r4, r0
 1486 0006 1500     		movs	r5, r2
 200:Source\azure_iot_sdk\iothub_client\src/iothubtransport_amqp_device.c ****     {
 1487              		.loc 1 200 0
 1488 0008 0028     		cmp	r0, #0
 1489 000a 0FD1     		bne	.L105
 1490              	.LBB30:
 202:Source\azure_iot_sdk\iothub_client\src/iothubtransport_amqp_device.c ****     }
 1491              		.loc 1 202 0 discriminator 3
 1492 000c FFF7FEFF 		bl	xlogging_get_log_function
 1493              	.LVL208:
 1494 0010 041E     		subs	r4, r0, #0
 1495              	.LVL209:
 1496 0012 25D0     		beq	.L104
 202:Source\azure_iot_sdk\iothub_client\src/iothubtransport_amqp_device.c ****     }
 1497              		.loc 1 202 0 is_stmt 0 discriminator 4
 1498 0014 0295     		str	r5, [sp, #8]
 1499 0016 134B     		ldr	r3, .L107
 1500 0018 0193     		str	r3, [sp, #4]
 1501 001a 0123     		movs	r3, #1
 1502 001c 0093     		str	r3, [sp]
 1503 001e C933     		adds	r3, r3, #201
 1504 0020 114A     		ldr	r2, .L107+4
 1505 0022 7032     		adds	r2, r2, #112
 1506 0024 1149     		ldr	r1, .L107+8
 1507 0026 0020     		movs	r0, #0
 1508              	.LVL210:
 1509 0028 A047     		blx	r4
 1510              	.LVL211:
 1511 002a 19E0     		b	.L104
 1512              	.LVL212:
 1513              	.L105:
 1514              	.LBE30:
 204:Source\azure_iot_sdk\iothub_client\src/iothubtransport_amqp_device.c ****     {
ARM GAS  C:\Users\Phuong\AppData\Local\Temp\ccrNXYcn.s 			page 40


 1515              		.loc 1 204 0 is_stmt 1
 1516 002c 8A42     		cmp	r2, r1
 1517 002e 17D0     		beq	.L104
 1518              	.LVL213:
 1519              	.LBB31:
 207:Source\azure_iot_sdk\iothub_client\src/iothubtransport_amqp_device.c **** 
 1520              		.loc 1 207 0
 1521 0030 2275     		strb	r2, [r4, #20]
 209:Source\azure_iot_sdk\iothub_client\src/iothubtransport_amqp_device.c ****         {
 1522              		.loc 1 209 0
 1523 0032 0020     		movs	r0, #0
 1524              	.LVL214:
 1525 0034 FFF7FEFF 		bl	get_time
 1526              	.LVL215:
 1527 0038 A061     		str	r0, [r4, #24]
 1528 003a 431C     		adds	r3, r0, #1
 1529 003c 10D1     		bne	.L104
 1530              	.LBB32:
 211:Source\azure_iot_sdk\iothub_client\src/iothubtransport_amqp_device.c ****         }
 1531              		.loc 1 211 0 discriminator 3
 1532 003e FFF7FEFF 		bl	xlogging_get_log_function
 1533              	.LVL216:
 1534 0042 051E     		subs	r5, r0, #0
 1535              	.LVL217:
 1536 0044 0CD0     		beq	.L104
 211:Source\azure_iot_sdk\iothub_client\src/iothubtransport_amqp_device.c ****         }
 1537              		.loc 1 211 0 is_stmt 0 discriminator 4
 1538 0046 2368     		ldr	r3, [r4]
 1539 0048 1B68     		ldr	r3, [r3]
 1540 004a 0293     		str	r3, [sp, #8]
 1541 004c 084B     		ldr	r3, .L107+12
 1542 004e 0193     		str	r3, [sp, #4]
 1543 0050 0123     		movs	r3, #1
 1544 0052 0093     		str	r3, [sp]
 1545 0054 D233     		adds	r3, r3, #210
 1546 0056 044A     		ldr	r2, .L107+4
 1547 0058 7032     		adds	r2, r2, #112
 1548 005a 0449     		ldr	r1, .L107+8
 1549 005c 0020     		movs	r0, #0
 1550              	.LVL218:
 1551 005e A847     		blx	r5
 1552              	.LVL219:
 1553              	.L104:
 1554              	.LBE32:
 1555              	.LBE31:
 214:Source\azure_iot_sdk\iothub_client\src/iothubtransport_amqp_device.c **** 
 1556              		.loc 1 214 0 is_stmt 1
 1557 0060 05B0     		add	sp, sp, #20
 1558              		@ sp needed
 1559 0062 30BD     		pop	{r4, r5, pc}
 1560              	.L108:
 1561              		.align	2
 1562              	.L107:
 1563 0064 F0040000 		.word	.LC58
 1564 0068 14010000 		.word	.LANCHOR2
 1565 006c 00000000 		.word	.LC4
 1566 0070 4C050000 		.word	.LC60
ARM GAS  C:\Users\Phuong\AppData\Local\Temp\ccrNXYcn.s 			page 41


 1567              		.cfi_endproc
 1568              	.LFE20:
 1569              		.size	on_authentication_state_changed_callback, .-on_authentication_state_changed_callback
 1570              		.section	.text.on_messenger_state_changed_callback,"ax",%progbits
 1571              		.align	2
 1572              		.code	16
 1573              		.thumb_func
 1574              		.type	on_messenger_state_changed_callback, %function
 1575              	on_messenger_state_changed_callback:
 1576              	.LFB21:
 217:Source\azure_iot_sdk\iothub_client\src/iothubtransport_amqp_device.c ****     if (context == NULL)
 1577              		.loc 1 217 0
 1578              		.cfi_startproc
 1579              		@ args = 0, pretend = 0, frame = 0
 1580              		@ frame_needed = 0, uses_anonymous_args = 0
 1581              	.LVL220:
 1582 0000 30B5     		push	{r4, r5, lr}
 1583              		.cfi_def_cfa_offset 12
 1584              		.cfi_offset 4, -12
 1585              		.cfi_offset 5, -8
 1586              		.cfi_offset 14, -4
 1587 0002 85B0     		sub	sp, sp, #20
 1588              		.cfi_def_cfa_offset 32
 1589 0004 0400     		movs	r4, r0
 1590 0006 1500     		movs	r5, r2
 218:Source\azure_iot_sdk\iothub_client\src/iothubtransport_amqp_device.c ****     {
 1591              		.loc 1 218 0
 1592 0008 0028     		cmp	r0, #0
 1593 000a 0FD1     		bne	.L110
 1594              	.LBB33:
 220:Source\azure_iot_sdk\iothub_client\src/iothubtransport_amqp_device.c ****     }
 1595              		.loc 1 220 0 discriminator 3
 1596 000c FFF7FEFF 		bl	xlogging_get_log_function
 1597              	.LVL221:
 1598 0010 041E     		subs	r4, r0, #0
 1599              	.LVL222:
 1600 0012 26D0     		beq	.L109
 220:Source\azure_iot_sdk\iothub_client\src/iothubtransport_amqp_device.c ****     }
 1601              		.loc 1 220 0 is_stmt 0 discriminator 4
 1602 0014 0295     		str	r5, [sp, #8]
 1603 0016 144B     		ldr	r3, .L112
 1604 0018 0193     		str	r3, [sp, #4]
 1605 001a 0123     		movs	r3, #1
 1606 001c 0093     		str	r3, [sp]
 1607 001e DB33     		adds	r3, r3, #219
 1608 0020 124A     		ldr	r2, .L112+4
 1609 0022 1C32     		adds	r2, r2, #28
 1610 0024 1249     		ldr	r1, .L112+8
 1611 0026 0020     		movs	r0, #0
 1612              	.LVL223:
 1613 0028 A047     		blx	r4
 1614              	.LVL224:
 1615 002a 1AE0     		b	.L109
 1616              	.LVL225:
 1617              	.L110:
 1618              	.LBE33:
 222:Source\azure_iot_sdk\iothub_client\src/iothubtransport_amqp_device.c ****     {
ARM GAS  C:\Users\Phuong\AppData\Local\Temp\ccrNXYcn.s 			page 42


 1619              		.loc 1 222 0 is_stmt 1
 1620 002c 8A42     		cmp	r2, r1
 1621 002e 18D0     		beq	.L109
 1622              	.LVL226:
 1623              	.LBB34:
 225:Source\azure_iot_sdk\iothub_client\src/iothubtransport_amqp_device.c **** 
 1624              		.loc 1 225 0
 1625 0030 2423     		movs	r3, #36
 1626 0032 E254     		strb	r2, [r4, r3]
 227:Source\azure_iot_sdk\iothub_client\src/iothubtransport_amqp_device.c ****         {
 1627              		.loc 1 227 0
 1628 0034 0020     		movs	r0, #0
 1629              	.LVL227:
 1630 0036 FFF7FEFF 		bl	get_time
 1631              	.LVL228:
 1632 003a A062     		str	r0, [r4, #40]
 1633 003c 431C     		adds	r3, r0, #1
 1634 003e 10D1     		bne	.L109
 1635              	.LBB35:
 229:Source\azure_iot_sdk\iothub_client\src/iothubtransport_amqp_device.c ****         }
 1636              		.loc 1 229 0 discriminator 3
 1637 0040 FFF7FEFF 		bl	xlogging_get_log_function
 1638              	.LVL229:
 1639 0044 051E     		subs	r5, r0, #0
 1640              	.LVL230:
 1641 0046 0CD0     		beq	.L109
 229:Source\azure_iot_sdk\iothub_client\src/iothubtransport_amqp_device.c ****         }
 1642              		.loc 1 229 0 is_stmt 0 discriminator 4
 1643 0048 2368     		ldr	r3, [r4]
 1644 004a 1B68     		ldr	r3, [r3]
 1645 004c 0293     		str	r3, [sp, #8]
 1646 004e 094B     		ldr	r3, .L112+12
 1647 0050 0193     		str	r3, [sp, #4]
 1648 0052 0123     		movs	r3, #1
 1649 0054 0093     		str	r3, [sp]
 1650 0056 E433     		adds	r3, r3, #228
 1651 0058 044A     		ldr	r2, .L112+4
 1652 005a 1C32     		adds	r2, r2, #28
 1653 005c 0449     		ldr	r1, .L112+8
 1654 005e 0020     		movs	r0, #0
 1655              	.LVL231:
 1656 0060 A847     		blx	r5
 1657              	.LVL232:
 1658              	.L109:
 1659              	.LBE35:
 1660              	.LBE34:
 232:Source\azure_iot_sdk\iothub_client\src/iothubtransport_amqp_device.c **** 
 1661              		.loc 1 232 0 is_stmt 1
 1662 0062 05B0     		add	sp, sp, #20
 1663              		@ sp needed
 1664 0064 30BD     		pop	{r4, r5, pc}
 1665              	.L113:
 1666 0066 C046     		.align	2
 1667              	.L112:
 1668 0068 A4050000 		.word	.LC64
 1669 006c 94010000 		.word	.LANCHOR3
 1670 0070 00000000 		.word	.LC4
ARM GAS  C:\Users\Phuong\AppData\Local\Temp\ccrNXYcn.s 			page 43


 1671 0074 FC050000 		.word	.LC66
 1672              		.cfi_endproc
 1673              	.LFE21:
 1674              		.size	on_messenger_state_changed_callback, .-on_messenger_state_changed_callback
 1675              		.section	.text.on_twin_messenger_state_changed_callback,"ax",%progbits
 1676              		.align	2
 1677              		.code	16
 1678              		.thumb_func
 1679              		.type	on_twin_messenger_state_changed_callback, %function
 1680              	on_twin_messenger_state_changed_callback:
 1681              	.LFB25:
 307:Source\azure_iot_sdk\iothub_client\src/iothubtransport_amqp_device.c ****     if (context != NULL && new_state != previous_state)
 1682              		.loc 1 307 0
 1683              		.cfi_startproc
 1684              		@ args = 0, pretend = 0, frame = 0
 1685              		@ frame_needed = 0, uses_anonymous_args = 0
 1686              	.LVL233:
 1687 0000 10B5     		push	{r4, lr}
 1688              		.cfi_def_cfa_offset 8
 1689              		.cfi_offset 4, -8
 1690              		.cfi_offset 14, -4
 1691 0002 82B0     		sub	sp, sp, #8
 1692              		.cfi_def_cfa_offset 16
 1693 0004 041E     		subs	r4, r0, #0
 308:Source\azure_iot_sdk\iothub_client\src/iothubtransport_amqp_device.c ****     {
 1694              		.loc 1 308 0
 1695 0006 18D0     		beq	.L114
 308:Source\azure_iot_sdk\iothub_client\src/iothubtransport_amqp_device.c ****     {
 1696              		.loc 1 308 0 is_stmt 0 discriminator 1
 1697 0008 8A42     		cmp	r2, r1
 1698 000a 16D0     		beq	.L114
 1699              	.LVL234:
 1700              	.LBB36:
 311:Source\azure_iot_sdk\iothub_client\src/iothubtransport_amqp_device.c **** 
 1701              		.loc 1 311 0 is_stmt 1
 1702 000c 3C23     		movs	r3, #60
 1703 000e C254     		strb	r2, [r0, r3]
 313:Source\azure_iot_sdk\iothub_client\src/iothubtransport_amqp_device.c ****         {
 1704              		.loc 1 313 0
 1705 0010 0020     		movs	r0, #0
 1706              	.LVL235:
 1707 0012 FFF7FEFF 		bl	get_time
 1708              	.LVL236:
 1709 0016 2064     		str	r0, [r4, #64]
 1710 0018 431C     		adds	r3, r0, #1
 1711 001a 0ED1     		bne	.L114
 1712              	.LBB37:
 315:Source\azure_iot_sdk\iothub_client\src/iothubtransport_amqp_device.c ****         }
 1713              		.loc 1 315 0 discriminator 3
 1714 001c FFF7FEFF 		bl	xlogging_get_log_function
 1715              	.LVL237:
 1716 0020 041E     		subs	r4, r0, #0
 1717              	.LVL238:
 1718 0022 0AD0     		beq	.L114
 315:Source\azure_iot_sdk\iothub_client\src/iothubtransport_amqp_device.c ****         }
 1719              		.loc 1 315 0 is_stmt 0 discriminator 4
 1720 0024 064B     		ldr	r3, .L116
ARM GAS  C:\Users\Phuong\AppData\Local\Temp\ccrNXYcn.s 			page 44


 1721 0026 0193     		str	r3, [sp, #4]
 1722 0028 0123     		movs	r3, #1
 1723 002a 0093     		str	r3, [sp]
 1724 002c 3C23     		movs	r3, #60
 1725 002e FF33     		adds	r3, r3, #255
 1726 0030 044A     		ldr	r2, .L116+4
 1727 0032 4032     		adds	r2, r2, #64
 1728 0034 0449     		ldr	r1, .L116+8
 1729 0036 0020     		movs	r0, #0
 1730              	.LVL239:
 1731 0038 A047     		blx	r4
 1732              	.LVL240:
 1733              	.L114:
 1734              	.LBE37:
 1735              	.LBE36:
 318:Source\azure_iot_sdk\iothub_client\src/iothubtransport_amqp_device.c **** 
 1736              		.loc 1 318 0 is_stmt 1
 1737 003a 02B0     		add	sp, sp, #8
 1738              		@ sp needed
 1739 003c 10BD     		pop	{r4, pc}
 1740              	.L117:
 1741 003e C046     		.align	2
 1742              	.L116:
 1743 0040 4C060000 		.word	.LC70
 1744 0044 94010000 		.word	.LANCHOR3
 1745 0048 00000000 		.word	.LC4
 1746              		.cfi_endproc
 1747              	.LFE25:
 1748              		.size	on_twin_messenger_state_changed_callback, .-on_twin_messenger_state_changed_callback
 1749              		.section	.text.create_telemetry_messenger_instance,"ax",%progbits
 1750              		.align	2
 1751              		.code	16
 1752              		.thumb_func
 1753              		.type	create_telemetry_messenger_instance, %function
 1754              	create_telemetry_messenger_instance:
 1755              	.LFB37:
 571:Source\azure_iot_sdk\iothub_client\src/iothubtransport_amqp_device.c **** 
 572:Source\azure_iot_sdk\iothub_client\src/iothubtransport_amqp_device.c **** static int create_telemetry_messenger_instance(AMQP_DEVICE_INSTANCE* instance, const char* pi)
 573:Source\azure_iot_sdk\iothub_client\src/iothubtransport_amqp_device.c **** {
 1756              		.loc 1 573 0
 1757              		.cfi_startproc
 1758              		@ args = 0, pretend = 0, frame = 32
 1759              		@ frame_needed = 0, uses_anonymous_args = 0
 1760              	.LVL241:
 1761 0000 10B5     		push	{r4, lr}
 1762              		.cfi_def_cfa_offset 8
 1763              		.cfi_offset 4, -8
 1764              		.cfi_offset 14, -4
 1765 0002 8AB0     		sub	sp, sp, #40
 1766              		.cfi_def_cfa_offset 48
 1767 0004 0400     		movs	r4, r0
 574:Source\azure_iot_sdk\iothub_client\src/iothubtransport_amqp_device.c ****     int result;
 575:Source\azure_iot_sdk\iothub_client\src/iothubtransport_amqp_device.c **** 
 576:Source\azure_iot_sdk\iothub_client\src/iothubtransport_amqp_device.c ****     TELEMETRY_MESSENGER_CONFIG messenger_config;
 577:Source\azure_iot_sdk\iothub_client\src/iothubtransport_amqp_device.c ****     messenger_config.device_id = instance->config->device_id;
 1768              		.loc 1 577 0
 1769 0006 0368     		ldr	r3, [r0]
ARM GAS  C:\Users\Phuong\AppData\Local\Temp\ccrNXYcn.s 			page 45


 1770 0008 1A68     		ldr	r2, [r3]
 1771 000a 0592     		str	r2, [sp, #20]
 578:Source\azure_iot_sdk\iothub_client\src/iothubtransport_amqp_device.c ****     messenger_config.module_id = instance->config->module_id;
 1772              		.loc 1 578 0
 1773 000c 5A68     		ldr	r2, [r3, #4]
 1774 000e 0692     		str	r2, [sp, #24]
 579:Source\azure_iot_sdk\iothub_client\src/iothubtransport_amqp_device.c ****     messenger_config.iothub_host_fqdn = instance->config->iothub_host_fqdn;
 1775              		.loc 1 579 0
 1776 0010 DB68     		ldr	r3, [r3, #12]
 1777 0012 0393     		str	r3, [sp, #12]
 1778 0014 0793     		str	r3, [sp, #28]
 580:Source\azure_iot_sdk\iothub_client\src/iothubtransport_amqp_device.c ****     messenger_config.on_state_changed_callback = on_messenger_state_changed_callback;
 1779              		.loc 1 580 0
 1780 0016 0F4B     		ldr	r3, .L122
 1781 0018 0893     		str	r3, [sp, #32]
 581:Source\azure_iot_sdk\iothub_client\src/iothubtransport_amqp_device.c ****     messenger_config.on_state_changed_context = instance;
 1782              		.loc 1 581 0
 1783 001a 0990     		str	r0, [sp, #36]
 582:Source\azure_iot_sdk\iothub_client\src/iothubtransport_amqp_device.c **** 
 583:Source\azure_iot_sdk\iothub_client\src/iothubtransport_amqp_device.c ****     if ((instance->messenger_handle = telemetry_messenger_create(&messenger_config, pi)) == NULL)
 1784              		.loc 1 583 0
 1785 001c 05A8     		add	r0, sp, #20
 1786              	.LVL242:
 1787 001e FFF7FEFF 		bl	telemetry_messenger_create
 1788              	.LVL243:
 1789 0022 2062     		str	r0, [r4, #32]
 1790 0024 0028     		cmp	r0, #0
 1791 0026 0FD1     		bne	.L120
 1792              	.LBB38:
 584:Source\azure_iot_sdk\iothub_client\src/iothubtransport_amqp_device.c ****     {
 585:Source\azure_iot_sdk\iothub_client\src/iothubtransport_amqp_device.c ****         LogError("Failed creating the TELEMETRY_MESSENGER_HANDLE (messenger_create failed)");
 1793              		.loc 1 585 0 discriminator 3
 1794 0028 FFF7FEFF 		bl	xlogging_get_log_function
 1795              	.LVL244:
 1796 002c 041E     		subs	r4, r0, #0
 1797              	.LVL245:
 1798 002e 0DD0     		beq	.L121
 1799              		.loc 1 585 0 is_stmt 0 discriminator 4
 1800 0030 094B     		ldr	r3, .L122+4
 1801 0032 0193     		str	r3, [sp, #4]
 1802 0034 0123     		movs	r3, #1
 1803 0036 0093     		str	r3, [sp]
 1804 0038 084B     		ldr	r3, .L122+8
 1805 003a 094A     		ldr	r2, .L122+12
 1806 003c 6C32     		adds	r2, r2, #108
 1807 003e 0949     		ldr	r1, .L122+16
 1808 0040 0020     		movs	r0, #0
 1809              	.LVL246:
 1810 0042 A047     		blx	r4
 1811              	.LVL247:
 1812              	.LBE38:
 586:Source\azure_iot_sdk\iothub_client\src/iothubtransport_amqp_device.c ****         result = __FAILURE__;
 1813              		.loc 1 586 0 is_stmt 1 discriminator 4
 1814 0044 0848     		ldr	r0, .L122+20
 1815 0046 02E0     		b	.L119
 1816              	.LVL248:
 1817              	.L120:
ARM GAS  C:\Users\Phuong\AppData\Local\Temp\ccrNXYcn.s 			page 46


 587:Source\azure_iot_sdk\iothub_client\src/iothubtransport_amqp_device.c ****     }
 588:Source\azure_iot_sdk\iothub_client\src/iothubtransport_amqp_device.c ****     else
 589:Source\azure_iot_sdk\iothub_client\src/iothubtransport_amqp_device.c ****     {
 590:Source\azure_iot_sdk\iothub_client\src/iothubtransport_amqp_device.c ****         result = RESULT_OK;
 1818              		.loc 1 590 0
 1819 0048 0020     		movs	r0, #0
 1820 004a 00E0     		b	.L119
 1821              	.LVL249:
 1822              	.L121:
 586:Source\azure_iot_sdk\iothub_client\src/iothubtransport_amqp_device.c ****         result = __FAILURE__;
 1823              		.loc 1 586 0
 1824 004c 0648     		ldr	r0, .L122+20
 1825              	.LVL250:
 1826              	.L119:
 591:Source\azure_iot_sdk\iothub_client\src/iothubtransport_amqp_device.c ****     }
 592:Source\azure_iot_sdk\iothub_client\src/iothubtransport_amqp_device.c **** 
 593:Source\azure_iot_sdk\iothub_client\src/iothubtransport_amqp_device.c ****     return result;
 594:Source\azure_iot_sdk\iothub_client\src/iothubtransport_amqp_device.c **** }
 1827              		.loc 1 594 0
 1828 004e 0AB0     		add	sp, sp, #40
 1829              		@ sp needed
 1830 0050 10BD     		pop	{r4, pc}
 1831              	.L123:
 1832 0052 C046     		.align	2
 1833              	.L122:
 1834 0054 00000000 		.word	on_messenger_state_changed_callback
 1835 0058 8C060000 		.word	.LC75
 1836 005c 49020000 		.word	585
 1837 0060 94010000 		.word	.LANCHOR3
 1838 0064 00000000 		.word	.LC4
 1839 0068 4A020000 		.word	586
 1840              		.cfi_endproc
 1841              	.LFE37:
 1842              		.size	create_telemetry_messenger_instance, .-create_telemetry_messenger_instance
 1843              		.section	.text.create_twin_messenger,"ax",%progbits
 1844              		.align	2
 1845              		.code	16
 1846              		.thumb_func
 1847              		.type	create_twin_messenger, %function
 1848              	create_twin_messenger:
 1849              	.LFB38:
 595:Source\azure_iot_sdk\iothub_client\src/iothubtransport_amqp_device.c **** 
 596:Source\azure_iot_sdk\iothub_client\src/iothubtransport_amqp_device.c **** static int create_twin_messenger(AMQP_DEVICE_INSTANCE* instance)
 597:Source\azure_iot_sdk\iothub_client\src/iothubtransport_amqp_device.c **** {
 1850              		.loc 1 597 0
 1851              		.cfi_startproc
 1852              		@ args = 0, pretend = 0, frame = 32
 1853              		@ frame_needed = 0, uses_anonymous_args = 0
 1854              	.LVL251:
 1855 0000 10B5     		push	{r4, lr}
 1856              		.cfi_def_cfa_offset 8
 1857              		.cfi_offset 4, -8
 1858              		.cfi_offset 14, -4
 1859 0002 88B0     		sub	sp, sp, #32
 1860              		.cfi_def_cfa_offset 40
 1861 0004 0400     		movs	r4, r0
 598:Source\azure_iot_sdk\iothub_client\src/iothubtransport_amqp_device.c ****     int result;
ARM GAS  C:\Users\Phuong\AppData\Local\Temp\ccrNXYcn.s 			page 47


 599:Source\azure_iot_sdk\iothub_client\src/iothubtransport_amqp_device.c ****     TWIN_MESSENGER_CONFIG twin_msgr_config;
 600:Source\azure_iot_sdk\iothub_client\src/iothubtransport_amqp_device.c **** 
 601:Source\azure_iot_sdk\iothub_client\src/iothubtransport_amqp_device.c ****     twin_msgr_config.client_version = instance->config->product_info;
 1862              		.loc 1 601 0
 1863 0006 0368     		ldr	r3, [r0]
 1864 0008 9A68     		ldr	r2, [r3, #8]
 1865 000a 0292     		str	r2, [sp, #8]
 602:Source\azure_iot_sdk\iothub_client\src/iothubtransport_amqp_device.c ****     twin_msgr_config.device_id = instance->config->device_id;
 1866              		.loc 1 602 0
 1867 000c 1A68     		ldr	r2, [r3]
 1868 000e 0392     		str	r2, [sp, #12]
 603:Source\azure_iot_sdk\iothub_client\src/iothubtransport_amqp_device.c ****     twin_msgr_config.module_id = instance->config->module_id;
 1869              		.loc 1 603 0
 1870 0010 5A68     		ldr	r2, [r3, #4]
 1871 0012 0492     		str	r2, [sp, #16]
 604:Source\azure_iot_sdk\iothub_client\src/iothubtransport_amqp_device.c ****     twin_msgr_config.iothub_host_fqdn = instance->config->iothub_host_fqdn;
 1872              		.loc 1 604 0
 1873 0014 DB68     		ldr	r3, [r3, #12]
 1874 0016 0193     		str	r3, [sp, #4]
 1875 0018 0593     		str	r3, [sp, #20]
 605:Source\azure_iot_sdk\iothub_client\src/iothubtransport_amqp_device.c ****     twin_msgr_config.on_state_changed_callback = on_twin_messenger_state_changed_callback;
 1876              		.loc 1 605 0
 1877 001a 074B     		ldr	r3, .L127
 1878 001c 0693     		str	r3, [sp, #24]
 606:Source\azure_iot_sdk\iothub_client\src/iothubtransport_amqp_device.c ****     twin_msgr_config.on_state_changed_context = (void*)instance;
 1879              		.loc 1 606 0
 1880 001e 0790     		str	r0, [sp, #28]
 607:Source\azure_iot_sdk\iothub_client\src/iothubtransport_amqp_device.c **** 
 608:Source\azure_iot_sdk\iothub_client\src/iothubtransport_amqp_device.c ****     if ((instance->twin_messenger_handle = twin_messenger_create(&twin_msgr_config)) == NULL)
 1881              		.loc 1 608 0
 1882 0020 02A8     		add	r0, sp, #8
 1883              	.LVL252:
 1884 0022 FFF7FEFF 		bl	twin_messenger_create
 1885              	.LVL253:
 1886 0026 A063     		str	r0, [r4, #56]
 1887 0028 0028     		cmp	r0, #0
 1888 002a 01D1     		bne	.L126
 609:Source\azure_iot_sdk\iothub_client\src/iothubtransport_amqp_device.c ****     {
 610:Source\azure_iot_sdk\iothub_client\src/iothubtransport_amqp_device.c ****         result = __FAILURE__;
 1889              		.loc 1 610 0
 1890 002c 0348     		ldr	r0, .L127+4
 1891 002e 00E0     		b	.L125
 1892              	.L126:
 611:Source\azure_iot_sdk\iothub_client\src/iothubtransport_amqp_device.c ****     }
 612:Source\azure_iot_sdk\iothub_client\src/iothubtransport_amqp_device.c ****     else
 613:Source\azure_iot_sdk\iothub_client\src/iothubtransport_amqp_device.c ****     {
 614:Source\azure_iot_sdk\iothub_client\src/iothubtransport_amqp_device.c ****         result = RESULT_OK;
 1893              		.loc 1 614 0
 1894 0030 0020     		movs	r0, #0
 1895              	.L125:
 1896              	.LVL254:
 615:Source\azure_iot_sdk\iothub_client\src/iothubtransport_amqp_device.c ****     }
 616:Source\azure_iot_sdk\iothub_client\src/iothubtransport_amqp_device.c **** 
 617:Source\azure_iot_sdk\iothub_client\src/iothubtransport_amqp_device.c ****     return result;
 618:Source\azure_iot_sdk\iothub_client\src/iothubtransport_amqp_device.c **** }
 1897              		.loc 1 618 0
 1898 0032 08B0     		add	sp, sp, #32
ARM GAS  C:\Users\Phuong\AppData\Local\Temp\ccrNXYcn.s 			page 48


 1899              		@ sp needed
 1900              	.LVL255:
 1901 0034 10BD     		pop	{r4, pc}
 1902              	.L128:
 1903 0036 C046     		.align	2
 1904              	.L127:
 1905 0038 00000000 		.word	on_twin_messenger_state_changed_callback
 1906 003c 62020000 		.word	610
 1907              		.cfi_endproc
 1908              	.LFE38:
 1909              		.size	create_twin_messenger, .-create_twin_messenger
 1910              		.section	.text.internal_destroy_device,"ax",%progbits
 1911              		.align	2
 1912              		.code	16
 1913              		.thumb_func
 1914              		.type	internal_destroy_device, %function
 1915              	internal_destroy_device:
 1916              	.LFB35:
 529:Source\azure_iot_sdk\iothub_client\src/iothubtransport_amqp_device.c ****     if (instance != NULL)
 1917              		.loc 1 529 0
 1918              		.cfi_startproc
 1919              		@ args = 0, pretend = 0, frame = 0
 1920              		@ frame_needed = 0, uses_anonymous_args = 0
 1921              	.LVL256:
 1922 0000 10B5     		push	{r4, lr}
 1923              		.cfi_def_cfa_offset 8
 1924              		.cfi_offset 4, -8
 1925              		.cfi_offset 14, -4
 1926 0002 041E     		subs	r4, r0, #0
 530:Source\azure_iot_sdk\iothub_client\src/iothubtransport_amqp_device.c ****     {
 1927              		.loc 1 530 0
 1928 0004 14D0     		beq	.L129
 532:Source\azure_iot_sdk\iothub_client\src/iothubtransport_amqp_device.c ****         {
 1929              		.loc 1 532 0
 1930 0006 006A     		ldr	r0, [r0, #32]
 1931              	.LVL257:
 1932 0008 0028     		cmp	r0, #0
 1933 000a 01D0     		beq	.L131
 534:Source\azure_iot_sdk\iothub_client\src/iothubtransport_amqp_device.c ****         }
 1934              		.loc 1 534 0
 1935 000c FFF7FEFF 		bl	telemetry_messenger_destroy
 1936              	.LVL258:
 1937              	.L131:
 537:Source\azure_iot_sdk\iothub_client\src/iothubtransport_amqp_device.c ****         {
 1938              		.loc 1 537 0
 1939 0010 A06B     		ldr	r0, [r4, #56]
 1940 0012 0028     		cmp	r0, #0
 1941 0014 01D0     		beq	.L132
 539:Source\azure_iot_sdk\iothub_client\src/iothubtransport_amqp_device.c ****         }
 1942              		.loc 1 539 0
 1943 0016 FFF7FEFF 		bl	twin_messenger_destroy
 1944              	.LVL259:
 1945              	.L132:
 542:Source\azure_iot_sdk\iothub_client\src/iothubtransport_amqp_device.c ****         {
 1946              		.loc 1 542 0
 1947 001a 2069     		ldr	r0, [r4, #16]
 1948 001c 0028     		cmp	r0, #0
ARM GAS  C:\Users\Phuong\AppData\Local\Temp\ccrNXYcn.s 			page 49


 1949 001e 01D0     		beq	.L133
 544:Source\azure_iot_sdk\iothub_client\src/iothubtransport_amqp_device.c ****         }
 1950              		.loc 1 544 0
 1951 0020 FFF7FEFF 		bl	authentication_destroy
 1952              	.LVL260:
 1953              	.L133:
 547:Source\azure_iot_sdk\iothub_client\src/iothubtransport_amqp_device.c ****         free(instance);
 1954              		.loc 1 547 0
 1955 0024 2068     		ldr	r0, [r4]
 1956 0026 FFF7FEFF 		bl	destroy_device_config
 1957              	.LVL261:
 548:Source\azure_iot_sdk\iothub_client\src/iothubtransport_amqp_device.c ****     }
 1958              		.loc 1 548 0
 1959 002a 2000     		movs	r0, r4
 1960 002c FFF7FEFF 		bl	free
 1961              	.LVL262:
 1962              	.L129:
 550:Source\azure_iot_sdk\iothub_client\src/iothubtransport_amqp_device.c **** 
 1963              		.loc 1 550 0
 1964              		@ sp needed
 1965              	.LVL263:
 1966 0030 10BD     		pop	{r4, pc}
 1967              		.cfi_endproc
 1968              	.LFE35:
 1969              		.size	internal_destroy_device, .-internal_destroy_device
 1970              		.global	__aeabi_ui2d
 1971              		.global	__aeabi_dcmpge
 1972 0032 C046     		.section	.text.is_timeout_reached,"ax",%progbits
 1973              		.align	2
 1974              		.code	16
 1975              		.thumb_func
 1976              		.type	is_timeout_reached, %function
 1977              	is_timeout_reached:
 1978              	.LFB16:
  89:Source\azure_iot_sdk\iothub_client\src/iothubtransport_amqp_device.c ****     int result;
 1979              		.loc 1 89 0
 1980              		.cfi_startproc
 1981              		@ args = 0, pretend = 0, frame = 8
 1982              		@ frame_needed = 0, uses_anonymous_args = 0
 1983              	.LVL264:
 1984 0000 70B5     		push	{r4, r5, r6, lr}
 1985              		.cfi_def_cfa_offset 16
 1986              		.cfi_offset 4, -16
 1987              		.cfi_offset 5, -12
 1988              		.cfi_offset 6, -8
 1989              		.cfi_offset 14, -4
 1990 0002 84B0     		sub	sp, sp, #16
 1991              		.cfi_def_cfa_offset 32
 1992 0004 0400     		movs	r4, r0
 1993 0006 0D00     		movs	r5, r1
 1994 0008 1600     		movs	r6, r2
  92:Source\azure_iot_sdk\iothub_client\src/iothubtransport_amqp_device.c ****     {
 1995              		.loc 1 92 0
 1996 000a 431C     		adds	r3, r0, #1
 1997 000c 0FD1     		bne	.L135
 1998              	.LBB39:
  94:Source\azure_iot_sdk\iothub_client\src/iothubtransport_amqp_device.c ****         result = __FAILURE__;
ARM GAS  C:\Users\Phuong\AppData\Local\Temp\ccrNXYcn.s 			page 50


 1999              		.loc 1 94 0 discriminator 3
 2000 000e FFF7FEFF 		bl	xlogging_get_log_function
 2001              	.LVL265:
 2002 0012 041E     		subs	r4, r0, #0
 2003              	.LVL266:
 2004 0014 38D0     		beq	.L140
  94:Source\azure_iot_sdk\iothub_client\src/iothubtransport_amqp_device.c ****         result = __FAILURE__;
 2005              		.loc 1 94 0 is_stmt 0 discriminator 4
 2006 0016 1F4B     		ldr	r3, .L144
 2007 0018 0193     		str	r3, [sp, #4]
 2008 001a 0123     		movs	r3, #1
 2009 001c 0093     		str	r3, [sp]
 2010 001e 5D33     		adds	r3, r3, #93
 2011 0020 1D4A     		ldr	r2, .L144+4
 2012 0022 1032     		adds	r2, r2, #16
 2013 0024 1D49     		ldr	r1, .L144+8
 2014 0026 0020     		movs	r0, #0
 2015              	.LVL267:
 2016 0028 A047     		blx	r4
 2017              	.LVL268:
 2018              	.LBE39:
  95:Source\azure_iot_sdk\iothub_client\src/iothubtransport_amqp_device.c ****     }
 2019              		.loc 1 95 0 is_stmt 1 discriminator 4
 2020 002a 5F20     		movs	r0, #95
 2021 002c 2FE0     		b	.L136
 2022              	.LVL269:
 2023              	.L135:
 2024              	.LBB40:
 101:Source\azure_iot_sdk\iothub_client\src/iothubtransport_amqp_device.c ****         {
 2025              		.loc 1 101 0
 2026 002e 0020     		movs	r0, #0
 2027              	.LVL270:
 2028 0030 FFF7FEFF 		bl	get_time
 2029              	.LVL271:
 2030 0034 431C     		adds	r3, r0, #1
 2031 0036 0FD1     		bne	.L137
 2032              	.LBB41:
 103:Source\azure_iot_sdk\iothub_client\src/iothubtransport_amqp_device.c ****             result = __FAILURE__;
 2033              		.loc 1 103 0 discriminator 3
 2034 0038 FFF7FEFF 		bl	xlogging_get_log_function
 2035              	.LVL272:
 2036 003c 041E     		subs	r4, r0, #0
 2037              	.LVL273:
 2038 003e 25D0     		beq	.L141
 103:Source\azure_iot_sdk\iothub_client\src/iothubtransport_amqp_device.c ****             result = __FAILURE__;
 2039              		.loc 1 103 0 is_stmt 0 discriminator 4
 2040 0040 174B     		ldr	r3, .L144+12
 2041 0042 0193     		str	r3, [sp, #4]
 2042 0044 0123     		movs	r3, #1
 2043 0046 0093     		str	r3, [sp]
 2044 0048 6633     		adds	r3, r3, #102
 2045 004a 134A     		ldr	r2, .L144+4
 2046 004c 1032     		adds	r2, r2, #16
 2047 004e 1349     		ldr	r1, .L144+8
 2048 0050 0020     		movs	r0, #0
 2049              	.LVL274:
 2050 0052 A047     		blx	r4
ARM GAS  C:\Users\Phuong\AppData\Local\Temp\ccrNXYcn.s 			page 51


 2051              	.LVL275:
 2052              	.LBE41:
 104:Source\azure_iot_sdk\iothub_client\src/iothubtransport_amqp_device.c ****         }
 2053              		.loc 1 104 0 is_stmt 1 discriminator 4
 2054 0054 6820     		movs	r0, #104
 2055 0056 1AE0     		b	.L136
 2056              	.LVL276:
 2057              	.L137:
 108:Source\azure_iot_sdk\iothub_client\src/iothubtransport_amqp_device.c ****             {
 2058              		.loc 1 108 0
 2059 0058 2100     		movs	r1, r4
 2060 005a FFF7FEFF 		bl	get_difftime
 2061              	.LVL277:
 2062 005e 0290     		str	r0, [sp, #8]
 2063 0060 0391     		str	r1, [sp, #12]
 2064 0062 2800     		movs	r0, r5
 2065 0064 FFF7FEFF 		bl	__aeabi_ui2d
 2066              	.LVL278:
 2067 0068 0200     		movs	r2, r0
 2068 006a 0B00     		movs	r3, r1
 2069 006c 0298     		ldr	r0, [sp, #8]
 2070 006e 0399     		ldr	r1, [sp, #12]
 2071 0070 FFF7FEFF 		bl	__aeabi_dcmpge
 2072              	.LVL279:
 2073 0074 0028     		cmp	r0, #0
 2074 0076 03D0     		beq	.L143
 110:Source\azure_iot_sdk\iothub_client\src/iothubtransport_amqp_device.c ****             }
 2075              		.loc 1 110 0
 2076 0078 0123     		movs	r3, #1
 2077 007a 3360     		str	r3, [r6]
 117:Source\azure_iot_sdk\iothub_client\src/iothubtransport_amqp_device.c ****         }
 2078              		.loc 1 117 0
 2079 007c 0020     		movs	r0, #0
 2080 007e 06E0     		b	.L136
 2081              	.L143:
 114:Source\azure_iot_sdk\iothub_client\src/iothubtransport_amqp_device.c ****             }
 2082              		.loc 1 114 0
 2083 0080 0023     		movs	r3, #0
 2084 0082 3360     		str	r3, [r6]
 117:Source\azure_iot_sdk\iothub_client\src/iothubtransport_amqp_device.c ****         }
 2085              		.loc 1 117 0
 2086 0084 0020     		movs	r0, #0
 2087 0086 02E0     		b	.L136
 2088              	.LVL280:
 2089              	.L140:
 2090              	.LBE40:
  95:Source\azure_iot_sdk\iothub_client\src/iothubtransport_amqp_device.c ****     }
 2091              		.loc 1 95 0
 2092 0088 5F20     		movs	r0, #95
 2093              	.LVL281:
 2094 008a 00E0     		b	.L136
 2095              	.LVL282:
 2096              	.L141:
 2097              	.LBB42:
 104:Source\azure_iot_sdk\iothub_client\src/iothubtransport_amqp_device.c ****         }
 2098              		.loc 1 104 0
 2099 008c 6820     		movs	r0, #104
ARM GAS  C:\Users\Phuong\AppData\Local\Temp\ccrNXYcn.s 			page 52


 2100              	.LVL283:
 2101              	.L136:
 2102              	.LBE42:
 122:Source\azure_iot_sdk\iothub_client\src/iothubtransport_amqp_device.c **** 
 2103              		.loc 1 122 0
 2104 008e 04B0     		add	sp, sp, #16
 2105              		@ sp needed
 2106              	.LVL284:
 2107              	.LVL285:
 2108 0090 70BD     		pop	{r4, r5, r6, pc}
 2109              	.L145:
 2110 0092 C046     		.align	2
 2111              	.L144:
 2112 0094 D8060000 		.word	.LC80
 2113 0098 14020000 		.word	.LANCHOR4
 2114 009c 00000000 		.word	.LC4
 2115 00a0 0C070000 		.word	.LC82
 2116              		.cfi_endproc
 2117              	.LFE16:
 2118              		.size	is_timeout_reached, .-is_timeout_reached
 2119              		.section	.text.device_set_option,"ax",%progbits
 2120              		.align	2
 2121              		.global	device_set_option
 2122              		.code	16
 2123              		.thumb_func
 2124              		.type	device_set_option, %function
 2125              	device_set_option:
 2126              	.LFB52:
 619:Source\azure_iot_sdk\iothub_client\src/iothubtransport_amqp_device.c **** 
 620:Source\azure_iot_sdk\iothub_client\src/iothubtransport_amqp_device.c **** 
 621:Source\azure_iot_sdk\iothub_client\src/iothubtransport_amqp_device.c **** // ---------- Set/Retrieve Options Helpers ----------//
 622:Source\azure_iot_sdk\iothub_client\src/iothubtransport_amqp_device.c **** 
 623:Source\azure_iot_sdk\iothub_client\src/iothubtransport_amqp_device.c **** static void* device_clone_option(const char* name, const void* value)
 624:Source\azure_iot_sdk\iothub_client\src/iothubtransport_amqp_device.c **** {
 625:Source\azure_iot_sdk\iothub_client\src/iothubtransport_amqp_device.c ****     void* result;
 626:Source\azure_iot_sdk\iothub_client\src/iothubtransport_amqp_device.c **** 
 627:Source\azure_iot_sdk\iothub_client\src/iothubtransport_amqp_device.c ****     if (name == NULL || value == NULL)
 628:Source\azure_iot_sdk\iothub_client\src/iothubtransport_amqp_device.c ****     {
 629:Source\azure_iot_sdk\iothub_client\src/iothubtransport_amqp_device.c ****         LogError("Failed to clone device option (either name (%p) or value (%p) is NULL)", name, va
 630:Source\azure_iot_sdk\iothub_client\src/iothubtransport_amqp_device.c ****         result = NULL;
 631:Source\azure_iot_sdk\iothub_client\src/iothubtransport_amqp_device.c ****     }
 632:Source\azure_iot_sdk\iothub_client\src/iothubtransport_amqp_device.c ****     else
 633:Source\azure_iot_sdk\iothub_client\src/iothubtransport_amqp_device.c ****     {
 634:Source\azure_iot_sdk\iothub_client\src/iothubtransport_amqp_device.c ****         if (strcmp(DEVICE_OPTION_SAVED_AUTH_OPTIONS, name) == 0 ||
 635:Source\azure_iot_sdk\iothub_client\src/iothubtransport_amqp_device.c ****             strcmp(DEVICE_OPTION_SAVED_MESSENGER_OPTIONS, name) == 0)
 636:Source\azure_iot_sdk\iothub_client\src/iothubtransport_amqp_device.c ****         {
 637:Source\azure_iot_sdk\iothub_client\src/iothubtransport_amqp_device.c ****             if ((result = (void*)OptionHandler_Clone((OPTIONHANDLER_HANDLE)value)) == NULL)
 638:Source\azure_iot_sdk\iothub_client\src/iothubtransport_amqp_device.c ****             {
 639:Source\azure_iot_sdk\iothub_client\src/iothubtransport_amqp_device.c ****                 LogError("Failed to clone device option (OptionHandler_Clone failed for option %s)"
 640:Source\azure_iot_sdk\iothub_client\src/iothubtransport_amqp_device.c ****             }
 641:Source\azure_iot_sdk\iothub_client\src/iothubtransport_amqp_device.c ****         }
 642:Source\azure_iot_sdk\iothub_client\src/iothubtransport_amqp_device.c ****         else
 643:Source\azure_iot_sdk\iothub_client\src/iothubtransport_amqp_device.c ****         {
 644:Source\azure_iot_sdk\iothub_client\src/iothubtransport_amqp_device.c ****             LogError("Failed to clone device option (option with name '%s' is not suppported)", nam
 645:Source\azure_iot_sdk\iothub_client\src/iothubtransport_amqp_device.c ****             result = NULL;
 646:Source\azure_iot_sdk\iothub_client\src/iothubtransport_amqp_device.c ****         }
 647:Source\azure_iot_sdk\iothub_client\src/iothubtransport_amqp_device.c ****     }
ARM GAS  C:\Users\Phuong\AppData\Local\Temp\ccrNXYcn.s 			page 53


 648:Source\azure_iot_sdk\iothub_client\src/iothubtransport_amqp_device.c **** 
 649:Source\azure_iot_sdk\iothub_client\src/iothubtransport_amqp_device.c ****     return result;
 650:Source\azure_iot_sdk\iothub_client\src/iothubtransport_amqp_device.c **** }
 651:Source\azure_iot_sdk\iothub_client\src/iothubtransport_amqp_device.c **** 
 652:Source\azure_iot_sdk\iothub_client\src/iothubtransport_amqp_device.c **** static void device_destroy_option(const char* name, const void* value)
 653:Source\azure_iot_sdk\iothub_client\src/iothubtransport_amqp_device.c **** {
 654:Source\azure_iot_sdk\iothub_client\src/iothubtransport_amqp_device.c ****     if (name == NULL || value == NULL)
 655:Source\azure_iot_sdk\iothub_client\src/iothubtransport_amqp_device.c ****     {
 656:Source\azure_iot_sdk\iothub_client\src/iothubtransport_amqp_device.c ****         LogError("Failed to destroy device option (either name (%p) or value (%p) is NULL)", name, 
 657:Source\azure_iot_sdk\iothub_client\src/iothubtransport_amqp_device.c ****     }
 658:Source\azure_iot_sdk\iothub_client\src/iothubtransport_amqp_device.c ****     else
 659:Source\azure_iot_sdk\iothub_client\src/iothubtransport_amqp_device.c ****     {
 660:Source\azure_iot_sdk\iothub_client\src/iothubtransport_amqp_device.c ****         if (strcmp(name, DEVICE_OPTION_SAVED_AUTH_OPTIONS) == 0 ||
 661:Source\azure_iot_sdk\iothub_client\src/iothubtransport_amqp_device.c ****             strcmp(name, DEVICE_OPTION_SAVED_MESSENGER_OPTIONS) == 0)
 662:Source\azure_iot_sdk\iothub_client\src/iothubtransport_amqp_device.c ****         {
 663:Source\azure_iot_sdk\iothub_client\src/iothubtransport_amqp_device.c ****             OptionHandler_Destroy((OPTIONHANDLER_HANDLE)value);
 664:Source\azure_iot_sdk\iothub_client\src/iothubtransport_amqp_device.c ****         }
 665:Source\azure_iot_sdk\iothub_client\src/iothubtransport_amqp_device.c ****         else
 666:Source\azure_iot_sdk\iothub_client\src/iothubtransport_amqp_device.c ****         {
 667:Source\azure_iot_sdk\iothub_client\src/iothubtransport_amqp_device.c ****             LogError("Failed to clone device option (option with name '%s' is not suppported)", nam
 668:Source\azure_iot_sdk\iothub_client\src/iothubtransport_amqp_device.c ****         }
 669:Source\azure_iot_sdk\iothub_client\src/iothubtransport_amqp_device.c ****     }
 670:Source\azure_iot_sdk\iothub_client\src/iothubtransport_amqp_device.c **** }
 671:Source\azure_iot_sdk\iothub_client\src/iothubtransport_amqp_device.c **** 
 672:Source\azure_iot_sdk\iothub_client\src/iothubtransport_amqp_device.c **** 
 673:Source\azure_iot_sdk\iothub_client\src/iothubtransport_amqp_device.c **** //---------- Public APIs ----------//
 674:Source\azure_iot_sdk\iothub_client\src/iothubtransport_amqp_device.c **** 
 675:Source\azure_iot_sdk\iothub_client\src/iothubtransport_amqp_device.c **** AMQP_DEVICE_HANDLE device_create(DEVICE_CONFIG *config)
 676:Source\azure_iot_sdk\iothub_client\src/iothubtransport_amqp_device.c **** {
 677:Source\azure_iot_sdk\iothub_client\src/iothubtransport_amqp_device.c ****     AMQP_DEVICE_INSTANCE *instance;
 678:Source\azure_iot_sdk\iothub_client\src/iothubtransport_amqp_device.c **** 
 679:Source\azure_iot_sdk\iothub_client\src/iothubtransport_amqp_device.c ****     // Codes_SRS_DEVICE_09_001: [If config, authorization_module or iothub_host_fqdn or on_state_ch
 680:Source\azure_iot_sdk\iothub_client\src/iothubtransport_amqp_device.c ****     if (config == NULL)
 681:Source\azure_iot_sdk\iothub_client\src/iothubtransport_amqp_device.c ****     {
 682:Source\azure_iot_sdk\iothub_client\src/iothubtransport_amqp_device.c ****         LogError("Failed creating the device instance (config is NULL)");
 683:Source\azure_iot_sdk\iothub_client\src/iothubtransport_amqp_device.c ****         instance = NULL;
 684:Source\azure_iot_sdk\iothub_client\src/iothubtransport_amqp_device.c ****     }
 685:Source\azure_iot_sdk\iothub_client\src/iothubtransport_amqp_device.c ****     else if (config->iothub_host_fqdn == NULL)
 686:Source\azure_iot_sdk\iothub_client\src/iothubtransport_amqp_device.c ****     {
 687:Source\azure_iot_sdk\iothub_client\src/iothubtransport_amqp_device.c ****         LogError("Failed creating the device instance (config->iothub_host_fqdn is NULL)");
 688:Source\azure_iot_sdk\iothub_client\src/iothubtransport_amqp_device.c ****         instance = NULL;
 689:Source\azure_iot_sdk\iothub_client\src/iothubtransport_amqp_device.c ****     }
 690:Source\azure_iot_sdk\iothub_client\src/iothubtransport_amqp_device.c ****     else if (config->on_state_changed_callback == NULL)
 691:Source\azure_iot_sdk\iothub_client\src/iothubtransport_amqp_device.c ****     {
 692:Source\azure_iot_sdk\iothub_client\src/iothubtransport_amqp_device.c ****         LogError("Failed creating the device instance (config->on_state_changed_callback is NULL)")
 693:Source\azure_iot_sdk\iothub_client\src/iothubtransport_amqp_device.c ****         instance = NULL;
 694:Source\azure_iot_sdk\iothub_client\src/iothubtransport_amqp_device.c ****     }
 695:Source\azure_iot_sdk\iothub_client\src/iothubtransport_amqp_device.c ****     else if (config->authorization_module == NULL)
 696:Source\azure_iot_sdk\iothub_client\src/iothubtransport_amqp_device.c ****     {
 697:Source\azure_iot_sdk\iothub_client\src/iothubtransport_amqp_device.c ****         LogError("Failed creating the device instance (config->authorization_module is NULL)");
 698:Source\azure_iot_sdk\iothub_client\src/iothubtransport_amqp_device.c ****         instance = NULL;
 699:Source\azure_iot_sdk\iothub_client\src/iothubtransport_amqp_device.c ****     }
 700:Source\azure_iot_sdk\iothub_client\src/iothubtransport_amqp_device.c ****     // Codes_SRS_DEVICE_09_002: [device_create shall allocate memory for the device instance struct
 701:Source\azure_iot_sdk\iothub_client\src/iothubtransport_amqp_device.c ****     else if ((instance = (AMQP_DEVICE_INSTANCE*)malloc(sizeof(AMQP_DEVICE_INSTANCE))) == NULL)
 702:Source\azure_iot_sdk\iothub_client\src/iothubtransport_amqp_device.c ****     {
 703:Source\azure_iot_sdk\iothub_client\src/iothubtransport_amqp_device.c ****         // Codes_SRS_DEVICE_09_003: [If malloc fails, device_create shall fail and return NULL]
 704:Source\azure_iot_sdk\iothub_client\src/iothubtransport_amqp_device.c ****         LogError("Failed creating the device instance (malloc failed)");
ARM GAS  C:\Users\Phuong\AppData\Local\Temp\ccrNXYcn.s 			page 54


 705:Source\azure_iot_sdk\iothub_client\src/iothubtransport_amqp_device.c ****     }
 706:Source\azure_iot_sdk\iothub_client\src/iothubtransport_amqp_device.c ****     else
 707:Source\azure_iot_sdk\iothub_client\src/iothubtransport_amqp_device.c ****     {
 708:Source\azure_iot_sdk\iothub_client\src/iothubtransport_amqp_device.c ****         int result;
 709:Source\azure_iot_sdk\iothub_client\src/iothubtransport_amqp_device.c **** 
 710:Source\azure_iot_sdk\iothub_client\src/iothubtransport_amqp_device.c ****         memset(instance, 0, sizeof(AMQP_DEVICE_INSTANCE));
 711:Source\azure_iot_sdk\iothub_client\src/iothubtransport_amqp_device.c **** 
 712:Source\azure_iot_sdk\iothub_client\src/iothubtransport_amqp_device.c ****         // Codes_SRS_DEVICE_09_004: [All `config` parameters shall be saved into `instance`]
 713:Source\azure_iot_sdk\iothub_client\src/iothubtransport_amqp_device.c ****         if ((instance->config = clone_device_config(config)) == NULL)
 714:Source\azure_iot_sdk\iothub_client\src/iothubtransport_amqp_device.c ****         {
 715:Source\azure_iot_sdk\iothub_client\src/iothubtransport_amqp_device.c ****             // Codes_SRS_DEVICE_09_005: [If any `config` parameters fail to be saved into `instance
 716:Source\azure_iot_sdk\iothub_client\src/iothubtransport_amqp_device.c ****             LogError("Failed creating the device instance for device '%s' (failed copying the confi
 717:Source\azure_iot_sdk\iothub_client\src/iothubtransport_amqp_device.c ****             result = __FAILURE__;
 718:Source\azure_iot_sdk\iothub_client\src/iothubtransport_amqp_device.c ****         }
 719:Source\azure_iot_sdk\iothub_client\src/iothubtransport_amqp_device.c ****         // Codes_SRS_DEVICE_09_006: [If `instance->authentication_mode` is DEVICE_AUTH_MODE_CBS, `i
 720:Source\azure_iot_sdk\iothub_client\src/iothubtransport_amqp_device.c ****         else if (instance->config->authentication_mode == DEVICE_AUTH_MODE_CBS &&
 721:Source\azure_iot_sdk\iothub_client\src/iothubtransport_amqp_device.c ****                  create_authentication_instance(instance) != RESULT_OK)
 722:Source\azure_iot_sdk\iothub_client\src/iothubtransport_amqp_device.c ****         {
 723:Source\azure_iot_sdk\iothub_client\src/iothubtransport_amqp_device.c ****             // Codes_SRS_DEVICE_09_007: [If the AUTHENTICATION_HANDLE fails to be created, device_c
 724:Source\azure_iot_sdk\iothub_client\src/iothubtransport_amqp_device.c ****             LogError("Failed creating the device instance for device '%s' (failed creating the auth
 725:Source\azure_iot_sdk\iothub_client\src/iothubtransport_amqp_device.c ****             result = __FAILURE__;
 726:Source\azure_iot_sdk\iothub_client\src/iothubtransport_amqp_device.c ****         }
 727:Source\azure_iot_sdk\iothub_client\src/iothubtransport_amqp_device.c ****         // Codes_SRS_DEVICE_09_008: [`instance->messenger_handle` shall be set using telemetry_mess
 728:Source\azure_iot_sdk\iothub_client\src/iothubtransport_amqp_device.c ****         else if (create_telemetry_messenger_instance(instance, config->product_info) != RESULT_OK)
 729:Source\azure_iot_sdk\iothub_client\src/iothubtransport_amqp_device.c ****         {
 730:Source\azure_iot_sdk\iothub_client\src/iothubtransport_amqp_device.c ****             // Codes_SRS_DEVICE_09_009: [If the TELEMETRY_MESSENGER_HANDLE fails to be created, dev
 731:Source\azure_iot_sdk\iothub_client\src/iothubtransport_amqp_device.c ****             LogError("Failed creating the device instance for device '%s' (failed creating the mess
 732:Source\azure_iot_sdk\iothub_client\src/iothubtransport_amqp_device.c ****             result = __FAILURE__;
 733:Source\azure_iot_sdk\iothub_client\src/iothubtransport_amqp_device.c ****         }
 734:Source\azure_iot_sdk\iothub_client\src/iothubtransport_amqp_device.c ****         // Codes_SRS_DEVICE_09_122: [`instance->twin_messenger_handle` shall be set using twin_mess
 735:Source\azure_iot_sdk\iothub_client\src/iothubtransport_amqp_device.c ****         else if (create_twin_messenger(instance) != RESULT_OK)
 736:Source\azure_iot_sdk\iothub_client\src/iothubtransport_amqp_device.c ****         {
 737:Source\azure_iot_sdk\iothub_client\src/iothubtransport_amqp_device.c ****             // Codes_SRS_DEVICE_09_123: [If the TWIN_MESSENGER_HANDLE fails to be created, device_c
 738:Source\azure_iot_sdk\iothub_client\src/iothubtransport_amqp_device.c ****             LogError("Failed creating the twin messenger for device '%s'", instance->config->device
 739:Source\azure_iot_sdk\iothub_client\src/iothubtransport_amqp_device.c ****             result = __FAILURE__;
 740:Source\azure_iot_sdk\iothub_client\src/iothubtransport_amqp_device.c ****         }
 741:Source\azure_iot_sdk\iothub_client\src/iothubtransport_amqp_device.c ****         else
 742:Source\azure_iot_sdk\iothub_client\src/iothubtransport_amqp_device.c ****         {
 743:Source\azure_iot_sdk\iothub_client\src/iothubtransport_amqp_device.c ****             instance->auth_state = AUTHENTICATION_STATE_STOPPED;
 744:Source\azure_iot_sdk\iothub_client\src/iothubtransport_amqp_device.c ****             instance->msgr_state = TELEMETRY_MESSENGER_STATE_STOPPED;
 745:Source\azure_iot_sdk\iothub_client\src/iothubtransport_amqp_device.c ****             instance->twin_msgr_state = TWIN_MESSENGER_STATE_STOPPED;
 746:Source\azure_iot_sdk\iothub_client\src/iothubtransport_amqp_device.c ****             instance->state = DEVICE_STATE_STOPPED;
 747:Source\azure_iot_sdk\iothub_client\src/iothubtransport_amqp_device.c ****             instance->auth_state_last_changed_time = INDEFINITE_TIME;
 748:Source\azure_iot_sdk\iothub_client\src/iothubtransport_amqp_device.c ****             instance->auth_state_change_timeout_secs = DEFAULT_AUTH_STATE_CHANGED_TIMEOUT_SECS;
 749:Source\azure_iot_sdk\iothub_client\src/iothubtransport_amqp_device.c ****             instance->msgr_state_last_changed_time = INDEFINITE_TIME;
 750:Source\azure_iot_sdk\iothub_client\src/iothubtransport_amqp_device.c ****             instance->msgr_state_change_timeout_secs = DEFAULT_MSGR_STATE_CHANGED_TIMEOUT_SECS;
 751:Source\azure_iot_sdk\iothub_client\src/iothubtransport_amqp_device.c ****             instance->twin_msgr_state_last_changed_time = INDEFINITE_TIME;
 752:Source\azure_iot_sdk\iothub_client\src/iothubtransport_amqp_device.c ****             instance->twin_msgr_state_change_timeout_secs = DEFAULT_MSGR_STATE_CHANGED_TIMEOUT_SECS
 753:Source\azure_iot_sdk\iothub_client\src/iothubtransport_amqp_device.c **** 
 754:Source\azure_iot_sdk\iothub_client\src/iothubtransport_amqp_device.c ****             result = RESULT_OK;
 755:Source\azure_iot_sdk\iothub_client\src/iothubtransport_amqp_device.c ****         }
 756:Source\azure_iot_sdk\iothub_client\src/iothubtransport_amqp_device.c **** 
 757:Source\azure_iot_sdk\iothub_client\src/iothubtransport_amqp_device.c ****         if (result != RESULT_OK)
 758:Source\azure_iot_sdk\iothub_client\src/iothubtransport_amqp_device.c ****         {
 759:Source\azure_iot_sdk\iothub_client\src/iothubtransport_amqp_device.c ****             // Codes_SRS_DEVICE_09_010: [If device_create fails it shall release all memory it has 
 760:Source\azure_iot_sdk\iothub_client\src/iothubtransport_amqp_device.c ****             internal_destroy_device(instance);
 761:Source\azure_iot_sdk\iothub_client\src/iothubtransport_amqp_device.c ****             instance = NULL;
ARM GAS  C:\Users\Phuong\AppData\Local\Temp\ccrNXYcn.s 			page 55


 762:Source\azure_iot_sdk\iothub_client\src/iothubtransport_amqp_device.c ****         }
 763:Source\azure_iot_sdk\iothub_client\src/iothubtransport_amqp_device.c ****     }
 764:Source\azure_iot_sdk\iothub_client\src/iothubtransport_amqp_device.c **** 
 765:Source\azure_iot_sdk\iothub_client\src/iothubtransport_amqp_device.c ****     // Codes_SRS_DEVICE_09_011: [If device_create succeeds it shall return a handle to its `instanc
 766:Source\azure_iot_sdk\iothub_client\src/iothubtransport_amqp_device.c ****     return (AMQP_DEVICE_HANDLE)instance;
 767:Source\azure_iot_sdk\iothub_client\src/iothubtransport_amqp_device.c **** }
 768:Source\azure_iot_sdk\iothub_client\src/iothubtransport_amqp_device.c **** 
 769:Source\azure_iot_sdk\iothub_client\src/iothubtransport_amqp_device.c **** int device_start_async(AMQP_DEVICE_HANDLE handle, SESSION_HANDLE session_handle, CBS_HANDLE cbs_han
 770:Source\azure_iot_sdk\iothub_client\src/iothubtransport_amqp_device.c **** {
 771:Source\azure_iot_sdk\iothub_client\src/iothubtransport_amqp_device.c ****     int result;
 772:Source\azure_iot_sdk\iothub_client\src/iothubtransport_amqp_device.c **** 
 773:Source\azure_iot_sdk\iothub_client\src/iothubtransport_amqp_device.c ****     // Codes_SRS_DEVICE_09_017: [If `handle` is NULL, device_start_async shall return a non-zero re
 774:Source\azure_iot_sdk\iothub_client\src/iothubtransport_amqp_device.c ****     if (handle == NULL)
 775:Source\azure_iot_sdk\iothub_client\src/iothubtransport_amqp_device.c ****     {
 776:Source\azure_iot_sdk\iothub_client\src/iothubtransport_amqp_device.c ****         LogError("Failed starting device (handle is NULL)");
 777:Source\azure_iot_sdk\iothub_client\src/iothubtransport_amqp_device.c ****         result = __FAILURE__;
 778:Source\azure_iot_sdk\iothub_client\src/iothubtransport_amqp_device.c ****     }
 779:Source\azure_iot_sdk\iothub_client\src/iothubtransport_amqp_device.c ****     else
 780:Source\azure_iot_sdk\iothub_client\src/iothubtransport_amqp_device.c ****     {
 781:Source\azure_iot_sdk\iothub_client\src/iothubtransport_amqp_device.c ****         AMQP_DEVICE_INSTANCE* instance = (AMQP_DEVICE_INSTANCE*)handle;
 782:Source\azure_iot_sdk\iothub_client\src/iothubtransport_amqp_device.c **** 
 783:Source\azure_iot_sdk\iothub_client\src/iothubtransport_amqp_device.c ****         // Codes_SRS_DEVICE_09_018: [If the device state is not DEVICE_STATE_STOPPED, device_start_
 784:Source\azure_iot_sdk\iothub_client\src/iothubtransport_amqp_device.c ****         if (instance->state != DEVICE_STATE_STOPPED)
 785:Source\azure_iot_sdk\iothub_client\src/iothubtransport_amqp_device.c ****         {
 786:Source\azure_iot_sdk\iothub_client\src/iothubtransport_amqp_device.c ****             LogError("Failed starting device (device is not stopped)");
 787:Source\azure_iot_sdk\iothub_client\src/iothubtransport_amqp_device.c ****             result = __FAILURE__;
 788:Source\azure_iot_sdk\iothub_client\src/iothubtransport_amqp_device.c ****         }
 789:Source\azure_iot_sdk\iothub_client\src/iothubtransport_amqp_device.c ****         // Codes_SRS_DEVICE_09_019: [If `session_handle` is NULL, device_start_async shall return a
 790:Source\azure_iot_sdk\iothub_client\src/iothubtransport_amqp_device.c ****         else if (session_handle == NULL)
 791:Source\azure_iot_sdk\iothub_client\src/iothubtransport_amqp_device.c ****         {
 792:Source\azure_iot_sdk\iothub_client\src/iothubtransport_amqp_device.c ****             LogError("Failed starting device (session_handle is NULL)");
 793:Source\azure_iot_sdk\iothub_client\src/iothubtransport_amqp_device.c ****             result = __FAILURE__;
 794:Source\azure_iot_sdk\iothub_client\src/iothubtransport_amqp_device.c ****         }
 795:Source\azure_iot_sdk\iothub_client\src/iothubtransport_amqp_device.c ****         // Codes_SRS_DEVICE_09_020: [If using CBS authentication and `cbs_handle` is NULL, device_s
 796:Source\azure_iot_sdk\iothub_client\src/iothubtransport_amqp_device.c ****         else if (instance->config->authentication_mode == DEVICE_AUTH_MODE_CBS && cbs_handle == NUL
 797:Source\azure_iot_sdk\iothub_client\src/iothubtransport_amqp_device.c ****         {
 798:Source\azure_iot_sdk\iothub_client\src/iothubtransport_amqp_device.c ****             LogError("Failed starting device (device using CBS authentication, but cbs_handle is NU
 799:Source\azure_iot_sdk\iothub_client\src/iothubtransport_amqp_device.c ****             result = __FAILURE__;
 800:Source\azure_iot_sdk\iothub_client\src/iothubtransport_amqp_device.c ****         }
 801:Source\azure_iot_sdk\iothub_client\src/iothubtransport_amqp_device.c ****         else
 802:Source\azure_iot_sdk\iothub_client\src/iothubtransport_amqp_device.c ****         {
 803:Source\azure_iot_sdk\iothub_client\src/iothubtransport_amqp_device.c ****             // Codes_SRS_DEVICE_09_021: [`session_handle` and `cbs_handle` shall be saved into the 
 804:Source\azure_iot_sdk\iothub_client\src/iothubtransport_amqp_device.c ****             instance->session_handle = session_handle;
 805:Source\azure_iot_sdk\iothub_client\src/iothubtransport_amqp_device.c ****             instance->cbs_handle = cbs_handle;
 806:Source\azure_iot_sdk\iothub_client\src/iothubtransport_amqp_device.c **** 
 807:Source\azure_iot_sdk\iothub_client\src/iothubtransport_amqp_device.c ****             // Codes_SRS_DEVICE_09_022: [The device state shall be updated to DEVICE_STATE_STARTING
 808:Source\azure_iot_sdk\iothub_client\src/iothubtransport_amqp_device.c ****             update_state(instance, DEVICE_STATE_STARTING);
 809:Source\azure_iot_sdk\iothub_client\src/iothubtransport_amqp_device.c **** 
 810:Source\azure_iot_sdk\iothub_client\src/iothubtransport_amqp_device.c ****             // Codes_SRS_DEVICE_09_023: [If no failures occur, device_start_async shall return 0]
 811:Source\azure_iot_sdk\iothub_client\src/iothubtransport_amqp_device.c ****             result = RESULT_OK;
 812:Source\azure_iot_sdk\iothub_client\src/iothubtransport_amqp_device.c ****         }
 813:Source\azure_iot_sdk\iothub_client\src/iothubtransport_amqp_device.c ****     }
 814:Source\azure_iot_sdk\iothub_client\src/iothubtransport_amqp_device.c **** 
 815:Source\azure_iot_sdk\iothub_client\src/iothubtransport_amqp_device.c ****     return result;
 816:Source\azure_iot_sdk\iothub_client\src/iothubtransport_amqp_device.c **** }
 817:Source\azure_iot_sdk\iothub_client\src/iothubtransport_amqp_device.c **** 
 818:Source\azure_iot_sdk\iothub_client\src/iothubtransport_amqp_device.c **** // @brief
ARM GAS  C:\Users\Phuong\AppData\Local\Temp\ccrNXYcn.s 			page 56


 819:Source\azure_iot_sdk\iothub_client\src/iothubtransport_amqp_device.c **** //     stops a device instance (stops messenger and authentication) synchronously.
 820:Source\azure_iot_sdk\iothub_client\src/iothubtransport_amqp_device.c **** // @returns
 821:Source\azure_iot_sdk\iothub_client\src/iothubtransport_amqp_device.c **** //     0 if the function succeeds, non-zero otherwise.
 822:Source\azure_iot_sdk\iothub_client\src/iothubtransport_amqp_device.c **** int device_stop(AMQP_DEVICE_HANDLE handle)
 823:Source\azure_iot_sdk\iothub_client\src/iothubtransport_amqp_device.c **** {
 824:Source\azure_iot_sdk\iothub_client\src/iothubtransport_amqp_device.c ****     int result;
 825:Source\azure_iot_sdk\iothub_client\src/iothubtransport_amqp_device.c **** 
 826:Source\azure_iot_sdk\iothub_client\src/iothubtransport_amqp_device.c ****     // Codes_SRS_DEVICE_09_024: [If `handle` is NULL, device_stop shall return a non-zero result]
 827:Source\azure_iot_sdk\iothub_client\src/iothubtransport_amqp_device.c ****     if (handle == NULL)
 828:Source\azure_iot_sdk\iothub_client\src/iothubtransport_amqp_device.c ****     {
 829:Source\azure_iot_sdk\iothub_client\src/iothubtransport_amqp_device.c ****         LogError("Failed stopping device (handle is NULL)");
 830:Source\azure_iot_sdk\iothub_client\src/iothubtransport_amqp_device.c ****         result = __FAILURE__;
 831:Source\azure_iot_sdk\iothub_client\src/iothubtransport_amqp_device.c ****     }
 832:Source\azure_iot_sdk\iothub_client\src/iothubtransport_amqp_device.c ****     else
 833:Source\azure_iot_sdk\iothub_client\src/iothubtransport_amqp_device.c ****     {
 834:Source\azure_iot_sdk\iothub_client\src/iothubtransport_amqp_device.c ****         AMQP_DEVICE_INSTANCE* instance = (AMQP_DEVICE_INSTANCE*)handle;
 835:Source\azure_iot_sdk\iothub_client\src/iothubtransport_amqp_device.c **** 
 836:Source\azure_iot_sdk\iothub_client\src/iothubtransport_amqp_device.c ****         // Codes_SRS_DEVICE_09_025: [If the device state is already DEVICE_STATE_STOPPED or DEVICE_
 837:Source\azure_iot_sdk\iothub_client\src/iothubtransport_amqp_device.c ****         if (instance->state == DEVICE_STATE_STOPPED || instance->state == DEVICE_STATE_STOPPING)
 838:Source\azure_iot_sdk\iothub_client\src/iothubtransport_amqp_device.c ****         {
 839:Source\azure_iot_sdk\iothub_client\src/iothubtransport_amqp_device.c ****             LogError("Failed stopping device '%s' (device is already stopped or stopping)", instanc
 840:Source\azure_iot_sdk\iothub_client\src/iothubtransport_amqp_device.c ****             result = __FAILURE__;
 841:Source\azure_iot_sdk\iothub_client\src/iothubtransport_amqp_device.c ****         }
 842:Source\azure_iot_sdk\iothub_client\src/iothubtransport_amqp_device.c ****         else
 843:Source\azure_iot_sdk\iothub_client\src/iothubtransport_amqp_device.c ****         {
 844:Source\azure_iot_sdk\iothub_client\src/iothubtransport_amqp_device.c ****             // Codes_SRS_DEVICE_09_026: [The device state shall be updated to DEVICE_STATE_STOPPING
 845:Source\azure_iot_sdk\iothub_client\src/iothubtransport_amqp_device.c ****             update_state(instance, DEVICE_STATE_STOPPING);
 846:Source\azure_iot_sdk\iothub_client\src/iothubtransport_amqp_device.c **** 
 847:Source\azure_iot_sdk\iothub_client\src/iothubtransport_amqp_device.c ****             // Codes_SRS_DEVICE_09_027: [If `instance->messenger_handle` state is not TELEMETRY_MES
 848:Source\azure_iot_sdk\iothub_client\src/iothubtransport_amqp_device.c ****             if (instance->msgr_state != TELEMETRY_MESSENGER_STATE_STOPPED &&
 849:Source\azure_iot_sdk\iothub_client\src/iothubtransport_amqp_device.c ****                 instance->msgr_state != TELEMETRY_MESSENGER_STATE_STOPPING &&
 850:Source\azure_iot_sdk\iothub_client\src/iothubtransport_amqp_device.c ****                 telemetry_messenger_stop(instance->messenger_handle) != RESULT_OK)
 851:Source\azure_iot_sdk\iothub_client\src/iothubtransport_amqp_device.c ****             {
 852:Source\azure_iot_sdk\iothub_client\src/iothubtransport_amqp_device.c ****                 // Codes_SRS_DEVICE_09_028: [If messenger_stop fails, the `instance` state shall be
 853:Source\azure_iot_sdk\iothub_client\src/iothubtransport_amqp_device.c ****                 LogError("Failed stopping device '%s' (telemetry_messenger_stop failed)", instance-
 854:Source\azure_iot_sdk\iothub_client\src/iothubtransport_amqp_device.c ****                 result = __FAILURE__;
 855:Source\azure_iot_sdk\iothub_client\src/iothubtransport_amqp_device.c ****                 update_state(instance, DEVICE_STATE_ERROR_MSG);
 856:Source\azure_iot_sdk\iothub_client\src/iothubtransport_amqp_device.c ****             }
 857:Source\azure_iot_sdk\iothub_client\src/iothubtransport_amqp_device.c ****             // Codes_SRS_DEVICE_09_131: [If `instance->twin_messenger_handle` state is not TWIN_MES
 858:Source\azure_iot_sdk\iothub_client\src/iothubtransport_amqp_device.c ****             else if (instance->twin_msgr_state != TWIN_MESSENGER_STATE_STOPPED &&
 859:Source\azure_iot_sdk\iothub_client\src/iothubtransport_amqp_device.c ****                 instance->twin_msgr_state != TWIN_MESSENGER_STATE_STOPPING &&
 860:Source\azure_iot_sdk\iothub_client\src/iothubtransport_amqp_device.c ****                 twin_messenger_stop(instance->twin_messenger_handle) != RESULT_OK)
 861:Source\azure_iot_sdk\iothub_client\src/iothubtransport_amqp_device.c ****             {
 862:Source\azure_iot_sdk\iothub_client\src/iothubtransport_amqp_device.c ****                 // Codes_SRS_DEVICE_09_132: [If twin_messenger_stop fails, the `instance` state sha
 863:Source\azure_iot_sdk\iothub_client\src/iothubtransport_amqp_device.c ****                 LogError("Failed stopping device '%s' (twin_messenger_stop failed)", instance->conf
 864:Source\azure_iot_sdk\iothub_client\src/iothubtransport_amqp_device.c ****                 result = __FAILURE__;
 865:Source\azure_iot_sdk\iothub_client\src/iothubtransport_amqp_device.c ****                 update_state(instance, DEVICE_STATE_ERROR_MSG);
 866:Source\azure_iot_sdk\iothub_client\src/iothubtransport_amqp_device.c ****             }
 867:Source\azure_iot_sdk\iothub_client\src/iothubtransport_amqp_device.c ****             // Codes_SRS_DEVICE_09_029: [If CBS authentication is used, if `instance->authenticatio
 868:Source\azure_iot_sdk\iothub_client\src/iothubtransport_amqp_device.c ****             else if (instance->config->authentication_mode == DEVICE_AUTH_MODE_CBS &&
 869:Source\azure_iot_sdk\iothub_client\src/iothubtransport_amqp_device.c ****                 instance->auth_state != AUTHENTICATION_STATE_STOPPED &&
 870:Source\azure_iot_sdk\iothub_client\src/iothubtransport_amqp_device.c ****                 authentication_stop(instance->authentication_handle) != RESULT_OK)
 871:Source\azure_iot_sdk\iothub_client\src/iothubtransport_amqp_device.c ****             {
 872:Source\azure_iot_sdk\iothub_client\src/iothubtransport_amqp_device.c ****                 // Codes_SRS_DEVICE_09_030: [If authentication_stop fails, the `instance` state sha
 873:Source\azure_iot_sdk\iothub_client\src/iothubtransport_amqp_device.c ****                 LogError("Failed stopping device '%s' (authentication_stop failed)", instance->conf
 874:Source\azure_iot_sdk\iothub_client\src/iothubtransport_amqp_device.c ****                 result = __FAILURE__;
 875:Source\azure_iot_sdk\iothub_client\src/iothubtransport_amqp_device.c ****                 update_state(instance, DEVICE_STATE_ERROR_AUTH);
ARM GAS  C:\Users\Phuong\AppData\Local\Temp\ccrNXYcn.s 			page 57


 876:Source\azure_iot_sdk\iothub_client\src/iothubtransport_amqp_device.c ****             }
 877:Source\azure_iot_sdk\iothub_client\src/iothubtransport_amqp_device.c ****             else
 878:Source\azure_iot_sdk\iothub_client\src/iothubtransport_amqp_device.c ****             {
 879:Source\azure_iot_sdk\iothub_client\src/iothubtransport_amqp_device.c ****                 // Codes_SRS_DEVICE_09_031: [The device state shall be updated to DEVICE_STATE_STOP
 880:Source\azure_iot_sdk\iothub_client\src/iothubtransport_amqp_device.c ****                 update_state(instance, DEVICE_STATE_STOPPED);
 881:Source\azure_iot_sdk\iothub_client\src/iothubtransport_amqp_device.c **** 
 882:Source\azure_iot_sdk\iothub_client\src/iothubtransport_amqp_device.c ****                 // Codes_SRS_DEVICE_09_032: [If no failures occur, device_stop shall return 0]
 883:Source\azure_iot_sdk\iothub_client\src/iothubtransport_amqp_device.c ****                 result = RESULT_OK;
 884:Source\azure_iot_sdk\iothub_client\src/iothubtransport_amqp_device.c ****             }
 885:Source\azure_iot_sdk\iothub_client\src/iothubtransport_amqp_device.c ****         }
 886:Source\azure_iot_sdk\iothub_client\src/iothubtransport_amqp_device.c ****     }
 887:Source\azure_iot_sdk\iothub_client\src/iothubtransport_amqp_device.c **** 
 888:Source\azure_iot_sdk\iothub_client\src/iothubtransport_amqp_device.c ****     return result;
 889:Source\azure_iot_sdk\iothub_client\src/iothubtransport_amqp_device.c **** }
 890:Source\azure_iot_sdk\iothub_client\src/iothubtransport_amqp_device.c **** 
 891:Source\azure_iot_sdk\iothub_client\src/iothubtransport_amqp_device.c **** void device_do_work(AMQP_DEVICE_HANDLE handle)
 892:Source\azure_iot_sdk\iothub_client\src/iothubtransport_amqp_device.c **** {
 893:Source\azure_iot_sdk\iothub_client\src/iothubtransport_amqp_device.c ****     // Codes_SRS_DEVICE_09_033: [If `handle` is NULL, device_do_work shall return]
 894:Source\azure_iot_sdk\iothub_client\src/iothubtransport_amqp_device.c ****     if (handle == NULL)
 895:Source\azure_iot_sdk\iothub_client\src/iothubtransport_amqp_device.c ****     {
 896:Source\azure_iot_sdk\iothub_client\src/iothubtransport_amqp_device.c ****         LogError("Failed to perform device_do_work (handle is NULL)");
 897:Source\azure_iot_sdk\iothub_client\src/iothubtransport_amqp_device.c ****     }
 898:Source\azure_iot_sdk\iothub_client\src/iothubtransport_amqp_device.c ****     else
 899:Source\azure_iot_sdk\iothub_client\src/iothubtransport_amqp_device.c ****     {
 900:Source\azure_iot_sdk\iothub_client\src/iothubtransport_amqp_device.c ****         // Cranking the state monster:
 901:Source\azure_iot_sdk\iothub_client\src/iothubtransport_amqp_device.c ****         AMQP_DEVICE_INSTANCE* instance = (AMQP_DEVICE_INSTANCE*)handle;
 902:Source\azure_iot_sdk\iothub_client\src/iothubtransport_amqp_device.c **** 
 903:Source\azure_iot_sdk\iothub_client\src/iothubtransport_amqp_device.c ****         if (instance->state == DEVICE_STATE_STARTING)
 904:Source\azure_iot_sdk\iothub_client\src/iothubtransport_amqp_device.c ****         {
 905:Source\azure_iot_sdk\iothub_client\src/iothubtransport_amqp_device.c ****             // Codes_SRS_DEVICE_09_034: [If CBS authentication is used and authentication state is 
 906:Source\azure_iot_sdk\iothub_client\src/iothubtransport_amqp_device.c ****             if (instance->config->authentication_mode == DEVICE_AUTH_MODE_CBS)
 907:Source\azure_iot_sdk\iothub_client\src/iothubtransport_amqp_device.c ****             {
 908:Source\azure_iot_sdk\iothub_client\src/iothubtransport_amqp_device.c ****                 if (instance->auth_state == AUTHENTICATION_STATE_STOPPED)
 909:Source\azure_iot_sdk\iothub_client\src/iothubtransport_amqp_device.c ****                 {
 910:Source\azure_iot_sdk\iothub_client\src/iothubtransport_amqp_device.c ****                     if (authentication_start(instance->authentication_handle, instance->cbs_handle)
 911:Source\azure_iot_sdk\iothub_client\src/iothubtransport_amqp_device.c ****                     {
 912:Source\azure_iot_sdk\iothub_client\src/iothubtransport_amqp_device.c ****                         // Codes_SRS_DEVICE_09_035: [If authentication_start fails, the device stat
 913:Source\azure_iot_sdk\iothub_client\src/iothubtransport_amqp_device.c ****                         LogError("Device '%s' failed to be authenticated (authentication_start fail
 914:Source\azure_iot_sdk\iothub_client\src/iothubtransport_amqp_device.c **** 
 915:Source\azure_iot_sdk\iothub_client\src/iothubtransport_amqp_device.c ****                         update_state(instance, DEVICE_STATE_ERROR_AUTH);
 916:Source\azure_iot_sdk\iothub_client\src/iothubtransport_amqp_device.c ****                     }
 917:Source\azure_iot_sdk\iothub_client\src/iothubtransport_amqp_device.c ****                 }
 918:Source\azure_iot_sdk\iothub_client\src/iothubtransport_amqp_device.c ****                 // Codes_SRS_DEVICE_09_036: [If authentication state is AUTHENTICATION_STATE_STARTI
 919:Source\azure_iot_sdk\iothub_client\src/iothubtransport_amqp_device.c ****                 else if (instance->auth_state == AUTHENTICATION_STATE_STARTING)
 920:Source\azure_iot_sdk\iothub_client\src/iothubtransport_amqp_device.c ****                 {
 921:Source\azure_iot_sdk\iothub_client\src/iothubtransport_amqp_device.c ****                     int is_timed_out;
 922:Source\azure_iot_sdk\iothub_client\src/iothubtransport_amqp_device.c ****                     if (is_timeout_reached(instance->auth_state_last_changed_time, instance->auth_s
 923:Source\azure_iot_sdk\iothub_client\src/iothubtransport_amqp_device.c ****                     {
 924:Source\azure_iot_sdk\iothub_client\src/iothubtransport_amqp_device.c ****                         LogError("Device '%s' failed verifying the timeout for authentication start
 925:Source\azure_iot_sdk\iothub_client\src/iothubtransport_amqp_device.c ****                         update_state(instance, DEVICE_STATE_ERROR_AUTH);
 926:Source\azure_iot_sdk\iothub_client\src/iothubtransport_amqp_device.c ****                     }
 927:Source\azure_iot_sdk\iothub_client\src/iothubtransport_amqp_device.c ****                     // Codes_SRS_DEVICE_09_037: [If authentication_start times out, the device stat
 928:Source\azure_iot_sdk\iothub_client\src/iothubtransport_amqp_device.c ****                     else if (is_timed_out == 1)
 929:Source\azure_iot_sdk\iothub_client\src/iothubtransport_amqp_device.c ****                     {
 930:Source\azure_iot_sdk\iothub_client\src/iothubtransport_amqp_device.c ****                         LogError("Device '%s' authentication did not complete starting within expec
 931:Source\azure_iot_sdk\iothub_client\src/iothubtransport_amqp_device.c **** 
 932:Source\azure_iot_sdk\iothub_client\src/iothubtransport_amqp_device.c ****                         update_state(instance, DEVICE_STATE_ERROR_AUTH_TIMEOUT);
ARM GAS  C:\Users\Phuong\AppData\Local\Temp\ccrNXYcn.s 			page 58


 933:Source\azure_iot_sdk\iothub_client\src/iothubtransport_amqp_device.c ****                     }
 934:Source\azure_iot_sdk\iothub_client\src/iothubtransport_amqp_device.c ****                 }
 935:Source\azure_iot_sdk\iothub_client\src/iothubtransport_amqp_device.c ****                 else if (instance->auth_state == AUTHENTICATION_STATE_ERROR)
 936:Source\azure_iot_sdk\iothub_client\src/iothubtransport_amqp_device.c ****                 {
 937:Source\azure_iot_sdk\iothub_client\src/iothubtransport_amqp_device.c ****                     // Codes_SRS_DEVICE_09_038: [If authentication state is AUTHENTICATION_STATE_ER
 938:Source\azure_iot_sdk\iothub_client\src/iothubtransport_amqp_device.c ****                     if (instance->auth_error_code == AUTHENTICATION_ERROR_AUTH_FAILED)
 939:Source\azure_iot_sdk\iothub_client\src/iothubtransport_amqp_device.c ****                     {
 940:Source\azure_iot_sdk\iothub_client\src/iothubtransport_amqp_device.c ****                         update_state(instance, DEVICE_STATE_ERROR_AUTH);
 941:Source\azure_iot_sdk\iothub_client\src/iothubtransport_amqp_device.c ****                     }
 942:Source\azure_iot_sdk\iothub_client\src/iothubtransport_amqp_device.c ****                     // Codes_SRS_DEVICE_09_039: [If authentication state is AUTHENTICATION_STATE_ER
 943:Source\azure_iot_sdk\iothub_client\src/iothubtransport_amqp_device.c ****                     else // DEVICE_STATE_ERROR_TIMEOUT
 944:Source\azure_iot_sdk\iothub_client\src/iothubtransport_amqp_device.c ****                     {
 945:Source\azure_iot_sdk\iothub_client\src/iothubtransport_amqp_device.c ****                         update_state(instance, DEVICE_STATE_ERROR_AUTH_TIMEOUT);
 946:Source\azure_iot_sdk\iothub_client\src/iothubtransport_amqp_device.c ****                     }
 947:Source\azure_iot_sdk\iothub_client\src/iothubtransport_amqp_device.c ****                 }
 948:Source\azure_iot_sdk\iothub_client\src/iothubtransport_amqp_device.c ****                 // There is no AUTHENTICATION_STATE_STOPPING
 949:Source\azure_iot_sdk\iothub_client\src/iothubtransport_amqp_device.c ****             }
 950:Source\azure_iot_sdk\iothub_client\src/iothubtransport_amqp_device.c **** 
 951:Source\azure_iot_sdk\iothub_client\src/iothubtransport_amqp_device.c ****             // Codes_SRS_DEVICE_09_040: [Messenger shall not be started if using CBS authentication
 952:Source\azure_iot_sdk\iothub_client\src/iothubtransport_amqp_device.c ****             // Codes_SRS_DEVICE_09_124: [TWIN Messenger shall not be started if using CBS authentic
 953:Source\azure_iot_sdk\iothub_client\src/iothubtransport_amqp_device.c ****             if (instance->config->authentication_mode == DEVICE_AUTH_MODE_X509 || instance->auth_st
 954:Source\azure_iot_sdk\iothub_client\src/iothubtransport_amqp_device.c ****             {
 955:Source\azure_iot_sdk\iothub_client\src/iothubtransport_amqp_device.c ****                 size_t number_of_messengers_started = 0;
 956:Source\azure_iot_sdk\iothub_client\src/iothubtransport_amqp_device.c **** 
 957:Source\azure_iot_sdk\iothub_client\src/iothubtransport_amqp_device.c ****                 // Codes_SRS_DEVICE_09_041: [If messenger state is TELEMETRY_MESSENGER_STATE_STOPPE
 958:Source\azure_iot_sdk\iothub_client\src/iothubtransport_amqp_device.c ****                 if (instance->msgr_state == TELEMETRY_MESSENGER_STATE_STOPPED)
 959:Source\azure_iot_sdk\iothub_client\src/iothubtransport_amqp_device.c ****                 {
 960:Source\azure_iot_sdk\iothub_client\src/iothubtransport_amqp_device.c ****                     // Codes_SRS_DEVICE_09_042: [If messenger_start fails, the device state shall b
 961:Source\azure_iot_sdk\iothub_client\src/iothubtransport_amqp_device.c ****                     if (telemetry_messenger_start(instance->messenger_handle, instance->session_han
 962:Source\azure_iot_sdk\iothub_client\src/iothubtransport_amqp_device.c ****                     {
 963:Source\azure_iot_sdk\iothub_client\src/iothubtransport_amqp_device.c ****                         LogError("Device '%s' messenger failed to be started (messenger_start faile
 964:Source\azure_iot_sdk\iothub_client\src/iothubtransport_amqp_device.c **** 
 965:Source\azure_iot_sdk\iothub_client\src/iothubtransport_amqp_device.c ****                         update_state(instance, DEVICE_STATE_ERROR_MSG);
 966:Source\azure_iot_sdk\iothub_client\src/iothubtransport_amqp_device.c ****                     }
 967:Source\azure_iot_sdk\iothub_client\src/iothubtransport_amqp_device.c ****                 }
 968:Source\azure_iot_sdk\iothub_client\src/iothubtransport_amqp_device.c ****                 // Codes_SRS_DEVICE_09_043: [If messenger state is TELEMETRY_MESSENGER_STATE_STARTI
 969:Source\azure_iot_sdk\iothub_client\src/iothubtransport_amqp_device.c ****                 else if (instance->msgr_state == TELEMETRY_MESSENGER_STATE_STARTING)
 970:Source\azure_iot_sdk\iothub_client\src/iothubtransport_amqp_device.c ****                 {
 971:Source\azure_iot_sdk\iothub_client\src/iothubtransport_amqp_device.c ****                     int is_timed_out;
 972:Source\azure_iot_sdk\iothub_client\src/iothubtransport_amqp_device.c ****                     if (is_timeout_reached(instance->msgr_state_last_changed_time, instance->msgr_s
 973:Source\azure_iot_sdk\iothub_client\src/iothubtransport_amqp_device.c ****                     {
 974:Source\azure_iot_sdk\iothub_client\src/iothubtransport_amqp_device.c ****                         LogError("Device '%s' failed verifying the timeout for messenger start (is_
 975:Source\azure_iot_sdk\iothub_client\src/iothubtransport_amqp_device.c **** 
 976:Source\azure_iot_sdk\iothub_client\src/iothubtransport_amqp_device.c ****                         update_state(instance, DEVICE_STATE_ERROR_MSG);
 977:Source\azure_iot_sdk\iothub_client\src/iothubtransport_amqp_device.c ****                     }
 978:Source\azure_iot_sdk\iothub_client\src/iothubtransport_amqp_device.c ****                     // Codes_SRS_DEVICE_09_044: [If messenger_start times out, the device state sha
 979:Source\azure_iot_sdk\iothub_client\src/iothubtransport_amqp_device.c ****                     else if (is_timed_out == 1)
 980:Source\azure_iot_sdk\iothub_client\src/iothubtransport_amqp_device.c ****                     {
 981:Source\azure_iot_sdk\iothub_client\src/iothubtransport_amqp_device.c ****                         LogError("Device '%s' messenger did not complete starting within expected t
 982:Source\azure_iot_sdk\iothub_client\src/iothubtransport_amqp_device.c **** 
 983:Source\azure_iot_sdk\iothub_client\src/iothubtransport_amqp_device.c ****                         update_state(instance, DEVICE_STATE_ERROR_MSG);
 984:Source\azure_iot_sdk\iothub_client\src/iothubtransport_amqp_device.c ****                     }
 985:Source\azure_iot_sdk\iothub_client\src/iothubtransport_amqp_device.c ****                 }
 986:Source\azure_iot_sdk\iothub_client\src/iothubtransport_amqp_device.c ****                 // Codes_SRS_DEVICE_09_045: [If messenger state is TELEMETRY_MESSENGER_STATE_ERROR,
 987:Source\azure_iot_sdk\iothub_client\src/iothubtransport_amqp_device.c ****                 else if (instance->msgr_state == TELEMETRY_MESSENGER_STATE_ERROR)
 988:Source\azure_iot_sdk\iothub_client\src/iothubtransport_amqp_device.c ****                 {
 989:Source\azure_iot_sdk\iothub_client\src/iothubtransport_amqp_device.c ****                     LogError("Device '%s' messenger failed to be started (messenger got into error 
ARM GAS  C:\Users\Phuong\AppData\Local\Temp\ccrNXYcn.s 			page 59


 990:Source\azure_iot_sdk\iothub_client\src/iothubtransport_amqp_device.c **** 
 991:Source\azure_iot_sdk\iothub_client\src/iothubtransport_amqp_device.c ****                     update_state(instance, DEVICE_STATE_ERROR_MSG);
 992:Source\azure_iot_sdk\iothub_client\src/iothubtransport_amqp_device.c ****                 }
 993:Source\azure_iot_sdk\iothub_client\src/iothubtransport_amqp_device.c ****                 // Codes_SRS_DEVICE_09_046: [If messenger state is TELEMETRY_MESSENGER_STATE_STARTE
 994:Source\azure_iot_sdk\iothub_client\src/iothubtransport_amqp_device.c ****                 else if (instance->msgr_state == TELEMETRY_MESSENGER_STATE_STARTED)
 995:Source\azure_iot_sdk\iothub_client\src/iothubtransport_amqp_device.c ****                 {
 996:Source\azure_iot_sdk\iothub_client\src/iothubtransport_amqp_device.c ****                     number_of_messengers_started++;
 997:Source\azure_iot_sdk\iothub_client\src/iothubtransport_amqp_device.c ****                 }
 998:Source\azure_iot_sdk\iothub_client\src/iothubtransport_amqp_device.c **** 
 999:Source\azure_iot_sdk\iothub_client\src/iothubtransport_amqp_device.c ****                 // Codes_SRS_DEVICE_09_125: [If TWIN messenger state is TWIN_MESSENGER_STATE_STOPPE
1000:Source\azure_iot_sdk\iothub_client\src/iothubtransport_amqp_device.c ****                 if (instance->twin_msgr_state == TWIN_MESSENGER_STATE_STOPPED)
1001:Source\azure_iot_sdk\iothub_client\src/iothubtransport_amqp_device.c ****                 {
1002:Source\azure_iot_sdk\iothub_client\src/iothubtransport_amqp_device.c ****                     if (twin_messenger_start(instance->twin_messenger_handle, instance->session_han
1003:Source\azure_iot_sdk\iothub_client\src/iothubtransport_amqp_device.c ****                     {
1004:Source\azure_iot_sdk\iothub_client\src/iothubtransport_amqp_device.c ****                         // Codes_SRS_DEVICE_09_126: [If twin_messenger_start fails, the device stat
1005:Source\azure_iot_sdk\iothub_client\src/iothubtransport_amqp_device.c ****                         LogError("Device '%s' twin messenger failed to be started (messenger_start 
1006:Source\azure_iot_sdk\iothub_client\src/iothubtransport_amqp_device.c **** 
1007:Source\azure_iot_sdk\iothub_client\src/iothubtransport_amqp_device.c ****                         update_state(instance, DEVICE_STATE_ERROR_MSG);
1008:Source\azure_iot_sdk\iothub_client\src/iothubtransport_amqp_device.c ****                     }
1009:Source\azure_iot_sdk\iothub_client\src/iothubtransport_amqp_device.c ****                 }
1010:Source\azure_iot_sdk\iothub_client\src/iothubtransport_amqp_device.c ****                 else if (instance->twin_msgr_state == TWIN_MESSENGER_STATE_STARTING)
1011:Source\azure_iot_sdk\iothub_client\src/iothubtransport_amqp_device.c ****                 {
1012:Source\azure_iot_sdk\iothub_client\src/iothubtransport_amqp_device.c ****                     int is_timed_out;
1013:Source\azure_iot_sdk\iothub_client\src/iothubtransport_amqp_device.c ****                     if (is_timeout_reached(instance->twin_msgr_state_last_changed_time, instance->t
1014:Source\azure_iot_sdk\iothub_client\src/iothubtransport_amqp_device.c ****                     {
1015:Source\azure_iot_sdk\iothub_client\src/iothubtransport_amqp_device.c ****                         LogError("Device '%s' failed verifying the timeout for twin messenger start
1016:Source\azure_iot_sdk\iothub_client\src/iothubtransport_amqp_device.c **** 
1017:Source\azure_iot_sdk\iothub_client\src/iothubtransport_amqp_device.c ****                         update_state(instance, DEVICE_STATE_ERROR_MSG);
1018:Source\azure_iot_sdk\iothub_client\src/iothubtransport_amqp_device.c ****                     }
1019:Source\azure_iot_sdk\iothub_client\src/iothubtransport_amqp_device.c ****                     // Codes_SRS_DEVICE_09_127: [If TWIN messenger state is TWIN_MESSENGER_STATE_ST
1020:Source\azure_iot_sdk\iothub_client\src/iothubtransport_amqp_device.c ****                     else if (is_timed_out == 1)
1021:Source\azure_iot_sdk\iothub_client\src/iothubtransport_amqp_device.c ****                     {
1022:Source\azure_iot_sdk\iothub_client\src/iothubtransport_amqp_device.c ****                         // Codes_SRS_DEVICE_09_128: [If twin_messenger_start times out, the device 
1023:Source\azure_iot_sdk\iothub_client\src/iothubtransport_amqp_device.c ****                         LogError("Device '%s' twin messenger did not complete starting within expec
1024:Source\azure_iot_sdk\iothub_client\src/iothubtransport_amqp_device.c **** 
1025:Source\azure_iot_sdk\iothub_client\src/iothubtransport_amqp_device.c ****                         update_state(instance, DEVICE_STATE_ERROR_MSG);
1026:Source\azure_iot_sdk\iothub_client\src/iothubtransport_amqp_device.c ****                     }
1027:Source\azure_iot_sdk\iothub_client\src/iothubtransport_amqp_device.c ****                 }
1028:Source\azure_iot_sdk\iothub_client\src/iothubtransport_amqp_device.c ****                 // Codes_SRS_DEVICE_09_129: [If TWIN messenger state is TWIN_MESSENGER_STATE_ERROR,
1029:Source\azure_iot_sdk\iothub_client\src/iothubtransport_amqp_device.c ****                 else if (instance->twin_msgr_state == TWIN_MESSENGER_STATE_ERROR)
1030:Source\azure_iot_sdk\iothub_client\src/iothubtransport_amqp_device.c ****                 {
1031:Source\azure_iot_sdk\iothub_client\src/iothubtransport_amqp_device.c ****                     LogError("Device '%s' twin messenger failed to be started (messenger got into e
1032:Source\azure_iot_sdk\iothub_client\src/iothubtransport_amqp_device.c **** 
1033:Source\azure_iot_sdk\iothub_client\src/iothubtransport_amqp_device.c ****                     update_state(instance, DEVICE_STATE_ERROR_MSG);
1034:Source\azure_iot_sdk\iothub_client\src/iothubtransport_amqp_device.c ****                 }
1035:Source\azure_iot_sdk\iothub_client\src/iothubtransport_amqp_device.c ****                 // Codes_SRS_DEVICE_09_130: [If TWIN messenger state is TWIN_MESSENGER_STATE_STARTE
1036:Source\azure_iot_sdk\iothub_client\src/iothubtransport_amqp_device.c ****                 else if (instance->twin_msgr_state == TWIN_MESSENGER_STATE_STARTED)
1037:Source\azure_iot_sdk\iothub_client\src/iothubtransport_amqp_device.c ****                 {
1038:Source\azure_iot_sdk\iothub_client\src/iothubtransport_amqp_device.c ****                     number_of_messengers_started++;
1039:Source\azure_iot_sdk\iothub_client\src/iothubtransport_amqp_device.c ****                 }
1040:Source\azure_iot_sdk\iothub_client\src/iothubtransport_amqp_device.c **** 
1041:Source\azure_iot_sdk\iothub_client\src/iothubtransport_amqp_device.c ****                 if (number_of_messengers_started == 2)
1042:Source\azure_iot_sdk\iothub_client\src/iothubtransport_amqp_device.c ****                 {
1043:Source\azure_iot_sdk\iothub_client\src/iothubtransport_amqp_device.c ****                     update_state(instance, DEVICE_STATE_STARTED);
1044:Source\azure_iot_sdk\iothub_client\src/iothubtransport_amqp_device.c ****                 }
1045:Source\azure_iot_sdk\iothub_client\src/iothubtransport_amqp_device.c ****             }
1046:Source\azure_iot_sdk\iothub_client\src/iothubtransport_amqp_device.c ****         }
ARM GAS  C:\Users\Phuong\AppData\Local\Temp\ccrNXYcn.s 			page 60


1047:Source\azure_iot_sdk\iothub_client\src/iothubtransport_amqp_device.c ****         else if (instance->state == DEVICE_STATE_STARTED)
1048:Source\azure_iot_sdk\iothub_client\src/iothubtransport_amqp_device.c ****         {
1049:Source\azure_iot_sdk\iothub_client\src/iothubtransport_amqp_device.c ****             // Codes_SRS_DEVICE_09_047: [If CBS authentication is used and authentication state is 
1050:Source\azure_iot_sdk\iothub_client\src/iothubtransport_amqp_device.c ****             if (instance->config->authentication_mode == DEVICE_AUTH_MODE_CBS &&
1051:Source\azure_iot_sdk\iothub_client\src/iothubtransport_amqp_device.c ****                 instance->auth_state != AUTHENTICATION_STATE_STARTED)
1052:Source\azure_iot_sdk\iothub_client\src/iothubtransport_amqp_device.c ****             {
1053:Source\azure_iot_sdk\iothub_client\src/iothubtransport_amqp_device.c ****                 LogError("Device '%s' is started but authentication reported unexpected state %d", 
1054:Source\azure_iot_sdk\iothub_client\src/iothubtransport_amqp_device.c **** 
1055:Source\azure_iot_sdk\iothub_client\src/iothubtransport_amqp_device.c ****                 if (instance->auth_state != AUTHENTICATION_STATE_ERROR)
1056:Source\azure_iot_sdk\iothub_client\src/iothubtransport_amqp_device.c ****                 {
1057:Source\azure_iot_sdk\iothub_client\src/iothubtransport_amqp_device.c ****                     if (instance->auth_error_code == AUTHENTICATION_ERROR_AUTH_FAILED)
1058:Source\azure_iot_sdk\iothub_client\src/iothubtransport_amqp_device.c ****                     {
1059:Source\azure_iot_sdk\iothub_client\src/iothubtransport_amqp_device.c ****                         update_state(instance, DEVICE_STATE_ERROR_AUTH);
1060:Source\azure_iot_sdk\iothub_client\src/iothubtransport_amqp_device.c ****                     }
1061:Source\azure_iot_sdk\iothub_client\src/iothubtransport_amqp_device.c ****                     else // AUTHENTICATION_ERROR_AUTH_TIMEOUT
1062:Source\azure_iot_sdk\iothub_client\src/iothubtransport_amqp_device.c ****                     {
1063:Source\azure_iot_sdk\iothub_client\src/iothubtransport_amqp_device.c ****                         update_state(instance, DEVICE_STATE_ERROR_AUTH_TIMEOUT);
1064:Source\azure_iot_sdk\iothub_client\src/iothubtransport_amqp_device.c ****                     }
1065:Source\azure_iot_sdk\iothub_client\src/iothubtransport_amqp_device.c ****                 }
1066:Source\azure_iot_sdk\iothub_client\src/iothubtransport_amqp_device.c ****                 else
1067:Source\azure_iot_sdk\iothub_client\src/iothubtransport_amqp_device.c ****                 {
1068:Source\azure_iot_sdk\iothub_client\src/iothubtransport_amqp_device.c ****                     update_state(instance, DEVICE_STATE_ERROR_AUTH);
1069:Source\azure_iot_sdk\iothub_client\src/iothubtransport_amqp_device.c ****                 }
1070:Source\azure_iot_sdk\iothub_client\src/iothubtransport_amqp_device.c ****             }
1071:Source\azure_iot_sdk\iothub_client\src/iothubtransport_amqp_device.c ****             else
1072:Source\azure_iot_sdk\iothub_client\src/iothubtransport_amqp_device.c ****             {
1073:Source\azure_iot_sdk\iothub_client\src/iothubtransport_amqp_device.c ****                 // Codes_SRS_DEVICE_09_048: [If messenger state is not TELEMETRY_MESSENGER_STATE_ST
1074:Source\azure_iot_sdk\iothub_client\src/iothubtransport_amqp_device.c ****                 if (instance->msgr_state != TELEMETRY_MESSENGER_STATE_STARTED)
1075:Source\azure_iot_sdk\iothub_client\src/iothubtransport_amqp_device.c ****                 {
1076:Source\azure_iot_sdk\iothub_client\src/iothubtransport_amqp_device.c ****                     LogError("Device '%s' is started but messenger reported unexpected state %d", i
1077:Source\azure_iot_sdk\iothub_client\src/iothubtransport_amqp_device.c ****                     update_state(instance, DEVICE_STATE_ERROR_MSG);
1078:Source\azure_iot_sdk\iothub_client\src/iothubtransport_amqp_device.c ****                 }
1079:Source\azure_iot_sdk\iothub_client\src/iothubtransport_amqp_device.c **** 
1080:Source\azure_iot_sdk\iothub_client\src/iothubtransport_amqp_device.c ****                 // Codes_SRS_DEVICE_09_133: [If TWIN messenger state is not TWIN_MESSENGER_STATE_ST
1081:Source\azure_iot_sdk\iothub_client\src/iothubtransport_amqp_device.c ****                 if (instance->twin_msgr_state != TWIN_MESSENGER_STATE_STARTED)
1082:Source\azure_iot_sdk\iothub_client\src/iothubtransport_amqp_device.c ****                 {
1083:Source\azure_iot_sdk\iothub_client\src/iothubtransport_amqp_device.c ****                     LogError("Device '%s' is started but TWIN messenger reported unexpected state %
1084:Source\azure_iot_sdk\iothub_client\src/iothubtransport_amqp_device.c ****                     update_state(instance, DEVICE_STATE_ERROR_MSG);
1085:Source\azure_iot_sdk\iothub_client\src/iothubtransport_amqp_device.c ****                 }
1086:Source\azure_iot_sdk\iothub_client\src/iothubtransport_amqp_device.c ****             }
1087:Source\azure_iot_sdk\iothub_client\src/iothubtransport_amqp_device.c ****         }
1088:Source\azure_iot_sdk\iothub_client\src/iothubtransport_amqp_device.c **** 
1089:Source\azure_iot_sdk\iothub_client\src/iothubtransport_amqp_device.c ****         // Invoking the do_works():
1090:Source\azure_iot_sdk\iothub_client\src/iothubtransport_amqp_device.c ****         if (instance->config->authentication_mode == DEVICE_AUTH_MODE_CBS)
1091:Source\azure_iot_sdk\iothub_client\src/iothubtransport_amqp_device.c ****         {
1092:Source\azure_iot_sdk\iothub_client\src/iothubtransport_amqp_device.c ****             if (instance->auth_state != AUTHENTICATION_STATE_STOPPED && instance->auth_state != AUT
1093:Source\azure_iot_sdk\iothub_client\src/iothubtransport_amqp_device.c ****             {
1094:Source\azure_iot_sdk\iothub_client\src/iothubtransport_amqp_device.c ****                 // Codes_SRS_DEVICE_09_049: [If CBS is used for authentication and `instance->authe
1095:Source\azure_iot_sdk\iothub_client\src/iothubtransport_amqp_device.c ****                 authentication_do_work(instance->authentication_handle);
1096:Source\azure_iot_sdk\iothub_client\src/iothubtransport_amqp_device.c ****             }
1097:Source\azure_iot_sdk\iothub_client\src/iothubtransport_amqp_device.c ****         }
1098:Source\azure_iot_sdk\iothub_client\src/iothubtransport_amqp_device.c **** 
1099:Source\azure_iot_sdk\iothub_client\src/iothubtransport_amqp_device.c ****         if (instance->msgr_state != TELEMETRY_MESSENGER_STATE_STOPPED && instance->msgr_state != TE
1100:Source\azure_iot_sdk\iothub_client\src/iothubtransport_amqp_device.c ****         {
1101:Source\azure_iot_sdk\iothub_client\src/iothubtransport_amqp_device.c ****             // Codes_SRS_DEVICE_09_050: [If `instance->messenger_handle` state is not STOPPED or ER
1102:Source\azure_iot_sdk\iothub_client\src/iothubtransport_amqp_device.c ****             telemetry_messenger_do_work(instance->messenger_handle);
1103:Source\azure_iot_sdk\iothub_client\src/iothubtransport_amqp_device.c ****         }
ARM GAS  C:\Users\Phuong\AppData\Local\Temp\ccrNXYcn.s 			page 61


1104:Source\azure_iot_sdk\iothub_client\src/iothubtransport_amqp_device.c **** 
1105:Source\azure_iot_sdk\iothub_client\src/iothubtransport_amqp_device.c ****         if (instance->twin_msgr_state != TWIN_MESSENGER_STATE_STOPPED && instance->twin_msgr_state 
1106:Source\azure_iot_sdk\iothub_client\src/iothubtransport_amqp_device.c ****         {
1107:Source\azure_iot_sdk\iothub_client\src/iothubtransport_amqp_device.c ****             // Codes_SRS_DEVICE_09_134: [If `instance->twin_messenger_handle` state is not STOPPED 
1108:Source\azure_iot_sdk\iothub_client\src/iothubtransport_amqp_device.c ****             twin_messenger_do_work(instance->twin_messenger_handle);
1109:Source\azure_iot_sdk\iothub_client\src/iothubtransport_amqp_device.c ****         }
1110:Source\azure_iot_sdk\iothub_client\src/iothubtransport_amqp_device.c ****     }
1111:Source\azure_iot_sdk\iothub_client\src/iothubtransport_amqp_device.c **** }
1112:Source\azure_iot_sdk\iothub_client\src/iothubtransport_amqp_device.c **** 
1113:Source\azure_iot_sdk\iothub_client\src/iothubtransport_amqp_device.c **** void device_destroy(AMQP_DEVICE_HANDLE handle)
1114:Source\azure_iot_sdk\iothub_client\src/iothubtransport_amqp_device.c **** {
1115:Source\azure_iot_sdk\iothub_client\src/iothubtransport_amqp_device.c ****     // Codes_SRS_DEVICE_09_012: [If `handle` is NULL, device_destroy shall return]
1116:Source\azure_iot_sdk\iothub_client\src/iothubtransport_amqp_device.c ****     if (handle == NULL)
1117:Source\azure_iot_sdk\iothub_client\src/iothubtransport_amqp_device.c ****     {
1118:Source\azure_iot_sdk\iothub_client\src/iothubtransport_amqp_device.c ****         LogError("Failed destroying device handle (handle is NULL)");
1119:Source\azure_iot_sdk\iothub_client\src/iothubtransport_amqp_device.c ****     }
1120:Source\azure_iot_sdk\iothub_client\src/iothubtransport_amqp_device.c ****     else
1121:Source\azure_iot_sdk\iothub_client\src/iothubtransport_amqp_device.c ****     {
1122:Source\azure_iot_sdk\iothub_client\src/iothubtransport_amqp_device.c ****         AMQP_DEVICE_INSTANCE* instance = (AMQP_DEVICE_INSTANCE*)handle;
1123:Source\azure_iot_sdk\iothub_client\src/iothubtransport_amqp_device.c ****         // Codes_SRS_DEVICE_09_013: [If the device is in state DEVICE_STATE_STARTED or DEVICE_STATE
1124:Source\azure_iot_sdk\iothub_client\src/iothubtransport_amqp_device.c ****         if (instance->state == DEVICE_STATE_STARTED || instance->state == DEVICE_STATE_STARTING)
1125:Source\azure_iot_sdk\iothub_client\src/iothubtransport_amqp_device.c ****         {
1126:Source\azure_iot_sdk\iothub_client\src/iothubtransport_amqp_device.c ****             (void)device_stop((AMQP_DEVICE_HANDLE)instance);
1127:Source\azure_iot_sdk\iothub_client\src/iothubtransport_amqp_device.c ****         }
1128:Source\azure_iot_sdk\iothub_client\src/iothubtransport_amqp_device.c **** 
1129:Source\azure_iot_sdk\iothub_client\src/iothubtransport_amqp_device.c ****         // Codes_SRS_DEVICE_09_014: [`instance->messenger_handle shall be destroyed using telemetry
1130:Source\azure_iot_sdk\iothub_client\src/iothubtransport_amqp_device.c ****         // Codes_SRS_DEVICE_09_015: [If created, `instance->authentication_handle` shall be destroy
1131:Source\azure_iot_sdk\iothub_client\src/iothubtransport_amqp_device.c ****         // Codes_SRS_DEVICE_09_016: [The contents of `instance->config` shall be detroyed and then 
1132:Source\azure_iot_sdk\iothub_client\src/iothubtransport_amqp_device.c ****         internal_destroy_device((AMQP_DEVICE_INSTANCE*)handle);
1133:Source\azure_iot_sdk\iothub_client\src/iothubtransport_amqp_device.c ****     }
1134:Source\azure_iot_sdk\iothub_client\src/iothubtransport_amqp_device.c **** }
1135:Source\azure_iot_sdk\iothub_client\src/iothubtransport_amqp_device.c **** 
1136:Source\azure_iot_sdk\iothub_client\src/iothubtransport_amqp_device.c **** int device_send_event_async(AMQP_DEVICE_HANDLE handle, IOTHUB_MESSAGE_LIST* message, ON_DEVICE_D2C_
1137:Source\azure_iot_sdk\iothub_client\src/iothubtransport_amqp_device.c **** {
1138:Source\azure_iot_sdk\iothub_client\src/iothubtransport_amqp_device.c ****     int result;
1139:Source\azure_iot_sdk\iothub_client\src/iothubtransport_amqp_device.c **** 
1140:Source\azure_iot_sdk\iothub_client\src/iothubtransport_amqp_device.c ****     // Codes_SRS_DEVICE_09_051: [If `handle` are `message` are NULL, device_send_event_async shall 
1141:Source\azure_iot_sdk\iothub_client\src/iothubtransport_amqp_device.c ****     if (handle == NULL || message == NULL)
1142:Source\azure_iot_sdk\iothub_client\src/iothubtransport_amqp_device.c ****     {
1143:Source\azure_iot_sdk\iothub_client\src/iothubtransport_amqp_device.c ****         LogError("Failed sending event (either handle (%p) or message (%p) are NULL)", handle, mess
1144:Source\azure_iot_sdk\iothub_client\src/iothubtransport_amqp_device.c ****         result = __FAILURE__;
1145:Source\azure_iot_sdk\iothub_client\src/iothubtransport_amqp_device.c ****     }
1146:Source\azure_iot_sdk\iothub_client\src/iothubtransport_amqp_device.c ****     else
1147:Source\azure_iot_sdk\iothub_client\src/iothubtransport_amqp_device.c ****     {
1148:Source\azure_iot_sdk\iothub_client\src/iothubtransport_amqp_device.c ****         DEVICE_SEND_EVENT_TASK* send_task;
1149:Source\azure_iot_sdk\iothub_client\src/iothubtransport_amqp_device.c **** 
1150:Source\azure_iot_sdk\iothub_client\src/iothubtransport_amqp_device.c ****         // Codes_SRS_DEVICE_09_052: [A structure (`send_task`) shall be created to track the send s
1151:Source\azure_iot_sdk\iothub_client\src/iothubtransport_amqp_device.c ****         if ((send_task = (DEVICE_SEND_EVENT_TASK*)malloc(sizeof(DEVICE_SEND_EVENT_TASK))) == NULL)
1152:Source\azure_iot_sdk\iothub_client\src/iothubtransport_amqp_device.c ****         {
1153:Source\azure_iot_sdk\iothub_client\src/iothubtransport_amqp_device.c ****             // Codes_SRS_DEVICE_09_053: [If `send_task` fails to be created, device_send_event_asyn
1154:Source\azure_iot_sdk\iothub_client\src/iothubtransport_amqp_device.c ****             LogError("Failed sending event (failed creating task to send event)");
1155:Source\azure_iot_sdk\iothub_client\src/iothubtransport_amqp_device.c ****             result = __FAILURE__;
1156:Source\azure_iot_sdk\iothub_client\src/iothubtransport_amqp_device.c ****         }
1157:Source\azure_iot_sdk\iothub_client\src/iothubtransport_amqp_device.c ****         else
1158:Source\azure_iot_sdk\iothub_client\src/iothubtransport_amqp_device.c ****         {
1159:Source\azure_iot_sdk\iothub_client\src/iothubtransport_amqp_device.c ****             AMQP_DEVICE_INSTANCE* instance = (AMQP_DEVICE_INSTANCE*)handle;
1160:Source\azure_iot_sdk\iothub_client\src/iothubtransport_amqp_device.c **** 
ARM GAS  C:\Users\Phuong\AppData\Local\Temp\ccrNXYcn.s 			page 62


1161:Source\azure_iot_sdk\iothub_client\src/iothubtransport_amqp_device.c ****             // Codes_SRS_DEVICE_09_054: [`send_task` shall contain the user callback and the contex
1162:Source\azure_iot_sdk\iothub_client\src/iothubtransport_amqp_device.c ****             memset(send_task, 0, sizeof(DEVICE_SEND_EVENT_TASK));
1163:Source\azure_iot_sdk\iothub_client\src/iothubtransport_amqp_device.c ****             send_task->on_event_send_complete_callback = on_device_d2c_event_send_complete_callback
1164:Source\azure_iot_sdk\iothub_client\src/iothubtransport_amqp_device.c ****             send_task->on_event_send_complete_context = context;
1165:Source\azure_iot_sdk\iothub_client\src/iothubtransport_amqp_device.c **** 
1166:Source\azure_iot_sdk\iothub_client\src/iothubtransport_amqp_device.c ****             // Codes_SRS_DEVICE_09_055: [The message shall be sent using telemetry_messenger_send_a
1167:Source\azure_iot_sdk\iothub_client\src/iothubtransport_amqp_device.c ****             if (telemetry_messenger_send_async(instance->messenger_handle, message, on_event_send_c
1168:Source\azure_iot_sdk\iothub_client\src/iothubtransport_amqp_device.c ****             {
1169:Source\azure_iot_sdk\iothub_client\src/iothubtransport_amqp_device.c ****                 // Codes_SRS_DEVICE_09_056: [If telemetry_messenger_send_async fails, device_send_e
1170:Source\azure_iot_sdk\iothub_client\src/iothubtransport_amqp_device.c ****                 LogError("Failed sending event (telemetry_messenger_send_async failed)");
1171:Source\azure_iot_sdk\iothub_client\src/iothubtransport_amqp_device.c ****                 // Codes_SRS_DEVICE_09_057: [If any failures occur, device_send_event_async shall r
1172:Source\azure_iot_sdk\iothub_client\src/iothubtransport_amqp_device.c ****                 free(send_task);
1173:Source\azure_iot_sdk\iothub_client\src/iothubtransport_amqp_device.c ****                 result = __FAILURE__;
1174:Source\azure_iot_sdk\iothub_client\src/iothubtransport_amqp_device.c ****             }
1175:Source\azure_iot_sdk\iothub_client\src/iothubtransport_amqp_device.c ****             else
1176:Source\azure_iot_sdk\iothub_client\src/iothubtransport_amqp_device.c ****             {
1177:Source\azure_iot_sdk\iothub_client\src/iothubtransport_amqp_device.c ****                 // Codes_SRS_DEVICE_09_058: [If no failures occur, device_send_event_async shall re
1178:Source\azure_iot_sdk\iothub_client\src/iothubtransport_amqp_device.c ****                 result = RESULT_OK;
1179:Source\azure_iot_sdk\iothub_client\src/iothubtransport_amqp_device.c ****             }
1180:Source\azure_iot_sdk\iothub_client\src/iothubtransport_amqp_device.c ****         }
1181:Source\azure_iot_sdk\iothub_client\src/iothubtransport_amqp_device.c ****     }
1182:Source\azure_iot_sdk\iothub_client\src/iothubtransport_amqp_device.c **** 
1183:Source\azure_iot_sdk\iothub_client\src/iothubtransport_amqp_device.c ****     return result;
1184:Source\azure_iot_sdk\iothub_client\src/iothubtransport_amqp_device.c **** }
1185:Source\azure_iot_sdk\iothub_client\src/iothubtransport_amqp_device.c **** 
1186:Source\azure_iot_sdk\iothub_client\src/iothubtransport_amqp_device.c **** int device_get_send_status(AMQP_DEVICE_HANDLE handle, DEVICE_SEND_STATUS *send_status)
1187:Source\azure_iot_sdk\iothub_client\src/iothubtransport_amqp_device.c **** {
1188:Source\azure_iot_sdk\iothub_client\src/iothubtransport_amqp_device.c ****     int result;
1189:Source\azure_iot_sdk\iothub_client\src/iothubtransport_amqp_device.c **** 
1190:Source\azure_iot_sdk\iothub_client\src/iothubtransport_amqp_device.c **** 
1191:Source\azure_iot_sdk\iothub_client\src/iothubtransport_amqp_device.c ****     // Codes_SRS_DEVICE_09_105: [If `handle` or `send_status` is NULL, device_get_send_status shall
1192:Source\azure_iot_sdk\iothub_client\src/iothubtransport_amqp_device.c ****     if (handle == NULL || send_status == NULL)
1193:Source\azure_iot_sdk\iothub_client\src/iothubtransport_amqp_device.c ****     {
1194:Source\azure_iot_sdk\iothub_client\src/iothubtransport_amqp_device.c ****         LogError("Failed getting the device messenger send status (NULL parameter received; handle=
1195:Source\azure_iot_sdk\iothub_client\src/iothubtransport_amqp_device.c ****         result = __FAILURE__;
1196:Source\azure_iot_sdk\iothub_client\src/iothubtransport_amqp_device.c ****     }
1197:Source\azure_iot_sdk\iothub_client\src/iothubtransport_amqp_device.c ****     else
1198:Source\azure_iot_sdk\iothub_client\src/iothubtransport_amqp_device.c ****     {
1199:Source\azure_iot_sdk\iothub_client\src/iothubtransport_amqp_device.c ****         AMQP_DEVICE_INSTANCE* instance = (AMQP_DEVICE_INSTANCE*)handle;
1200:Source\azure_iot_sdk\iothub_client\src/iothubtransport_amqp_device.c ****         TELEMETRY_MESSENGER_SEND_STATUS messenger_send_status;
1201:Source\azure_iot_sdk\iothub_client\src/iothubtransport_amqp_device.c **** 
1202:Source\azure_iot_sdk\iothub_client\src/iothubtransport_amqp_device.c ****         // Codes_SRS_DEVICE_09_106: [The status of `instance->messenger_handle` shall be obtained u
1203:Source\azure_iot_sdk\iothub_client\src/iothubtransport_amqp_device.c ****         if (telemetry_messenger_get_send_status(instance->messenger_handle, &messenger_send_status)
1204:Source\azure_iot_sdk\iothub_client\src/iothubtransport_amqp_device.c ****         {
1205:Source\azure_iot_sdk\iothub_client\src/iothubtransport_amqp_device.c ****             // Codes_SRS_DEVICE_09_107: [If telemetry_messenger_get_send_status fails, device_get_s
1206:Source\azure_iot_sdk\iothub_client\src/iothubtransport_amqp_device.c ****             LogError("Failed getting the device messenger send status (telemetry_messenger_get_send
1207:Source\azure_iot_sdk\iothub_client\src/iothubtransport_amqp_device.c ****             result = __FAILURE__;
1208:Source\azure_iot_sdk\iothub_client\src/iothubtransport_amqp_device.c ****         }
1209:Source\azure_iot_sdk\iothub_client\src/iothubtransport_amqp_device.c ****         else
1210:Source\azure_iot_sdk\iothub_client\src/iothubtransport_amqp_device.c ****         {
1211:Source\azure_iot_sdk\iothub_client\src/iothubtransport_amqp_device.c ****             // Codes_SRS_DEVICE_09_108: [If telemetry_messenger_get_send_status returns TELEMETRY_M
1212:Source\azure_iot_sdk\iothub_client\src/iothubtransport_amqp_device.c ****             if (messenger_send_status == TELEMETRY_MESSENGER_SEND_STATUS_IDLE)
1213:Source\azure_iot_sdk\iothub_client\src/iothubtransport_amqp_device.c ****             {
1214:Source\azure_iot_sdk\iothub_client\src/iothubtransport_amqp_device.c ****                 *send_status = DEVICE_SEND_STATUS_IDLE;
1215:Source\azure_iot_sdk\iothub_client\src/iothubtransport_amqp_device.c ****             }
1216:Source\azure_iot_sdk\iothub_client\src/iothubtransport_amqp_device.c ****             // Codes_SRS_DEVICE_09_109: [If telemetry_messenger_get_send_status returns TELEMETRY_M
1217:Source\azure_iot_sdk\iothub_client\src/iothubtransport_amqp_device.c ****             else // i.e., messenger_send_status == TELEMETRY_MESSENGER_SEND_STATUS_BUSY
ARM GAS  C:\Users\Phuong\AppData\Local\Temp\ccrNXYcn.s 			page 63


1218:Source\azure_iot_sdk\iothub_client\src/iothubtransport_amqp_device.c ****             {
1219:Source\azure_iot_sdk\iothub_client\src/iothubtransport_amqp_device.c ****                 *send_status = DEVICE_SEND_STATUS_BUSY;
1220:Source\azure_iot_sdk\iothub_client\src/iothubtransport_amqp_device.c ****             }
1221:Source\azure_iot_sdk\iothub_client\src/iothubtransport_amqp_device.c **** 
