ARM GAS  C:\Users\Phuong\AppData\Local\Temp\ccIybnLM.s 			page 1


   1              		.syntax unified
   2              		.cpu cortex-m0plus
   3              		.fpu softvfp
   4              		.eabi_attribute 20, 1
   5              		.eabi_attribute 21, 1
   6              		.eabi_attribute 23, 3
   7              		.eabi_attribute 24, 1
   8              		.eabi_attribute 25, 1
   9              		.eabi_attribute 26, 1
  10              		.eabi_attribute 30, 1
  11              		.eabi_attribute 34, 0
  12              		.eabi_attribute 18, 4
  13              		.thumb
  14              		.syntax unified
  15              		.file	"iothubtransportamqp.c"
  16              		.text
  17              	.Ltext0:
  18              		.cfi_sections	.debug_frame
  19              		.section	.text.IotHubTransportAMQP_Unsubscribe_InputQueue,"ax",%progbits
  20              		.align	2
  21              		.code	16
  22              		.thumb_func
  23              		.type	IotHubTransportAMQP_Unsubscribe_InputQueue, %function
  24              	IotHubTransportAMQP_Unsubscribe_InputQueue:
  25              	.LFB21:
  26              		.file 1 "Source\\azure_iot_sdk\\iothub_client\\src\\iothubtransportamqp.c"
   1:Source\azure_iot_sdk\iothub_client\src/iothubtransportamqp.c **** // Copyright (c) Microsoft. All rights reserved.
   2:Source\azure_iot_sdk\iothub_client\src/iothubtransportamqp.c **** // Licensed under the MIT license. See LICENSE file in the project root for full license informatio
   3:Source\azure_iot_sdk\iothub_client\src/iothubtransportamqp.c **** 
   4:Source\azure_iot_sdk\iothub_client\src/iothubtransportamqp.c **** #include "iothubtransportamqp.h"
   5:Source\azure_iot_sdk\iothub_client\src/iothubtransportamqp.c **** #include "internal/iothubtransport_amqp_common.h"
   6:Source\azure_iot_sdk\iothub_client\src/iothubtransportamqp.c **** #include "azure_c_shared_utility/tlsio.h"
   7:Source\azure_iot_sdk\iothub_client\src/iothubtransportamqp.c **** #include "azure_c_shared_utility/platform.h"
   8:Source\azure_iot_sdk\iothub_client\src/iothubtransportamqp.c **** #include "azure_c_shared_utility/xlogging.h"
   9:Source\azure_iot_sdk\iothub_client\src/iothubtransportamqp.c **** 
  10:Source\azure_iot_sdk\iothub_client\src/iothubtransportamqp.c **** #define RESULT_OK 0
  11:Source\azure_iot_sdk\iothub_client\src/iothubtransportamqp.c **** #define DEFAULT_IOTHUB_AMQP_PORT 5671
  12:Source\azure_iot_sdk\iothub_client\src/iothubtransportamqp.c **** 
  13:Source\azure_iot_sdk\iothub_client\src/iothubtransportamqp.c **** static XIO_HANDLE getTLSIOTransport(const char* fqdn, const AMQP_TRANSPORT_PROXY_OPTIONS* amqp_tran
  14:Source\azure_iot_sdk\iothub_client\src/iothubtransportamqp.c **** {
  15:Source\azure_iot_sdk\iothub_client\src/iothubtransportamqp.c ****     XIO_HANDLE result;
  16:Source\azure_iot_sdk\iothub_client\src/iothubtransportamqp.c ****     TLSIO_CONFIG tls_io_config;
  17:Source\azure_iot_sdk\iothub_client\src/iothubtransportamqp.c **** 
  18:Source\azure_iot_sdk\iothub_client\src/iothubtransportamqp.c ****     (void)amqp_transport_proxy_options;
  19:Source\azure_iot_sdk\iothub_client\src/iothubtransportamqp.c **** 
  20:Source\azure_iot_sdk\iothub_client\src/iothubtransportamqp.c ****     /* Codes_SRS_IOTHUBTRANSPORTAMQP_01_009: [ `getIoTransportProvider` shall obtain the TLS IO int
  21:Source\azure_iot_sdk\iothub_client\src/iothubtransportamqp.c ****     const IO_INTERFACE_DESCRIPTION* io_interface_description = platform_get_default_tlsio();
  22:Source\azure_iot_sdk\iothub_client\src/iothubtransportamqp.c ****     if (io_interface_description == NULL)
  23:Source\azure_iot_sdk\iothub_client\src/iothubtransportamqp.c ****     {
  24:Source\azure_iot_sdk\iothub_client\src/iothubtransportamqp.c ****         LogError("Failed obtaining default TLS IO interface");
  25:Source\azure_iot_sdk\iothub_client\src/iothubtransportamqp.c ****         result = NULL;
  26:Source\azure_iot_sdk\iothub_client\src/iothubtransportamqp.c ****     }
  27:Source\azure_iot_sdk\iothub_client\src/iothubtransportamqp.c ****     else
  28:Source\azure_iot_sdk\iothub_client\src/iothubtransportamqp.c ****     {
  29:Source\azure_iot_sdk\iothub_client\src/iothubtransportamqp.c ****         /* Codes_SRS_IOTHUBTRANSPORTAMQP_01_010: [ The TLS IO parameters shall be a `TLSIO_CONFIG` 
  30:Source\azure_iot_sdk\iothub_client\src/iothubtransportamqp.c ****         /* Codes_SRS_IOTHUBTRANSPORTAMQP_01_011: [ - `hostname` shall be set to `fqdn`. ]*/
  31:Source\azure_iot_sdk\iothub_client\src/iothubtransportamqp.c ****         tls_io_config.hostname = fqdn;
ARM GAS  C:\Users\Phuong\AppData\Local\Temp\ccIybnLM.s 			page 2


  32:Source\azure_iot_sdk\iothub_client\src/iothubtransportamqp.c ****         /* Codes_SRS_IOTHUBTRANSPORTAMQP_01_012: [ - `port` shall be set to 443. ]*/
  33:Source\azure_iot_sdk\iothub_client\src/iothubtransportamqp.c ****         tls_io_config.port = DEFAULT_IOTHUB_AMQP_PORT;
  34:Source\azure_iot_sdk\iothub_client\src/iothubtransportamqp.c **** 
  35:Source\azure_iot_sdk\iothub_client\src/iothubtransportamqp.c ****         /* Codes_SRS_IOTHUBTRANSPORTAMQP_01_013: [ `underlying_io_interface` shall be set to NULL. 
  36:Source\azure_iot_sdk\iothub_client\src/iothubtransportamqp.c ****         tls_io_config.underlying_io_interface = NULL;
  37:Source\azure_iot_sdk\iothub_client\src/iothubtransportamqp.c ****         /* Codes_SRS_IOTHUBTRANSPORTAMQP_01_014: [ `underlying_io_parameters` shall be set to NULL.
  38:Source\azure_iot_sdk\iothub_client\src/iothubtransportamqp.c ****         tls_io_config.underlying_io_parameters = NULL;
  39:Source\azure_iot_sdk\iothub_client\src/iothubtransportamqp.c **** 
  40:Source\azure_iot_sdk\iothub_client\src/iothubtransportamqp.c ****         /* Codes_SRS_IOTHUBTRANSPORTAMQP_09_003: [If `platform_get_default_tlsio` returns NULL `get
  41:Source\azure_iot_sdk\iothub_client\src/iothubtransportamqp.c ****         /* Codes_SRS_IOTHUBTRANSPORTAMQP_09_004: [`getTLSIOTransport` shall return the `XIO_HANDLE`
  42:Source\azure_iot_sdk\iothub_client\src/iothubtransportamqp.c ****         if ((result = xio_create(io_interface_description, &tls_io_config)) == NULL)
  43:Source\azure_iot_sdk\iothub_client\src/iothubtransportamqp.c ****         {
  44:Source\azure_iot_sdk\iothub_client\src/iothubtransportamqp.c ****             LogError("Failed to get the TLS/IO transport (xio_create failed)");
  45:Source\azure_iot_sdk\iothub_client\src/iothubtransportamqp.c ****         }
  46:Source\azure_iot_sdk\iothub_client\src/iothubtransportamqp.c ****     }
  47:Source\azure_iot_sdk\iothub_client\src/iothubtransportamqp.c **** 
  48:Source\azure_iot_sdk\iothub_client\src/iothubtransportamqp.c ****     return result;
  49:Source\azure_iot_sdk\iothub_client\src/iothubtransportamqp.c **** }
  50:Source\azure_iot_sdk\iothub_client\src/iothubtransportamqp.c **** 
  51:Source\azure_iot_sdk\iothub_client\src/iothubtransportamqp.c **** // API functions
  52:Source\azure_iot_sdk\iothub_client\src/iothubtransportamqp.c **** static TRANSPORT_LL_HANDLE IoTHubTransportAMQP_Create(const IOTHUBTRANSPORT_CONFIG* config)
  53:Source\azure_iot_sdk\iothub_client\src/iothubtransportamqp.c **** {
  54:Source\azure_iot_sdk\iothub_client\src/iothubtransportamqp.c ****     // Codes_SRS_IOTHUBTRANSPORTAMQP_09_001: [IoTHubTransportAMQP_Create shall create a TRANSPORT_L
  55:Source\azure_iot_sdk\iothub_client\src/iothubtransportamqp.c ****     return IoTHubTransport_AMQP_Common_Create(config, getTLSIOTransport);
  56:Source\azure_iot_sdk\iothub_client\src/iothubtransportamqp.c **** }
  57:Source\azure_iot_sdk\iothub_client\src/iothubtransportamqp.c **** 
  58:Source\azure_iot_sdk\iothub_client\src/iothubtransportamqp.c **** static IOTHUB_PROCESS_ITEM_RESULT IoTHubTransportAMQP_ProcessItem(TRANSPORT_LL_HANDLE handle, IOTHU
  59:Source\azure_iot_sdk\iothub_client\src/iothubtransportamqp.c **** {
  60:Source\azure_iot_sdk\iothub_client\src/iothubtransportamqp.c ****     // Codes_SRS_IOTHUBTRANSPORTAMQP_09_014: [IoTHubTransportAMQP_ProcessItem shall invoke IoTHubTr
  61:Source\azure_iot_sdk\iothub_client\src/iothubtransportamqp.c ****     return IoTHubTransport_AMQP_Common_ProcessItem(handle, item_type, iothub_item);
  62:Source\azure_iot_sdk\iothub_client\src/iothubtransportamqp.c **** }
  63:Source\azure_iot_sdk\iothub_client\src/iothubtransportamqp.c **** 
  64:Source\azure_iot_sdk\iothub_client\src/iothubtransportamqp.c **** static void IoTHubTransportAMQP_DoWork(TRANSPORT_LL_HANDLE handle, IOTHUB_CLIENT_CORE_LL_HANDLE iot
  65:Source\azure_iot_sdk\iothub_client\src/iothubtransportamqp.c **** {
  66:Source\azure_iot_sdk\iothub_client\src/iothubtransportamqp.c ****     // Codes_SRS_IOTHUBTRANSPORTAMQP_09_015: [IoTHubTransportAMQP_DoWork shall call into the IoTHub
  67:Source\azure_iot_sdk\iothub_client\src/iothubtransportamqp.c ****     IoTHubTransport_AMQP_Common_DoWork(handle, iotHubClientHandle);
  68:Source\azure_iot_sdk\iothub_client\src/iothubtransportamqp.c **** }
  69:Source\azure_iot_sdk\iothub_client\src/iothubtransportamqp.c **** 
  70:Source\azure_iot_sdk\iothub_client\src/iothubtransportamqp.c **** static int IoTHubTransportAMQP_Subscribe(IOTHUB_DEVICE_HANDLE handle)
  71:Source\azure_iot_sdk\iothub_client\src/iothubtransportamqp.c **** {
  72:Source\azure_iot_sdk\iothub_client\src/iothubtransportamqp.c ****     // Codes_SRS_IOTHUBTRANSPORTAMQP_09_012: [IoTHubTransportAMQP_Subscribe shall subscribe for D2C
  73:Source\azure_iot_sdk\iothub_client\src/iothubtransportamqp.c ****     return IoTHubTransport_AMQP_Common_Subscribe(handle);
  74:Source\azure_iot_sdk\iothub_client\src/iothubtransportamqp.c **** }
  75:Source\azure_iot_sdk\iothub_client\src/iothubtransportamqp.c **** 
  76:Source\azure_iot_sdk\iothub_client\src/iothubtransportamqp.c **** static void IoTHubTransportAMQP_Unsubscribe(IOTHUB_DEVICE_HANDLE handle)
  77:Source\azure_iot_sdk\iothub_client\src/iothubtransportamqp.c **** {
  78:Source\azure_iot_sdk\iothub_client\src/iothubtransportamqp.c ****     // Codes_SRS_IOTHUBTRANSPORTAMQP_09_013: [IoTHubTransportAMQP_Unsubscribe shall subscribe for D
  79:Source\azure_iot_sdk\iothub_client\src/iothubtransportamqp.c ****     IoTHubTransport_AMQP_Common_Unsubscribe(handle);
  80:Source\azure_iot_sdk\iothub_client\src/iothubtransportamqp.c **** }
  81:Source\azure_iot_sdk\iothub_client\src/iothubtransportamqp.c **** 
  82:Source\azure_iot_sdk\iothub_client\src/iothubtransportamqp.c **** static int IoTHubTransportAMQP_Subscribe_DeviceTwin(IOTHUB_DEVICE_HANDLE handle)
  83:Source\azure_iot_sdk\iothub_client\src/iothubtransportamqp.c **** {
  84:Source\azure_iot_sdk\iothub_client\src/iothubtransportamqp.c ****     // Codes_SRS_IOTHUBTRANSPORTAMQP_09_008: [IoTHubTransportAMQP_Subscribe_DeviceTwin shall invoke
  85:Source\azure_iot_sdk\iothub_client\src/iothubtransportamqp.c ****     return IoTHubTransport_AMQP_Common_Subscribe_DeviceTwin(handle);
  86:Source\azure_iot_sdk\iothub_client\src/iothubtransportamqp.c **** }
  87:Source\azure_iot_sdk\iothub_client\src/iothubtransportamqp.c **** 
  88:Source\azure_iot_sdk\iothub_client\src/iothubtransportamqp.c **** static void IoTHubTransportAMQP_Unsubscribe_DeviceTwin(IOTHUB_DEVICE_HANDLE handle)
ARM GAS  C:\Users\Phuong\AppData\Local\Temp\ccIybnLM.s 			page 3


  89:Source\azure_iot_sdk\iothub_client\src/iothubtransportamqp.c **** {
  90:Source\azure_iot_sdk\iothub_client\src/iothubtransportamqp.c ****     // Codes_SRS_IOTHUBTRANSPORTAMQP_09_009: [IoTHubTransportAMQP_Unsubscribe_DeviceTwin shall invo
  91:Source\azure_iot_sdk\iothub_client\src/iothubtransportamqp.c ****     IoTHubTransport_AMQP_Common_Unsubscribe_DeviceTwin(handle);
  92:Source\azure_iot_sdk\iothub_client\src/iothubtransportamqp.c **** }
  93:Source\azure_iot_sdk\iothub_client\src/iothubtransportamqp.c **** 
  94:Source\azure_iot_sdk\iothub_client\src/iothubtransportamqp.c **** static int IoTHubTransportAMQP_Subscribe_DeviceMethod(IOTHUB_DEVICE_HANDLE handle)
  95:Source\azure_iot_sdk\iothub_client\src/iothubtransportamqp.c **** {
  96:Source\azure_iot_sdk\iothub_client\src/iothubtransportamqp.c ****     // Codes_SRS_IOTHUBTRANSPORTAMQP_09_010: [IoTHubTransportAMQP_Subscribe_DeviceMethod shall invo
  97:Source\azure_iot_sdk\iothub_client\src/iothubtransportamqp.c ****     return IoTHubTransport_AMQP_Common_Subscribe_DeviceMethod(handle);
  98:Source\azure_iot_sdk\iothub_client\src/iothubtransportamqp.c **** }
  99:Source\azure_iot_sdk\iothub_client\src/iothubtransportamqp.c **** 
 100:Source\azure_iot_sdk\iothub_client\src/iothubtransportamqp.c **** static void IoTHubTransportAMQP_Unsubscribe_DeviceMethod(IOTHUB_DEVICE_HANDLE handle)
 101:Source\azure_iot_sdk\iothub_client\src/iothubtransportamqp.c **** {
 102:Source\azure_iot_sdk\iothub_client\src/iothubtransportamqp.c ****     // Codes_SRS_IOTHUBTRANSPORTAMQP_09_011: [IoTHubTransportAMQP_Unsubscribe_DeviceMethod shall in
 103:Source\azure_iot_sdk\iothub_client\src/iothubtransportamqp.c ****     IoTHubTransport_AMQP_Common_Unsubscribe_DeviceMethod(handle);
 104:Source\azure_iot_sdk\iothub_client\src/iothubtransportamqp.c **** }
 105:Source\azure_iot_sdk\iothub_client\src/iothubtransportamqp.c **** 
 106:Source\azure_iot_sdk\iothub_client\src/iothubtransportamqp.c **** static int IoTHubTransportAMQP_DeviceMethod_Response(IOTHUB_DEVICE_HANDLE handle, METHOD_HANDLE met
 107:Source\azure_iot_sdk\iothub_client\src/iothubtransportamqp.c **** {
 108:Source\azure_iot_sdk\iothub_client\src/iothubtransportamqp.c ****     return IoTHubTransport_AMQP_Common_DeviceMethod_Response(handle, methodId, response, response_s
 109:Source\azure_iot_sdk\iothub_client\src/iothubtransportamqp.c **** }
 110:Source\azure_iot_sdk\iothub_client\src/iothubtransportamqp.c **** 
 111:Source\azure_iot_sdk\iothub_client\src/iothubtransportamqp.c **** static IOTHUB_CLIENT_RESULT IoTHubTransportAMQP_GetSendStatus(IOTHUB_DEVICE_HANDLE handle, IOTHUB_C
 112:Source\azure_iot_sdk\iothub_client\src/iothubtransportamqp.c **** {
 113:Source\azure_iot_sdk\iothub_client\src/iothubtransportamqp.c ****     // Codes_SRS_IOTHUBTRANSPORTAMQP_09_016: [IoTHubTransportAMQP_GetSendStatus shall get the send 
 114:Source\azure_iot_sdk\iothub_client\src/iothubtransportamqp.c ****     return IoTHubTransport_AMQP_Common_GetSendStatus(handle, iotHubClientStatus);
 115:Source\azure_iot_sdk\iothub_client\src/iothubtransportamqp.c **** }
 116:Source\azure_iot_sdk\iothub_client\src/iothubtransportamqp.c **** 
 117:Source\azure_iot_sdk\iothub_client\src/iothubtransportamqp.c **** static IOTHUB_CLIENT_RESULT IoTHubTransportAMQP_SetOption(TRANSPORT_LL_HANDLE handle, const char* o
 118:Source\azure_iot_sdk\iothub_client\src/iothubtransportamqp.c **** {
 119:Source\azure_iot_sdk\iothub_client\src/iothubtransportamqp.c ****     // Codes_SRS_IOTHUBTRANSPORTAMQP_09_017: [IoTHubTransportAMQP_SetOption shall set the options b
 120:Source\azure_iot_sdk\iothub_client\src/iothubtransportamqp.c ****     return IoTHubTransport_AMQP_Common_SetOption(handle, option, value);
 121:Source\azure_iot_sdk\iothub_client\src/iothubtransportamqp.c **** }
 122:Source\azure_iot_sdk\iothub_client\src/iothubtransportamqp.c **** 
 123:Source\azure_iot_sdk\iothub_client\src/iothubtransportamqp.c **** static IOTHUB_DEVICE_HANDLE IoTHubTransportAMQP_Register(TRANSPORT_LL_HANDLE handle, const IOTHUB_D
 124:Source\azure_iot_sdk\iothub_client\src/iothubtransportamqp.c **** {
 125:Source\azure_iot_sdk\iothub_client\src/iothubtransportamqp.c ****     // Codes_SRS_IOTHUBTRANSPORTAMQP_09_006: [IoTHubTransportAMQP_Register shall register the devic
 126:Source\azure_iot_sdk\iothub_client\src/iothubtransportamqp.c ****     return IoTHubTransport_AMQP_Common_Register(handle, device, iotHubClientHandle, waitingToSend);
 127:Source\azure_iot_sdk\iothub_client\src/iothubtransportamqp.c **** }
 128:Source\azure_iot_sdk\iothub_client\src/iothubtransportamqp.c **** 
 129:Source\azure_iot_sdk\iothub_client\src/iothubtransportamqp.c **** static void IoTHubTransportAMQP_Unregister(IOTHUB_DEVICE_HANDLE deviceHandle)
 130:Source\azure_iot_sdk\iothub_client\src/iothubtransportamqp.c **** {
 131:Source\azure_iot_sdk\iothub_client\src/iothubtransportamqp.c ****     // Codes_SRS_IOTHUBTRANSPORTAMQP_09_007: [IoTHubTransportAMQP_Unregister shall unregister the d
 132:Source\azure_iot_sdk\iothub_client\src/iothubtransportamqp.c ****     IoTHubTransport_AMQP_Common_Unregister(deviceHandle);
 133:Source\azure_iot_sdk\iothub_client\src/iothubtransportamqp.c **** }
 134:Source\azure_iot_sdk\iothub_client\src/iothubtransportamqp.c **** 
 135:Source\azure_iot_sdk\iothub_client\src/iothubtransportamqp.c **** static void IoTHubTransportAMQP_Destroy(TRANSPORT_LL_HANDLE handle)
 136:Source\azure_iot_sdk\iothub_client\src/iothubtransportamqp.c **** {
 137:Source\azure_iot_sdk\iothub_client\src/iothubtransportamqp.c ****     // Codes_SRS_IOTHUBTRANSPORTAMQP_09_005: [IoTHubTransportAMQP_Destroy shall destroy the TRANSPO
 138:Source\azure_iot_sdk\iothub_client\src/iothubtransportamqp.c ****     IoTHubTransport_AMQP_Common_Destroy(handle);
 139:Source\azure_iot_sdk\iothub_client\src/iothubtransportamqp.c **** }
 140:Source\azure_iot_sdk\iothub_client\src/iothubtransportamqp.c **** 
 141:Source\azure_iot_sdk\iothub_client\src/iothubtransportamqp.c **** static int IoTHubTransportAMQP_SetRetryPolicy(TRANSPORT_LL_HANDLE handle, IOTHUB_CLIENT_RETRY_POLIC
 142:Source\azure_iot_sdk\iothub_client\src/iothubtransportamqp.c **** {
 143:Source\azure_iot_sdk\iothub_client\src/iothubtransportamqp.c ****     // Codes_SRS_IOTHUBTRANSPORTAMQP_09_020: [IoTHubTransportAMQP_SetRetryPolicy shall call into th
 144:Source\azure_iot_sdk\iothub_client\src/iothubtransportamqp.c ****     return IoTHubTransport_AMQP_Common_SetRetryPolicy(handle, retryPolicy, retryTimeoutLimitInSecon
 145:Source\azure_iot_sdk\iothub_client\src/iothubtransportamqp.c **** }
ARM GAS  C:\Users\Phuong\AppData\Local\Temp\ccIybnLM.s 			page 4


 146:Source\azure_iot_sdk\iothub_client\src/iothubtransportamqp.c **** 
 147:Source\azure_iot_sdk\iothub_client\src/iothubtransportamqp.c **** static STRING_HANDLE IoTHubTransportAMQP_GetHostname(TRANSPORT_LL_HANDLE handle)
 148:Source\azure_iot_sdk\iothub_client\src/iothubtransportamqp.c **** {
 149:Source\azure_iot_sdk\iothub_client\src/iothubtransportamqp.c ****     // Codes_SRS_IOTHUBTRANSPORTAMQP_09_018: [IoTHubTransportAMQP_GetHostname shall get the hostnam
 150:Source\azure_iot_sdk\iothub_client\src/iothubtransportamqp.c ****     return IoTHubTransport_AMQP_Common_GetHostname(handle);
 151:Source\azure_iot_sdk\iothub_client\src/iothubtransportamqp.c **** }
 152:Source\azure_iot_sdk\iothub_client\src/iothubtransportamqp.c **** 
 153:Source\azure_iot_sdk\iothub_client\src/iothubtransportamqp.c **** static IOTHUB_CLIENT_RESULT IoTHubTransportAMQP_SendMessageDisposition(MESSAGE_CALLBACK_INFO* messa
 154:Source\azure_iot_sdk\iothub_client\src/iothubtransportamqp.c **** {
 155:Source\azure_iot_sdk\iothub_client\src/iothubtransportamqp.c ****     // Codes_SRS_IOTHUBTRANSPORTAMQP_10_001: [IoTHubTransportAMQP_SendMessageDisposition shall send
 156:Source\azure_iot_sdk\iothub_client\src/iothubtransportamqp.c ****     return IoTHubTransport_AMQP_Common_SendMessageDisposition(message_data, disposition);
 157:Source\azure_iot_sdk\iothub_client\src/iothubtransportamqp.c **** }
 158:Source\azure_iot_sdk\iothub_client\src/iothubtransportamqp.c **** 
 159:Source\azure_iot_sdk\iothub_client\src/iothubtransportamqp.c **** static int IotHubTransportAMQP_Subscribe_InputQueue(IOTHUB_DEVICE_HANDLE handle)
 160:Source\azure_iot_sdk\iothub_client\src/iothubtransportamqp.c **** {
 161:Source\azure_iot_sdk\iothub_client\src/iothubtransportamqp.c ****     // Codes_SRS_IOTHUBTRANSPORTAMQP_31_021: [IoTHubTransportAMQP_Subscribe_InputQueue shall return
 162:Source\azure_iot_sdk\iothub_client\src/iothubtransportamqp.c ****     (void)handle;
 163:Source\azure_iot_sdk\iothub_client\src/iothubtransportamqp.c ****     LogError("AMQP does not support input queues");
 164:Source\azure_iot_sdk\iothub_client\src/iothubtransportamqp.c ****     return __FAILURE__;
 165:Source\azure_iot_sdk\iothub_client\src/iothubtransportamqp.c **** }
 166:Source\azure_iot_sdk\iothub_client\src/iothubtransportamqp.c **** 
 167:Source\azure_iot_sdk\iothub_client\src/iothubtransportamqp.c **** static void IotHubTransportAMQP_Unsubscribe_InputQueue(IOTHUB_DEVICE_HANDLE handle)
 168:Source\azure_iot_sdk\iothub_client\src/iothubtransportamqp.c **** {
  27              		.loc 1 168 0
  28              		.cfi_startproc
  29              		@ args = 0, pretend = 0, frame = 0
  30              		@ frame_needed = 0, uses_anonymous_args = 0
  31              	.LVL0:
  32 0000 10B5     		push	{r4, lr}
  33              		.cfi_def_cfa_offset 8
  34              		.cfi_offset 4, -8
  35              		.cfi_offset 14, -4
  36 0002 82B0     		sub	sp, sp, #8
  37              		.cfi_def_cfa_offset 16
  38              	.LBB2:
 169:Source\azure_iot_sdk\iothub_client\src/iothubtransportamqp.c ****     // Codes_SRS_IOTHUBTRANSPORTAMQP_31_022: [IotHubTransportAMQP_Unsubscribe_InputQueue shall do n
 170:Source\azure_iot_sdk\iothub_client\src/iothubtransportamqp.c ****     (void)handle;
 171:Source\azure_iot_sdk\iothub_client\src/iothubtransportamqp.c ****     LogError("AMQP does not support input queues");
  39              		.loc 1 171 0
  40 0004 FFF7FEFF 		bl	xlogging_get_log_function
  41              	.LVL1:
  42 0008 041E     		subs	r4, r0, #0
  43              	.LVL2:
  44 000a 08D0     		beq	.L1
  45              		.loc 1 171 0 is_stmt 0 discriminator 4
  46 000c 054B     		ldr	r3, .L3
  47 000e 0193     		str	r3, [sp, #4]
  48 0010 0123     		movs	r3, #1
  49 0012 0093     		str	r3, [sp]
  50 0014 AA33     		adds	r3, r3, #170
  51 0016 044A     		ldr	r2, .L3+4
  52 0018 0449     		ldr	r1, .L3+8
  53 001a 0020     		movs	r0, #0
  54              	.LVL3:
  55 001c A047     		blx	r4
  56              	.LVL4:
  57              	.L1:
ARM GAS  C:\Users\Phuong\AppData\Local\Temp\ccIybnLM.s 			page 5


  58              	.LBE2:
 172:Source\azure_iot_sdk\iothub_client\src/iothubtransportamqp.c **** }
  59              		.loc 1 172 0 is_stmt 1
  60 001e 02B0     		add	sp, sp, #8
  61              		@ sp needed
  62              	.LVL5:
  63 0020 10BD     		pop	{r4, pc}
  64              	.L4:
  65 0022 C046     		.align	2
  66              	.L3:
  67 0024 40000000 		.word	.LC3
  68 0028 00000000 		.word	.LANCHOR0
  69 002c 00000000 		.word	.LC1
  70              		.cfi_endproc
  71              	.LFE21:
  72              		.size	IotHubTransportAMQP_Unsubscribe_InputQueue, .-IotHubTransportAMQP_Unsubscribe_InputQueue
  73              		.section	.text.IotHubTransportAMQP_Subscribe_InputQueue,"ax",%progbits
  74              		.align	2
  75              		.code	16
  76              		.thumb_func
  77              		.type	IotHubTransportAMQP_Subscribe_InputQueue, %function
  78              	IotHubTransportAMQP_Subscribe_InputQueue:
  79              	.LFB20:
 160:Source\azure_iot_sdk\iothub_client\src/iothubtransportamqp.c ****     // Codes_SRS_IOTHUBTRANSPORTAMQP_31_021: [IoTHubTransportAMQP_Subscribe_InputQueue shall return
  80              		.loc 1 160 0
  81              		.cfi_startproc
  82              		@ args = 0, pretend = 0, frame = 0
  83              		@ frame_needed = 0, uses_anonymous_args = 0
  84              	.LVL6:
  85 0000 10B5     		push	{r4, lr}
  86              		.cfi_def_cfa_offset 8
  87              		.cfi_offset 4, -8
  88              		.cfi_offset 14, -4
  89 0002 82B0     		sub	sp, sp, #8
  90              		.cfi_def_cfa_offset 16
  91              	.LBB3:
 163:Source\azure_iot_sdk\iothub_client\src/iothubtransportamqp.c ****     return __FAILURE__;
  92              		.loc 1 163 0
  93 0004 FFF7FEFF 		bl	xlogging_get_log_function
  94              	.LVL7:
  95 0008 041E     		subs	r4, r0, #0
  96              	.LVL8:
  97 000a 09D0     		beq	.L6
 163:Source\azure_iot_sdk\iothub_client\src/iothubtransportamqp.c ****     return __FAILURE__;
  98              		.loc 1 163 0 is_stmt 0 discriminator 4
  99 000c 064B     		ldr	r3, .L7
 100 000e 0193     		str	r3, [sp, #4]
 101 0010 0123     		movs	r3, #1
 102 0012 0093     		str	r3, [sp]
 103 0014 A233     		adds	r3, r3, #162
 104 0016 054A     		ldr	r2, .L7+4
 105 0018 2C32     		adds	r2, r2, #44
 106 001a 0549     		ldr	r1, .L7+8
 107 001c 0020     		movs	r0, #0
 108              	.LVL9:
 109 001e A047     		blx	r4
 110              	.LVL10:
ARM GAS  C:\Users\Phuong\AppData\Local\Temp\ccIybnLM.s 			page 6


 111              	.L6:
 112              	.LBE3:
 165:Source\azure_iot_sdk\iothub_client\src/iothubtransportamqp.c **** 
 113              		.loc 1 165 0 is_stmt 1
 114 0020 A420     		movs	r0, #164
 115 0022 02B0     		add	sp, sp, #8
 116              		@ sp needed
 117              	.LVL11:
 118 0024 10BD     		pop	{r4, pc}
 119              	.L8:
 120 0026 C046     		.align	2
 121              	.L7:
 122 0028 40000000 		.word	.LC3
 123 002c 00000000 		.word	.LANCHOR0
 124 0030 00000000 		.word	.LC1
 125              		.cfi_endproc
 126              	.LFE20:
 127              		.size	IotHubTransportAMQP_Subscribe_InputQueue, .-IotHubTransportAMQP_Subscribe_InputQueue
 128              		.section	.text.IoTHubTransportAMQP_GetSendStatus,"ax",%progbits
 129              		.align	2
 130              		.code	16
 131              		.thumb_func
 132              		.type	IoTHubTransportAMQP_GetSendStatus, %function
 133              	IoTHubTransportAMQP_GetSendStatus:
 134              	.LFB12:
 112:Source\azure_iot_sdk\iothub_client\src/iothubtransportamqp.c ****     // Codes_SRS_IOTHUBTRANSPORTAMQP_09_016: [IoTHubTransportAMQP_GetSendStatus shall get the send 
 135              		.loc 1 112 0
 136              		.cfi_startproc
 137              		@ args = 0, pretend = 0, frame = 0
 138              		@ frame_needed = 0, uses_anonymous_args = 0
 139              	.LVL12:
 140 0000 10B5     		push	{r4, lr}
 141              		.cfi_def_cfa_offset 8
 142              		.cfi_offset 4, -8
 143              		.cfi_offset 14, -4
 114:Source\azure_iot_sdk\iothub_client\src/iothubtransportamqp.c **** }
 144              		.loc 1 114 0
 145 0002 FFF7FEFF 		bl	IoTHubTransport_AMQP_Common_GetSendStatus
 146              	.LVL13:
 115:Source\azure_iot_sdk\iothub_client\src/iothubtransportamqp.c **** 
 147              		.loc 1 115 0
 148              		@ sp needed
 149 0006 10BD     		pop	{r4, pc}
 150              		.cfi_endproc
 151              	.LFE12:
 152              		.size	IoTHubTransportAMQP_GetSendStatus, .-IoTHubTransportAMQP_GetSendStatus
 153              		.section	.text.IoTHubTransportAMQP_SetRetryPolicy,"ax",%progbits
 154              		.align	2
 155              		.code	16
 156              		.thumb_func
 157              		.type	IoTHubTransportAMQP_SetRetryPolicy, %function
 158              	IoTHubTransportAMQP_SetRetryPolicy:
 159              	.LFB17:
 142:Source\azure_iot_sdk\iothub_client\src/iothubtransportamqp.c ****     // Codes_SRS_IOTHUBTRANSPORTAMQP_09_020: [IoTHubTransportAMQP_SetRetryPolicy shall call into th
 160              		.loc 1 142 0
 161              		.cfi_startproc
 162              		@ args = 0, pretend = 0, frame = 0
ARM GAS  C:\Users\Phuong\AppData\Local\Temp\ccIybnLM.s 			page 7


 163              		@ frame_needed = 0, uses_anonymous_args = 0
 164              	.LVL14:
 165 0000 10B5     		push	{r4, lr}
 166              		.cfi_def_cfa_offset 8
 167              		.cfi_offset 4, -8
 168              		.cfi_offset 14, -4
 144:Source\azure_iot_sdk\iothub_client\src/iothubtransportamqp.c **** }
 169              		.loc 1 144 0
 170 0002 FFF7FEFF 		bl	IoTHubTransport_AMQP_Common_SetRetryPolicy
 171              	.LVL15:
 145:Source\azure_iot_sdk\iothub_client\src/iothubtransportamqp.c **** 
 172              		.loc 1 145 0
 173              		@ sp needed
 174 0006 10BD     		pop	{r4, pc}
 175              		.cfi_endproc
 176              	.LFE17:
 177              		.size	IoTHubTransportAMQP_SetRetryPolicy, .-IoTHubTransportAMQP_SetRetryPolicy
 178              		.section	.text.IoTHubTransportAMQP_DoWork,"ax",%progbits
 179              		.align	2
 180              		.code	16
 181              		.thumb_func
 182              		.type	IoTHubTransportAMQP_DoWork, %function
 183              	IoTHubTransportAMQP_DoWork:
 184              	.LFB4:
  65:Source\azure_iot_sdk\iothub_client\src/iothubtransportamqp.c ****     // Codes_SRS_IOTHUBTRANSPORTAMQP_09_015: [IoTHubTransportAMQP_DoWork shall call into the IoTHub
 185              		.loc 1 65 0
 186              		.cfi_startproc
 187              		@ args = 0, pretend = 0, frame = 0
 188              		@ frame_needed = 0, uses_anonymous_args = 0
 189              	.LVL16:
 190 0000 10B5     		push	{r4, lr}
 191              		.cfi_def_cfa_offset 8
 192              		.cfi_offset 4, -8
 193              		.cfi_offset 14, -4
  67:Source\azure_iot_sdk\iothub_client\src/iothubtransportamqp.c **** }
 194              		.loc 1 67 0
 195 0002 FFF7FEFF 		bl	IoTHubTransport_AMQP_Common_DoWork
 196              	.LVL17:
  68:Source\azure_iot_sdk\iothub_client\src/iothubtransportamqp.c **** 
 197              		.loc 1 68 0
 198              		@ sp needed
 199 0006 10BD     		pop	{r4, pc}
 200              		.cfi_endproc
 201              	.LFE4:
 202              		.size	IoTHubTransportAMQP_DoWork, .-IoTHubTransportAMQP_DoWork
 203              		.section	.text.IoTHubTransportAMQP_Unsubscribe,"ax",%progbits
 204              		.align	2
 205              		.code	16
 206              		.thumb_func
 207              		.type	IoTHubTransportAMQP_Unsubscribe, %function
 208              	IoTHubTransportAMQP_Unsubscribe:
 209              	.LFB6:
  77:Source\azure_iot_sdk\iothub_client\src/iothubtransportamqp.c ****     // Codes_SRS_IOTHUBTRANSPORTAMQP_09_013: [IoTHubTransportAMQP_Unsubscribe shall subscribe for D
 210              		.loc 1 77 0
 211              		.cfi_startproc
 212              		@ args = 0, pretend = 0, frame = 0
 213              		@ frame_needed = 0, uses_anonymous_args = 0
ARM GAS  C:\Users\Phuong\AppData\Local\Temp\ccIybnLM.s 			page 8


 214              	.LVL18:
 215 0000 10B5     		push	{r4, lr}
 216              		.cfi_def_cfa_offset 8
 217              		.cfi_offset 4, -8
 218              		.cfi_offset 14, -4
  79:Source\azure_iot_sdk\iothub_client\src/iothubtransportamqp.c **** }
 219              		.loc 1 79 0
 220 0002 FFF7FEFF 		bl	IoTHubTransport_AMQP_Common_Unsubscribe
 221              	.LVL19:
  80:Source\azure_iot_sdk\iothub_client\src/iothubtransportamqp.c **** 
 222              		.loc 1 80 0
 223              		@ sp needed
 224 0006 10BD     		pop	{r4, pc}
 225              		.cfi_endproc
 226              	.LFE6:
 227              		.size	IoTHubTransportAMQP_Unsubscribe, .-IoTHubTransportAMQP_Unsubscribe
 228              		.section	.text.IoTHubTransportAMQP_Subscribe,"ax",%progbits
 229              		.align	2
 230              		.code	16
 231              		.thumb_func
 232              		.type	IoTHubTransportAMQP_Subscribe, %function
 233              	IoTHubTransportAMQP_Subscribe:
 234              	.LFB5:
  71:Source\azure_iot_sdk\iothub_client\src/iothubtransportamqp.c ****     // Codes_SRS_IOTHUBTRANSPORTAMQP_09_012: [IoTHubTransportAMQP_Subscribe shall subscribe for D2C
 235              		.loc 1 71 0
 236              		.cfi_startproc
 237              		@ args = 0, pretend = 0, frame = 0
 238              		@ frame_needed = 0, uses_anonymous_args = 0
 239              	.LVL20:
 240 0000 10B5     		push	{r4, lr}
 241              		.cfi_def_cfa_offset 8
 242              		.cfi_offset 4, -8
 243              		.cfi_offset 14, -4
  73:Source\azure_iot_sdk\iothub_client\src/iothubtransportamqp.c **** }
 244              		.loc 1 73 0
 245 0002 FFF7FEFF 		bl	IoTHubTransport_AMQP_Common_Subscribe
 246              	.LVL21:
  74:Source\azure_iot_sdk\iothub_client\src/iothubtransportamqp.c **** 
 247              		.loc 1 74 0
 248              		@ sp needed
 249 0006 10BD     		pop	{r4, pc}
 250              		.cfi_endproc
 251              	.LFE5:
 252              		.size	IoTHubTransportAMQP_Subscribe, .-IoTHubTransportAMQP_Subscribe
 253              		.section	.text.IoTHubTransportAMQP_Unregister,"ax",%progbits
 254              		.align	2
 255              		.code	16
 256              		.thumb_func
 257              		.type	IoTHubTransportAMQP_Unregister, %function
 258              	IoTHubTransportAMQP_Unregister:
 259              	.LFB15:
 130:Source\azure_iot_sdk\iothub_client\src/iothubtransportamqp.c ****     // Codes_SRS_IOTHUBTRANSPORTAMQP_09_007: [IoTHubTransportAMQP_Unregister shall unregister the d
 260              		.loc 1 130 0
 261              		.cfi_startproc
 262              		@ args = 0, pretend = 0, frame = 0
 263              		@ frame_needed = 0, uses_anonymous_args = 0
 264              	.LVL22:
ARM GAS  C:\Users\Phuong\AppData\Local\Temp\ccIybnLM.s 			page 9


 265 0000 10B5     		push	{r4, lr}
 266              		.cfi_def_cfa_offset 8
 267              		.cfi_offset 4, -8
 268              		.cfi_offset 14, -4
 132:Source\azure_iot_sdk\iothub_client\src/iothubtransportamqp.c **** }
 269              		.loc 1 132 0
 270 0002 FFF7FEFF 		bl	IoTHubTransport_AMQP_Common_Unregister
 271              	.LVL23:
 133:Source\azure_iot_sdk\iothub_client\src/iothubtransportamqp.c **** 
 272              		.loc 1 133 0
 273              		@ sp needed
 274 0006 10BD     		pop	{r4, pc}
 275              		.cfi_endproc
 276              	.LFE15:
 277              		.size	IoTHubTransportAMQP_Unregister, .-IoTHubTransportAMQP_Unregister
 278              		.section	.text.IoTHubTransportAMQP_Register,"ax",%progbits
 279              		.align	2
 280              		.code	16
 281              		.thumb_func
 282              		.type	IoTHubTransportAMQP_Register, %function
 283              	IoTHubTransportAMQP_Register:
 284              	.LFB14:
 124:Source\azure_iot_sdk\iothub_client\src/iothubtransportamqp.c ****     // Codes_SRS_IOTHUBTRANSPORTAMQP_09_006: [IoTHubTransportAMQP_Register shall register the devic
 285              		.loc 1 124 0
 286              		.cfi_startproc
 287              		@ args = 0, pretend = 0, frame = 0
 288              		@ frame_needed = 0, uses_anonymous_args = 0
 289              	.LVL24:
 290 0000 10B5     		push	{r4, lr}
 291              		.cfi_def_cfa_offset 8
 292              		.cfi_offset 4, -8
 293              		.cfi_offset 14, -4
 126:Source\azure_iot_sdk\iothub_client\src/iothubtransportamqp.c **** }
 294              		.loc 1 126 0
 295 0002 FFF7FEFF 		bl	IoTHubTransport_AMQP_Common_Register
 296              	.LVL25:
 127:Source\azure_iot_sdk\iothub_client\src/iothubtransportamqp.c **** 
 297              		.loc 1 127 0
 298              		@ sp needed
 299 0006 10BD     		pop	{r4, pc}
 300              		.cfi_endproc
 301              	.LFE14:
 302              		.size	IoTHubTransportAMQP_Register, .-IoTHubTransportAMQP_Register
 303              		.section	.text.IoTHubTransportAMQP_Destroy,"ax",%progbits
 304              		.align	2
 305              		.code	16
 306              		.thumb_func
 307              		.type	IoTHubTransportAMQP_Destroy, %function
 308              	IoTHubTransportAMQP_Destroy:
 309              	.LFB16:
 136:Source\azure_iot_sdk\iothub_client\src/iothubtransportamqp.c ****     // Codes_SRS_IOTHUBTRANSPORTAMQP_09_005: [IoTHubTransportAMQP_Destroy shall destroy the TRANSPO
 310              		.loc 1 136 0
 311              		.cfi_startproc
 312              		@ args = 0, pretend = 0, frame = 0
 313              		@ frame_needed = 0, uses_anonymous_args = 0
 314              	.LVL26:
 315 0000 10B5     		push	{r4, lr}
ARM GAS  C:\Users\Phuong\AppData\Local\Temp\ccIybnLM.s 			page 10


 316              		.cfi_def_cfa_offset 8
 317              		.cfi_offset 4, -8
 318              		.cfi_offset 14, -4
 138:Source\azure_iot_sdk\iothub_client\src/iothubtransportamqp.c **** }
 319              		.loc 1 138 0
 320 0002 FFF7FEFF 		bl	IoTHubTransport_AMQP_Common_Destroy
 321              	.LVL27:
 139:Source\azure_iot_sdk\iothub_client\src/iothubtransportamqp.c **** 
 322              		.loc 1 139 0
 323              		@ sp needed
 324 0006 10BD     		pop	{r4, pc}
 325              		.cfi_endproc
 326              	.LFE16:
 327              		.size	IoTHubTransportAMQP_Destroy, .-IoTHubTransportAMQP_Destroy
 328              		.section	.text.IoTHubTransportAMQP_Create,"ax",%progbits
 329              		.align	2
 330              		.code	16
 331              		.thumb_func
 332              		.type	IoTHubTransportAMQP_Create, %function
 333              	IoTHubTransportAMQP_Create:
 334              	.LFB2:
  53:Source\azure_iot_sdk\iothub_client\src/iothubtransportamqp.c ****     // Codes_SRS_IOTHUBTRANSPORTAMQP_09_001: [IoTHubTransportAMQP_Create shall create a TRANSPORT_L
 335              		.loc 1 53 0
 336              		.cfi_startproc
 337              		@ args = 0, pretend = 0, frame = 0
 338              		@ frame_needed = 0, uses_anonymous_args = 0
 339              	.LVL28:
 340 0000 10B5     		push	{r4, lr}
 341              		.cfi_def_cfa_offset 8
 342              		.cfi_offset 4, -8
 343              		.cfi_offset 14, -4
  55:Source\azure_iot_sdk\iothub_client\src/iothubtransportamqp.c **** }
 344              		.loc 1 55 0
 345 0002 0249     		ldr	r1, .L18
 346 0004 FFF7FEFF 		bl	IoTHubTransport_AMQP_Common_Create
 347              	.LVL29:
  56:Source\azure_iot_sdk\iothub_client\src/iothubtransportamqp.c **** 
 348              		.loc 1 56 0
 349              		@ sp needed
 350 0008 10BD     		pop	{r4, pc}
 351              	.L19:
 352 000a C046     		.align	2
 353              	.L18:
 354 000c 00000000 		.word	getTLSIOTransport
 355              		.cfi_endproc
 356              	.LFE2:
 357              		.size	IoTHubTransportAMQP_Create, .-IoTHubTransportAMQP_Create
 358              		.section	.text.getTLSIOTransport,"ax",%progbits
 359              		.align	2
 360              		.code	16
 361              		.thumb_func
 362              		.type	getTLSIOTransport, %function
 363              	getTLSIOTransport:
 364              	.LFB1:
  14:Source\azure_iot_sdk\iothub_client\src/iothubtransportamqp.c ****     XIO_HANDLE result;
 365              		.loc 1 14 0
 366              		.cfi_startproc
ARM GAS  C:\Users\Phuong\AppData\Local\Temp\ccIybnLM.s 			page 11


 367              		@ args = 0, pretend = 0, frame = 16
 368              		@ frame_needed = 0, uses_anonymous_args = 0
 369              	.LVL30:
 370 0000 30B5     		push	{r4, r5, lr}
 371              		.cfi_def_cfa_offset 12
 372              		.cfi_offset 4, -12
 373              		.cfi_offset 5, -8
 374              		.cfi_offset 14, -4
 375 0002 87B0     		sub	sp, sp, #28
 376              		.cfi_def_cfa_offset 40
 377 0004 0400     		movs	r4, r0
  21:Source\azure_iot_sdk\iothub_client\src/iothubtransportamqp.c ****     if (io_interface_description == NULL)
 378              		.loc 1 21 0
 379 0006 FFF7FEFF 		bl	platform_get_default_tlsio
 380              	.LVL31:
  22:Source\azure_iot_sdk\iothub_client\src/iothubtransportamqp.c ****     {
 381              		.loc 1 22 0
 382 000a 0028     		cmp	r0, #0
 383 000c 0FD1     		bne	.L21
 384              	.LBB4:
  24:Source\azure_iot_sdk\iothub_client\src/iothubtransportamqp.c ****         result = NULL;
 385              		.loc 1 24 0 discriminator 3
 386 000e FFF7FEFF 		bl	xlogging_get_log_function
 387              	.LVL32:
 388 0012 041E     		subs	r4, r0, #0
 389              	.LVL33:
 390 0014 25D0     		beq	.L23
  24:Source\azure_iot_sdk\iothub_client\src/iothubtransportamqp.c ****         result = NULL;
 391              		.loc 1 24 0 is_stmt 0 discriminator 4
 392 0016 154B     		ldr	r3, .L24
 393 0018 0193     		str	r3, [sp, #4]
 394 001a 0123     		movs	r3, #1
 395 001c 0093     		str	r3, [sp]
 396 001e 1733     		adds	r3, r3, #23
 397 0020 134A     		ldr	r2, .L24+4
 398 0022 5832     		adds	r2, r2, #88
 399 0024 1349     		ldr	r1, .L24+8
 400 0026 0020     		movs	r0, #0
 401              	.LVL34:
 402 0028 A047     		blx	r4
 403              	.LVL35:
 404              	.LBE4:
  25:Source\azure_iot_sdk\iothub_client\src/iothubtransportamqp.c ****     }
 405              		.loc 1 25 0 is_stmt 1 discriminator 4
 406 002a 0024     		movs	r4, #0
 407              	.LVL36:
 408 002c 1AE0     		b	.L22
 409              	.LVL37:
 410              	.L21:
  31:Source\azure_iot_sdk\iothub_client\src/iothubtransportamqp.c ****         /* Codes_SRS_IOTHUBTRANSPORTAMQP_01_012: [ - `port` shall be set to 443. ]*/
 411              		.loc 1 31 0
 412 002e 0294     		str	r4, [sp, #8]
  33:Source\azure_iot_sdk\iothub_client\src/iothubtransportamqp.c **** 
 413              		.loc 1 33 0
 414 0030 114B     		ldr	r3, .L24+12
 415 0032 0393     		str	r3, [sp, #12]
  36:Source\azure_iot_sdk\iothub_client\src/iothubtransportamqp.c ****         /* Codes_SRS_IOTHUBTRANSPORTAMQP_01_014: [ `underlying_io_parameters` shall be set to NULL.
ARM GAS  C:\Users\Phuong\AppData\Local\Temp\ccIybnLM.s 			page 12


 416              		.loc 1 36 0
 417 0034 0023     		movs	r3, #0
 418 0036 0493     		str	r3, [sp, #16]
  38:Source\azure_iot_sdk\iothub_client\src/iothubtransportamqp.c **** 
 419              		.loc 1 38 0
 420 0038 0593     		str	r3, [sp, #20]
  42:Source\azure_iot_sdk\iothub_client\src/iothubtransportamqp.c ****         {
 421              		.loc 1 42 0
 422 003a 02A9     		add	r1, sp, #8
 423 003c FFF7FEFF 		bl	xio_create
 424              	.LVL38:
 425 0040 041E     		subs	r4, r0, #0
 426              	.LVL39:
 427 0042 0FD1     		bne	.L22
 428              	.LBB5:
  44:Source\azure_iot_sdk\iothub_client\src/iothubtransportamqp.c ****         }
 429              		.loc 1 44 0 discriminator 3
 430 0044 FFF7FEFF 		bl	xlogging_get_log_function
 431              	.LVL40:
 432 0048 051E     		subs	r5, r0, #0
 433              	.LVL41:
 434 004a 0BD0     		beq	.L22
  44:Source\azure_iot_sdk\iothub_client\src/iothubtransportamqp.c ****         }
 435              		.loc 1 44 0 is_stmt 0 discriminator 4
 436 004c 0B4B     		ldr	r3, .L24+16
 437 004e 0193     		str	r3, [sp, #4]
 438 0050 0123     		movs	r3, #1
 439 0052 0093     		str	r3, [sp]
 440 0054 2B33     		adds	r3, r3, #43
 441 0056 064A     		ldr	r2, .L24+4
 442 0058 5832     		adds	r2, r2, #88
 443 005a 0649     		ldr	r1, .L24+8
 444 005c 0020     		movs	r0, #0
 445              	.LVL42:
 446 005e A847     		blx	r5
 447              	.LVL43:
 448 0060 00E0     		b	.L22
 449              	.LVL44:
 450              	.L23:
 451              	.LBE5:
  25:Source\azure_iot_sdk\iothub_client\src/iothubtransportamqp.c ****     }
 452              		.loc 1 25 0 is_stmt 1
 453 0062 0024     		movs	r4, #0
 454              	.LVL45:
 455              	.L22:
  49:Source\azure_iot_sdk\iothub_client\src/iothubtransportamqp.c **** 
 456              		.loc 1 49 0
 457 0064 2000     		movs	r0, r4
 458 0066 07B0     		add	sp, sp, #28
 459              		@ sp needed
 460              	.LVL46:
 461 0068 30BD     		pop	{r4, r5, pc}
 462              	.L25:
 463 006a C046     		.align	2
 464              	.L24:
 465 006c 64000000 		.word	.LC11
 466 0070 00000000 		.word	.LANCHOR0
ARM GAS  C:\Users\Phuong\AppData\Local\Temp\ccIybnLM.s 			page 13


 467 0074 00000000 		.word	.LC1
 468 0078 27160000 		.word	5671
 469 007c 90000000 		.word	.LC13
 470              		.cfi_endproc
 471              	.LFE1:
 472              		.size	getTLSIOTransport, .-getTLSIOTransport
 473              		.section	.text.IoTHubTransportAMQP_SetOption,"ax",%progbits
 474              		.align	2
 475              		.code	16
 476              		.thumb_func
 477              		.type	IoTHubTransportAMQP_SetOption, %function
 478              	IoTHubTransportAMQP_SetOption:
 479              	.LFB13:
 118:Source\azure_iot_sdk\iothub_client\src/iothubtransportamqp.c ****     // Codes_SRS_IOTHUBTRANSPORTAMQP_09_017: [IoTHubTransportAMQP_SetOption shall set the options b
 480              		.loc 1 118 0
 481              		.cfi_startproc
 482              		@ args = 0, pretend = 0, frame = 0
 483              		@ frame_needed = 0, uses_anonymous_args = 0
 484              	.LVL47:
 485 0000 10B5     		push	{r4, lr}
 486              		.cfi_def_cfa_offset 8
 487              		.cfi_offset 4, -8
 488              		.cfi_offset 14, -4
 120:Source\azure_iot_sdk\iothub_client\src/iothubtransportamqp.c **** }
 489              		.loc 1 120 0
 490 0002 FFF7FEFF 		bl	IoTHubTransport_AMQP_Common_SetOption
 491              	.LVL48:
 121:Source\azure_iot_sdk\iothub_client\src/iothubtransportamqp.c **** 
 492              		.loc 1 121 0
 493              		@ sp needed
 494 0006 10BD     		pop	{r4, pc}
 495              		.cfi_endproc
 496              	.LFE13:
 497              		.size	IoTHubTransportAMQP_SetOption, .-IoTHubTransportAMQP_SetOption
 498              		.section	.text.IoTHubTransportAMQP_GetHostname,"ax",%progbits
 499              		.align	2
 500              		.code	16
 501              		.thumb_func
 502              		.type	IoTHubTransportAMQP_GetHostname, %function
 503              	IoTHubTransportAMQP_GetHostname:
 504              	.LFB18:
 148:Source\azure_iot_sdk\iothub_client\src/iothubtransportamqp.c ****     // Codes_SRS_IOTHUBTRANSPORTAMQP_09_018: [IoTHubTransportAMQP_GetHostname shall get the hostnam
 505              		.loc 1 148 0
 506              		.cfi_startproc
 507              		@ args = 0, pretend = 0, frame = 0
 508              		@ frame_needed = 0, uses_anonymous_args = 0
 509              	.LVL49:
 510 0000 10B5     		push	{r4, lr}
 511              		.cfi_def_cfa_offset 8
 512              		.cfi_offset 4, -8
 513              		.cfi_offset 14, -4
 150:Source\azure_iot_sdk\iothub_client\src/iothubtransportamqp.c **** }
 514              		.loc 1 150 0
 515 0002 FFF7FEFF 		bl	IoTHubTransport_AMQP_Common_GetHostname
 516              	.LVL50:
 151:Source\azure_iot_sdk\iothub_client\src/iothubtransportamqp.c **** 
 517              		.loc 1 151 0
ARM GAS  C:\Users\Phuong\AppData\Local\Temp\ccIybnLM.s 			page 14


 518              		@ sp needed
 519 0006 10BD     		pop	{r4, pc}
 520              		.cfi_endproc
 521              	.LFE18:
 522              		.size	IoTHubTransportAMQP_GetHostname, .-IoTHubTransportAMQP_GetHostname
 523              		.section	.text.IoTHubTransportAMQP_ProcessItem,"ax",%progbits
 524              		.align	2
 525              		.code	16
 526              		.thumb_func
 527              		.type	IoTHubTransportAMQP_ProcessItem, %function
 528              	IoTHubTransportAMQP_ProcessItem:
 529              	.LFB3:
  59:Source\azure_iot_sdk\iothub_client\src/iothubtransportamqp.c ****     // Codes_SRS_IOTHUBTRANSPORTAMQP_09_014: [IoTHubTransportAMQP_ProcessItem shall invoke IoTHubTr
 530              		.loc 1 59 0
 531              		.cfi_startproc
 532              		@ args = 0, pretend = 0, frame = 0
 533              		@ frame_needed = 0, uses_anonymous_args = 0
 534              	.LVL51:
 535 0000 10B5     		push	{r4, lr}
 536              		.cfi_def_cfa_offset 8
 537              		.cfi_offset 4, -8
 538              		.cfi_offset 14, -4
  61:Source\azure_iot_sdk\iothub_client\src/iothubtransportamqp.c **** }
 539              		.loc 1 61 0
 540 0002 FFF7FEFF 		bl	IoTHubTransport_AMQP_Common_ProcessItem
 541              	.LVL52:
  62:Source\azure_iot_sdk\iothub_client\src/iothubtransportamqp.c **** 
 542              		.loc 1 62 0
 543              		@ sp needed
 544 0006 10BD     		pop	{r4, pc}
 545              		.cfi_endproc
 546              	.LFE3:
 547              		.size	IoTHubTransportAMQP_ProcessItem, .-IoTHubTransportAMQP_ProcessItem
 548              		.section	.text.IoTHubTransportAMQP_Unsubscribe_DeviceTwin,"ax",%progbits
 549              		.align	2
 550              		.code	16
 551              		.thumb_func
 552              		.type	IoTHubTransportAMQP_Unsubscribe_DeviceTwin, %function
 553              	IoTHubTransportAMQP_Unsubscribe_DeviceTwin:
 554              	.LFB8:
  89:Source\azure_iot_sdk\iothub_client\src/iothubtransportamqp.c ****     // Codes_SRS_IOTHUBTRANSPORTAMQP_09_009: [IoTHubTransportAMQP_Unsubscribe_DeviceTwin shall invo
 555              		.loc 1 89 0
 556              		.cfi_startproc
 557              		@ args = 0, pretend = 0, frame = 0
 558              		@ frame_needed = 0, uses_anonymous_args = 0
 559              	.LVL53:
 560 0000 10B5     		push	{r4, lr}
 561              		.cfi_def_cfa_offset 8
 562              		.cfi_offset 4, -8
 563              		.cfi_offset 14, -4
  91:Source\azure_iot_sdk\iothub_client\src/iothubtransportamqp.c **** }
 564              		.loc 1 91 0
 565 0002 FFF7FEFF 		bl	IoTHubTransport_AMQP_Common_Unsubscribe_DeviceTwin
 566              	.LVL54:
  92:Source\azure_iot_sdk\iothub_client\src/iothubtransportamqp.c **** 
 567              		.loc 1 92 0
 568              		@ sp needed
ARM GAS  C:\Users\Phuong\AppData\Local\Temp\ccIybnLM.s 			page 15


 569 0006 10BD     		pop	{r4, pc}
 570              		.cfi_endproc
 571              	.LFE8:
 572              		.size	IoTHubTransportAMQP_Unsubscribe_DeviceTwin, .-IoTHubTransportAMQP_Unsubscribe_DeviceTwin
 573              		.section	.text.IoTHubTransportAMQP_Subscribe_DeviceTwin,"ax",%progbits
 574              		.align	2
 575              		.code	16
 576              		.thumb_func
 577              		.type	IoTHubTransportAMQP_Subscribe_DeviceTwin, %function
 578              	IoTHubTransportAMQP_Subscribe_DeviceTwin:
 579              	.LFB7:
  83:Source\azure_iot_sdk\iothub_client\src/iothubtransportamqp.c ****     // Codes_SRS_IOTHUBTRANSPORTAMQP_09_008: [IoTHubTransportAMQP_Subscribe_DeviceTwin shall invoke
 580              		.loc 1 83 0
 581              		.cfi_startproc
 582              		@ args = 0, pretend = 0, frame = 0
 583              		@ frame_needed = 0, uses_anonymous_args = 0
 584              	.LVL55:
 585 0000 10B5     		push	{r4, lr}
 586              		.cfi_def_cfa_offset 8
 587              		.cfi_offset 4, -8
 588              		.cfi_offset 14, -4
  85:Source\azure_iot_sdk\iothub_client\src/iothubtransportamqp.c **** }
 589              		.loc 1 85 0
 590 0002 FFF7FEFF 		bl	IoTHubTransport_AMQP_Common_Subscribe_DeviceTwin
 591              	.LVL56:
  86:Source\azure_iot_sdk\iothub_client\src/iothubtransportamqp.c **** 
 592              		.loc 1 86 0
 593              		@ sp needed
 594 0006 10BD     		pop	{r4, pc}
 595              		.cfi_endproc
 596              	.LFE7:
 597              		.size	IoTHubTransportAMQP_Subscribe_DeviceTwin, .-IoTHubTransportAMQP_Subscribe_DeviceTwin
 598              		.section	.text.IoTHubTransportAMQP_DeviceMethod_Response,"ax",%progbits
 599              		.align	2
 600              		.code	16
 601              		.thumb_func
 602              		.type	IoTHubTransportAMQP_DeviceMethod_Response, %function
 603              	IoTHubTransportAMQP_DeviceMethod_Response:
 604              	.LFB11:
 107:Source\azure_iot_sdk\iothub_client\src/iothubtransportamqp.c ****     return IoTHubTransport_AMQP_Common_DeviceMethod_Response(handle, methodId, response, response_s
 605              		.loc 1 107 0
 606              		.cfi_startproc
 607              		@ args = 4, pretend = 0, frame = 0
 608              		@ frame_needed = 0, uses_anonymous_args = 0
 609              	.LVL57:
 610 0000 10B5     		push	{r4, lr}
 611              		.cfi_def_cfa_offset 8
 612              		.cfi_offset 4, -8
 613              		.cfi_offset 14, -4
 614 0002 82B0     		sub	sp, sp, #8
 615              		.cfi_def_cfa_offset 16
 108:Source\azure_iot_sdk\iothub_client\src/iothubtransportamqp.c **** }
 616              		.loc 1 108 0
 617 0004 049C     		ldr	r4, [sp, #16]
 618 0006 0094     		str	r4, [sp]
 619 0008 FFF7FEFF 		bl	IoTHubTransport_AMQP_Common_DeviceMethod_Response
 620              	.LVL58:
ARM GAS  C:\Users\Phuong\AppData\Local\Temp\ccIybnLM.s 			page 16


 109:Source\azure_iot_sdk\iothub_client\src/iothubtransportamqp.c **** 
 621              		.loc 1 109 0
 622 000c 02B0     		add	sp, sp, #8
 623              		@ sp needed
 624 000e 10BD     		pop	{r4, pc}
 625              		.cfi_endproc
 626              	.LFE11:
 627              		.size	IoTHubTransportAMQP_DeviceMethod_Response, .-IoTHubTransportAMQP_DeviceMethod_Response
 628              		.section	.text.IoTHubTransportAMQP_Unsubscribe_DeviceMethod,"ax",%progbits
 629              		.align	2
 630              		.code	16
 631              		.thumb_func
 632              		.type	IoTHubTransportAMQP_Unsubscribe_DeviceMethod, %function
 633              	IoTHubTransportAMQP_Unsubscribe_DeviceMethod:
 634              	.LFB10:
 101:Source\azure_iot_sdk\iothub_client\src/iothubtransportamqp.c ****     // Codes_SRS_IOTHUBTRANSPORTAMQP_09_011: [IoTHubTransportAMQP_Unsubscribe_DeviceMethod shall in
 635              		.loc 1 101 0
 636              		.cfi_startproc
 637              		@ args = 0, pretend = 0, frame = 0
 638              		@ frame_needed = 0, uses_anonymous_args = 0
 639              	.LVL59:
 640 0000 10B5     		push	{r4, lr}
 641              		.cfi_def_cfa_offset 8
 642              		.cfi_offset 4, -8
 643              		.cfi_offset 14, -4
 103:Source\azure_iot_sdk\iothub_client\src/iothubtransportamqp.c **** }
 644              		.loc 1 103 0
 645 0002 FFF7FEFF 		bl	IoTHubTransport_AMQP_Common_Unsubscribe_DeviceMethod
 646              	.LVL60:
 104:Source\azure_iot_sdk\iothub_client\src/iothubtransportamqp.c **** 
 647              		.loc 1 104 0
 648              		@ sp needed
 649 0006 10BD     		pop	{r4, pc}
 650              		.cfi_endproc
 651              	.LFE10:
 652              		.size	IoTHubTransportAMQP_Unsubscribe_DeviceMethod, .-IoTHubTransportAMQP_Unsubscribe_DeviceMethod
 653              		.section	.text.IoTHubTransportAMQP_Subscribe_DeviceMethod,"ax",%progbits
 654              		.align	2
 655              		.code	16
 656              		.thumb_func
 657              		.type	IoTHubTransportAMQP_Subscribe_DeviceMethod, %function
 658              	IoTHubTransportAMQP_Subscribe_DeviceMethod:
 659              	.LFB9:
  95:Source\azure_iot_sdk\iothub_client\src/iothubtransportamqp.c ****     // Codes_SRS_IOTHUBTRANSPORTAMQP_09_010: [IoTHubTransportAMQP_Subscribe_DeviceMethod shall invo
 660              		.loc 1 95 0
 661              		.cfi_startproc
 662              		@ args = 0, pretend = 0, frame = 0
 663              		@ frame_needed = 0, uses_anonymous_args = 0
 664              	.LVL61:
 665 0000 10B5     		push	{r4, lr}
 666              		.cfi_def_cfa_offset 8
 667              		.cfi_offset 4, -8
 668              		.cfi_offset 14, -4
  97:Source\azure_iot_sdk\iothub_client\src/iothubtransportamqp.c **** }
 669              		.loc 1 97 0
 670 0002 FFF7FEFF 		bl	IoTHubTransport_AMQP_Common_Subscribe_DeviceMethod
 671              	.LVL62:
ARM GAS  C:\Users\Phuong\AppData\Local\Temp\ccIybnLM.s 			page 17


  98:Source\azure_iot_sdk\iothub_client\src/iothubtransportamqp.c **** 
 672              		.loc 1 98 0
 673              		@ sp needed
 674 0006 10BD     		pop	{r4, pc}
 675              		.cfi_endproc
 676              	.LFE9:
 677              		.size	IoTHubTransportAMQP_Subscribe_DeviceMethod, .-IoTHubTransportAMQP_Subscribe_DeviceMethod
 678              		.section	.text.IoTHubTransportAMQP_SendMessageDisposition,"ax",%progbits
 679              		.align	2
 680              		.code	16
 681              		.thumb_func
 682              		.type	IoTHubTransportAMQP_SendMessageDisposition, %function
 683              	IoTHubTransportAMQP_SendMessageDisposition:
 684              	.LFB19:
 154:Source\azure_iot_sdk\iothub_client\src/iothubtransportamqp.c ****     // Codes_SRS_IOTHUBTRANSPORTAMQP_10_001: [IoTHubTransportAMQP_SendMessageDisposition shall send
 685              		.loc 1 154 0
 686              		.cfi_startproc
 687              		@ args = 0, pretend = 0, frame = 0
 688              		@ frame_needed = 0, uses_anonymous_args = 0
 689              	.LVL63:
 690 0000 10B5     		push	{r4, lr}
 691              		.cfi_def_cfa_offset 8
 692              		.cfi_offset 4, -8
 693              		.cfi_offset 14, -4
 156:Source\azure_iot_sdk\iothub_client\src/iothubtransportamqp.c **** }
 694              		.loc 1 156 0
 695 0002 FFF7FEFF 		bl	IoTHubTransport_AMQP_Common_SendMessageDisposition
 696              	.LVL64:
 157:Source\azure_iot_sdk\iothub_client\src/iothubtransportamqp.c **** 
 697              		.loc 1 157 0
 698              		@ sp needed
 699 0006 10BD     		pop	{r4, pc}
 700              		.cfi_endproc
 701              	.LFE19:
 702              		.size	IoTHubTransportAMQP_SendMessageDisposition, .-IoTHubTransportAMQP_SendMessageDisposition
 703              		.section	.text.AMQP_Protocol,"ax",%progbits
 704              		.align	2
 705              		.global	AMQP_Protocol
 706              		.code	16
 707              		.thumb_func
 708              		.type	AMQP_Protocol, %function
 709              	AMQP_Protocol:
 710              	.LFB22:
 173:Source\azure_iot_sdk\iothub_client\src/iothubtransportamqp.c **** 
 174:Source\azure_iot_sdk\iothub_client\src/iothubtransportamqp.c **** static TRANSPORT_PROVIDER thisTransportProvider =
 175:Source\azure_iot_sdk\iothub_client\src/iothubtransportamqp.c **** {
 176:Source\azure_iot_sdk\iothub_client\src/iothubtransportamqp.c ****     IoTHubTransportAMQP_SendMessageDisposition,     /*pfIotHubTransport_Send_Message_Disposition Io
 177:Source\azure_iot_sdk\iothub_client\src/iothubtransportamqp.c ****     IoTHubTransportAMQP_Subscribe_DeviceMethod,     /*pfIoTHubTransport_Subscribe_DeviceMethod IoTH
 178:Source\azure_iot_sdk\iothub_client\src/iothubtransportamqp.c ****     IoTHubTransportAMQP_Unsubscribe_DeviceMethod,   /*pfIoTHubTransport_Unsubscribe_DeviceMethod Io
 179:Source\azure_iot_sdk\iothub_client\src/iothubtransportamqp.c ****     IoTHubTransportAMQP_DeviceMethod_Response,
 180:Source\azure_iot_sdk\iothub_client\src/iothubtransportamqp.c ****     IoTHubTransportAMQP_Subscribe_DeviceTwin,       /*pfIoTHubTransport_Subscribe_DeviceTwin IoTHub
 181:Source\azure_iot_sdk\iothub_client\src/iothubtransportamqp.c ****     IoTHubTransportAMQP_Unsubscribe_DeviceTwin,     /*pfIoTHubTransport_Unsubscribe_DeviceTwin IoTH
 182:Source\azure_iot_sdk\iothub_client\src/iothubtransportamqp.c ****     IoTHubTransportAMQP_ProcessItem,                /*pfIoTHubTransport_ProcessItem IoTHubTransport
 183:Source\azure_iot_sdk\iothub_client\src/iothubtransportamqp.c ****     IoTHubTransportAMQP_GetHostname,                /*pfIoTHubTransport_GetHostname IoTHubTransport
 184:Source\azure_iot_sdk\iothub_client\src/iothubtransportamqp.c ****     IoTHubTransportAMQP_SetOption,                  /*pfIoTHubTransport_SetOption IoTHubTransport_S
 185:Source\azure_iot_sdk\iothub_client\src/iothubtransportamqp.c ****     IoTHubTransportAMQP_Create,                     /*pfIoTHubTransport_Create IoTHubTransport_Crea
 186:Source\azure_iot_sdk\iothub_client\src/iothubtransportamqp.c ****     IoTHubTransportAMQP_Destroy,                    /*pfIoTHubTransport_Destroy IoTHubTransport_Des
ARM GAS  C:\Users\Phuong\AppData\Local\Temp\ccIybnLM.s 			page 18


 187:Source\azure_iot_sdk\iothub_client\src/iothubtransportamqp.c ****     IoTHubTransportAMQP_Register,                   /*pfIotHubTransport_Register IoTHubTransport_Re
 188:Source\azure_iot_sdk\iothub_client\src/iothubtransportamqp.c ****     IoTHubTransportAMQP_Unregister,                 /*pfIotHubTransport_Unregister IoTHubTransport_
 189:Source\azure_iot_sdk\iothub_client\src/iothubtransportamqp.c ****     IoTHubTransportAMQP_Subscribe,                  /*pfIoTHubTransport_Subscribe IoTHubTransport_S
 190:Source\azure_iot_sdk\iothub_client\src/iothubtransportamqp.c ****     IoTHubTransportAMQP_Unsubscribe,                /*pfIoTHubTransport_Unsubscribe IoTHubTransport
 191:Source\azure_iot_sdk\iothub_client\src/iothubtransportamqp.c ****     IoTHubTransportAMQP_DoWork,                     /*pfIoTHubTransport_DoWork IoTHubTransport_DoWo
 192:Source\azure_iot_sdk\iothub_client\src/iothubtransportamqp.c ****     IoTHubTransportAMQP_SetRetryPolicy,             /*pfIoTHubTransport_DoWork IoTHubTransport_SetR
 193:Source\azure_iot_sdk\iothub_client\src/iothubtransportamqp.c ****     IoTHubTransportAMQP_GetSendStatus,              /*pfIoTHubTransport_GetSendStatus IoTHubTranspo
 194:Source\azure_iot_sdk\iothub_client\src/iothubtransportamqp.c ****     IotHubTransportAMQP_Subscribe_InputQueue,       /*pfIoTHubTransport_Subscribe_InputQueue IoTHub
 195:Source\azure_iot_sdk\iothub_client\src/iothubtransportamqp.c ****     IotHubTransportAMQP_Unsubscribe_InputQueue,     /*pfIoTHubTransport_Unsubscribe_InputQueue IoTH
 196:Source\azure_iot_sdk\iothub_client\src/iothubtransportamqp.c **** };
 197:Source\azure_iot_sdk\iothub_client\src/iothubtransportamqp.c **** 
 198:Source\azure_iot_sdk\iothub_client\src/iothubtransportamqp.c **** /* Codes_SRS_IOTHUBTRANSPORTAMQP_09_019: [This function shall return a pointer to a structure of ty
 199:Source\azure_iot_sdk\iothub_client\src/iothubtransportamqp.c **** IoTHubTransport_SendMessageDisposition = IoTHubTransportAMQP_SendMessageDisposition
 200:Source\azure_iot_sdk\iothub_client\src/iothubtransportamqp.c **** IoTHubTransport_Subscribe_DeviceMethod = IoTHubTransportAMQP_Subscribe_DeviceMethod
 201:Source\azure_iot_sdk\iothub_client\src/iothubtransportamqp.c **** IoTHubTransport_Unsubscribe_DeviceMethod = IoTHubTransportAMQP_Unsubscribe_DeviceMethod
 202:Source\azure_iot_sdk\iothub_client\src/iothubtransportamqp.c **** IoTHubTransport_Subscribe_DeviceTwin = IoTHubTransportAMQP_Subscribe_DeviceTwin
 203:Source\azure_iot_sdk\iothub_client\src/iothubtransportamqp.c **** IoTHubTransport_Unsubscribe_DeviceTwin = IoTHubTransportAMQP_Unsubscribe_DeviceTwin
 204:Source\azure_iot_sdk\iothub_client\src/iothubtransportamqp.c **** IoTHubTransport_ProcessItem - IoTHubTransportAMQP_ProcessItem
 205:Source\azure_iot_sdk\iothub_client\src/iothubtransportamqp.c **** IoTHubTransport_GetHostname = IoTHubTransportAMQP_GetHostname
 206:Source\azure_iot_sdk\iothub_client\src/iothubtransportamqp.c **** IoTHubTransport_Create = IoTHubTransportAMQP_Create
 207:Source\azure_iot_sdk\iothub_client\src/iothubtransportamqp.c **** IoTHubTransport_Destroy = IoTHubTransportAMQP_Destroy
 208:Source\azure_iot_sdk\iothub_client\src/iothubtransportamqp.c **** IoTHubTransport_Subscribe = IoTHubTransportAMQP_Subscribe
 209:Source\azure_iot_sdk\iothub_client\src/iothubtransportamqp.c **** IoTHubTransport_Unsubscribe = IoTHubTransportAMQP_Unsubscribe
 210:Source\azure_iot_sdk\iothub_client\src/iothubtransportamqp.c **** IoTHubTransport_DoWork = IoTHubTransportAMQP_DoWork
 211:Source\azure_iot_sdk\iothub_client\src/iothubtransportamqp.c **** IoTHubTransport_SetRetryPolicy = IoTHubTransportAMQP_SetRetryPolicy
 212:Source\azure_iot_sdk\iothub_client\src/iothubtransportamqp.c **** IoTHubTransport_SetOption = IoTHubTransportAMQP_SetOption]*/
 213:Source\azure_iot_sdk\iothub_client\src/iothubtransportamqp.c **** extern const TRANSPORT_PROVIDER* AMQP_Protocol(void)
 214:Source\azure_iot_sdk\iothub_client\src/iothubtransportamqp.c **** {
 711              		.loc 1 214 0
 712              		.cfi_startproc
 713              		@ args = 0, pretend = 0, frame = 0
 714              		@ frame_needed = 0, uses_anonymous_args = 0
 715              		@ link register save eliminated.
 215:Source\azure_iot_sdk\iothub_client\src/iothubtransportamqp.c ****     return &thisTransportProvider;
 216:Source\azure_iot_sdk\iothub_client\src/iothubtransportamqp.c **** }
 716              		.loc 1 216 0
 717 0000 0048     		ldr	r0, .L36
 718              		@ sp needed
 719 0002 7047     		bx	lr
 720              	.L37:
 721              		.align	2
 722              	.L36:
 723 0004 00000000 		.word	.LANCHOR1
 724              		.cfi_endproc
 725              	.LFE22:
 726              		.size	AMQP_Protocol, .-AMQP_Protocol
 727              		.section	.rodata
 728              		.align	2
 729              		.set	.LANCHOR0,. + 0
 730              		.type	__func__.6595, %object
 731              		.size	__func__.6595, 43
 732              	__func__.6595:
 733 0000 496F7448 		.ascii	"IotHubTransportAMQP_Unsubscribe_InputQueue\000"
 733      75625472 
 733      616E7370 
 733      6F727441 
 733      4D51505F 
ARM GAS  C:\Users\Phuong\AppData\Local\Temp\ccIybnLM.s 			page 19


 734 002b 00       		.space	1
 735              		.type	__func__.6588, %object
 736              		.size	__func__.6588, 41
 737              	__func__.6588:
 738 002c 496F7448 		.ascii	"IotHubTransportAMQP_Subscribe_InputQueue\000"
 738      75625472 
 738      616E7370 
 738      6F727441 
 738      4D51505F 
 739 0055 000000   		.space	3
 740              		.type	__func__.6508, %object
 741              		.size	__func__.6508, 18
 742              	__func__.6508:
 743 0058 67657454 		.ascii	"getTLSIOTransport\000"
 743      4C53494F 
 743      5472616E 
 743      73706F72 
 743      7400
 744              		.data
 745              		.align	2
 746              		.set	.LANCHOR1,. + 0
 747              		.type	thisTransportProvider, %object
 748              		.size	thisTransportProvider, 80
 749              	thisTransportProvider:
 750 0000 00000000 		.word	IoTHubTransportAMQP_SendMessageDisposition
 751 0004 00000000 		.word	IoTHubTransportAMQP_Subscribe_DeviceMethod
 752 0008 00000000 		.word	IoTHubTransportAMQP_Unsubscribe_DeviceMethod
 753 000c 00000000 		.word	IoTHubTransportAMQP_DeviceMethod_Response
 754 0010 00000000 		.word	IoTHubTransportAMQP_Subscribe_DeviceTwin
 755 0014 00000000 		.word	IoTHubTransportAMQP_Unsubscribe_DeviceTwin
 756 0018 00000000 		.word	IoTHubTransportAMQP_ProcessItem
 757 001c 00000000 		.word	IoTHubTransportAMQP_GetHostname
 758 0020 00000000 		.word	IoTHubTransportAMQP_SetOption
 759 0024 00000000 		.word	IoTHubTransportAMQP_Create
 760 0028 00000000 		.word	IoTHubTransportAMQP_Destroy
 761 002c 00000000 		.word	IoTHubTransportAMQP_Register
 762 0030 00000000 		.word	IoTHubTransportAMQP_Unregister
 763 0034 00000000 		.word	IoTHubTransportAMQP_Subscribe
 764 0038 00000000 		.word	IoTHubTransportAMQP_Unsubscribe
 765 003c 00000000 		.word	IoTHubTransportAMQP_DoWork
 766 0040 00000000 		.word	IoTHubTransportAMQP_SetRetryPolicy
 767 0044 00000000 		.word	IoTHubTransportAMQP_GetSendStatus
 768 0048 00000000 		.word	IotHubTransportAMQP_Subscribe_InputQueue
 769 004c 00000000 		.word	IotHubTransportAMQP_Unsubscribe_InputQueue
 770              		.section	.rodata.str1.4,"aMS",%progbits,1
 771              		.align	2
 772              	.LC1:
 773 0000 536F7572 		.ascii	"Source\\azure_iot_sdk\\iothub_client\\src\\iothubtr"
 773      63655C61 
 773      7A757265 
 773      5F696F74 
 773      5F73646B 
 774 002f 616E7370 		.ascii	"ansportamqp.c\000"
 774      6F727461 
 774      6D71702E 
 774      6300
 775 003d 000000   		.space	3
ARM GAS  C:\Users\Phuong\AppData\Local\Temp\ccIybnLM.s 			page 20


 776              	.LC3:
 777 0040 414D5150 		.ascii	"AMQP does not support input queues\000"
 777      20646F65 
 777      73206E6F 
 777      74207375 
 777      70706F72 
 778 0063 00       		.space	1
 779              	.LC11:
 780 0064 4661696C 		.ascii	"Failed obtaining default TLS IO interface\000"
 780      6564206F 
 780      62746169 
 780      6E696E67 
 780      20646566 
 781 008e 0000     		.space	2
 782              	.LC13:
 783 0090 4661696C 		.ascii	"Failed to get the TLS/IO transport (xio_create fail"
 783      65642074 
 783      6F206765 
 783      74207468 
 783      6520544C 
 784 00c3 65642900 		.ascii	"ed)\000"
 785              		.text
 786              	.Letext0:
 787              		.file 2 "c:\\program files (x86)\\cypress\\psoc creator\\4.2\\psoc creator\\import\\gnu\\arm\\5.4.
 788              		.file 3 ".\\Source\\azure_iot_sdk\\iothub_client\\inc/iothub_transport_ll.h"
 789              		.file 4 ".\\Source\\azure_iot_sdk\\iothub_client\\inc/internal/iothub_transport_ll_private.h"
 790              		.file 5 ".\\Source\\azure_iot_sdk\\c-utility\\inc/azure_c_shared_utility/strings_types.h"
 791              		.file 6 ".\\Source\\azure_iot_sdk\\c-utility\\inc/azure_c_shared_utility/optionhandler.h"
 792              		.file 7 ".\\Source\\azure_iot_sdk\\c-utility\\inc/azure_c_shared_utility/xio.h"
 793              		.file 8 ".\\Source\\azure_iot_sdk\\iothub_client\\inc/internal/iothub_client_authorization.h"
 794              		.file 9 ".\\Source\\azure_iot_sdk\\c-utility\\inc/azure_c_shared_utility/doublylinkedlist.h"
 795              		.file 10 ".\\Source\\azure_iot_sdk\\iothub_client\\inc/iothub_message.h"
 796              		.file 11 ".\\Source\\azure_iot_sdk\\iothub_client\\inc/iothub_client_core_ll.h"
 797              		.file 12 ".\\Source\\azure_iot_sdk\\iothub_client\\inc/iothub_client_core_common.h"
 798              		.file 13 ".\\Source\\azure_iot_sdk\\iothub_client\\inc/iothub_client_ll.h"
 799              		.file 14 ".\\Source\\azure_iot_sdk\\iothub_client\\inc/internal/iothubtransport_amqp_common.h"
 800              		.file 15 ".\\Source\\azure_iot_sdk\\c-utility\\inc/azure_c_shared_utility/tlsio.h"
 801              		.file 16 ".\\Source\\azure_iot_sdk\\c-utility\\inc/azure_c_shared_utility/xlogging.h"
 802              		.file 17 ".\\Source\\azure_iot_sdk\\c-utility\\inc/azure_c_shared_utility/platform.h"