ARM GAS  C:\Users\Phuong\AppData\Local\Temp\cc4zbCpa.s 			page 1


   1              		.syntax unified
   2              		.cpu cortex-m0plus
   3              		.fpu softvfp
   4              		.eabi_attribute 20, 1
   5              		.eabi_attribute 21, 1
   6              		.eabi_attribute 23, 3
   7              		.eabi_attribute 24, 1
   8              		.eabi_attribute 25, 1
   9              		.eabi_attribute 26, 1
  10              		.eabi_attribute 30, 1
  11              		.eabi_attribute 34, 0
  12              		.eabi_attribute 18, 4
  13              		.thumb
  14              		.syntax unified
  15              		.file	"iothub_message.c"
  16              		.text
  17              	.Ltext0:
  18              		.cfi_sections	.debug_frame
  19              		.section	.text.ContainsOnlyUsAscii,"ax",%progbits
  20              		.align	2
  21              		.code	16
  22              		.thumb_func
  23              		.type	ContainsOnlyUsAscii, %function
  24              	ContainsOnlyUsAscii:
  25              	.LFB5:
  26              		.file 1 "Source\\azure_iot_sdk\\iothub_client\\src\\iothub_message.c"
   1:Source\azure_iot_sdk\iothub_client\src/iothub_message.c **** // Copyright (c) Microsoft. All rights reserved.
   2:Source\azure_iot_sdk\iothub_client\src/iothub_message.c **** // Licensed under the MIT license. See LICENSE file in the project root for full license informatio
   3:Source\azure_iot_sdk\iothub_client\src/iothub_message.c **** 
   4:Source\azure_iot_sdk\iothub_client\src/iothub_message.c **** #include <stdlib.h>
   5:Source\azure_iot_sdk\iothub_client\src/iothub_message.c **** #include "azure_c_shared_utility/optimize_size.h"
   6:Source\azure_iot_sdk\iothub_client\src/iothub_message.c **** #include "azure_c_shared_utility/gballoc.h"
   7:Source\azure_iot_sdk\iothub_client\src/iothub_message.c **** #include "azure_c_shared_utility/xlogging.h"
   8:Source\azure_iot_sdk\iothub_client\src/iothub_message.c **** #include "azure_c_shared_utility/buffer_.h"
   9:Source\azure_iot_sdk\iothub_client\src/iothub_message.c **** 
  10:Source\azure_iot_sdk\iothub_client\src/iothub_message.c **** #include "iothub_message.h"
  11:Source\azure_iot_sdk\iothub_client\src/iothub_message.c **** 
  12:Source\azure_iot_sdk\iothub_client\src/iothub_message.c **** DEFINE_ENUM_STRINGS(IOTHUB_MESSAGE_RESULT, IOTHUB_MESSAGE_RESULT_VALUES);
  13:Source\azure_iot_sdk\iothub_client\src/iothub_message.c **** DEFINE_ENUM_STRINGS(IOTHUBMESSAGE_CONTENT_TYPE, IOTHUBMESSAGE_CONTENT_TYPE_VALUES);
  14:Source\azure_iot_sdk\iothub_client\src/iothub_message.c **** 
  15:Source\azure_iot_sdk\iothub_client\src/iothub_message.c **** #define LOG_IOTHUB_MESSAGE_ERROR() \
  16:Source\azure_iot_sdk\iothub_client\src/iothub_message.c ****     LogError("(result = %s)", ENUM_TO_STRING(IOTHUB_MESSAGE_RESULT, result));
  17:Source\azure_iot_sdk\iothub_client\src/iothub_message.c **** 
  18:Source\azure_iot_sdk\iothub_client\src/iothub_message.c **** typedef struct IOTHUB_MESSAGE_HANDLE_DATA_TAG
  19:Source\azure_iot_sdk\iothub_client\src/iothub_message.c **** {
  20:Source\azure_iot_sdk\iothub_client\src/iothub_message.c ****     IOTHUBMESSAGE_CONTENT_TYPE contentType;
  21:Source\azure_iot_sdk\iothub_client\src/iothub_message.c ****     union
  22:Source\azure_iot_sdk\iothub_client\src/iothub_message.c ****     {
  23:Source\azure_iot_sdk\iothub_client\src/iothub_message.c ****         BUFFER_HANDLE byteArray;
  24:Source\azure_iot_sdk\iothub_client\src/iothub_message.c ****         STRING_HANDLE string;
  25:Source\azure_iot_sdk\iothub_client\src/iothub_message.c ****     } value;
  26:Source\azure_iot_sdk\iothub_client\src/iothub_message.c ****     MAP_HANDLE properties;
  27:Source\azure_iot_sdk\iothub_client\src/iothub_message.c ****     char* messageId;
  28:Source\azure_iot_sdk\iothub_client\src/iothub_message.c ****     char* correlationId;
  29:Source\azure_iot_sdk\iothub_client\src/iothub_message.c ****     char* userDefinedContentType;
  30:Source\azure_iot_sdk\iothub_client\src/iothub_message.c ****     char* contentEncoding;
  31:Source\azure_iot_sdk\iothub_client\src/iothub_message.c ****     char* outputName;
ARM GAS  C:\Users\Phuong\AppData\Local\Temp\cc4zbCpa.s 			page 2


  32:Source\azure_iot_sdk\iothub_client\src/iothub_message.c ****     char* inputName;
  33:Source\azure_iot_sdk\iothub_client\src/iothub_message.c ****     char* connectionModuleId;
  34:Source\azure_iot_sdk\iothub_client\src/iothub_message.c ****     char* connectionDeviceId;
  35:Source\azure_iot_sdk\iothub_client\src/iothub_message.c ****     IOTHUB_MESSAGE_DIAGNOSTIC_PROPERTY_DATA_HANDLE diagnosticData;
  36:Source\azure_iot_sdk\iothub_client\src/iothub_message.c **** }IOTHUB_MESSAGE_HANDLE_DATA;
  37:Source\azure_iot_sdk\iothub_client\src/iothub_message.c **** 
  38:Source\azure_iot_sdk\iothub_client\src/iothub_message.c **** static bool ContainsOnlyUsAscii(const char* asciiValue)
  39:Source\azure_iot_sdk\iothub_client\src/iothub_message.c **** {
  27              		.loc 1 39 0
  28              		.cfi_startproc
  29              		@ args = 0, pretend = 0, frame = 0
  30              		@ frame_needed = 0, uses_anonymous_args = 0
  31              		@ link register save eliminated.
  32              	.LVL0:
  40:Source\azure_iot_sdk\iothub_client\src/iothub_message.c ****     bool result = true;
  41:Source\azure_iot_sdk\iothub_client\src/iothub_message.c ****     const char* iterator = asciiValue;
  42:Source\azure_iot_sdk\iothub_client\src/iothub_message.c ****     while (iterator != NULL && *iterator != '\0')
  33              		.loc 1 42 0
  34 0000 04E0     		b	.L2
  35              	.LVL1:
  36              	.L4:
  43:Source\azure_iot_sdk\iothub_client\src/iothub_message.c ****     {
  44:Source\azure_iot_sdk\iothub_client\src/iothub_message.c ****         // Allow only printable ascii char
  45:Source\azure_iot_sdk\iothub_client\src/iothub_message.c ****         if (*iterator < ' ' || *iterator > '~')
  37              		.loc 1 45 0
  38 0002 203B     		subs	r3, r3, #32
  39 0004 DBB2     		uxtb	r3, r3
  40 0006 5E2B     		cmp	r3, #94
  41 0008 07D8     		bhi	.L5
  46:Source\azure_iot_sdk\iothub_client\src/iothub_message.c ****         {
  47:Source\azure_iot_sdk\iothub_client\src/iothub_message.c ****             result = false;
  48:Source\azure_iot_sdk\iothub_client\src/iothub_message.c ****             break;
  49:Source\azure_iot_sdk\iothub_client\src/iothub_message.c ****         }
  50:Source\azure_iot_sdk\iothub_client\src/iothub_message.c ****         iterator++;
  42              		.loc 1 50 0
  43 000a 0130     		adds	r0, r0, #1
  44              	.LVL2:
  45              	.L2:
  42:Source\azure_iot_sdk\iothub_client\src/iothub_message.c ****     {
  46              		.loc 1 42 0
  47 000c 0028     		cmp	r0, #0
  48 000e 06D0     		beq	.L6
  42:Source\azure_iot_sdk\iothub_client\src/iothub_message.c ****     {
  49              		.loc 1 42 0 is_stmt 0 discriminator 1
  50 0010 0378     		ldrb	r3, [r0]
  51 0012 002B     		cmp	r3, #0
  52 0014 F5D1     		bne	.L4
  40:Source\azure_iot_sdk\iothub_client\src/iothub_message.c ****     const char* iterator = asciiValue;
  53              		.loc 1 40 0 is_stmt 1
  54 0016 0120     		movs	r0, #1
  55              	.LVL3:
  56 0018 02E0     		b	.L3
  57              	.LVL4:
  58              	.L5:
  47:Source\azure_iot_sdk\iothub_client\src/iothub_message.c ****             break;
  59              		.loc 1 47 0
  60 001a 0020     		movs	r0, #0
ARM GAS  C:\Users\Phuong\AppData\Local\Temp\cc4zbCpa.s 			page 3


  61              	.LVL5:
  62 001c 00E0     		b	.L3
  63              	.LVL6:
  64              	.L6:
  40:Source\azure_iot_sdk\iothub_client\src/iothub_message.c ****     const char* iterator = asciiValue;
  65              		.loc 1 40 0
  66 001e 0120     		movs	r0, #1
  67              	.LVL7:
  68              	.L3:
  51:Source\azure_iot_sdk\iothub_client\src/iothub_message.c ****     }
  52:Source\azure_iot_sdk\iothub_client\src/iothub_message.c ****     return result;
  53:Source\azure_iot_sdk\iothub_client\src/iothub_message.c **** }
  69              		.loc 1 53 0
  70              		@ sp needed
  71 0020 7047     		bx	lr
  72              		.cfi_endproc
  73              	.LFE5:
  74              		.size	ContainsOnlyUsAscii, .-ContainsOnlyUsAscii
  75 0022 C046     		.section	.text.ValidateAsciiCharactersFilter,"ax",%progbits
  76              		.align	2
  77              		.code	16
  78              		.thumb_func
  79              		.type	ValidateAsciiCharactersFilter, %function
  80              	ValidateAsciiCharactersFilter:
  81              	.LFB6:
  54:Source\azure_iot_sdk\iothub_client\src/iothub_message.c **** 
  55:Source\azure_iot_sdk\iothub_client\src/iothub_message.c **** /* Codes_SRS_IOTHUBMESSAGE_07_008: [ValidateAsciiCharactersFilter shall loop through the mapKey and
  56:Source\azure_iot_sdk\iothub_client\src/iothub_message.c **** static int ValidateAsciiCharactersFilter(const char* mapKey, const char* mapValue)
  57:Source\azure_iot_sdk\iothub_client\src/iothub_message.c **** {
  82              		.loc 1 57 0
  83              		.cfi_startproc
  84              		@ args = 0, pretend = 0, frame = 0
  85              		@ frame_needed = 0, uses_anonymous_args = 0
  86              	.LVL8:
  87 0000 10B5     		push	{r4, lr}
  88              		.cfi_def_cfa_offset 8
  89              		.cfi_offset 4, -8
  90              		.cfi_offset 14, -4
  91 0002 0C00     		movs	r4, r1
  58:Source\azure_iot_sdk\iothub_client\src/iothub_message.c ****     int result;
  59:Source\azure_iot_sdk\iothub_client\src/iothub_message.c ****     if (!ContainsOnlyUsAscii(mapKey) || !ContainsOnlyUsAscii(mapValue))
  92              		.loc 1 59 0
  93 0004 FFF7FEFF 		bl	ContainsOnlyUsAscii
  94              	.LVL9:
  95 0008 0028     		cmp	r0, #0
  96 000a 06D0     		beq	.L9
  97              		.loc 1 59 0 is_stmt 0 discriminator 1
  98 000c 2000     		movs	r0, r4
  99 000e FFF7FEFF 		bl	ContainsOnlyUsAscii
 100              	.LVL10:
 101 0012 0028     		cmp	r0, #0
 102 0014 03D0     		beq	.L10
  60:Source\azure_iot_sdk\iothub_client\src/iothub_message.c ****     {
  61:Source\azure_iot_sdk\iothub_client\src/iothub_message.c ****         result = __FAILURE__;
  62:Source\azure_iot_sdk\iothub_client\src/iothub_message.c ****     }
  63:Source\azure_iot_sdk\iothub_client\src/iothub_message.c ****     else
  64:Source\azure_iot_sdk\iothub_client\src/iothub_message.c ****     {
ARM GAS  C:\Users\Phuong\AppData\Local\Temp\cc4zbCpa.s 			page 4


  65:Source\azure_iot_sdk\iothub_client\src/iothub_message.c ****         result = 0;
 103              		.loc 1 65 0 is_stmt 1
 104 0016 0020     		movs	r0, #0
 105 0018 02E0     		b	.L8
 106              	.L9:
  61:Source\azure_iot_sdk\iothub_client\src/iothub_message.c ****     }
 107              		.loc 1 61 0
 108 001a 3D20     		movs	r0, #61
 109 001c 00E0     		b	.L8
 110              	.L10:
 111 001e 3D20     		movs	r0, #61
 112              	.L8:
 113              	.LVL11:
  66:Source\azure_iot_sdk\iothub_client\src/iothub_message.c ****     }
  67:Source\azure_iot_sdk\iothub_client\src/iothub_message.c ****     return result;
  68:Source\azure_iot_sdk\iothub_client\src/iothub_message.c **** }
 114              		.loc 1 68 0
 115              		@ sp needed
 116              	.LVL12:
 117 0020 10BD     		pop	{r4, pc}
 118              		.cfi_endproc
 119              	.LFE6:
 120              		.size	ValidateAsciiCharactersFilter, .-ValidateAsciiCharactersFilter
 121 0022 C046     		.section	.text.DestroyDiagnosticPropertyData,"ax",%progbits
 122              		.align	2
 123              		.code	16
 124              		.thumb_func
 125              		.type	DestroyDiagnosticPropertyData, %function
 126              	DestroyDiagnosticPropertyData:
 127              	.LFB7:
  69:Source\azure_iot_sdk\iothub_client\src/iothub_message.c **** 
  70:Source\azure_iot_sdk\iothub_client\src/iothub_message.c **** static void DestroyDiagnosticPropertyData(IOTHUB_MESSAGE_DIAGNOSTIC_PROPERTY_DATA_HANDLE diagnostic
  71:Source\azure_iot_sdk\iothub_client\src/iothub_message.c **** {
 128              		.loc 1 71 0
 129              		.cfi_startproc
 130              		@ args = 0, pretend = 0, frame = 0
 131              		@ frame_needed = 0, uses_anonymous_args = 0
 132              	.LVL13:
 133 0000 10B5     		push	{r4, lr}
 134              		.cfi_def_cfa_offset 8
 135              		.cfi_offset 4, -8
 136              		.cfi_offset 14, -4
 137 0002 041E     		subs	r4, r0, #0
  72:Source\azure_iot_sdk\iothub_client\src/iothub_message.c ****     if (diagnosticHandle != NULL)
 138              		.loc 1 72 0
 139 0004 05D0     		beq	.L12
  73:Source\azure_iot_sdk\iothub_client\src/iothub_message.c ****     {
  74:Source\azure_iot_sdk\iothub_client\src/iothub_message.c ****         free(diagnosticHandle->diagnosticId);
 140              		.loc 1 74 0
 141 0006 0068     		ldr	r0, [r0]
 142              	.LVL14:
 143 0008 FFF7FEFF 		bl	free
 144              	.LVL15:
  75:Source\azure_iot_sdk\iothub_client\src/iothub_message.c ****         free(diagnosticHandle->diagnosticCreationTimeUtc);
 145              		.loc 1 75 0
 146 000c 6068     		ldr	r0, [r4, #4]
 147 000e FFF7FEFF 		bl	free
ARM GAS  C:\Users\Phuong\AppData\Local\Temp\cc4zbCpa.s 			page 5


 148              	.LVL16:
 149              	.L12:
  76:Source\azure_iot_sdk\iothub_client\src/iothub_message.c ****     }
  77:Source\azure_iot_sdk\iothub_client\src/iothub_message.c ****     free(diagnosticHandle);
 150              		.loc 1 77 0
 151 0012 2000     		movs	r0, r4
 152 0014 FFF7FEFF 		bl	free
 153              	.LVL17:
  78:Source\azure_iot_sdk\iothub_client\src/iothub_message.c **** }
 154              		.loc 1 78 0
 155              		@ sp needed
 156              	.LVL18:
 157 0018 10BD     		pop	{r4, pc}
 158              		.cfi_endproc
 159              	.LFE7:
 160              		.size	DestroyDiagnosticPropertyData, .-DestroyDiagnosticPropertyData
 161 001a C046     		.section	.text.DestroyMessageData,"ax",%progbits
 162              		.align	2
 163              		.code	16
 164              		.thumb_func
 165              		.type	DestroyMessageData, %function
 166              	DestroyMessageData:
 167              	.LFB8:
  79:Source\azure_iot_sdk\iothub_client\src/iothub_message.c **** 
  80:Source\azure_iot_sdk\iothub_client\src/iothub_message.c **** static void DestroyMessageData(IOTHUB_MESSAGE_HANDLE_DATA* handleData)
  81:Source\azure_iot_sdk\iothub_client\src/iothub_message.c **** {
 168              		.loc 1 81 0
 169              		.cfi_startproc
 170              		@ args = 0, pretend = 0, frame = 0
 171              		@ frame_needed = 0, uses_anonymous_args = 0
 172              	.LVL19:
 173 0000 70B5     		push	{r4, r5, r6, lr}
 174              		.cfi_def_cfa_offset 16
 175              		.cfi_offset 4, -16
 176              		.cfi_offset 5, -12
 177              		.cfi_offset 6, -8
 178              		.cfi_offset 14, -4
 179 0002 0400     		movs	r4, r0
  82:Source\azure_iot_sdk\iothub_client\src/iothub_message.c ****     if (handleData->contentType == IOTHUBMESSAGE_BYTEARRAY)
 180              		.loc 1 82 0
 181 0004 0378     		ldrb	r3, [r0]
 182 0006 002B     		cmp	r3, #0
 183 0008 03D1     		bne	.L14
  83:Source\azure_iot_sdk\iothub_client\src/iothub_message.c ****     {
  84:Source\azure_iot_sdk\iothub_client\src/iothub_message.c ****         BUFFER_delete(handleData->value.byteArray);
 184              		.loc 1 84 0
 185 000a 4068     		ldr	r0, [r0, #4]
 186              	.LVL20:
 187 000c FFF7FEFF 		bl	BUFFER_delete
 188              	.LVL21:
 189 0010 04E0     		b	.L15
 190              	.LVL22:
 191              	.L14:
  85:Source\azure_iot_sdk\iothub_client\src/iothub_message.c ****     }
  86:Source\azure_iot_sdk\iothub_client\src/iothub_message.c ****     else if (handleData->contentType == IOTHUBMESSAGE_STRING)
 192              		.loc 1 86 0
 193 0012 012B     		cmp	r3, #1
ARM GAS  C:\Users\Phuong\AppData\Local\Temp\cc4zbCpa.s 			page 6


 194 0014 02D1     		bne	.L15
  87:Source\azure_iot_sdk\iothub_client\src/iothub_message.c ****     {
  88:Source\azure_iot_sdk\iothub_client\src/iothub_message.c ****         STRING_delete(handleData->value.string);
 195              		.loc 1 88 0
 196 0016 4068     		ldr	r0, [r0, #4]
 197              	.LVL23:
 198 0018 FFF7FEFF 		bl	STRING_delete
 199              	.LVL24:
 200              	.L15:
  89:Source\azure_iot_sdk\iothub_client\src/iothub_message.c ****     }
  90:Source\azure_iot_sdk\iothub_client\src/iothub_message.c **** 
  91:Source\azure_iot_sdk\iothub_client\src/iothub_message.c ****     Map_Destroy(handleData->properties);
 201              		.loc 1 91 0
 202 001c A068     		ldr	r0, [r4, #8]
 203 001e FFF7FEFF 		bl	Map_Destroy
 204              	.LVL25:
  92:Source\azure_iot_sdk\iothub_client\src/iothub_message.c ****     free(handleData->messageId);
 205              		.loc 1 92 0
 206 0022 E068     		ldr	r0, [r4, #12]
 207 0024 FFF7FEFF 		bl	free
 208              	.LVL26:
  93:Source\azure_iot_sdk\iothub_client\src/iothub_message.c ****     handleData->messageId = NULL;
 209              		.loc 1 93 0
 210 0028 0025     		movs	r5, #0
 211 002a E560     		str	r5, [r4, #12]
  94:Source\azure_iot_sdk\iothub_client\src/iothub_message.c ****     free(handleData->correlationId);
 212              		.loc 1 94 0
 213 002c 2069     		ldr	r0, [r4, #16]
 214 002e FFF7FEFF 		bl	free
 215              	.LVL27:
  95:Source\azure_iot_sdk\iothub_client\src/iothub_message.c ****     handleData->correlationId = NULL;
 216              		.loc 1 95 0
 217 0032 2561     		str	r5, [r4, #16]
  96:Source\azure_iot_sdk\iothub_client\src/iothub_message.c ****     free(handleData->userDefinedContentType);
 218              		.loc 1 96 0
 219 0034 6069     		ldr	r0, [r4, #20]
 220 0036 FFF7FEFF 		bl	free
 221              	.LVL28:
  97:Source\azure_iot_sdk\iothub_client\src/iothub_message.c ****     free(handleData->contentEncoding);
 222              		.loc 1 97 0
 223 003a A069     		ldr	r0, [r4, #24]
 224 003c FFF7FEFF 		bl	free
 225              	.LVL29:
  98:Source\azure_iot_sdk\iothub_client\src/iothub_message.c ****     DestroyDiagnosticPropertyData(handleData->diagnosticData);
 226              		.loc 1 98 0
 227 0040 E06A     		ldr	r0, [r4, #44]
 228 0042 FFF7FEFF 		bl	DestroyDiagnosticPropertyData
 229              	.LVL30:
  99:Source\azure_iot_sdk\iothub_client\src/iothub_message.c ****     free(handleData->outputName);
 230              		.loc 1 99 0
 231 0046 E069     		ldr	r0, [r4, #28]
 232 0048 FFF7FEFF 		bl	free
 233              	.LVL31:
 100:Source\azure_iot_sdk\iothub_client\src/iothub_message.c ****     free(handleData->inputName);
 234              		.loc 1 100 0
 235 004c 206A     		ldr	r0, [r4, #32]
 236 004e FFF7FEFF 		bl	free
ARM GAS  C:\Users\Phuong\AppData\Local\Temp\cc4zbCpa.s 			page 7


 237              	.LVL32:
 101:Source\azure_iot_sdk\iothub_client\src/iothub_message.c ****     free(handleData->connectionModuleId);
 238              		.loc 1 101 0
 239 0052 606A     		ldr	r0, [r4, #36]
 240 0054 FFF7FEFF 		bl	free
 241              	.LVL33:
 102:Source\azure_iot_sdk\iothub_client\src/iothub_message.c ****     free(handleData->connectionDeviceId);
 242              		.loc 1 102 0
 243 0058 A06A     		ldr	r0, [r4, #40]
 244 005a FFF7FEFF 		bl	free
 245              	.LVL34:
 103:Source\azure_iot_sdk\iothub_client\src/iothub_message.c ****     free(handleData);
 246              		.loc 1 103 0
 247 005e 2000     		movs	r0, r4
 248 0060 FFF7FEFF 		bl	free
 249              	.LVL35:
 104:Source\azure_iot_sdk\iothub_client\src/iothub_message.c **** }
 250              		.loc 1 104 0
 251              		@ sp needed
 252              	.LVL36:
 253 0064 70BD     		pop	{r4, r5, r6, pc}
 254              		.cfi_endproc
 255              	.LFE8:
 256              		.size	DestroyMessageData, .-DestroyMessageData
 257 0066 C046     		.section	.text.CloneDiagnosticPropertyData,"ax",%progbits
 258              		.align	2
 259              		.code	16
 260              		.thumb_func
 261              		.type	CloneDiagnosticPropertyData, %function
 262              	CloneDiagnosticPropertyData:
 263              	.LFB9:
 105:Source\azure_iot_sdk\iothub_client\src/iothub_message.c **** 
 106:Source\azure_iot_sdk\iothub_client\src/iothub_message.c **** static IOTHUB_MESSAGE_DIAGNOSTIC_PROPERTY_DATA_HANDLE CloneDiagnosticPropertyData(const IOTHUB_MESS
 107:Source\azure_iot_sdk\iothub_client\src/iothub_message.c **** {
 264              		.loc 1 107 0
 265              		.cfi_startproc
 266              		@ args = 0, pretend = 0, frame = 0
 267              		@ frame_needed = 0, uses_anonymous_args = 0
 268              	.LVL37:
 269 0000 30B5     		push	{r4, r5, lr}
 270              		.cfi_def_cfa_offset 12
 271              		.cfi_offset 4, -12
 272              		.cfi_offset 5, -8
 273              		.cfi_offset 14, -4
 274 0002 83B0     		sub	sp, sp, #12
 275              		.cfi_def_cfa_offset 24
 276 0004 051E     		subs	r5, r0, #0
 277              	.LVL38:
 108:Source\azure_iot_sdk\iothub_client\src/iothub_message.c ****     IOTHUB_MESSAGE_DIAGNOSTIC_PROPERTY_DATA_HANDLE result = NULL;
 109:Source\azure_iot_sdk\iothub_client\src/iothub_message.c ****     if (source == NULL)
 278              		.loc 1 109 0
 279 0006 0ED1     		bne	.L17
 280              	.LBB2:
 110:Source\azure_iot_sdk\iothub_client\src/iothub_message.c ****     {
 111:Source\azure_iot_sdk\iothub_client\src/iothub_message.c ****         LogError("Invalid argument - source is NULL");
 281              		.loc 1 111 0 discriminator 3
 282 0008 FFF7FEFF 		bl	xlogging_get_log_function
ARM GAS  C:\Users\Phuong\AppData\Local\Temp\cc4zbCpa.s 			page 8


 283              	.LVL39:
 284 000c 041E     		subs	r4, r0, #0
 285              	.LVL40:
 286 000e 57D0     		beq	.L23
 287              		.loc 1 111 0 is_stmt 0 discriminator 4
 288 0010 2D4B     		ldr	r3, .L24
 289 0012 0193     		str	r3, [sp, #4]
 290 0014 0123     		movs	r3, #1
 291 0016 0093     		str	r3, [sp]
 292 0018 6E33     		adds	r3, r3, #110
 293 001a 2C4A     		ldr	r2, .L24+4
 294 001c 2C49     		ldr	r1, .L24+8
 295 001e 0020     		movs	r0, #0
 296              	.LVL41:
 297 0020 A047     		blx	r4
 298              	.LVL42:
 299              	.LBE2:
 108:Source\azure_iot_sdk\iothub_client\src/iothub_message.c ****     IOTHUB_MESSAGE_DIAGNOSTIC_PROPERTY_DATA_HANDLE result = NULL;
 300              		.loc 1 108 0 is_stmt 1 discriminator 4
 301 0022 0024     		movs	r4, #0
 302              	.LVL43:
 303 0024 4DE0     		b	.L18
 304              	.LVL44:
 305              	.L17:
 112:Source\azure_iot_sdk\iothub_client\src/iothub_message.c ****     }
 113:Source\azure_iot_sdk\iothub_client\src/iothub_message.c ****     else
 114:Source\azure_iot_sdk\iothub_client\src/iothub_message.c ****     {
 115:Source\azure_iot_sdk\iothub_client\src/iothub_message.c ****         result = (IOTHUB_MESSAGE_DIAGNOSTIC_PROPERTY_DATA_HANDLE)malloc(sizeof(IOTHUB_MESSAGE_DIAGN
 306              		.loc 1 115 0
 307 0026 0820     		movs	r0, #8
 308              	.LVL45:
 309 0028 FFF7FEFF 		bl	malloc
 310              	.LVL46:
 311 002c 041E     		subs	r4, r0, #0
 312              	.LVL47:
 116:Source\azure_iot_sdk\iothub_client\src/iothub_message.c ****         if (result == NULL)
 313              		.loc 1 116 0
 314 002e 0DD1     		bne	.L19
 315              	.LBB3:
 117:Source\azure_iot_sdk\iothub_client\src/iothub_message.c ****         {
 118:Source\azure_iot_sdk\iothub_client\src/iothub_message.c ****             LogError("malloc failed");
 316              		.loc 1 118 0 discriminator 3
 317 0030 FFF7FEFF 		bl	xlogging_get_log_function
 318              	.LVL48:
 319 0034 051E     		subs	r5, r0, #0
 320              	.LVL49:
 321 0036 44D0     		beq	.L18
 322              		.loc 1 118 0 is_stmt 0 discriminator 4
 323 0038 264B     		ldr	r3, .L24+12
 324 003a 0193     		str	r3, [sp, #4]
 325 003c 0123     		movs	r3, #1
 326 003e 0093     		str	r3, [sp]
 327 0040 7533     		adds	r3, r3, #117
 328 0042 224A     		ldr	r2, .L24+4
 329 0044 2249     		ldr	r1, .L24+8
 330 0046 0020     		movs	r0, #0
 331              	.LVL50:
ARM GAS  C:\Users\Phuong\AppData\Local\Temp\cc4zbCpa.s 			page 9


 332 0048 A847     		blx	r5
 333              	.LVL51:
 334 004a 3AE0     		b	.L18
 335              	.LVL52:
 336              	.L19:
 337              	.LBE3:
 119:Source\azure_iot_sdk\iothub_client\src/iothub_message.c ****         }
 120:Source\azure_iot_sdk\iothub_client\src/iothub_message.c ****         else
 121:Source\azure_iot_sdk\iothub_client\src/iothub_message.c ****         {
 122:Source\azure_iot_sdk\iothub_client\src/iothub_message.c ****             result->diagnosticCreationTimeUtc = NULL;
 338              		.loc 1 122 0 is_stmt 1
 339 004c 0023     		movs	r3, #0
 340 004e 4360     		str	r3, [r0, #4]
 123:Source\azure_iot_sdk\iothub_client\src/iothub_message.c ****             result->diagnosticId = NULL;
 341              		.loc 1 123 0
 342 0050 0360     		str	r3, [r0]
 124:Source\azure_iot_sdk\iothub_client\src/iothub_message.c ****             if (source->diagnosticCreationTimeUtc != NULL && mallocAndStrcpy_s(&result->diagnosticC
 343              		.loc 1 124 0
 344 0052 6968     		ldr	r1, [r5, #4]
 345 0054 0029     		cmp	r1, #0
 346 0056 16D0     		beq	.L20
 347              		.loc 1 124 0 is_stmt 0 discriminator 1
 348 0058 0430     		adds	r0, r0, #4
 349              	.LVL53:
 350 005a FFF7FEFF 		bl	mallocAndStrcpy_s
 351              	.LVL54:
 352 005e 0028     		cmp	r0, #0
 353 0060 11D0     		beq	.L20
 354              	.LBB4:
 125:Source\azure_iot_sdk\iothub_client\src/iothub_message.c ****             {
 126:Source\azure_iot_sdk\iothub_client\src/iothub_message.c ****                 LogError("mallocAndStrcpy_s for diagnosticCreationTimeUtc failed");
 355              		.loc 1 126 0 is_stmt 1 discriminator 3
 356 0062 FFF7FEFF 		bl	xlogging_get_log_function
 357              	.LVL55:
 358 0066 051E     		subs	r5, r0, #0
 359              	.LVL56:
 360 0068 08D0     		beq	.L21
 361              		.loc 1 126 0 is_stmt 0 discriminator 4
 362 006a 1B4B     		ldr	r3, .L24+16
 363 006c 0193     		str	r3, [sp, #4]
 364 006e 0123     		movs	r3, #1
 365 0070 0093     		str	r3, [sp]
 366 0072 7D33     		adds	r3, r3, #125
 367 0074 154A     		ldr	r2, .L24+4
 368 0076 1649     		ldr	r1, .L24+8
 369 0078 0020     		movs	r0, #0
 370              	.LVL57:
 371 007a A847     		blx	r5
 372              	.LVL58:
 373              	.L21:
 374              	.LBE4:
 127:Source\azure_iot_sdk\iothub_client\src/iothub_message.c ****                 free(result);
 375              		.loc 1 127 0 is_stmt 1
 376 007c 2000     		movs	r0, r4
 377 007e FFF7FEFF 		bl	free
 378              	.LVL59:
 128:Source\azure_iot_sdk\iothub_client\src/iothub_message.c ****                 result = NULL;
ARM GAS  C:\Users\Phuong\AppData\Local\Temp\cc4zbCpa.s 			page 10


 379              		.loc 1 128 0
 380 0082 0024     		movs	r4, #0
 381 0084 1DE0     		b	.L18
 382              	.LVL60:
 383              	.L20:
 129:Source\azure_iot_sdk\iothub_client\src/iothub_message.c ****             }
 130:Source\azure_iot_sdk\iothub_client\src/iothub_message.c ****             else if (source->diagnosticId != NULL && mallocAndStrcpy_s(&result->diagnosticId, sourc
 384              		.loc 1 130 0
 385 0086 2968     		ldr	r1, [r5]
 386 0088 0029     		cmp	r1, #0
 387 008a 1AD0     		beq	.L18
 388              		.loc 1 130 0 is_stmt 0 discriminator 1
 389 008c 2000     		movs	r0, r4
 390 008e FFF7FEFF 		bl	mallocAndStrcpy_s
 391              	.LVL61:
 392 0092 0028     		cmp	r0, #0
 393 0094 15D0     		beq	.L18
 394              	.LBB5:
 131:Source\azure_iot_sdk\iothub_client\src/iothub_message.c ****             {
 132:Source\azure_iot_sdk\iothub_client\src/iothub_message.c ****                 LogError("mallocAndStrcpy_s for diagnosticId failed");
 395              		.loc 1 132 0 is_stmt 1 discriminator 3
 396 0096 FFF7FEFF 		bl	xlogging_get_log_function
 397              	.LVL62:
 398 009a 051E     		subs	r5, r0, #0
 399              	.LVL63:
 400 009c 08D0     		beq	.L22
 401              		.loc 1 132 0 is_stmt 0 discriminator 4
 402 009e 0F4B     		ldr	r3, .L24+20
 403 00a0 0193     		str	r3, [sp, #4]
 404 00a2 0123     		movs	r3, #1
 405 00a4 0093     		str	r3, [sp]
 406 00a6 8333     		adds	r3, r3, #131
 407 00a8 084A     		ldr	r2, .L24+4
 408 00aa 0949     		ldr	r1, .L24+8
 409 00ac 0020     		movs	r0, #0
 410              	.LVL64:
 411 00ae A847     		blx	r5
 412              	.LVL65:
 413              	.L22:
 414              	.LBE5:
 133:Source\azure_iot_sdk\iothub_client\src/iothub_message.c ****                 free(result->diagnosticCreationTimeUtc);
 415              		.loc 1 133 0 is_stmt 1
 416 00b0 6068     		ldr	r0, [r4, #4]
 417 00b2 FFF7FEFF 		bl	free
 418              	.LVL66:
 134:Source\azure_iot_sdk\iothub_client\src/iothub_message.c ****                 free(result);
 419              		.loc 1 134 0
 420 00b6 2000     		movs	r0, r4
 421 00b8 FFF7FEFF 		bl	free
 422              	.LVL67:
 135:Source\azure_iot_sdk\iothub_client\src/iothub_message.c ****                 result = NULL;
 423              		.loc 1 135 0
 424 00bc 0024     		movs	r4, #0
 425 00be 00E0     		b	.L18
 426              	.LVL68:
 427              	.L23:
 108:Source\azure_iot_sdk\iothub_client\src/iothub_message.c ****     if (source == NULL)
ARM GAS  C:\Users\Phuong\AppData\Local\Temp\cc4zbCpa.s 			page 11


 428              		.loc 1 108 0
 429 00c0 0024     		movs	r4, #0
 430              	.LVL69:
 431              	.L18:
 136:Source\azure_iot_sdk\iothub_client\src/iothub_message.c ****             }
 137:Source\azure_iot_sdk\iothub_client\src/iothub_message.c ****         }
 138:Source\azure_iot_sdk\iothub_client\src/iothub_message.c ****     }
 139:Source\azure_iot_sdk\iothub_client\src/iothub_message.c ****     return result;
 140:Source\azure_iot_sdk\iothub_client\src/iothub_message.c **** }
 432              		.loc 1 140 0
 433 00c2 2000     		movs	r0, r4
 434 00c4 03B0     		add	sp, sp, #12
 435              		@ sp needed
 436              	.LVL70:
 437 00c6 30BD     		pop	{r4, r5, pc}
 438              	.L25:
 439              		.align	2
 440              	.L24:
 441 00c8 38000000 		.word	.LC3
 442 00cc 00000000 		.word	.LANCHOR0
 443 00d0 00000000 		.word	.LC1
 444 00d4 5C000000 		.word	.LC5
 445 00d8 6C000000 		.word	.LC7
 446 00dc A4000000 		.word	.LC9
 447              		.cfi_endproc
 448              	.LFE9:
 449              		.size	CloneDiagnosticPropertyData, .-CloneDiagnosticPropertyData
 450              		.section	.text.IOTHUB_MESSAGE_RESULTStrings,"ax",%progbits
 451              		.align	2
 452              		.global	IOTHUB_MESSAGE_RESULTStrings
 453              		.code	16
 454              		.thumb_func
 455              		.type	IOTHUB_MESSAGE_RESULTStrings, %function
 456              	IOTHUB_MESSAGE_RESULTStrings:
 457              	.LFB1:
  12:Source\azure_iot_sdk\iothub_client\src/iothub_message.c **** DEFINE_ENUM_STRINGS(IOTHUBMESSAGE_CONTENT_TYPE, IOTHUBMESSAGE_CONTENT_TYPE_VALUES);
 458              		.loc 1 12 0
 459              		.cfi_startproc
 460              		@ args = 0, pretend = 0, frame = 0
 461              		@ frame_needed = 0, uses_anonymous_args = 0
 462              		@ link register save eliminated.
 463              	.LVL71:
  12:Source\azure_iot_sdk\iothub_client\src/iothub_message.c **** DEFINE_ENUM_STRINGS(IOTHUBMESSAGE_CONTENT_TYPE, IOTHUBMESSAGE_CONTENT_TYPE_VALUES);
 464              		.loc 1 12 0
 465 0000 0328     		cmp	r0, #3
 466 0002 03D8     		bhi	.L28
  12:Source\azure_iot_sdk\iothub_client\src/iothub_message.c **** DEFINE_ENUM_STRINGS(IOTHUBMESSAGE_CONTENT_TYPE, IOTHUBMESSAGE_CONTENT_TYPE_VALUES);
 467              		.loc 1 12 0 is_stmt 0 discriminator 2
 468 0004 8000     		lsls	r0, r0, #2
 469              	.LVL72:
 470 0006 024B     		ldr	r3, .L29
 471 0008 C058     		ldr	r0, [r0, r3]
 472 000a 00E0     		b	.L27
 473              	.LVL73:
 474              	.L28:
  12:Source\azure_iot_sdk\iothub_client\src/iothub_message.c **** DEFINE_ENUM_STRINGS(IOTHUBMESSAGE_CONTENT_TYPE, IOTHUBMESSAGE_CONTENT_TYPE_VALUES);
 475              		.loc 1 12 0
ARM GAS  C:\Users\Phuong\AppData\Local\Temp\cc4zbCpa.s 			page 12


 476 000c 0020     		movs	r0, #0
 477              	.LVL74:
 478              	.L27:
 479              		@ sp needed
 480 000e 7047     		bx	lr
 481              	.L30:
 482              		.align	2
 483              	.L29:
 484 0010 00000000 		.word	.LANCHOR1
 485              		.cfi_endproc
 486              	.LFE1:
 487              		.size	IOTHUB_MESSAGE_RESULTStrings, .-IOTHUB_MESSAGE_RESULTStrings
 488              		.section	.text.IOTHUB_MESSAGE_RESULT_FromString,"ax",%progbits
 489              		.align	2
 490              		.global	IOTHUB_MESSAGE_RESULT_FromString
 491              		.code	16
 492              		.thumb_func
 493              		.type	IOTHUB_MESSAGE_RESULT_FromString, %function
 494              	IOTHUB_MESSAGE_RESULT_FromString:
 495              	.LFB2:
  12:Source\azure_iot_sdk\iothub_client\src/iothub_message.c **** DEFINE_ENUM_STRINGS(IOTHUBMESSAGE_CONTENT_TYPE, IOTHUBMESSAGE_CONTENT_TYPE_VALUES);
 496              		.loc 1 12 0 is_stmt 1
 497              		.cfi_startproc
 498              		@ args = 0, pretend = 0, frame = 0
 499              		@ frame_needed = 0, uses_anonymous_args = 0
 500              	.LVL75:
 501 0000 70B5     		push	{r4, r5, r6, lr}
 502              		.cfi_def_cfa_offset 16
 503              		.cfi_offset 4, -16
 504              		.cfi_offset 5, -12
 505              		.cfi_offset 6, -8
 506              		.cfi_offset 14, -4
 507 0002 0500     		movs	r5, r0
 508 0004 0E00     		movs	r6, r1
  12:Source\azure_iot_sdk\iothub_client\src/iothub_message.c **** DEFINE_ENUM_STRINGS(IOTHUBMESSAGE_CONTENT_TYPE, IOTHUBMESSAGE_CONTENT_TYPE_VALUES);
 509              		.loc 1 12 0
 510 0006 0028     		cmp	r0, #0
 511 0008 12D0     		beq	.L36
  12:Source\azure_iot_sdk\iothub_client\src/iothub_message.c **** DEFINE_ENUM_STRINGS(IOTHUBMESSAGE_CONTENT_TYPE, IOTHUBMESSAGE_CONTENT_TYPE_VALUES);
 512              		.loc 1 12 0 is_stmt 0 discriminator 2
 513 000a 0029     		cmp	r1, #0
 514 000c 12D0     		beq	.L37
 515 000e 0024     		movs	r4, #0
 516 0010 0AE0     		b	.L33
 517              	.LVL76:
 518              	.L35:
 519              	.LBB6:
  12:Source\azure_iot_sdk\iothub_client\src/iothub_message.c **** DEFINE_ENUM_STRINGS(IOTHUBMESSAGE_CONTENT_TYPE, IOTHUBMESSAGE_CONTENT_TYPE_VALUES);
 520              		.loc 1 12 0 discriminator 9
 521 0012 A300     		lsls	r3, r4, #2
 522 0014 084A     		ldr	r2, .L38
 523 0016 9958     		ldr	r1, [r3, r2]
 524 0018 2800     		movs	r0, r5
 525 001a FFF7FEFF 		bl	strcmp
 526              	.LVL77:
 527 001e 0028     		cmp	r0, #0
 528 0020 01D1     		bne	.L34
ARM GAS  C:\Users\Phuong\AppData\Local\Temp\cc4zbCpa.s 			page 13


  12:Source\azure_iot_sdk\iothub_client\src/iothub_message.c **** DEFINE_ENUM_STRINGS(IOTHUBMESSAGE_CONTENT_TYPE, IOTHUBMESSAGE_CONTENT_TYPE_VALUES);
 529              		.loc 1 12 0 discriminator 6
 530 0022 3470     		strb	r4, [r6]
 531 0024 07E0     		b	.L32
 532              	.L34:
  12:Source\azure_iot_sdk\iothub_client\src/iothub_message.c **** DEFINE_ENUM_STRINGS(IOTHUBMESSAGE_CONTENT_TYPE, IOTHUBMESSAGE_CONTENT_TYPE_VALUES);
 533              		.loc 1 12 0 discriminator 7
 534 0026 0134     		adds	r4, r4, #1
 535              	.LVL78:
 536              	.L33:
  12:Source\azure_iot_sdk\iothub_client\src/iothub_message.c **** DEFINE_ENUM_STRINGS(IOTHUBMESSAGE_CONTENT_TYPE, IOTHUBMESSAGE_CONTENT_TYPE_VALUES);
 537              		.loc 1 12 0 discriminator 8
 538 0028 032C     		cmp	r4, #3
 539 002a F2D9     		bls	.L35
  12:Source\azure_iot_sdk\iothub_client\src/iothub_message.c **** DEFINE_ENUM_STRINGS(IOTHUBMESSAGE_CONTENT_TYPE, IOTHUBMESSAGE_CONTENT_TYPE_VALUES);
 540              		.loc 1 12 0
 541 002c 0C20     		movs	r0, #12
 542 002e 02E0     		b	.L32
 543              	.LVL79:
 544              	.L36:
 545              	.LBE6:
 546 0030 0C20     		movs	r0, #12
 547              	.LVL80:
 548 0032 00E0     		b	.L32
 549              	.LVL81:
 550              	.L37:
 551 0034 0C20     		movs	r0, #12
 552              	.LVL82:
 553              	.L32:
 554              		@ sp needed
 555              	.LVL83:
 556              	.LVL84:
 557 0036 70BD     		pop	{r4, r5, r6, pc}
 558              	.L39:
 559              		.align	2
 560              	.L38:
 561 0038 00000000 		.word	.LANCHOR1
 562              		.cfi_endproc
 563              	.LFE2:
 564              		.size	IOTHUB_MESSAGE_RESULT_FromString, .-IOTHUB_MESSAGE_RESULT_FromString
 565              		.section	.text.IOTHUBMESSAGE_CONTENT_TYPEStrings,"ax",%progbits
 566              		.align	2
 567              		.global	IOTHUBMESSAGE_CONTENT_TYPEStrings
 568              		.code	16
 569              		.thumb_func
 570              		.type	IOTHUBMESSAGE_CONTENT_TYPEStrings, %function
 571              	IOTHUBMESSAGE_CONTENT_TYPEStrings:
 572              	.LFB3:
  13:Source\azure_iot_sdk\iothub_client\src/iothub_message.c **** 
 573              		.loc 1 13 0 is_stmt 1
 574              		.cfi_startproc
 575              		@ args = 0, pretend = 0, frame = 0
 576              		@ frame_needed = 0, uses_anonymous_args = 0
 577              		@ link register save eliminated.
 578              	.LVL85:
  13:Source\azure_iot_sdk\iothub_client\src/iothub_message.c **** 
 579              		.loc 1 13 0
ARM GAS  C:\Users\Phuong\AppData\Local\Temp\cc4zbCpa.s 			page 14


 580 0000 0228     		cmp	r0, #2
 581 0002 04D8     		bhi	.L42
  13:Source\azure_iot_sdk\iothub_client\src/iothub_message.c **** 
 582              		.loc 1 13 0 is_stmt 0 discriminator 2
 583 0004 8000     		lsls	r0, r0, #2
 584              	.LVL86:
 585 0006 034B     		ldr	r3, .L43
 586 0008 1818     		adds	r0, r3, r0
 587 000a 0069     		ldr	r0, [r0, #16]
 588 000c 00E0     		b	.L41
 589              	.LVL87:
 590              	.L42:
  13:Source\azure_iot_sdk\iothub_client\src/iothub_message.c **** 
 591              		.loc 1 13 0
 592 000e 0020     		movs	r0, #0
 593              	.LVL88:
 594              	.L41:
 595              		@ sp needed
 596 0010 7047     		bx	lr
 597              	.L44:
 598 0012 C046     		.align	2
 599              	.L43:
 600 0014 00000000 		.word	.LANCHOR1
 601              		.cfi_endproc
 602              	.LFE3:
 603              		.size	IOTHUBMESSAGE_CONTENT_TYPEStrings, .-IOTHUBMESSAGE_CONTENT_TYPEStrings
 604              		.section	.text.IOTHUBMESSAGE_CONTENT_TYPE_FromString,"ax",%progbits
 605              		.align	2
 606              		.global	IOTHUBMESSAGE_CONTENT_TYPE_FromString
 607              		.code	16
 608              		.thumb_func
 609              		.type	IOTHUBMESSAGE_CONTENT_TYPE_FromString, %function
 610              	IOTHUBMESSAGE_CONTENT_TYPE_FromString:
 611              	.LFB4:
  13:Source\azure_iot_sdk\iothub_client\src/iothub_message.c **** 
 612              		.loc 1 13 0 is_stmt 1
 613              		.cfi_startproc
 614              		@ args = 0, pretend = 0, frame = 0
 615              		@ frame_needed = 0, uses_anonymous_args = 0
 616              	.LVL89:
 617 0000 70B5     		push	{r4, r5, r6, lr}
 618              		.cfi_def_cfa_offset 16
 619              		.cfi_offset 4, -16
 620              		.cfi_offset 5, -12
 621              		.cfi_offset 6, -8
 622              		.cfi_offset 14, -4
 623 0002 0400     		movs	r4, r0
 624 0004 0E00     		movs	r6, r1
  13:Source\azure_iot_sdk\iothub_client\src/iothub_message.c **** 
 625              		.loc 1 13 0
 626 0006 0028     		cmp	r0, #0
 627 0008 13D0     		beq	.L50
  13:Source\azure_iot_sdk\iothub_client\src/iothub_message.c **** 
 628              		.loc 1 13 0 is_stmt 0 discriminator 2
 629 000a 0029     		cmp	r1, #0
 630 000c 13D0     		beq	.L51
 631 000e 0025     		movs	r5, #0
ARM GAS  C:\Users\Phuong\AppData\Local\Temp\cc4zbCpa.s 			page 15


 632 0010 0BE0     		b	.L47
 633              	.LVL90:
 634              	.L49:
 635              	.LBB7:
  13:Source\azure_iot_sdk\iothub_client\src/iothub_message.c **** 
 636              		.loc 1 13 0 discriminator 9
 637 0012 AB00     		lsls	r3, r5, #2
 638 0014 094A     		ldr	r2, .L52
 639 0016 D318     		adds	r3, r2, r3
 640 0018 1969     		ldr	r1, [r3, #16]
 641 001a 2000     		movs	r0, r4
 642 001c FFF7FEFF 		bl	strcmp
 643              	.LVL91:
 644 0020 0028     		cmp	r0, #0
 645 0022 01D1     		bne	.L48
  13:Source\azure_iot_sdk\iothub_client\src/iothub_message.c **** 
 646              		.loc 1 13 0 discriminator 6
 647 0024 3570     		strb	r5, [r6]
 648 0026 07E0     		b	.L46
 649              	.L48:
  13:Source\azure_iot_sdk\iothub_client\src/iothub_message.c **** 
 650              		.loc 1 13 0 discriminator 7
 651 0028 0135     		adds	r5, r5, #1
 652              	.LVL92:
 653              	.L47:
  13:Source\azure_iot_sdk\iothub_client\src/iothub_message.c **** 
 654              		.loc 1 13 0 discriminator 8
 655 002a 022D     		cmp	r5, #2
 656 002c F1D9     		bls	.L49
  13:Source\azure_iot_sdk\iothub_client\src/iothub_message.c **** 
 657              		.loc 1 13 0
 658 002e 0D20     		movs	r0, #13
 659 0030 02E0     		b	.L46
 660              	.LVL93:
 661              	.L50:
 662              	.LBE7:
 663 0032 0D20     		movs	r0, #13
 664              	.LVL94:
 665 0034 00E0     		b	.L46
 666              	.LVL95:
 667              	.L51:
 668 0036 0D20     		movs	r0, #13
 669              	.LVL96:
 670              	.L46:
 671              		@ sp needed
 672              	.LVL97:
 673              	.LVL98:
 674 0038 70BD     		pop	{r4, r5, r6, pc}
 675              	.L53:
 676 003a C046     		.align	2
 677              	.L52:
 678 003c 00000000 		.word	.LANCHOR1
 679              		.cfi_endproc
 680              	.LFE4:
 681              		.size	IOTHUBMESSAGE_CONTENT_TYPE_FromString, .-IOTHUBMESSAGE_CONTENT_TYPE_FromString
 682              		.section	.text.IoTHubMessage_CreateFromByteArray,"ax",%progbits
 683              		.align	2
ARM GAS  C:\Users\Phuong\AppData\Local\Temp\cc4zbCpa.s 			page 16


 684              		.global	IoTHubMessage_CreateFromByteArray
 685              		.code	16
 686              		.thumb_func
 687              		.type	IoTHubMessage_CreateFromByteArray, %function
 688              	IoTHubMessage_CreateFromByteArray:
 689              	.LFB10:
 141:Source\azure_iot_sdk\iothub_client\src/iothub_message.c **** 
 142:Source\azure_iot_sdk\iothub_client\src/iothub_message.c **** IOTHUB_MESSAGE_HANDLE IoTHubMessage_CreateFromByteArray(const unsigned char* byteArray, size_t size
 143:Source\azure_iot_sdk\iothub_client\src/iothub_message.c **** {
 690              		.loc 1 143 0 is_stmt 1
 691              		.cfi_startproc
 692              		@ args = 0, pretend = 0, frame = 8
 693              		@ frame_needed = 0, uses_anonymous_args = 0
 694              	.LVL99:
 695 0000 F0B5     		push	{r4, r5, r6, r7, lr}
 696              		.cfi_def_cfa_offset 20
 697              		.cfi_offset 4, -20
 698              		.cfi_offset 5, -16
 699              		.cfi_offset 6, -12
 700              		.cfi_offset 7, -8
 701              		.cfi_offset 14, -4
 702 0002 85B0     		sub	sp, sp, #20
 703              		.cfi_def_cfa_offset 40
 704 0004 0500     		movs	r5, r0
 705 0006 0E00     		movs	r6, r1
 144:Source\azure_iot_sdk\iothub_client\src/iothub_message.c ****     IOTHUB_MESSAGE_HANDLE_DATA* result;
 145:Source\azure_iot_sdk\iothub_client\src/iothub_message.c ****     if ((byteArray == NULL) && (size != 0))
 706              		.loc 1 145 0
 707 0008 0028     		cmp	r0, #0
 708 000a 11D1     		bne	.L55
 709              		.loc 1 145 0 is_stmt 0 discriminator 1
 710 000c 0029     		cmp	r1, #0
 711 000e 0FD0     		beq	.L55
 712              	.LBB8:
 146:Source\azure_iot_sdk\iothub_client\src/iothub_message.c ****     {
 147:Source\azure_iot_sdk\iothub_client\src/iothub_message.c ****         LogError("Invalid argument - byteArray is NULL");
 713              		.loc 1 147 0 is_stmt 1 discriminator 3
 714 0010 FFF7FEFF 		bl	xlogging_get_log_function
 715              	.LVL100:
 716 0014 041E     		subs	r4, r0, #0
 717              	.LVL101:
 718 0016 76D0     		beq	.L64
 719              		.loc 1 147 0 is_stmt 0 discriminator 4
 720 0018 3D4B     		ldr	r3, .L66
 721 001a 0193     		str	r3, [sp, #4]
 722 001c 0123     		movs	r3, #1
 723 001e 0093     		str	r3, [sp]
 724 0020 9233     		adds	r3, r3, #146
 725 0022 3C4A     		ldr	r2, .L66+4
 726 0024 1C32     		adds	r2, r2, #28
 727 0026 3C49     		ldr	r1, .L66+8
 728 0028 0020     		movs	r0, #0
 729              	.LVL102:
 730 002a A047     		blx	r4
 731              	.LVL103:
 732              	.LBE8:
 148:Source\azure_iot_sdk\iothub_client\src/iothub_message.c ****         result = NULL;
ARM GAS  C:\Users\Phuong\AppData\Local\Temp\cc4zbCpa.s 			page 17


 733              		.loc 1 148 0 is_stmt 1 discriminator 4
 734 002c 0024     		movs	r4, #0
 735              	.LVL104:
 736 002e 6BE0     		b	.L56
 737              	.LVL105:
 738              	.L55:
 149:Source\azure_iot_sdk\iothub_client\src/iothub_message.c ****     }
 150:Source\azure_iot_sdk\iothub_client\src/iothub_message.c ****     else
 151:Source\azure_iot_sdk\iothub_client\src/iothub_message.c ****     {
 152:Source\azure_iot_sdk\iothub_client\src/iothub_message.c ****         result = (IOTHUB_MESSAGE_HANDLE_DATA*)malloc(sizeof(IOTHUB_MESSAGE_HANDLE_DATA));
 739              		.loc 1 152 0
 740 0030 3020     		movs	r0, #48
 741              	.LVL106:
 742 0032 FFF7FEFF 		bl	malloc
 743              	.LVL107:
 744 0036 041E     		subs	r4, r0, #0
 745              	.LVL108:
 153:Source\azure_iot_sdk\iothub_client\src/iothub_message.c ****         if (result == NULL)
 746              		.loc 1 153 0
 747 0038 0ED1     		bne	.L57
 748              	.LBB9:
 154:Source\azure_iot_sdk\iothub_client\src/iothub_message.c ****         {
 155:Source\azure_iot_sdk\iothub_client\src/iothub_message.c ****             LogError("unable to malloc");
 749              		.loc 1 155 0 discriminator 3
 750 003a FFF7FEFF 		bl	xlogging_get_log_function
 751              	.LVL109:
 752 003e 051E     		subs	r5, r0, #0
 753              	.LVL110:
 754 0040 62D0     		beq	.L56
 755              		.loc 1 155 0 is_stmt 0 discriminator 4
 756 0042 364B     		ldr	r3, .L66+12
 757 0044 0193     		str	r3, [sp, #4]
 758 0046 0123     		movs	r3, #1
 759 0048 0093     		str	r3, [sp]
 760 004a 9A33     		adds	r3, r3, #154
 761 004c 314A     		ldr	r2, .L66+4
 762 004e 1C32     		adds	r2, r2, #28
 763 0050 3149     		ldr	r1, .L66+8
 764 0052 0020     		movs	r0, #0
 765              	.LVL111:
 766 0054 A847     		blx	r5
 767              	.LVL112:
 768 0056 57E0     		b	.L56
 769              	.LVL113:
 770              	.L57:
 771              	.LBE9:
 772              	.LBB10:
 156:Source\azure_iot_sdk\iothub_client\src/iothub_message.c ****             /*Codes_SRS_IOTHUBMESSAGE_02_024: [If there are any errors then IoTHubMessage_CreateFro
 157:Source\azure_iot_sdk\iothub_client\src/iothub_message.c ****             /*let it go through*/
 158:Source\azure_iot_sdk\iothub_client\src/iothub_message.c ****         }
 159:Source\azure_iot_sdk\iothub_client\src/iothub_message.c ****         else
 160:Source\azure_iot_sdk\iothub_client\src/iothub_message.c ****         {
 161:Source\azure_iot_sdk\iothub_client\src/iothub_message.c ****             const unsigned char* source;
 162:Source\azure_iot_sdk\iothub_client\src/iothub_message.c ****             unsigned char temp = 0x00;
 773              		.loc 1 162 0 is_stmt 1
 774 0058 0027     		movs	r7, #0
 775 005a 0F23     		movs	r3, #15
ARM GAS  C:\Users\Phuong\AppData\Local\Temp\cc4zbCpa.s 			page 18


 776 005c 6B44     		add	r3, r3, sp
 777 005e 1F70     		strb	r7, [r3]
 163:Source\azure_iot_sdk\iothub_client\src/iothub_message.c **** 
 164:Source\azure_iot_sdk\iothub_client\src/iothub_message.c ****             memset(result, 0, sizeof(*result));
 778              		.loc 1 164 0
 779 0060 3022     		movs	r2, #48
 780 0062 0021     		movs	r1, #0
 781 0064 FFF7FEFF 		bl	memset
 782              	.LVL114:
 165:Source\azure_iot_sdk\iothub_client\src/iothub_message.c ****             /*Codes_SRS_IOTHUBMESSAGE_02_026: [The type of the new message shall be IOTHUBMESSAGE_B
 166:Source\azure_iot_sdk\iothub_client\src/iothub_message.c ****             result->contentType = IOTHUBMESSAGE_BYTEARRAY;
 783              		.loc 1 166 0
 784 0068 2770     		strb	r7, [r4]
 167:Source\azure_iot_sdk\iothub_client\src/iothub_message.c **** 
 168:Source\azure_iot_sdk\iothub_client\src/iothub_message.c ****             if (size != 0)
 785              		.loc 1 168 0
 786 006a 002E     		cmp	r6, #0
 787 006c 14D0     		beq	.L65
 169:Source\azure_iot_sdk\iothub_client\src/iothub_message.c ****             {
 170:Source\azure_iot_sdk\iothub_client\src/iothub_message.c ****                 /*Codes_SRS_IOTHUBMESSAGE_06_002: [If size is NOT zero then byteArray MUST NOT be N
 171:Source\azure_iot_sdk\iothub_client\src/iothub_message.c ****                 if (byteArray == NULL)
 788              		.loc 1 171 0
 789 006e 002D     		cmp	r5, #0
 790 0070 14D1     		bne	.L58
 791              	.LBB11:
 172:Source\azure_iot_sdk\iothub_client\src/iothub_message.c ****                 {
 173:Source\azure_iot_sdk\iothub_client\src/iothub_message.c ****                     LogError("Attempted to create a Hub Message from a NULL pointer!");
 792              		.loc 1 173 0 discriminator 3
 793 0072 FFF7FEFF 		bl	xlogging_get_log_function
 794              	.LVL115:
 795 0076 071E     		subs	r7, r0, #0
 796              	.LVL116:
 797 0078 09D0     		beq	.L59
 798              		.loc 1 173 0 is_stmt 0 discriminator 4
 799 007a 294B     		ldr	r3, .L66+16
 800 007c 0193     		str	r3, [sp, #4]
 801 007e 0123     		movs	r3, #1
 802 0080 0093     		str	r3, [sp]
 803 0082 AC33     		adds	r3, r3, #172
 804 0084 234A     		ldr	r2, .L66+4
 805 0086 1C32     		adds	r2, r2, #28
 806 0088 2349     		ldr	r1, .L66+8
 807 008a 0020     		movs	r0, #0
 808              	.LVL117:
 809 008c B847     		blx	r7
 810              	.LVL118:
 811              	.L59:
 812              	.LBE11:
 174:Source\azure_iot_sdk\iothub_client\src/iothub_message.c ****                     DestroyMessageData(result);
 813              		.loc 1 174 0 is_stmt 1
 814 008e 2000     		movs	r0, r4
 815 0090 FFF7FEFF 		bl	DestroyMessageData
 816              	.LVL119:
 175:Source\azure_iot_sdk\iothub_client\src/iothub_message.c ****                     result = NULL;
 817              		.loc 1 175 0
 818 0094 0024     		movs	r4, #0
 819 0096 01E0     		b	.L58
ARM GAS  C:\Users\Phuong\AppData\Local\Temp\cc4zbCpa.s 			page 19


 820              	.LVL120:
 821              	.L65:
 176:Source\azure_iot_sdk\iothub_client\src/iothub_message.c ****                     source = NULL;
 177:Source\azure_iot_sdk\iothub_client\src/iothub_message.c ****                 }
 178:Source\azure_iot_sdk\iothub_client\src/iothub_message.c ****                 else
 179:Source\azure_iot_sdk\iothub_client\src/iothub_message.c ****                 {
 180:Source\azure_iot_sdk\iothub_client\src/iothub_message.c ****                     source = byteArray;
 181:Source\azure_iot_sdk\iothub_client\src/iothub_message.c ****                 }
 182:Source\azure_iot_sdk\iothub_client\src/iothub_message.c ****             }
 183:Source\azure_iot_sdk\iothub_client\src/iothub_message.c ****             else
 184:Source\azure_iot_sdk\iothub_client\src/iothub_message.c ****             {
 185:Source\azure_iot_sdk\iothub_client\src/iothub_message.c ****                 /*Codes_SRS_IOTHUBMESSAGE_06_001: [If size is zero then byteArray may be NULL.]*/
 186:Source\azure_iot_sdk\iothub_client\src/iothub_message.c ****                 source = &temp;
 822              		.loc 1 186 0
 823 0098 0F25     		movs	r5, #15
 824              	.LVL121:
 825 009a 6D44     		add	r5, r5, sp
 826              	.LVL122:
 827              	.L58:
 187:Source\azure_iot_sdk\iothub_client\src/iothub_message.c ****             }
 188:Source\azure_iot_sdk\iothub_client\src/iothub_message.c ****             if (result != NULL)
 828              		.loc 1 188 0
 829 009c 002C     		cmp	r4, #0
 830 009e 33D0     		beq	.L56
 189:Source\azure_iot_sdk\iothub_client\src/iothub_message.c ****             {
 190:Source\azure_iot_sdk\iothub_client\src/iothub_message.c ****                 /*Codes_SRS_IOTHUBMESSAGE_02_022: [IoTHubMessage_CreateFromByteArray shall call BUF
 191:Source\azure_iot_sdk\iothub_client\src/iothub_message.c ****                 if ((result->value.byteArray = BUFFER_create(source, size)) == NULL)
 831              		.loc 1 191 0
 832 00a0 3100     		movs	r1, r6
 833 00a2 2800     		movs	r0, r5
 834 00a4 FFF7FEFF 		bl	BUFFER_create
 835              	.LVL123:
 836 00a8 6060     		str	r0, [r4, #4]
 837 00aa 0028     		cmp	r0, #0
 838 00ac 12D1     		bne	.L61
 839              	.LBB12:
 192:Source\azure_iot_sdk\iothub_client\src/iothub_message.c ****                 {
 193:Source\azure_iot_sdk\iothub_client\src/iothub_message.c ****                     LogError("BUFFER_create failed");
 840              		.loc 1 193 0 discriminator 3
 841 00ae FFF7FEFF 		bl	xlogging_get_log_function
 842              	.LVL124:
 843 00b2 051E     		subs	r5, r0, #0
 844              	.LVL125:
 845 00b4 09D0     		beq	.L62
 846              		.loc 1 193 0 is_stmt 0 discriminator 4
 847 00b6 1B4B     		ldr	r3, .L66+20
 848 00b8 0193     		str	r3, [sp, #4]
 849 00ba 0123     		movs	r3, #1
 850 00bc 0093     		str	r3, [sp]
 851 00be C033     		adds	r3, r3, #192
 852 00c0 144A     		ldr	r2, .L66+4
 853 00c2 1C32     		adds	r2, r2, #28
 854 00c4 1449     		ldr	r1, .L66+8
 855 00c6 0020     		movs	r0, #0
 856              	.LVL126:
 857 00c8 A847     		blx	r5
 858              	.LVL127:
ARM GAS  C:\Users\Phuong\AppData\Local\Temp\cc4zbCpa.s 			page 20


 859              	.L62:
 860              	.LBE12:
 194:Source\azure_iot_sdk\iothub_client\src/iothub_message.c ****                     /*Codes_SRS_IOTHUBMESSAGE_02_024: [If there are any errors then IoTHubMessage_C
 195:Source\azure_iot_sdk\iothub_client\src/iothub_message.c ****                     DestroyMessageData(result);
 861              		.loc 1 195 0 is_stmt 1
 862 00ca 2000     		movs	r0, r4
 863 00cc FFF7FEFF 		bl	DestroyMessageData
 864              	.LVL128:
 196:Source\azure_iot_sdk\iothub_client\src/iothub_message.c ****                     result = NULL;
 865              		.loc 1 196 0
 866 00d0 0024     		movs	r4, #0
 867 00d2 19E0     		b	.L56
 868              	.LVL129:
 869              	.L61:
 197:Source\azure_iot_sdk\iothub_client\src/iothub_message.c ****                 }
 198:Source\azure_iot_sdk\iothub_client\src/iothub_message.c ****                 /*Codes_SRS_IOTHUBMESSAGE_02_023: [IoTHubMessage_CreateFromByteArray shall call Map
 199:Source\azure_iot_sdk\iothub_client\src/iothub_message.c ****                 else if ((result->properties = Map_Create(ValidateAsciiCharactersFilter)) == NULL)
 870              		.loc 1 199 0
 871 00d4 1448     		ldr	r0, .L66+24
 872 00d6 FFF7FEFF 		bl	Map_Create
 873              	.LVL130:
 874 00da A060     		str	r0, [r4, #8]
 875 00dc 0028     		cmp	r0, #0
 876 00de 13D1     		bne	.L56
 877              	.LBB13:
 200:Source\azure_iot_sdk\iothub_client\src/iothub_message.c ****                 {
 201:Source\azure_iot_sdk\iothub_client\src/iothub_message.c ****                     LogError("Map_Create for properties failed");
 878              		.loc 1 201 0 discriminator 3
 879 00e0 FFF7FEFF 		bl	xlogging_get_log_function
 880              	.LVL131:
 881 00e4 051E     		subs	r5, r0, #0
 882              	.LVL132:
 883 00e6 09D0     		beq	.L63
 884              		.loc 1 201 0 is_stmt 0 discriminator 4
 885 00e8 104B     		ldr	r3, .L66+28
 886 00ea 0193     		str	r3, [sp, #4]
 887 00ec 0123     		movs	r3, #1
 888 00ee 0093     		str	r3, [sp]
 889 00f0 C833     		adds	r3, r3, #200
 890 00f2 084A     		ldr	r2, .L66+4
 891 00f4 1C32     		adds	r2, r2, #28
 892 00f6 0849     		ldr	r1, .L66+8
 893 00f8 0020     		movs	r0, #0
 894              	.LVL133:
 895 00fa A847     		blx	r5
 896              	.LVL134:
 897              	.L63:
 898              	.LBE13:
 202:Source\azure_iot_sdk\iothub_client\src/iothub_message.c ****                     /*Codes_SRS_IOTHUBMESSAGE_02_024: [If there are any errors then IoTHubMessage_C
 203:Source\azure_iot_sdk\iothub_client\src/iothub_message.c ****                     DestroyMessageData(result);
 899              		.loc 1 203 0 is_stmt 1
 900 00fc 2000     		movs	r0, r4
 901 00fe FFF7FEFF 		bl	DestroyMessageData
 902              	.LVL135:
 204:Source\azure_iot_sdk\iothub_client\src/iothub_message.c ****                     result = NULL;
 903              		.loc 1 204 0
 904 0102 0024     		movs	r4, #0
ARM GAS  C:\Users\Phuong\AppData\Local\Temp\cc4zbCpa.s 			page 21


 905 0104 00E0     		b	.L56
 906              	.LVL136:
 907              	.L64:
 908              	.LBE10:
 148:Source\azure_iot_sdk\iothub_client\src/iothub_message.c ****     }
 909              		.loc 1 148 0
 910 0106 0024     		movs	r4, #0
 911              	.LVL137:
 912              	.L56:
 205:Source\azure_iot_sdk\iothub_client\src/iothub_message.c ****                 }
 206:Source\azure_iot_sdk\iothub_client\src/iothub_message.c ****                 /*Codes_SRS_IOTHUBMESSAGE_02_025: [Otherwise, IoTHubMessage_CreateFromByteArray sha
 207:Source\azure_iot_sdk\iothub_client\src/iothub_message.c ****             }
 208:Source\azure_iot_sdk\iothub_client\src/iothub_message.c ****         }
 209:Source\azure_iot_sdk\iothub_client\src/iothub_message.c ****     }
 210:Source\azure_iot_sdk\iothub_client\src/iothub_message.c ****     return result;
 211:Source\azure_iot_sdk\iothub_client\src/iothub_message.c **** }
 913              		.loc 1 211 0
 914 0108 2000     		movs	r0, r4
 915 010a 05B0     		add	sp, sp, #20
 916              		@ sp needed
 917              	.LVL138:
 918              	.LVL139:
 919 010c F0BD     		pop	{r4, r5, r6, r7, pc}
 920              	.L67:
 921 010e C046     		.align	2
 922              	.L66:
 923 0110 D0000000 		.word	.LC17
 924 0114 00000000 		.word	.LANCHOR0
 925 0118 00000000 		.word	.LC1
 926 011c F8000000 		.word	.LC19
 927 0120 0C010000 		.word	.LC21
 928 0124 44010000 		.word	.LC23
 929 0128 00000000 		.word	ValidateAsciiCharactersFilter
 930 012c 5C010000 		.word	.LC26
 931              		.cfi_endproc
 932              	.LFE10:
 933              		.size	IoTHubMessage_CreateFromByteArray, .-IoTHubMessage_CreateFromByteArray
 934              		.section	.text.IoTHubMessage_CreateFromString,"ax",%progbits
 935              		.align	2
 936              		.global	IoTHubMessage_CreateFromString
 937              		.code	16
 938              		.thumb_func
 939              		.type	IoTHubMessage_CreateFromString, %function
 940              	IoTHubMessage_CreateFromString:
 941              	.LFB11:
 212:Source\azure_iot_sdk\iothub_client\src/iothub_message.c **** 
 213:Source\azure_iot_sdk\iothub_client\src/iothub_message.c **** IOTHUB_MESSAGE_HANDLE IoTHubMessage_CreateFromString(const char* source)
 214:Source\azure_iot_sdk\iothub_client\src/iothub_message.c **** {
 942              		.loc 1 214 0
 943              		.cfi_startproc
 944              		@ args = 0, pretend = 0, frame = 0
 945              		@ frame_needed = 0, uses_anonymous_args = 0
 946              	.LVL140:
 947 0000 30B5     		push	{r4, r5, lr}
 948              		.cfi_def_cfa_offset 12
 949              		.cfi_offset 4, -12
 950              		.cfi_offset 5, -8
ARM GAS  C:\Users\Phuong\AppData\Local\Temp\cc4zbCpa.s 			page 22


 951              		.cfi_offset 14, -4
 952 0002 83B0     		sub	sp, sp, #12
 953              		.cfi_def_cfa_offset 24
 954 0004 051E     		subs	r5, r0, #0
 215:Source\azure_iot_sdk\iothub_client\src/iothub_message.c ****     IOTHUB_MESSAGE_HANDLE_DATA* result;
 216:Source\azure_iot_sdk\iothub_client\src/iothub_message.c ****     if (source == NULL)
 955              		.loc 1 216 0
 956 0006 0FD1     		bne	.L69
 957              	.LBB14:
 217:Source\azure_iot_sdk\iothub_client\src/iothub_message.c ****     {
 218:Source\azure_iot_sdk\iothub_client\src/iothub_message.c ****         LogError("Invalid argument - source is NULL");
 958              		.loc 1 218 0 discriminator 3
 959 0008 FFF7FEFF 		bl	xlogging_get_log_function
 960              	.LVL141:
 961 000c 041E     		subs	r4, r0, #0
 962              	.LVL142:
 963 000e 57D0     		beq	.L75
 964              		.loc 1 218 0 is_stmt 0 discriminator 4
 965 0010 2D4B     		ldr	r3, .L76
 966 0012 0193     		str	r3, [sp, #4]
 967 0014 0123     		movs	r3, #1
 968 0016 0093     		str	r3, [sp]
 969 0018 D933     		adds	r3, r3, #217
 970 001a 2C4A     		ldr	r2, .L76+4
 971 001c 4032     		adds	r2, r2, #64
 972 001e 2C49     		ldr	r1, .L76+8
 973 0020 0020     		movs	r0, #0
 974              	.LVL143:
 975 0022 A047     		blx	r4
 976              	.LVL144:
 977              	.LBE14:
 219:Source\azure_iot_sdk\iothub_client\src/iothub_message.c ****         result = NULL;
 978              		.loc 1 219 0 is_stmt 1 discriminator 4
 979 0024 0024     		movs	r4, #0
 980              	.LVL145:
 981 0026 4CE0     		b	.L70
 982              	.LVL146:
 983              	.L69:
 220:Source\azure_iot_sdk\iothub_client\src/iothub_message.c ****     }
 221:Source\azure_iot_sdk\iothub_client\src/iothub_message.c ****     else
 222:Source\azure_iot_sdk\iothub_client\src/iothub_message.c ****     {
 223:Source\azure_iot_sdk\iothub_client\src/iothub_message.c ****         result = (IOTHUB_MESSAGE_HANDLE_DATA*)malloc(sizeof(IOTHUB_MESSAGE_HANDLE_DATA));
 984              		.loc 1 223 0
 985 0028 3020     		movs	r0, #48
 986              	.LVL147:
 987 002a FFF7FEFF 		bl	malloc
 988              	.LVL148:
 989 002e 041E     		subs	r4, r0, #0
 990              	.LVL149:
 224:Source\azure_iot_sdk\iothub_client\src/iothub_message.c ****         if (result == NULL)
 991              		.loc 1 224 0
 992 0030 0ED1     		bne	.L71
 993              	.LBB15:
 225:Source\azure_iot_sdk\iothub_client\src/iothub_message.c ****         {
 226:Source\azure_iot_sdk\iothub_client\src/iothub_message.c ****             LogError("malloc failed");
 994              		.loc 1 226 0 discriminator 3
 995 0032 FFF7FEFF 		bl	xlogging_get_log_function
ARM GAS  C:\Users\Phuong\AppData\Local\Temp\cc4zbCpa.s 			page 23


 996              	.LVL150:
 997 0036 051E     		subs	r5, r0, #0
 998              	.LVL151:
 999 0038 43D0     		beq	.L70
 1000              		.loc 1 226 0 is_stmt 0 discriminator 4
 1001 003a 264B     		ldr	r3, .L76+12
 1002 003c 0193     		str	r3, [sp, #4]
 1003 003e 0123     		movs	r3, #1
 1004 0040 0093     		str	r3, [sp]
 1005 0042 E133     		adds	r3, r3, #225
 1006 0044 214A     		ldr	r2, .L76+4
 1007 0046 4032     		adds	r2, r2, #64
 1008 0048 2149     		ldr	r1, .L76+8
 1009 004a 0020     		movs	r0, #0
 1010              	.LVL152:
 1011 004c A847     		blx	r5
 1012              	.LVL153:
 1013 004e 38E0     		b	.L70
 1014              	.LVL154:
 1015              	.L71:
 1016              	.LBE15:
 227:Source\azure_iot_sdk\iothub_client\src/iothub_message.c ****             /*Codes_SRS_IOTHUBMESSAGE_02_029: [If there are any encountered in the execution of IoT
 228:Source\azure_iot_sdk\iothub_client\src/iothub_message.c ****             /*let it go through*/
 229:Source\azure_iot_sdk\iothub_client\src/iothub_message.c ****         }
 230:Source\azure_iot_sdk\iothub_client\src/iothub_message.c ****         else
 231:Source\azure_iot_sdk\iothub_client\src/iothub_message.c ****         {
 232:Source\azure_iot_sdk\iothub_client\src/iothub_message.c ****             memset(result, 0, sizeof(*result));
 1017              		.loc 1 232 0 is_stmt 1
 1018 0050 3022     		movs	r2, #48
 1019 0052 0021     		movs	r1, #0
 1020 0054 FFF7FEFF 		bl	memset
 1021              	.LVL155:
 233:Source\azure_iot_sdk\iothub_client\src/iothub_message.c ****             /*Codes_SRS_IOTHUBMESSAGE_02_032: [The type of the new message shall be IOTHUBMESSAGE_S
 234:Source\azure_iot_sdk\iothub_client\src/iothub_message.c ****             result->contentType = IOTHUBMESSAGE_STRING;
 1022              		.loc 1 234 0
 1023 0058 0123     		movs	r3, #1
 1024 005a 2370     		strb	r3, [r4]
 235:Source\azure_iot_sdk\iothub_client\src/iothub_message.c **** 
 236:Source\azure_iot_sdk\iothub_client\src/iothub_message.c ****             /*Codes_SRS_IOTHUBMESSAGE_02_027: [IoTHubMessage_CreateFromString shall call STRING_con
 237:Source\azure_iot_sdk\iothub_client\src/iothub_message.c ****             if ((result->value.string = STRING_construct(source)) == NULL)
 1025              		.loc 1 237 0
 1026 005c 2800     		movs	r0, r5
 1027 005e FFF7FEFF 		bl	STRING_construct
 1028              	.LVL156:
 1029 0062 6060     		str	r0, [r4, #4]
 1030 0064 0028     		cmp	r0, #0
 1031 0066 12D1     		bne	.L72
 1032              	.LBB16:
 238:Source\azure_iot_sdk\iothub_client\src/iothub_message.c ****             {
 239:Source\azure_iot_sdk\iothub_client\src/iothub_message.c ****                 LogError("STRING_construct failed");
 1033              		.loc 1 239 0 discriminator 3
 1034 0068 FFF7FEFF 		bl	xlogging_get_log_function
 1035              	.LVL157:
 1036 006c 051E     		subs	r5, r0, #0
 1037              	.LVL158:
 1038 006e 09D0     		beq	.L73
 1039              		.loc 1 239 0 is_stmt 0 discriminator 4
ARM GAS  C:\Users\Phuong\AppData\Local\Temp\cc4zbCpa.s 			page 24


 1040 0070 194B     		ldr	r3, .L76+16
 1041 0072 0193     		str	r3, [sp, #4]
 1042 0074 0123     		movs	r3, #1
 1043 0076 0093     		str	r3, [sp]
 1044 0078 EE33     		adds	r3, r3, #238
 1045 007a 144A     		ldr	r2, .L76+4
 1046 007c 4032     		adds	r2, r2, #64
 1047 007e 1449     		ldr	r1, .L76+8
 1048 0080 0020     		movs	r0, #0
 1049              	.LVL159:
 1050 0082 A847     		blx	r5
 1051              	.LVL160:
 1052              	.L73:
 1053              	.LBE16:
 240:Source\azure_iot_sdk\iothub_client\src/iothub_message.c ****                 /*Codes_SRS_IOTHUBMESSAGE_02_029: [If there are any encountered in the execution of
 241:Source\azure_iot_sdk\iothub_client\src/iothub_message.c ****                 DestroyMessageData(result);
 1054              		.loc 1 241 0 is_stmt 1
 1055 0084 2000     		movs	r0, r4
 1056 0086 FFF7FEFF 		bl	DestroyMessageData
 1057              	.LVL161:
 242:Source\azure_iot_sdk\iothub_client\src/iothub_message.c ****                 result = NULL;
 1058              		.loc 1 242 0
 1059 008a 0024     		movs	r4, #0
 1060 008c 19E0     		b	.L70
 1061              	.LVL162:
 1062              	.L72:
 243:Source\azure_iot_sdk\iothub_client\src/iothub_message.c ****             }
 244:Source\azure_iot_sdk\iothub_client\src/iothub_message.c ****             /*Codes_SRS_IOTHUBMESSAGE_02_028: [IoTHubMessage_CreateFromString shall call Map_Create
 245:Source\azure_iot_sdk\iothub_client\src/iothub_message.c ****             else if ((result->properties = Map_Create(ValidateAsciiCharactersFilter)) == NULL)
 1063              		.loc 1 245 0
 1064 008e 1348     		ldr	r0, .L76+20
 1065 0090 FFF7FEFF 		bl	Map_Create
 1066              	.LVL163:
 1067 0094 A060     		str	r0, [r4, #8]
 1068 0096 0028     		cmp	r0, #0
 1069 0098 13D1     		bne	.L70
 1070              	.LBB17:
 246:Source\azure_iot_sdk\iothub_client\src/iothub_message.c ****             {
 247:Source\azure_iot_sdk\iothub_client\src/iothub_message.c ****                 LogError("Map_Create for properties failed");
 1071              		.loc 1 247 0 discriminator 3
 1072 009a FFF7FEFF 		bl	xlogging_get_log_function
 1073              	.LVL164:
 1074 009e 051E     		subs	r5, r0, #0
 1075              	.LVL165:
 1076 00a0 09D0     		beq	.L74
 1077              		.loc 1 247 0 is_stmt 0 discriminator 4
 1078 00a2 0F4B     		ldr	r3, .L76+24
 1079 00a4 0193     		str	r3, [sp, #4]
 1080 00a6 0123     		movs	r3, #1
 1081 00a8 0093     		str	r3, [sp]
 1082 00aa F633     		adds	r3, r3, #246
 1083 00ac 074A     		ldr	r2, .L76+4
 1084 00ae 4032     		adds	r2, r2, #64
 1085 00b0 0749     		ldr	r1, .L76+8
 1086 00b2 0020     		movs	r0, #0
 1087              	.LVL166:
 1088 00b4 A847     		blx	r5
ARM GAS  C:\Users\Phuong\AppData\Local\Temp\cc4zbCpa.s 			page 25


 1089              	.LVL167:
 1090              	.L74:
 1091              	.LBE17:
 248:Source\azure_iot_sdk\iothub_client\src/iothub_message.c ****                 /*Codes_SRS_IOTHUBMESSAGE_02_029: [If there are any encountered in the execution of
 249:Source\azure_iot_sdk\iothub_client\src/iothub_message.c ****                 DestroyMessageData(result);
 1092              		.loc 1 249 0 is_stmt 1
 1093 00b6 2000     		movs	r0, r4
 1094 00b8 FFF7FEFF 		bl	DestroyMessageData
 1095              	.LVL168:
 250:Source\azure_iot_sdk\iothub_client\src/iothub_message.c ****                 result = NULL;
 1096              		.loc 1 250 0
 1097 00bc 0024     		movs	r4, #0
 1098 00be 00E0     		b	.L70
 1099              	.LVL169:
 1100              	.L75:
 219:Source\azure_iot_sdk\iothub_client\src/iothub_message.c ****     }
 1101              		.loc 1 219 0
 1102 00c0 0024     		movs	r4, #0
 1103              	.LVL170:
 1104              	.L70:
 251:Source\azure_iot_sdk\iothub_client\src/iothub_message.c ****             }
 252:Source\azure_iot_sdk\iothub_client\src/iothub_message.c ****             /*Codes_SRS_IOTHUBMESSAGE_02_031: [Otherwise, IoTHubMessage_CreateFromString shall retu
 253:Source\azure_iot_sdk\iothub_client\src/iothub_message.c ****         }
 254:Source\azure_iot_sdk\iothub_client\src/iothub_message.c ****     }
 255:Source\azure_iot_sdk\iothub_client\src/iothub_message.c ****     return result;
 256:Source\azure_iot_sdk\iothub_client\src/iothub_message.c **** }
 1105              		.loc 1 256 0
 1106 00c2 2000     		movs	r0, r4
 1107 00c4 03B0     		add	sp, sp, #12
 1108              		@ sp needed
 1109              	.LVL171:
 1110 00c6 30BD     		pop	{r4, r5, pc}
 1111              	.L77:
 1112              		.align	2
 1113              	.L76:
 1114 00c8 38000000 		.word	.LC3
 1115 00cc 00000000 		.word	.LANCHOR0
 1116 00d0 00000000 		.word	.LC1
 1117 00d4 5C000000 		.word	.LC5
 1118 00d8 80010000 		.word	.LC32
 1119 00dc 00000000 		.word	ValidateAsciiCharactersFilter
 1120 00e0 5C010000 		.word	.LC26
 1121              		.cfi_endproc
 1122              	.LFE11:
 1123              		.size	IoTHubMessage_CreateFromString, .-IoTHubMessage_CreateFromString
 1124              		.section	.text.IoTHubMessage_Clone,"ax",%progbits
 1125              		.align	2
 1126              		.global	IoTHubMessage_Clone
 1127              		.code	16
 1128              		.thumb_func
 1129              		.type	IoTHubMessage_Clone, %function
 1130              	IoTHubMessage_Clone:
 1131              	.LFB12:
 257:Source\azure_iot_sdk\iothub_client\src/iothub_message.c **** 
 258:Source\azure_iot_sdk\iothub_client\src/iothub_message.c **** /*Codes_SRS_IOTHUBMESSAGE_03_001: [IoTHubMessage_Clone shall create a new IoT hub message with data
 259:Source\azure_iot_sdk\iothub_client\src/iothub_message.c **** IOTHUB_MESSAGE_HANDLE IoTHubMessage_Clone(IOTHUB_MESSAGE_HANDLE iotHubMessageHandle)
 260:Source\azure_iot_sdk\iothub_client\src/iothub_message.c **** {
ARM GAS  C:\Users\Phuong\AppData\Local\Temp\cc4zbCpa.s 			page 26


 1132              		.loc 1 260 0
 1133              		.cfi_startproc
 1134              		@ args = 0, pretend = 0, frame = 0
 1135              		@ frame_needed = 0, uses_anonymous_args = 0
 1136              	.LVL172:
 1137 0000 30B5     		push	{r4, r5, lr}
 1138              		.cfi_def_cfa_offset 12
 1139              		.cfi_offset 4, -12
 1140              		.cfi_offset 5, -8
 1141              		.cfi_offset 14, -4
 1142 0002 83B0     		sub	sp, sp, #12
 1143              		.cfi_def_cfa_offset 24
 1144 0004 041E     		subs	r4, r0, #0
 1145              	.LVL173:
 261:Source\azure_iot_sdk\iothub_client\src/iothub_message.c ****     IOTHUB_MESSAGE_HANDLE_DATA* result;
 262:Source\azure_iot_sdk\iothub_client\src/iothub_message.c ****     const IOTHUB_MESSAGE_HANDLE_DATA* source = (const IOTHUB_MESSAGE_HANDLE_DATA*)iotHubMessageHand
 263:Source\azure_iot_sdk\iothub_client\src/iothub_message.c ****     /* Codes_SRS_IOTHUBMESSAGE_03_005: [IoTHubMessage_Clone shall return NULL if iotHubMessageHandl
 264:Source\azure_iot_sdk\iothub_client\src/iothub_message.c ****     if (source == NULL)
 1146              		.loc 1 264 0
 1147 0006 11D1     		bne	.L79
 1148              	.LVL174:
 1149              	.LBB18:
 265:Source\azure_iot_sdk\iothub_client\src/iothub_message.c ****     {
 266:Source\azure_iot_sdk\iothub_client\src/iothub_message.c ****         result = NULL;
 267:Source\azure_iot_sdk\iothub_client\src/iothub_message.c ****         LogError("iotHubMessageHandle parameter cannot be NULL for IoTHubMessage_Clone");
 1150              		.loc 1 267 0
 1151 0008 FFF7FEFF 		bl	xlogging_get_log_function
 1152              	.LVL175:
 1153 000c 041E     		subs	r4, r0, #0
 1154              	.LVL176:
 1155 000e 00D1     		bne	.LCB1174
 1156 0010 B4E1     		b	.L107	@long jump
 1157              	.LCB1174:
 1158              		.loc 1 267 0 is_stmt 0 discriminator 4
 1159 0012 BF4B     		ldr	r3, .L108
 1160 0014 0193     		str	r3, [sp, #4]
 1161 0016 0123     		movs	r3, #1
 1162 0018 0093     		str	r3, [sp]
 1163 001a 0C23     		movs	r3, #12
 1164 001c FF33     		adds	r3, r3, #255
 1165 001e BD4A     		ldr	r2, .L108+4
 1166 0020 6032     		adds	r2, r2, #96
 1167 0022 BD49     		ldr	r1, .L108+8
 1168 0024 0020     		movs	r0, #0
 1169              	.LVL177:
 1170 0026 A047     		blx	r4
 1171              	.LVL178:
 1172              	.LBE18:
 266:Source\azure_iot_sdk\iothub_client\src/iothub_message.c ****         LogError("iotHubMessageHandle parameter cannot be NULL for IoTHubMessage_Clone");
 1173              		.loc 1 266 0 is_stmt 1 discriminator 4
 1174 0028 0025     		movs	r5, #0
 1175 002a A8E1     		b	.L80
 1176              	.LVL179:
 1177              	.L79:
 268:Source\azure_iot_sdk\iothub_client\src/iothub_message.c ****     }
 269:Source\azure_iot_sdk\iothub_client\src/iothub_message.c ****     else
 270:Source\azure_iot_sdk\iothub_client\src/iothub_message.c ****     {
ARM GAS  C:\Users\Phuong\AppData\Local\Temp\cc4zbCpa.s 			page 27


 271:Source\azure_iot_sdk\iothub_client\src/iothub_message.c ****         result = (IOTHUB_MESSAGE_HANDLE_DATA*)malloc(sizeof(IOTHUB_MESSAGE_HANDLE_DATA));
 1178              		.loc 1 271 0
 1179 002c 3020     		movs	r0, #48
 1180              	.LVL180:
 1181 002e FFF7FEFF 		bl	malloc
 1182              	.LVL181:
 1183 0032 051E     		subs	r5, r0, #0
 1184              	.LVL182:
 272:Source\azure_iot_sdk\iothub_client\src/iothub_message.c ****         /*Codes_SRS_IOTHUBMESSAGE_03_004: [IoTHubMessage_Clone shall return NULL if it fails for an
 273:Source\azure_iot_sdk\iothub_client\src/iothub_message.c ****         if (result == NULL)
 1185              		.loc 1 273 0
 1186 0034 10D1     		bne	.L81
 1187              	.LBB19:
 274:Source\azure_iot_sdk\iothub_client\src/iothub_message.c ****         {
 275:Source\azure_iot_sdk\iothub_client\src/iothub_message.c ****             /*Codes_SRS_IOTHUBMESSAGE_03_004: [IoTHubMessage_Clone shall return NULL if it fails fo
 276:Source\azure_iot_sdk\iothub_client\src/iothub_message.c ****             /*do nothing and return as is*/
 277:Source\azure_iot_sdk\iothub_client\src/iothub_message.c ****             LogError("unable to malloc");
 1188              		.loc 1 277 0 discriminator 3
 1189 0036 FFF7FEFF 		bl	xlogging_get_log_function
 1190              	.LVL183:
 1191 003a 041E     		subs	r4, r0, #0
 1192              	.LVL184:
 1193 003c 00D1     		bne	.LCB1216
 1194 003e 9EE1     		b	.L80	@long jump
 1195              	.LCB1216:
 1196              		.loc 1 277 0 is_stmt 0 discriminator 4
 1197 0040 B64B     		ldr	r3, .L108+12
 1198 0042 0193     		str	r3, [sp, #4]
 1199 0044 0123     		movs	r3, #1
 1200 0046 0093     		str	r3, [sp]
 1201 0048 1623     		movs	r3, #22
 1202 004a FF33     		adds	r3, r3, #255
 1203 004c B14A     		ldr	r2, .L108+4
 1204 004e 6032     		adds	r2, r2, #96
 1205 0050 B149     		ldr	r1, .L108+8
 1206 0052 0020     		movs	r0, #0
 1207              	.LVL185:
 1208 0054 A047     		blx	r4
 1209              	.LVL186:
 1210 0056 92E1     		b	.L80
 1211              	.LVL187:
 1212              	.L81:
 1213              	.LBE19:
 278:Source\azure_iot_sdk\iothub_client\src/iothub_message.c ****         }
 279:Source\azure_iot_sdk\iothub_client\src/iothub_message.c ****         else
 280:Source\azure_iot_sdk\iothub_client\src/iothub_message.c ****         {
 281:Source\azure_iot_sdk\iothub_client\src/iothub_message.c ****             memset(result, 0, sizeof(*result));
 1214              		.loc 1 281 0 is_stmt 1
 1215 0058 3022     		movs	r2, #48
 1216 005a 0021     		movs	r1, #0
 1217 005c FFF7FEFF 		bl	memset
 1218              	.LVL188:
 282:Source\azure_iot_sdk\iothub_client\src/iothub_message.c ****             result->contentType = source->contentType;
 1219              		.loc 1 282 0
 1220 0060 2378     		ldrb	r3, [r4]
 1221 0062 2B70     		strb	r3, [r5]
 283:Source\azure_iot_sdk\iothub_client\src/iothub_message.c **** 
ARM GAS  C:\Users\Phuong\AppData\Local\Temp\cc4zbCpa.s 			page 28


 284:Source\azure_iot_sdk\iothub_client\src/iothub_message.c ****             if (source->messageId != NULL && mallocAndStrcpy_s(&result->messageId, source->messageI
 1222              		.loc 1 284 0
 1223 0064 E168     		ldr	r1, [r4, #12]
 1224 0066 0029     		cmp	r1, #0
 1225 0068 19D0     		beq	.L82
 1226              		.loc 1 284 0 is_stmt 0 discriminator 1
 1227 006a 2800     		movs	r0, r5
 1228 006c 0C30     		adds	r0, r0, #12
 1229 006e FFF7FEFF 		bl	mallocAndStrcpy_s
 1230              	.LVL189:
 1231 0072 0028     		cmp	r0, #0
 1232 0074 13D0     		beq	.L82
 1233              	.LBB20:
 285:Source\azure_iot_sdk\iothub_client\src/iothub_message.c ****             {
 286:Source\azure_iot_sdk\iothub_client\src/iothub_message.c ****                 LogError("unable to Copy messageId");
 1234              		.loc 1 286 0 is_stmt 1 discriminator 3
 1235 0076 FFF7FEFF 		bl	xlogging_get_log_function
 1236              	.LVL190:
 1237 007a 041E     		subs	r4, r0, #0
 1238              	.LVL191:
 1239 007c 0AD0     		beq	.L83
 1240              		.loc 1 286 0 is_stmt 0 discriminator 4
 1241 007e A84B     		ldr	r3, .L108+16
 1242 0080 0193     		str	r3, [sp, #4]
 1243 0082 0123     		movs	r3, #1
 1244 0084 0093     		str	r3, [sp]
 1245 0086 1E33     		adds	r3, r3, #30
 1246 0088 FF33     		adds	r3, r3, #255
 1247 008a A24A     		ldr	r2, .L108+4
 1248 008c 6032     		adds	r2, r2, #96
 1249 008e A249     		ldr	r1, .L108+8
 1250 0090 0020     		movs	r0, #0
 1251              	.LVL192:
 1252 0092 A047     		blx	r4
 1253              	.LVL193:
 1254              	.L83:
 1255              	.LBE20:
 287:Source\azure_iot_sdk\iothub_client\src/iothub_message.c ****                 DestroyMessageData(result);
 1256              		.loc 1 287 0 is_stmt 1
 1257 0094 2800     		movs	r0, r5
 1258 0096 FFF7FEFF 		bl	DestroyMessageData
 1259              	.LVL194:
 288:Source\azure_iot_sdk\iothub_client\src/iothub_message.c ****                 result = NULL;
 1260              		.loc 1 288 0
 1261 009a 0025     		movs	r5, #0
 1262 009c 6FE1     		b	.L80
 1263              	.LVL195:
 1264              	.L82:
 289:Source\azure_iot_sdk\iothub_client\src/iothub_message.c ****             }
 290:Source\azure_iot_sdk\iothub_client\src/iothub_message.c ****             else if (source->correlationId != NULL && mallocAndStrcpy_s(&result->correlationId, sou
 1265              		.loc 1 290 0
 1266 009e 2169     		ldr	r1, [r4, #16]
 1267 00a0 0029     		cmp	r1, #0
 1268 00a2 19D0     		beq	.L84
 1269              		.loc 1 290 0 is_stmt 0 discriminator 1
 1270 00a4 2800     		movs	r0, r5
 1271 00a6 1030     		adds	r0, r0, #16
ARM GAS  C:\Users\Phuong\AppData\Local\Temp\cc4zbCpa.s 			page 29


 1272 00a8 FFF7FEFF 		bl	mallocAndStrcpy_s
 1273              	.LVL196:
 1274 00ac 0028     		cmp	r0, #0
 1275 00ae 13D0     		beq	.L84
 1276              	.LBB21:
 291:Source\azure_iot_sdk\iothub_client\src/iothub_message.c ****             {
 292:Source\azure_iot_sdk\iothub_client\src/iothub_message.c ****                 LogError("unable to Copy correlationId");
 1277              		.loc 1 292 0 is_stmt 1 discriminator 3
 1278 00b0 FFF7FEFF 		bl	xlogging_get_log_function
 1279              	.LVL197:
 1280 00b4 041E     		subs	r4, r0, #0
 1281              	.LVL198:
 1282 00b6 0AD0     		beq	.L85
 1283              		.loc 1 292 0 is_stmt 0 discriminator 4
 1284 00b8 9A4B     		ldr	r3, .L108+20
 1285 00ba 0193     		str	r3, [sp, #4]
 1286 00bc 0123     		movs	r3, #1
 1287 00be 0093     		str	r3, [sp]
 1288 00c0 2433     		adds	r3, r3, #36
 1289 00c2 FF33     		adds	r3, r3, #255
 1290 00c4 934A     		ldr	r2, .L108+4
 1291 00c6 6032     		adds	r2, r2, #96
 1292 00c8 9349     		ldr	r1, .L108+8
 1293 00ca 0020     		movs	r0, #0
 1294              	.LVL199:
 1295 00cc A047     		blx	r4
 1296              	.LVL200:
 1297              	.L85:
 1298              	.LBE21:
 293:Source\azure_iot_sdk\iothub_client\src/iothub_message.c ****                 DestroyMessageData(result);
 1299              		.loc 1 293 0 is_stmt 1
 1300 00ce 2800     		movs	r0, r5
 1301 00d0 FFF7FEFF 		bl	DestroyMessageData
 1302              	.LVL201:
 294:Source\azure_iot_sdk\iothub_client\src/iothub_message.c ****                 result = NULL;
 1303              		.loc 1 294 0
 1304 00d4 0025     		movs	r5, #0
 1305 00d6 52E1     		b	.L80
 1306              	.LVL202:
 1307              	.L84:
 295:Source\azure_iot_sdk\iothub_client\src/iothub_message.c ****             }
 296:Source\azure_iot_sdk\iothub_client\src/iothub_message.c ****             else if (source->userDefinedContentType != NULL && mallocAndStrcpy_s(&result->userDefin
 1308              		.loc 1 296 0
 1309 00d8 6169     		ldr	r1, [r4, #20]
 1310 00da 0029     		cmp	r1, #0
 1311 00dc 19D0     		beq	.L86
 1312              		.loc 1 296 0 is_stmt 0 discriminator 1
 1313 00de 2800     		movs	r0, r5
 1314 00e0 1430     		adds	r0, r0, #20
 1315 00e2 FFF7FEFF 		bl	mallocAndStrcpy_s
 1316              	.LVL203:
 1317 00e6 0028     		cmp	r0, #0
 1318 00e8 13D0     		beq	.L86
 1319              	.LBB22:
 297:Source\azure_iot_sdk\iothub_client\src/iothub_message.c ****             {
 298:Source\azure_iot_sdk\iothub_client\src/iothub_message.c ****                 LogError("unable to copy contentType");
 1320              		.loc 1 298 0 is_stmt 1 discriminator 3
ARM GAS  C:\Users\Phuong\AppData\Local\Temp\cc4zbCpa.s 			page 30


 1321 00ea FFF7FEFF 		bl	xlogging_get_log_function
 1322              	.LVL204:
 1323 00ee 041E     		subs	r4, r0, #0
 1324              	.LVL205:
 1325 00f0 0AD0     		beq	.L87
 1326              		.loc 1 298 0 is_stmt 0 discriminator 4
 1327 00f2 8D4B     		ldr	r3, .L108+24
 1328 00f4 0193     		str	r3, [sp, #4]
 1329 00f6 0123     		movs	r3, #1
 1330 00f8 0093     		str	r3, [sp]
 1331 00fa 2A33     		adds	r3, r3, #42
 1332 00fc FF33     		adds	r3, r3, #255
 1333 00fe 854A     		ldr	r2, .L108+4
 1334 0100 6032     		adds	r2, r2, #96
 1335 0102 8549     		ldr	r1, .L108+8
 1336 0104 0020     		movs	r0, #0
 1337              	.LVL206:
 1338 0106 A047     		blx	r4
 1339              	.LVL207:
 1340              	.L87:
 1341              	.LBE22:
 299:Source\azure_iot_sdk\iothub_client\src/iothub_message.c ****                 DestroyMessageData(result);
 1342              		.loc 1 299 0 is_stmt 1
 1343 0108 2800     		movs	r0, r5
 1344 010a FFF7FEFF 		bl	DestroyMessageData
 1345              	.LVL208:
 300:Source\azure_iot_sdk\iothub_client\src/iothub_message.c ****                 result = NULL;
 1346              		.loc 1 300 0
 1347 010e 0025     		movs	r5, #0
 1348 0110 35E1     		b	.L80
 1349              	.LVL209:
 1350              	.L86:
 301:Source\azure_iot_sdk\iothub_client\src/iothub_message.c ****             }
 302:Source\azure_iot_sdk\iothub_client\src/iothub_message.c ****             else if (source->contentEncoding != NULL && mallocAndStrcpy_s(&result->contentEncoding,
 1351              		.loc 1 302 0
 1352 0112 A169     		ldr	r1, [r4, #24]
 1353 0114 0029     		cmp	r1, #0
 1354 0116 19D0     		beq	.L88
 1355              		.loc 1 302 0 is_stmt 0 discriminator 1
 1356 0118 2800     		movs	r0, r5
 1357 011a 1830     		adds	r0, r0, #24
 1358 011c FFF7FEFF 		bl	mallocAndStrcpy_s
 1359              	.LVL210:
 1360 0120 0028     		cmp	r0, #0
 1361 0122 13D0     		beq	.L88
 1362              	.LBB23:
 303:Source\azure_iot_sdk\iothub_client\src/iothub_message.c ****             {
 304:Source\azure_iot_sdk\iothub_client\src/iothub_message.c ****                 LogError("unable to copy contentEncoding");
 1363              		.loc 1 304 0 is_stmt 1 discriminator 3
 1364 0124 FFF7FEFF 		bl	xlogging_get_log_function
 1365              	.LVL211:
 1366 0128 041E     		subs	r4, r0, #0
 1367              	.LVL212:
 1368 012a 0AD0     		beq	.L89
 1369              		.loc 1 304 0 is_stmt 0 discriminator 4
 1370 012c 7F4B     		ldr	r3, .L108+28
 1371 012e 0193     		str	r3, [sp, #4]
ARM GAS  C:\Users\Phuong\AppData\Local\Temp\cc4zbCpa.s 			page 31


 1372 0130 0123     		movs	r3, #1
 1373 0132 0093     		str	r3, [sp]
 1374 0134 3033     		adds	r3, r3, #48
 1375 0136 FF33     		adds	r3, r3, #255
 1376 0138 764A     		ldr	r2, .L108+4
 1377 013a 6032     		adds	r2, r2, #96
 1378 013c 7649     		ldr	r1, .L108+8
 1379 013e 0020     		movs	r0, #0
 1380              	.LVL213:
 1381 0140 A047     		blx	r4
 1382              	.LVL214:
 1383              	.L89:
 1384              	.LBE23:
 305:Source\azure_iot_sdk\iothub_client\src/iothub_message.c ****                 DestroyMessageData(result);
 1385              		.loc 1 305 0 is_stmt 1
 1386 0142 2800     		movs	r0, r5
 1387 0144 FFF7FEFF 		bl	DestroyMessageData
 1388              	.LVL215:
 306:Source\azure_iot_sdk\iothub_client\src/iothub_message.c ****                 result = NULL;
 1389              		.loc 1 306 0
 1390 0148 0025     		movs	r5, #0
 1391 014a 18E1     		b	.L80
 1392              	.LVL216:
 1393              	.L88:
 307:Source\azure_iot_sdk\iothub_client\src/iothub_message.c ****             }
 308:Source\azure_iot_sdk\iothub_client\src/iothub_message.c ****             else if (source->diagnosticData != NULL && (result->diagnosticData = CloneDiagnosticPro
 1394              		.loc 1 308 0
 1395 014c E06A     		ldr	r0, [r4, #44]
 1396 014e 0028     		cmp	r0, #0
 1397 0150 18D0     		beq	.L90
 1398              		.loc 1 308 0 is_stmt 0 discriminator 1
 1399 0152 FFF7FEFF 		bl	CloneDiagnosticPropertyData
 1400              	.LVL217:
 1401 0156 E862     		str	r0, [r5, #44]
 1402 0158 0028     		cmp	r0, #0
 1403 015a 13D1     		bne	.L90
 1404              	.LBB24:
 309:Source\azure_iot_sdk\iothub_client\src/iothub_message.c ****             {
 310:Source\azure_iot_sdk\iothub_client\src/iothub_message.c ****                 LogError("unable to copy CloneDiagnosticPropertyData");
 1405              		.loc 1 310 0 is_stmt 1 discriminator 3
 1406 015c FFF7FEFF 		bl	xlogging_get_log_function
 1407              	.LVL218:
 1408 0160 041E     		subs	r4, r0, #0
 1409              	.LVL219:
 1410 0162 0AD0     		beq	.L91
 1411              		.loc 1 310 0 is_stmt 0 discriminator 4
 1412 0164 724B     		ldr	r3, .L108+32
 1413 0166 0193     		str	r3, [sp, #4]
 1414 0168 0123     		movs	r3, #1
 1415 016a 0093     		str	r3, [sp]
 1416 016c 3633     		adds	r3, r3, #54
 1417 016e FF33     		adds	r3, r3, #255
 1418 0170 684A     		ldr	r2, .L108+4
 1419 0172 6032     		adds	r2, r2, #96
 1420 0174 6849     		ldr	r1, .L108+8
 1421 0176 0020     		movs	r0, #0
 1422              	.LVL220:
ARM GAS  C:\Users\Phuong\AppData\Local\Temp\cc4zbCpa.s 			page 32


 1423 0178 A047     		blx	r4
 1424              	.LVL221:
 1425              	.L91:
 1426              	.LBE24:
 311:Source\azure_iot_sdk\iothub_client\src/iothub_message.c ****                 DestroyMessageData(result);
 1427              		.loc 1 311 0 is_stmt 1
 1428 017a 2800     		movs	r0, r5
 1429 017c FFF7FEFF 		bl	DestroyMessageData
 1430              	.LVL222:
 312:Source\azure_iot_sdk\iothub_client\src/iothub_message.c ****                 result = NULL;
 1431              		.loc 1 312 0
 1432 0180 0025     		movs	r5, #0
 1433 0182 FCE0     		b	.L80
 1434              	.LVL223:
 1435              	.L90:
 313:Source\azure_iot_sdk\iothub_client\src/iothub_message.c ****             }
 314:Source\azure_iot_sdk\iothub_client\src/iothub_message.c ****             else if (source->outputName != NULL && mallocAndStrcpy_s(&result->outputName, source->o
 1436              		.loc 1 314 0
 1437 0184 E169     		ldr	r1, [r4, #28]
 1438 0186 0029     		cmp	r1, #0
 1439 0188 19D0     		beq	.L92
 1440              		.loc 1 314 0 is_stmt 0 discriminator 1
 1441 018a 2800     		movs	r0, r5
 1442 018c 1C30     		adds	r0, r0, #28
 1443 018e FFF7FEFF 		bl	mallocAndStrcpy_s
 1444              	.LVL224:
 1445 0192 0028     		cmp	r0, #0
 1446 0194 13D0     		beq	.L92
 1447              	.LBB25:
 315:Source\azure_iot_sdk\iothub_client\src/iothub_message.c ****             {
 316:Source\azure_iot_sdk\iothub_client\src/iothub_message.c ****                 LogError("unable to copy outputName");
 1448              		.loc 1 316 0 is_stmt 1 discriminator 3
 1449 0196 FFF7FEFF 		bl	xlogging_get_log_function
 1450              	.LVL225:
 1451 019a 041E     		subs	r4, r0, #0
 1452              	.LVL226:
 1453 019c 0AD0     		beq	.L93
 1454              		.loc 1 316 0 is_stmt 0 discriminator 4
 1455 019e 654B     		ldr	r3, .L108+36
 1456 01a0 0193     		str	r3, [sp, #4]
 1457 01a2 0123     		movs	r3, #1
 1458 01a4 0093     		str	r3, [sp]
 1459 01a6 3C33     		adds	r3, r3, #60
 1460 01a8 FF33     		adds	r3, r3, #255
 1461 01aa 5A4A     		ldr	r2, .L108+4
 1462 01ac 6032     		adds	r2, r2, #96
 1463 01ae 5A49     		ldr	r1, .L108+8
 1464 01b0 0020     		movs	r0, #0
 1465              	.LVL227:
 1466 01b2 A047     		blx	r4
 1467              	.LVL228:
 1468              	.L93:
 1469              	.LBE25:
 317:Source\azure_iot_sdk\iothub_client\src/iothub_message.c ****                 DestroyMessageData(result);
 1470              		.loc 1 317 0 is_stmt 1
 1471 01b4 2800     		movs	r0, r5
 1472 01b6 FFF7FEFF 		bl	DestroyMessageData
ARM GAS  C:\Users\Phuong\AppData\Local\Temp\cc4zbCpa.s 			page 33


 1473              	.LVL229:
 318:Source\azure_iot_sdk\iothub_client\src/iothub_message.c ****                 result = NULL;
 1474              		.loc 1 318 0
 1475 01ba 0025     		movs	r5, #0
 1476 01bc DFE0     		b	.L80
 1477              	.LVL230:
 1478              	.L92:
 319:Source\azure_iot_sdk\iothub_client\src/iothub_message.c ****             }
 320:Source\azure_iot_sdk\iothub_client\src/iothub_message.c ****             else if (source->inputName != NULL && mallocAndStrcpy_s(&result->inputName, source->inp
 1479              		.loc 1 320 0
 1480 01be 216A     		ldr	r1, [r4, #32]
 1481 01c0 0029     		cmp	r1, #0
 1482 01c2 19D0     		beq	.L94
 1483              		.loc 1 320 0 is_stmt 0 discriminator 1
 1484 01c4 2800     		movs	r0, r5
 1485 01c6 2030     		adds	r0, r0, #32
 1486 01c8 FFF7FEFF 		bl	mallocAndStrcpy_s
 1487              	.LVL231:
 1488 01cc 0028     		cmp	r0, #0
 1489 01ce 13D0     		beq	.L94
 1490              	.LBB26:
 321:Source\azure_iot_sdk\iothub_client\src/iothub_message.c ****             {
 322:Source\azure_iot_sdk\iothub_client\src/iothub_message.c ****                 LogError("unable to copy inputName");
 1491              		.loc 1 322 0 is_stmt 1 discriminator 3
 1492 01d0 FFF7FEFF 		bl	xlogging_get_log_function
 1493              	.LVL232:
 1494 01d4 041E     		subs	r4, r0, #0
 1495              	.LVL233:
 1496 01d6 0AD0     		beq	.L95
 1497              		.loc 1 322 0 is_stmt 0 discriminator 4
 1498 01d8 574B     		ldr	r3, .L108+40
 1499 01da 0193     		str	r3, [sp, #4]
 1500 01dc 0123     		movs	r3, #1
 1501 01de 0093     		str	r3, [sp]
 1502 01e0 4233     		adds	r3, r3, #66
 1503 01e2 FF33     		adds	r3, r3, #255
 1504 01e4 4B4A     		ldr	r2, .L108+4
 1505 01e6 6032     		adds	r2, r2, #96
 1506 01e8 4B49     		ldr	r1, .L108+8
 1507 01ea 0020     		movs	r0, #0
 1508              	.LVL234:
 1509 01ec A047     		blx	r4
 1510              	.LVL235:
 1511              	.L95:
 1512              	.LBE26:
 323:Source\azure_iot_sdk\iothub_client\src/iothub_message.c ****                 DestroyMessageData(result);
 1513              		.loc 1 323 0 is_stmt 1
 1514 01ee 2800     		movs	r0, r5
 1515 01f0 FFF7FEFF 		bl	DestroyMessageData
 1516              	.LVL236:
 324:Source\azure_iot_sdk\iothub_client\src/iothub_message.c ****                 result = NULL;
 1517              		.loc 1 324 0
 1518 01f4 0025     		movs	r5, #0
 1519 01f6 C2E0     		b	.L80
 1520              	.LVL237:
 1521              	.L94:
 325:Source\azure_iot_sdk\iothub_client\src/iothub_message.c ****             }
ARM GAS  C:\Users\Phuong\AppData\Local\Temp\cc4zbCpa.s 			page 34


 326:Source\azure_iot_sdk\iothub_client\src/iothub_message.c ****             else if (source->connectionModuleId != NULL && mallocAndStrcpy_s(&result->connectionMod
 1522              		.loc 1 326 0
 1523 01f8 616A     		ldr	r1, [r4, #36]
 1524 01fa 0029     		cmp	r1, #0
 1525 01fc 19D0     		beq	.L96
 1526              		.loc 1 326 0 is_stmt 0 discriminator 1
 1527 01fe 2800     		movs	r0, r5
 1528 0200 2430     		adds	r0, r0, #36
 1529 0202 FFF7FEFF 		bl	mallocAndStrcpy_s
 1530              	.LVL238:
 1531 0206 0028     		cmp	r0, #0
 1532 0208 13D0     		beq	.L96
 1533              	.LBB27:
 327:Source\azure_iot_sdk\iothub_client\src/iothub_message.c ****             {
 328:Source\azure_iot_sdk\iothub_client\src/iothub_message.c ****                 LogError("unable to copy inputName");
 1534              		.loc 1 328 0 is_stmt 1 discriminator 3
 1535 020a FFF7FEFF 		bl	xlogging_get_log_function
 1536              	.LVL239:
 1537 020e 041E     		subs	r4, r0, #0
 1538              	.LVL240:
 1539 0210 0AD0     		beq	.L97
 1540              		.loc 1 328 0 is_stmt 0 discriminator 4
 1541 0212 494B     		ldr	r3, .L108+40
 1542 0214 0193     		str	r3, [sp, #4]
 1543 0216 0123     		movs	r3, #1
 1544 0218 0093     		str	r3, [sp]
 1545 021a 4833     		adds	r3, r3, #72
 1546 021c FF33     		adds	r3, r3, #255
 1547 021e 3D4A     		ldr	r2, .L108+4
 1548 0220 6032     		adds	r2, r2, #96
 1549 0222 3D49     		ldr	r1, .L108+8
 1550 0224 0020     		movs	r0, #0
 1551              	.LVL241:
 1552 0226 A047     		blx	r4
 1553              	.LVL242:
 1554              	.L97:
 1555              	.LBE27:
 329:Source\azure_iot_sdk\iothub_client\src/iothub_message.c ****                 DestroyMessageData(result);
 1556              		.loc 1 329 0 is_stmt 1
 1557 0228 2800     		movs	r0, r5
 1558 022a FFF7FEFF 		bl	DestroyMessageData
 1559              	.LVL243:
 330:Source\azure_iot_sdk\iothub_client\src/iothub_message.c ****                 result = NULL;
 1560              		.loc 1 330 0
 1561 022e 0025     		movs	r5, #0
 1562 0230 A5E0     		b	.L80
 1563              	.LVL244:
 1564              	.L96:
 331:Source\azure_iot_sdk\iothub_client\src/iothub_message.c ****             }
 332:Source\azure_iot_sdk\iothub_client\src/iothub_message.c ****             else if (source->connectionDeviceId != NULL && mallocAndStrcpy_s(&result->connectionDev
 1565              		.loc 1 332 0
 1566 0232 A16A     		ldr	r1, [r4, #40]
 1567 0234 0029     		cmp	r1, #0
 1568 0236 19D0     		beq	.L98
 1569              		.loc 1 332 0 is_stmt 0 discriminator 1
 1570 0238 2800     		movs	r0, r5
 1571 023a 2830     		adds	r0, r0, #40
ARM GAS  C:\Users\Phuong\AppData\Local\Temp\cc4zbCpa.s 			page 35


 1572 023c FFF7FEFF 		bl	mallocAndStrcpy_s
 1573              	.LVL245:
 1574 0240 0028     		cmp	r0, #0
 1575 0242 13D0     		beq	.L98
 1576              	.LBB28:
 333:Source\azure_iot_sdk\iothub_client\src/iothub_message.c ****             {
 334:Source\azure_iot_sdk\iothub_client\src/iothub_message.c ****                 LogError("unable to copy inputName");
 1577              		.loc 1 334 0 is_stmt 1 discriminator 3
 1578 0244 FFF7FEFF 		bl	xlogging_get_log_function
 1579              	.LVL246:
 1580 0248 041E     		subs	r4, r0, #0
 1581              	.LVL247:
 1582 024a 0AD0     		beq	.L99
 1583              		.loc 1 334 0 is_stmt 0 discriminator 4
 1584 024c 3A4B     		ldr	r3, .L108+40
 1585 024e 0193     		str	r3, [sp, #4]
 1586 0250 0123     		movs	r3, #1
 1587 0252 0093     		str	r3, [sp]
 1588 0254 4E33     		adds	r3, r3, #78
 1589 0256 FF33     		adds	r3, r3, #255
 1590 0258 2E4A     		ldr	r2, .L108+4
 1591 025a 6032     		adds	r2, r2, #96
 1592 025c 2E49     		ldr	r1, .L108+8
 1593 025e 0020     		movs	r0, #0
 1594              	.LVL248:
 1595 0260 A047     		blx	r4
 1596              	.LVL249:
 1597              	.L99:
 1598              	.LBE28:
 335:Source\azure_iot_sdk\iothub_client\src/iothub_message.c ****                 DestroyMessageData(result);
 1599              		.loc 1 335 0 is_stmt 1
 1600 0262 2800     		movs	r0, r5
 1601 0264 FFF7FEFF 		bl	DestroyMessageData
 1602              	.LVL250:
 336:Source\azure_iot_sdk\iothub_client\src/iothub_message.c ****                 result = NULL;
 1603              		.loc 1 336 0
 1604 0268 0025     		movs	r5, #0
 1605 026a 88E0     		b	.L80
 1606              	.LVL251:
 1607              	.L98:
 337:Source\azure_iot_sdk\iothub_client\src/iothub_message.c ****             }
 338:Source\azure_iot_sdk\iothub_client\src/iothub_message.c ****             else if (source->contentType == IOTHUBMESSAGE_BYTEARRAY)
 1608              		.loc 1 338 0
 1609 026c 2378     		ldrb	r3, [r4]
 1610 026e 002B     		cmp	r3, #0
 1611 0270 33D1     		bne	.L100
 339:Source\azure_iot_sdk\iothub_client\src/iothub_message.c ****             {
 340:Source\azure_iot_sdk\iothub_client\src/iothub_message.c ****                 /*Codes_SRS_IOTHUBMESSAGE_02_006: [IoTHubMessage_Clone shall clone to content by a 
 341:Source\azure_iot_sdk\iothub_client\src/iothub_message.c ****                 if ((result->value.byteArray = BUFFER_clone(source->value.byteArray)) == NULL)
 1612              		.loc 1 341 0
 1613 0272 6068     		ldr	r0, [r4, #4]
 1614 0274 FFF7FEFF 		bl	BUFFER_clone
 1615              	.LVL252:
 1616 0278 6860     		str	r0, [r5, #4]
 1617 027a 0028     		cmp	r0, #0
 1618 027c 13D1     		bne	.L101
 1619              	.LBB29:
ARM GAS  C:\Users\Phuong\AppData\Local\Temp\cc4zbCpa.s 			page 36


 342:Source\azure_iot_sdk\iothub_client\src/iothub_message.c ****                 {
 343:Source\azure_iot_sdk\iothub_client\src/iothub_message.c ****                     /*Codes_SRS_IOTHUBMESSAGE_03_004: [IoTHubMessage_Clone shall return NULL if it 
 344:Source\azure_iot_sdk\iothub_client\src/iothub_message.c ****                     LogError("unable to BUFFER_clone");
 1620              		.loc 1 344 0 discriminator 3
 1621 027e FFF7FEFF 		bl	xlogging_get_log_function
 1622              	.LVL253:
 1623 0282 041E     		subs	r4, r0, #0
 1624              	.LVL254:
 1625 0284 0AD0     		beq	.L102
 1626              		.loc 1 344 0 is_stmt 0 discriminator 4
 1627 0286 2D4B     		ldr	r3, .L108+44
 1628 0288 0193     		str	r3, [sp, #4]
 1629 028a 0123     		movs	r3, #1
 1630 028c 0093     		str	r3, [sp]
 1631 028e 5833     		adds	r3, r3, #88
 1632 0290 FF33     		adds	r3, r3, #255
 1633 0292 204A     		ldr	r2, .L108+4
 1634 0294 6032     		adds	r2, r2, #96
 1635 0296 2049     		ldr	r1, .L108+8
 1636 0298 0020     		movs	r0, #0
 1637              	.LVL255:
 1638 029a A047     		blx	r4
 1639              	.LVL256:
 1640              	.L102:
 1641              	.LBE29:
 345:Source\azure_iot_sdk\iothub_client\src/iothub_message.c ****                     DestroyMessageData(result);
 1642              		.loc 1 345 0 is_stmt 1
 1643 029c 2800     		movs	r0, r5
 1644 029e FFF7FEFF 		bl	DestroyMessageData
 1645              	.LVL257:
 346:Source\azure_iot_sdk\iothub_client\src/iothub_message.c ****                     result = NULL;
 1646              		.loc 1 346 0
 1647 02a2 0025     		movs	r5, #0
 1648 02a4 6BE0     		b	.L80
 1649              	.LVL258:
 1650              	.L101:
 347:Source\azure_iot_sdk\iothub_client\src/iothub_message.c ****                 }
 348:Source\azure_iot_sdk\iothub_client\src/iothub_message.c ****                 /*Codes_SRS_IOTHUBMESSAGE_02_005: [IoTHubMessage_Clone shall clone the properties m
 349:Source\azure_iot_sdk\iothub_client\src/iothub_message.c ****                 else if ((result->properties = Map_Clone(source->properties)) == NULL)
 1651              		.loc 1 349 0
 1652 02a6 A068     		ldr	r0, [r4, #8]
 1653 02a8 FFF7FEFF 		bl	Map_Clone
 1654              	.LVL259:
 1655 02ac A860     		str	r0, [r5, #8]
 1656 02ae 0028     		cmp	r0, #0
 1657 02b0 65D1     		bne	.L80
 1658              	.LBB30:
 350:Source\azure_iot_sdk\iothub_client\src/iothub_message.c ****                 {
 351:Source\azure_iot_sdk\iothub_client\src/iothub_message.c ****                     /*Codes_SRS_IOTHUBMESSAGE_03_004: [IoTHubMessage_Clone shall return NULL if it 
 352:Source\azure_iot_sdk\iothub_client\src/iothub_message.c ****                     LogError("unable to Map_Clone");
 1659              		.loc 1 352 0 discriminator 3
 1660 02b2 FFF7FEFF 		bl	xlogging_get_log_function
 1661              	.LVL260:
 1662 02b6 041E     		subs	r4, r0, #0
 1663              	.LVL261:
 1664 02b8 0AD0     		beq	.L103
 1665              		.loc 1 352 0 is_stmt 0 discriminator 4
ARM GAS  C:\Users\Phuong\AppData\Local\Temp\cc4zbCpa.s 			page 37


 1666 02ba 214B     		ldr	r3, .L108+48
 1667 02bc 0193     		str	r3, [sp, #4]
 1668 02be 0123     		movs	r3, #1
 1669 02c0 0093     		str	r3, [sp]
 1670 02c2 6033     		adds	r3, r3, #96
 1671 02c4 FF33     		adds	r3, r3, #255
 1672 02c6 134A     		ldr	r2, .L108+4
 1673 02c8 6032     		adds	r2, r2, #96
 1674 02ca 1349     		ldr	r1, .L108+8
 1675 02cc 0020     		movs	r0, #0
 1676              	.LVL262:
 1677 02ce A047     		blx	r4
 1678              	.LVL263:
 1679              	.L103:
 1680              	.LBE30:
 353:Source\azure_iot_sdk\iothub_client\src/iothub_message.c ****                     DestroyMessageData(result);
 1681              		.loc 1 353 0 is_stmt 1
 1682 02d0 2800     		movs	r0, r5
 1683 02d2 FFF7FEFF 		bl	DestroyMessageData
 1684              	.LVL264:
 354:Source\azure_iot_sdk\iothub_client\src/iothub_message.c ****                     result = NULL;
 1685              		.loc 1 354 0
 1686 02d6 0025     		movs	r5, #0
 1687 02d8 51E0     		b	.L80
 1688              	.LVL265:
 1689              	.L100:
 355:Source\azure_iot_sdk\iothub_client\src/iothub_message.c ****                 }
 356:Source\azure_iot_sdk\iothub_client\src/iothub_message.c ****                 /*Codes_SRS_IOTHUBMESSAGE_03_002: [IoTHubMessage_Clone shall return upon success a 
 357:Source\azure_iot_sdk\iothub_client\src/iothub_message.c ****             }
 358:Source\azure_iot_sdk\iothub_client\src/iothub_message.c ****             else /*can only be STRING*/
 359:Source\azure_iot_sdk\iothub_client\src/iothub_message.c ****             {
 360:Source\azure_iot_sdk\iothub_client\src/iothub_message.c ****                 /*Codes_SRS_IOTHUBMESSAGE_02_006: [IoTHubMessage_Clone shall clone the content by a
 361:Source\azure_iot_sdk\iothub_client\src/iothub_message.c ****                 if ((result->value.string = STRING_clone(source->value.string)) == NULL)
 1690              		.loc 1 361 0
 1691 02da 6068     		ldr	r0, [r4, #4]
 1692 02dc FFF7FEFF 		bl	STRING_clone
 1693              	.LVL266:
 1694 02e0 6860     		str	r0, [r5, #4]
 1695 02e2 0028     		cmp	r0, #0
 1696 02e4 30D1     		bne	.L104
 1697              	.LBB31:
 362:Source\azure_iot_sdk\iothub_client\src/iothub_message.c ****                 {
 363:Source\azure_iot_sdk\iothub_client\src/iothub_message.c ****                     /*Codes_SRS_IOTHUBMESSAGE_03_004: [IoTHubMessage_Clone shall return NULL if it 
 364:Source\azure_iot_sdk\iothub_client\src/iothub_message.c ****                     LogError("failed to STRING_clone");
 1698              		.loc 1 364 0 discriminator 3
 1699 02e6 FFF7FEFF 		bl	xlogging_get_log_function
 1700              	.LVL267:
 1701 02ea 041E     		subs	r4, r0, #0
 1702              	.LVL268:
 1703 02ec 0AD0     		beq	.L105
 1704              		.loc 1 364 0 is_stmt 0 discriminator 4
 1705 02ee 154B     		ldr	r3, .L108+52
 1706 02f0 0193     		str	r3, [sp, #4]
 1707 02f2 0123     		movs	r3, #1
 1708 02f4 0093     		str	r3, [sp]
 1709 02f6 6C33     		adds	r3, r3, #108
 1710 02f8 FF33     		adds	r3, r3, #255
ARM GAS  C:\Users\Phuong\AppData\Local\Temp\cc4zbCpa.s 			page 38


 1711 02fa 064A     		ldr	r2, .L108+4
 1712 02fc 6032     		adds	r2, r2, #96
 1713 02fe 0649     		ldr	r1, .L108+8
 1714 0300 0020     		movs	r0, #0
 1715              	.LVL269:
 1716 0302 A047     		blx	r4
 1717              	.LVL270:
 1718              	.L105:
 1719              	.LBE31:
 365:Source\azure_iot_sdk\iothub_client\src/iothub_message.c ****                     DestroyMessageData(result);
 1720              		.loc 1 365 0 is_stmt 1
 1721 0304 2800     		movs	r0, r5
 1722 0306 FFF7FEFF 		bl	DestroyMessageData
 1723              	.LVL271:
 366:Source\azure_iot_sdk\iothub_client\src/iothub_message.c ****                     result = NULL;
 1724              		.loc 1 366 0
 1725 030a 0025     		movs	r5, #0
 1726 030c 37E0     		b	.L80
 1727              	.L109:
 1728 030e C046     		.align	2
 1729              	.L108:
 1730 0310 98010000 		.word	.LC38
 1731 0314 00000000 		.word	.LANCHOR0
 1732 0318 00000000 		.word	.LC1
 1733 031c F8000000 		.word	.LC19
 1734 0320 E0010000 		.word	.LC41
 1735 0324 FC010000 		.word	.LC43
 1736 0328 1C020000 		.word	.LC45
 1737 032c 38020000 		.word	.LC47
 1738 0330 58020000 		.word	.LC49
 1739 0334 84020000 		.word	.LC51
 1740 0338 A0020000 		.word	.LC53
 1741 033c BC020000 		.word	.LC55
 1742 0340 D4020000 		.word	.LC57
 1743 0344 E8020000 		.word	.LC59
 1744              	.LVL272:
 1745              	.L104:
 367:Source\azure_iot_sdk\iothub_client\src/iothub_message.c ****                 }
 368:Source\azure_iot_sdk\iothub_client\src/iothub_message.c ****                 /*Codes_SRS_IOTHUBMESSAGE_02_005: [IoTHubMessage_Clone shall clone the properties m
 369:Source\azure_iot_sdk\iothub_client\src/iothub_message.c ****                 else if ((result->properties = Map_Clone(source->properties)) == NULL)
 1746              		.loc 1 369 0
 1747 0348 A068     		ldr	r0, [r4, #8]
 1748 034a FFF7FEFF 		bl	Map_Clone
 1749              	.LVL273:
 1750 034e A860     		str	r0, [r5, #8]
 1751 0350 0028     		cmp	r0, #0
 1752 0352 14D1     		bne	.L80
 1753              	.LBB32:
 370:Source\azure_iot_sdk\iothub_client\src/iothub_message.c ****                 {
 371:Source\azure_iot_sdk\iothub_client\src/iothub_message.c ****                     /*Codes_SRS_IOTHUBMESSAGE_03_004: [IoTHubMessage_Clone shall return NULL if it 
 372:Source\azure_iot_sdk\iothub_client\src/iothub_message.c ****                     LogError("unable to Map_Clone");
 1754              		.loc 1 372 0 discriminator 3
 1755 0354 FFF7FEFF 		bl	xlogging_get_log_function
 1756              	.LVL274:
 1757 0358 041E     		subs	r4, r0, #0
 1758              	.LVL275:
 1759 035a 0AD0     		beq	.L106
ARM GAS  C:\Users\Phuong\AppData\Local\Temp\cc4zbCpa.s 			page 39


 1760              		.loc 1 372 0 is_stmt 0 discriminator 4
 1761 035c 094B     		ldr	r3, .L110
 1762 035e 0193     		str	r3, [sp, #4]
 1763 0360 0123     		movs	r3, #1
 1764 0362 0093     		str	r3, [sp]
 1765 0364 7433     		adds	r3, r3, #116
 1766 0366 FF33     		adds	r3, r3, #255
 1767 0368 074A     		ldr	r2, .L110+4
 1768 036a 6032     		adds	r2, r2, #96
 1769 036c 0749     		ldr	r1, .L110+8
 1770 036e 0020     		movs	r0, #0
 1771              	.LVL276:
 1772 0370 A047     		blx	r4
 1773              	.LVL277:
 1774              	.L106:
 1775              	.LBE32:
 373:Source\azure_iot_sdk\iothub_client\src/iothub_message.c ****                     DestroyMessageData(result);
 1776              		.loc 1 373 0 is_stmt 1
 1777 0372 2800     		movs	r0, r5
 1778 0374 FFF7FEFF 		bl	DestroyMessageData
 1779              	.LVL278:
 374:Source\azure_iot_sdk\iothub_client\src/iothub_message.c ****                     result = NULL;
 1780              		.loc 1 374 0
 1781 0378 0025     		movs	r5, #0
 1782 037a 00E0     		b	.L80
 1783              	.LVL279:
 1784              	.L107:
 266:Source\azure_iot_sdk\iothub_client\src/iothub_message.c ****         LogError("iotHubMessageHandle parameter cannot be NULL for IoTHubMessage_Clone");
 1785              		.loc 1 266 0
 1786 037c 0025     		movs	r5, #0
 1787              	.LVL280:
 1788              	.L80:
 375:Source\azure_iot_sdk\iothub_client\src/iothub_message.c ****                 }
 376:Source\azure_iot_sdk\iothub_client\src/iothub_message.c ****             }
 377:Source\azure_iot_sdk\iothub_client\src/iothub_message.c ****         }
 378:Source\azure_iot_sdk\iothub_client\src/iothub_message.c ****     }
 379:Source\azure_iot_sdk\iothub_client\src/iothub_message.c ****     return result;
 380:Source\azure_iot_sdk\iothub_client\src/iothub_message.c **** }
 1789              		.loc 1 380 0
 1790 037e 2800     		movs	r0, r5
 1791 0380 03B0     		add	sp, sp, #12
 1792              		@ sp needed
 1793              	.LVL281:
 1794 0382 30BD     		pop	{r4, r5, pc}
 1795              	.L111:
 1796              		.align	2
 1797              	.L110:
 1798 0384 D4020000 		.word	.LC57
 1799 0388 00000000 		.word	.LANCHOR0
 1800 038c 00000000 		.word	.LC1
 1801              		.cfi_endproc
 1802              	.LFE12:
 1803              		.size	IoTHubMessage_Clone, .-IoTHubMessage_Clone
 1804              		.section	.text.IoTHubMessage_GetByteArray,"ax",%progbits
 1805              		.align	2
 1806              		.global	IoTHubMessage_GetByteArray
 1807              		.code	16
ARM GAS  C:\Users\Phuong\AppData\Local\Temp\cc4zbCpa.s 			page 40


 1808              		.thumb_func
 1809              		.type	IoTHubMessage_GetByteArray, %function
 1810              	IoTHubMessage_GetByteArray:
 1811              	.LFB13:
 381:Source\azure_iot_sdk\iothub_client\src/iothub_message.c **** 
 382:Source\azure_iot_sdk\iothub_client\src/iothub_message.c **** IOTHUB_MESSAGE_RESULT IoTHubMessage_GetByteArray(IOTHUB_MESSAGE_HANDLE iotHubMessageHandle, const u
 383:Source\azure_iot_sdk\iothub_client\src/iothub_message.c **** {
 1812              		.loc 1 383 0
 1813              		.cfi_startproc
 1814              		@ args = 0, pretend = 0, frame = 0
 1815              		@ frame_needed = 0, uses_anonymous_args = 0
 1816              	.LVL282:
 1817 0000 F0B5     		push	{r4, r5, r6, r7, lr}
 1818              		.cfi_def_cfa_offset 20
 1819              		.cfi_offset 4, -20
 1820              		.cfi_offset 5, -16
 1821              		.cfi_offset 6, -12
 1822              		.cfi_offset 7, -8
 1823              		.cfi_offset 14, -4
 1824 0002 87B0     		sub	sp, sp, #28
 1825              		.cfi_def_cfa_offset 48
 1826 0004 0400     		movs	r4, r0
 1827 0006 0D00     		movs	r5, r1
 1828 0008 1600     		movs	r6, r2
 384:Source\azure_iot_sdk\iothub_client\src/iothub_message.c ****     IOTHUB_MESSAGE_RESULT result;
 385:Source\azure_iot_sdk\iothub_client\src/iothub_message.c ****     if (
 1829              		.loc 1 385 0
 1830 000a 0028     		cmp	r0, #0
 1831 000c 03D0     		beq	.L113
 386:Source\azure_iot_sdk\iothub_client\src/iothub_message.c ****         (iotHubMessageHandle == NULL) ||
 1832              		.loc 1 386 0
 1833 000e 0029     		cmp	r1, #0
 1834 0010 01D0     		beq	.L113
 387:Source\azure_iot_sdk\iothub_client\src/iothub_message.c ****         (buffer == NULL) ||
 1835              		.loc 1 387 0
 1836 0012 002A     		cmp	r2, #0
 1837 0014 13D1     		bne	.L114
 1838              	.L113:
 1839              	.LBB33:
 388:Source\azure_iot_sdk\iothub_client\src/iothub_message.c ****         (size == NULL)
 389:Source\azure_iot_sdk\iothub_client\src/iothub_message.c ****         )
 390:Source\azure_iot_sdk\iothub_client\src/iothub_message.c ****     {
 391:Source\azure_iot_sdk\iothub_client\src/iothub_message.c ****         /*Codes_SRS_IOTHUBMESSAGE_01_014: [If any of the arguments passed to IoTHubMessage_GetByteA
 392:Source\azure_iot_sdk\iothub_client\src/iothub_message.c ****         LogError("invalid parameter (NULL) to IoTHubMessage_GetByteArray IOTHUB_MESSAGE_HANDLE iotH
 1840              		.loc 1 392 0 discriminator 3
 1841 0016 FFF7FEFF 		bl	xlogging_get_log_function
 1842              	.LVL283:
 1843 001a 071E     		subs	r7, r0, #0
 1844              	.LVL284:
 1845 001c 31D0     		beq	.L117
 1846              		.loc 1 392 0 is_stmt 0 discriminator 4
 1847 001e 0496     		str	r6, [sp, #16]
 1848 0020 0395     		str	r5, [sp, #12]
 1849 0022 0294     		str	r4, [sp, #8]
 1850 0024 194B     		ldr	r3, .L119
 1851 0026 0193     		str	r3, [sp, #4]
 1852 0028 0123     		movs	r3, #1
ARM GAS  C:\Users\Phuong\AppData\Local\Temp\cc4zbCpa.s 			page 41


 1853 002a 0093     		str	r3, [sp]
 1854 002c 8833     		adds	r3, r3, #136
 1855 002e FF33     		adds	r3, r3, #255
 1856 0030 174A     		ldr	r2, .L119+4
 1857 0032 7432     		adds	r2, r2, #116
 1858 0034 1749     		ldr	r1, .L119+8
 1859 0036 0020     		movs	r0, #0
 1860              	.LVL285:
 1861 0038 B847     		blx	r7
 1862              	.LVL286:
 1863              	.LBE33:
 393:Source\azure_iot_sdk\iothub_client\src/iothub_message.c ****         result = IOTHUB_MESSAGE_INVALID_ARG;
 1864              		.loc 1 393 0 is_stmt 1 discriminator 4
 1865 003a 0120     		movs	r0, #1
 1866 003c 24E0     		b	.L115
 1867              	.LVL287:
 1868              	.L114:
 1869              	.LBB34:
 394:Source\azure_iot_sdk\iothub_client\src/iothub_message.c ****     }
 395:Source\azure_iot_sdk\iothub_client\src/iothub_message.c ****     else
 396:Source\azure_iot_sdk\iothub_client\src/iothub_message.c ****     {
 397:Source\azure_iot_sdk\iothub_client\src/iothub_message.c ****         IOTHUB_MESSAGE_HANDLE_DATA* handleData = iotHubMessageHandle;
 398:Source\azure_iot_sdk\iothub_client\src/iothub_message.c ****         if (handleData->contentType != IOTHUBMESSAGE_BYTEARRAY)
 1870              		.loc 1 398 0
 1871 003e 0378     		ldrb	r3, [r0]
 1872 0040 002B     		cmp	r3, #0
 1873 0042 14D0     		beq	.L116
 1874              	.LVL288:
 1875              	.LBB35:
 399:Source\azure_iot_sdk\iothub_client\src/iothub_message.c ****         {
 400:Source\azure_iot_sdk\iothub_client\src/iothub_message.c ****             /*Codes_SRS_IOTHUBMESSAGE_02_021: [If iotHubMessageHandle is not a iothubmessage contai
 401:Source\azure_iot_sdk\iothub_client\src/iothub_message.c ****             result = IOTHUB_MESSAGE_INVALID_ARG;
 402:Source\azure_iot_sdk\iothub_client\src/iothub_message.c ****             LogError("invalid type of message %s", ENUM_TO_STRING(IOTHUBMESSAGE_CONTENT_TYPE, handl
 1876              		.loc 1 402 0
 1877 0044 FFF7FEFF 		bl	xlogging_get_log_function
 1878              	.LVL289:
 1879 0048 051E     		subs	r5, r0, #0
 1880              	.LVL290:
 1881 004a 1CD0     		beq	.L118
 1882              		.loc 1 402 0 is_stmt 0 discriminator 4
 1883 004c 2078     		ldrb	r0, [r4]
 1884              	.LVL291:
 1885 004e FFF7FEFF 		bl	IOTHUBMESSAGE_CONTENT_TYPEStrings
 1886              	.LVL292:
 1887 0052 0290     		str	r0, [sp, #8]
 1888 0054 104B     		ldr	r3, .L119+12
 1889 0056 0193     		str	r3, [sp, #4]
 1890 0058 0123     		movs	r3, #1
 1891 005a 0093     		str	r3, [sp]
 1892 005c 9233     		adds	r3, r3, #146
 1893 005e FF33     		adds	r3, r3, #255
 1894 0060 0B4A     		ldr	r2, .L119+4
 1895 0062 7432     		adds	r2, r2, #116
 1896 0064 0B49     		ldr	r1, .L119+8
 1897 0066 0020     		movs	r0, #0
 1898 0068 A847     		blx	r5
 1899              	.LVL293:
ARM GAS  C:\Users\Phuong\AppData\Local\Temp\cc4zbCpa.s 			page 42


 1900              	.LBE35:
 401:Source\azure_iot_sdk\iothub_client\src/iothub_message.c ****             LogError("invalid type of message %s", ENUM_TO_STRING(IOTHUBMESSAGE_CONTENT_TYPE, handl
 1901              		.loc 1 401 0 is_stmt 1 discriminator 4
 1902 006a 0120     		movs	r0, #1
 1903 006c 0CE0     		b	.L115
 1904              	.LVL294:
 1905              	.L116:
 403:Source\azure_iot_sdk\iothub_client\src/iothub_message.c ****         }
 404:Source\azure_iot_sdk\iothub_client\src/iothub_message.c ****         else
 405:Source\azure_iot_sdk\iothub_client\src/iothub_message.c ****         {
 406:Source\azure_iot_sdk\iothub_client\src/iothub_message.c ****             /*Codes_SRS_IOTHUBMESSAGE_01_011: [The pointer shall be obtained by using BUFFER_u_char
 407:Source\azure_iot_sdk\iothub_client\src/iothub_message.c ****             *buffer = BUFFER_u_char(handleData->value.byteArray);
 1906              		.loc 1 407 0
 1907 006e 4068     		ldr	r0, [r0, #4]
 1908              	.LVL295:
 1909 0070 FFF7FEFF 		bl	BUFFER_u_char
 1910              	.LVL296:
 1911 0074 2860     		str	r0, [r5]
 408:Source\azure_iot_sdk\iothub_client\src/iothub_message.c ****             /*Codes_SRS_IOTHUBMESSAGE_01_012: [The size of the associated data shall be obtained by
 409:Source\azure_iot_sdk\iothub_client\src/iothub_message.c ****             *size = BUFFER_length(handleData->value.byteArray);
 1912              		.loc 1 409 0
 1913 0076 6068     		ldr	r0, [r4, #4]
 1914 0078 FFF7FEFF 		bl	BUFFER_length
 1915              	.LVL297:
 1916 007c 3060     		str	r0, [r6]
 1917              	.LVL298:
 410:Source\azure_iot_sdk\iothub_client\src/iothub_message.c ****             result = IOTHUB_MESSAGE_OK;
 1918              		.loc 1 410 0
 1919 007e 0020     		movs	r0, #0
 1920 0080 02E0     		b	.L115
 1921              	.LVL299:
 1922              	.L117:
 1923              	.LBE34:
 393:Source\azure_iot_sdk\iothub_client\src/iothub_message.c ****     }
 1924              		.loc 1 393 0
 1925 0082 0120     		movs	r0, #1
 1926              	.LVL300:
 1927 0084 00E0     		b	.L115
 1928              	.LVL301:
 1929              	.L118:
 1930              	.LBB36:
 401:Source\azure_iot_sdk\iothub_client\src/iothub_message.c ****             LogError("invalid type of message %s", ENUM_TO_STRING(IOTHUBMESSAGE_CONTENT_TYPE, handl
 1931              		.loc 1 401 0
 1932 0086 0120     		movs	r0, #1
 1933              	.LVL302:
 1934              	.L115:
 1935              	.LBE36:
 411:Source\azure_iot_sdk\iothub_client\src/iothub_message.c ****         }
 412:Source\azure_iot_sdk\iothub_client\src/iothub_message.c ****     }
 413:Source\azure_iot_sdk\iothub_client\src/iothub_message.c ****     return result;
 414:Source\azure_iot_sdk\iothub_client\src/iothub_message.c **** }
 1936              		.loc 1 414 0
 1937 0088 07B0     		add	sp, sp, #28
 1938              		@ sp needed
 1939              	.LVL303:
 1940              	.LVL304:
 1941 008a F0BD     		pop	{r4, r5, r6, r7, pc}
ARM GAS  C:\Users\Phuong\AppData\Local\Temp\cc4zbCpa.s 			page 43


 1942              	.L120:
 1943              		.align	2
 1944              	.L119:
 1945 008c 00030000 		.word	.LC63
 1946 0090 00000000 		.word	.LANCHOR0
 1947 0094 00000000 		.word	.LC1
 1948 0098 98030000 		.word	.LC65
 1949              		.cfi_endproc
 1950              	.LFE13:
 1951              		.size	IoTHubMessage_GetByteArray, .-IoTHubMessage_GetByteArray
 1952              		.section	.text.IoTHubMessage_GetString,"ax",%progbits
 1953              		.align	2
 1954              		.global	IoTHubMessage_GetString
 1955              		.code	16
 1956              		.thumb_func
 1957              		.type	IoTHubMessage_GetString, %function
 1958              	IoTHubMessage_GetString:
 1959              	.LFB14:
 415:Source\azure_iot_sdk\iothub_client\src/iothub_message.c **** 
 416:Source\azure_iot_sdk\iothub_client\src/iothub_message.c **** const char* IoTHubMessage_GetString(IOTHUB_MESSAGE_HANDLE iotHubMessageHandle)
 417:Source\azure_iot_sdk\iothub_client\src/iothub_message.c **** {
 1960              		.loc 1 417 0
 1961              		.cfi_startproc
 1962              		@ args = 0, pretend = 0, frame = 0
 1963              		@ frame_needed = 0, uses_anonymous_args = 0
 1964              	.LVL305:
 1965 0000 10B5     		push	{r4, lr}
 1966              		.cfi_def_cfa_offset 8
 1967              		.cfi_offset 4, -8
 1968              		.cfi_offset 14, -4
 418:Source\azure_iot_sdk\iothub_client\src/iothub_message.c ****     const char* result;
 419:Source\azure_iot_sdk\iothub_client\src/iothub_message.c ****     if (iotHubMessageHandle == NULL)
 1969              		.loc 1 419 0
 1970 0002 0028     		cmp	r0, #0
 1971 0004 06D0     		beq	.L123
 1972              	.LVL306:
 1973              	.LBB37:
 420:Source\azure_iot_sdk\iothub_client\src/iothub_message.c ****     {
 421:Source\azure_iot_sdk\iothub_client\src/iothub_message.c ****         /*Codes_SRS_IOTHUBMESSAGE_02_016: [If any parameter is NULL then IoTHubMessage_GetString  s
 422:Source\azure_iot_sdk\iothub_client\src/iothub_message.c ****         result = NULL;
 423:Source\azure_iot_sdk\iothub_client\src/iothub_message.c ****     }
 424:Source\azure_iot_sdk\iothub_client\src/iothub_message.c ****     else
 425:Source\azure_iot_sdk\iothub_client\src/iothub_message.c ****     {
 426:Source\azure_iot_sdk\iothub_client\src/iothub_message.c ****         IOTHUB_MESSAGE_HANDLE_DATA* handleData = iotHubMessageHandle;
 427:Source\azure_iot_sdk\iothub_client\src/iothub_message.c ****         if (handleData->contentType != IOTHUBMESSAGE_STRING)
 1974              		.loc 1 427 0
 1975 0006 0378     		ldrb	r3, [r0]
 1976 0008 012B     		cmp	r3, #1
 1977 000a 05D1     		bne	.L124
 428:Source\azure_iot_sdk\iothub_client\src/iothub_message.c ****         {
 429:Source\azure_iot_sdk\iothub_client\src/iothub_message.c ****             /*Codes_SRS_IOTHUBMESSAGE_02_017: [IoTHubMessage_GetString shall return NULL if the iot
 430:Source\azure_iot_sdk\iothub_client\src/iothub_message.c ****             result = NULL;
 431:Source\azure_iot_sdk\iothub_client\src/iothub_message.c ****         }
 432:Source\azure_iot_sdk\iothub_client\src/iothub_message.c ****         else
 433:Source\azure_iot_sdk\iothub_client\src/iothub_message.c ****         {
 434:Source\azure_iot_sdk\iothub_client\src/iothub_message.c ****             /*Codes_SRS_IOTHUBMESSAGE_02_018: [IoTHubMessage_GetStringData shall return the current
 435:Source\azure_iot_sdk\iothub_client\src/iothub_message.c ****             result = STRING_c_str(handleData->value.string);
ARM GAS  C:\Users\Phuong\AppData\Local\Temp\cc4zbCpa.s 			page 44


 1978              		.loc 1 435 0
 1979 000c 4068     		ldr	r0, [r0, #4]
 1980              	.LVL307:
 1981 000e FFF7FEFF 		bl	STRING_c_str
 1982              	.LVL308:
 1983 0012 02E0     		b	.L122
 1984              	.LVL309:
 1985              	.L123:
 1986              	.LBE37:
 422:Source\azure_iot_sdk\iothub_client\src/iothub_message.c ****     }
 1987              		.loc 1 422 0
 1988 0014 0020     		movs	r0, #0
 1989              	.LVL310:
 1990 0016 00E0     		b	.L122
 1991              	.LVL311:
 1992              	.L124:
 1993              	.LBB38:
 430:Source\azure_iot_sdk\iothub_client\src/iothub_message.c ****         }
 1994              		.loc 1 430 0
 1995 0018 0020     		movs	r0, #0
 1996              	.LVL312:
 1997              	.L122:
 1998              	.LBE38:
 436:Source\azure_iot_sdk\iothub_client\src/iothub_message.c ****         }
 437:Source\azure_iot_sdk\iothub_client\src/iothub_message.c ****     }
 438:Source\azure_iot_sdk\iothub_client\src/iothub_message.c ****     return result;
 439:Source\azure_iot_sdk\iothub_client\src/iothub_message.c **** }
 1999              		.loc 1 439 0
 2000              		@ sp needed
 2001 001a 10BD     		pop	{r4, pc}
 2002              		.cfi_endproc
 2003              	.LFE14:
 2004              		.size	IoTHubMessage_GetString, .-IoTHubMessage_GetString
 2005              		.section	.text.IoTHubMessage_GetContentType,"ax",%progbits
 2006              		.align	2
 2007              		.global	IoTHubMessage_GetContentType
 2008              		.code	16
 2009              		.thumb_func
 2010              		.type	IoTHubMessage_GetContentType, %function
 2011              	IoTHubMessage_GetContentType:
 2012              	.LFB15:
 440:Source\azure_iot_sdk\iothub_client\src/iothub_message.c **** 
 441:Source\azure_iot_sdk\iothub_client\src/iothub_message.c **** IOTHUBMESSAGE_CONTENT_TYPE IoTHubMessage_GetContentType(IOTHUB_MESSAGE_HANDLE iotHubMessageHandle)
 442:Source\azure_iot_sdk\iothub_client\src/iothub_message.c **** {
 2013              		.loc 1 442 0
 2014              		.cfi_startproc
 2015              		@ args = 0, pretend = 0, frame = 0
 2016              		@ frame_needed = 0, uses_anonymous_args = 0
 2017              		@ link register save eliminated.
 2018              	.LVL313:
 443:Source\azure_iot_sdk\iothub_client\src/iothub_message.c ****     IOTHUBMESSAGE_CONTENT_TYPE result;
 444:Source\azure_iot_sdk\iothub_client\src/iothub_message.c ****     /*Codes_SRS_IOTHUBMESSAGE_02_008: [If any parameter is NULL then IoTHubMessage_GetContentType s
 445:Source\azure_iot_sdk\iothub_client\src/iothub_message.c ****     if (iotHubMessageHandle == NULL)
 2019              		.loc 1 445 0
 2020 0000 0028     		cmp	r0, #0
 2021 0002 01D0     		beq	.L127
 2022              	.LVL314:
ARM GAS  C:\Users\Phuong\AppData\Local\Temp\cc4zbCpa.s 			page 45


 2023              	.LBB39:
 446:Source\azure_iot_sdk\iothub_client\src/iothub_message.c ****     {
 447:Source\azure_iot_sdk\iothub_client\src/iothub_message.c ****         result = IOTHUBMESSAGE_UNKNOWN;
 448:Source\azure_iot_sdk\iothub_client\src/iothub_message.c ****     }
 449:Source\azure_iot_sdk\iothub_client\src/iothub_message.c ****     else
 450:Source\azure_iot_sdk\iothub_client\src/iothub_message.c ****     {
 451:Source\azure_iot_sdk\iothub_client\src/iothub_message.c ****         /*Codes_SRS_IOTHUBMESSAGE_02_009: [Otherwise IoTHubMessage_GetContentType shall return the 
 452:Source\azure_iot_sdk\iothub_client\src/iothub_message.c ****         IOTHUB_MESSAGE_HANDLE_DATA* handleData = iotHubMessageHandle;
 453:Source\azure_iot_sdk\iothub_client\src/iothub_message.c ****         result = handleData->contentType;
 2024              		.loc 1 453 0
 2025 0004 0078     		ldrb	r0, [r0]
 2026              	.LVL315:
 2027 0006 00E0     		b	.L126
 2028              	.LVL316:
 2029              	.L127:
 2030              	.LBE39:
 447:Source\azure_iot_sdk\iothub_client\src/iothub_message.c ****     }
 2031              		.loc 1 447 0
 2032 0008 0220     		movs	r0, #2
 2033              	.LVL317:
 2034              	.L126:
 454:Source\azure_iot_sdk\iothub_client\src/iothub_message.c ****     }
 455:Source\azure_iot_sdk\iothub_client\src/iothub_message.c ****     return result;
 456:Source\azure_iot_sdk\iothub_client\src/iothub_message.c **** }
 2035              		.loc 1 456 0
 2036              		@ sp needed
 2037 000a 7047     		bx	lr
 2038              		.cfi_endproc
 2039              	.LFE15:
 2040              		.size	IoTHubMessage_GetContentType, .-IoTHubMessage_GetContentType
 2041              		.section	.text.IoTHubMessage_Properties,"ax",%progbits
 2042              		.align	2
 2043              		.global	IoTHubMessage_Properties
 2044              		.code	16
 2045              		.thumb_func
 2046              		.type	IoTHubMessage_Properties, %function
 2047              	IoTHubMessage_Properties:
 2048              	.LFB16:
 457:Source\azure_iot_sdk\iothub_client\src/iothub_message.c **** 
 458:Source\azure_iot_sdk\iothub_client\src/iothub_message.c **** MAP_HANDLE IoTHubMessage_Properties(IOTHUB_MESSAGE_HANDLE iotHubMessageHandle)
 459:Source\azure_iot_sdk\iothub_client\src/iothub_message.c **** {
 2049              		.loc 1 459 0
 2050              		.cfi_startproc
 2051              		@ args = 0, pretend = 0, frame = 0
 2052              		@ frame_needed = 0, uses_anonymous_args = 0
 2053              	.LVL318:
 2054 0000 10B5     		push	{r4, lr}
 2055              		.cfi_def_cfa_offset 8
 2056              		.cfi_offset 4, -8
 2057              		.cfi_offset 14, -4
 2058 0002 82B0     		sub	sp, sp, #8
 2059              		.cfi_def_cfa_offset 16
 460:Source\azure_iot_sdk\iothub_client\src/iothub_message.c ****     MAP_HANDLE result;
 461:Source\azure_iot_sdk\iothub_client\src/iothub_message.c ****     /*Codes_SRS_IOTHUBMESSAGE_02_001: [If iotHubMessageHandle is NULL then IoTHubMessage_Properties
 462:Source\azure_iot_sdk\iothub_client\src/iothub_message.c ****     if (iotHubMessageHandle == NULL)
 2060              		.loc 1 462 0
 2061 0004 0028     		cmp	r0, #0
ARM GAS  C:\Users\Phuong\AppData\Local\Temp\cc4zbCpa.s 			page 46


 2062 0006 10D1     		bne	.L129
 2063              	.LBB40:
 463:Source\azure_iot_sdk\iothub_client\src/iothub_message.c ****     {
 464:Source\azure_iot_sdk\iothub_client\src/iothub_message.c ****         LogError("invalid arg (NULL) passed to IoTHubMessage_Properties");
 2064              		.loc 1 464 0 discriminator 3
 2065 0008 FFF7FEFF 		bl	xlogging_get_log_function
 2066              	.LVL319:
 2067 000c 041E     		subs	r4, r0, #0
 2068              	.LVL320:
 2069 000e 0ED0     		beq	.L131
 2070              		.loc 1 464 0 is_stmt 0 discriminator 4
 2071 0010 084B     		ldr	r3, .L132
 2072 0012 0193     		str	r3, [sp, #4]
 2073 0014 0123     		movs	r3, #1
 2074 0016 0093     		str	r3, [sp]
 2075 0018 D033     		adds	r3, r3, #208
 2076 001a FF33     		adds	r3, r3, #255
 2077 001c 064A     		ldr	r2, .L132+4
 2078 001e 1032     		adds	r2, r2, #16
 2079 0020 0649     		ldr	r1, .L132+8
 2080 0022 0020     		movs	r0, #0
 2081              	.LVL321:
 2082 0024 A047     		blx	r4
 2083              	.LVL322:
 2084              	.LBE40:
 465:Source\azure_iot_sdk\iothub_client\src/iothub_message.c ****         result = NULL;
 2085              		.loc 1 465 0 is_stmt 1 discriminator 4
 2086 0026 0020     		movs	r0, #0
 2087 0028 02E0     		b	.L130
 2088              	.LVL323:
 2089              	.L129:
 2090              	.LBB41:
 466:Source\azure_iot_sdk\iothub_client\src/iothub_message.c ****     }
 467:Source\azure_iot_sdk\iothub_client\src/iothub_message.c ****     else
 468:Source\azure_iot_sdk\iothub_client\src/iothub_message.c ****     {
 469:Source\azure_iot_sdk\iothub_client\src/iothub_message.c ****         /*Codes_SRS_IOTHUBMESSAGE_02_002: [Otherwise, for any non-NULL iotHubMessageHandle it shall
 470:Source\azure_iot_sdk\iothub_client\src/iothub_message.c ****         IOTHUB_MESSAGE_HANDLE_DATA* handleData = (IOTHUB_MESSAGE_HANDLE_DATA*)iotHubMessageHandle;
 471:Source\azure_iot_sdk\iothub_client\src/iothub_message.c ****         result = handleData->properties;
 2091              		.loc 1 471 0
 2092 002a 8068     		ldr	r0, [r0, #8]
 2093              	.LVL324:
 2094 002c 00E0     		b	.L130
 2095              	.LVL325:
 2096              	.L131:
 2097              	.LBE41:
 465:Source\azure_iot_sdk\iothub_client\src/iothub_message.c ****         result = NULL;
 2098              		.loc 1 465 0
 2099 002e 0020     		movs	r0, #0
 2100              	.LVL326:
 2101              	.L130:
 472:Source\azure_iot_sdk\iothub_client\src/iothub_message.c ****     }
 473:Source\azure_iot_sdk\iothub_client\src/iothub_message.c ****     return result;
 474:Source\azure_iot_sdk\iothub_client\src/iothub_message.c **** }
 2102              		.loc 1 474 0
 2103 0030 02B0     		add	sp, sp, #8
 2104              		@ sp needed
 2105 0032 10BD     		pop	{r4, pc}
ARM GAS  C:\Users\Phuong\AppData\Local\Temp\cc4zbCpa.s 			page 47


 2106              	.L133:
 2107              		.align	2
 2108              	.L132:
 2109 0034 B4030000 		.word	.LC69
 2110 0038 80000000 		.word	.LANCHOR2
 2111 003c 00000000 		.word	.LC1
 2112              		.cfi_endproc
 2113              	.LFE16:
 2114              		.size	IoTHubMessage_Properties, .-IoTHubMessage_Properties
 2115              		.section	.text.IoTHubMessage_SetProperty,"ax",%progbits
 2116              		.align	2
 2117              		.global	IoTHubMessage_SetProperty
 2118              		.code	16
 2119              		.thumb_func
 2120              		.type	IoTHubMessage_SetProperty, %function
 2121              	IoTHubMessage_SetProperty:
 2122              	.LFB17:
 475:Source\azure_iot_sdk\iothub_client\src/iothub_message.c **** 
 476:Source\azure_iot_sdk\iothub_client\src/iothub_message.c **** IOTHUB_MESSAGE_RESULT IoTHubMessage_SetProperty(IOTHUB_MESSAGE_HANDLE msg_handle, const char* key, 
 477:Source\azure_iot_sdk\iothub_client\src/iothub_message.c **** {
 2123              		.loc 1 477 0
 2124              		.cfi_startproc
 2125              		@ args = 0, pretend = 0, frame = 0
 2126              		@ frame_needed = 0, uses_anonymous_args = 0
 2127              	.LVL327:
 2128 0000 F0B5     		push	{r4, r5, r6, r7, lr}
 2129              		.cfi_def_cfa_offset 20
 2130              		.cfi_offset 4, -20
 2131              		.cfi_offset 5, -16
 2132              		.cfi_offset 6, -12
 2133              		.cfi_offset 7, -8
 2134              		.cfi_offset 14, -4
 2135 0002 87B0     		sub	sp, sp, #28
 2136              		.cfi_def_cfa_offset 48
 2137 0004 0400     		movs	r4, r0
 2138 0006 0D00     		movs	r5, r1
 2139 0008 1600     		movs	r6, r2
 478:Source\azure_iot_sdk\iothub_client\src/iothub_message.c ****     IOTHUB_MESSAGE_RESULT result;
 479:Source\azure_iot_sdk\iothub_client\src/iothub_message.c ****     if (msg_handle == NULL || key == NULL || value == NULL)
 2140              		.loc 1 479 0
 2141 000a 0028     		cmp	r0, #0
 2142 000c 03D0     		beq	.L135
 2143              		.loc 1 479 0 is_stmt 0 discriminator 1
 2144 000e 0029     		cmp	r1, #0
 2145 0010 01D0     		beq	.L135
 2146              		.loc 1 479 0 discriminator 2
 2147 0012 002A     		cmp	r2, #0
 2148 0014 13D1     		bne	.L136
 2149              	.L135:
 2150              	.LBB42:
 480:Source\azure_iot_sdk\iothub_client\src/iothub_message.c ****     {
 481:Source\azure_iot_sdk\iothub_client\src/iothub_message.c ****         LogError("invalid parameter (NULL) to IoTHubMessage_SetProperty iotHubMessageHandle=%p, key
 2151              		.loc 1 481 0 is_stmt 1 discriminator 3
 2152 0016 FFF7FEFF 		bl	xlogging_get_log_function
 2153              	.LVL328:
 2154 001a 071E     		subs	r7, r0, #0
 2155              	.LVL329:
ARM GAS  C:\Users\Phuong\AppData\Local\Temp\cc4zbCpa.s 			page 48


 2156 001c 25D0     		beq	.L138
 2157              		.loc 1 481 0 is_stmt 0 discriminator 4
 2158 001e 0496     		str	r6, [sp, #16]
 2159 0020 0395     		str	r5, [sp, #12]
 2160 0022 0294     		str	r4, [sp, #8]
 2161 0024 144B     		ldr	r3, .L141
 2162 0026 0193     		str	r3, [sp, #4]
 2163 0028 0123     		movs	r3, #1
 2164 002a 0093     		str	r3, [sp]
 2165 002c E223     		movs	r3, #226
 2166 002e FF33     		adds	r3, r3, #255
 2167 0030 124A     		ldr	r2, .L141+4
 2168 0032 2C32     		adds	r2, r2, #44
 2169 0034 1249     		ldr	r1, .L141+8
 2170 0036 0020     		movs	r0, #0
 2171              	.LVL330:
 2172 0038 B847     		blx	r7
 2173              	.LVL331:
 2174              	.LBE42:
 482:Source\azure_iot_sdk\iothub_client\src/iothub_message.c ****         result = IOTHUB_MESSAGE_INVALID_ARG;
 2175              		.loc 1 482 0 is_stmt 1 discriminator 4
 2176 003a 0120     		movs	r0, #1
 2177 003c 1AE0     		b	.L137
 2178              	.LVL332:
 2179              	.L136:
 483:Source\azure_iot_sdk\iothub_client\src/iothub_message.c ****     }
 484:Source\azure_iot_sdk\iothub_client\src/iothub_message.c ****     else
 485:Source\azure_iot_sdk\iothub_client\src/iothub_message.c ****     {
 486:Source\azure_iot_sdk\iothub_client\src/iothub_message.c ****         if (Map_AddOrUpdate(msg_handle->properties, key, value) != MAP_OK)
 2180              		.loc 1 486 0
 2181 003e 8068     		ldr	r0, [r0, #8]
 2182              	.LVL333:
 2183 0040 FFF7FEFF 		bl	Map_AddOrUpdate
 2184              	.LVL334:
 2185 0044 0028     		cmp	r0, #0
 2186 0046 12D0     		beq	.L139
 2187              	.LBB43:
 487:Source\azure_iot_sdk\iothub_client\src/iothub_message.c ****         {
 488:Source\azure_iot_sdk\iothub_client\src/iothub_message.c ****             LogError("Failure adding property to internal map");
 2188              		.loc 1 488 0 discriminator 3
 2189 0048 FFF7FEFF 		bl	xlogging_get_log_function
 2190              	.LVL335:
 2191 004c 041E     		subs	r4, r0, #0
 2192              	.LVL336:
 2193 004e 10D0     		beq	.L140
 2194              		.loc 1 488 0 is_stmt 0 discriminator 4
 2195 0050 0C4B     		ldr	r3, .L141+12
 2196 0052 0193     		str	r3, [sp, #4]
 2197 0054 0123     		movs	r3, #1
 2198 0056 0093     		str	r3, [sp]
 2199 0058 E833     		adds	r3, r3, #232
 2200 005a FF33     		adds	r3, r3, #255
 2201 005c 074A     		ldr	r2, .L141+4
 2202 005e 2C32     		adds	r2, r2, #44
 2203 0060 0749     		ldr	r1, .L141+8
 2204 0062 0020     		movs	r0, #0
 2205              	.LVL337:
ARM GAS  C:\Users\Phuong\AppData\Local\Temp\cc4zbCpa.s 			page 49


 2206 0064 A047     		blx	r4
 2207              	.LVL338:
 2208              	.LBE43:
 489:Source\azure_iot_sdk\iothub_client\src/iothub_message.c ****             result = IOTHUB_MESSAGE_ERROR;
 2209              		.loc 1 489 0 is_stmt 1 discriminator 4
 2210 0066 0320     		movs	r0, #3
 2211 0068 04E0     		b	.L137
 2212              	.LVL339:
 2213              	.L138:
 482:Source\azure_iot_sdk\iothub_client\src/iothub_message.c ****     }
 2214              		.loc 1 482 0
 2215 006a 0120     		movs	r0, #1
 2216              	.LVL340:
 2217 006c 02E0     		b	.L137
 2218              	.LVL341:
 2219              	.L139:
 490:Source\azure_iot_sdk\iothub_client\src/iothub_message.c ****         }
 491:Source\azure_iot_sdk\iothub_client\src/iothub_message.c ****         else
 492:Source\azure_iot_sdk\iothub_client\src/iothub_message.c ****         {
 493:Source\azure_iot_sdk\iothub_client\src/iothub_message.c ****             result = IOTHUB_MESSAGE_OK;
 2220              		.loc 1 493 0
 2221 006e 0020     		movs	r0, #0
 2222 0070 00E0     		b	.L137
 2223              	.LVL342:
 2224              	.L140:
 489:Source\azure_iot_sdk\iothub_client\src/iothub_message.c ****         }
 2225              		.loc 1 489 0
 2226 0072 0320     		movs	r0, #3
 2227              	.LVL343:
 2228              	.L137:
 494:Source\azure_iot_sdk\iothub_client\src/iothub_message.c ****         }
 495:Source\azure_iot_sdk\iothub_client\src/iothub_message.c ****     }
 496:Source\azure_iot_sdk\iothub_client\src/iothub_message.c ****     return result;
 497:Source\azure_iot_sdk\iothub_client\src/iothub_message.c **** }
 2229              		.loc 1 497 0
 2230 0074 07B0     		add	sp, sp, #28
 2231              		@ sp needed
 2232              	.LVL344:
 2233              	.LVL345:
 2234 0076 F0BD     		pop	{r4, r5, r6, r7, pc}
 2235              	.L142:
 2236              		.align	2
 2237              	.L141:
 2238 0078 EC030000 		.word	.LC73
 2239 007c 80000000 		.word	.LANCHOR2
 2240 0080 00000000 		.word	.LC1
 2241 0084 4C040000 		.word	.LC75
 2242              		.cfi_endproc
 2243              	.LFE17:
 2244              		.size	IoTHubMessage_SetProperty, .-IoTHubMessage_SetProperty
 2245              		.section	.text.IoTHubMessage_GetProperty,"ax",%progbits
 2246              		.align	2
 2247              		.global	IoTHubMessage_GetProperty
 2248              		.code	16
 2249              		.thumb_func
 2250              		.type	IoTHubMessage_GetProperty, %function
 2251              	IoTHubMessage_GetProperty:
ARM GAS  C:\Users\Phuong\AppData\Local\Temp\cc4zbCpa.s 			page 50


 2252              	.LFB18:
 498:Source\azure_iot_sdk\iothub_client\src/iothub_message.c **** 
 499:Source\azure_iot_sdk\iothub_client\src/iothub_message.c **** const char* IoTHubMessage_GetProperty(IOTHUB_MESSAGE_HANDLE msg_handle, const char* key)
 500:Source\azure_iot_sdk\iothub_client\src/iothub_message.c **** {
 2253              		.loc 1 500 0
 2254              		.cfi_startproc
 2255              		@ args = 0, pretend = 0, frame = 8
 2256              		@ frame_needed = 0, uses_anonymous_args = 0
 2257              	.LVL346:
 2258 0000 70B5     		push	{r4, r5, r6, lr}
 2259              		.cfi_def_cfa_offset 16
 2260              		.cfi_offset 4, -16
 2261              		.cfi_offset 5, -12
 2262              		.cfi_offset 6, -8
 2263              		.cfi_offset 14, -4
 2264 0002 86B0     		sub	sp, sp, #24
 2265              		.cfi_def_cfa_offset 40
 2266 0004 0400     		movs	r4, r0
 2267 0006 0D00     		movs	r5, r1
 501:Source\azure_iot_sdk\iothub_client\src/iothub_message.c ****     const char* result;
 502:Source\azure_iot_sdk\iothub_client\src/iothub_message.c ****     if (msg_handle == NULL || key == NULL)
 2268              		.loc 1 502 0
 2269 0008 0028     		cmp	r0, #0
 2270 000a 01D0     		beq	.L144
 2271              		.loc 1 502 0 is_stmt 0 discriminator 1
 2272 000c 0029     		cmp	r1, #0
 2273 000e 12D1     		bne	.L145
 2274              	.L144:
 2275              	.LBB44:
 503:Source\azure_iot_sdk\iothub_client\src/iothub_message.c ****     {
 504:Source\azure_iot_sdk\iothub_client\src/iothub_message.c ****         LogError("invalid parameter (NULL) to IoTHubMessage_GetProperty iotHubMessageHandle=%p, key
 2276              		.loc 1 504 0 is_stmt 1 discriminator 3
 2277 0010 FFF7FEFF 		bl	xlogging_get_log_function
 2278              	.LVL347:
 2279 0014 061E     		subs	r6, r0, #0
 2280              	.LVL348:
 2281 0016 25D0     		beq	.L148
 2282              		.loc 1 504 0 is_stmt 0 discriminator 4
 2283 0018 0395     		str	r5, [sp, #12]
 2284 001a 0294     		str	r4, [sp, #8]
 2285 001c 134B     		ldr	r3, .L151
 2286 001e 0193     		str	r3, [sp, #4]
 2287 0020 0123     		movs	r3, #1
 2288 0022 0093     		str	r3, [sp]
 2289 0024 F833     		adds	r3, r3, #248
 2290 0026 FF33     		adds	r3, r3, #255
 2291 0028 114A     		ldr	r2, .L151+4
 2292 002a 4832     		adds	r2, r2, #72
 2293 002c 1149     		ldr	r1, .L151+8
 2294 002e 0020     		movs	r0, #0
 2295              	.LVL349:
 2296 0030 B047     		blx	r6
 2297              	.LVL350:
 2298              	.LBE44:
 505:Source\azure_iot_sdk\iothub_client\src/iothub_message.c ****         result = NULL;
 2299              		.loc 1 505 0 is_stmt 1 discriminator 4
 2300 0032 0020     		movs	r0, #0
ARM GAS  C:\Users\Phuong\AppData\Local\Temp\cc4zbCpa.s 			page 51


 2301 0034 17E0     		b	.L146
 2302              	.LVL351:
 2303              	.L145:
 2304              	.LBB45:
 506:Source\azure_iot_sdk\iothub_client\src/iothub_message.c ****     }
 507:Source\azure_iot_sdk\iothub_client\src/iothub_message.c ****     else
 508:Source\azure_iot_sdk\iothub_client\src/iothub_message.c ****     {
 509:Source\azure_iot_sdk\iothub_client\src/iothub_message.c ****         bool key_exists = false;
 2305              		.loc 1 509 0
 2306 0036 1722     		movs	r2, #23
 2307 0038 6A44     		add	r2, r2, sp
 2308 003a 0023     		movs	r3, #0
 2309 003c 1370     		strb	r3, [r2]
 510:Source\azure_iot_sdk\iothub_client\src/iothub_message.c ****         // The return value is not neccessary, just check the key_exist variable
 511:Source\azure_iot_sdk\iothub_client\src/iothub_message.c ****         if ((Map_ContainsKey(msg_handle->properties, key, &key_exists) == MAP_OK) && key_exists)
 2310              		.loc 1 511 0
 2311 003e 8068     		ldr	r0, [r0, #8]
 2312              	.LVL352:
 2313 0040 FFF7FEFF 		bl	Map_ContainsKey
 2314              	.LVL353:
 2315 0044 0028     		cmp	r0, #0
 2316 0046 09D1     		bne	.L149
 2317              		.loc 1 511 0 is_stmt 0 discriminator 1
 2318 0048 1723     		movs	r3, #23
 2319 004a 6B44     		add	r3, r3, sp
 2320 004c 1B78     		ldrb	r3, [r3]
 2321 004e 002B     		cmp	r3, #0
 2322 0050 06D0     		beq	.L150
 512:Source\azure_iot_sdk\iothub_client\src/iothub_message.c ****         {
 513:Source\azure_iot_sdk\iothub_client\src/iothub_message.c ****             result = Map_GetValueFromKey(msg_handle->properties, key);
 2323              		.loc 1 513 0 is_stmt 1
 2324 0052 A068     		ldr	r0, [r4, #8]
 2325 0054 2900     		movs	r1, r5
 2326 0056 FFF7FEFF 		bl	Map_GetValueFromKey
 2327              	.LVL354:
 2328 005a 04E0     		b	.L146
 2329              	.LVL355:
 2330              	.L149:
 514:Source\azure_iot_sdk\iothub_client\src/iothub_message.c ****         }
 515:Source\azure_iot_sdk\iothub_client\src/iothub_message.c ****         else
 516:Source\azure_iot_sdk\iothub_client\src/iothub_message.c ****         {
 517:Source\azure_iot_sdk\iothub_client\src/iothub_message.c ****             result = NULL;
 2331              		.loc 1 517 0
 2332 005c 0020     		movs	r0, #0
 2333 005e 02E0     		b	.L146
 2334              	.L150:
 2335 0060 0020     		movs	r0, #0
 2336              	.LVL356:
 2337 0062 00E0     		b	.L146
 2338              	.LVL357:
 2339              	.L148:
 2340              	.LBE45:
 505:Source\azure_iot_sdk\iothub_client\src/iothub_message.c ****     }
 2341              		.loc 1 505 0
 2342 0064 0020     		movs	r0, #0
 2343              	.LVL358:
 2344              	.L146:
ARM GAS  C:\Users\Phuong\AppData\Local\Temp\cc4zbCpa.s 			page 52


 518:Source\azure_iot_sdk\iothub_client\src/iothub_message.c ****         }
 519:Source\azure_iot_sdk\iothub_client\src/iothub_message.c ****     }
 520:Source\azure_iot_sdk\iothub_client\src/iothub_message.c ****     return result;
 521:Source\azure_iot_sdk\iothub_client\src/iothub_message.c **** }
 2345              		.loc 1 521 0
 2346 0066 06B0     		add	sp, sp, #24
 2347              		@ sp needed
 2348              	.LVL359:
 2349              	.LVL360:
 2350 0068 70BD     		pop	{r4, r5, r6, pc}
 2351              	.L152:
 2352 006a C046     		.align	2
 2353              	.L151:
 2354 006c 74040000 		.word	.LC79
 2355 0070 80000000 		.word	.LANCHOR2
 2356 0074 00000000 		.word	.LC1
 2357              		.cfi_endproc
 2358              	.LFE18:
 2359              		.size	IoTHubMessage_GetProperty, .-IoTHubMessage_GetProperty
 2360              		.section	.text.IoTHubMessage_GetCorrelationId,"ax",%progbits
 2361              		.align	2
 2362              		.global	IoTHubMessage_GetCorrelationId
 2363              		.code	16
 2364              		.thumb_func
 2365              		.type	IoTHubMessage_GetCorrelationId, %function
 2366              	IoTHubMessage_GetCorrelationId:
 2367              	.LFB19:
 522:Source\azure_iot_sdk\iothub_client\src/iothub_message.c **** 
 523:Source\azure_iot_sdk\iothub_client\src/iothub_message.c **** const char* IoTHubMessage_GetCorrelationId(IOTHUB_MESSAGE_HANDLE iotHubMessageHandle)
 524:Source\azure_iot_sdk\iothub_client\src/iothub_message.c **** {
 2368              		.loc 1 524 0
 2369              		.cfi_startproc
 2370              		@ args = 0, pretend = 0, frame = 0
 2371              		@ frame_needed = 0, uses_anonymous_args = 0
 2372              	.LVL361:
 2373 0000 10B5     		push	{r4, lr}
 2374              		.cfi_def_cfa_offset 8
 2375              		.cfi_offset 4, -8
 2376              		.cfi_offset 14, -4
 2377 0002 82B0     		sub	sp, sp, #8
 2378              		.cfi_def_cfa_offset 16
 525:Source\azure_iot_sdk\iothub_client\src/iothub_message.c ****     const char* result;
 526:Source\azure_iot_sdk\iothub_client\src/iothub_message.c ****     /* Codes_SRS_IOTHUBMESSAGE_07_016: [if the iotHubMessageHandle parameter is NULL then IoTHubMes
 527:Source\azure_iot_sdk\iothub_client\src/iothub_message.c ****     if (iotHubMessageHandle == NULL)
 2379              		.loc 1 527 0
 2380 0004 0028     		cmp	r0, #0
 2381 0006 0FD1     		bne	.L154
 2382              	.LBB46:
 528:Source\azure_iot_sdk\iothub_client\src/iothub_message.c ****     {
 529:Source\azure_iot_sdk\iothub_client\src/iothub_message.c ****         LogError("invalid arg (NULL) passed to IoTHubMessage_GetCorrelationId");
 2383              		.loc 1 529 0 discriminator 3
 2384 0008 FFF7FEFF 		bl	xlogging_get_log_function
 2385              	.LVL362:
 2386 000c 041E     		subs	r4, r0, #0
 2387              	.LVL363:
 2388 000e 0DD0     		beq	.L156
 2389              		.loc 1 529 0 is_stmt 0 discriminator 4
ARM GAS  C:\Users\Phuong\AppData\Local\Temp\cc4zbCpa.s 			page 53


 2390 0010 084B     		ldr	r3, .L157
 2391 0012 0193     		str	r3, [sp, #4]
 2392 0014 0123     		movs	r3, #1
 2393 0016 0093     		str	r3, [sp]
 2394 0018 074B     		ldr	r3, .L157+4
 2395 001a 084A     		ldr	r2, .L157+8
 2396 001c 6432     		adds	r2, r2, #100
 2397 001e 0849     		ldr	r1, .L157+12
 2398 0020 0020     		movs	r0, #0
 2399              	.LVL364:
 2400 0022 A047     		blx	r4
 2401              	.LVL365:
 2402              	.LBE46:
 530:Source\azure_iot_sdk\iothub_client\src/iothub_message.c ****         result = NULL;
 2403              		.loc 1 530 0 is_stmt 1 discriminator 4
 2404 0024 0020     		movs	r0, #0
 2405 0026 02E0     		b	.L155
 2406              	.LVL366:
 2407              	.L154:
 2408              	.LBB47:
 531:Source\azure_iot_sdk\iothub_client\src/iothub_message.c ****     }
 532:Source\azure_iot_sdk\iothub_client\src/iothub_message.c ****     else
 533:Source\azure_iot_sdk\iothub_client\src/iothub_message.c ****     {
 534:Source\azure_iot_sdk\iothub_client\src/iothub_message.c ****         /* Codes_SRS_IOTHUBMESSAGE_07_017: [IoTHubMessage_GetCorrelationId shall return the correla
 535:Source\azure_iot_sdk\iothub_client\src/iothub_message.c ****         IOTHUB_MESSAGE_HANDLE_DATA* handleData = iotHubMessageHandle;
 536:Source\azure_iot_sdk\iothub_client\src/iothub_message.c ****         result = handleData->correlationId;
 2409              		.loc 1 536 0
 2410 0028 0069     		ldr	r0, [r0, #16]
 2411              	.LVL367:
 2412 002a 00E0     		b	.L155
 2413              	.LVL368:
 2414              	.L156:
 2415              	.LBE47:
 530:Source\azure_iot_sdk\iothub_client\src/iothub_message.c ****         result = NULL;
 2416              		.loc 1 530 0
 2417 002c 0020     		movs	r0, #0
 2418              	.LVL369:
 2419              	.L155:
 537:Source\azure_iot_sdk\iothub_client\src/iothub_message.c ****     }
 538:Source\azure_iot_sdk\iothub_client\src/iothub_message.c ****     return result;
 539:Source\azure_iot_sdk\iothub_client\src/iothub_message.c **** }
 2420              		.loc 1 539 0
 2421 002e 02B0     		add	sp, sp, #8
 2422              		@ sp needed
 2423 0030 10BD     		pop	{r4, pc}
 2424              	.L158:
 2425 0032 C046     		.align	2
 2426              	.L157:
 2427 0034 CC040000 		.word	.LC83
 2428 0038 11020000 		.word	529
 2429 003c 80000000 		.word	.LANCHOR2
 2430 0040 00000000 		.word	.LC1
 2431              		.cfi_endproc
 2432              	.LFE19:
 2433              		.size	IoTHubMessage_GetCorrelationId, .-IoTHubMessage_GetCorrelationId
 2434              		.section	.text.IoTHubMessage_SetCorrelationId,"ax",%progbits
 2435              		.align	2
ARM GAS  C:\Users\Phuong\AppData\Local\Temp\cc4zbCpa.s 			page 54


 2436              		.global	IoTHubMessage_SetCorrelationId
 2437              		.code	16
 2438              		.thumb_func
 2439              		.type	IoTHubMessage_SetCorrelationId, %function
 2440              	IoTHubMessage_SetCorrelationId:
 2441              	.LFB20:
 540:Source\azure_iot_sdk\iothub_client\src/iothub_message.c **** 
 541:Source\azure_iot_sdk\iothub_client\src/iothub_message.c **** IOTHUB_MESSAGE_RESULT IoTHubMessage_SetCorrelationId(IOTHUB_MESSAGE_HANDLE iotHubMessageHandle, con
 542:Source\azure_iot_sdk\iothub_client\src/iothub_message.c **** {
 2442              		.loc 1 542 0
 2443              		.cfi_startproc
 2444              		@ args = 0, pretend = 0, frame = 0
 2445              		@ frame_needed = 0, uses_anonymous_args = 0
 2446              	.LVL370:
 2447 0000 30B5     		push	{r4, r5, lr}
 2448              		.cfi_def_cfa_offset 12
 2449              		.cfi_offset 4, -12
 2450              		.cfi_offset 5, -8
 2451              		.cfi_offset 14, -4
 2452 0002 83B0     		sub	sp, sp, #12
 2453              		.cfi_def_cfa_offset 24
 2454 0004 0400     		movs	r4, r0
 2455 0006 0D00     		movs	r5, r1
 543:Source\azure_iot_sdk\iothub_client\src/iothub_message.c ****     IOTHUB_MESSAGE_RESULT result;
 544:Source\azure_iot_sdk\iothub_client\src/iothub_message.c ****     /* Codes_SRS_IOTHUBMESSAGE_07_018: [if any of the parameters are NULL then IoTHubMessage_SetCor
 545:Source\azure_iot_sdk\iothub_client\src/iothub_message.c ****     if (iotHubMessageHandle == NULL || correlationId == NULL)
 2456              		.loc 1 545 0
 2457 0008 0028     		cmp	r0, #0
 2458 000a 01D0     		beq	.L160
 2459              		.loc 1 545 0 is_stmt 0 discriminator 1
 2460 000c 0029     		cmp	r1, #0
 2461 000e 0FD1     		bne	.L161
 2462              	.L160:
 2463              	.LBB48:
 546:Source\azure_iot_sdk\iothub_client\src/iothub_message.c ****     {
 547:Source\azure_iot_sdk\iothub_client\src/iothub_message.c ****         LogError("invalid arg (NULL) passed to IoTHubMessage_SetCorrelationId");
 2464              		.loc 1 547 0 is_stmt 1 discriminator 3
 2465 0010 FFF7FEFF 		bl	xlogging_get_log_function
 2466              	.LVL371:
 2467 0014 041E     		subs	r4, r0, #0
 2468              	.LVL372:
 2469 0016 1BD0     		beq	.L164
 2470              		.loc 1 547 0 is_stmt 0 discriminator 4
 2471 0018 104B     		ldr	r3, .L166
 2472 001a 0193     		str	r3, [sp, #4]
 2473 001c 0123     		movs	r3, #1
 2474 001e 0093     		str	r3, [sp]
 2475 0020 0F4B     		ldr	r3, .L166+4
 2476 0022 104A     		ldr	r2, .L166+8
 2477 0024 0432     		adds	r2, r2, #4
 2478 0026 1049     		ldr	r1, .L166+12
 2479 0028 0020     		movs	r0, #0
 2480              	.LVL373:
 2481 002a A047     		blx	r4
 2482              	.LVL374:
 2483              	.LBE48:
 548:Source\azure_iot_sdk\iothub_client\src/iothub_message.c ****         result = IOTHUB_MESSAGE_INVALID_ARG;
ARM GAS  C:\Users\Phuong\AppData\Local\Temp\cc4zbCpa.s 			page 55


 2484              		.loc 1 548 0 is_stmt 1 discriminator 4
 2485 002c 0120     		movs	r0, #1
 2486 002e 12E0     		b	.L162
 2487              	.LVL375:
 2488              	.L161:
 2489              	.LBB49:
 549:Source\azure_iot_sdk\iothub_client\src/iothub_message.c ****     }
 550:Source\azure_iot_sdk\iothub_client\src/iothub_message.c ****     else
 551:Source\azure_iot_sdk\iothub_client\src/iothub_message.c ****     {
 552:Source\azure_iot_sdk\iothub_client\src/iothub_message.c ****         IOTHUB_MESSAGE_HANDLE_DATA* handleData = iotHubMessageHandle;
 553:Source\azure_iot_sdk\iothub_client\src/iothub_message.c ****         /* Codes_SRS_IOTHUBMESSAGE_07_019: [If the IOTHUB_MESSAGE_HANDLE correlationId is not NULL,
 554:Source\azure_iot_sdk\iothub_client\src/iothub_message.c ****         if (handleData->correlationId != NULL)
 2490              		.loc 1 554 0
 2491 0030 0069     		ldr	r0, [r0, #16]
 2492              	.LVL376:
 2493 0032 0028     		cmp	r0, #0
 2494 0034 03D0     		beq	.L163
 555:Source\azure_iot_sdk\iothub_client\src/iothub_message.c ****         {
 556:Source\azure_iot_sdk\iothub_client\src/iothub_message.c ****             free(handleData->correlationId);
 2495              		.loc 1 556 0
 2496 0036 FFF7FEFF 		bl	free
 2497              	.LVL377:
 557:Source\azure_iot_sdk\iothub_client\src/iothub_message.c ****             handleData->correlationId = NULL;
 2498              		.loc 1 557 0
 2499 003a 0023     		movs	r3, #0
 2500 003c 2361     		str	r3, [r4, #16]
 2501              	.L163:
 558:Source\azure_iot_sdk\iothub_client\src/iothub_message.c ****         }
 559:Source\azure_iot_sdk\iothub_client\src/iothub_message.c **** 
 560:Source\azure_iot_sdk\iothub_client\src/iothub_message.c ****         if (mallocAndStrcpy_s(&handleData->correlationId, correlationId) != 0)
 2502              		.loc 1 560 0
 2503 003e 2000     		movs	r0, r4
 2504 0040 1030     		adds	r0, r0, #16
 2505 0042 2900     		movs	r1, r5
 2506 0044 FFF7FEFF 		bl	mallocAndStrcpy_s
 2507              	.LVL378:
 2508 0048 0028     		cmp	r0, #0
 2509 004a 03D0     		beq	.L165
 561:Source\azure_iot_sdk\iothub_client\src/iothub_message.c ****         {
 562:Source\azure_iot_sdk\iothub_client\src/iothub_message.c ****             /* Codes_SRS_IOTHUBMESSAGE_07_020: [If the allocation or the copying of the correlation
 563:Source\azure_iot_sdk\iothub_client\src/iothub_message.c ****             result = IOTHUB_MESSAGE_ERROR;
 2510              		.loc 1 563 0
 2511 004c 0320     		movs	r0, #3
 2512 004e 02E0     		b	.L162
 2513              	.LVL379:
 2514              	.L164:
 2515              	.LBE49:
 548:Source\azure_iot_sdk\iothub_client\src/iothub_message.c ****     }
 2516              		.loc 1 548 0
 2517 0050 0120     		movs	r0, #1
 2518              	.LVL380:
 2519 0052 00E0     		b	.L162
 2520              	.LVL381:
 2521              	.L165:
 2522              	.LBB50:
 564:Source\azure_iot_sdk\iothub_client\src/iothub_message.c ****         }
 565:Source\azure_iot_sdk\iothub_client\src/iothub_message.c ****         else
ARM GAS  C:\Users\Phuong\AppData\Local\Temp\cc4zbCpa.s 			page 56


 566:Source\azure_iot_sdk\iothub_client\src/iothub_message.c ****         {
 567:Source\azure_iot_sdk\iothub_client\src/iothub_message.c ****             /* Codes_SRS_IOTHUBMESSAGE_07_021: [IoTHubMessage_SetCorrelationId finishes successfull
 568:Source\azure_iot_sdk\iothub_client\src/iothub_message.c ****             result = IOTHUB_MESSAGE_OK;
 2523              		.loc 1 568 0
 2524 0054 0020     		movs	r0, #0
 2525              	.LVL382:
 2526              	.L162:
 2527              	.LBE50:
 569:Source\azure_iot_sdk\iothub_client\src/iothub_message.c ****         }
 570:Source\azure_iot_sdk\iothub_client\src/iothub_message.c ****     }
 571:Source\azure_iot_sdk\iothub_client\src/iothub_message.c ****     return result;
 572:Source\azure_iot_sdk\iothub_client\src/iothub_message.c **** }
 2528              		.loc 1 572 0
 2529 0056 03B0     		add	sp, sp, #12
 2530              		@ sp needed
 2531              	.LVL383:
 2532 0058 30BD     		pop	{r4, r5, pc}
 2533              	.L167:
 2534 005a C046     		.align	2
 2535              	.L166:
 2536 005c 08050000 		.word	.LC87
 2537 0060 23020000 		.word	547
 2538 0064 00010000 		.word	.LANCHOR3
 2539 0068 00000000 		.word	.LC1
 2540              		.cfi_endproc
 2541              	.LFE20:
 2542              		.size	IoTHubMessage_SetCorrelationId, .-IoTHubMessage_SetCorrelationId
 2543              		.section	.text.IoTHubMessage_SetMessageId,"ax",%progbits
 2544              		.align	2
 2545              		.global	IoTHubMessage_SetMessageId
 2546              		.code	16
 2547              		.thumb_func
 2548              		.type	IoTHubMessage_SetMessageId, %function
 2549              	IoTHubMessage_SetMessageId:
 2550              	.LFB21:
 573:Source\azure_iot_sdk\iothub_client\src/iothub_message.c **** 
 574:Source\azure_iot_sdk\iothub_client\src/iothub_message.c **** IOTHUB_MESSAGE_RESULT IoTHubMessage_SetMessageId(IOTHUB_MESSAGE_HANDLE iotHubMessageHandle, const c
 575:Source\azure_iot_sdk\iothub_client\src/iothub_message.c **** {
 2551              		.loc 1 575 0
 2552              		.cfi_startproc
 2553              		@ args = 0, pretend = 0, frame = 0
 2554              		@ frame_needed = 0, uses_anonymous_args = 0
 2555              	.LVL384:
 2556 0000 30B5     		push	{r4, r5, lr}
 2557              		.cfi_def_cfa_offset 12
 2558              		.cfi_offset 4, -12
 2559              		.cfi_offset 5, -8
 2560              		.cfi_offset 14, -4
 2561 0002 83B0     		sub	sp, sp, #12
 2562              		.cfi_def_cfa_offset 24
 2563 0004 0400     		movs	r4, r0
 2564 0006 0D00     		movs	r5, r1
 576:Source\azure_iot_sdk\iothub_client\src/iothub_message.c ****     IOTHUB_MESSAGE_RESULT result;
 577:Source\azure_iot_sdk\iothub_client\src/iothub_message.c ****     /* Codes_SRS_IOTHUBMESSAGE_07_012: [if any of the parameters are NULL then IoTHubMessage_SetMes
 578:Source\azure_iot_sdk\iothub_client\src/iothub_message.c ****     if (iotHubMessageHandle == NULL || messageId == NULL)
 2565              		.loc 1 578 0
 2566 0008 0028     		cmp	r0, #0
ARM GAS  C:\Users\Phuong\AppData\Local\Temp\cc4zbCpa.s 			page 57


 2567 000a 01D0     		beq	.L169
 2568              		.loc 1 578 0 is_stmt 0 discriminator 1
 2569 000c 0029     		cmp	r1, #0
 2570 000e 10D1     		bne	.L170
 2571              	.L169:
 2572              	.LBB51:
 579:Source\azure_iot_sdk\iothub_client\src/iothub_message.c ****     {
 580:Source\azure_iot_sdk\iothub_client\src/iothub_message.c ****         LogError("invalid arg (NULL) passed to IoTHubMessage_SetMessageId");
 2573              		.loc 1 580 0 is_stmt 1 discriminator 3
 2574 0010 FFF7FEFF 		bl	xlogging_get_log_function
 2575              	.LVL385:
 2576 0014 041E     		subs	r4, r0, #0
 2577              	.LVL386:
 2578 0016 1CD0     		beq	.L173
 2579              		.loc 1 580 0 is_stmt 0 discriminator 4
 2580 0018 104B     		ldr	r3, .L175
 2581 001a 0193     		str	r3, [sp, #4]
 2582 001c 0123     		movs	r3, #1
 2583 001e 0093     		str	r3, [sp]
 2584 0020 9123     		movs	r3, #145
 2585 0022 9B00     		lsls	r3, r3, #2
 2586 0024 0E4A     		ldr	r2, .L175+4
 2587 0026 2432     		adds	r2, r2, #36
 2588 0028 0E49     		ldr	r1, .L175+8
 2589 002a 0020     		movs	r0, #0
 2590              	.LVL387:
 2591 002c A047     		blx	r4
 2592              	.LVL388:
 2593              	.LBE51:
 581:Source\azure_iot_sdk\iothub_client\src/iothub_message.c ****         result = IOTHUB_MESSAGE_INVALID_ARG;
 2594              		.loc 1 581 0 is_stmt 1 discriminator 4
 2595 002e 0120     		movs	r0, #1
 2596 0030 12E0     		b	.L171
 2597              	.LVL389:
 2598              	.L170:
 2599              	.LBB52:
 582:Source\azure_iot_sdk\iothub_client\src/iothub_message.c ****     }
 583:Source\azure_iot_sdk\iothub_client\src/iothub_message.c ****     else
 584:Source\azure_iot_sdk\iothub_client\src/iothub_message.c ****     {
 585:Source\azure_iot_sdk\iothub_client\src/iothub_message.c ****         IOTHUB_MESSAGE_HANDLE_DATA* handleData = iotHubMessageHandle;
 586:Source\azure_iot_sdk\iothub_client\src/iothub_message.c ****         /* Codes_SRS_IOTHUBMESSAGE_07_013: [If the IOTHUB_MESSAGE_HANDLE messageId is not NULL, the
 587:Source\azure_iot_sdk\iothub_client\src/iothub_message.c ****         if (handleData->messageId != NULL)
 2600              		.loc 1 587 0
 2601 0032 C068     		ldr	r0, [r0, #12]
 2602              	.LVL390:
 2603 0034 0028     		cmp	r0, #0
 2604 0036 03D0     		beq	.L172
 588:Source\azure_iot_sdk\iothub_client\src/iothub_message.c ****         {
 589:Source\azure_iot_sdk\iothub_client\src/iothub_message.c ****             free(handleData->messageId);
 2605              		.loc 1 589 0
 2606 0038 FFF7FEFF 		bl	free
 2607              	.LVL391:
 590:Source\azure_iot_sdk\iothub_client\src/iothub_message.c ****             handleData->messageId = NULL;
 2608              		.loc 1 590 0
 2609 003c 0023     		movs	r3, #0
 2610 003e E360     		str	r3, [r4, #12]
 2611              	.L172:
ARM GAS  C:\Users\Phuong\AppData\Local\Temp\cc4zbCpa.s 			page 58


 591:Source\azure_iot_sdk\iothub_client\src/iothub_message.c ****         }
 592:Source\azure_iot_sdk\iothub_client\src/iothub_message.c **** 
 593:Source\azure_iot_sdk\iothub_client\src/iothub_message.c ****         /* Codes_SRS_IOTHUBMESSAGE_07_014: [If the allocation or the copying of the messageId fails
 594:Source\azure_iot_sdk\iothub_client\src/iothub_message.c ****         if (mallocAndStrcpy_s(&handleData->messageId, messageId) != 0)
 2612              		.loc 1 594 0
 2613 0040 2000     		movs	r0, r4
 2614 0042 0C30     		adds	r0, r0, #12
 2615 0044 2900     		movs	r1, r5
 2616 0046 FFF7FEFF 		bl	mallocAndStrcpy_s
 2617              	.LVL392:
 2618 004a 0028     		cmp	r0, #0
 2619 004c 03D0     		beq	.L174
 595:Source\azure_iot_sdk\iothub_client\src/iothub_message.c ****         {
 596:Source\azure_iot_sdk\iothub_client\src/iothub_message.c ****             result = IOTHUB_MESSAGE_ERROR;
 2620              		.loc 1 596 0
 2621 004e 0320     		movs	r0, #3
 2622 0050 02E0     		b	.L171
 2623              	.LVL393:
 2624              	.L173:
 2625              	.LBE52:
 581:Source\azure_iot_sdk\iothub_client\src/iothub_message.c ****     }
 2626              		.loc 1 581 0
 2627 0052 0120     		movs	r0, #1
 2628              	.LVL394:
 2629 0054 00E0     		b	.L171
 2630              	.LVL395:
 2631              	.L174:
 2632              	.LBB53:
 597:Source\azure_iot_sdk\iothub_client\src/iothub_message.c ****         }
 598:Source\azure_iot_sdk\iothub_client\src/iothub_message.c ****         else
 599:Source\azure_iot_sdk\iothub_client\src/iothub_message.c ****         {
 600:Source\azure_iot_sdk\iothub_client\src/iothub_message.c ****             result = IOTHUB_MESSAGE_OK;
 2633              		.loc 1 600 0
 2634 0056 0020     		movs	r0, #0
 2635              	.LVL396:
 2636              	.L171:
 2637              	.LBE53:
 601:Source\azure_iot_sdk\iothub_client\src/iothub_message.c ****         }
 602:Source\azure_iot_sdk\iothub_client\src/iothub_message.c ****     }
 603:Source\azure_iot_sdk\iothub_client\src/iothub_message.c ****     return result;
 604:Source\azure_iot_sdk\iothub_client\src/iothub_message.c **** }
 2638              		.loc 1 604 0
 2639 0058 03B0     		add	sp, sp, #12
 2640              		@ sp needed
 2641              	.LVL397:
 2642 005a 30BD     		pop	{r4, r5, pc}
 2643              	.L176:
 2644              		.align	2
 2645              	.L175:
 2646 005c 44050000 		.word	.LC91
 2647 0060 00010000 		.word	.LANCHOR3
 2648 0064 00000000 		.word	.LC1
 2649              		.cfi_endproc
 2650              	.LFE21:
 2651              		.size	IoTHubMessage_SetMessageId, .-IoTHubMessage_SetMessageId
 2652              		.section	.text.IoTHubMessage_GetMessageId,"ax",%progbits
 2653              		.align	2
ARM GAS  C:\Users\Phuong\AppData\Local\Temp\cc4zbCpa.s 			page 59


 2654              		.global	IoTHubMessage_GetMessageId
 2655              		.code	16
 2656              		.thumb_func
 2657              		.type	IoTHubMessage_GetMessageId, %function
 2658              	IoTHubMessage_GetMessageId:
 2659              	.LFB22:
 605:Source\azure_iot_sdk\iothub_client\src/iothub_message.c **** 
 606:Source\azure_iot_sdk\iothub_client\src/iothub_message.c **** const char* IoTHubMessage_GetMessageId(IOTHUB_MESSAGE_HANDLE iotHubMessageHandle)
 607:Source\azure_iot_sdk\iothub_client\src/iothub_message.c **** {
 2660              		.loc 1 607 0
 2661              		.cfi_startproc
 2662              		@ args = 0, pretend = 0, frame = 0
 2663              		@ frame_needed = 0, uses_anonymous_args = 0
 2664              	.LVL398:
 2665 0000 10B5     		push	{r4, lr}
 2666              		.cfi_def_cfa_offset 8
 2667              		.cfi_offset 4, -8
 2668              		.cfi_offset 14, -4
 2669 0002 82B0     		sub	sp, sp, #8
 2670              		.cfi_def_cfa_offset 16
 608:Source\azure_iot_sdk\iothub_client\src/iothub_message.c ****     const char* result;
 609:Source\azure_iot_sdk\iothub_client\src/iothub_message.c ****     /* Codes_SRS_IOTHUBMESSAGE_07_010: [if the iotHubMessageHandle parameter is NULL then IoTHubMes
 610:Source\azure_iot_sdk\iothub_client\src/iothub_message.c ****     if (iotHubMessageHandle == NULL)
 2671              		.loc 1 610 0
 2672 0004 0028     		cmp	r0, #0
 2673 0006 10D1     		bne	.L178
 2674              	.LBB54:
 611:Source\azure_iot_sdk\iothub_client\src/iothub_message.c ****     {
 612:Source\azure_iot_sdk\iothub_client\src/iothub_message.c ****         LogError("invalid arg (NULL) passed to IoTHubMessage_GetMessageId");
 2675              		.loc 1 612 0 discriminator 3
 2676 0008 FFF7FEFF 		bl	xlogging_get_log_function
 2677              	.LVL399:
 2678 000c 041E     		subs	r4, r0, #0
 2679              	.LVL400:
 2680 000e 0ED0     		beq	.L180
 2681              		.loc 1 612 0 is_stmt 0 discriminator 4
 2682 0010 084B     		ldr	r3, .L181
 2683 0012 0193     		str	r3, [sp, #4]
 2684 0014 0123     		movs	r3, #1
 2685 0016 0093     		str	r3, [sp]
 2686 0018 9923     		movs	r3, #153
 2687 001a 9B00     		lsls	r3, r3, #2
 2688 001c 064A     		ldr	r2, .L181+4
 2689 001e 4032     		adds	r2, r2, #64
 2690 0020 0649     		ldr	r1, .L181+8
 2691 0022 0020     		movs	r0, #0
 2692              	.LVL401:
 2693 0024 A047     		blx	r4
 2694              	.LVL402:
 2695              	.LBE54:
 613:Source\azure_iot_sdk\iothub_client\src/iothub_message.c ****         result = NULL;
 2696              		.loc 1 613 0 is_stmt 1 discriminator 4
 2697 0026 0020     		movs	r0, #0
 2698 0028 02E0     		b	.L179
 2699              	.LVL403:
 2700              	.L178:
 2701              	.LBB55:
ARM GAS  C:\Users\Phuong\AppData\Local\Temp\cc4zbCpa.s 			page 60


 614:Source\azure_iot_sdk\iothub_client\src/iothub_message.c ****     }
 615:Source\azure_iot_sdk\iothub_client\src/iothub_message.c ****     else
 616:Source\azure_iot_sdk\iothub_client\src/iothub_message.c ****     {
 617:Source\azure_iot_sdk\iothub_client\src/iothub_message.c ****         /* Codes_SRS_IOTHUBMESSAGE_07_011: [IoTHubMessage_MessageId shall return the messageId as a
 618:Source\azure_iot_sdk\iothub_client\src/iothub_message.c ****         IOTHUB_MESSAGE_HANDLE_DATA* handleData = iotHubMessageHandle;
 619:Source\azure_iot_sdk\iothub_client\src/iothub_message.c ****         result = handleData->messageId;
 2702              		.loc 1 619 0
 2703 002a C068     		ldr	r0, [r0, #12]
 2704              	.LVL404:
 2705 002c 00E0     		b	.L179
 2706              	.LVL405:
 2707              	.L180:
 2708              	.LBE55:
 613:Source\azure_iot_sdk\iothub_client\src/iothub_message.c ****         result = NULL;
 2709              		.loc 1 613 0
 2710 002e 0020     		movs	r0, #0
 2711              	.LVL406:
 2712              	.L179:
 620:Source\azure_iot_sdk\iothub_client\src/iothub_message.c ****     }
 621:Source\azure_iot_sdk\iothub_client\src/iothub_message.c ****     return result;
 622:Source\azure_iot_sdk\iothub_client\src/iothub_message.c **** }
 2713              		.loc 1 622 0
 2714 0030 02B0     		add	sp, sp, #8
 2715              		@ sp needed
 2716 0032 10BD     		pop	{r4, pc}
 2717              	.L182:
 2718              		.align	2
 2719              	.L181:
 2720 0034 7C050000 		.word	.LC95
 2721 0038 00010000 		.word	.LANCHOR3
 2722 003c 00000000 		.word	.LC1
 2723              		.cfi_endproc
 2724              	.LFE22:
 2725              		.size	IoTHubMessage_GetMessageId, .-IoTHubMessage_GetMessageId
 2726              		.section	.text.IoTHubMessage_SetContentTypeSystemProperty,"ax",%progbits
 2727              		.align	2
 2728              		.global	IoTHubMessage_SetContentTypeSystemProperty
 2729              		.code	16
 2730              		.thumb_func
 2731              		.type	IoTHubMessage_SetContentTypeSystemProperty, %function
 2732              	IoTHubMessage_SetContentTypeSystemProperty:
 2733              	.LFB23:
 623:Source\azure_iot_sdk\iothub_client\src/iothub_message.c **** 
 624:Source\azure_iot_sdk\iothub_client\src/iothub_message.c **** IOTHUB_MESSAGE_RESULT IoTHubMessage_SetContentTypeSystemProperty(IOTHUB_MESSAGE_HANDLE iotHubMessag
 625:Source\azure_iot_sdk\iothub_client\src/iothub_message.c **** {
 2734              		.loc 1 625 0
 2735              		.cfi_startproc
 2736              		@ args = 0, pretend = 0, frame = 0
 2737              		@ frame_needed = 0, uses_anonymous_args = 0
 2738              	.LVL407:
 2739 0000 70B5     		push	{r4, r5, r6, lr}
 2740              		.cfi_def_cfa_offset 16
 2741              		.cfi_offset 4, -16
 2742              		.cfi_offset 5, -12
 2743              		.cfi_offset 6, -8
 2744              		.cfi_offset 14, -4
 2745 0002 84B0     		sub	sp, sp, #16
ARM GAS  C:\Users\Phuong\AppData\Local\Temp\cc4zbCpa.s 			page 61


 2746              		.cfi_def_cfa_offset 32
 2747 0004 0400     		movs	r4, r0
 2748 0006 0D00     		movs	r5, r1
 626:Source\azure_iot_sdk\iothub_client\src/iothub_message.c ****     IOTHUB_MESSAGE_RESULT result;
 627:Source\azure_iot_sdk\iothub_client\src/iothub_message.c **** 
 628:Source\azure_iot_sdk\iothub_client\src/iothub_message.c ****     // Codes_SRS_IOTHUBMESSAGE_09_001: [If any of the parameters are NULL then IoTHubMessage_SetCon
 629:Source\azure_iot_sdk\iothub_client\src/iothub_message.c ****     if (iotHubMessageHandle == NULL || contentType == NULL)
 2749              		.loc 1 629 0
 2750 0008 0028     		cmp	r0, #0
 2751 000a 01D0     		beq	.L184
 2752              		.loc 1 629 0 is_stmt 0 discriminator 1
 2753 000c 0029     		cmp	r1, #0
 2754 000e 11D1     		bne	.L185
 2755              	.L184:
 2756              	.LBB56:
 630:Source\azure_iot_sdk\iothub_client\src/iothub_message.c ****     {
 631:Source\azure_iot_sdk\iothub_client\src/iothub_message.c ****         LogError("Invalid argument (iotHubMessageHandle=%p, contentType=%p)", iotHubMessageHandle, 
 2757              		.loc 1 631 0 is_stmt 1 discriminator 3
 2758 0010 FFF7FEFF 		bl	xlogging_get_log_function
 2759              	.LVL408:
 2760 0014 061E     		subs	r6, r0, #0
 2761              	.LVL409:
 2762 0016 2BD0     		beq	.L188
 2763              		.loc 1 631 0 is_stmt 0 discriminator 4
 2764 0018 0395     		str	r5, [sp, #12]
 2765 001a 0294     		str	r4, [sp, #8]
 2766 001c 184B     		ldr	r3, .L191
 2767 001e 0193     		str	r3, [sp, #4]
 2768 0020 0123     		movs	r3, #1
 2769 0022 0093     		str	r3, [sp]
 2770 0024 174B     		ldr	r3, .L191+4
 2771 0026 184A     		ldr	r2, .L191+8
 2772 0028 5C32     		adds	r2, r2, #92
 2773 002a 1849     		ldr	r1, .L191+12
 2774 002c 0020     		movs	r0, #0
 2775              	.LVL410:
 2776 002e B047     		blx	r6
 2777              	.LVL411:
 2778              	.LBE56:
 632:Source\azure_iot_sdk\iothub_client\src/iothub_message.c ****         result = IOTHUB_MESSAGE_INVALID_ARG;
 2779              		.loc 1 632 0 is_stmt 1 discriminator 4
 2780 0030 0120     		movs	r0, #1
 2781 0032 22E0     		b	.L186
 2782              	.LVL412:
 2783              	.L185:
 2784              	.LBB57:
 633:Source\azure_iot_sdk\iothub_client\src/iothub_message.c ****     }
 634:Source\azure_iot_sdk\iothub_client\src/iothub_message.c ****     else
 635:Source\azure_iot_sdk\iothub_client\src/iothub_message.c ****     {
 636:Source\azure_iot_sdk\iothub_client\src/iothub_message.c ****         IOTHUB_MESSAGE_HANDLE_DATA* handleData = (IOTHUB_MESSAGE_HANDLE_DATA*)iotHubMessageHandle;
 637:Source\azure_iot_sdk\iothub_client\src/iothub_message.c **** 
 638:Source\azure_iot_sdk\iothub_client\src/iothub_message.c ****         // Codes_SRS_IOTHUBMESSAGE_09_002: [If the IOTHUB_MESSAGE_HANDLE `contentType` is not NULL 
 639:Source\azure_iot_sdk\iothub_client\src/iothub_message.c ****         if (handleData->userDefinedContentType != NULL)
 2785              		.loc 1 639 0
 2786 0034 4069     		ldr	r0, [r0, #20]
 2787              	.LVL413:
 2788 0036 0028     		cmp	r0, #0
ARM GAS  C:\Users\Phuong\AppData\Local\Temp\cc4zbCpa.s 			page 62


 2789 0038 03D0     		beq	.L187
 640:Source\azure_iot_sdk\iothub_client\src/iothub_message.c ****         {
 641:Source\azure_iot_sdk\iothub_client\src/iothub_message.c ****             free(handleData->userDefinedContentType);
 2790              		.loc 1 641 0
 2791 003a FFF7FEFF 		bl	free
 2792              	.LVL414:
 642:Source\azure_iot_sdk\iothub_client\src/iothub_message.c ****             handleData->userDefinedContentType = NULL;
 2793              		.loc 1 642 0
 2794 003e 0023     		movs	r3, #0
 2795 0040 6361     		str	r3, [r4, #20]
 2796              	.L187:
 643:Source\azure_iot_sdk\iothub_client\src/iothub_message.c ****         }
 644:Source\azure_iot_sdk\iothub_client\src/iothub_message.c **** 
 645:Source\azure_iot_sdk\iothub_client\src/iothub_message.c ****         if (mallocAndStrcpy_s(&handleData->userDefinedContentType, contentType) != 0)
 2797              		.loc 1 645 0
 2798 0042 2000     		movs	r0, r4
 2799 0044 1430     		adds	r0, r0, #20
 2800 0046 2900     		movs	r1, r5
 2801 0048 FFF7FEFF 		bl	mallocAndStrcpy_s
 2802              	.LVL415:
 2803 004c 0028     		cmp	r0, #0
 2804 004e 11D0     		beq	.L189
 2805              	.LBB58:
 646:Source\azure_iot_sdk\iothub_client\src/iothub_message.c ****         {
 647:Source\azure_iot_sdk\iothub_client\src/iothub_message.c ****             LogError("Failed saving a copy of contentType");
 2806              		.loc 1 647 0 discriminator 3
 2807 0050 FFF7FEFF 		bl	xlogging_get_log_function
 2808              	.LVL416:
 2809 0054 041E     		subs	r4, r0, #0
 2810              	.LVL417:
 2811 0056 0FD0     		beq	.L190
 2812              		.loc 1 647 0 is_stmt 0 discriminator 4
 2813 0058 0D4B     		ldr	r3, .L191+16
 2814 005a 0193     		str	r3, [sp, #4]
 2815 005c 0123     		movs	r3, #1
 2816 005e 0093     		str	r3, [sp]
 2817 0060 0C4B     		ldr	r3, .L191+20
 2818 0062 094A     		ldr	r2, .L191+8
 2819 0064 5C32     		adds	r2, r2, #92
 2820 0066 0949     		ldr	r1, .L191+12
 2821 0068 0020     		movs	r0, #0
 2822              	.LVL418:
 2823 006a A047     		blx	r4
 2824              	.LVL419:
 2825              	.LBE58:
 648:Source\azure_iot_sdk\iothub_client\src/iothub_message.c ****             // Codes_SRS_IOTHUBMESSAGE_09_003: [If the allocation or the copying of `contentType` f
 649:Source\azure_iot_sdk\iothub_client\src/iothub_message.c ****             result = IOTHUB_MESSAGE_ERROR;
 2826              		.loc 1 649 0 is_stmt 1 discriminator 4
 2827 006c 0320     		movs	r0, #3
 2828 006e 04E0     		b	.L186
 2829              	.LVL420:
 2830              	.L188:
 2831              	.LBE57:
 632:Source\azure_iot_sdk\iothub_client\src/iothub_message.c ****     }
 2832              		.loc 1 632 0
 2833 0070 0120     		movs	r0, #1
 2834              	.LVL421:
ARM GAS  C:\Users\Phuong\AppData\Local\Temp\cc4zbCpa.s 			page 63


 2835 0072 02E0     		b	.L186
 2836              	.LVL422:
 2837              	.L189:
 2838              	.LBB59:
 650:Source\azure_iot_sdk\iothub_client\src/iothub_message.c ****         }
 651:Source\azure_iot_sdk\iothub_client\src/iothub_message.c ****         else
 652:Source\azure_iot_sdk\iothub_client\src/iothub_message.c ****         {
 653:Source\azure_iot_sdk\iothub_client\src/iothub_message.c ****             // Codes_SRS_IOTHUBMESSAGE_09_004: [If IoTHubMessage_SetContentTypeSystemProperty finis
 654:Source\azure_iot_sdk\iothub_client\src/iothub_message.c ****             result = IOTHUB_MESSAGE_OK;
 2839              		.loc 1 654 0
 2840 0074 0020     		movs	r0, #0
 2841 0076 00E0     		b	.L186
 2842              	.LVL423:
 2843              	.L190:
 649:Source\azure_iot_sdk\iothub_client\src/iothub_message.c ****         }
 2844              		.loc 1 649 0
 2845 0078 0320     		movs	r0, #3
 2846              	.LVL424:
 2847              	.L186:
 2848              	.LBE59:
 655:Source\azure_iot_sdk\iothub_client\src/iothub_message.c ****         }
 656:Source\azure_iot_sdk\iothub_client\src/iothub_message.c ****     }
 657:Source\azure_iot_sdk\iothub_client\src/iothub_message.c **** 
 658:Source\azure_iot_sdk\iothub_client\src/iothub_message.c ****     return result;
 659:Source\azure_iot_sdk\iothub_client\src/iothub_message.c **** }
 2849              		.loc 1 659 0
 2850 007a 04B0     		add	sp, sp, #16
 2851              		@ sp needed
 2852              	.LVL425:
 2853 007c 70BD     		pop	{r4, r5, r6, pc}
 2854              	.L192:
 2855 007e C046     		.align	2
 2856              	.L191:
 2857 0080 B4050000 		.word	.LC99
 2858 0084 77020000 		.word	631
 2859 0088 00010000 		.word	.LANCHOR3
 2860 008c 00000000 		.word	.LC1
 2861 0090 F0050000 		.word	.LC101
 2862 0094 87020000 		.word	647
 2863              		.cfi_endproc
 2864              	.LFE23:
 2865              		.size	IoTHubMessage_SetContentTypeSystemProperty, .-IoTHubMessage_SetContentTypeSystemProperty
 2866              		.section	.text.IoTHubMessage_GetContentTypeSystemProperty,"ax",%progbits
 2867              		.align	2
 2868              		.global	IoTHubMessage_GetContentTypeSystemProperty
 2869              		.code	16
 2870              		.thumb_func
 2871              		.type	IoTHubMessage_GetContentTypeSystemProperty, %function
 2872              	IoTHubMessage_GetContentTypeSystemProperty:
 2873              	.LFB24:
 660:Source\azure_iot_sdk\iothub_client\src/iothub_message.c **** 
 661:Source\azure_iot_sdk\iothub_client\src/iothub_message.c **** const char* IoTHubMessage_GetContentTypeSystemProperty(IOTHUB_MESSAGE_HANDLE iotHubMessageHandle)
 662:Source\azure_iot_sdk\iothub_client\src/iothub_message.c **** {
 2874              		.loc 1 662 0
 2875              		.cfi_startproc
 2876              		@ args = 0, pretend = 0, frame = 0
 2877              		@ frame_needed = 0, uses_anonymous_args = 0
ARM GAS  C:\Users\Phuong\AppData\Local\Temp\cc4zbCpa.s 			page 64


 2878              	.LVL426:
 2879 0000 10B5     		push	{r4, lr}
 2880              		.cfi_def_cfa_offset 8
 2881              		.cfi_offset 4, -8
 2882              		.cfi_offset 14, -4
 2883 0002 82B0     		sub	sp, sp, #8
 2884              		.cfi_def_cfa_offset 16
 663:Source\azure_iot_sdk\iothub_client\src/iothub_message.c ****     const char* result;
 664:Source\azure_iot_sdk\iothub_client\src/iothub_message.c **** 
 665:Source\azure_iot_sdk\iothub_client\src/iothub_message.c ****     // Codes_SRS_IOTHUBMESSAGE_09_005: [If any of the parameters are NULL then IoTHubMessage_GetCon
 666:Source\azure_iot_sdk\iothub_client\src/iothub_message.c ****     if (iotHubMessageHandle == NULL)
 2885              		.loc 1 666 0
 2886 0004 0028     		cmp	r0, #0
 2887 0006 10D1     		bne	.L194
 2888              	.LBB60:
 667:Source\azure_iot_sdk\iothub_client\src/iothub_message.c ****     {
 668:Source\azure_iot_sdk\iothub_client\src/iothub_message.c ****         LogError("Invalid argument (iotHubMessageHandle is NULL)");
 2889              		.loc 1 668 0 discriminator 3
 2890 0008 FFF7FEFF 		bl	xlogging_get_log_function
 2891              	.LVL427:
 2892 000c 041E     		subs	r4, r0, #0
 2893              	.LVL428:
 2894 000e 0ED0     		beq	.L196
 2895              		.loc 1 668 0 is_stmt 0 discriminator 4
 2896 0010 084B     		ldr	r3, .L197
 2897 0012 0193     		str	r3, [sp, #4]
 2898 0014 0123     		movs	r3, #1
 2899 0016 0093     		str	r3, [sp]
 2900 0018 A723     		movs	r3, #167
 2901 001a 9B00     		lsls	r3, r3, #2
 2902 001c 064A     		ldr	r2, .L197+4
 2903 001e 0832     		adds	r2, r2, #8
 2904 0020 0649     		ldr	r1, .L197+8
 2905 0022 0020     		movs	r0, #0
 2906              	.LVL429:
 2907 0024 A047     		blx	r4
 2908              	.LVL430:
 2909              	.LBE60:
 669:Source\azure_iot_sdk\iothub_client\src/iothub_message.c ****         result = NULL;
 2910              		.loc 1 669 0 is_stmt 1 discriminator 4
 2911 0026 0020     		movs	r0, #0
 2912 0028 02E0     		b	.L195
 2913              	.LVL431:
 2914              	.L194:
 2915              	.LBB61:
 670:Source\azure_iot_sdk\iothub_client\src/iothub_message.c ****     }
 671:Source\azure_iot_sdk\iothub_client\src/iothub_message.c ****     else
 672:Source\azure_iot_sdk\iothub_client\src/iothub_message.c ****     {
 673:Source\azure_iot_sdk\iothub_client\src/iothub_message.c ****         IOTHUB_MESSAGE_HANDLE_DATA* handleData = iotHubMessageHandle;
 674:Source\azure_iot_sdk\iothub_client\src/iothub_message.c **** 
 675:Source\azure_iot_sdk\iothub_client\src/iothub_message.c ****         // Codes_SRS_IOTHUBMESSAGE_09_006: [IoTHubMessage_GetContentTypeSystemProperty shall return
 676:Source\azure_iot_sdk\iothub_client\src/iothub_message.c ****         result = (const char*)handleData->userDefinedContentType;
 2916              		.loc 1 676 0
 2917 002a 4069     		ldr	r0, [r0, #20]
 2918              	.LVL432:
 2919 002c 00E0     		b	.L195
 2920              	.LVL433:
ARM GAS  C:\Users\Phuong\AppData\Local\Temp\cc4zbCpa.s 			page 65


 2921              	.L196:
 2922              	.LBE61:
 669:Source\azure_iot_sdk\iothub_client\src/iothub_message.c ****         result = NULL;
 2923              		.loc 1 669 0
 2924 002e 0020     		movs	r0, #0
 2925              	.LVL434:
 2926              	.L195:
 677:Source\azure_iot_sdk\iothub_client\src/iothub_message.c ****     }
 678:Source\azure_iot_sdk\iothub_client\src/iothub_message.c **** 
 679:Source\azure_iot_sdk\iothub_client\src/iothub_message.c ****     return result;
 680:Source\azure_iot_sdk\iothub_client\src/iothub_message.c **** }
 2927              		.loc 1 680 0
 2928 0030 02B0     		add	sp, sp, #8
 2929              		@ sp needed
 2930 0032 10BD     		pop	{r4, pc}
 2931              	.L198:
 2932              		.align	2
 2933              	.L197:
 2934 0034 14060000 		.word	.LC105
 2935 0038 80010000 		.word	.LANCHOR4
 2936 003c 00000000 		.word	.LC1
 2937              		.cfi_endproc
 2938              	.LFE24:
 2939              		.size	IoTHubMessage_GetContentTypeSystemProperty, .-IoTHubMessage_GetContentTypeSystemProperty
 2940              		.section	.text.IoTHubMessage_SetContentEncodingSystemProperty,"ax",%progbits
 2941              		.align	2
 2942              		.global	IoTHubMessage_SetContentEncodingSystemProperty
 2943              		.code	16
 2944              		.thumb_func
 2945              		.type	IoTHubMessage_SetContentEncodingSystemProperty, %function
 2946              	IoTHubMessage_SetContentEncodingSystemProperty:
 2947              	.LFB25:
 681:Source\azure_iot_sdk\iothub_client\src/iothub_message.c **** 
 682:Source\azure_iot_sdk\iothub_client\src/iothub_message.c **** IOTHUB_MESSAGE_RESULT IoTHubMessage_SetContentEncodingSystemProperty(IOTHUB_MESSAGE_HANDLE iotHubMe
 683:Source\azure_iot_sdk\iothub_client\src/iothub_message.c **** {
 2948              		.loc 1 683 0
 2949              		.cfi_startproc
 2950              		@ args = 0, pretend = 0, frame = 0
 2951              		@ frame_needed = 0, uses_anonymous_args = 0
 2952              	.LVL435:
 2953 0000 70B5     		push	{r4, r5, r6, lr}
 2954              		.cfi_def_cfa_offset 16
 2955              		.cfi_offset 4, -16
 2956              		.cfi_offset 5, -12
 2957              		.cfi_offset 6, -8
 2958              		.cfi_offset 14, -4
 2959 0002 84B0     		sub	sp, sp, #16
 2960              		.cfi_def_cfa_offset 32
 2961 0004 0400     		movs	r4, r0
 2962 0006 0D00     		movs	r5, r1
 684:Source\azure_iot_sdk\iothub_client\src/iothub_message.c ****     IOTHUB_MESSAGE_RESULT result;
 685:Source\azure_iot_sdk\iothub_client\src/iothub_message.c **** 
 686:Source\azure_iot_sdk\iothub_client\src/iothub_message.c ****     // Codes_SRS_IOTHUBMESSAGE_09_006: [If any of the parameters are NULL then IoTHubMessage_SetCon
 687:Source\azure_iot_sdk\iothub_client\src/iothub_message.c ****     if (iotHubMessageHandle == NULL || contentEncoding == NULL)
 2963              		.loc 1 687 0
 2964 0008 0028     		cmp	r0, #0
 2965 000a 01D0     		beq	.L200
ARM GAS  C:\Users\Phuong\AppData\Local\Temp\cc4zbCpa.s 			page 66


 2966              		.loc 1 687 0 is_stmt 0 discriminator 1
 2967 000c 0029     		cmp	r1, #0
 2968 000e 11D1     		bne	.L201
 2969              	.L200:
 2970              	.LBB62:
 688:Source\azure_iot_sdk\iothub_client\src/iothub_message.c ****     {
 689:Source\azure_iot_sdk\iothub_client\src/iothub_message.c ****         LogError("Invalid argument (iotHubMessageHandle=%p, contentEncoding=%p)", iotHubMessageHand
 2971              		.loc 1 689 0 is_stmt 1 discriminator 3
 2972 0010 FFF7FEFF 		bl	xlogging_get_log_function
 2973              	.LVL436:
 2974 0014 061E     		subs	r6, r0, #0
 2975              	.LVL437:
 2976 0016 2BD0     		beq	.L204
 2977              		.loc 1 689 0 is_stmt 0 discriminator 4
 2978 0018 0395     		str	r5, [sp, #12]
 2979 001a 0294     		str	r4, [sp, #8]
 2980 001c 184B     		ldr	r3, .L207
 2981 001e 0193     		str	r3, [sp, #4]
 2982 0020 0123     		movs	r3, #1
 2983 0022 0093     		str	r3, [sp]
 2984 0024 174B     		ldr	r3, .L207+4
 2985 0026 184A     		ldr	r2, .L207+8
 2986 0028 3432     		adds	r2, r2, #52
 2987 002a 1849     		ldr	r1, .L207+12
 2988 002c 0020     		movs	r0, #0
 2989              	.LVL438:
 2990 002e B047     		blx	r6
 2991              	.LVL439:
 2992              	.LBE62:
 690:Source\azure_iot_sdk\iothub_client\src/iothub_message.c ****         result = IOTHUB_MESSAGE_INVALID_ARG;
 2993              		.loc 1 690 0 is_stmt 1 discriminator 4
 2994 0030 0120     		movs	r0, #1
 2995 0032 22E0     		b	.L202
 2996              	.LVL440:
 2997              	.L201:
 2998              	.LBB63:
 691:Source\azure_iot_sdk\iothub_client\src/iothub_message.c ****     }
 692:Source\azure_iot_sdk\iothub_client\src/iothub_message.c ****     else
 693:Source\azure_iot_sdk\iothub_client\src/iothub_message.c ****     {
 694:Source\azure_iot_sdk\iothub_client\src/iothub_message.c ****         IOTHUB_MESSAGE_HANDLE_DATA* handleData = (IOTHUB_MESSAGE_HANDLE_DATA*)iotHubMessageHandle;
 695:Source\azure_iot_sdk\iothub_client\src/iothub_message.c **** 
 696:Source\azure_iot_sdk\iothub_client\src/iothub_message.c ****         // Codes_SRS_IOTHUBMESSAGE_09_007: [If the IOTHUB_MESSAGE_HANDLE `contentEncoding` is not N
 697:Source\azure_iot_sdk\iothub_client\src/iothub_message.c ****         if (handleData->contentEncoding != NULL)
 2999              		.loc 1 697 0
 3000 0034 8069     		ldr	r0, [r0, #24]
 3001              	.LVL441:
 3002 0036 0028     		cmp	r0, #0
 3003 0038 03D0     		beq	.L203
 698:Source\azure_iot_sdk\iothub_client\src/iothub_message.c ****         {
 699:Source\azure_iot_sdk\iothub_client\src/iothub_message.c ****             free(handleData->contentEncoding);
 3004              		.loc 1 699 0
 3005 003a FFF7FEFF 		bl	free
 3006              	.LVL442:
 700:Source\azure_iot_sdk\iothub_client\src/iothub_message.c ****             handleData->contentEncoding = NULL;
 3007              		.loc 1 700 0
 3008 003e 0023     		movs	r3, #0
 3009 0040 A361     		str	r3, [r4, #24]
ARM GAS  C:\Users\Phuong\AppData\Local\Temp\cc4zbCpa.s 			page 67


 3010              	.L203:
 701:Source\azure_iot_sdk\iothub_client\src/iothub_message.c ****         }
 702:Source\azure_iot_sdk\iothub_client\src/iothub_message.c **** 
 703:Source\azure_iot_sdk\iothub_client\src/iothub_message.c ****         if (mallocAndStrcpy_s(&handleData->contentEncoding, contentEncoding) != 0)
 3011              		.loc 1 703 0
 3012 0042 2000     		movs	r0, r4
 3013 0044 1830     		adds	r0, r0, #24
 3014 0046 2900     		movs	r1, r5
 3015 0048 FFF7FEFF 		bl	mallocAndStrcpy_s
 3016              	.LVL443:
 3017 004c 0028     		cmp	r0, #0
 3018 004e 11D0     		beq	.L205
 3019              	.LBB64:
 704:Source\azure_iot_sdk\iothub_client\src/iothub_message.c ****         {
 705:Source\azure_iot_sdk\iothub_client\src/iothub_message.c ****             LogError("Failed saving a copy of contentEncoding");
 3020              		.loc 1 705 0 discriminator 3
 3021 0050 FFF7FEFF 		bl	xlogging_get_log_function
 3022              	.LVL444:
 3023 0054 041E     		subs	r4, r0, #0
 3024              	.LVL445:
 3025 0056 0FD0     		beq	.L206
 3026              		.loc 1 705 0 is_stmt 0 discriminator 4
 3027 0058 0D4B     		ldr	r3, .L207+16
 3028 005a 0193     		str	r3, [sp, #4]
 3029 005c 0123     		movs	r3, #1
 3030 005e 0093     		str	r3, [sp]
 3031 0060 0C4B     		ldr	r3, .L207+20
 3032 0062 094A     		ldr	r2, .L207+8
 3033 0064 3432     		adds	r2, r2, #52
 3034 0066 0949     		ldr	r1, .L207+12
 3035 0068 0020     		movs	r0, #0
 3036              	.LVL446:
 3037 006a A047     		blx	r4
 3038              	.LVL447:
 3039              	.LBE64:
 706:Source\azure_iot_sdk\iothub_client\src/iothub_message.c ****             // Codes_SRS_IOTHUBMESSAGE_09_008: [If the allocation or the copying of `contentEncodin
 707:Source\azure_iot_sdk\iothub_client\src/iothub_message.c ****             result = IOTHUB_MESSAGE_ERROR;
 3040              		.loc 1 707 0 is_stmt 1 discriminator 4
 3041 006c 0320     		movs	r0, #3
 3042 006e 04E0     		b	.L202
 3043              	.LVL448:
 3044              	.L204:
 3045              	.LBE63:
 690:Source\azure_iot_sdk\iothub_client\src/iothub_message.c ****     }
 3046              		.loc 1 690 0
 3047 0070 0120     		movs	r0, #1
 3048              	.LVL449:
 3049 0072 02E0     		b	.L202
 3050              	.LVL450:
 3051              	.L205:
 3052              	.LBB65:
 708:Source\azure_iot_sdk\iothub_client\src/iothub_message.c ****         }
 709:Source\azure_iot_sdk\iothub_client\src/iothub_message.c ****         else
 710:Source\azure_iot_sdk\iothub_client\src/iothub_message.c ****         {
 711:Source\azure_iot_sdk\iothub_client\src/iothub_message.c ****             // Codes_SRS_IOTHUBMESSAGE_09_009: [If IoTHubMessage_SetContentEncodingSystemProperty f
 712:Source\azure_iot_sdk\iothub_client\src/iothub_message.c ****             result = IOTHUB_MESSAGE_OK;
 3053              		.loc 1 712 0
ARM GAS  C:\Users\Phuong\AppData\Local\Temp\cc4zbCpa.s 			page 68


 3054 0074 0020     		movs	r0, #0
 3055 0076 00E0     		b	.L202
 3056              	.LVL451:
 3057              	.L206:
 707:Source\azure_iot_sdk\iothub_client\src/iothub_message.c ****         }
 3058              		.loc 1 707 0
 3059 0078 0320     		movs	r0, #3
 3060              	.LVL452:
 3061              	.L202:
 3062              	.LBE65:
 713:Source\azure_iot_sdk\iothub_client\src/iothub_message.c ****         }
 714:Source\azure_iot_sdk\iothub_client\src/iothub_message.c ****     }
 715:Source\azure_iot_sdk\iothub_client\src/iothub_message.c **** 
 716:Source\azure_iot_sdk\iothub_client\src/iothub_message.c ****     return result;
 717:Source\azure_iot_sdk\iothub_client\src/iothub_message.c **** }
 3063              		.loc 1 717 0
 3064 007a 04B0     		add	sp, sp, #16
 3065              		@ sp needed
 3066              	.LVL453:
 3067 007c 70BD     		pop	{r4, r5, r6, pc}
 3068              	.L208:
 3069 007e C046     		.align	2
 3070              	.L207:
 3071 0080 44060000 		.word	.LC109
 3072 0084 B1020000 		.word	689
 3073 0088 80010000 		.word	.LANCHOR4
 3074 008c 00000000 		.word	.LC1
 3075 0090 84060000 		.word	.LC111
 3076 0094 C1020000 		.word	705
 3077              		.cfi_endproc
 3078              	.LFE25:
 3079              		.size	IoTHubMessage_SetContentEncodingSystemProperty, .-IoTHubMessage_SetContentEncodingSystemProp
 3080              		.section	.text.IoTHubMessage_GetContentEncodingSystemProperty,"ax",%progbits
 3081              		.align	2
 3082              		.global	IoTHubMessage_GetContentEncodingSystemProperty
 3083              		.code	16
 3084              		.thumb_func
 3085              		.type	IoTHubMessage_GetContentEncodingSystemProperty, %function
 3086              	IoTHubMessage_GetContentEncodingSystemProperty:
 3087              	.LFB26:
 718:Source\azure_iot_sdk\iothub_client\src/iothub_message.c **** 
 719:Source\azure_iot_sdk\iothub_client\src/iothub_message.c **** const char* IoTHubMessage_GetContentEncodingSystemProperty(IOTHUB_MESSAGE_HANDLE iotHubMessageHandl
 720:Source\azure_iot_sdk\iothub_client\src/iothub_message.c **** {
 3088              		.loc 1 720 0
 3089              		.cfi_startproc
 3090              		@ args = 0, pretend = 0, frame = 0
 3091              		@ frame_needed = 0, uses_anonymous_args = 0
 3092              	.LVL454:
 3093 0000 10B5     		push	{r4, lr}
 3094              		.cfi_def_cfa_offset 8
 3095              		.cfi_offset 4, -8
 3096              		.cfi_offset 14, -4
 3097 0002 82B0     		sub	sp, sp, #8
 3098              		.cfi_def_cfa_offset 16
 721:Source\azure_iot_sdk\iothub_client\src/iothub_message.c ****     const char* result;
 722:Source\azure_iot_sdk\iothub_client\src/iothub_message.c **** 
 723:Source\azure_iot_sdk\iothub_client\src/iothub_message.c ****     // Codes_SRS_IOTHUBMESSAGE_09_010: [If any of the parameters are NULL then IoTHubMessage_GetCon
ARM GAS  C:\Users\Phuong\AppData\Local\Temp\cc4zbCpa.s 			page 69


 724:Source\azure_iot_sdk\iothub_client\src/iothub_message.c ****     if (iotHubMessageHandle == NULL)
 3099              		.loc 1 724 0
 3100 0004 0028     		cmp	r0, #0
 3101 0006 0FD1     		bne	.L210
 3102              	.LBB66:
 725:Source\azure_iot_sdk\iothub_client\src/iothub_message.c ****     {
 726:Source\azure_iot_sdk\iothub_client\src/iothub_message.c ****         LogError("Invalid argument (iotHubMessageHandle is NULL)");
 3103              		.loc 1 726 0 discriminator 3
 3104 0008 FFF7FEFF 		bl	xlogging_get_log_function
 3105              	.LVL455:
 3106 000c 041E     		subs	r4, r0, #0
 3107              	.LVL456:
 3108 000e 0DD0     		beq	.L212
 3109              		.loc 1 726 0 is_stmt 0 discriminator 4
 3110 0010 084B     		ldr	r3, .L213
 3111 0012 0193     		str	r3, [sp, #4]
 3112 0014 0123     		movs	r3, #1
 3113 0016 0093     		str	r3, [sp]
 3114 0018 074B     		ldr	r3, .L213+4
 3115 001a 084A     		ldr	r2, .L213+8
 3116 001c 6432     		adds	r2, r2, #100
 3117 001e 0849     		ldr	r1, .L213+12
 3118 0020 0020     		movs	r0, #0
 3119              	.LVL457:
 3120 0022 A047     		blx	r4
 3121              	.LVL458:
 3122              	.LBE66:
 727:Source\azure_iot_sdk\iothub_client\src/iothub_message.c ****         result = NULL;
 3123              		.loc 1 727 0 is_stmt 1 discriminator 4
 3124 0024 0020     		movs	r0, #0
 3125 0026 02E0     		b	.L211
 3126              	.LVL459:
 3127              	.L210:
 3128              	.LBB67:
 728:Source\azure_iot_sdk\iothub_client\src/iothub_message.c ****     }
 729:Source\azure_iot_sdk\iothub_client\src/iothub_message.c ****     else
 730:Source\azure_iot_sdk\iothub_client\src/iothub_message.c ****     {
 731:Source\azure_iot_sdk\iothub_client\src/iothub_message.c ****         IOTHUB_MESSAGE_HANDLE_DATA* handleData = iotHubMessageHandle;
 732:Source\azure_iot_sdk\iothub_client\src/iothub_message.c **** 
 733:Source\azure_iot_sdk\iothub_client\src/iothub_message.c ****         // Codes_SRS_IOTHUBMESSAGE_09_011: [IoTHubMessage_GetContentEncodingSystemProperty shall re
 734:Source\azure_iot_sdk\iothub_client\src/iothub_message.c ****         result = (const char*)handleData->contentEncoding;
 3129              		.loc 1 734 0
 3130 0028 8069     		ldr	r0, [r0, #24]
 3131              	.LVL460:
 3132 002a 00E0     		b	.L211
 3133              	.LVL461:
 3134              	.L212:
 3135              	.LBE67:
 727:Source\azure_iot_sdk\iothub_client\src/iothub_message.c ****         result = NULL;
 3136              		.loc 1 727 0
 3137 002c 0020     		movs	r0, #0
 3138              	.LVL462:
 3139              	.L211:
 735:Source\azure_iot_sdk\iothub_client\src/iothub_message.c ****     }
 736:Source\azure_iot_sdk\iothub_client\src/iothub_message.c **** 
 737:Source\azure_iot_sdk\iothub_client\src/iothub_message.c ****     return result;
 738:Source\azure_iot_sdk\iothub_client\src/iothub_message.c **** }
ARM GAS  C:\Users\Phuong\AppData\Local\Temp\cc4zbCpa.s 			page 70


 3140              		.loc 1 738 0
 3141 002e 02B0     		add	sp, sp, #8
 3142              		@ sp needed
 3143 0030 10BD     		pop	{r4, pc}
 3144              	.L214:
 3145 0032 C046     		.align	2
 3146              	.L213:
 3147 0034 14060000 		.word	.LC105
 3148 0038 D6020000 		.word	726
 3149 003c 80010000 		.word	.LANCHOR4
 3150 0040 00000000 		.word	.LC1
 3151              		.cfi_endproc
 3152              	.LFE26:
 3153              		.size	IoTHubMessage_GetContentEncodingSystemProperty, .-IoTHubMessage_GetContentEncodingSystemProp
 3154              		.section	.text.IoTHubMessage_GetDiagnosticPropertyData,"ax",%progbits
 3155              		.align	2
 3156              		.global	IoTHubMessage_GetDiagnosticPropertyData
 3157              		.code	16
 3158              		.thumb_func
 3159              		.type	IoTHubMessage_GetDiagnosticPropertyData, %function
 3160              	IoTHubMessage_GetDiagnosticPropertyData:
 3161              	.LFB27:
 739:Source\azure_iot_sdk\iothub_client\src/iothub_message.c **** 
 740:Source\azure_iot_sdk\iothub_client\src/iothub_message.c **** const IOTHUB_MESSAGE_DIAGNOSTIC_PROPERTY_DATA* IoTHubMessage_GetDiagnosticPropertyData(IOTHUB_MESSA
 741:Source\azure_iot_sdk\iothub_client\src/iothub_message.c **** {
 3162              		.loc 1 741 0
 3163              		.cfi_startproc
 3164              		@ args = 0, pretend = 0, frame = 0
 3165              		@ frame_needed = 0, uses_anonymous_args = 0
 3166              	.LVL463:
 3167 0000 10B5     		push	{r4, lr}
 3168              		.cfi_def_cfa_offset 8
 3169              		.cfi_offset 4, -8
 3170              		.cfi_offset 14, -4
 3171 0002 82B0     		sub	sp, sp, #8
 3172              		.cfi_def_cfa_offset 16
 742:Source\azure_iot_sdk\iothub_client\src/iothub_message.c ****     const IOTHUB_MESSAGE_DIAGNOSTIC_PROPERTY_DATA* result;
 743:Source\azure_iot_sdk\iothub_client\src/iothub_message.c ****     // Codes_SRS_IOTHUBMESSAGE_10_001: [If any of the parameters are NULL then IoTHubMessage_GetDia
 744:Source\azure_iot_sdk\iothub_client\src/iothub_message.c ****     if (iotHubMessageHandle == NULL)
 3173              		.loc 1 744 0
 3174 0004 0028     		cmp	r0, #0
 3175 0006 0FD1     		bne	.L216
 3176              	.LBB68:
 745:Source\azure_iot_sdk\iothub_client\src/iothub_message.c ****     {
 746:Source\azure_iot_sdk\iothub_client\src/iothub_message.c ****         LogError("Invalid argument (iotHubMessageHandle is NULL)");
 3177              		.loc 1 746 0 discriminator 3
 3178 0008 FFF7FEFF 		bl	xlogging_get_log_function
 3179              	.LVL464:
 3180 000c 041E     		subs	r4, r0, #0
 3181              	.LVL465:
 3182 000e 0DD0     		beq	.L218
 3183              		.loc 1 746 0 is_stmt 0 discriminator 4
 3184 0010 084B     		ldr	r3, .L219
 3185 0012 0193     		str	r3, [sp, #4]
 3186 0014 0123     		movs	r3, #1
 3187 0016 0093     		str	r3, [sp]
 3188 0018 074B     		ldr	r3, .L219+4
ARM GAS  C:\Users\Phuong\AppData\Local\Temp\cc4zbCpa.s 			page 71


 3189 001a 084A     		ldr	r2, .L219+8
 3190 001c 1432     		adds	r2, r2, #20
 3191 001e 0849     		ldr	r1, .L219+12
 3192 0020 0020     		movs	r0, #0
 3193              	.LVL466:
 3194 0022 A047     		blx	r4
 3195              	.LVL467:
 3196              	.LBE68:
 747:Source\azure_iot_sdk\iothub_client\src/iothub_message.c ****         result = NULL;
 3197              		.loc 1 747 0 is_stmt 1 discriminator 4
 3198 0024 0020     		movs	r0, #0
 3199 0026 02E0     		b	.L217
 3200              	.LVL468:
 3201              	.L216:
 748:Source\azure_iot_sdk\iothub_client\src/iothub_message.c ****     }
 749:Source\azure_iot_sdk\iothub_client\src/iothub_message.c ****     else
 750:Source\azure_iot_sdk\iothub_client\src/iothub_message.c ****     {
 751:Source\azure_iot_sdk\iothub_client\src/iothub_message.c ****         /* Codes_SRS_IOTHUBMESSAGE_10_002: [IoTHubMessage_GetDiagnosticPropertyData shall return th
 752:Source\azure_iot_sdk\iothub_client\src/iothub_message.c ****         result = iotHubMessageHandle->diagnosticData;
 3202              		.loc 1 752 0
 3203 0028 C06A     		ldr	r0, [r0, #44]
 3204              	.LVL469:
 3205 002a 00E0     		b	.L217
 3206              	.LVL470:
 3207              	.L218:
 747:Source\azure_iot_sdk\iothub_client\src/iothub_message.c ****         result = NULL;
 3208              		.loc 1 747 0
 3209 002c 0020     		movs	r0, #0
 3210              	.LVL471:
 3211              	.L217:
 753:Source\azure_iot_sdk\iothub_client\src/iothub_message.c ****     }
 754:Source\azure_iot_sdk\iothub_client\src/iothub_message.c ****     return result;
 755:Source\azure_iot_sdk\iothub_client\src/iothub_message.c **** }
 3212              		.loc 1 755 0
 3213 002e 02B0     		add	sp, sp, #8
 3214              		@ sp needed
 3215 0030 10BD     		pop	{r4, pc}
 3216              	.L220:
 3217 0032 C046     		.align	2
 3218              	.L219:
 3219 0034 14060000 		.word	.LC105
 3220 0038 EA020000 		.word	746
 3221 003c 00020000 		.word	.LANCHOR5
 3222 0040 00000000 		.word	.LC1
 3223              		.cfi_endproc
 3224              	.LFE27:
 3225              		.size	IoTHubMessage_GetDiagnosticPropertyData, .-IoTHubMessage_GetDiagnosticPropertyData
 3226              		.section	.text.IoTHubMessage_SetDiagnosticPropertyData,"ax",%progbits
 3227              		.align	2
 3228              		.global	IoTHubMessage_SetDiagnosticPropertyData
 3229              		.code	16
 3230              		.thumb_func
 3231              		.type	IoTHubMessage_SetDiagnosticPropertyData, %function
 3232              	IoTHubMessage_SetDiagnosticPropertyData:
 3233              	.LFB28:
 756:Source\azure_iot_sdk\iothub_client\src/iothub_message.c **** 
 757:Source\azure_iot_sdk\iothub_client\src/iothub_message.c **** IOTHUB_MESSAGE_RESULT IoTHubMessage_SetDiagnosticPropertyData(IOTHUB_MESSAGE_HANDLE iotHubMessageHa
ARM GAS  C:\Users\Phuong\AppData\Local\Temp\cc4zbCpa.s 			page 72


 758:Source\azure_iot_sdk\iothub_client\src/iothub_message.c **** {
 3234              		.loc 1 758 0
 3235              		.cfi_startproc
 3236              		@ args = 0, pretend = 0, frame = 0
 3237              		@ frame_needed = 0, uses_anonymous_args = 0
 3238              	.LVL472:
 3239 0000 70B5     		push	{r4, r5, r6, lr}
 3240              		.cfi_def_cfa_offset 16
 3241              		.cfi_offset 4, -16
 3242              		.cfi_offset 5, -12
 3243              		.cfi_offset 6, -8
 3244              		.cfi_offset 14, -4
 3245 0002 86B0     		sub	sp, sp, #24
 3246              		.cfi_def_cfa_offset 40
 3247 0004 0500     		movs	r5, r0
 3248 0006 0C00     		movs	r4, r1
 759:Source\azure_iot_sdk\iothub_client\src/iothub_message.c ****     IOTHUB_MESSAGE_RESULT result;
 760:Source\azure_iot_sdk\iothub_client\src/iothub_message.c ****     // Codes_SRS_IOTHUBMESSAGE_10_003: [If any of the parameters are NULL then IoTHubMessage_SetDia
 761:Source\azure_iot_sdk\iothub_client\src/iothub_message.c ****     if (iotHubMessageHandle == NULL ||
 3249              		.loc 1 761 0
 3250 0008 0028     		cmp	r0, #0
 3251 000a 07D0     		beq	.L222
 3252              		.loc 1 761 0 is_stmt 0 discriminator 1
 3253 000c 0029     		cmp	r1, #0
 3254 000e 05D0     		beq	.L222
 762:Source\azure_iot_sdk\iothub_client\src/iothub_message.c ****         diagnosticData == NULL ||
 3255              		.loc 1 762 0 is_stmt 1
 3256 0010 4B68     		ldr	r3, [r1, #4]
 3257 0012 002B     		cmp	r3, #0
 3258 0014 02D0     		beq	.L222
 763:Source\azure_iot_sdk\iothub_client\src/iothub_message.c ****         diagnosticData->diagnosticCreationTimeUtc == NULL ||
 3259              		.loc 1 763 0
 3260 0016 0B68     		ldr	r3, [r1]
 3261 0018 002B     		cmp	r3, #0
 3262 001a 1DD1     		bne	.L223
 3263              	.L222:
 3264              	.LBB69:
 764:Source\azure_iot_sdk\iothub_client\src/iothub_message.c ****         diagnosticData->diagnosticId == NULL)
 765:Source\azure_iot_sdk\iothub_client\src/iothub_message.c ****     {
 766:Source\azure_iot_sdk\iothub_client\src/iothub_message.c ****         LogError("Invalid argument (iotHubMessageHandle=%p, diagnosticData=%p, diagnosticData->diag
 3265              		.loc 1 766 0 discriminator 11
 3266 001c FFF7FEFF 		bl	xlogging_get_log_function
 3267              	.LVL473:
 3268 0020 061E     		subs	r6, r0, #0
 3269              	.LVL474:
 3270 0022 37D0     		beq	.L228
 3271              		.loc 1 766 0 is_stmt 0 discriminator 12
 3272 0024 002C     		cmp	r4, #0
 3273 0026 01D0     		beq	.L229
 3274              		.loc 1 766 0 discriminator 14
 3275 0028 2368     		ldr	r3, [r4]
 3276 002a 00E0     		b	.L225
 3277              	.L229:
 3278              		.loc 1 766 0
 3279 002c 0023     		movs	r3, #0
 3280              	.L225:
 3281              		.loc 1 766 0 discriminator 17
ARM GAS  C:\Users\Phuong\AppData\Local\Temp\cc4zbCpa.s 			page 73


 3282 002e 002C     		cmp	r4, #0
 3283 0030 01D0     		beq	.L230
 3284              		.loc 1 766 0 discriminator 18
 3285 0032 6268     		ldr	r2, [r4, #4]
 3286 0034 00E0     		b	.L226
 3287              	.L230:
 3288              		.loc 1 766 0
 3289 0036 0022     		movs	r2, #0
 3290              	.L226:
 3291              		.loc 1 766 0 discriminator 21
 3292 0038 0592     		str	r2, [sp, #20]
 3293 003a 0493     		str	r3, [sp, #16]
 3294 003c 0394     		str	r4, [sp, #12]
 3295 003e 0295     		str	r5, [sp, #8]
 3296 0040 184B     		ldr	r3, .L233
 3297 0042 0193     		str	r3, [sp, #4]
 3298 0044 0123     		movs	r3, #1
 3299 0046 0093     		str	r3, [sp]
 3300 0048 174B     		ldr	r3, .L233+4
 3301 004a 184A     		ldr	r2, .L233+8
 3302 004c 3C32     		adds	r2, r2, #60
 3303 004e 1849     		ldr	r1, .L233+12
 3304 0050 0020     		movs	r0, #0
 3305              	.LVL475:
 3306 0052 B047     		blx	r6
 3307              	.LVL476:
 3308              	.LBE69:
 767:Source\azure_iot_sdk\iothub_client\src/iothub_message.c ****             iotHubMessageHandle, diagnosticData,
 768:Source\azure_iot_sdk\iothub_client\src/iothub_message.c ****             diagnosticData == NULL ? NULL : diagnosticData->diagnosticId,
 769:Source\azure_iot_sdk\iothub_client\src/iothub_message.c ****             diagnosticData == NULL ? NULL : diagnosticData->diagnosticCreationTimeUtc);
 770:Source\azure_iot_sdk\iothub_client\src/iothub_message.c ****         result = IOTHUB_MESSAGE_INVALID_ARG;
 3309              		.loc 1 770 0 is_stmt 1 discriminator 21
 3310 0054 0120     		movs	r0, #1
 3311 0056 22E0     		b	.L224
 3312              	.LVL477:
 3313              	.L223:
 771:Source\azure_iot_sdk\iothub_client\src/iothub_message.c ****     }
 772:Source\azure_iot_sdk\iothub_client\src/iothub_message.c ****     else
 773:Source\azure_iot_sdk\iothub_client\src/iothub_message.c ****     {
 774:Source\azure_iot_sdk\iothub_client\src/iothub_message.c ****         // Codes_SRS_IOTHUBMESSAGE_10_004: [If the IOTHUB_MESSAGE_HANDLE `diagnosticData` is not NU
 775:Source\azure_iot_sdk\iothub_client\src/iothub_message.c ****         if (iotHubMessageHandle->diagnosticData != NULL)
 3314              		.loc 1 775 0
 3315 0058 C06A     		ldr	r0, [r0, #44]
 3316              	.LVL478:
 3317 005a 0028     		cmp	r0, #0
 3318 005c 03D0     		beq	.L227
 776:Source\azure_iot_sdk\iothub_client\src/iothub_message.c ****         {
 777:Source\azure_iot_sdk\iothub_client\src/iothub_message.c ****             DestroyDiagnosticPropertyData(iotHubMessageHandle->diagnosticData);
 3319              		.loc 1 777 0
 3320 005e FFF7FEFF 		bl	DestroyDiagnosticPropertyData
 3321              	.LVL479:
 778:Source\azure_iot_sdk\iothub_client\src/iothub_message.c ****             iotHubMessageHandle->diagnosticData = NULL;
 3322              		.loc 1 778 0
 3323 0062 0023     		movs	r3, #0
 3324 0064 EB62     		str	r3, [r5, #44]
 3325              	.L227:
 779:Source\azure_iot_sdk\iothub_client\src/iothub_message.c ****         }
ARM GAS  C:\Users\Phuong\AppData\Local\Temp\cc4zbCpa.s 			page 74


 780:Source\azure_iot_sdk\iothub_client\src/iothub_message.c **** 
 781:Source\azure_iot_sdk\iothub_client\src/iothub_message.c ****         // Codes_SRS_IOTHUBMESSAGE_10_005: [If the allocation or the copying of `diagnosticData` fa
 782:Source\azure_iot_sdk\iothub_client\src/iothub_message.c ****         if ((iotHubMessageHandle->diagnosticData = CloneDiagnosticPropertyData(diagnosticData)) == 
 3326              		.loc 1 782 0
 3327 0066 2000     		movs	r0, r4
 3328 0068 FFF7FEFF 		bl	CloneDiagnosticPropertyData
 3329              	.LVL480:
 3330 006c E862     		str	r0, [r5, #44]
 3331 006e 0028     		cmp	r0, #0
 3332 0070 12D1     		bne	.L231
 3333              	.LBB70:
 783:Source\azure_iot_sdk\iothub_client\src/iothub_message.c ****         {
 784:Source\azure_iot_sdk\iothub_client\src/iothub_message.c ****             LogError("Failed saving a copy of diagnosticData");
 3334              		.loc 1 784 0 discriminator 3
 3335 0072 FFF7FEFF 		bl	xlogging_get_log_function
 3336              	.LVL481:
 3337 0076 041E     		subs	r4, r0, #0
 3338              	.LVL482:
 3339 0078 10D0     		beq	.L232
 3340              		.loc 1 784 0 is_stmt 0 discriminator 4
 3341 007a 0E4B     		ldr	r3, .L233+16
 3342 007c 0193     		str	r3, [sp, #4]
 3343 007e 0123     		movs	r3, #1
 3344 0080 0093     		str	r3, [sp]
 3345 0082 C423     		movs	r3, #196
 3346 0084 9B00     		lsls	r3, r3, #2
 3347 0086 094A     		ldr	r2, .L233+8
 3348 0088 3C32     		adds	r2, r2, #60
 3349 008a 0949     		ldr	r1, .L233+12
 3350 008c 0020     		movs	r0, #0
 3351              	.LVL483:
 3352 008e A047     		blx	r4
 3353              	.LVL484:
 3354              	.LBE70:
 785:Source\azure_iot_sdk\iothub_client\src/iothub_message.c ****             result = IOTHUB_MESSAGE_ERROR;
 3355              		.loc 1 785 0 is_stmt 1 discriminator 4
 3356 0090 0320     		movs	r0, #3
 3357 0092 04E0     		b	.L224
 3358              	.LVL485:
 3359              	.L228:
 770:Source\azure_iot_sdk\iothub_client\src/iothub_message.c ****     }
 3360              		.loc 1 770 0
 3361 0094 0120     		movs	r0, #1
 3362              	.LVL486:
 3363 0096 02E0     		b	.L224
 3364              	.LVL487:
 3365              	.L231:
 786:Source\azure_iot_sdk\iothub_client\src/iothub_message.c ****         }
 787:Source\azure_iot_sdk\iothub_client\src/iothub_message.c ****         else
 788:Source\azure_iot_sdk\iothub_client\src/iothub_message.c ****         {
 789:Source\azure_iot_sdk\iothub_client\src/iothub_message.c ****             // Codes_SRS_IOTHUBMESSAGE_10_006: [If IoTHubMessage_SetDiagnosticPropertyData finishes
 790:Source\azure_iot_sdk\iothub_client\src/iothub_message.c ****             result = IOTHUB_MESSAGE_OK;
 3366              		.loc 1 790 0
 3367 0098 0020     		movs	r0, #0
 3368 009a 00E0     		b	.L224
 3369              	.LVL488:
 3370              	.L232:
ARM GAS  C:\Users\Phuong\AppData\Local\Temp\cc4zbCpa.s 			page 75


 785:Source\azure_iot_sdk\iothub_client\src/iothub_message.c ****         }
 3371              		.loc 1 785 0
 3372 009c 0320     		movs	r0, #3
 3373              	.LVL489:
 3374              	.L224:
 791:Source\azure_iot_sdk\iothub_client\src/iothub_message.c ****         }
 792:Source\azure_iot_sdk\iothub_client\src/iothub_message.c ****     }
 793:Source\azure_iot_sdk\iothub_client\src/iothub_message.c ****     return result;
 794:Source\azure_iot_sdk\iothub_client\src/iothub_message.c **** }
 3375              		.loc 1 794 0
 3376 009e 06B0     		add	sp, sp, #24
 3377              		@ sp needed
 3378              	.LVL490:
 3379 00a0 70BD     		pop	{r4, r5, r6, pc}
 3380              	.L234:
 3381 00a2 C046     		.align	2
 3382              	.L233:
 3383 00a4 AC060000 		.word	.LC121
 3384 00a8 01030000 		.word	769
 3385 00ac 00020000 		.word	.LANCHOR5
 3386 00b0 00000000 		.word	.LC1
 3387 00b4 38070000 		.word	.LC123
 3388              		.cfi_endproc
 3389              	.LFE28:
 3390              		.size	IoTHubMessage_SetDiagnosticPropertyData, .-IoTHubMessage_SetDiagnosticPropertyData
 3391              		.section	.text.IoTHubMessage_GetOutputName,"ax",%progbits
 3392              		.align	2
 3393              		.global	IoTHubMessage_GetOutputName
 3394              		.code	16
 3395              		.thumb_func
 3396              		.type	IoTHubMessage_GetOutputName, %function
 3397              	IoTHubMessage_GetOutputName:
 3398              	.LFB29:
 795:Source\azure_iot_sdk\iothub_client\src/iothub_message.c **** 
 796:Source\azure_iot_sdk\iothub_client\src/iothub_message.c **** 
 797:Source\azure_iot_sdk\iothub_client\src/iothub_message.c **** const char* IoTHubMessage_GetOutputName(IOTHUB_MESSAGE_HANDLE iotHubMessageHandle)
 798:Source\azure_iot_sdk\iothub_client\src/iothub_message.c **** {
 3399              		.loc 1 798 0
 3400              		.cfi_startproc
 3401              		@ args = 0, pretend = 0, frame = 0
 3402              		@ frame_needed = 0, uses_anonymous_args = 0
 3403              	.LVL491:
 3404 0000 10B5     		push	{r4, lr}
 3405              		.cfi_def_cfa_offset 8
 3406              		.cfi_offset 4, -8
 3407              		.cfi_offset 14, -4
 3408 0002 82B0     		sub	sp, sp, #8
 3409              		.cfi_def_cfa_offset 16
 799:Source\azure_iot_sdk\iothub_client\src/iothub_message.c ****     const char* result;
 800:Source\azure_iot_sdk\iothub_client\src/iothub_message.c ****     // Codes_SRS_IOTHUBMESSAGE_31_034: [If the iotHubMessageHandle parameter is NULL then IoTHubMes
 801:Source\azure_iot_sdk\iothub_client\src/iothub_message.c ****     if (iotHubMessageHandle == NULL)
 3410              		.loc 1 801 0
 3411 0004 0028     		cmp	r0, #0
 3412 0006 0FD1     		bne	.L236
 3413              	.LBB71:
 802:Source\azure_iot_sdk\iothub_client\src/iothub_message.c ****     {
 803:Source\azure_iot_sdk\iothub_client\src/iothub_message.c ****         LogError("Invalid argument (iotHubMessageHandle is NULL)");
ARM GAS  C:\Users\Phuong\AppData\Local\Temp\cc4zbCpa.s 			page 76


 3414              		.loc 1 803 0 discriminator 3
 3415 0008 FFF7FEFF 		bl	xlogging_get_log_function
 3416              	.LVL492:
 3417 000c 041E     		subs	r4, r0, #0
 3418              	.LVL493:
 3419 000e 0DD0     		beq	.L238
 3420              		.loc 1 803 0 is_stmt 0 discriminator 4
 3421 0010 084B     		ldr	r3, .L239
 3422 0012 0193     		str	r3, [sp, #4]
 3423 0014 0123     		movs	r3, #1
 3424 0016 0093     		str	r3, [sp]
 3425 0018 074B     		ldr	r3, .L239+4
 3426 001a 084A     		ldr	r2, .L239+8
 3427 001c 6432     		adds	r2, r2, #100
 3428 001e 0849     		ldr	r1, .L239+12
 3429 0020 0020     		movs	r0, #0
 3430              	.LVL494:
 3431 0022 A047     		blx	r4
 3432              	.LVL495:
 3433              	.LBE71:
 804:Source\azure_iot_sdk\iothub_client\src/iothub_message.c ****         result = NULL;
 3434              		.loc 1 804 0 is_stmt 1 discriminator 4
 3435 0024 0020     		movs	r0, #0
 3436 0026 02E0     		b	.L237
 3437              	.LVL496:
 3438              	.L236:
 805:Source\azure_iot_sdk\iothub_client\src/iothub_message.c ****     }
 806:Source\azure_iot_sdk\iothub_client\src/iothub_message.c ****     else
 807:Source\azure_iot_sdk\iothub_client\src/iothub_message.c ****     {
 808:Source\azure_iot_sdk\iothub_client\src/iothub_message.c ****         // Codes_SRS_IOTHUBMESSAGE_31_035: [IoTHubMessage_GetOutputName shall return the OutputName
 809:Source\azure_iot_sdk\iothub_client\src/iothub_message.c ****         result = iotHubMessageHandle->outputName;
 3439              		.loc 1 809 0
 3440 0028 C069     		ldr	r0, [r0, #28]
 3441              	.LVL497:
 3442 002a 00E0     		b	.L237
 3443              	.LVL498:
 3444              	.L238:
 804:Source\azure_iot_sdk\iothub_client\src/iothub_message.c ****         result = NULL;
 3445              		.loc 1 804 0
 3446 002c 0020     		movs	r0, #0
 3447              	.LVL499:
 3448              	.L237:
 810:Source\azure_iot_sdk\iothub_client\src/iothub_message.c ****     }
 811:Source\azure_iot_sdk\iothub_client\src/iothub_message.c ****     return result;
 812:Source\azure_iot_sdk\iothub_client\src/iothub_message.c **** }
 3449              		.loc 1 812 0
 3450 002e 02B0     		add	sp, sp, #8
 3451              		@ sp needed
 3452 0030 10BD     		pop	{r4, pc}
 3453              	.L240:
 3454 0032 C046     		.align	2
 3455              	.L239:
 3456 0034 14060000 		.word	.LC105
 3457 0038 23030000 		.word	803
 3458 003c 00020000 		.word	.LANCHOR5
 3459 0040 00000000 		.word	.LC1
 3460              		.cfi_endproc
ARM GAS  C:\Users\Phuong\AppData\Local\Temp\cc4zbCpa.s 			page 77


 3461              	.LFE29:
 3462              		.size	IoTHubMessage_GetOutputName, .-IoTHubMessage_GetOutputName
 3463              		.section	.text.IoTHubMessage_SetOutputName,"ax",%progbits
 3464              		.align	2
 3465              		.global	IoTHubMessage_SetOutputName
 3466              		.code	16
 3467              		.thumb_func
 3468              		.type	IoTHubMessage_SetOutputName, %function
 3469              	IoTHubMessage_SetOutputName:
 3470              	.LFB30:
 813:Source\azure_iot_sdk\iothub_client\src/iothub_message.c **** 
 814:Source\azure_iot_sdk\iothub_client\src/iothub_message.c **** IOTHUB_MESSAGE_RESULT IoTHubMessage_SetOutputName(IOTHUB_MESSAGE_HANDLE iotHubMessageHandle, const 
 815:Source\azure_iot_sdk\iothub_client\src/iothub_message.c **** {
 3471              		.loc 1 815 0
 3472              		.cfi_startproc
 3473              		@ args = 0, pretend = 0, frame = 0
 3474              		@ frame_needed = 0, uses_anonymous_args = 0
 3475              	.LVL500:
 3476 0000 70B5     		push	{r4, r5, r6, lr}
 3477              		.cfi_def_cfa_offset 16
 3478              		.cfi_offset 4, -16
 3479              		.cfi_offset 5, -12
 3480              		.cfi_offset 6, -8
 3481              		.cfi_offset 14, -4
 3482 0002 84B0     		sub	sp, sp, #16
 3483              		.cfi_def_cfa_offset 32
 3484 0004 0400     		movs	r4, r0
 3485 0006 0D00     		movs	r5, r1
 816:Source\azure_iot_sdk\iothub_client\src/iothub_message.c ****     IOTHUB_MESSAGE_RESULT result;
 817:Source\azure_iot_sdk\iothub_client\src/iothub_message.c **** 
 818:Source\azure_iot_sdk\iothub_client\src/iothub_message.c ****     // Codes_SRS_IOTHUBMESSAGE_31_036: [If any of the parameters are NULL then IoTHubMessage_SetOut
 819:Source\azure_iot_sdk\iothub_client\src/iothub_message.c ****     if ((iotHubMessageHandle == NULL) || (outputName == NULL))
 3486              		.loc 1 819 0
 3487 0008 0028     		cmp	r0, #0
 3488 000a 01D0     		beq	.L242
 3489              		.loc 1 819 0 is_stmt 0 discriminator 1
 3490 000c 0029     		cmp	r1, #0
 3491 000e 10D1     		bne	.L243
 3492              	.L242:
 3493              	.LBB72:
 820:Source\azure_iot_sdk\iothub_client\src/iothub_message.c ****     {
 821:Source\azure_iot_sdk\iothub_client\src/iothub_message.c ****         LogError("Invalid argument (iotHubMessageHandle=%p, outputName=%p)", iotHubMessageHandle, o
 3494              		.loc 1 821 0 is_stmt 1 discriminator 3
 3495 0010 FFF7FEFF 		bl	xlogging_get_log_function
 3496              	.LVL501:
 3497 0014 061E     		subs	r6, r0, #0
 3498              	.LVL502:
 3499 0016 29D0     		beq	.L246
 3500              		.loc 1 821 0 is_stmt 0 discriminator 4
 3501 0018 0395     		str	r5, [sp, #12]
 3502 001a 0294     		str	r4, [sp, #8]
 3503 001c 174B     		ldr	r3, .L249
 3504 001e 0193     		str	r3, [sp, #4]
 3505 0020 0123     		movs	r3, #1
 3506 0022 0093     		str	r3, [sp]
 3507 0024 164B     		ldr	r3, .L249+4
 3508 0026 174A     		ldr	r2, .L249+8
ARM GAS  C:\Users\Phuong\AppData\Local\Temp\cc4zbCpa.s 			page 78


 3509 0028 1749     		ldr	r1, .L249+12
 3510 002a 0020     		movs	r0, #0
 3511              	.LVL503:
 3512 002c B047     		blx	r6
 3513              	.LVL504:
 3514              	.LBE72:
 822:Source\azure_iot_sdk\iothub_client\src/iothub_message.c ****         result = IOTHUB_MESSAGE_INVALID_ARG;
 3515              		.loc 1 822 0 is_stmt 1 discriminator 4
 3516 002e 0120     		movs	r0, #1
 3517 0030 21E0     		b	.L244
 3518              	.LVL505:
 3519              	.L243:
 3520              	.LBB73:
 823:Source\azure_iot_sdk\iothub_client\src/iothub_message.c ****     }
 824:Source\azure_iot_sdk\iothub_client\src/iothub_message.c ****     else
 825:Source\azure_iot_sdk\iothub_client\src/iothub_message.c ****     {
 826:Source\azure_iot_sdk\iothub_client\src/iothub_message.c ****         IOTHUB_MESSAGE_HANDLE_DATA* handleData = (IOTHUB_MESSAGE_HANDLE_DATA*)iotHubMessageHandle;
 827:Source\azure_iot_sdk\iothub_client\src/iothub_message.c **** 
 828:Source\azure_iot_sdk\iothub_client\src/iothub_message.c ****         // Codes_SRS_IOTHUBMESSAGE_31_037: [If the IOTHUB_MESSAGE_HANDLE OutputName is not NULL, th
 829:Source\azure_iot_sdk\iothub_client\src/iothub_message.c ****         if (handleData->outputName != NULL)
 3521              		.loc 1 829 0
 3522 0032 C069     		ldr	r0, [r0, #28]
 3523              	.LVL506:
 3524 0034 0028     		cmp	r0, #0
 3525 0036 03D0     		beq	.L245
 830:Source\azure_iot_sdk\iothub_client\src/iothub_message.c ****         {
 831:Source\azure_iot_sdk\iothub_client\src/iothub_message.c ****             free(handleData->outputName);
 3526              		.loc 1 831 0
 3527 0038 FFF7FEFF 		bl	free
 3528              	.LVL507:
 832:Source\azure_iot_sdk\iothub_client\src/iothub_message.c ****             handleData->outputName = NULL;
 3529              		.loc 1 832 0
 3530 003c 0023     		movs	r3, #0
 3531 003e E361     		str	r3, [r4, #28]
 3532              	.L245:
 833:Source\azure_iot_sdk\iothub_client\src/iothub_message.c ****         }
 834:Source\azure_iot_sdk\iothub_client\src/iothub_message.c **** 
 835:Source\azure_iot_sdk\iothub_client\src/iothub_message.c ****         if (mallocAndStrcpy_s(&handleData->outputName, outputName) != 0)
 3533              		.loc 1 835 0
 3534 0040 2000     		movs	r0, r4
 3535 0042 1C30     		adds	r0, r0, #28
 3536 0044 2900     		movs	r1, r5
 3537 0046 FFF7FEFF 		bl	mallocAndStrcpy_s
 3538              	.LVL508:
 3539 004a 0028     		cmp	r0, #0
 3540 004c 10D0     		beq	.L247
 3541              	.LBB74:
 836:Source\azure_iot_sdk\iothub_client\src/iothub_message.c ****         {
 837:Source\azure_iot_sdk\iothub_client\src/iothub_message.c ****             // Codes_SRS_IOTHUBMESSAGE_31_038: [If the allocation or the copying of the OutputName 
 838:Source\azure_iot_sdk\iothub_client\src/iothub_message.c ****             LogError("Failed saving a copy of outputName");
 3542              		.loc 1 838 0 discriminator 3
 3543 004e FFF7FEFF 		bl	xlogging_get_log_function
 3544              	.LVL509:
 3545 0052 041E     		subs	r4, r0, #0
 3546              	.LVL510:
 3547 0054 0ED0     		beq	.L248
 3548              		.loc 1 838 0 is_stmt 0 discriminator 4
ARM GAS  C:\Users\Phuong\AppData\Local\Temp\cc4zbCpa.s 			page 79


 3549 0056 0D4B     		ldr	r3, .L249+16
 3550 0058 0193     		str	r3, [sp, #4]
 3551 005a 0123     		movs	r3, #1
 3552 005c 0093     		str	r3, [sp]
 3553 005e 0C4B     		ldr	r3, .L249+20
 3554 0060 084A     		ldr	r2, .L249+8
 3555 0062 0949     		ldr	r1, .L249+12
 3556 0064 0020     		movs	r0, #0
 3557              	.LVL511:
 3558 0066 A047     		blx	r4
 3559              	.LVL512:
 3560              	.LBE74:
 839:Source\azure_iot_sdk\iothub_client\src/iothub_message.c ****             result = IOTHUB_MESSAGE_ERROR;
 3561              		.loc 1 839 0 is_stmt 1 discriminator 4
 3562 0068 0320     		movs	r0, #3
 3563 006a 04E0     		b	.L244
 3564              	.LVL513:
 3565              	.L246:
 3566              	.LBE73:
 822:Source\azure_iot_sdk\iothub_client\src/iothub_message.c ****     }
 3567              		.loc 1 822 0
 3568 006c 0120     		movs	r0, #1
 3569              	.LVL514:
 3570 006e 02E0     		b	.L244
 3571              	.LVL515:
 3572              	.L247:
 3573              	.LBB75:
 840:Source\azure_iot_sdk\iothub_client\src/iothub_message.c ****         }
 841:Source\azure_iot_sdk\iothub_client\src/iothub_message.c ****         else
 842:Source\azure_iot_sdk\iothub_client\src/iothub_message.c ****         {
 843:Source\azure_iot_sdk\iothub_client\src/iothub_message.c ****             // Codes_SRS_IOTHUBMESSAGE_31_039: [IoTHubMessage_SetOutputName finishes successfully i
 844:Source\azure_iot_sdk\iothub_client\src/iothub_message.c ****             result = IOTHUB_MESSAGE_OK;
 3574              		.loc 1 844 0
 3575 0070 0020     		movs	r0, #0
 3576 0072 00E0     		b	.L244
 3577              	.LVL516:
 3578              	.L248:
 839:Source\azure_iot_sdk\iothub_client\src/iothub_message.c ****         }
 3579              		.loc 1 839 0
 3580 0074 0320     		movs	r0, #3
 3581              	.LVL517:
 3582              	.L244:
 3583              	.LBE75:
 845:Source\azure_iot_sdk\iothub_client\src/iothub_message.c ****         }
 846:Source\azure_iot_sdk\iothub_client\src/iothub_message.c **** 
 847:Source\azure_iot_sdk\iothub_client\src/iothub_message.c ****     }
 848:Source\azure_iot_sdk\iothub_client\src/iothub_message.c **** 
 849:Source\azure_iot_sdk\iothub_client\src/iothub_message.c ****     return result;
 850:Source\azure_iot_sdk\iothub_client\src/iothub_message.c **** }
 3584              		.loc 1 850 0
 3585 0076 04B0     		add	sp, sp, #16
 3586              		@ sp needed
 3587              	.LVL518:
 3588 0078 70BD     		pop	{r4, r5, r6, pc}
 3589              	.L250:
 3590 007a C046     		.align	2
 3591              	.L249:
ARM GAS  C:\Users\Phuong\AppData\Local\Temp\cc4zbCpa.s 			page 80


 3592 007c 60070000 		.word	.LC130
 3593 0080 35030000 		.word	821
 3594 0084 80020000 		.word	.LANCHOR6
 3595 0088 00000000 		.word	.LC1
 3596 008c 9C070000 		.word	.LC132
 3597 0090 46030000 		.word	838
 3598              		.cfi_endproc
 3599              	.LFE30:
 3600              		.size	IoTHubMessage_SetOutputName, .-IoTHubMessage_SetOutputName
 3601              		.section	.text.IoTHubMessage_GetInputName,"ax",%progbits
 3602              		.align	2
 3603              		.global	IoTHubMessage_GetInputName
 3604              		.code	16
 3605              		.thumb_func
 3606              		.type	IoTHubMessage_GetInputName, %function
 3607              	IoTHubMessage_GetInputName:
 3608              	.LFB31:
 851:Source\azure_iot_sdk\iothub_client\src/iothub_message.c **** 
 852:Source\azure_iot_sdk\iothub_client\src/iothub_message.c **** const char* IoTHubMessage_GetInputName(IOTHUB_MESSAGE_HANDLE iotHubMessageHandle)
 853:Source\azure_iot_sdk\iothub_client\src/iothub_message.c **** {
 3609              		.loc 1 853 0
 3610              		.cfi_startproc
 3611              		@ args = 0, pretend = 0, frame = 0
 3612              		@ frame_needed = 0, uses_anonymous_args = 0
 3613              	.LVL519:
 3614 0000 10B5     		push	{r4, lr}
 3615              		.cfi_def_cfa_offset 8
 3616              		.cfi_offset 4, -8
 3617              		.cfi_offset 14, -4
 3618 0002 82B0     		sub	sp, sp, #8
 3619              		.cfi_def_cfa_offset 16
 854:Source\azure_iot_sdk\iothub_client\src/iothub_message.c ****     const char* result;
 855:Source\azure_iot_sdk\iothub_client\src/iothub_message.c ****     // Codes_SRS_IOTHUBMESSAGE_31_040: [if the iotHubMessageHandle parameter is NULL then IoTHubMes
 856:Source\azure_iot_sdk\iothub_client\src/iothub_message.c ****     if (iotHubMessageHandle == NULL)
 3620              		.loc 1 856 0
 3621 0004 0028     		cmp	r0, #0
 3622 0006 0FD1     		bne	.L252
 3623              	.LBB76:
 857:Source\azure_iot_sdk\iothub_client\src/iothub_message.c ****     {
 858:Source\azure_iot_sdk\iothub_client\src/iothub_message.c ****         LogError("Invalid argument (iotHubMessageHandle is NULL)");
 3624              		.loc 1 858 0 discriminator 3
 3625 0008 FFF7FEFF 		bl	xlogging_get_log_function
 3626              	.LVL520:
 3627 000c 041E     		subs	r4, r0, #0
 3628              	.LVL521:
 3629 000e 0DD0     		beq	.L254
 3630              		.loc 1 858 0 is_stmt 0 discriminator 4
 3631 0010 084B     		ldr	r3, .L255
 3632 0012 0193     		str	r3, [sp, #4]
 3633 0014 0123     		movs	r3, #1
 3634 0016 0093     		str	r3, [sp]
 3635 0018 074B     		ldr	r3, .L255+4
 3636 001a 084A     		ldr	r2, .L255+8
 3637 001c 1C32     		adds	r2, r2, #28
 3638 001e 0849     		ldr	r1, .L255+12
 3639 0020 0020     		movs	r0, #0
 3640              	.LVL522:
ARM GAS  C:\Users\Phuong\AppData\Local\Temp\cc4zbCpa.s 			page 81


 3641 0022 A047     		blx	r4
 3642              	.LVL523:
 3643              	.LBE76:
 859:Source\azure_iot_sdk\iothub_client\src/iothub_message.c ****         result = NULL;
 3644              		.loc 1 859 0 is_stmt 1 discriminator 4
 3645 0024 0020     		movs	r0, #0
 3646 0026 02E0     		b	.L253
 3647              	.LVL524:
 3648              	.L252:
 860:Source\azure_iot_sdk\iothub_client\src/iothub_message.c ****     }
 861:Source\azure_iot_sdk\iothub_client\src/iothub_message.c ****     else
 862:Source\azure_iot_sdk\iothub_client\src/iothub_message.c ****     {
 863:Source\azure_iot_sdk\iothub_client\src/iothub_message.c ****         // Codes_SRS_IOTHUBMESSAGE_31_041: [IoTHubMessage_GetInputName shall return the InputName a
 864:Source\azure_iot_sdk\iothub_client\src/iothub_message.c ****         result = iotHubMessageHandle->inputName;
 3649              		.loc 1 864 0
 3650 0028 006A     		ldr	r0, [r0, #32]
 3651              	.LVL525:
 3652 002a 00E0     		b	.L253
 3653              	.LVL526:
 3654              	.L254:
 859:Source\azure_iot_sdk\iothub_client\src/iothub_message.c ****         result = NULL;
 3655              		.loc 1 859 0
 3656 002c 0020     		movs	r0, #0
 3657              	.LVL527:
 3658              	.L253:
 865:Source\azure_iot_sdk\iothub_client\src/iothub_message.c ****     }
 866:Source\azure_iot_sdk\iothub_client\src/iothub_message.c ****     return result;
 867:Source\azure_iot_sdk\iothub_client\src/iothub_message.c **** }
 3659              		.loc 1 867 0
 3660 002e 02B0     		add	sp, sp, #8
 3661              		@ sp needed
 3662 0030 10BD     		pop	{r4, pc}
 3663              	.L256:
 3664 0032 C046     		.align	2
 3665              	.L255:
 3666 0034 14060000 		.word	.LC105
 3667 0038 5A030000 		.word	858
 3668 003c 80020000 		.word	.LANCHOR6
 3669 0040 00000000 		.word	.LC1
 3670              		.cfi_endproc
 3671              	.LFE31:
 3672              		.size	IoTHubMessage_GetInputName, .-IoTHubMessage_GetInputName
 3673              		.section	.text.IoTHubMessage_SetInputName,"ax",%progbits
 3674              		.align	2
 3675              		.global	IoTHubMessage_SetInputName
 3676              		.code	16
 3677              		.thumb_func
 3678              		.type	IoTHubMessage_SetInputName, %function
 3679              	IoTHubMessage_SetInputName:
 3680              	.LFB32:
 868:Source\azure_iot_sdk\iothub_client\src/iothub_message.c **** 
 869:Source\azure_iot_sdk\iothub_client\src/iothub_message.c **** IOTHUB_MESSAGE_RESULT IoTHubMessage_SetInputName(IOTHUB_MESSAGE_HANDLE iotHubMessageHandle, const c
 870:Source\azure_iot_sdk\iothub_client\src/iothub_message.c **** {
 3681              		.loc 1 870 0
 3682              		.cfi_startproc
 3683              		@ args = 0, pretend = 0, frame = 0
 3684              		@ frame_needed = 0, uses_anonymous_args = 0
ARM GAS  C:\Users\Phuong\AppData\Local\Temp\cc4zbCpa.s 			page 82


 3685              	.LVL528:
 3686 0000 70B5     		push	{r4, r5, r6, lr}
 3687              		.cfi_def_cfa_offset 16
 3688              		.cfi_offset 4, -16
 3689              		.cfi_offset 5, -12
 3690              		.cfi_offset 6, -8
 3691              		.cfi_offset 14, -4
 3692 0002 84B0     		sub	sp, sp, #16
 3693              		.cfi_def_cfa_offset 32
 3694 0004 0400     		movs	r4, r0
 3695 0006 0D00     		movs	r5, r1
 871:Source\azure_iot_sdk\iothub_client\src/iothub_message.c ****     IOTHUB_MESSAGE_RESULT result;
 872:Source\azure_iot_sdk\iothub_client\src/iothub_message.c **** 
 873:Source\azure_iot_sdk\iothub_client\src/iothub_message.c ****     // Codes_SRS_IOTHUBMESSAGE_31_042: [if any of the parameters are NULL then IoTHubMessage_SetInp
 874:Source\azure_iot_sdk\iothub_client\src/iothub_message.c ****     if ((iotHubMessageHandle == NULL) || (inputName == NULL))
 3696              		.loc 1 874 0
 3697 0008 0028     		cmp	r0, #0
 3698 000a 01D0     		beq	.L258
 3699              		.loc 1 874 0 is_stmt 0 discriminator 1
 3700 000c 0029     		cmp	r1, #0
 3701 000e 12D1     		bne	.L259
 3702              	.L258:
 3703              	.LBB77:
 875:Source\azure_iot_sdk\iothub_client\src/iothub_message.c ****     {
 876:Source\azure_iot_sdk\iothub_client\src/iothub_message.c ****         LogError("Invalid argument (iotHubMessageHandle=%p, inputName=%p)", iotHubMessageHandle, in
 3704              		.loc 1 876 0 is_stmt 1 discriminator 3
 3705 0010 FFF7FEFF 		bl	xlogging_get_log_function
 3706              	.LVL529:
 3707 0014 061E     		subs	r6, r0, #0
 3708              	.LVL530:
 3709 0016 2CD0     		beq	.L262
 3710              		.loc 1 876 0 is_stmt 0 discriminator 4
 3711 0018 0395     		str	r5, [sp, #12]
 3712 001a 0294     		str	r4, [sp, #8]
 3713 001c 184B     		ldr	r3, .L265
 3714 001e 0193     		str	r3, [sp, #4]
 3715 0020 0123     		movs	r3, #1
 3716 0022 0093     		str	r3, [sp]
 3717 0024 DB23     		movs	r3, #219
 3718 0026 9B00     		lsls	r3, r3, #2
 3719 0028 164A     		ldr	r2, .L265+4
 3720 002a 3832     		adds	r2, r2, #56
 3721 002c 1649     		ldr	r1, .L265+8
 3722 002e 0020     		movs	r0, #0
 3723              	.LVL531:
 3724 0030 B047     		blx	r6
 3725              	.LVL532:
 3726              	.LBE77:
 877:Source\azure_iot_sdk\iothub_client\src/iothub_message.c ****         result = IOTHUB_MESSAGE_INVALID_ARG;
 3727              		.loc 1 877 0 is_stmt 1 discriminator 4
 3728 0032 0120     		movs	r0, #1
 3729 0034 22E0     		b	.L260
 3730              	.LVL533:
 3731              	.L259:
 3732              	.LBB78:
 878:Source\azure_iot_sdk\iothub_client\src/iothub_message.c ****     }
 879:Source\azure_iot_sdk\iothub_client\src/iothub_message.c ****     else
ARM GAS  C:\Users\Phuong\AppData\Local\Temp\cc4zbCpa.s 			page 83


 880:Source\azure_iot_sdk\iothub_client\src/iothub_message.c ****     {
 881:Source\azure_iot_sdk\iothub_client\src/iothub_message.c ****         IOTHUB_MESSAGE_HANDLE_DATA* handleData = (IOTHUB_MESSAGE_HANDLE_DATA*)iotHubMessageHandle;
 882:Source\azure_iot_sdk\iothub_client\src/iothub_message.c **** 
 883:Source\azure_iot_sdk\iothub_client\src/iothub_message.c ****         // Codes_SRS_IOTHUBMESSAGE_31_043: [If the IOTHUB_MESSAGE_HANDLE InputName is not NULL, the
 884:Source\azure_iot_sdk\iothub_client\src/iothub_message.c ****         if (handleData->inputName != NULL)
 3733              		.loc 1 884 0
 3734 0036 006A     		ldr	r0, [r0, #32]
 3735              	.LVL534:
 3736 0038 0028     		cmp	r0, #0
 3737 003a 03D0     		beq	.L261
 885:Source\azure_iot_sdk\iothub_client\src/iothub_message.c ****         {
 886:Source\azure_iot_sdk\iothub_client\src/iothub_message.c ****             free(handleData->inputName);
 3738              		.loc 1 886 0
 3739 003c FFF7FEFF 		bl	free
 3740              	.LVL535:
 887:Source\azure_iot_sdk\iothub_client\src/iothub_message.c ****             handleData->inputName = NULL;
 3741              		.loc 1 887 0
 3742 0040 0023     		movs	r3, #0
 3743 0042 2362     		str	r3, [r4, #32]
 3744              	.L261:
 888:Source\azure_iot_sdk\iothub_client\src/iothub_message.c ****         }
 889:Source\azure_iot_sdk\iothub_client\src/iothub_message.c **** 
 890:Source\azure_iot_sdk\iothub_client\src/iothub_message.c ****         if (mallocAndStrcpy_s(&handleData->inputName, inputName) != 0)
 3745              		.loc 1 890 0
 3746 0044 2000     		movs	r0, r4
 3747 0046 2030     		adds	r0, r0, #32
 3748 0048 2900     		movs	r1, r5
 3749 004a FFF7FEFF 		bl	mallocAndStrcpy_s
 3750              	.LVL536:
 3751 004e 0028     		cmp	r0, #0
 3752 0050 11D0     		beq	.L263
 3753              	.LBB79:
 891:Source\azure_iot_sdk\iothub_client\src/iothub_message.c ****         {
 892:Source\azure_iot_sdk\iothub_client\src/iothub_message.c ****             // Codes_SRS_IOTHUBMESSAGE_31_044: [If the allocation or the copying of the InputName f
 893:Source\azure_iot_sdk\iothub_client\src/iothub_message.c ****             LogError("Failed saving a copy of inputName");
 3754              		.loc 1 893 0 discriminator 3
 3755 0052 FFF7FEFF 		bl	xlogging_get_log_function
 3756              	.LVL537:
 3757 0056 041E     		subs	r4, r0, #0
 3758              	.LVL538:
 3759 0058 0FD0     		beq	.L264
 3760              		.loc 1 893 0 is_stmt 0 discriminator 4
 3761 005a 0C4B     		ldr	r3, .L265+12
 3762 005c 0193     		str	r3, [sp, #4]
 3763 005e 0123     		movs	r3, #1
 3764 0060 0093     		str	r3, [sp]
 3765 0062 0B4B     		ldr	r3, .L265+16
 3766 0064 074A     		ldr	r2, .L265+4
 3767 0066 3832     		adds	r2, r2, #56
 3768 0068 0749     		ldr	r1, .L265+8
 3769 006a 0020     		movs	r0, #0
 3770              	.LVL539:
 3771 006c A047     		blx	r4
 3772              	.LVL540:
 3773              	.LBE79:
 894:Source\azure_iot_sdk\iothub_client\src/iothub_message.c ****             result = IOTHUB_MESSAGE_ERROR;
 3774              		.loc 1 894 0 is_stmt 1 discriminator 4
ARM GAS  C:\Users\Phuong\AppData\Local\Temp\cc4zbCpa.s 			page 84


 3775 006e 0320     		movs	r0, #3
 3776 0070 04E0     		b	.L260
 3777              	.LVL541:
 3778              	.L262:
 3779              	.LBE78:
 877:Source\azure_iot_sdk\iothub_client\src/iothub_message.c ****     }
 3780              		.loc 1 877 0
 3781 0072 0120     		movs	r0, #1
 3782              	.LVL542:
 3783 0074 02E0     		b	.L260
 3784              	.LVL543:
 3785              	.L263:
 3786              	.LBB80:
 895:Source\azure_iot_sdk\iothub_client\src/iothub_message.c ****         }
 896:Source\azure_iot_sdk\iothub_client\src/iothub_message.c ****         else
 897:Source\azure_iot_sdk\iothub_client\src/iothub_message.c ****         {
 898:Source\azure_iot_sdk\iothub_client\src/iothub_message.c ****             // Codes_SRS_IOTHUBMESSAGE_31_045: [IoTHubMessage_SetInputName finishes successfully it
 899:Source\azure_iot_sdk\iothub_client\src/iothub_message.c ****             result = IOTHUB_MESSAGE_OK;
 3787              		.loc 1 899 0
 3788 0076 0020     		movs	r0, #0
 3789 0078 00E0     		b	.L260
 3790              	.LVL544:
 3791              	.L264:
 894:Source\azure_iot_sdk\iothub_client\src/iothub_message.c ****         }
 3792              		.loc 1 894 0
 3793 007a 0320     		movs	r0, #3
 3794              	.LVL545:
 3795              	.L260:
 3796              	.LBE80:
 900:Source\azure_iot_sdk\iothub_client\src/iothub_message.c ****         }
 901:Source\azure_iot_sdk\iothub_client\src/iothub_message.c **** 
 902:Source\azure_iot_sdk\iothub_client\src/iothub_message.c ****     }
 903:Source\azure_iot_sdk\iothub_client\src/iothub_message.c **** 
 904:Source\azure_iot_sdk\iothub_client\src/iothub_message.c ****     return result;
 905:Source\azure_iot_sdk\iothub_client\src/iothub_message.c **** }
 3797              		.loc 1 905 0
 3798 007c 04B0     		add	sp, sp, #16
 3799              		@ sp needed
 3800              	.LVL546:
 3801 007e 70BD     		pop	{r4, r5, r6, pc}
 3802              	.L266:
 3803              		.align	2
 3804              	.L265:
 3805 0080 C0070000 		.word	.LC139
 3806 0084 80020000 		.word	.LANCHOR6
 3807 0088 00000000 		.word	.LC1
 3808 008c F8070000 		.word	.LC141
 3809 0090 7D030000 		.word	893
 3810              		.cfi_endproc
 3811              	.LFE32:
 3812              		.size	IoTHubMessage_SetInputName, .-IoTHubMessage_SetInputName
 3813              		.section	.text.IoTHubMessage_GetConnectionModuleId,"ax",%progbits
 3814              		.align	2
 3815              		.global	IoTHubMessage_GetConnectionModuleId
 3816              		.code	16
 3817              		.thumb_func
 3818              		.type	IoTHubMessage_GetConnectionModuleId, %function
ARM GAS  C:\Users\Phuong\AppData\Local\Temp\cc4zbCpa.s 			page 85


 3819              	IoTHubMessage_GetConnectionModuleId:
 3820              	.LFB33:
 906:Source\azure_iot_sdk\iothub_client\src/iothub_message.c **** 
 907:Source\azure_iot_sdk\iothub_client\src/iothub_message.c **** 
 908:Source\azure_iot_sdk\iothub_client\src/iothub_message.c **** const char* IoTHubMessage_GetConnectionModuleId(IOTHUB_MESSAGE_HANDLE iotHubMessageHandle)
 909:Source\azure_iot_sdk\iothub_client\src/iothub_message.c **** {
 3821              		.loc 1 909 0
 3822              		.cfi_startproc
 3823              		@ args = 0, pretend = 0, frame = 0
 3824              		@ frame_needed = 0, uses_anonymous_args = 0
 3825              	.LVL547:
 3826 0000 10B5     		push	{r4, lr}
 3827              		.cfi_def_cfa_offset 8
 3828              		.cfi_offset 4, -8
 3829              		.cfi_offset 14, -4
 3830 0002 82B0     		sub	sp, sp, #8
 3831              		.cfi_def_cfa_offset 16
 910:Source\azure_iot_sdk\iothub_client\src/iothub_message.c ****     const char* result;
 911:Source\azure_iot_sdk\iothub_client\src/iothub_message.c ****     // Codes_SRS_IOTHUBMESSAGE_31_046: [if the iotHubMessageHandle parameter is NULL then IoTHubMes
 912:Source\azure_iot_sdk\iothub_client\src/iothub_message.c ****     if (iotHubMessageHandle == NULL)
 3832              		.loc 1 912 0
 3833 0004 0028     		cmp	r0, #0
 3834 0006 0FD1     		bne	.L268
 3835              	.LBB81:
 913:Source\azure_iot_sdk\iothub_client\src/iothub_message.c ****     {
