ARM GAS  C:\Users\Phuong\AppData\Local\Temp\ccVjqX8s.s 			page 1


   1              		.syntax unified
   2              		.cpu cortex-m0plus
   3              		.fpu softvfp
   4              		.eabi_attribute 20, 1
   5              		.eabi_attribute 21, 1
   6              		.eabi_attribute 23, 3
   7              		.eabi_attribute 24, 1
   8              		.eabi_attribute 25, 1
   9              		.eabi_attribute 26, 1
  10              		.eabi_attribute 30, 1
  11              		.eabi_attribute 34, 0
  12              		.eabi_attribute 18, 4
  13              		.thumb
  14              		.syntax unified
  15              		.file	"iothub_client_authorization.c"
  16              		.text
  17              	.Ltext0:
  18              		.cfi_sections	.debug_frame
  19              		.global	__aeabi_d2uiz
  20              		.section	.text.get_seconds_since_epoch,"ax",%progbits
  21              		.align	2
  22              		.code	16
  23              		.thumb_func
  24              		.type	get_seconds_since_epoch, %function
  25              	get_seconds_since_epoch:
  26              	.LFB1:
  27              		.file 1 "Source\\azure_iot_sdk\\iothub_client\\src\\iothub_client_authorization.c"
   1:Source\azure_iot_sdk\iothub_client\src/iothub_client_authorization.c **** // Copyright (c) Microsoft. All rights reserved.
   2:Source\azure_iot_sdk\iothub_client\src/iothub_client_authorization.c **** // Licensed under the MIT license. See LICENSE file in the project root for full license informatio
   3:Source\azure_iot_sdk\iothub_client\src/iothub_client_authorization.c **** 
   4:Source\azure_iot_sdk\iothub_client\src/iothub_client_authorization.c **** #include <stdlib.h>
   5:Source\azure_iot_sdk\iothub_client\src/iothub_client_authorization.c **** #include "azure_c_shared_utility/gballoc.h"
   6:Source\azure_iot_sdk\iothub_client\src/iothub_client_authorization.c **** #include "azure_c_shared_utility/macro_utils.h"
   7:Source\azure_iot_sdk\iothub_client\src/iothub_client_authorization.c **** #include "azure_c_shared_utility/umock_c_prod.h"
   8:Source\azure_iot_sdk\iothub_client\src/iothub_client_authorization.c **** #include "azure_c_shared_utility/crt_abstractions.h"
   9:Source\azure_iot_sdk\iothub_client\src/iothub_client_authorization.c **** #include "azure_c_shared_utility/agenttime.h"
  10:Source\azure_iot_sdk\iothub_client\src/iothub_client_authorization.c **** #include "azure_c_shared_utility/xlogging.h"
  11:Source\azure_iot_sdk\iothub_client\src/iothub_client_authorization.c **** #include "azure_c_shared_utility/strings.h"
  12:Source\azure_iot_sdk\iothub_client\src/iothub_client_authorization.c **** #include "azure_c_shared_utility/sastoken.h"
  13:Source\azure_iot_sdk\iothub_client\src/iothub_client_authorization.c **** #include "azure_c_shared_utility/shared_util_options.h"
  14:Source\azure_iot_sdk\iothub_client\src/iothub_client_authorization.c **** 
  15:Source\azure_iot_sdk\iothub_client\src/iothub_client_authorization.c **** #ifdef USE_PROV_MODULE
  16:Source\azure_iot_sdk\iothub_client\src/iothub_client_authorization.c **** #include "azure_prov_client/internal/iothub_auth_client.h"
  17:Source\azure_iot_sdk\iothub_client\src/iothub_client_authorization.c **** #endif
  18:Source\azure_iot_sdk\iothub_client\src/iothub_client_authorization.c **** 
  19:Source\azure_iot_sdk\iothub_client\src/iothub_client_authorization.c **** #include "internal/iothub_client_authorization.h"
  20:Source\azure_iot_sdk\iothub_client\src/iothub_client_authorization.c **** 
  21:Source\azure_iot_sdk\iothub_client\src/iothub_client_authorization.c **** #define DEFAULT_SAS_TOKEN_EXPIRY_TIME_SECS          3600
  22:Source\azure_iot_sdk\iothub_client\src/iothub_client_authorization.c **** #define INDEFINITE_TIME                             ((time_t)(-1))
  23:Source\azure_iot_sdk\iothub_client\src/iothub_client_authorization.c **** 
  24:Source\azure_iot_sdk\iothub_client\src/iothub_client_authorization.c **** typedef struct IOTHUB_AUTHORIZATION_DATA_TAG
  25:Source\azure_iot_sdk\iothub_client\src/iothub_client_authorization.c **** {
  26:Source\azure_iot_sdk\iothub_client\src/iothub_client_authorization.c ****     char* device_sas_token;
  27:Source\azure_iot_sdk\iothub_client\src/iothub_client_authorization.c ****     char* device_key;
  28:Source\azure_iot_sdk\iothub_client\src/iothub_client_authorization.c ****     char* device_id;
  29:Source\azure_iot_sdk\iothub_client\src/iothub_client_authorization.c ****     char* module_id;
  30:Source\azure_iot_sdk\iothub_client\src/iothub_client_authorization.c ****     size_t token_expiry_time_sec;
ARM GAS  C:\Users\Phuong\AppData\Local\Temp\ccVjqX8s.s 			page 2


  31:Source\azure_iot_sdk\iothub_client\src/iothub_client_authorization.c ****     IOTHUB_CREDENTIAL_TYPE cred_type;
  32:Source\azure_iot_sdk\iothub_client\src/iothub_client_authorization.c **** #ifdef USE_PROV_MODULE
  33:Source\azure_iot_sdk\iothub_client\src/iothub_client_authorization.c ****     IOTHUB_SECURITY_HANDLE device_auth_handle;
  34:Source\azure_iot_sdk\iothub_client\src/iothub_client_authorization.c **** #endif
  35:Source\azure_iot_sdk\iothub_client\src/iothub_client_authorization.c **** } IOTHUB_AUTHORIZATION_DATA;
  36:Source\azure_iot_sdk\iothub_client\src/iothub_client_authorization.c **** 
  37:Source\azure_iot_sdk\iothub_client\src/iothub_client_authorization.c **** static int get_seconds_since_epoch(size_t* seconds)
  38:Source\azure_iot_sdk\iothub_client\src/iothub_client_authorization.c **** {
  28              		.loc 1 38 0
  29              		.cfi_startproc
  30              		@ args = 0, pretend = 0, frame = 0
  31              		@ frame_needed = 0, uses_anonymous_args = 0
  32              	.LVL0:
  33 0000 10B5     		push	{r4, lr}
  34              		.cfi_def_cfa_offset 8
  35              		.cfi_offset 4, -8
  36              		.cfi_offset 14, -4
  37 0002 82B0     		sub	sp, sp, #8
  38              		.cfi_def_cfa_offset 16
  39 0004 0400     		movs	r4, r0
  39:Source\azure_iot_sdk\iothub_client\src/iothub_client_authorization.c ****     int result;
  40:Source\azure_iot_sdk\iothub_client\src/iothub_client_authorization.c ****     time_t current_time;
  41:Source\azure_iot_sdk\iothub_client\src/iothub_client_authorization.c ****     if ((current_time = get_time(NULL)) == INDEFINITE_TIME)
  40              		.loc 1 41 0
  41 0006 0020     		movs	r0, #0
  42              	.LVL1:
  43 0008 FFF7FEFF 		bl	get_time
  44              	.LVL2:
  45 000c 431C     		adds	r3, r0, #1
  46 000e 0ED1     		bne	.L2
  47              	.LBB2:
  42:Source\azure_iot_sdk\iothub_client\src/iothub_client_authorization.c ****     {
  43:Source\azure_iot_sdk\iothub_client\src/iothub_client_authorization.c ****         LogError("Failed getting the current local time (get_time() failed)");
  48              		.loc 1 43 0 discriminator 3
  49 0010 FFF7FEFF 		bl	xlogging_get_log_function
  50              	.LVL3:
  51 0014 041E     		subs	r4, r0, #0
  52              	.LVL4:
  53 0016 12D0     		beq	.L4
  54              		.loc 1 43 0 is_stmt 0 discriminator 4
  55 0018 0A4B     		ldr	r3, .L5
  56 001a 0193     		str	r3, [sp, #4]
  57 001c 0123     		movs	r3, #1
  58 001e 0093     		str	r3, [sp]
  59 0020 2A33     		adds	r3, r3, #42
  60 0022 094A     		ldr	r2, .L5+4
  61 0024 0949     		ldr	r1, .L5+8
  62 0026 0020     		movs	r0, #0
  63              	.LVL5:
  64 0028 A047     		blx	r4
  65              	.LVL6:
  66              	.LBE2:
  44:Source\azure_iot_sdk\iothub_client\src/iothub_client_authorization.c ****         result = __FAILURE__;
  67              		.loc 1 44 0 is_stmt 1 discriminator 4
  68 002a 2C20     		movs	r0, #44
  69 002c 08E0     		b	.L3
  70              	.LVL7:
ARM GAS  C:\Users\Phuong\AppData\Local\Temp\ccVjqX8s.s 			page 3


  71              	.L2:
  45:Source\azure_iot_sdk\iothub_client\src/iothub_client_authorization.c ****     }
  46:Source\azure_iot_sdk\iothub_client\src/iothub_client_authorization.c ****     else
  47:Source\azure_iot_sdk\iothub_client\src/iothub_client_authorization.c ****     {
  48:Source\azure_iot_sdk\iothub_client\src/iothub_client_authorization.c ****         *seconds = (size_t)get_difftime(current_time, (time_t)0);
  72              		.loc 1 48 0
  73 002e 0021     		movs	r1, #0
  74 0030 FFF7FEFF 		bl	get_difftime
  75              	.LVL8:
  76 0034 FFF7FEFF 		bl	__aeabi_d2uiz
  77              	.LVL9:
  78 0038 2060     		str	r0, [r4]
  79              	.LVL10:
  49:Source\azure_iot_sdk\iothub_client\src/iothub_client_authorization.c ****         result = 0;
  80              		.loc 1 49 0
  81 003a 0020     		movs	r0, #0
  82 003c 00E0     		b	.L3
  83              	.LVL11:
  84              	.L4:
  44:Source\azure_iot_sdk\iothub_client\src/iothub_client_authorization.c ****         result = __FAILURE__;
  85              		.loc 1 44 0
  86 003e 2C20     		movs	r0, #44
  87              	.LVL12:
  88              	.L3:
  50:Source\azure_iot_sdk\iothub_client\src/iothub_client_authorization.c ****     }
  51:Source\azure_iot_sdk\iothub_client\src/iothub_client_authorization.c ****     return result;
  52:Source\azure_iot_sdk\iothub_client\src/iothub_client_authorization.c **** }
  89              		.loc 1 52 0
  90 0040 02B0     		add	sp, sp, #8
  91              		@ sp needed
  92 0042 10BD     		pop	{r4, pc}
  93              	.L6:
  94              		.align	2
  95              	.L5:
  96 0044 48000000 		.word	.LC3
  97 0048 00000000 		.word	.LANCHOR0
  98 004c 00000000 		.word	.LC1
  99              		.cfi_endproc
 100              	.LFE1:
 101              		.size	get_seconds_since_epoch, .-get_seconds_since_epoch
 102              		.section	.text.IoTHubClient_Auth_Create,"ax",%progbits
 103              		.align	2
 104              		.global	IoTHubClient_Auth_Create
 105              		.code	16
 106              		.thumb_func
 107              		.type	IoTHubClient_Auth_Create, %function
 108              	IoTHubClient_Auth_Create:
 109              	.LFB2:
  53:Source\azure_iot_sdk\iothub_client\src/iothub_client_authorization.c **** 
  54:Source\azure_iot_sdk\iothub_client\src/iothub_client_authorization.c **** IOTHUB_AUTHORIZATION_HANDLE IoTHubClient_Auth_Create(const char* device_key, const char* device_id,
  55:Source\azure_iot_sdk\iothub_client\src/iothub_client_authorization.c **** {
 110              		.loc 1 55 0
 111              		.cfi_startproc
 112              		@ args = 0, pretend = 0, frame = 8
 113              		@ frame_needed = 0, uses_anonymous_args = 0
 114              	.LVL13:
 115 0000 F0B5     		push	{r4, r5, r6, r7, lr}
ARM GAS  C:\Users\Phuong\AppData\Local\Temp\ccVjqX8s.s 			page 4


 116              		.cfi_def_cfa_offset 20
 117              		.cfi_offset 4, -20
 118              		.cfi_offset 5, -16
 119              		.cfi_offset 6, -12
 120              		.cfi_offset 7, -8
 121              		.cfi_offset 14, -4
 122 0002 87B0     		sub	sp, sp, #28
 123              		.cfi_def_cfa_offset 48
 124 0004 0700     		movs	r7, r0
 125 0006 0D00     		movs	r5, r1
 126 0008 0592     		str	r2, [sp, #20]
 127 000a 1E00     		movs	r6, r3
  56:Source\azure_iot_sdk\iothub_client\src/iothub_client_authorization.c ****     IOTHUB_AUTHORIZATION_DATA* result;
  57:Source\azure_iot_sdk\iothub_client\src/iothub_client_authorization.c ****     /* Codes_SRS_IoTHub_Authorization_07_001: [if device_id is NULL IoTHubClient_Auth_Create, shall
  58:Source\azure_iot_sdk\iothub_client\src/iothub_client_authorization.c ****     if (device_id == NULL)
 128              		.loc 1 58 0
 129 000c 0029     		cmp	r1, #0
 130 000e 11D1     		bne	.L8
 131              	.LBB3:
  59:Source\azure_iot_sdk\iothub_client\src/iothub_client_authorization.c ****     {
  60:Source\azure_iot_sdk\iothub_client\src/iothub_client_authorization.c ****         LogError("Invalid Parameter device_id: %p", device_id);
 132              		.loc 1 60 0 discriminator 3
 133 0010 FFF7FEFF 		bl	xlogging_get_log_function
 134              	.LVL14:
 135 0014 041E     		subs	r4, r0, #0
 136              	.LVL15:
 137 0016 00D1     		bne	.LCB120
 138 0018 B0E0     		b	.L20	@long jump
 139              	.LCB120:
 140              		.loc 1 60 0 is_stmt 0 discriminator 4
 141 001a 0295     		str	r5, [sp, #8]
 142 001c 594B     		ldr	r3, .L21
 143 001e 0193     		str	r3, [sp, #4]
 144 0020 0123     		movs	r3, #1
 145 0022 0093     		str	r3, [sp]
 146 0024 3B33     		adds	r3, r3, #59
 147 0026 584A     		ldr	r2, .L21+4
 148 0028 1832     		adds	r2, r2, #24
 149 002a 5849     		ldr	r1, .L21+8
 150 002c 0020     		movs	r0, #0
 151              	.LVL16:
 152 002e A047     		blx	r4
 153              	.LVL17:
 154              	.LBE3:
  61:Source\azure_iot_sdk\iothub_client\src/iothub_client_authorization.c ****         result = NULL;
 155              		.loc 1 61 0 is_stmt 1 discriminator 4
 156 0030 0024     		movs	r4, #0
 157              	.LVL18:
 158 0032 A4E0     		b	.L9
 159              	.LVL19:
 160              	.L8:
  62:Source\azure_iot_sdk\iothub_client\src/iothub_client_authorization.c ****     }
  63:Source\azure_iot_sdk\iothub_client\src/iothub_client_authorization.c ****     else
  64:Source\azure_iot_sdk\iothub_client\src/iothub_client_authorization.c ****     {
  65:Source\azure_iot_sdk\iothub_client\src/iothub_client_authorization.c ****         /* Codes_SRS_IoTHub_Authorization_07_002: [IoTHubClient_Auth_Create shall allocate a IOTHUB
  66:Source\azure_iot_sdk\iothub_client\src/iothub_client_authorization.c ****         result = (IOTHUB_AUTHORIZATION_DATA*)malloc(sizeof(IOTHUB_AUTHORIZATION_DATA) );
 161              		.loc 1 66 0
ARM GAS  C:\Users\Phuong\AppData\Local\Temp\ccVjqX8s.s 			page 5


 162 0034 1820     		movs	r0, #24
 163              	.LVL20:
 164 0036 FFF7FEFF 		bl	malloc
 165              	.LVL21:
 166 003a 041E     		subs	r4, r0, #0
 167              	.LVL22:
  67:Source\azure_iot_sdk\iothub_client\src/iothub_client_authorization.c ****         if (result == NULL)
 168              		.loc 1 67 0
 169 003c 0FD1     		bne	.L10
 170              	.LBB4:
  68:Source\azure_iot_sdk\iothub_client\src/iothub_client_authorization.c ****         {
  69:Source\azure_iot_sdk\iothub_client\src/iothub_client_authorization.c ****             /* Codes_SRS_IoTHub_Authorization_07_019: [ On error IoTHubClient_Auth_Create shall ret
  70:Source\azure_iot_sdk\iothub_client\src/iothub_client_authorization.c ****             LogError("Failed allocating IOTHUB_AUTHORIZATION_DATA");
 171              		.loc 1 70 0 discriminator 3
 172 003e FFF7FEFF 		bl	xlogging_get_log_function
 173              	.LVL23:
 174 0042 051E     		subs	r5, r0, #0
 175              	.LVL24:
 176 0044 00D1     		bne	.LCB165
 177 0046 9AE0     		b	.L9	@long jump
 178              	.LCB165:
 179              		.loc 1 70 0 is_stmt 0 discriminator 4
 180 0048 514B     		ldr	r3, .L21+12
 181 004a 0193     		str	r3, [sp, #4]
 182 004c 0123     		movs	r3, #1
 183 004e 0093     		str	r3, [sp]
 184 0050 4533     		adds	r3, r3, #69
 185 0052 4D4A     		ldr	r2, .L21+4
 186 0054 1832     		adds	r2, r2, #24
 187 0056 4D49     		ldr	r1, .L21+8
 188 0058 0020     		movs	r0, #0
 189              	.LVL25:
 190 005a A847     		blx	r5
 191              	.LVL26:
 192 005c 8FE0     		b	.L9
 193              	.LVL27:
 194              	.L10:
 195              	.LBE4:
  71:Source\azure_iot_sdk\iothub_client\src/iothub_client_authorization.c ****             result = NULL;
  72:Source\azure_iot_sdk\iothub_client\src/iothub_client_authorization.c ****         }
  73:Source\azure_iot_sdk\iothub_client\src/iothub_client_authorization.c ****         else
  74:Source\azure_iot_sdk\iothub_client\src/iothub_client_authorization.c ****         {
  75:Source\azure_iot_sdk\iothub_client\src/iothub_client_authorization.c ****             memset(result, 0, sizeof(IOTHUB_AUTHORIZATION_DATA) );
 196              		.loc 1 75 0 is_stmt 1
 197 005e 1822     		movs	r2, #24
 198 0060 0021     		movs	r1, #0
 199 0062 FFF7FEFF 		bl	memset
 200              	.LVL28:
  76:Source\azure_iot_sdk\iothub_client\src/iothub_client_authorization.c ****             result->token_expiry_time_sec = DEFAULT_SAS_TOKEN_EXPIRY_TIME_SECS;
 201              		.loc 1 76 0
 202 0066 E123     		movs	r3, #225
 203 0068 1B01     		lsls	r3, r3, #4
 204 006a 2361     		str	r3, [r4, #16]
  77:Source\azure_iot_sdk\iothub_client\src/iothub_client_authorization.c **** 
  78:Source\azure_iot_sdk\iothub_client\src/iothub_client_authorization.c ****             if (device_key != NULL && mallocAndStrcpy_s(&result->device_key, device_key) != 0)
 205              		.loc 1 78 0
 206 006c 002F     		cmp	r7, #0
ARM GAS  C:\Users\Phuong\AppData\Local\Temp\ccVjqX8s.s 			page 6


 207 006e 18D0     		beq	.L11
 208              		.loc 1 78 0 is_stmt 0 discriminator 1
 209 0070 201D     		adds	r0, r4, #4
 210 0072 3900     		movs	r1, r7
 211 0074 FFF7FEFF 		bl	mallocAndStrcpy_s
 212              	.LVL29:
 213 0078 0028     		cmp	r0, #0
 214 007a 12D0     		beq	.L11
 215              	.LBB5:
  79:Source\azure_iot_sdk\iothub_client\src/iothub_client_authorization.c ****             {
  80:Source\azure_iot_sdk\iothub_client\src/iothub_client_authorization.c ****                 /* Codes_SRS_IoTHub_Authorization_07_019: [ On error IoTHubClient_Auth_Create shall
  81:Source\azure_iot_sdk\iothub_client\src/iothub_client_authorization.c ****                 LogError("Failed allocating device_key");
 216              		.loc 1 81 0 is_stmt 1 discriminator 3
 217 007c FFF7FEFF 		bl	xlogging_get_log_function
 218              	.LVL30:
 219 0080 051E     		subs	r5, r0, #0
 220              	.LVL31:
 221 0082 09D0     		beq	.L12
 222              		.loc 1 81 0 is_stmt 0 discriminator 4
 223 0084 434B     		ldr	r3, .L21+16
 224 0086 0193     		str	r3, [sp, #4]
 225 0088 0123     		movs	r3, #1
 226 008a 0093     		str	r3, [sp]
 227 008c 5033     		adds	r3, r3, #80
 228 008e 3E4A     		ldr	r2, .L21+4
 229 0090 1832     		adds	r2, r2, #24
 230 0092 3E49     		ldr	r1, .L21+8
 231 0094 0020     		movs	r0, #0
 232              	.LVL32:
 233 0096 A847     		blx	r5
 234              	.LVL33:
 235              	.L12:
 236              	.LBE5:
  82:Source\azure_iot_sdk\iothub_client\src/iothub_client_authorization.c ****                 free(result);
 237              		.loc 1 82 0 is_stmt 1
 238 0098 2000     		movs	r0, r4
 239 009a FFF7FEFF 		bl	free
 240              	.LVL34:
  83:Source\azure_iot_sdk\iothub_client\src/iothub_client_authorization.c ****                 result = NULL;
 241              		.loc 1 83 0
 242 009e 0024     		movs	r4, #0
 243 00a0 6DE0     		b	.L9
 244              	.LVL35:
 245              	.L11:
  84:Source\azure_iot_sdk\iothub_client\src/iothub_client_authorization.c ****             }
  85:Source\azure_iot_sdk\iothub_client\src/iothub_client_authorization.c ****             else if (mallocAndStrcpy_s(&result->device_id, device_id) != 0)
 246              		.loc 1 85 0
 247 00a2 2000     		movs	r0, r4
 248 00a4 0830     		adds	r0, r0, #8
 249 00a6 2900     		movs	r1, r5
 250 00a8 FFF7FEFF 		bl	mallocAndStrcpy_s
 251              	.LVL36:
 252 00ac 0028     		cmp	r0, #0
 253 00ae 15D0     		beq	.L13
 254              	.LBB6:
  86:Source\azure_iot_sdk\iothub_client\src/iothub_client_authorization.c ****             {
  87:Source\azure_iot_sdk\iothub_client\src/iothub_client_authorization.c ****                 /* Codes_SRS_IoTHub_Authorization_07_019: [ On error IoTHubClient_Auth_Create shall
ARM GAS  C:\Users\Phuong\AppData\Local\Temp\ccVjqX8s.s 			page 7


  88:Source\azure_iot_sdk\iothub_client\src/iothub_client_authorization.c ****                 LogError("Failed allocating device_key");
 255              		.loc 1 88 0 discriminator 3
 256 00b0 FFF7FEFF 		bl	xlogging_get_log_function
 257              	.LVL37:
 258 00b4 051E     		subs	r5, r0, #0
 259              	.LVL38:
 260 00b6 09D0     		beq	.L14
 261              		.loc 1 88 0 is_stmt 0 discriminator 4
 262 00b8 364B     		ldr	r3, .L21+16
 263 00ba 0193     		str	r3, [sp, #4]
 264 00bc 0123     		movs	r3, #1
 265 00be 0093     		str	r3, [sp]
 266 00c0 5733     		adds	r3, r3, #87
 267 00c2 314A     		ldr	r2, .L21+4
 268 00c4 1832     		adds	r2, r2, #24
 269 00c6 3149     		ldr	r1, .L21+8
 270 00c8 0020     		movs	r0, #0
 271              	.LVL39:
 272 00ca A847     		blx	r5
 273              	.LVL40:
 274              	.L14:
 275              	.LBE6:
  89:Source\azure_iot_sdk\iothub_client\src/iothub_client_authorization.c ****                 free(result->device_key);
 276              		.loc 1 89 0 is_stmt 1
 277 00cc 6068     		ldr	r0, [r4, #4]
 278 00ce FFF7FEFF 		bl	free
 279              	.LVL41:
  90:Source\azure_iot_sdk\iothub_client\src/iothub_client_authorization.c ****                 free(result);
 280              		.loc 1 90 0
 281 00d2 2000     		movs	r0, r4
 282 00d4 FFF7FEFF 		bl	free
 283              	.LVL42:
  91:Source\azure_iot_sdk\iothub_client\src/iothub_client_authorization.c ****                 result = NULL;
 284              		.loc 1 91 0
 285 00d8 0024     		movs	r4, #0
 286 00da 50E0     		b	.L9
 287              	.LVL43:
 288              	.L13:
  92:Source\azure_iot_sdk\iothub_client\src/iothub_client_authorization.c ****             }
  93:Source\azure_iot_sdk\iothub_client\src/iothub_client_authorization.c ****             else if (module_id != NULL && mallocAndStrcpy_s(&result->module_id, module_id) != 0)
 289              		.loc 1 93 0
 290 00dc 002E     		cmp	r6, #0
 291 00de 1FD0     		beq	.L15
 292              		.loc 1 93 0 is_stmt 0 discriminator 1
 293 00e0 2000     		movs	r0, r4
 294 00e2 0C30     		adds	r0, r0, #12
 295 00e4 3100     		movs	r1, r6
 296 00e6 FFF7FEFF 		bl	mallocAndStrcpy_s
 297              	.LVL44:
 298 00ea 0028     		cmp	r0, #0
 299 00ec 18D0     		beq	.L15
 300              	.LBB7:
  94:Source\azure_iot_sdk\iothub_client\src/iothub_client_authorization.c ****             {
  95:Source\azure_iot_sdk\iothub_client\src/iothub_client_authorization.c ****                 /* Codes_SRS_IoTHub_Authorization_07_019: [ On error IoTHubClient_Auth_Create shall
  96:Source\azure_iot_sdk\iothub_client\src/iothub_client_authorization.c ****                 LogError("Failed allocating module_id");
 301              		.loc 1 96 0 is_stmt 1 discriminator 3
 302 00ee FFF7FEFF 		bl	xlogging_get_log_function
ARM GAS  C:\Users\Phuong\AppData\Local\Temp\ccVjqX8s.s 			page 8


 303              	.LVL45:
 304 00f2 051E     		subs	r5, r0, #0
 305              	.LVL46:
 306 00f4 09D0     		beq	.L16
 307              		.loc 1 96 0 is_stmt 0 discriminator 4
 308 00f6 284B     		ldr	r3, .L21+20
 309 00f8 0193     		str	r3, [sp, #4]
 310 00fa 0123     		movs	r3, #1
 311 00fc 0093     		str	r3, [sp]
 312 00fe 5F33     		adds	r3, r3, #95
 313 0100 214A     		ldr	r2, .L21+4
 314 0102 1832     		adds	r2, r2, #24
 315 0104 2149     		ldr	r1, .L21+8
 316 0106 0020     		movs	r0, #0
 317              	.LVL47:
 318 0108 A847     		blx	r5
 319              	.LVL48:
 320              	.L16:
 321              	.LBE7:
  97:Source\azure_iot_sdk\iothub_client\src/iothub_client_authorization.c ****                 free(result->device_id);
 322              		.loc 1 97 0 is_stmt 1
 323 010a A068     		ldr	r0, [r4, #8]
 324 010c FFF7FEFF 		bl	free
 325              	.LVL49:
  98:Source\azure_iot_sdk\iothub_client\src/iothub_client_authorization.c ****                 free(result->device_key);
 326              		.loc 1 98 0
 327 0110 6068     		ldr	r0, [r4, #4]
 328 0112 FFF7FEFF 		bl	free
 329              	.LVL50:
  99:Source\azure_iot_sdk\iothub_client\src/iothub_client_authorization.c ****                 free(result);
 330              		.loc 1 99 0
 331 0116 2000     		movs	r0, r4
 332 0118 FFF7FEFF 		bl	free
 333              	.LVL51:
 100:Source\azure_iot_sdk\iothub_client\src/iothub_client_authorization.c ****                 result = NULL;
 334              		.loc 1 100 0
 335 011c 0024     		movs	r4, #0
 336 011e 2EE0     		b	.L9
 337              	.LVL52:
 338              	.L15:
 101:Source\azure_iot_sdk\iothub_client\src/iothub_client_authorization.c ****             }
 102:Source\azure_iot_sdk\iothub_client\src/iothub_client_authorization.c ****             else
 103:Source\azure_iot_sdk\iothub_client\src/iothub_client_authorization.c ****             {
 104:Source\azure_iot_sdk\iothub_client\src/iothub_client_authorization.c ****                 if (device_key != NULL)
 339              		.loc 1 104 0
 340 0120 002F     		cmp	r7, #0
 341 0122 02D0     		beq	.L17
 105:Source\azure_iot_sdk\iothub_client\src/iothub_client_authorization.c ****                 {
 106:Source\azure_iot_sdk\iothub_client\src/iothub_client_authorization.c ****                     /* Codes_SRS_IoTHub_Authorization_07_003: [ IoTHubClient_Auth_Create shall set 
 107:Source\azure_iot_sdk\iothub_client\src/iothub_client_authorization.c ****                     result->cred_type = IOTHUB_CREDENTIAL_TYPE_DEVICE_KEY;
 342              		.loc 1 107 0
 343 0124 0123     		movs	r3, #1
 344 0126 2375     		strb	r3, [r4, #20]
 345 0128 29E0     		b	.L9
 346              	.L17:
 108:Source\azure_iot_sdk\iothub_client\src/iothub_client_authorization.c ****                 }
 109:Source\azure_iot_sdk\iothub_client\src/iothub_client_authorization.c ****                 else if (device_sas_token != NULL)
ARM GAS  C:\Users\Phuong\AppData\Local\Temp\ccVjqX8s.s 			page 9


 347              		.loc 1 109 0
 348 012a 0599     		ldr	r1, [sp, #20]
 349 012c 0029     		cmp	r1, #0
 350 012e 22D0     		beq	.L18
 110:Source\azure_iot_sdk\iothub_client\src/iothub_client_authorization.c ****                 {
 111:Source\azure_iot_sdk\iothub_client\src/iothub_client_authorization.c ****                     /* Codes_SRS_IoTHub_Authorization_07_020: [ else IoTHubClient_Auth_Create shall
 112:Source\azure_iot_sdk\iothub_client\src/iothub_client_authorization.c ****                     result->cred_type = IOTHUB_CREDENTIAL_TYPE_SAS_TOKEN;
 351              		.loc 1 112 0
 352 0130 0423     		movs	r3, #4
 353 0132 2375     		strb	r3, [r4, #20]
 113:Source\azure_iot_sdk\iothub_client\src/iothub_client_authorization.c ****                     if (mallocAndStrcpy_s(&result->device_sas_token, device_sas_token) != 0)
 354              		.loc 1 113 0
 355 0134 2000     		movs	r0, r4
 356 0136 FFF7FEFF 		bl	mallocAndStrcpy_s
 357              	.LVL53:
 358 013a 0028     		cmp	r0, #0
 359 013c 1FD0     		beq	.L9
 360              	.LBB8:
 114:Source\azure_iot_sdk\iothub_client\src/iothub_client_authorization.c ****                     {
 115:Source\azure_iot_sdk\iothub_client\src/iothub_client_authorization.c ****                         /* Codes_SRS_IoTHub_Authorization_07_019: [ On error IoTHubClient_Auth_Crea
 116:Source\azure_iot_sdk\iothub_client\src/iothub_client_authorization.c ****                         LogError("Failed allocating device_key");
 361              		.loc 1 116 0 discriminator 3
 362 013e FFF7FEFF 		bl	xlogging_get_log_function
 363              	.LVL54:
 364 0142 051E     		subs	r5, r0, #0
 365              	.LVL55:
 366 0144 09D0     		beq	.L19
 367              		.loc 1 116 0 is_stmt 0 discriminator 4
 368 0146 134B     		ldr	r3, .L21+16
 369 0148 0193     		str	r3, [sp, #4]
 370 014a 0123     		movs	r3, #1
 371 014c 0093     		str	r3, [sp]
 372 014e 7333     		adds	r3, r3, #115
 373 0150 0D4A     		ldr	r2, .L21+4
 374 0152 1832     		adds	r2, r2, #24
 375 0154 0D49     		ldr	r1, .L21+8
 376 0156 0020     		movs	r0, #0
 377              	.LVL56:
 378 0158 A847     		blx	r5
 379              	.LVL57:
 380              	.L19:
 381              	.LBE8:
 117:Source\azure_iot_sdk\iothub_client\src/iothub_client_authorization.c ****                         free(result->device_key);
 382              		.loc 1 117 0 is_stmt 1
 383 015a 6068     		ldr	r0, [r4, #4]
 384 015c FFF7FEFF 		bl	free
 385              	.LVL58:
 118:Source\azure_iot_sdk\iothub_client\src/iothub_client_authorization.c ****                         free(result->device_id);
 386              		.loc 1 118 0
 387 0160 A068     		ldr	r0, [r4, #8]
 388 0162 FFF7FEFF 		bl	free
 389              	.LVL59:
 119:Source\azure_iot_sdk\iothub_client\src/iothub_client_authorization.c ****                         free(result->module_id);
 390              		.loc 1 119 0
 391 0166 E068     		ldr	r0, [r4, #12]
 392 0168 FFF7FEFF 		bl	free
 393              	.LVL60:
ARM GAS  C:\Users\Phuong\AppData\Local\Temp\ccVjqX8s.s 			page 10


 120:Source\azure_iot_sdk\iothub_client\src/iothub_client_authorization.c ****                         free(result);
 394              		.loc 1 120 0
 395 016c 2000     		movs	r0, r4
 396 016e FFF7FEFF 		bl	free
 397              	.LVL61:
 121:Source\azure_iot_sdk\iothub_client\src/iothub_client_authorization.c ****                         result = NULL;
 398              		.loc 1 121 0
 399 0172 0024     		movs	r4, #0
 400 0174 03E0     		b	.L9
 401              	.LVL62:
 402              	.L18:
 122:Source\azure_iot_sdk\iothub_client\src/iothub_client_authorization.c ****                     }
 123:Source\azure_iot_sdk\iothub_client\src/iothub_client_authorization.c ****                 }
 124:Source\azure_iot_sdk\iothub_client\src/iothub_client_authorization.c ****                 else
 125:Source\azure_iot_sdk\iothub_client\src/iothub_client_authorization.c ****                 {
 126:Source\azure_iot_sdk\iothub_client\src/iothub_client_authorization.c ****                     /* Codes_SRS_IoTHub_Authorization_07_024: [ if device_sas_token and device_key 
 127:Source\azure_iot_sdk\iothub_client\src/iothub_client_authorization.c ****                     result->cred_type = IOTHUB_CREDENTIAL_TYPE_UNKNOWN;
 403              		.loc 1 127 0
 404 0176 0023     		movs	r3, #0
 405 0178 2375     		strb	r3, [r4, #20]
 406 017a 00E0     		b	.L9
 407              	.LVL63:
 408              	.L20:
  61:Source\azure_iot_sdk\iothub_client\src/iothub_client_authorization.c ****     }
 409              		.loc 1 61 0
 410 017c 0024     		movs	r4, #0
 411              	.LVL64:
 412              	.L9:
 128:Source\azure_iot_sdk\iothub_client\src/iothub_client_authorization.c ****                 }
 129:Source\azure_iot_sdk\iothub_client\src/iothub_client_authorization.c ****             }
 130:Source\azure_iot_sdk\iothub_client\src/iothub_client_authorization.c ****         }
 131:Source\azure_iot_sdk\iothub_client\src/iothub_client_authorization.c ****     }
 132:Source\azure_iot_sdk\iothub_client\src/iothub_client_authorization.c ****     /* Codes_SRS_IoTHub_Authorization_07_004: [ If successful IoTHubClient_Auth_Create shall return
 133:Source\azure_iot_sdk\iothub_client\src/iothub_client_authorization.c ****     return result;
 134:Source\azure_iot_sdk\iothub_client\src/iothub_client_authorization.c **** }
 413              		.loc 1 134 0
 414 017e 2000     		movs	r0, r4
 415 0180 07B0     		add	sp, sp, #28
 416              		@ sp needed
 417              	.LVL65:
 418              	.LVL66:
 419              	.LVL67:
 420 0182 F0BD     		pop	{r4, r5, r6, r7, pc}
 421              	.L22:
 422              		.align	2
 423              	.L21:
 424 0184 84000000 		.word	.LC7
 425 0188 00000000 		.word	.LANCHOR0
 426 018c 00000000 		.word	.LC1
 427 0190 A4000000 		.word	.LC9
 428 0194 D0000000 		.word	.LC11
 429 0198 F0000000 		.word	.LC13
 430              		.cfi_endproc
 431              	.LFE2:
 432              		.size	IoTHubClient_Auth_Create, .-IoTHubClient_Auth_Create
 433              		.section	.text.IoTHubClient_Auth_CreateFromDeviceAuth,"ax",%progbits
 434              		.align	2
ARM GAS  C:\Users\Phuong\AppData\Local\Temp\ccVjqX8s.s 			page 11


 435              		.global	IoTHubClient_Auth_CreateFromDeviceAuth
 436              		.code	16
 437              		.thumb_func
 438              		.type	IoTHubClient_Auth_CreateFromDeviceAuth, %function
 439              	IoTHubClient_Auth_CreateFromDeviceAuth:
 440              	.LFB3:
 135:Source\azure_iot_sdk\iothub_client\src/iothub_client_authorization.c **** 
 136:Source\azure_iot_sdk\iothub_client\src/iothub_client_authorization.c **** IOTHUB_AUTHORIZATION_HANDLE IoTHubClient_Auth_CreateFromDeviceAuth(const char* device_id, const cha
 137:Source\azure_iot_sdk\iothub_client\src/iothub_client_authorization.c **** {
 441              		.loc 1 137 0
 442              		.cfi_startproc
 443              		@ args = 0, pretend = 0, frame = 0
 444              		@ frame_needed = 0, uses_anonymous_args = 0
 445              	.LVL68:
 446 0000 30B5     		push	{r4, r5, lr}
 447              		.cfi_def_cfa_offset 12
 448              		.cfi_offset 4, -12
 449              		.cfi_offset 5, -8
 450              		.cfi_offset 14, -4
 451 0002 85B0     		sub	sp, sp, #20
 452              		.cfi_def_cfa_offset 32
 453 0004 041E     		subs	r4, r0, #0
 138:Source\azure_iot_sdk\iothub_client\src/iothub_client_authorization.c ****     IOTHUB_AUTHORIZATION_DATA* result;
 139:Source\azure_iot_sdk\iothub_client\src/iothub_client_authorization.c ****     if (device_id == NULL)
 454              		.loc 1 139 0
 455 0006 0FD1     		bne	.L24
 456              	.LBB9:
 140:Source\azure_iot_sdk\iothub_client\src/iothub_client_authorization.c ****     {
 141:Source\azure_iot_sdk\iothub_client\src/iothub_client_authorization.c ****         LogError("Invalid Parameter device_id: %p", device_id);
 457              		.loc 1 141 0 discriminator 3
 458 0008 FFF7FEFF 		bl	xlogging_get_log_function
 459              	.LVL69:
 460 000c 051E     		subs	r5, r0, #0
 461              	.LVL70:
 462 000e 19D0     		beq	.L25
 463              		.loc 1 141 0 is_stmt 0 discriminator 4
 464 0010 0294     		str	r4, [sp, #8]
 465 0012 0E4B     		ldr	r3, .L26
 466 0014 0193     		str	r3, [sp, #4]
 467 0016 0123     		movs	r3, #1
 468 0018 0093     		str	r3, [sp]
 469 001a 8C33     		adds	r3, r3, #140
 470 001c 0C4A     		ldr	r2, .L26+4
 471 001e 3432     		adds	r2, r2, #52
 472 0020 0C49     		ldr	r1, .L26+8
 473 0022 0020     		movs	r0, #0
 474              	.LVL71:
 475 0024 A847     		blx	r5
 476              	.LVL72:
 477 0026 0DE0     		b	.L25
 478              	.LVL73:
 479              	.L24:
 480              	.LBE9:
 481              	.LBB10:
 142:Source\azure_iot_sdk\iothub_client\src/iothub_client_authorization.c ****         result = NULL;
 143:Source\azure_iot_sdk\iothub_client\src/iothub_client_authorization.c ****     }
 144:Source\azure_iot_sdk\iothub_client\src/iothub_client_authorization.c ****     else
ARM GAS  C:\Users\Phuong\AppData\Local\Temp\ccVjqX8s.s 			page 12


 145:Source\azure_iot_sdk\iothub_client\src/iothub_client_authorization.c ****     {
 146:Source\azure_iot_sdk\iothub_client\src/iothub_client_authorization.c **** #ifdef USE_PROV_MODULE
 147:Source\azure_iot_sdk\iothub_client\src/iothub_client_authorization.c ****         result = (IOTHUB_AUTHORIZATION_DATA*)malloc(sizeof(IOTHUB_AUTHORIZATION_DATA));
 148:Source\azure_iot_sdk\iothub_client\src/iothub_client_authorization.c ****         if (result == NULL)
 149:Source\azure_iot_sdk\iothub_client\src/iothub_client_authorization.c ****         {
 150:Source\azure_iot_sdk\iothub_client\src/iothub_client_authorization.c ****             LogError("Failed allocating IOTHUB_AUTHORIZATION_DATA");
 151:Source\azure_iot_sdk\iothub_client\src/iothub_client_authorization.c ****             result = NULL;
 152:Source\azure_iot_sdk\iothub_client\src/iothub_client_authorization.c ****         }
 153:Source\azure_iot_sdk\iothub_client\src/iothub_client_authorization.c ****         else
 154:Source\azure_iot_sdk\iothub_client\src/iothub_client_authorization.c ****         {
 155:Source\azure_iot_sdk\iothub_client\src/iothub_client_authorization.c ****             memset(result, 0, sizeof(IOTHUB_AUTHORIZATION_DATA));
 156:Source\azure_iot_sdk\iothub_client\src/iothub_client_authorization.c **** 
 157:Source\azure_iot_sdk\iothub_client\src/iothub_client_authorization.c ****             result->device_auth_handle = iothub_device_auth_create();
 158:Source\azure_iot_sdk\iothub_client\src/iothub_client_authorization.c ****             if (result->device_auth_handle == NULL)
 159:Source\azure_iot_sdk\iothub_client\src/iothub_client_authorization.c ****             {
 160:Source\azure_iot_sdk\iothub_client\src/iothub_client_authorization.c ****                 LogError("Failed allocating IOTHUB_AUTHORIZATION_DATA");
 161:Source\azure_iot_sdk\iothub_client\src/iothub_client_authorization.c ****                 free(result);
 162:Source\azure_iot_sdk\iothub_client\src/iothub_client_authorization.c ****                 result = NULL;
 163:Source\azure_iot_sdk\iothub_client\src/iothub_client_authorization.c ****             }
 164:Source\azure_iot_sdk\iothub_client\src/iothub_client_authorization.c ****             else if (mallocAndStrcpy_s(&result->device_id, device_id) != 0)
 165:Source\azure_iot_sdk\iothub_client\src/iothub_client_authorization.c ****             {
 166:Source\azure_iot_sdk\iothub_client\src/iothub_client_authorization.c ****                 LogError("Failed allocating device_id");
 167:Source\azure_iot_sdk\iothub_client\src/iothub_client_authorization.c ****                 iothub_device_auth_destroy(result->device_auth_handle);
 168:Source\azure_iot_sdk\iothub_client\src/iothub_client_authorization.c ****                 free(result);
 169:Source\azure_iot_sdk\iothub_client\src/iothub_client_authorization.c ****                 result = NULL;
 170:Source\azure_iot_sdk\iothub_client\src/iothub_client_authorization.c ****             }
 171:Source\azure_iot_sdk\iothub_client\src/iothub_client_authorization.c ****             else if ((module_id != NULL) && (mallocAndStrcpy_s(&result->module_id, module_id) != 0)
 172:Source\azure_iot_sdk\iothub_client\src/iothub_client_authorization.c ****             {
 173:Source\azure_iot_sdk\iothub_client\src/iothub_client_authorization.c ****                 LogError("Failed allocating module_id");
 174:Source\azure_iot_sdk\iothub_client\src/iothub_client_authorization.c ****                 iothub_device_auth_destroy(result->device_auth_handle);
 175:Source\azure_iot_sdk\iothub_client\src/iothub_client_authorization.c ****                 free(result->device_id);
 176:Source\azure_iot_sdk\iothub_client\src/iothub_client_authorization.c ****                 free(result);
 177:Source\azure_iot_sdk\iothub_client\src/iothub_client_authorization.c ****                 result = NULL;
 178:Source\azure_iot_sdk\iothub_client\src/iothub_client_authorization.c ****             }
 179:Source\azure_iot_sdk\iothub_client\src/iothub_client_authorization.c ****             else
 180:Source\azure_iot_sdk\iothub_client\src/iothub_client_authorization.c ****             {
 181:Source\azure_iot_sdk\iothub_client\src/iothub_client_authorization.c ****                 if (iothub_device_auth_get_type(result->device_auth_handle) == AUTH_TYPE_SAS)
 182:Source\azure_iot_sdk\iothub_client\src/iothub_client_authorization.c ****                 {
 183:Source\azure_iot_sdk\iothub_client\src/iothub_client_authorization.c ****                     result->cred_type = IOTHUB_CREDENTIAL_TYPE_DEVICE_AUTH;
 184:Source\azure_iot_sdk\iothub_client\src/iothub_client_authorization.c ****                 }
 185:Source\azure_iot_sdk\iothub_client\src/iothub_client_authorization.c ****                 else
 186:Source\azure_iot_sdk\iothub_client\src/iothub_client_authorization.c ****                 {
 187:Source\azure_iot_sdk\iothub_client\src/iothub_client_authorization.c ****                     result->cred_type = IOTHUB_CREDENTIAL_TYPE_X509_ECC;
 188:Source\azure_iot_sdk\iothub_client\src/iothub_client_authorization.c ****                 }
 189:Source\azure_iot_sdk\iothub_client\src/iothub_client_authorization.c ****             }
 190:Source\azure_iot_sdk\iothub_client\src/iothub_client_authorization.c ****         }
 191:Source\azure_iot_sdk\iothub_client\src/iothub_client_authorization.c **** #else
 192:Source\azure_iot_sdk\iothub_client\src/iothub_client_authorization.c ****         (void)module_id;
 193:Source\azure_iot_sdk\iothub_client\src/iothub_client_authorization.c ****         LogError("Failed HSM module is not supported");
 482              		.loc 1 193 0 is_stmt 1 discriminator 3
 483 0028 FFF7FEFF 		bl	xlogging_get_log_function
 484              	.LVL74:
 485 002c 041E     		subs	r4, r0, #0
 486              	.LVL75:
 487 002e 09D0     		beq	.L25
 488              		.loc 1 193 0 is_stmt 0 discriminator 4
 489 0030 094B     		ldr	r3, .L26+12
ARM GAS  C:\Users\Phuong\AppData\Local\Temp\ccVjqX8s.s 			page 13


 490 0032 0193     		str	r3, [sp, #4]
 491 0034 0123     		movs	r3, #1
 492 0036 0093     		str	r3, [sp]
 493 0038 C033     		adds	r3, r3, #192
 494 003a 054A     		ldr	r2, .L26+4
 495 003c 3432     		adds	r2, r2, #52
 496 003e 0549     		ldr	r1, .L26+8
 497 0040 0020     		movs	r0, #0
 498              	.LVL76:
 499 0042 A047     		blx	r4
 500              	.LVL77:
 501              	.L25:
 502              	.LBE10:
 194:Source\azure_iot_sdk\iothub_client\src/iothub_client_authorization.c ****         result = NULL;
 195:Source\azure_iot_sdk\iothub_client\src/iothub_client_authorization.c **** #endif
 196:Source\azure_iot_sdk\iothub_client\src/iothub_client_authorization.c ****     }
 197:Source\azure_iot_sdk\iothub_client\src/iothub_client_authorization.c ****     return result;
 198:Source\azure_iot_sdk\iothub_client\src/iothub_client_authorization.c **** }
 503              		.loc 1 198 0 is_stmt 1
 504 0044 0020     		movs	r0, #0
 505 0046 05B0     		add	sp, sp, #20
 506              		@ sp needed
 507 0048 30BD     		pop	{r4, r5, pc}
 508              	.L27:
 509 004a C046     		.align	2
 510              	.L26:
 511 004c 84000000 		.word	.LC7
 512 0050 00000000 		.word	.LANCHOR0
 513 0054 00000000 		.word	.LC1
 514 0058 0C010000 		.word	.LC18
 515              		.cfi_endproc
 516              	.LFE3:
 517              		.size	IoTHubClient_Auth_CreateFromDeviceAuth, .-IoTHubClient_Auth_CreateFromDeviceAuth
 518              		.section	.text.IoTHubClient_Auth_Destroy,"ax",%progbits
 519              		.align	2
 520              		.global	IoTHubClient_Auth_Destroy
 521              		.code	16
 522              		.thumb_func
 523              		.type	IoTHubClient_Auth_Destroy, %function
 524              	IoTHubClient_Auth_Destroy:
 525              	.LFB4:
 199:Source\azure_iot_sdk\iothub_client\src/iothub_client_authorization.c **** 
 200:Source\azure_iot_sdk\iothub_client\src/iothub_client_authorization.c **** void IoTHubClient_Auth_Destroy(IOTHUB_AUTHORIZATION_HANDLE handle)
 201:Source\azure_iot_sdk\iothub_client\src/iothub_client_authorization.c **** {
 526              		.loc 1 201 0
 527              		.cfi_startproc
 528              		@ args = 0, pretend = 0, frame = 0
 529              		@ frame_needed = 0, uses_anonymous_args = 0
 530              	.LVL78:
 531 0000 10B5     		push	{r4, lr}
 532              		.cfi_def_cfa_offset 8
 533              		.cfi_offset 4, -8
 534              		.cfi_offset 14, -4
 535 0002 041E     		subs	r4, r0, #0
 202:Source\azure_iot_sdk\iothub_client\src/iothub_client_authorization.c ****     /* Codes_SRS_IoTHub_Authorization_07_005: [ if handle is NULL IoTHubClient_Auth_Destroy shall d
 203:Source\azure_iot_sdk\iothub_client\src/iothub_client_authorization.c ****     if (handle != NULL)
 536              		.loc 1 203 0
ARM GAS  C:\Users\Phuong\AppData\Local\Temp\ccVjqX8s.s 			page 14


 537 0004 0ED0     		beq	.L28
 204:Source\azure_iot_sdk\iothub_client\src/iothub_client_authorization.c ****     {
 205:Source\azure_iot_sdk\iothub_client\src/iothub_client_authorization.c ****         /* Codes_SRS_IoTHub_Authorization_07_006: [ IoTHubClient_Auth_Destroy shall free all resour
 206:Source\azure_iot_sdk\iothub_client\src/iothub_client_authorization.c **** #ifdef USE_PROV_MODULE
 207:Source\azure_iot_sdk\iothub_client\src/iothub_client_authorization.c ****         iothub_device_auth_destroy(handle->device_auth_handle);
 208:Source\azure_iot_sdk\iothub_client\src/iothub_client_authorization.c **** #endif
 209:Source\azure_iot_sdk\iothub_client\src/iothub_client_authorization.c ****         free(handle->device_key);
 538              		.loc 1 209 0
 539 0006 4068     		ldr	r0, [r0, #4]
 540              	.LVL79:
 541 0008 FFF7FEFF 		bl	free
 542              	.LVL80:
 210:Source\azure_iot_sdk\iothub_client\src/iothub_client_authorization.c ****         free(handle->device_id);
 543              		.loc 1 210 0
 544 000c A068     		ldr	r0, [r4, #8]
 545 000e FFF7FEFF 		bl	free
 546              	.LVL81:
 211:Source\azure_iot_sdk\iothub_client\src/iothub_client_authorization.c ****         free(handle->module_id);
 547              		.loc 1 211 0
 548 0012 E068     		ldr	r0, [r4, #12]
 549 0014 FFF7FEFF 		bl	free
 550              	.LVL82:
 212:Source\azure_iot_sdk\iothub_client\src/iothub_client_authorization.c ****         free(handle->device_sas_token);
 551              		.loc 1 212 0
 552 0018 2068     		ldr	r0, [r4]
 553 001a FFF7FEFF 		bl	free
 554              	.LVL83:
 213:Source\azure_iot_sdk\iothub_client\src/iothub_client_authorization.c ****         free(handle);
 555              		.loc 1 213 0
 556 001e 2000     		movs	r0, r4
 557 0020 FFF7FEFF 		bl	free
 558              	.LVL84:
 559              	.L28:
 214:Source\azure_iot_sdk\iothub_client\src/iothub_client_authorization.c ****     }
 215:Source\azure_iot_sdk\iothub_client\src/iothub_client_authorization.c **** }
 560              		.loc 1 215 0
 561              		@ sp needed
 562              	.LVL85:
 563 0024 10BD     		pop	{r4, pc}
 564              		.cfi_endproc
 565              	.LFE4:
 566              		.size	IoTHubClient_Auth_Destroy, .-IoTHubClient_Auth_Destroy
 567 0026 C046     		.section	.text.IoTHubClient_Auth_Set_x509_Type,"ax",%progbits
 568              		.align	2
 569              		.global	IoTHubClient_Auth_Set_x509_Type
 570              		.code	16
 571              		.thumb_func
 572              		.type	IoTHubClient_Auth_Set_x509_Type, %function
 573              	IoTHubClient_Auth_Set_x509_Type:
 574              	.LFB5:
 216:Source\azure_iot_sdk\iothub_client\src/iothub_client_authorization.c **** 
 217:Source\azure_iot_sdk\iothub_client\src/iothub_client_authorization.c **** IOTHUB_CREDENTIAL_TYPE IoTHubClient_Auth_Set_x509_Type(IOTHUB_AUTHORIZATION_HANDLE handle, bool ena
 218:Source\azure_iot_sdk\iothub_client\src/iothub_client_authorization.c **** {
 575              		.loc 1 218 0
 576              		.cfi_startproc
 577              		@ args = 0, pretend = 0, frame = 0
 578              		@ frame_needed = 0, uses_anonymous_args = 0
ARM GAS  C:\Users\Phuong\AppData\Local\Temp\ccVjqX8s.s 			page 15


 579              		@ link register save eliminated.
 580              	.LVL86:
 219:Source\azure_iot_sdk\iothub_client\src/iothub_client_authorization.c ****     IOTHUB_CREDENTIAL_TYPE result;
 220:Source\azure_iot_sdk\iothub_client\src/iothub_client_authorization.c ****     if (handle != NULL)
 581              		.loc 1 220 0
 582 0000 0028     		cmp	r0, #0
 583 0002 17D0     		beq	.L35
 221:Source\azure_iot_sdk\iothub_client\src/iothub_client_authorization.c ****     {
 222:Source\azure_iot_sdk\iothub_client\src/iothub_client_authorization.c ****         if (enable_x509)
 584              		.loc 1 222 0
 585 0004 0029     		cmp	r1, #0
 586 0006 03D0     		beq	.L32
 223:Source\azure_iot_sdk\iothub_client\src/iothub_client_authorization.c ****         {
 224:Source\azure_iot_sdk\iothub_client\src/iothub_client_authorization.c ****             result = handle->cred_type = IOTHUB_CREDENTIAL_TYPE_X509;
 587              		.loc 1 224 0
 588 0008 0223     		movs	r3, #2
 589 000a 0375     		strb	r3, [r0, #20]
 590              	.LVL87:
 591 000c 0220     		movs	r0, #2
 592              	.LVL88:
 593 000e 12E0     		b	.L31
 594              	.LVL89:
 595              	.L32:
 225:Source\azure_iot_sdk\iothub_client\src/iothub_client_authorization.c ****         }
 226:Source\azure_iot_sdk\iothub_client\src/iothub_client_authorization.c ****         else
 227:Source\azure_iot_sdk\iothub_client\src/iothub_client_authorization.c ****         {
 228:Source\azure_iot_sdk\iothub_client\src/iothub_client_authorization.c ****             if (handle->device_sas_token == NULL)
 596              		.loc 1 228 0
 597 0010 0368     		ldr	r3, [r0]
 598 0012 002B     		cmp	r3, #0
 599 0014 03D1     		bne	.L33
 229:Source\azure_iot_sdk\iothub_client\src/iothub_client_authorization.c ****             {
 230:Source\azure_iot_sdk\iothub_client\src/iothub_client_authorization.c ****                 result = handle->cred_type = IOTHUB_CREDENTIAL_TYPE_DEVICE_KEY;
 600              		.loc 1 230 0
 601 0016 0133     		adds	r3, r3, #1
 602 0018 0375     		strb	r3, [r0, #20]
 603              	.LVL90:
 604 001a 0120     		movs	r0, #1
 605              	.LVL91:
 606 001c 0BE0     		b	.L31
 607              	.LVL92:
 608              	.L33:
 231:Source\azure_iot_sdk\iothub_client\src/iothub_client_authorization.c ****             }
 232:Source\azure_iot_sdk\iothub_client\src/iothub_client_authorization.c ****             else if (handle->device_key == NULL)
 609              		.loc 1 232 0
 610 001e 4368     		ldr	r3, [r0, #4]
 611 0020 002B     		cmp	r3, #0
 612 0022 03D1     		bne	.L34
 233:Source\azure_iot_sdk\iothub_client\src/iothub_client_authorization.c ****             {
 234:Source\azure_iot_sdk\iothub_client\src/iothub_client_authorization.c ****                 result = handle->cred_type = IOTHUB_CREDENTIAL_TYPE_SAS_TOKEN;
 613              		.loc 1 234 0
 614 0024 0433     		adds	r3, r3, #4
 615 0026 0375     		strb	r3, [r0, #20]
 616              	.LVL93:
 617 0028 0420     		movs	r0, #4
 618              	.LVL94:
 619 002a 04E0     		b	.L31
ARM GAS  C:\Users\Phuong\AppData\Local\Temp\ccVjqX8s.s 			page 16


 620              	.LVL95:
 621              	.L34:
 235:Source\azure_iot_sdk\iothub_client\src/iothub_client_authorization.c ****             }
 236:Source\azure_iot_sdk\iothub_client\src/iothub_client_authorization.c ****             else
 237:Source\azure_iot_sdk\iothub_client\src/iothub_client_authorization.c ****             {
 238:Source\azure_iot_sdk\iothub_client\src/iothub_client_authorization.c ****                 result = handle->cred_type = IOTHUB_CREDENTIAL_TYPE_UNKNOWN;
 622              		.loc 1 238 0
 623 002c 0023     		movs	r3, #0
 624 002e 0375     		strb	r3, [r0, #20]
 625              	.LVL96:
 626 0030 0020     		movs	r0, #0
 627              	.LVL97:
 628 0032 00E0     		b	.L31
 629              	.LVL98:
 630              	.L35:
 239:Source\azure_iot_sdk\iothub_client\src/iothub_client_authorization.c ****             }
 240:Source\azure_iot_sdk\iothub_client\src/iothub_client_authorization.c ****         }
 241:Source\azure_iot_sdk\iothub_client\src/iothub_client_authorization.c ****     }
 242:Source\azure_iot_sdk\iothub_client\src/iothub_client_authorization.c ****     else
 243:Source\azure_iot_sdk\iothub_client\src/iothub_client_authorization.c ****     {
 244:Source\azure_iot_sdk\iothub_client\src/iothub_client_authorization.c ****         result = IOTHUB_CREDENTIAL_TYPE_UNKNOWN;
 631              		.loc 1 244 0
 632 0034 0020     		movs	r0, #0
 633              	.LVL99:
 634              	.L31:
 245:Source\azure_iot_sdk\iothub_client\src/iothub_client_authorization.c ****     }
 246:Source\azure_iot_sdk\iothub_client\src/iothub_client_authorization.c ****     return result;
 247:Source\azure_iot_sdk\iothub_client\src/iothub_client_authorization.c **** }
 635              		.loc 1 247 0
 636              		@ sp needed
 637 0036 7047     		bx	lr
 638              		.cfi_endproc
 639              	.LFE5:
 640              		.size	IoTHubClient_Auth_Set_x509_Type, .-IoTHubClient_Auth_Set_x509_Type
 641              		.section	.text.IoTHubClient_Auth_Set_xio_Certificate,"ax",%progbits
 642              		.align	2
 643              		.global	IoTHubClient_Auth_Set_xio_Certificate
 644              		.code	16
 645              		.thumb_func
 646              		.type	IoTHubClient_Auth_Set_xio_Certificate, %function
 647              	IoTHubClient_Auth_Set_xio_Certificate:
 648              	.LFB6:
 248:Source\azure_iot_sdk\iothub_client\src/iothub_client_authorization.c **** 
 249:Source\azure_iot_sdk\iothub_client\src/iothub_client_authorization.c **** int IoTHubClient_Auth_Set_xio_Certificate(IOTHUB_AUTHORIZATION_HANDLE handle, XIO_HANDLE xio)
 250:Source\azure_iot_sdk\iothub_client\src/iothub_client_authorization.c **** {
 649              		.loc 1 250 0
 650              		.cfi_startproc
 651              		@ args = 0, pretend = 0, frame = 0
 652              		@ frame_needed = 0, uses_anonymous_args = 0
 653              	.LVL100:
 654 0000 70B5     		push	{r4, r5, r6, lr}
 655              		.cfi_def_cfa_offset 16
 656              		.cfi_offset 4, -16
 657              		.cfi_offset 5, -12
 658              		.cfi_offset 6, -8
 659              		.cfi_offset 14, -4
 660 0002 84B0     		sub	sp, sp, #16
ARM GAS  C:\Users\Phuong\AppData\Local\Temp\ccVjqX8s.s 			page 17


 661              		.cfi_def_cfa_offset 32
 662 0004 0400     		movs	r4, r0
 663 0006 0D00     		movs	r5, r1
 251:Source\azure_iot_sdk\iothub_client\src/iothub_client_authorization.c ****     int result;
 252:Source\azure_iot_sdk\iothub_client\src/iothub_client_authorization.c ****     if (handle == NULL || xio == NULL)
 664              		.loc 1 252 0
 665 0008 0028     		cmp	r0, #0
 666 000a 01D0     		beq	.L37
 667              		.loc 1 252 0 is_stmt 0 discriminator 1
 668 000c 0029     		cmp	r1, #0
 669 000e 11D1     		bne	.L38
 670              	.L37:
 671              	.LBB11:
 253:Source\azure_iot_sdk\iothub_client\src/iothub_client_authorization.c ****     {
 254:Source\azure_iot_sdk\iothub_client\src/iothub_client_authorization.c ****         LogError("Invalid Parameter handle: %p xio: %p", handle, xio);
 672              		.loc 1 254 0 is_stmt 1 discriminator 3
 673 0010 FFF7FEFF 		bl	xlogging_get_log_function
 674              	.LVL101:
 675 0014 061E     		subs	r6, r0, #0
 676              	.LVL102:
 677 0016 34D0     		beq	.L41
 678              		.loc 1 254 0 is_stmt 0 discriminator 4
 679 0018 0395     		str	r5, [sp, #12]
 680 001a 0294     		str	r4, [sp, #8]
 681 001c 1D4B     		ldr	r3, .L44
 682 001e 0193     		str	r3, [sp, #4]
 683 0020 0123     		movs	r3, #1
 684 0022 0093     		str	r3, [sp]
 685 0024 FD33     		adds	r3, r3, #253
 686 0026 1C4A     		ldr	r2, .L44+4
 687 0028 5C32     		adds	r2, r2, #92
 688 002a 1C49     		ldr	r1, .L44+8
 689 002c 0020     		movs	r0, #0
 690              	.LVL103:
 691 002e B047     		blx	r6
 692              	.LVL104:
 693              	.LBE11:
 255:Source\azure_iot_sdk\iothub_client\src/iothub_client_authorization.c ****         result = __FAILURE__;
 694              		.loc 1 255 0 is_stmt 1 discriminator 4
 695 0030 FF20     		movs	r0, #255
 696 0032 2DE0     		b	.L39
 697              	.LVL105:
 698              	.L38:
 256:Source\azure_iot_sdk\iothub_client\src/iothub_client_authorization.c ****     }
 257:Source\azure_iot_sdk\iothub_client\src/iothub_client_authorization.c ****     else if (handle->cred_type != IOTHUB_CREDENTIAL_TYPE_X509_ECC)
 699              		.loc 1 257 0
 700 0034 037D     		ldrb	r3, [r0, #20]
 701 0036 032B     		cmp	r3, #3
 702 0038 11D0     		beq	.L40
 703              	.LBB12:
 258:Source\azure_iot_sdk\iothub_client\src/iothub_client_authorization.c ****     {
 259:Source\azure_iot_sdk\iothub_client\src/iothub_client_authorization.c ****         LogError("Invalid credential types for this operation");
 704              		.loc 1 259 0 discriminator 3
 705 003a FFF7FEFF 		bl	xlogging_get_log_function
 706              	.LVL106:
 707 003e 041E     		subs	r4, r0, #0
 708              	.LVL107:
ARM GAS  C:\Users\Phuong\AppData\Local\Temp\ccVjqX8s.s 			page 18


 709 0040 21D0     		beq	.L42
 710              		.loc 1 259 0 is_stmt 0 discriminator 4
 711 0042 174B     		ldr	r3, .L44+12
 712 0044 0193     		str	r3, [sp, #4]
 713 0046 0123     		movs	r3, #1
 714 0048 0093     		str	r3, [sp]
 715 004a 0423     		movs	r3, #4
 716 004c FF33     		adds	r3, r3, #255
 717 004e 124A     		ldr	r2, .L44+4
 718 0050 5C32     		adds	r2, r2, #92
 719 0052 1249     		ldr	r1, .L44+8
 720 0054 0020     		movs	r0, #0
 721              	.LVL108:
 722 0056 A047     		blx	r4
 723              	.LVL109:
 724              	.LBE12:
 260:Source\azure_iot_sdk\iothub_client\src/iothub_client_authorization.c ****         result = __FAILURE__;
 725              		.loc 1 260 0 is_stmt 1 discriminator 4
 726 0058 8220     		movs	r0, #130
 727 005a 4000     		lsls	r0, r0, #1
 728 005c 18E0     		b	.L39
 729              	.LVL110:
 730              	.L40:
 731              	.LBB13:
 261:Source\azure_iot_sdk\iothub_client\src/iothub_client_authorization.c ****     }
 262:Source\azure_iot_sdk\iothub_client\src/iothub_client_authorization.c ****     else
 263:Source\azure_iot_sdk\iothub_client\src/iothub_client_authorization.c ****     {
 264:Source\azure_iot_sdk\iothub_client\src/iothub_client_authorization.c **** #ifdef USE_PROV_MODULE
 265:Source\azure_iot_sdk\iothub_client\src/iothub_client_authorization.c ****         CREDENTIAL_RESULT* cred_result = iothub_device_auth_generate_credentials(handle->device_aut
 266:Source\azure_iot_sdk\iothub_client\src/iothub_client_authorization.c ****         if (cred_result == NULL)
 267:Source\azure_iot_sdk\iothub_client\src/iothub_client_authorization.c ****         {
 268:Source\azure_iot_sdk\iothub_client\src/iothub_client_authorization.c ****             LogError("Failure generating credentials");
 269:Source\azure_iot_sdk\iothub_client\src/iothub_client_authorization.c ****             result = __FAILURE__;
 270:Source\azure_iot_sdk\iothub_client\src/iothub_client_authorization.c ****         }
 271:Source\azure_iot_sdk\iothub_client\src/iothub_client_authorization.c ****         else
 272:Source\azure_iot_sdk\iothub_client\src/iothub_client_authorization.c ****         {
 273:Source\azure_iot_sdk\iothub_client\src/iothub_client_authorization.c ****             if (xio_setoption(xio, OPTION_X509_ECC_CERT, cred_result->auth_cred_result.x509_result.
 274:Source\azure_iot_sdk\iothub_client\src/iothub_client_authorization.c ****             {
 275:Source\azure_iot_sdk\iothub_client\src/iothub_client_authorization.c ****                 LogError("Failure setting x509 cert on xio");
 276:Source\azure_iot_sdk\iothub_client\src/iothub_client_authorization.c ****                 result = __FAILURE__;
 277:Source\azure_iot_sdk\iothub_client\src/iothub_client_authorization.c ****             }
 278:Source\azure_iot_sdk\iothub_client\src/iothub_client_authorization.c ****             else if (xio_setoption(xio, OPTION_X509_ECC_KEY, cred_result->auth_cred_result.x509_res
 279:Source\azure_iot_sdk\iothub_client\src/iothub_client_authorization.c ****             {
 280:Source\azure_iot_sdk\iothub_client\src/iothub_client_authorization.c ****                 LogError("Failure setting x509 key on xio");
 281:Source\azure_iot_sdk\iothub_client\src/iothub_client_authorization.c ****                 result = __FAILURE__;
 282:Source\azure_iot_sdk\iothub_client\src/iothub_client_authorization.c ****             }
 283:Source\azure_iot_sdk\iothub_client\src/iothub_client_authorization.c ****             else
 284:Source\azure_iot_sdk\iothub_client\src/iothub_client_authorization.c ****             {
 285:Source\azure_iot_sdk\iothub_client\src/iothub_client_authorization.c ****                 result = 0;
 286:Source\azure_iot_sdk\iothub_client\src/iothub_client_authorization.c ****             }
 287:Source\azure_iot_sdk\iothub_client\src/iothub_client_authorization.c ****             free(cred_result);
 288:Source\azure_iot_sdk\iothub_client\src/iothub_client_authorization.c ****         }
 289:Source\azure_iot_sdk\iothub_client\src/iothub_client_authorization.c **** #else
 290:Source\azure_iot_sdk\iothub_client\src/iothub_client_authorization.c ****         LogError("Failed HSM module is not supported");
 732              		.loc 1 290 0 discriminator 3
 733 005e FFF7FEFF 		bl	xlogging_get_log_function
 734              	.LVL111:
ARM GAS  C:\Users\Phuong\AppData\Local\Temp\ccVjqX8s.s 			page 19


 735 0062 041E     		subs	r4, r0, #0
 736              	.LVL112:
 737 0064 12D0     		beq	.L43
 738              		.loc 1 290 0 is_stmt 0 discriminator 4
 739 0066 0F4B     		ldr	r3, .L44+16
 740 0068 0193     		str	r3, [sp, #4]
 741 006a 0123     		movs	r3, #1
 742 006c 0093     		str	r3, [sp]
 743 006e 2233     		adds	r3, r3, #34
 744 0070 FF33     		adds	r3, r3, #255
 745 0072 094A     		ldr	r2, .L44+4
 746 0074 5C32     		adds	r2, r2, #92
 747 0076 0949     		ldr	r1, .L44+8
 748 0078 0020     		movs	r0, #0
 749              	.LVL113:
 750 007a A047     		blx	r4
 751              	.LVL114:
 752              	.LBE13:
 291:Source\azure_iot_sdk\iothub_client\src/iothub_client_authorization.c ****         result = __FAILURE__;
 753              		.loc 1 291 0 is_stmt 1 discriminator 4
 754 007c 2420     		movs	r0, #36
 755 007e FF30     		adds	r0, r0, #255
 756 0080 06E0     		b	.L39
 757              	.LVL115:
 758              	.L41:
 255:Source\azure_iot_sdk\iothub_client\src/iothub_client_authorization.c ****     }
 759              		.loc 1 255 0
 760 0082 FF20     		movs	r0, #255
 761              	.LVL116:
 762 0084 04E0     		b	.L39
 763              	.LVL117:
 764              	.L42:
 260:Source\azure_iot_sdk\iothub_client\src/iothub_client_authorization.c ****     }
 765              		.loc 1 260 0
 766 0086 8220     		movs	r0, #130
 767              	.LVL118:
 768 0088 4000     		lsls	r0, r0, #1
 769 008a 01E0     		b	.L39
 770              	.LVL119:
 771              	.L43:
 772              		.loc 1 291 0
 773 008c 2420     		movs	r0, #36
 774              	.LVL120:
 775 008e FF30     		adds	r0, r0, #255
 776              	.LVL121:
 777              	.L39:
 292:Source\azure_iot_sdk\iothub_client\src/iothub_client_authorization.c **** #endif
 293:Source\azure_iot_sdk\iothub_client\src/iothub_client_authorization.c ****     }
 294:Source\azure_iot_sdk\iothub_client\src/iothub_client_authorization.c ****     return result;
 295:Source\azure_iot_sdk\iothub_client\src/iothub_client_authorization.c **** }
 778              		.loc 1 295 0
 779 0090 04B0     		add	sp, sp, #16
 780              		@ sp needed
 781              	.LVL122:
 782 0092 70BD     		pop	{r4, r5, r6, pc}
 783              	.L45:
 784              		.align	2
ARM GAS  C:\Users\Phuong\AppData\Local\Temp\ccVjqX8s.s 			page 20


 785              	.L44:
 786 0094 30010000 		.word	.LC22
 787 0098 00000000 		.word	.LANCHOR0
 788 009c 00000000 		.word	.LC1
 789 00a0 58010000 		.word	.LC24
 790 00a4 0C010000 		.word	.LC18
 791              		.cfi_endproc
 792              	.LFE6:
 793              		.size	IoTHubClient_Auth_Set_xio_Certificate, .-IoTHubClient_Auth_Set_xio_Certificate
 794              		.section	.text.IoTHubClient_Auth_Get_Credential_Type,"ax",%progbits
 795              		.align	2
 796              		.global	IoTHubClient_Auth_Get_Credential_Type
 797              		.code	16
 798              		.thumb_func
 799              		.type	IoTHubClient_Auth_Get_Credential_Type, %function
 800              	IoTHubClient_Auth_Get_Credential_Type:
 801              	.LFB7:
 296:Source\azure_iot_sdk\iothub_client\src/iothub_client_authorization.c **** 
 297:Source\azure_iot_sdk\iothub_client\src/iothub_client_authorization.c **** IOTHUB_CREDENTIAL_TYPE IoTHubClient_Auth_Get_Credential_Type(IOTHUB_AUTHORIZATION_HANDLE handle)
 298:Source\azure_iot_sdk\iothub_client\src/iothub_client_authorization.c **** {
 802              		.loc 1 298 0
 803              		.cfi_startproc
 804              		@ args = 0, pretend = 0, frame = 0
 805              		@ frame_needed = 0, uses_anonymous_args = 0
 806              	.LVL123:
 807 0000 30B5     		push	{r4, r5, lr}
 808              		.cfi_def_cfa_offset 12
 809              		.cfi_offset 4, -12
 810              		.cfi_offset 5, -8
 811              		.cfi_offset 14, -4
 812 0002 85B0     		sub	sp, sp, #20
 813              		.cfi_def_cfa_offset 32
 814 0004 041E     		subs	r4, r0, #0
 299:Source\azure_iot_sdk\iothub_client\src/iothub_client_authorization.c ****     IOTHUB_CREDENTIAL_TYPE result;
 300:Source\azure_iot_sdk\iothub_client\src/iothub_client_authorization.c ****     /* Codes_SRS_IoTHub_Authorization_07_007: [ if handle is NULL IoTHub_Auth_Get_Credential_Type s
 301:Source\azure_iot_sdk\iothub_client\src/iothub_client_authorization.c ****     if (handle == NULL)
 815              		.loc 1 301 0
 816 0006 11D1     		bne	.L47
 817              	.LBB14:
 302:Source\azure_iot_sdk\iothub_client\src/iothub_client_authorization.c ****     {
 303:Source\azure_iot_sdk\iothub_client\src/iothub_client_authorization.c ****         LogError("Invalid Parameter handle: %p", handle);
 818              		.loc 1 303 0 discriminator 3
 819 0008 FFF7FEFF 		bl	xlogging_get_log_function
 820              	.LVL124:
 821 000c 051E     		subs	r5, r0, #0
 822              	.LVL125:
 823 000e 0FD0     		beq	.L49
 824              		.loc 1 303 0 is_stmt 0 discriminator 4
 825 0010 0294     		str	r4, [sp, #8]
 826 0012 094B     		ldr	r3, .L50
 827 0014 0193     		str	r3, [sp, #4]
 828 0016 0123     		movs	r3, #1
 829 0018 0093     		str	r3, [sp]
 830 001a 3023     		movs	r3, #48
 831 001c FF33     		adds	r3, r3, #255
 832 001e 074A     		ldr	r2, .L50+4
 833 0020 0432     		adds	r2, r2, #4
ARM GAS  C:\Users\Phuong\AppData\Local\Temp\ccVjqX8s.s 			page 21


 834 0022 0749     		ldr	r1, .L50+8
 835 0024 0020     		movs	r0, #0
 836              	.LVL126:
 837 0026 A847     		blx	r5
 838              	.LVL127:
 839              	.LBE14:
 304:Source\azure_iot_sdk\iothub_client\src/iothub_client_authorization.c ****         result = IOTHUB_CREDENTIAL_TYPE_UNKNOWN;
 840              		.loc 1 304 0 is_stmt 1 discriminator 4
 841 0028 0020     		movs	r0, #0
 842 002a 02E0     		b	.L48
 843              	.LVL128:
 844              	.L47:
 305:Source\azure_iot_sdk\iothub_client\src/iothub_client_authorization.c ****     }
 306:Source\azure_iot_sdk\iothub_client\src/iothub_client_authorization.c ****     else
 307:Source\azure_iot_sdk\iothub_client\src/iothub_client_authorization.c ****     {
 308:Source\azure_iot_sdk\iothub_client\src/iothub_client_authorization.c ****         /* Codes_SRS_IoTHub_Authorization_07_008: [ IoTHub_Auth_Get_Credential_Type shall return th
 309:Source\azure_iot_sdk\iothub_client\src/iothub_client_authorization.c ****         result = handle->cred_type;
 845              		.loc 1 309 0
 846 002c 007D     		ldrb	r0, [r0, #20]
 847              	.LVL129:
 848 002e 00E0     		b	.L48
 849              	.LVL130:
 850              	.L49:
 304:Source\azure_iot_sdk\iothub_client\src/iothub_client_authorization.c ****         result = IOTHUB_CREDENTIAL_TYPE_UNKNOWN;
 851              		.loc 1 304 0
 852 0030 0020     		movs	r0, #0
 853              	.LVL131:
 854              	.L48:
 310:Source\azure_iot_sdk\iothub_client\src/iothub_client_authorization.c ****     }
 311:Source\azure_iot_sdk\iothub_client\src/iothub_client_authorization.c ****     return result;
 312:Source\azure_iot_sdk\iothub_client\src/iothub_client_authorization.c **** }
 855              		.loc 1 312 0
 856 0032 05B0     		add	sp, sp, #20
 857              		@ sp needed
 858              	.LVL132:
 859 0034 30BD     		pop	{r4, r5, pc}
 860              	.L51:
 861 0036 C046     		.align	2
 862              	.L50:
 863 0038 84010000 		.word	.LC29
 864 003c 80000000 		.word	.LANCHOR1
 865 0040 00000000 		.word	.LC1
 866              		.cfi_endproc
 867              	.LFE7:
 868              		.size	IoTHubClient_Auth_Get_Credential_Type, .-IoTHubClient_Auth_Get_Credential_Type
 869              		.section	.text.IoTHubClient_Auth_Get_SasToken,"ax",%progbits
 870              		.align	2
 871              		.global	IoTHubClient_Auth_Get_SasToken
 872              		.code	16
 873              		.thumb_func
 874              		.type	IoTHubClient_Auth_Get_SasToken, %function
 875              	IoTHubClient_Auth_Get_SasToken:
 876              	.LFB8:
 313:Source\azure_iot_sdk\iothub_client\src/iothub_client_authorization.c **** 
 314:Source\azure_iot_sdk\iothub_client\src/iothub_client_authorization.c **** char* IoTHubClient_Auth_Get_SasToken(IOTHUB_AUTHORIZATION_HANDLE handle, const char* scope, size_t 
 315:Source\azure_iot_sdk\iothub_client\src/iothub_client_authorization.c **** {
 877              		.loc 1 315 0
ARM GAS  C:\Users\Phuong\AppData\Local\Temp\ccVjqX8s.s 			page 22


 878              		.cfi_startproc
 879              		@ args = 0, pretend = 0, frame = 8
 880              		@ frame_needed = 0, uses_anonymous_args = 0
 881              	.LVL133:
 882 0000 F0B5     		push	{r4, r5, r6, r7, lr}
 883              		.cfi_def_cfa_offset 20
 884              		.cfi_offset 4, -20
 885              		.cfi_offset 5, -16
 886              		.cfi_offset 6, -12
 887              		.cfi_offset 7, -8
 888              		.cfi_offset 14, -4
 889 0002 87B0     		sub	sp, sp, #28
 890              		.cfi_def_cfa_offset 48
 891 0004 0400     		movs	r4, r0
 892 0006 0D00     		movs	r5, r1
 893 0008 1600     		movs	r6, r2
 894 000a 1F00     		movs	r7, r3
 316:Source\azure_iot_sdk\iothub_client\src/iothub_client_authorization.c ****     char* result;
 317:Source\azure_iot_sdk\iothub_client\src/iothub_client_authorization.c ****     /* Codes_SRS_IoTHub_Authorization_07_009: [ if handle or scope are NULL, IoTHubClient_Auth_Get_
 318:Source\azure_iot_sdk\iothub_client\src/iothub_client_authorization.c ****     if (handle == NULL)
 895              		.loc 1 318 0
 896 000c 0028     		cmp	r0, #0
 897 000e 12D1     		bne	.L53
 898              	.LBB15:
 319:Source\azure_iot_sdk\iothub_client\src/iothub_client_authorization.c ****     {
 320:Source\azure_iot_sdk\iothub_client\src/iothub_client_authorization.c ****         LogError("Invalid Parameter handle: %p", handle);
 899              		.loc 1 320 0 discriminator 3
 900 0010 FFF7FEFF 		bl	xlogging_get_log_function
 901              	.LVL134:
 902 0014 051E     		subs	r5, r0, #0
 903              	.LVL135:
 904 0016 0BD0     		beq	.L54
 905              		.loc 1 320 0 is_stmt 0 discriminator 4
 906 0018 0294     		str	r4, [sp, #8]
 907 001a 664B     		ldr	r3, .L73
 908 001c 0193     		str	r3, [sp, #4]
 909 001e 0123     		movs	r3, #1
 910 0020 0093     		str	r3, [sp]
 911 0022 4033     		adds	r3, r3, #64
 912 0024 FF33     		adds	r3, r3, #255
 913 0026 644A     		ldr	r2, .L73+4
 914 0028 2C32     		adds	r2, r2, #44
 915 002a 6449     		ldr	r1, .L73+8
 916 002c 0020     		movs	r0, #0
 917              	.LVL136:
 918 002e A847     		blx	r5
 919              	.LVL137:
 920              	.L54:
 921              	.LBE15:
 321:Source\azure_iot_sdk\iothub_client\src/iothub_client_authorization.c ****         result = NULL;
 922              		.loc 1 321 0 is_stmt 1
 923 0030 0023     		movs	r3, #0
 924 0032 0593     		str	r3, [sp, #20]
 925 0034 BAE0     		b	.L55
 926              	.LVL138:
 927              	.L53:
 322:Source\azure_iot_sdk\iothub_client\src/iothub_client_authorization.c ****     }
ARM GAS  C:\Users\Phuong\AppData\Local\Temp\ccVjqX8s.s 			page 23


 323:Source\azure_iot_sdk\iothub_client\src/iothub_client_authorization.c ****     else
 324:Source\azure_iot_sdk\iothub_client\src/iothub_client_authorization.c ****     {
 325:Source\azure_iot_sdk\iothub_client\src/iothub_client_authorization.c ****         if (handle->cred_type == IOTHUB_CREDENTIAL_TYPE_DEVICE_AUTH)
 928              		.loc 1 325 0
 929 0036 037D     		ldrb	r3, [r0, #20]
 930              	.LVL139:
 931 0038 052B     		cmp	r3, #5
 932 003a 11D1     		bne	.L56
 933              	.LBB16:
 326:Source\azure_iot_sdk\iothub_client\src/iothub_client_authorization.c ****         {
 327:Source\azure_iot_sdk\iothub_client\src/iothub_client_authorization.c **** #ifdef USE_PROV_MODULE
 328:Source\azure_iot_sdk\iothub_client\src/iothub_client_authorization.c ****             DEVICE_AUTH_CREDENTIAL_INFO dev_auth_cred;
 329:Source\azure_iot_sdk\iothub_client\src/iothub_client_authorization.c ****             size_t sec_since_epoch;
 330:Source\azure_iot_sdk\iothub_client\src/iothub_client_authorization.c **** 
 331:Source\azure_iot_sdk\iothub_client\src/iothub_client_authorization.c ****             if (get_seconds_since_epoch(&sec_since_epoch) != 0)
 332:Source\azure_iot_sdk\iothub_client\src/iothub_client_authorization.c ****             {
 333:Source\azure_iot_sdk\iothub_client\src/iothub_client_authorization.c ****                 LogError("failure getting seconds from epoch");
 334:Source\azure_iot_sdk\iothub_client\src/iothub_client_authorization.c ****                 result = NULL;
 335:Source\azure_iot_sdk\iothub_client\src/iothub_client_authorization.c ****             }
 336:Source\azure_iot_sdk\iothub_client\src/iothub_client_authorization.c ****             else
 337:Source\azure_iot_sdk\iothub_client\src/iothub_client_authorization.c ****             {
 338:Source\azure_iot_sdk\iothub_client\src/iothub_client_authorization.c ****                 memset(&dev_auth_cred, 0, sizeof(DEVICE_AUTH_CREDENTIAL_INFO));
 339:Source\azure_iot_sdk\iothub_client\src/iothub_client_authorization.c ****                 size_t expiry_time = sec_since_epoch+expiry_time_relative_seconds;
 340:Source\azure_iot_sdk\iothub_client\src/iothub_client_authorization.c ****                 dev_auth_cred.sas_info.expiry_seconds = expiry_time;
 341:Source\azure_iot_sdk\iothub_client\src/iothub_client_authorization.c ****                 dev_auth_cred.sas_info.token_scope = scope;
 342:Source\azure_iot_sdk\iothub_client\src/iothub_client_authorization.c ****                 dev_auth_cred.sas_info.key_name = key_name;
 343:Source\azure_iot_sdk\iothub_client\src/iothub_client_authorization.c ****                 dev_auth_cred.dev_auth_type = AUTH_TYPE_SAS;
 344:Source\azure_iot_sdk\iothub_client\src/iothub_client_authorization.c **** 
 345:Source\azure_iot_sdk\iothub_client\src/iothub_client_authorization.c ****                 CREDENTIAL_RESULT* cred_result = iothub_device_auth_generate_credentials(handle->de
 346:Source\azure_iot_sdk\iothub_client\src/iothub_client_authorization.c ****                 if (cred_result == NULL)
 347:Source\azure_iot_sdk\iothub_client\src/iothub_client_authorization.c ****                 {
 348:Source\azure_iot_sdk\iothub_client\src/iothub_client_authorization.c ****                     LogError("failure getting credentials from device auth module");
 349:Source\azure_iot_sdk\iothub_client\src/iothub_client_authorization.c ****                     result = NULL;
 350:Source\azure_iot_sdk\iothub_client\src/iothub_client_authorization.c ****                 }
 351:Source\azure_iot_sdk\iothub_client\src/iothub_client_authorization.c ****                 else
 352:Source\azure_iot_sdk\iothub_client\src/iothub_client_authorization.c ****                 {
 353:Source\azure_iot_sdk\iothub_client\src/iothub_client_authorization.c ****                     if (mallocAndStrcpy_s(&result, cred_result->auth_cred_result.sas_result.sas_tok
 354:Source\azure_iot_sdk\iothub_client\src/iothub_client_authorization.c ****                     {
 355:Source\azure_iot_sdk\iothub_client\src/iothub_client_authorization.c ****                         LogError("failure allocating Sas Token");
 356:Source\azure_iot_sdk\iothub_client\src/iothub_client_authorization.c ****                         result = NULL;
 357:Source\azure_iot_sdk\iothub_client\src/iothub_client_authorization.c ****                     }
 358:Source\azure_iot_sdk\iothub_client\src/iothub_client_authorization.c ****                     free(cred_result);
 359:Source\azure_iot_sdk\iothub_client\src/iothub_client_authorization.c ****                 }
 360:Source\azure_iot_sdk\iothub_client\src/iothub_client_authorization.c ****             }
 361:Source\azure_iot_sdk\iothub_client\src/iothub_client_authorization.c **** #else
 362:Source\azure_iot_sdk\iothub_client\src/iothub_client_authorization.c ****             LogError("Failed HSM module is not supported");
 934              		.loc 1 362 0 discriminator 3
 935 003c FFF7FEFF 		bl	xlogging_get_log_function
 936              	.LVL140:
 937 0040 041E     		subs	r4, r0, #0
 938              	.LVL141:
 939 0042 0AD0     		beq	.L57
 940              		.loc 1 362 0 is_stmt 0 discriminator 4
 941 0044 5E4B     		ldr	r3, .L73+12
 942 0046 0193     		str	r3, [sp, #4]
 943 0048 0123     		movs	r3, #1
 944 004a 0093     		str	r3, [sp]
ARM GAS  C:\Users\Phuong\AppData\Local\Temp\ccVjqX8s.s 			page 24


 945 004c 6A33     		adds	r3, r3, #106
 946 004e FF33     		adds	r3, r3, #255
 947 0050 594A     		ldr	r2, .L73+4
 948 0052 2C32     		adds	r2, r2, #44
 949 0054 5949     		ldr	r1, .L73+8
 950 0056 0020     		movs	r0, #0
 951              	.LVL142:
 952 0058 A047     		blx	r4
 953              	.LVL143:
 954              	.L57:
 955              	.LBE16:
 363:Source\azure_iot_sdk\iothub_client\src/iothub_client_authorization.c ****             result = NULL;
 956              		.loc 1 363 0 is_stmt 1
 957 005a 0023     		movs	r3, #0
 958 005c 0593     		str	r3, [sp, #20]
 959 005e A5E0     		b	.L55
 960              	.LVL144:
 961              	.L56:
 364:Source\azure_iot_sdk\iothub_client\src/iothub_client_authorization.c **** #endif
 365:Source\azure_iot_sdk\iothub_client\src/iothub_client_authorization.c ****         }
 366:Source\azure_iot_sdk\iothub_client\src/iothub_client_authorization.c ****         else if (handle->cred_type == IOTHUB_CREDENTIAL_TYPE_SAS_TOKEN)
 962              		.loc 1 366 0
 963 0060 042B     		cmp	r3, #4
 964 0062 2CD1     		bne	.L58
 367:Source\azure_iot_sdk\iothub_client\src/iothub_client_authorization.c ****         {
 368:Source\azure_iot_sdk\iothub_client\src/iothub_client_authorization.c ****             /* Codes_SRS_IoTHub_Authorization_07_021: [If the device_sas_token is NOT NULL IoTHubCl
 369:Source\azure_iot_sdk\iothub_client\src/iothub_client_authorization.c ****             if (handle->device_sas_token != NULL)
 965              		.loc 1 369 0
 966 0064 0168     		ldr	r1, [r0]
 967              	.LVL145:
 968 0066 0029     		cmp	r1, #0
 969 0068 17D0     		beq	.L59
 370:Source\azure_iot_sdk\iothub_client\src/iothub_client_authorization.c ****             {
 371:Source\azure_iot_sdk\iothub_client\src/iothub_client_authorization.c ****                 if (mallocAndStrcpy_s(&result, handle->device_sas_token) != 0)
 970              		.loc 1 371 0
 971 006a 05A8     		add	r0, sp, #20
 972              	.LVL146:
 973 006c FFF7FEFF 		bl	mallocAndStrcpy_s
 974              	.LVL147:
 975 0070 0028     		cmp	r0, #0
 976 0072 00D1     		bne	.LCB1019
 977 0074 9AE0     		b	.L55	@long jump
 978              	.LCB1019:
 979              	.LBB17:
 372:Source\azure_iot_sdk\iothub_client\src/iothub_client_authorization.c ****                 {
 373:Source\azure_iot_sdk\iothub_client\src/iothub_client_authorization.c ****                     LogError("failure allocating sas token");
 980              		.loc 1 373 0 discriminator 3
 981 0076 FFF7FEFF 		bl	xlogging_get_log_function
 982              	.LVL148:
 983 007a 041E     		subs	r4, r0, #0
 984              	.LVL149:
 985 007c 0AD0     		beq	.L60
 986              		.loc 1 373 0 is_stmt 0 discriminator 4
 987 007e 514B     		ldr	r3, .L73+16
 988 0080 0193     		str	r3, [sp, #4]
 989 0082 0123     		movs	r3, #1
 990 0084 0093     		str	r3, [sp]
ARM GAS  C:\Users\Phuong\AppData\Local\Temp\ccVjqX8s.s 			page 25


 991 0086 7623     		movs	r3, #118
 992 0088 FF33     		adds	r3, r3, #255
 993 008a 4B4A     		ldr	r2, .L73+4
 994 008c 2C32     		adds	r2, r2, #44
 995 008e 4B49     		ldr	r1, .L73+8
 996 0090 0020     		movs	r0, #0
 997              	.LVL150:
 998 0092 A047     		blx	r4
 999              	.LVL151:
 1000              	.L60:
 1001              	.LBE17:
 374:Source\azure_iot_sdk\iothub_client\src/iothub_client_authorization.c ****                     result = NULL;
 1002              		.loc 1 374 0 is_stmt 1
 1003 0094 0023     		movs	r3, #0
 1004 0096 0593     		str	r3, [sp, #20]
 1005 0098 88E0     		b	.L55
 1006              	.LVL152:
 1007              	.L59:
 1008              	.LBB18:
 375:Source\azure_iot_sdk\iothub_client\src/iothub_client_authorization.c ****                 }
 376:Source\azure_iot_sdk\iothub_client\src/iothub_client_authorization.c ****             }
 377:Source\azure_iot_sdk\iothub_client\src/iothub_client_authorization.c ****             else
 378:Source\azure_iot_sdk\iothub_client\src/iothub_client_authorization.c ****             {
 379:Source\azure_iot_sdk\iothub_client\src/iothub_client_authorization.c ****                 LogError("failure device sas token is NULL");
 1009              		.loc 1 379 0 discriminator 3
 1010 009a FFF7FEFF 		bl	xlogging_get_log_function
 1011              	.LVL153:
 1012 009e 041E     		subs	r4, r0, #0
 1013              	.LVL154:
 1014 00a0 0AD0     		beq	.L61
 1015              		.loc 1 379 0 is_stmt 0 discriminator 4
 1016 00a2 494B     		ldr	r3, .L73+20
 1017 00a4 0193     		str	r3, [sp, #4]
 1018 00a6 0123     		movs	r3, #1
 1019 00a8 0093     		str	r3, [sp]
 1020 00aa 7C23     		movs	r3, #124
 1021 00ac FF33     		adds	r3, r3, #255
 1022 00ae 424A     		ldr	r2, .L73+4
 1023 00b0 2C32     		adds	r2, r2, #44
 1024 00b2 4249     		ldr	r1, .L73+8
 1025 00b4 0020     		movs	r0, #0
 1026              	.LVL155:
 1027 00b6 A047     		blx	r4
 1028              	.LVL156:
 1029              	.L61:
 1030              	.LBE18:
 380:Source\azure_iot_sdk\iothub_client\src/iothub_client_authorization.c ****                 result = NULL;
 1031              		.loc 1 380 0 is_stmt 1
 1032 00b8 0023     		movs	r3, #0
 1033 00ba 0593     		str	r3, [sp, #20]
 1034 00bc 76E0     		b	.L55
 1035              	.LVL157:
 1036              	.L58:
 381:Source\azure_iot_sdk\iothub_client\src/iothub_client_authorization.c ****             }
 382:Source\azure_iot_sdk\iothub_client\src/iothub_client_authorization.c ****         }
 383:Source\azure_iot_sdk\iothub_client\src/iothub_client_authorization.c ****         else if (handle->cred_type == IOTHUB_CREDENTIAL_TYPE_DEVICE_KEY)
 1037              		.loc 1 383 0
ARM GAS  C:\Users\Phuong\AppData\Local\Temp\ccVjqX8s.s 			page 26


 1038 00be 012B     		cmp	r3, #1
 1039 00c0 63D1     		bne	.L62
 384:Source\azure_iot_sdk\iothub_client\src/iothub_client_authorization.c ****         {
 385:Source\azure_iot_sdk\iothub_client\src/iothub_client_authorization.c ****             /* Codes_SRS_IoTHub_Authorization_07_009: [ if handle or scope are NULL, IoTHubClient_A
 386:Source\azure_iot_sdk\iothub_client\src/iothub_client_authorization.c ****             if (scope == NULL)
 1040              		.loc 1 386 0
 1041 00c2 0029     		cmp	r1, #0
 1042 00c4 12D1     		bne	.L63
 1043              	.LBB19:
 387:Source\azure_iot_sdk\iothub_client\src/iothub_client_authorization.c ****             {
 388:Source\azure_iot_sdk\iothub_client\src/iothub_client_authorization.c ****                 LogError("Invalid Parameter scope: %p", scope);
 1044              		.loc 1 388 0 discriminator 3
 1045 00c6 FFF7FEFF 		bl	xlogging_get_log_function
 1046              	.LVL158:
 1047 00ca 041E     		subs	r4, r0, #0
 1048              	.LVL159:
 1049 00cc 0BD0     		beq	.L64
 1050              		.loc 1 388 0 is_stmt 0 discriminator 4
 1051 00ce 0295     		str	r5, [sp, #8]
 1052 00d0 3E4B     		ldr	r3, .L73+24
 1053 00d2 0193     		str	r3, [sp, #4]
 1054 00d4 0123     		movs	r3, #1
 1055 00d6 0093     		str	r3, [sp]
 1056 00d8 8433     		adds	r3, r3, #132
 1057 00da FF33     		adds	r3, r3, #255
 1058 00dc 364A     		ldr	r2, .L73+4
 1059 00de 2C32     		adds	r2, r2, #44
 1060 00e0 3649     		ldr	r1, .L73+8
 1061 00e2 0020     		movs	r0, #0
 1062              	.LVL160:
 1063 00e4 A047     		blx	r4
 1064              	.LVL161:
 1065              	.L64:
 1066              	.LBE19:
 389:Source\azure_iot_sdk\iothub_client\src/iothub_client_authorization.c ****                 result = NULL;
 1067              		.loc 1 389 0 is_stmt 1
 1068 00e6 0023     		movs	r3, #0
 1069 00e8 0593     		str	r3, [sp, #20]
 1070 00ea 5FE0     		b	.L55
 1071              	.LVL162:
 1072              	.L63:
 1073              	.LBB20:
 390:Source\azure_iot_sdk\iothub_client\src/iothub_client_authorization.c ****             }
 391:Source\azure_iot_sdk\iothub_client\src/iothub_client_authorization.c ****             else
 392:Source\azure_iot_sdk\iothub_client\src/iothub_client_authorization.c ****             {
 393:Source\azure_iot_sdk\iothub_client\src/iothub_client_authorization.c ****                 STRING_HANDLE sas_token;
 394:Source\azure_iot_sdk\iothub_client\src/iothub_client_authorization.c ****                 size_t sec_since_epoch;
 395:Source\azure_iot_sdk\iothub_client\src/iothub_client_authorization.c **** 
 396:Source\azure_iot_sdk\iothub_client\src/iothub_client_authorization.c ****                 /* Codes_SRS_IoTHub_Authorization_07_010: [ IoTHubClient_Auth_Get_SasToken` shall c
 397:Source\azure_iot_sdk\iothub_client\src/iothub_client_authorization.c ****                 if (get_seconds_since_epoch(&sec_since_epoch) != 0)
 1074              		.loc 1 397 0
 1075 00ec 04A8     		add	r0, sp, #16
 1076              	.LVL163:
 1077 00ee FFF7FEFF 		bl	get_seconds_since_epoch
 1078              	.LVL164:
 1079 00f2 0028     		cmp	r0, #0
 1080 00f4 11D0     		beq	.L65
ARM GAS  C:\Users\Phuong\AppData\Local\Temp\ccVjqX8s.s 			page 27


 1081              	.LBB21:
 398:Source\azure_iot_sdk\iothub_client\src/iothub_client_authorization.c ****                 {
 399:Source\azure_iot_sdk\iothub_client\src/iothub_client_authorization.c ****                     /* Codes_SRS_IoTHub_Authorization_07_020: [ If any error is encountered IoTHubC
 400:Source\azure_iot_sdk\iothub_client\src/iothub_client_authorization.c ****                     LogError("failure getting seconds from epoch");
 1082              		.loc 1 400 0 discriminator 3
 1083 00f6 FFF7FEFF 		bl	xlogging_get_log_function
 1084              	.LVL165:
 1085 00fa 041E     		subs	r4, r0, #0
 1086              	.LVL166:
 1087 00fc 0AD0     		beq	.L66
 1088              		.loc 1 400 0 is_stmt 0 discriminator 4
 1089 00fe 344B     		ldr	r3, .L73+28
 1090 0100 0193     		str	r3, [sp, #4]
 1091 0102 0123     		movs	r3, #1
 1092 0104 0093     		str	r3, [sp]
 1093 0106 9033     		adds	r3, r3, #144
 1094 0108 FF33     		adds	r3, r3, #255
 1095 010a 2B4A     		ldr	r2, .L73+4
 1096 010c 2C32     		adds	r2, r2, #44
 1097 010e 2B49     		ldr	r1, .L73+8
 1098 0110 0020     		movs	r0, #0
 1099              	.LVL167:
 1100 0112 A047     		blx	r4
 1101              	.LVL168:
 1102              	.L66:
 1103              	.LBE21:
 401:Source\azure_iot_sdk\iothub_client\src/iothub_client_authorization.c ****                     result = NULL;
 1104              		.loc 1 401 0 is_stmt 1
 1105 0114 0023     		movs	r3, #0
 1106 0116 0593     		str	r3, [sp, #20]
 1107 0118 48E0     		b	.L55
 1108              	.LVL169:
 1109              	.L65:
 1110              	.LBB22:
 402:Source\azure_iot_sdk\iothub_client\src/iothub_client_authorization.c ****                 }
 403:Source\azure_iot_sdk\iothub_client\src/iothub_client_authorization.c ****                 else
 404:Source\azure_iot_sdk\iothub_client\src/iothub_client_authorization.c ****                 {
 405:Source\azure_iot_sdk\iothub_client\src/iothub_client_authorization.c ****                     /* Codes_SRS_IoTHub_Authorization_07_011: [ IoTHubClient_Auth_Get_ConnString sh
 406:Source\azure_iot_sdk\iothub_client\src/iothub_client_authorization.c ****                     size_t expiry_time = sec_since_epoch+expiry_time_relative_seconds;
 1111              		.loc 1 406 0
 1112 011a 049B     		ldr	r3, [sp, #16]
 1113 011c 9B19     		adds	r3, r3, r6
 1114              	.LVL170:
 407:Source\azure_iot_sdk\iothub_client\src/iothub_client_authorization.c ****                     if ( (sas_token = SASToken_CreateString(handle->device_key, scope, key_name, ex
 1115              		.loc 1 407 0
 1116 011e 6068     		ldr	r0, [r4, #4]
 1117 0120 3A00     		movs	r2, r7
 1118 0122 2900     		movs	r1, r5
 1119 0124 FFF7FEFF 		bl	SASToken_CreateString
 1120              	.LVL171:
 1121 0128 041E     		subs	r4, r0, #0
 1122              	.LVL172:
 1123 012a 11D1     		bne	.L68
 1124              	.LBB23:
 408:Source\azure_iot_sdk\iothub_client\src/iothub_client_authorization.c ****                     {
 409:Source\azure_iot_sdk\iothub_client\src/iothub_client_authorization.c ****                         /* Codes_SRS_IoTHub_Authorization_07_020: [ If any error is encountered IoT
 410:Source\azure_iot_sdk\iothub_client\src/iothub_client_authorization.c ****                         LogError("Failed creating sas_token");
ARM GAS  C:\Users\Phuong\AppData\Local\Temp\ccVjqX8s.s 			page 28


 1125              		.loc 1 410 0 discriminator 3
 1126 012c FFF7FEFF 		bl	xlogging_get_log_function
 1127              	.LVL173:
 1128 0130 041E     		subs	r4, r0, #0
 1129              	.LVL174:
 1130 0132 0AD0     		beq	.L69
 1131              		.loc 1 410 0 is_stmt 0 discriminator 4
 1132 0134 274B     		ldr	r3, .L73+32
 1133 0136 0193     		str	r3, [sp, #4]
 1134 0138 0123     		movs	r3, #1
 1135 013a 0093     		str	r3, [sp]
 1136 013c 9A33     		adds	r3, r3, #154
 1137 013e FF33     		adds	r3, r3, #255
 1138 0140 1D4A     		ldr	r2, .L73+4
 1139 0142 2C32     		adds	r2, r2, #44
 1140 0144 1D49     		ldr	r1, .L73+8
 1141 0146 0020     		movs	r0, #0
 1142              	.LVL175:
 1143 0148 A047     		blx	r4
 1144              	.LVL176:
 1145              	.L69:
 1146              	.LBE23:
 411:Source\azure_iot_sdk\iothub_client\src/iothub_client_authorization.c ****                         result = NULL;
 1147              		.loc 1 411 0 is_stmt 1
 1148 014a 0023     		movs	r3, #0
 1149 014c 0593     		str	r3, [sp, #20]
 1150 014e 2DE0     		b	.L55
 1151              	.LVL177:
 1152              	.L68:
 412:Source\azure_iot_sdk\iothub_client\src/iothub_client_authorization.c ****                     }
 413:Source\azure_iot_sdk\iothub_client\src/iothub_client_authorization.c ****                     else
 414:Source\azure_iot_sdk\iothub_client\src/iothub_client_authorization.c ****                     {
 415:Source\azure_iot_sdk\iothub_client\src/iothub_client_authorization.c ****                         /* Codes_SRS_IoTHub_Authorization_07_012: [ On success IoTHubClient_Auth_Ge
 416:Source\azure_iot_sdk\iothub_client\src/iothub_client_authorization.c ****                         if (mallocAndStrcpy_s(&result, STRING_c_str(sas_token) ) != 0)
 1153              		.loc 1 416 0
 1154 0150 FFF7FEFF 		bl	STRING_c_str
 1155              	.LVL178:
 1156 0154 0100     		movs	r1, r0
 1157 0156 05A8     		add	r0, sp, #20
 1158 0158 FFF7FEFF 		bl	mallocAndStrcpy_s
 1159              	.LVL179:
 1160 015c 0028     		cmp	r0, #0
 1161 015e 10D0     		beq	.L70
 1162              	.LBB24:
 417:Source\azure_iot_sdk\iothub_client\src/iothub_client_authorization.c ****                         {
 418:Source\azure_iot_sdk\iothub_client\src/iothub_client_authorization.c ****                             /* Codes_SRS_IoTHub_Authorization_07_020: [ If any error is encountered
 419:Source\azure_iot_sdk\iothub_client\src/iothub_client_authorization.c ****                             LogError("Failed copying result");
 1163              		.loc 1 419 0 discriminator 3
 1164 0160 FFF7FEFF 		bl	xlogging_get_log_function
 1165              	.LVL180:
 1166 0164 051E     		subs	r5, r0, #0
 1167              	.LVL181:
 1168 0166 0AD0     		beq	.L71
 1169              		.loc 1 419 0 is_stmt 0 discriminator 4
 1170 0168 1B4B     		ldr	r3, .L73+36
 1171 016a 0193     		str	r3, [sp, #4]
 1172 016c 0123     		movs	r3, #1
ARM GAS  C:\Users\Phuong\AppData\Local\Temp\ccVjqX8s.s 			page 29


 1173 016e 0093     		str	r3, [sp]
 1174 0170 A423     		movs	r3, #164
 1175 0172 FF33     		adds	r3, r3, #255
 1176 0174 104A     		ldr	r2, .L73+4
 1177 0176 2C32     		adds	r2, r2, #44
 1178 0178 1049     		ldr	r1, .L73+8
 1179 017a 0020     		movs	r0, #0
 1180              	.LVL182:
 1181 017c A847     		blx	r5
 1182              	.LVL183:
 1183              	.L71:
 1184              	.LBE24:
 420:Source\azure_iot_sdk\iothub_client\src/iothub_client_authorization.c ****                             result = NULL;
 1185              		.loc 1 420 0 is_stmt 1
 1186 017e 0023     		movs	r3, #0
 1187 0180 0593     		str	r3, [sp, #20]
 1188              	.LVL184:
 1189              	.L70:
 421:Source\azure_iot_sdk\iothub_client\src/iothub_client_authorization.c ****                         }
 422:Source\azure_iot_sdk\iothub_client\src/iothub_client_authorization.c ****                         STRING_delete(sas_token);
 1190              		.loc 1 422 0
 1191 0182 2000     		movs	r0, r4
 1192 0184 FFF7FEFF 		bl	STRING_delete
 1193              	.LVL185:
 1194 0188 10E0     		b	.L55
 1195              	.LVL186:
 1196              	.L62:
 1197              	.LBE22:
 1198              	.LBE20:
 1199              	.LBB25:
 423:Source\azure_iot_sdk\iothub_client\src/iothub_client_authorization.c ****                     }
 424:Source\azure_iot_sdk\iothub_client\src/iothub_client_authorization.c ****                 }
 425:Source\azure_iot_sdk\iothub_client\src/iothub_client_authorization.c ****             }
 426:Source\azure_iot_sdk\iothub_client\src/iothub_client_authorization.c ****         }
 427:Source\azure_iot_sdk\iothub_client\src/iothub_client_authorization.c ****         else
 428:Source\azure_iot_sdk\iothub_client\src/iothub_client_authorization.c ****         {
 429:Source\azure_iot_sdk\iothub_client\src/iothub_client_authorization.c ****             LogError("Failed getting sas token invalid credential type");
 1200              		.loc 1 429 0 discriminator 3
 1201 018a FFF7FEFF 		bl	xlogging_get_log_function
 1202              	.LVL187:
 1203 018e 041E     		subs	r4, r0, #0
 1204              	.LVL188:
 1205 0190 0AD0     		beq	.L72
 1206              		.loc 1 429 0 is_stmt 0 discriminator 4
 1207 0192 124B     		ldr	r3, .L73+40
 1208 0194 0193     		str	r3, [sp, #4]
 1209 0196 0123     		movs	r3, #1
 1210 0198 0093     		str	r3, [sp]
 1211 019a AE23     		movs	r3, #174
 1212 019c FF33     		adds	r3, r3, #255
 1213 019e 064A     		ldr	r2, .L73+4
 1214 01a0 2C32     		adds	r2, r2, #44
 1215 01a2 0649     		ldr	r1, .L73+8
 1216 01a4 0020     		movs	r0, #0
 1217              	.LVL189:
 1218 01a6 A047     		blx	r4
 1219              	.LVL190:
ARM GAS  C:\Users\Phuong\AppData\Local\Temp\ccVjqX8s.s 			page 30


 1220              	.L72:
 1221              	.LBE25:
 430:Source\azure_iot_sdk\iothub_client\src/iothub_client_authorization.c ****             result = NULL;
 1222              		.loc 1 430 0 is_stmt 1
 1223 01a8 0023     		movs	r3, #0
 1224 01aa 0593     		str	r3, [sp, #20]
 1225              	.LVL191:
 1226              	.L55:
 431:Source\azure_iot_sdk\iothub_client\src/iothub_client_authorization.c ****         }
 432:Source\azure_iot_sdk\iothub_client\src/iothub_client_authorization.c ****     }
 433:Source\azure_iot_sdk\iothub_client\src/iothub_client_authorization.c ****     return result;
 434:Source\azure_iot_sdk\iothub_client\src/iothub_client_authorization.c **** }
 1227              		.loc 1 434 0
 1228 01ac 0598     		ldr	r0, [sp, #20]
 1229 01ae 07B0     		add	sp, sp, #28
 1230              		@ sp needed
 1231              	.LVL192:
 1232              	.LVL193:
 1233 01b0 F0BD     		pop	{r4, r5, r6, r7, pc}
 1234              	.L74:
 1235 01b2 C046     		.align	2
 1236              	.L73:
 1237 01b4 84010000 		.word	.LC29
 1238 01b8 80000000 		.word	.LANCHOR1
 1239 01bc 00000000 		.word	.LC1
 1240 01c0 0C010000 		.word	.LC18
 1241 01c4 A4010000 		.word	.LC35
 1242 01c8 C4010000 		.word	.LC37
 1243 01cc E8010000 		.word	.LC39
 1244 01d0 04020000 		.word	.LC41
 1245 01d4 28020000 		.word	.LC43
 1246 01d8 44020000 		.word	.LC45
 1247 01dc 5C020000 		.word	.LC47
 1248              		.cfi_endproc
 1249              	.LFE8:
 1250              		.size	IoTHubClient_Auth_Get_SasToken, .-IoTHubClient_Auth_Get_SasToken
 1251              		.section	.text.IoTHubClient_Auth_Get_DeviceId,"ax",%progbits
 1252              		.align	2
 1253              		.global	IoTHubClient_Auth_Get_DeviceId
 1254              		.code	16
 1255              		.thumb_func
 1256              		.type	IoTHubClient_Auth_Get_DeviceId, %function
 1257              	IoTHubClient_Auth_Get_DeviceId:
 1258              	.LFB9:
 435:Source\azure_iot_sdk\iothub_client\src/iothub_client_authorization.c **** 
 436:Source\azure_iot_sdk\iothub_client\src/iothub_client_authorization.c **** const char* IoTHubClient_Auth_Get_DeviceId(IOTHUB_AUTHORIZATION_HANDLE handle)
 437:Source\azure_iot_sdk\iothub_client\src/iothub_client_authorization.c **** {
 1259              		.loc 1 437 0
 1260              		.cfi_startproc
 1261              		@ args = 0, pretend = 0, frame = 0
 1262              		@ frame_needed = 0, uses_anonymous_args = 0
 1263              	.LVL194:
 1264 0000 30B5     		push	{r4, r5, lr}
 1265              		.cfi_def_cfa_offset 12
 1266              		.cfi_offset 4, -12
 1267              		.cfi_offset 5, -8
 1268              		.cfi_offset 14, -4
ARM GAS  C:\Users\Phuong\AppData\Local\Temp\ccVjqX8s.s 			page 31


 1269 0002 85B0     		sub	sp, sp, #20
 1270              		.cfi_def_cfa_offset 32
 1271 0004 041E     		subs	r4, r0, #0
 438:Source\azure_iot_sdk\iothub_client\src/iothub_client_authorization.c ****     const char* result;
 439:Source\azure_iot_sdk\iothub_client\src/iothub_client_authorization.c ****     if (handle == NULL)
 1272              		.loc 1 439 0
 1273 0006 11D1     		bne	.L76
 1274              	.LBB26:
 440:Source\azure_iot_sdk\iothub_client\src/iothub_client_authorization.c ****     {
 441:Source\azure_iot_sdk\iothub_client\src/iothub_client_authorization.c ****         /* Codes_SRS_IoTHub_Authorization_07_013: [ if handle is NULL, IoTHubClient_Auth_Get_Device
 442:Source\azure_iot_sdk\iothub_client\src/iothub_client_authorization.c ****         LogError("Invalid Parameter handle: %p", handle);
 1275              		.loc 1 442 0 discriminator 3
 1276 0008 FFF7FEFF 		bl	xlogging_get_log_function
 1277              	.LVL195:
 1278 000c 051E     		subs	r5, r0, #0
 1279              	.LVL196:
 1280 000e 0FD0     		beq	.L78
 1281              		.loc 1 442 0 is_stmt 0 discriminator 4
 1282 0010 0294     		str	r4, [sp, #8]
 1283 0012 094B     		ldr	r3, .L79
 1284 0014 0193     		str	r3, [sp, #4]
 1285 0016 0123     		movs	r3, #1
 1286 0018 0093     		str	r3, [sp]
 1287 001a BA33     		adds	r3, r3, #186
 1288 001c FF33     		adds	r3, r3, #255
 1289 001e 074A     		ldr	r2, .L79+4
 1290 0020 4C32     		adds	r2, r2, #76
 1291 0022 0749     		ldr	r1, .L79+8
 1292 0024 0020     		movs	r0, #0
 1293              	.LVL197:
 1294 0026 A847     		blx	r5
 1295              	.LVL198:
 1296              	.LBE26:
 443:Source\azure_iot_sdk\iothub_client\src/iothub_client_authorization.c ****         result = NULL;
 1297              		.loc 1 443 0 is_stmt 1 discriminator 4
 1298 0028 0020     		movs	r0, #0
 1299 002a 02E0     		b	.L77
 1300              	.LVL199:
 1301              	.L76:
 444:Source\azure_iot_sdk\iothub_client\src/iothub_client_authorization.c ****     }
 445:Source\azure_iot_sdk\iothub_client\src/iothub_client_authorization.c ****     else
 446:Source\azure_iot_sdk\iothub_client\src/iothub_client_authorization.c ****     {
 447:Source\azure_iot_sdk\iothub_client\src/iothub_client_authorization.c ****         /* Codes_SRS_IoTHub_Authorization_07_014: [ IoTHubClient_Auth_Get_DeviceId shall return the
 448:Source\azure_iot_sdk\iothub_client\src/iothub_client_authorization.c ****         result = handle->device_id;
 1302              		.loc 1 448 0
 1303 002c 8068     		ldr	r0, [r0, #8]
 1304              	.LVL200:
 1305 002e 00E0     		b	.L77
 1306              	.LVL201:
 1307              	.L78:
 443:Source\azure_iot_sdk\iothub_client\src/iothub_client_authorization.c ****         result = NULL;
 1308              		.loc 1 443 0
 1309 0030 0020     		movs	r0, #0
 1310              	.LVL202:
 1311              	.L77:
 449:Source\azure_iot_sdk\iothub_client\src/iothub_client_authorization.c ****     }
 450:Source\azure_iot_sdk\iothub_client\src/iothub_client_authorization.c ****     return result;
ARM GAS  C:\Users\Phuong\AppData\Local\Temp\ccVjqX8s.s 			page 32


 451:Source\azure_iot_sdk\iothub_client\src/iothub_client_authorization.c **** }
 1312              		.loc 1 451 0
 1313 0032 05B0     		add	sp, sp, #20
 1314              		@ sp needed
 1315              	.LVL203:
 1316 0034 30BD     		pop	{r4, r5, pc}
 1317              	.L80:
 1318 0036 C046     		.align	2
 1319              	.L79:
 1320 0038 84010000 		.word	.LC29
 1321 003c 80000000 		.word	.LANCHOR1
 1322 0040 00000000 		.word	.LC1
 1323              		.cfi_endproc
 1324              	.LFE9:
 1325              		.size	IoTHubClient_Auth_Get_DeviceId, .-IoTHubClient_Auth_Get_DeviceId
 1326              		.section	.text.IoTHubClient_Auth_Get_ModuleId,"ax",%progbits
 1327              		.align	2
 1328              		.global	IoTHubClient_Auth_Get_ModuleId
 1329              		.code	16
 1330              		.thumb_func
 1331              		.type	IoTHubClient_Auth_Get_ModuleId, %function
 1332              	IoTHubClient_Auth_Get_ModuleId:
 1333              	.LFB10:
 452:Source\azure_iot_sdk\iothub_client\src/iothub_client_authorization.c **** 
 453:Source\azure_iot_sdk\iothub_client\src/iothub_client_authorization.c **** const char* IoTHubClient_Auth_Get_ModuleId(IOTHUB_AUTHORIZATION_HANDLE handle)
 454:Source\azure_iot_sdk\iothub_client\src/iothub_client_authorization.c **** {
 1334              		.loc 1 454 0
 1335              		.cfi_startproc
 1336              		@ args = 0, pretend = 0, frame = 0
 1337              		@ frame_needed = 0, uses_anonymous_args = 0
 1338              	.LVL204:
 1339 0000 30B5     		push	{r4, r5, lr}
 1340              		.cfi_def_cfa_offset 12
 1341              		.cfi_offset 4, -12
 1342              		.cfi_offset 5, -8
 1343              		.cfi_offset 14, -4
 1344 0002 85B0     		sub	sp, sp, #20
 1345              		.cfi_def_cfa_offset 32
 1346 0004 041E     		subs	r4, r0, #0
 455:Source\azure_iot_sdk\iothub_client\src/iothub_client_authorization.c ****     const char* result;
 456:Source\azure_iot_sdk\iothub_client\src/iothub_client_authorization.c ****     if (handle == NULL)
 1347              		.loc 1 456 0
 1348 0006 11D1     		bne	.L82
 1349              	.LBB27:
 457:Source\azure_iot_sdk\iothub_client\src/iothub_client_authorization.c ****     {
 458:Source\azure_iot_sdk\iothub_client\src/iothub_client_authorization.c ****         /* Codes_SRS_IoTHub_Authorization_31_025: [ if handle is NULL, IoTHubClient_Auth_Get_Module
 459:Source\azure_iot_sdk\iothub_client\src/iothub_client_authorization.c ****         LogError("Invalid Parameter handle: %p", handle);
 1350              		.loc 1 459 0 discriminator 3
 1351 0008 FFF7FEFF 		bl	xlogging_get_log_function
 1352              	.LVL205:
 1353 000c 051E     		subs	r5, r0, #0
 1354              	.LVL206:
 1355 000e 0FD0     		beq	.L84
 1356              		.loc 1 459 0 is_stmt 0 discriminator 4
 1357 0010 0294     		str	r4, [sp, #8]
 1358 0012 094B     		ldr	r3, .L85
 1359 0014 0193     		str	r3, [sp, #4]
ARM GAS  C:\Users\Phuong\AppData\Local\Temp\ccVjqX8s.s 			page 33


 1360 0016 0123     		movs	r3, #1
 1361 0018 0093     		str	r3, [sp]
 1362 001a CC23     		movs	r3, #204
 1363 001c FF33     		adds	r3, r3, #255
 1364 001e 074A     		ldr	r2, .L85+4
 1365 0020 6C32     		adds	r2, r2, #108
 1366 0022 0749     		ldr	r1, .L85+8
 1367 0024 0020     		movs	r0, #0
 1368              	.LVL207:
 1369 0026 A847     		blx	r5
 1370              	.LVL208:
 1371              	.LBE27:
 460:Source\azure_iot_sdk\iothub_client\src/iothub_client_authorization.c ****         result = NULL;
 1372              		.loc 1 460 0 is_stmt 1 discriminator 4
 1373 0028 0020     		movs	r0, #0
 1374 002a 02E0     		b	.L83
 1375              	.LVL209:
 1376              	.L82:
 461:Source\azure_iot_sdk\iothub_client\src/iothub_client_authorization.c ****     }
 462:Source\azure_iot_sdk\iothub_client\src/iothub_client_authorization.c ****     else
 463:Source\azure_iot_sdk\iothub_client\src/iothub_client_authorization.c ****     {
 464:Source\azure_iot_sdk\iothub_client\src/iothub_client_authorization.c ****         /* Codes_SRS_IoTHub_Authorization_31_026: [ IoTHubClient_Auth_Get_ModuleId shall return the
 465:Source\azure_iot_sdk\iothub_client\src/iothub_client_authorization.c ****         result = handle->module_id;
 1377              		.loc 1 465 0
 1378 002c C068     		ldr	r0, [r0, #12]
 1379              	.LVL210:
 1380 002e 00E0     		b	.L83
 1381              	.LVL211:
 1382              	.L84:
 460:Source\azure_iot_sdk\iothub_client\src/iothub_client_authorization.c ****         result = NULL;
 1383              		.loc 1 460 0
 1384 0030 0020     		movs	r0, #0
 1385              	.LVL212:
 1386              	.L83:
 466:Source\azure_iot_sdk\iothub_client\src/iothub_client_authorization.c ****     }
 467:Source\azure_iot_sdk\iothub_client\src/iothub_client_authorization.c ****     return result;
 468:Source\azure_iot_sdk\iothub_client\src/iothub_client_authorization.c **** }
 1387              		.loc 1 468 0
 1388 0032 05B0     		add	sp, sp, #20
 1389              		@ sp needed
 1390              	.LVL213:
 1391 0034 30BD     		pop	{r4, r5, pc}
 1392              	.L86:
 1393 0036 C046     		.align	2
 1394              	.L85:
 1395 0038 84010000 		.word	.LC29
 1396 003c 80000000 		.word	.LANCHOR1
 1397 0040 00000000 		.word	.LC1
 1398              		.cfi_endproc
 1399              	.LFE10:
 1400              		.size	IoTHubClient_Auth_Get_ModuleId, .-IoTHubClient_Auth_Get_ModuleId
 1401              		.section	.text.IoTHubClient_Auth_Get_DeviceKey,"ax",%progbits
 1402              		.align	2
 1403              		.global	IoTHubClient_Auth_Get_DeviceKey
 1404              		.code	16
 1405              		.thumb_func
 1406              		.type	IoTHubClient_Auth_Get_DeviceKey, %function
ARM GAS  C:\Users\Phuong\AppData\Local\Temp\ccVjqX8s.s 			page 34


 1407              	IoTHubClient_Auth_Get_DeviceKey:
 1408              	.LFB11:
 469:Source\azure_iot_sdk\iothub_client\src/iothub_client_authorization.c **** 
 470:Source\azure_iot_sdk\iothub_client\src/iothub_client_authorization.c **** const char* IoTHubClient_Auth_Get_DeviceKey(IOTHUB_AUTHORIZATION_HANDLE handle)
 471:Source\azure_iot_sdk\iothub_client\src/iothub_client_authorization.c **** {
 1409              		.loc 1 471 0
 1410              		.cfi_startproc
 1411              		@ args = 0, pretend = 0, frame = 0
 1412              		@ frame_needed = 0, uses_anonymous_args = 0
 1413              	.LVL214:
 1414 0000 30B5     		push	{r4, r5, lr}
 1415              		.cfi_def_cfa_offset 12
 1416              		.cfi_offset 4, -12
 1417              		.cfi_offset 5, -8
 1418              		.cfi_offset 14, -4
 1419 0002 85B0     		sub	sp, sp, #20
 1420              		.cfi_def_cfa_offset 32
 1421 0004 041E     		subs	r4, r0, #0
 472:Source\azure_iot_sdk\iothub_client\src/iothub_client_authorization.c ****     const char* result;
 473:Source\azure_iot_sdk\iothub_client\src/iothub_client_authorization.c ****     if (handle == NULL)
 1422              		.loc 1 473 0
 1423 0006 11D1     		bne	.L88
 1424              	.LBB28:
 474:Source\azure_iot_sdk\iothub_client\src/iothub_client_authorization.c ****     {
 475:Source\azure_iot_sdk\iothub_client\src/iothub_client_authorization.c ****         /* Codes_SRS_IoTHub_Authorization_07_022: [ if handle is NULL, IoTHubClient_Auth_Get_Device
 476:Source\azure_iot_sdk\iothub_client\src/iothub_client_authorization.c ****         LogError("Invalid Parameter handle: %p", handle);
 1425              		.loc 1 476 0 discriminator 3
 1426 0008 FFF7FEFF 		bl	xlogging_get_log_function
 1427              	.LVL215:
 1428 000c 051E     		subs	r5, r0, #0
 1429              	.LVL216:
 1430 000e 0FD0     		beq	.L90
 1431              		.loc 1 476 0 is_stmt 0 discriminator 4
 1432 0010 0294     		str	r4, [sp, #8]
 1433 0012 094B     		ldr	r3, .L91
 1434 0014 0193     		str	r3, [sp, #4]
 1435 0016 0123     		movs	r3, #1
 1436 0018 0093     		str	r3, [sp]
 1437 001a DC33     		adds	r3, r3, #220
 1438 001c FF33     		adds	r3, r3, #255
 1439 001e 074A     		ldr	r2, .L91+4
 1440 0020 0C32     		adds	r2, r2, #12
 1441 0022 0749     		ldr	r1, .L91+8
 1442 0024 0020     		movs	r0, #0
 1443              	.LVL217:
 1444 0026 A847     		blx	r5
 1445              	.LVL218:
 1446              	.LBE28:
 477:Source\azure_iot_sdk\iothub_client\src/iothub_client_authorization.c ****         result = NULL;
 1447              		.loc 1 477 0 is_stmt 1 discriminator 4
 1448 0028 0020     		movs	r0, #0
 1449 002a 02E0     		b	.L89
 1450              	.LVL219:
 1451              	.L88:
 478:Source\azure_iot_sdk\iothub_client\src/iothub_client_authorization.c ****     }
 479:Source\azure_iot_sdk\iothub_client\src/iothub_client_authorization.c ****     else
 480:Source\azure_iot_sdk\iothub_client\src/iothub_client_authorization.c ****     {
ARM GAS  C:\Users\Phuong\AppData\Local\Temp\ccVjqX8s.s 			page 35


 481:Source\azure_iot_sdk\iothub_client\src/iothub_client_authorization.c ****         /* Codes_SRS_IoTHub_Authorization_07_023: [ IoTHubClient_Auth_Get_DeviceKey shall return th
 482:Source\azure_iot_sdk\iothub_client\src/iothub_client_authorization.c ****         result = handle->device_key;
 1452              		.loc 1 482 0
 1453 002c 4068     		ldr	r0, [r0, #4]
 1454              	.LVL220:
 1455 002e 00E0     		b	.L89
 1456              	.LVL221:
 1457              	.L90:
 477:Source\azure_iot_sdk\iothub_client\src/iothub_client_authorization.c ****         result = NULL;
 1458              		.loc 1 477 0
 1459 0030 0020     		movs	r0, #0
 1460              	.LVL222:
 1461              	.L89:
 483:Source\azure_iot_sdk\iothub_client\src/iothub_client_authorization.c ****     }
 484:Source\azure_iot_sdk\iothub_client\src/iothub_client_authorization.c ****     return result;
 485:Source\azure_iot_sdk\iothub_client\src/iothub_client_authorization.c **** }
 1462              		.loc 1 485 0
 1463 0032 05B0     		add	sp, sp, #20
 1464              		@ sp needed
 1465              	.LVL223:
 1466 0034 30BD     		pop	{r4, r5, pc}
 1467              	.L92:
 1468 0036 C046     		.align	2
 1469              	.L91:
 1470 0038 84010000 		.word	.LC29
 1471 003c 00010000 		.word	.LANCHOR2
 1472 0040 00000000 		.word	.LC1
 1473              		.cfi_endproc
 1474              	.LFE11:
 1475              		.size	IoTHubClient_Auth_Get_DeviceKey, .-IoTHubClient_Auth_Get_DeviceKey
 1476              		.section	.text.IoTHubClient_Auth_Is_SasToken_Valid,"ax",%progbits
 1477              		.align	2
 1478              		.global	IoTHubClient_Auth_Is_SasToken_Valid
 1479              		.code	16
 1480              		.thumb_func
 1481              		.type	IoTHubClient_Auth_Is_SasToken_Valid, %function
 1482              	IoTHubClient_Auth_Is_SasToken_Valid:
 1483              	.LFB12:
 486:Source\azure_iot_sdk\iothub_client\src/iothub_client_authorization.c **** 
 487:Source\azure_iot_sdk\iothub_client\src/iothub_client_authorization.c **** SAS_TOKEN_STATUS IoTHubClient_Auth_Is_SasToken_Valid(IOTHUB_AUTHORIZATION_HANDLE handle)
 488:Source\azure_iot_sdk\iothub_client\src/iothub_client_authorization.c **** {
 1484              		.loc 1 488 0
 1485              		.cfi_startproc
 1486              		@ args = 0, pretend = 0, frame = 0
 1487              		@ frame_needed = 0, uses_anonymous_args = 0
 1488              	.LVL224:
 1489 0000 30B5     		push	{r4, r5, lr}
 1490              		.cfi_def_cfa_offset 12
 1491              		.cfi_offset 4, -12
 1492              		.cfi_offset 5, -8
 1493              		.cfi_offset 14, -4
 1494 0002 85B0     		sub	sp, sp, #20
 1495              		.cfi_def_cfa_offset 32
 1496 0004 041E     		subs	r4, r0, #0
 489:Source\azure_iot_sdk\iothub_client\src/iothub_client_authorization.c ****     SAS_TOKEN_STATUS result;
 490:Source\azure_iot_sdk\iothub_client\src/iothub_client_authorization.c ****     if (handle == NULL)
 1497              		.loc 1 490 0
ARM GAS  C:\Users\Phuong\AppData\Local\Temp\ccVjqX8s.s 			page 36


 1498 0006 10D1     		bne	.L94
 1499              	.LBB29:
 491:Source\azure_iot_sdk\iothub_client\src/iothub_client_authorization.c ****     {
 492:Source\azure_iot_sdk\iothub_client\src/iothub_client_authorization.c ****         /* Codes_SRS_IoTHub_Authorization_07_015: [ if handle is NULL, IoTHubClient_Auth_Is_SasToke
 493:Source\azure_iot_sdk\iothub_client\src/iothub_client_authorization.c ****         LogError("Invalid Parameter handle: %p", handle);
 1500              		.loc 1 493 0 discriminator 3
 1501 0008 FFF7FEFF 		bl	xlogging_get_log_function
 1502              	.LVL225:
 1503 000c 051E     		subs	r5, r0, #0
 1504              	.LVL226:
 1505 000e 43D0     		beq	.L99
 1506              		.loc 1 493 0 is_stmt 0 discriminator 4
 1507 0010 0294     		str	r4, [sp, #8]
 1508 0012 264B     		ldr	r3, .L104
 1509 0014 0193     		str	r3, [sp, #4]
 1510 0016 0123     		movs	r3, #1
 1511 0018 0093     		str	r3, [sp]
 1512 001a EE23     		movs	r3, #238
 1513 001c FF33     		adds	r3, r3, #255
 1514 001e 244A     		ldr	r2, .L104+4
 1515 0020 2C32     		adds	r2, r2, #44
 1516 0022 2449     		ldr	r1, .L104+8
 1517 0024 0020     		movs	r0, #0
 1518              	.LVL227:
 1519 0026 A847     		blx	r5
 1520              	.LVL228:
 1521 0028 3DE0     		b	.L95
 1522              	.LVL229:
 1523              	.L94:
 1524              	.LBE29:
 494:Source\azure_iot_sdk\iothub_client\src/iothub_client_authorization.c ****         result = SAS_TOKEN_STATUS_FAILED;
 495:Source\azure_iot_sdk\iothub_client\src/iothub_client_authorization.c ****     }
 496:Source\azure_iot_sdk\iothub_client\src/iothub_client_authorization.c ****     else
 497:Source\azure_iot_sdk\iothub_client\src/iothub_client_authorization.c ****     {
 498:Source\azure_iot_sdk\iothub_client\src/iothub_client_authorization.c ****         if (handle->cred_type == IOTHUB_CREDENTIAL_TYPE_SAS_TOKEN)
 1525              		.loc 1 498 0 is_stmt 1
 1526 002a 037D     		ldrb	r3, [r0, #20]
 1527 002c 042B     		cmp	r3, #4
 1528 002e 35D1     		bne	.L100
 499:Source\azure_iot_sdk\iothub_client\src/iothub_client_authorization.c ****         {
 500:Source\azure_iot_sdk\iothub_client\src/iothub_client_authorization.c ****             if (handle->device_sas_token == NULL)
 1529              		.loc 1 500 0
 1530 0030 0068     		ldr	r0, [r0]
 1531              	.LVL230:
 1532 0032 0028     		cmp	r0, #0
 1533 0034 10D1     		bne	.L96
 1534              	.LBB30:
 501:Source\azure_iot_sdk\iothub_client\src/iothub_client_authorization.c ****             {
 502:Source\azure_iot_sdk\iothub_client\src/iothub_client_authorization.c ****                 /* Codes_SRS_IoTHub_Authorization_07_017: [ If the sas_token is NULL IoTHubClient_A
 503:Source\azure_iot_sdk\iothub_client\src/iothub_client_authorization.c ****                 LogError("Failure: device_sas_toke is NULL");
 1535              		.loc 1 503 0 discriminator 3
 1536 0036 FFF7FEFF 		bl	xlogging_get_log_function
 1537              	.LVL231:
 1538 003a 041E     		subs	r4, r0, #0
 1539              	.LVL232:
 1540 003c 30D0     		beq	.L101
 1541              		.loc 1 503 0 is_stmt 0 discriminator 4
ARM GAS  C:\Users\Phuong\AppData\Local\Temp\ccVjqX8s.s 			page 37


 1542 003e 1E4B     		ldr	r3, .L104+12
 1543 0040 0193     		str	r3, [sp, #4]
 1544 0042 0123     		movs	r3, #1
 1545 0044 0093     		str	r3, [sp]
 1546 0046 F823     		movs	r3, #248
 1547 0048 FF33     		adds	r3, r3, #255
 1548 004a 194A     		ldr	r2, .L104+4
 1549 004c 2C32     		adds	r2, r2, #44
 1550 004e 1949     		ldr	r1, .L104+8
 1551 0050 0020     		movs	r0, #0
 1552              	.LVL233:
 1553 0052 A047     		blx	r4
 1554              	.LVL234:
 1555              	.LBE30:
 504:Source\azure_iot_sdk\iothub_client\src/iothub_client_authorization.c ****                 result = SAS_TOKEN_STATUS_FAILED;
 1556              		.loc 1 504 0 is_stmt 1 discriminator 4
 1557 0054 0024     		movs	r4, #0
 1558              	.LVL235:
 1559 0056 26E0     		b	.L95
 1560              	.LVL236:
 1561              	.L96:
 1562              	.LBB31:
 505:Source\azure_iot_sdk\iothub_client\src/iothub_client_authorization.c ****             }
 506:Source\azure_iot_sdk\iothub_client\src/iothub_client_authorization.c ****             else
 507:Source\azure_iot_sdk\iothub_client\src/iothub_client_authorization.c ****             {
 508:Source\azure_iot_sdk\iothub_client\src/iothub_client_authorization.c ****                 /* Codes_SRS_IoTHub_Authorization_07_018: [ otherwise IoTHubClient_Auth_Is_SasToken
 509:Source\azure_iot_sdk\iothub_client\src/iothub_client_authorization.c ****                 STRING_HANDLE strSasToken = STRING_construct(handle->device_sas_token);
 1563              		.loc 1 509 0
 1564 0058 FFF7FEFF 		bl	STRING_construct
 1565              	.LVL237:
 1566 005c 051E     		subs	r5, r0, #0
 1567              	.LVL238:
 510:Source\azure_iot_sdk\iothub_client\src/iothub_client_authorization.c ****                 if (strSasToken != NULL)
 1568              		.loc 1 510 0
 1569 005e 0AD0     		beq	.L97
 511:Source\azure_iot_sdk\iothub_client\src/iothub_client_authorization.c ****                 {
 512:Source\azure_iot_sdk\iothub_client\src/iothub_client_authorization.c ****                     if (!SASToken_Validate(strSasToken))
 1570              		.loc 1 512 0
 1571 0060 FFF7FEFF 		bl	SASToken_Validate
 1572              	.LVL239:
 1573 0064 0028     		cmp	r0, #0
 1574 0066 01D1     		bne	.L102
 513:Source\azure_iot_sdk\iothub_client\src/iothub_client_authorization.c ****                     {
 514:Source\azure_iot_sdk\iothub_client\src/iothub_client_authorization.c ****                         result = SAS_TOKEN_STATUS_INVALID;
 1575              		.loc 1 514 0
 1576 0068 0224     		movs	r4, #2
 1577              	.LVL240:
 1578 006a 00E0     		b	.L98
 1579              	.LVL241:
 1580              	.L102:
 515:Source\azure_iot_sdk\iothub_client\src/iothub_client_authorization.c ****                     }
 516:Source\azure_iot_sdk\iothub_client\src/iothub_client_authorization.c ****                     else
 517:Source\azure_iot_sdk\iothub_client\src/iothub_client_authorization.c ****                     {
 518:Source\azure_iot_sdk\iothub_client\src/iothub_client_authorization.c ****                         result = SAS_TOKEN_STATUS_VALID;
 1581              		.loc 1 518 0
 1582 006c 0124     		movs	r4, #1
 1583              	.LVL242:
ARM GAS  C:\Users\Phuong\AppData\Local\Temp\ccVjqX8s.s 			page 38


 1584              	.L98:
 519:Source\azure_iot_sdk\iothub_client\src/iothub_client_authorization.c ****                     }
 520:Source\azure_iot_sdk\iothub_client\src/iothub_client_authorization.c ****                     STRING_delete(strSasToken);
 1585              		.loc 1 520 0
 1586 006e 2800     		movs	r0, r5
 1587 0070 FFF7FEFF 		bl	STRING_delete
 1588              	.LVL243:
 1589 0074 17E0     		b	.L95
 1590              	.LVL244:
 1591              	.L97:
 1592              	.LBB32:
 521:Source\azure_iot_sdk\iothub_client\src/iothub_client_authorization.c ****                 }
 522:Source\azure_iot_sdk\iothub_client\src/iothub_client_authorization.c ****                 else
 523:Source\azure_iot_sdk\iothub_client\src/iothub_client_authorization.c ****                 {
 524:Source\azure_iot_sdk\iothub_client\src/iothub_client_authorization.c ****                     LogError("Failure constructing SAS Token");
 1593              		.loc 1 524 0 discriminator 3
 1594 0076 FFF7FEFF 		bl	xlogging_get_log_function
 1595              	.LVL245:
 1596 007a 041E     		subs	r4, r0, #0
 1597              	.LVL246:
 1598 007c 12D0     		beq	.L103
 1599              		.loc 1 524 0 is_stmt 0 discriminator 4
 1600 007e 0F4B     		ldr	r3, .L104+16
 1601 0080 0193     		str	r3, [sp, #4]
 1602 0082 0123     		movs	r3, #1
 1603 0084 0093     		str	r3, [sp]
 1604 0086 8323     		movs	r3, #131
 1605 0088 9B00     		lsls	r3, r3, #2
 1606 008a 094A     		ldr	r2, .L104+4
 1607 008c 2C32     		adds	r2, r2, #44
 1608 008e 0949     		ldr	r1, .L104+8
 1609 0090 0020     		movs	r0, #0
 1610              	.LVL247:
 1611 0092 A047     		blx	r4
 1612              	.LVL248:
 1613              	.LBE32:
 525:Source\azure_iot_sdk\iothub_client\src/iothub_client_authorization.c ****                     result = SAS_TOKEN_STATUS_FAILED;
 1614              		.loc 1 525 0 is_stmt 1 discriminator 4
 1615 0094 0024     		movs	r4, #0
 1616              	.LVL249:
 1617 0096 06E0     		b	.L95
 1618              	.LVL250:
 1619              	.L99:
 1620              	.LBE31:
 494:Source\azure_iot_sdk\iothub_client\src/iothub_client_authorization.c ****     }
 1621              		.loc 1 494 0
 1622 0098 0024     		movs	r4, #0
 1623              	.LVL251:
 1624 009a 04E0     		b	.L95
 1625              	.LVL252:
 1626              	.L100:
 526:Source\azure_iot_sdk\iothub_client\src/iothub_client_authorization.c ****                 }
 527:Source\azure_iot_sdk\iothub_client\src/iothub_client_authorization.c ****             }
 528:Source\azure_iot_sdk\iothub_client\src/iothub_client_authorization.c ****         }
 529:Source\azure_iot_sdk\iothub_client\src/iothub_client_authorization.c ****         else
 530:Source\azure_iot_sdk\iothub_client\src/iothub_client_authorization.c ****         {
 531:Source\azure_iot_sdk\iothub_client\src/iothub_client_authorization.c ****             /* Codes_SRS_IoTHub_Authorization_07_016: [ if credential type is not IOTHUB_CREDENTIAL
ARM GAS  C:\Users\Phuong\AppData\Local\Temp\ccVjqX8s.s 			page 39


 532:Source\azure_iot_sdk\iothub_client\src/iothub_client_authorization.c ****             result = SAS_TOKEN_STATUS_VALID;
 1627              		.loc 1 532 0
 1628 009c 0124     		movs	r4, #1
 1629 009e 02E0     		b	.L95
 1630              	.LVL253:
 1631              	.L101:
 504:Source\azure_iot_sdk\iothub_client\src/iothub_client_authorization.c ****             }
 1632              		.loc 1 504 0
 1633 00a0 0024     		movs	r4, #0
 1634 00a2 00E0     		b	.L95
 1635              	.LVL254:
 1636              	.L103:
 1637              	.LBB33:
 525:Source\azure_iot_sdk\iothub_client\src/iothub_client_authorization.c ****                 }
 1638              		.loc 1 525 0
 1639 00a4 0024     		movs	r4, #0
 1640              	.LVL255:
 1641              	.L95:
 1642              	.LBE33:
 533:Source\azure_iot_sdk\iothub_client\src/iothub_client_authorization.c ****         }
 534:Source\azure_iot_sdk\iothub_client\src/iothub_client_authorization.c ****     }
 535:Source\azure_iot_sdk\iothub_client\src/iothub_client_authorization.c ****     return result;
 536:Source\azure_iot_sdk\iothub_client\src/iothub_client_authorization.c **** }
 1643              		.loc 1 536 0
 1644 00a6 2000     		movs	r0, r4
 1645 00a8 05B0     		add	sp, sp, #20
 1646              		@ sp needed
 1647              	.LVL256:
 1648 00aa 30BD     		pop	{r4, r5, pc}
 1649              	.L105:
 1650              		.align	2
 1651              	.L104:
 1652 00ac 84010000 		.word	.LC29
 1653 00b0 00010000 		.word	.LANCHOR2
 1654 00b4 00000000 		.word	.LC1
 1655 00b8 90020000 		.word	.LC61
 1656 00bc B4020000 		.word	.LC63
 1657              		.cfi_endproc
 1658              	.LFE12:
 1659              		.size	IoTHubClient_Auth_Is_SasToken_Valid, .-IoTHubClient_Auth_Is_SasToken_Valid
 1660              		.section	.rodata
 1661              		.align	2
 1662              		.set	.LANCHOR0,. + 0
 1663              		.set	.LANCHOR1,. + 128
 1664              		.set	.LANCHOR2,. + 256
 1665              		.type	__func__.6182, %object
 1666              		.size	__func__.6182, 24
 1667              	__func__.6182:
 1668 0000 6765745F 		.ascii	"get_seconds_since_epoch\000"
 1668      7365636F 
 1668      6E64735F 
 1668      73696E63 
 1668      655F6570 
 1669              		.type	__func__.6193, %object
 1670              		.size	__func__.6193, 25
 1671              	__func__.6193:
 1672 0018 496F5448 		.ascii	"IoTHubClient_Auth_Create\000"
ARM GAS  C:\Users\Phuong\AppData\Local\Temp\ccVjqX8s.s 			page 40


 1672      7562436C 
 1672      69656E74 
 1672      5F417574 
 1672      685F4372 
 1673 0031 000000   		.space	3
 1674              		.type	__func__.6217, %object
 1675              		.size	__func__.6217, 39
 1676              	__func__.6217:
 1677 0034 496F5448 		.ascii	"IoTHubClient_Auth_CreateFromDeviceAuth\000"
 1677      7562436C 
 1677      69656E74 
 1677      5F417574 
 1677      685F4372 
 1678 005b 00       		.space	1
 1679              		.type	__func__.6237, %object
 1680              		.size	__func__.6237, 38
 1681              	__func__.6237:
 1682 005c 496F5448 		.ascii	"IoTHubClient_Auth_Set_xio_Certificate\000"
 1682      7562436C 
 1682      69656E74 
 1682      5F417574 
 1682      685F5365 
 1683 0082 0000     		.space	2
 1684              		.type	__func__.6251, %object
 1685              		.size	__func__.6251, 38
 1686              	__func__.6251:
 1687 0084 496F5448 		.ascii	"IoTHubClient_Auth_Get_Credential_Type\000"
 1687      7562436C 
 1687      69656E74 
 1687      5F417574 
 1687      685F4765 
 1688 00aa 0000     		.space	2
 1689              		.type	__func__.6262, %object
 1690              		.size	__func__.6262, 31
 1691              	__func__.6262:
 1692 00ac 496F5448 		.ascii	"IoTHubClient_Auth_Get_SasToken\000"
 1692      7562436C 
 1692      69656E74 
 1692      5F417574 
 1692      685F4765 
 1693 00cb 00       		.space	1
 1694              		.type	__func__.6297, %object
 1695              		.size	__func__.6297, 31
 1696              	__func__.6297:
 1697 00cc 496F5448 		.ascii	"IoTHubClient_Auth_Get_DeviceId\000"
 1697      7562436C 
 1697      69656E74 
 1697      5F417574 
 1697      685F4765 
 1698 00eb 00       		.space	1
 1699              		.type	__func__.6305, %object
 1700              		.size	__func__.6305, 31
 1701              	__func__.6305:
 1702 00ec 496F5448 		.ascii	"IoTHubClient_Auth_Get_ModuleId\000"
 1702      7562436C 
 1702      69656E74 
 1702      5F417574 
ARM GAS  C:\Users\Phuong\AppData\Local\Temp\ccVjqX8s.s 			page 41


 1702      685F4765 
 1703 010b 00       		.space	1
 1704              		.type	__func__.6313, %object
 1705              		.size	__func__.6313, 32
 1706              	__func__.6313:
 1707 010c 496F5448 		.ascii	"IoTHubClient_Auth_Get_DeviceKey\000"
 1707      7562436C 
 1707      69656E74 
 1707      5F417574 
 1707      685F4765 
 1708              		.type	__func__.6321, %object
 1709              		.size	__func__.6321, 36
 1710              	__func__.6321:
 1711 012c 496F5448 		.ascii	"IoTHubClient_Auth_Is_SasToken_Valid\000"
 1711      7562436C 
 1711      69656E74 
 1711      5F417574 
 1711      685F4973 
 1712              		.section	.rodata.str1.4,"aMS",%progbits,1
 1713              		.align	2
 1714              	.LC1:
 1715 0000 536F7572 		.ascii	"Source\\azure_iot_sdk\\iothub_client\\src\\iothub_c"
 1715      63655C61 
 1715      7A757265 
 1715      5F696F74 
 1715      5F73646B 
 1716 002f 6C69656E 		.ascii	"lient_authorization.c\000"
 1716      745F6175 
 1716      74686F72 
 1716      697A6174 
 1716      696F6E2E 
 1717 0045 000000   		.space	3
 1718              	.LC3:
 1719 0048 4661696C 		.ascii	"Failed getting the current local time (get_time() f"
 1719      65642067 
 1719      65747469 
 1719      6E672074 
 1719      68652063 
 1720 007b 61696C65 		.ascii	"ailed)\000"
 1720      642900
 1721 0082 0000     		.space	2
 1722              	.LC7:
 1723 0084 496E7661 		.ascii	"Invalid Parameter device_id: %p\000"
 1723      6C696420 
 1723      50617261 
 1723      6D657465 
 1723      72206465 
 1724              	.LC9:
 1725 00a4 4661696C 		.ascii	"Failed allocating IOTHUB_AUTHORIZATION_DATA\000"
 1725      65642061 
 1725      6C6C6F63 
 1725      6174696E 
 1725      6720494F 
 1726              	.LC11:
 1727 00d0 4661696C 		.ascii	"Failed allocating device_key\000"
 1727      65642061 
 1727      6C6C6F63 
ARM GAS  C:\Users\Phuong\AppData\Local\Temp\ccVjqX8s.s 			page 42


 1727      6174696E 
 1727      67206465 
 1728 00ed 000000   		.space	3
 1729              	.LC13:
 1730 00f0 4661696C 		.ascii	"Failed allocating module_id\000"
 1730      65642061 
 1730      6C6C6F63 
 1730      6174696E 
 1730      67206D6F 
 1731              	.LC18:
 1732 010c 4661696C 		.ascii	"Failed HSM module is not supported\000"
 1732      65642048 
 1732      534D206D 
 1732      6F64756C 
 1732      65206973 
 1733 012f 00       		.space	1
 1734              	.LC22:
 1735 0130 496E7661 		.ascii	"Invalid Parameter handle: %p xio: %p\000"
 1735      6C696420 
 1735      50617261 
 1735      6D657465 
 1735      72206861 
 1736 0155 000000   		.space	3
 1737              	.LC24:
 1738 0158 496E7661 		.ascii	"Invalid credential types for this operation\000"
 1738      6C696420 
 1738      63726564 
 1738      656E7469 
 1738      616C2074 
 1739              	.LC29:
 1740 0184 496E7661 		.ascii	"Invalid Parameter handle: %p\000"
 1740      6C696420 
 1740      50617261 
 1740      6D657465 
 1740      72206861 
 1741 01a1 000000   		.space	3
 1742              	.LC35:
 1743 01a4 6661696C 		.ascii	"failure allocating sas token\000"
 1743      75726520 
 1743      616C6C6F 
 1743      63617469 
 1743      6E672073 
 1744 01c1 000000   		.space	3
 1745              	.LC37:
 1746 01c4 6661696C 		.ascii	"failure device sas token is NULL\000"
 1746      75726520 
 1746      64657669 
 1746      63652073 
 1746      61732074 
 1747 01e5 000000   		.space	3
 1748              	.LC39:
 1749 01e8 496E7661 		.ascii	"Invalid Parameter scope: %p\000"
 1749      6C696420 
 1749      50617261 
 1749      6D657465 
 1749      72207363 
 1750              	.LC41:
ARM GAS  C:\Users\Phuong\AppData\Local\Temp\ccVjqX8s.s 			page 43


 1751 0204 6661696C 		.ascii	"failure getting seconds from epoch\000"
 1751      75726520 
 1751      67657474 
 1751      696E6720 
 1751      7365636F 
 1752 0227 00       		.space	1
 1753              	.LC43:
 1754 0228 4661696C 		.ascii	"Failed creating sas_token\000"
 1754      65642063 
 1754      72656174 
 1754      696E6720 
 1754      7361735F 
 1755 0242 0000     		.space	2
 1756              	.LC45:
 1757 0244 4661696C 		.ascii	"Failed copying result\000"
 1757      65642063 
 1757      6F707969 
 1757      6E672072 
 1757      6573756C 
 1758 025a 0000     		.space	2
 1759              	.LC47:
 1760 025c 4661696C 		.ascii	"Failed getting sas token invalid credential type\000"
 1760      65642067 
 1760      65747469 
 1760      6E672073 
 1760      61732074 
 1761 028d 000000   		.space	3
 1762              	.LC61:
 1763 0290 4661696C 		.ascii	"Failure: device_sas_toke is NULL\000"
 1763      7572653A 
 1763      20646576 
 1763      6963655F 
 1763      7361735F 
 1764 02b1 000000   		.space	3
 1765              	.LC63:
 1766 02b4 4661696C 		.ascii	"Failure constructing SAS Token\000"
 1766      75726520 
 1766      636F6E73 
 1766      74727563 
 1766      74696E67 
 1767              		.text
 1768              	.Letext0:
 1769              		.file 2 "c:\\program files (x86)\\cypress\\psoc creator\\4.2\\psoc creator\\import\\gnu\\arm\\5.4.
 1770              		.file 3 "c:\\program files (x86)\\cypress\\psoc creator\\4.2\\psoc creator\\import\\gnu\\arm\\5.4.
 1771              		.file 4 ".\\Source\\azure_iot_sdk\\c-utility\\inc/azure_c_shared_utility/xlogging.h"
 1772              		.file 5 ".\\Source\\azure_iot_sdk\\c-utility\\inc/azure_c_shared_utility/strings_types.h"
 1773              		.file 6 ".\\Source\\azure_iot_sdk\\c-utility\\inc/azure_c_shared_utility/xio.h"
 1774              		.file 7 ".\\Source\\azure_iot_sdk\\iothub_client\\inc/internal/iothub_client_authorization.h"
 1775              		.file 8 ".\\Source\\azure_iot_sdk\\c-utility\\inc/azure_c_shared_utility/shared_util_options.h"
 1776              		.file 9 ".\\Source\\azure_iot_sdk\\c-utility\\inc/azure_c_shared_utility/agenttime.h"
 1777              		.file 10 "c:\\program files (x86)\\cypress\\psoc creator\\4.2\\psoc creator\\import\\gnu\\arm\\5.4
 1778              		.file 11 ".\\Source\\azure_iot_sdk\\c-utility\\inc/azure_c_shared_utility/crt_abstractions.h"
 1779              		.file 12 ".\\Source\\azure_iot_sdk\\c-utility\\inc/azure_c_shared_utility/sastoken.h"
 1780              		.file 13 ".\\Source\\azure_iot_sdk\\c-utility\\inc/azure_c_shared_utility/strings.h"
 1781              		.section	.debug_info,"",%progbits
 1782              	.Ldebug_info0:
 1783 0000 56160000 		.4byte	0x1656
ARM GAS  C:\Users\Phuong\AppData\Local\Temp\ccVjqX8s.s 			page 44


 1784 0004 0400     		.2byte	0x4
 1785 0006 00000000 		.4byte	.Ldebug_abbrev0
 1786 000a 04       		.byte	0x4
 1787 000b 01       		.uleb128 0x1
 1788 000c 56010000 		.4byte	.LASF98
 1789 0010 0C       		.byte	0xc
 1790 0011 B4040000 		.4byte	.LASF99
 1791 0015 0B050000 		.4byte	.LASF100
 1792 0019 18000000 		.4byte	.Ldebug_ranges0+0x18
 1793 001d 00000000 		.4byte	0
 1794 0021 00000000 		.4byte	.Ldebug_line0
 1795 0025 02       		.uleb128 0x2
 1796 0026 15010000 		.4byte	.LASF12
 1797 002a 02       		.byte	0x2
 1798 002b D8       		.byte	0xd8
 1799 002c 30000000 		.4byte	0x30
 1800 0030 03       		.uleb128 0x3
 1801 0031 04       		.byte	0x4
 1802 0032 07       		.byte	0x7
 1803 0033 E7050000 		.4byte	.LASF0
 1804 0037 04       		.uleb128 0x4
 1805 0038 04       		.byte	0x4
 1806 0039 05       		.byte	0x5
 1807 003a 696E7400 		.ascii	"int\000"
 1808 003e 03       		.uleb128 0x3
 1809 003f 08       		.byte	0x8
 1810 0040 05       		.byte	0x5
 1811 0041 5E030000 		.4byte	.LASF1
 1812 0045 03       		.uleb128 0x3
 1813 0046 08       		.byte	0x8
 1814 0047 04       		.byte	0x4
 1815 0048 9D040000 		.4byte	.LASF2
 1816 004c 03       		.uleb128 0x3
 1817 004d 01       		.byte	0x1
 1818 004e 06       		.byte	0x6
 1819 004f B0050000 		.4byte	.LASF3
 1820 0053 03       		.uleb128 0x3
 1821 0054 01       		.byte	0x1
 1822 0055 08       		.byte	0x8
 1823 0056 2E040000 		.4byte	.LASF4
 1824 005a 03       		.uleb128 0x3
 1825 005b 02       		.byte	0x2
 1826 005c 05       		.byte	0x5
 1827 005d 0B010000 		.4byte	.LASF5
 1828 0061 03       		.uleb128 0x3
 1829 0062 02       		.byte	0x2
 1830 0063 07       		.byte	0x7
 1831 0064 B0060000 		.4byte	.LASF6
 1832 0068 03       		.uleb128 0x3
 1833 0069 04       		.byte	0x4
 1834 006a 05       		.byte	0x5
 1835 006b D4030000 		.4byte	.LASF7
 1836 006f 03       		.uleb128 0x3
 1837 0070 04       		.byte	0x4
 1838 0071 07       		.byte	0x7
 1839 0072 58070000 		.4byte	.LASF8
 1840 0076 03       		.uleb128 0x3
ARM GAS  C:\Users\Phuong\AppData\Local\Temp\ccVjqX8s.s 			page 45


 1841 0077 08       		.byte	0x8
 1842 0078 07       		.byte	0x7
 1843 0079 BC050000 		.4byte	.LASF9
 1844 007d 03       		.uleb128 0x3
 1845 007e 04       		.byte	0x4
 1846 007f 07       		.byte	0x7
 1847 0080 E8010000 		.4byte	.LASF10
 1848 0084 05       		.uleb128 0x5
 1849 0085 04       		.byte	0x4
 1850 0086 8A000000 		.4byte	0x8a
 1851 008a 03       		.uleb128 0x3
 1852 008b 01       		.byte	0x1
 1853 008c 08       		.byte	0x8
 1854 008d 89060000 		.4byte	.LASF11
 1855 0091 05       		.uleb128 0x5
 1856 0092 04       		.byte	0x4
 1857 0093 97000000 		.4byte	0x97
 1858 0097 06       		.uleb128 0x6
 1859 0098 8A000000 		.4byte	0x8a
 1860 009c 02       		.uleb128 0x2
 1861 009d 7B020000 		.4byte	.LASF13
 1862 00a1 03       		.byte	0x3
 1863 00a2 28       		.byte	0x28
 1864 00a3 68000000 		.4byte	0x68
 1865 00a7 07       		.uleb128 0x7
 1866 00a8 F1010000 		.4byte	.LASF30
 1867 00ac 01       		.byte	0x1
 1868 00ad 53000000 		.4byte	0x53
 1869 00b1 04       		.byte	0x4
 1870 00b2 22       		.byte	0x22
 1871 00b3 CA000000 		.4byte	0xca
 1872 00b7 08       		.uleb128 0x8
 1873 00b8 23010000 		.4byte	.LASF14
 1874 00bc 00       		.byte	0
 1875 00bd 08       		.uleb128 0x8
 1876 00be 4C070000 		.4byte	.LASF15
 1877 00c2 01       		.byte	0x1
 1878 00c3 08       		.uleb128 0x8
 1879 00c4 FE000000 		.4byte	.LASF16
 1880 00c8 02       		.byte	0x2
 1881 00c9 00       		.byte	0
 1882 00ca 02       		.uleb128 0x2
 1883 00cb 58060000 		.4byte	.LASF17
 1884 00cf 04       		.byte	0x4
 1885 00d0 27       		.byte	0x27
 1886 00d1 A7000000 		.4byte	0xa7
 1887 00d5 02       		.uleb128 0x2
 1888 00d6 18090000 		.4byte	.LASF18
 1889 00da 04       		.byte	0x4
 1890 00db 2F       		.byte	0x2f
 1891 00dc E0000000 		.4byte	0xe0
 1892 00e0 05       		.uleb128 0x5
 1893 00e1 04       		.byte	0x4
 1894 00e2 E6000000 		.4byte	0xe6
 1895 00e6 09       		.uleb128 0x9
 1896 00e7 0B010000 		.4byte	0x10b
 1897 00eb 0A       		.uleb128 0xa
ARM GAS  C:\Users\Phuong\AppData\Local\Temp\ccVjqX8s.s 			page 46


 1898 00ec CA000000 		.4byte	0xca
 1899 00f0 0A       		.uleb128 0xa
 1900 00f1 91000000 		.4byte	0x91
 1901 00f5 0A       		.uleb128 0xa
 1902 00f6 91000000 		.4byte	0x91
 1903 00fa 0A       		.uleb128 0xa
 1904 00fb 37000000 		.4byte	0x37
 1905 00ff 0A       		.uleb128 0xa
 1906 0100 30000000 		.4byte	0x30
 1907 0104 0A       		.uleb128 0xa
 1908 0105 91000000 		.4byte	0x91
 1909 0109 0B       		.uleb128 0xb
 1910 010a 00       		.byte	0
 1911 010b 02       		.uleb128 0x2
 1912 010c 45000000 		.4byte	.LASF19
 1913 0110 05       		.byte	0x5
 1914 0111 07       		.byte	0x7
 1915 0112 16010000 		.4byte	0x116
 1916 0116 05       		.uleb128 0x5
 1917 0117 04       		.byte	0x4
 1918 0118 1C010000 		.4byte	0x11c
 1919 011c 0C       		.uleb128 0xc
 1920 011d 86070000 		.4byte	.LASF21
 1921 0121 02       		.uleb128 0x2
 1922 0122 44060000 		.4byte	.LASF20
 1923 0126 06       		.byte	0x6
 1924 0127 13       		.byte	0x13
 1925 0128 2C010000 		.4byte	0x12c
 1926 012c 05       		.uleb128 0x5
 1927 012d 04       		.byte	0x4
 1928 012e 32010000 		.4byte	0x132
 1929 0132 0C       		.uleb128 0xc
 1930 0133 9A020000 		.4byte	.LASF22
 1931 0137 02       		.uleb128 0x2
 1932 0138 39080000 		.4byte	.LASF23
 1933 013c 07       		.byte	0x7
 1934 013d 11       		.byte	0x11
 1935 013e 42010000 		.4byte	0x142
 1936 0142 05       		.uleb128 0x5
 1937 0143 04       		.byte	0x4
 1938 0144 48010000 		.4byte	0x148
 1939 0148 0D       		.uleb128 0xd
 1940 0149 C9080000 		.4byte	.LASF101
 1941 014d 18       		.byte	0x18
 1942 014e 01       		.byte	0x1
 1943 014f 18       		.byte	0x18
 1944 0150 9D010000 		.4byte	0x19d
 1945 0154 0E       		.uleb128 0xe
 1946 0155 9F060000 		.4byte	.LASF24
 1947 0159 01       		.byte	0x1
 1948 015a 1A       		.byte	0x1a
 1949 015b 84000000 		.4byte	0x84
 1950 015f 00       		.byte	0
 1951 0160 0E       		.uleb128 0xe
 1952 0161 A9040000 		.4byte	.LASF25
 1953 0165 01       		.byte	0x1
 1954 0166 1B       		.byte	0x1b
ARM GAS  C:\Users\Phuong\AppData\Local\Temp\ccVjqX8s.s 			page 47


 1955 0167 84000000 		.4byte	0x84
 1956 016b 04       		.byte	0x4
 1957 016c 0E       		.uleb128 0xe
 1958 016d 8F000000 		.4byte	.LASF26
 1959 0171 01       		.byte	0x1
 1960 0172 1C       		.byte	0x1c
 1961 0173 84000000 		.4byte	0x84
 1962 0177 08       		.byte	0x8
 1963 0178 0E       		.uleb128 0xe
 1964 0179 30010000 		.4byte	.LASF27
 1965 017d 01       		.byte	0x1
 1966 017e 1D       		.byte	0x1d
 1967 017f 84000000 		.4byte	0x84
 1968 0183 0C       		.byte	0xc
 1969 0184 0E       		.uleb128 0xe
 1970 0185 18040000 		.4byte	.LASF28
 1971 0189 01       		.byte	0x1
 1972 018a 1E       		.byte	0x1e
 1973 018b 25000000 		.4byte	0x25
 1974 018f 10       		.byte	0x10
 1975 0190 0E       		.uleb128 0xe
 1976 0191 CE070000 		.4byte	.LASF29
 1977 0195 01       		.byte	0x1
 1978 0196 1F       		.byte	0x1f
 1979 0197 D2010000 		.4byte	0x1d2
 1980 019b 14       		.byte	0x14
 1981 019c 00       		.byte	0
 1982 019d 07       		.uleb128 0x7
 1983 019e 00000000 		.4byte	.LASF31
 1984 01a2 01       		.byte	0x1
 1985 01a3 53000000 		.4byte	0x53
 1986 01a7 07       		.byte	0x7
 1987 01a8 1C       		.byte	0x1c
 1988 01a9 D2010000 		.4byte	0x1d2
 1989 01ad 08       		.uleb128 0x8
 1990 01ae 99000000 		.4byte	.LASF32
 1991 01b2 00       		.byte	0
 1992 01b3 08       		.uleb128 0x8
 1993 01b4 7B040000 		.4byte	.LASF33
 1994 01b8 01       		.byte	0x1
 1995 01b9 08       		.uleb128 0x8
 1996 01ba 3A010000 		.4byte	.LASF34
 1997 01be 02       		.byte	0x2
 1998 01bf 08       		.uleb128 0x8
 1999 01c0 0A060000 		.4byte	.LASF35
 2000 01c4 03       		.byte	0x3
 2001 01c5 08       		.uleb128 0x8
 2002 01c6 02020000 		.4byte	.LASF36
 2003 01ca 04       		.byte	0x4
 2004 01cb 08       		.uleb128 0x8
 2005 01cc AB070000 		.4byte	.LASF37
 2006 01d0 05       		.byte	0x5
 2007 01d1 00       		.byte	0
 2008 01d2 02       		.uleb128 0x2
 2009 01d3 37020000 		.4byte	.LASF38
 2010 01d7 07       		.byte	0x7
 2011 01d8 1C       		.byte	0x1c
ARM GAS  C:\Users\Phuong\AppData\Local\Temp\ccVjqX8s.s 			page 48


 2012 01d9 9D010000 		.4byte	0x19d
 2013 01dd 07       		.uleb128 0x7
 2014 01de C6020000 		.4byte	.LASF39
 2015 01e2 01       		.byte	0x1
 2016 01e3 53000000 		.4byte	0x53
 2017 01e7 07       		.byte	0x7
 2018 01e8 23       		.byte	0x23
 2019 01e9 00020000 		.4byte	0x200
 2020 01ed 08       		.uleb128 0x8
 2021 01ee 15030000 		.4byte	.LASF40
 2022 01f2 00       		.byte	0
 2023 01f3 08       		.uleb128 0x8
 2024 01f4 E7080000 		.4byte	.LASF41
 2025 01f8 01       		.byte	0x1
 2026 01f9 08       		.uleb128 0x8
 2027 01fa 32030000 		.4byte	.LASF42
 2028 01fe 02       		.byte	0x2
 2029 01ff 00       		.byte	0
 2030 0200 02       		.uleb128 0x2
 2031 0201 8E060000 		.4byte	.LASF43
 2032 0205 07       		.byte	0x7
 2033 0206 23       		.byte	0x23
 2034 0207 DD010000 		.4byte	0x1dd
 2035 020b 02       		.uleb128 0x2
 2036 020c 05070000 		.4byte	.LASF44
 2037 0210 01       		.byte	0x1
 2038 0211 23       		.byte	0x23
 2039 0212 48010000 		.4byte	0x148
 2040 0216 0F       		.uleb128 0xf
 2041 0217 82020000 		.4byte	.LASF102
 2042 021b 01       		.byte	0x1
 2043 021c 25       		.byte	0x25
 2044 021d 37000000 		.4byte	0x37
 2045 0221 00000000 		.4byte	.LFB1
 2046 0225 50000000 		.4byte	.LFE1-.LFB1
 2047 0229 01       		.uleb128 0x1
 2048 022a 9C       		.byte	0x9c
 2049 022b E8020000 		.4byte	0x2e8
 2050 022f 10       		.uleb128 0x10
 2051 0230 81060000 		.4byte	.LASF47
 2052 0234 01       		.byte	0x1
 2053 0235 25       		.byte	0x25
 2054 0236 E8020000 		.4byte	0x2e8
 2055 023a 00000000 		.4byte	.LLST0
 2056 023e 11       		.uleb128 0x11
 2057 023f 3E000000 		.4byte	.LASF45
 2058 0243 01       		.byte	0x1
 2059 0244 27       		.byte	0x27
 2060 0245 37000000 		.4byte	0x37
 2061 0249 45000000 		.4byte	.LLST1
 2062 024d 11       		.uleb128 0x11
 2063 024e F1000000 		.4byte	.LASF46
 2064 0252 01       		.byte	0x1
 2065 0253 28       		.byte	0x28
 2066 0254 9C000000 		.4byte	0x9c
 2067 0258 64000000 		.4byte	.LLST2
 2068 025c 12       		.uleb128 0x12
ARM GAS  C:\Users\Phuong\AppData\Local\Temp\ccVjqX8s.s 			page 49


 2069 025d 4F060000 		.4byte	.LASF48
 2070 0261 FE020000 		.4byte	0x2fe
 2071 0265 05       		.uleb128 0x5
 2072 0266 03       		.byte	0x3
 2073 0267 00000000 		.4byte	__func__.6182
 2074 026b 13       		.uleb128 0x13
 2075 026c 10000000 		.4byte	.LBB2
 2076 0270 1A000000 		.4byte	.LBE2-.LBB2
 2077 0274 C5020000 		.4byte	0x2c5
 2078 0278 14       		.uleb128 0x14
 2079 0279 6C00     		.ascii	"l\000"
 2080 027b 01       		.byte	0x1
 2081 027c 2B       		.byte	0x2b
 2082 027d D5000000 		.4byte	0xd5
 2083 0281 82000000 		.4byte	.LLST3
 2084 0285 15       		.uleb128 0x15
 2085 0286 14000000 		.4byte	.LVL3
 2086 028a 6C140000 		.4byte	0x146c
 2087 028e 16       		.uleb128 0x16
 2088 028f 2A000000 		.4byte	.LVL6
 2089 0293 02       		.uleb128 0x2
 2090 0294 74       		.byte	0x74
 2091 0295 00       		.sleb128 0
 2092 0296 17       		.uleb128 0x17
 2093 0297 01       		.uleb128 0x1
 2094 0298 50       		.byte	0x50
 2095 0299 01       		.uleb128 0x1
 2096 029a 30       		.byte	0x30
 2097 029b 17       		.uleb128 0x17
 2098 029c 01       		.uleb128 0x1
 2099 029d 51       		.byte	0x51
 2100 029e 05       		.uleb128 0x5
 2101 029f 03       		.byte	0x3
 2102 02a0 00000000 		.4byte	.LC1
 2103 02a4 17       		.uleb128 0x17
 2104 02a5 01       		.uleb128 0x1
 2105 02a6 52       		.byte	0x52
 2106 02a7 05       		.uleb128 0x5
 2107 02a8 03       		.byte	0x3
 2108 02a9 00000000 		.4byte	.LANCHOR0
 2109 02ad 17       		.uleb128 0x17
 2110 02ae 01       		.uleb128 0x1
 2111 02af 53       		.byte	0x53
 2112 02b0 02       		.uleb128 0x2
 2113 02b1 08       		.byte	0x8
 2114 02b2 2B       		.byte	0x2b
 2115 02b3 17       		.uleb128 0x17
 2116 02b4 02       		.uleb128 0x2
 2117 02b5 7D       		.byte	0x7d
 2118 02b6 00       		.sleb128 0
 2119 02b7 01       		.uleb128 0x1
 2120 02b8 31       		.byte	0x31
 2121 02b9 17       		.uleb128 0x17
 2122 02ba 02       		.uleb128 0x2
 2123 02bb 7D       		.byte	0x7d
 2124 02bc 04       		.sleb128 4
 2125 02bd 05       		.uleb128 0x5
ARM GAS  C:\Users\Phuong\AppData\Local\Temp\ccVjqX8s.s 			page 50


 2126 02be 03       		.byte	0x3
 2127 02bf 48000000 		.4byte	.LC3
 2128 02c3 00       		.byte	0
 2129 02c4 00       		.byte	0
 2130 02c5 18       		.uleb128 0x18
 2131 02c6 0C000000 		.4byte	.LVL2
 2132 02ca 77140000 		.4byte	0x1477
 2133 02ce D8020000 		.4byte	0x2d8
 2134 02d2 17       		.uleb128 0x17
 2135 02d3 01       		.uleb128 0x1
 2136 02d4 50       		.byte	0x50
 2137 02d5 01       		.uleb128 0x1
 2138 02d6 30       		.byte	0x30
 2139 02d7 00       		.byte	0
 2140 02d8 19       		.uleb128 0x19
 2141 02d9 34000000 		.4byte	.LVL8
 2142 02dd 82140000 		.4byte	0x1482
 2143 02e1 17       		.uleb128 0x17
 2144 02e2 01       		.uleb128 0x1
 2145 02e3 51       		.byte	0x51
 2146 02e4 01       		.uleb128 0x1
 2147 02e5 30       		.byte	0x30
 2148 02e6 00       		.byte	0
 2149 02e7 00       		.byte	0
 2150 02e8 05       		.uleb128 0x5
 2151 02e9 04       		.byte	0x4
 2152 02ea 25000000 		.4byte	0x25
 2153 02ee 1A       		.uleb128 0x1a
 2154 02ef 97000000 		.4byte	0x97
 2155 02f3 FE020000 		.4byte	0x2fe
 2156 02f7 1B       		.uleb128 0x1b
 2157 02f8 7D000000 		.4byte	0x7d
 2158 02fc 17       		.byte	0x17
 2159 02fd 00       		.byte	0
 2160 02fe 06       		.uleb128 0x6
 2161 02ff EE020000 		.4byte	0x2ee
 2162 0303 1C       		.uleb128 0x1c
 2163 0304 D8000000 		.4byte	.LASF49
 2164 0308 01       		.byte	0x1
 2165 0309 36       		.byte	0x36
 2166 030a 37010000 		.4byte	0x137
 2167 030e 00000000 		.4byte	.LFB2
 2168 0312 9C010000 		.4byte	.LFE2-.LFB2
 2169 0316 01       		.uleb128 0x1
 2170 0317 9C       		.byte	0x9c
 2171 0318 B0060000 		.4byte	0x6b0
 2172 031c 10       		.uleb128 0x10
 2173 031d A9040000 		.4byte	.LASF25
 2174 0321 01       		.byte	0x1
 2175 0322 36       		.byte	0x36
 2176 0323 91000000 		.4byte	0x91
 2177 0327 AB000000 		.4byte	.LLST4
 2178 032b 10       		.uleb128 0x10
 2179 032c 8F000000 		.4byte	.LASF26
 2180 0330 01       		.byte	0x1
 2181 0331 36       		.byte	0x36
 2182 0332 91000000 		.4byte	0x91
ARM GAS  C:\Users\Phuong\AppData\Local\Temp\ccVjqX8s.s 			page 51


 2183 0336 ED000000 		.4byte	.LLST5
 2184 033a 10       		.uleb128 0x10
 2185 033b 9F060000 		.4byte	.LASF24
 2186 033f 01       		.byte	0x1
 2187 0340 36       		.byte	0x36
 2188 0341 91000000 		.4byte	0x91
 2189 0345 AC010000 		.4byte	.LLST6
 2190 0349 10       		.uleb128 0x10
 2191 034a 30010000 		.4byte	.LASF27
 2192 034e 01       		.byte	0x1
 2193 034f 36       		.byte	0x36
 2194 0350 91000000 		.4byte	0x91
 2195 0354 E2010000 		.4byte	.LLST7
 2196 0358 11       		.uleb128 0x11
 2197 0359 3E000000 		.4byte	.LASF45
 2198 035d 01       		.byte	0x1
 2199 035e 38       		.byte	0x38
 2200 035f B0060000 		.4byte	0x6b0
 2201 0363 24020000 		.4byte	.LLST8
 2202 0367 12       		.uleb128 0x12
 2203 0368 4F060000 		.4byte	.LASF48
 2204 036c C6060000 		.4byte	0x6c6
 2205 0370 05       		.uleb128 0x5
 2206 0371 03       		.byte	0x3
 2207 0372 18000000 		.4byte	__func__.6193
 2208 0376 13       		.uleb128 0x13
 2209 0377 10000000 		.4byte	.LBB3
 2210 037b 20000000 		.4byte	.LBE3-.LBB3
 2211 037f D7030000 		.4byte	0x3d7
 2212 0383 14       		.uleb128 0x14
 2213 0384 6C00     		.ascii	"l\000"
 2214 0386 01       		.byte	0x1
 2215 0387 3C       		.byte	0x3c
 2216 0388 D5000000 		.4byte	0xd5
 2217 038c CA020000 		.4byte	.LLST9
 2218 0390 15       		.uleb128 0x15
 2219 0391 14000000 		.4byte	.LVL14
 2220 0395 6C140000 		.4byte	0x146c
 2221 0399 16       		.uleb128 0x16
 2222 039a 30000000 		.4byte	.LVL17
 2223 039e 02       		.uleb128 0x2
 2224 039f 74       		.byte	0x74
 2225 03a0 00       		.sleb128 0
 2226 03a1 17       		.uleb128 0x17
 2227 03a2 01       		.uleb128 0x1
 2228 03a3 50       		.byte	0x50
 2229 03a4 01       		.uleb128 0x1
 2230 03a5 30       		.byte	0x30
 2231 03a6 17       		.uleb128 0x17
 2232 03a7 01       		.uleb128 0x1
 2233 03a8 51       		.byte	0x51
 2234 03a9 05       		.uleb128 0x5
 2235 03aa 03       		.byte	0x3
 2236 03ab 00000000 		.4byte	.LC1
 2237 03af 17       		.uleb128 0x17
 2238 03b0 01       		.uleb128 0x1
 2239 03b1 52       		.byte	0x52
ARM GAS  C:\Users\Phuong\AppData\Local\Temp\ccVjqX8s.s 			page 52


 2240 03b2 05       		.uleb128 0x5
 2241 03b3 03       		.byte	0x3
 2242 03b4 18000000 		.4byte	.LANCHOR0+24
 2243 03b8 17       		.uleb128 0x17
 2244 03b9 01       		.uleb128 0x1
 2245 03ba 53       		.byte	0x53
 2246 03bb 02       		.uleb128 0x2
 2247 03bc 08       		.byte	0x8
 2248 03bd 3C       		.byte	0x3c
 2249 03be 17       		.uleb128 0x17
 2250 03bf 02       		.uleb128 0x2
 2251 03c0 7D       		.byte	0x7d
 2252 03c1 00       		.sleb128 0
 2253 03c2 01       		.uleb128 0x1
 2254 03c3 31       		.byte	0x31
 2255 03c4 17       		.uleb128 0x17
 2256 03c5 02       		.uleb128 0x2
 2257 03c6 7D       		.byte	0x7d
 2258 03c7 04       		.sleb128 4
 2259 03c8 05       		.uleb128 0x5
 2260 03c9 03       		.byte	0x3
 2261 03ca 84000000 		.4byte	.LC7
 2262 03ce 17       		.uleb128 0x17
 2263 03cf 02       		.uleb128 0x2
 2264 03d0 7D       		.byte	0x7d
 2265 03d1 08       		.sleb128 8
 2266 03d2 02       		.uleb128 0x2
 2267 03d3 75       		.byte	0x75
 2268 03d4 00       		.sleb128 0
 2269 03d5 00       		.byte	0
 2270 03d6 00       		.byte	0
 2271 03d7 13       		.uleb128 0x13
 2272 03d8 3E000000 		.4byte	.LBB4
 2273 03dc 20000000 		.4byte	.LBE4-.LBB4
 2274 03e0 31040000 		.4byte	0x431
 2275 03e4 14       		.uleb128 0x14
 2276 03e5 6C00     		.ascii	"l\000"
 2277 03e7 01       		.byte	0x1
 2278 03e8 46       		.byte	0x46
 2279 03e9 D5000000 		.4byte	0xd5
 2280 03ed F3020000 		.4byte	.LLST10
 2281 03f1 15       		.uleb128 0x15
 2282 03f2 42000000 		.4byte	.LVL23
 2283 03f6 6C140000 		.4byte	0x146c
 2284 03fa 16       		.uleb128 0x16
 2285 03fb 5C000000 		.4byte	.LVL26
 2286 03ff 02       		.uleb128 0x2
 2287 0400 75       		.byte	0x75
 2288 0401 00       		.sleb128 0
 2289 0402 17       		.uleb128 0x17
 2290 0403 01       		.uleb128 0x1
 2291 0404 50       		.byte	0x50
 2292 0405 01       		.uleb128 0x1
 2293 0406 30       		.byte	0x30
 2294 0407 17       		.uleb128 0x17
 2295 0408 01       		.uleb128 0x1
 2296 0409 51       		.byte	0x51
ARM GAS  C:\Users\Phuong\AppData\Local\Temp\ccVjqX8s.s 			page 53


 2297 040a 05       		.uleb128 0x5
 2298 040b 03       		.byte	0x3
 2299 040c 00000000 		.4byte	.LC1
 2300 0410 17       		.uleb128 0x17
 2301 0411 01       		.uleb128 0x1
 2302 0412 52       		.byte	0x52
 2303 0413 05       		.uleb128 0x5
 2304 0414 03       		.byte	0x3
 2305 0415 18000000 		.4byte	.LANCHOR0+24
 2306 0419 17       		.uleb128 0x17
 2307 041a 01       		.uleb128 0x1
 2308 041b 53       		.byte	0x53
 2309 041c 02       		.uleb128 0x2
 2310 041d 08       		.byte	0x8
 2311 041e 46       		.byte	0x46
 2312 041f 17       		.uleb128 0x17
 2313 0420 02       		.uleb128 0x2
 2314 0421 7D       		.byte	0x7d
 2315 0422 00       		.sleb128 0
 2316 0423 01       		.uleb128 0x1
 2317 0424 31       		.byte	0x31
 2318 0425 17       		.uleb128 0x17
 2319 0426 02       		.uleb128 0x2
 2320 0427 7D       		.byte	0x7d
 2321 0428 04       		.sleb128 4
 2322 0429 05       		.uleb128 0x5
 2323 042a 03       		.byte	0x3
 2324 042b A4000000 		.4byte	.LC9
 2325 042f 00       		.byte	0
 2326 0430 00       		.byte	0
 2327 0431 13       		.uleb128 0x13
 2328 0432 7C000000 		.4byte	.LBB5
 2329 0436 1C000000 		.4byte	.LBE5-.LBB5
 2330 043a 8B040000 		.4byte	0x48b
 2331 043e 14       		.uleb128 0x14
 2332 043f 6C00     		.ascii	"l\000"
 2333 0441 01       		.byte	0x1
 2334 0442 51       		.byte	0x51
 2335 0443 D5000000 		.4byte	0xd5
 2336 0447 11030000 		.4byte	.LLST11
 2337 044b 15       		.uleb128 0x15
 2338 044c 80000000 		.4byte	.LVL30
 2339 0450 6C140000 		.4byte	0x146c
 2340 0454 16       		.uleb128 0x16
 2341 0455 98000000 		.4byte	.LVL33
 2342 0459 02       		.uleb128 0x2
 2343 045a 75       		.byte	0x75
 2344 045b 00       		.sleb128 0
 2345 045c 17       		.uleb128 0x17
 2346 045d 01       		.uleb128 0x1
 2347 045e 50       		.byte	0x50
 2348 045f 01       		.uleb128 0x1
 2349 0460 30       		.byte	0x30
 2350 0461 17       		.uleb128 0x17
 2351 0462 01       		.uleb128 0x1
 2352 0463 51       		.byte	0x51
 2353 0464 05       		.uleb128 0x5
ARM GAS  C:\Users\Phuong\AppData\Local\Temp\ccVjqX8s.s 			page 54


 2354 0465 03       		.byte	0x3
 2355 0466 00000000 		.4byte	.LC1
 2356 046a 17       		.uleb128 0x17
 2357 046b 01       		.uleb128 0x1
 2358 046c 52       		.byte	0x52
 2359 046d 05       		.uleb128 0x5
 2360 046e 03       		.byte	0x3
 2361 046f 18000000 		.4byte	.LANCHOR0+24
 2362 0473 17       		.uleb128 0x17
 2363 0474 01       		.uleb128 0x1
 2364 0475 53       		.byte	0x53
 2365 0476 02       		.uleb128 0x2
 2366 0477 08       		.byte	0x8
 2367 0478 51       		.byte	0x51
 2368 0479 17       		.uleb128 0x17
 2369 047a 02       		.uleb128 0x2
 2370 047b 7D       		.byte	0x7d
 2371 047c 00       		.sleb128 0
 2372 047d 01       		.uleb128 0x1
 2373 047e 31       		.byte	0x31
 2374 047f 17       		.uleb128 0x17
 2375 0480 02       		.uleb128 0x2
 2376 0481 7D       		.byte	0x7d
 2377 0482 04       		.sleb128 4
 2378 0483 05       		.uleb128 0x5
 2379 0484 03       		.byte	0x3
 2380 0485 D0000000 		.4byte	.LC11
 2381 0489 00       		.byte	0
 2382 048a 00       		.byte	0
 2383 048b 13       		.uleb128 0x13
 2384 048c B0000000 		.4byte	.LBB6
 2385 0490 1C000000 		.4byte	.LBE6-.LBB6
 2386 0494 E5040000 		.4byte	0x4e5
 2387 0498 14       		.uleb128 0x14
 2388 0499 6C00     		.ascii	"l\000"
 2389 049b 01       		.byte	0x1
 2390 049c 58       		.byte	0x58
 2391 049d D5000000 		.4byte	0xd5
 2392 04a1 2F030000 		.4byte	.LLST12
 2393 04a5 15       		.uleb128 0x15
 2394 04a6 B4000000 		.4byte	.LVL37
 2395 04aa 6C140000 		.4byte	0x146c
 2396 04ae 16       		.uleb128 0x16
 2397 04af CC000000 		.4byte	.LVL40
 2398 04b3 02       		.uleb128 0x2
 2399 04b4 75       		.byte	0x75
 2400 04b5 00       		.sleb128 0
 2401 04b6 17       		.uleb128 0x17
 2402 04b7 01       		.uleb128 0x1
 2403 04b8 50       		.byte	0x50
 2404 04b9 01       		.uleb128 0x1
 2405 04ba 30       		.byte	0x30
 2406 04bb 17       		.uleb128 0x17
 2407 04bc 01       		.uleb128 0x1
 2408 04bd 51       		.byte	0x51
 2409 04be 05       		.uleb128 0x5
 2410 04bf 03       		.byte	0x3
ARM GAS  C:\Users\Phuong\AppData\Local\Temp\ccVjqX8s.s 			page 55


 2411 04c0 00000000 		.4byte	.LC1
 2412 04c4 17       		.uleb128 0x17
 2413 04c5 01       		.uleb128 0x1
 2414 04c6 52       		.byte	0x52
 2415 04c7 05       		.uleb128 0x5
 2416 04c8 03       		.byte	0x3
 2417 04c9 18000000 		.4byte	.LANCHOR0+24
 2418 04cd 17       		.uleb128 0x17
 2419 04ce 01       		.uleb128 0x1
 2420 04cf 53       		.byte	0x53
 2421 04d0 02       		.uleb128 0x2
 2422 04d1 08       		.byte	0x8
 2423 04d2 58       		.byte	0x58
 2424 04d3 17       		.uleb128 0x17
 2425 04d4 02       		.uleb128 0x2
 2426 04d5 7D       		.byte	0x7d
 2427 04d6 00       		.sleb128 0
 2428 04d7 01       		.uleb128 0x1
 2429 04d8 31       		.byte	0x31
 2430 04d9 17       		.uleb128 0x17
 2431 04da 02       		.uleb128 0x2
 2432 04db 7D       		.byte	0x7d
 2433 04dc 04       		.sleb128 4
 2434 04dd 05       		.uleb128 0x5
 2435 04de 03       		.byte	0x3
 2436 04df D0000000 		.4byte	.LC11
 2437 04e3 00       		.byte	0
 2438 04e4 00       		.byte	0
 2439 04e5 13       		.uleb128 0x13
 2440 04e6 EE000000 		.4byte	.LBB7
 2441 04ea 1C000000 		.4byte	.LBE7-.LBB7
 2442 04ee 3F050000 		.4byte	0x53f
 2443 04f2 14       		.uleb128 0x14
 2444 04f3 6C00     		.ascii	"l\000"
 2445 04f5 01       		.byte	0x1
 2446 04f6 60       		.byte	0x60
 2447 04f7 D5000000 		.4byte	0xd5
 2448 04fb 4D030000 		.4byte	.LLST13
 2449 04ff 15       		.uleb128 0x15
 2450 0500 F2000000 		.4byte	.LVL45
 2451 0504 6C140000 		.4byte	0x146c
 2452 0508 16       		.uleb128 0x16
 2453 0509 0A010000 		.4byte	.LVL48
 2454 050d 02       		.uleb128 0x2
 2455 050e 75       		.byte	0x75
 2456 050f 00       		.sleb128 0
 2457 0510 17       		.uleb128 0x17
 2458 0511 01       		.uleb128 0x1
 2459 0512 50       		.byte	0x50
 2460 0513 01       		.uleb128 0x1
 2461 0514 30       		.byte	0x30
 2462 0515 17       		.uleb128 0x17
 2463 0516 01       		.uleb128 0x1
 2464 0517 51       		.byte	0x51
 2465 0518 05       		.uleb128 0x5
 2466 0519 03       		.byte	0x3
 2467 051a 00000000 		.4byte	.LC1
ARM GAS  C:\Users\Phuong\AppData\Local\Temp\ccVjqX8s.s 			page 56


 2468 051e 17       		.uleb128 0x17
 2469 051f 01       		.uleb128 0x1
 2470 0520 52       		.byte	0x52
 2471 0521 05       		.uleb128 0x5
 2472 0522 03       		.byte	0x3
 2473 0523 18000000 		.4byte	.LANCHOR0+24
 2474 0527 17       		.uleb128 0x17
 2475 0528 01       		.uleb128 0x1
 2476 0529 53       		.byte	0x53
 2477 052a 02       		.uleb128 0x2
 2478 052b 08       		.byte	0x8
 2479 052c 60       		.byte	0x60
 2480 052d 17       		.uleb128 0x17
 2481 052e 02       		.uleb128 0x2
 2482 052f 7D       		.byte	0x7d
 2483 0530 00       		.sleb128 0
 2484 0531 01       		.uleb128 0x1
 2485 0532 31       		.byte	0x31
 2486 0533 17       		.uleb128 0x17
 2487 0534 02       		.uleb128 0x2
 2488 0535 7D       		.byte	0x7d
 2489 0536 04       		.sleb128 4
 2490 0537 05       		.uleb128 0x5
 2491 0538 03       		.byte	0x3
 2492 0539 F0000000 		.4byte	.LC13
 2493 053d 00       		.byte	0
 2494 053e 00       		.byte	0
 2495 053f 13       		.uleb128 0x13
 2496 0540 3E010000 		.4byte	.LBB8
 2497 0544 1C000000 		.4byte	.LBE8-.LBB8
 2498 0548 99050000 		.4byte	0x599
 2499 054c 14       		.uleb128 0x14
 2500 054d 6C00     		.ascii	"l\000"
 2501 054f 01       		.byte	0x1
 2502 0550 74       		.byte	0x74
 2503 0551 D5000000 		.4byte	0xd5
 2504 0555 6B030000 		.4byte	.LLST14
 2505 0559 15       		.uleb128 0x15
 2506 055a 42010000 		.4byte	.LVL54
 2507 055e 6C140000 		.4byte	0x146c
 2508 0562 16       		.uleb128 0x16
 2509 0563 5A010000 		.4byte	.LVL57
 2510 0567 02       		.uleb128 0x2
 2511 0568 75       		.byte	0x75
 2512 0569 00       		.sleb128 0
 2513 056a 17       		.uleb128 0x17
 2514 056b 01       		.uleb128 0x1
 2515 056c 50       		.byte	0x50
 2516 056d 01       		.uleb128 0x1
 2517 056e 30       		.byte	0x30
 2518 056f 17       		.uleb128 0x17
 2519 0570 01       		.uleb128 0x1
 2520 0571 51       		.byte	0x51
 2521 0572 05       		.uleb128 0x5
 2522 0573 03       		.byte	0x3
 2523 0574 00000000 		.4byte	.LC1
 2524 0578 17       		.uleb128 0x17
ARM GAS  C:\Users\Phuong\AppData\Local\Temp\ccVjqX8s.s 			page 57


 2525 0579 01       		.uleb128 0x1
 2526 057a 52       		.byte	0x52
 2527 057b 05       		.uleb128 0x5
 2528 057c 03       		.byte	0x3
 2529 057d 18000000 		.4byte	.LANCHOR0+24
 2530 0581 17       		.uleb128 0x17
 2531 0582 01       		.uleb128 0x1
 2532 0583 53       		.byte	0x53
 2533 0584 02       		.uleb128 0x2
 2534 0585 08       		.byte	0x8
 2535 0586 74       		.byte	0x74
 2536 0587 17       		.uleb128 0x17
 2537 0588 02       		.uleb128 0x2
 2538 0589 7D       		.byte	0x7d
 2539 058a 00       		.sleb128 0
 2540 058b 01       		.uleb128 0x1
 2541 058c 31       		.byte	0x31
 2542 058d 17       		.uleb128 0x17
 2543 058e 02       		.uleb128 0x2
 2544 058f 7D       		.byte	0x7d
 2545 0590 04       		.sleb128 4
 2546 0591 05       		.uleb128 0x5
 2547 0592 03       		.byte	0x3
 2548 0593 D0000000 		.4byte	.LC11
 2549 0597 00       		.byte	0
 2550 0598 00       		.byte	0
 2551 0599 18       		.uleb128 0x18
 2552 059a 3A000000 		.4byte	.LVL21
 2553 059e 8D140000 		.4byte	0x148d
 2554 05a2 AC050000 		.4byte	0x5ac
 2555 05a6 17       		.uleb128 0x17
 2556 05a7 01       		.uleb128 0x1
 2557 05a8 50       		.byte	0x50
 2558 05a9 01       		.uleb128 0x1
 2559 05aa 48       		.byte	0x48
 2560 05ab 00       		.byte	0
 2561 05ac 18       		.uleb128 0x18
 2562 05ad 66000000 		.4byte	.LVL28
 2563 05b1 98140000 		.4byte	0x1498
 2564 05b5 C4050000 		.4byte	0x5c4
 2565 05b9 17       		.uleb128 0x17
 2566 05ba 01       		.uleb128 0x1
 2567 05bb 51       		.byte	0x51
 2568 05bc 01       		.uleb128 0x1
 2569 05bd 30       		.byte	0x30
 2570 05be 17       		.uleb128 0x17
 2571 05bf 01       		.uleb128 0x1
 2572 05c0 52       		.byte	0x52
 2573 05c1 01       		.uleb128 0x1
 2574 05c2 48       		.byte	0x48
 2575 05c3 00       		.byte	0
 2576 05c4 18       		.uleb128 0x18
 2577 05c5 78000000 		.4byte	.LVL29
 2578 05c9 A1140000 		.4byte	0x14a1
 2579 05cd DE050000 		.4byte	0x5de
 2580 05d1 17       		.uleb128 0x17
 2581 05d2 01       		.uleb128 0x1
ARM GAS  C:\Users\Phuong\AppData\Local\Temp\ccVjqX8s.s 			page 58


 2582 05d3 50       		.byte	0x50
 2583 05d4 02       		.uleb128 0x2
 2584 05d5 74       		.byte	0x74
 2585 05d6 04       		.sleb128 4
 2586 05d7 17       		.uleb128 0x17
 2587 05d8 01       		.uleb128 0x1
 2588 05d9 51       		.byte	0x51
 2589 05da 02       		.uleb128 0x2
 2590 05db 77       		.byte	0x77
 2591 05dc 00       		.sleb128 0
 2592 05dd 00       		.byte	0
 2593 05de 18       		.uleb128 0x18
 2594 05df 9E000000 		.4byte	.LVL34
 2595 05e3 AC140000 		.4byte	0x14ac
 2596 05e7 F2050000 		.4byte	0x5f2
 2597 05eb 17       		.uleb128 0x17
 2598 05ec 01       		.uleb128 0x1
 2599 05ed 50       		.byte	0x50
 2600 05ee 02       		.uleb128 0x2
 2601 05ef 74       		.byte	0x74
 2602 05f0 00       		.sleb128 0
 2603 05f1 00       		.byte	0
 2604 05f2 18       		.uleb128 0x18
 2605 05f3 AC000000 		.4byte	.LVL36
 2606 05f7 A1140000 		.4byte	0x14a1
 2607 05fb 0C060000 		.4byte	0x60c
 2608 05ff 17       		.uleb128 0x17
 2609 0600 01       		.uleb128 0x1
 2610 0601 50       		.byte	0x50
 2611 0602 02       		.uleb128 0x2
 2612 0603 74       		.byte	0x74
 2613 0604 08       		.sleb128 8
 2614 0605 17       		.uleb128 0x17
 2615 0606 01       		.uleb128 0x1
 2616 0607 51       		.byte	0x51
 2617 0608 02       		.uleb128 0x2
 2618 0609 75       		.byte	0x75
 2619 060a 00       		.sleb128 0
 2620 060b 00       		.byte	0
 2621 060c 15       		.uleb128 0x15
 2622 060d D2000000 		.4byte	.LVL41
 2623 0611 AC140000 		.4byte	0x14ac
 2624 0615 18       		.uleb128 0x18
 2625 0616 D8000000 		.4byte	.LVL42
 2626 061a AC140000 		.4byte	0x14ac
 2627 061e 29060000 		.4byte	0x629
 2628 0622 17       		.uleb128 0x17
 2629 0623 01       		.uleb128 0x1
 2630 0624 50       		.byte	0x50
 2631 0625 02       		.uleb128 0x2
 2632 0626 74       		.byte	0x74
 2633 0627 00       		.sleb128 0
 2634 0628 00       		.byte	0
 2635 0629 18       		.uleb128 0x18
 2636 062a EA000000 		.4byte	.LVL44
 2637 062e A1140000 		.4byte	0x14a1
 2638 0632 43060000 		.4byte	0x643
ARM GAS  C:\Users\Phuong\AppData\Local\Temp\ccVjqX8s.s 			page 59


 2639 0636 17       		.uleb128 0x17
 2640 0637 01       		.uleb128 0x1
 2641 0638 50       		.byte	0x50
 2642 0639 02       		.uleb128 0x2
 2643 063a 74       		.byte	0x74
 2644 063b 0C       		.sleb128 12
 2645 063c 17       		.uleb128 0x17
 2646 063d 01       		.uleb128 0x1
 2647 063e 51       		.byte	0x51
 2648 063f 02       		.uleb128 0x2
 2649 0640 76       		.byte	0x76
 2650 0641 00       		.sleb128 0
 2651 0642 00       		.byte	0
 2652 0643 15       		.uleb128 0x15
 2653 0644 10010000 		.4byte	.LVL49
 2654 0648 AC140000 		.4byte	0x14ac
 2655 064c 15       		.uleb128 0x15
 2656 064d 16010000 		.4byte	.LVL50
 2657 0651 AC140000 		.4byte	0x14ac
 2658 0655 18       		.uleb128 0x18
 2659 0656 1C010000 		.4byte	.LVL51
 2660 065a AC140000 		.4byte	0x14ac
 2661 065e 69060000 		.4byte	0x669
 2662 0662 17       		.uleb128 0x17
 2663 0663 01       		.uleb128 0x1
 2664 0664 50       		.byte	0x50
 2665 0665 02       		.uleb128 0x2
 2666 0666 74       		.byte	0x74
 2667 0667 00       		.sleb128 0
 2668 0668 00       		.byte	0
 2669 0669 18       		.uleb128 0x18
 2670 066a 3A010000 		.4byte	.LVL53
 2671 066e A1140000 		.4byte	0x14a1
 2672 0672 84060000 		.4byte	0x684
 2673 0676 17       		.uleb128 0x17
 2674 0677 01       		.uleb128 0x1
 2675 0678 50       		.byte	0x50
 2676 0679 02       		.uleb128 0x2
 2677 067a 74       		.byte	0x74
 2678 067b 00       		.sleb128 0
 2679 067c 17       		.uleb128 0x17
 2680 067d 01       		.uleb128 0x1
 2681 067e 51       		.byte	0x51
 2682 067f 03       		.uleb128 0x3
 2683 0680 91       		.byte	0x91
 2684 0681 64       		.sleb128 -28
 2685 0682 06       		.byte	0x6
 2686 0683 00       		.byte	0
 2687 0684 15       		.uleb128 0x15
 2688 0685 60010000 		.4byte	.LVL58
 2689 0689 AC140000 		.4byte	0x14ac
 2690 068d 15       		.uleb128 0x15
 2691 068e 66010000 		.4byte	.LVL59
 2692 0692 AC140000 		.4byte	0x14ac
 2693 0696 15       		.uleb128 0x15
 2694 0697 6C010000 		.4byte	.LVL60
 2695 069b AC140000 		.4byte	0x14ac
ARM GAS  C:\Users\Phuong\AppData\Local\Temp\ccVjqX8s.s 			page 60


 2696 069f 19       		.uleb128 0x19
 2697 06a0 72010000 		.4byte	.LVL61
 2698 06a4 AC140000 		.4byte	0x14ac
 2699 06a8 17       		.uleb128 0x17
 2700 06a9 01       		.uleb128 0x1
 2701 06aa 50       		.byte	0x50
 2702 06ab 02       		.uleb128 0x2
 2703 06ac 74       		.byte	0x74
 2704 06ad 00       		.sleb128 0
 2705 06ae 00       		.byte	0
 2706 06af 00       		.byte	0
 2707 06b0 05       		.uleb128 0x5
 2708 06b1 04       		.byte	0x4
 2709 06b2 0B020000 		.4byte	0x20b
 2710 06b6 1A       		.uleb128 0x1a
 2711 06b7 97000000 		.4byte	0x97
 2712 06bb C6060000 		.4byte	0x6c6
 2713 06bf 1B       		.uleb128 0x1b
 2714 06c0 7D000000 		.4byte	0x7d
 2715 06c4 18       		.byte	0x18
 2716 06c5 00       		.byte	0
 2717 06c6 06       		.uleb128 0x6
 2718 06c7 B6060000 		.4byte	0x6b6
 2719 06cb 1C       		.uleb128 0x1c
 2720 06cc 3C040000 		.4byte	.LASF50
 2721 06d0 01       		.byte	0x1
 2722 06d1 88       		.byte	0x88
 2723 06d2 37010000 		.4byte	0x137
 2724 06d6 00000000 		.4byte	.LFB3
 2725 06da 5C000000 		.4byte	.LFE3-.LFB3
 2726 06de 01       		.uleb128 0x1
 2727 06df 9C       		.byte	0x9c
 2728 06e0 D5070000 		.4byte	0x7d5
 2729 06e4 10       		.uleb128 0x10
 2730 06e5 8F000000 		.4byte	.LASF26
 2731 06e9 01       		.byte	0x1
 2732 06ea 88       		.byte	0x88
 2733 06eb 91000000 		.4byte	0x91
 2734 06ef 89030000 		.4byte	.LLST15
 2735 06f3 10       		.uleb128 0x10
 2736 06f4 30010000 		.4byte	.LASF27
 2737 06f8 01       		.byte	0x1
 2738 06f9 88       		.byte	0x88
 2739 06fa 91000000 		.4byte	0x91
 2740 06fe CB030000 		.4byte	.LLST16
 2741 0702 1D       		.uleb128 0x1d
 2742 0703 3E000000 		.4byte	.LASF45
 2743 0707 01       		.byte	0x1
 2744 0708 8A       		.byte	0x8a
 2745 0709 B0060000 		.4byte	0x6b0
 2746 070d 00       		.byte	0
 2747 070e 12       		.uleb128 0x12
 2748 070f 4F060000 		.4byte	.LASF48
 2749 0713 E5070000 		.4byte	0x7e5
 2750 0717 05       		.uleb128 0x5
 2751 0718 03       		.byte	0x3
 2752 0719 34000000 		.4byte	__func__.6217
ARM GAS  C:\Users\Phuong\AppData\Local\Temp\ccVjqX8s.s 			page 61


 2753 071d 13       		.uleb128 0x13
 2754 071e 08000000 		.4byte	.LBB9
 2755 0722 20000000 		.4byte	.LBE9-.LBB9
 2756 0726 7E070000 		.4byte	0x77e
 2757 072a 14       		.uleb128 0x14
 2758 072b 6C00     		.ascii	"l\000"
 2759 072d 01       		.byte	0x1
 2760 072e 8D       		.byte	0x8d
 2761 072f D5000000 		.4byte	0xd5
 2762 0733 05040000 		.4byte	.LLST17
 2763 0737 15       		.uleb128 0x15
 2764 0738 0C000000 		.4byte	.LVL69
 2765 073c 6C140000 		.4byte	0x146c
 2766 0740 16       		.uleb128 0x16
 2767 0741 26000000 		.4byte	.LVL72
 2768 0745 02       		.uleb128 0x2
 2769 0746 75       		.byte	0x75
 2770 0747 00       		.sleb128 0
 2771 0748 17       		.uleb128 0x17
 2772 0749 01       		.uleb128 0x1
 2773 074a 50       		.byte	0x50
 2774 074b 01       		.uleb128 0x1
 2775 074c 30       		.byte	0x30
 2776 074d 17       		.uleb128 0x17
 2777 074e 01       		.uleb128 0x1
 2778 074f 51       		.byte	0x51
 2779 0750 05       		.uleb128 0x5
 2780 0751 03       		.byte	0x3
 2781 0752 00000000 		.4byte	.LC1
 2782 0756 17       		.uleb128 0x17
 2783 0757 01       		.uleb128 0x1
 2784 0758 52       		.byte	0x52
 2785 0759 05       		.uleb128 0x5
 2786 075a 03       		.byte	0x3
 2787 075b 34000000 		.4byte	.LANCHOR0+52
 2788 075f 17       		.uleb128 0x17
 2789 0760 01       		.uleb128 0x1
 2790 0761 53       		.byte	0x53
 2791 0762 02       		.uleb128 0x2
 2792 0763 08       		.byte	0x8
 2793 0764 8D       		.byte	0x8d
 2794 0765 17       		.uleb128 0x17
 2795 0766 02       		.uleb128 0x2
 2796 0767 7D       		.byte	0x7d
 2797 0768 00       		.sleb128 0
 2798 0769 01       		.uleb128 0x1
 2799 076a 31       		.byte	0x31
 2800 076b 17       		.uleb128 0x17
 2801 076c 02       		.uleb128 0x2
 2802 076d 7D       		.byte	0x7d
 2803 076e 04       		.sleb128 4
 2804 076f 05       		.uleb128 0x5
 2805 0770 03       		.byte	0x3
 2806 0771 84000000 		.4byte	.LC7
 2807 0775 17       		.uleb128 0x17
 2808 0776 02       		.uleb128 0x2
 2809 0777 7D       		.byte	0x7d
ARM GAS  C:\Users\Phuong\AppData\Local\Temp\ccVjqX8s.s 			page 62


 2810 0778 08       		.sleb128 8
 2811 0779 02       		.uleb128 0x2
 2812 077a 74       		.byte	0x74
 2813 077b 00       		.sleb128 0
 2814 077c 00       		.byte	0
 2815 077d 00       		.byte	0
 2816 077e 1E       		.uleb128 0x1e
 2817 077f 28000000 		.4byte	.LBB10
 2818 0783 1C000000 		.4byte	.LBE10-.LBB10
 2819 0787 14       		.uleb128 0x14
 2820 0788 6C00     		.ascii	"l\000"
 2821 078a 01       		.byte	0x1
 2822 078b C1       		.byte	0xc1
 2823 078c D5000000 		.4byte	0xd5
 2824 0790 23040000 		.4byte	.LLST18
 2825 0794 15       		.uleb128 0x15
 2826 0795 2C000000 		.4byte	.LVL74
 2827 0799 6C140000 		.4byte	0x146c
 2828 079d 16       		.uleb128 0x16
 2829 079e 44000000 		.4byte	.LVL77
 2830 07a2 02       		.uleb128 0x2
 2831 07a3 74       		.byte	0x74
 2832 07a4 00       		.sleb128 0
 2833 07a5 17       		.uleb128 0x17
 2834 07a6 01       		.uleb128 0x1
 2835 07a7 50       		.byte	0x50
 2836 07a8 01       		.uleb128 0x1
 2837 07a9 30       		.byte	0x30
 2838 07aa 17       		.uleb128 0x17
 2839 07ab 01       		.uleb128 0x1
 2840 07ac 51       		.byte	0x51
 2841 07ad 05       		.uleb128 0x5
 2842 07ae 03       		.byte	0x3
 2843 07af 00000000 		.4byte	.LC1
 2844 07b3 17       		.uleb128 0x17
 2845 07b4 01       		.uleb128 0x1
 2846 07b5 52       		.byte	0x52
 2847 07b6 05       		.uleb128 0x5
 2848 07b7 03       		.byte	0x3
 2849 07b8 34000000 		.4byte	.LANCHOR0+52
 2850 07bc 17       		.uleb128 0x17
 2851 07bd 01       		.uleb128 0x1
 2852 07be 53       		.byte	0x53
 2853 07bf 02       		.uleb128 0x2
 2854 07c0 08       		.byte	0x8
 2855 07c1 C1       		.byte	0xc1
 2856 07c2 17       		.uleb128 0x17
 2857 07c3 02       		.uleb128 0x2
 2858 07c4 7D       		.byte	0x7d
 2859 07c5 00       		.sleb128 0
 2860 07c6 01       		.uleb128 0x1
 2861 07c7 31       		.byte	0x31
 2862 07c8 17       		.uleb128 0x17
 2863 07c9 02       		.uleb128 0x2
 2864 07ca 7D       		.byte	0x7d
 2865 07cb 04       		.sleb128 4
 2866 07cc 05       		.uleb128 0x5
ARM GAS  C:\Users\Phuong\AppData\Local\Temp\ccVjqX8s.s 			page 63


 2867 07cd 03       		.byte	0x3
 2868 07ce 0C010000 		.4byte	.LC18
 2869 07d2 00       		.byte	0
 2870 07d3 00       		.byte	0
 2871 07d4 00       		.byte	0
 2872 07d5 1A       		.uleb128 0x1a
 2873 07d6 97000000 		.4byte	0x97
 2874 07da E5070000 		.4byte	0x7e5
 2875 07de 1B       		.uleb128 0x1b
 2876 07df 7D000000 		.4byte	0x7d
 2877 07e3 26       		.byte	0x26
 2878 07e4 00       		.byte	0
 2879 07e5 06       		.uleb128 0x6
 2880 07e6 D5070000 		.4byte	0x7d5
 2881 07ea 1F       		.uleb128 0x1f
 2882 07eb 2A060000 		.4byte	.LASF103
 2883 07ef 01       		.byte	0x1
 2884 07f0 C8       		.byte	0xc8
 2885 07f1 00000000 		.4byte	.LFB4
 2886 07f5 26000000 		.4byte	.LFE4-.LFB4
 2887 07f9 01       		.uleb128 0x1
 2888 07fa 9C       		.byte	0x9c
 2889 07fb 43080000 		.4byte	0x843
 2890 07ff 10       		.uleb128 0x10
 2891 0800 9B070000 		.4byte	.LASF51
 2892 0804 01       		.byte	0x1
 2893 0805 C8       		.byte	0xc8
 2894 0806 37010000 		.4byte	0x137
 2895 080a 41040000 		.4byte	.LLST19
 2896 080e 15       		.uleb128 0x15
 2897 080f 0C000000 		.4byte	.LVL80
 2898 0813 AC140000 		.4byte	0x14ac
 2899 0817 15       		.uleb128 0x15
 2900 0818 12000000 		.4byte	.LVL81
 2901 081c AC140000 		.4byte	0x14ac
 2902 0820 15       		.uleb128 0x15
 2903 0821 18000000 		.4byte	.LVL82
 2904 0825 AC140000 		.4byte	0x14ac
 2905 0829 15       		.uleb128 0x15
 2906 082a 1E000000 		.4byte	.LVL83
 2907 082e AC140000 		.4byte	0x14ac
 2908 0832 19       		.uleb128 0x19
 2909 0833 24000000 		.4byte	.LVL84
 2910 0837 AC140000 		.4byte	0x14ac
 2911 083b 17       		.uleb128 0x17
 2912 083c 01       		.uleb128 0x1
 2913 083d 50       		.byte	0x50
 2914 083e 02       		.uleb128 0x2
 2915 083f 74       		.byte	0x74
 2916 0840 00       		.sleb128 0
 2917 0841 00       		.byte	0
 2918 0842 00       		.byte	0
 2919 0843 1C       		.uleb128 0x1c
 2920 0844 B8000000 		.4byte	.LASF52
 2921 0848 01       		.byte	0x1
 2922 0849 D9       		.byte	0xd9
 2923 084a D2010000 		.4byte	0x1d2
ARM GAS  C:\Users\Phuong\AppData\Local\Temp\ccVjqX8s.s 			page 64


 2924 084e 00000000 		.4byte	.LFB5
 2925 0852 38000000 		.4byte	.LFE5-.LFB5
 2926 0856 01       		.uleb128 0x1
 2927 0857 9C       		.byte	0x9c
 2928 0858 88080000 		.4byte	0x888
 2929 085c 10       		.uleb128 0x10
 2930 085d 9B070000 		.4byte	.LASF51
 2931 0861 01       		.byte	0x1
 2932 0862 D9       		.byte	0xd9
 2933 0863 37010000 		.4byte	0x137
 2934 0867 6D040000 		.4byte	.LLST20
 2935 086b 20       		.uleb128 0x20
 2936 086c 6F040000 		.4byte	.LASF53
 2937 0870 01       		.byte	0x1
 2938 0871 D9       		.byte	0xd9
 2939 0872 88080000 		.4byte	0x888
 2940 0876 01       		.uleb128 0x1
 2941 0877 51       		.byte	0x51
 2942 0878 11       		.uleb128 0x11
 2943 0879 3E000000 		.4byte	.LASF45
 2944 087d 01       		.byte	0x1
 2945 087e DB       		.byte	0xdb
 2946 087f D2010000 		.4byte	0x1d2
 2947 0883 F2040000 		.4byte	.LLST21
 2948 0887 00       		.byte	0
 2949 0888 03       		.uleb128 0x3
 2950 0889 01       		.byte	0x1
 2951 088a 02       		.byte	0x2
 2952 088b D4060000 		.4byte	.LASF54
 2953 088f 1C       		.uleb128 0x1c
 2954 0890 F2030000 		.4byte	.LASF55
 2955 0894 01       		.byte	0x1
 2956 0895 F9       		.byte	0xf9
 2957 0896 37000000 		.4byte	0x37
 2958 089a 00000000 		.4byte	.LFB6
 2959 089e A8000000 		.4byte	.LFE6-.LFB6
 2960 08a2 01       		.uleb128 0x1
 2961 08a3 9C       		.byte	0x9c
 2962 08a4 FF090000 		.4byte	0x9ff
 2963 08a8 10       		.uleb128 0x10
 2964 08a9 9B070000 		.4byte	.LASF51
 2965 08ad 01       		.byte	0x1
 2966 08ae F9       		.byte	0xf9
 2967 08af 37010000 		.4byte	0x137
 2968 08b3 35050000 		.4byte	.LLST22
 2969 08b7 21       		.uleb128 0x21
 2970 08b8 78696F00 		.ascii	"xio\000"
 2971 08bc 01       		.byte	0x1
 2972 08bd F9       		.byte	0xf9
 2973 08be 21010000 		.4byte	0x121
 2974 08c2 B4050000 		.4byte	.LLST23
 2975 08c6 22       		.uleb128 0x22
 2976 08c7 3E000000 		.4byte	.LASF45
 2977 08cb 01       		.byte	0x1
 2978 08cc FB       		.byte	0xfb
 2979 08cd 37000000 		.4byte	0x37
 2980 08d1 01       		.uleb128 0x1
ARM GAS  C:\Users\Phuong\AppData\Local\Temp\ccVjqX8s.s 			page 65


 2981 08d2 50       		.byte	0x50
 2982 08d3 12       		.uleb128 0x12
 2983 08d4 4F060000 		.4byte	.LASF48
 2984 08d8 0F0A0000 		.4byte	0xa0f
 2985 08dc 05       		.uleb128 0x5
 2986 08dd 03       		.byte	0x3
 2987 08de 5C000000 		.4byte	__func__.6237
 2988 08e2 13       		.uleb128 0x13
 2989 08e3 10000000 		.4byte	.LBB11
 2990 08e7 20000000 		.4byte	.LBE11-.LBB11
 2991 08eb 4A090000 		.4byte	0x94a
 2992 08ef 14       		.uleb128 0x14
 2993 08f0 6C00     		.ascii	"l\000"
 2994 08f2 01       		.byte	0x1
 2995 08f3 FE       		.byte	0xfe
 2996 08f4 D5000000 		.4byte	0xd5
 2997 08f8 0C060000 		.4byte	.LLST24
 2998 08fc 15       		.uleb128 0x15
 2999 08fd 14000000 		.4byte	.LVL101
 3000 0901 6C140000 		.4byte	0x146c
 3001 0905 16       		.uleb128 0x16
 3002 0906 30000000 		.4byte	.LVL104
 3003 090a 02       		.uleb128 0x2
 3004 090b 76       		.byte	0x76
 3005 090c 00       		.sleb128 0
 3006 090d 17       		.uleb128 0x17
 3007 090e 01       		.uleb128 0x1
 3008 090f 50       		.byte	0x50
 3009 0910 01       		.uleb128 0x1
 3010 0911 30       		.byte	0x30
 3011 0912 17       		.uleb128 0x17
 3012 0913 01       		.uleb128 0x1
 3013 0914 51       		.byte	0x51
 3014 0915 05       		.uleb128 0x5
 3015 0916 03       		.byte	0x3
 3016 0917 00000000 		.4byte	.LC1
 3017 091b 17       		.uleb128 0x17
 3018 091c 01       		.uleb128 0x1
 3019 091d 52       		.byte	0x52
 3020 091e 05       		.uleb128 0x5
 3021 091f 03       		.byte	0x3
 3022 0920 5C000000 		.4byte	.LANCHOR0+92
 3023 0924 17       		.uleb128 0x17
 3024 0925 01       		.uleb128 0x1
 3025 0926 53       		.byte	0x53
 3026 0927 02       		.uleb128 0x2
 3027 0928 08       		.byte	0x8
 3028 0929 FE       		.byte	0xfe
 3029 092a 17       		.uleb128 0x17
 3030 092b 02       		.uleb128 0x2
 3031 092c 7D       		.byte	0x7d
 3032 092d 00       		.sleb128 0
 3033 092e 01       		.uleb128 0x1
 3034 092f 31       		.byte	0x31
 3035 0930 17       		.uleb128 0x17
 3036 0931 02       		.uleb128 0x2
 3037 0932 7D       		.byte	0x7d
ARM GAS  C:\Users\Phuong\AppData\Local\Temp\ccVjqX8s.s 			page 66


 3038 0933 04       		.sleb128 4
 3039 0934 05       		.uleb128 0x5
 3040 0935 03       		.byte	0x3
 3041 0936 30010000 		.4byte	.LC22
 3042 093a 17       		.uleb128 0x17
 3043 093b 02       		.uleb128 0x2
 3044 093c 7D       		.byte	0x7d
 3045 093d 08       		.sleb128 8
 3046 093e 02       		.uleb128 0x2
 3047 093f 74       		.byte	0x74
 3048 0940 00       		.sleb128 0
 3049 0941 17       		.uleb128 0x17
 3050 0942 02       		.uleb128 0x2
 3051 0943 7D       		.byte	0x7d
 3052 0944 0C       		.sleb128 12
 3053 0945 02       		.uleb128 0x2
 3054 0946 75       		.byte	0x75
 3055 0947 00       		.sleb128 0
 3056 0948 00       		.byte	0
 3057 0949 00       		.byte	0
 3058 094a 13       		.uleb128 0x13
 3059 094b 3A000000 		.4byte	.LBB12
 3060 094f 1E000000 		.4byte	.LBE12-.LBB12
 3061 0953 A6090000 		.4byte	0x9a6
 3062 0957 23       		.uleb128 0x23
 3063 0958 6C00     		.ascii	"l\000"
 3064 095a 01       		.byte	0x1
 3065 095b 0301     		.2byte	0x103
 3066 095d D5000000 		.4byte	0xd5
 3067 0961 40060000 		.4byte	.LLST25
 3068 0965 15       		.uleb128 0x15
 3069 0966 3E000000 		.4byte	.LVL106
 3070 096a 6C140000 		.4byte	0x146c
 3071 096e 16       		.uleb128 0x16
 3072 096f 58000000 		.4byte	.LVL109
 3073 0973 02       		.uleb128 0x2
 3074 0974 74       		.byte	0x74
 3075 0975 00       		.sleb128 0
 3076 0976 17       		.uleb128 0x17
 3077 0977 01       		.uleb128 0x1
 3078 0978 50       		.byte	0x50
 3079 0979 01       		.uleb128 0x1
 3080 097a 30       		.byte	0x30
 3081 097b 17       		.uleb128 0x17
 3082 097c 01       		.uleb128 0x1
 3083 097d 51       		.byte	0x51
 3084 097e 05       		.uleb128 0x5
 3085 097f 03       		.byte	0x3
 3086 0980 00000000 		.4byte	.LC1
 3087 0984 17       		.uleb128 0x17
 3088 0985 01       		.uleb128 0x1
 3089 0986 52       		.byte	0x52
 3090 0987 05       		.uleb128 0x5
 3091 0988 03       		.byte	0x3
 3092 0989 5C000000 		.4byte	.LANCHOR0+92
 3093 098d 17       		.uleb128 0x17
 3094 098e 01       		.uleb128 0x1
ARM GAS  C:\Users\Phuong\AppData\Local\Temp\ccVjqX8s.s 			page 67


 3095 098f 53       		.byte	0x53
 3096 0990 03       		.uleb128 0x3
 3097 0991 0A       		.byte	0xa
 3098 0992 0301     		.2byte	0x103
 3099 0994 17       		.uleb128 0x17
 3100 0995 02       		.uleb128 0x2
 3101 0996 7D       		.byte	0x7d
 3102 0997 00       		.sleb128 0
 3103 0998 01       		.uleb128 0x1
 3104 0999 31       		.byte	0x31
 3105 099a 17       		.uleb128 0x17
 3106 099b 02       		.uleb128 0x2
 3107 099c 7D       		.byte	0x7d
 3108 099d 04       		.sleb128 4
 3109 099e 05       		.uleb128 0x5
 3110 099f 03       		.byte	0x3
 3111 09a0 58010000 		.4byte	.LC24
 3112 09a4 00       		.byte	0
 3113 09a5 00       		.byte	0
 3114 09a6 1E       		.uleb128 0x1e
 3115 09a7 5E000000 		.4byte	.LBB13
 3116 09ab 1E000000 		.4byte	.LBE13-.LBB13
 3117 09af 23       		.uleb128 0x23
 3118 09b0 6C00     		.ascii	"l\000"
 3119 09b2 01       		.byte	0x1
 3120 09b3 2201     		.2byte	0x122
 3121 09b5 D5000000 		.4byte	0xd5
 3122 09b9 74060000 		.4byte	.LLST26
 3123 09bd 15       		.uleb128 0x15
 3124 09be 62000000 		.4byte	.LVL111
 3125 09c2 6C140000 		.4byte	0x146c
 3126 09c6 16       		.uleb128 0x16
 3127 09c7 7C000000 		.4byte	.LVL114
 3128 09cb 02       		.uleb128 0x2
 3129 09cc 74       		.byte	0x74
 3130 09cd 00       		.sleb128 0
 3131 09ce 17       		.uleb128 0x17
 3132 09cf 01       		.uleb128 0x1
 3133 09d0 50       		.byte	0x50
 3134 09d1 01       		.uleb128 0x1
 3135 09d2 30       		.byte	0x30
 3136 09d3 17       		.uleb128 0x17
 3137 09d4 01       		.uleb128 0x1
 3138 09d5 51       		.byte	0x51
 3139 09d6 05       		.uleb128 0x5
 3140 09d7 03       		.byte	0x3
 3141 09d8 00000000 		.4byte	.LC1
 3142 09dc 17       		.uleb128 0x17
 3143 09dd 01       		.uleb128 0x1
 3144 09de 52       		.byte	0x52
 3145 09df 05       		.uleb128 0x5
 3146 09e0 03       		.byte	0x3
 3147 09e1 5C000000 		.4byte	.LANCHOR0+92
 3148 09e5 17       		.uleb128 0x17
 3149 09e6 01       		.uleb128 0x1
 3150 09e7 53       		.byte	0x53
 3151 09e8 03       		.uleb128 0x3
ARM GAS  C:\Users\Phuong\AppData\Local\Temp\ccVjqX8s.s 			page 68


 3152 09e9 0A       		.byte	0xa
 3153 09ea 2201     		.2byte	0x122
 3154 09ec 17       		.uleb128 0x17
 3155 09ed 02       		.uleb128 0x2
 3156 09ee 7D       		.byte	0x7d
 3157 09ef 00       		.sleb128 0
 3158 09f0 01       		.uleb128 0x1
 3159 09f1 31       		.byte	0x31
 3160 09f2 17       		.uleb128 0x17
 3161 09f3 02       		.uleb128 0x2
 3162 09f4 7D       		.byte	0x7d
 3163 09f5 04       		.sleb128 4
 3164 09f6 05       		.uleb128 0x5
 3165 09f7 03       		.byte	0x3
 3166 09f8 0C010000 		.4byte	.LC18
 3167 09fc 00       		.byte	0
 3168 09fd 00       		.byte	0
 3169 09fe 00       		.byte	0
 3170 09ff 1A       		.uleb128 0x1a
 3171 0a00 97000000 		.4byte	0x97
 3172 0a04 0F0A0000 		.4byte	0xa0f
 3173 0a08 1B       		.uleb128 0x1b
 3174 0a09 7D000000 		.4byte	0x7d
 3175 0a0d 25       		.byte	0x25
 3176 0a0e 00       		.byte	0
 3177 0a0f 06       		.uleb128 0x6
 3178 0a10 FF090000 		.4byte	0x9ff
 3179 0a14 24       		.uleb128 0x24
 3180 0a15 DB020000 		.4byte	.LASF56
 3181 0a19 01       		.byte	0x1
 3182 0a1a 2901     		.2byte	0x129
 3183 0a1c D2010000 		.4byte	0x1d2
 3184 0a20 00000000 		.4byte	.LFB7
 3185 0a24 44000000 		.4byte	.LFE7-.LFB7
 3186 0a28 01       		.uleb128 0x1
 3187 0a29 9C       		.byte	0x9c
 3188 0a2a BD0A0000 		.4byte	0xabd
 3189 0a2e 25       		.uleb128 0x25
 3190 0a2f 9B070000 		.4byte	.LASF51
 3191 0a33 01       		.byte	0x1
 3192 0a34 2901     		.2byte	0x129
 3193 0a36 37010000 		.4byte	0x137
 3194 0a3a A8060000 		.4byte	.LLST27
 3195 0a3e 26       		.uleb128 0x26
 3196 0a3f 3E000000 		.4byte	.LASF45
 3197 0a43 01       		.byte	0x1
 3198 0a44 2B01     		.2byte	0x12b
 3199 0a46 D2010000 		.4byte	0x1d2
 3200 0a4a EA060000 		.4byte	.LLST28
 3201 0a4e 12       		.uleb128 0x12
 3202 0a4f 4F060000 		.4byte	.LASF48
 3203 0a53 BD0A0000 		.4byte	0xabd
 3204 0a57 05       		.uleb128 0x5
 3205 0a58 03       		.byte	0x3
 3206 0a59 84000000 		.4byte	__func__.6251
 3207 0a5d 1E       		.uleb128 0x1e
 3208 0a5e 08000000 		.4byte	.LBB14
ARM GAS  C:\Users\Phuong\AppData\Local\Temp\ccVjqX8s.s 			page 69


 3209 0a62 20000000 		.4byte	.LBE14-.LBB14
 3210 0a66 23       		.uleb128 0x23
 3211 0a67 6C00     		.ascii	"l\000"
 3212 0a69 01       		.byte	0x1
 3213 0a6a 2F01     		.2byte	0x12f
 3214 0a6c D5000000 		.4byte	0xd5
 3215 0a70 08070000 		.4byte	.LLST29
 3216 0a74 15       		.uleb128 0x15
 3217 0a75 0C000000 		.4byte	.LVL124
 3218 0a79 6C140000 		.4byte	0x146c
 3219 0a7d 16       		.uleb128 0x16
 3220 0a7e 28000000 		.4byte	.LVL127
 3221 0a82 02       		.uleb128 0x2
 3222 0a83 75       		.byte	0x75
 3223 0a84 00       		.sleb128 0
 3224 0a85 17       		.uleb128 0x17
 3225 0a86 01       		.uleb128 0x1
 3226 0a87 50       		.byte	0x50
 3227 0a88 01       		.uleb128 0x1
 3228 0a89 30       		.byte	0x30
 3229 0a8a 17       		.uleb128 0x17
 3230 0a8b 01       		.uleb128 0x1
 3231 0a8c 51       		.byte	0x51
 3232 0a8d 05       		.uleb128 0x5
 3233 0a8e 03       		.byte	0x3
 3234 0a8f 00000000 		.4byte	.LC1
 3235 0a93 17       		.uleb128 0x17
 3236 0a94 01       		.uleb128 0x1
 3237 0a95 52       		.byte	0x52
 3238 0a96 05       		.uleb128 0x5
 3239 0a97 03       		.byte	0x3
 3240 0a98 84000000 		.4byte	.LANCHOR1+4
 3241 0a9c 17       		.uleb128 0x17
 3242 0a9d 01       		.uleb128 0x1
 3243 0a9e 53       		.byte	0x53
 3244 0a9f 03       		.uleb128 0x3
 3245 0aa0 0A       		.byte	0xa
 3246 0aa1 2F01     		.2byte	0x12f
 3247 0aa3 17       		.uleb128 0x17
 3248 0aa4 02       		.uleb128 0x2
 3249 0aa5 7D       		.byte	0x7d
 3250 0aa6 00       		.sleb128 0
 3251 0aa7 01       		.uleb128 0x1
 3252 0aa8 31       		.byte	0x31
 3253 0aa9 17       		.uleb128 0x17
 3254 0aaa 02       		.uleb128 0x2
 3255 0aab 7D       		.byte	0x7d
 3256 0aac 04       		.sleb128 4
 3257 0aad 05       		.uleb128 0x5
 3258 0aae 03       		.byte	0x3
 3259 0aaf 84010000 		.4byte	.LC29
 3260 0ab3 17       		.uleb128 0x17
 3261 0ab4 02       		.uleb128 0x2
 3262 0ab5 7D       		.byte	0x7d
 3263 0ab6 08       		.sleb128 8
 3264 0ab7 02       		.uleb128 0x2
 3265 0ab8 74       		.byte	0x74
ARM GAS  C:\Users\Phuong\AppData\Local\Temp\ccVjqX8s.s 			page 70


 3266 0ab9 00       		.sleb128 0
 3267 0aba 00       		.byte	0
 3268 0abb 00       		.byte	0
 3269 0abc 00       		.byte	0
 3270 0abd 06       		.uleb128 0x6
 3271 0abe FF090000 		.4byte	0x9ff
 3272 0ac2 24       		.uleb128 0x24
 3273 0ac3 96080000 		.4byte	.LASF57
 3274 0ac7 01       		.byte	0x1
 3275 0ac8 3A01     		.2byte	0x13a
 3276 0aca 84000000 		.4byte	0x84
 3277 0ace 00000000 		.4byte	.LFB8
 3278 0ad2 E0010000 		.4byte	.LFE8-.LFB8
 3279 0ad6 01       		.uleb128 0x1
 3280 0ad7 9C       		.byte	0x9c
 3281 0ad8 370F0000 		.4byte	0xf37
 3282 0adc 25       		.uleb128 0x25
 3283 0add 9B070000 		.4byte	.LASF51
 3284 0ae1 01       		.byte	0x1
 3285 0ae2 3A01     		.2byte	0x13a
 3286 0ae4 37010000 		.4byte	0x137
 3287 0ae8 31070000 		.4byte	.LLST30
 3288 0aec 25       		.uleb128 0x25
 3289 0aed 12090000 		.4byte	.LASF58
 3290 0af1 01       		.byte	0x1
 3291 0af2 3A01     		.2byte	0x13a
 3292 0af4 91000000 		.4byte	0x91
 3293 0af8 40080000 		.4byte	.LLST31
 3294 0afc 25       		.uleb128 0x25
 3295 0afd 72000000 		.4byte	.LASF59
 3296 0b01 01       		.byte	0x1
 3297 0b02 3A01     		.2byte	0x13a
 3298 0b04 25000000 		.4byte	0x25
 3299 0b08 F6080000 		.4byte	.LLST32
 3300 0b0c 25       		.uleb128 0x25
 3301 0b0d 1B000000 		.4byte	.LASF60
 3302 0b11 01       		.byte	0x1
 3303 0b12 3A01     		.2byte	0x13a
 3304 0b14 91000000 		.4byte	0x91
 3305 0b18 A6090000 		.4byte	.LLST33
 3306 0b1c 27       		.uleb128 0x27
 3307 0b1d 3E000000 		.4byte	.LASF45
 3308 0b21 01       		.byte	0x1
 3309 0b22 3C01     		.2byte	0x13c
 3310 0b24 84000000 		.4byte	0x84
 3311 0b28 02       		.uleb128 0x2
 3312 0b29 91       		.byte	0x91
 3313 0b2a 64       		.sleb128 -28
 3314 0b2b 12       		.uleb128 0x12
 3315 0b2c 4F060000 		.4byte	.LASF48
 3316 0b30 470F0000 		.4byte	0xf47
 3317 0b34 05       		.uleb128 0x5
 3318 0b35 03       		.byte	0x3
 3319 0b36 AC000000 		.4byte	__func__.6262
 3320 0b3a 13       		.uleb128 0x13
 3321 0b3b 10000000 		.4byte	.LBB15
 3322 0b3f 20000000 		.4byte	.LBE15-.LBB15
ARM GAS  C:\Users\Phuong\AppData\Local\Temp\ccVjqX8s.s 			page 71


 3323 0b43 9D0B0000 		.4byte	0xb9d
 3324 0b47 23       		.uleb128 0x23
 3325 0b48 6C00     		.ascii	"l\000"
 3326 0b4a 01       		.byte	0x1
 3327 0b4b 4001     		.2byte	0x140
 3328 0b4d D5000000 		.4byte	0xd5
 3329 0b51 E8090000 		.4byte	.LLST34
 3330 0b55 15       		.uleb128 0x15
 3331 0b56 14000000 		.4byte	.LVL134
 3332 0b5a 6C140000 		.4byte	0x146c
 3333 0b5e 16       		.uleb128 0x16
 3334 0b5f 30000000 		.4byte	.LVL137
 3335 0b63 02       		.uleb128 0x2
 3336 0b64 75       		.byte	0x75
 3337 0b65 00       		.sleb128 0
 3338 0b66 17       		.uleb128 0x17
 3339 0b67 01       		.uleb128 0x1
 3340 0b68 50       		.byte	0x50
 3341 0b69 01       		.uleb128 0x1
 3342 0b6a 30       		.byte	0x30
 3343 0b6b 17       		.uleb128 0x17
 3344 0b6c 01       		.uleb128 0x1
 3345 0b6d 51       		.byte	0x51
 3346 0b6e 05       		.uleb128 0x5
 3347 0b6f 03       		.byte	0x3
 3348 0b70 00000000 		.4byte	.LC1
 3349 0b74 17       		.uleb128 0x17
 3350 0b75 01       		.uleb128 0x1
 3351 0b76 52       		.byte	0x52
 3352 0b77 05       		.uleb128 0x5
 3353 0b78 03       		.byte	0x3
 3354 0b79 AC000000 		.4byte	.LANCHOR1+44
 3355 0b7d 17       		.uleb128 0x17
 3356 0b7e 01       		.uleb128 0x1
 3357 0b7f 53       		.byte	0x53
 3358 0b80 03       		.uleb128 0x3
 3359 0b81 0A       		.byte	0xa
 3360 0b82 4001     		.2byte	0x140
 3361 0b84 17       		.uleb128 0x17
 3362 0b85 02       		.uleb128 0x2
 3363 0b86 7D       		.byte	0x7d
 3364 0b87 00       		.sleb128 0
 3365 0b88 01       		.uleb128 0x1
 3366 0b89 31       		.byte	0x31
 3367 0b8a 17       		.uleb128 0x17
 3368 0b8b 02       		.uleb128 0x2
 3369 0b8c 7D       		.byte	0x7d
 3370 0b8d 04       		.sleb128 4
 3371 0b8e 05       		.uleb128 0x5
 3372 0b8f 03       		.byte	0x3
 3373 0b90 84010000 		.4byte	.LC29
 3374 0b94 17       		.uleb128 0x17
 3375 0b95 02       		.uleb128 0x2
 3376 0b96 7D       		.byte	0x7d
 3377 0b97 08       		.sleb128 8
 3378 0b98 02       		.uleb128 0x2
 3379 0b99 74       		.byte	0x74
ARM GAS  C:\Users\Phuong\AppData\Local\Temp\ccVjqX8s.s 			page 72


 3380 0b9a 00       		.sleb128 0
 3381 0b9b 00       		.byte	0
 3382 0b9c 00       		.byte	0
 3383 0b9d 13       		.uleb128 0x13
 3384 0b9e 3C000000 		.4byte	.LBB16
 3385 0ba2 1E000000 		.4byte	.LBE16-.LBB16
 3386 0ba6 F90B0000 		.4byte	0xbf9
 3387 0baa 23       		.uleb128 0x23
 3388 0bab 6C00     		.ascii	"l\000"
 3389 0bad 01       		.byte	0x1
 3390 0bae 6A01     		.2byte	0x16a
 3391 0bb0 D5000000 		.4byte	0xd5
 3392 0bb4 060A0000 		.4byte	.LLST35
 3393 0bb8 15       		.uleb128 0x15
 3394 0bb9 40000000 		.4byte	.LVL140
 3395 0bbd 6C140000 		.4byte	0x146c
 3396 0bc1 16       		.uleb128 0x16
 3397 0bc2 5A000000 		.4byte	.LVL143
 3398 0bc6 02       		.uleb128 0x2
 3399 0bc7 74       		.byte	0x74
 3400 0bc8 00       		.sleb128 0
 3401 0bc9 17       		.uleb128 0x17
 3402 0bca 01       		.uleb128 0x1
 3403 0bcb 50       		.byte	0x50
 3404 0bcc 01       		.uleb128 0x1
 3405 0bcd 30       		.byte	0x30
 3406 0bce 17       		.uleb128 0x17
 3407 0bcf 01       		.uleb128 0x1
 3408 0bd0 51       		.byte	0x51
 3409 0bd1 05       		.uleb128 0x5
 3410 0bd2 03       		.byte	0x3
 3411 0bd3 00000000 		.4byte	.LC1
 3412 0bd7 17       		.uleb128 0x17
 3413 0bd8 01       		.uleb128 0x1
 3414 0bd9 52       		.byte	0x52
 3415 0bda 05       		.uleb128 0x5
 3416 0bdb 03       		.byte	0x3
 3417 0bdc AC000000 		.4byte	.LANCHOR1+44
 3418 0be0 17       		.uleb128 0x17
 3419 0be1 01       		.uleb128 0x1
 3420 0be2 53       		.byte	0x53
 3421 0be3 03       		.uleb128 0x3
 3422 0be4 0A       		.byte	0xa
 3423 0be5 6A01     		.2byte	0x16a
 3424 0be7 17       		.uleb128 0x17
 3425 0be8 02       		.uleb128 0x2
 3426 0be9 7D       		.byte	0x7d
 3427 0bea 00       		.sleb128 0
 3428 0beb 01       		.uleb128 0x1
 3429 0bec 31       		.byte	0x31
 3430 0bed 17       		.uleb128 0x17
 3431 0bee 02       		.uleb128 0x2
 3432 0bef 7D       		.byte	0x7d
 3433 0bf0 04       		.sleb128 4
 3434 0bf1 05       		.uleb128 0x5
 3435 0bf2 03       		.byte	0x3
 3436 0bf3 0C010000 		.4byte	.LC18
ARM GAS  C:\Users\Phuong\AppData\Local\Temp\ccVjqX8s.s 			page 73


 3437 0bf7 00       		.byte	0
 3438 0bf8 00       		.byte	0
 3439 0bf9 13       		.uleb128 0x13
 3440 0bfa 76000000 		.4byte	.LBB17
 3441 0bfe 1E000000 		.4byte	.LBE17-.LBB17
 3442 0c02 550C0000 		.4byte	0xc55
 3443 0c06 23       		.uleb128 0x23
 3444 0c07 6C00     		.ascii	"l\000"
 3445 0c09 01       		.byte	0x1
 3446 0c0a 7501     		.2byte	0x175
 3447 0c0c D5000000 		.4byte	0xd5
 3448 0c10 240A0000 		.4byte	.LLST36
 3449 0c14 15       		.uleb128 0x15
 3450 0c15 7A000000 		.4byte	.LVL148
 3451 0c19 6C140000 		.4byte	0x146c
 3452 0c1d 16       		.uleb128 0x16
 3453 0c1e 94000000 		.4byte	.LVL151
 3454 0c22 02       		.uleb128 0x2
 3455 0c23 74       		.byte	0x74
 3456 0c24 00       		.sleb128 0
 3457 0c25 17       		.uleb128 0x17
 3458 0c26 01       		.uleb128 0x1
 3459 0c27 50       		.byte	0x50
 3460 0c28 01       		.uleb128 0x1
 3461 0c29 30       		.byte	0x30
 3462 0c2a 17       		.uleb128 0x17
 3463 0c2b 01       		.uleb128 0x1
 3464 0c2c 51       		.byte	0x51
 3465 0c2d 05       		.uleb128 0x5
 3466 0c2e 03       		.byte	0x3
 3467 0c2f 00000000 		.4byte	.LC1
 3468 0c33 17       		.uleb128 0x17
 3469 0c34 01       		.uleb128 0x1
 3470 0c35 52       		.byte	0x52
 3471 0c36 05       		.uleb128 0x5
 3472 0c37 03       		.byte	0x3
 3473 0c38 AC000000 		.4byte	.LANCHOR1+44
 3474 0c3c 17       		.uleb128 0x17
 3475 0c3d 01       		.uleb128 0x1
 3476 0c3e 53       		.byte	0x53
 3477 0c3f 03       		.uleb128 0x3
 3478 0c40 0A       		.byte	0xa
 3479 0c41 7501     		.2byte	0x175
 3480 0c43 17       		.uleb128 0x17
 3481 0c44 02       		.uleb128 0x2
 3482 0c45 7D       		.byte	0x7d
 3483 0c46 00       		.sleb128 0
 3484 0c47 01       		.uleb128 0x1
 3485 0c48 31       		.byte	0x31
 3486 0c49 17       		.uleb128 0x17
 3487 0c4a 02       		.uleb128 0x2
 3488 0c4b 7D       		.byte	0x7d
 3489 0c4c 04       		.sleb128 4
 3490 0c4d 05       		.uleb128 0x5
 3491 0c4e 03       		.byte	0x3
 3492 0c4f A4010000 		.4byte	.LC35
 3493 0c53 00       		.byte	0
ARM GAS  C:\Users\Phuong\AppData\Local\Temp\ccVjqX8s.s 			page 74


 3494 0c54 00       		.byte	0
 3495 0c55 13       		.uleb128 0x13
 3496 0c56 9A000000 		.4byte	.LBB18
 3497 0c5a 1E000000 		.4byte	.LBE18-.LBB18
 3498 0c5e B10C0000 		.4byte	0xcb1
 3499 0c62 23       		.uleb128 0x23
 3500 0c63 6C00     		.ascii	"l\000"
 3501 0c65 01       		.byte	0x1
 3502 0c66 7B01     		.2byte	0x17b
 3503 0c68 D5000000 		.4byte	0xd5
 3504 0c6c 420A0000 		.4byte	.LLST37
 3505 0c70 15       		.uleb128 0x15
 3506 0c71 9E000000 		.4byte	.LVL153
 3507 0c75 6C140000 		.4byte	0x146c
 3508 0c79 16       		.uleb128 0x16
 3509 0c7a B8000000 		.4byte	.LVL156
 3510 0c7e 02       		.uleb128 0x2
 3511 0c7f 74       		.byte	0x74
 3512 0c80 00       		.sleb128 0
 3513 0c81 17       		.uleb128 0x17
 3514 0c82 01       		.uleb128 0x1
 3515 0c83 50       		.byte	0x50
 3516 0c84 01       		.uleb128 0x1
 3517 0c85 30       		.byte	0x30
 3518 0c86 17       		.uleb128 0x17
 3519 0c87 01       		.uleb128 0x1
 3520 0c88 51       		.byte	0x51
 3521 0c89 05       		.uleb128 0x5
 3522 0c8a 03       		.byte	0x3
 3523 0c8b 00000000 		.4byte	.LC1
 3524 0c8f 17       		.uleb128 0x17
 3525 0c90 01       		.uleb128 0x1
 3526 0c91 52       		.byte	0x52
 3527 0c92 05       		.uleb128 0x5
 3528 0c93 03       		.byte	0x3
 3529 0c94 AC000000 		.4byte	.LANCHOR1+44
 3530 0c98 17       		.uleb128 0x17
 3531 0c99 01       		.uleb128 0x1
 3532 0c9a 53       		.byte	0x53
 3533 0c9b 03       		.uleb128 0x3
 3534 0c9c 0A       		.byte	0xa
 3535 0c9d 7B01     		.2byte	0x17b
 3536 0c9f 17       		.uleb128 0x17
 3537 0ca0 02       		.uleb128 0x2
 3538 0ca1 7D       		.byte	0x7d
 3539 0ca2 00       		.sleb128 0
 3540 0ca3 01       		.uleb128 0x1
 3541 0ca4 31       		.byte	0x31
 3542 0ca5 17       		.uleb128 0x17
 3543 0ca6 02       		.uleb128 0x2
 3544 0ca7 7D       		.byte	0x7d
 3545 0ca8 04       		.sleb128 4
 3546 0ca9 05       		.uleb128 0x5
 3547 0caa 03       		.byte	0x3
 3548 0cab C4010000 		.4byte	.LC37
 3549 0caf 00       		.byte	0
 3550 0cb0 00       		.byte	0
ARM GAS  C:\Users\Phuong\AppData\Local\Temp\ccVjqX8s.s 			page 75


 3551 0cb1 13       		.uleb128 0x13
 3552 0cb2 C6000000 		.4byte	.LBB19
 3553 0cb6 20000000 		.4byte	.LBE19-.LBB19
 3554 0cba 140D0000 		.4byte	0xd14
 3555 0cbe 23       		.uleb128 0x23
 3556 0cbf 6C00     		.ascii	"l\000"
 3557 0cc1 01       		.byte	0x1
 3558 0cc2 8401     		.2byte	0x184
 3559 0cc4 D5000000 		.4byte	0xd5
 3560 0cc8 600A0000 		.4byte	.LLST38
 3561 0ccc 15       		.uleb128 0x15
 3562 0ccd CA000000 		.4byte	.LVL158
 3563 0cd1 6C140000 		.4byte	0x146c
 3564 0cd5 16       		.uleb128 0x16
 3565 0cd6 E6000000 		.4byte	.LVL161
 3566 0cda 02       		.uleb128 0x2
 3567 0cdb 74       		.byte	0x74
 3568 0cdc 00       		.sleb128 0
 3569 0cdd 17       		.uleb128 0x17
 3570 0cde 01       		.uleb128 0x1
 3571 0cdf 50       		.byte	0x50
 3572 0ce0 01       		.uleb128 0x1
 3573 0ce1 30       		.byte	0x30
 3574 0ce2 17       		.uleb128 0x17
 3575 0ce3 01       		.uleb128 0x1
 3576 0ce4 51       		.byte	0x51
 3577 0ce5 05       		.uleb128 0x5
 3578 0ce6 03       		.byte	0x3
 3579 0ce7 00000000 		.4byte	.LC1
 3580 0ceb 17       		.uleb128 0x17
 3581 0cec 01       		.uleb128 0x1
 3582 0ced 52       		.byte	0x52
 3583 0cee 05       		.uleb128 0x5
 3584 0cef 03       		.byte	0x3
 3585 0cf0 AC000000 		.4byte	.LANCHOR1+44
 3586 0cf4 17       		.uleb128 0x17
 3587 0cf5 01       		.uleb128 0x1
 3588 0cf6 53       		.byte	0x53
 3589 0cf7 03       		.uleb128 0x3
 3590 0cf8 0A       		.byte	0xa
 3591 0cf9 8401     		.2byte	0x184
 3592 0cfb 17       		.uleb128 0x17
 3593 0cfc 02       		.uleb128 0x2
 3594 0cfd 7D       		.byte	0x7d
 3595 0cfe 00       		.sleb128 0
 3596 0cff 01       		.uleb128 0x1
 3597 0d00 31       		.byte	0x31
 3598 0d01 17       		.uleb128 0x17
 3599 0d02 02       		.uleb128 0x2
 3600 0d03 7D       		.byte	0x7d
 3601 0d04 04       		.sleb128 4
 3602 0d05 05       		.uleb128 0x5
 3603 0d06 03       		.byte	0x3
 3604 0d07 E8010000 		.4byte	.LC39
 3605 0d0b 17       		.uleb128 0x17
 3606 0d0c 02       		.uleb128 0x2
 3607 0d0d 7D       		.byte	0x7d
ARM GAS  C:\Users\Phuong\AppData\Local\Temp\ccVjqX8s.s 			page 76


 3608 0d0e 08       		.sleb128 8
 3609 0d0f 02       		.uleb128 0x2
 3610 0d10 75       		.byte	0x75
 3611 0d11 00       		.sleb128 0
 3612 0d12 00       		.byte	0
 3613 0d13 00       		.byte	0
 3614 0d14 13       		.uleb128 0x13
 3615 0d15 EC000000 		.4byte	.LBB20
 3616 0d19 9E000000 		.4byte	.LBE20-.LBB20
 3617 0d1d CA0E0000 		.4byte	0xeca
 3618 0d21 26       		.uleb128 0x26
 3619 0d22 91070000 		.4byte	.LASF61
 3620 0d26 01       		.byte	0x1
 3621 0d27 8901     		.2byte	0x189
 3622 0d29 0B010000 		.4byte	0x10b
 3623 0d2d 7E0A0000 		.4byte	.LLST39
 3624 0d31 27       		.uleb128 0x27
 3625 0d32 DA060000 		.4byte	.LASF62
 3626 0d36 01       		.byte	0x1
 3627 0d37 8A01     		.2byte	0x18a
 3628 0d39 25000000 		.4byte	0x25
 3629 0d3d 02       		.uleb128 0x2
 3630 0d3e 91       		.byte	0x91
 3631 0d3f 60       		.sleb128 -32
 3632 0d40 13       		.uleb128 0x13
 3633 0d41 F6000000 		.4byte	.LBB21
 3634 0d45 1E000000 		.4byte	.LBE21-.LBB21
 3635 0d49 9C0D0000 		.4byte	0xd9c
 3636 0d4d 23       		.uleb128 0x23
 3637 0d4e 6C00     		.ascii	"l\000"
 3638 0d50 01       		.byte	0x1
 3639 0d51 9001     		.2byte	0x190
 3640 0d53 D5000000 		.4byte	0xd5
 3641 0d57 B20A0000 		.4byte	.LLST40
 3642 0d5b 15       		.uleb128 0x15
 3643 0d5c FA000000 		.4byte	.LVL165
 3644 0d60 6C140000 		.4byte	0x146c
 3645 0d64 16       		.uleb128 0x16
 3646 0d65 14010000 		.4byte	.LVL168
 3647 0d69 02       		.uleb128 0x2
 3648 0d6a 74       		.byte	0x74
 3649 0d6b 00       		.sleb128 0
 3650 0d6c 17       		.uleb128 0x17
 3651 0d6d 01       		.uleb128 0x1
 3652 0d6e 50       		.byte	0x50
 3653 0d6f 01       		.uleb128 0x1
 3654 0d70 30       		.byte	0x30
 3655 0d71 17       		.uleb128 0x17
 3656 0d72 01       		.uleb128 0x1
 3657 0d73 51       		.byte	0x51
 3658 0d74 05       		.uleb128 0x5
 3659 0d75 03       		.byte	0x3
 3660 0d76 00000000 		.4byte	.LC1
 3661 0d7a 17       		.uleb128 0x17
 3662 0d7b 01       		.uleb128 0x1
 3663 0d7c 52       		.byte	0x52
 3664 0d7d 05       		.uleb128 0x5
ARM GAS  C:\Users\Phuong\AppData\Local\Temp\ccVjqX8s.s 			page 77


 3665 0d7e 03       		.byte	0x3
 3666 0d7f AC000000 		.4byte	.LANCHOR1+44
 3667 0d83 17       		.uleb128 0x17
 3668 0d84 01       		.uleb128 0x1
 3669 0d85 53       		.byte	0x53
 3670 0d86 03       		.uleb128 0x3
 3671 0d87 0A       		.byte	0xa
 3672 0d88 9001     		.2byte	0x190
 3673 0d8a 17       		.uleb128 0x17
 3674 0d8b 02       		.uleb128 0x2
 3675 0d8c 7D       		.byte	0x7d
 3676 0d8d 00       		.sleb128 0
 3677 0d8e 01       		.uleb128 0x1
 3678 0d8f 31       		.byte	0x31
 3679 0d90 17       		.uleb128 0x17
 3680 0d91 02       		.uleb128 0x2
 3681 0d92 7D       		.byte	0x7d
 3682 0d93 04       		.sleb128 4
 3683 0d94 05       		.uleb128 0x5
 3684 0d95 03       		.byte	0x3
 3685 0d96 04020000 		.4byte	.LC41
 3686 0d9a 00       		.byte	0
 3687 0d9b 00       		.byte	0
 3688 0d9c 13       		.uleb128 0x13
 3689 0d9d 1A010000 		.4byte	.LBB22
 3690 0da1 70000000 		.4byte	.LBE22-.LBB22
 3691 0da5 B90E0000 		.4byte	0xeb9
 3692 0da9 26       		.uleb128 0x26
 3693 0daa 63040000 		.4byte	.LASF63
 3694 0dae 01       		.byte	0x1
 3695 0daf 9601     		.2byte	0x196
 3696 0db1 25000000 		.4byte	0x25
 3697 0db5 D00A0000 		.4byte	.LLST41
 3698 0db9 13       		.uleb128 0x13
 3699 0dba 2C010000 		.4byte	.LBB23
 3700 0dbe 1E000000 		.4byte	.LBE23-.LBB23
 3701 0dc2 150E0000 		.4byte	0xe15
 3702 0dc6 23       		.uleb128 0x23
 3703 0dc7 6C00     		.ascii	"l\000"
 3704 0dc9 01       		.byte	0x1
 3705 0dca 9A01     		.2byte	0x19a
 3706 0dcc D5000000 		.4byte	0xd5
 3707 0dd0 E30A0000 		.4byte	.LLST42
 3708 0dd4 15       		.uleb128 0x15
 3709 0dd5 30010000 		.4byte	.LVL173
 3710 0dd9 6C140000 		.4byte	0x146c
 3711 0ddd 16       		.uleb128 0x16
 3712 0dde 4A010000 		.4byte	.LVL176
 3713 0de2 02       		.uleb128 0x2
 3714 0de3 74       		.byte	0x74
 3715 0de4 00       		.sleb128 0
 3716 0de5 17       		.uleb128 0x17
 3717 0de6 01       		.uleb128 0x1
 3718 0de7 50       		.byte	0x50
 3719 0de8 01       		.uleb128 0x1
 3720 0de9 30       		.byte	0x30
 3721 0dea 17       		.uleb128 0x17
ARM GAS  C:\Users\Phuong\AppData\Local\Temp\ccVjqX8s.s 			page 78


 3722 0deb 01       		.uleb128 0x1
 3723 0dec 51       		.byte	0x51
 3724 0ded 05       		.uleb128 0x5
 3725 0dee 03       		.byte	0x3
 3726 0def 00000000 		.4byte	.LC1
 3727 0df3 17       		.uleb128 0x17
 3728 0df4 01       		.uleb128 0x1
 3729 0df5 52       		.byte	0x52
 3730 0df6 05       		.uleb128 0x5
 3731 0df7 03       		.byte	0x3
 3732 0df8 AC000000 		.4byte	.LANCHOR1+44
 3733 0dfc 17       		.uleb128 0x17
 3734 0dfd 01       		.uleb128 0x1
 3735 0dfe 53       		.byte	0x53
 3736 0dff 03       		.uleb128 0x3
 3737 0e00 0A       		.byte	0xa
 3738 0e01 9A01     		.2byte	0x19a
 3739 0e03 17       		.uleb128 0x17
 3740 0e04 02       		.uleb128 0x2
 3741 0e05 7D       		.byte	0x7d
 3742 0e06 00       		.sleb128 0
 3743 0e07 01       		.uleb128 0x1
 3744 0e08 31       		.byte	0x31
 3745 0e09 17       		.uleb128 0x17
 3746 0e0a 02       		.uleb128 0x2
 3747 0e0b 7D       		.byte	0x7d
 3748 0e0c 04       		.sleb128 4
 3749 0e0d 05       		.uleb128 0x5
 3750 0e0e 03       		.byte	0x3
 3751 0e0f 28020000 		.4byte	.LC43
 3752 0e13 00       		.byte	0
 3753 0e14 00       		.byte	0
 3754 0e15 13       		.uleb128 0x13
 3755 0e16 60010000 		.4byte	.LBB24
 3756 0e1a 1E000000 		.4byte	.LBE24-.LBB24
 3757 0e1e 710E0000 		.4byte	0xe71
 3758 0e22 23       		.uleb128 0x23
 3759 0e23 6C00     		.ascii	"l\000"
 3760 0e25 01       		.byte	0x1
 3761 0e26 A301     		.2byte	0x1a3
 3762 0e28 D5000000 		.4byte	0xd5
 3763 0e2c 010B0000 		.4byte	.LLST43
 3764 0e30 15       		.uleb128 0x15
 3765 0e31 64010000 		.4byte	.LVL180
 3766 0e35 6C140000 		.4byte	0x146c
 3767 0e39 16       		.uleb128 0x16
 3768 0e3a 7E010000 		.4byte	.LVL183
 3769 0e3e 02       		.uleb128 0x2
 3770 0e3f 75       		.byte	0x75
 3771 0e40 00       		.sleb128 0
 3772 0e41 17       		.uleb128 0x17
 3773 0e42 01       		.uleb128 0x1
 3774 0e43 50       		.byte	0x50
 3775 0e44 01       		.uleb128 0x1
 3776 0e45 30       		.byte	0x30
 3777 0e46 17       		.uleb128 0x17
 3778 0e47 01       		.uleb128 0x1
ARM GAS  C:\Users\Phuong\AppData\Local\Temp\ccVjqX8s.s 			page 79


 3779 0e48 51       		.byte	0x51
 3780 0e49 05       		.uleb128 0x5
 3781 0e4a 03       		.byte	0x3
 3782 0e4b 00000000 		.4byte	.LC1
 3783 0e4f 17       		.uleb128 0x17
 3784 0e50 01       		.uleb128 0x1
 3785 0e51 52       		.byte	0x52
 3786 0e52 05       		.uleb128 0x5
 3787 0e53 03       		.byte	0x3
 3788 0e54 AC000000 		.4byte	.LANCHOR1+44
 3789 0e58 17       		.uleb128 0x17
 3790 0e59 01       		.uleb128 0x1
 3791 0e5a 53       		.byte	0x53
 3792 0e5b 03       		.uleb128 0x3
 3793 0e5c 0A       		.byte	0xa
 3794 0e5d A301     		.2byte	0x1a3
 3795 0e5f 17       		.uleb128 0x17
 3796 0e60 02       		.uleb128 0x2
 3797 0e61 7D       		.byte	0x7d
 3798 0e62 00       		.sleb128 0
 3799 0e63 01       		.uleb128 0x1
 3800 0e64 31       		.byte	0x31
 3801 0e65 17       		.uleb128 0x17
 3802 0e66 02       		.uleb128 0x2
 3803 0e67 7D       		.byte	0x7d
 3804 0e68 04       		.sleb128 4
 3805 0e69 05       		.uleb128 0x5
 3806 0e6a 03       		.byte	0x3
 3807 0e6b 44020000 		.4byte	.LC45
 3808 0e6f 00       		.byte	0
 3809 0e70 00       		.byte	0
 3810 0e71 18       		.uleb128 0x18
 3811 0e72 28010000 		.4byte	.LVL171
 3812 0e76 B7140000 		.4byte	0x14b7
 3813 0e7a 8B0E0000 		.4byte	0xe8b
 3814 0e7e 17       		.uleb128 0x17
 3815 0e7f 01       		.uleb128 0x1
 3816 0e80 51       		.byte	0x51
 3817 0e81 02       		.uleb128 0x2
 3818 0e82 75       		.byte	0x75
 3819 0e83 00       		.sleb128 0
 3820 0e84 17       		.uleb128 0x17
 3821 0e85 01       		.uleb128 0x1
 3822 0e86 52       		.byte	0x52
 3823 0e87 02       		.uleb128 0x2
 3824 0e88 77       		.byte	0x77
 3825 0e89 00       		.sleb128 0
 3826 0e8a 00       		.byte	0
 3827 0e8b 15       		.uleb128 0x15
 3828 0e8c 54010000 		.4byte	.LVL178
 3829 0e90 C2140000 		.4byte	0x14c2
 3830 0e94 18       		.uleb128 0x18
 3831 0e95 5C010000 		.4byte	.LVL179
 3832 0e99 A1140000 		.4byte	0x14a1
 3833 0e9d A80E0000 		.4byte	0xea8
 3834 0ea1 17       		.uleb128 0x17
 3835 0ea2 01       		.uleb128 0x1
ARM GAS  C:\Users\Phuong\AppData\Local\Temp\ccVjqX8s.s 			page 80


 3836 0ea3 50       		.byte	0x50
 3837 0ea4 02       		.uleb128 0x2
 3838 0ea5 91       		.byte	0x91
 3839 0ea6 64       		.sleb128 -28
 3840 0ea7 00       		.byte	0
 3841 0ea8 19       		.uleb128 0x19
 3842 0ea9 88010000 		.4byte	.LVL185
 3843 0ead CD140000 		.4byte	0x14cd
 3844 0eb1 17       		.uleb128 0x17
 3845 0eb2 01       		.uleb128 0x1
 3846 0eb3 50       		.byte	0x50
 3847 0eb4 02       		.uleb128 0x2
 3848 0eb5 74       		.byte	0x74
 3849 0eb6 00       		.sleb128 0
 3850 0eb7 00       		.byte	0
 3851 0eb8 00       		.byte	0
 3852 0eb9 19       		.uleb128 0x19
 3853 0eba F2000000 		.4byte	.LVL164
 3854 0ebe 16020000 		.4byte	0x216
 3855 0ec2 17       		.uleb128 0x17
 3856 0ec3 01       		.uleb128 0x1
 3857 0ec4 50       		.byte	0x50
 3858 0ec5 02       		.uleb128 0x2
 3859 0ec6 91       		.byte	0x91
 3860 0ec7 60       		.sleb128 -32
 3861 0ec8 00       		.byte	0
 3862 0ec9 00       		.byte	0
 3863 0eca 13       		.uleb128 0x13
 3864 0ecb 8A010000 		.4byte	.LBB25
 3865 0ecf 1E000000 		.4byte	.LBE25-.LBB25
 3866 0ed3 260F0000 		.4byte	0xf26
 3867 0ed7 23       		.uleb128 0x23
 3868 0ed8 6C00     		.ascii	"l\000"
 3869 0eda 01       		.byte	0x1
 3870 0edb AD01     		.2byte	0x1ad
 3871 0edd D5000000 		.4byte	0xd5
 3872 0ee1 1F0B0000 		.4byte	.LLST44
 3873 0ee5 15       		.uleb128 0x15
 3874 0ee6 8E010000 		.4byte	.LVL187
 3875 0eea 6C140000 		.4byte	0x146c
 3876 0eee 16       		.uleb128 0x16
 3877 0eef A8010000 		.4byte	.LVL190
 3878 0ef3 02       		.uleb128 0x2
 3879 0ef4 74       		.byte	0x74
 3880 0ef5 00       		.sleb128 0
 3881 0ef6 17       		.uleb128 0x17
 3882 0ef7 01       		.uleb128 0x1
 3883 0ef8 50       		.byte	0x50
 3884 0ef9 01       		.uleb128 0x1
 3885 0efa 30       		.byte	0x30
 3886 0efb 17       		.uleb128 0x17
 3887 0efc 01       		.uleb128 0x1
 3888 0efd 51       		.byte	0x51
 3889 0efe 05       		.uleb128 0x5
 3890 0eff 03       		.byte	0x3
 3891 0f00 00000000 		.4byte	.LC1
 3892 0f04 17       		.uleb128 0x17
ARM GAS  C:\Users\Phuong\AppData\Local\Temp\ccVjqX8s.s 			page 81


 3893 0f05 01       		.uleb128 0x1
 3894 0f06 52       		.byte	0x52
 3895 0f07 05       		.uleb128 0x5
 3896 0f08 03       		.byte	0x3
 3897 0f09 AC000000 		.4byte	.LANCHOR1+44
 3898 0f0d 17       		.uleb128 0x17
 3899 0f0e 01       		.uleb128 0x1
 3900 0f0f 53       		.byte	0x53
 3901 0f10 03       		.uleb128 0x3
 3902 0f11 0A       		.byte	0xa
 3903 0f12 AD01     		.2byte	0x1ad
 3904 0f14 17       		.uleb128 0x17
 3905 0f15 02       		.uleb128 0x2
 3906 0f16 7D       		.byte	0x7d
 3907 0f17 00       		.sleb128 0
 3908 0f18 01       		.uleb128 0x1
 3909 0f19 31       		.byte	0x31
 3910 0f1a 17       		.uleb128 0x17
 3911 0f1b 02       		.uleb128 0x2
 3912 0f1c 7D       		.byte	0x7d
 3913 0f1d 04       		.sleb128 4
 3914 0f1e 05       		.uleb128 0x5
 3915 0f1f 03       		.byte	0x3
 3916 0f20 5C020000 		.4byte	.LC47
 3917 0f24 00       		.byte	0
 3918 0f25 00       		.byte	0
 3919 0f26 19       		.uleb128 0x19
 3920 0f27 70000000 		.4byte	.LVL147
 3921 0f2b A1140000 		.4byte	0x14a1
 3922 0f2f 17       		.uleb128 0x17
 3923 0f30 01       		.uleb128 0x1
 3924 0f31 50       		.byte	0x50
 3925 0f32 02       		.uleb128 0x2
 3926 0f33 91       		.byte	0x91
 3927 0f34 64       		.sleb128 -28
 3928 0f35 00       		.byte	0
 3929 0f36 00       		.byte	0
 3930 0f37 1A       		.uleb128 0x1a
 3931 0f38 97000000 		.4byte	0x97
 3932 0f3c 470F0000 		.4byte	0xf47
 3933 0f40 1B       		.uleb128 0x1b
 3934 0f41 7D000000 		.4byte	0x7d
 3935 0f45 1E       		.byte	0x1e
 3936 0f46 00       		.byte	0
 3937 0f47 06       		.uleb128 0x6
 3938 0f48 370F0000 		.4byte	0xf37
 3939 0f4c 24       		.uleb128 0x24
 3940 0f4d 90030000 		.4byte	.LASF64
 3941 0f51 01       		.byte	0x1
 3942 0f52 B401     		.2byte	0x1b4
 3943 0f54 91000000 		.4byte	0x91
 3944 0f58 00000000 		.4byte	.LFB9
 3945 0f5c 44000000 		.4byte	.LFE9-.LFB9
 3946 0f60 01       		.uleb128 0x1
 3947 0f61 9C       		.byte	0x9c
 3948 0f62 F50F0000 		.4byte	0xff5
 3949 0f66 25       		.uleb128 0x25
ARM GAS  C:\Users\Phuong\AppData\Local\Temp\ccVjqX8s.s 			page 82


 3950 0f67 9B070000 		.4byte	.LASF51
 3951 0f6b 01       		.byte	0x1
 3952 0f6c B401     		.2byte	0x1b4
 3953 0f6e 37010000 		.4byte	0x137
 3954 0f72 3D0B0000 		.4byte	.LLST45
 3955 0f76 26       		.uleb128 0x26
 3956 0f77 3E000000 		.4byte	.LASF45
 3957 0f7b 01       		.byte	0x1
 3958 0f7c B601     		.2byte	0x1b6
 3959 0f7e 91000000 		.4byte	0x91
 3960 0f82 7F0B0000 		.4byte	.LLST46
 3961 0f86 12       		.uleb128 0x12
 3962 0f87 4F060000 		.4byte	.LASF48
 3963 0f8b F50F0000 		.4byte	0xff5
 3964 0f8f 05       		.uleb128 0x5
 3965 0f90 03       		.byte	0x3
 3966 0f91 CC000000 		.4byte	__func__.6297
 3967 0f95 1E       		.uleb128 0x1e
 3968 0f96 08000000 		.4byte	.LBB26
 3969 0f9a 20000000 		.4byte	.LBE26-.LBB26
 3970 0f9e 23       		.uleb128 0x23
 3971 0f9f 6C00     		.ascii	"l\000"
 3972 0fa1 01       		.byte	0x1
 3973 0fa2 BA01     		.2byte	0x1ba
 3974 0fa4 D5000000 		.4byte	0xd5
 3975 0fa8 9D0B0000 		.4byte	.LLST47
 3976 0fac 15       		.uleb128 0x15
 3977 0fad 0C000000 		.4byte	.LVL195
 3978 0fb1 6C140000 		.4byte	0x146c
 3979 0fb5 16       		.uleb128 0x16
 3980 0fb6 28000000 		.4byte	.LVL198
 3981 0fba 02       		.uleb128 0x2
 3982 0fbb 75       		.byte	0x75
 3983 0fbc 00       		.sleb128 0
 3984 0fbd 17       		.uleb128 0x17
 3985 0fbe 01       		.uleb128 0x1
 3986 0fbf 50       		.byte	0x50
 3987 0fc0 01       		.uleb128 0x1
 3988 0fc1 30       		.byte	0x30
 3989 0fc2 17       		.uleb128 0x17
 3990 0fc3 01       		.uleb128 0x1
 3991 0fc4 51       		.byte	0x51
 3992 0fc5 05       		.uleb128 0x5
 3993 0fc6 03       		.byte	0x3
 3994 0fc7 00000000 		.4byte	.LC1
 3995 0fcb 17       		.uleb128 0x17
 3996 0fcc 01       		.uleb128 0x1
 3997 0fcd 52       		.byte	0x52
 3998 0fce 05       		.uleb128 0x5
 3999 0fcf 03       		.byte	0x3
 4000 0fd0 CC000000 		.4byte	.LANCHOR1+76
 4001 0fd4 17       		.uleb128 0x17
 4002 0fd5 01       		.uleb128 0x1
 4003 0fd6 53       		.byte	0x53
 4004 0fd7 03       		.uleb128 0x3
 4005 0fd8 0A       		.byte	0xa
 4006 0fd9 BA01     		.2byte	0x1ba
ARM GAS  C:\Users\Phuong\AppData\Local\Temp\ccVjqX8s.s 			page 83


 4007 0fdb 17       		.uleb128 0x17
 4008 0fdc 02       		.uleb128 0x2
 4009 0fdd 7D       		.byte	0x7d
 4010 0fde 00       		.sleb128 0
 4011 0fdf 01       		.uleb128 0x1
 4012 0fe0 31       		.byte	0x31
 4013 0fe1 17       		.uleb128 0x17
 4014 0fe2 02       		.uleb128 0x2
 4015 0fe3 7D       		.byte	0x7d
 4016 0fe4 04       		.sleb128 4
 4017 0fe5 05       		.uleb128 0x5
 4018 0fe6 03       		.byte	0x3
 4019 0fe7 84010000 		.4byte	.LC29
 4020 0feb 17       		.uleb128 0x17
 4021 0fec 02       		.uleb128 0x2
 4022 0fed 7D       		.byte	0x7d
 4023 0fee 08       		.sleb128 8
 4024 0fef 02       		.uleb128 0x2
 4025 0ff0 74       		.byte	0x74
 4026 0ff1 00       		.sleb128 0
 4027 0ff2 00       		.byte	0
 4028 0ff3 00       		.byte	0
 4029 0ff4 00       		.byte	0
 4030 0ff5 06       		.uleb128 0x6
 4031 0ff6 370F0000 		.4byte	0xf37
 4032 0ffa 24       		.uleb128 0x24
 4033 0ffb 53000000 		.4byte	.LASF65
 4034 0fff 01       		.byte	0x1
 4035 1000 C501     		.2byte	0x1c5
 4036 1002 91000000 		.4byte	0x91
 4037 1006 00000000 		.4byte	.LFB10
 4038 100a 44000000 		.4byte	.LFE10-.LFB10
 4039 100e 01       		.uleb128 0x1
 4040 100f 9C       		.byte	0x9c
 4041 1010 A3100000 		.4byte	0x10a3
 4042 1014 25       		.uleb128 0x25
 4043 1015 9B070000 		.4byte	.LASF51
 4044 1019 01       		.byte	0x1
 4045 101a C501     		.2byte	0x1c5
 4046 101c 37010000 		.4byte	0x137
 4047 1020 C60B0000 		.4byte	.LLST48
 4048 1024 26       		.uleb128 0x26
 4049 1025 3E000000 		.4byte	.LASF45
 4050 1029 01       		.byte	0x1
 4051 102a C701     		.2byte	0x1c7
 4052 102c 91000000 		.4byte	0x91
 4053 1030 080C0000 		.4byte	.LLST49
 4054 1034 12       		.uleb128 0x12
 4055 1035 4F060000 		.4byte	.LASF48
 4056 1039 A3100000 		.4byte	0x10a3
 4057 103d 05       		.uleb128 0x5
 4058 103e 03       		.byte	0x3
 4059 103f EC000000 		.4byte	__func__.6305
 4060 1043 1E       		.uleb128 0x1e
 4061 1044 08000000 		.4byte	.LBB27
 4062 1048 20000000 		.4byte	.LBE27-.LBB27
 4063 104c 23       		.uleb128 0x23
ARM GAS  C:\Users\Phuong\AppData\Local\Temp\ccVjqX8s.s 			page 84


 4064 104d 6C00     		.ascii	"l\000"
 4065 104f 01       		.byte	0x1
 4066 1050 CB01     		.2byte	0x1cb
 4067 1052 D5000000 		.4byte	0xd5
 4068 1056 260C0000 		.4byte	.LLST50
 4069 105a 15       		.uleb128 0x15
 4070 105b 0C000000 		.4byte	.LVL205
 4071 105f 6C140000 		.4byte	0x146c
 4072 1063 16       		.uleb128 0x16
 4073 1064 28000000 		.4byte	.LVL208
 4074 1068 02       		.uleb128 0x2
 4075 1069 75       		.byte	0x75
 4076 106a 00       		.sleb128 0
 4077 106b 17       		.uleb128 0x17
 4078 106c 01       		.uleb128 0x1
 4079 106d 50       		.byte	0x50
 4080 106e 01       		.uleb128 0x1
 4081 106f 30       		.byte	0x30
 4082 1070 17       		.uleb128 0x17
 4083 1071 01       		.uleb128 0x1
 4084 1072 51       		.byte	0x51
 4085 1073 05       		.uleb128 0x5
 4086 1074 03       		.byte	0x3
 4087 1075 00000000 		.4byte	.LC1
 4088 1079 17       		.uleb128 0x17
 4089 107a 01       		.uleb128 0x1
 4090 107b 52       		.byte	0x52
 4091 107c 05       		.uleb128 0x5
 4092 107d 03       		.byte	0x3
 4093 107e EC000000 		.4byte	.LANCHOR1+108
 4094 1082 17       		.uleb128 0x17
 4095 1083 01       		.uleb128 0x1
 4096 1084 53       		.byte	0x53
 4097 1085 03       		.uleb128 0x3
 4098 1086 0A       		.byte	0xa
 4099 1087 CB01     		.2byte	0x1cb
 4100 1089 17       		.uleb128 0x17
 4101 108a 02       		.uleb128 0x2
 4102 108b 7D       		.byte	0x7d
 4103 108c 00       		.sleb128 0
 4104 108d 01       		.uleb128 0x1
 4105 108e 31       		.byte	0x31
 4106 108f 17       		.uleb128 0x17
 4107 1090 02       		.uleb128 0x2
 4108 1091 7D       		.byte	0x7d
 4109 1092 04       		.sleb128 4
 4110 1093 05       		.uleb128 0x5
 4111 1094 03       		.byte	0x3
 4112 1095 84010000 		.4byte	.LC29
 4113 1099 17       		.uleb128 0x17
 4114 109a 02       		.uleb128 0x2
 4115 109b 7D       		.byte	0x7d
 4116 109c 08       		.sleb128 8
 4117 109d 02       		.uleb128 0x2
 4118 109e 74       		.byte	0x74
 4119 109f 00       		.sleb128 0
 4120 10a0 00       		.byte	0
ARM GAS  C:\Users\Phuong\AppData\Local\Temp\ccVjqX8s.s 			page 85


 4121 10a1 00       		.byte	0
 4122 10a2 00       		.byte	0
 4123 10a3 06       		.uleb128 0x6
 4124 10a4 370F0000 		.4byte	0xf37
 4125 10a8 24       		.uleb128 0x24
 4126 10a9 76080000 		.4byte	.LASF66
 4127 10ad 01       		.byte	0x1
 4128 10ae D601     		.2byte	0x1d6
 4129 10b0 91000000 		.4byte	0x91
 4130 10b4 00000000 		.4byte	.LFB11
 4131 10b8 44000000 		.4byte	.LFE11-.LFB11
 4132 10bc 01       		.uleb128 0x1
 4133 10bd 9C       		.byte	0x9c
 4134 10be 51110000 		.4byte	0x1151
 4135 10c2 25       		.uleb128 0x25
 4136 10c3 9B070000 		.4byte	.LASF51
 4137 10c7 01       		.byte	0x1
 4138 10c8 D601     		.2byte	0x1d6
 4139 10ca 37010000 		.4byte	0x137
 4140 10ce 4F0C0000 		.4byte	.LLST51
 4141 10d2 26       		.uleb128 0x26
 4142 10d3 3E000000 		.4byte	.LASF45
 4143 10d7 01       		.byte	0x1
 4144 10d8 D801     		.2byte	0x1d8
 4145 10da 91000000 		.4byte	0x91
 4146 10de 910C0000 		.4byte	.LLST52
 4147 10e2 12       		.uleb128 0x12
 4148 10e3 4F060000 		.4byte	.LASF48
 4149 10e7 61110000 		.4byte	0x1161
 4150 10eb 05       		.uleb128 0x5
 4151 10ec 03       		.byte	0x3
 4152 10ed 0C010000 		.4byte	__func__.6313
 4153 10f1 1E       		.uleb128 0x1e
 4154 10f2 08000000 		.4byte	.LBB28
 4155 10f6 20000000 		.4byte	.LBE28-.LBB28
 4156 10fa 23       		.uleb128 0x23
 4157 10fb 6C00     		.ascii	"l\000"
 4158 10fd 01       		.byte	0x1
 4159 10fe DC01     		.2byte	0x1dc
 4160 1100 D5000000 		.4byte	0xd5
 4161 1104 AF0C0000 		.4byte	.LLST53
 4162 1108 15       		.uleb128 0x15
 4163 1109 0C000000 		.4byte	.LVL215
 4164 110d 6C140000 		.4byte	0x146c
 4165 1111 16       		.uleb128 0x16
 4166 1112 28000000 		.4byte	.LVL218
 4167 1116 02       		.uleb128 0x2
 4168 1117 75       		.byte	0x75
 4169 1118 00       		.sleb128 0
 4170 1119 17       		.uleb128 0x17
 4171 111a 01       		.uleb128 0x1
 4172 111b 50       		.byte	0x50
 4173 111c 01       		.uleb128 0x1
 4174 111d 30       		.byte	0x30
 4175 111e 17       		.uleb128 0x17
 4176 111f 01       		.uleb128 0x1
 4177 1120 51       		.byte	0x51
ARM GAS  C:\Users\Phuong\AppData\Local\Temp\ccVjqX8s.s 			page 86


 4178 1121 05       		.uleb128 0x5
 4179 1122 03       		.byte	0x3
 4180 1123 00000000 		.4byte	.LC1
 4181 1127 17       		.uleb128 0x17
 4182 1128 01       		.uleb128 0x1
 4183 1129 52       		.byte	0x52
 4184 112a 05       		.uleb128 0x5
 4185 112b 03       		.byte	0x3
 4186 112c 0C010000 		.4byte	.LANCHOR2+12
 4187 1130 17       		.uleb128 0x17
 4188 1131 01       		.uleb128 0x1
 4189 1132 53       		.byte	0x53
 4190 1133 03       		.uleb128 0x3
 4191 1134 0A       		.byte	0xa
 4192 1135 DC01     		.2byte	0x1dc
 4193 1137 17       		.uleb128 0x17
 4194 1138 02       		.uleb128 0x2
 4195 1139 7D       		.byte	0x7d
 4196 113a 00       		.sleb128 0
 4197 113b 01       		.uleb128 0x1
 4198 113c 31       		.byte	0x31
 4199 113d 17       		.uleb128 0x17
 4200 113e 02       		.uleb128 0x2
 4201 113f 7D       		.byte	0x7d
 4202 1140 04       		.sleb128 4
 4203 1141 05       		.uleb128 0x5
 4204 1142 03       		.byte	0x3
 4205 1143 84010000 		.4byte	.LC29
 4206 1147 17       		.uleb128 0x17
 4207 1148 02       		.uleb128 0x2
 4208 1149 7D       		.byte	0x7d
 4209 114a 08       		.sleb128 8
 4210 114b 02       		.uleb128 0x2
 4211 114c 74       		.byte	0x74
 4212 114d 00       		.sleb128 0
 4213 114e 00       		.byte	0
 4214 114f 00       		.byte	0
 4215 1150 00       		.byte	0
 4216 1151 1A       		.uleb128 0x1a
 4217 1152 97000000 		.4byte	0x97
 4218 1156 61110000 		.4byte	0x1161
 4219 115a 1B       		.uleb128 0x1b
 4220 115b 7D000000 		.4byte	0x7d
 4221 115f 1F       		.byte	0x1f
 4222 1160 00       		.byte	0
 4223 1161 06       		.uleb128 0x6
 4224 1162 51110000 		.4byte	0x1151
 4225 1166 24       		.uleb128 0x24
 4226 1167 6C030000 		.4byte	.LASF67
 4227 116b 01       		.byte	0x1
 4228 116c E701     		.2byte	0x1e7
 4229 116e 00020000 		.4byte	0x200
 4230 1172 00000000 		.4byte	.LFB12
 4231 1176 C0000000 		.4byte	.LFE12-.LFB12
 4232 117a 01       		.uleb128 0x1
 4233 117b 9C       		.byte	0x9c
 4234 117c 0E130000 		.4byte	0x130e
ARM GAS  C:\Users\Phuong\AppData\Local\Temp\ccVjqX8s.s 			page 87


 4235 1180 25       		.uleb128 0x25
 4236 1181 9B070000 		.4byte	.LASF51
 4237 1185 01       		.byte	0x1
 4238 1186 E701     		.2byte	0x1e7
 4239 1188 37010000 		.4byte	0x137
 4240 118c D80C0000 		.4byte	.LLST54
 4241 1190 26       		.uleb128 0x26
 4242 1191 3E000000 		.4byte	.LASF45
 4243 1195 01       		.byte	0x1
 4244 1196 E901     		.2byte	0x1e9
 4245 1198 00020000 		.4byte	0x200
 4246 119c 970D0000 		.4byte	.LLST55
 4247 11a0 12       		.uleb128 0x12
 4248 11a1 4F060000 		.4byte	.LASF48
 4249 11a5 1E130000 		.4byte	0x131e
 4250 11a9 05       		.uleb128 0x5
 4251 11aa 03       		.byte	0x3
 4252 11ab 2C010000 		.4byte	__func__.6321
 4253 11af 13       		.uleb128 0x13
 4254 11b0 08000000 		.4byte	.LBB29
 4255 11b4 22000000 		.4byte	.LBE29-.LBB29
 4256 11b8 12120000 		.4byte	0x1212
 4257 11bc 23       		.uleb128 0x23
 4258 11bd 6C00     		.ascii	"l\000"
 4259 11bf 01       		.byte	0x1
 4260 11c0 ED01     		.2byte	0x1ed
 4261 11c2 D5000000 		.4byte	0xd5
 4262 11c6 B50D0000 		.4byte	.LLST56
 4263 11ca 15       		.uleb128 0x15
 4264 11cb 0C000000 		.4byte	.LVL225
 4265 11cf 6C140000 		.4byte	0x146c
 4266 11d3 16       		.uleb128 0x16
 4267 11d4 28000000 		.4byte	.LVL228
 4268 11d8 02       		.uleb128 0x2
 4269 11d9 75       		.byte	0x75
 4270 11da 00       		.sleb128 0
 4271 11db 17       		.uleb128 0x17
 4272 11dc 01       		.uleb128 0x1
 4273 11dd 50       		.byte	0x50
 4274 11de 01       		.uleb128 0x1
 4275 11df 30       		.byte	0x30
 4276 11e0 17       		.uleb128 0x17
 4277 11e1 01       		.uleb128 0x1
 4278 11e2 51       		.byte	0x51
 4279 11e3 05       		.uleb128 0x5
 4280 11e4 03       		.byte	0x3
 4281 11e5 00000000 		.4byte	.LC1
 4282 11e9 17       		.uleb128 0x17
 4283 11ea 01       		.uleb128 0x1
 4284 11eb 52       		.byte	0x52
 4285 11ec 05       		.uleb128 0x5
 4286 11ed 03       		.byte	0x3
 4287 11ee 2C010000 		.4byte	.LANCHOR2+44
 4288 11f2 17       		.uleb128 0x17
 4289 11f3 01       		.uleb128 0x1
 4290 11f4 53       		.byte	0x53
 4291 11f5 03       		.uleb128 0x3
ARM GAS  C:\Users\Phuong\AppData\Local\Temp\ccVjqX8s.s 			page 88


 4292 11f6 0A       		.byte	0xa
 4293 11f7 ED01     		.2byte	0x1ed
 4294 11f9 17       		.uleb128 0x17
 4295 11fa 02       		.uleb128 0x2
 4296 11fb 7D       		.byte	0x7d
 4297 11fc 00       		.sleb128 0
 4298 11fd 01       		.uleb128 0x1
 4299 11fe 31       		.byte	0x31
 4300 11ff 17       		.uleb128 0x17
 4301 1200 02       		.uleb128 0x2
 4302 1201 7D       		.byte	0x7d
 4303 1202 04       		.sleb128 4
 4304 1203 05       		.uleb128 0x5
 4305 1204 03       		.byte	0x3
 4306 1205 84010000 		.4byte	.LC29
 4307 1209 17       		.uleb128 0x17
 4308 120a 02       		.uleb128 0x2
 4309 120b 7D       		.byte	0x7d
 4310 120c 08       		.sleb128 8
 4311 120d 02       		.uleb128 0x2
 4312 120e 74       		.byte	0x74
 4313 120f 00       		.sleb128 0
 4314 1210 00       		.byte	0
 4315 1211 00       		.byte	0
 4316 1212 13       		.uleb128 0x13
 4317 1213 36000000 		.4byte	.LBB30
 4318 1217 1E000000 		.4byte	.LBE30-.LBB30
 4319 121b 6E120000 		.4byte	0x126e
 4320 121f 23       		.uleb128 0x23
 4321 1220 6C00     		.ascii	"l\000"
 4322 1222 01       		.byte	0x1
 4323 1223 F701     		.2byte	0x1f7
 4324 1225 D5000000 		.4byte	0xd5
 4325 1229 DE0D0000 		.4byte	.LLST57
 4326 122d 15       		.uleb128 0x15
 4327 122e 3A000000 		.4byte	.LVL231
 4328 1232 6C140000 		.4byte	0x146c
 4329 1236 16       		.uleb128 0x16
 4330 1237 54000000 		.4byte	.LVL234
 4331 123b 02       		.uleb128 0x2
 4332 123c 74       		.byte	0x74
 4333 123d 00       		.sleb128 0
 4334 123e 17       		.uleb128 0x17
 4335 123f 01       		.uleb128 0x1
 4336 1240 50       		.byte	0x50
 4337 1241 01       		.uleb128 0x1
 4338 1242 30       		.byte	0x30
 4339 1243 17       		.uleb128 0x17
 4340 1244 01       		.uleb128 0x1
 4341 1245 51       		.byte	0x51
 4342 1246 05       		.uleb128 0x5
 4343 1247 03       		.byte	0x3
 4344 1248 00000000 		.4byte	.LC1
 4345 124c 17       		.uleb128 0x17
 4346 124d 01       		.uleb128 0x1
 4347 124e 52       		.byte	0x52
 4348 124f 05       		.uleb128 0x5
ARM GAS  C:\Users\Phuong\AppData\Local\Temp\ccVjqX8s.s 			page 89


 4349 1250 03       		.byte	0x3
 4350 1251 2C010000 		.4byte	.LANCHOR2+44
 4351 1255 17       		.uleb128 0x17
 4352 1256 01       		.uleb128 0x1
 4353 1257 53       		.byte	0x53
 4354 1258 03       		.uleb128 0x3
 4355 1259 0A       		.byte	0xa
 4356 125a F701     		.2byte	0x1f7
 4357 125c 17       		.uleb128 0x17
 4358 125d 02       		.uleb128 0x2
 4359 125e 7D       		.byte	0x7d
 4360 125f 00       		.sleb128 0
 4361 1260 01       		.uleb128 0x1
 4362 1261 31       		.byte	0x31
 4363 1262 17       		.uleb128 0x17
 4364 1263 02       		.uleb128 0x2
 4365 1264 7D       		.byte	0x7d
 4366 1265 04       		.sleb128 4
 4367 1266 05       		.uleb128 0x5
 4368 1267 03       		.byte	0x3
 4369 1268 90020000 		.4byte	.LC61
 4370 126c 00       		.byte	0
 4371 126d 00       		.byte	0
 4372 126e 28       		.uleb128 0x28
 4373 126f 00000000 		.4byte	.Ldebug_ranges0+0
 4374 1273 26       		.uleb128 0x26
 4375 1274 14080000 		.4byte	.LASF68
 4376 1278 01       		.byte	0x1
 4377 1279 FD01     		.2byte	0x1fd
 4378 127b 0B010000 		.4byte	0x10b
 4379 127f 070E0000 		.4byte	.LLST58
 4380 1283 13       		.uleb128 0x13
 4381 1284 76000000 		.4byte	.LBB32
 4382 1288 1E000000 		.4byte	.LBE32-.LBB32
 4383 128c DF120000 		.4byte	0x12df
 4384 1290 23       		.uleb128 0x23
 4385 1291 6C00     		.ascii	"l\000"
 4386 1293 01       		.byte	0x1
 4387 1294 0C02     		.2byte	0x20c
 4388 1296 D5000000 		.4byte	0xd5
 4389 129a 460E0000 		.4byte	.LLST59
 4390 129e 15       		.uleb128 0x15
 4391 129f 7A000000 		.4byte	.LVL245
 4392 12a3 6C140000 		.4byte	0x146c
 4393 12a7 16       		.uleb128 0x16
 4394 12a8 94000000 		.4byte	.LVL248
 4395 12ac 02       		.uleb128 0x2
 4396 12ad 74       		.byte	0x74
 4397 12ae 00       		.sleb128 0
 4398 12af 17       		.uleb128 0x17
 4399 12b0 01       		.uleb128 0x1
 4400 12b1 50       		.byte	0x50
 4401 12b2 01       		.uleb128 0x1
 4402 12b3 30       		.byte	0x30
 4403 12b4 17       		.uleb128 0x17
 4404 12b5 01       		.uleb128 0x1
 4405 12b6 51       		.byte	0x51
ARM GAS  C:\Users\Phuong\AppData\Local\Temp\ccVjqX8s.s 			page 90


 4406 12b7 05       		.uleb128 0x5
 4407 12b8 03       		.byte	0x3
 4408 12b9 00000000 		.4byte	.LC1
 4409 12bd 17       		.uleb128 0x17
 4410 12be 01       		.uleb128 0x1
 4411 12bf 52       		.byte	0x52
 4412 12c0 05       		.uleb128 0x5
 4413 12c1 03       		.byte	0x3
 4414 12c2 2C010000 		.4byte	.LANCHOR2+44
 4415 12c6 17       		.uleb128 0x17
 4416 12c7 01       		.uleb128 0x1
 4417 12c8 53       		.byte	0x53
 4418 12c9 03       		.uleb128 0x3
 4419 12ca 0A       		.byte	0xa
 4420 12cb 0C02     		.2byte	0x20c
 4421 12cd 17       		.uleb128 0x17
 4422 12ce 02       		.uleb128 0x2
 4423 12cf 7D       		.byte	0x7d
 4424 12d0 00       		.sleb128 0
 4425 12d1 01       		.uleb128 0x1
 4426 12d2 31       		.byte	0x31
 4427 12d3 17       		.uleb128 0x17
 4428 12d4 02       		.uleb128 0x2
 4429 12d5 7D       		.byte	0x7d
 4430 12d6 04       		.sleb128 4
 4431 12d7 05       		.uleb128 0x5
 4432 12d8 03       		.byte	0x3
 4433 12d9 B4020000 		.4byte	.LC63
 4434 12dd 00       		.byte	0
 4435 12de 00       		.byte	0
 4436 12df 15       		.uleb128 0x15
 4437 12e0 5C000000 		.4byte	.LVL237
 4438 12e4 D8140000 		.4byte	0x14d8
 4439 12e8 18       		.uleb128 0x18
 4440 12e9 64000000 		.4byte	.LVL239
 4441 12ed E3140000 		.4byte	0x14e3
 4442 12f1 FC120000 		.4byte	0x12fc
 4443 12f5 17       		.uleb128 0x17
 4444 12f6 01       		.uleb128 0x1
 4445 12f7 50       		.byte	0x50
 4446 12f8 02       		.uleb128 0x2
 4447 12f9 75       		.byte	0x75
 4448 12fa 00       		.sleb128 0
 4449 12fb 00       		.byte	0
 4450 12fc 19       		.uleb128 0x19
 4451 12fd 74000000 		.4byte	.LVL243
 4452 1301 CD140000 		.4byte	0x14cd
 4453 1305 17       		.uleb128 0x17
 4454 1306 01       		.uleb128 0x1
 4455 1307 50       		.byte	0x50
 4456 1308 02       		.uleb128 0x2
 4457 1309 75       		.byte	0x75
 4458 130a 00       		.sleb128 0
 4459 130b 00       		.byte	0
 4460 130c 00       		.byte	0
 4461 130d 00       		.byte	0
 4462 130e 1A       		.uleb128 0x1a
ARM GAS  C:\Users\Phuong\AppData\Local\Temp\ccVjqX8s.s 			page 91


 4463 130f 97000000 		.4byte	0x97
 4464 1313 1E130000 		.4byte	0x131e
 4465 1317 1B       		.uleb128 0x1b
 4466 1318 7D000000 		.4byte	0x7d
 4467 131c 23       		.byte	0x23
 4468 131d 00       		.byte	0
 4469 131e 06       		.uleb128 0x6
 4470 131f 0E130000 		.4byte	0x130e
 4471 1323 22       		.uleb128 0x22
 4472 1324 3A070000 		.4byte	.LASF69
 4473 1328 08       		.byte	0x8
 4474 1329 16       		.byte	0x16
 4475 132a 35130000 		.4byte	0x1335
 4476 132e 06       		.uleb128 0x6
 4477 132f F2       		.byte	0xf2
 4478 1330 EE140000 		.4byte	.Ldebug_info0+5358
 4479 1334 00       		.sleb128 0
 4480 1335 06       		.uleb128 0x6
 4481 1336 91000000 		.4byte	0x91
 4482 133a 22       		.uleb128 0x22
 4483 133b 62080000 		.4byte	.LASF70
 4484 133f 08       		.byte	0x8
 4485 1340 17       		.byte	0x17
 4486 1341 35130000 		.4byte	0x1335
 4487 1345 06       		.uleb128 0x6
 4488 1346 F2       		.byte	0xf2
 4489 1347 FD140000 		.4byte	.Ldebug_info0+5373
 4490 134b 00       		.sleb128 0
 4491 134c 22       		.uleb128 0x22
 4492 134d 01030000 		.4byte	.LASF71
 4493 1351 08       		.byte	0x8
 4494 1352 19       		.byte	0x19
 4495 1353 35130000 		.4byte	0x1335
 4496 1357 06       		.uleb128 0x6
 4497 1358 F2       		.byte	0xf2
 4498 1359 09150000 		.4byte	.Ldebug_info0+5385
 4499 135d 00       		.sleb128 0
 4500 135e 22       		.uleb128 0x22
 4501 135f 6A070000 		.4byte	.LASF72
 4502 1363 08       		.byte	0x8
 4503 1364 1D       		.byte	0x1d
 4504 1365 35130000 		.4byte	0x1335
 4505 1369 06       		.uleb128 0x6
 4506 136a F2       		.byte	0xf2
 4507 136b 1A150000 		.4byte	.Ldebug_info0+5402
 4508 136f 00       		.sleb128 0
 4509 1370 22       		.uleb128 0x22
 4510 1371 B5080000 		.4byte	.LASF73
 4511 1375 08       		.byte	0x8
 4512 1376 1F       		.byte	0x1f
 4513 1377 35130000 		.4byte	0x1335
 4514 137b 06       		.uleb128 0x6
 4515 137c F2       		.byte	0xf2
 4516 137d 2A150000 		.4byte	.Ldebug_info0+5418
 4517 1381 00       		.sleb128 0
 4518 1382 22       		.uleb128 0x22
 4519 1383 AB020000 		.4byte	.LASF74
ARM GAS  C:\Users\Phuong\AppData\Local\Temp\ccVjqX8s.s 			page 92


 4520 1387 08       		.byte	0x8
 4521 1388 20       		.byte	0x20
 4522 1389 35130000 		.4byte	0x1335
 4523 138d 06       		.uleb128 0x6
 4524 138e F2       		.byte	0xf2
 4525 138f 3E150000 		.4byte	.Ldebug_info0+5438
 4526 1393 00       		.sleb128 0
 4527 1394 22       		.uleb128 0x22
 4528 1395 DD030000 		.4byte	.LASF75
 4529 1399 08       		.byte	0x8
 4530 139a 22       		.byte	0x22
 4531 139b 35130000 		.4byte	0x1335
 4532 139f 06       		.uleb128 0x6
 4533 13a0 F2       		.byte	0xf2
 4534 13a1 51150000 		.4byte	.Ldebug_info0+5457
 4535 13a5 00       		.sleb128 0
 4536 13a6 22       		.uleb128 0x22
 4537 13a7 FE080000 		.4byte	.LASF76
 4538 13ab 08       		.byte	0x8
 4539 13ac 23       		.byte	0x23
 4540 13ad 35130000 		.4byte	0x1335
 4541 13b1 06       		.uleb128 0x6
 4542 13b2 F2       		.byte	0xf2
 4543 13b3 68150000 		.4byte	.Ldebug_info0+5480
 4544 13b7 00       		.sleb128 0
 4545 13b8 22       		.uleb128 0x22
 4546 13b9 65060000 		.4byte	.LASF77
 4547 13bd 08       		.byte	0x8
 4548 13be 25       		.byte	0x25
 4549 13bf 35130000 		.4byte	0x1335
 4550 13c3 06       		.uleb128 0x6
 4551 13c4 F2       		.byte	0xf2
 4552 13c5 7C150000 		.4byte	.Ldebug_info0+5500
 4553 13c9 00       		.sleb128 0
 4554 13ca 22       		.uleb128 0x22
 4555 13cb 1F070000 		.4byte	.LASF78
 4556 13cf 08       		.byte	0x8
 4557 13d0 26       		.byte	0x26
 4558 13d1 35130000 		.4byte	0x1335
 4559 13d5 06       		.uleb128 0x6
 4560 13d6 F2       		.byte	0xf2
 4561 13d7 98150000 		.4byte	.Ldebug_info0+5528
 4562 13db 00       		.sleb128 0
 4563 13dc 22       		.uleb128 0x22
 4564 13dd FA070000 		.4byte	.LASF79
 4565 13e1 08       		.byte	0x8
 4566 13e2 27       		.byte	0x27
 4567 13e3 35130000 		.4byte	0x1335
 4568 13e7 06       		.uleb128 0x6
 4569 13e8 F2       		.byte	0xf2
 4570 13e9 B3150000 		.4byte	.Ldebug_info0+5555
 4571 13ed 00       		.sleb128 0
 4572 13ee 22       		.uleb128 0x22
 4573 13ef 20080000 		.4byte	.LASF80
 4574 13f3 08       		.byte	0x8
 4575 13f4 28       		.byte	0x28
 4576 13f5 35130000 		.4byte	0x1335
ARM GAS  C:\Users\Phuong\AppData\Local\Temp\ccVjqX8s.s 			page 93


 4577 13f9 06       		.uleb128 0x6
 4578 13fa F2       		.byte	0xf2
 4579 13fb CD150000 		.4byte	.Ldebug_info0+5581
 4580 13ff 00       		.sleb128 0
 4581 1400 22       		.uleb128 0x22
 4582 1401 23020000 		.4byte	.LASF81
 4583 1405 08       		.byte	0x8
 4584 1406 29       		.byte	0x29
 4585 1407 35130000 		.4byte	0x1335
 4586 140b 06       		.uleb128 0x6
 4587 140c F2       		.byte	0xf2
 4588 140d E6150000 		.4byte	.Ldebug_info0+5606
 4589 1411 00       		.sleb128 0
 4590 1412 22       		.uleb128 0x22
 4591 1413 60020000 		.4byte	.LASF82
 4592 1417 08       		.byte	0x8
 4593 1418 2B       		.byte	0x2b
 4594 1419 35130000 		.4byte	0x1335
 4595 141d 06       		.uleb128 0x6
 4596 141e F2       		.byte	0xf2
 4597 141f FA150000 		.4byte	.Ldebug_info0+5626
 4598 1423 00       		.sleb128 0
 4599 1424 22       		.uleb128 0x22
 4600 1425 4B030000 		.4byte	.LASF83
 4601 1429 08       		.byte	0x8
 4602 142a 2D       		.byte	0x2d
 4603 142b 35130000 		.4byte	0x1335
 4604 142f 06       		.uleb128 0x6
 4605 1430 F2       		.byte	0xf2
 4606 1431 18160000 		.4byte	.Ldebug_info0+5656
 4607 1435 00       		.sleb128 0
 4608 1436 22       		.uleb128 0x22
 4609 1437 D3050000 		.4byte	.LASF84
 4610 143b 08       		.byte	0x8
 4611 143c 2F       		.byte	0x2f
 4612 143d 35130000 		.4byte	0x1335
 4613 1441 06       		.uleb128 0x6
 4614 1442 F2       		.byte	0xf2
 4615 1443 28160000 		.4byte	.Ldebug_info0+5672
 4616 1447 00       		.sleb128 0
 4617 1448 22       		.uleb128 0x22
 4618 1449 D8070000 		.4byte	.LASF85
 4619 144d 08       		.byte	0x8
 4620 144e 30       		.byte	0x30
 4621 144f 35130000 		.4byte	0x1335
 4622 1453 06       		.uleb128 0x6
 4623 1454 F2       		.byte	0xf2
 4624 1455 39160000 		.4byte	.Ldebug_info0+5689
 4625 1459 00       		.sleb128 0
 4626 145a 22       		.uleb128 0x22
 4627 145b B6030000 		.4byte	.LASF86
 4628 145f 08       		.byte	0x8
 4629 1460 31       		.byte	0x31
 4630 1461 35130000 		.4byte	0x1335
 4631 1465 06       		.uleb128 0x6
 4632 1466 F2       		.byte	0xf2
 4633 1467 4B160000 		.4byte	.Ldebug_info0+5707
ARM GAS  C:\Users\Phuong\AppData\Local\Temp\ccVjqX8s.s 			page 94


 4634 146b 00       		.sleb128 0
 4635 146c 29       		.uleb128 0x29
 4636 146d 24000000 		.4byte	.LASF87
 4637 1471 24000000 		.4byte	.LASF87
 4638 1475 04       		.byte	0x4
 4639 1476 9D       		.byte	0x9d
 4640 1477 29       		.uleb128 0x29
 4641 1478 A2070000 		.4byte	.LASF88
 4642 147c A2070000 		.4byte	.LASF88
 4643 1480 09       		.byte	0x9
 4644 1481 1C       		.byte	0x1c
 4645 1482 29       		.uleb128 0x29
 4646 1483 55080000 		.4byte	.LASF89
 4647 1487 55080000 		.4byte	.LASF89
 4648 148b 09       		.byte	0x9
 4649 148c 39       		.byte	0x39
 4650 148d 29       		.uleb128 0x29
 4651 148e 1C010000 		.4byte	.LASF90
 4652 1492 1C010000 		.4byte	.LASF90
 4653 1496 0A       		.byte	0xa
 4654 1497 64       		.byte	0x64
 4655 1498 2A       		.uleb128 0x2a
 4656 1499 AF030000 		.4byte	.LASF104
 4657 149d AF030000 		.4byte	.LASF104
 4658 14a1 29       		.uleb128 0x29
 4659 14a2 4E020000 		.4byte	.LASF91
 4660 14a6 4E020000 		.4byte	.LASF91
 4661 14aa 0B       		.byte	0xb
 4662 14ab 6E       		.byte	0x6e
 4663 14ac 29       		.uleb128 0x29
 4664 14ad 2D030000 		.4byte	.LASF92
 4665 14b1 2D030000 		.4byte	.LASF92
 4666 14b5 0A       		.byte	0xa
 4667 14b6 59       		.byte	0x59
 4668 14b7 29       		.uleb128 0x29
 4669 14b8 F4050000 		.4byte	.LASF93
 4670 14bc F4050000 		.4byte	.LASF93
 4671 14c0 0C       		.byte	0xc
 4672 14c1 11       		.byte	0x11
 4673 14c2 29       		.uleb128 0x29
 4674 14c3 EA060000 		.4byte	.LASF94
 4675 14c7 EA060000 		.4byte	.LASF94
 4676 14cb 0D       		.byte	0xd
 4677 14cc 20       		.byte	0x20
 4678 14cd 29       		.uleb128 0x29
 4679 14ce F7060000 		.4byte	.LASF95
 4680 14d2 F7060000 		.4byte	.LASF95
 4681 14d6 0D       		.byte	0xd
 4682 14d7 1A       		.byte	0x1a
 4683 14d8 29       		.uleb128 0x29
 4684 14d9 C3060000 		.4byte	.LASF96
 4685 14dd C3060000 		.4byte	.LASF96
 4686 14e1 0D       		.byte	0xd
 4687 14e2 14       		.byte	0x14
 4688 14e3 29       		.uleb128 0x29
 4689 14e4 F9040000 		.4byte	.LASF97
 4690 14e8 F9040000 		.4byte	.LASF97
ARM GAS  C:\Users\Phuong\AppData\Local\Temp\ccVjqX8s.s 			page 95


 4691 14ec 0C       		.byte	0xc
 4692 14ed 0F       		.byte	0xf
 4693 14ee 2B       		.uleb128 0x2b
 4694 14ef 0D       		.uleb128 0xd
 4695 14f0 9E       		.byte	0x9e
 4696 14f1 0B       		.uleb128 0xb
 4697 14f2 70       		.byte	0x70
 4698 14f3 72       		.byte	0x72
 4699 14f4 6F       		.byte	0x6f
 4700 14f5 78       		.byte	0x78
 4701 14f6 79       		.byte	0x79
 4702 14f7 5F       		.byte	0x5f
 4703 14f8 64       		.byte	0x64
 4704 14f9 61       		.byte	0x61
 4705 14fa 74       		.byte	0x74
 4706 14fb 61       		.byte	0x61
 4707 14fc 00       		.byte	0
 4708 14fd 2B       		.uleb128 0x2b
 4709 14fe 0A       		.uleb128 0xa
 4710 14ff 9E       		.byte	0x9e
 4711 1500 08       		.uleb128 0x8
 4712 1501 74       		.byte	0x74
 4713 1502 69       		.byte	0x69
 4714 1503 6D       		.byte	0x6d
 4715 1504 65       		.byte	0x65
 4716 1505 6F       		.byte	0x6f
 4717 1506 75       		.byte	0x75
 4718 1507 74       		.byte	0x74
 4719 1508 00       		.byte	0
 4720 1509 2B       		.uleb128 0x2b
 4721 150a 0F       		.uleb128 0xf
 4722 150b 9E       		.byte	0x9e
 4723 150c 0D       		.uleb128 0xd
 4724 150d 54       		.byte	0x54
 4725 150e 72       		.byte	0x72
 4726 150f 75       		.byte	0x75
 4727 1510 73       		.byte	0x73
 4728 1511 74       		.byte	0x74
 4729 1512 65       		.byte	0x65
 4730 1513 64       		.byte	0x64
 4731 1514 43       		.byte	0x43
 4732 1515 65       		.byte	0x65
 4733 1516 72       		.byte	0x72
 4734 1517 74       		.byte	0x74
 4735 1518 73       		.byte	0x73
 4736 1519 00       		.byte	0
 4737 151a 2B       		.uleb128 0x2b
 4738 151b 0E       		.uleb128 0xe
 4739 151c 9E       		.byte	0x9e
 4740 151d 0C       		.uleb128 0xc
 4741 151e 43       		.byte	0x43
 4742 151f 69       		.byte	0x69
 4743 1520 70       		.byte	0x70
 4744 1521 68       		.byte	0x68
 4745 1522 65       		.byte	0x65
 4746 1523 72       		.byte	0x72
 4747 1524 53       		.byte	0x53
ARM GAS  C:\Users\Phuong\AppData\Local\Temp\ccVjqX8s.s 			page 96


 4748 1525 75       		.byte	0x75
 4749 1526 69       		.byte	0x69
 4750 1527 74       		.byte	0x74
 4751 1528 65       		.byte	0x65
 4752 1529 00       		.byte	0
 4753 152a 2B       		.uleb128 0x2b
 4754 152b 12       		.uleb128 0x12
 4755 152c 9E       		.byte	0x9e
 4756 152d 10       		.uleb128 0x10
 4757 152e 78       		.byte	0x78
 4758 152f 35       		.byte	0x35
 4759 1530 30       		.byte	0x30
 4760 1531 39       		.byte	0x39
 4761 1532 63       		.byte	0x63
 4762 1533 65       		.byte	0x65
 4763 1534 72       		.byte	0x72
 4764 1535 74       		.byte	0x74
 4765 1536 69       		.byte	0x69
 4766 1537 66       		.byte	0x66
 4767 1538 69       		.byte	0x69
 4768 1539 63       		.byte	0x63
 4769 153a 61       		.byte	0x61
 4770 153b 74       		.byte	0x74
 4771 153c 65       		.byte	0x65
 4772 153d 00       		.byte	0
 4773 153e 2B       		.uleb128 0x2b
 4774 153f 11       		.uleb128 0x11
 4775 1540 9E       		.byte	0x9e
 4776 1541 0F       		.uleb128 0xf
 4777 1542 78       		.byte	0x78
 4778 1543 35       		.byte	0x35
 4779 1544 30       		.byte	0x30
 4780 1545 39       		.byte	0x39
 4781 1546 70       		.byte	0x70
 4782 1547 72       		.byte	0x72
 4783 1548 69       		.byte	0x69
 4784 1549 76       		.byte	0x76
 4785 154a 61       		.byte	0x61
 4786 154b 74       		.byte	0x74
 4787 154c 65       		.byte	0x65
 4788 154d 6B       		.byte	0x6b
 4789 154e 65       		.byte	0x65
 4790 154f 79       		.byte	0x79
 4791 1550 00       		.byte	0
 4792 1551 2B       		.uleb128 0x2b
 4793 1552 15       		.uleb128 0x15
 4794 1553 9E       		.byte	0x9e
 4795 1554 13       		.uleb128 0x13
 4796 1555 78       		.byte	0x78
 4797 1556 35       		.byte	0x35
 4798 1557 30       		.byte	0x30
 4799 1558 39       		.byte	0x39
 4800 1559 45       		.byte	0x45
 4801 155a 63       		.byte	0x63
 4802 155b 63       		.byte	0x63
 4803 155c 43       		.byte	0x43
 4804 155d 65       		.byte	0x65
ARM GAS  C:\Users\Phuong\AppData\Local\Temp\ccVjqX8s.s 			page 97


 4805 155e 72       		.byte	0x72
 4806 155f 74       		.byte	0x74
 4807 1560 69       		.byte	0x69
 4808 1561 66       		.byte	0x66
 4809 1562 69       		.byte	0x69
 4810 1563 63       		.byte	0x63
 4811 1564 61       		.byte	0x61
 4812 1565 74       		.byte	0x74
 4813 1566 65       		.byte	0x65
 4814 1567 00       		.byte	0
 4815 1568 2B       		.uleb128 0x2b
 4816 1569 12       		.uleb128 0x12
 4817 156a 9E       		.byte	0x9e
 4818 156b 10       		.uleb128 0x10
 4819 156c 78       		.byte	0x78
 4820 156d 35       		.byte	0x35
 4821 156e 30       		.byte	0x30
 4822 156f 39       		.byte	0x39
 4823 1570 45       		.byte	0x45
 4824 1571 63       		.byte	0x63
 4825 1572 63       		.byte	0x63
 4826 1573 41       		.byte	0x41
 4827 1574 6C       		.byte	0x6c
 4828 1575 69       		.byte	0x69
 4829 1576 61       		.byte	0x61
 4830 1577 73       		.byte	0x73
 4831 1578 4B       		.byte	0x4b
 4832 1579 65       		.byte	0x65
 4833 157a 79       		.byte	0x79
 4834 157b 00       		.byte	0
 4835 157c 2B       		.uleb128 0x2b
 4836 157d 1A       		.uleb128 0x1a
 4837 157e 9E       		.byte	0x9e
 4838 157f 18       		.uleb128 0x18
 4839 1580 43       		.byte	0x43
 4840 1581 55       		.byte	0x55
 4841 1582 52       		.byte	0x52
 4842 1583 4C       		.byte	0x4c
 4843 1584 4F       		.byte	0x4f
 4844 1585 50       		.byte	0x50
 4845 1586 54       		.byte	0x54
 4846 1587 5F       		.byte	0x5f
 4847 1588 4C       		.byte	0x4c
 4848 1589 4F       		.byte	0x4f
 4849 158a 57       		.byte	0x57
 4850 158b 5F       		.byte	0x5f
 4851 158c 53       		.byte	0x53
 4852 158d 50       		.byte	0x50
 4853 158e 45       		.byte	0x45
 4854 158f 45       		.byte	0x45
 4855 1590 44       		.byte	0x44
 4856 1591 5F       		.byte	0x5f
 4857 1592 4C       		.byte	0x4c
 4858 1593 49       		.byte	0x49
 4859 1594 4D       		.byte	0x4d
 4860 1595 49       		.byte	0x49
 4861 1596 54       		.byte	0x54
ARM GAS  C:\Users\Phuong\AppData\Local\Temp\ccVjqX8s.s 			page 98


 4862 1597 00       		.byte	0
 4863 1598 2B       		.uleb128 0x2b
 4864 1599 19       		.uleb128 0x19
 4865 159a 9E       		.byte	0x9e
 4866 159b 17       		.uleb128 0x17
 4867 159c 43       		.byte	0x43
 4868 159d 55       		.byte	0x55
 4869 159e 52       		.byte	0x52
 4870 159f 4C       		.byte	0x4c
 4871 15a0 4F       		.byte	0x4f
 4872 15a1 50       		.byte	0x50
 4873 15a2 54       		.byte	0x54
 4874 15a3 5F       		.byte	0x5f
 4875 15a4 4C       		.byte	0x4c
 4876 15a5 4F       		.byte	0x4f
 4877 15a6 57       		.byte	0x57
 4878 15a7 5F       		.byte	0x5f
 4879 15a8 53       		.byte	0x53
 4880 15a9 50       		.byte	0x50
 4881 15aa 45       		.byte	0x45
 4882 15ab 45       		.byte	0x45
 4883 15ac 44       		.byte	0x44
 4884 15ad 5F       		.byte	0x5f
 4885 15ae 54       		.byte	0x54
 4886 15af 49       		.byte	0x49
 4887 15b0 4D       		.byte	0x4d
 4888 15b1 45       		.byte	0x45
 4889 15b2 00       		.byte	0
 4890 15b3 2B       		.uleb128 0x2b
 4891 15b4 18       		.uleb128 0x18
 4892 15b5 9E       		.byte	0x9e
 4893 15b6 16       		.uleb128 0x16
 4894 15b7 43       		.byte	0x43
 4895 15b8 55       		.byte	0x55
 4896 15b9 52       		.byte	0x52
 4897 15ba 4C       		.byte	0x4c
 4898 15bb 4F       		.byte	0x4f
 4899 15bc 50       		.byte	0x50
 4900 15bd 54       		.byte	0x54
 4901 15be 5F       		.byte	0x5f
 4902 15bf 46       		.byte	0x46
 4903 15c0 52       		.byte	0x52
 4904 15c1 45       		.byte	0x45
 4905 15c2 53       		.byte	0x53
 4906 15c3 48       		.byte	0x48
 4907 15c4 5F       		.byte	0x5f
 4908 15c5 43       		.byte	0x43
 4909 15c6 4F       		.byte	0x4f
 4910 15c7 4E       		.byte	0x4e
 4911 15c8 4E       		.byte	0x4e
 4912 15c9 45       		.byte	0x45
 4913 15ca 43       		.byte	0x43
 4914 15cb 54       		.byte	0x54
 4915 15cc 00       		.byte	0
 4916 15cd 2B       		.uleb128 0x2b
 4917 15ce 17       		.uleb128 0x17
 4918 15cf 9E       		.byte	0x9e
ARM GAS  C:\Users\Phuong\AppData\Local\Temp\ccVjqX8s.s 			page 99


 4919 15d0 15       		.uleb128 0x15
 4920 15d1 43       		.byte	0x43
 4921 15d2 55       		.byte	0x55
 4922 15d3 52       		.byte	0x52
 4923 15d4 4C       		.byte	0x4c
 4924 15d5 4F       		.byte	0x4f
 4925 15d6 50       		.byte	0x50
 4926 15d7 54       		.byte	0x54
 4927 15d8 5F       		.byte	0x5f
 4928 15d9 46       		.byte	0x46
 4929 15da 4F       		.byte	0x4f
 4930 15db 52       		.byte	0x52
 4931 15dc 42       		.byte	0x42
 4932 15dd 49       		.byte	0x49
 4933 15de 44       		.byte	0x44
 4934 15df 5F       		.byte	0x5f
 4935 15e0 52       		.byte	0x52
 4936 15e1 45       		.byte	0x45
 4937 15e2 55       		.byte	0x55
 4938 15e3 53       		.byte	0x53
 4939 15e4 45       		.byte	0x45
 4940 15e5 00       		.byte	0
 4941 15e6 2B       		.uleb128 0x2b
 4942 15e7 12       		.uleb128 0x12
 4943 15e8 9E       		.byte	0x9e
 4944 15e9 10       		.uleb128 0x10
 4945 15ea 43       		.byte	0x43
 4946 15eb 55       		.byte	0x55
 4947 15ec 52       		.byte	0x52
 4948 15ed 4C       		.byte	0x4c
 4949 15ee 4F       		.byte	0x4f
 4950 15ef 50       		.byte	0x50
 4951 15f0 54       		.byte	0x54
 4952 15f1 5F       		.byte	0x5f
 4953 15f2 56       		.byte	0x56
 4954 15f3 45       		.byte	0x45
 4955 15f4 52       		.byte	0x52
 4956 15f5 42       		.byte	0x42
 4957 15f6 4F       		.byte	0x4f
 4958 15f7 53       		.byte	0x53
 4959 15f8 45       		.byte	0x45
 4960 15f9 00       		.byte	0
 4961 15fa 2B       		.uleb128 0x2b
 4962 15fb 1C       		.uleb128 0x1c
 4963 15fc 9E       		.byte	0x9e
 4964 15fd 1A       		.uleb128 0x1a
 4965 15fe 6E       		.byte	0x6e
 4966 15ff 65       		.byte	0x65
 4967 1600 74       		.byte	0x74
 4968 1601 5F       		.byte	0x5f
 4969 1602 69       		.byte	0x69
 4970 1603 6E       		.byte	0x6e
 4971 1604 74       		.byte	0x74
 4972 1605 65       		.byte	0x65
 4973 1606 72       		.byte	0x72
 4974 1607 66       		.byte	0x66
 4975 1608 61       		.byte	0x61
ARM GAS  C:\Users\Phuong\AppData\Local\Temp\ccVjqX8s.s 			page 100


 4976 1609 63       		.byte	0x63
 4977 160a 65       		.byte	0x65
 4978 160b 5F       		.byte	0x5f
 4979 160c 6D       		.byte	0x6d
 4980 160d 61       		.byte	0x61
 4981 160e 63       		.byte	0x63
 4982 160f 5F       		.byte	0x5f
 4983 1610 61       		.byte	0x61
 4984 1611 64       		.byte	0x64
 4985 1612 64       		.byte	0x64
 4986 1613 72       		.byte	0x72
 4987 1614 65       		.byte	0x65
 4988 1615 73       		.byte	0x73
 4989 1616 73       		.byte	0x73
 4990 1617 00       		.byte	0
 4991 1618 2B       		.uleb128 0x2b
 4992 1619 0E       		.uleb128 0xe
 4993 161a 9E       		.byte	0x9e
 4994 161b 0C       		.uleb128 0xc
 4995 161c 74       		.byte	0x74
 4996 161d 6C       		.byte	0x6c
 4997 161e 73       		.byte	0x73
 4998 161f 5F       		.byte	0x5f
 4999 1620 76       		.byte	0x76
 5000 1621 65       		.byte	0x65
 5001 1622 72       		.byte	0x72
 5002 1623 73       		.byte	0x73
 5003 1624 69       		.byte	0x69
 5004 1625 6F       		.byte	0x6f
 5005 1626 6E       		.byte	0x6e
 5006 1627 00       		.byte	0
 5007 1628 2B       		.uleb128 0x2b
 5008 1629 0F       		.uleb128 0xf
 5009 162a 9E       		.byte	0x9e
 5010 162b 0D       		.uleb128 0xd
 5011 162c 41       		.byte	0x41
 5012 162d 44       		.byte	0x44
 5013 162e 44       		.byte	0x44
 5014 162f 52       		.byte	0x52
 5015 1630 45       		.byte	0x45
 5016 1631 53       		.byte	0x53
 5017 1632 53       		.byte	0x53
 5018 1633 5F       		.byte	0x5f
 5019 1634 54       		.byte	0x54
 5020 1635 59       		.byte	0x59
 5021 1636 50       		.byte	0x50
 5022 1637 45       		.byte	0x45
 5023 1638 00       		.byte	0
 5024 1639 2B       		.uleb128 0x2b
 5025 163a 10       		.uleb128 0x10
 5026 163b 9E       		.byte	0x9e
 5027 163c 0E       		.uleb128 0xe
 5028 163d 44       		.byte	0x44
 5029 163e 4F       		.byte	0x4f
 5030 163f 4D       		.byte	0x4d
 5031 1640 41       		.byte	0x41
 5032 1641 49       		.byte	0x49
ARM GAS  C:\Users\Phuong\AppData\Local\Temp\ccVjqX8s.s 			page 101


 5033 1642 4E       		.byte	0x4e
 5034 1643 5F       		.byte	0x5f
 5035 1644 53       		.byte	0x53
 5036 1645 4F       		.byte	0x4f
 5037 1646 43       		.byte	0x43
 5038 1647 4B       		.byte	0x4b
 5039 1648 45       		.byte	0x45
 5040 1649 54       		.byte	0x54
 5041 164a 00       		.byte	0
 5042 164b 2B       		.uleb128 0x2b
 5043 164c 0C       		.uleb128 0xc
 5044 164d 9E       		.byte	0x9e
 5045 164e 0A       		.uleb128 0xa
 5046 164f 49       		.byte	0x49
 5047 1650 50       		.byte	0x50
 5048 1651 5F       		.byte	0x5f
 5049 1652 53       		.byte	0x53
 5050 1653 4F       		.byte	0x4f
 5051 1654 43       		.byte	0x43
 5052 1655 4B       		.byte	0x4b
 5053 1656 45       		.byte	0x45
 5054 1657 54       		.byte	0x54
 5055 1658 00       		.byte	0
 5056 1659 00       		.byte	0
 5057              		.section	.debug_abbrev,"",%progbits
 5058              	.Ldebug_abbrev0:
 5059 0000 01       		.uleb128 0x1
 5060 0001 11       		.uleb128 0x11
 5061 0002 01       		.byte	0x1
 5062 0003 25       		.uleb128 0x25
 5063 0004 0E       		.uleb128 0xe
 5064 0005 13       		.uleb128 0x13
 5065 0006 0B       		.uleb128 0xb
 5066 0007 03       		.uleb128 0x3
 5067 0008 0E       		.uleb128 0xe
 5068 0009 1B       		.uleb128 0x1b
 5069 000a 0E       		.uleb128 0xe
 5070 000b 55       		.uleb128 0x55
 5071 000c 17       		.uleb128 0x17
 5072 000d 11       		.uleb128 0x11
 5073 000e 01       		.uleb128 0x1
 5074 000f 10       		.uleb128 0x10
 5075 0010 17       		.uleb128 0x17
 5076 0011 00       		.byte	0
 5077 0012 00       		.byte	0
 5078 0013 02       		.uleb128 0x2
 5079 0014 16       		.uleb128 0x16
 5080 0015 00       		.byte	0
 5081 0016 03       		.uleb128 0x3
 5082 0017 0E       		.uleb128 0xe
 5083 0018 3A       		.uleb128 0x3a
 5084 0019 0B       		.uleb128 0xb
 5085 001a 3B       		.uleb128 0x3b
 5086 001b 0B       		.uleb128 0xb
 5087 001c 49       		.uleb128 0x49
 5088 001d 13       		.uleb128 0x13
 5089 001e 00       		.byte	0
ARM GAS  C:\Users\Phuong\AppData\Local\Temp\ccVjqX8s.s 			page 102


 5090 001f 00       		.byte	0
 5091 0020 03       		.uleb128 0x3
 5092 0021 24       		.uleb128 0x24
 5093 0022 00       		.byte	0
 5094 0023 0B       		.uleb128 0xb
 5095 0024 0B       		.uleb128 0xb
 5096 0025 3E       		.uleb128 0x3e
 5097 0026 0B       		.uleb128 0xb
 5098 0027 03       		.uleb128 0x3
 5099 0028 0E       		.uleb128 0xe
 5100 0029 00       		.byte	0
 5101 002a 00       		.byte	0
 5102 002b 04       		.uleb128 0x4
 5103 002c 24       		.uleb128 0x24
 5104 002d 00       		.byte	0
 5105 002e 0B       		.uleb128 0xb
 5106 002f 0B       		.uleb128 0xb
 5107 0030 3E       		.uleb128 0x3e
 5108 0031 0B       		.uleb128 0xb
 5109 0032 03       		.uleb128 0x3
 5110 0033 08       		.uleb128 0x8
 5111 0034 00       		.byte	0
 5112 0035 00       		.byte	0
 5113 0036 05       		.uleb128 0x5
 5114 0037 0F       		.uleb128 0xf
 5115 0038 00       		.byte	0
 5116 0039 0B       		.uleb128 0xb
 5117 003a 0B       		.uleb128 0xb
 5118 003b 49       		.uleb128 0x49
 5119 003c 13       		.uleb128 0x13
 5120 003d 00       		.byte	0
 5121 003e 00       		.byte	0
 5122 003f 06       		.uleb128 0x6
 5123 0040 26       		.uleb128 0x26
 5124 0041 00       		.byte	0
 5125 0042 49       		.uleb128 0x49
 5126 0043 13       		.uleb128 0x13
 5127 0044 00       		.byte	0
 5128 0045 00       		.byte	0
 5129 0046 07       		.uleb128 0x7
 5130 0047 04       		.uleb128 0x4
 5131 0048 01       		.byte	0x1
 5132 0049 03       		.uleb128 0x3
 5133 004a 0E       		.uleb128 0xe
 5134 004b 0B       		.uleb128 0xb
 5135 004c 0B       		.uleb128 0xb
 5136 004d 49       		.uleb128 0x49
 5137 004e 13       		.uleb128 0x13
 5138 004f 3A       		.uleb128 0x3a
 5139 0050 0B       		.uleb128 0xb
 5140 0051 3B       		.uleb128 0x3b
 5141 0052 0B       		.uleb128 0xb
 5142 0053 01       		.uleb128 0x1
 5143 0054 13       		.uleb128 0x13
 5144 0055 00       		.byte	0
 5145 0056 00       		.byte	0
 5146 0057 08       		.uleb128 0x8
ARM GAS  C:\Users\Phuong\AppData\Local\Temp\ccVjqX8s.s 			page 103


 5147 0058 28       		.uleb128 0x28
 5148 0059 00       		.byte	0
 5149 005a 03       		.uleb128 0x3
 5150 005b 0E       		.uleb128 0xe
 5151 005c 1C       		.uleb128 0x1c
 5152 005d 0B       		.uleb128 0xb
 5153 005e 00       		.byte	0
 5154 005f 00       		.byte	0
 5155 0060 09       		.uleb128 0x9
 5156 0061 15       		.uleb128 0x15
 5157 0062 01       		.byte	0x1
 5158 0063 27       		.uleb128 0x27
 5159 0064 19       		.uleb128 0x19
 5160 0065 01       		.uleb128 0x1
 5161 0066 13       		.uleb128 0x13
 5162 0067 00       		.byte	0
 5163 0068 00       		.byte	0
 5164 0069 0A       		.uleb128 0xa
 5165 006a 05       		.uleb128 0x5
 5166 006b 00       		.byte	0
 5167 006c 49       		.uleb128 0x49
 5168 006d 13       		.uleb128 0x13
 5169 006e 00       		.byte	0
 5170 006f 00       		.byte	0
 5171 0070 0B       		.uleb128 0xb
 5172 0071 18       		.uleb128 0x18
 5173 0072 00       		.byte	0
 5174 0073 00       		.byte	0
 5175 0074 00       		.byte	0
 5176 0075 0C       		.uleb128 0xc
 5177 0076 13       		.uleb128 0x13
 5178 0077 00       		.byte	0
 5179 0078 03       		.uleb128 0x3
 5180 0079 0E       		.uleb128 0xe
 5181 007a 3C       		.uleb128 0x3c
 5182 007b 19       		.uleb128 0x19
 5183 007c 00       		.byte	0
 5184 007d 00       		.byte	0
 5185 007e 0D       		.uleb128 0xd
 5186 007f 13       		.uleb128 0x13
 5187 0080 01       		.byte	0x1
 5188 0081 03       		.uleb128 0x3
 5189 0082 0E       		.uleb128 0xe
 5190 0083 0B       		.uleb128 0xb
 5191 0084 0B       		.uleb128 0xb
 5192 0085 3A       		.uleb128 0x3a
 5193 0086 0B       		.uleb128 0xb
 5194 0087 3B       		.uleb128 0x3b
 5195 0088 0B       		.uleb128 0xb
 5196 0089 01       		.uleb128 0x1
 5197 008a 13       		.uleb128 0x13
 5198 008b 00       		.byte	0
 5199 008c 00       		.byte	0
 5200 008d 0E       		.uleb128 0xe
 5201 008e 0D       		.uleb128 0xd
 5202 008f 00       		.byte	0
 5203 0090 03       		.uleb128 0x3
ARM GAS  C:\Users\Phuong\AppData\Local\Temp\ccVjqX8s.s 			page 104


 5204 0091 0E       		.uleb128 0xe
 5205 0092 3A       		.uleb128 0x3a
 5206 0093 0B       		.uleb128 0xb
 5207 0094 3B       		.uleb128 0x3b
 5208 0095 0B       		.uleb128 0xb
 5209 0096 49       		.uleb128 0x49
 5210 0097 13       		.uleb128 0x13
 5211 0098 38       		.uleb128 0x38
 5212 0099 0B       		.uleb128 0xb
 5213 009a 00       		.byte	0
 5214 009b 00       		.byte	0
 5215 009c 0F       		.uleb128 0xf
 5216 009d 2E       		.uleb128 0x2e
 5217 009e 01       		.byte	0x1
 5218 009f 03       		.uleb128 0x3
 5219 00a0 0E       		.uleb128 0xe
 5220 00a1 3A       		.uleb128 0x3a
 5221 00a2 0B       		.uleb128 0xb
 5222 00a3 3B       		.uleb128 0x3b
 5223 00a4 0B       		.uleb128 0xb
 5224 00a5 27       		.uleb128 0x27
 5225 00a6 19       		.uleb128 0x19
 5226 00a7 49       		.uleb128 0x49
 5227 00a8 13       		.uleb128 0x13
 5228 00a9 11       		.uleb128 0x11
 5229 00aa 01       		.uleb128 0x1
 5230 00ab 12       		.uleb128 0x12
 5231 00ac 06       		.uleb128 0x6
 5232 00ad 40       		.uleb128 0x40
 5233 00ae 18       		.uleb128 0x18
 5234 00af 9642     		.uleb128 0x2116
 5235 00b1 19       		.uleb128 0x19
 5236 00b2 01       		.uleb128 0x1
 5237 00b3 13       		.uleb128 0x13
 5238 00b4 00       		.byte	0
 5239 00b5 00       		.byte	0
 5240 00b6 10       		.uleb128 0x10
 5241 00b7 05       		.uleb128 0x5
 5242 00b8 00       		.byte	0
 5243 00b9 03       		.uleb128 0x3
 5244 00ba 0E       		.uleb128 0xe
 5245 00bb 3A       		.uleb128 0x3a
 5246 00bc 0B       		.uleb128 0xb
 5247 00bd 3B       		.uleb128 0x3b
 5248 00be 0B       		.uleb128 0xb
 5249 00bf 49       		.uleb128 0x49
 5250 00c0 13       		.uleb128 0x13
 5251 00c1 02       		.uleb128 0x2
 5252 00c2 17       		.uleb128 0x17
 5253 00c3 00       		.byte	0
 5254 00c4 00       		.byte	0
 5255 00c5 11       		.uleb128 0x11
 5256 00c6 34       		.uleb128 0x34
 5257 00c7 00       		.byte	0
 5258 00c8 03       		.uleb128 0x3
 5259 00c9 0E       		.uleb128 0xe
 5260 00ca 3A       		.uleb128 0x3a
ARM GAS  C:\Users\Phuong\AppData\Local\Temp\ccVjqX8s.s 			page 105


 5261 00cb 0B       		.uleb128 0xb
 5262 00cc 3B       		.uleb128 0x3b
 5263 00cd 0B       		.uleb128 0xb
 5264 00ce 49       		.uleb128 0x49
 5265 00cf 13       		.uleb128 0x13
 5266 00d0 02       		.uleb128 0x2
 5267 00d1 17       		.uleb128 0x17
 5268 00d2 00       		.byte	0
 5269 00d3 00       		.byte	0
 5270 00d4 12       		.uleb128 0x12
 5271 00d5 34       		.uleb128 0x34
 5272 00d6 00       		.byte	0
 5273 00d7 03       		.uleb128 0x3
 5274 00d8 0E       		.uleb128 0xe
 5275 00d9 49       		.uleb128 0x49
 5276 00da 13       		.uleb128 0x13
 5277 00db 34       		.uleb128 0x34
 5278 00dc 19       		.uleb128 0x19
 5279 00dd 02       		.uleb128 0x2
 5280 00de 18       		.uleb128 0x18
 5281 00df 00       		.byte	0
 5282 00e0 00       		.byte	0
 5283 00e1 13       		.uleb128 0x13
 5284 00e2 0B       		.uleb128 0xb
 5285 00e3 01       		.byte	0x1
 5286 00e4 11       		.uleb128 0x11
 5287 00e5 01       		.uleb128 0x1
 5288 00e6 12       		.uleb128 0x12
 5289 00e7 06       		.uleb128 0x6
 5290 00e8 01       		.uleb128 0x1
 5291 00e9 13       		.uleb128 0x13
 5292 00ea 00       		.byte	0
 5293 00eb 00       		.byte	0
 5294 00ec 14       		.uleb128 0x14
 5295 00ed 34       		.uleb128 0x34
 5296 00ee 00       		.byte	0
 5297 00ef 03       		.uleb128 0x3
 5298 00f0 08       		.uleb128 0x8
 5299 00f1 3A       		.uleb128 0x3a
 5300 00f2 0B       		.uleb128 0xb
 5301 00f3 3B       		.uleb128 0x3b
 5302 00f4 0B       		.uleb128 0xb
 5303 00f5 49       		.uleb128 0x49
 5304 00f6 13       		.uleb128 0x13
 5305 00f7 02       		.uleb128 0x2
 5306 00f8 17       		.uleb128 0x17
 5307 00f9 00       		.byte	0
 5308 00fa 00       		.byte	0
 5309 00fb 15       		.uleb128 0x15
 5310 00fc 898201   		.uleb128 0x4109
 5311 00ff 00       		.byte	0
 5312 0100 11       		.uleb128 0x11
 5313 0101 01       		.uleb128 0x1
 5314 0102 31       		.uleb128 0x31
 5315 0103 13       		.uleb128 0x13
 5316 0104 00       		.byte	0
 5317 0105 00       		.byte	0
ARM GAS  C:\Users\Phuong\AppData\Local\Temp\ccVjqX8s.s 			page 106


 5318 0106 16       		.uleb128 0x16
 5319 0107 898201   		.uleb128 0x4109
 5320 010a 01       		.byte	0x1
 5321 010b 11       		.uleb128 0x11
 5322 010c 01       		.uleb128 0x1
 5323 010d 9342     		.uleb128 0x2113
 5324 010f 18       		.uleb128 0x18
 5325 0110 00       		.byte	0
 5326 0111 00       		.byte	0
 5327 0112 17       		.uleb128 0x17
 5328 0113 8A8201   		.uleb128 0x410a
 5329 0116 00       		.byte	0
 5330 0117 02       		.uleb128 0x2
 5331 0118 18       		.uleb128 0x18
 5332 0119 9142     		.uleb128 0x2111
 5333 011b 18       		.uleb128 0x18
 5334 011c 00       		.byte	0
 5335 011d 00       		.byte	0
 5336 011e 18       		.uleb128 0x18
 5337 011f 898201   		.uleb128 0x4109
 5338 0122 01       		.byte	0x1
 5339 0123 11       		.uleb128 0x11
 5340 0124 01       		.uleb128 0x1
 5341 0125 31       		.uleb128 0x31
 5342 0126 13       		.uleb128 0x13
 5343 0127 01       		.uleb128 0x1
 5344 0128 13       		.uleb128 0x13
 5345 0129 00       		.byte	0
 5346 012a 00       		.byte	0
 5347 012b 19       		.uleb128 0x19
 5348 012c 898201   		.uleb128 0x4109
 5349 012f 01       		.byte	0x1
 5350 0130 11       		.uleb128 0x11
 5351 0131 01       		.uleb128 0x1
 5352 0132 31       		.uleb128 0x31
 5353 0133 13       		.uleb128 0x13
 5354 0134 00       		.byte	0
 5355 0135 00       		.byte	0
 5356 0136 1A       		.uleb128 0x1a
 5357 0137 01       		.uleb128 0x1
 5358 0138 01       		.byte	0x1
 5359 0139 49       		.uleb128 0x49
 5360 013a 13       		.uleb128 0x13
 5361 013b 01       		.uleb128 0x1
 5362 013c 13       		.uleb128 0x13
 5363 013d 00       		.byte	0
 5364 013e 00       		.byte	0
 5365 013f 1B       		.uleb128 0x1b
 5366 0140 21       		.uleb128 0x21
 5367 0141 00       		.byte	0
 5368 0142 49       		.uleb128 0x49
 5369 0143 13       		.uleb128 0x13
 5370 0144 2F       		.uleb128 0x2f
 5371 0145 0B       		.uleb128 0xb
 5372 0146 00       		.byte	0
 5373 0147 00       		.byte	0
 5374 0148 1C       		.uleb128 0x1c
ARM GAS  C:\Users\Phuong\AppData\Local\Temp\ccVjqX8s.s 			page 107


 5375 0149 2E       		.uleb128 0x2e
 5376 014a 01       		.byte	0x1
 5377 014b 3F       		.uleb128 0x3f
 5378 014c 19       		.uleb128 0x19
 5379 014d 03       		.uleb128 0x3
 5380 014e 0E       		.uleb128 0xe
 5381 014f 3A       		.uleb128 0x3a
 5382 0150 0B       		.uleb128 0xb
 5383 0151 3B       		.uleb128 0x3b
 5384 0152 0B       		.uleb128 0xb
 5385 0153 27       		.uleb128 0x27
 5386 0154 19       		.uleb128 0x19
 5387 0155 49       		.uleb128 0x49
 5388 0156 13       		.uleb128 0x13
 5389 0157 11       		.uleb128 0x11
 5390 0158 01       		.uleb128 0x1
 5391 0159 12       		.uleb128 0x12
 5392 015a 06       		.uleb128 0x6
 5393 015b 40       		.uleb128 0x40
 5394 015c 18       		.uleb128 0x18
 5395 015d 9742     		.uleb128 0x2117
 5396 015f 19       		.uleb128 0x19
 5397 0160 01       		.uleb128 0x1
 5398 0161 13       		.uleb128 0x13
 5399 0162 00       		.byte	0
 5400 0163 00       		.byte	0
 5401 0164 1D       		.uleb128 0x1d
 5402 0165 34       		.uleb128 0x34
 5403 0166 00       		.byte	0
 5404 0167 03       		.uleb128 0x3
 5405 0168 0E       		.uleb128 0xe
 5406 0169 3A       		.uleb128 0x3a
 5407 016a 0B       		.uleb128 0xb
 5408 016b 3B       		.uleb128 0x3b
 5409 016c 0B       		.uleb128 0xb
 5410 016d 49       		.uleb128 0x49
 5411 016e 13       		.uleb128 0x13
 5412 016f 1C       		.uleb128 0x1c
 5413 0170 0B       		.uleb128 0xb
 5414 0171 00       		.byte	0
 5415 0172 00       		.byte	0
 5416 0173 1E       		.uleb128 0x1e
 5417 0174 0B       		.uleb128 0xb
 5418 0175 01       		.byte	0x1
 5419 0176 11       		.uleb128 0x11
 5420 0177 01       		.uleb128 0x1
 5421 0178 12       		.uleb128 0x12
 5422 0179 06       		.uleb128 0x6
 5423 017a 00       		.byte	0
 5424 017b 00       		.byte	0
 5425 017c 1F       		.uleb128 0x1f
 5426 017d 2E       		.uleb128 0x2e
 5427 017e 01       		.byte	0x1
 5428 017f 3F       		.uleb128 0x3f
 5429 0180 19       		.uleb128 0x19
 5430 0181 03       		.uleb128 0x3
 5431 0182 0E       		.uleb128 0xe
ARM GAS  C:\Users\Phuong\AppData\Local\Temp\ccVjqX8s.s 			page 108


 5432 0183 3A       		.uleb128 0x3a
 5433 0184 0B       		.uleb128 0xb
 5434 0185 3B       		.uleb128 0x3b
 5435 0186 0B       		.uleb128 0xb
 5436 0187 27       		.uleb128 0x27
 5437 0188 19       		.uleb128 0x19
 5438 0189 11       		.uleb128 0x11
 5439 018a 01       		.uleb128 0x1
 5440 018b 12       		.uleb128 0x12
 5441 018c 06       		.uleb128 0x6
 5442 018d 40       		.uleb128 0x40
 5443 018e 18       		.uleb128 0x18
 5444 018f 9742     		.uleb128 0x2117
 5445 0191 19       		.uleb128 0x19
 5446 0192 01       		.uleb128 0x1
 5447 0193 13       		.uleb128 0x13
 5448 0194 00       		.byte	0
 5449 0195 00       		.byte	0
 5450 0196 20       		.uleb128 0x20
 5451 0197 05       		.uleb128 0x5
 5452 0198 00       		.byte	0
 5453 0199 03       		.uleb128 0x3
 5454 019a 0E       		.uleb128 0xe
 5455 019b 3A       		.uleb128 0x3a
 5456 019c 0B       		.uleb128 0xb
 5457 019d 3B       		.uleb128 0x3b
 5458 019e 0B       		.uleb128 0xb
 5459 019f 49       		.uleb128 0x49
 5460 01a0 13       		.uleb128 0x13
 5461 01a1 02       		.uleb128 0x2
 5462 01a2 18       		.uleb128 0x18
 5463 01a3 00       		.byte	0
 5464 01a4 00       		.byte	0
 5465 01a5 21       		.uleb128 0x21
 5466 01a6 05       		.uleb128 0x5
 5467 01a7 00       		.byte	0
 5468 01a8 03       		.uleb128 0x3
 5469 01a9 08       		.uleb128 0x8
 5470 01aa 3A       		.uleb128 0x3a
 5471 01ab 0B       		.uleb128 0xb
 5472 01ac 3B       		.uleb128 0x3b
 5473 01ad 0B       		.uleb128 0xb
 5474 01ae 49       		.uleb128 0x49
 5475 01af 13       		.uleb128 0x13
 5476 01b0 02       		.uleb128 0x2
 5477 01b1 17       		.uleb128 0x17
 5478 01b2 00       		.byte	0
 5479 01b3 00       		.byte	0
 5480 01b4 22       		.uleb128 0x22
 5481 01b5 34       		.uleb128 0x34
 5482 01b6 00       		.byte	0
 5483 01b7 03       		.uleb128 0x3
 5484 01b8 0E       		.uleb128 0xe
 5485 01b9 3A       		.uleb128 0x3a
 5486 01ba 0B       		.uleb128 0xb
 5487 01bb 3B       		.uleb128 0x3b
 5488 01bc 0B       		.uleb128 0xb
ARM GAS  C:\Users\Phuong\AppData\Local\Temp\ccVjqX8s.s 			page 109


 5489 01bd 49       		.uleb128 0x49
 5490 01be 13       		.uleb128 0x13
 5491 01bf 02       		.uleb128 0x2
 5492 01c0 18       		.uleb128 0x18
 5493 01c1 00       		.byte	0
 5494 01c2 00       		.byte	0
 5495 01c3 23       		.uleb128 0x23
 5496 01c4 34       		.uleb128 0x34
 5497 01c5 00       		.byte	0
 5498 01c6 03       		.uleb128 0x3
 5499 01c7 08       		.uleb128 0x8
 5500 01c8 3A       		.uleb128 0x3a
 5501 01c9 0B       		.uleb128 0xb
 5502 01ca 3B       		.uleb128 0x3b
 5503 01cb 05       		.uleb128 0x5
 5504 01cc 49       		.uleb128 0x49
 5505 01cd 13       		.uleb128 0x13
 5506 01ce 02       		.uleb128 0x2
 5507 01cf 17       		.uleb128 0x17
 5508 01d0 00       		.byte	0
 5509 01d1 00       		.byte	0
 5510 01d2 24       		.uleb128 0x24
 5511 01d3 2E       		.uleb128 0x2e
 5512 01d4 01       		.byte	0x1
 5513 01d5 3F       		.uleb128 0x3f
 5514 01d6 19       		.uleb128 0x19
 5515 01d7 03       		.uleb128 0x3
 5516 01d8 0E       		.uleb128 0xe
 5517 01d9 3A       		.uleb128 0x3a
 5518 01da 0B       		.uleb128 0xb
 5519 01db 3B       		.uleb128 0x3b
 5520 01dc 05       		.uleb128 0x5
 5521 01dd 27       		.uleb128 0x27
 5522 01de 19       		.uleb128 0x19
 5523 01df 49       		.uleb128 0x49
 5524 01e0 13       		.uleb128 0x13
 5525 01e1 11       		.uleb128 0x11
 5526 01e2 01       		.uleb128 0x1
 5527 01e3 12       		.uleb128 0x12
 5528 01e4 06       		.uleb128 0x6
 5529 01e5 40       		.uleb128 0x40
 5530 01e6 18       		.uleb128 0x18
 5531 01e7 9742     		.uleb128 0x2117
 5532 01e9 19       		.uleb128 0x19
 5533 01ea 01       		.uleb128 0x1
 5534 01eb 13       		.uleb128 0x13
 5535 01ec 00       		.byte	0
 5536 01ed 00       		.byte	0
 5537 01ee 25       		.uleb128 0x25
 5538 01ef 05       		.uleb128 0x5
 5539 01f0 00       		.byte	0
 5540 01f1 03       		.uleb128 0x3
 5541 01f2 0E       		.uleb128 0xe
 5542 01f3 3A       		.uleb128 0x3a
 5543 01f4 0B       		.uleb128 0xb
 5544 01f5 3B       		.uleb128 0x3b
 5545 01f6 05       		.uleb128 0x5
ARM GAS  C:\Users\Phuong\AppData\Local\Temp\ccVjqX8s.s 			page 110


 5546 01f7 49       		.uleb128 0x49
 5547 01f8 13       		.uleb128 0x13
 5548 01f9 02       		.uleb128 0x2
 5549 01fa 17       		.uleb128 0x17
 5550 01fb 00       		.byte	0
 5551 01fc 00       		.byte	0
 5552 01fd 26       		.uleb128 0x26
 5553 01fe 34       		.uleb128 0x34
 5554 01ff 00       		.byte	0
 5555 0200 03       		.uleb128 0x3
 5556 0201 0E       		.uleb128 0xe
 5557 0202 3A       		.uleb128 0x3a
 5558 0203 0B       		.uleb128 0xb
 5559 0204 3B       		.uleb128 0x3b
 5560 0205 05       		.uleb128 0x5
 5561 0206 49       		.uleb128 0x49
 5562 0207 13       		.uleb128 0x13
 5563 0208 02       		.uleb128 0x2
 5564 0209 17       		.uleb128 0x17
 5565 020a 00       		.byte	0
 5566 020b 00       		.byte	0
 5567 020c 27       		.uleb128 0x27
 5568 020d 34       		.uleb128 0x34
 5569 020e 00       		.byte	0
 5570 020f 03       		.uleb128 0x3
 5571 0210 0E       		.uleb128 0xe
 5572 0211 3A       		.uleb128 0x3a
 5573 0212 0B       		.uleb128 0xb
 5574 0213 3B       		.uleb128 0x3b
 5575 0214 05       		.uleb128 0x5
 5576 0215 49       		.uleb128 0x49
 5577 0216 13       		.uleb128 0x13
 5578 0217 02       		.uleb128 0x2
 5579 0218 18       		.uleb128 0x18
 5580 0219 00       		.byte	0
 5581 021a 00       		.byte	0
 5582 021b 28       		.uleb128 0x28
 5583 021c 0B       		.uleb128 0xb
 5584 021d 01       		.byte	0x1
 5585 021e 55       		.uleb128 0x55
 5586 021f 17       		.uleb128 0x17
 5587 0220 00       		.byte	0
 5588 0221 00       		.byte	0
 5589 0222 29       		.uleb128 0x29
 5590 0223 2E       		.uleb128 0x2e
 5591 0224 00       		.byte	0
 5592 0225 3F       		.uleb128 0x3f
 5593 0226 19       		.uleb128 0x19
 5594 0227 3C       		.uleb128 0x3c
 5595 0228 19       		.uleb128 0x19
 5596 0229 6E       		.uleb128 0x6e
 5597 022a 0E       		.uleb128 0xe
 5598 022b 03       		.uleb128 0x3
 5599 022c 0E       		.uleb128 0xe
 5600 022d 3A       		.uleb128 0x3a
 5601 022e 0B       		.uleb128 0xb
 5602 022f 3B       		.uleb128 0x3b
ARM GAS  C:\Users\Phuong\AppData\Local\Temp\ccVjqX8s.s 			page 111


 5603 0230 0B       		.uleb128 0xb
 5604 0231 00       		.byte	0
 5605 0232 00       		.byte	0
 5606 0233 2A       		.uleb128 0x2a
 5607 0234 2E       		.uleb128 0x2e
 5608 0235 00       		.byte	0
 5609 0236 3F       		.uleb128 0x3f
 5610 0237 19       		.uleb128 0x19
 5611 0238 3C       		.uleb128 0x3c
 5612 0239 19       		.uleb128 0x19
 5613 023a 6E       		.uleb128 0x6e
 5614 023b 0E       		.uleb128 0xe
 5615 023c 03       		.uleb128 0x3
 5616 023d 0E       		.uleb128 0xe
 5617 023e 00       		.byte	0
 5618 023f 00       		.byte	0
 5619 0240 2B       		.uleb128 0x2b
 5620 0241 36       		.uleb128 0x36
 5621 0242 00       		.byte	0
 5622 0243 02       		.uleb128 0x2
 5623 0244 18       		.uleb128 0x18
 5624 0245 00       		.byte	0
 5625 0246 00       		.byte	0
 5626 0247 00       		.byte	0
 5627              		.section	.debug_loc,"",%progbits
 5628              	.Ldebug_loc0:
 5629              	.LLST0:
 5630 0000 00000000 		.4byte	.LVL0
 5631 0004 08000000 		.4byte	.LVL1
 5632 0008 0100     		.2byte	0x1
 5633 000a 50       		.byte	0x50
 5634 000b 08000000 		.4byte	.LVL1
 5635 000f 16000000 		.4byte	.LVL4
 5636 0013 0100     		.2byte	0x1
 5637 0015 54       		.byte	0x54
 5638 0016 16000000 		.4byte	.LVL4
 5639 001a 2E000000 		.4byte	.LVL7
 5640 001e 0400     		.2byte	0x4
 5641 0020 F3       		.byte	0xf3
 5642 0021 01       		.uleb128 0x1
 5643 0022 50       		.byte	0x50
 5644 0023 9F       		.byte	0x9f
 5645 0024 2E000000 		.4byte	.LVL7
 5646 0028 3E000000 		.4byte	.LVL11
 5647 002c 0100     		.2byte	0x1
 5648 002e 54       		.byte	0x54
 5649 002f 3E000000 		.4byte	.LVL11
 5650 0033 50000000 		.4byte	.LFE1
 5651 0037 0400     		.2byte	0x4
 5652 0039 F3       		.byte	0xf3
 5653 003a 01       		.uleb128 0x1
 5654 003b 50       		.byte	0x50
 5655 003c 9F       		.byte	0x9f
 5656 003d 00000000 		.4byte	0
 5657 0041 00000000 		.4byte	0
 5658              	.LLST1:
 5659 0045 3A000000 		.4byte	.LVL10
ARM GAS  C:\Users\Phuong\AppData\Local\Temp\ccVjqX8s.s 			page 112


 5660 0049 3E000000 		.4byte	.LVL11
 5661 004d 0200     		.2byte	0x2
 5662 004f 30       		.byte	0x30
 5663 0050 9F       		.byte	0x9f
 5664 0051 40000000 		.4byte	.LVL12
 5665 0055 50000000 		.4byte	.LFE1
 5666 0059 0100     		.2byte	0x1
 5667 005b 50       		.byte	0x50
 5668 005c 00000000 		.4byte	0
 5669 0060 00000000 		.4byte	0
 5670              	.LLST2:
 5671 0064 0C000000 		.4byte	.LVL2
 5672 0068 13000000 		.4byte	.LVL3-1
 5673 006c 0100     		.2byte	0x1
 5674 006e 50       		.byte	0x50
 5675 006f 2E000000 		.4byte	.LVL7
 5676 0073 33000000 		.4byte	.LVL8-1
 5677 0077 0100     		.2byte	0x1
 5678 0079 50       		.byte	0x50
 5679 007a 00000000 		.4byte	0
 5680 007e 00000000 		.4byte	0
 5681              	.LLST3:
 5682 0082 16000000 		.4byte	.LVL4
 5683 0086 28000000 		.4byte	.LVL5
 5684 008a 0100     		.2byte	0x1
 5685 008c 50       		.byte	0x50
 5686 008d 28000000 		.4byte	.LVL5
 5687 0091 2E000000 		.4byte	.LVL7
 5688 0095 0100     		.2byte	0x1
 5689 0097 54       		.byte	0x54
 5690 0098 3E000000 		.4byte	.LVL11
 5691 009c 40000000 		.4byte	.LVL12
 5692 00a0 0100     		.2byte	0x1
 5693 00a2 50       		.byte	0x50
 5694 00a3 00000000 		.4byte	0
 5695 00a7 00000000 		.4byte	0
 5696              	.LLST4:
 5697 00ab 00000000 		.4byte	.LVL13
 5698 00af 13000000 		.4byte	.LVL14-1
 5699 00b3 0100     		.2byte	0x1
 5700 00b5 50       		.byte	0x50
 5701 00b6 13000000 		.4byte	.LVL14-1
 5702 00ba 34000000 		.4byte	.LVL19
 5703 00be 0100     		.2byte	0x1
 5704 00c0 57       		.byte	0x57
 5705 00c1 34000000 		.4byte	.LVL19
 5706 00c5 36000000 		.4byte	.LVL20
 5707 00c9 0100     		.2byte	0x1
 5708 00cb 50       		.byte	0x50
 5709 00cc 36000000 		.4byte	.LVL20
 5710 00d0 82010000 		.4byte	.LVL67
 5711 00d4 0100     		.2byte	0x1
 5712 00d6 57       		.byte	0x57
 5713 00d7 82010000 		.4byte	.LVL67
 5714 00db 9C010000 		.4byte	.LFE2
 5715 00df 0400     		.2byte	0x4
 5716 00e1 F3       		.byte	0xf3
ARM GAS  C:\Users\Phuong\AppData\Local\Temp\ccVjqX8s.s 			page 113


 5717 00e2 01       		.uleb128 0x1
 5718 00e3 50       		.byte	0x50
 5719 00e4 9F       		.byte	0x9f
 5720 00e5 00000000 		.4byte	0
 5721 00e9 00000000 		.4byte	0
 5722              	.LLST5:
 5723 00ed 00000000 		.4byte	.LVL13
 5724 00f1 13000000 		.4byte	.LVL14-1
 5725 00f5 0100     		.2byte	0x1
 5726 00f7 51       		.byte	0x51
 5727 00f8 13000000 		.4byte	.LVL14-1
 5728 00fc 34000000 		.4byte	.LVL19
 5729 0100 0100     		.2byte	0x1
 5730 0102 55       		.byte	0x55
 5731 0103 34000000 		.4byte	.LVL19
 5732 0107 39000000 		.4byte	.LVL21-1
 5733 010b 0100     		.2byte	0x1
 5734 010d 51       		.byte	0x51
 5735 010e 39000000 		.4byte	.LVL21-1
 5736 0112 44000000 		.4byte	.LVL24
 5737 0116 0100     		.2byte	0x1
 5738 0118 55       		.byte	0x55
 5739 0119 44000000 		.4byte	.LVL24
 5740 011d 5E000000 		.4byte	.LVL27
 5741 0121 0400     		.2byte	0x4
 5742 0123 F3       		.byte	0xf3
 5743 0124 01       		.uleb128 0x1
 5744 0125 51       		.byte	0x51
 5745 0126 9F       		.byte	0x9f
 5746 0127 5E000000 		.4byte	.LVL27
 5747 012b 82000000 		.4byte	.LVL31
 5748 012f 0100     		.2byte	0x1
 5749 0131 55       		.byte	0x55
 5750 0132 82000000 		.4byte	.LVL31
 5751 0136 A2000000 		.4byte	.LVL35
 5752 013a 0400     		.2byte	0x4
 5753 013c F3       		.byte	0xf3
 5754 013d 01       		.uleb128 0x1
 5755 013e 51       		.byte	0x51
 5756 013f 9F       		.byte	0x9f
 5757 0140 A2000000 		.4byte	.LVL35
 5758 0144 B6000000 		.4byte	.LVL38
 5759 0148 0100     		.2byte	0x1
 5760 014a 55       		.byte	0x55
 5761 014b B6000000 		.4byte	.LVL38
 5762 014f DC000000 		.4byte	.LVL43
 5763 0153 0400     		.2byte	0x4
 5764 0155 F3       		.byte	0xf3
 5765 0156 01       		.uleb128 0x1
 5766 0157 51       		.byte	0x51
 5767 0158 9F       		.byte	0x9f
 5768 0159 DC000000 		.4byte	.LVL43
 5769 015d F4000000 		.4byte	.LVL46
 5770 0161 0100     		.2byte	0x1
 5771 0163 55       		.byte	0x55
 5772 0164 F4000000 		.4byte	.LVL46
 5773 0168 20010000 		.4byte	.LVL52
ARM GAS  C:\Users\Phuong\AppData\Local\Temp\ccVjqX8s.s 			page 114


 5774 016c 0400     		.2byte	0x4
 5775 016e F3       		.byte	0xf3
 5776 016f 01       		.uleb128 0x1
 5777 0170 51       		.byte	0x51
 5778 0171 9F       		.byte	0x9f
 5779 0172 20010000 		.4byte	.LVL52
 5780 0176 44010000 		.4byte	.LVL55
 5781 017a 0100     		.2byte	0x1
 5782 017c 55       		.byte	0x55
 5783 017d 44010000 		.4byte	.LVL55
 5784 0181 76010000 		.4byte	.LVL62
 5785 0185 0400     		.2byte	0x4
 5786 0187 F3       		.byte	0xf3
 5787 0188 01       		.uleb128 0x1
 5788 0189 51       		.byte	0x51
 5789 018a 9F       		.byte	0x9f
 5790 018b 76010000 		.4byte	.LVL62
 5791 018f 7E010000 		.4byte	.LVL64
 5792 0193 0100     		.2byte	0x1
 5793 0195 55       		.byte	0x55
 5794 0196 7E010000 		.4byte	.LVL64
 5795 019a 9C010000 		.4byte	.LFE2
 5796 019e 0400     		.2byte	0x4
 5797 01a0 F3       		.byte	0xf3
 5798 01a1 01       		.uleb128 0x1
 5799 01a2 51       		.byte	0x51
 5800 01a3 9F       		.byte	0x9f
 5801 01a4 00000000 		.4byte	0
 5802 01a8 00000000 		.4byte	0
 5803              	.LLST6:
 5804 01ac 00000000 		.4byte	.LVL13
 5805 01b0 13000000 		.4byte	.LVL14-1
 5806 01b4 0100     		.2byte	0x1
 5807 01b6 52       		.byte	0x52
 5808 01b7 13000000 		.4byte	.LVL14-1
 5809 01bb 34000000 		.4byte	.LVL19
 5810 01bf 0200     		.2byte	0x2
 5811 01c1 91       		.byte	0x91
 5812 01c2 64       		.sleb128 -28
 5813 01c3 34000000 		.4byte	.LVL19
 5814 01c7 39000000 		.4byte	.LVL21-1
 5815 01cb 0100     		.2byte	0x1
 5816 01cd 52       		.byte	0x52
 5817 01ce 39000000 		.4byte	.LVL21-1
 5818 01d2 9C010000 		.4byte	.LFE2
 5819 01d6 0200     		.2byte	0x2
 5820 01d8 91       		.byte	0x91
 5821 01d9 64       		.sleb128 -28
 5822 01da 00000000 		.4byte	0
 5823 01de 00000000 		.4byte	0
 5824              	.LLST7:
 5825 01e2 00000000 		.4byte	.LVL13
 5826 01e6 13000000 		.4byte	.LVL14-1
 5827 01ea 0100     		.2byte	0x1
 5828 01ec 53       		.byte	0x53
 5829 01ed 13000000 		.4byte	.LVL14-1
 5830 01f1 34000000 		.4byte	.LVL19
ARM GAS  C:\Users\Phuong\AppData\Local\Temp\ccVjqX8s.s 			page 115


 5831 01f5 0100     		.2byte	0x1
 5832 01f7 56       		.byte	0x56
 5833 01f8 34000000 		.4byte	.LVL19
 5834 01fc 39000000 		.4byte	.LVL21-1
 5835 0200 0100     		.2byte	0x1
 5836 0202 53       		.byte	0x53
 5837 0203 39000000 		.4byte	.LVL21-1
 5838 0207 82010000 		.4byte	.LVL66
 5839 020b 0100     		.2byte	0x1
 5840 020d 56       		.byte	0x56
 5841 020e 82010000 		.4byte	.LVL66
 5842 0212 9C010000 		.4byte	.LFE2
 5843 0216 0400     		.2byte	0x4
 5844 0218 F3       		.byte	0xf3
 5845 0219 01       		.uleb128 0x1
 5846 021a 53       		.byte	0x53
 5847 021b 9F       		.byte	0x9f
 5848 021c 00000000 		.4byte	0
 5849 0220 00000000 		.4byte	0
 5850              	.LLST8:
 5851 0224 3C000000 		.4byte	.LVL22
 5852 0228 41000000 		.4byte	.LVL23-1
 5853 022c 0100     		.2byte	0x1
 5854 022e 50       		.byte	0x50
 5855 022f 41000000 		.4byte	.LVL23-1
 5856 0233 5E000000 		.4byte	.LVL27
 5857 0237 0100     		.2byte	0x1
 5858 0239 54       		.byte	0x54
 5859 023a 5E000000 		.4byte	.LVL27
 5860 023e 65000000 		.4byte	.LVL28-1
 5861 0242 0100     		.2byte	0x1
 5862 0244 50       		.byte	0x50
 5863 0245 65000000 		.4byte	.LVL28-1
 5864 0249 9E000000 		.4byte	.LVL34
 5865 024d 0100     		.2byte	0x1
 5866 024f 54       		.byte	0x54
 5867 0250 9E000000 		.4byte	.LVL34
 5868 0254 A2000000 		.4byte	.LVL35
 5869 0258 0200     		.2byte	0x2
 5870 025a 30       		.byte	0x30
 5871 025b 9F       		.byte	0x9f
 5872 025c A2000000 		.4byte	.LVL35
 5873 0260 D8000000 		.4byte	.LVL42
 5874 0264 0100     		.2byte	0x1
 5875 0266 54       		.byte	0x54
 5876 0267 D8000000 		.4byte	.LVL42
 5877 026b DC000000 		.4byte	.LVL43
 5878 026f 0200     		.2byte	0x2
 5879 0271 30       		.byte	0x30
 5880 0272 9F       		.byte	0x9f
 5881 0273 DC000000 		.4byte	.LVL43
 5882 0277 1C010000 		.4byte	.LVL51
 5883 027b 0100     		.2byte	0x1
 5884 027d 54       		.byte	0x54
 5885 027e 1C010000 		.4byte	.LVL51
 5886 0282 20010000 		.4byte	.LVL52
 5887 0286 0200     		.2byte	0x2
ARM GAS  C:\Users\Phuong\AppData\Local\Temp\ccVjqX8s.s 			page 116


 5888 0288 30       		.byte	0x30
 5889 0289 9F       		.byte	0x9f
 5890 028a 20010000 		.4byte	.LVL52
 5891 028e 72010000 		.4byte	.LVL61
 5892 0292 0100     		.2byte	0x1
 5893 0294 54       		.byte	0x54
 5894 0295 72010000 		.4byte	.LVL61
 5895 0299 76010000 		.4byte	.LVL62
 5896 029d 0200     		.2byte	0x2
 5897 029f 30       		.byte	0x30
 5898 02a0 9F       		.byte	0x9f
 5899 02a1 76010000 		.4byte	.LVL62
 5900 02a5 7C010000 		.4byte	.LVL63
 5901 02a9 0100     		.2byte	0x1
 5902 02ab 54       		.byte	0x54
 5903 02ac 7E010000 		.4byte	.LVL64
 5904 02b0 82010000 		.4byte	.LVL65
 5905 02b4 0100     		.2byte	0x1
 5906 02b6 54       		.byte	0x54
 5907 02b7 82010000 		.4byte	.LVL65
 5908 02bb 9C010000 		.4byte	.LFE2
 5909 02bf 0100     		.2byte	0x1
 5910 02c1 50       		.byte	0x50
 5911 02c2 00000000 		.4byte	0
 5912 02c6 00000000 		.4byte	0
 5913              	.LLST9:
 5914 02ca 16000000 		.4byte	.LVL15
 5915 02ce 2E000000 		.4byte	.LVL16
 5916 02d2 0100     		.2byte	0x1
 5917 02d4 50       		.byte	0x50
 5918 02d5 2E000000 		.4byte	.LVL16
 5919 02d9 32000000 		.4byte	.LVL18
 5920 02dd 0100     		.2byte	0x1
 5921 02df 54       		.byte	0x54
 5922 02e0 7C010000 		.4byte	.LVL63
 5923 02e4 7E010000 		.4byte	.LVL64
 5924 02e8 0100     		.2byte	0x1
 5925 02ea 50       		.byte	0x50
 5926 02eb 00000000 		.4byte	0
 5927 02ef 00000000 		.4byte	0
 5928              	.LLST10:
 5929 02f3 44000000 		.4byte	.LVL24
 5930 02f7 5A000000 		.4byte	.LVL25
 5931 02fb 0100     		.2byte	0x1
 5932 02fd 50       		.byte	0x50
 5933 02fe 5A000000 		.4byte	.LVL25
 5934 0302 5E000000 		.4byte	.LVL27
 5935 0306 0100     		.2byte	0x1
 5936 0308 55       		.byte	0x55
 5937 0309 00000000 		.4byte	0
 5938 030d 00000000 		.4byte	0
 5939              	.LLST11:
 5940 0311 82000000 		.4byte	.LVL31
 5941 0315 96000000 		.4byte	.LVL32
 5942 0319 0100     		.2byte	0x1
 5943 031b 50       		.byte	0x50
 5944 031c 96000000 		.4byte	.LVL32
ARM GAS  C:\Users\Phuong\AppData\Local\Temp\ccVjqX8s.s 			page 117


 5945 0320 A2000000 		.4byte	.LVL35
 5946 0324 0100     		.2byte	0x1
 5947 0326 55       		.byte	0x55
 5948 0327 00000000 		.4byte	0
 5949 032b 00000000 		.4byte	0
 5950              	.LLST12:
 5951 032f B6000000 		.4byte	.LVL38
 5952 0333 CA000000 		.4byte	.LVL39
 5953 0337 0100     		.2byte	0x1
 5954 0339 50       		.byte	0x50
 5955 033a CA000000 		.4byte	.LVL39
 5956 033e DC000000 		.4byte	.LVL43
 5957 0342 0100     		.2byte	0x1
 5958 0344 55       		.byte	0x55
 5959 0345 00000000 		.4byte	0
 5960 0349 00000000 		.4byte	0
 5961              	.LLST13:
 5962 034d F4000000 		.4byte	.LVL46
 5963 0351 08010000 		.4byte	.LVL47
 5964 0355 0100     		.2byte	0x1
 5965 0357 50       		.byte	0x50
 5966 0358 08010000 		.4byte	.LVL47
 5967 035c 20010000 		.4byte	.LVL52
 5968 0360 0100     		.2byte	0x1
 5969 0362 55       		.byte	0x55
 5970 0363 00000000 		.4byte	0
 5971 0367 00000000 		.4byte	0
 5972              	.LLST14:
 5973 036b 44010000 		.4byte	.LVL55
 5974 036f 58010000 		.4byte	.LVL56
 5975 0373 0100     		.2byte	0x1
 5976 0375 50       		.byte	0x50
 5977 0376 58010000 		.4byte	.LVL56
 5978 037a 76010000 		.4byte	.LVL62
 5979 037e 0100     		.2byte	0x1
 5980 0380 55       		.byte	0x55
 5981 0381 00000000 		.4byte	0
 5982 0385 00000000 		.4byte	0
 5983              	.LLST15:
 5984 0389 00000000 		.4byte	.LVL68
 5985 038d 0B000000 		.4byte	.LVL69-1
 5986 0391 0100     		.2byte	0x1
 5987 0393 50       		.byte	0x50
 5988 0394 0B000000 		.4byte	.LVL69-1
 5989 0398 28000000 		.4byte	.LVL73
 5990 039c 0100     		.2byte	0x1
 5991 039e 54       		.byte	0x54
 5992 039f 28000000 		.4byte	.LVL73
 5993 03a3 2B000000 		.4byte	.LVL74-1
 5994 03a7 0100     		.2byte	0x1
 5995 03a9 50       		.byte	0x50
 5996 03aa 2B000000 		.4byte	.LVL74-1
 5997 03ae 2E000000 		.4byte	.LVL75
 5998 03b2 0100     		.2byte	0x1
 5999 03b4 54       		.byte	0x54
 6000 03b5 2E000000 		.4byte	.LVL75
 6001 03b9 5C000000 		.4byte	.LFE3
ARM GAS  C:\Users\Phuong\AppData\Local\Temp\ccVjqX8s.s 			page 118


 6002 03bd 0400     		.2byte	0x4
 6003 03bf F3       		.byte	0xf3
 6004 03c0 01       		.uleb128 0x1
 6005 03c1 50       		.byte	0x50
 6006 03c2 9F       		.byte	0x9f
 6007 03c3 00000000 		.4byte	0
 6008 03c7 00000000 		.4byte	0
 6009              	.LLST16:
 6010 03cb 00000000 		.4byte	.LVL68
 6011 03cf 0B000000 		.4byte	.LVL69-1
 6012 03d3 0100     		.2byte	0x1
 6013 03d5 51       		.byte	0x51
 6014 03d6 0B000000 		.4byte	.LVL69-1
 6015 03da 28000000 		.4byte	.LVL73
 6016 03de 0400     		.2byte	0x4
 6017 03e0 F3       		.byte	0xf3
 6018 03e1 01       		.uleb128 0x1
 6019 03e2 51       		.byte	0x51
 6020 03e3 9F       		.byte	0x9f
 6021 03e4 28000000 		.4byte	.LVL73
 6022 03e8 2B000000 		.4byte	.LVL74-1
 6023 03ec 0100     		.2byte	0x1
 6024 03ee 51       		.byte	0x51
 6025 03ef 2B000000 		.4byte	.LVL74-1
 6026 03f3 5C000000 		.4byte	.LFE3
 6027 03f7 0400     		.2byte	0x4
 6028 03f9 F3       		.byte	0xf3
 6029 03fa 01       		.uleb128 0x1
 6030 03fb 51       		.byte	0x51
 6031 03fc 9F       		.byte	0x9f
 6032 03fd 00000000 		.4byte	0
 6033 0401 00000000 		.4byte	0
 6034              	.LLST17:
 6035 0405 0E000000 		.4byte	.LVL70
 6036 0409 24000000 		.4byte	.LVL71
 6037 040d 0100     		.2byte	0x1
 6038 040f 50       		.byte	0x50
 6039 0410 24000000 		.4byte	.LVL71
 6040 0414 28000000 		.4byte	.LVL73
 6041 0418 0100     		.2byte	0x1
 6042 041a 55       		.byte	0x55
 6043 041b 00000000 		.4byte	0
 6044 041f 00000000 		.4byte	0
 6045              	.LLST18:
 6046 0423 2E000000 		.4byte	.LVL75
 6047 0427 42000000 		.4byte	.LVL76
 6048 042b 0100     		.2byte	0x1
 6049 042d 50       		.byte	0x50
 6050 042e 42000000 		.4byte	.LVL76
 6051 0432 44000000 		.4byte	.LVL77
 6052 0436 0100     		.2byte	0x1
 6053 0438 54       		.byte	0x54
 6054 0439 00000000 		.4byte	0
 6055 043d 00000000 		.4byte	0
 6056              	.LLST19:
 6057 0441 00000000 		.4byte	.LVL78
 6058 0445 08000000 		.4byte	.LVL79
ARM GAS  C:\Users\Phuong\AppData\Local\Temp\ccVjqX8s.s 			page 119


 6059 0449 0100     		.2byte	0x1
 6060 044b 50       		.byte	0x50
 6061 044c 08000000 		.4byte	.LVL79
 6062 0450 24000000 		.4byte	.LVL85
 6063 0454 0100     		.2byte	0x1
 6064 0456 54       		.byte	0x54
 6065 0457 24000000 		.4byte	.LVL85
 6066 045b 26000000 		.4byte	.LFE4
 6067 045f 0400     		.2byte	0x4
 6068 0461 F3       		.byte	0xf3
 6069 0462 01       		.uleb128 0x1
 6070 0463 50       		.byte	0x50
 6071 0464 9F       		.byte	0x9f
 6072 0465 00000000 		.4byte	0
 6073 0469 00000000 		.4byte	0
 6074              	.LLST20:
 6075 046d 00000000 		.4byte	.LVL86
 6076 0471 0E000000 		.4byte	.LVL88
 6077 0475 0100     		.2byte	0x1
 6078 0477 50       		.byte	0x50
 6079 0478 0E000000 		.4byte	.LVL88
 6080 047c 10000000 		.4byte	.LVL89
 6081 0480 0400     		.2byte	0x4
 6082 0482 F3       		.byte	0xf3
 6083 0483 01       		.uleb128 0x1
 6084 0484 50       		.byte	0x50
 6085 0485 9F       		.byte	0x9f
 6086 0486 10000000 		.4byte	.LVL89
 6087 048a 1C000000 		.4byte	.LVL91
 6088 048e 0100     		.2byte	0x1
 6089 0490 50       		.byte	0x50
 6090 0491 1C000000 		.4byte	.LVL91
 6091 0495 1E000000 		.4byte	.LVL92
 6092 0499 0400     		.2byte	0x4
 6093 049b F3       		.byte	0xf3
 6094 049c 01       		.uleb128 0x1
 6095 049d 50       		.byte	0x50
 6096 049e 9F       		.byte	0x9f
 6097 049f 1E000000 		.4byte	.LVL92
 6098 04a3 2A000000 		.4byte	.LVL94
 6099 04a7 0100     		.2byte	0x1
 6100 04a9 50       		.byte	0x50
 6101 04aa 2A000000 		.4byte	.LVL94
 6102 04ae 2C000000 		.4byte	.LVL95
 6103 04b2 0400     		.2byte	0x4
 6104 04b4 F3       		.byte	0xf3
 6105 04b5 01       		.uleb128 0x1
 6106 04b6 50       		.byte	0x50
 6107 04b7 9F       		.byte	0x9f
 6108 04b8 2C000000 		.4byte	.LVL95
 6109 04bc 32000000 		.4byte	.LVL97
 6110 04c0 0100     		.2byte	0x1
 6111 04c2 50       		.byte	0x50
 6112 04c3 32000000 		.4byte	.LVL97
 6113 04c7 34000000 		.4byte	.LVL98
 6114 04cb 0400     		.2byte	0x4
 6115 04cd F3       		.byte	0xf3
ARM GAS  C:\Users\Phuong\AppData\Local\Temp\ccVjqX8s.s 			page 120


 6116 04ce 01       		.uleb128 0x1
 6117 04cf 50       		.byte	0x50
 6118 04d0 9F       		.byte	0x9f
 6119 04d1 34000000 		.4byte	.LVL98
 6120 04d5 36000000 		.4byte	.LVL99
 6121 04d9 0100     		.2byte	0x1
 6122 04db 50       		.byte	0x50
 6123 04dc 36000000 		.4byte	.LVL99
 6124 04e0 38000000 		.4byte	.LFE5
 6125 04e4 0400     		.2byte	0x4
 6126 04e6 F3       		.byte	0xf3
 6127 04e7 01       		.uleb128 0x1
 6128 04e8 50       		.byte	0x50
 6129 04e9 9F       		.byte	0x9f
 6130 04ea 00000000 		.4byte	0
 6131 04ee 00000000 		.4byte	0
 6132              	.LLST21:
 6133 04f2 0C000000 		.4byte	.LVL87
 6134 04f6 10000000 		.4byte	.LVL89
 6135 04fa 0200     		.2byte	0x2
 6136 04fc 32       		.byte	0x32
 6137 04fd 9F       		.byte	0x9f
 6138 04fe 1A000000 		.4byte	.LVL90
 6139 0502 1E000000 		.4byte	.LVL92
 6140 0506 0200     		.2byte	0x2
 6141 0508 31       		.byte	0x31
 6142 0509 9F       		.byte	0x9f
 6143 050a 28000000 		.4byte	.LVL93
 6144 050e 2C000000 		.4byte	.LVL95
 6145 0512 0200     		.2byte	0x2
 6146 0514 34       		.byte	0x34
 6147 0515 9F       		.byte	0x9f
 6148 0516 30000000 		.4byte	.LVL96
 6149 051a 34000000 		.4byte	.LVL98
 6150 051e 0200     		.2byte	0x2
 6151 0520 30       		.byte	0x30
 6152 0521 9F       		.byte	0x9f
 6153 0522 36000000 		.4byte	.LVL99
 6154 0526 38000000 		.4byte	.LFE5
 6155 052a 0100     		.2byte	0x1
 6156 052c 50       		.byte	0x50
 6157 052d 00000000 		.4byte	0
 6158 0531 00000000 		.4byte	0
 6159              	.LLST22:
 6160 0535 00000000 		.4byte	.LVL100
 6161 0539 13000000 		.4byte	.LVL101-1
 6162 053d 0100     		.2byte	0x1
 6163 053f 50       		.byte	0x50
 6164 0540 13000000 		.4byte	.LVL101-1
 6165 0544 34000000 		.4byte	.LVL105
 6166 0548 0100     		.2byte	0x1
 6167 054a 54       		.byte	0x54
 6168 054b 34000000 		.4byte	.LVL105
 6169 054f 3D000000 		.4byte	.LVL106-1
 6170 0553 0100     		.2byte	0x1
 6171 0555 50       		.byte	0x50
 6172 0556 3D000000 		.4byte	.LVL106-1
ARM GAS  C:\Users\Phuong\AppData\Local\Temp\ccVjqX8s.s 			page 121


 6173 055a 40000000 		.4byte	.LVL107
 6174 055e 0100     		.2byte	0x1
 6175 0560 54       		.byte	0x54
 6176 0561 40000000 		.4byte	.LVL107
 6177 0565 5E000000 		.4byte	.LVL110
 6178 0569 0400     		.2byte	0x4
 6179 056b F3       		.byte	0xf3
 6180 056c 01       		.uleb128 0x1
 6181 056d 50       		.byte	0x50
 6182 056e 9F       		.byte	0x9f
 6183 056f 5E000000 		.4byte	.LVL110
 6184 0573 61000000 		.4byte	.LVL111-1
 6185 0577 0100     		.2byte	0x1
 6186 0579 50       		.byte	0x50
 6187 057a 61000000 		.4byte	.LVL111-1
 6188 057e 64000000 		.4byte	.LVL112
 6189 0582 0100     		.2byte	0x1
 6190 0584 54       		.byte	0x54
 6191 0585 64000000 		.4byte	.LVL112
 6192 0589 82000000 		.4byte	.LVL115
 6193 058d 0400     		.2byte	0x4
 6194 058f F3       		.byte	0xf3
 6195 0590 01       		.uleb128 0x1
 6196 0591 50       		.byte	0x50
 6197 0592 9F       		.byte	0x9f
 6198 0593 82000000 		.4byte	.LVL115
 6199 0597 86000000 		.4byte	.LVL117
 6200 059b 0100     		.2byte	0x1
 6201 059d 54       		.byte	0x54
 6202 059e 86000000 		.4byte	.LVL117
 6203 05a2 A8000000 		.4byte	.LFE6
 6204 05a6 0400     		.2byte	0x4
 6205 05a8 F3       		.byte	0xf3
 6206 05a9 01       		.uleb128 0x1
 6207 05aa 50       		.byte	0x50
 6208 05ab 9F       		.byte	0x9f
 6209 05ac 00000000 		.4byte	0
 6210 05b0 00000000 		.4byte	0
 6211              	.LLST23:
 6212 05b4 00000000 		.4byte	.LVL100
 6213 05b8 13000000 		.4byte	.LVL101-1
 6214 05bc 0100     		.2byte	0x1
 6215 05be 51       		.byte	0x51
 6216 05bf 13000000 		.4byte	.LVL101-1
 6217 05c3 34000000 		.4byte	.LVL105
 6218 05c7 0100     		.2byte	0x1
 6219 05c9 55       		.byte	0x55
 6220 05ca 34000000 		.4byte	.LVL105
 6221 05ce 3D000000 		.4byte	.LVL106-1
 6222 05d2 0100     		.2byte	0x1
 6223 05d4 51       		.byte	0x51
 6224 05d5 3D000000 		.4byte	.LVL106-1
 6225 05d9 5E000000 		.4byte	.LVL110
 6226 05dd 0100     		.2byte	0x1
 6227 05df 55       		.byte	0x55
 6228 05e0 5E000000 		.4byte	.LVL110
 6229 05e4 61000000 		.4byte	.LVL111-1
ARM GAS  C:\Users\Phuong\AppData\Local\Temp\ccVjqX8s.s 			page 122


 6230 05e8 0100     		.2byte	0x1
 6231 05ea 51       		.byte	0x51
 6232 05eb 61000000 		.4byte	.LVL111-1
 6233 05ef 92000000 		.4byte	.LVL122
 6234 05f3 0100     		.2byte	0x1
 6235 05f5 55       		.byte	0x55
 6236 05f6 92000000 		.4byte	.LVL122
 6237 05fa A8000000 		.4byte	.LFE6
 6238 05fe 0400     		.2byte	0x4
 6239 0600 F3       		.byte	0xf3
 6240 0601 01       		.uleb128 0x1
 6241 0602 51       		.byte	0x51
 6242 0603 9F       		.byte	0x9f
 6243 0604 00000000 		.4byte	0
 6244 0608 00000000 		.4byte	0
 6245              	.LLST24:
 6246 060c 16000000 		.4byte	.LVL102
 6247 0610 2E000000 		.4byte	.LVL103
 6248 0614 0100     		.2byte	0x1
 6249 0616 50       		.byte	0x50
 6250 0617 2E000000 		.4byte	.LVL103
 6251 061b 34000000 		.4byte	.LVL105
 6252 061f 0100     		.2byte	0x1
 6253 0621 56       		.byte	0x56
 6254 0622 82000000 		.4byte	.LVL115
 6255 0626 84000000 		.4byte	.LVL116
 6256 062a 0100     		.2byte	0x1
 6257 062c 50       		.byte	0x50
 6258 062d 84000000 		.4byte	.LVL116
 6259 0631 86000000 		.4byte	.LVL117
 6260 0635 0100     		.2byte	0x1
 6261 0637 56       		.byte	0x56
 6262 0638 00000000 		.4byte	0
 6263 063c 00000000 		.4byte	0
 6264              	.LLST25:
 6265 0640 40000000 		.4byte	.LVL107
 6266 0644 56000000 		.4byte	.LVL108
 6267 0648 0100     		.2byte	0x1
 6268 064a 50       		.byte	0x50
 6269 064b 56000000 		.4byte	.LVL108
 6270 064f 5E000000 		.4byte	.LVL110
 6271 0653 0100     		.2byte	0x1
 6272 0655 54       		.byte	0x54
 6273 0656 86000000 		.4byte	.LVL117
 6274 065a 88000000 		.4byte	.LVL118
 6275 065e 0100     		.2byte	0x1
 6276 0660 50       		.byte	0x50
 6277 0661 88000000 		.4byte	.LVL118
 6278 0665 8C000000 		.4byte	.LVL119
 6279 0669 0100     		.2byte	0x1
 6280 066b 54       		.byte	0x54
 6281 066c 00000000 		.4byte	0
 6282 0670 00000000 		.4byte	0
 6283              	.LLST26:
 6284 0674 64000000 		.4byte	.LVL112
 6285 0678 7A000000 		.4byte	.LVL113
 6286 067c 0100     		.2byte	0x1
ARM GAS  C:\Users\Phuong\AppData\Local\Temp\ccVjqX8s.s 			page 123


 6287 067e 50       		.byte	0x50
 6288 067f 7A000000 		.4byte	.LVL113
 6289 0683 82000000 		.4byte	.LVL115
 6290 0687 0100     		.2byte	0x1
 6291 0689 54       		.byte	0x54
 6292 068a 8C000000 		.4byte	.LVL119
 6293 068e 8E000000 		.4byte	.LVL120
 6294 0692 0100     		.2byte	0x1
 6295 0694 50       		.byte	0x50
 6296 0695 8E000000 		.4byte	.LVL120
 6297 0699 90000000 		.4byte	.LVL121
 6298 069d 0100     		.2byte	0x1
 6299 069f 54       		.byte	0x54
 6300 06a0 00000000 		.4byte	0
 6301 06a4 00000000 		.4byte	0
 6302              	.LLST27:
 6303 06a8 00000000 		.4byte	.LVL123
 6304 06ac 0B000000 		.4byte	.LVL124-1
 6305 06b0 0100     		.2byte	0x1
 6306 06b2 50       		.byte	0x50
 6307 06b3 0B000000 		.4byte	.LVL124-1
 6308 06b7 2C000000 		.4byte	.LVL128
 6309 06bb 0100     		.2byte	0x1
 6310 06bd 54       		.byte	0x54
 6311 06be 2C000000 		.4byte	.LVL128
 6312 06c2 2E000000 		.4byte	.LVL129
 6313 06c6 0100     		.2byte	0x1
 6314 06c8 50       		.byte	0x50
 6315 06c9 2E000000 		.4byte	.LVL129
 6316 06cd 34000000 		.4byte	.LVL132
 6317 06d1 0100     		.2byte	0x1
 6318 06d3 54       		.byte	0x54
 6319 06d4 34000000 		.4byte	.LVL132
 6320 06d8 44000000 		.4byte	.LFE7
 6321 06dc 0400     		.2byte	0x4
 6322 06de F3       		.byte	0xf3
 6323 06df 01       		.uleb128 0x1
 6324 06e0 50       		.byte	0x50
 6325 06e1 9F       		.byte	0x9f
 6326 06e2 00000000 		.4byte	0
 6327 06e6 00000000 		.4byte	0
 6328              	.LLST28:
 6329 06ea 2E000000 		.4byte	.LVL129
 6330 06ee 30000000 		.4byte	.LVL130
 6331 06f2 0100     		.2byte	0x1
 6332 06f4 50       		.byte	0x50
 6333 06f5 32000000 		.4byte	.LVL131
 6334 06f9 44000000 		.4byte	.LFE7
 6335 06fd 0100     		.2byte	0x1
 6336 06ff 50       		.byte	0x50
 6337 0700 00000000 		.4byte	0
 6338 0704 00000000 		.4byte	0
 6339              	.LLST29:
 6340 0708 0E000000 		.4byte	.LVL125
 6341 070c 26000000 		.4byte	.LVL126
 6342 0710 0100     		.2byte	0x1
 6343 0712 50       		.byte	0x50
ARM GAS  C:\Users\Phuong\AppData\Local\Temp\ccVjqX8s.s 			page 124


 6344 0713 26000000 		.4byte	.LVL126
 6345 0717 2C000000 		.4byte	.LVL128
 6346 071b 0100     		.2byte	0x1
 6347 071d 55       		.byte	0x55
 6348 071e 30000000 		.4byte	.LVL130
 6349 0722 32000000 		.4byte	.LVL131
 6350 0726 0100     		.2byte	0x1
 6351 0728 50       		.byte	0x50
 6352 0729 00000000 		.4byte	0
 6353 072d 00000000 		.4byte	0
 6354              	.LLST30:
 6355 0731 00000000 		.4byte	.LVL133
 6356 0735 13000000 		.4byte	.LVL134-1
 6357 0739 0100     		.2byte	0x1
 6358 073b 50       		.byte	0x50
 6359 073c 13000000 		.4byte	.LVL134-1
 6360 0740 36000000 		.4byte	.LVL138
 6361 0744 0100     		.2byte	0x1
 6362 0746 54       		.byte	0x54
 6363 0747 36000000 		.4byte	.LVL138
 6364 074b 3F000000 		.4byte	.LVL140-1
 6365 074f 0100     		.2byte	0x1
 6366 0751 50       		.byte	0x50
 6367 0752 3F000000 		.4byte	.LVL140-1
 6368 0756 42000000 		.4byte	.LVL141
 6369 075a 0100     		.2byte	0x1
 6370 075c 54       		.byte	0x54
 6371 075d 42000000 		.4byte	.LVL141
 6372 0761 60000000 		.4byte	.LVL144
 6373 0765 0400     		.2byte	0x4
 6374 0767 F3       		.byte	0xf3
 6375 0768 01       		.uleb128 0x1
 6376 0769 50       		.byte	0x50
 6377 076a 9F       		.byte	0x9f
 6378 076b 60000000 		.4byte	.LVL144
 6379 076f 6C000000 		.4byte	.LVL146
 6380 0773 0100     		.2byte	0x1
 6381 0775 50       		.byte	0x50
 6382 0776 6C000000 		.4byte	.LVL146
 6383 077a 7C000000 		.4byte	.LVL149
 6384 077e 0100     		.2byte	0x1
 6385 0780 54       		.byte	0x54
 6386 0781 7C000000 		.4byte	.LVL149
 6387 0785 9A000000 		.4byte	.LVL152
 6388 0789 0400     		.2byte	0x4
 6389 078b F3       		.byte	0xf3
 6390 078c 01       		.uleb128 0x1
 6391 078d 50       		.byte	0x50
 6392 078e 9F       		.byte	0x9f
 6393 078f 9A000000 		.4byte	.LVL152
 6394 0793 9D000000 		.4byte	.LVL153-1
 6395 0797 0100     		.2byte	0x1
 6396 0799 50       		.byte	0x50
 6397 079a 9D000000 		.4byte	.LVL153-1
 6398 079e A0000000 		.4byte	.LVL154
 6399 07a2 0100     		.2byte	0x1
 6400 07a4 54       		.byte	0x54
ARM GAS  C:\Users\Phuong\AppData\Local\Temp\ccVjqX8s.s 			page 125


 6401 07a5 A0000000 		.4byte	.LVL154
 6402 07a9 BE000000 		.4byte	.LVL157
 6403 07ad 0400     		.2byte	0x4
 6404 07af F3       		.byte	0xf3
 6405 07b0 01       		.uleb128 0x1
 6406 07b1 50       		.byte	0x50
 6407 07b2 9F       		.byte	0x9f
 6408 07b3 BE000000 		.4byte	.LVL157
 6409 07b7 C9000000 		.4byte	.LVL158-1
 6410 07bb 0100     		.2byte	0x1
 6411 07bd 50       		.byte	0x50
 6412 07be C9000000 		.4byte	.LVL158-1
 6413 07c2 CC000000 		.4byte	.LVL159
 6414 07c6 0100     		.2byte	0x1
 6415 07c8 54       		.byte	0x54
 6416 07c9 CC000000 		.4byte	.LVL159
 6417 07cd EC000000 		.4byte	.LVL162
 6418 07d1 0400     		.2byte	0x4
 6419 07d3 F3       		.byte	0xf3
 6420 07d4 01       		.uleb128 0x1
 6421 07d5 50       		.byte	0x50
 6422 07d6 9F       		.byte	0x9f
 6423 07d7 EC000000 		.4byte	.LVL162
 6424 07db EE000000 		.4byte	.LVL163
 6425 07df 0100     		.2byte	0x1
 6426 07e1 50       		.byte	0x50
 6427 07e2 EE000000 		.4byte	.LVL163
 6428 07e6 FC000000 		.4byte	.LVL166
 6429 07ea 0100     		.2byte	0x1
 6430 07ec 54       		.byte	0x54
 6431 07ed FC000000 		.4byte	.LVL166
 6432 07f1 1A010000 		.4byte	.LVL169
 6433 07f5 0400     		.2byte	0x4
 6434 07f7 F3       		.byte	0xf3
 6435 07f8 01       		.uleb128 0x1
 6436 07f9 50       		.byte	0x50
 6437 07fa 9F       		.byte	0x9f
 6438 07fb 1A010000 		.4byte	.LVL169
 6439 07ff 2A010000 		.4byte	.LVL172
 6440 0803 0100     		.2byte	0x1
 6441 0805 54       		.byte	0x54
 6442 0806 2A010000 		.4byte	.LVL172
 6443 080a 8A010000 		.4byte	.LVL186
 6444 080e 0400     		.2byte	0x4
 6445 0810 F3       		.byte	0xf3
 6446 0811 01       		.uleb128 0x1
 6447 0812 50       		.byte	0x50
 6448 0813 9F       		.byte	0x9f
 6449 0814 8A010000 		.4byte	.LVL186
 6450 0818 8D010000 		.4byte	.LVL187-1
 6451 081c 0100     		.2byte	0x1
 6452 081e 50       		.byte	0x50
 6453 081f 8D010000 		.4byte	.LVL187-1
 6454 0823 90010000 		.4byte	.LVL188
 6455 0827 0100     		.2byte	0x1
 6456 0829 54       		.byte	0x54
 6457 082a 90010000 		.4byte	.LVL188
ARM GAS  C:\Users\Phuong\AppData\Local\Temp\ccVjqX8s.s 			page 126


 6458 082e E0010000 		.4byte	.LFE8
 6459 0832 0400     		.2byte	0x4
 6460 0834 F3       		.byte	0xf3
 6461 0835 01       		.uleb128 0x1
 6462 0836 50       		.byte	0x50
 6463 0837 9F       		.byte	0x9f
 6464 0838 00000000 		.4byte	0
 6465 083c 00000000 		.4byte	0
 6466              	.LLST31:
 6467 0840 00000000 		.4byte	.LVL133
 6468 0844 13000000 		.4byte	.LVL134-1
 6469 0848 0100     		.2byte	0x1
 6470 084a 51       		.byte	0x51
 6471 084b 13000000 		.4byte	.LVL134-1
 6472 084f 16000000 		.4byte	.LVL135
 6473 0853 0100     		.2byte	0x1
 6474 0855 55       		.byte	0x55
 6475 0856 16000000 		.4byte	.LVL135
 6476 085a 36000000 		.4byte	.LVL138
 6477 085e 0400     		.2byte	0x4
 6478 0860 F3       		.byte	0xf3
 6479 0861 01       		.uleb128 0x1
 6480 0862 51       		.byte	0x51
 6481 0863 9F       		.byte	0x9f
 6482 0864 36000000 		.4byte	.LVL138
 6483 0868 3F000000 		.4byte	.LVL140-1
 6484 086c 0100     		.2byte	0x1
 6485 086e 51       		.byte	0x51
 6486 086f 3F000000 		.4byte	.LVL140-1
 6487 0873 60000000 		.4byte	.LVL144
 6488 0877 0100     		.2byte	0x1
 6489 0879 55       		.byte	0x55
 6490 087a 60000000 		.4byte	.LVL144
 6491 087e 66000000 		.4byte	.LVL145
 6492 0882 0100     		.2byte	0x1
 6493 0884 51       		.byte	0x51
 6494 0885 66000000 		.4byte	.LVL145
 6495 0889 BE000000 		.4byte	.LVL157
 6496 088d 0100     		.2byte	0x1
 6497 088f 55       		.byte	0x55
 6498 0890 BE000000 		.4byte	.LVL157
 6499 0894 C9000000 		.4byte	.LVL158-1
 6500 0898 0100     		.2byte	0x1
 6501 089a 51       		.byte	0x51
 6502 089b C9000000 		.4byte	.LVL158-1
 6503 089f EC000000 		.4byte	.LVL162
 6504 08a3 0100     		.2byte	0x1
 6505 08a5 55       		.byte	0x55
 6506 08a6 EC000000 		.4byte	.LVL162
 6507 08aa F1000000 		.4byte	.LVL164-1
 6508 08ae 0100     		.2byte	0x1
 6509 08b0 51       		.byte	0x51
 6510 08b1 F1000000 		.4byte	.LVL164-1
 6511 08b5 66010000 		.4byte	.LVL181
 6512 08b9 0100     		.2byte	0x1
 6513 08bb 55       		.byte	0x55
 6514 08bc 66010000 		.4byte	.LVL181
ARM GAS  C:\Users\Phuong\AppData\Local\Temp\ccVjqX8s.s 			page 127


 6515 08c0 8A010000 		.4byte	.LVL186
 6516 08c4 0400     		.2byte	0x4
 6517 08c6 F3       		.byte	0xf3
 6518 08c7 01       		.uleb128 0x1
 6519 08c8 51       		.byte	0x51
 6520 08c9 9F       		.byte	0x9f
 6521 08ca 8A010000 		.4byte	.LVL186
 6522 08ce 8D010000 		.4byte	.LVL187-1
 6523 08d2 0100     		.2byte	0x1
 6524 08d4 51       		.byte	0x51
 6525 08d5 8D010000 		.4byte	.LVL187-1
 6526 08d9 AC010000 		.4byte	.LVL191
 6527 08dd 0100     		.2byte	0x1
 6528 08df 55       		.byte	0x55
 6529 08e0 AC010000 		.4byte	.LVL191
 6530 08e4 E0010000 		.4byte	.LFE8
 6531 08e8 0400     		.2byte	0x4
 6532 08ea F3       		.byte	0xf3
 6533 08eb 01       		.uleb128 0x1
 6534 08ec 51       		.byte	0x51
 6535 08ed 9F       		.byte	0x9f
 6536 08ee 00000000 		.4byte	0
 6537 08f2 00000000 		.4byte	0
 6538              	.LLST32:
 6539 08f6 00000000 		.4byte	.LVL133
 6540 08fa 13000000 		.4byte	.LVL134-1
 6541 08fe 0100     		.2byte	0x1
 6542 0900 52       		.byte	0x52
 6543 0901 13000000 		.4byte	.LVL134-1
 6544 0905 36000000 		.4byte	.LVL138
 6545 0909 0100     		.2byte	0x1
 6546 090b 56       		.byte	0x56
 6547 090c 36000000 		.4byte	.LVL138
 6548 0910 3F000000 		.4byte	.LVL140-1
 6549 0914 0100     		.2byte	0x1
 6550 0916 52       		.byte	0x52
 6551 0917 3F000000 		.4byte	.LVL140-1
 6552 091b 60000000 		.4byte	.LVL144
 6553 091f 0100     		.2byte	0x1
 6554 0921 56       		.byte	0x56
 6555 0922 60000000 		.4byte	.LVL144
 6556 0926 6F000000 		.4byte	.LVL147-1
 6557 092a 0100     		.2byte	0x1
 6558 092c 52       		.byte	0x52
 6559 092d 6F000000 		.4byte	.LVL147-1
 6560 0931 9A000000 		.4byte	.LVL152
 6561 0935 0100     		.2byte	0x1
 6562 0937 56       		.byte	0x56
 6563 0938 9A000000 		.4byte	.LVL152
 6564 093c 9D000000 		.4byte	.LVL153-1
 6565 0940 0100     		.2byte	0x1
 6566 0942 52       		.byte	0x52
 6567 0943 9D000000 		.4byte	.LVL153-1
 6568 0947 BE000000 		.4byte	.LVL157
 6569 094b 0100     		.2byte	0x1
 6570 094d 56       		.byte	0x56
 6571 094e BE000000 		.4byte	.LVL157
ARM GAS  C:\Users\Phuong\AppData\Local\Temp\ccVjqX8s.s 			page 128


 6572 0952 C9000000 		.4byte	.LVL158-1
 6573 0956 0100     		.2byte	0x1
 6574 0958 52       		.byte	0x52
 6575 0959 C9000000 		.4byte	.LVL158-1
 6576 095d EC000000 		.4byte	.LVL162
 6577 0961 0100     		.2byte	0x1
 6578 0963 56       		.byte	0x56
 6579 0964 EC000000 		.4byte	.LVL162
 6580 0968 F1000000 		.4byte	.LVL164-1
 6581 096c 0100     		.2byte	0x1
 6582 096e 52       		.byte	0x52
 6583 096f F1000000 		.4byte	.LVL164-1
 6584 0973 8A010000 		.4byte	.LVL186
 6585 0977 0100     		.2byte	0x1
 6586 0979 56       		.byte	0x56
 6587 097a 8A010000 		.4byte	.LVL186
 6588 097e 8D010000 		.4byte	.LVL187-1
 6589 0982 0100     		.2byte	0x1
 6590 0984 52       		.byte	0x52
 6591 0985 8D010000 		.4byte	.LVL187-1
 6592 0989 B0010000 		.4byte	.LVL192
 6593 098d 0100     		.2byte	0x1
 6594 098f 56       		.byte	0x56
 6595 0990 B0010000 		.4byte	.LVL192
 6596 0994 E0010000 		.4byte	.LFE8
 6597 0998 0400     		.2byte	0x4
 6598 099a F3       		.byte	0xf3
 6599 099b 01       		.uleb128 0x1
 6600 099c 52       		.byte	0x52
 6601 099d 9F       		.byte	0x9f
 6602 099e 00000000 		.4byte	0
 6603 09a2 00000000 		.4byte	0
 6604              	.LLST33:
 6605 09a6 00000000 		.4byte	.LVL133
 6606 09aa 13000000 		.4byte	.LVL134-1
 6607 09ae 0100     		.2byte	0x1
 6608 09b0 53       		.byte	0x53
 6609 09b1 13000000 		.4byte	.LVL134-1
 6610 09b5 36000000 		.4byte	.LVL138
 6611 09b9 0100     		.2byte	0x1
 6612 09bb 57       		.byte	0x57
 6613 09bc 36000000 		.4byte	.LVL138
 6614 09c0 38000000 		.4byte	.LVL139
 6615 09c4 0100     		.2byte	0x1
 6616 09c6 53       		.byte	0x53
 6617 09c7 38000000 		.4byte	.LVL139
 6618 09cb B0010000 		.4byte	.LVL193
 6619 09cf 0100     		.2byte	0x1
 6620 09d1 57       		.byte	0x57
 6621 09d2 B0010000 		.4byte	.LVL193
 6622 09d6 E0010000 		.4byte	.LFE8
 6623 09da 0400     		.2byte	0x4
 6624 09dc F3       		.byte	0xf3
 6625 09dd 01       		.uleb128 0x1
 6626 09de 53       		.byte	0x53
 6627 09df 9F       		.byte	0x9f
 6628 09e0 00000000 		.4byte	0
ARM GAS  C:\Users\Phuong\AppData\Local\Temp\ccVjqX8s.s 			page 129


 6629 09e4 00000000 		.4byte	0
 6630              	.LLST34:
 6631 09e8 16000000 		.4byte	.LVL135
 6632 09ec 2E000000 		.4byte	.LVL136
 6633 09f0 0100     		.2byte	0x1
 6634 09f2 50       		.byte	0x50
 6635 09f3 2E000000 		.4byte	.LVL136
 6636 09f7 36000000 		.4byte	.LVL138
 6637 09fb 0100     		.2byte	0x1
 6638 09fd 55       		.byte	0x55
 6639 09fe 00000000 		.4byte	0
 6640 0a02 00000000 		.4byte	0
 6641              	.LLST35:
 6642 0a06 42000000 		.4byte	.LVL141
 6643 0a0a 58000000 		.4byte	.LVL142
 6644 0a0e 0100     		.2byte	0x1
 6645 0a10 50       		.byte	0x50
 6646 0a11 58000000 		.4byte	.LVL142
 6647 0a15 60000000 		.4byte	.LVL144
 6648 0a19 0100     		.2byte	0x1
 6649 0a1b 54       		.byte	0x54
 6650 0a1c 00000000 		.4byte	0
 6651 0a20 00000000 		.4byte	0
 6652              	.LLST36:
 6653 0a24 7C000000 		.4byte	.LVL149
 6654 0a28 92000000 		.4byte	.LVL150
 6655 0a2c 0100     		.2byte	0x1
 6656 0a2e 50       		.byte	0x50
 6657 0a2f 92000000 		.4byte	.LVL150
 6658 0a33 9A000000 		.4byte	.LVL152
 6659 0a37 0100     		.2byte	0x1
 6660 0a39 54       		.byte	0x54
 6661 0a3a 00000000 		.4byte	0
 6662 0a3e 00000000 		.4byte	0
 6663              	.LLST37:
 6664 0a42 A0000000 		.4byte	.LVL154
 6665 0a46 B6000000 		.4byte	.LVL155
 6666 0a4a 0100     		.2byte	0x1
 6667 0a4c 50       		.byte	0x50
 6668 0a4d B6000000 		.4byte	.LVL155
 6669 0a51 BE000000 		.4byte	.LVL157
 6670 0a55 0100     		.2byte	0x1
 6671 0a57 54       		.byte	0x54
 6672 0a58 00000000 		.4byte	0
 6673 0a5c 00000000 		.4byte	0
 6674              	.LLST38:
 6675 0a60 CC000000 		.4byte	.LVL159
 6676 0a64 E4000000 		.4byte	.LVL160
 6677 0a68 0100     		.2byte	0x1
 6678 0a6a 50       		.byte	0x50
 6679 0a6b E4000000 		.4byte	.LVL160
 6680 0a6f EC000000 		.4byte	.LVL162
 6681 0a73 0100     		.2byte	0x1
 6682 0a75 54       		.byte	0x54
 6683 0a76 00000000 		.4byte	0
 6684 0a7a 00000000 		.4byte	0
 6685              	.LLST39:
ARM GAS  C:\Users\Phuong\AppData\Local\Temp\ccVjqX8s.s 			page 130


 6686 0a7e 2A010000 		.4byte	.LVL172
 6687 0a82 2F010000 		.4byte	.LVL173-1
 6688 0a86 0100     		.2byte	0x1
 6689 0a88 50       		.byte	0x50
 6690 0a89 2F010000 		.4byte	.LVL173-1
 6691 0a8d 32010000 		.4byte	.LVL174
 6692 0a91 0100     		.2byte	0x1
 6693 0a93 54       		.byte	0x54
 6694 0a94 50010000 		.4byte	.LVL177
 6695 0a98 53010000 		.4byte	.LVL178-1
 6696 0a9c 0100     		.2byte	0x1
 6697 0a9e 50       		.byte	0x50
 6698 0a9f 53010000 		.4byte	.LVL178-1
 6699 0aa3 8A010000 		.4byte	.LVL186
 6700 0aa7 0100     		.2byte	0x1
 6701 0aa9 54       		.byte	0x54
 6702 0aaa 00000000 		.4byte	0
 6703 0aae 00000000 		.4byte	0
 6704              	.LLST40:
 6705 0ab2 FC000000 		.4byte	.LVL166
 6706 0ab6 12010000 		.4byte	.LVL167
 6707 0aba 0100     		.2byte	0x1
 6708 0abc 50       		.byte	0x50
 6709 0abd 12010000 		.4byte	.LVL167
 6710 0ac1 1A010000 		.4byte	.LVL169
 6711 0ac5 0100     		.2byte	0x1
 6712 0ac7 54       		.byte	0x54
 6713 0ac8 00000000 		.4byte	0
 6714 0acc 00000000 		.4byte	0
 6715              	.LLST41:
 6716 0ad0 1E010000 		.4byte	.LVL170
 6717 0ad4 27010000 		.4byte	.LVL171-1
 6718 0ad8 0100     		.2byte	0x1
 6719 0ada 53       		.byte	0x53
 6720 0adb 00000000 		.4byte	0
 6721 0adf 00000000 		.4byte	0
 6722              	.LLST42:
 6723 0ae3 32010000 		.4byte	.LVL174
 6724 0ae7 48010000 		.4byte	.LVL175
 6725 0aeb 0100     		.2byte	0x1
 6726 0aed 50       		.byte	0x50
 6727 0aee 48010000 		.4byte	.LVL175
 6728 0af2 50010000 		.4byte	.LVL177
 6729 0af6 0100     		.2byte	0x1
 6730 0af8 54       		.byte	0x54
 6731 0af9 00000000 		.4byte	0
 6732 0afd 00000000 		.4byte	0
 6733              	.LLST43:
 6734 0b01 66010000 		.4byte	.LVL181
 6735 0b05 7C010000 		.4byte	.LVL182
 6736 0b09 0100     		.2byte	0x1
 6737 0b0b 50       		.byte	0x50
 6738 0b0c 7C010000 		.4byte	.LVL182
 6739 0b10 82010000 		.4byte	.LVL184
 6740 0b14 0100     		.2byte	0x1
 6741 0b16 55       		.byte	0x55
 6742 0b17 00000000 		.4byte	0
ARM GAS  C:\Users\Phuong\AppData\Local\Temp\ccVjqX8s.s 			page 131


 6743 0b1b 00000000 		.4byte	0
 6744              	.LLST44:
 6745 0b1f 90010000 		.4byte	.LVL188
 6746 0b23 A6010000 		.4byte	.LVL189
 6747 0b27 0100     		.2byte	0x1
 6748 0b29 50       		.byte	0x50
 6749 0b2a A6010000 		.4byte	.LVL189
 6750 0b2e AC010000 		.4byte	.LVL191
 6751 0b32 0100     		.2byte	0x1
 6752 0b34 54       		.byte	0x54
 6753 0b35 00000000 		.4byte	0
 6754 0b39 00000000 		.4byte	0
 6755              	.LLST45:
 6756 0b3d 00000000 		.4byte	.LVL194
 6757 0b41 0B000000 		.4byte	.LVL195-1
 6758 0b45 0100     		.2byte	0x1
 6759 0b47 50       		.byte	0x50
 6760 0b48 0B000000 		.4byte	.LVL195-1
 6761 0b4c 2C000000 		.4byte	.LVL199
 6762 0b50 0100     		.2byte	0x1
 6763 0b52 54       		.byte	0x54
 6764 0b53 2C000000 		.4byte	.LVL199
 6765 0b57 2E000000 		.4byte	.LVL200
 6766 0b5b 0100     		.2byte	0x1
 6767 0b5d 50       		.byte	0x50
 6768 0b5e 2E000000 		.4byte	.LVL200
 6769 0b62 34000000 		.4byte	.LVL203
 6770 0b66 0100     		.2byte	0x1
 6771 0b68 54       		.byte	0x54
 6772 0b69 34000000 		.4byte	.LVL203
 6773 0b6d 44000000 		.4byte	.LFE9
 6774 0b71 0400     		.2byte	0x4
 6775 0b73 F3       		.byte	0xf3
 6776 0b74 01       		.uleb128 0x1
 6777 0b75 50       		.byte	0x50
 6778 0b76 9F       		.byte	0x9f
 6779 0b77 00000000 		.4byte	0
 6780 0b7b 00000000 		.4byte	0
 6781              	.LLST46:
 6782 0b7f 2E000000 		.4byte	.LVL200
 6783 0b83 30000000 		.4byte	.LVL201
 6784 0b87 0100     		.2byte	0x1
 6785 0b89 50       		.byte	0x50
 6786 0b8a 32000000 		.4byte	.LVL202
 6787 0b8e 44000000 		.4byte	.LFE9
 6788 0b92 0100     		.2byte	0x1
 6789 0b94 50       		.byte	0x50
 6790 0b95 00000000 		.4byte	0
 6791 0b99 00000000 		.4byte	0
 6792              	.LLST47:
 6793 0b9d 0E000000 		.4byte	.LVL196
 6794 0ba1 26000000 		.4byte	.LVL197
 6795 0ba5 0100     		.2byte	0x1
 6796 0ba7 50       		.byte	0x50
 6797 0ba8 26000000 		.4byte	.LVL197
 6798 0bac 2C000000 		.4byte	.LVL199
 6799 0bb0 0100     		.2byte	0x1
ARM GAS  C:\Users\Phuong\AppData\Local\Temp\ccVjqX8s.s 			page 132


 6800 0bb2 55       		.byte	0x55
 6801 0bb3 30000000 		.4byte	.LVL201
 6802 0bb7 32000000 		.4byte	.LVL202
 6803 0bbb 0100     		.2byte	0x1
 6804 0bbd 50       		.byte	0x50
 6805 0bbe 00000000 		.4byte	0
 6806 0bc2 00000000 		.4byte	0
 6807              	.LLST48:
 6808 0bc6 00000000 		.4byte	.LVL204
 6809 0bca 0B000000 		.4byte	.LVL205-1
 6810 0bce 0100     		.2byte	0x1
 6811 0bd0 50       		.byte	0x50
 6812 0bd1 0B000000 		.4byte	.LVL205-1
 6813 0bd5 2C000000 		.4byte	.LVL209
 6814 0bd9 0100     		.2byte	0x1
 6815 0bdb 54       		.byte	0x54
 6816 0bdc 2C000000 		.4byte	.LVL209
 6817 0be0 2E000000 		.4byte	.LVL210
 6818 0be4 0100     		.2byte	0x1
 6819 0be6 50       		.byte	0x50
 6820 0be7 2E000000 		.4byte	.LVL210
 6821 0beb 34000000 		.4byte	.LVL213
 6822 0bef 0100     		.2byte	0x1
 6823 0bf1 54       		.byte	0x54
 6824 0bf2 34000000 		.4byte	.LVL213
 6825 0bf6 44000000 		.4byte	.LFE10
 6826 0bfa 0400     		.2byte	0x4
 6827 0bfc F3       		.byte	0xf3
 6828 0bfd 01       		.uleb128 0x1
 6829 0bfe 50       		.byte	0x50
 6830 0bff 9F       		.byte	0x9f
 6831 0c00 00000000 		.4byte	0
 6832 0c04 00000000 		.4byte	0
 6833              	.LLST49:
 6834 0c08 2E000000 		.4byte	.LVL210
 6835 0c0c 30000000 		.4byte	.LVL211
 6836 0c10 0100     		.2byte	0x1
 6837 0c12 50       		.byte	0x50
 6838 0c13 32000000 		.4byte	.LVL212
 6839 0c17 44000000 		.4byte	.LFE10
 6840 0c1b 0100     		.2byte	0x1
 6841 0c1d 50       		.byte	0x50
 6842 0c1e 00000000 		.4byte	0
 6843 0c22 00000000 		.4byte	0
 6844              	.LLST50:
 6845 0c26 0E000000 		.4byte	.LVL206
 6846 0c2a 26000000 		.4byte	.LVL207
 6847 0c2e 0100     		.2byte	0x1
 6848 0c30 50       		.byte	0x50
 6849 0c31 26000000 		.4byte	.LVL207
 6850 0c35 2C000000 		.4byte	.LVL209
 6851 0c39 0100     		.2byte	0x1
 6852 0c3b 55       		.byte	0x55
 6853 0c3c 30000000 		.4byte	.LVL211
 6854 0c40 32000000 		.4byte	.LVL212
 6855 0c44 0100     		.2byte	0x1
 6856 0c46 50       		.byte	0x50
ARM GAS  C:\Users\Phuong\AppData\Local\Temp\ccVjqX8s.s 			page 133


 6857 0c47 00000000 		.4byte	0
 6858 0c4b 00000000 		.4byte	0
 6859              	.LLST51:
 6860 0c4f 00000000 		.4byte	.LVL214
 6861 0c53 0B000000 		.4byte	.LVL215-1
 6862 0c57 0100     		.2byte	0x1
 6863 0c59 50       		.byte	0x50
 6864 0c5a 0B000000 		.4byte	.LVL215-1
 6865 0c5e 2C000000 		.4byte	.LVL219
 6866 0c62 0100     		.2byte	0x1
 6867 0c64 54       		.byte	0x54
 6868 0c65 2C000000 		.4byte	.LVL219
 6869 0c69 2E000000 		.4byte	.LVL220
 6870 0c6d 0100     		.2byte	0x1
 6871 0c6f 50       		.byte	0x50
 6872 0c70 2E000000 		.4byte	.LVL220
 6873 0c74 34000000 		.4byte	.LVL223
 6874 0c78 0100     		.2byte	0x1
 6875 0c7a 54       		.byte	0x54
 6876 0c7b 34000000 		.4byte	.LVL223
 6877 0c7f 44000000 		.4byte	.LFE11
 6878 0c83 0400     		.2byte	0x4
 6879 0c85 F3       		.byte	0xf3
 6880 0c86 01       		.uleb128 0x1
 6881 0c87 50       		.byte	0x50
 6882 0c88 9F       		.byte	0x9f
 6883 0c89 00000000 		.4byte	0
 6884 0c8d 00000000 		.4byte	0
 6885              	.LLST52:
 6886 0c91 2E000000 		.4byte	.LVL220
 6887 0c95 30000000 		.4byte	.LVL221
 6888 0c99 0100     		.2byte	0x1
 6889 0c9b 50       		.byte	0x50
 6890 0c9c 32000000 		.4byte	.LVL222
 6891 0ca0 44000000 		.4byte	.LFE11
 6892 0ca4 0100     		.2byte	0x1
 6893 0ca6 50       		.byte	0x50
 6894 0ca7 00000000 		.4byte	0
 6895 0cab 00000000 		.4byte	0
 6896              	.LLST53:
 6897 0caf 0E000000 		.4byte	.LVL216
 6898 0cb3 26000000 		.4byte	.LVL217
 6899 0cb7 0100     		.2byte	0x1
 6900 0cb9 50       		.byte	0x50
 6901 0cba 26000000 		.4byte	.LVL217
 6902 0cbe 2C000000 		.4byte	.LVL219
 6903 0cc2 0100     		.2byte	0x1
 6904 0cc4 55       		.byte	0x55
 6905 0cc5 30000000 		.4byte	.LVL221
 6906 0cc9 32000000 		.4byte	.LVL222
 6907 0ccd 0100     		.2byte	0x1
 6908 0ccf 50       		.byte	0x50
 6909 0cd0 00000000 		.4byte	0
 6910 0cd4 00000000 		.4byte	0
 6911              	.LLST54:
 6912 0cd8 00000000 		.4byte	.LVL224
 6913 0cdc 0B000000 		.4byte	.LVL225-1
ARM GAS  C:\Users\Phuong\AppData\Local\Temp\ccVjqX8s.s 			page 134


 6914 0ce0 0100     		.2byte	0x1
 6915 0ce2 50       		.byte	0x50
 6916 0ce3 0B000000 		.4byte	.LVL225-1
 6917 0ce7 2A000000 		.4byte	.LVL229
 6918 0ceb 0100     		.2byte	0x1
 6919 0ced 54       		.byte	0x54
 6920 0cee 2A000000 		.4byte	.LVL229
 6921 0cf2 32000000 		.4byte	.LVL230
 6922 0cf6 0100     		.2byte	0x1
 6923 0cf8 50       		.byte	0x50
 6924 0cf9 32000000 		.4byte	.LVL230
 6925 0cfd 3C000000 		.4byte	.LVL232
 6926 0d01 0100     		.2byte	0x1
 6927 0d03 54       		.byte	0x54
 6928 0d04 3C000000 		.4byte	.LVL232
 6929 0d08 58000000 		.4byte	.LVL236
 6930 0d0c 0400     		.2byte	0x4
 6931 0d0e F3       		.byte	0xf3
 6932 0d0f 01       		.uleb128 0x1
 6933 0d10 50       		.byte	0x50
 6934 0d11 9F       		.byte	0x9f
 6935 0d12 58000000 		.4byte	.LVL236
 6936 0d16 6A000000 		.4byte	.LVL240
 6937 0d1a 0100     		.2byte	0x1
 6938 0d1c 54       		.byte	0x54
 6939 0d1d 6A000000 		.4byte	.LVL240
 6940 0d21 6C000000 		.4byte	.LVL241
 6941 0d25 0400     		.2byte	0x4
 6942 0d27 F3       		.byte	0xf3
 6943 0d28 01       		.uleb128 0x1
 6944 0d29 50       		.byte	0x50
 6945 0d2a 9F       		.byte	0x9f
 6946 0d2b 6C000000 		.4byte	.LVL241
 6947 0d2f 6E000000 		.4byte	.LVL242
 6948 0d33 0100     		.2byte	0x1
 6949 0d35 54       		.byte	0x54
 6950 0d36 6E000000 		.4byte	.LVL242
 6951 0d3a 76000000 		.4byte	.LVL244
 6952 0d3e 0400     		.2byte	0x4
 6953 0d40 F3       		.byte	0xf3
 6954 0d41 01       		.uleb128 0x1
 6955 0d42 50       		.byte	0x50
 6956 0d43 9F       		.byte	0x9f
 6957 0d44 76000000 		.4byte	.LVL244
 6958 0d48 7C000000 		.4byte	.LVL246
 6959 0d4c 0100     		.2byte	0x1
 6960 0d4e 54       		.byte	0x54
 6961 0d4f 7C000000 		.4byte	.LVL246
 6962 0d53 98000000 		.4byte	.LVL250
 6963 0d57 0400     		.2byte	0x4
 6964 0d59 F3       		.byte	0xf3
 6965 0d5a 01       		.uleb128 0x1
 6966 0d5b 50       		.byte	0x50
 6967 0d5c 9F       		.byte	0x9f
 6968 0d5d 98000000 		.4byte	.LVL250
 6969 0d61 9A000000 		.4byte	.LVL251
 6970 0d65 0100     		.2byte	0x1
ARM GAS  C:\Users\Phuong\AppData\Local\Temp\ccVjqX8s.s 			page 135


 6971 0d67 54       		.byte	0x54
 6972 0d68 9A000000 		.4byte	.LVL251
 6973 0d6c 9C000000 		.4byte	.LVL252
 6974 0d70 0400     		.2byte	0x4
 6975 0d72 F3       		.byte	0xf3
 6976 0d73 01       		.uleb128 0x1
 6977 0d74 50       		.byte	0x50
 6978 0d75 9F       		.byte	0x9f
 6979 0d76 9C000000 		.4byte	.LVL252
 6980 0d7a A0000000 		.4byte	.LVL253
 6981 0d7e 0100     		.2byte	0x1
 6982 0d80 50       		.byte	0x50
 6983 0d81 A0000000 		.4byte	.LVL253
 6984 0d85 C0000000 		.4byte	.LFE12
 6985 0d89 0400     		.2byte	0x4
 6986 0d8b F3       		.byte	0xf3
 6987 0d8c 01       		.uleb128 0x1
 6988 0d8d 50       		.byte	0x50
 6989 0d8e 9F       		.byte	0x9f
 6990 0d8f 00000000 		.4byte	0
 6991 0d93 00000000 		.4byte	0
 6992              	.LLST55:
 6993 0d97 6E000000 		.4byte	.LVL242
 6994 0d9b 76000000 		.4byte	.LVL244
 6995 0d9f 0100     		.2byte	0x1
 6996 0da1 54       		.byte	0x54
 6997 0da2 A6000000 		.4byte	.LVL255
 6998 0da6 AA000000 		.4byte	.LVL256
 6999 0daa 0100     		.2byte	0x1
 7000 0dac 54       		.byte	0x54
 7001 0dad 00000000 		.4byte	0
 7002 0db1 00000000 		.4byte	0
 7003              	.LLST56:
 7004 0db5 0E000000 		.4byte	.LVL226
 7005 0db9 26000000 		.4byte	.LVL227
 7006 0dbd 0100     		.2byte	0x1
 7007 0dbf 50       		.byte	0x50
 7008 0dc0 26000000 		.4byte	.LVL227
 7009 0dc4 2A000000 		.4byte	.LVL229
 7010 0dc8 0100     		.2byte	0x1
 7011 0dca 55       		.byte	0x55
 7012 0dcb 98000000 		.4byte	.LVL250
 7013 0dcf 9C000000 		.4byte	.LVL252
 7014 0dd3 0100     		.2byte	0x1
 7015 0dd5 50       		.byte	0x50
 7016 0dd6 00000000 		.4byte	0
 7017 0dda 00000000 		.4byte	0
 7018              	.LLST57:
 7019 0dde 3C000000 		.4byte	.LVL232
 7020 0de2 52000000 		.4byte	.LVL233
 7021 0de6 0100     		.2byte	0x1
 7022 0de8 50       		.byte	0x50
 7023 0de9 52000000 		.4byte	.LVL233
 7024 0ded 56000000 		.4byte	.LVL235
 7025 0df1 0100     		.2byte	0x1
 7026 0df3 54       		.byte	0x54
 7027 0df4 A0000000 		.4byte	.LVL253
ARM GAS  C:\Users\Phuong\AppData\Local\Temp\ccVjqX8s.s 			page 136


 7028 0df8 A4000000 		.4byte	.LVL254
 7029 0dfc 0100     		.2byte	0x1
 7030 0dfe 50       		.byte	0x50
 7031 0dff 00000000 		.4byte	0
 7032 0e03 00000000 		.4byte	0
 7033              	.LLST58:
 7034 0e07 5E000000 		.4byte	.LVL238
 7035 0e0b 63000000 		.4byte	.LVL239-1
 7036 0e0f 0100     		.2byte	0x1
 7037 0e11 50       		.byte	0x50
 7038 0e12 63000000 		.4byte	.LVL239-1
 7039 0e16 76000000 		.4byte	.LVL244
 7040 0e1a 0100     		.2byte	0x1
 7041 0e1c 55       		.byte	0x55
 7042 0e1d 76000000 		.4byte	.LVL244
 7043 0e21 79000000 		.4byte	.LVL245-1
 7044 0e25 0100     		.2byte	0x1
 7045 0e27 50       		.byte	0x50
 7046 0e28 79000000 		.4byte	.LVL245-1
 7047 0e2c 98000000 		.4byte	.LVL250
 7048 0e30 0100     		.2byte	0x1
 7049 0e32 55       		.byte	0x55
 7050 0e33 A4000000 		.4byte	.LVL254
 7051 0e37 A6000000 		.4byte	.LVL255
 7052 0e3b 0100     		.2byte	0x1
 7053 0e3d 55       		.byte	0x55
 7054 0e3e 00000000 		.4byte	0
 7055 0e42 00000000 		.4byte	0
 7056              	.LLST59:
 7057 0e46 7C000000 		.4byte	.LVL246
 7058 0e4a 92000000 		.4byte	.LVL247
 7059 0e4e 0100     		.2byte	0x1
 7060 0e50 50       		.byte	0x50
 7061 0e51 92000000 		.4byte	.LVL247
 7062 0e55 96000000 		.4byte	.LVL249
 7063 0e59 0100     		.2byte	0x1
 7064 0e5b 54       		.byte	0x54
 7065 0e5c A4000000 		.4byte	.LVL254
 7066 0e60 A6000000 		.4byte	.LVL255
 7067 0e64 0100     		.2byte	0x1
 7068 0e66 50       		.byte	0x50
 7069 0e67 00000000 		.4byte	0
 7070 0e6b 00000000 		.4byte	0
 7071              		.section	.debug_aranges,"",%progbits
 7072 0000 74000000 		.4byte	0x74
 7073 0004 0200     		.2byte	0x2
 7074 0006 00000000 		.4byte	.Ldebug_info0
 7075 000a 04       		.byte	0x4
 7076 000b 00       		.byte	0
 7077 000c 0000     		.2byte	0
 7078 000e 0000     		.2byte	0
 7079 0010 00000000 		.4byte	.LFB1
 7080 0014 50000000 		.4byte	.LFE1-.LFB1
 7081 0018 00000000 		.4byte	.LFB2
 7082 001c 9C010000 		.4byte	.LFE2-.LFB2
 7083 0020 00000000 		.4byte	.LFB3
 7084 0024 5C000000 		.4byte	.LFE3-.LFB3
ARM GAS  C:\Users\Phuong\AppData\Local\Temp\ccVjqX8s.s 			page 137


 7085 0028 00000000 		.4byte	.LFB4
 7086 002c 26000000 		.4byte	.LFE4-.LFB4
 7087 0030 00000000 		.4byte	.LFB5
 7088 0034 38000000 		.4byte	.LFE5-.LFB5
 7089 0038 00000000 		.4byte	.LFB6
 7090 003c A8000000 		.4byte	.LFE6-.LFB6
 7091 0040 00000000 		.4byte	.LFB7
 7092 0044 44000000 		.4byte	.LFE7-.LFB7
 7093 0048 00000000 		.4byte	.LFB8
 7094 004c E0010000 		.4byte	.LFE8-.LFB8
 7095 0050 00000000 		.4byte	.LFB9
 7096 0054 44000000 		.4byte	.LFE9-.LFB9
 7097 0058 00000000 		.4byte	.LFB10
 7098 005c 44000000 		.4byte	.LFE10-.LFB10
 7099 0060 00000000 		.4byte	.LFB11
 7100 0064 44000000 		.4byte	.LFE11-.LFB11
 7101 0068 00000000 		.4byte	.LFB12
 7102 006c C0000000 		.4byte	.LFE12-.LFB12
 7103 0070 00000000 		.4byte	0
 7104 0074 00000000 		.4byte	0
 7105              		.section	.debug_ranges,"",%progbits
 7106              	.Ldebug_ranges0:
 7107 0000 58000000 		.4byte	.LBB31
 7108 0004 98000000 		.4byte	.LBE31
 7109 0008 A4000000 		.4byte	.LBB33
 7110 000c A6000000 		.4byte	.LBE33
 7111 0010 00000000 		.4byte	0
 7112 0014 00000000 		.4byte	0
 7113 0018 00000000 		.4byte	.LFB1
 7114 001c 50000000 		.4byte	.LFE1
 7115 0020 00000000 		.4byte	.LFB2
 7116 0024 9C010000 		.4byte	.LFE2
 7117 0028 00000000 		.4byte	.LFB3
 7118 002c 5C000000 		.4byte	.LFE3
 7119 0030 00000000 		.4byte	.LFB4
 7120 0034 26000000 		.4byte	.LFE4
 7121 0038 00000000 		.4byte	.LFB5
 7122 003c 38000000 		.4byte	.LFE5
 7123 0040 00000000 		.4byte	.LFB6
 7124 0044 A8000000 		.4byte	.LFE6
 7125 0048 00000000 		.4byte	.LFB7
 7126 004c 44000000 		.4byte	.LFE7
 7127 0050 00000000 		.4byte	.LFB8
 7128 0054 E0010000 		.4byte	.LFE8
 7129 0058 00000000 		.4byte	.LFB9
 7130 005c 44000000 		.4byte	.LFE9
 7131 0060 00000000 		.4byte	.LFB10
 7132 0064 44000000 		.4byte	.LFE10
 7133 0068 00000000 		.4byte	.LFB11
 7134 006c 44000000 		.4byte	.LFE11
 7135 0070 00000000 		.4byte	.LFB12
 7136 0074 C0000000 		.4byte	.LFE12
 7137 0078 00000000 		.4byte	0
 7138 007c 00000000 		.4byte	0
 7139              		.section	.debug_line,"",%progbits
 7140              	.Ldebug_line0:
 7141 0000 C7050000 		.section	.debug_str,"MS",%progbits,1
ARM GAS  C:\Users\Phuong\AppData\Local\Temp\ccVjqX8s.s 			page 138


 7141      0200DD02 
 7141      00000201 
 7141      FB0E0D00 
 7141      01010101 
 7142              	.LASF31:
 7143 0000 494F5448 		.ascii	"IOTHUB_CREDENTIAL_TYPE_TAG\000"
 7143      55425F43 
 7143      52454445 
 7143      4E544941 
 7143      4C5F5459 
 7144              	.LASF60:
 7145 001b 6B65795F 		.ascii	"key_name\000"
 7145      6E616D65 
 7145      00
 7146              	.LASF87:
 7147 0024 786C6F67 		.ascii	"xlogging_get_log_function\000"
 7147      67696E67 
 7147      5F676574 
 7147      5F6C6F67 
 7147      5F66756E 
 7148              	.LASF45:
 7149 003e 72657375 		.ascii	"result\000"
 7149      6C7400
 7150              	.LASF19:
 7151 0045 53545249 		.ascii	"STRING_HANDLE\000"
 7151      4E475F48 
 7151      414E444C 
 7151      4500
 7152              	.LASF65:
 7153 0053 496F5448 		.ascii	"IoTHubClient_Auth_Get_ModuleId\000"
 7153      7562436C 
 7153      69656E74 
 7153      5F417574 
 7153      685F4765 
 7154              	.LASF59:
 7155 0072 65787069 		.ascii	"expiry_time_relative_seconds\000"
 7155      72795F74 
 7155      696D655F 
 7155      72656C61 
 7155      74697665 
 7156              	.LASF26:
 7157 008f 64657669 		.ascii	"device_id\000"
 7157      63655F69 
 7157      6400
 7158              	.LASF32:
 7159 0099 494F5448 		.ascii	"IOTHUB_CREDENTIAL_TYPE_UNKNOWN\000"
 7159      55425F43 
 7159      52454445 
 7159      4E544941 
 7159      4C5F5459 
 7160              	.LASF52:
 7161 00b8 496F5448 		.ascii	"IoTHubClient_Auth_Set_x509_Type\000"
 7161      7562436C 
 7161      69656E74 
 7161      5F417574 
 7161      685F5365 
 7162              	.LASF49:
ARM GAS  C:\Users\Phuong\AppData\Local\Temp\ccVjqX8s.s 			page 139


 7163 00d8 496F5448 		.ascii	"IoTHubClient_Auth_Create\000"
 7163      7562436C 
 7163      69656E74 
 7163      5F417574 
 7163      685F4372 
 7164              	.LASF46:
 7165 00f1 63757272 		.ascii	"current_time\000"
 7165      656E745F 
 7165      74696D65 
 7165      00
 7166              	.LASF16:
 7167 00fe 415A5F4C 		.ascii	"AZ_LOG_TRACE\000"
 7167      4F475F54 
 7167      52414345 
 7167      00
 7168              	.LASF5:
 7169 010b 73686F72 		.ascii	"short int\000"
 7169      7420696E 
 7169      7400
 7170              	.LASF12:
 7171 0115 73697A65 		.ascii	"size_t\000"
 7171      5F7400
 7172              	.LASF90:
 7173 011c 6D616C6C 		.ascii	"malloc\000"
 7173      6F6300
 7174              	.LASF14:
 7175 0123 415A5F4C 		.ascii	"AZ_LOG_ERROR\000"
 7175      4F475F45 
 7175      52524F52 
 7175      00
 7176              	.LASF27:
 7177 0130 6D6F6475 		.ascii	"module_id\000"
 7177      6C655F69 
 7177      6400
 7178              	.LASF34:
 7179 013a 494F5448 		.ascii	"IOTHUB_CREDENTIAL_TYPE_X509\000"
 7179      55425F43 
 7179      52454445 
 7179      4E544941 
 7179      4C5F5459 
 7180              	.LASF98:
 7181 0156 474E5520 		.ascii	"GNU C11 5.4.1 20160609 (release) [ARM/embedded-5-br"
 7181      43313120 
 7181      352E342E 
 7181      31203230 
 7181      31363036 
 7182 0189 616E6368 		.ascii	"anch revision 237715] -mcpu=cortex-m0plus -mthumb -"
 7182      20726576 
 7182      6973696F 
 7182      6E203233 
 7182      37373135 
 7183 01bc 67202D4F 		.ascii	"g -Og -ffunction-sections -ffat-lto-objects\000"
 7183      67202D66 
 7183      66756E63 
 7183      74696F6E 
 7183      2D736563 
 7184              	.LASF10:
ARM GAS  C:\Users\Phuong\AppData\Local\Temp\ccVjqX8s.s 			page 140


 7185 01e8 73697A65 		.ascii	"sizetype\000"
 7185      74797065 
 7185      00
 7186              	.LASF30:
 7187 01f1 4C4F475F 		.ascii	"LOG_CATEGORY_TAG\000"
 7187      43415445 
 7187      474F5259 
 7187      5F544147 
 7187      00
 7188              	.LASF36:
 7189 0202 494F5448 		.ascii	"IOTHUB_CREDENTIAL_TYPE_SAS_TOKEN\000"
 7189      55425F43 
 7189      52454445 
 7189      4E544941 
 7189      4C5F5459 
 7190              	.LASF81:
 7191 0223 4F505449 		.ascii	"OPTION_CURL_VERBOSE\000"
 7191      4F4E5F43 
 7191      55524C5F 
 7191      56455242 
 7191      4F534500 
 7192              	.LASF38:
 7193 0237 494F5448 		.ascii	"IOTHUB_CREDENTIAL_TYPE\000"
 7193      55425F43 
 7193      52454445 
 7193      4E544941 
 7193      4C5F5459 
 7194              	.LASF91:
 7195 024e 6D616C6C 		.ascii	"mallocAndStrcpy_s\000"
 7195      6F63416E 
 7195      64537472 
 7195      6370795F 
 7195      7300
 7196              	.LASF82:
 7197 0260 4F505449 		.ascii	"OPTION_NET_INT_MAC_ADDRESS\000"
 7197      4F4E5F4E 
 7197      45545F49 
 7197      4E545F4D 
 7197      41435F41 
 7198              	.LASF13:
 7199 027b 74696D65 		.ascii	"time_t\000"
 7199      5F7400
 7200              	.LASF102:
 7201 0282 6765745F 		.ascii	"get_seconds_since_epoch\000"
 7201      7365636F 
 7201      6E64735F 
 7201      73696E63 
 7201      655F6570 
 7202              	.LASF22:
 7203 029a 58494F5F 		.ascii	"XIO_INSTANCE_TAG\000"
 7203      494E5354 
 7203      414E4345 
 7203      5F544147 
 7203      00
 7204              	.LASF74:
 7205 02ab 53555F4F 		.ascii	"SU_OPTION_X509_PRIVATE_KEY\000"
 7205      5054494F 
ARM GAS  C:\Users\Phuong\AppData\Local\Temp\ccVjqX8s.s 			page 141


 7205      4E5F5835 
 7205      30395F50 
 7205      52495641 
 7206              	.LASF39:
 7207 02c6 5341535F 		.ascii	"SAS_TOKEN_STATUS_TAG\000"
 7207      544F4B45 
 7207      4E5F5354 
 7207      41545553 
 7207      5F544147 
 7208              	.LASF56:
 7209 02db 496F5448 		.ascii	"IoTHubClient_Auth_Get_Credential_Type\000"
 7209      7562436C 
 7209      69656E74 
 7209      5F417574 
 7209      685F4765 
 7210              	.LASF71:
 7211 0301 4F505449 		.ascii	"OPTION_TRUSTED_CERT\000"
 7211      4F4E5F54 
 7211      52555354 
 7211      45445F43 
 7211      45525400 
 7212              	.LASF40:
 7213 0315 5341535F 		.ascii	"SAS_TOKEN_STATUS_FAILED\000"
 7213      544F4B45 
 7213      4E5F5354 
 7213      41545553 
 7213      5F464149 
 7214              	.LASF92:
 7215 032d 66726565 		.ascii	"free\000"
 7215      00
 7216              	.LASF42:
 7217 0332 5341535F 		.ascii	"SAS_TOKEN_STATUS_INVALID\000"
 7217      544F4B45 
 7217      4E5F5354 
 7217      41545553 
 7217      5F494E56 
 7218              	.LASF83:
 7219 034b 4F505449 		.ascii	"OPTION_TLS_VERSION\000"
 7219      4F4E5F54 
 7219      4C535F56 
 7219      45525349 
 7219      4F4E00
 7220              	.LASF1:
 7221 035e 6C6F6E67 		.ascii	"long long int\000"
 7221      206C6F6E 
 7221      6720696E 
 7221      7400
 7222              	.LASF67:
 7223 036c 496F5448 		.ascii	"IoTHubClient_Auth_Is_SasToken_Valid\000"
 7223      7562436C 
 7223      69656E74 
 7223      5F417574 
 7223      685F4973 
 7224              	.LASF64:
 7225 0390 496F5448 		.ascii	"IoTHubClient_Auth_Get_DeviceId\000"
 7225      7562436C 
 7225      69656E74 
ARM GAS  C:\Users\Phuong\AppData\Local\Temp\ccVjqX8s.s 			page 142


 7225      5F417574 
 7225      685F4765 
 7226              	.LASF104:
 7227 03af 6D656D73 		.ascii	"memset\000"
 7227      657400
 7228              	.LASF86:
 7229 03b6 4F505449 		.ascii	"OPTION_ADDRESS_TYPE_IP_SOCKET\000"
 7229      4F4E5F41 
 7229      44445245 
 7229      53535F54 
 7229      5950455F 
 7230              	.LASF7:
 7231 03d4 6C6F6E67 		.ascii	"long int\000"
 7231      20696E74 
 7231      00
 7232              	.LASF75:
 7233 03dd 4F505449 		.ascii	"OPTION_X509_ECC_CERT\000"
 7233      4F4E5F58 
 7233      3530395F 
 7233      4543435F 
 7233      43455254 
 7234              	.LASF55:
 7235 03f2 496F5448 		.ascii	"IoTHubClient_Auth_Set_xio_Certificate\000"
 7235      7562436C 
 7235      69656E74 
 7235      5F417574 
 7235      685F5365 
 7236              	.LASF28:
 7237 0418 746F6B65 		.ascii	"token_expiry_time_sec\000"
 7237      6E5F6578 
 7237      70697279 
 7237      5F74696D 
 7237      655F7365 
 7238              	.LASF4:
 7239 042e 756E7369 		.ascii	"unsigned char\000"
 7239      676E6564 
 7239      20636861 
 7239      7200
 7240              	.LASF50:
 7241 043c 496F5448 		.ascii	"IoTHubClient_Auth_CreateFromDeviceAuth\000"
 7241      7562436C 
 7241      69656E74 
 7241      5F417574 
 7241      685F4372 
 7242              	.LASF63:
 7243 0463 65787069 		.ascii	"expiry_time\000"
 7243      72795F74 
 7243      696D6500 
 7244              	.LASF53:
 7245 046f 656E6162 		.ascii	"enable_x509\000"
 7245      6C655F78 
 7245      35303900 
 7246              	.LASF33:
 7247 047b 494F5448 		.ascii	"IOTHUB_CREDENTIAL_TYPE_DEVICE_KEY\000"
 7247      55425F43 
 7247      52454445 
 7247      4E544941 
ARM GAS  C:\Users\Phuong\AppData\Local\Temp\ccVjqX8s.s 			page 143


 7247      4C5F5459 
 7248              	.LASF2:
 7249 049d 6C6F6E67 		.ascii	"long double\000"
 7249      20646F75 
 7249      626C6500 
 7250              	.LASF25:
 7251 04a9 64657669 		.ascii	"device_key\000"
 7251      63655F6B 
 7251      657900
 7252              	.LASF99:
 7253 04b4 536F7572 		.ascii	"Source\\azure_iot_sdk\\iothub_client\\src\\iothub_c"
 7253      63655C61 
 7253      7A757265 
 7253      5F696F74 
 7253      5F73646B 
 7254 04e3 6C69656E 		.ascii	"lient_authorization.c\000"
 7254      745F6175 
 7254      74686F72 
 7254      697A6174 
 7254      696F6E2E 
 7255              	.LASF97:
 7256 04f9 53415354 		.ascii	"SASToken_Validate\000"
 7256      6F6B656E 
 7256      5F56616C 
 7256      69646174 
 7256      6500
 7257              	.LASF100:
 7258 050b 433A5C55 		.ascii	"C:\\Users\\Phuong\\Documents\\PSoC Creator\\Dec0820"
 7258      73657273 
 7258      5C506875 
 7258      6F6E675C 
 7258      446F6375 
 7259 0539 31385C69 		.ascii	"18\\iot-sdk-iot-dev\\PSOC6_FreeRTOS+LwIP+MbedTLS_Az"
 7259      6F742D73 
 7259      646B2D69 
 7259      6F742D64 
 7259      65765C50 
 7260 056a 7572652D 		.ascii	"ure-IOT-Hub-Demo\\PSOC6_FreeRTOS+LwIP+MbedTLS_Azure"
 7260      494F542D 
 7260      4875622D 
 7260      44656D6F 
 7260      5C50534F 
 7261 059c 2D494F54 		.ascii	"-IOT-Hub-Demo.cydsn\000"
 7261      2D487562 
 7261      2D44656D 
 7261      6F2E6379 
 7261      64736E00 
 7262              	.LASF3:
 7263 05b0 7369676E 		.ascii	"signed char\000"
 7263      65642063 
 7263      68617200 
 7264              	.LASF9:
 7265 05bc 6C6F6E67 		.ascii	"long long unsigned int\000"
 7265      206C6F6E 
 7265      6720756E 
 7265      7369676E 
 7265      65642069 
ARM GAS  C:\Users\Phuong\AppData\Local\Temp\ccVjqX8s.s 			page 144


 7266              	.LASF84:
 7267 05d3 4F505449 		.ascii	"OPTION_ADDRESS_TYPE\000"
 7267      4F4E5F41 
 7267      44445245 
 7267      53535F54 
 7267      59504500 
 7268              	.LASF0:
 7269 05e7 756E7369 		.ascii	"unsigned int\000"
 7269      676E6564 
 7269      20696E74 
 7269      00
 7270              	.LASF93:
 7271 05f4 53415354 		.ascii	"SASToken_CreateString\000"
 7271      6F6B656E 
 7271      5F437265 
 7271      61746553 
 7271      7472696E 
 7272              	.LASF35:
 7273 060a 494F5448 		.ascii	"IOTHUB_CREDENTIAL_TYPE_X509_ECC\000"
 7273      55425F43 
 7273      52454445 
 7273      4E544941 
 7273      4C5F5459 
 7274              	.LASF103:
 7275 062a 496F5448 		.ascii	"IoTHubClient_Auth_Destroy\000"
 7275      7562436C 
 7275      69656E74 
 7275      5F417574 
 7275      685F4465 
 7276              	.LASF20:
 7277 0644 58494F5F 		.ascii	"XIO_HANDLE\000"
 7277      48414E44 
 7277      4C4500
 7278              	.LASF48:
 7279 064f 5F5F6675 		.ascii	"__func__\000"
 7279      6E635F5F 
 7279      00
 7280              	.LASF17:
 7281 0658 4C4F475F 		.ascii	"LOG_CATEGORY\000"
 7281      43415445 
 7281      474F5259 
 7281      00
 7282              	.LASF77:
 7283 0665 4F505449 		.ascii	"OPTION_CURL_LOW_SPEED_LIMIT\000"
 7283      4F4E5F43 
 7283      55524C5F 
 7283      4C4F575F 
 7283      53504545 
 7284              	.LASF47:
 7285 0681 7365636F 		.ascii	"seconds\000"
 7285      6E647300 
 7286              	.LASF11:
 7287 0689 63686172 		.ascii	"char\000"
 7287      00
 7288              	.LASF43:
 7289 068e 5341535F 		.ascii	"SAS_TOKEN_STATUS\000"
 7289      544F4B45 
ARM GAS  C:\Users\Phuong\AppData\Local\Temp\ccVjqX8s.s 			page 145


 7289      4E5F5354 
 7289      41545553 
 7289      00
 7290              	.LASF24:
 7291 069f 64657669 		.ascii	"device_sas_token\000"
 7291      63655F73 
 7291      61735F74 
 7291      6F6B656E 
 7291      00
 7292              	.LASF6:
 7293 06b0 73686F72 		.ascii	"short unsigned int\000"
 7293      7420756E 
 7293      7369676E 
 7293      65642069 
 7293      6E7400
 7294              	.LASF96:
 7295 06c3 53545249 		.ascii	"STRING_construct\000"
 7295      4E475F63 
 7295      6F6E7374 
 7295      72756374 
 7295      00
 7296              	.LASF54:
 7297 06d4 5F426F6F 		.ascii	"_Bool\000"
 7297      6C00
 7298              	.LASF62:
 7299 06da 7365635F 		.ascii	"sec_since_epoch\000"
 7299      73696E63 
 7299      655F6570 
 7299      6F636800 
 7300              	.LASF94:
 7301 06ea 53545249 		.ascii	"STRING_c_str\000"
 7301      4E475F63 
 7301      5F737472 
 7301      00
 7302              	.LASF95:
 7303 06f7 53545249 		.ascii	"STRING_delete\000"
 7303      4E475F64 
 7303      656C6574 
 7303      6500
 7304              	.LASF44:
 7305 0705 494F5448 		.ascii	"IOTHUB_AUTHORIZATION_DATA\000"
 7305      55425F41 
 7305      5554484F 
 7305      52495A41 
 7305      54494F4E 
 7306              	.LASF78:
 7307 071f 4F505449 		.ascii	"OPTION_CURL_LOW_SPEED_TIME\000"
 7307      4F4E5F43 
 7307      55524C5F 
 7307      4C4F575F 
 7307      53504545 
 7308              	.LASF69:
 7309 073a 4F505449 		.ascii	"OPTION_HTTP_PROXY\000"
 7309      4F4E5F48 
 7309      5454505F 
 7309      50524F58 
 7309      5900
ARM GAS  C:\Users\Phuong\AppData\Local\Temp\ccVjqX8s.s 			page 146


 7310              	.LASF15:
 7311 074c 415A5F4C 		.ascii	"AZ_LOG_INFO\000"
 7311      4F475F49 
 7311      4E464F00 
 7312              	.LASF8:
 7313 0758 6C6F6E67 		.ascii	"long unsigned int\000"
 7313      20756E73 
 7313      69676E65 
 7313      6420696E 
 7313      7400
 7314              	.LASF72:
 7315 076a 4F505449 		.ascii	"OPTION_OPENSSL_CIPHER_SUITE\000"
 7315      4F4E5F4F 
 7315      50454E53 
 7315      534C5F43 
 7315      49504845 
 7316              	.LASF21:
 7317 0786 53545249 		.ascii	"STRING_TAG\000"
 7317      4E475F54 
 7317      414700
 7318              	.LASF61:
 7319 0791 7361735F 		.ascii	"sas_token\000"
 7319      746F6B65 
 7319      6E00
 7320              	.LASF51:
 7321 079b 68616E64 		.ascii	"handle\000"
 7321      6C6500
 7322              	.LASF88:
 7323 07a2 6765745F 		.ascii	"get_time\000"
 7323      74696D65 
 7323      00
 7324              	.LASF37:
 7325 07ab 494F5448 		.ascii	"IOTHUB_CREDENTIAL_TYPE_DEVICE_AUTH\000"
 7325      55425F43 
 7325      52454445 
 7325      4E544941 
 7325      4C5F5459 
 7326              	.LASF29:
 7327 07ce 63726564 		.ascii	"cred_type\000"
 7327      5F747970 
 7327      6500
 7328              	.LASF85:
 7329 07d8 4F505449 		.ascii	"OPTION_ADDRESS_TYPE_DOMAIN_SOCKET\000"
 7329      4F4E5F41 
 7329      44445245 
 7329      53535F54 
 7329      5950455F 
 7330              	.LASF79:
 7331 07fa 4F505449 		.ascii	"OPTION_CURL_FRESH_CONNECT\000"
 7331      4F4E5F43 
 7331      55524C5F 
 7331      46524553 
 7331      485F434F 
 7332              	.LASF68:
 7333 0814 73747253 		.ascii	"strSasToken\000"
 7333      6173546F 
 7333      6B656E00 
ARM GAS  C:\Users\Phuong\AppData\Local\Temp\ccVjqX8s.s 			page 147


 7334              	.LASF80:
 7335 0820 4F505449 		.ascii	"OPTION_CURL_FORBID_REUSE\000"
 7335      4F4E5F43 
 7335      55524C5F 
 7335      464F5242 
 7335      49445F52 
 7336              	.LASF23:
 7337 0839 494F5448 		.ascii	"IOTHUB_AUTHORIZATION_HANDLE\000"
 7337      55425F41 
 7337      5554484F 
 7337      52495A41 
 7337      54494F4E 
 7338              	.LASF89:
 7339 0855 6765745F 		.ascii	"get_difftime\000"
 7339      64696666 
 7339      74696D65 
 7339      00
 7340              	.LASF70:
 7341 0862 4F505449 		.ascii	"OPTION_HTTP_TIMEOUT\000"
 7341      4F4E5F48 
 7341      5454505F 
 7341      54494D45 
 7341      4F555400 
 7342              	.LASF66:
 7343 0876 496F5448 		.ascii	"IoTHubClient_Auth_Get_DeviceKey\000"
 7343      7562436C 
 7343      69656E74 
 7343      5F417574 
 7343      685F4765 
 7344              	.LASF57:
 7345 0896 496F5448 		.ascii	"IoTHubClient_Auth_Get_SasToken\000"
 7345      7562436C 
 7345      69656E74 
 7345      5F417574 
 7345      685F4765 
 7346              	.LASF73:
 7347 08b5 53555F4F 		.ascii	"SU_OPTION_X509_CERT\000"
 7347      5054494F 
 7347      4E5F5835 
 7347      30395F43 
 7347      45525400 
 7348              	.LASF101:
 7349 08c9 494F5448 		.ascii	"IOTHUB_AUTHORIZATION_DATA_TAG\000"
 7349      55425F41 
 7349      5554484F 
 7349      52495A41 
 7349      54494F4E 
 7350              	.LASF41:
 7351 08e7 5341535F 		.ascii	"SAS_TOKEN_STATUS_VALID\000"
 7351      544F4B45 
 7351      4E5F5354 
 7351      41545553 
 7351      5F56414C 
 7352              	.LASF76:
 7353 08fe 4F505449 		.ascii	"OPTION_X509_ECC_KEY\000"
 7353      4F4E5F58 
 7353      3530395F 
ARM GAS  C:\Users\Phuong\AppData\Local\Temp\ccVjqX8s.s 			page 148


 7353      4543435F 
 7353      4B455900 
 7354              	.LASF58:
 7355 0912 73636F70 		.ascii	"scope\000"
 7355      6500
 7356              	.LASF18:
 7357 0918 4C4F4747 		.ascii	"LOGGER_LOG\000"
 7357      45525F4C 
 7357      4F4700
 7358              		.ident	"GCC: (GNU Tools for ARM Embedded Processors) 5.4.1 20160609 (release) [ARM/embedded-5-bran
