ARM GAS  C:\Users\Phuong\AppData\Local\Temp\cc32RpHN.s 			page 1


   1              		.syntax unified
   2              		.cpu cortex-m0plus
   3              		.fpu softvfp
   4              		.eabi_attribute 20, 1
   5              		.eabi_attribute 21, 1
   6              		.eabi_attribute 23, 3
   7              		.eabi_attribute 24, 1
   8              		.eabi_attribute 25, 1
   9              		.eabi_attribute 26, 1
  10              		.eabi_attribute 30, 1
  11              		.eabi_attribute 34, 0
  12              		.eabi_attribute 18, 4
  13              		.thumb
  14              		.syntax unified
  15              		.file	"iothubtransport_amqp_connection.c"
  16              		.text
  17              	.Ltext0:
  18              		.cfi_sections	.debug_frame
  19              		.section	.text.update_state,"ax",%progbits
  20              		.align	2
  21              		.code	16
  22              		.thumb_func
  23              		.type	update_state, %function
  24              	update_state:
  25              	.LFB4:
  26              		.file 1 "Source\\azure_iot_sdk\\iothub_client\\src\\iothubtransport_amqp_connection.c"
   1:Source\azure_iot_sdk\iothub_client\src/iothubtransport_amqp_connection.c **** // Copyright (c) Microsoft. All rights reserved.
   2:Source\azure_iot_sdk\iothub_client\src/iothubtransport_amqp_connection.c **** // Licensed under the MIT license. See LICENSE file in the project root for full license informatio
   3:Source\azure_iot_sdk\iothub_client\src/iothubtransport_amqp_connection.c **** 
   4:Source\azure_iot_sdk\iothub_client\src/iothubtransport_amqp_connection.c **** #include <stdlib.h>
   5:Source\azure_iot_sdk\iothub_client\src/iothubtransport_amqp_connection.c **** #include <limits.h>
   6:Source\azure_iot_sdk\iothub_client\src/iothubtransport_amqp_connection.c **** #include "internal/iothubtransport_amqp_connection.h"
   7:Source\azure_iot_sdk\iothub_client\src/iothubtransport_amqp_connection.c **** #include "azure_c_shared_utility/optimize_size.h"
   8:Source\azure_iot_sdk\iothub_client\src/iothubtransport_amqp_connection.c **** #include "azure_c_shared_utility/gballoc.h"
   9:Source\azure_iot_sdk\iothub_client\src/iothubtransport_amqp_connection.c **** #include "azure_c_shared_utility/strings.h"
  10:Source\azure_iot_sdk\iothub_client\src/iothubtransport_amqp_connection.c **** #include "azure_c_shared_utility/uniqueid.h"
  11:Source\azure_iot_sdk\iothub_client\src/iothubtransport_amqp_connection.c **** #include "azure_uamqp_c/sasl_mechanism.h"
  12:Source\azure_iot_sdk\iothub_client\src/iothubtransport_amqp_connection.c **** #include "azure_uamqp_c/saslclientio.h"
  13:Source\azure_iot_sdk\iothub_client\src/iothubtransport_amqp_connection.c **** #include "azure_uamqp_c/sasl_mssbcbs.h"
  14:Source\azure_iot_sdk\iothub_client\src/iothubtransport_amqp_connection.c **** #include "azure_uamqp_c/connection.h"
  15:Source\azure_iot_sdk\iothub_client\src/iothubtransport_amqp_connection.c **** #include "azure_c_shared_utility/xlogging.h"
  16:Source\azure_iot_sdk\iothub_client\src/iothubtransport_amqp_connection.c **** 
  17:Source\azure_iot_sdk\iothub_client\src/iothubtransport_amqp_connection.c **** #define RESULT_OK                            0
  18:Source\azure_iot_sdk\iothub_client\src/iothubtransport_amqp_connection.c **** #define DEFAULT_INCOMING_WINDOW_SIZE         UINT_MAX
  19:Source\azure_iot_sdk\iothub_client\src/iothubtransport_amqp_connection.c **** #define DEFAULT_OUTGOING_WINDOW_SIZE         100
  20:Source\azure_iot_sdk\iothub_client\src/iothubtransport_amqp_connection.c **** #define SASL_IO_OPTION_LOG_TRACE             "logtrace"
  21:Source\azure_iot_sdk\iothub_client\src/iothubtransport_amqp_connection.c **** #define DEFAULT_UNIQUE_ID_LENGTH             40
  22:Source\azure_iot_sdk\iothub_client\src/iothubtransport_amqp_connection.c **** 
  23:Source\azure_iot_sdk\iothub_client\src/iothubtransport_amqp_connection.c **** typedef struct AMQP_CONNECTION_INSTANCE_TAG
  24:Source\azure_iot_sdk\iothub_client\src/iothubtransport_amqp_connection.c **** {
  25:Source\azure_iot_sdk\iothub_client\src/iothubtransport_amqp_connection.c ****     STRING_HANDLE iothub_fqdn;
  26:Source\azure_iot_sdk\iothub_client\src/iothubtransport_amqp_connection.c ****     XIO_HANDLE underlying_io_transport;
  27:Source\azure_iot_sdk\iothub_client\src/iothubtransport_amqp_connection.c ****     CBS_HANDLE cbs_handle;
  28:Source\azure_iot_sdk\iothub_client\src/iothubtransport_amqp_connection.c ****     CONNECTION_HANDLE connection_handle;
  29:Source\azure_iot_sdk\iothub_client\src/iothubtransport_amqp_connection.c ****     SESSION_HANDLE session_handle;
  30:Source\azure_iot_sdk\iothub_client\src/iothubtransport_amqp_connection.c ****     XIO_HANDLE sasl_io;
  31:Source\azure_iot_sdk\iothub_client\src/iothubtransport_amqp_connection.c ****     SASL_MECHANISM_HANDLE sasl_mechanism;
ARM GAS  C:\Users\Phuong\AppData\Local\Temp\cc32RpHN.s 			page 2


  32:Source\azure_iot_sdk\iothub_client\src/iothubtransport_amqp_connection.c ****     bool has_cbs;
  33:Source\azure_iot_sdk\iothub_client\src/iothubtransport_amqp_connection.c ****     bool has_sasl_mechanism;
  34:Source\azure_iot_sdk\iothub_client\src/iothubtransport_amqp_connection.c ****     bool is_trace_on;
  35:Source\azure_iot_sdk\iothub_client\src/iothubtransport_amqp_connection.c ****     AMQP_CONNECTION_STATE current_state;
  36:Source\azure_iot_sdk\iothub_client\src/iothubtransport_amqp_connection.c ****     ON_AMQP_CONNECTION_STATE_CHANGED on_state_changed_callback;
  37:Source\azure_iot_sdk\iothub_client\src/iothubtransport_amqp_connection.c ****     const void* on_state_changed_context;
  38:Source\azure_iot_sdk\iothub_client\src/iothubtransport_amqp_connection.c ****     uint32_t svc2cl_keep_alive_timeout_secs;
  39:Source\azure_iot_sdk\iothub_client\src/iothubtransport_amqp_connection.c ****     double cl2svc_keep_alive_send_ratio;
  40:Source\azure_iot_sdk\iothub_client\src/iothubtransport_amqp_connection.c **** } AMQP_CONNECTION_INSTANCE;
  41:Source\azure_iot_sdk\iothub_client\src/iothubtransport_amqp_connection.c **** 
  42:Source\azure_iot_sdk\iothub_client\src/iothubtransport_amqp_connection.c **** 
  43:Source\azure_iot_sdk\iothub_client\src/iothubtransport_amqp_connection.c **** DEFINE_ENUM_STRINGS(AMQP_CONNECTION_STATE, AMQP_CONNECTION_STATE_VALUES);
  44:Source\azure_iot_sdk\iothub_client\src/iothubtransport_amqp_connection.c **** 
  45:Source\azure_iot_sdk\iothub_client\src/iothubtransport_amqp_connection.c **** 
  46:Source\azure_iot_sdk\iothub_client\src/iothubtransport_amqp_connection.c **** static int create_sasl_components(AMQP_CONNECTION_INSTANCE* instance)
  47:Source\azure_iot_sdk\iothub_client\src/iothubtransport_amqp_connection.c **** {
  48:Source\azure_iot_sdk\iothub_client\src/iothubtransport_amqp_connection.c ****     int result;
  49:Source\azure_iot_sdk\iothub_client\src/iothubtransport_amqp_connection.c ****     SASL_MECHANISM_HANDLE sasl_mechanism;
  50:Source\azure_iot_sdk\iothub_client\src/iothubtransport_amqp_connection.c ****     XIO_HANDLE sasl_io;
  51:Source\azure_iot_sdk\iothub_client\src/iothubtransport_amqp_connection.c **** 
  52:Source\azure_iot_sdk\iothub_client\src/iothubtransport_amqp_connection.c ****     // Codes_SRS_IOTHUBTRANSPORT_AMQP_CONNECTION_09_012: [`instance->sasl_mechanism` shall be creat
  53:Source\azure_iot_sdk\iothub_client\src/iothubtransport_amqp_connection.c ****     if ((sasl_mechanism = saslmechanism_create(saslmssbcbs_get_interface(), NULL)) == NULL)
  54:Source\azure_iot_sdk\iothub_client\src/iothubtransport_amqp_connection.c ****     {
  55:Source\azure_iot_sdk\iothub_client\src/iothubtransport_amqp_connection.c ****         // Codes_SRS_IOTHUBTRANSPORT_AMQP_CONNECTION_09_013: [If saslmechanism_create() fails, amqp
  56:Source\azure_iot_sdk\iothub_client\src/iothubtransport_amqp_connection.c ****         LogError("Failed creating the SASL mechanism (saslmechanism_create failed)");
  57:Source\azure_iot_sdk\iothub_client\src/iothubtransport_amqp_connection.c ****         result = __FAILURE__;
  58:Source\azure_iot_sdk\iothub_client\src/iothubtransport_amqp_connection.c ****     }
  59:Source\azure_iot_sdk\iothub_client\src/iothubtransport_amqp_connection.c ****     else
  60:Source\azure_iot_sdk\iothub_client\src/iothubtransport_amqp_connection.c ****     {
  61:Source\azure_iot_sdk\iothub_client\src/iothubtransport_amqp_connection.c ****         // Codes_SRS_IOTHUBTRANSPORT_AMQP_CONNECTION_09_014: [A SASLCLIENTIO_CONFIG shall be set wi
  62:Source\azure_iot_sdk\iothub_client\src/iothubtransport_amqp_connection.c ****         SASLCLIENTIO_CONFIG sasl_client_config;
  63:Source\azure_iot_sdk\iothub_client\src/iothubtransport_amqp_connection.c ****         sasl_client_config.sasl_mechanism = sasl_mechanism;
  64:Source\azure_iot_sdk\iothub_client\src/iothubtransport_amqp_connection.c ****         sasl_client_config.underlying_io = instance->underlying_io_transport;
  65:Source\azure_iot_sdk\iothub_client\src/iothubtransport_amqp_connection.c **** 
  66:Source\azure_iot_sdk\iothub_client\src/iothubtransport_amqp_connection.c ****         // Codes_SRS_IOTHUBTRANSPORT_AMQP_CONNECTION_09_015: [`instance->sasl_io` shall be created 
  67:Source\azure_iot_sdk\iothub_client\src/iothubtransport_amqp_connection.c ****         if ((sasl_io = xio_create(saslclientio_get_interface_description(), &sasl_client_config)) =
  68:Source\azure_iot_sdk\iothub_client\src/iothubtransport_amqp_connection.c ****         {
  69:Source\azure_iot_sdk\iothub_client\src/iothubtransport_amqp_connection.c ****             // Codes_SRS_IOTHUBTRANSPORT_AMQP_CONNECTION_09_016: [If xio_create() fails, amqp_conne
  70:Source\azure_iot_sdk\iothub_client\src/iothubtransport_amqp_connection.c ****             LogError("Failed creating the SASL I/O (xio_create failed)");
  71:Source\azure_iot_sdk\iothub_client\src/iothubtransport_amqp_connection.c ****             saslmechanism_destroy(sasl_mechanism);
  72:Source\azure_iot_sdk\iothub_client\src/iothubtransport_amqp_connection.c ****             result = __FAILURE__;
  73:Source\azure_iot_sdk\iothub_client\src/iothubtransport_amqp_connection.c ****         }
  74:Source\azure_iot_sdk\iothub_client\src/iothubtransport_amqp_connection.c ****         // Codes_SRS_IOTHUBTRANSPORT_AMQP_CONNECTION_09_017: [The sasl_io "logtrace" option shall b
  75:Source\azure_iot_sdk\iothub_client\src/iothubtransport_amqp_connection.c ****         else if (xio_setoption(sasl_io, SASL_IO_OPTION_LOG_TRACE, (const void*)&instance->is_trace_
  76:Source\azure_iot_sdk\iothub_client\src/iothubtransport_amqp_connection.c ****         {
  77:Source\azure_iot_sdk\iothub_client\src/iothubtransport_amqp_connection.c ****             LogError("Failed setting the SASL I/O logging trace option (xio_setoption failed)");
  78:Source\azure_iot_sdk\iothub_client\src/iothubtransport_amqp_connection.c ****             xio_destroy(sasl_io);
  79:Source\azure_iot_sdk\iothub_client\src/iothubtransport_amqp_connection.c ****             saslmechanism_destroy(sasl_mechanism);
  80:Source\azure_iot_sdk\iothub_client\src/iothubtransport_amqp_connection.c ****             result = __FAILURE__;
  81:Source\azure_iot_sdk\iothub_client\src/iothubtransport_amqp_connection.c ****         }
  82:Source\azure_iot_sdk\iothub_client\src/iothubtransport_amqp_connection.c ****         else
  83:Source\azure_iot_sdk\iothub_client\src/iothubtransport_amqp_connection.c ****         {
  84:Source\azure_iot_sdk\iothub_client\src/iothubtransport_amqp_connection.c ****             instance->sasl_mechanism = sasl_mechanism;
  85:Source\azure_iot_sdk\iothub_client\src/iothubtransport_amqp_connection.c ****             instance->sasl_io = sasl_io;
  86:Source\azure_iot_sdk\iothub_client\src/iothubtransport_amqp_connection.c ****             result = RESULT_OK;
  87:Source\azure_iot_sdk\iothub_client\src/iothubtransport_amqp_connection.c ****         }
  88:Source\azure_iot_sdk\iothub_client\src/iothubtransport_amqp_connection.c ****     }
ARM GAS  C:\Users\Phuong\AppData\Local\Temp\cc32RpHN.s 			page 3


  89:Source\azure_iot_sdk\iothub_client\src/iothubtransport_amqp_connection.c **** 
  90:Source\azure_iot_sdk\iothub_client\src/iothubtransport_amqp_connection.c ****     return result;
  91:Source\azure_iot_sdk\iothub_client\src/iothubtransport_amqp_connection.c **** }
  92:Source\azure_iot_sdk\iothub_client\src/iothubtransport_amqp_connection.c **** 
  93:Source\azure_iot_sdk\iothub_client\src/iothubtransport_amqp_connection.c **** static void update_state(AMQP_CONNECTION_INSTANCE* instance, AMQP_CONNECTION_STATE new_state)
  94:Source\azure_iot_sdk\iothub_client\src/iothubtransport_amqp_connection.c **** {
  27              		.loc 1 94 0
  28              		.cfi_startproc
  29              		@ args = 0, pretend = 0, frame = 0
  30              		@ frame_needed = 0, uses_anonymous_args = 0
  31              	.LVL0:
  32 0000 10B5     		push	{r4, lr}
  33              		.cfi_def_cfa_offset 8
  34              		.cfi_offset 4, -8
  35              		.cfi_offset 14, -4
  36 0002 0A00     		movs	r2, r1
  95:Source\azure_iot_sdk\iothub_client\src/iothubtransport_amqp_connection.c ****     if (new_state != instance->current_state)
  37              		.loc 1 95 0
  38 0004 C17F     		ldrb	r1, [r0, #31]
  39              	.LVL1:
  40 0006 9142     		cmp	r1, r2
  41 0008 05D0     		beq	.L1
  42              	.LVL2:
  43              	.LBB2:
  96:Source\azure_iot_sdk\iothub_client\src/iothubtransport_amqp_connection.c ****     {
  97:Source\azure_iot_sdk\iothub_client\src/iothubtransport_amqp_connection.c ****         AMQP_CONNECTION_STATE previous_state = instance->current_state;
  98:Source\azure_iot_sdk\iothub_client\src/iothubtransport_amqp_connection.c ****         instance->current_state = new_state;
  44              		.loc 1 98 0
  45 000a C277     		strb	r2, [r0, #31]
  99:Source\azure_iot_sdk\iothub_client\src/iothubtransport_amqp_connection.c **** 
 100:Source\azure_iot_sdk\iothub_client\src/iothubtransport_amqp_connection.c ****         if (instance->on_state_changed_callback != NULL)
  46              		.loc 1 100 0
  47 000c 036A     		ldr	r3, [r0, #32]
  48 000e 002B     		cmp	r3, #0
  49 0010 01D0     		beq	.L1
 101:Source\azure_iot_sdk\iothub_client\src/iothubtransport_amqp_connection.c ****         {
 102:Source\azure_iot_sdk\iothub_client\src/iothubtransport_amqp_connection.c ****             instance->on_state_changed_callback(instance->on_state_changed_context, previous_state,
  50              		.loc 1 102 0
  51 0012 406A     		ldr	r0, [r0, #36]
  52              	.LVL3:
  53 0014 9847     		blx	r3
  54              	.LVL4:
  55              	.L1:
  56              	.LBE2:
 103:Source\azure_iot_sdk\iothub_client\src/iothubtransport_amqp_connection.c ****         }
 104:Source\azure_iot_sdk\iothub_client\src/iothubtransport_amqp_connection.c ****     }
 105:Source\azure_iot_sdk\iothub_client\src/iothubtransport_amqp_connection.c **** }
  57              		.loc 1 105 0
  58              		@ sp needed
  59 0016 10BD     		pop	{r4, pc}
  60              		.cfi_endproc
  61              	.LFE4:
  62              		.size	update_state, .-update_state
  63              		.section	.text.on_connection_io_error,"ax",%progbits
  64              		.align	2
  65              		.code	16
  66              		.thumb_func
ARM GAS  C:\Users\Phuong\AppData\Local\Temp\cc32RpHN.s 			page 4


  67              		.type	on_connection_io_error, %function
  68              	on_connection_io_error:
  69              	.LFB5:
 106:Source\azure_iot_sdk\iothub_client\src/iothubtransport_amqp_connection.c **** 
 107:Source\azure_iot_sdk\iothub_client\src/iothubtransport_amqp_connection.c **** static void on_connection_io_error(void* context)
 108:Source\azure_iot_sdk\iothub_client\src/iothubtransport_amqp_connection.c **** {
  70              		.loc 1 108 0
  71              		.cfi_startproc
  72              		@ args = 0, pretend = 0, frame = 0
  73              		@ frame_needed = 0, uses_anonymous_args = 0
  74              	.LVL5:
  75 0000 10B5     		push	{r4, lr}
  76              		.cfi_def_cfa_offset 8
  77              		.cfi_offset 4, -8
  78              		.cfi_offset 14, -4
 109:Source\azure_iot_sdk\iothub_client\src/iothubtransport_amqp_connection.c ****     // Codes_SRS_IOTHUBTRANSPORT_AMQP_CONNECTION_09_022: [If the connection calls back with an I/O 
 110:Source\azure_iot_sdk\iothub_client\src/iothubtransport_amqp_connection.c ****     update_state((AMQP_CONNECTION_INSTANCE*)context, AMQP_CONNECTION_STATE_ERROR);
  79              		.loc 1 110 0
  80 0002 0221     		movs	r1, #2
  81 0004 FFF7FEFF 		bl	update_state
  82              	.LVL6:
 111:Source\azure_iot_sdk\iothub_client\src/iothubtransport_amqp_connection.c **** }
  83              		.loc 1 111 0
  84              		@ sp needed
  85 0008 10BD     		pop	{r4, pc}
  86              		.cfi_endproc
  87              	.LFE5:
  88              		.size	on_connection_io_error, .-on_connection_io_error
  89 000a C046     		.section	.text.on_connection_state_changed,"ax",%progbits
  90              		.align	2
  91              		.code	16
  92              		.thumb_func
  93              		.type	on_connection_state_changed, %function
  94              	on_connection_state_changed:
  95              	.LFB6:
 112:Source\azure_iot_sdk\iothub_client\src/iothubtransport_amqp_connection.c **** 
 113:Source\azure_iot_sdk\iothub_client\src/iothubtransport_amqp_connection.c **** static void on_connection_state_changed(void* context, CONNECTION_STATE new_connection_state, CONNE
 114:Source\azure_iot_sdk\iothub_client\src/iothubtransport_amqp_connection.c **** {
  96              		.loc 1 114 0
  97              		.cfi_startproc
  98              		@ args = 0, pretend = 0, frame = 0
  99              		@ frame_needed = 0, uses_anonymous_args = 0
 100              	.LVL7:
 101 0000 10B5     		push	{r4, lr}
 102              		.cfi_def_cfa_offset 8
 103              		.cfi_offset 4, -8
 104              		.cfi_offset 14, -4
 105              	.LVL8:
 115:Source\azure_iot_sdk\iothub_client\src/iothubtransport_amqp_connection.c ****     (void)previous_connection_state;
 116:Source\azure_iot_sdk\iothub_client\src/iothubtransport_amqp_connection.c **** 
 117:Source\azure_iot_sdk\iothub_client\src/iothubtransport_amqp_connection.c ****     AMQP_CONNECTION_INSTANCE* instance = (AMQP_CONNECTION_INSTANCE*)context;
 118:Source\azure_iot_sdk\iothub_client\src/iothubtransport_amqp_connection.c **** 
 119:Source\azure_iot_sdk\iothub_client\src/iothubtransport_amqp_connection.c ****     // Codes_SRS_IOTHUBTRANSPORT_AMQP_CONNECTION_09_063: [If `on_connection_state_changed` is calle
 120:Source\azure_iot_sdk\iothub_client\src/iothubtransport_amqp_connection.c ****     if (new_connection_state == CONNECTION_STATE_START)
 106              		.loc 1 120 0
 107 0002 0029     		cmp	r1, #0
 108 0004 09D1     		bne	.L5
ARM GAS  C:\Users\Phuong\AppData\Local\Temp\cc32RpHN.s 			page 5


 121:Source\azure_iot_sdk\iothub_client\src/iothubtransport_amqp_connection.c ****     {
 122:Source\azure_iot_sdk\iothub_client\src/iothubtransport_amqp_connection.c ****         // connection is using x509 authentication.
 123:Source\azure_iot_sdk\iothub_client\src/iothubtransport_amqp_connection.c ****         // At this point uamqp's connection only raises CONNECTION_STATE_START when using X509 auth
 124:Source\azure_iot_sdk\iothub_client\src/iothubtransport_amqp_connection.c ****         // So that should be all we expect to consider the amqp_connection_handle opened.
 125:Source\azure_iot_sdk\iothub_client\src/iothubtransport_amqp_connection.c ****         if (instance->has_cbs == false || instance->has_sasl_mechanism == false)
 109              		.loc 1 125 0
 110 0006 037F     		ldrb	r3, [r0, #28]
 111 0008 002B     		cmp	r3, #0
 112 000a 02D0     		beq	.L6
 113              		.loc 1 125 0 is_stmt 0 discriminator 1
 114 000c 437F     		ldrb	r3, [r0, #29]
 115 000e 002B     		cmp	r3, #0
 116 0010 16D1     		bne	.L4
 117              	.L6:
 126:Source\azure_iot_sdk\iothub_client\src/iothubtransport_amqp_connection.c ****         {
 127:Source\azure_iot_sdk\iothub_client\src/iothubtransport_amqp_connection.c ****             update_state(instance, AMQP_CONNECTION_STATE_OPENED);
 118              		.loc 1 127 0 is_stmt 1
 119 0012 0021     		movs	r1, #0
 120              	.LVL9:
 121 0014 FFF7FEFF 		bl	update_state
 122              	.LVL10:
 123 0018 12E0     		b	.L4
 124              	.LVL11:
 125              	.L5:
 128:Source\azure_iot_sdk\iothub_client\src/iothubtransport_amqp_connection.c ****         }
 129:Source\azure_iot_sdk\iothub_client\src/iothubtransport_amqp_connection.c ****     }
 130:Source\azure_iot_sdk\iothub_client\src/iothubtransport_amqp_connection.c ****     // Codes_SRS_IOTHUBTRANSPORT_AMQP_CONNECTION_09_064: [If `on_connection_state_changed` new stat
 131:Source\azure_iot_sdk\iothub_client\src/iothubtransport_amqp_connection.c ****     else if (new_connection_state == CONNECTION_STATE_OPENED)
 126              		.loc 1 131 0
 127 001a 0929     		cmp	r1, #9
 128 001c 03D1     		bne	.L8
 132:Source\azure_iot_sdk\iothub_client\src/iothubtransport_amqp_connection.c ****     {
 133:Source\azure_iot_sdk\iothub_client\src/iothubtransport_amqp_connection.c ****         update_state(instance, AMQP_CONNECTION_STATE_OPENED);
 129              		.loc 1 133 0
 130 001e 0021     		movs	r1, #0
 131              	.LVL12:
 132 0020 FFF7FEFF 		bl	update_state
 133              	.LVL13:
 134 0024 0CE0     		b	.L4
 135              	.LVL14:
 136              	.L8:
 134:Source\azure_iot_sdk\iothub_client\src/iothubtransport_amqp_connection.c ****     }
 135:Source\azure_iot_sdk\iothub_client\src/iothubtransport_amqp_connection.c ****     // Codes_SRS_IOTHUBTRANSPORT_AMQP_CONNECTION_09_065: [If `on_connection_state_changed` new stat
 136:Source\azure_iot_sdk\iothub_client\src/iothubtransport_amqp_connection.c ****     else if (new_connection_state == CONNECTION_STATE_END)
 137              		.loc 1 136 0
 138 0026 0D29     		cmp	r1, #13
 139 0028 03D1     		bne	.L9
 137:Source\azure_iot_sdk\iothub_client\src/iothubtransport_amqp_connection.c ****     {
 138:Source\azure_iot_sdk\iothub_client\src/iothubtransport_amqp_connection.c ****         update_state(instance, AMQP_CONNECTION_STATE_CLOSED);
 140              		.loc 1 138 0
 141 002a 0C39     		subs	r1, r1, #12
 142              	.LVL15:
 143 002c FFF7FEFF 		bl	update_state
 144              	.LVL16:
 145 0030 06E0     		b	.L4
 146              	.LVL17:
 147              	.L9:
ARM GAS  C:\Users\Phuong\AppData\Local\Temp\cc32RpHN.s 			page 6


 139:Source\azure_iot_sdk\iothub_client\src/iothubtransport_amqp_connection.c ****     }
 140:Source\azure_iot_sdk\iothub_client\src/iothubtransport_amqp_connection.c ****     // Codes_SRS_IOTHUBTRANSPORT_AMQP_CONNECTION_09_071: [If `on_connection_state_changed` new stat
 141:Source\azure_iot_sdk\iothub_client\src/iothubtransport_amqp_connection.c ****     else if (new_connection_state == CONNECTION_STATE_ERROR || new_connection_state == CONNECTION_S
 148              		.loc 1 141 0
 149 0032 0E29     		cmp	r1, #14
 150 0034 01D0     		beq	.L10
 151              		.loc 1 141 0 is_stmt 0 discriminator 1
 152 0036 0C29     		cmp	r1, #12
 153 0038 02D1     		bne	.L4
 154              	.L10:
 142:Source\azure_iot_sdk\iothub_client\src/iothubtransport_amqp_connection.c ****     {
 143:Source\azure_iot_sdk\iothub_client\src/iothubtransport_amqp_connection.c ****         update_state(instance, AMQP_CONNECTION_STATE_ERROR);
 155              		.loc 1 143 0 is_stmt 1
 156 003a 0221     		movs	r1, #2
 157              	.LVL18:
 158 003c FFF7FEFF 		bl	update_state
 159              	.LVL19:
 160              	.L4:
 144:Source\azure_iot_sdk\iothub_client\src/iothubtransport_amqp_connection.c ****     }
 145:Source\azure_iot_sdk\iothub_client\src/iothubtransport_amqp_connection.c **** }
 161              		.loc 1 145 0
 162              		@ sp needed
 163 0040 10BD     		pop	{r4, pc}
 164              		.cfi_endproc
 165              	.LFE6:
 166              		.size	on_connection_state_changed, .-on_connection_state_changed
 167 0042 C046     		.section	.text.on_cbs_error,"ax",%progbits
 168              		.align	2
 169              		.code	16
 170              		.thumb_func
 171              		.type	on_cbs_error, %function
 172              	on_cbs_error:
 173              	.LFB8:
 146:Source\azure_iot_sdk\iothub_client\src/iothubtransport_amqp_connection.c **** 
 147:Source\azure_iot_sdk\iothub_client\src/iothubtransport_amqp_connection.c **** static void on_cbs_open_complete(void* context, CBS_OPEN_COMPLETE_RESULT open_complete_result)
 148:Source\azure_iot_sdk\iothub_client\src/iothubtransport_amqp_connection.c **** {
 149:Source\azure_iot_sdk\iothub_client\src/iothubtransport_amqp_connection.c ****     (void)context;
 150:Source\azure_iot_sdk\iothub_client\src/iothubtransport_amqp_connection.c ****     (void)open_complete_result;
 151:Source\azure_iot_sdk\iothub_client\src/iothubtransport_amqp_connection.c ****     if (open_complete_result != CBS_OPEN_OK)
 152:Source\azure_iot_sdk\iothub_client\src/iothubtransport_amqp_connection.c ****     {
 153:Source\azure_iot_sdk\iothub_client\src/iothubtransport_amqp_connection.c ****         LogError("PSOC6---CBS open failed---PSOC6");
 154:Source\azure_iot_sdk\iothub_client\src/iothubtransport_amqp_connection.c ****     }
 155:Source\azure_iot_sdk\iothub_client\src/iothubtransport_amqp_connection.c **** }
 156:Source\azure_iot_sdk\iothub_client\src/iothubtransport_amqp_connection.c **** 
 157:Source\azure_iot_sdk\iothub_client\src/iothubtransport_amqp_connection.c **** static void on_cbs_error(void* context)
 158:Source\azure_iot_sdk\iothub_client\src/iothubtransport_amqp_connection.c **** {
 174              		.loc 1 158 0
 175              		.cfi_startproc
 176              		@ args = 0, pretend = 0, frame = 0
 177              		@ frame_needed = 0, uses_anonymous_args = 0
 178              	.LVL20:
 179 0000 10B5     		push	{r4, lr}
 180              		.cfi_def_cfa_offset 8
 181              		.cfi_offset 4, -8
 182              		.cfi_offset 14, -4
 183 0002 82B0     		sub	sp, sp, #8
 184              		.cfi_def_cfa_offset 16
ARM GAS  C:\Users\Phuong\AppData\Local\Temp\cc32RpHN.s 			page 7


 185              	.LBB3:
 159:Source\azure_iot_sdk\iothub_client\src/iothubtransport_amqp_connection.c ****     (void)context;
 160:Source\azure_iot_sdk\iothub_client\src/iothubtransport_amqp_connection.c ****     LogError("CBS Error occured");
 186              		.loc 1 160 0
 187 0004 FFF7FEFF 		bl	xlogging_get_log_function
 188              	.LVL21:
 189 0008 041E     		subs	r4, r0, #0
 190              	.LVL22:
 191 000a 08D0     		beq	.L11
 192              		.loc 1 160 0 is_stmt 0 discriminator 4
 193 000c 054B     		ldr	r3, .L13
 194 000e 0193     		str	r3, [sp, #4]
 195 0010 0123     		movs	r3, #1
 196 0012 0093     		str	r3, [sp]
 197 0014 9F33     		adds	r3, r3, #159
 198 0016 044A     		ldr	r2, .L13+4
 199 0018 0449     		ldr	r1, .L13+8
 200 001a 0020     		movs	r0, #0
 201              	.LVL23:
 202 001c A047     		blx	r4
 203              	.LVL24:
 204              	.L11:
 205              	.LBE3:
 161:Source\azure_iot_sdk\iothub_client\src/iothubtransport_amqp_connection.c **** }
 206              		.loc 1 161 0 is_stmt 1
 207 001e 02B0     		add	sp, sp, #8
 208              		@ sp needed
 209              	.LVL25:
 210 0020 10BD     		pop	{r4, pc}
 211              	.L14:
 212 0022 C046     		.align	2
 213              	.L13:
 214 0024 4C000000 		.word	.LC3
 215 0028 00000000 		.word	.LANCHOR0
 216 002c 00000000 		.word	.LC1
 217              		.cfi_endproc
 218              	.LFE8:
 219              		.size	on_cbs_error, .-on_cbs_error
 220              		.section	.text.on_cbs_open_complete,"ax",%progbits
 221              		.align	2
 222              		.code	16
 223              		.thumb_func
 224              		.type	on_cbs_open_complete, %function
 225              	on_cbs_open_complete:
 226              	.LFB7:
 148:Source\azure_iot_sdk\iothub_client\src/iothubtransport_amqp_connection.c ****     (void)context;
 227              		.loc 1 148 0
 228              		.cfi_startproc
 229              		@ args = 0, pretend = 0, frame = 0
 230              		@ frame_needed = 0, uses_anonymous_args = 0
 231              	.LVL26:
 232 0000 10B5     		push	{r4, lr}
 233              		.cfi_def_cfa_offset 8
 234              		.cfi_offset 4, -8
 235              		.cfi_offset 14, -4
 236 0002 82B0     		sub	sp, sp, #8
 237              		.cfi_def_cfa_offset 16
ARM GAS  C:\Users\Phuong\AppData\Local\Temp\cc32RpHN.s 			page 8


 151:Source\azure_iot_sdk\iothub_client\src/iothubtransport_amqp_connection.c ****     {
 238              		.loc 1 151 0
 239 0004 0029     		cmp	r1, #0
 240 0006 0DD0     		beq	.L15
 241              	.LBB4:
 153:Source\azure_iot_sdk\iothub_client\src/iothubtransport_amqp_connection.c ****     }
 242              		.loc 1 153 0 discriminator 3
 243 0008 FFF7FEFF 		bl	xlogging_get_log_function
 244              	.LVL27:
 245 000c 041E     		subs	r4, r0, #0
 246              	.LVL28:
 247 000e 09D0     		beq	.L15
 153:Source\azure_iot_sdk\iothub_client\src/iothubtransport_amqp_connection.c ****     }
 248              		.loc 1 153 0 is_stmt 0 discriminator 4
 249 0010 054B     		ldr	r3, .L17
 250 0012 0193     		str	r3, [sp, #4]
 251 0014 0123     		movs	r3, #1
 252 0016 0093     		str	r3, [sp]
 253 0018 9833     		adds	r3, r3, #152
 254 001a 044A     		ldr	r2, .L17+4
 255 001c 1032     		adds	r2, r2, #16
 256 001e 0449     		ldr	r1, .L17+8
 257 0020 0020     		movs	r0, #0
 258              	.LVL29:
 259 0022 A047     		blx	r4
 260              	.LVL30:
 261              	.L15:
 262              	.LBE4:
 155:Source\azure_iot_sdk\iothub_client\src/iothubtransport_amqp_connection.c **** 
 263              		.loc 1 155 0 is_stmt 1
 264 0024 02B0     		add	sp, sp, #8
 265              		@ sp needed
 266 0026 10BD     		pop	{r4, pc}
 267              	.L18:
 268              		.align	2
 269              	.L17:
 270 0028 60000000 		.word	.LC7
 271 002c 00000000 		.word	.LANCHOR0
 272 0030 00000000 		.word	.LC1
 273              		.cfi_endproc
 274              	.LFE7:
 275              		.size	on_cbs_open_complete, .-on_cbs_open_complete
 276              		.section	.text.create_sasl_components,"ax",%progbits
 277              		.align	2
 278              		.code	16
 279              		.thumb_func
 280              		.type	create_sasl_components, %function
 281              	create_sasl_components:
 282              	.LFB3:
  47:Source\azure_iot_sdk\iothub_client\src/iothubtransport_amqp_connection.c ****     int result;
 283              		.loc 1 47 0
 284              		.cfi_startproc
 285              		@ args = 0, pretend = 0, frame = 8
 286              		@ frame_needed = 0, uses_anonymous_args = 0
 287              	.LVL31:
 288 0000 70B5     		push	{r4, r5, r6, lr}
 289              		.cfi_def_cfa_offset 16
ARM GAS  C:\Users\Phuong\AppData\Local\Temp\cc32RpHN.s 			page 9


 290              		.cfi_offset 4, -16
 291              		.cfi_offset 5, -12
 292              		.cfi_offset 6, -8
 293              		.cfi_offset 14, -4
 294 0002 84B0     		sub	sp, sp, #16
 295              		.cfi_def_cfa_offset 32
 296 0004 0500     		movs	r5, r0
  53:Source\azure_iot_sdk\iothub_client\src/iothubtransport_amqp_connection.c ****     {
 297              		.loc 1 53 0
 298 0006 FFF7FEFF 		bl	saslmssbcbs_get_interface
 299              	.LVL32:
 300 000a 0021     		movs	r1, #0
 301 000c FFF7FEFF 		bl	saslmechanism_create
 302              	.LVL33:
 303 0010 041E     		subs	r4, r0, #0
 304              	.LVL34:
 305 0012 0FD1     		bne	.L20
 306              	.LBB5:
  56:Source\azure_iot_sdk\iothub_client\src/iothubtransport_amqp_connection.c ****         result = __FAILURE__;
 307              		.loc 1 56 0 discriminator 3
 308 0014 FFF7FEFF 		bl	xlogging_get_log_function
 309              	.LVL35:
 310 0018 041E     		subs	r4, r0, #0
 311              	.LVL36:
 312 001a 49D0     		beq	.L27
  56:Source\azure_iot_sdk\iothub_client\src/iothubtransport_amqp_connection.c ****         result = __FAILURE__;
 313              		.loc 1 56 0 is_stmt 0 discriminator 4
 314 001c 264B     		ldr	r3, .L28
 315 001e 0193     		str	r3, [sp, #4]
 316 0020 0123     		movs	r3, #1
 317 0022 0093     		str	r3, [sp]
 318 0024 3733     		adds	r3, r3, #55
 319 0026 254A     		ldr	r2, .L28+4
 320 0028 2832     		adds	r2, r2, #40
 321 002a 2549     		ldr	r1, .L28+8
 322 002c 0020     		movs	r0, #0
 323              	.LVL37:
 324 002e A047     		blx	r4
 325              	.LVL38:
 326              	.LBE5:
  57:Source\azure_iot_sdk\iothub_client\src/iothubtransport_amqp_connection.c ****     }
 327              		.loc 1 57 0 is_stmt 1 discriminator 4
 328 0030 3920     		movs	r0, #57
 329 0032 3EE0     		b	.L21
 330              	.LVL39:
 331              	.L20:
 332              	.LBB6:
  63:Source\azure_iot_sdk\iothub_client\src/iothubtransport_amqp_connection.c ****         sasl_client_config.underlying_io = instance->underlying_io_transport;
 333              		.loc 1 63 0
 334 0034 0390     		str	r0, [sp, #12]
  64:Source\azure_iot_sdk\iothub_client\src/iothubtransport_amqp_connection.c **** 
 335              		.loc 1 64 0
 336 0036 6B68     		ldr	r3, [r5, #4]
 337 0038 0293     		str	r3, [sp, #8]
  67:Source\azure_iot_sdk\iothub_client\src/iothubtransport_amqp_connection.c ****         {
 338              		.loc 1 67 0
 339 003a FFF7FEFF 		bl	saslclientio_get_interface_description
ARM GAS  C:\Users\Phuong\AppData\Local\Temp\cc32RpHN.s 			page 10


 340              	.LVL40:
 341 003e 02A9     		add	r1, sp, #8
 342 0040 FFF7FEFF 		bl	xio_create
 343              	.LVL41:
 344 0044 061E     		subs	r6, r0, #0
 345              	.LVL42:
 346 0046 12D1     		bne	.L22
 347              	.LBB7:
  70:Source\azure_iot_sdk\iothub_client\src/iothubtransport_amqp_connection.c ****             saslmechanism_destroy(sasl_mechanism);
 348              		.loc 1 70 0 discriminator 3
 349 0048 FFF7FEFF 		bl	xlogging_get_log_function
 350              	.LVL43:
 351 004c 051E     		subs	r5, r0, #0
 352              	.LVL44:
 353 004e 09D0     		beq	.L23
  70:Source\azure_iot_sdk\iothub_client\src/iothubtransport_amqp_connection.c ****             saslmechanism_destroy(sasl_mechanism);
 354              		.loc 1 70 0 is_stmt 0 discriminator 4
 355 0050 1C4B     		ldr	r3, .L28+12
 356 0052 0193     		str	r3, [sp, #4]
 357 0054 0123     		movs	r3, #1
 358 0056 0093     		str	r3, [sp]
 359 0058 4533     		adds	r3, r3, #69
 360 005a 184A     		ldr	r2, .L28+4
 361 005c 2832     		adds	r2, r2, #40
 362 005e 1849     		ldr	r1, .L28+8
 363 0060 0020     		movs	r0, #0
 364              	.LVL45:
 365 0062 A847     		blx	r5
 366              	.LVL46:
 367              	.L23:
 368              	.LBE7:
  71:Source\azure_iot_sdk\iothub_client\src/iothubtransport_amqp_connection.c ****             result = __FAILURE__;
 369              		.loc 1 71 0 is_stmt 1
 370 0064 2000     		movs	r0, r4
 371 0066 FFF7FEFF 		bl	saslmechanism_destroy
 372              	.LVL47:
  72:Source\azure_iot_sdk\iothub_client\src/iothubtransport_amqp_connection.c ****         }
 373              		.loc 1 72 0
 374 006a 4820     		movs	r0, #72
 375 006c 21E0     		b	.L21
 376              	.LVL48:
 377              	.L22:
  75:Source\azure_iot_sdk\iothub_client\src/iothubtransport_amqp_connection.c ****         {
 378              		.loc 1 75 0
 379 006e 2A00     		movs	r2, r5
 380 0070 1E32     		adds	r2, r2, #30
 381 0072 1549     		ldr	r1, .L28+16
 382 0074 FFF7FEFF 		bl	xio_setoption
 383              	.LVL49:
 384 0078 0028     		cmp	r0, #0
 385 007a 15D0     		beq	.L25
 386              	.LBB8:
  77:Source\azure_iot_sdk\iothub_client\src/iothubtransport_amqp_connection.c ****             xio_destroy(sasl_io);
 387              		.loc 1 77 0 discriminator 3
 388 007c FFF7FEFF 		bl	xlogging_get_log_function
 389              	.LVL50:
 390 0080 051E     		subs	r5, r0, #0
ARM GAS  C:\Users\Phuong\AppData\Local\Temp\cc32RpHN.s 			page 11


 391              	.LVL51:
 392 0082 09D0     		beq	.L26
  77:Source\azure_iot_sdk\iothub_client\src/iothubtransport_amqp_connection.c ****             xio_destroy(sasl_io);
 393              		.loc 1 77 0 is_stmt 0 discriminator 4
 394 0084 114B     		ldr	r3, .L28+20
 395 0086 0193     		str	r3, [sp, #4]
 396 0088 0123     		movs	r3, #1
 397 008a 0093     		str	r3, [sp]
 398 008c 4C33     		adds	r3, r3, #76
 399 008e 0B4A     		ldr	r2, .L28+4
 400 0090 2832     		adds	r2, r2, #40
 401 0092 0B49     		ldr	r1, .L28+8
 402 0094 0020     		movs	r0, #0
 403              	.LVL52:
 404 0096 A847     		blx	r5
 405              	.LVL53:
 406              	.L26:
 407              	.LBE8:
  78:Source\azure_iot_sdk\iothub_client\src/iothubtransport_amqp_connection.c ****             saslmechanism_destroy(sasl_mechanism);
 408              		.loc 1 78 0 is_stmt 1
 409 0098 3000     		movs	r0, r6
 410 009a FFF7FEFF 		bl	xio_destroy
 411              	.LVL54:
  79:Source\azure_iot_sdk\iothub_client\src/iothubtransport_amqp_connection.c ****             result = __FAILURE__;
 412              		.loc 1 79 0
 413 009e 2000     		movs	r0, r4
 414 00a0 FFF7FEFF 		bl	saslmechanism_destroy
 415              	.LVL55:
  80:Source\azure_iot_sdk\iothub_client\src/iothubtransport_amqp_connection.c ****         }
 416              		.loc 1 80 0
 417 00a4 5020     		movs	r0, #80
 418 00a6 04E0     		b	.L21
 419              	.LVL56:
 420              	.L25:
  84:Source\azure_iot_sdk\iothub_client\src/iothubtransport_amqp_connection.c ****             instance->sasl_io = sasl_io;
 421              		.loc 1 84 0
 422 00a8 AC61     		str	r4, [r5, #24]
  85:Source\azure_iot_sdk\iothub_client\src/iothubtransport_amqp_connection.c ****             result = RESULT_OK;
 423              		.loc 1 85 0
 424 00aa 6E61     		str	r6, [r5, #20]
 425              	.LVL57:
  86:Source\azure_iot_sdk\iothub_client\src/iothubtransport_amqp_connection.c ****         }
 426              		.loc 1 86 0
 427 00ac 0020     		movs	r0, #0
 428 00ae 00E0     		b	.L21
 429              	.LVL58:
 430              	.L27:
 431              	.LBE6:
  57:Source\azure_iot_sdk\iothub_client\src/iothubtransport_amqp_connection.c ****     }
 432              		.loc 1 57 0
 433 00b0 3920     		movs	r0, #57
 434              	.LVL59:
 435              	.L21:
  91:Source\azure_iot_sdk\iothub_client\src/iothubtransport_amqp_connection.c **** 
 436              		.loc 1 91 0
 437 00b2 04B0     		add	sp, sp, #16
 438              		@ sp needed
ARM GAS  C:\Users\Phuong\AppData\Local\Temp\cc32RpHN.s 			page 12


 439 00b4 70BD     		pop	{r4, r5, r6, pc}
 440              	.L29:
 441 00b6 C046     		.align	2
 442              	.L28:
 443 00b8 80000000 		.word	.LC11
 444 00bc 00000000 		.word	.LANCHOR0
 445 00c0 00000000 		.word	.LC1
 446 00c4 C4000000 		.word	.LC13
 447 00c8 F8000000 		.word	.LC15
 448 00cc 04010000 		.word	.LC17
 449              		.cfi_endproc
 450              	.LFE3:
 451              		.size	create_sasl_components, .-create_sasl_components
 452              		.section	.text.create_connection_handle,"ax",%progbits
 453              		.align	2
 454              		.code	16
 455              		.thumb_func
 456              		.type	create_connection_handle, %function
 457              	create_connection_handle:
 458              	.LFB9:
 162:Source\azure_iot_sdk\iothub_client\src/iothubtransport_amqp_connection.c **** 
 163:Source\azure_iot_sdk\iothub_client\src/iothubtransport_amqp_connection.c **** static int create_connection_handle(AMQP_CONNECTION_INSTANCE* instance)
 164:Source\azure_iot_sdk\iothub_client\src/iothubtransport_amqp_connection.c **** {
 459              		.loc 1 164 0
 460              		.cfi_startproc
 461              		@ args = 0, pretend = 0, frame = 0
 462              		@ frame_needed = 0, uses_anonymous_args = 0
 463              	.LVL60:
 464 0000 70B5     		push	{r4, r5, r6, lr}
 465              		.cfi_def_cfa_offset 16
 466              		.cfi_offset 4, -16
 467              		.cfi_offset 5, -12
 468              		.cfi_offset 6, -8
 469              		.cfi_offset 14, -4
 470 0002 86B0     		sub	sp, sp, #24
 471              		.cfi_def_cfa_offset 40
 472 0004 0500     		movs	r5, r0
 473              	.LVL61:
 165:Source\azure_iot_sdk\iothub_client\src/iothubtransport_amqp_connection.c ****     int result;
 166:Source\azure_iot_sdk\iothub_client\src/iothubtransport_amqp_connection.c ****     char* unique_container_id = NULL;
 167:Source\azure_iot_sdk\iothub_client\src/iothubtransport_amqp_connection.c ****     XIO_HANDLE connection_io_transport;
 168:Source\azure_iot_sdk\iothub_client\src/iothubtransport_amqp_connection.c **** 
 169:Source\azure_iot_sdk\iothub_client\src/iothubtransport_amqp_connection.c ****     // Codes_SRS_IOTHUBTRANSPORT_AMQP_CONNECTION_09_007: [If `instance->sasl_io` is defined it shal
 170:Source\azure_iot_sdk\iothub_client\src/iothubtransport_amqp_connection.c ****     if (instance->sasl_io != NULL)
 474              		.loc 1 170 0
 475 0006 4669     		ldr	r6, [r0, #20]
 476 0008 002E     		cmp	r6, #0
 477 000a 00D1     		bne	.L31
 171:Source\azure_iot_sdk\iothub_client\src/iothubtransport_amqp_connection.c ****     {
 172:Source\azure_iot_sdk\iothub_client\src/iothubtransport_amqp_connection.c ****         connection_io_transport = instance->sasl_io;
 173:Source\azure_iot_sdk\iothub_client\src/iothubtransport_amqp_connection.c ****     }
 174:Source\azure_iot_sdk\iothub_client\src/iothubtransport_amqp_connection.c ****     // Codes_SRS_IOTHUBTRANSPORT_AMQP_CONNECTION_09_018: [If `instance->sasl_io` is not defined, `i
 175:Source\azure_iot_sdk\iothub_client\src/iothubtransport_amqp_connection.c ****     else
 176:Source\azure_iot_sdk\iothub_client\src/iothubtransport_amqp_connection.c ****     {
 177:Source\azure_iot_sdk\iothub_client\src/iothubtransport_amqp_connection.c ****         connection_io_transport = instance->underlying_io_transport;
 478              		.loc 1 177 0
 479 000c 4668     		ldr	r6, [r0, #4]
ARM GAS  C:\Users\Phuong\AppData\Local\Temp\cc32RpHN.s 			page 13


 480              	.LVL62:
 481              	.L31:
 178:Source\azure_iot_sdk\iothub_client\src/iothubtransport_amqp_connection.c ****     }
 179:Source\azure_iot_sdk\iothub_client\src/iothubtransport_amqp_connection.c **** 
 180:Source\azure_iot_sdk\iothub_client\src/iothubtransport_amqp_connection.c ****     if ((unique_container_id = (char*)malloc(sizeof(char) * DEFAULT_UNIQUE_ID_LENGTH + 1)) == NULL)
 482              		.loc 1 180 0
 483 000e 2920     		movs	r0, #41
 484              	.LVL63:
 485 0010 FFF7FEFF 		bl	malloc
 486              	.LVL64:
 487 0014 041E     		subs	r4, r0, #0
 488              	.LVL65:
 489 0016 10D1     		bne	.L32
 490              	.LVL66:
 491              	.LBB9:
 181:Source\azure_iot_sdk\iothub_client\src/iothubtransport_amqp_connection.c ****     {
 182:Source\azure_iot_sdk\iothub_client\src/iothubtransport_amqp_connection.c ****         result = __LINE__;
 183:Source\azure_iot_sdk\iothub_client\src/iothubtransport_amqp_connection.c ****         LogError("Failed creating the AMQP connection (failed creating unique ID container)");
 492              		.loc 1 183 0
 493 0018 FFF7FEFF 		bl	xlogging_get_log_function
 494              	.LVL67:
 495 001c 051E     		subs	r5, r0, #0
 496              	.LVL68:
 497 001e 00D1     		bne	.LCB487
 498 0020 7DE0     		b	.L39	@long jump
 499              	.LCB487:
 500              		.loc 1 183 0 is_stmt 0 discriminator 4
 501 0022 474B     		ldr	r3, .L44
 502 0024 0193     		str	r3, [sp, #4]
 503 0026 0123     		movs	r3, #1
 504 0028 0093     		str	r3, [sp]
 505 002a B633     		adds	r3, r3, #182
 506 002c 454A     		ldr	r2, .L44+4
 507 002e 4032     		adds	r2, r2, #64
 508 0030 4549     		ldr	r1, .L44+8
 509 0032 0020     		movs	r0, #0
 510              	.LVL69:
 511 0034 A847     		blx	r5
 512              	.LVL70:
 513              	.LBE9:
 182:Source\azure_iot_sdk\iothub_client\src/iothubtransport_amqp_connection.c ****         LogError("Failed creating the AMQP connection (failed creating unique ID container)");
 514              		.loc 1 182 0 is_stmt 1 discriminator 4
 515 0036 B625     		movs	r5, #182
 516              	.LVL71:
 517 0038 7AE0     		b	.L33
 518              	.LVL72:
 519              	.L32:
 184:Source\azure_iot_sdk\iothub_client\src/iothubtransport_amqp_connection.c ****     }
 185:Source\azure_iot_sdk\iothub_client\src/iothubtransport_amqp_connection.c ****     else
 186:Source\azure_iot_sdk\iothub_client\src/iothubtransport_amqp_connection.c ****     {
 187:Source\azure_iot_sdk\iothub_client\src/iothubtransport_amqp_connection.c ****         memset(unique_container_id, 0, sizeof(char) * DEFAULT_UNIQUE_ID_LENGTH + 1);
 520              		.loc 1 187 0
 521 003a 2922     		movs	r2, #41
 522 003c 0021     		movs	r1, #0
 523 003e FFF7FEFF 		bl	memset
 524              	.LVL73:
 188:Source\azure_iot_sdk\iothub_client\src/iothubtransport_amqp_connection.c **** 
ARM GAS  C:\Users\Phuong\AppData\Local\Temp\cc32RpHN.s 			page 14


 189:Source\azure_iot_sdk\iothub_client\src/iothubtransport_amqp_connection.c ****         if (UniqueId_Generate(unique_container_id, DEFAULT_UNIQUE_ID_LENGTH) != UNIQUEID_OK)
 525              		.loc 1 189 0
 526 0042 2821     		movs	r1, #40
 527 0044 2000     		movs	r0, r4
 528 0046 FFF7FEFF 		bl	UniqueId_Generate
 529              	.LVL74:
 530 004a 0028     		cmp	r0, #0
 531 004c 0FD0     		beq	.L34
 532              	.LVL75:
 533              	.LBB10:
 190:Source\azure_iot_sdk\iothub_client\src/iothubtransport_amqp_connection.c ****         {
 191:Source\azure_iot_sdk\iothub_client\src/iothubtransport_amqp_connection.c ****             result = __FAILURE__;
 192:Source\azure_iot_sdk\iothub_client\src/iothubtransport_amqp_connection.c ****             LogError("Failed creating the AMQP connection (UniqueId_Generate failed)");
 534              		.loc 1 192 0
 535 004e FFF7FEFF 		bl	xlogging_get_log_function
 536              	.LVL76:
 537 0052 051E     		subs	r5, r0, #0
 538              	.LVL77:
 539 0054 65D0     		beq	.L40
 540              		.loc 1 192 0 is_stmt 0 discriminator 4
 541 0056 3D4B     		ldr	r3, .L44+12
 542 0058 0193     		str	r3, [sp, #4]
 543 005a 0123     		movs	r3, #1
 544 005c 0093     		str	r3, [sp]
 545 005e BF33     		adds	r3, r3, #191
 546 0060 384A     		ldr	r2, .L44+4
 547 0062 4032     		adds	r2, r2, #64
 548 0064 3849     		ldr	r1, .L44+8
 549 0066 0020     		movs	r0, #0
 550              	.LVL78:
 551 0068 A847     		blx	r5
 552              	.LVL79:
 553              	.LBE10:
 191:Source\azure_iot_sdk\iothub_client\src/iothubtransport_amqp_connection.c ****             LogError("Failed creating the AMQP connection (UniqueId_Generate failed)");
 554              		.loc 1 191 0 is_stmt 1 discriminator 4
 555 006a BF25     		movs	r5, #191
 556              	.LVL80:
 557 006c 60E0     		b	.L33
 558              	.LVL81:
 559              	.L34:
 193:Source\azure_iot_sdk\iothub_client\src/iothubtransport_amqp_connection.c ****         }
 194:Source\azure_iot_sdk\iothub_client\src/iothubtransport_amqp_connection.c ****         // Codes_SRS_IOTHUBTRANSPORT_AMQP_CONNECTION_09_019: [`instance->connection_handle` shall b
 195:Source\azure_iot_sdk\iothub_client\src/iothubtransport_amqp_connection.c ****         // Codes_SRS_IOTHUBTRANSPORT_AMQP_CONNECTION_09_020: [connection_create2() shall also recei
 196:Source\azure_iot_sdk\iothub_client\src/iothubtransport_amqp_connection.c ****         else if ((instance->connection_handle = connection_create2(connection_io_transport, STRING_
 560              		.loc 1 196 0
 561 006e 2868     		ldr	r0, [r5]
 562 0070 FFF7FEFF 		bl	STRING_c_str
 563              	.LVL82:
 564 0074 0100     		movs	r1, r0
 565 0076 0495     		str	r5, [sp, #16]
 566 0078 354B     		ldr	r3, .L44+16
 567 007a 0393     		str	r3, [sp, #12]
 568 007c 0295     		str	r5, [sp, #8]
 569 007e 354B     		ldr	r3, .L44+20
 570 0080 0193     		str	r3, [sp, #4]
 571 0082 0023     		movs	r3, #0
 572 0084 0093     		str	r3, [sp]
ARM GAS  C:\Users\Phuong\AppData\Local\Temp\cc32RpHN.s 			page 15


 573 0086 2200     		movs	r2, r4
 574 0088 3000     		movs	r0, r6
 575 008a FFF7FEFF 		bl	connection_create2
 576              	.LVL83:
 577 008e E860     		str	r0, [r5, #12]
 578 0090 0028     		cmp	r0, #0
 579 0092 0FD1     		bne	.L35
 580              	.LVL84:
 581              	.LBB11:
 197:Source\azure_iot_sdk\iothub_client\src/iothubtransport_amqp_connection.c ****         {
 198:Source\azure_iot_sdk\iothub_client\src/iothubtransport_amqp_connection.c ****             // Codes_SRS_IOTHUBTRANSPORT_AMQP_CONNECTION_09_021: [If connection_create2() fails, am
 199:Source\azure_iot_sdk\iothub_client\src/iothubtransport_amqp_connection.c ****             result = __FAILURE__;
 200:Source\azure_iot_sdk\iothub_client\src/iothubtransport_amqp_connection.c ****             LogError("Failed creating the AMQP connection (connection_create2 failed)");
 582              		.loc 1 200 0
 583 0094 FFF7FEFF 		bl	xlogging_get_log_function
 584              	.LVL85:
 585 0098 051E     		subs	r5, r0, #0
 586              	.LVL86:
 587 009a 44D0     		beq	.L41
 588              		.loc 1 200 0 is_stmt 0 discriminator 4
 589 009c 2E4B     		ldr	r3, .L44+24
 590 009e 0193     		str	r3, [sp, #4]
 591 00a0 0123     		movs	r3, #1
 592 00a2 0093     		str	r3, [sp]
 593 00a4 C733     		adds	r3, r3, #199
 594 00a6 274A     		ldr	r2, .L44+4
 595 00a8 4032     		adds	r2, r2, #64
 596 00aa 2749     		ldr	r1, .L44+8
 597 00ac 0020     		movs	r0, #0
 598              	.LVL87:
 599 00ae A847     		blx	r5
 600              	.LVL88:
 601              	.LBE11:
 199:Source\azure_iot_sdk\iothub_client\src/iothubtransport_amqp_connection.c ****             LogError("Failed creating the AMQP connection (connection_create2 failed)");
 602              		.loc 1 199 0 is_stmt 1 discriminator 4
 603 00b0 C725     		movs	r5, #199
 604              	.LVL89:
 605 00b2 3DE0     		b	.L33
 606              	.LVL90:
 607              	.L35:
 201:Source\azure_iot_sdk\iothub_client\src/iothubtransport_amqp_connection.c ****         }
 202:Source\azure_iot_sdk\iothub_client\src/iothubtransport_amqp_connection.c ****         else if (connection_set_idle_timeout(instance->connection_handle, 1000 * instance->svc2cl_k
 608              		.loc 1 202 0
 609 00b4 FA21     		movs	r1, #250
 610 00b6 8900     		lsls	r1, r1, #2
 611 00b8 AB6A     		ldr	r3, [r5, #40]
 612 00ba 5943     		muls	r1, r3
 613 00bc FFF7FEFF 		bl	connection_set_idle_timeout
 614              	.LVL91:
 615 00c0 0028     		cmp	r0, #0
 616 00c2 0FD0     		beq	.L36
 617              	.LVL92:
 618              	.LBB12:
 203:Source\azure_iot_sdk\iothub_client\src/iothubtransport_amqp_connection.c ****         {
 204:Source\azure_iot_sdk\iothub_client\src/iothubtransport_amqp_connection.c ****             // Codes_SRS_IOTHUBTRANSPORT_AMQP_CONNECTION_09_074: [If connection_set_idle_timeout() 
 205:Source\azure_iot_sdk\iothub_client\src/iothubtransport_amqp_connection.c ****             result = __FAILURE__;
 206:Source\azure_iot_sdk\iothub_client\src/iothubtransport_amqp_connection.c ****             LogError("Failed creating the AMQP connection (connection_set_idle_timeout failed)");
ARM GAS  C:\Users\Phuong\AppData\Local\Temp\cc32RpHN.s 			page 16


 619              		.loc 1 206 0
 620 00c4 FFF7FEFF 		bl	xlogging_get_log_function
 621              	.LVL93:
 622 00c8 051E     		subs	r5, r0, #0
 623              	.LVL94:
 624 00ca 2ED0     		beq	.L42
 625              		.loc 1 206 0 is_stmt 0 discriminator 4
 626 00cc 234B     		ldr	r3, .L44+28
 627 00ce 0193     		str	r3, [sp, #4]
 628 00d0 0123     		movs	r3, #1
 629 00d2 0093     		str	r3, [sp]
 630 00d4 CD33     		adds	r3, r3, #205
 631 00d6 1B4A     		ldr	r2, .L44+4
 632 00d8 4032     		adds	r2, r2, #64
 633 00da 1B49     		ldr	r1, .L44+8
 634 00dc 0020     		movs	r0, #0
 635              	.LVL95:
 636 00de A847     		blx	r5
 637              	.LVL96:
 638              	.LBE12:
 205:Source\azure_iot_sdk\iothub_client\src/iothubtransport_amqp_connection.c ****             LogError("Failed creating the AMQP connection (connection_set_idle_timeout failed)");
 639              		.loc 1 205 0 is_stmt 1 discriminator 4
 640 00e0 CD25     		movs	r5, #205
 641              	.LVL97:
 642 00e2 25E0     		b	.L33
 643              	.LVL98:
 644              	.L36:
 207:Source\azure_iot_sdk\iothub_client\src/iothubtransport_amqp_connection.c ****         }
 208:Source\azure_iot_sdk\iothub_client\src/iothubtransport_amqp_connection.c ****         else if (connection_set_remote_idle_timeout_empty_frame_send_ratio(instance->connection_han
 645              		.loc 1 208 0
 646 00e4 2A6B     		ldr	r2, [r5, #48]
 647 00e6 6B6B     		ldr	r3, [r5, #52]
 648 00e8 E868     		ldr	r0, [r5, #12]
 649 00ea FFF7FEFF 		bl	connection_set_remote_idle_timeout_empty_frame_send_ratio
 650              	.LVL99:
 651 00ee 0028     		cmp	r0, #0
 652 00f0 0FD0     		beq	.L37
 653              	.LVL100:
 654              	.LBB13:
 209:Source\azure_iot_sdk\iothub_client\src/iothubtransport_amqp_connection.c ****         {
 210:Source\azure_iot_sdk\iothub_client\src/iothubtransport_amqp_connection.c ****             // Codes_SRS_IOTHUBTRANSPORT_AMQP_CONNECTION_99_001: [If connection_set_remote_idle_tim
 211:Source\azure_iot_sdk\iothub_client\src/iothubtransport_amqp_connection.c ****             result = __FAILURE__;
 212:Source\azure_iot_sdk\iothub_client\src/iothubtransport_amqp_connection.c ****             LogError("Failed creating the AMQP connection (connection_set_remote_idle_timeout_empty
 655              		.loc 1 212 0
 656 00f2 FFF7FEFF 		bl	xlogging_get_log_function
 657              	.LVL101:
 658 00f6 051E     		subs	r5, r0, #0
 659              	.LVL102:
 660 00f8 19D0     		beq	.L43
 661              		.loc 1 212 0 is_stmt 0 discriminator 4
 662 00fa 194B     		ldr	r3, .L44+32
 663 00fc 0193     		str	r3, [sp, #4]
 664 00fe 0123     		movs	r3, #1
 665 0100 0093     		str	r3, [sp]
 666 0102 D333     		adds	r3, r3, #211
 667 0104 0F4A     		ldr	r2, .L44+4
 668 0106 4032     		adds	r2, r2, #64
ARM GAS  C:\Users\Phuong\AppData\Local\Temp\cc32RpHN.s 			page 17


 669 0108 0F49     		ldr	r1, .L44+8
 670 010a 0020     		movs	r0, #0
 671              	.LVL103:
 672 010c A847     		blx	r5
 673              	.LVL104:
 674              	.LBE13:
 211:Source\azure_iot_sdk\iothub_client\src/iothubtransport_amqp_connection.c ****             LogError("Failed creating the AMQP connection (connection_set_remote_idle_timeout_empty
 675              		.loc 1 211 0 is_stmt 1 discriminator 4
 676 010e D325     		movs	r5, #211
 677              	.LVL105:
 678 0110 0EE0     		b	.L33
 679              	.LVL106:
 680              	.L37:
 213:Source\azure_iot_sdk\iothub_client\src/iothubtransport_amqp_connection.c ****         }
 214:Source\azure_iot_sdk\iothub_client\src/iothubtransport_amqp_connection.c ****         else
 215:Source\azure_iot_sdk\iothub_client\src/iothubtransport_amqp_connection.c ****         {
 216:Source\azure_iot_sdk\iothub_client\src/iothubtransport_amqp_connection.c ****             // Codes_SRS_IOTHUBTRANSPORT_AMQP_CONNECTION_09_023: [The connection tracing shall be s
 217:Source\azure_iot_sdk\iothub_client\src/iothubtransport_amqp_connection.c ****             connection_set_trace(instance->connection_handle, instance->is_trace_on);
 681              		.loc 1 217 0
 682 0112 A97F     		ldrb	r1, [r5, #30]
 683 0114 E868     		ldr	r0, [r5, #12]
 684 0116 FFF7FEFF 		bl	connection_set_trace
 685              	.LVL107:
 218:Source\azure_iot_sdk\iothub_client\src/iothubtransport_amqp_connection.c **** 
 219:Source\azure_iot_sdk\iothub_client\src/iothubtransport_amqp_connection.c ****             result = RESULT_OK;
 686              		.loc 1 219 0
 687 011a 0025     		movs	r5, #0
 688              	.LVL108:
 689 011c 08E0     		b	.L33
 690              	.LVL109:
 691              	.L39:
 182:Source\azure_iot_sdk\iothub_client\src/iothubtransport_amqp_connection.c ****         LogError("Failed creating the AMQP connection (failed creating unique ID container)");
 692              		.loc 1 182 0
 693 011e B625     		movs	r5, #182
 694 0120 06E0     		b	.L33
 695              	.LVL110:
 696              	.L40:
 191:Source\azure_iot_sdk\iothub_client\src/iothubtransport_amqp_connection.c ****             LogError("Failed creating the AMQP connection (UniqueId_Generate failed)");
 697              		.loc 1 191 0
 698 0122 BF25     		movs	r5, #191
 699 0124 04E0     		b	.L33
 700              	.LVL111:
 701              	.L41:
 199:Source\azure_iot_sdk\iothub_client\src/iothubtransport_amqp_connection.c ****             LogError("Failed creating the AMQP connection (connection_create2 failed)");
 702              		.loc 1 199 0
 703 0126 C725     		movs	r5, #199
 704 0128 02E0     		b	.L33
 705              	.LVL112:
 706              	.L42:
 205:Source\azure_iot_sdk\iothub_client\src/iothubtransport_amqp_connection.c ****             LogError("Failed creating the AMQP connection (connection_set_idle_timeout failed)");
 707              		.loc 1 205 0
 708 012a CD25     		movs	r5, #205
 709 012c 00E0     		b	.L33
 710              	.LVL113:
 711              	.L43:
 211:Source\azure_iot_sdk\iothub_client\src/iothubtransport_amqp_connection.c ****             LogError("Failed creating the AMQP connection (connection_set_remote_idle_timeout_empty
 712              		.loc 1 211 0
ARM GAS  C:\Users\Phuong\AppData\Local\Temp\cc32RpHN.s 			page 18


 713 012e D325     		movs	r5, #211
 714              	.LVL114:
 715              	.L33:
 220:Source\azure_iot_sdk\iothub_client\src/iothubtransport_amqp_connection.c ****         }
 221:Source\azure_iot_sdk\iothub_client\src/iothubtransport_amqp_connection.c ****     }
 222:Source\azure_iot_sdk\iothub_client\src/iothubtransport_amqp_connection.c **** 
 223:Source\azure_iot_sdk\iothub_client\src/iothubtransport_amqp_connection.c ****     if (unique_container_id != NULL)
 716              		.loc 1 223 0
 717 0130 002C     		cmp	r4, #0
 718 0132 02D0     		beq	.L38
 224:Source\azure_iot_sdk\iothub_client\src/iothubtransport_amqp_connection.c ****     {
 225:Source\azure_iot_sdk\iothub_client\src/iothubtransport_amqp_connection.c ****         free(unique_container_id);
 719              		.loc 1 225 0
 720 0134 2000     		movs	r0, r4
 721 0136 FFF7FEFF 		bl	free
 722              	.LVL115:
 723              	.L38:
 226:Source\azure_iot_sdk\iothub_client\src/iothubtransport_amqp_connection.c ****     }
 227:Source\azure_iot_sdk\iothub_client\src/iothubtransport_amqp_connection.c **** 
 228:Source\azure_iot_sdk\iothub_client\src/iothubtransport_amqp_connection.c ****     return result;
 229:Source\azure_iot_sdk\iothub_client\src/iothubtransport_amqp_connection.c **** }
 724              		.loc 1 229 0
 725 013a 2800     		movs	r0, r5
 726 013c 06B0     		add	sp, sp, #24
 727              		@ sp needed
 728              	.LVL116:
 729              	.LVL117:
 730              	.LVL118:
 731 013e 70BD     		pop	{r4, r5, r6, pc}
 732              	.L45:
 733              		.align	2
 734              	.L44:
 735 0140 4C010000 		.word	.LC21
 736 0144 00000000 		.word	.LANCHOR0
 737 0148 00000000 		.word	.LC1
 738 014c 98010000 		.word	.LC23
 739 0150 00000000 		.word	on_connection_io_error
 740 0154 00000000 		.word	on_connection_state_changed
 741 0158 D8010000 		.word	.LC27
 742 015c 18020000 		.word	.LC29
 743 0160 64020000 		.word	.LC31
 744              		.cfi_endproc
 745              	.LFE9:
 746              		.size	create_connection_handle, .-create_connection_handle
 747              		.section	.text.create_session_handle,"ax",%progbits
 748              		.align	2
 749              		.code	16
 750              		.thumb_func
 751              		.type	create_session_handle, %function
 752              	create_session_handle:
 753              	.LFB10:
 230:Source\azure_iot_sdk\iothub_client\src/iothubtransport_amqp_connection.c **** 
 231:Source\azure_iot_sdk\iothub_client\src/iothubtransport_amqp_connection.c **** static int create_session_handle(AMQP_CONNECTION_INSTANCE* instance)
 232:Source\azure_iot_sdk\iothub_client\src/iothubtransport_amqp_connection.c **** {
 754              		.loc 1 232 0
 755              		.cfi_startproc
 756              		@ args = 0, pretend = 0, frame = 0
ARM GAS  C:\Users\Phuong\AppData\Local\Temp\cc32RpHN.s 			page 19


 757              		@ frame_needed = 0, uses_anonymous_args = 0
 758              	.LVL119:
 759 0000 30B5     		push	{r4, r5, lr}
 760              		.cfi_def_cfa_offset 12
 761              		.cfi_offset 4, -12
 762              		.cfi_offset 5, -8
 763              		.cfi_offset 14, -4
 764 0002 83B0     		sub	sp, sp, #12
 765              		.cfi_def_cfa_offset 24
 766 0004 0400     		movs	r4, r0
 233:Source\azure_iot_sdk\iothub_client\src/iothubtransport_amqp_connection.c ****     int result;
 234:Source\azure_iot_sdk\iothub_client\src/iothubtransport_amqp_connection.c **** 
 235:Source\azure_iot_sdk\iothub_client\src/iothubtransport_amqp_connection.c ****     // Codes_SRS_IOTHUBTRANSPORT_AMQP_CONNECTION_09_024: [`instance->session_handle` shall be creat
 236:Source\azure_iot_sdk\iothub_client\src/iothubtransport_amqp_connection.c ****     if ((instance->session_handle = session_create(instance->connection_handle, NULL, NULL)) == NUL
 767              		.loc 1 236 0
 768 0006 0022     		movs	r2, #0
 769 0008 0021     		movs	r1, #0
 770 000a C068     		ldr	r0, [r0, #12]
 771              	.LVL120:
 772 000c FFF7FEFF 		bl	session_create
 773              	.LVL121:
 774 0010 2061     		str	r0, [r4, #16]
 775 0012 0028     		cmp	r0, #0
 776 0014 0FD1     		bne	.L47
 777              	.LVL122:
 778              	.LBB14:
 237:Source\azure_iot_sdk\iothub_client\src/iothubtransport_amqp_connection.c ****     {
 238:Source\azure_iot_sdk\iothub_client\src/iothubtransport_amqp_connection.c ****         // Codes_SRS_IOTHUBTRANSPORT_AMQP_CONNECTION_09_025: [If session_create() fails, amqp_conne
 239:Source\azure_iot_sdk\iothub_client\src/iothubtransport_amqp_connection.c ****         result = __FAILURE__;
 240:Source\azure_iot_sdk\iothub_client\src/iothubtransport_amqp_connection.c ****         LogError("Failed creating the AMQP connection (connection_create2 failed)");
 779              		.loc 1 240 0
 780 0016 FFF7FEFF 		bl	xlogging_get_log_function
 781              	.LVL123:
 782 001a 041E     		subs	r4, r0, #0
 783              	.LVL124:
 784 001c 35D0     		beq	.L50
 785              		.loc 1 240 0 is_stmt 0 discriminator 4
 786 001e 1E4B     		ldr	r3, .L53
 787 0020 0193     		str	r3, [sp, #4]
 788 0022 0123     		movs	r3, #1
 789 0024 0093     		str	r3, [sp]
 790 0026 EF33     		adds	r3, r3, #239
 791 0028 1C4A     		ldr	r2, .L53+4
 792 002a 5C32     		adds	r2, r2, #92
 793 002c 1C49     		ldr	r1, .L53+8
 794 002e 0020     		movs	r0, #0
 795              	.LVL125:
 796 0030 A047     		blx	r4
 797              	.LVL126:
 798              	.LBE14:
 239:Source\azure_iot_sdk\iothub_client\src/iothubtransport_amqp_connection.c ****         LogError("Failed creating the AMQP connection (connection_create2 failed)");
 799              		.loc 1 239 0 is_stmt 1 discriminator 4
 800 0032 EF20     		movs	r0, #239
 801 0034 2EE0     		b	.L48
 802              	.LVL127:
 803              	.L47:
 241:Source\azure_iot_sdk\iothub_client\src/iothubtransport_amqp_connection.c ****     }
ARM GAS  C:\Users\Phuong\AppData\Local\Temp\cc32RpHN.s 			page 20


 242:Source\azure_iot_sdk\iothub_client\src/iothubtransport_amqp_connection.c ****     else
 243:Source\azure_iot_sdk\iothub_client\src/iothubtransport_amqp_connection.c ****     {
 244:Source\azure_iot_sdk\iothub_client\src/iothubtransport_amqp_connection.c ****         // Codes_SRS_IOTHUBTRANSPORT_AMQP_CONNECTION_09_026: [The `instance->session_handle` incomi
 245:Source\azure_iot_sdk\iothub_client\src/iothubtransport_amqp_connection.c ****         if (session_set_incoming_window(instance->session_handle, (uint32_t)DEFAULT_INCOMING_WINDOW
 804              		.loc 1 245 0
 805 0036 0121     		movs	r1, #1
 806 0038 4942     		rsbs	r1, r1, #0
 807 003a FFF7FEFF 		bl	session_set_incoming_window
 808              	.LVL128:
 809 003e 0028     		cmp	r0, #0
 810 0040 0DD0     		beq	.L49
 811              	.LBB15:
 246:Source\azure_iot_sdk\iothub_client\src/iothubtransport_amqp_connection.c ****         {
 247:Source\azure_iot_sdk\iothub_client\src/iothubtransport_amqp_connection.c ****             LogError("Failed to set the AMQP session incoming window size.");
 812              		.loc 1 247 0 discriminator 3
 813 0042 FFF7FEFF 		bl	xlogging_get_log_function
 814              	.LVL129:
 815 0046 051E     		subs	r5, r0, #0
 816              	.LVL130:
 817 0048 09D0     		beq	.L49
 818              		.loc 1 247 0 is_stmt 0 discriminator 4
 819 004a 164B     		ldr	r3, .L53+12
 820 004c 0193     		str	r3, [sp, #4]
 821 004e 0123     		movs	r3, #1
 822 0050 0093     		str	r3, [sp]
 823 0052 F633     		adds	r3, r3, #246
 824 0054 114A     		ldr	r2, .L53+4
 825 0056 5C32     		adds	r2, r2, #92
 826 0058 1149     		ldr	r1, .L53+8
 827 005a 0020     		movs	r0, #0
 828              	.LVL131:
 829 005c A847     		blx	r5
 830              	.LVL132:
 831              	.L49:
 832              	.LBE15:
 248:Source\azure_iot_sdk\iothub_client\src/iothubtransport_amqp_connection.c ****         }
 249:Source\azure_iot_sdk\iothub_client\src/iothubtransport_amqp_connection.c **** 
 250:Source\azure_iot_sdk\iothub_client\src/iothubtransport_amqp_connection.c ****         // Codes_SRS_IOTHUBTRANSPORT_AMQP_CONNECTION_09_027: [The `instance->session_handle` outgoi
 251:Source\azure_iot_sdk\iothub_client\src/iothubtransport_amqp_connection.c ****         if (session_set_outgoing_window(instance->session_handle, DEFAULT_OUTGOING_WINDOW_SIZE) != 
 833              		.loc 1 251 0 is_stmt 1
 834 005e 2069     		ldr	r0, [r4, #16]
 835 0060 6421     		movs	r1, #100
 836 0062 FFF7FEFF 		bl	session_set_outgoing_window
 837              	.LVL133:
 838 0066 0028     		cmp	r0, #0
 839 0068 11D0     		beq	.L51
 840              	.LBB16:
 252:Source\azure_iot_sdk\iothub_client\src/iothubtransport_amqp_connection.c ****         {
 253:Source\azure_iot_sdk\iothub_client\src/iothubtransport_amqp_connection.c ****             LogError("Failed to set the AMQP session outgoing window size.");
 841              		.loc 1 253 0 discriminator 3
 842 006a FFF7FEFF 		bl	xlogging_get_log_function
 843              	.LVL134:
 844 006e 041E     		subs	r4, r0, #0
 845              	.LVL135:
 846 0070 0FD0     		beq	.L52
 847              		.loc 1 253 0 is_stmt 0 discriminator 4
 848 0072 0D4B     		ldr	r3, .L53+16
ARM GAS  C:\Users\Phuong\AppData\Local\Temp\cc32RpHN.s 			page 21


 849 0074 0193     		str	r3, [sp, #4]
 850 0076 0123     		movs	r3, #1
 851 0078 0093     		str	r3, [sp]
 852 007a FC33     		adds	r3, r3, #252
 853 007c 074A     		ldr	r2, .L53+4
 854 007e 5C32     		adds	r2, r2, #92
 855 0080 0749     		ldr	r1, .L53+8
 856 0082 0020     		movs	r0, #0
 857              	.LVL136:
 858 0084 A047     		blx	r4
 859              	.LVL137:
 860              	.LBE16:
 254:Source\azure_iot_sdk\iothub_client\src/iothubtransport_amqp_connection.c ****         }
 255:Source\azure_iot_sdk\iothub_client\src/iothubtransport_amqp_connection.c **** 
 256:Source\azure_iot_sdk\iothub_client\src/iothubtransport_amqp_connection.c ****         result = RESULT_OK;
 861              		.loc 1 256 0 is_stmt 1 discriminator 4
 862 0086 0020     		movs	r0, #0
 863 0088 04E0     		b	.L48
 864              	.LVL138:
 865              	.L50:
 239:Source\azure_iot_sdk\iothub_client\src/iothubtransport_amqp_connection.c ****         LogError("Failed creating the AMQP connection (connection_create2 failed)");
 866              		.loc 1 239 0
 867 008a EF20     		movs	r0, #239
 868              	.LVL139:
 869 008c 02E0     		b	.L48
 870              	.LVL140:
 871              	.L51:
 872              		.loc 1 256 0
 873 008e 0020     		movs	r0, #0
 874 0090 00E0     		b	.L48
 875              	.LVL141:
 876              	.L52:
 877 0092 0020     		movs	r0, #0
 878              	.LVL142:
 879              	.L48:
 257:Source\azure_iot_sdk\iothub_client\src/iothubtransport_amqp_connection.c ****     }
 258:Source\azure_iot_sdk\iothub_client\src/iothubtransport_amqp_connection.c **** 
 259:Source\azure_iot_sdk\iothub_client\src/iothubtransport_amqp_connection.c ****     return result;
 260:Source\azure_iot_sdk\iothub_client\src/iothubtransport_amqp_connection.c **** }
 880              		.loc 1 260 0
 881 0094 03B0     		add	sp, sp, #12
 882              		@ sp needed
 883 0096 30BD     		pop	{r4, r5, pc}
 884              	.L54:
 885              		.align	2
 886              	.L53:
 887 0098 D8010000 		.word	.LC27
 888 009c 00000000 		.word	.LANCHOR0
 889 00a0 00000000 		.word	.LC1
 890 00a4 C4020000 		.word	.LC36
 891 00a8 FC020000 		.word	.LC38
 892              		.cfi_endproc
 893              	.LFE10:
 894              		.size	create_session_handle, .-create_session_handle
 895              		.section	.text.create_cbs_handle,"ax",%progbits
 896              		.align	2
 897              		.code	16
ARM GAS  C:\Users\Phuong\AppData\Local\Temp\cc32RpHN.s 			page 22


 898              		.thumb_func
 899              		.type	create_cbs_handle, %function
 900              	create_cbs_handle:
 901              	.LFB11:
 261:Source\azure_iot_sdk\iothub_client\src/iothubtransport_amqp_connection.c **** 
 262:Source\azure_iot_sdk\iothub_client\src/iothubtransport_amqp_connection.c **** static int create_cbs_handle(AMQP_CONNECTION_INSTANCE* instance)
 263:Source\azure_iot_sdk\iothub_client\src/iothubtransport_amqp_connection.c **** {
 902              		.loc 1 263 0
 903              		.cfi_startproc
 904              		@ args = 0, pretend = 0, frame = 0
 905              		@ frame_needed = 0, uses_anonymous_args = 0
 906              	.LVL143:
 907 0000 10B5     		push	{r4, lr}
 908              		.cfi_def_cfa_offset 8
 909              		.cfi_offset 4, -8
 910              		.cfi_offset 14, -4
 911 0002 82B0     		sub	sp, sp, #8
 912              		.cfi_def_cfa_offset 16
 913 0004 0400     		movs	r4, r0
 264:Source\azure_iot_sdk\iothub_client\src/iothubtransport_amqp_connection.c ****     int result;
 265:Source\azure_iot_sdk\iothub_client\src/iothubtransport_amqp_connection.c **** 
 266:Source\azure_iot_sdk\iothub_client\src/iothubtransport_amqp_connection.c ****     // Codes_SRS_IOTHUBTRANSPORT_AMQP_CONNECTION_09_029: [`instance->cbs_handle` shall be created u
 267:Source\azure_iot_sdk\iothub_client\src/iothubtransport_amqp_connection.c ****     if ((instance->cbs_handle = cbs_create(instance->session_handle)) == NULL)
 914              		.loc 1 267 0
 915 0006 0069     		ldr	r0, [r0, #16]
 916              	.LVL144:
 917 0008 FFF7FEFF 		bl	cbs_create
 918              	.LVL145:
 919 000c A060     		str	r0, [r4, #8]
 920 000e 0028     		cmp	r0, #0
 921 0010 11D1     		bne	.L56
 922              	.LVL146:
 923              	.LBB17:
 268:Source\azure_iot_sdk\iothub_client\src/iothubtransport_amqp_connection.c ****     {
 269:Source\azure_iot_sdk\iothub_client\src/iothubtransport_amqp_connection.c ****         // Codes_SRS_IOTHUBTRANSPORT_AMQP_CONNECTION_09_030: [If cbs_create() fails, amqp_connectio
 270:Source\azure_iot_sdk\iothub_client\src/iothubtransport_amqp_connection.c ****         result = __FAILURE__;
 271:Source\azure_iot_sdk\iothub_client\src/iothubtransport_amqp_connection.c ****         LogError("PSOC6---Failed to create the CBS connection---PSOC6");
 924              		.loc 1 271 0
 925 0012 FFF7FEFF 		bl	xlogging_get_log_function
 926              	.LVL147:
 927 0016 041E     		subs	r4, r0, #0
 928              	.LVL148:
 929 0018 27D0     		beq	.L58
 930              		.loc 1 271 0 is_stmt 0 discriminator 4
 931 001a 184B     		ldr	r3, .L61
 932 001c 0193     		str	r3, [sp, #4]
 933 001e 0123     		movs	r3, #1
 934 0020 0093     		str	r3, [sp]
 935 0022 1023     		movs	r3, #16
 936 0024 FF33     		adds	r3, r3, #255
 937 0026 164A     		ldr	r2, .L61+4
 938 0028 7432     		adds	r2, r2, #116
 939 002a 1649     		ldr	r1, .L61+8
 940 002c 0020     		movs	r0, #0
 941              	.LVL149:
 942 002e A047     		blx	r4
 943              	.LVL150:
ARM GAS  C:\Users\Phuong\AppData\Local\Temp\cc32RpHN.s 			page 23


 944              	.LBE17:
 270:Source\azure_iot_sdk\iothub_client\src/iothubtransport_amqp_connection.c ****         LogError("PSOC6---Failed to create the CBS connection---PSOC6");
 945              		.loc 1 270 0 is_stmt 1 discriminator 4
 946 0030 8720     		movs	r0, #135
 947 0032 4000     		lsls	r0, r0, #1
 948 0034 20E0     		b	.L57
 949              	.LVL151:
 950              	.L56:
 272:Source\azure_iot_sdk\iothub_client\src/iothubtransport_amqp_connection.c ****     }
 273:Source\azure_iot_sdk\iothub_client\src/iothubtransport_amqp_connection.c ****     // Codes_SRS_IOTHUBTRANSPORT_AMQP_CONNECTION_09_031: [`instance->cbs_handle` shall be opened us
 274:Source\azure_iot_sdk\iothub_client\src/iothubtransport_amqp_connection.c ****     else if (cbs_open_async(instance->cbs_handle, on_cbs_open_complete, instance->cbs_handle, on_cb
 951              		.loc 1 274 0
 952 0036 0090     		str	r0, [sp]
 953 0038 134B     		ldr	r3, .L61+12
 954 003a 0200     		movs	r2, r0
 955 003c 1349     		ldr	r1, .L61+16
 956 003e FFF7FEFF 		bl	cbs_open_async
 957              	.LVL152:
 958 0042 0028     		cmp	r0, #0
 959 0044 14D0     		beq	.L59
 960              	.LVL153:
 961              	.LBB18:
 275:Source\azure_iot_sdk\iothub_client\src/iothubtransport_amqp_connection.c ****     {
 276:Source\azure_iot_sdk\iothub_client\src/iothubtransport_amqp_connection.c ****         // Codes_SRS_IOTHUBTRANSPORT_AMQP_CONNECTION_09_032: [If cbs_open() fails, amqp_connection_
 277:Source\azure_iot_sdk\iothub_client\src/iothubtransport_amqp_connection.c ****         result = __FAILURE__;
 278:Source\azure_iot_sdk\iothub_client\src/iothubtransport_amqp_connection.c ****         LogError("PSOC6---Failed to open the connection with CBS---PSOC6");
 962              		.loc 1 278 0
 963 0046 FFF7FEFF 		bl	xlogging_get_log_function
 964              	.LVL154:
 965 004a 041E     		subs	r4, r0, #0
 966              	.LVL155:
 967 004c 12D0     		beq	.L60
 968              		.loc 1 278 0 is_stmt 0 discriminator 4
 969 004e 104B     		ldr	r3, .L61+20
 970 0050 0193     		str	r3, [sp, #4]
 971 0052 0123     		movs	r3, #1
 972 0054 0093     		str	r3, [sp]
 973 0056 1633     		adds	r3, r3, #22
 974 0058 FF33     		adds	r3, r3, #255
 975 005a 094A     		ldr	r2, .L61+4
 976 005c 7432     		adds	r2, r2, #116
 977 005e 0949     		ldr	r1, .L61+8
 978 0060 0020     		movs	r0, #0
 979              	.LVL156:
 980 0062 A047     		blx	r4
 981              	.LVL157:
 982              	.LBE18:
 277:Source\azure_iot_sdk\iothub_client\src/iothubtransport_amqp_connection.c ****         LogError("PSOC6---Failed to open the connection with CBS---PSOC6");
 983              		.loc 1 277 0 is_stmt 1 discriminator 4
 984 0064 1620     		movs	r0, #22
 985 0066 FF30     		adds	r0, r0, #255
 986 0068 06E0     		b	.L57
 987              	.LVL158:
 988              	.L58:
 270:Source\azure_iot_sdk\iothub_client\src/iothubtransport_amqp_connection.c ****         LogError("PSOC6---Failed to create the CBS connection---PSOC6");
 989              		.loc 1 270 0
 990 006a 8720     		movs	r0, #135
ARM GAS  C:\Users\Phuong\AppData\Local\Temp\cc32RpHN.s 			page 24


 991              	.LVL159:
 992 006c 4000     		lsls	r0, r0, #1
 993 006e 03E0     		b	.L57
 994              	.LVL160:
 995              	.L59:
 279:Source\azure_iot_sdk\iothub_client\src/iothubtransport_amqp_connection.c ****     }
 280:Source\azure_iot_sdk\iothub_client\src/iothubtransport_amqp_connection.c ****     else
 281:Source\azure_iot_sdk\iothub_client\src/iothubtransport_amqp_connection.c ****     {
 282:Source\azure_iot_sdk\iothub_client\src/iothubtransport_amqp_connection.c ****         result = RESULT_OK;
 996              		.loc 1 282 0
 997 0070 0020     		movs	r0, #0
 998 0072 01E0     		b	.L57
 999              	.LVL161:
 1000              	.L60:
 277:Source\azure_iot_sdk\iothub_client\src/iothubtransport_amqp_connection.c ****         LogError("PSOC6---Failed to open the connection with CBS---PSOC6");
 1001              		.loc 1 277 0
 1002 0074 1620     		movs	r0, #22
 1003              	.LVL162:
 1004 0076 FF30     		adds	r0, r0, #255
 1005              	.LVL163:
 1006              	.L57:
 283:Source\azure_iot_sdk\iothub_client\src/iothubtransport_amqp_connection.c ****     }
 284:Source\azure_iot_sdk\iothub_client\src/iothubtransport_amqp_connection.c **** 
 285:Source\azure_iot_sdk\iothub_client\src/iothubtransport_amqp_connection.c ****     return result;
 286:Source\azure_iot_sdk\iothub_client\src/iothubtransport_amqp_connection.c **** }
 1007              		.loc 1 286 0
 1008 0078 02B0     		add	sp, sp, #8
 1009              		@ sp needed
 1010 007a 10BD     		pop	{r4, pc}
 1011              	.L62:
 1012              		.align	2
 1013              	.L61:
 1014 007c 34030000 		.word	.LC42
 1015 0080 00000000 		.word	.LANCHOR0
 1016 0084 00000000 		.word	.LC1
 1017 0088 00000000 		.word	on_cbs_error
 1018 008c 00000000 		.word	on_cbs_open_complete
 1019 0090 68030000 		.word	.LC46
 1020              		.cfi_endproc
 1021              	.LFE11:
 1022              		.size	create_cbs_handle, .-create_cbs_handle
 1023              		.section	.text.AMQP_CONNECTION_STATEStrings,"ax",%progbits
 1024              		.align	2
 1025              		.global	AMQP_CONNECTION_STATEStrings
 1026              		.code	16
 1027              		.thumb_func
 1028              		.type	AMQP_CONNECTION_STATEStrings, %function
 1029              	AMQP_CONNECTION_STATEStrings:
 1030              	.LFB1:
  43:Source\azure_iot_sdk\iothub_client\src/iothubtransport_amqp_connection.c **** 
 1031              		.loc 1 43 0
 1032              		.cfi_startproc
 1033              		@ args = 0, pretend = 0, frame = 0
 1034              		@ frame_needed = 0, uses_anonymous_args = 0
 1035              		@ link register save eliminated.
 1036              	.LVL164:
  43:Source\azure_iot_sdk\iothub_client\src/iothubtransport_amqp_connection.c **** 
ARM GAS  C:\Users\Phuong\AppData\Local\Temp\cc32RpHN.s 			page 25


 1037              		.loc 1 43 0
 1038 0000 0228     		cmp	r0, #2
 1039 0002 03D8     		bhi	.L65
  43:Source\azure_iot_sdk\iothub_client\src/iothubtransport_amqp_connection.c **** 
 1040              		.loc 1 43 0 is_stmt 0 discriminator 2
 1041 0004 8000     		lsls	r0, r0, #2
 1042              	.LVL165:
 1043 0006 024B     		ldr	r3, .L66
 1044 0008 C058     		ldr	r0, [r0, r3]
 1045 000a 00E0     		b	.L64
 1046              	.LVL166:
 1047              	.L65:
  43:Source\azure_iot_sdk\iothub_client\src/iothubtransport_amqp_connection.c **** 
 1048              		.loc 1 43 0
 1049 000c 0020     		movs	r0, #0
 1050              	.LVL167:
 1051              	.L64:
 1052              		@ sp needed
 1053 000e 7047     		bx	lr
 1054              	.L67:
 1055              		.align	2
 1056              	.L66:
 1057 0010 00000000 		.word	.LANCHOR1
 1058              		.cfi_endproc
 1059              	.LFE1:
 1060              		.size	AMQP_CONNECTION_STATEStrings, .-AMQP_CONNECTION_STATEStrings
 1061              		.section	.text.AMQP_CONNECTION_STATE_FromString,"ax",%progbits
 1062              		.align	2
 1063              		.global	AMQP_CONNECTION_STATE_FromString
 1064              		.code	16
 1065              		.thumb_func
 1066              		.type	AMQP_CONNECTION_STATE_FromString, %function
 1067              	AMQP_CONNECTION_STATE_FromString:
 1068              	.LFB2:
  43:Source\azure_iot_sdk\iothub_client\src/iothubtransport_amqp_connection.c **** 
 1069              		.loc 1 43 0 is_stmt 1
 1070              		.cfi_startproc
 1071              		@ args = 0, pretend = 0, frame = 0
 1072              		@ frame_needed = 0, uses_anonymous_args = 0
 1073              	.LVL168:
 1074 0000 70B5     		push	{r4, r5, r6, lr}
 1075              		.cfi_def_cfa_offset 16
 1076              		.cfi_offset 4, -16
 1077              		.cfi_offset 5, -12
 1078              		.cfi_offset 6, -8
 1079              		.cfi_offset 14, -4
 1080 0002 0500     		movs	r5, r0
 1081 0004 0E00     		movs	r6, r1
  43:Source\azure_iot_sdk\iothub_client\src/iothubtransport_amqp_connection.c **** 
 1082              		.loc 1 43 0
 1083 0006 0028     		cmp	r0, #0
 1084 0008 12D0     		beq	.L73
  43:Source\azure_iot_sdk\iothub_client\src/iothubtransport_amqp_connection.c **** 
 1085              		.loc 1 43 0 is_stmt 0 discriminator 2
 1086 000a 0029     		cmp	r1, #0
 1087 000c 12D0     		beq	.L74
 1088 000e 0024     		movs	r4, #0
ARM GAS  C:\Users\Phuong\AppData\Local\Temp\cc32RpHN.s 			page 26


 1089 0010 0AE0     		b	.L70
 1090              	.LVL169:
 1091              	.L72:
 1092              	.LBB19:
  43:Source\azure_iot_sdk\iothub_client\src/iothubtransport_amqp_connection.c **** 
 1093              		.loc 1 43 0 discriminator 9
 1094 0012 A300     		lsls	r3, r4, #2
 1095 0014 084A     		ldr	r2, .L75
 1096 0016 9958     		ldr	r1, [r3, r2]
 1097 0018 2800     		movs	r0, r5
 1098 001a FFF7FEFF 		bl	strcmp
 1099              	.LVL170:
 1100 001e 0028     		cmp	r0, #0
 1101 0020 01D1     		bne	.L71
  43:Source\azure_iot_sdk\iothub_client\src/iothubtransport_amqp_connection.c **** 
 1102              		.loc 1 43 0 discriminator 6
 1103 0022 3470     		strb	r4, [r6]
 1104 0024 07E0     		b	.L69
 1105              	.L71:
  43:Source\azure_iot_sdk\iothub_client\src/iothubtransport_amqp_connection.c **** 
 1106              		.loc 1 43 0 discriminator 7
 1107 0026 0134     		adds	r4, r4, #1
 1108              	.LVL171:
 1109              	.L70:
  43:Source\azure_iot_sdk\iothub_client\src/iothubtransport_amqp_connection.c **** 
 1110              		.loc 1 43 0 discriminator 8
 1111 0028 022C     		cmp	r4, #2
 1112 002a F2D9     		bls	.L72
  43:Source\azure_iot_sdk\iothub_client\src/iothubtransport_amqp_connection.c **** 
 1113              		.loc 1 43 0
 1114 002c 2B20     		movs	r0, #43
 1115 002e 02E0     		b	.L69
 1116              	.LVL172:
 1117              	.L73:
 1118              	.LBE19:
 1119 0030 2B20     		movs	r0, #43
 1120              	.LVL173:
 1121 0032 00E0     		b	.L69
 1122              	.LVL174:
 1123              	.L74:
 1124 0034 2B20     		movs	r0, #43
 1125              	.LVL175:
 1126              	.L69:
 1127              		@ sp needed
 1128              	.LVL176:
 1129              	.LVL177:
 1130 0036 70BD     		pop	{r4, r5, r6, pc}
 1131              	.L76:
 1132              		.align	2
 1133              	.L75:
 1134 0038 00000000 		.word	.LANCHOR1
 1135              		.cfi_endproc
 1136              	.LFE2:
 1137              		.size	AMQP_CONNECTION_STATE_FromString, .-AMQP_CONNECTION_STATE_FromString
 1138              		.section	.text.amqp_connection_destroy,"ax",%progbits
 1139              		.align	2
 1140              		.global	amqp_connection_destroy
ARM GAS  C:\Users\Phuong\AppData\Local\Temp\cc32RpHN.s 			page 27


 1141              		.code	16
 1142              		.thumb_func
 1143              		.type	amqp_connection_destroy, %function
 1144              	amqp_connection_destroy:
 1145              	.LFB12:
 287:Source\azure_iot_sdk\iothub_client\src/iothubtransport_amqp_connection.c **** 
 288:Source\azure_iot_sdk\iothub_client\src/iothubtransport_amqp_connection.c **** 
 289:Source\azure_iot_sdk\iothub_client\src/iothubtransport_amqp_connection.c **** // Public APIS:
 290:Source\azure_iot_sdk\iothub_client\src/iothubtransport_amqp_connection.c **** 
 291:Source\azure_iot_sdk\iothub_client\src/iothubtransport_amqp_connection.c **** void amqp_connection_destroy(AMQP_CONNECTION_HANDLE conn_handle)
 292:Source\azure_iot_sdk\iothub_client\src/iothubtransport_amqp_connection.c **** {
 1146              		.loc 1 292 0 is_stmt 1
 1147              		.cfi_startproc
 1148              		@ args = 0, pretend = 0, frame = 0
 1149              		@ frame_needed = 0, uses_anonymous_args = 0
 1150              	.LVL178:
 1151 0000 10B5     		push	{r4, lr}
 1152              		.cfi_def_cfa_offset 8
 1153              		.cfi_offset 4, -8
 1154              		.cfi_offset 14, -4
 1155 0002 041E     		subs	r4, r0, #0
 293:Source\azure_iot_sdk\iothub_client\src/iothubtransport_amqp_connection.c ****     // Codes_SRS_IOTHUBTRANSPORT_AMQP_CONNECTION_09_035: [If `conn_handle` is NULL, amqp_connection
 294:Source\azure_iot_sdk\iothub_client\src/iothubtransport_amqp_connection.c ****     if (conn_handle != NULL)
 1156              		.loc 1 294 0
 1157 0004 20D0     		beq	.L77
 1158              	.LVL179:
 1159              	.LBB20:
 295:Source\azure_iot_sdk\iothub_client\src/iothubtransport_amqp_connection.c ****     {
 296:Source\azure_iot_sdk\iothub_client\src/iothubtransport_amqp_connection.c ****         AMQP_CONNECTION_INSTANCE* instance = (AMQP_CONNECTION_INSTANCE*)conn_handle;
 297:Source\azure_iot_sdk\iothub_client\src/iothubtransport_amqp_connection.c **** 
 298:Source\azure_iot_sdk\iothub_client\src/iothubtransport_amqp_connection.c ****         // Codes_SRS_IOTHUBTRANSPORT_AMQP_CONNECTION_09_036: [amqp_connection_destroy() shall destr
 299:Source\azure_iot_sdk\iothub_client\src/iothubtransport_amqp_connection.c ****         if (instance->cbs_handle != NULL)
 1160              		.loc 1 299 0
 1161 0006 8068     		ldr	r0, [r0, #8]
 1162              	.LVL180:
 1163 0008 0028     		cmp	r0, #0
 1164 000a 01D0     		beq	.L79
 300:Source\azure_iot_sdk\iothub_client\src/iothubtransport_amqp_connection.c ****         {
 301:Source\azure_iot_sdk\iothub_client\src/iothubtransport_amqp_connection.c ****             cbs_destroy(instance->cbs_handle);
 1165              		.loc 1 301 0
 1166 000c FFF7FEFF 		bl	cbs_destroy
 1167              	.LVL181:
 1168              	.L79:
 302:Source\azure_iot_sdk\iothub_client\src/iothubtransport_amqp_connection.c ****         }
 303:Source\azure_iot_sdk\iothub_client\src/iothubtransport_amqp_connection.c **** 
 304:Source\azure_iot_sdk\iothub_client\src/iothubtransport_amqp_connection.c ****         // Codes_SRS_IOTHUBTRANSPORT_AMQP_CONNECTION_09_037: [amqp_connection_destroy() shall destr
 305:Source\azure_iot_sdk\iothub_client\src/iothubtransport_amqp_connection.c ****         if (instance->session_handle != NULL)
 1169              		.loc 1 305 0
 1170 0010 2069     		ldr	r0, [r4, #16]
 1171 0012 0028     		cmp	r0, #0
 1172 0014 01D0     		beq	.L80
 306:Source\azure_iot_sdk\iothub_client\src/iothubtransport_amqp_connection.c ****         {
 307:Source\azure_iot_sdk\iothub_client\src/iothubtransport_amqp_connection.c ****             session_destroy(instance->session_handle);
 1173              		.loc 1 307 0
 1174 0016 FFF7FEFF 		bl	session_destroy
 1175              	.LVL182:
 1176              	.L80:
ARM GAS  C:\Users\Phuong\AppData\Local\Temp\cc32RpHN.s 			page 28


 308:Source\azure_iot_sdk\iothub_client\src/iothubtransport_amqp_connection.c ****         }
 309:Source\azure_iot_sdk\iothub_client\src/iothubtransport_amqp_connection.c **** 
 310:Source\azure_iot_sdk\iothub_client\src/iothubtransport_amqp_connection.c ****         // Codes_SRS_IOTHUBTRANSPORT_AMQP_CONNECTION_09_067: [amqp_connection_destroy() shall destr
 311:Source\azure_iot_sdk\iothub_client\src/iothubtransport_amqp_connection.c ****         if (instance->connection_handle != NULL)
 1177              		.loc 1 311 0
 1178 001a E068     		ldr	r0, [r4, #12]
 1179 001c 0028     		cmp	r0, #0
 1180 001e 01D0     		beq	.L81
 312:Source\azure_iot_sdk\iothub_client\src/iothubtransport_amqp_connection.c ****         {
 313:Source\azure_iot_sdk\iothub_client\src/iothubtransport_amqp_connection.c ****             connection_destroy(instance->connection_handle);
 1181              		.loc 1 313 0
 1182 0020 FFF7FEFF 		bl	connection_destroy
 1183              	.LVL183:
 1184              	.L81:
 314:Source\azure_iot_sdk\iothub_client\src/iothubtransport_amqp_connection.c ****         }
 315:Source\azure_iot_sdk\iothub_client\src/iothubtransport_amqp_connection.c **** 
 316:Source\azure_iot_sdk\iothub_client\src/iothubtransport_amqp_connection.c ****         // Codes_SRS_IOTHUBTRANSPORT_AMQP_CONNECTION_09_038: [amqp_connection_destroy() shall destr
 317:Source\azure_iot_sdk\iothub_client\src/iothubtransport_amqp_connection.c ****         if (instance->sasl_io != NULL)
 1185              		.loc 1 317 0
 1186 0024 6069     		ldr	r0, [r4, #20]
 1187 0026 0028     		cmp	r0, #0
 1188 0028 01D0     		beq	.L82
 318:Source\azure_iot_sdk\iothub_client\src/iothubtransport_amqp_connection.c ****         {
 319:Source\azure_iot_sdk\iothub_client\src/iothubtransport_amqp_connection.c ****             xio_destroy(instance->sasl_io);
 1189              		.loc 1 319 0
 1190 002a FFF7FEFF 		bl	xio_destroy
 1191              	.LVL184:
 1192              	.L82:
 320:Source\azure_iot_sdk\iothub_client\src/iothubtransport_amqp_connection.c ****         }
 321:Source\azure_iot_sdk\iothub_client\src/iothubtransport_amqp_connection.c **** 
 322:Source\azure_iot_sdk\iothub_client\src/iothubtransport_amqp_connection.c ****         // Codes_SRS_IOTHUBTRANSPORT_AMQP_CONNECTION_09_039: [amqp_connection_destroy() shall destr
 323:Source\azure_iot_sdk\iothub_client\src/iothubtransport_amqp_connection.c ****         if (instance->sasl_mechanism != NULL)
 1193              		.loc 1 323 0
 1194 002e A069     		ldr	r0, [r4, #24]
 1195 0030 0028     		cmp	r0, #0
 1196 0032 01D0     		beq	.L83
 324:Source\azure_iot_sdk\iothub_client\src/iothubtransport_amqp_connection.c ****         {
 325:Source\azure_iot_sdk\iothub_client\src/iothubtransport_amqp_connection.c ****             saslmechanism_destroy(instance->sasl_mechanism);
 1197              		.loc 1 325 0
 1198 0034 FFF7FEFF 		bl	saslmechanism_destroy
 1199              	.LVL185:
 1200              	.L83:
 326:Source\azure_iot_sdk\iothub_client\src/iothubtransport_amqp_connection.c ****         }
 327:Source\azure_iot_sdk\iothub_client\src/iothubtransport_amqp_connection.c **** 
 328:Source\azure_iot_sdk\iothub_client\src/iothubtransport_amqp_connection.c ****         // Codes_SRS_IOTHUBTRANSPORT_AMQP_CONNECTION_09_059: [amqp_connection_destroy() shall destr
 329:Source\azure_iot_sdk\iothub_client\src/iothubtransport_amqp_connection.c ****         if (instance->iothub_fqdn != NULL)
 1201              		.loc 1 329 0
 1202 0038 2068     		ldr	r0, [r4]
 1203 003a 0028     		cmp	r0, #0
 1204 003c 01D0     		beq	.L84
 330:Source\azure_iot_sdk\iothub_client\src/iothubtransport_amqp_connection.c ****         {
 331:Source\azure_iot_sdk\iothub_client\src/iothubtransport_amqp_connection.c ****             STRING_delete(instance->iothub_fqdn);
 1205              		.loc 1 331 0
 1206 003e FFF7FEFF 		bl	STRING_delete
 1207              	.LVL186:
 1208              	.L84:
 332:Source\azure_iot_sdk\iothub_client\src/iothubtransport_amqp_connection.c ****         }
ARM GAS  C:\Users\Phuong\AppData\Local\Temp\cc32RpHN.s 			page 29


 333:Source\azure_iot_sdk\iothub_client\src/iothubtransport_amqp_connection.c **** 
 334:Source\azure_iot_sdk\iothub_client\src/iothubtransport_amqp_connection.c ****         // Codes_SRS_IOTHUBTRANSPORT_AMQP_CONNECTION_09_040: [amqp_connection_destroy() shall free 
 335:Source\azure_iot_sdk\iothub_client\src/iothubtransport_amqp_connection.c ****         free(instance);
 1209              		.loc 1 335 0
 1210 0042 2000     		movs	r0, r4
 1211 0044 FFF7FEFF 		bl	free
 1212              	.LVL187:
 1213              	.L77:
 1214              	.LBE20:
 336:Source\azure_iot_sdk\iothub_client\src/iothubtransport_amqp_connection.c ****     }
 337:Source\azure_iot_sdk\iothub_client\src/iothubtransport_amqp_connection.c **** }
 1215              		.loc 1 337 0
 1216              		@ sp needed
 1217              	.LVL188:
 1218 0048 10BD     		pop	{r4, pc}
 1219              		.cfi_endproc
 1220              	.LFE12:
 1221              		.size	amqp_connection_destroy, .-amqp_connection_destroy
 1222 004a C046     		.section	.text.amqp_connection_create,"ax",%progbits
 1223              		.align	2
 1224              		.global	amqp_connection_create
 1225              		.code	16
 1226              		.thumb_func
 1227              		.type	amqp_connection_create, %function
 1228              	amqp_connection_create:
 1229              	.LFB13:
 338:Source\azure_iot_sdk\iothub_client\src/iothubtransport_amqp_connection.c **** 
 339:Source\azure_iot_sdk\iothub_client\src/iothubtransport_amqp_connection.c **** AMQP_CONNECTION_HANDLE amqp_connection_create(AMQP_CONNECTION_CONFIG* config)
 340:Source\azure_iot_sdk\iothub_client\src/iothubtransport_amqp_connection.c **** {
 1230              		.loc 1 340 0
 1231              		.cfi_startproc
 1232              		@ args = 0, pretend = 0, frame = 0
 1233              		@ frame_needed = 0, uses_anonymous_args = 0
 1234              	.LVL189:
 1235 0000 70B5     		push	{r4, r5, r6, lr}
 1236              		.cfi_def_cfa_offset 16
 1237              		.cfi_offset 4, -16
 1238              		.cfi_offset 5, -12
 1239              		.cfi_offset 6, -8
 1240              		.cfi_offset 14, -4
 1241 0002 82B0     		sub	sp, sp, #8
 1242              		.cfi_def_cfa_offset 24
 1243 0004 041E     		subs	r4, r0, #0
 341:Source\azure_iot_sdk\iothub_client\src/iothubtransport_amqp_connection.c ****     AMQP_CONNECTION_HANDLE result;
 342:Source\azure_iot_sdk\iothub_client\src/iothubtransport_amqp_connection.c **** 
 343:Source\azure_iot_sdk\iothub_client\src/iothubtransport_amqp_connection.c ****     // Codes_SRS_IOTHUBTRANSPORT_AMQP_CONNECTION_09_001: [If `config` is NULL, amqp_connection_crea
 344:Source\azure_iot_sdk\iothub_client\src/iothubtransport_amqp_connection.c ****     if (config == NULL)
 1244              		.loc 1 344 0
 1245 0006 11D1     		bne	.L86
 1246              	.LVL190:
 1247              	.LBB21:
 345:Source\azure_iot_sdk\iothub_client\src/iothubtransport_amqp_connection.c ****     {
 346:Source\azure_iot_sdk\iothub_client\src/iothubtransport_amqp_connection.c ****         result = NULL;
 347:Source\azure_iot_sdk\iothub_client\src/iothubtransport_amqp_connection.c ****         LogError("amqp_connection_create failed (config is NULL)");
 1248              		.loc 1 347 0
 1249 0008 FFF7FEFF 		bl	xlogging_get_log_function
 1250              	.LVL191:
ARM GAS  C:\Users\Phuong\AppData\Local\Temp\cc32RpHN.s 			page 30


 1251 000c 041E     		subs	r4, r0, #0
 1252              	.LVL192:
 1253 000e 00D1     		bne	.LCB1304
 1254 0010 02E1     		b	.L98	@long jump
 1255              	.LCB1304:
 1256              		.loc 1 347 0 is_stmt 0 discriminator 4
 1257 0012 864B     		ldr	r3, .L109
 1258 0014 0193     		str	r3, [sp, #4]
 1259 0016 0123     		movs	r3, #1
 1260 0018 0093     		str	r3, [sp]
 1261 001a 5C23     		movs	r3, #92
 1262 001c FF33     		adds	r3, r3, #255
 1263 001e 844A     		ldr	r2, .L109+4
 1264 0020 0832     		adds	r2, r2, #8
 1265 0022 8449     		ldr	r1, .L109+8
 1266 0024 0020     		movs	r0, #0
 1267              	.LVL193:
 1268 0026 A047     		blx	r4
 1269              	.LVL194:
 1270              	.LBE21:
 346:Source\azure_iot_sdk\iothub_client\src/iothubtransport_amqp_connection.c ****         LogError("amqp_connection_create failed (config is NULL)");
 1271              		.loc 1 346 0 is_stmt 1 discriminator 4
 1272 0028 0024     		movs	r4, #0
 1273              	.LVL195:
 1274 002a FCE0     		b	.L87
 1275              	.LVL196:
 1276              	.L86:
 348:Source\azure_iot_sdk\iothub_client\src/iothubtransport_amqp_connection.c ****     }
 349:Source\azure_iot_sdk\iothub_client\src/iothubtransport_amqp_connection.c ****     // Codes_SRS_IOTHUBTRANSPORT_AMQP_CONNECTION_09_002: [If `config->iothub_host_fqdn` is NULL, am
 350:Source\azure_iot_sdk\iothub_client\src/iothubtransport_amqp_connection.c ****     else if (config->iothub_host_fqdn == NULL)
 1277              		.loc 1 350 0
 1278 002c 0368     		ldr	r3, [r0]
 1279 002e 002B     		cmp	r3, #0
 1280 0030 11D1     		bne	.L88
 1281              	.LVL197:
 1282              	.LBB22:
 351:Source\azure_iot_sdk\iothub_client\src/iothubtransport_amqp_connection.c ****     {
 352:Source\azure_iot_sdk\iothub_client\src/iothubtransport_amqp_connection.c ****         result = NULL;
 353:Source\azure_iot_sdk\iothub_client\src/iothubtransport_amqp_connection.c ****         LogError("amqp_connection_create failed (config->iothub_host_fqdn is NULL)");
 1283              		.loc 1 353 0
 1284 0032 FFF7FEFF 		bl	xlogging_get_log_function
 1285              	.LVL198:
 1286 0036 041E     		subs	r4, r0, #0
 1287              	.LVL199:
 1288 0038 00D1     		bne	.LCB1341
 1289 003a EFE0     		b	.L99	@long jump
 1290              	.LCB1341:
 1291              		.loc 1 353 0 is_stmt 0 discriminator 4
 1292 003c 7E4B     		ldr	r3, .L109+12
 1293 003e 0193     		str	r3, [sp, #4]
 1294 0040 0123     		movs	r3, #1
 1295 0042 0093     		str	r3, [sp]
 1296 0044 6223     		movs	r3, #98
 1297 0046 FF33     		adds	r3, r3, #255
 1298 0048 794A     		ldr	r2, .L109+4
 1299 004a 0832     		adds	r2, r2, #8
 1300 004c 7949     		ldr	r1, .L109+8
ARM GAS  C:\Users\Phuong\AppData\Local\Temp\cc32RpHN.s 			page 31


 1301 004e 0020     		movs	r0, #0
 1302              	.LVL200:
 1303 0050 A047     		blx	r4
 1304              	.LVL201:
 1305              	.LBE22:
 352:Source\azure_iot_sdk\iothub_client\src/iothubtransport_amqp_connection.c ****         LogError("amqp_connection_create failed (config->iothub_host_fqdn is NULL)");
 1306              		.loc 1 352 0 is_stmt 1 discriminator 4
 1307 0052 0024     		movs	r4, #0
 1308              	.LVL202:
 1309 0054 E7E0     		b	.L87
 1310              	.LVL203:
 1311              	.L88:
 354:Source\azure_iot_sdk\iothub_client\src/iothubtransport_amqp_connection.c ****     }
 355:Source\azure_iot_sdk\iothub_client\src/iothubtransport_amqp_connection.c ****     // Codes_SRS_IOTHUBTRANSPORT_AMQP_CONNECTION_09_003: [If `config->underlying_io_transport` is N
 356:Source\azure_iot_sdk\iothub_client\src/iothubtransport_amqp_connection.c ****     else if (config->underlying_io_transport == NULL)
 1312              		.loc 1 356 0
 1313 0056 4368     		ldr	r3, [r0, #4]
 1314 0058 002B     		cmp	r3, #0
 1315 005a 11D1     		bne	.L89
 1316              	.LVL204:
 1317              	.LBB23:
 357:Source\azure_iot_sdk\iothub_client\src/iothubtransport_amqp_connection.c ****     {
 358:Source\azure_iot_sdk\iothub_client\src/iothubtransport_amqp_connection.c ****         result = NULL;
 359:Source\azure_iot_sdk\iothub_client\src/iothubtransport_amqp_connection.c ****         LogError("amqp_connection_create failed (config->underlying_io_transport is NULL)");
 1318              		.loc 1 359 0
 1319 005c FFF7FEFF 		bl	xlogging_get_log_function
 1320              	.LVL205:
 1321 0060 041E     		subs	r4, r0, #0
 1322              	.LVL206:
 1323 0062 00D1     		bne	.LCB1378
 1324 0064 DCE0     		b	.L100	@long jump
 1325              	.LCB1378:
 1326              		.loc 1 359 0 is_stmt 0 discriminator 4
 1327 0066 754B     		ldr	r3, .L109+16
 1328 0068 0193     		str	r3, [sp, #4]
 1329 006a 0123     		movs	r3, #1
 1330 006c 0093     		str	r3, [sp]
 1331 006e 6823     		movs	r3, #104
 1332 0070 FF33     		adds	r3, r3, #255
 1333 0072 6F4A     		ldr	r2, .L109+4
 1334 0074 0832     		adds	r2, r2, #8
 1335 0076 6F49     		ldr	r1, .L109+8
 1336 0078 0020     		movs	r0, #0
 1337              	.LVL207:
 1338 007a A047     		blx	r4
 1339              	.LVL208:
 1340              	.LBE23:
 358:Source\azure_iot_sdk\iothub_client\src/iothubtransport_amqp_connection.c ****         LogError("amqp_connection_create failed (config->underlying_io_transport is NULL)");
 1341              		.loc 1 358 0 is_stmt 1 discriminator 4
 1342 007c 0024     		movs	r4, #0
 1343              	.LVL209:
 1344 007e D2E0     		b	.L87
 1345              	.LVL210:
 1346              	.L89:
 1347              	.LBB24:
 360:Source\azure_iot_sdk\iothub_client\src/iothubtransport_amqp_connection.c ****     }
 361:Source\azure_iot_sdk\iothub_client\src/iothubtransport_amqp_connection.c ****     else
ARM GAS  C:\Users\Phuong\AppData\Local\Temp\cc32RpHN.s 			page 32


 362:Source\azure_iot_sdk\iothub_client\src/iothubtransport_amqp_connection.c ****     {
 363:Source\azure_iot_sdk\iothub_client\src/iothubtransport_amqp_connection.c ****         AMQP_CONNECTION_INSTANCE* instance;
 364:Source\azure_iot_sdk\iothub_client\src/iothubtransport_amqp_connection.c **** 
 365:Source\azure_iot_sdk\iothub_client\src/iothubtransport_amqp_connection.c ****         // Codes_SRS_IOTHUBTRANSPORT_AMQP_CONNECTION_09_057: [amqp_connection_create() shall alloca
 366:Source\azure_iot_sdk\iothub_client\src/iothubtransport_amqp_connection.c ****         if ((instance = (AMQP_CONNECTION_INSTANCE*)malloc(sizeof(AMQP_CONNECTION_INSTANCE))) == NUL
 1348              		.loc 1 366 0
 1349 0080 3820     		movs	r0, #56
 1350              	.LVL211:
 1351 0082 FFF7FEFF 		bl	malloc
 1352              	.LVL212:
 1353 0086 051E     		subs	r5, r0, #0
 1354              	.LVL213:
 1355 0088 11D1     		bne	.L90
 1356              	.LVL214:
 1357              	.LBB25:
 367:Source\azure_iot_sdk\iothub_client\src/iothubtransport_amqp_connection.c ****         {
 368:Source\azure_iot_sdk\iothub_client\src/iothubtransport_amqp_connection.c ****             // Codes_SRS_IOTHUBTRANSPORT_AMQP_CONNECTION_09_058: [If malloc() fails, amqp_connectio
 369:Source\azure_iot_sdk\iothub_client\src/iothubtransport_amqp_connection.c ****             result = NULL;
 370:Source\azure_iot_sdk\iothub_client\src/iothubtransport_amqp_connection.c ****             LogError("amqp_connection_create failed (malloc failed)");
 1358              		.loc 1 370 0
 1359 008a FFF7FEFF 		bl	xlogging_get_log_function
 1360              	.LVL215:
 1361 008e 041E     		subs	r4, r0, #0
 1362              	.LVL216:
 1363 0090 00D1     		bne	.LCB1420
 1364 0092 C7E0     		b	.L101	@long jump
 1365              	.LCB1420:
 1366              		.loc 1 370 0 is_stmt 0 discriminator 4
 1367 0094 6A4B     		ldr	r3, .L109+20
 1368 0096 0193     		str	r3, [sp, #4]
 1369 0098 0123     		movs	r3, #1
 1370 009a 0093     		str	r3, [sp]
 1371 009c 7233     		adds	r3, r3, #114
 1372 009e FF33     		adds	r3, r3, #255
 1373 00a0 634A     		ldr	r2, .L109+4
 1374 00a2 0832     		adds	r2, r2, #8
 1375 00a4 6349     		ldr	r1, .L109+8
 1376 00a6 0020     		movs	r0, #0
 1377              	.LVL217:
 1378 00a8 A047     		blx	r4
 1379              	.LVL218:
 1380              	.LBE25:
 369:Source\azure_iot_sdk\iothub_client\src/iothubtransport_amqp_connection.c ****             LogError("amqp_connection_create failed (malloc failed)");
 1381              		.loc 1 369 0 is_stmt 1 discriminator 4
 1382 00aa 2C00     		movs	r4, r5
 1383              	.LVL219:
 1384 00ac BBE0     		b	.L87
 1385              	.LVL220:
 1386              	.L90:
 371:Source\azure_iot_sdk\iothub_client\src/iothubtransport_amqp_connection.c ****         }
 372:Source\azure_iot_sdk\iothub_client\src/iothubtransport_amqp_connection.c ****         else
 373:Source\azure_iot_sdk\iothub_client\src/iothubtransport_amqp_connection.c ****         {
 374:Source\azure_iot_sdk\iothub_client\src/iothubtransport_amqp_connection.c ****             memset(instance, 0, sizeof(AMQP_CONNECTION_INSTANCE));
 1387              		.loc 1 374 0
 1388 00ae 3822     		movs	r2, #56
 1389 00b0 0021     		movs	r1, #0
 1390 00b2 FFF7FEFF 		bl	memset
ARM GAS  C:\Users\Phuong\AppData\Local\Temp\cc32RpHN.s 			page 33


 1391              	.LVL221:
 375:Source\azure_iot_sdk\iothub_client\src/iothubtransport_amqp_connection.c **** 
 376:Source\azure_iot_sdk\iothub_client\src/iothubtransport_amqp_connection.c ****             // Codes_SRS_IOTHUBTRANSPORT_AMQP_CONNECTION_09_005: [A copy of `config->iothub_host_fq
 377:Source\azure_iot_sdk\iothub_client\src/iothubtransport_amqp_connection.c ****             if ((instance->iothub_fqdn = STRING_construct(config->iothub_host_fqdn)) == NULL)
 1392              		.loc 1 377 0
 1393 00b6 2068     		ldr	r0, [r4]
 1394 00b8 FFF7FEFF 		bl	STRING_construct
 1395              	.LVL222:
 1396 00bc 2860     		str	r0, [r5]
 1397 00be 0028     		cmp	r0, #0
 1398 00c0 11D1     		bne	.L91
 1399              	.LVL223:
 1400              	.LBB26:
 378:Source\azure_iot_sdk\iothub_client\src/iothubtransport_amqp_connection.c ****             {
 379:Source\azure_iot_sdk\iothub_client\src/iothubtransport_amqp_connection.c ****                 // Codes_SRS_IOTHUBTRANSPORT_AMQP_CONNECTION_09_066: [If STRING_construct() fails, 
 380:Source\azure_iot_sdk\iothub_client\src/iothubtransport_amqp_connection.c ****                 result = NULL;
 381:Source\azure_iot_sdk\iothub_client\src/iothubtransport_amqp_connection.c ****                 LogError("amqp_connection_create failed (STRING_construct failed)");
 1401              		.loc 1 381 0
 1402 00c2 FFF7FEFF 		bl	xlogging_get_log_function
 1403              	.LVL224:
 1404 00c6 041E     		subs	r4, r0, #0
 1405              	.LVL225:
 1406 00c8 00D1     		bne	.LCB1465
 1407 00ca 92E0     		b	.L102	@long jump
 1408              	.LCB1465:
 1409              		.loc 1 381 0 is_stmt 0 discriminator 4
 1410 00cc 5D4B     		ldr	r3, .L109+24
 1411 00ce 0193     		str	r3, [sp, #4]
 1412 00d0 0123     		movs	r3, #1
 1413 00d2 0093     		str	r3, [sp]
 1414 00d4 7E23     		movs	r3, #126
 1415 00d6 FF33     		adds	r3, r3, #255
 1416 00d8 554A     		ldr	r2, .L109+4
 1417 00da 0832     		adds	r2, r2, #8
 1418 00dc 5549     		ldr	r1, .L109+8
 1419 00de 0020     		movs	r0, #0
 1420              	.LVL226:
 1421 00e0 A047     		blx	r4
 1422              	.LVL227:
 1423              	.LBE26:
 380:Source\azure_iot_sdk\iothub_client\src/iothubtransport_amqp_connection.c ****                 LogError("amqp_connection_create failed (STRING_construct failed)");
 1424              		.loc 1 380 0 is_stmt 1 discriminator 4
 1425 00e2 0024     		movs	r4, #0
 1426              	.LVL228:
 1427 00e4 92E0     		b	.L92
 1428              	.LVL229:
 1429              	.L91:
 382:Source\azure_iot_sdk\iothub_client\src/iothubtransport_amqp_connection.c ****             }
 383:Source\azure_iot_sdk\iothub_client\src/iothubtransport_amqp_connection.c ****             else
 384:Source\azure_iot_sdk\iothub_client\src/iothubtransport_amqp_connection.c ****             {
 385:Source\azure_iot_sdk\iothub_client\src/iothubtransport_amqp_connection.c ****                 // Codes_SRS_IOTHUBTRANSPORT_AMQP_CONNECTION_09_006: [`config->underlying_io_transp
 386:Source\azure_iot_sdk\iothub_client\src/iothubtransport_amqp_connection.c ****                 instance->underlying_io_transport = config->underlying_io_transport;
 1430              		.loc 1 386 0
 1431 00e6 6368     		ldr	r3, [r4, #4]
 1432 00e8 6B60     		str	r3, [r5, #4]
 387:Source\azure_iot_sdk\iothub_client\src/iothubtransport_amqp_connection.c ****                 // Codes_SRS_IOTHUBTRANSPORT_AMQP_CONNECTION_09_008: [`config->is_trace_on` shall b
 388:Source\azure_iot_sdk\iothub_client\src/iothubtransport_amqp_connection.c ****                 instance->is_trace_on = config->is_trace_on;
ARM GAS  C:\Users\Phuong\AppData\Local\Temp\cc32RpHN.s 			page 34


 1433              		.loc 1 388 0
 1434 00ea A37A     		ldrb	r3, [r4, #10]
 1435 00ec AB77     		strb	r3, [r5, #30]
 389:Source\azure_iot_sdk\iothub_client\src/iothubtransport_amqp_connection.c ****                 // Codes_SRS_IOTHUBTRANSPORT_AMQP_CONNECTION_09_060: [`config->on_state_changed_cal
 390:Source\azure_iot_sdk\iothub_client\src/iothubtransport_amqp_connection.c ****                 instance->on_state_changed_callback = config->on_state_changed_callback;
 1436              		.loc 1 390 0
 1437 00ee E368     		ldr	r3, [r4, #12]
 1438 00f0 2B62     		str	r3, [r5, #32]
 391:Source\azure_iot_sdk\iothub_client\src/iothubtransport_amqp_connection.c ****                 // Codes_SRS_IOTHUBTRANSPORT_AMQP_CONNECTION_09_061: [`config->on_state_changed_con
 392:Source\azure_iot_sdk\iothub_client\src/iothubtransport_amqp_connection.c ****                 instance->on_state_changed_context = config->on_state_changed_context;
 1439              		.loc 1 392 0
 1440 00f2 2369     		ldr	r3, [r4, #16]
 1441 00f4 6B62     		str	r3, [r5, #36]
 393:Source\azure_iot_sdk\iothub_client\src/iothubtransport_amqp_connection.c ****                 instance->has_sasl_mechanism = config->create_sasl_io;
 1442              		.loc 1 393 0
 1443 00f6 237A     		ldrb	r3, [r4, #8]
 1444 00f8 6B77     		strb	r3, [r5, #29]
 394:Source\azure_iot_sdk\iothub_client\src/iothubtransport_amqp_connection.c ****                 instance->has_cbs = config->create_cbs_connection;
 1445              		.loc 1 394 0
 1446 00fa 637A     		ldrb	r3, [r4, #9]
 1447 00fc 2B77     		strb	r3, [r5, #28]
 395:Source\azure_iot_sdk\iothub_client\src/iothubtransport_amqp_connection.c **** 
 396:Source\azure_iot_sdk\iothub_client\src/iothubtransport_amqp_connection.c ****                 instance->svc2cl_keep_alive_timeout_secs = (uint32_t)config->svc2cl_keep_alive_time
 1448              		.loc 1 396 0
 1449 00fe 6269     		ldr	r2, [r4, #20]
 1450 0100 AA62     		str	r2, [r5, #40]
 397:Source\azure_iot_sdk\iothub_client\src/iothubtransport_amqp_connection.c ****                 instance->cl2svc_keep_alive_send_ratio = (double)config->cl2svc_keep_alive_send_rat
 1451              		.loc 1 397 0
 1452 0102 A169     		ldr	r1, [r4, #24]
 1453 0104 E269     		ldr	r2, [r4, #28]
 1454 0106 2963     		str	r1, [r5, #48]
 1455 0108 6A63     		str	r2, [r5, #52]
 398:Source\azure_iot_sdk\iothub_client\src/iothubtransport_amqp_connection.c **** 
 399:Source\azure_iot_sdk\iothub_client\src/iothubtransport_amqp_connection.c ****                 instance->current_state = AMQP_CONNECTION_STATE_CLOSED;
 1456              		.loc 1 399 0
 1457 010a 0122     		movs	r2, #1
 1458 010c EA77     		strb	r2, [r5, #31]
 400:Source\azure_iot_sdk\iothub_client\src/iothubtransport_amqp_connection.c **** 
 401:Source\azure_iot_sdk\iothub_client\src/iothubtransport_amqp_connection.c ****                 if(config->create_cbs_connection)
 1459              		.loc 1 401 0
 1460 010e 002B     		cmp	r3, #0
 1461 0110 0ED0     		beq	.L93
 1462              	.LBB27:
 402:Source\azure_iot_sdk\iothub_client\src/iothubtransport_amqp_connection.c ****                 {
 403:Source\azure_iot_sdk\iothub_client\src/iothubtransport_amqp_connection.c ****                     LogError("PSOC6---amqp_connection_create_config_create_csb_connection_is_TRUE--
 1463              		.loc 1 403 0 discriminator 3
 1464 0112 FFF7FEFF 		bl	xlogging_get_log_function
 1465              	.LVL230:
 1466 0116 061E     		subs	r6, r0, #0
 1467              	.LVL231:
 1468 0118 0AD0     		beq	.L93
 1469              		.loc 1 403 0 is_stmt 0 discriminator 4
 1470 011a 4B4B     		ldr	r3, .L109+28
 1471 011c 0193     		str	r3, [sp, #4]
 1472 011e 0123     		movs	r3, #1
 1473 0120 0093     		str	r3, [sp]
 1474 0122 9423     		movs	r3, #148
ARM GAS  C:\Users\Phuong\AppData\Local\Temp\cc32RpHN.s 			page 35


 1475 0124 FF33     		adds	r3, r3, #255
 1476 0126 424A     		ldr	r2, .L109+4
 1477 0128 0832     		adds	r2, r2, #8
 1478 012a 4249     		ldr	r1, .L109+8
 1479 012c 0020     		movs	r0, #0
 1480              	.LVL232:
 1481 012e B047     		blx	r6
 1482              	.LVL233:
 1483              	.L93:
 1484              	.LBE27:
 404:Source\azure_iot_sdk\iothub_client\src/iothubtransport_amqp_connection.c ****                 }
 405:Source\azure_iot_sdk\iothub_client\src/iothubtransport_amqp_connection.c ****                 
 406:Source\azure_iot_sdk\iothub_client\src/iothubtransport_amqp_connection.c ****                 // Codes_SRS_IOTHUBTRANSPORT_AMQP_CONNECTION_09_011: [If `config->create_sasl_io` i
 407:Source\azure_iot_sdk\iothub_client\src/iothubtransport_amqp_connection.c ****                 if ((config->create_sasl_io || config->create_cbs_connection) && create_sasl_compon
 1485              		.loc 1 407 0 is_stmt 1
 1486 0130 237A     		ldrb	r3, [r4, #8]
 1487 0132 002B     		cmp	r3, #0
 1488 0134 02D1     		bne	.L94
 1489              		.loc 1 407 0 is_stmt 0 discriminator 2
 1490 0136 637A     		ldrb	r3, [r4, #9]
 1491 0138 002B     		cmp	r3, #0
 1492 013a 15D0     		beq	.L95
 1493              	.L94:
 1494              		.loc 1 407 0 discriminator 3
 1495 013c 2800     		movs	r0, r5
 1496 013e FFF7FEFF 		bl	create_sasl_components
 1497              	.LVL234:
 1498 0142 0028     		cmp	r0, #0
 1499 0144 10D0     		beq	.L95
 1500              	.LVL235:
 1501              	.LBB28:
 408:Source\azure_iot_sdk\iothub_client\src/iothubtransport_amqp_connection.c ****                 {
 409:Source\azure_iot_sdk\iothub_client\src/iothubtransport_amqp_connection.c ****                     result = NULL;
 410:Source\azure_iot_sdk\iothub_client\src/iothubtransport_amqp_connection.c ****                     LogError("PSOC6---amqp_connection_create failed (failed creating the SASL compo
 1502              		.loc 1 410 0 is_stmt 1
 1503 0146 FFF7FEFF 		bl	xlogging_get_log_function
 1504              	.LVL236:
 1505 014a 041E     		subs	r4, r0, #0
 1506              	.LVL237:
 1507 014c 53D0     		beq	.L103
 1508              		.loc 1 410 0 is_stmt 0 discriminator 4
 1509 014e 3F4B     		ldr	r3, .L109+32
 1510 0150 0193     		str	r3, [sp, #4]
 1511 0152 0123     		movs	r3, #1
 1512 0154 0093     		str	r3, [sp]
 1513 0156 9A33     		adds	r3, r3, #154
 1514 0158 FF33     		adds	r3, r3, #255
 1515 015a 354A     		ldr	r2, .L109+4
 1516 015c 0832     		adds	r2, r2, #8
 1517 015e 3549     		ldr	r1, .L109+8
 1518 0160 0020     		movs	r0, #0
 1519              	.LVL238:
 1520 0162 A047     		blx	r4
 1521              	.LVL239:
 1522              	.LBE28:
 409:Source\azure_iot_sdk\iothub_client\src/iothubtransport_amqp_connection.c ****                     LogError("PSOC6---amqp_connection_create failed (failed creating the SASL compo
 1523              		.loc 1 409 0 is_stmt 1 discriminator 4
ARM GAS  C:\Users\Phuong\AppData\Local\Temp\cc32RpHN.s 			page 36


 1524 0164 0024     		movs	r4, #0
 1525              	.LVL240:
 1526 0166 51E0     		b	.L92
 1527              	.LVL241:
 1528              	.L95:
 411:Source\azure_iot_sdk\iothub_client\src/iothubtransport_amqp_connection.c ****                 }
 412:Source\azure_iot_sdk\iothub_client\src/iothubtransport_amqp_connection.c ****                 else if (create_connection_handle(instance) != RESULT_OK)
 1529              		.loc 1 412 0
 1530 0168 2800     		movs	r0, r5
 1531 016a FFF7FEFF 		bl	create_connection_handle
 1532              	.LVL242:
 1533 016e 0028     		cmp	r0, #0
 1534 0170 10D0     		beq	.L96
 1535              	.LVL243:
 1536              	.LBB29:
 413:Source\azure_iot_sdk\iothub_client\src/iothubtransport_amqp_connection.c ****                 {
 414:Source\azure_iot_sdk\iothub_client\src/iothubtransport_amqp_connection.c ****                     result = NULL;
 415:Source\azure_iot_sdk\iothub_client\src/iothubtransport_amqp_connection.c ****                     LogError("amqp_connection_create failed (failed creating the AMQP connection)")
 1537              		.loc 1 415 0
 1538 0172 FFF7FEFF 		bl	xlogging_get_log_function
 1539              	.LVL244:
 1540 0176 041E     		subs	r4, r0, #0
 1541              	.LVL245:
 1542 0178 3FD0     		beq	.L104
 1543              		.loc 1 415 0 is_stmt 0 discriminator 4
 1544 017a 354B     		ldr	r3, .L109+36
 1545 017c 0193     		str	r3, [sp, #4]
 1546 017e 0123     		movs	r3, #1
 1547 0180 0093     		str	r3, [sp]
 1548 0182 A023     		movs	r3, #160
 1549 0184 FF33     		adds	r3, r3, #255
 1550 0186 2A4A     		ldr	r2, .L109+4
 1551 0188 0832     		adds	r2, r2, #8
 1552 018a 2A49     		ldr	r1, .L109+8
 1553 018c 0020     		movs	r0, #0
 1554              	.LVL246:
 1555 018e A047     		blx	r4
 1556              	.LVL247:
 1557              	.LBE29:
 414:Source\azure_iot_sdk\iothub_client\src/iothubtransport_amqp_connection.c ****                     LogError("amqp_connection_create failed (failed creating the AMQP connection)")
 1558              		.loc 1 414 0 is_stmt 1 discriminator 4
 1559 0190 0024     		movs	r4, #0
 1560              	.LVL248:
 1561 0192 3BE0     		b	.L92
 1562              	.LVL249:
 1563              	.L96:
 416:Source\azure_iot_sdk\iothub_client\src/iothubtransport_amqp_connection.c ****                 }
 417:Source\azure_iot_sdk\iothub_client\src/iothubtransport_amqp_connection.c ****                 else if (create_session_handle(instance) != RESULT_OK)
 1564              		.loc 1 417 0
 1565 0194 2800     		movs	r0, r5
 1566 0196 FFF7FEFF 		bl	create_session_handle
 1567              	.LVL250:
 1568 019a 0028     		cmp	r0, #0
 1569 019c 10D0     		beq	.L97
 1570              	.LVL251:
 1571              	.LBB30:
 418:Source\azure_iot_sdk\iothub_client\src/iothubtransport_amqp_connection.c ****                 {
ARM GAS  C:\Users\Phuong\AppData\Local\Temp\cc32RpHN.s 			page 37


 419:Source\azure_iot_sdk\iothub_client\src/iothubtransport_amqp_connection.c ****                     result = NULL;
 420:Source\azure_iot_sdk\iothub_client\src/iothubtransport_amqp_connection.c ****                     LogError("amqp_connection_create failed (failed creating the AMQP session)");
 1572              		.loc 1 420 0
 1573 019e FFF7FEFF 		bl	xlogging_get_log_function
 1574              	.LVL252:
 1575 01a2 041E     		subs	r4, r0, #0
 1576              	.LVL253:
 1577 01a4 2BD0     		beq	.L105
 1578              		.loc 1 420 0 is_stmt 0 discriminator 4
 1579 01a6 2B4B     		ldr	r3, .L109+40
 1580 01a8 0193     		str	r3, [sp, #4]
 1581 01aa 0123     		movs	r3, #1
 1582 01ac 0093     		str	r3, [sp]
 1583 01ae A433     		adds	r3, r3, #164
 1584 01b0 FF33     		adds	r3, r3, #255
 1585 01b2 1F4A     		ldr	r2, .L109+4
 1586 01b4 0832     		adds	r2, r2, #8
 1587 01b6 1F49     		ldr	r1, .L109+8
 1588 01b8 0020     		movs	r0, #0
 1589              	.LVL254:
 1590 01ba A047     		blx	r4
 1591              	.LVL255:
 1592              	.LBE30:
 419:Source\azure_iot_sdk\iothub_client\src/iothubtransport_amqp_connection.c ****                     LogError("amqp_connection_create failed (failed creating the AMQP session)");
 1593              		.loc 1 419 0 is_stmt 1 discriminator 4
 1594 01bc 0024     		movs	r4, #0
 1595              	.LVL256:
 1596 01be 25E0     		b	.L92
 1597              	.LVL257:
 1598              	.L97:
 421:Source\azure_iot_sdk\iothub_client\src/iothubtransport_amqp_connection.c ****                 }
 422:Source\azure_iot_sdk\iothub_client\src/iothubtransport_amqp_connection.c ****                 
 423:Source\azure_iot_sdk\iothub_client\src/iothubtransport_amqp_connection.c ****                 // Codes_SRS_IOTHUBTRANSPORT_AMQP_CONNECTION_09_028: [Only if `config->create_cbs_c
 424:Source\azure_iot_sdk\iothub_client\src/iothubtransport_amqp_connection.c ****                 else if (config->create_cbs_connection && create_cbs_handle(instance) != RESULT_OK)
 1599              		.loc 1 424 0
 1600 01c0 637A     		ldrb	r3, [r4, #9]
 1601 01c2 002B     		cmp	r3, #0
 1602 01c4 1DD0     		beq	.L106
 1603              		.loc 1 424 0 is_stmt 0 discriminator 1
 1604 01c6 2800     		movs	r0, r5
 1605 01c8 FFF7FEFF 		bl	create_cbs_handle
 1606              	.LVL258:
 1607 01cc 0028     		cmp	r0, #0
 1608 01ce 1AD0     		beq	.L107
 1609              	.LVL259:
 1610              	.LBB31:
 425:Source\azure_iot_sdk\iothub_client\src/iothubtransport_amqp_connection.c ****                 {
 426:Source\azure_iot_sdk\iothub_client\src/iothubtransport_amqp_connection.c ****                     result = NULL;
 427:Source\azure_iot_sdk\iothub_client\src/iothubtransport_amqp_connection.c ****                     LogError("PSOC6---amqp_connection_create failed (failed creating the CBS handle
 1611              		.loc 1 427 0 is_stmt 1
 1612 01d0 FFF7FEFF 		bl	xlogging_get_log_function
 1613              	.LVL260:
 1614 01d4 041E     		subs	r4, r0, #0
 1615              	.LVL261:
 1616 01d6 18D0     		beq	.L108
 1617              		.loc 1 427 0 is_stmt 0 discriminator 4
 1618 01d8 1F4B     		ldr	r3, .L109+44
ARM GAS  C:\Users\Phuong\AppData\Local\Temp\cc32RpHN.s 			page 38


 1619 01da 0193     		str	r3, [sp, #4]
 1620 01dc 0123     		movs	r3, #1
 1621 01de 0093     		str	r3, [sp]
 1622 01e0 AC23     		movs	r3, #172
 1623 01e2 FF33     		adds	r3, r3, #255
 1624 01e4 124A     		ldr	r2, .L109+4
 1625 01e6 0832     		adds	r2, r2, #8
 1626 01e8 1249     		ldr	r1, .L109+8
 1627 01ea 0020     		movs	r0, #0
 1628              	.LVL262:
 1629 01ec A047     		blx	r4
 1630              	.LVL263:
 1631              	.LBE31:
 426:Source\azure_iot_sdk\iothub_client\src/iothubtransport_amqp_connection.c ****                     LogError("PSOC6---amqp_connection_create failed (failed creating the CBS handle
 1632              		.loc 1 426 0 is_stmt 1 discriminator 4
 1633 01ee 0024     		movs	r4, #0
 1634              	.LVL264:
 1635 01f0 0CE0     		b	.L92
 1636              	.LVL265:
 1637              	.L102:
 380:Source\azure_iot_sdk\iothub_client\src/iothubtransport_amqp_connection.c ****                 LogError("amqp_connection_create failed (STRING_construct failed)");
 1638              		.loc 1 380 0
 1639 01f2 0024     		movs	r4, #0
 1640 01f4 0AE0     		b	.L92
 1641              	.LVL266:
 1642              	.L103:
 409:Source\azure_iot_sdk\iothub_client\src/iothubtransport_amqp_connection.c ****                     LogError("PSOC6---amqp_connection_create failed (failed creating the SASL compo
 1643              		.loc 1 409 0
 1644 01f6 0024     		movs	r4, #0
 1645 01f8 08E0     		b	.L92
 1646              	.LVL267:
 1647              	.L104:
 414:Source\azure_iot_sdk\iothub_client\src/iothubtransport_amqp_connection.c ****                     LogError("amqp_connection_create failed (failed creating the AMQP connection)")
 1648              		.loc 1 414 0
 1649 01fa 0024     		movs	r4, #0
 1650 01fc 06E0     		b	.L92
 1651              	.LVL268:
 1652              	.L105:
 419:Source\azure_iot_sdk\iothub_client\src/iothubtransport_amqp_connection.c ****                     LogError("amqp_connection_create failed (failed creating the AMQP session)");
 1653              		.loc 1 419 0
 1654 01fe 0024     		movs	r4, #0
 1655 0200 04E0     		b	.L92
 1656              	.LVL269:
 1657              	.L106:
 428:Source\azure_iot_sdk\iothub_client\src/iothubtransport_amqp_connection.c ****                 }
 429:Source\azure_iot_sdk\iothub_client\src/iothubtransport_amqp_connection.c ****                 else
 430:Source\azure_iot_sdk\iothub_client\src/iothubtransport_amqp_connection.c ****                 {
 431:Source\azure_iot_sdk\iothub_client\src/iothubtransport_amqp_connection.c ****                     // Codes_SRS_IOTHUBTRANSPORT_AMQP_CONNECTION_09_034: [If no failures occur, amq
 432:Source\azure_iot_sdk\iothub_client\src/iothubtransport_amqp_connection.c ****                     result = (AMQP_CONNECTION_HANDLE)instance;
 1658              		.loc 1 432 0
 1659 0202 2C00     		movs	r4, r5
 1660              	.LVL270:
 1661 0204 02E0     		b	.L92
 1662              	.LVL271:
 1663              	.L107:
 1664 0206 2C00     		movs	r4, r5
 1665              	.LVL272:
ARM GAS  C:\Users\Phuong\AppData\Local\Temp\cc32RpHN.s 			page 39


 1666 0208 00E0     		b	.L92
 1667              	.LVL273:
 1668              	.L108:
 426:Source\azure_iot_sdk\iothub_client\src/iothubtransport_amqp_connection.c ****                     LogError("PSOC6---amqp_connection_create failed (failed creating the CBS handle
 1669              		.loc 1 426 0
 1670 020a 0024     		movs	r4, #0
 1671              	.LVL274:
 1672              	.L92:
 433:Source\azure_iot_sdk\iothub_client\src/iothubtransport_amqp_connection.c ****                     
 434:Source\azure_iot_sdk\iothub_client\src/iothubtransport_amqp_connection.c ****                 }
 435:Source\azure_iot_sdk\iothub_client\src/iothubtransport_amqp_connection.c ****             }
 436:Source\azure_iot_sdk\iothub_client\src/iothubtransport_amqp_connection.c **** 
 437:Source\azure_iot_sdk\iothub_client\src/iothubtransport_amqp_connection.c ****             if (result == NULL)
 1673              		.loc 1 437 0
 1674 020c 002C     		cmp	r4, #0
 1675 020e 0AD1     		bne	.L87
 438:Source\azure_iot_sdk\iothub_client\src/iothubtransport_amqp_connection.c ****             {
 439:Source\azure_iot_sdk\iothub_client\src/iothubtransport_amqp_connection.c ****                 amqp_connection_destroy((AMQP_CONNECTION_HANDLE)instance);
 1676              		.loc 1 439 0
 1677 0210 2800     		movs	r0, r5
 1678 0212 FFF7FEFF 		bl	amqp_connection_destroy
 1679              	.LVL275:
 1680 0216 06E0     		b	.L87
 1681              	.LVL276:
 1682              	.L98:
 1683              	.LBE24:
 346:Source\azure_iot_sdk\iothub_client\src/iothubtransport_amqp_connection.c ****         LogError("amqp_connection_create failed (config is NULL)");
 1684              		.loc 1 346 0
 1685 0218 0024     		movs	r4, #0
 1686 021a 04E0     		b	.L87
 1687              	.LVL277:
 1688              	.L99:
 352:Source\azure_iot_sdk\iothub_client\src/iothubtransport_amqp_connection.c ****         LogError("amqp_connection_create failed (config->iothub_host_fqdn is NULL)");
 1689              		.loc 1 352 0
 1690 021c 0024     		movs	r4, #0
 1691 021e 02E0     		b	.L87
 1692              	.LVL278:
 1693              	.L100:
 358:Source\azure_iot_sdk\iothub_client\src/iothubtransport_amqp_connection.c ****         LogError("amqp_connection_create failed (config->underlying_io_transport is NULL)");
 1694              		.loc 1 358 0
 1695 0220 0024     		movs	r4, #0
 1696 0222 00E0     		b	.L87
 1697              	.LVL279:
 1698              	.L101:
 1699              	.LBB32:
 369:Source\azure_iot_sdk\iothub_client\src/iothubtransport_amqp_connection.c ****             LogError("amqp_connection_create failed (malloc failed)");
 1700              		.loc 1 369 0
 1701 0224 2C00     		movs	r4, r5
 1702              	.LVL280:
 1703              	.L87:
 1704              	.LBE32:
 440:Source\azure_iot_sdk\iothub_client\src/iothubtransport_amqp_connection.c ****             }
 441:Source\azure_iot_sdk\iothub_client\src/iothubtransport_amqp_connection.c ****         }
 442:Source\azure_iot_sdk\iothub_client\src/iothubtransport_amqp_connection.c ****     }
 443:Source\azure_iot_sdk\iothub_client\src/iothubtransport_amqp_connection.c **** 
 444:Source\azure_iot_sdk\iothub_client\src/iothubtransport_amqp_connection.c ****     return result;
 445:Source\azure_iot_sdk\iothub_client\src/iothubtransport_amqp_connection.c **** }
ARM GAS  C:\Users\Phuong\AppData\Local\Temp\cc32RpHN.s 			page 40


 1705              		.loc 1 445 0
 1706 0226 2000     		movs	r0, r4
 1707 0228 02B0     		add	sp, sp, #8
 1708              		@ sp needed
 1709              	.LVL281:
 1710 022a 70BD     		pop	{r4, r5, r6, pc}
 1711              	.L110:
 1712              		.align	2
 1713              	.L109:
 1714 022c A0030000 		.word	.LC52
 1715 0230 80000000 		.word	.LANCHOR2
 1716 0234 00000000 		.word	.LC1
 1717 0238 D0030000 		.word	.LC54
 1718 023c 14040000 		.word	.LC56
 1719 0240 5C040000 		.word	.LC58
 1720 0244 8C040000 		.word	.LC60
 1721 0248 C4040000 		.word	.LC62
 1722 024c 10050000 		.word	.LC64
 1723 0250 64050000 		.word	.LC66
 1724 0254 A8050000 		.word	.LC68
 1725 0258 EC050000 		.word	.LC70
 1726              		.cfi_endproc
 1727              	.LFE13:
 1728              		.size	amqp_connection_create, .-amqp_connection_create
 1729              		.section	.text.amqp_connection_do_work,"ax",%progbits
 1730              		.align	2
 1731              		.global	amqp_connection_do_work
 1732              		.code	16
 1733              		.thumb_func
 1734              		.type	amqp_connection_do_work, %function
 1735              	amqp_connection_do_work:
 1736              	.LFB14:
 446:Source\azure_iot_sdk\iothub_client\src/iothubtransport_amqp_connection.c **** 
 447:Source\azure_iot_sdk\iothub_client\src/iothubtransport_amqp_connection.c **** void amqp_connection_do_work(AMQP_CONNECTION_HANDLE conn_handle)
 448:Source\azure_iot_sdk\iothub_client\src/iothubtransport_amqp_connection.c **** {
 1737              		.loc 1 448 0
 1738              		.cfi_startproc
 1739              		@ args = 0, pretend = 0, frame = 0
 1740              		@ frame_needed = 0, uses_anonymous_args = 0
 1741              	.LVL282:
 1742 0000 10B5     		push	{r4, lr}
 1743              		.cfi_def_cfa_offset 8
 1744              		.cfi_offset 4, -8
 1745              		.cfi_offset 14, -4
 449:Source\azure_iot_sdk\iothub_client\src/iothubtransport_amqp_connection.c ****     // Codes_SRS_IOTHUBTRANSPORT_AMQP_CONNECTION_09_041: [If `conn_handle` is NULL, amqp_connection
 450:Source\azure_iot_sdk\iothub_client\src/iothubtransport_amqp_connection.c ****     if (conn_handle != NULL)
 1746              		.loc 1 450 0
 1747 0002 0028     		cmp	r0, #0
 1748 0004 02D0     		beq	.L111
 1749              	.LVL283:
 1750              	.LBB33:
 451:Source\azure_iot_sdk\iothub_client\src/iothubtransport_amqp_connection.c ****     {
 452:Source\azure_iot_sdk\iothub_client\src/iothubtransport_amqp_connection.c ****         AMQP_CONNECTION_INSTANCE* instance = (AMQP_CONNECTION_INSTANCE*)conn_handle;
 453:Source\azure_iot_sdk\iothub_client\src/iothubtransport_amqp_connection.c **** 
 454:Source\azure_iot_sdk\iothub_client\src/iothubtransport_amqp_connection.c ****         // Codes_SRS_IOTHUBTRANSPORT_AMQP_CONNECTION_09_042: [connection_dowork() shall be invoked 
 455:Source\azure_iot_sdk\iothub_client\src/iothubtransport_amqp_connection.c ****         connection_dowork(instance->connection_handle);
 1751              		.loc 1 455 0
ARM GAS  C:\Users\Phuong\AppData\Local\Temp\cc32RpHN.s 			page 41


 1752 0006 C068     		ldr	r0, [r0, #12]
 1753              	.LVL284:
 1754 0008 FFF7FEFF 		bl	connection_dowork
 1755              	.LVL285:
 1756              	.L111:
 1757              	.LBE33:
 456:Source\azure_iot_sdk\iothub_client\src/iothubtransport_amqp_connection.c ****     }
 457:Source\azure_iot_sdk\iothub_client\src/iothubtransport_amqp_connection.c **** }
 1758              		.loc 1 457 0
 1759              		@ sp needed
 1760 000c 10BD     		pop	{r4, pc}
 1761              		.cfi_endproc
 1762              	.LFE14:
 1763              		.size	amqp_connection_do_work, .-amqp_connection_do_work
 1764 000e C046     		.section	.text.amqp_connection_get_session_handle,"ax",%progbits
 1765              		.align	2
 1766              		.global	amqp_connection_get_session_handle
 1767              		.code	16
 1768              		.thumb_func
 1769              		.type	amqp_connection_get_session_handle, %function
 1770              	amqp_connection_get_session_handle:
 1771              	.LFB15:
 458:Source\azure_iot_sdk\iothub_client\src/iothubtransport_amqp_connection.c **** 
 459:Source\azure_iot_sdk\iothub_client\src/iothubtransport_amqp_connection.c **** int amqp_connection_get_session_handle(AMQP_CONNECTION_HANDLE conn_handle, SESSION_HANDLE* session_
 460:Source\azure_iot_sdk\iothub_client\src/iothubtransport_amqp_connection.c **** {
 1772              		.loc 1 460 0
 1773              		.cfi_startproc
 1774              		@ args = 0, pretend = 0, frame = 0
 1775              		@ frame_needed = 0, uses_anonymous_args = 0
 1776              	.LVL286:
 1777 0000 10B5     		push	{r4, lr}
 1778              		.cfi_def_cfa_offset 8
 1779              		.cfi_offset 4, -8
 1780              		.cfi_offset 14, -4
 1781 0002 82B0     		sub	sp, sp, #8
 1782              		.cfi_def_cfa_offset 16
 461:Source\azure_iot_sdk\iothub_client\src/iothubtransport_amqp_connection.c ****     int result;
 462:Source\azure_iot_sdk\iothub_client\src/iothubtransport_amqp_connection.c **** 
 463:Source\azure_iot_sdk\iothub_client\src/iothubtransport_amqp_connection.c ****     // Codes_SRS_IOTHUBTRANSPORT_AMQP_CONNECTION_09_043: [If `conn_handle` is NULL, amqp_connection
 464:Source\azure_iot_sdk\iothub_client\src/iothubtransport_amqp_connection.c ****     if (conn_handle == NULL)
 1783              		.loc 1 464 0
 1784 0004 0028     		cmp	r0, #0
 1785 0006 11D1     		bne	.L114
 1786              	.LVL287:
 1787              	.LBB34:
 465:Source\azure_iot_sdk\iothub_client\src/iothubtransport_amqp_connection.c ****     {
 466:Source\azure_iot_sdk\iothub_client\src/iothubtransport_amqp_connection.c ****         result = __FAILURE__;
 467:Source\azure_iot_sdk\iothub_client\src/iothubtransport_amqp_connection.c ****         LogError("amqp_connection_get_session_handle failed (conn_handle is NULL)");
 1788              		.loc 1 467 0
 1789 0008 FFF7FEFF 		bl	xlogging_get_log_function
 1790              	.LVL288:
 1791 000c 041E     		subs	r4, r0, #0
 1792              	.LVL289:
 1793 000e 25D0     		beq	.L117
 1794              		.loc 1 467 0 is_stmt 0 discriminator 4
 1795 0010 164B     		ldr	r3, .L119
 1796 0012 0193     		str	r3, [sp, #4]
ARM GAS  C:\Users\Phuong\AppData\Local\Temp\cc32RpHN.s 			page 42


 1797 0014 0123     		movs	r3, #1
 1798 0016 0093     		str	r3, [sp]
 1799 0018 D423     		movs	r3, #212
 1800 001a FF33     		adds	r3, r3, #255
 1801 001c 144A     		ldr	r2, .L119+4
 1802 001e 2032     		adds	r2, r2, #32
 1803 0020 1449     		ldr	r1, .L119+8
 1804 0022 0020     		movs	r0, #0
 1805              	.LVL290:
 1806 0024 A047     		blx	r4
 1807              	.LVL291:
 1808              	.LBE34:
 466:Source\azure_iot_sdk\iothub_client\src/iothubtransport_amqp_connection.c ****         LogError("amqp_connection_get_session_handle failed (conn_handle is NULL)");
 1809              		.loc 1 466 0 is_stmt 1 discriminator 4
 1810 0026 E920     		movs	r0, #233
 1811 0028 4000     		lsls	r0, r0, #1
 1812 002a 1CE0     		b	.L115
 1813              	.LVL292:
 1814              	.L114:
 468:Source\azure_iot_sdk\iothub_client\src/iothubtransport_amqp_connection.c ****     }
 469:Source\azure_iot_sdk\iothub_client\src/iothubtransport_amqp_connection.c ****     // Codes_SRS_IOTHUBTRANSPORT_AMQP_CONNECTION_09_044: [If `session_handle` is NULL, amqp_connect
 470:Source\azure_iot_sdk\iothub_client\src/iothubtransport_amqp_connection.c ****     else if (session_handle == NULL)
 1815              		.loc 1 470 0
 1816 002c 0029     		cmp	r1, #0
 1817 002e 11D1     		bne	.L116
 1818              	.LVL293:
 1819              	.LBB35:
 471:Source\azure_iot_sdk\iothub_client\src/iothubtransport_amqp_connection.c ****     {
 472:Source\azure_iot_sdk\iothub_client\src/iothubtransport_amqp_connection.c ****         result = __FAILURE__;
 473:Source\azure_iot_sdk\iothub_client\src/iothubtransport_amqp_connection.c ****         LogError("amqp_connection_get_session_handle failed (session_handle is NULL)");
 1820              		.loc 1 473 0
 1821 0030 FFF7FEFF 		bl	xlogging_get_log_function
 1822              	.LVL294:
 1823 0034 041E     		subs	r4, r0, #0
 1824              	.LVL295:
 1825 0036 14D0     		beq	.L118
 1826              		.loc 1 473 0 is_stmt 0 discriminator 4
 1827 0038 0F4B     		ldr	r3, .L119+12
 1828 003a 0193     		str	r3, [sp, #4]
 1829 003c 0123     		movs	r3, #1
 1830 003e 0093     		str	r3, [sp]
 1831 0040 DA23     		movs	r3, #218
 1832 0042 FF33     		adds	r3, r3, #255
 1833 0044 0A4A     		ldr	r2, .L119+4
 1834 0046 2032     		adds	r2, r2, #32
 1835 0048 0A49     		ldr	r1, .L119+8
 1836 004a 0020     		movs	r0, #0
 1837              	.LVL296:
 1838 004c A047     		blx	r4
 1839              	.LVL297:
 1840              	.LBE35:
 472:Source\azure_iot_sdk\iothub_client\src/iothubtransport_amqp_connection.c ****         LogError("amqp_connection_get_session_handle failed (session_handle is NULL)");
 1841              		.loc 1 472 0 is_stmt 1 discriminator 4
 1842 004e EC20     		movs	r0, #236
 1843 0050 4000     		lsls	r0, r0, #1
 1844 0052 08E0     		b	.L115
 1845              	.LVL298:
ARM GAS  C:\Users\Phuong\AppData\Local\Temp\cc32RpHN.s 			page 43


 1846              	.L116:
 1847              	.LBB36:
 474:Source\azure_iot_sdk\iothub_client\src/iothubtransport_amqp_connection.c ****     }
 475:Source\azure_iot_sdk\iothub_client\src/iothubtransport_amqp_connection.c ****     else
 476:Source\azure_iot_sdk\iothub_client\src/iothubtransport_amqp_connection.c ****     {
 477:Source\azure_iot_sdk\iothub_client\src/iothubtransport_amqp_connection.c ****         AMQP_CONNECTION_INSTANCE* instance = (AMQP_CONNECTION_INSTANCE*)conn_handle;
 478:Source\azure_iot_sdk\iothub_client\src/iothubtransport_amqp_connection.c **** 
 479:Source\azure_iot_sdk\iothub_client\src/iothubtransport_amqp_connection.c ****         // Codes_SRS_IOTHUBTRANSPORT_AMQP_CONNECTION_09_045: [`session_handle` shall be set to poin
 480:Source\azure_iot_sdk\iothub_client\src/iothubtransport_amqp_connection.c ****         *session_handle = instance->session_handle;
 1848              		.loc 1 480 0
 1849 0054 0369     		ldr	r3, [r0, #16]
 1850 0056 0B60     		str	r3, [r1]
 1851              	.LVL299:
 481:Source\azure_iot_sdk\iothub_client\src/iothubtransport_amqp_connection.c **** 
 482:Source\azure_iot_sdk\iothub_client\src/iothubtransport_amqp_connection.c ****         // Codes_SRS_IOTHUBTRANSPORT_AMQP_CONNECTION_09_046: [amqp_connection_get_session_handle() 
 483:Source\azure_iot_sdk\iothub_client\src/iothubtransport_amqp_connection.c ****         result = RESULT_OK;
 1852              		.loc 1 483 0
 1853 0058 0020     		movs	r0, #0
 1854              	.LVL300:
 1855 005a 04E0     		b	.L115
 1856              	.LVL301:
 1857              	.L117:
 1858              	.LBE36:
 466:Source\azure_iot_sdk\iothub_client\src/iothubtransport_amqp_connection.c ****         LogError("amqp_connection_get_session_handle failed (conn_handle is NULL)");
 1859              		.loc 1 466 0
 1860 005c E920     		movs	r0, #233
 1861              	.LVL302:
 1862 005e 4000     		lsls	r0, r0, #1
 1863 0060 01E0     		b	.L115
 1864              	.LVL303:
 1865              	.L118:
 472:Source\azure_iot_sdk\iothub_client\src/iothubtransport_amqp_connection.c ****         LogError("amqp_connection_get_session_handle failed (session_handle is NULL)");
 1866              		.loc 1 472 0
 1867 0062 EC20     		movs	r0, #236
 1868              	.LVL304:
 1869 0064 4000     		lsls	r0, r0, #1
 1870              	.LVL305:
 1871              	.L115:
 484:Source\azure_iot_sdk\iothub_client\src/iothubtransport_amqp_connection.c ****     }
 485:Source\azure_iot_sdk\iothub_client\src/iothubtransport_amqp_connection.c **** 
 486:Source\azure_iot_sdk\iothub_client\src/iothubtransport_amqp_connection.c ****     return result;
 487:Source\azure_iot_sdk\iothub_client\src/iothubtransport_amqp_connection.c **** }
 1872              		.loc 1 487 0
 1873 0066 02B0     		add	sp, sp, #8
 1874              		@ sp needed
 1875 0068 10BD     		pop	{r4, pc}
 1876              	.L120:
 1877 006a C046     		.align	2
 1878              	.L119:
 1879 006c 3C060000 		.word	.LC74
 1880 0070 80000000 		.word	.LANCHOR2
 1881 0074 00000000 		.word	.LC1
 1882 0078 7C060000 		.word	.LC76
 1883              		.cfi_endproc
 1884              	.LFE15:
 1885              		.size	amqp_connection_get_session_handle, .-amqp_connection_get_session_handle
 1886              		.section	.text.amqp_connection_get_cbs_handle,"ax",%progbits
ARM GAS  C:\Users\Phuong\AppData\Local\Temp\cc32RpHN.s 			page 44


 1887              		.align	2
 1888              		.global	amqp_connection_get_cbs_handle
 1889              		.code	16
 1890              		.thumb_func
 1891              		.type	amqp_connection_get_cbs_handle, %function
 1892              	amqp_connection_get_cbs_handle:
 1893              	.LFB16:
 488:Source\azure_iot_sdk\iothub_client\src/iothubtransport_amqp_connection.c **** 
 489:Source\azure_iot_sdk\iothub_client\src/iothubtransport_amqp_connection.c **** int amqp_connection_get_cbs_handle(AMQP_CONNECTION_HANDLE conn_handle, CBS_HANDLE* cbs_handle)
 490:Source\azure_iot_sdk\iothub_client\src/iothubtransport_amqp_connection.c **** {
 1894              		.loc 1 490 0
 1895              		.cfi_startproc
 1896              		@ args = 0, pretend = 0, frame = 0
 1897              		@ frame_needed = 0, uses_anonymous_args = 0
 1898              	.LVL306:
 1899 0000 10B5     		push	{r4, lr}
 1900              		.cfi_def_cfa_offset 8
 1901              		.cfi_offset 4, -8
 1902              		.cfi_offset 14, -4
 1903 0002 82B0     		sub	sp, sp, #8
 1904              		.cfi_def_cfa_offset 16
 491:Source\azure_iot_sdk\iothub_client\src/iothubtransport_amqp_connection.c ****     int result;
 492:Source\azure_iot_sdk\iothub_client\src/iothubtransport_amqp_connection.c **** 
 493:Source\azure_iot_sdk\iothub_client\src/iothubtransport_amqp_connection.c ****     // Codes_SRS_IOTHUBTRANSPORT_AMQP_CONNECTION_09_047: [If `conn_handle` is NULL, amqp_connection
 494:Source\azure_iot_sdk\iothub_client\src/iothubtransport_amqp_connection.c ****     if (conn_handle == NULL)
 1905              		.loc 1 494 0
 1906 0004 0028     		cmp	r0, #0
 1907 0006 11D1     		bne	.L122
 1908              	.LVL307:
 1909              	.LBB37:
 495:Source\azure_iot_sdk\iothub_client\src/iothubtransport_amqp_connection.c ****     {
 496:Source\azure_iot_sdk\iothub_client\src/iothubtransport_amqp_connection.c ****         result = __FAILURE__;
 497:Source\azure_iot_sdk\iothub_client\src/iothubtransport_amqp_connection.c ****         LogError("amqp_connection_get_cbs_handle failed (conn_handle is NULL)");
 1910              		.loc 1 497 0
 1911 0008 FFF7FEFF 		bl	xlogging_get_log_function
 1912              	.LVL308:
 1913 000c 041E     		subs	r4, r0, #0
 1914              	.LVL309:
 1915 000e 38D0     		beq	.L126
 1916              		.loc 1 497 0 is_stmt 0 discriminator 4
 1917 0010 214B     		ldr	r3, .L129
 1918 0012 0193     		str	r3, [sp, #4]
 1919 0014 0123     		movs	r3, #1
 1920 0016 0093     		str	r3, [sp]
 1921 0018 F223     		movs	r3, #242
 1922 001a FF33     		adds	r3, r3, #255
 1923 001c 1F4A     		ldr	r2, .L129+4
 1924 001e 4432     		adds	r2, r2, #68
 1925 0020 1F49     		ldr	r1, .L129+8
 1926 0022 0020     		movs	r0, #0
 1927              	.LVL310:
 1928 0024 A047     		blx	r4
 1929              	.LVL311:
 1930              	.LBE37:
 496:Source\azure_iot_sdk\iothub_client\src/iothubtransport_amqp_connection.c ****         LogError("amqp_connection_get_cbs_handle failed (conn_handle is NULL)");
 1931              		.loc 1 496 0 is_stmt 1 discriminator 4
 1932 0026 F820     		movs	r0, #248
ARM GAS  C:\Users\Phuong\AppData\Local\Temp\cc32RpHN.s 			page 45


 1933 0028 4000     		lsls	r0, r0, #1
 1934 002a 32E0     		b	.L123
 1935              	.LVL312:
 1936              	.L122:
 498:Source\azure_iot_sdk\iothub_client\src/iothubtransport_amqp_connection.c ****     }
 499:Source\azure_iot_sdk\iothub_client\src/iothubtransport_amqp_connection.c ****     // Codes_SRS_IOTHUBTRANSPORT_AMQP_CONNECTION_09_048: [If `cbs_handle` is NULL, amqp_connection_
 500:Source\azure_iot_sdk\iothub_client\src/iothubtransport_amqp_connection.c ****     else if (cbs_handle == NULL)
 1937              		.loc 1 500 0
 1938 002c 0029     		cmp	r1, #0
 1939 002e 11D1     		bne	.L124
 1940              	.LVL313:
 1941              	.LBB38:
 501:Source\azure_iot_sdk\iothub_client\src/iothubtransport_amqp_connection.c ****     {
 502:Source\azure_iot_sdk\iothub_client\src/iothubtransport_amqp_connection.c ****         result = __FAILURE__;
 503:Source\azure_iot_sdk\iothub_client\src/iothubtransport_amqp_connection.c ****         LogError("amqp_connection_get_cbs_handle failed (parameter cbs_handle is NULL)");
 1942              		.loc 1 503 0
 1943 0030 FFF7FEFF 		bl	xlogging_get_log_function
 1944              	.LVL314:
 1945 0034 041E     		subs	r4, r0, #0
 1946              	.LVL315:
 1947 0036 27D0     		beq	.L127
 1948              		.loc 1 503 0 is_stmt 0 discriminator 4
 1949 0038 1A4B     		ldr	r3, .L129+12
 1950 003a 0193     		str	r3, [sp, #4]
 1951 003c 0123     		movs	r3, #1
 1952 003e 0093     		str	r3, [sp]
 1953 0040 F823     		movs	r3, #248
 1954 0042 FF33     		adds	r3, r3, #255
 1955 0044 154A     		ldr	r2, .L129+4
 1956 0046 4432     		adds	r2, r2, #68
 1957 0048 1549     		ldr	r1, .L129+8
 1958 004a 0020     		movs	r0, #0
 1959              	.LVL316:
 1960 004c A047     		blx	r4
 1961              	.LVL317:
 1962              	.LBE38:
 502:Source\azure_iot_sdk\iothub_client\src/iothubtransport_amqp_connection.c ****         LogError("amqp_connection_get_cbs_handle failed (parameter cbs_handle is NULL)");
 1963              		.loc 1 502 0 is_stmt 1 discriminator 4
 1964 004e FB20     		movs	r0, #251
 1965 0050 4000     		lsls	r0, r0, #1
 1966 0052 1EE0     		b	.L123
 1967              	.LVL318:
 1968              	.L124:
 1969              	.LBB39:
 504:Source\azure_iot_sdk\iothub_client\src/iothubtransport_amqp_connection.c ****     }
 505:Source\azure_iot_sdk\iothub_client\src/iothubtransport_amqp_connection.c ****     else
 506:Source\azure_iot_sdk\iothub_client\src/iothubtransport_amqp_connection.c ****     {
 507:Source\azure_iot_sdk\iothub_client\src/iothubtransport_amqp_connection.c ****         AMQP_CONNECTION_INSTANCE* instance = (AMQP_CONNECTION_INSTANCE*)conn_handle;
 508:Source\azure_iot_sdk\iothub_client\src/iothubtransport_amqp_connection.c **** 
 509:Source\azure_iot_sdk\iothub_client\src/iothubtransport_amqp_connection.c ****         // Codes_SRS_IOTHUBTRANSPORT_AMQP_CONNECTION_09_049: [If `instance->cbs_handle` is NULL, am
 510:Source\azure_iot_sdk\iothub_client\src/iothubtransport_amqp_connection.c ****         if (instance->cbs_handle == NULL)
 1970              		.loc 1 510 0
 1971 0054 8368     		ldr	r3, [r0, #8]
 1972 0056 002B     		cmp	r3, #0
 1973 0058 10D1     		bne	.L125
 1974              	.LVL319:
 1975              	.LBB40:
ARM GAS  C:\Users\Phuong\AppData\Local\Temp\cc32RpHN.s 			page 46


 511:Source\azure_iot_sdk\iothub_client\src/iothubtransport_amqp_connection.c ****         {
 512:Source\azure_iot_sdk\iothub_client\src/iothubtransport_amqp_connection.c ****             result = __FAILURE__;
 513:Source\azure_iot_sdk\iothub_client\src/iothubtransport_amqp_connection.c ****             LogError("amqp_connection_get_cbs_handle failed (there is not a cbs_handle to be return
 1976              		.loc 1 513 0
 1977 005a FFF7FEFF 		bl	xlogging_get_log_function
 1978              	.LVL320:
 1979 005e 041E     		subs	r4, r0, #0
 1980              	.LVL321:
 1981 0060 15D0     		beq	.L128
 1982              		.loc 1 513 0 is_stmt 0 discriminator 4
 1983 0062 114B     		ldr	r3, .L129+16
 1984 0064 0193     		str	r3, [sp, #4]
 1985 0066 0123     		movs	r3, #1
 1986 0068 0093     		str	r3, [sp]
 1987 006a 104B     		ldr	r3, .L129+20
 1988 006c 0B4A     		ldr	r2, .L129+4
 1989 006e 4432     		adds	r2, r2, #68
 1990 0070 0B49     		ldr	r1, .L129+8
 1991 0072 0020     		movs	r0, #0
 1992              	.LVL322:
 1993 0074 A047     		blx	r4
 1994              	.LVL323:
 1995              	.LBE40:
 512:Source\azure_iot_sdk\iothub_client\src/iothubtransport_amqp_connection.c ****             LogError("amqp_connection_get_cbs_handle failed (there is not a cbs_handle to be return
 1996              		.loc 1 512 0 is_stmt 1 discriminator 4
 1997 0076 8020     		movs	r0, #128
 1998 0078 8000     		lsls	r0, r0, #2
 1999 007a 0AE0     		b	.L123
 2000              	.LVL324:
 2001              	.L125:
 514:Source\azure_iot_sdk\iothub_client\src/iothubtransport_amqp_connection.c ****         }
 515:Source\azure_iot_sdk\iothub_client\src/iothubtransport_amqp_connection.c ****         else
 516:Source\azure_iot_sdk\iothub_client\src/iothubtransport_amqp_connection.c ****         {
 517:Source\azure_iot_sdk\iothub_client\src/iothubtransport_amqp_connection.c ****             // Codes_SRS_IOTHUBTRANSPORT_AMQP_CONNECTION_09_050: [`cbs_handle` shall be set to poin
 518:Source\azure_iot_sdk\iothub_client\src/iothubtransport_amqp_connection.c ****             *cbs_handle = instance->cbs_handle;
 2002              		.loc 1 518 0
 2003 007c 0B60     		str	r3, [r1]
 2004              	.LVL325:
 519:Source\azure_iot_sdk\iothub_client\src/iothubtransport_amqp_connection.c **** 
 520:Source\azure_iot_sdk\iothub_client\src/iothubtransport_amqp_connection.c ****             // Codes_SRS_IOTHUBTRANSPORT_AMQP_CONNECTION_09_051: [amqp_connection_get_cbs_handle() 
 521:Source\azure_iot_sdk\iothub_client\src/iothubtransport_amqp_connection.c ****             result = RESULT_OK;
 2005              		.loc 1 521 0
 2006 007e 0020     		movs	r0, #0
 2007              	.LVL326:
 2008 0080 07E0     		b	.L123
 2009              	.LVL327:
 2010              	.L126:
 2011              	.LBE39:
 496:Source\azure_iot_sdk\iothub_client\src/iothubtransport_amqp_connection.c ****         LogError("amqp_connection_get_cbs_handle failed (conn_handle is NULL)");
 2012              		.loc 1 496 0
 2013 0082 F820     		movs	r0, #248
 2014              	.LVL328:
 2015 0084 4000     		lsls	r0, r0, #1
 2016 0086 04E0     		b	.L123
 2017              	.LVL329:
 2018              	.L127:
 502:Source\azure_iot_sdk\iothub_client\src/iothubtransport_amqp_connection.c ****         LogError("amqp_connection_get_cbs_handle failed (parameter cbs_handle is NULL)");
ARM GAS  C:\Users\Phuong\AppData\Local\Temp\cc32RpHN.s 			page 47


 2019              		.loc 1 502 0
 2020 0088 FB20     		movs	r0, #251
 2021              	.LVL330:
 2022 008a 4000     		lsls	r0, r0, #1
 2023 008c 01E0     		b	.L123
 2024              	.LVL331:
 2025              	.L128:
 2026              	.LBB41:
 512:Source\azure_iot_sdk\iothub_client\src/iothubtransport_amqp_connection.c ****             LogError("amqp_connection_get_cbs_handle failed (there is not a cbs_handle to be return
 2027              		.loc 1 512 0
 2028 008e 8020     		movs	r0, #128
 2029              	.LVL332:
 2030 0090 8000     		lsls	r0, r0, #2
 2031              	.LVL333:
 2032              	.L123:
 2033              	.LBE41:
 522:Source\azure_iot_sdk\iothub_client\src/iothubtransport_amqp_connection.c ****         }
 523:Source\azure_iot_sdk\iothub_client\src/iothubtransport_amqp_connection.c ****     }
 524:Source\azure_iot_sdk\iothub_client\src/iothubtransport_amqp_connection.c **** 
 525:Source\azure_iot_sdk\iothub_client\src/iothubtransport_amqp_connection.c ****     return result;
 526:Source\azure_iot_sdk\iothub_client\src/iothubtransport_amqp_connection.c **** }
 2034              		.loc 1 526 0
 2035 0092 02B0     		add	sp, sp, #8
 2036              		@ sp needed
 2037 0094 10BD     		pop	{r4, pc}
 2038              	.L130:
 2039 0096 C046     		.align	2
 2040              	.L129:
 2041 0098 C0060000 		.word	.LC80
 2042 009c 80000000 		.word	.LANCHOR2
 2043 00a0 00000000 		.word	.LC1
 2044 00a4 FC060000 		.word	.LC82
 2045 00a8 44070000 		.word	.LC84
 2046 00ac 01020000 		.word	513
 2047              		.cfi_endproc
 2048              	.LFE16:
 2049              		.size	amqp_connection_get_cbs_handle, .-amqp_connection_get_cbs_handle
 2050              		.section	.text.amqp_connection_set_logging,"ax",%progbits
 2051              		.align	2
 2052              		.global	amqp_connection_set_logging
 2053              		.code	16
 2054              		.thumb_func
 2055              		.type	amqp_connection_set_logging, %function
 2056              	amqp_connection_set_logging:
 2057              	.LFB17:
 527:Source\azure_iot_sdk\iothub_client\src/iothubtransport_amqp_connection.c **** 
 528:Source\azure_iot_sdk\iothub_client\src/iothubtransport_amqp_connection.c **** int amqp_connection_set_logging(AMQP_CONNECTION_HANDLE conn_handle, bool is_trace_on)
 529:Source\azure_iot_sdk\iothub_client\src/iothubtransport_amqp_connection.c **** {
 2058              		.loc 1 529 0
 2059              		.cfi_startproc
 2060              		@ args = 0, pretend = 0, frame = 0
 2061              		@ frame_needed = 0, uses_anonymous_args = 0
 2062              	.LVL334:
 2063 0000 10B5     		push	{r4, lr}
 2064              		.cfi_def_cfa_offset 8
 2065              		.cfi_offset 4, -8
 2066              		.cfi_offset 14, -4
ARM GAS  C:\Users\Phuong\AppData\Local\Temp\cc32RpHN.s 			page 48


 2067 0002 82B0     		sub	sp, sp, #8
 2068              		.cfi_def_cfa_offset 16
 2069 0004 041E     		subs	r4, r0, #0
 530:Source\azure_iot_sdk\iothub_client\src/iothubtransport_amqp_connection.c ****     int result;
 531:Source\azure_iot_sdk\iothub_client\src/iothubtransport_amqp_connection.c **** 
 532:Source\azure_iot_sdk\iothub_client\src/iothubtransport_amqp_connection.c ****     // Codes_SRS_IOTHUBTRANSPORT_AMQP_CONNECTION_09_052: [If `conn_handle` is NULL, amqp_connection
 533:Source\azure_iot_sdk\iothub_client\src/iothubtransport_amqp_connection.c ****     if (conn_handle == NULL)
 2070              		.loc 1 533 0
 2071 0006 10D1     		bne	.L132
 2072              	.LVL335:
 2073              	.LBB42:
 534:Source\azure_iot_sdk\iothub_client\src/iothubtransport_amqp_connection.c ****     {
 535:Source\azure_iot_sdk\iothub_client\src/iothubtransport_amqp_connection.c ****         result = __FAILURE__;
 536:Source\azure_iot_sdk\iothub_client\src/iothubtransport_amqp_connection.c ****         LogError("amqp_connection_set_logging failed (conn_handle is NULL)");
 2074              		.loc 1 536 0
 2075 0008 FFF7FEFF 		bl	xlogging_get_log_function
 2076              	.LVL336:
 2077 000c 041E     		subs	r4, r0, #0
 2078              	.LVL337:
 2079 000e 2DD0     		beq	.L135
 2080              		.loc 1 536 0 is_stmt 0 discriminator 4
 2081 0010 194B     		ldr	r3, .L137
 2082 0012 0193     		str	r3, [sp, #4]
 2083 0014 0123     		movs	r3, #1
 2084 0016 0093     		str	r3, [sp]
 2085 0018 8623     		movs	r3, #134
 2086 001a 9B00     		lsls	r3, r3, #2
 2087 001c 174A     		ldr	r2, .L137+4
 2088 001e 6432     		adds	r2, r2, #100
 2089 0020 1749     		ldr	r1, .L137+8
 2090 0022 0020     		movs	r0, #0
 2091              	.LVL338:
 2092 0024 A047     		blx	r4
 2093              	.LVL339:
 2094              	.LBE42:
 535:Source\azure_iot_sdk\iothub_client\src/iothubtransport_amqp_connection.c ****         LogError("amqp_connection_set_logging failed (conn_handle is NULL)");
 2095              		.loc 1 535 0 is_stmt 1 discriminator 4
 2096 0026 1748     		ldr	r0, .L137+12
 2097 0028 23E0     		b	.L133
 2098              	.LVL340:
 2099              	.L132:
 2100              	.LBB43:
 537:Source\azure_iot_sdk\iothub_client\src/iothubtransport_amqp_connection.c ****     }
 538:Source\azure_iot_sdk\iothub_client\src/iothubtransport_amqp_connection.c ****     else
 539:Source\azure_iot_sdk\iothub_client\src/iothubtransport_amqp_connection.c ****     {
 540:Source\azure_iot_sdk\iothub_client\src/iothubtransport_amqp_connection.c ****         AMQP_CONNECTION_INSTANCE* instance = (AMQP_CONNECTION_INSTANCE*)conn_handle;
 541:Source\azure_iot_sdk\iothub_client\src/iothubtransport_amqp_connection.c **** 
 542:Source\azure_iot_sdk\iothub_client\src/iothubtransport_amqp_connection.c ****         // Codes_SRS_IOTHUBTRANSPORT_AMQP_CONNECTION_09_053: [`instance->is_trace_on` shall be set 
 543:Source\azure_iot_sdk\iothub_client\src/iothubtransport_amqp_connection.c ****         instance->is_trace_on = is_trace_on;
 2101              		.loc 1 543 0
 2102 002a 8177     		strb	r1, [r0, #30]
 544:Source\azure_iot_sdk\iothub_client\src/iothubtransport_amqp_connection.c **** 
 545:Source\azure_iot_sdk\iothub_client\src/iothubtransport_amqp_connection.c ****         // Codes_SRS_IOTHUBTRANSPORT_AMQP_CONNECTION_09_054: [Tracing on `instance->sasl_io` shall 
 546:Source\azure_iot_sdk\iothub_client\src/iothubtransport_amqp_connection.c ****         if (instance->sasl_io != NULL &&
 2103              		.loc 1 546 0
 2104 002c 4069     		ldr	r0, [r0, #20]
 2105              	.LVL341:
ARM GAS  C:\Users\Phuong\AppData\Local\Temp\cc32RpHN.s 			page 49


 2106 002e 0028     		cmp	r0, #0
 2107 0030 16D0     		beq	.L134
 547:Source\azure_iot_sdk\iothub_client\src/iothubtransport_amqp_connection.c ****             xio_setoption(instance->sasl_io, SASL_IO_OPTION_LOG_TRACE, (const void*)&instance->is_t
 2108              		.loc 1 547 0 discriminator 1
 2109 0032 2200     		movs	r2, r4
 2110 0034 1E32     		adds	r2, r2, #30
 2111 0036 1449     		ldr	r1, .L137+16
 2112              	.LVL342:
 2113 0038 FFF7FEFF 		bl	xio_setoption
 2114              	.LVL343:
 546:Source\azure_iot_sdk\iothub_client\src/iothubtransport_amqp_connection.c ****             xio_setoption(instance->sasl_io, SASL_IO_OPTION_LOG_TRACE, (const void*)&instance->is_t
 2115              		.loc 1 546 0 discriminator 1
 2116 003c 0028     		cmp	r0, #0
 2117 003e 0FD0     		beq	.L134
 2118              	.LVL344:
 2119              	.LBB44:
 548:Source\azure_iot_sdk\iothub_client\src/iothubtransport_amqp_connection.c ****         {
 549:Source\azure_iot_sdk\iothub_client\src/iothubtransport_amqp_connection.c ****             // Codes_SRS_IOTHUBTRANSPORT_AMQP_CONNECTION_09_072: [If xio_setoption() fails, amqp_co
 550:Source\azure_iot_sdk\iothub_client\src/iothubtransport_amqp_connection.c ****             result = __FAILURE__;
 551:Source\azure_iot_sdk\iothub_client\src/iothubtransport_amqp_connection.c ****             LogError("amqp_connection_set_logging failed (xio_setoption() failed)");
 2120              		.loc 1 551 0
 2121 0040 FFF7FEFF 		bl	xlogging_get_log_function
 2122              	.LVL345:
 2123 0044 041E     		subs	r4, r0, #0
 2124              	.LVL346:
 2125 0046 13D0     		beq	.L136
 2126              		.loc 1 551 0 is_stmt 0 discriminator 4
 2127 0048 104B     		ldr	r3, .L137+20
 2128 004a 0193     		str	r3, [sp, #4]
 2129 004c 0123     		movs	r3, #1
 2130 004e 0093     		str	r3, [sp]
 2131 0050 0F4B     		ldr	r3, .L137+24
 2132 0052 0A4A     		ldr	r2, .L137+4
 2133 0054 6432     		adds	r2, r2, #100
 2134 0056 0A49     		ldr	r1, .L137+8
 2135 0058 0020     		movs	r0, #0
 2136              	.LVL347:
 2137 005a A047     		blx	r4
 2138              	.LVL348:
 2139              	.LBE44:
 550:Source\azure_iot_sdk\iothub_client\src/iothubtransport_amqp_connection.c ****             LogError("amqp_connection_set_logging failed (xio_setoption() failed)");
 2140              		.loc 1 550 0 is_stmt 1 discriminator 4
 2141 005c 0D48     		ldr	r0, .L137+28
 2142 005e 08E0     		b	.L133
 2143              	.LVL349:
 2144              	.L134:
 552:Source\azure_iot_sdk\iothub_client\src/iothubtransport_amqp_connection.c ****         }
 553:Source\azure_iot_sdk\iothub_client\src/iothubtransport_amqp_connection.c ****         else
 554:Source\azure_iot_sdk\iothub_client\src/iothubtransport_amqp_connection.c ****         {
 555:Source\azure_iot_sdk\iothub_client\src/iothubtransport_amqp_connection.c ****             // Codes_SRS_IOTHUBTRANSPORT_AMQP_CONNECTION_09_055: [Tracing on `instance->connection_
 556:Source\azure_iot_sdk\iothub_client\src/iothubtransport_amqp_connection.c ****             connection_set_trace(instance->connection_handle, instance->is_trace_on);
 2145              		.loc 1 556 0
 2146 0060 A17F     		ldrb	r1, [r4, #30]
 2147 0062 E068     		ldr	r0, [r4, #12]
 2148 0064 FFF7FEFF 		bl	connection_set_trace
 2149              	.LVL350:
 557:Source\azure_iot_sdk\iothub_client\src/iothubtransport_amqp_connection.c **** 
ARM GAS  C:\Users\Phuong\AppData\Local\Temp\cc32RpHN.s 			page 50


 558:Source\azure_iot_sdk\iothub_client\src/iothubtransport_amqp_connection.c ****             // Codes_SRS_IOTHUBTRANSPORT_AMQP_CONNECTION_09_056: [amqp_connection_set_logging() sha
 559:Source\azure_iot_sdk\iothub_client\src/iothubtransport_amqp_connection.c ****             result = RESULT_OK;
 2150              		.loc 1 559 0
 2151 0068 0020     		movs	r0, #0
 2152 006a 02E0     		b	.L133
 2153              	.LVL351:
 2154              	.L135:
 2155              	.LBE43:
 535:Source\azure_iot_sdk\iothub_client\src/iothubtransport_amqp_connection.c ****         LogError("amqp_connection_set_logging failed (conn_handle is NULL)");
 2156              		.loc 1 535 0
 2157 006c 0548     		ldr	r0, .L137+12
 2158              	.LVL352:
 2159 006e 00E0     		b	.L133
 2160              	.LVL353:
 2161              	.L136:
 2162              	.LBB45:
 550:Source\azure_iot_sdk\iothub_client\src/iothubtransport_amqp_connection.c ****             LogError("amqp_connection_set_logging failed (xio_setoption() failed)");
 2163              		.loc 1 550 0
 2164 0070 0848     		ldr	r0, .L137+28
 2165              	.LVL354:
 2166              	.L133:
 2167              	.LBE45:
 560:Source\azure_iot_sdk\iothub_client\src/iothubtransport_amqp_connection.c ****         }
 561:Source\azure_iot_sdk\iothub_client\src/iothubtransport_amqp_connection.c ****     }
 562:Source\azure_iot_sdk\iothub_client\src/iothubtransport_amqp_connection.c **** 
 563:Source\azure_iot_sdk\iothub_client\src/iothubtransport_amqp_connection.c ****     return result;
 564:Source\azure_iot_sdk\iothub_client\src/iothubtransport_amqp_connection.c **** }
 2168              		.loc 1 564 0
 2169 0072 02B0     		add	sp, sp, #8
 2170              		@ sp needed
 2171 0074 10BD     		pop	{r4, pc}
 2172              	.L138:
 2173 0076 C046     		.align	2
 2174              	.L137:
 2175 0078 98070000 		.word	.LC88
 2176 007c 80000000 		.word	.LANCHOR2
 2177 0080 00000000 		.word	.LC1
 2178 0084 17020000 		.word	535
 2179 0088 F8000000 		.word	.LC15
 2180 008c D4070000 		.word	.LC91
 2181 0090 27020000 		.word	551
 2182 0094 26020000 		.word	550
 2183              		.cfi_endproc
 2184              	.LFE17:
 2185              		.size	amqp_connection_set_logging, .-amqp_connection_set_logging
 2186              		.global	AMQP_CONNECTION_STATEStringStorage
 2187              		.section	.rodata
 2188              		.align	2
 2189              		.set	.LANCHOR0,. + 0
 2190              		.set	.LANCHOR2,. + 128
 2191              		.type	__func__.7277, %object
 2192              		.size	__func__.7277, 13
 2193              	__func__.7277:
 2194 0000 6F6E5F63 		.ascii	"on_cbs_error\000"
 2194      62735F65 
 2194      72726F72 
 2194      00
ARM GAS  C:\Users\Phuong\AppData\Local\Temp\cc32RpHN.s 			page 51


 2195 000d 000000   		.space	3
 2196              		.type	__func__.7270, %object
 2197              		.size	__func__.7270, 21
 2198              	__func__.7270:
 2199 0010 6F6E5F63 		.ascii	"on_cbs_open_complete\000"
 2199      62735F6F 
 2199      70656E5F 
 2199      636F6D70 
 2199      6C657465 
 2200 0025 000000   		.space	3
 2201              		.type	__func__.7241, %object
 2202              		.size	__func__.7241, 23
 2203              	__func__.7241:
 2204 0028 63726561 		.ascii	"create_sasl_components\000"
 2204      74655F73 
 2204      61736C5F 
 2204      636F6D70 
 2204      6F6E656E 
 2205 003f 00       		.space	1
 2206              		.type	__func__.7287, %object
 2207              		.size	__func__.7287, 25
 2208              	__func__.7287:
 2209 0040 63726561 		.ascii	"create_connection_handle\000"
 2209      74655F63 
 2209      6F6E6E65 
 2209      6374696F 
 2209      6E5F6861 
 2210 0059 000000   		.space	3
 2211              		.type	__func__.7307, %object
 2212              		.size	__func__.7307, 22
 2213              	__func__.7307:
 2214 005c 63726561 		.ascii	"create_session_handle\000"
 2214      74655F73 
 2214      65737369 
 2214      6F6E5F68 
 2214      616E646C 
 2215 0072 0000     		.space	2
 2216              		.type	__func__.7321, %object
 2217              		.size	__func__.7321, 18
 2218              	__func__.7321:
 2219 0074 63726561 		.ascii	"create_cbs_handle\000"
 2219      74655F63 
 2219      62735F68 
 2219      616E646C 
 2219      6500
 2220 0086 0000     		.space	2
 2221              		.type	__func__.7336, %object
 2222              		.size	__func__.7336, 23
 2223              	__func__.7336:
 2224 0088 616D7170 		.ascii	"amqp_connection_create\000"
 2224      5F636F6E 
 2224      6E656374 
 2224      696F6E5F 
 2224      63726561 
 2225 009f 00       		.space	1
 2226              		.type	__func__.7377, %object
 2227              		.size	__func__.7377, 35
ARM GAS  C:\Users\Phuong\AppData\Local\Temp\cc32RpHN.s 			page 52


 2228              	__func__.7377:
 2229 00a0 616D7170 		.ascii	"amqp_connection_get_session_handle\000"
 2229      5F636F6E 
 2229      6E656374 
 2229      696F6E5F 
 2229      6765745F 
 2230 00c3 00       		.space	1
 2231              		.type	__func__.7390, %object
 2232              		.size	__func__.7390, 31
 2233              	__func__.7390:
 2234 00c4 616D7170 		.ascii	"amqp_connection_get_cbs_handle\000"
 2234      5F636F6E 
 2234      6E656374 
 2234      696F6E5F 
 2234      6765745F 
 2235 00e3 00       		.space	1
 2236              		.type	__func__.7406, %object
 2237              		.size	__func__.7406, 28
 2238              	__func__.7406:
 2239 00e4 616D7170 		.ascii	"amqp_connection_set_logging\000"
 2239      5F636F6E 
 2239      6E656374 
 2239      696F6E5F 
 2239      7365745F 
 2240              		.data
 2241              		.align	2
 2242              		.set	.LANCHOR1,. + 0
 2243              		.type	AMQP_CONNECTION_STATEStringStorage, %object
 2244              		.size	AMQP_CONNECTION_STATEStringStorage, 12
 2245              	AMQP_CONNECTION_STATEStringStorage:
 2246 0000 10080000 		.word	.LC93
 2247 0004 30080000 		.word	.LC94
 2248 0008 50080000 		.word	.LC95
 2249              		.section	.rodata.str1.4,"aMS",%progbits,1
 2250              		.align	2
 2251              	.LC1:
 2252 0000 536F7572 		.ascii	"Source\\azure_iot_sdk\\iothub_client\\src\\iothubtr"
 2252      63655C61 
 2252      7A757265 
 2252      5F696F74 
 2252      5F73646B 
 2253 002f 616E7370 		.ascii	"ansport_amqp_connection.c\000"
 2253      6F72745F 
 2253      616D7170 
 2253      5F636F6E 
 2253      6E656374 
 2254 0049 000000   		.space	3
 2255              	.LC3:
 2256 004c 43425320 		.ascii	"CBS Error occured\000"
 2256      4572726F 
 2256      72206F63 
 2256      63757265 
 2256      6400
 2257 005e 0000     		.space	2
 2258              	.LC7:
 2259 0060 50534F43 		.ascii	"PSOC6---CBS open failed---PSOC6\000"
 2259      362D2D2D 
ARM GAS  C:\Users\Phuong\AppData\Local\Temp\cc32RpHN.s 			page 53


 2259      43425320 
 2259      6F70656E 
 2259      20666169 
 2260              	.LC11:
 2261 0080 4661696C 		.ascii	"Failed creating the SASL mechanism (saslmechanism_c"
 2261      65642063 
 2261      72656174 
 2261      696E6720 
 2261      74686520 
 2262 00b3 72656174 		.ascii	"reate failed)\000"
 2262      65206661 
 2262      696C6564 
 2262      2900
 2263 00c1 000000   		.space	3
 2264              	.LC13:
 2265 00c4 4661696C 		.ascii	"Failed creating the SASL I/O (xio_create failed)\000"
 2265      65642063 
 2265      72656174 
 2265      696E6720 
 2265      74686520 
 2266 00f5 000000   		.space	3
 2267              	.LC15:
 2268 00f8 6C6F6774 		.ascii	"logtrace\000"
 2268      72616365 
 2268      00
 2269 0101 000000   		.space	3
 2270              	.LC17:
 2271 0104 4661696C 		.ascii	"Failed setting the SASL I/O logging trace option (x"
 2271      65642073 
 2271      65747469 
 2271      6E672074 
 2271      68652053 
 2272 0137 696F5F73 		.ascii	"io_setoption failed)\000"
 2272      65746F70 
 2272      74696F6E 
 2272      20666169 
 2272      6C656429 
 2273              	.LC21:
 2274 014c 4661696C 		.ascii	"Failed creating the AMQP connection (failed creatin"
 2274      65642063 
 2274      72656174 
 2274      696E6720 
 2274      74686520 
 2275 017f 6720756E 		.ascii	"g unique ID container)\000"
 2275      69717565 
 2275      20494420 
 2275      636F6E74 
 2275      61696E65 
 2276 0196 0000     		.space	2
 2277              	.LC23:
 2278 0198 4661696C 		.ascii	"Failed creating the AMQP connection (UniqueId_Gener"
 2278      65642063 
 2278      72656174 
 2278      696E6720 
 2278      74686520 
 2279 01cb 61746520 		.ascii	"ate failed)\000"
 2279      6661696C 
ARM GAS  C:\Users\Phuong\AppData\Local\Temp\cc32RpHN.s 			page 54


 2279      65642900 
 2280 01d7 00       		.space	1
 2281              	.LC27:
 2282 01d8 4661696C 		.ascii	"Failed creating the AMQP connection (connection_cre"
 2282      65642063 
 2282      72656174 
 2282      696E6720 
 2282      74686520 
 2283 020b 61746532 		.ascii	"ate2 failed)\000"
 2283      20666169 
 2283      6C656429 
 2283      00
 2284              	.LC29:
 2285 0218 4661696C 		.ascii	"Failed creating the AMQP connection (connection_set"
 2285      65642063 
 2285      72656174 
 2285      696E6720 
 2285      74686520 
 2286 024b 5F69646C 		.ascii	"_idle_timeout failed)\000"
 2286      655F7469 
 2286      6D656F75 
 2286      74206661 
 2286      696C6564 
 2287 0261 000000   		.space	3
 2288              	.LC31:
 2289 0264 4661696C 		.ascii	"Failed creating the AMQP connection (connection_set"
 2289      65642063 
 2289      72656174 
 2289      696E6720 
 2289      74686520 
 2290 0297 5F72656D 		.ascii	"_remote_idle_timeout_empty_frame_send_ratio)\000"
 2290      6F74655F 
 2290      69646C65 
 2290      5F74696D 
 2290      656F7574 
 2291              	.LC36:
 2292 02c4 4661696C 		.ascii	"Failed to set the AMQP session incoming window size"
 2292      65642074 
 2292      6F207365 
 2292      74207468 
 2292      6520414D 
 2293 02f7 2E00     		.ascii	".\000"
 2294 02f9 000000   		.space	3
 2295              	.LC38:
 2296 02fc 4661696C 		.ascii	"Failed to set the AMQP session outgoing window size"
 2296      65642074 
 2296      6F207365 
 2296      74207468 
 2296      6520414D 
 2297 032f 2E00     		.ascii	".\000"
 2298 0331 000000   		.space	3
 2299              	.LC42:
 2300 0334 50534F43 		.ascii	"PSOC6---Failed to create the CBS connection---PSOC6"
 2300      362D2D2D 
 2300      4661696C 
 2300      65642074 
 2300      6F206372 
ARM GAS  C:\Users\Phuong\AppData\Local\Temp\cc32RpHN.s 			page 55


 2301 0367 00       		.ascii	"\000"
 2302              	.LC46:
 2303 0368 50534F43 		.ascii	"PSOC6---Failed to open the connection with CBS---PS"
 2303      362D2D2D 
 2303      4661696C 
 2303      65642074 
 2303      6F206F70 
 2304 039b 4F433600 		.ascii	"OC6\000"
 2305 039f 00       		.space	1
 2306              	.LC52:
 2307 03a0 616D7170 		.ascii	"amqp_connection_create failed (config is NULL)\000"
 2307      5F636F6E 
 2307      6E656374 
 2307      696F6E5F 
 2307      63726561 
 2308 03cf 00       		.space	1
 2309              	.LC54:
 2310 03d0 616D7170 		.ascii	"amqp_connection_create failed (config->iothub_host_"
 2310      5F636F6E 
 2310      6E656374 
 2310      696F6E5F 
 2310      63726561 
 2311 0403 6671646E 		.ascii	"fqdn is NULL)\000"
 2311      20697320 
 2311      4E554C4C 
 2311      2900
 2312 0411 000000   		.space	3
 2313              	.LC56:
 2314 0414 616D7170 		.ascii	"amqp_connection_create failed (config->underlying_i"
 2314      5F636F6E 
 2314      6E656374 
 2314      696F6E5F 
 2314      63726561 
 2315 0447 6F5F7472 		.ascii	"o_transport is NULL)\000"
 2315      616E7370 
 2315      6F727420 
 2315      6973204E 
 2315      554C4C29 
 2316              	.LC58:
 2317 045c 616D7170 		.ascii	"amqp_connection_create failed (malloc failed)\000"
 2317      5F636F6E 
 2317      6E656374 
 2317      696F6E5F 
 2317      63726561 
 2318 048a 0000     		.space	2
 2319              	.LC60:
 2320 048c 616D7170 		.ascii	"amqp_connection_create failed (STRING_construct fai"
 2320      5F636F6E 
 2320      6E656374 
 2320      696F6E5F 
 2320      63726561 
 2321 04bf 6C656429 		.ascii	"led)\000"
 2321      00
 2322              	.LC62:
 2323 04c4 50534F43 		.ascii	"PSOC6---amqp_connection_create_config_create_csb_co"
 2323      362D2D2D 
 2323      616D7170 
ARM GAS  C:\Users\Phuong\AppData\Local\Temp\cc32RpHN.s 			page 56


 2323      5F636F6E 
 2323      6E656374 
 2324 04f7 6E6E6563 		.ascii	"nnection_is_TRUE---PSOC6\000"
 2324      74696F6E 
 2324      5F69735F 
 2324      54525545 
 2324      2D2D2D50 
 2325              	.LC64:
 2326 0510 50534F43 		.ascii	"PSOC6---amqp_connection_create failed (failed creat"
 2326      362D2D2D 
 2326      616D7170 
 2326      5F636F6E 
 2326      6E656374 
 2327 0543 696E6720 		.ascii	"ing the SASL components)---PSOC6\000"
 2327      74686520 
 2327      5341534C 
 2327      20636F6D 
 2327      706F6E65 
 2328              	.LC66:
 2329 0564 616D7170 		.ascii	"amqp_connection_create failed (failed creating the "
 2329      5F636F6E 
 2329      6E656374 
 2329      696F6E5F 
 2329      63726561 
 2330 0597 414D5150 		.ascii	"AMQP connection)\000"
 2330      20636F6E 
 2330      6E656374 
 2330      696F6E29 
 2330      00
 2331              	.LC68:
 2332 05a8 616D7170 		.ascii	"amqp_connection_create failed (failed creating the "
 2332      5F636F6E 
 2332      6E656374 
 2332      696F6E5F 
 2332      63726561 
 2333 05db 414D5150 		.ascii	"AMQP session)\000"
 2333      20736573 
 2333      73696F6E 
 2333      2900
 2334 05e9 000000   		.space	3
 2335              	.LC70:
 2336 05ec 50534F43 		.ascii	"PSOC6---amqp_connection_create failed (failed creat"
 2336      362D2D2D 
 2336      616D7170 
 2336      5F636F6E 
 2336      6E656374 
 2337 061f 696E6720 		.ascii	"ing the CBS handle)---PSOC6\000"
 2337      74686520 
 2337      43425320 
 2337      68616E64 
 2337      6C65292D 
 2338 063b 00       		.space	1
 2339              	.LC74:
 2340 063c 616D7170 		.ascii	"amqp_connection_get_session_handle failed (conn_han"
 2340      5F636F6E 
 2340      6E656374 
 2340      696F6E5F 
ARM GAS  C:\Users\Phuong\AppData\Local\Temp\cc32RpHN.s 			page 57


 2340      6765745F 
 2341 066f 646C6520 		.ascii	"dle is NULL)\000"
 2341      6973204E 
 2341      554C4C29 
 2341      00
 2342              	.LC76:
 2343 067c 616D7170 		.ascii	"amqp_connection_get_session_handle failed (session_"
 2343      5F636F6E 
 2343      6E656374 
 2343      696F6E5F 
 2343      6765745F 
 2344 06af 68616E64 		.ascii	"handle is NULL)\000"
 2344      6C652069 
 2344      73204E55 
 2344      4C4C2900 
 2345 06bf 00       		.space	1
 2346              	.LC80:
 2347 06c0 616D7170 		.ascii	"amqp_connection_get_cbs_handle failed (conn_handle "
 2347      5F636F6E 
 2347      6E656374 
 2347      696F6E5F 
 2347      6765745F 
 2348 06f3 6973204E 		.ascii	"is NULL)\000"
 2348      554C4C29 
 2348      00
 2349              	.LC82:
 2350 06fc 616D7170 		.ascii	"amqp_connection_get_cbs_handle failed (parameter cb"
 2350      5F636F6E 
 2350      6E656374 
 2350      696F6E5F 
 2350      6765745F 
 2351 072f 735F6861 		.ascii	"s_handle is NULL)\000"
 2351      6E646C65 
 2351      20697320 
 2351      4E554C4C 
 2351      2900
 2352 0741 000000   		.space	3
 2353              	.LC84:
 2354 0744 616D7170 		.ascii	"amqp_connection_get_cbs_handle failed (there is not"
 2354      5F636F6E 
 2354      6E656374 
 2354      696F6E5F 
 2354      6765745F 
 2355 0777 20612063 		.ascii	" a cbs_handle to be returned)\000"
 2355      62735F68 
 2355      616E646C 
 2355      6520746F 
 2355      20626520 
 2356 0795 000000   		.space	3
 2357              	.LC88:
 2358 0798 616D7170 		.ascii	"amqp_connection_set_logging failed (conn_handle is "
 2358      5F636F6E 
 2358      6E656374 
 2358      696F6E5F 
 2358      7365745F 
 2359 07cb 4E554C4C 		.ascii	"NULL)\000"
 2359      2900
ARM GAS  C:\Users\Phuong\AppData\Local\Temp\cc32RpHN.s 			page 58


 2360 07d1 000000   		.space	3
 2361              	.LC91:
 2362 07d4 616D7170 		.ascii	"amqp_connection_set_logging failed (xio_setoption()"
 2362      5F636F6E 
 2362      6E656374 
 2362      696F6E5F 
 2362      7365745F 
 2363 0807 20666169 		.ascii	" failed)\000"
 2363      6C656429 
 2363      00
 2364              	.LC93:
 2365 0810 414D5150 		.ascii	"AMQP_CONNECTION_STATE_OPENED\000"
 2365      5F434F4E 
 2365      4E454354 
 2365      494F4E5F 
 2365      53544154 
 2366 082d 000000   		.space	3
 2367              	.LC94:
 2368 0830 414D5150 		.ascii	"AMQP_CONNECTION_STATE_CLOSED\000"
 2368      5F434F4E 
 2368      4E454354 
 2368      494F4E5F 
 2368      53544154 
 2369 084d 000000   		.space	3
 2370              	.LC95:
 2371 0850 414D5150 		.ascii	"AMQP_CONNECTION_STATE_ERROR\000"
 2371      5F434F4E 
 2371      4E454354 
 2371      494F4E5F 
 2371      53544154 
 2372              		.text
 2373              	.Letext0:
 2374              		.file 2 "c:\\program files (x86)\\cypress\\psoc creator\\4.2\\psoc creator\\import\\gnu\\arm\\5.4.
 2375              		.file 3 "c:\\program files (x86)\\cypress\\psoc creator\\4.2\\psoc creator\\import\\gnu\\arm\\5.4.
 2376              		.file 4 ".\\Source\\azure_iot_sdk\\c-utility\\inc/azure_c_shared_utility/xio.h"
 2377              		.file 5 "c:\\program files (x86)\\cypress\\psoc creator\\4.2\\psoc creator\\import\\gnu\\arm\\5.4.
 2378              		.file 6 ".\\Source\\azure_iot_sdk\\uamqp\\inc/azure_uamqp_c/connection.h"
 2379              		.file 7 ".\\Source\\azure_iot_sdk\\uamqp\\inc/azure_uamqp_c/session.h"
 2380              		.file 8 ".\\Source\\azure_iot_sdk\\uamqp\\inc/azure_uamqp_c/cbs.h"
 2381              		.file 9 ".\\Source\\azure_iot_sdk\\iothub_client\\inc/internal/iothubtransport_amqp_connection.h"
 2382              		.file 10 ".\\Source\\azure_iot_sdk\\c-utility\\inc/azure_c_shared_utility/strings_types.h"
 2383              		.file 11 ".\\Source\\azure_iot_sdk\\c-utility\\inc/azure_c_shared_utility/uniqueid.h"
 2384              		.file 12 ".\\Source\\azure_iot_sdk\\uamqp\\inc/azure_uamqp_c/sasl_mechanism.h"
 2385              		.file 13 ".\\Source\\azure_iot_sdk\\uamqp\\inc/azure_uamqp_c/saslclientio.h"
 2386              		.file 14 ".\\Source\\azure_iot_sdk\\c-utility\\inc/azure_c_shared_utility/xlogging.h"
 2387              		.file 15 ".\\Source\\azure_iot_sdk\\uamqp\\inc/azure_uamqp_c/sasl_mssbcbs.h"
 2388              		.file 16 "c:\\program files (x86)\\cypress\\psoc creator\\4.2\\psoc creator\\import\\gnu\\arm\\5.4
 2389              		.file 17 ".\\Source\\azure_iot_sdk\\c-utility\\inc/azure_c_shared_utility/strings.h"
 2390              		.file 18 "c:\\program files (x86)\\cypress\\psoc creator\\4.2\\psoc creator\\import\\gnu\\arm\\5.4
 2391              		.section	.debug_info,"",%progbits
 2392              	.Ldebug_info0:
 2393 0000 731A0000 		.4byte	0x1a73
 2394 0004 0400     		.2byte	0x4
 2395 0006 00000000 		.4byte	.Ldebug_abbrev0
 2396 000a 04       		.byte	0x4
 2397 000b 01       		.uleb128 0x1
 2398 000c 84020000 		.4byte	.LASF155
ARM GAS  C:\Users\Phuong\AppData\Local\Temp\cc32RpHN.s 			page 59


 2399 0010 0C       		.byte	0xc
 2400 0011 DE0A0000 		.4byte	.LASF156
 2401 0015 00040000 		.4byte	.LASF157
 2402 0019 48000000 		.4byte	.Ldebug_ranges0+0x48
 2403 001d 00000000 		.4byte	0
 2404 0021 00000000 		.4byte	.Ldebug_line0
 2405 0025 02       		.uleb128 0x2
 2406 0026 D9040000 		.4byte	.LASF8
 2407 002a 02       		.byte	0x2
 2408 002b D8       		.byte	0xd8
 2409 002c 30000000 		.4byte	0x30
 2410 0030 03       		.uleb128 0x3
 2411 0031 04       		.byte	0x4
 2412 0032 07       		.byte	0x7
 2413 0033 A8000000 		.4byte	.LASF0
 2414 0037 04       		.uleb128 0x4
 2415 0038 04       		.byte	0x4
 2416 0039 05       		.byte	0x5
 2417 003a 696E7400 		.ascii	"int\000"
 2418 003e 03       		.uleb128 0x3
 2419 003f 08       		.byte	0x8
 2420 0040 05       		.byte	0x5
 2421 0041 1F060000 		.4byte	.LASF1
 2422 0045 03       		.uleb128 0x3
 2423 0046 08       		.byte	0x8
 2424 0047 04       		.byte	0x4
 2425 0048 09080000 		.4byte	.LASF2
 2426 004c 03       		.uleb128 0x3
 2427 004d 01       		.byte	0x1
 2428 004e 06       		.byte	0x6
 2429 004f FC0B0000 		.4byte	.LASF3
 2430 0053 03       		.uleb128 0x3
 2431 0054 01       		.byte	0x1
 2432 0055 08       		.byte	0x8
 2433 0056 5B0A0000 		.4byte	.LASF4
 2434 005a 03       		.uleb128 0x3
 2435 005b 02       		.byte	0x2
 2436 005c 05       		.byte	0x5
 2437 005d 68080000 		.4byte	.LASF5
 2438 0061 03       		.uleb128 0x3
 2439 0062 02       		.byte	0x2
 2440 0063 07       		.byte	0x7
 2441 0064 080C0000 		.4byte	.LASF6
 2442 0068 03       		.uleb128 0x3
 2443 0069 04       		.byte	0x4
 2444 006a 05       		.byte	0x5
 2445 006b 72080000 		.4byte	.LASF7
 2446 006f 02       		.uleb128 0x2
 2447 0070 880A0000 		.4byte	.LASF9
 2448 0074 03       		.byte	0x3
 2449 0075 41       		.byte	0x41
 2450 0076 7A000000 		.4byte	0x7a
 2451 007a 03       		.uleb128 0x3
 2452 007b 04       		.byte	0x4
 2453 007c 07       		.byte	0x7
 2454 007d C0090000 		.4byte	.LASF10
 2455 0081 03       		.uleb128 0x3
ARM GAS  C:\Users\Phuong\AppData\Local\Temp\cc32RpHN.s 			page 60


 2456 0082 08       		.byte	0x8
 2457 0083 07       		.byte	0x7
 2458 0084 56030000 		.4byte	.LASF11
 2459 0088 03       		.uleb128 0x3
 2460 0089 04       		.byte	0x4
 2461 008a 07       		.byte	0x7
 2462 008b B7090000 		.4byte	.LASF12
 2463 008f 05       		.uleb128 0x5
 2464 0090 04       		.byte	0x4
 2465 0091 06       		.uleb128 0x6
 2466 0092 04       		.byte	0x4
 2467 0093 97000000 		.4byte	0x97
 2468 0097 03       		.uleb128 0x3
 2469 0098 01       		.byte	0x1
 2470 0099 08       		.byte	0x8
 2471 009a 53050000 		.4byte	.LASF13
 2472 009e 06       		.uleb128 0x6
 2473 009f 04       		.byte	0x4
 2474 00a0 A4000000 		.4byte	0xa4
 2475 00a4 07       		.uleb128 0x7
 2476 00a5 97000000 		.4byte	0x97
 2477 00a9 06       		.uleb128 0x6
 2478 00aa 04       		.byte	0x4
 2479 00ab AF000000 		.4byte	0xaf
 2480 00af 08       		.uleb128 0x8
 2481 00b0 02       		.uleb128 0x2
 2482 00b1 72090000 		.4byte	.LASF14
 2483 00b5 04       		.byte	0x4
 2484 00b6 13       		.byte	0x13
 2485 00b7 BB000000 		.4byte	0xbb
 2486 00bb 06       		.uleb128 0x6
 2487 00bc 04       		.byte	0x4
 2488 00bd C1000000 		.4byte	0xc1
 2489 00c1 09       		.uleb128 0x9
 2490 00c2 00000000 		.4byte	.LASF18
 2491 00c6 02       		.uleb128 0x2
 2492 00c7 17020000 		.4byte	.LASF15
 2493 00cb 05       		.byte	0x5
 2494 00cc 30       		.byte	0x30
 2495 00cd 6F000000 		.4byte	0x6f
 2496 00d1 03       		.uleb128 0x3
 2497 00d2 01       		.byte	0x1
 2498 00d3 02       		.byte	0x2
 2499 00d4 1D050000 		.4byte	.LASF16
 2500 00d8 02       		.uleb128 0x2
 2501 00d9 DC060000 		.4byte	.LASF17
 2502 00dd 06       		.byte	0x6
 2503 00de 16       		.byte	0x16
 2504 00df E3000000 		.4byte	0xe3
 2505 00e3 06       		.uleb128 0x6
 2506 00e4 04       		.byte	0x4
 2507 00e5 E9000000 		.4byte	0xe9
 2508 00e9 09       		.uleb128 0x9
 2509 00ea 49080000 		.4byte	.LASF19
 2510 00ee 0A       		.uleb128 0xa
 2511 00ef 02020000 		.4byte	.LASF38
 2512 00f3 01       		.byte	0x1
ARM GAS  C:\Users\Phuong\AppData\Local\Temp\cc32RpHN.s 			page 61


 2513 00f4 53000000 		.4byte	0x53
 2514 00f8 06       		.byte	0x6
 2515 00f9 1A       		.byte	0x1a
 2516 00fa 59010000 		.4byte	0x159
 2517 00fe 0B       		.uleb128 0xb
 2518 00ff C6080000 		.4byte	.LASF20
 2519 0103 00       		.byte	0
 2520 0104 0B       		.uleb128 0xb
 2521 0105 F4040000 		.4byte	.LASF21
 2522 0109 01       		.byte	0x1
 2523 010a 0B       		.uleb128 0xb
 2524 010b E8010000 		.4byte	.LASF22
 2525 010f 02       		.byte	0x2
 2526 0110 0B       		.uleb128 0xb
 2527 0111 1B0C0000 		.4byte	.LASF23
 2528 0115 03       		.byte	0x3
 2529 0116 0B       		.uleb128 0xb
 2530 0117 97060000 		.4byte	.LASF24
 2531 011b 04       		.byte	0x4
 2532 011c 0B       		.uleb128 0xb
 2533 011d AD080000 		.4byte	.LASF25
 2534 0121 05       		.byte	0x5
 2535 0122 0B       		.uleb128 0xb
 2536 0123 7B080000 		.4byte	.LASF26
 2537 0127 06       		.byte	0x6
 2538 0128 0B       		.uleb128 0xb
 2539 0129 F5060000 		.4byte	.LASF27
 2540 012d 07       		.byte	0x7
 2541 012e 0B       		.uleb128 0xb
 2542 012f 640B0000 		.4byte	.LASF28
 2543 0133 08       		.byte	0x8
 2544 0134 0B       		.uleb128 0xb
 2545 0135 7B000000 		.4byte	.LASF29
 2546 0139 09       		.byte	0x9
 2547 013a 0B       		.uleb128 0xb
 2548 013b 47000000 		.4byte	.LASF30
 2549 013f 0A       		.byte	0xa
 2550 0140 0B       		.uleb128 0xb
 2551 0141 D40B0000 		.4byte	.LASF31
 2552 0145 0B       		.byte	0xb
 2553 0146 0B       		.uleb128 0xb
 2554 0147 1A090000 		.4byte	.LASF32
 2555 014b 0C       		.byte	0xc
 2556 014c 0B       		.uleb128 0xb
 2557 014d D5000000 		.4byte	.LASF33
 2558 0151 0D       		.byte	0xd
 2559 0152 0B       		.uleb128 0xb
 2560 0153 C30C0000 		.4byte	.LASF34
 2561 0157 0E       		.byte	0xe
 2562 0158 00       		.byte	0
 2563 0159 02       		.uleb128 0x2
 2564 015a 64050000 		.4byte	.LASF35
 2565 015e 06       		.byte	0x6
 2566 015f 48       		.byte	0x48
 2567 0160 EE000000 		.4byte	0xee
 2568 0164 02       		.uleb128 0x2
 2569 0165 1C000000 		.4byte	.LASF36
ARM GAS  C:\Users\Phuong\AppData\Local\Temp\cc32RpHN.s 			page 62


 2570 0169 07       		.byte	0x7
 2571 016a 26       		.byte	0x26
 2572 016b 6F010000 		.4byte	0x16f
 2573 016f 06       		.uleb128 0x6
 2574 0170 04       		.byte	0x4
 2575 0171 75010000 		.4byte	0x175
 2576 0175 09       		.uleb128 0x9
 2577 0176 1D030000 		.4byte	.LASF37
 2578 017a 0A       		.uleb128 0xa
 2579 017b BC040000 		.4byte	.LASF39
 2580 017f 01       		.byte	0x1
 2581 0180 53000000 		.4byte	0x53
 2582 0184 08       		.byte	0x8
 2583 0185 1E       		.byte	0x1e
 2584 0186 9D010000 		.4byte	0x19d
 2585 018a 0B       		.uleb128 0xb
 2586 018b A4030000 		.4byte	.LASF40
 2587 018f 00       		.byte	0
 2588 0190 0B       		.uleb128 0xb
 2589 0191 0E050000 		.4byte	.LASF41
 2590 0195 01       		.byte	0x1
 2591 0196 0B       		.uleb128 0xb
 2592 0197 13010000 		.4byte	.LASF42
 2593 019b 02       		.byte	0x2
 2594 019c 00       		.byte	0
 2595 019d 02       		.uleb128 0x2
 2596 019e 23080000 		.4byte	.LASF43
 2597 01a2 08       		.byte	0x8
 2598 01a3 1E       		.byte	0x1e
 2599 01a4 7A010000 		.4byte	0x17a
 2600 01a8 02       		.uleb128 0x2
 2601 01a9 C3010000 		.4byte	.LASF44
 2602 01ad 08       		.byte	0x8
 2603 01ae 20       		.byte	0x20
 2604 01af B3010000 		.4byte	0x1b3
 2605 01b3 06       		.uleb128 0x6
 2606 01b4 04       		.byte	0x4
 2607 01b5 B9010000 		.4byte	0x1b9
 2608 01b9 09       		.uleb128 0x9
 2609 01ba 53060000 		.4byte	.LASF45
 2610 01be 0A       		.uleb128 0xa
 2611 01bf D7030000 		.4byte	.LASF46
 2612 01c3 01       		.byte	0x1
 2613 01c4 53000000 		.4byte	0x53
 2614 01c8 09       		.byte	0x9
 2615 01c9 17       		.byte	0x17
 2616 01ca E1010000 		.4byte	0x1e1
 2617 01ce 0B       		.uleb128 0xb
 2618 01cf 7C030000 		.4byte	.LASF47
 2619 01d3 00       		.byte	0
 2620 01d4 0B       		.uleb128 0xb
 2621 01d5 8A010000 		.4byte	.LASF48
 2622 01d9 01       		.byte	0x1
 2623 01da 0B       		.uleb128 0xb
 2624 01db 26010000 		.4byte	.LASF49
 2625 01df 02       		.byte	0x2
 2626 01e0 00       		.byte	0
ARM GAS  C:\Users\Phuong\AppData\Local\Temp\cc32RpHN.s 			page 63


 2627 01e1 02       		.uleb128 0x2
 2628 01e2 42010000 		.4byte	.LASF50
 2629 01e6 09       		.byte	0x9
 2630 01e7 17       		.byte	0x17
 2631 01e8 BE010000 		.4byte	0x1be
 2632 01ec 02       		.uleb128 0x2
 2633 01ed 430B0000 		.4byte	.LASF51
 2634 01f1 09       		.byte	0x9
 2635 01f2 19       		.byte	0x19
 2636 01f3 F7010000 		.4byte	0x1f7
 2637 01f7 06       		.uleb128 0x6
 2638 01f8 04       		.byte	0x4
 2639 01f9 FD010000 		.4byte	0x1fd
 2640 01fd 0C       		.uleb128 0xc
 2641 01fe 12020000 		.4byte	0x212
 2642 0202 0D       		.uleb128 0xd
 2643 0203 A9000000 		.4byte	0xa9
 2644 0207 0D       		.uleb128 0xd
 2645 0208 E1010000 		.4byte	0x1e1
 2646 020c 0D       		.uleb128 0xd
 2647 020d E1010000 		.4byte	0x1e1
 2648 0211 00       		.byte	0
 2649 0212 0E       		.uleb128 0xe
 2650 0213 6A070000 		.4byte	.LASF73
 2651 0217 20       		.byte	0x20
 2652 0218 09       		.byte	0x9
 2653 0219 1B       		.byte	0x1b
 2654 021a 8B020000 		.4byte	0x28b
 2655 021e 0F       		.uleb128 0xf
 2656 021f 65020000 		.4byte	.LASF52
 2657 0223 09       		.byte	0x9
 2658 0224 1D       		.byte	0x1d
 2659 0225 9E000000 		.4byte	0x9e
 2660 0229 00       		.byte	0
 2661 022a 0F       		.uleb128 0xf
 2662 022b 85070000 		.4byte	.LASF53
 2663 022f 09       		.byte	0x9
 2664 0230 1E       		.byte	0x1e
 2665 0231 B0000000 		.4byte	0xb0
 2666 0235 04       		.byte	0x4
 2667 0236 0F       		.uleb128 0xf
 2668 0237 6D030000 		.4byte	.LASF54
 2669 023b 09       		.byte	0x9
 2670 023c 1F       		.byte	0x1f
 2671 023d D1000000 		.4byte	0xd1
 2672 0241 08       		.byte	0x8
 2673 0242 0F       		.uleb128 0xf
 2674 0243 74010000 		.4byte	.LASF55
 2675 0247 09       		.byte	0x9
 2676 0248 20       		.byte	0x20
 2677 0249 D1000000 		.4byte	0xd1
 2678 024d 09       		.byte	0x9
 2679 024e 0F       		.uleb128 0xf
 2680 024f 58050000 		.4byte	.LASF56
 2681 0253 09       		.byte	0x9
 2682 0254 21       		.byte	0x21
 2683 0255 D1000000 		.4byte	0xd1
ARM GAS  C:\Users\Phuong\AppData\Local\Temp\cc32RpHN.s 			page 64


 2684 0259 0A       		.byte	0xa
 2685 025a 0F       		.uleb128 0xf
 2686 025b E9090000 		.4byte	.LASF57
 2687 025f 09       		.byte	0x9
 2688 0260 23       		.byte	0x23
 2689 0261 EC010000 		.4byte	0x1ec
 2690 0265 0C       		.byte	0xc
 2691 0266 0F       		.uleb128 0xf
 2692 0267 C4050000 		.4byte	.LASF58
 2693 026b 09       		.byte	0x9
 2694 026c 24       		.byte	0x24
 2695 026d A9000000 		.4byte	0xa9
 2696 0271 10       		.byte	0x10
 2697 0272 0F       		.uleb128 0xf
 2698 0273 DD050000 		.4byte	.LASF59
 2699 0277 09       		.byte	0x9
 2700 0278 25       		.byte	0x25
 2701 0279 25000000 		.4byte	0x25
 2702 027d 14       		.byte	0x14
 2703 027e 0F       		.uleb128 0xf
 2704 027f B2060000 		.4byte	.LASF60
 2705 0283 09       		.byte	0x9
 2706 0284 26       		.byte	0x26
 2707 0285 8B020000 		.4byte	0x28b
 2708 0289 18       		.byte	0x18
 2709 028a 00       		.byte	0
 2710 028b 03       		.uleb128 0x3
 2711 028c 08       		.byte	0x8
 2712 028d 04       		.byte	0x4
 2713 028e 5F0C0000 		.4byte	.LASF61
 2714 0292 02       		.uleb128 0x2
 2715 0293 A5040000 		.4byte	.LASF62
 2716 0297 09       		.byte	0x9
 2717 0298 27       		.byte	0x27
 2718 0299 12020000 		.4byte	0x212
 2719 029d 02       		.uleb128 0x2
 2720 029e 3E070000 		.4byte	.LASF63
 2721 02a2 09       		.byte	0x9
 2722 02a3 29       		.byte	0x29
 2723 02a4 A8020000 		.4byte	0x2a8
 2724 02a8 06       		.uleb128 0x6
 2725 02a9 04       		.byte	0x4
 2726 02aa AE020000 		.4byte	0x2ae
 2727 02ae 09       		.uleb128 0x9
 2728 02af CC070000 		.4byte	.LASF64
 2729 02b3 02       		.uleb128 0x2
 2730 02b4 57020000 		.4byte	.LASF65
 2731 02b8 0A       		.byte	0xa
 2732 02b9 07       		.byte	0x7
 2733 02ba BE020000 		.4byte	0x2be
 2734 02be 06       		.uleb128 0x6
 2735 02bf 04       		.byte	0x4
 2736 02c0 C4020000 		.4byte	0x2c4
 2737 02c4 09       		.uleb128 0x9
 2738 02c5 B9050000 		.4byte	.LASF66
 2739 02c9 0A       		.uleb128 0xa
 2740 02ca E0040000 		.4byte	.LASF67
ARM GAS  C:\Users\Phuong\AppData\Local\Temp\cc32RpHN.s 			page 65


 2741 02ce 01       		.byte	0x1
 2742 02cf 53000000 		.4byte	0x53
 2743 02d3 0B       		.byte	0xb
 2744 02d4 17       		.byte	0x17
 2745 02d5 EC020000 		.4byte	0x2ec
 2746 02d9 0B       		.uleb128 0xb
 2747 02da 660C0000 		.4byte	.LASF68
 2748 02de 00       		.byte	0
 2749 02df 0B       		.uleb128 0xb
 2750 02e0 7D090000 		.4byte	.LASF69
 2751 02e4 01       		.byte	0x1
 2752 02e5 0B       		.uleb128 0xb
 2753 02e6 DA0C0000 		.4byte	.LASF70
 2754 02ea 02       		.byte	0x2
 2755 02eb 00       		.byte	0
 2756 02ec 02       		.uleb128 0x2
 2757 02ed 10070000 		.4byte	.LASF71
 2758 02f1 0C       		.byte	0xc
 2759 02f2 10       		.byte	0x10
 2760 02f3 F7020000 		.4byte	0x2f7
 2761 02f7 06       		.uleb128 0x6
 2762 02f8 04       		.byte	0x4
 2763 02f9 FD020000 		.4byte	0x2fd
 2764 02fd 09       		.uleb128 0x9
 2765 02fe 300A0000 		.4byte	.LASF72
 2766 0302 0E       		.uleb128 0xe
 2767 0303 26070000 		.4byte	.LASF74
 2768 0307 08       		.byte	0x8
 2769 0308 0D       		.byte	0xd
 2770 0309 15       		.byte	0x15
 2771 030a 27030000 		.4byte	0x327
 2772 030e 0F       		.uleb128 0xf
 2773 030f B5000000 		.4byte	.LASF75
 2774 0313 0D       		.byte	0xd
 2775 0314 17       		.byte	0x17
 2776 0315 B0000000 		.4byte	0xb0
 2777 0319 00       		.byte	0
 2778 031a 0F       		.uleb128 0xf
 2779 031b 44060000 		.4byte	.LASF76
 2780 031f 0D       		.byte	0xd
 2781 0320 18       		.byte	0x18
 2782 0321 EC020000 		.4byte	0x2ec
 2783 0325 04       		.byte	0x4
 2784 0326 00       		.byte	0
 2785 0327 02       		.uleb128 0x2
 2786 0328 AE0B0000 		.4byte	.LASF77
 2787 032c 0D       		.byte	0xd
 2788 032d 19       		.byte	0x19
 2789 032e 02030000 		.4byte	0x302
 2790 0332 0A       		.uleb128 0xa
 2791 0333 CD0A0000 		.4byte	.LASF78
 2792 0337 01       		.byte	0x1
 2793 0338 53000000 		.4byte	0x53
 2794 033c 0E       		.byte	0xe
 2795 033d 22       		.byte	0x22
 2796 033e 55030000 		.4byte	0x355
 2797 0342 0B       		.uleb128 0xb
ARM GAS  C:\Users\Phuong\AppData\Local\Temp\cc32RpHN.s 			page 66


 2798 0343 3C080000 		.4byte	.LASF79
 2799 0347 00       		.byte	0
 2800 0348 0B       		.uleb128 0xb
 2801 0349 9A050000 		.4byte	.LASF80
 2802 034d 01       		.byte	0x1
 2803 034e 0B       		.uleb128 0xb
 2804 034f 800B0000 		.4byte	.LASF81
 2805 0353 02       		.byte	0x2
 2806 0354 00       		.byte	0
 2807 0355 02       		.uleb128 0x2
 2808 0356 CF060000 		.4byte	.LASF82
 2809 035a 0E       		.byte	0xe
 2810 035b 27       		.byte	0x27
 2811 035c 32030000 		.4byte	0x332
 2812 0360 02       		.uleb128 0x2
 2813 0361 92090000 		.4byte	.LASF83
 2814 0365 0E       		.byte	0xe
 2815 0366 2F       		.byte	0x2f
 2816 0367 6B030000 		.4byte	0x36b
 2817 036b 06       		.uleb128 0x6
 2818 036c 04       		.byte	0x4
 2819 036d 71030000 		.4byte	0x371
 2820 0371 0C       		.uleb128 0xc
 2821 0372 96030000 		.4byte	0x396
 2822 0376 0D       		.uleb128 0xd
 2823 0377 55030000 		.4byte	0x355
 2824 037b 0D       		.uleb128 0xd
 2825 037c 9E000000 		.4byte	0x9e
 2826 0380 0D       		.uleb128 0xd
 2827 0381 9E000000 		.4byte	0x9e
 2828 0385 0D       		.uleb128 0xd
 2829 0386 37000000 		.4byte	0x37
 2830 038a 0D       		.uleb128 0xd
 2831 038b 30000000 		.4byte	0x30
 2832 038f 0D       		.uleb128 0xd
 2833 0390 9E000000 		.4byte	0x9e
 2834 0394 10       		.uleb128 0x10
 2835 0395 00       		.byte	0
 2836 0396 0E       		.uleb128 0xe
 2837 0397 B00A0000 		.4byte	.LASF84
 2838 039b 38       		.byte	0x38
 2839 039c 01       		.byte	0x1
 2840 039d 17       		.byte	0x17
 2841 039e 57040000 		.4byte	0x457
 2842 03a2 0F       		.uleb128 0xf
 2843 03a3 50090000 		.4byte	.LASF85
 2844 03a7 01       		.byte	0x1
 2845 03a8 19       		.byte	0x19
 2846 03a9 B3020000 		.4byte	0x2b3
 2847 03ad 00       		.byte	0
 2848 03ae 0F       		.uleb128 0xf
 2849 03af 85070000 		.4byte	.LASF53
 2850 03b3 01       		.byte	0x1
 2851 03b4 1A       		.byte	0x1a
 2852 03b5 B0000000 		.4byte	0xb0
 2853 03b9 04       		.byte	0x4
 2854 03ba 0F       		.uleb128 0xf
ARM GAS  C:\Users\Phuong\AppData\Local\Temp\cc32RpHN.s 			page 67


 2855 03bb 11000000 		.4byte	.LASF86
 2856 03bf 01       		.byte	0x1
 2857 03c0 1B       		.byte	0x1b
 2858 03c1 A8010000 		.4byte	0x1a8
 2859 03c5 08       		.byte	0x8
 2860 03c6 0F       		.uleb128 0xf
 2861 03c7 760A0000 		.4byte	.LASF87
 2862 03cb 01       		.byte	0x1
 2863 03cc 1C       		.byte	0x1c
 2864 03cd D8000000 		.4byte	0xd8
 2865 03d1 0C       		.byte	0xc
 2866 03d2 0F       		.uleb128 0xf
 2867 03d3 4C0A0000 		.4byte	.LASF88
 2868 03d7 01       		.byte	0x1
 2869 03d8 1D       		.byte	0x1d
 2870 03d9 64010000 		.4byte	0x164
 2871 03dd 10       		.byte	0x10
 2872 03de 0F       		.uleb128 0xf
 2873 03df E5070000 		.4byte	.LASF89
 2874 03e3 01       		.byte	0x1
 2875 03e4 1E       		.byte	0x1e
 2876 03e5 B0000000 		.4byte	0xb0
 2877 03e9 14       		.byte	0x14
 2878 03ea 0F       		.uleb128 0xf
 2879 03eb 44060000 		.4byte	.LASF76
 2880 03ef 01       		.byte	0x1
 2881 03f0 1F       		.byte	0x1f
 2882 03f1 EC020000 		.4byte	0x2ec
 2883 03f5 18       		.byte	0x18
 2884 03f6 0F       		.uleb128 0xf
 2885 03f7 DD080000 		.4byte	.LASF90
 2886 03fb 01       		.byte	0x1
 2887 03fc 20       		.byte	0x20
 2888 03fd D1000000 		.4byte	0xd1
 2889 0401 1C       		.byte	0x1c
 2890 0402 0F       		.uleb128 0xf
 2891 0403 07090000 		.4byte	.LASF91
 2892 0407 01       		.byte	0x1
 2893 0408 21       		.byte	0x21
 2894 0409 D1000000 		.4byte	0xd1
 2895 040d 1D       		.byte	0x1d
 2896 040e 0F       		.uleb128 0xf
 2897 040f 58050000 		.4byte	.LASF56
 2898 0413 01       		.byte	0x1
 2899 0414 22       		.byte	0x22
 2900 0415 D1000000 		.4byte	0xd1
 2901 0419 1E       		.byte	0x1e
 2902 041a 0F       		.uleb128 0xf
 2903 041b 36090000 		.4byte	.LASF92
 2904 041f 01       		.byte	0x1
 2905 0420 23       		.byte	0x23
 2906 0421 E1010000 		.4byte	0x1e1
 2907 0425 1F       		.byte	0x1f
 2908 0426 0F       		.uleb128 0xf
 2909 0427 E9090000 		.4byte	.LASF57
 2910 042b 01       		.byte	0x1
 2911 042c 24       		.byte	0x24
ARM GAS  C:\Users\Phuong\AppData\Local\Temp\cc32RpHN.s 			page 68


 2912 042d EC010000 		.4byte	0x1ec
 2913 0431 20       		.byte	0x20
 2914 0432 0F       		.uleb128 0xf
 2915 0433 C4050000 		.4byte	.LASF58
 2916 0437 01       		.byte	0x1
 2917 0438 25       		.byte	0x25
 2918 0439 A9000000 		.4byte	0xa9
 2919 043d 24       		.byte	0x24
 2920 043e 0F       		.uleb128 0xf
 2921 043f DD050000 		.4byte	.LASF59
 2922 0443 01       		.byte	0x1
 2923 0444 26       		.byte	0x26
 2924 0445 C6000000 		.4byte	0xc6
 2925 0449 28       		.byte	0x28
 2926 044a 0F       		.uleb128 0xf
 2927 044b B2060000 		.4byte	.LASF60
 2928 044f 01       		.byte	0x1
 2929 0450 27       		.byte	0x27
 2930 0451 8B020000 		.4byte	0x28b
 2931 0455 30       		.byte	0x30
 2932 0456 00       		.byte	0
 2933 0457 02       		.uleb128 0x2
 2934 0458 CC070000 		.4byte	.LASF64
 2935 045c 01       		.byte	0x1
 2936 045d 28       		.byte	0x28
 2937 045e 96030000 		.4byte	0x396
 2938 0462 11       		.uleb128 0x11
 2939 0463 3B050000 		.4byte	.LASF95
 2940 0467 01       		.byte	0x1
 2941 0468 5D       		.byte	0x5d
 2942 0469 00000000 		.4byte	.LFB4
 2943 046d 18000000 		.4byte	.LFE4-.LFB4
 2944 0471 01       		.uleb128 0x1
 2945 0472 9C       		.byte	0x9c
 2946 0473 AF040000 		.4byte	0x4af
 2947 0477 12       		.uleb128 0x12
 2948 0478 F1030000 		.4byte	.LASF93
 2949 047c 01       		.byte	0x1
 2950 047d 5D       		.byte	0x5d
 2951 047e AF040000 		.4byte	0x4af
 2952 0482 00000000 		.4byte	.LLST0
 2953 0486 12       		.uleb128 0x12
 2954 0487 6A010000 		.4byte	.LASF94
 2955 048b 01       		.byte	0x1
 2956 048c 5D       		.byte	0x5d
 2957 048d E1010000 		.4byte	0x1e1
 2958 0491 21000000 		.4byte	.LLST1
 2959 0495 13       		.uleb128 0x13
 2960 0496 0A000000 		.4byte	.LBB2
 2961 049a 0C000000 		.4byte	.LBE2-.LBB2
 2962 049e 14       		.uleb128 0x14
 2963 049f EA000000 		.4byte	.LASF101
 2964 04a3 01       		.byte	0x1
 2965 04a4 61       		.byte	0x61
 2966 04a5 E1010000 		.4byte	0x1e1
 2967 04a9 42000000 		.4byte	.LLST2
 2968 04ad 00       		.byte	0
ARM GAS  C:\Users\Phuong\AppData\Local\Temp\cc32RpHN.s 			page 69


 2969 04ae 00       		.byte	0
 2970 04af 06       		.uleb128 0x6
 2971 04b0 04       		.byte	0x4
 2972 04b1 57040000 		.4byte	0x457
 2973 04b5 15       		.uleb128 0x15
 2974 04b6 D2090000 		.4byte	.LASF96
 2975 04ba 01       		.byte	0x1
 2976 04bb 6B       		.byte	0x6b
 2977 04bc 00000000 		.4byte	.LFB5
 2978 04c0 0A000000 		.4byte	.LFE5-.LFB5
 2979 04c4 01       		.uleb128 0x1
 2980 04c5 9C       		.byte	0x9c
 2981 04c6 F0040000 		.4byte	0x4f0
 2982 04ca 12       		.uleb128 0x12
 2983 04cb 8F060000 		.4byte	.LASF97
 2984 04cf 01       		.byte	0x1
 2985 04d0 6B       		.byte	0x6b
 2986 04d1 8F000000 		.4byte	0x8f
 2987 04d5 55000000 		.4byte	.LLST3
 2988 04d9 16       		.uleb128 0x16
 2989 04da 08000000 		.4byte	.LVL6
 2990 04de 62040000 		.4byte	0x462
 2991 04e2 17       		.uleb128 0x17
 2992 04e3 01       		.uleb128 0x1
 2993 04e4 50       		.byte	0x50
 2994 04e5 03       		.uleb128 0x3
 2995 04e6 F3       		.byte	0xf3
 2996 04e7 01       		.uleb128 0x1
 2997 04e8 50       		.byte	0x50
 2998 04e9 17       		.uleb128 0x17
 2999 04ea 01       		.uleb128 0x1
 3000 04eb 51       		.byte	0x51
 3001 04ec 01       		.uleb128 0x1
 3002 04ed 32       		.byte	0x32
 3003 04ee 00       		.byte	0
 3004 04ef 00       		.byte	0
 3005 04f0 15       		.uleb128 0x15
 3006 04f1 ED070000 		.4byte	.LASF98
 3007 04f5 01       		.byte	0x1
 3008 04f6 71       		.byte	0x71
 3009 04f7 00000000 		.4byte	.LFB6
 3010 04fb 42000000 		.4byte	.LFE6-.LFB6
 3011 04ff 01       		.uleb128 0x1
 3012 0500 9C       		.byte	0x9c
 3013 0501 80050000 		.4byte	0x580
 3014 0505 12       		.uleb128 0x12
 3015 0506 8F060000 		.4byte	.LASF97
 3016 050a 01       		.byte	0x1
 3017 050b 71       		.byte	0x71
 3018 050c 8F000000 		.4byte	0x8f
 3019 0510 76000000 		.4byte	.LLST4
 3020 0514 12       		.uleb128 0x12
 3021 0515 55070000 		.4byte	.LASF99
 3022 0519 01       		.byte	0x1
 3023 051a 71       		.byte	0x71
 3024 051b 59010000 		.4byte	0x159
 3025 051f E2000000 		.4byte	.LLST5
ARM GAS  C:\Users\Phuong\AppData\Local\Temp\cc32RpHN.s 			page 70


 3026 0523 12       		.uleb128 0x12
 3027 0524 F9000000 		.4byte	.LASF100
 3028 0528 01       		.byte	0x1
 3029 0529 71       		.byte	0x71
 3030 052a 59010000 		.4byte	0x159
 3031 052e 4E010000 		.4byte	.LLST6
 3032 0532 14       		.uleb128 0x14
 3033 0533 F1030000 		.4byte	.LASF93
 3034 0537 01       		.byte	0x1
 3035 0538 75       		.byte	0x75
 3036 0539 AF040000 		.4byte	0x4af
 3037 053d BA010000 		.4byte	.LLST7
 3038 0541 18       		.uleb128 0x18
 3039 0542 18000000 		.4byte	.LVL10
 3040 0546 62040000 		.4byte	0x462
 3041 054a 54050000 		.4byte	0x554
 3042 054e 17       		.uleb128 0x17
 3043 054f 01       		.uleb128 0x1
 3044 0550 51       		.byte	0x51
 3045 0551 01       		.uleb128 0x1
 3046 0552 30       		.byte	0x30
 3047 0553 00       		.byte	0
 3048 0554 18       		.uleb128 0x18
 3049 0555 24000000 		.4byte	.LVL13
 3050 0559 62040000 		.4byte	0x462
 3051 055d 67050000 		.4byte	0x567
 3052 0561 17       		.uleb128 0x17
 3053 0562 01       		.uleb128 0x1
 3054 0563 51       		.byte	0x51
 3055 0564 01       		.uleb128 0x1
 3056 0565 30       		.byte	0x30
 3057 0566 00       		.byte	0
 3058 0567 19       		.uleb128 0x19
 3059 0568 30000000 		.4byte	.LVL16
 3060 056c 62040000 		.4byte	0x462
 3061 0570 16       		.uleb128 0x16
 3062 0571 40000000 		.4byte	.LVL19
 3063 0575 62040000 		.4byte	0x462
 3064 0579 17       		.uleb128 0x17
 3065 057a 01       		.uleb128 0x1
 3066 057b 51       		.byte	0x51
 3067 057c 01       		.uleb128 0x1
 3068 057d 32       		.byte	0x32
 3069 057e 00       		.byte	0
 3070 057f 00       		.byte	0
 3071 0580 15       		.uleb128 0x15
 3072 0581 75050000 		.4byte	.LASF102
 3073 0585 01       		.byte	0x1
 3074 0586 9D       		.byte	0x9d
 3075 0587 00000000 		.4byte	.LFB8
 3076 058b 30000000 		.4byte	.LFE8-.LFB8
 3077 058f 01       		.uleb128 0x1
 3078 0590 9C       		.byte	0x9c
 3079 0591 0A060000 		.4byte	0x60a
 3080 0595 12       		.uleb128 0x12
 3081 0596 8F060000 		.4byte	.LASF97
 3082 059a 01       		.byte	0x1
ARM GAS  C:\Users\Phuong\AppData\Local\Temp\cc32RpHN.s 			page 71


 3083 059b 9D       		.byte	0x9d
 3084 059c 8F000000 		.4byte	0x8f
 3085 05a0 26020000 		.4byte	.LLST8
 3086 05a4 1A       		.uleb128 0x1a
 3087 05a5 4A0C0000 		.4byte	.LASF105
 3088 05a9 1A060000 		.4byte	0x61a
 3089 05ad 05       		.uleb128 0x5
 3090 05ae 03       		.byte	0x3
 3091 05af 00000000 		.4byte	__func__.7277
 3092 05b3 13       		.uleb128 0x13
 3093 05b4 04000000 		.4byte	.LBB3
 3094 05b8 1A000000 		.4byte	.LBE3-.LBB3
 3095 05bc 1B       		.uleb128 0x1b
 3096 05bd 6C00     		.ascii	"l\000"
 3097 05bf 01       		.byte	0x1
 3098 05c0 A0       		.byte	0xa0
 3099 05c1 60030000 		.4byte	0x360
 3100 05c5 47020000 		.4byte	.LLST9
 3101 05c9 19       		.uleb128 0x19
 3102 05ca 08000000 		.4byte	.LVL21
 3103 05ce 39190000 		.4byte	0x1939
 3104 05d2 1C       		.uleb128 0x1c
 3105 05d3 1E000000 		.4byte	.LVL24
 3106 05d7 02       		.uleb128 0x2
 3107 05d8 74       		.byte	0x74
 3108 05d9 00       		.sleb128 0
 3109 05da 17       		.uleb128 0x17
 3110 05db 01       		.uleb128 0x1
 3111 05dc 50       		.byte	0x50
 3112 05dd 01       		.uleb128 0x1
 3113 05de 30       		.byte	0x30
 3114 05df 17       		.uleb128 0x17
 3115 05e0 01       		.uleb128 0x1
 3116 05e1 51       		.byte	0x51
 3117 05e2 05       		.uleb128 0x5
 3118 05e3 03       		.byte	0x3
 3119 05e4 00000000 		.4byte	.LC1
 3120 05e8 17       		.uleb128 0x17
 3121 05e9 01       		.uleb128 0x1
 3122 05ea 52       		.byte	0x52
 3123 05eb 05       		.uleb128 0x5
 3124 05ec 03       		.byte	0x3
 3125 05ed 00000000 		.4byte	.LANCHOR0
 3126 05f1 17       		.uleb128 0x17
 3127 05f2 01       		.uleb128 0x1
 3128 05f3 53       		.byte	0x53
 3129 05f4 02       		.uleb128 0x2
 3130 05f5 08       		.byte	0x8
 3131 05f6 A0       		.byte	0xa0
 3132 05f7 17       		.uleb128 0x17
 3133 05f8 02       		.uleb128 0x2
 3134 05f9 7D       		.byte	0x7d
 3135 05fa 00       		.sleb128 0
 3136 05fb 01       		.uleb128 0x1
 3137 05fc 31       		.byte	0x31
 3138 05fd 17       		.uleb128 0x17
 3139 05fe 02       		.uleb128 0x2
ARM GAS  C:\Users\Phuong\AppData\Local\Temp\cc32RpHN.s 			page 72


 3140 05ff 7D       		.byte	0x7d
 3141 0600 04       		.sleb128 4
 3142 0601 05       		.uleb128 0x5
 3143 0602 03       		.byte	0x3
 3144 0603 4C000000 		.4byte	.LC3
 3145 0607 00       		.byte	0
 3146 0608 00       		.byte	0
 3147 0609 00       		.byte	0
 3148 060a 1D       		.uleb128 0x1d
 3149 060b A4000000 		.4byte	0xa4
 3150 060f 1A060000 		.4byte	0x61a
 3151 0613 1E       		.uleb128 0x1e
 3152 0614 88000000 		.4byte	0x88
 3153 0618 0C       		.byte	0xc
 3154 0619 00       		.byte	0
 3155 061a 07       		.uleb128 0x7
 3156 061b 0A060000 		.4byte	0x60a
 3157 061f 15       		.uleb128 0x15
 3158 0620 64060000 		.4byte	.LASF103
 3159 0624 01       		.byte	0x1
 3160 0625 93       		.byte	0x93
 3161 0626 00000000 		.4byte	.LFB7
 3162 062a 34000000 		.4byte	.LFE7-.LFB7
 3163 062e 01       		.uleb128 0x1
 3164 062f 9C       		.byte	0x9c
 3165 0630 B8060000 		.4byte	0x6b8
 3166 0634 12       		.uleb128 0x12
 3167 0635 8F060000 		.4byte	.LASF97
 3168 0639 01       		.byte	0x1
 3169 063a 93       		.byte	0x93
 3170 063b 8F000000 		.4byte	0x8f
 3171 063f 65020000 		.4byte	.LLST10
 3172 0643 12       		.uleb128 0x12
 3173 0644 350C0000 		.4byte	.LASF104
 3174 0648 01       		.byte	0x1
 3175 0649 93       		.byte	0x93
 3176 064a 9D010000 		.4byte	0x19d
 3177 064e 86020000 		.4byte	.LLST11
 3178 0652 1A       		.uleb128 0x1a
 3179 0653 4A0C0000 		.4byte	.LASF105
 3180 0657 C8060000 		.4byte	0x6c8
 3181 065b 05       		.uleb128 0x5
 3182 065c 03       		.byte	0x3
 3183 065d 10000000 		.4byte	__func__.7270
 3184 0661 13       		.uleb128 0x13
 3185 0662 08000000 		.4byte	.LBB4
 3186 0666 1C000000 		.4byte	.LBE4-.LBB4
 3187 066a 1B       		.uleb128 0x1b
 3188 066b 6C00     		.ascii	"l\000"
 3189 066d 01       		.byte	0x1
 3190 066e 99       		.byte	0x99
 3191 066f 60030000 		.4byte	0x360
 3192 0673 A7020000 		.4byte	.LLST12
 3193 0677 19       		.uleb128 0x19
 3194 0678 0C000000 		.4byte	.LVL27
 3195 067c 39190000 		.4byte	0x1939
 3196 0680 1C       		.uleb128 0x1c
ARM GAS  C:\Users\Phuong\AppData\Local\Temp\cc32RpHN.s 			page 73


 3197 0681 24000000 		.4byte	.LVL30
 3198 0685 02       		.uleb128 0x2
 3199 0686 74       		.byte	0x74
 3200 0687 00       		.sleb128 0
 3201 0688 17       		.uleb128 0x17
 3202 0689 01       		.uleb128 0x1
 3203 068a 50       		.byte	0x50
 3204 068b 01       		.uleb128 0x1
 3205 068c 30       		.byte	0x30
 3206 068d 17       		.uleb128 0x17
 3207 068e 01       		.uleb128 0x1
 3208 068f 51       		.byte	0x51
 3209 0690 05       		.uleb128 0x5
 3210 0691 03       		.byte	0x3
 3211 0692 00000000 		.4byte	.LC1
 3212 0696 17       		.uleb128 0x17
 3213 0697 01       		.uleb128 0x1
 3214 0698 52       		.byte	0x52
 3215 0699 05       		.uleb128 0x5
 3216 069a 03       		.byte	0x3
 3217 069b 10000000 		.4byte	.LANCHOR0+16
 3218 069f 17       		.uleb128 0x17
 3219 06a0 01       		.uleb128 0x1
 3220 06a1 53       		.byte	0x53
 3221 06a2 02       		.uleb128 0x2
 3222 06a3 08       		.byte	0x8
 3223 06a4 99       		.byte	0x99
 3224 06a5 17       		.uleb128 0x17
 3225 06a6 02       		.uleb128 0x2
 3226 06a7 7D       		.byte	0x7d
 3227 06a8 00       		.sleb128 0
 3228 06a9 01       		.uleb128 0x1
 3229 06aa 31       		.byte	0x31
 3230 06ab 17       		.uleb128 0x17
 3231 06ac 02       		.uleb128 0x2
 3232 06ad 7D       		.byte	0x7d
 3233 06ae 04       		.sleb128 4
 3234 06af 05       		.uleb128 0x5
 3235 06b0 03       		.byte	0x3
 3236 06b1 60000000 		.4byte	.LC7
 3237 06b5 00       		.byte	0
 3238 06b6 00       		.byte	0
 3239 06b7 00       		.byte	0
 3240 06b8 1D       		.uleb128 0x1d
 3241 06b9 A4000000 		.4byte	0xa4
 3242 06bd C8060000 		.4byte	0x6c8
 3243 06c1 1E       		.uleb128 0x1e
 3244 06c2 88000000 		.4byte	0x88
 3245 06c6 14       		.byte	0x14
 3246 06c7 00       		.byte	0
 3247 06c8 07       		.uleb128 0x7
 3248 06c9 B8060000 		.4byte	0x6b8
 3249 06cd 1F       		.uleb128 0x1f
 3250 06ce 2D060000 		.4byte	.LASF108
 3251 06d2 01       		.byte	0x1
 3252 06d3 2E       		.byte	0x2e
 3253 06d4 37000000 		.4byte	0x37
ARM GAS  C:\Users\Phuong\AppData\Local\Temp\cc32RpHN.s 			page 74


 3254 06d8 00000000 		.4byte	.LFB3
 3255 06dc D0000000 		.4byte	.LFE3-.LFB3
 3256 06e0 01       		.uleb128 0x1
 3257 06e1 9C       		.byte	0x9c
 3258 06e2 E6080000 		.4byte	0x8e6
 3259 06e6 12       		.uleb128 0x12
 3260 06e7 F1030000 		.4byte	.LASF93
 3261 06eb 01       		.byte	0x1
 3262 06ec 2E       		.byte	0x2e
 3263 06ed AF040000 		.4byte	0x4af
 3264 06f1 C5020000 		.4byte	.LLST13
 3265 06f5 14       		.uleb128 0x14
 3266 06f6 42030000 		.4byte	.LASF106
 3267 06fa 01       		.byte	0x1
 3268 06fb 30       		.byte	0x30
 3269 06fc 37000000 		.4byte	0x37
 3270 0700 23030000 		.4byte	.LLST14
 3271 0704 14       		.uleb128 0x14
 3272 0705 44060000 		.4byte	.LASF76
 3273 0709 01       		.byte	0x1
 3274 070a 31       		.byte	0x31
 3275 070b EC020000 		.4byte	0x2ec
 3276 070f 5C030000 		.4byte	.LLST15
 3277 0713 14       		.uleb128 0x14
 3278 0714 E5070000 		.4byte	.LASF89
 3279 0718 01       		.byte	0x1
 3280 0719 32       		.byte	0x32
 3281 071a B0000000 		.4byte	0xb0
 3282 071e 90030000 		.4byte	.LLST16
 3283 0722 1A       		.uleb128 0x1a
 3284 0723 4A0C0000 		.4byte	.LASF105
 3285 0727 F6080000 		.4byte	0x8f6
 3286 072b 05       		.uleb128 0x5
 3287 072c 03       		.byte	0x3
 3288 072d 28000000 		.4byte	__func__.7241
 3289 0731 20       		.uleb128 0x20
 3290 0732 14000000 		.4byte	.LBB5
 3291 0736 1C000000 		.4byte	.LBE5-.LBB5
 3292 073a 8B070000 		.4byte	0x78b
 3293 073e 1B       		.uleb128 0x1b
 3294 073f 6C00     		.ascii	"l\000"
 3295 0741 01       		.byte	0x1
 3296 0742 38       		.byte	0x38
 3297 0743 60030000 		.4byte	0x360
 3298 0747 C4030000 		.4byte	.LLST17
 3299 074b 19       		.uleb128 0x19
 3300 074c 18000000 		.4byte	.LVL35
 3301 0750 39190000 		.4byte	0x1939
 3302 0754 1C       		.uleb128 0x1c
 3303 0755 30000000 		.4byte	.LVL38
 3304 0759 02       		.uleb128 0x2
 3305 075a 74       		.byte	0x74
 3306 075b 00       		.sleb128 0
 3307 075c 17       		.uleb128 0x17
 3308 075d 01       		.uleb128 0x1
 3309 075e 50       		.byte	0x50
 3310 075f 01       		.uleb128 0x1
ARM GAS  C:\Users\Phuong\AppData\Local\Temp\cc32RpHN.s 			page 75


 3311 0760 30       		.byte	0x30
 3312 0761 17       		.uleb128 0x17
 3313 0762 01       		.uleb128 0x1
 3314 0763 51       		.byte	0x51
 3315 0764 05       		.uleb128 0x5
 3316 0765 03       		.byte	0x3
 3317 0766 00000000 		.4byte	.LC1
 3318 076a 17       		.uleb128 0x17
 3319 076b 01       		.uleb128 0x1
 3320 076c 52       		.byte	0x52
 3321 076d 05       		.uleb128 0x5
 3322 076e 03       		.byte	0x3
 3323 076f 28000000 		.4byte	.LANCHOR0+40
 3324 0773 17       		.uleb128 0x17
 3325 0774 01       		.uleb128 0x1
 3326 0775 53       		.byte	0x53
 3327 0776 02       		.uleb128 0x2
 3328 0777 08       		.byte	0x8
 3329 0778 38       		.byte	0x38
 3330 0779 17       		.uleb128 0x17
 3331 077a 02       		.uleb128 0x2
 3332 077b 7D       		.byte	0x7d
 3333 077c 00       		.sleb128 0
 3334 077d 01       		.uleb128 0x1
 3335 077e 31       		.byte	0x31
 3336 077f 17       		.uleb128 0x17
 3337 0780 02       		.uleb128 0x2
 3338 0781 7D       		.byte	0x7d
 3339 0782 04       		.sleb128 4
 3340 0783 05       		.uleb128 0x5
 3341 0784 03       		.byte	0x3
 3342 0785 80000000 		.4byte	.LC11
 3343 0789 00       		.byte	0
 3344 078a 00       		.byte	0
 3345 078b 20       		.uleb128 0x20
 3346 078c 34000000 		.4byte	.LBB6
 3347 0790 7C000000 		.4byte	.LBE6-.LBB6
 3348 0794 CD080000 		.4byte	0x8cd
 3349 0798 21       		.uleb128 0x21
 3350 0799 23050000 		.4byte	.LASF107
 3351 079d 01       		.byte	0x1
 3352 079e 3E       		.byte	0x3e
 3353 079f 27030000 		.4byte	0x327
 3354 07a3 02       		.uleb128 0x2
 3355 07a4 91       		.byte	0x91
 3356 07a5 68       		.sleb128 -24
 3357 07a6 20       		.uleb128 0x20
 3358 07a7 48000000 		.4byte	.LBB7
 3359 07ab 1C000000 		.4byte	.LBE7-.LBB7
 3360 07af 00080000 		.4byte	0x800
 3361 07b3 1B       		.uleb128 0x1b
 3362 07b4 6C00     		.ascii	"l\000"
 3363 07b6 01       		.byte	0x1
 3364 07b7 46       		.byte	0x46
 3365 07b8 60030000 		.4byte	0x360
 3366 07bc ED030000 		.4byte	.LLST18
 3367 07c0 19       		.uleb128 0x19
ARM GAS  C:\Users\Phuong\AppData\Local\Temp\cc32RpHN.s 			page 76


 3368 07c1 4C000000 		.4byte	.LVL43
 3369 07c5 39190000 		.4byte	0x1939
 3370 07c9 1C       		.uleb128 0x1c
 3371 07ca 64000000 		.4byte	.LVL46
 3372 07ce 02       		.uleb128 0x2
 3373 07cf 75       		.byte	0x75
 3374 07d0 00       		.sleb128 0
 3375 07d1 17       		.uleb128 0x17
 3376 07d2 01       		.uleb128 0x1
 3377 07d3 50       		.byte	0x50
 3378 07d4 01       		.uleb128 0x1
 3379 07d5 30       		.byte	0x30
 3380 07d6 17       		.uleb128 0x17
 3381 07d7 01       		.uleb128 0x1
 3382 07d8 51       		.byte	0x51
 3383 07d9 05       		.uleb128 0x5
 3384 07da 03       		.byte	0x3
 3385 07db 00000000 		.4byte	.LC1
 3386 07df 17       		.uleb128 0x17
 3387 07e0 01       		.uleb128 0x1
 3388 07e1 52       		.byte	0x52
 3389 07e2 05       		.uleb128 0x5
 3390 07e3 03       		.byte	0x3
 3391 07e4 28000000 		.4byte	.LANCHOR0+40
 3392 07e8 17       		.uleb128 0x17
 3393 07e9 01       		.uleb128 0x1
 3394 07ea 53       		.byte	0x53
 3395 07eb 02       		.uleb128 0x2
 3396 07ec 08       		.byte	0x8
 3397 07ed 46       		.byte	0x46
 3398 07ee 17       		.uleb128 0x17
 3399 07ef 02       		.uleb128 0x2
 3400 07f0 7D       		.byte	0x7d
 3401 07f1 00       		.sleb128 0
 3402 07f2 01       		.uleb128 0x1
 3403 07f3 31       		.byte	0x31
 3404 07f4 17       		.uleb128 0x17
 3405 07f5 02       		.uleb128 0x2
 3406 07f6 7D       		.byte	0x7d
 3407 07f7 04       		.sleb128 4
 3408 07f8 05       		.uleb128 0x5
 3409 07f9 03       		.byte	0x3
 3410 07fa C4000000 		.4byte	.LC13
 3411 07fe 00       		.byte	0
 3412 07ff 00       		.byte	0
 3413 0800 20       		.uleb128 0x20
 3414 0801 7C000000 		.4byte	.LBB8
 3415 0805 1C000000 		.4byte	.LBE8-.LBB8
 3416 0809 5A080000 		.4byte	0x85a
 3417 080d 1B       		.uleb128 0x1b
 3418 080e 6C00     		.ascii	"l\000"
 3419 0810 01       		.byte	0x1
 3420 0811 4D       		.byte	0x4d
 3421 0812 60030000 		.4byte	0x360
 3422 0816 0B040000 		.4byte	.LLST19
 3423 081a 19       		.uleb128 0x19
 3424 081b 80000000 		.4byte	.LVL50
ARM GAS  C:\Users\Phuong\AppData\Local\Temp\cc32RpHN.s 			page 77


 3425 081f 39190000 		.4byte	0x1939
 3426 0823 1C       		.uleb128 0x1c
 3427 0824 98000000 		.4byte	.LVL53
 3428 0828 02       		.uleb128 0x2
 3429 0829 75       		.byte	0x75
 3430 082a 00       		.sleb128 0
 3431 082b 17       		.uleb128 0x17
 3432 082c 01       		.uleb128 0x1
 3433 082d 50       		.byte	0x50
 3434 082e 01       		.uleb128 0x1
 3435 082f 30       		.byte	0x30
 3436 0830 17       		.uleb128 0x17
 3437 0831 01       		.uleb128 0x1
 3438 0832 51       		.byte	0x51
 3439 0833 05       		.uleb128 0x5
 3440 0834 03       		.byte	0x3
 3441 0835 00000000 		.4byte	.LC1
 3442 0839 17       		.uleb128 0x17
 3443 083a 01       		.uleb128 0x1
 3444 083b 52       		.byte	0x52
 3445 083c 05       		.uleb128 0x5
 3446 083d 03       		.byte	0x3
 3447 083e 28000000 		.4byte	.LANCHOR0+40
 3448 0842 17       		.uleb128 0x17
 3449 0843 01       		.uleb128 0x1
 3450 0844 53       		.byte	0x53
 3451 0845 02       		.uleb128 0x2
 3452 0846 08       		.byte	0x8
 3453 0847 4D       		.byte	0x4d
 3454 0848 17       		.uleb128 0x17
 3455 0849 02       		.uleb128 0x2
 3456 084a 7D       		.byte	0x7d
 3457 084b 00       		.sleb128 0
 3458 084c 01       		.uleb128 0x1
 3459 084d 31       		.byte	0x31
 3460 084e 17       		.uleb128 0x17
 3461 084f 02       		.uleb128 0x2
 3462 0850 7D       		.byte	0x7d
 3463 0851 04       		.sleb128 4
 3464 0852 05       		.uleb128 0x5
 3465 0853 03       		.byte	0x3
 3466 0854 04010000 		.4byte	.LC17
 3467 0858 00       		.byte	0
 3468 0859 00       		.byte	0
 3469 085a 19       		.uleb128 0x19
 3470 085b 3E000000 		.4byte	.LVL40
 3471 085f 44190000 		.4byte	0x1944
 3472 0863 18       		.uleb128 0x18
 3473 0864 44000000 		.4byte	.LVL41
 3474 0868 4F190000 		.4byte	0x194f
 3475 086c 77080000 		.4byte	0x877
 3476 0870 17       		.uleb128 0x17
 3477 0871 01       		.uleb128 0x1
 3478 0872 51       		.byte	0x51
 3479 0873 02       		.uleb128 0x2
 3480 0874 91       		.byte	0x91
 3481 0875 68       		.sleb128 -24
ARM GAS  C:\Users\Phuong\AppData\Local\Temp\cc32RpHN.s 			page 78


 3482 0876 00       		.byte	0
 3483 0877 18       		.uleb128 0x18
 3484 0878 6A000000 		.4byte	.LVL47
 3485 087c 5A190000 		.4byte	0x195a
 3486 0880 8B080000 		.4byte	0x88b
 3487 0884 17       		.uleb128 0x17
 3488 0885 01       		.uleb128 0x1
 3489 0886 50       		.byte	0x50
 3490 0887 02       		.uleb128 0x2
 3491 0888 74       		.byte	0x74
 3492 0889 00       		.sleb128 0
 3493 088a 00       		.byte	0
 3494 088b 18       		.uleb128 0x18
 3495 088c 78000000 		.4byte	.LVL49
 3496 0890 65190000 		.4byte	0x1965
 3497 0894 A8080000 		.4byte	0x8a8
 3498 0898 17       		.uleb128 0x17
 3499 0899 01       		.uleb128 0x1
 3500 089a 51       		.byte	0x51
 3501 089b 05       		.uleb128 0x5
 3502 089c 03       		.byte	0x3
 3503 089d F8000000 		.4byte	.LC15
 3504 08a1 17       		.uleb128 0x17
 3505 08a2 01       		.uleb128 0x1
 3506 08a3 52       		.byte	0x52
 3507 08a4 02       		.uleb128 0x2
 3508 08a5 75       		.byte	0x75
 3509 08a6 1E       		.sleb128 30
 3510 08a7 00       		.byte	0
 3511 08a8 18       		.uleb128 0x18
 3512 08a9 9E000000 		.4byte	.LVL54
 3513 08ad 70190000 		.4byte	0x1970
 3514 08b1 BC080000 		.4byte	0x8bc
 3515 08b5 17       		.uleb128 0x17
 3516 08b6 01       		.uleb128 0x1
 3517 08b7 50       		.byte	0x50
 3518 08b8 02       		.uleb128 0x2
 3519 08b9 76       		.byte	0x76
 3520 08ba 00       		.sleb128 0
 3521 08bb 00       		.byte	0
 3522 08bc 16       		.uleb128 0x16
 3523 08bd A4000000 		.4byte	.LVL55
 3524 08c1 5A190000 		.4byte	0x195a
 3525 08c5 17       		.uleb128 0x17
 3526 08c6 01       		.uleb128 0x1
 3527 08c7 50       		.byte	0x50
 3528 08c8 02       		.uleb128 0x2
 3529 08c9 74       		.byte	0x74
 3530 08ca 00       		.sleb128 0
 3531 08cb 00       		.byte	0
 3532 08cc 00       		.byte	0
 3533 08cd 19       		.uleb128 0x19
 3534 08ce 0A000000 		.4byte	.LVL32
 3535 08d2 7B190000 		.4byte	0x197b
 3536 08d6 16       		.uleb128 0x16
 3537 08d7 10000000 		.4byte	.LVL33
 3538 08db 86190000 		.4byte	0x1986
ARM GAS  C:\Users\Phuong\AppData\Local\Temp\cc32RpHN.s 			page 79


 3539 08df 17       		.uleb128 0x17
 3540 08e0 01       		.uleb128 0x1
 3541 08e1 51       		.byte	0x51
 3542 08e2 01       		.uleb128 0x1
 3543 08e3 30       		.byte	0x30
 3544 08e4 00       		.byte	0
 3545 08e5 00       		.byte	0
 3546 08e6 1D       		.uleb128 0x1d
 3547 08e7 A4000000 		.4byte	0xa4
 3548 08eb F6080000 		.4byte	0x8f6
 3549 08ef 1E       		.uleb128 0x1e
 3550 08f0 88000000 		.4byte	0x88
 3551 08f4 16       		.byte	0x16
 3552 08f5 00       		.byte	0
 3553 08f6 07       		.uleb128 0x7
 3554 08f7 E6080000 		.4byte	0x8e6
 3555 08fb 1F       		.uleb128 0x1f
 3556 08fc 030A0000 		.4byte	.LASF109
 3557 0900 01       		.byte	0x1
 3558 0901 A3       		.byte	0xa3
 3559 0902 37000000 		.4byte	0x37
 3560 0906 00000000 		.4byte	.LFB9
 3561 090a 64010000 		.4byte	.LFE9-.LFB9
 3562 090e 01       		.uleb128 0x1
 3563 090f 9C       		.byte	0x9c
 3564 0910 E40B0000 		.4byte	0xbe4
 3565 0914 12       		.uleb128 0x12
 3566 0915 F1030000 		.4byte	.LASF93
 3567 0919 01       		.byte	0x1
 3568 091a A3       		.byte	0xa3
 3569 091b AF040000 		.4byte	0x4af
 3570 091f 29040000 		.4byte	.LLST20
 3571 0923 14       		.uleb128 0x14
 3572 0924 42030000 		.4byte	.LASF106
 3573 0928 01       		.byte	0x1
 3574 0929 A5       		.byte	0xa5
 3575 092a 37000000 		.4byte	0x37
 3576 092e D2040000 		.4byte	.LLST21
 3577 0932 14       		.uleb128 0x14
 3578 0933 1C0A0000 		.4byte	.LASF110
 3579 0937 01       		.byte	0x1
 3580 0938 A6       		.byte	0xa6
 3581 0939 91000000 		.4byte	0x91
 3582 093d 7E050000 		.4byte	.LLST22
 3583 0941 14       		.uleb128 0x14
 3584 0942 63000000 		.4byte	.LASF111
 3585 0946 01       		.byte	0x1
 3586 0947 A7       		.byte	0xa7
 3587 0948 B0000000 		.4byte	0xb0
 3588 094c BE050000 		.4byte	.LLST23
 3589 0950 1A       		.uleb128 0x1a
 3590 0951 4A0C0000 		.4byte	.LASF105
 3591 0955 F40B0000 		.4byte	0xbf4
 3592 0959 05       		.uleb128 0x5
 3593 095a 03       		.byte	0x3
 3594 095b 40000000 		.4byte	__func__.7287
 3595 095f 20       		.uleb128 0x20
ARM GAS  C:\Users\Phuong\AppData\Local\Temp\cc32RpHN.s 			page 80


 3596 0960 18000000 		.4byte	.LBB9
 3597 0964 1E000000 		.4byte	.LBE9-.LBB9
 3598 0968 B9090000 		.4byte	0x9b9
 3599 096c 1B       		.uleb128 0x1b
 3600 096d 6C00     		.ascii	"l\000"
 3601 096f 01       		.byte	0x1
 3602 0970 B7       		.byte	0xb7
 3603 0971 60030000 		.4byte	0x360
 3604 0975 D1050000 		.4byte	.LLST24
 3605 0979 19       		.uleb128 0x19
 3606 097a 1C000000 		.4byte	.LVL67
 3607 097e 39190000 		.4byte	0x1939
 3608 0982 1C       		.uleb128 0x1c
 3609 0983 36000000 		.4byte	.LVL70
 3610 0987 02       		.uleb128 0x2
 3611 0988 75       		.byte	0x75
 3612 0989 00       		.sleb128 0
 3613 098a 17       		.uleb128 0x17
 3614 098b 01       		.uleb128 0x1
 3615 098c 50       		.byte	0x50
 3616 098d 01       		.uleb128 0x1
 3617 098e 30       		.byte	0x30
 3618 098f 17       		.uleb128 0x17
 3619 0990 01       		.uleb128 0x1
 3620 0991 51       		.byte	0x51
 3621 0992 05       		.uleb128 0x5
 3622 0993 03       		.byte	0x3
 3623 0994 00000000 		.4byte	.LC1
 3624 0998 17       		.uleb128 0x17
 3625 0999 01       		.uleb128 0x1
 3626 099a 52       		.byte	0x52
 3627 099b 05       		.uleb128 0x5
 3628 099c 03       		.byte	0x3
 3629 099d 40000000 		.4byte	.LANCHOR0+64
 3630 09a1 17       		.uleb128 0x17
 3631 09a2 01       		.uleb128 0x1
 3632 09a3 53       		.byte	0x53
 3633 09a4 02       		.uleb128 0x2
 3634 09a5 08       		.byte	0x8
 3635 09a6 B7       		.byte	0xb7
 3636 09a7 17       		.uleb128 0x17
 3637 09a8 02       		.uleb128 0x2
 3638 09a9 7D       		.byte	0x7d
 3639 09aa 00       		.sleb128 0
 3640 09ab 01       		.uleb128 0x1
 3641 09ac 31       		.byte	0x31
 3642 09ad 17       		.uleb128 0x17
 3643 09ae 02       		.uleb128 0x2
 3644 09af 7D       		.byte	0x7d
 3645 09b0 04       		.sleb128 4
 3646 09b1 05       		.uleb128 0x5
 3647 09b2 03       		.byte	0x3
 3648 09b3 4C010000 		.4byte	.LC21
 3649 09b7 00       		.byte	0
 3650 09b8 00       		.byte	0
 3651 09b9 20       		.uleb128 0x20
 3652 09ba 4E000000 		.4byte	.LBB10
ARM GAS  C:\Users\Phuong\AppData\Local\Temp\cc32RpHN.s 			page 81


 3653 09be 1C000000 		.4byte	.LBE10-.LBB10
 3654 09c2 130A0000 		.4byte	0xa13
 3655 09c6 1B       		.uleb128 0x1b
 3656 09c7 6C00     		.ascii	"l\000"
 3657 09c9 01       		.byte	0x1
 3658 09ca C0       		.byte	0xc0
 3659 09cb 60030000 		.4byte	0x360
 3660 09cf FA050000 		.4byte	.LLST25
 3661 09d3 19       		.uleb128 0x19
 3662 09d4 52000000 		.4byte	.LVL76
 3663 09d8 39190000 		.4byte	0x1939
 3664 09dc 1C       		.uleb128 0x1c
 3665 09dd 6A000000 		.4byte	.LVL79
 3666 09e1 02       		.uleb128 0x2
 3667 09e2 75       		.byte	0x75
 3668 09e3 00       		.sleb128 0
 3669 09e4 17       		.uleb128 0x17
 3670 09e5 01       		.uleb128 0x1
 3671 09e6 50       		.byte	0x50
 3672 09e7 01       		.uleb128 0x1
 3673 09e8 30       		.byte	0x30
 3674 09e9 17       		.uleb128 0x17
 3675 09ea 01       		.uleb128 0x1
 3676 09eb 51       		.byte	0x51
 3677 09ec 05       		.uleb128 0x5
 3678 09ed 03       		.byte	0x3
 3679 09ee 00000000 		.4byte	.LC1
 3680 09f2 17       		.uleb128 0x17
 3681 09f3 01       		.uleb128 0x1
 3682 09f4 52       		.byte	0x52
 3683 09f5 05       		.uleb128 0x5
 3684 09f6 03       		.byte	0x3
 3685 09f7 40000000 		.4byte	.LANCHOR0+64
 3686 09fb 17       		.uleb128 0x17
 3687 09fc 01       		.uleb128 0x1
 3688 09fd 53       		.byte	0x53
 3689 09fe 02       		.uleb128 0x2
 3690 09ff 08       		.byte	0x8
 3691 0a00 C0       		.byte	0xc0
 3692 0a01 17       		.uleb128 0x17
 3693 0a02 02       		.uleb128 0x2
 3694 0a03 7D       		.byte	0x7d
 3695 0a04 00       		.sleb128 0
 3696 0a05 01       		.uleb128 0x1
 3697 0a06 31       		.byte	0x31
 3698 0a07 17       		.uleb128 0x17
 3699 0a08 02       		.uleb128 0x2
 3700 0a09 7D       		.byte	0x7d
 3701 0a0a 04       		.sleb128 4
 3702 0a0b 05       		.uleb128 0x5
 3703 0a0c 03       		.byte	0x3
 3704 0a0d 98010000 		.4byte	.LC23
 3705 0a11 00       		.byte	0
 3706 0a12 00       		.byte	0
 3707 0a13 20       		.uleb128 0x20
 3708 0a14 94000000 		.4byte	.LBB11
 3709 0a18 1C000000 		.4byte	.LBE11-.LBB11
ARM GAS  C:\Users\Phuong\AppData\Local\Temp\cc32RpHN.s 			page 82


 3710 0a1c 6D0A0000 		.4byte	0xa6d
 3711 0a20 1B       		.uleb128 0x1b
 3712 0a21 6C00     		.ascii	"l\000"
 3713 0a23 01       		.byte	0x1
 3714 0a24 C8       		.byte	0xc8
 3715 0a25 60030000 		.4byte	0x360
 3716 0a29 23060000 		.4byte	.LLST26
 3717 0a2d 19       		.uleb128 0x19
 3718 0a2e 98000000 		.4byte	.LVL85
 3719 0a32 39190000 		.4byte	0x1939
 3720 0a36 1C       		.uleb128 0x1c
 3721 0a37 B0000000 		.4byte	.LVL88
 3722 0a3b 02       		.uleb128 0x2
 3723 0a3c 75       		.byte	0x75
 3724 0a3d 00       		.sleb128 0
 3725 0a3e 17       		.uleb128 0x17
 3726 0a3f 01       		.uleb128 0x1
 3727 0a40 50       		.byte	0x50
 3728 0a41 01       		.uleb128 0x1
 3729 0a42 30       		.byte	0x30
 3730 0a43 17       		.uleb128 0x17
 3731 0a44 01       		.uleb128 0x1
 3732 0a45 51       		.byte	0x51
 3733 0a46 05       		.uleb128 0x5
 3734 0a47 03       		.byte	0x3
 3735 0a48 00000000 		.4byte	.LC1
 3736 0a4c 17       		.uleb128 0x17
 3737 0a4d 01       		.uleb128 0x1
 3738 0a4e 52       		.byte	0x52
 3739 0a4f 05       		.uleb128 0x5
 3740 0a50 03       		.byte	0x3
 3741 0a51 40000000 		.4byte	.LANCHOR0+64
 3742 0a55 17       		.uleb128 0x17
 3743 0a56 01       		.uleb128 0x1
 3744 0a57 53       		.byte	0x53
 3745 0a58 02       		.uleb128 0x2
 3746 0a59 08       		.byte	0x8
 3747 0a5a C8       		.byte	0xc8
 3748 0a5b 17       		.uleb128 0x17
 3749 0a5c 02       		.uleb128 0x2
 3750 0a5d 7D       		.byte	0x7d
 3751 0a5e 00       		.sleb128 0
 3752 0a5f 01       		.uleb128 0x1
 3753 0a60 31       		.byte	0x31
 3754 0a61 17       		.uleb128 0x17
 3755 0a62 02       		.uleb128 0x2
 3756 0a63 7D       		.byte	0x7d
 3757 0a64 04       		.sleb128 4
 3758 0a65 05       		.uleb128 0x5
 3759 0a66 03       		.byte	0x3
 3760 0a67 D8010000 		.4byte	.LC27
 3761 0a6b 00       		.byte	0
 3762 0a6c 00       		.byte	0
 3763 0a6d 20       		.uleb128 0x20
 3764 0a6e C4000000 		.4byte	.LBB12
 3765 0a72 1C000000 		.4byte	.LBE12-.LBB12
 3766 0a76 C70A0000 		.4byte	0xac7
ARM GAS  C:\Users\Phuong\AppData\Local\Temp\cc32RpHN.s 			page 83


 3767 0a7a 1B       		.uleb128 0x1b
 3768 0a7b 6C00     		.ascii	"l\000"
 3769 0a7d 01       		.byte	0x1
 3770 0a7e CE       		.byte	0xce
 3771 0a7f 60030000 		.4byte	0x360
 3772 0a83 4C060000 		.4byte	.LLST27
 3773 0a87 19       		.uleb128 0x19
 3774 0a88 C8000000 		.4byte	.LVL93
 3775 0a8c 39190000 		.4byte	0x1939
 3776 0a90 1C       		.uleb128 0x1c
 3777 0a91 E0000000 		.4byte	.LVL96
 3778 0a95 02       		.uleb128 0x2
 3779 0a96 75       		.byte	0x75
 3780 0a97 00       		.sleb128 0
 3781 0a98 17       		.uleb128 0x17
 3782 0a99 01       		.uleb128 0x1
 3783 0a9a 50       		.byte	0x50
 3784 0a9b 01       		.uleb128 0x1
 3785 0a9c 30       		.byte	0x30
 3786 0a9d 17       		.uleb128 0x17
 3787 0a9e 01       		.uleb128 0x1
 3788 0a9f 51       		.byte	0x51
 3789 0aa0 05       		.uleb128 0x5
 3790 0aa1 03       		.byte	0x3
 3791 0aa2 00000000 		.4byte	.LC1
 3792 0aa6 17       		.uleb128 0x17
 3793 0aa7 01       		.uleb128 0x1
 3794 0aa8 52       		.byte	0x52
 3795 0aa9 05       		.uleb128 0x5
 3796 0aaa 03       		.byte	0x3
 3797 0aab 40000000 		.4byte	.LANCHOR0+64
 3798 0aaf 17       		.uleb128 0x17
 3799 0ab0 01       		.uleb128 0x1
 3800 0ab1 53       		.byte	0x53
 3801 0ab2 02       		.uleb128 0x2
 3802 0ab3 08       		.byte	0x8
 3803 0ab4 CE       		.byte	0xce
 3804 0ab5 17       		.uleb128 0x17
 3805 0ab6 02       		.uleb128 0x2
 3806 0ab7 7D       		.byte	0x7d
 3807 0ab8 00       		.sleb128 0
 3808 0ab9 01       		.uleb128 0x1
 3809 0aba 31       		.byte	0x31
 3810 0abb 17       		.uleb128 0x17
 3811 0abc 02       		.uleb128 0x2
 3812 0abd 7D       		.byte	0x7d
 3813 0abe 04       		.sleb128 4
 3814 0abf 05       		.uleb128 0x5
 3815 0ac0 03       		.byte	0x3
 3816 0ac1 18020000 		.4byte	.LC29
 3817 0ac5 00       		.byte	0
 3818 0ac6 00       		.byte	0
 3819 0ac7 20       		.uleb128 0x20
 3820 0ac8 F2000000 		.4byte	.LBB13
 3821 0acc 1C000000 		.4byte	.LBE13-.LBB13
 3822 0ad0 210B0000 		.4byte	0xb21
 3823 0ad4 1B       		.uleb128 0x1b
ARM GAS  C:\Users\Phuong\AppData\Local\Temp\cc32RpHN.s 			page 84


 3824 0ad5 6C00     		.ascii	"l\000"
 3825 0ad7 01       		.byte	0x1
 3826 0ad8 D4       		.byte	0xd4
 3827 0ad9 60030000 		.4byte	0x360
 3828 0add 75060000 		.4byte	.LLST28
 3829 0ae1 19       		.uleb128 0x19
 3830 0ae2 F6000000 		.4byte	.LVL101
 3831 0ae6 39190000 		.4byte	0x1939
 3832 0aea 1C       		.uleb128 0x1c
 3833 0aeb 0E010000 		.4byte	.LVL104
 3834 0aef 02       		.uleb128 0x2
 3835 0af0 75       		.byte	0x75
 3836 0af1 00       		.sleb128 0
 3837 0af2 17       		.uleb128 0x17
 3838 0af3 01       		.uleb128 0x1
 3839 0af4 50       		.byte	0x50
 3840 0af5 01       		.uleb128 0x1
 3841 0af6 30       		.byte	0x30
 3842 0af7 17       		.uleb128 0x17
 3843 0af8 01       		.uleb128 0x1
 3844 0af9 51       		.byte	0x51
 3845 0afa 05       		.uleb128 0x5
 3846 0afb 03       		.byte	0x3
 3847 0afc 00000000 		.4byte	.LC1
 3848 0b00 17       		.uleb128 0x17
 3849 0b01 01       		.uleb128 0x1
 3850 0b02 52       		.byte	0x52
 3851 0b03 05       		.uleb128 0x5
 3852 0b04 03       		.byte	0x3
 3853 0b05 40000000 		.4byte	.LANCHOR0+64
 3854 0b09 17       		.uleb128 0x17
 3855 0b0a 01       		.uleb128 0x1
 3856 0b0b 53       		.byte	0x53
 3857 0b0c 02       		.uleb128 0x2
 3858 0b0d 08       		.byte	0x8
 3859 0b0e D4       		.byte	0xd4
 3860 0b0f 17       		.uleb128 0x17
 3861 0b10 02       		.uleb128 0x2
 3862 0b11 7D       		.byte	0x7d
 3863 0b12 00       		.sleb128 0
 3864 0b13 01       		.uleb128 0x1
 3865 0b14 31       		.byte	0x31
 3866 0b15 17       		.uleb128 0x17
 3867 0b16 02       		.uleb128 0x2
 3868 0b17 7D       		.byte	0x7d
 3869 0b18 04       		.sleb128 4
 3870 0b19 05       		.uleb128 0x5
 3871 0b1a 03       		.byte	0x3
 3872 0b1b 64020000 		.4byte	.LC31
 3873 0b1f 00       		.byte	0
 3874 0b20 00       		.byte	0
 3875 0b21 18       		.uleb128 0x18
 3876 0b22 14000000 		.4byte	.LVL64
 3877 0b26 91190000 		.4byte	0x1991
 3878 0b2a 350B0000 		.4byte	0xb35
 3879 0b2e 17       		.uleb128 0x17
 3880 0b2f 01       		.uleb128 0x1
ARM GAS  C:\Users\Phuong\AppData\Local\Temp\cc32RpHN.s 			page 85


 3881 0b30 50       		.byte	0x50
 3882 0b31 02       		.uleb128 0x2
 3883 0b32 08       		.byte	0x8
 3884 0b33 29       		.byte	0x29
 3885 0b34 00       		.byte	0
 3886 0b35 18       		.uleb128 0x18
 3887 0b36 42000000 		.4byte	.LVL73
 3888 0b3a 9C190000 		.4byte	0x199c
 3889 0b3e 4E0B0000 		.4byte	0xb4e
 3890 0b42 17       		.uleb128 0x17
 3891 0b43 01       		.uleb128 0x1
 3892 0b44 51       		.byte	0x51
 3893 0b45 01       		.uleb128 0x1
 3894 0b46 30       		.byte	0x30
 3895 0b47 17       		.uleb128 0x17
 3896 0b48 01       		.uleb128 0x1
 3897 0b49 52       		.byte	0x52
 3898 0b4a 02       		.uleb128 0x2
 3899 0b4b 08       		.byte	0x8
 3900 0b4c 29       		.byte	0x29
 3901 0b4d 00       		.byte	0
 3902 0b4e 18       		.uleb128 0x18
 3903 0b4f 4A000000 		.4byte	.LVL74
 3904 0b53 A5190000 		.4byte	0x19a5
 3905 0b57 680B0000 		.4byte	0xb68
 3906 0b5b 17       		.uleb128 0x17
 3907 0b5c 01       		.uleb128 0x1
 3908 0b5d 50       		.byte	0x50
 3909 0b5e 02       		.uleb128 0x2
 3910 0b5f 74       		.byte	0x74
 3911 0b60 00       		.sleb128 0
 3912 0b61 17       		.uleb128 0x17
 3913 0b62 01       		.uleb128 0x1
 3914 0b63 51       		.byte	0x51
 3915 0b64 02       		.uleb128 0x2
 3916 0b65 08       		.byte	0x8
 3917 0b66 28       		.byte	0x28
 3918 0b67 00       		.byte	0
 3919 0b68 19       		.uleb128 0x19
 3920 0b69 74000000 		.4byte	.LVL82
 3921 0b6d B0190000 		.4byte	0x19b0
 3922 0b71 18       		.uleb128 0x18
 3923 0b72 8E000000 		.4byte	.LVL83
 3924 0b76 BB190000 		.4byte	0x19bb
 3925 0b7a B80B0000 		.4byte	0xbb8
 3926 0b7e 17       		.uleb128 0x17
 3927 0b7f 01       		.uleb128 0x1
 3928 0b80 50       		.byte	0x50
 3929 0b81 02       		.uleb128 0x2
 3930 0b82 76       		.byte	0x76
 3931 0b83 00       		.sleb128 0
 3932 0b84 17       		.uleb128 0x17
 3933 0b85 01       		.uleb128 0x1
 3934 0b86 52       		.byte	0x52
 3935 0b87 02       		.uleb128 0x2
 3936 0b88 74       		.byte	0x74
 3937 0b89 00       		.sleb128 0
ARM GAS  C:\Users\Phuong\AppData\Local\Temp\cc32RpHN.s 			page 86


 3938 0b8a 17       		.uleb128 0x17
 3939 0b8b 01       		.uleb128 0x1
 3940 0b8c 53       		.byte	0x53
 3941 0b8d 01       		.uleb128 0x1
 3942 0b8e 30       		.byte	0x30
 3943 0b8f 17       		.uleb128 0x17
 3944 0b90 02       		.uleb128 0x2
 3945 0b91 7D       		.byte	0x7d
 3946 0b92 00       		.sleb128 0
 3947 0b93 01       		.uleb128 0x1
 3948 0b94 30       		.byte	0x30
 3949 0b95 17       		.uleb128 0x17
 3950 0b96 02       		.uleb128 0x2
 3951 0b97 7D       		.byte	0x7d
 3952 0b98 04       		.sleb128 4
 3953 0b99 05       		.uleb128 0x5
 3954 0b9a 03       		.byte	0x3
 3955 0b9b 00000000 		.4byte	on_connection_state_changed
 3956 0b9f 17       		.uleb128 0x17
 3957 0ba0 02       		.uleb128 0x2
 3958 0ba1 7D       		.byte	0x7d
 3959 0ba2 08       		.sleb128 8
 3960 0ba3 02       		.uleb128 0x2
 3961 0ba4 75       		.byte	0x75
 3962 0ba5 00       		.sleb128 0
 3963 0ba6 17       		.uleb128 0x17
 3964 0ba7 02       		.uleb128 0x2
 3965 0ba8 7D       		.byte	0x7d
 3966 0ba9 0C       		.sleb128 12
 3967 0baa 05       		.uleb128 0x5
 3968 0bab 03       		.byte	0x3
 3969 0bac 00000000 		.4byte	on_connection_io_error
 3970 0bb0 17       		.uleb128 0x17
 3971 0bb1 02       		.uleb128 0x2
 3972 0bb2 7D       		.byte	0x7d
 3973 0bb3 10       		.sleb128 16
 3974 0bb4 02       		.uleb128 0x2
 3975 0bb5 75       		.byte	0x75
 3976 0bb6 00       		.sleb128 0
 3977 0bb7 00       		.byte	0
 3978 0bb8 19       		.uleb128 0x19
 3979 0bb9 C0000000 		.4byte	.LVL91
 3980 0bbd C6190000 		.4byte	0x19c6
 3981 0bc1 19       		.uleb128 0x19
 3982 0bc2 EE000000 		.4byte	.LVL99
 3983 0bc6 D1190000 		.4byte	0x19d1
 3984 0bca 19       		.uleb128 0x19
 3985 0bcb 1A010000 		.4byte	.LVL107
 3986 0bcf DC190000 		.4byte	0x19dc
 3987 0bd3 16       		.uleb128 0x16
 3988 0bd4 3A010000 		.4byte	.LVL115
 3989 0bd8 E7190000 		.4byte	0x19e7
 3990 0bdc 17       		.uleb128 0x17
 3991 0bdd 01       		.uleb128 0x1
 3992 0bde 50       		.byte	0x50
 3993 0bdf 02       		.uleb128 0x2
 3994 0be0 74       		.byte	0x74
ARM GAS  C:\Users\Phuong\AppData\Local\Temp\cc32RpHN.s 			page 87


 3995 0be1 00       		.sleb128 0
 3996 0be2 00       		.byte	0
 3997 0be3 00       		.byte	0
 3998 0be4 1D       		.uleb128 0x1d
 3999 0be5 A4000000 		.4byte	0xa4
 4000 0be9 F40B0000 		.4byte	0xbf4
 4001 0bed 1E       		.uleb128 0x1e
 4002 0bee 88000000 		.4byte	0x88
 4003 0bf2 18       		.byte	0x18
 4004 0bf3 00       		.byte	0
 4005 0bf4 07       		.uleb128 0x7
 4006 0bf5 E40B0000 		.4byte	0xbe4
 4007 0bf9 1F       		.uleb128 0x1f
 4008 0bfa 5C090000 		.4byte	.LASF112
 4009 0bfe 01       		.byte	0x1
 4010 0bff E7       		.byte	0xe7
 4011 0c00 37000000 		.4byte	0x37
 4012 0c04 00000000 		.4byte	.LFB10
 4013 0c08 AC000000 		.4byte	.LFE10-.LFB10
 4014 0c0c 01       		.uleb128 0x1
 4015 0c0d 9C       		.byte	0x9c
 4016 0c0e 8A0D0000 		.4byte	0xd8a
 4017 0c12 12       		.uleb128 0x12
 4018 0c13 F1030000 		.4byte	.LASF93
 4019 0c17 01       		.byte	0x1
 4020 0c18 E7       		.byte	0xe7
 4021 0c19 AF040000 		.4byte	0x4af
 4022 0c1d 9E060000 		.4byte	.LLST29
 4023 0c21 14       		.uleb128 0x14
 4024 0c22 42030000 		.4byte	.LASF106
 4025 0c26 01       		.byte	0x1
 4026 0c27 E9       		.byte	0xe9
 4027 0c28 37000000 		.4byte	0x37
 4028 0c2c FC060000 		.4byte	.LLST30
 4029 0c30 1A       		.uleb128 0x1a
 4030 0c31 4A0C0000 		.4byte	.LASF105
 4031 0c35 9A0D0000 		.4byte	0xd9a
 4032 0c39 05       		.uleb128 0x5
 4033 0c3a 03       		.byte	0x3
 4034 0c3b 5C000000 		.4byte	__func__.7307
 4035 0c3f 20       		.uleb128 0x20
 4036 0c40 16000000 		.4byte	.LBB14
 4037 0c44 1C000000 		.4byte	.LBE14-.LBB14
 4038 0c48 990C0000 		.4byte	0xc99
 4039 0c4c 1B       		.uleb128 0x1b
 4040 0c4d 6C00     		.ascii	"l\000"
 4041 0c4f 01       		.byte	0x1
 4042 0c50 F0       		.byte	0xf0
 4043 0c51 60030000 		.4byte	0x360
 4044 0c55 29070000 		.4byte	.LLST31
 4045 0c59 19       		.uleb128 0x19
 4046 0c5a 1A000000 		.4byte	.LVL123
 4047 0c5e 39190000 		.4byte	0x1939
 4048 0c62 1C       		.uleb128 0x1c
 4049 0c63 32000000 		.4byte	.LVL126
 4050 0c67 02       		.uleb128 0x2
 4051 0c68 74       		.byte	0x74
ARM GAS  C:\Users\Phuong\AppData\Local\Temp\cc32RpHN.s 			page 88


 4052 0c69 00       		.sleb128 0
 4053 0c6a 17       		.uleb128 0x17
 4054 0c6b 01       		.uleb128 0x1
 4055 0c6c 50       		.byte	0x50
 4056 0c6d 01       		.uleb128 0x1
 4057 0c6e 30       		.byte	0x30
 4058 0c6f 17       		.uleb128 0x17
 4059 0c70 01       		.uleb128 0x1
 4060 0c71 51       		.byte	0x51
 4061 0c72 05       		.uleb128 0x5
 4062 0c73 03       		.byte	0x3
 4063 0c74 00000000 		.4byte	.LC1
 4064 0c78 17       		.uleb128 0x17
 4065 0c79 01       		.uleb128 0x1
 4066 0c7a 52       		.byte	0x52
 4067 0c7b 05       		.uleb128 0x5
 4068 0c7c 03       		.byte	0x3
 4069 0c7d 5C000000 		.4byte	.LANCHOR0+92
 4070 0c81 17       		.uleb128 0x17
 4071 0c82 01       		.uleb128 0x1
 4072 0c83 53       		.byte	0x53
 4073 0c84 02       		.uleb128 0x2
 4074 0c85 08       		.byte	0x8
 4075 0c86 F0       		.byte	0xf0
 4076 0c87 17       		.uleb128 0x17
 4077 0c88 02       		.uleb128 0x2
 4078 0c89 7D       		.byte	0x7d
 4079 0c8a 00       		.sleb128 0
 4080 0c8b 01       		.uleb128 0x1
 4081 0c8c 31       		.byte	0x31
 4082 0c8d 17       		.uleb128 0x17
 4083 0c8e 02       		.uleb128 0x2
 4084 0c8f 7D       		.byte	0x7d
 4085 0c90 04       		.sleb128 4
 4086 0c91 05       		.uleb128 0x5
 4087 0c92 03       		.byte	0x3
 4088 0c93 D8010000 		.4byte	.LC27
 4089 0c97 00       		.byte	0
 4090 0c98 00       		.byte	0
 4091 0c99 20       		.uleb128 0x20
 4092 0c9a 42000000 		.4byte	.LBB15
 4093 0c9e 1C000000 		.4byte	.LBE15-.LBB15
 4094 0ca2 F30C0000 		.4byte	0xcf3
 4095 0ca6 1B       		.uleb128 0x1b
 4096 0ca7 6C00     		.ascii	"l\000"
 4097 0ca9 01       		.byte	0x1
 4098 0caa F7       		.byte	0xf7
 4099 0cab 60030000 		.4byte	0x360
 4100 0caf 5D070000 		.4byte	.LLST32
 4101 0cb3 19       		.uleb128 0x19
 4102 0cb4 46000000 		.4byte	.LVL129
 4103 0cb8 39190000 		.4byte	0x1939
 4104 0cbc 1C       		.uleb128 0x1c
 4105 0cbd 5E000000 		.4byte	.LVL132
 4106 0cc1 02       		.uleb128 0x2
 4107 0cc2 75       		.byte	0x75
 4108 0cc3 00       		.sleb128 0
ARM GAS  C:\Users\Phuong\AppData\Local\Temp\cc32RpHN.s 			page 89


 4109 0cc4 17       		.uleb128 0x17
 4110 0cc5 01       		.uleb128 0x1
 4111 0cc6 50       		.byte	0x50
 4112 0cc7 01       		.uleb128 0x1
 4113 0cc8 30       		.byte	0x30
 4114 0cc9 17       		.uleb128 0x17
 4115 0cca 01       		.uleb128 0x1
 4116 0ccb 51       		.byte	0x51
 4117 0ccc 05       		.uleb128 0x5
 4118 0ccd 03       		.byte	0x3
 4119 0cce 00000000 		.4byte	.LC1
 4120 0cd2 17       		.uleb128 0x17
 4121 0cd3 01       		.uleb128 0x1
 4122 0cd4 52       		.byte	0x52
 4123 0cd5 05       		.uleb128 0x5
 4124 0cd6 03       		.byte	0x3
 4125 0cd7 5C000000 		.4byte	.LANCHOR0+92
 4126 0cdb 17       		.uleb128 0x17
 4127 0cdc 01       		.uleb128 0x1
 4128 0cdd 53       		.byte	0x53
 4129 0cde 02       		.uleb128 0x2
 4130 0cdf 08       		.byte	0x8
 4131 0ce0 F7       		.byte	0xf7
 4132 0ce1 17       		.uleb128 0x17
 4133 0ce2 02       		.uleb128 0x2
 4134 0ce3 7D       		.byte	0x7d
 4135 0ce4 00       		.sleb128 0
 4136 0ce5 01       		.uleb128 0x1
 4137 0ce6 31       		.byte	0x31
 4138 0ce7 17       		.uleb128 0x17
 4139 0ce8 02       		.uleb128 0x2
 4140 0ce9 7D       		.byte	0x7d
 4141 0cea 04       		.sleb128 4
 4142 0ceb 05       		.uleb128 0x5
 4143 0cec 03       		.byte	0x3
 4144 0ced C4020000 		.4byte	.LC36
 4145 0cf1 00       		.byte	0
 4146 0cf2 00       		.byte	0
 4147 0cf3 20       		.uleb128 0x20
 4148 0cf4 6A000000 		.4byte	.LBB16
 4149 0cf8 1C000000 		.4byte	.LBE16-.LBB16
 4150 0cfc 4D0D0000 		.4byte	0xd4d
 4151 0d00 1B       		.uleb128 0x1b
 4152 0d01 6C00     		.ascii	"l\000"
 4153 0d03 01       		.byte	0x1
 4154 0d04 FD       		.byte	0xfd
 4155 0d05 60030000 		.4byte	0x360
 4156 0d09 7B070000 		.4byte	.LLST33
 4157 0d0d 19       		.uleb128 0x19
 4158 0d0e 6E000000 		.4byte	.LVL134
 4159 0d12 39190000 		.4byte	0x1939
 4160 0d16 1C       		.uleb128 0x1c
 4161 0d17 86000000 		.4byte	.LVL137
 4162 0d1b 02       		.uleb128 0x2
 4163 0d1c 74       		.byte	0x74
 4164 0d1d 00       		.sleb128 0
 4165 0d1e 17       		.uleb128 0x17
ARM GAS  C:\Users\Phuong\AppData\Local\Temp\cc32RpHN.s 			page 90


 4166 0d1f 01       		.uleb128 0x1
 4167 0d20 50       		.byte	0x50
 4168 0d21 01       		.uleb128 0x1
 4169 0d22 30       		.byte	0x30
 4170 0d23 17       		.uleb128 0x17
 4171 0d24 01       		.uleb128 0x1
 4172 0d25 51       		.byte	0x51
 4173 0d26 05       		.uleb128 0x5
 4174 0d27 03       		.byte	0x3
 4175 0d28 00000000 		.4byte	.LC1
 4176 0d2c 17       		.uleb128 0x17
 4177 0d2d 01       		.uleb128 0x1
 4178 0d2e 52       		.byte	0x52
 4179 0d2f 05       		.uleb128 0x5
 4180 0d30 03       		.byte	0x3
 4181 0d31 5C000000 		.4byte	.LANCHOR0+92
 4182 0d35 17       		.uleb128 0x17
 4183 0d36 01       		.uleb128 0x1
 4184 0d37 53       		.byte	0x53
 4185 0d38 02       		.uleb128 0x2
 4186 0d39 08       		.byte	0x8
 4187 0d3a FD       		.byte	0xfd
 4188 0d3b 17       		.uleb128 0x17
 4189 0d3c 02       		.uleb128 0x2
 4190 0d3d 7D       		.byte	0x7d
 4191 0d3e 00       		.sleb128 0
 4192 0d3f 01       		.uleb128 0x1
 4193 0d40 31       		.byte	0x31
 4194 0d41 17       		.uleb128 0x17
 4195 0d42 02       		.uleb128 0x2
 4196 0d43 7D       		.byte	0x7d
 4197 0d44 04       		.sleb128 4
 4198 0d45 05       		.uleb128 0x5
 4199 0d46 03       		.byte	0x3
 4200 0d47 FC020000 		.4byte	.LC38
 4201 0d4b 00       		.byte	0
 4202 0d4c 00       		.byte	0
 4203 0d4d 18       		.uleb128 0x18
 4204 0d4e 10000000 		.4byte	.LVL121
 4205 0d52 F2190000 		.4byte	0x19f2
 4206 0d56 650D0000 		.4byte	0xd65
 4207 0d5a 17       		.uleb128 0x17
 4208 0d5b 01       		.uleb128 0x1
 4209 0d5c 51       		.byte	0x51
 4210 0d5d 01       		.uleb128 0x1
 4211 0d5e 30       		.byte	0x30
 4212 0d5f 17       		.uleb128 0x17
 4213 0d60 01       		.uleb128 0x1
 4214 0d61 52       		.byte	0x52
 4215 0d62 01       		.uleb128 0x1
 4216 0d63 30       		.byte	0x30
 4217 0d64 00       		.byte	0
 4218 0d65 18       		.uleb128 0x18
 4219 0d66 3E000000 		.4byte	.LVL128
 4220 0d6a FD190000 		.4byte	0x19fd
 4221 0d6e 790D0000 		.4byte	0xd79
 4222 0d72 17       		.uleb128 0x17
ARM GAS  C:\Users\Phuong\AppData\Local\Temp\cc32RpHN.s 			page 91


 4223 0d73 01       		.uleb128 0x1
 4224 0d74 51       		.byte	0x51
 4225 0d75 02       		.uleb128 0x2
 4226 0d76 09       		.byte	0x9
 4227 0d77 FF       		.byte	0xff
 4228 0d78 00       		.byte	0
 4229 0d79 16       		.uleb128 0x16
 4230 0d7a 66000000 		.4byte	.LVL133
 4231 0d7e 081A0000 		.4byte	0x1a08
 4232 0d82 17       		.uleb128 0x17
 4233 0d83 01       		.uleb128 0x1
 4234 0d84 51       		.byte	0x51
 4235 0d85 02       		.uleb128 0x2
 4236 0d86 08       		.byte	0x8
 4237 0d87 64       		.byte	0x64
 4238 0d88 00       		.byte	0
 4239 0d89 00       		.byte	0
 4240 0d8a 1D       		.uleb128 0x1d
 4241 0d8b A4000000 		.4byte	0xa4
 4242 0d8f 9A0D0000 		.4byte	0xd9a
 4243 0d93 1E       		.uleb128 0x1e
 4244 0d94 88000000 		.4byte	0x88
 4245 0d98 15       		.byte	0x15
 4246 0d99 00       		.byte	0
 4247 0d9a 07       		.uleb128 0x7
 4248 0d9b 8A0D0000 		.4byte	0xd8a
 4249 0d9f 22       		.uleb128 0x22
 4250 0da0 C3000000 		.4byte	.LASF113
 4251 0da4 01       		.byte	0x1
 4252 0da5 0601     		.2byte	0x106
 4253 0da7 37000000 		.4byte	0x37
 4254 0dab 00000000 		.4byte	.LFB11
 4255 0daf 94000000 		.4byte	.LFE11-.LFB11
 4256 0db3 01       		.uleb128 0x1
 4257 0db4 9C       		.byte	0x9c
 4258 0db5 C60E0000 		.4byte	0xec6
 4259 0db9 23       		.uleb128 0x23
 4260 0dba F1030000 		.4byte	.LASF93
 4261 0dbe 01       		.byte	0x1
 4262 0dbf 0601     		.2byte	0x106
 4263 0dc1 AF040000 		.4byte	0x4af
 4264 0dc5 A4070000 		.4byte	.LLST34
 4265 0dc9 24       		.uleb128 0x24
 4266 0dca 42030000 		.4byte	.LASF106
 4267 0dce 01       		.byte	0x1
 4268 0dcf 0801     		.2byte	0x108
 4269 0dd1 37000000 		.4byte	0x37
 4270 0dd5 02080000 		.4byte	.LLST35
 4271 0dd9 1A       		.uleb128 0x1a
 4272 0dda 4A0C0000 		.4byte	.LASF105
 4273 0dde D60E0000 		.4byte	0xed6
 4274 0de2 05       		.uleb128 0x5
 4275 0de3 03       		.byte	0x3
 4276 0de4 74000000 		.4byte	__func__.7321
 4277 0de8 20       		.uleb128 0x20
 4278 0de9 12000000 		.4byte	.LBB17
 4279 0ded 1E000000 		.4byte	.LBE17-.LBB17
ARM GAS  C:\Users\Phuong\AppData\Local\Temp\cc32RpHN.s 			page 92


 4280 0df1 440E0000 		.4byte	0xe44
 4281 0df5 25       		.uleb128 0x25
 4282 0df6 6C00     		.ascii	"l\000"
 4283 0df8 01       		.byte	0x1
 4284 0df9 0F01     		.2byte	0x10f
 4285 0dfb 60030000 		.4byte	0x360
 4286 0dff 4D080000 		.4byte	.LLST36
 4287 0e03 19       		.uleb128 0x19
 4288 0e04 16000000 		.4byte	.LVL147
 4289 0e08 39190000 		.4byte	0x1939
 4290 0e0c 1C       		.uleb128 0x1c
 4291 0e0d 30000000 		.4byte	.LVL150
 4292 0e11 02       		.uleb128 0x2
 4293 0e12 74       		.byte	0x74
 4294 0e13 00       		.sleb128 0
 4295 0e14 17       		.uleb128 0x17
 4296 0e15 01       		.uleb128 0x1
 4297 0e16 50       		.byte	0x50
 4298 0e17 01       		.uleb128 0x1
 4299 0e18 30       		.byte	0x30
 4300 0e19 17       		.uleb128 0x17
 4301 0e1a 01       		.uleb128 0x1
 4302 0e1b 51       		.byte	0x51
 4303 0e1c 05       		.uleb128 0x5
 4304 0e1d 03       		.byte	0x3
 4305 0e1e 00000000 		.4byte	.LC1
 4306 0e22 17       		.uleb128 0x17
 4307 0e23 01       		.uleb128 0x1
 4308 0e24 52       		.byte	0x52
 4309 0e25 05       		.uleb128 0x5
 4310 0e26 03       		.byte	0x3
 4311 0e27 74000000 		.4byte	.LANCHOR0+116
 4312 0e2b 17       		.uleb128 0x17
 4313 0e2c 01       		.uleb128 0x1
 4314 0e2d 53       		.byte	0x53
 4315 0e2e 03       		.uleb128 0x3
 4316 0e2f 0A       		.byte	0xa
 4317 0e30 0F01     		.2byte	0x10f
 4318 0e32 17       		.uleb128 0x17
 4319 0e33 02       		.uleb128 0x2
 4320 0e34 7D       		.byte	0x7d
 4321 0e35 00       		.sleb128 0
 4322 0e36 01       		.uleb128 0x1
 4323 0e37 31       		.byte	0x31
 4324 0e38 17       		.uleb128 0x17
 4325 0e39 02       		.uleb128 0x2
 4326 0e3a 7D       		.byte	0x7d
 4327 0e3b 04       		.sleb128 4
 4328 0e3c 05       		.uleb128 0x5
 4329 0e3d 03       		.byte	0x3
 4330 0e3e 34030000 		.4byte	.LC42
 4331 0e42 00       		.byte	0
 4332 0e43 00       		.byte	0
 4333 0e44 20       		.uleb128 0x20
 4334 0e45 46000000 		.4byte	.LBB18
 4335 0e49 1E000000 		.4byte	.LBE18-.LBB18
 4336 0e4d A00E0000 		.4byte	0xea0
ARM GAS  C:\Users\Phuong\AppData\Local\Temp\cc32RpHN.s 			page 93


 4337 0e51 25       		.uleb128 0x25
 4338 0e52 6C00     		.ascii	"l\000"
 4339 0e54 01       		.byte	0x1
 4340 0e55 1601     		.2byte	0x116
 4341 0e57 60030000 		.4byte	0x360
 4342 0e5b 81080000 		.4byte	.LLST37
 4343 0e5f 19       		.uleb128 0x19
 4344 0e60 4A000000 		.4byte	.LVL154
 4345 0e64 39190000 		.4byte	0x1939
 4346 0e68 1C       		.uleb128 0x1c
 4347 0e69 64000000 		.4byte	.LVL157
 4348 0e6d 02       		.uleb128 0x2
 4349 0e6e 74       		.byte	0x74
 4350 0e6f 00       		.sleb128 0
 4351 0e70 17       		.uleb128 0x17
 4352 0e71 01       		.uleb128 0x1
 4353 0e72 50       		.byte	0x50
 4354 0e73 01       		.uleb128 0x1
 4355 0e74 30       		.byte	0x30
 4356 0e75 17       		.uleb128 0x17
 4357 0e76 01       		.uleb128 0x1
 4358 0e77 51       		.byte	0x51
 4359 0e78 05       		.uleb128 0x5
 4360 0e79 03       		.byte	0x3
 4361 0e7a 00000000 		.4byte	.LC1
 4362 0e7e 17       		.uleb128 0x17
 4363 0e7f 01       		.uleb128 0x1
 4364 0e80 52       		.byte	0x52
 4365 0e81 05       		.uleb128 0x5
 4366 0e82 03       		.byte	0x3
 4367 0e83 74000000 		.4byte	.LANCHOR0+116
 4368 0e87 17       		.uleb128 0x17
 4369 0e88 01       		.uleb128 0x1
 4370 0e89 53       		.byte	0x53
 4371 0e8a 03       		.uleb128 0x3
 4372 0e8b 0A       		.byte	0xa
 4373 0e8c 1601     		.2byte	0x116
 4374 0e8e 17       		.uleb128 0x17
 4375 0e8f 02       		.uleb128 0x2
 4376 0e90 7D       		.byte	0x7d
 4377 0e91 00       		.sleb128 0
 4378 0e92 01       		.uleb128 0x1
 4379 0e93 31       		.byte	0x31
 4380 0e94 17       		.uleb128 0x17
 4381 0e95 02       		.uleb128 0x2
 4382 0e96 7D       		.byte	0x7d
 4383 0e97 04       		.sleb128 4
 4384 0e98 05       		.uleb128 0x5
 4385 0e99 03       		.byte	0x3
 4386 0e9a 68030000 		.4byte	.LC46
 4387 0e9e 00       		.byte	0
 4388 0e9f 00       		.byte	0
 4389 0ea0 19       		.uleb128 0x19
 4390 0ea1 0C000000 		.4byte	.LVL145
 4391 0ea5 131A0000 		.4byte	0x1a13
 4392 0ea9 16       		.uleb128 0x16
 4393 0eaa 42000000 		.4byte	.LVL152
ARM GAS  C:\Users\Phuong\AppData\Local\Temp\cc32RpHN.s 			page 94


 4394 0eae 1E1A0000 		.4byte	0x1a1e
 4395 0eb2 17       		.uleb128 0x17
 4396 0eb3 01       		.uleb128 0x1
 4397 0eb4 51       		.byte	0x51
 4398 0eb5 05       		.uleb128 0x5
 4399 0eb6 03       		.byte	0x3
 4400 0eb7 00000000 		.4byte	on_cbs_open_complete
 4401 0ebb 17       		.uleb128 0x17
 4402 0ebc 01       		.uleb128 0x1
 4403 0ebd 53       		.byte	0x53
 4404 0ebe 05       		.uleb128 0x5
 4405 0ebf 03       		.byte	0x3
 4406 0ec0 00000000 		.4byte	on_cbs_error
 4407 0ec4 00       		.byte	0
 4408 0ec5 00       		.byte	0
 4409 0ec6 1D       		.uleb128 0x1d
 4410 0ec7 A4000000 		.4byte	0xa4
 4411 0ecb D60E0000 		.4byte	0xed6
 4412 0ecf 1E       		.uleb128 0x1e
 4413 0ed0 88000000 		.4byte	0x88
 4414 0ed4 11       		.byte	0x11
 4415 0ed5 00       		.byte	0
 4416 0ed6 07       		.uleb128 0x7
 4417 0ed7 C60E0000 		.4byte	0xec6
 4418 0edb 26       		.uleb128 0x26
 4419 0edc 930A0000 		.4byte	.LASF115
 4420 0ee0 01       		.byte	0x1
 4421 0ee1 2B       		.byte	0x2b
 4422 0ee2 9E000000 		.4byte	0x9e
 4423 0ee6 00000000 		.4byte	.LFB1
 4424 0eea 14000000 		.4byte	.LFE1-.LFB1
 4425 0eee 01       		.uleb128 0x1
 4426 0eef 9C       		.byte	0x9c
 4427 0ef0 040F0000 		.4byte	0xf04
 4428 0ef4 12       		.uleb128 0x12
 4429 0ef5 FA030000 		.4byte	.LASF114
 4430 0ef9 01       		.byte	0x1
 4431 0efa 2B       		.byte	0x2b
 4432 0efb E1010000 		.4byte	0x1e1
 4433 0eff B5080000 		.4byte	.LLST38
 4434 0f03 00       		.byte	0
 4435 0f04 26       		.uleb128 0x26
 4436 0f05 8D0B0000 		.4byte	.LASF116
 4437 0f09 01       		.byte	0x1
 4438 0f0a 2B       		.byte	0x2b
 4439 0f0b 37000000 		.4byte	0x37
 4440 0f0f 00000000 		.4byte	.LFB2
 4441 0f13 3C000000 		.4byte	.LFE2-.LFB2
 4442 0f17 01       		.uleb128 0x1
 4443 0f18 9C       		.byte	0x9c
 4444 0f19 630F0000 		.4byte	0xf63
 4445 0f1d 12       		.uleb128 0x12
 4446 0f1e 690A0000 		.4byte	.LASF117
 4447 0f22 01       		.byte	0x1
 4448 0f23 2B       		.byte	0x2b
 4449 0f24 9E000000 		.4byte	0x9e
 4450 0f28 EF080000 		.4byte	.LLST39
ARM GAS  C:\Users\Phuong\AppData\Local\Temp\cc32RpHN.s 			page 95


 4451 0f2c 12       		.uleb128 0x12
 4452 0f2d F00B0000 		.4byte	.LASF118
 4453 0f31 01       		.byte	0x1
 4454 0f32 2B       		.byte	0x2b
 4455 0f33 630F0000 		.4byte	0xf63
 4456 0f37 47090000 		.4byte	.LLST40
 4457 0f3b 13       		.uleb128 0x13
 4458 0f3c 12000000 		.4byte	.LBB19
 4459 0f40 1E000000 		.4byte	.LBE19-.LBB19
 4460 0f44 1B       		.uleb128 0x1b
 4461 0f45 6900     		.ascii	"i\000"
 4462 0f47 01       		.byte	0x1
 4463 0f48 2B       		.byte	0x2b
 4464 0f49 25000000 		.4byte	0x25
 4465 0f4d 89090000 		.4byte	.LLST41
 4466 0f51 16       		.uleb128 0x16
 4467 0f52 1E000000 		.4byte	.LVL170
 4468 0f56 291A0000 		.4byte	0x1a29
 4469 0f5a 17       		.uleb128 0x17
 4470 0f5b 01       		.uleb128 0x1
 4471 0f5c 50       		.byte	0x50
 4472 0f5d 02       		.uleb128 0x2
 4473 0f5e 75       		.byte	0x75
 4474 0f5f 00       		.sleb128 0
 4475 0f60 00       		.byte	0
 4476 0f61 00       		.byte	0
 4477 0f62 00       		.byte	0
 4478 0f63 06       		.uleb128 0x6
 4479 0f64 04       		.byte	0x4
 4480 0f65 E1010000 		.4byte	0x1e1
 4481 0f69 27       		.uleb128 0x27
 4482 0f6a 82050000 		.4byte	.LASF122
 4483 0f6e 01       		.byte	0x1
 4484 0f6f 2301     		.2byte	0x123
 4485 0f71 00000000 		.4byte	.LFB12
 4486 0f75 4A000000 		.4byte	.LFE12-.LFB12
 4487 0f79 01       		.uleb128 0x1
 4488 0f7a 9C       		.byte	0x9c
 4489 0f7b F00F0000 		.4byte	0xff0
 4490 0f7f 23       		.uleb128 0x23
 4491 0f80 530C0000 		.4byte	.LASF119
 4492 0f84 01       		.byte	0x1
 4493 0f85 2301     		.2byte	0x123
 4494 0f87 9D020000 		.4byte	0x29d
 4495 0f8b 9C090000 		.4byte	.LLST42
 4496 0f8f 13       		.uleb128 0x13
 4497 0f90 06000000 		.4byte	.LBB20
 4498 0f94 42000000 		.4byte	.LBE20-.LBB20
 4499 0f98 24       		.uleb128 0x24
 4500 0f99 F1030000 		.4byte	.LASF93
 4501 0f9d 01       		.byte	0x1
 4502 0f9e 2801     		.2byte	0x128
 4503 0fa0 AF040000 		.4byte	0x4af
 4504 0fa4 C8090000 		.4byte	.LLST43
 4505 0fa8 19       		.uleb128 0x19
 4506 0fa9 10000000 		.4byte	.LVL181
 4507 0fad 341A0000 		.4byte	0x1a34
ARM GAS  C:\Users\Phuong\AppData\Local\Temp\cc32RpHN.s 			page 96


 4508 0fb1 19       		.uleb128 0x19
 4509 0fb2 1A000000 		.4byte	.LVL182
 4510 0fb6 3F1A0000 		.4byte	0x1a3f
 4511 0fba 19       		.uleb128 0x19
 4512 0fbb 24000000 		.4byte	.LVL183
 4513 0fbf 4A1A0000 		.4byte	0x1a4a
 4514 0fc3 19       		.uleb128 0x19
 4515 0fc4 2E000000 		.4byte	.LVL184
 4516 0fc8 70190000 		.4byte	0x1970
 4517 0fcc 19       		.uleb128 0x19
 4518 0fcd 38000000 		.4byte	.LVL185
 4519 0fd1 5A190000 		.4byte	0x195a
 4520 0fd5 19       		.uleb128 0x19
 4521 0fd6 42000000 		.4byte	.LVL186
 4522 0fda 551A0000 		.4byte	0x1a55
 4523 0fde 16       		.uleb128 0x16
 4524 0fdf 48000000 		.4byte	.LVL187
 4525 0fe3 E7190000 		.4byte	0x19e7
 4526 0fe7 17       		.uleb128 0x17
 4527 0fe8 01       		.uleb128 0x1
 4528 0fe9 50       		.byte	0x50
 4529 0fea 02       		.uleb128 0x2
 4530 0feb 74       		.byte	0x74
 4531 0fec 00       		.sleb128 0
 4532 0fed 00       		.byte	0
 4533 0fee 00       		.byte	0
 4534 0fef 00       		.byte	0
 4535 0ff0 28       		.uleb128 0x28
 4536 0ff1 96080000 		.4byte	.LASF120
 4537 0ff5 01       		.byte	0x1
 4538 0ff6 5301     		.2byte	0x153
 4539 0ff8 9D020000 		.4byte	0x29d
 4540 0ffc 00000000 		.4byte	.LFB13
 4541 1000 5C020000 		.4byte	.LFE13-.LFB13
 4542 1004 01       		.uleb128 0x1
 4543 1005 9C       		.byte	0x9c
 4544 1006 7E140000 		.4byte	0x147e
 4545 100a 23       		.uleb128 0x23
 4546 100b 61080000 		.4byte	.LASF121
 4547 100f 01       		.byte	0x1
 4548 1010 5301     		.2byte	0x153
 4549 1012 7E140000 		.4byte	0x147e
 4550 1016 E6090000 		.4byte	.LLST44
 4551 101a 24       		.uleb128 0x24
 4552 101b 42030000 		.4byte	.LASF106
 4553 101f 01       		.byte	0x1
 4554 1020 5501     		.2byte	0x155
 4555 1022 9D020000 		.4byte	0x29d
 4556 1026 2D0B0000 		.4byte	.LLST45
 4557 102a 1A       		.uleb128 0x1a
 4558 102b 4A0C0000 		.4byte	.LASF105
 4559 102f 84140000 		.4byte	0x1484
 4560 1033 05       		.uleb128 0x5
 4561 1034 03       		.byte	0x3
 4562 1035 88000000 		.4byte	__func__.7336
 4563 1039 20       		.uleb128 0x20
 4564 103a 08000000 		.4byte	.LBB21
ARM GAS  C:\Users\Phuong\AppData\Local\Temp\cc32RpHN.s 			page 97


 4565 103e 20000000 		.4byte	.LBE21-.LBB21
 4566 1042 95100000 		.4byte	0x1095
 4567 1046 25       		.uleb128 0x25
 4568 1047 6C00     		.ascii	"l\000"
 4569 1049 01       		.byte	0x1
 4570 104a 5B01     		.2byte	0x15b
 4571 104c 60030000 		.4byte	0x360
 4572 1050 DA0B0000 		.4byte	.LLST46
 4573 1054 19       		.uleb128 0x19
 4574 1055 0C000000 		.4byte	.LVL191
 4575 1059 39190000 		.4byte	0x1939
 4576 105d 1C       		.uleb128 0x1c
 4577 105e 28000000 		.4byte	.LVL194
 4578 1062 02       		.uleb128 0x2
 4579 1063 74       		.byte	0x74
 4580 1064 00       		.sleb128 0
 4581 1065 17       		.uleb128 0x17
 4582 1066 01       		.uleb128 0x1
 4583 1067 50       		.byte	0x50
 4584 1068 01       		.uleb128 0x1
 4585 1069 30       		.byte	0x30
 4586 106a 17       		.uleb128 0x17
 4587 106b 01       		.uleb128 0x1
 4588 106c 51       		.byte	0x51
 4589 106d 05       		.uleb128 0x5
 4590 106e 03       		.byte	0x3
 4591 106f 00000000 		.4byte	.LC1
 4592 1073 17       		.uleb128 0x17
 4593 1074 01       		.uleb128 0x1
 4594 1075 52       		.byte	0x52
 4595 1076 05       		.uleb128 0x5
 4596 1077 03       		.byte	0x3
 4597 1078 88000000 		.4byte	.LANCHOR2+8
 4598 107c 17       		.uleb128 0x17
 4599 107d 01       		.uleb128 0x1
 4600 107e 53       		.byte	0x53
 4601 107f 03       		.uleb128 0x3
 4602 1080 0A       		.byte	0xa
 4603 1081 5B01     		.2byte	0x15b
 4604 1083 17       		.uleb128 0x17
 4605 1084 02       		.uleb128 0x2
 4606 1085 7D       		.byte	0x7d
 4607 1086 00       		.sleb128 0
 4608 1087 01       		.uleb128 0x1
 4609 1088 31       		.byte	0x31
 4610 1089 17       		.uleb128 0x17
 4611 108a 02       		.uleb128 0x2
 4612 108b 7D       		.byte	0x7d
 4613 108c 04       		.sleb128 4
 4614 108d 05       		.uleb128 0x5
 4615 108e 03       		.byte	0x3
 4616 108f A0030000 		.4byte	.LC52
 4617 1093 00       		.byte	0
 4618 1094 00       		.byte	0
 4619 1095 20       		.uleb128 0x20
 4620 1096 32000000 		.4byte	.LBB22
 4621 109a 20000000 		.4byte	.LBE22-.LBB22
ARM GAS  C:\Users\Phuong\AppData\Local\Temp\cc32RpHN.s 			page 98


 4622 109e F1100000 		.4byte	0x10f1
 4623 10a2 25       		.uleb128 0x25
 4624 10a3 6C00     		.ascii	"l\000"
 4625 10a5 01       		.byte	0x1
 4626 10a6 6101     		.2byte	0x161
 4627 10a8 60030000 		.4byte	0x360
 4628 10ac 030C0000 		.4byte	.LLST47
 4629 10b0 19       		.uleb128 0x19
 4630 10b1 36000000 		.4byte	.LVL198
 4631 10b5 39190000 		.4byte	0x1939
 4632 10b9 1C       		.uleb128 0x1c
 4633 10ba 52000000 		.4byte	.LVL201
 4634 10be 02       		.uleb128 0x2
 4635 10bf 74       		.byte	0x74
 4636 10c0 00       		.sleb128 0
 4637 10c1 17       		.uleb128 0x17
 4638 10c2 01       		.uleb128 0x1
 4639 10c3 50       		.byte	0x50
 4640 10c4 01       		.uleb128 0x1
 4641 10c5 30       		.byte	0x30
 4642 10c6 17       		.uleb128 0x17
 4643 10c7 01       		.uleb128 0x1
 4644 10c8 51       		.byte	0x51
 4645 10c9 05       		.uleb128 0x5
 4646 10ca 03       		.byte	0x3
 4647 10cb 00000000 		.4byte	.LC1
 4648 10cf 17       		.uleb128 0x17
 4649 10d0 01       		.uleb128 0x1
 4650 10d1 52       		.byte	0x52
 4651 10d2 05       		.uleb128 0x5
 4652 10d3 03       		.byte	0x3
 4653 10d4 88000000 		.4byte	.LANCHOR2+8
 4654 10d8 17       		.uleb128 0x17
 4655 10d9 01       		.uleb128 0x1
 4656 10da 53       		.byte	0x53
 4657 10db 03       		.uleb128 0x3
 4658 10dc 0A       		.byte	0xa
 4659 10dd 6101     		.2byte	0x161
 4660 10df 17       		.uleb128 0x17
 4661 10e0 02       		.uleb128 0x2
 4662 10e1 7D       		.byte	0x7d
 4663 10e2 00       		.sleb128 0
 4664 10e3 01       		.uleb128 0x1
 4665 10e4 31       		.byte	0x31
 4666 10e5 17       		.uleb128 0x17
 4667 10e6 02       		.uleb128 0x2
 4668 10e7 7D       		.byte	0x7d
 4669 10e8 04       		.sleb128 4
 4670 10e9 05       		.uleb128 0x5
 4671 10ea 03       		.byte	0x3
 4672 10eb D0030000 		.4byte	.LC54
 4673 10ef 00       		.byte	0
 4674 10f0 00       		.byte	0
 4675 10f1 20       		.uleb128 0x20
 4676 10f2 5C000000 		.4byte	.LBB23
 4677 10f6 20000000 		.4byte	.LBE23-.LBB23
 4678 10fa 4D110000 		.4byte	0x114d
ARM GAS  C:\Users\Phuong\AppData\Local\Temp\cc32RpHN.s 			page 99


 4679 10fe 25       		.uleb128 0x25
 4680 10ff 6C00     		.ascii	"l\000"
 4681 1101 01       		.byte	0x1
 4682 1102 6701     		.2byte	0x167
 4683 1104 60030000 		.4byte	0x360
 4684 1108 2C0C0000 		.4byte	.LLST48
 4685 110c 19       		.uleb128 0x19
 4686 110d 60000000 		.4byte	.LVL205
 4687 1111 39190000 		.4byte	0x1939
 4688 1115 1C       		.uleb128 0x1c
 4689 1116 7C000000 		.4byte	.LVL208
 4690 111a 02       		.uleb128 0x2
 4691 111b 74       		.byte	0x74
 4692 111c 00       		.sleb128 0
 4693 111d 17       		.uleb128 0x17
 4694 111e 01       		.uleb128 0x1
 4695 111f 50       		.byte	0x50
 4696 1120 01       		.uleb128 0x1
 4697 1121 30       		.byte	0x30
 4698 1122 17       		.uleb128 0x17
 4699 1123 01       		.uleb128 0x1
 4700 1124 51       		.byte	0x51
 4701 1125 05       		.uleb128 0x5
 4702 1126 03       		.byte	0x3
 4703 1127 00000000 		.4byte	.LC1
 4704 112b 17       		.uleb128 0x17
 4705 112c 01       		.uleb128 0x1
 4706 112d 52       		.byte	0x52
 4707 112e 05       		.uleb128 0x5
 4708 112f 03       		.byte	0x3
 4709 1130 88000000 		.4byte	.LANCHOR2+8
 4710 1134 17       		.uleb128 0x17
 4711 1135 01       		.uleb128 0x1
 4712 1136 53       		.byte	0x53
 4713 1137 03       		.uleb128 0x3
 4714 1138 0A       		.byte	0xa
 4715 1139 6701     		.2byte	0x167
 4716 113b 17       		.uleb128 0x17
 4717 113c 02       		.uleb128 0x2
 4718 113d 7D       		.byte	0x7d
 4719 113e 00       		.sleb128 0
 4720 113f 01       		.uleb128 0x1
 4721 1140 31       		.byte	0x31
 4722 1141 17       		.uleb128 0x17
 4723 1142 02       		.uleb128 0x2
 4724 1143 7D       		.byte	0x7d
 4725 1144 04       		.sleb128 4
 4726 1145 05       		.uleb128 0x5
 4727 1146 03       		.byte	0x3
 4728 1147 14040000 		.4byte	.LC56
 4729 114b 00       		.byte	0
 4730 114c 00       		.byte	0
 4731 114d 29       		.uleb128 0x29
 4732 114e 00000000 		.4byte	.Ldebug_ranges0+0
 4733 1152 24       		.uleb128 0x24
 4734 1153 F1030000 		.4byte	.LASF93
 4735 1157 01       		.byte	0x1
ARM GAS  C:\Users\Phuong\AppData\Local\Temp\cc32RpHN.s 			page 100


 4736 1158 6B01     		.2byte	0x16b
 4737 115a AF040000 		.4byte	0x4af
 4738 115e 550C0000 		.4byte	.LLST49
 4739 1162 20       		.uleb128 0x20
 4740 1163 8A000000 		.4byte	.LBB25
 4741 1167 20000000 		.4byte	.LBE25-.LBB25
 4742 116b BE110000 		.4byte	0x11be
 4743 116f 25       		.uleb128 0x25
 4744 1170 6C00     		.ascii	"l\000"
 4745 1172 01       		.byte	0x1
 4746 1173 7201     		.2byte	0x172
 4747 1175 60030000 		.4byte	0x360
 4748 1179 940C0000 		.4byte	.LLST50
 4749 117d 19       		.uleb128 0x19
 4750 117e 8E000000 		.4byte	.LVL215
 4751 1182 39190000 		.4byte	0x1939
 4752 1186 1C       		.uleb128 0x1c
 4753 1187 AA000000 		.4byte	.LVL218
 4754 118b 02       		.uleb128 0x2
 4755 118c 74       		.byte	0x74
 4756 118d 00       		.sleb128 0
 4757 118e 17       		.uleb128 0x17
 4758 118f 01       		.uleb128 0x1
 4759 1190 50       		.byte	0x50
 4760 1191 01       		.uleb128 0x1
 4761 1192 30       		.byte	0x30
 4762 1193 17       		.uleb128 0x17
 4763 1194 01       		.uleb128 0x1
 4764 1195 51       		.byte	0x51
 4765 1196 05       		.uleb128 0x5
 4766 1197 03       		.byte	0x3
 4767 1198 00000000 		.4byte	.LC1
 4768 119c 17       		.uleb128 0x17
 4769 119d 01       		.uleb128 0x1
 4770 119e 52       		.byte	0x52
 4771 119f 05       		.uleb128 0x5
 4772 11a0 03       		.byte	0x3
 4773 11a1 88000000 		.4byte	.LANCHOR2+8
 4774 11a5 17       		.uleb128 0x17
 4775 11a6 01       		.uleb128 0x1
 4776 11a7 53       		.byte	0x53
 4777 11a8 03       		.uleb128 0x3
 4778 11a9 0A       		.byte	0xa
 4779 11aa 7201     		.2byte	0x172
 4780 11ac 17       		.uleb128 0x17
 4781 11ad 02       		.uleb128 0x2
 4782 11ae 7D       		.byte	0x7d
 4783 11af 00       		.sleb128 0
 4784 11b0 01       		.uleb128 0x1
 4785 11b1 31       		.byte	0x31
 4786 11b2 17       		.uleb128 0x17
 4787 11b3 02       		.uleb128 0x2
 4788 11b4 7D       		.byte	0x7d
 4789 11b5 04       		.sleb128 4
 4790 11b6 05       		.uleb128 0x5
 4791 11b7 03       		.byte	0x3
 4792 11b8 5C040000 		.4byte	.LC58
ARM GAS  C:\Users\Phuong\AppData\Local\Temp\cc32RpHN.s 			page 101


 4793 11bc 00       		.byte	0
 4794 11bd 00       		.byte	0
 4795 11be 20       		.uleb128 0x20
 4796 11bf C2000000 		.4byte	.LBB26
 4797 11c3 20000000 		.4byte	.LBE26-.LBB26
 4798 11c7 1A120000 		.4byte	0x121a
 4799 11cb 25       		.uleb128 0x25
 4800 11cc 6C00     		.ascii	"l\000"
 4801 11ce 01       		.byte	0x1
 4802 11cf 7D01     		.2byte	0x17d
 4803 11d1 60030000 		.4byte	0x360
 4804 11d5 BD0C0000 		.4byte	.LLST51
 4805 11d9 19       		.uleb128 0x19
 4806 11da C6000000 		.4byte	.LVL224
 4807 11de 39190000 		.4byte	0x1939
 4808 11e2 1C       		.uleb128 0x1c
 4809 11e3 E2000000 		.4byte	.LVL227
 4810 11e7 02       		.uleb128 0x2
 4811 11e8 74       		.byte	0x74
 4812 11e9 00       		.sleb128 0
 4813 11ea 17       		.uleb128 0x17
 4814 11eb 01       		.uleb128 0x1
 4815 11ec 50       		.byte	0x50
 4816 11ed 01       		.uleb128 0x1
 4817 11ee 30       		.byte	0x30
 4818 11ef 17       		.uleb128 0x17
 4819 11f0 01       		.uleb128 0x1
 4820 11f1 51       		.byte	0x51
 4821 11f2 05       		.uleb128 0x5
 4822 11f3 03       		.byte	0x3
 4823 11f4 00000000 		.4byte	.LC1
 4824 11f8 17       		.uleb128 0x17
 4825 11f9 01       		.uleb128 0x1
 4826 11fa 52       		.byte	0x52
 4827 11fb 05       		.uleb128 0x5
 4828 11fc 03       		.byte	0x3
 4829 11fd 88000000 		.4byte	.LANCHOR2+8
 4830 1201 17       		.uleb128 0x17
 4831 1202 01       		.uleb128 0x1
 4832 1203 53       		.byte	0x53
 4833 1204 03       		.uleb128 0x3
 4834 1205 0A       		.byte	0xa
 4835 1206 7D01     		.2byte	0x17d
 4836 1208 17       		.uleb128 0x17
 4837 1209 02       		.uleb128 0x2
 4838 120a 7D       		.byte	0x7d
 4839 120b 00       		.sleb128 0
 4840 120c 01       		.uleb128 0x1
 4841 120d 31       		.byte	0x31
 4842 120e 17       		.uleb128 0x17
 4843 120f 02       		.uleb128 0x2
 4844 1210 7D       		.byte	0x7d
 4845 1211 04       		.sleb128 4
 4846 1212 05       		.uleb128 0x5
 4847 1213 03       		.byte	0x3
 4848 1214 8C040000 		.4byte	.LC60
 4849 1218 00       		.byte	0
ARM GAS  C:\Users\Phuong\AppData\Local\Temp\cc32RpHN.s 			page 102


 4850 1219 00       		.byte	0
 4851 121a 20       		.uleb128 0x20
 4852 121b 12010000 		.4byte	.LBB27
 4853 121f 1E000000 		.4byte	.LBE27-.LBB27
 4854 1223 76120000 		.4byte	0x1276
 4855 1227 25       		.uleb128 0x25
 4856 1228 6C00     		.ascii	"l\000"
 4857 122a 01       		.byte	0x1
 4858 122b 9301     		.2byte	0x193
 4859 122d 60030000 		.4byte	0x360
 4860 1231 E60C0000 		.4byte	.LLST52
 4861 1235 19       		.uleb128 0x19
 4862 1236 16010000 		.4byte	.LVL230
 4863 123a 39190000 		.4byte	0x1939
 4864 123e 1C       		.uleb128 0x1c
 4865 123f 30010000 		.4byte	.LVL233
 4866 1243 02       		.uleb128 0x2
 4867 1244 76       		.byte	0x76
 4868 1245 00       		.sleb128 0
 4869 1246 17       		.uleb128 0x17
 4870 1247 01       		.uleb128 0x1
 4871 1248 50       		.byte	0x50
 4872 1249 01       		.uleb128 0x1
 4873 124a 30       		.byte	0x30
 4874 124b 17       		.uleb128 0x17
 4875 124c 01       		.uleb128 0x1
 4876 124d 51       		.byte	0x51
 4877 124e 05       		.uleb128 0x5
 4878 124f 03       		.byte	0x3
 4879 1250 00000000 		.4byte	.LC1
 4880 1254 17       		.uleb128 0x17
 4881 1255 01       		.uleb128 0x1
 4882 1256 52       		.byte	0x52
 4883 1257 05       		.uleb128 0x5
 4884 1258 03       		.byte	0x3
 4885 1259 88000000 		.4byte	.LANCHOR2+8
 4886 125d 17       		.uleb128 0x17
 4887 125e 01       		.uleb128 0x1
 4888 125f 53       		.byte	0x53
 4889 1260 03       		.uleb128 0x3
 4890 1261 0A       		.byte	0xa
 4891 1262 9301     		.2byte	0x193
 4892 1264 17       		.uleb128 0x17
 4893 1265 02       		.uleb128 0x2
 4894 1266 7D       		.byte	0x7d
 4895 1267 00       		.sleb128 0
 4896 1268 01       		.uleb128 0x1
 4897 1269 31       		.byte	0x31
 4898 126a 17       		.uleb128 0x17
 4899 126b 02       		.uleb128 0x2
 4900 126c 7D       		.byte	0x7d
 4901 126d 04       		.sleb128 4
 4902 126e 05       		.uleb128 0x5
 4903 126f 03       		.byte	0x3
 4904 1270 C4040000 		.4byte	.LC62
 4905 1274 00       		.byte	0
 4906 1275 00       		.byte	0
ARM GAS  C:\Users\Phuong\AppData\Local\Temp\cc32RpHN.s 			page 103


 4907 1276 20       		.uleb128 0x20
 4908 1277 46010000 		.4byte	.LBB28
 4909 127b 1E000000 		.4byte	.LBE28-.LBB28
 4910 127f D2120000 		.4byte	0x12d2
 4911 1283 25       		.uleb128 0x25
 4912 1284 6C00     		.ascii	"l\000"
 4913 1286 01       		.byte	0x1
 4914 1287 9A01     		.2byte	0x19a
 4915 1289 60030000 		.4byte	0x360
 4916 128d 040D0000 		.4byte	.LLST53
 4917 1291 19       		.uleb128 0x19
 4918 1292 4A010000 		.4byte	.LVL236
 4919 1296 39190000 		.4byte	0x1939
 4920 129a 1C       		.uleb128 0x1c
 4921 129b 64010000 		.4byte	.LVL239
 4922 129f 02       		.uleb128 0x2
 4923 12a0 74       		.byte	0x74
 4924 12a1 00       		.sleb128 0
 4925 12a2 17       		.uleb128 0x17
 4926 12a3 01       		.uleb128 0x1
 4927 12a4 50       		.byte	0x50
 4928 12a5 01       		.uleb128 0x1
 4929 12a6 30       		.byte	0x30
 4930 12a7 17       		.uleb128 0x17
 4931 12a8 01       		.uleb128 0x1
 4932 12a9 51       		.byte	0x51
 4933 12aa 05       		.uleb128 0x5
 4934 12ab 03       		.byte	0x3
 4935 12ac 00000000 		.4byte	.LC1
 4936 12b0 17       		.uleb128 0x17
 4937 12b1 01       		.uleb128 0x1
 4938 12b2 52       		.byte	0x52
 4939 12b3 05       		.uleb128 0x5
 4940 12b4 03       		.byte	0x3
 4941 12b5 88000000 		.4byte	.LANCHOR2+8
 4942 12b9 17       		.uleb128 0x17
 4943 12ba 01       		.uleb128 0x1
 4944 12bb 53       		.byte	0x53
 4945 12bc 03       		.uleb128 0x3
 4946 12bd 0A       		.byte	0xa
 4947 12be 9A01     		.2byte	0x19a
 4948 12c0 17       		.uleb128 0x17
 4949 12c1 02       		.uleb128 0x2
 4950 12c2 7D       		.byte	0x7d
 4951 12c3 00       		.sleb128 0
 4952 12c4 01       		.uleb128 0x1
 4953 12c5 31       		.byte	0x31
 4954 12c6 17       		.uleb128 0x17
 4955 12c7 02       		.uleb128 0x2
 4956 12c8 7D       		.byte	0x7d
 4957 12c9 04       		.sleb128 4
 4958 12ca 05       		.uleb128 0x5
 4959 12cb 03       		.byte	0x3
 4960 12cc 10050000 		.4byte	.LC64
 4961 12d0 00       		.byte	0
 4962 12d1 00       		.byte	0
 4963 12d2 20       		.uleb128 0x20
ARM GAS  C:\Users\Phuong\AppData\Local\Temp\cc32RpHN.s 			page 104


 4964 12d3 72010000 		.4byte	.LBB29
 4965 12d7 1E000000 		.4byte	.LBE29-.LBB29
 4966 12db 2E130000 		.4byte	0x132e
 4967 12df 25       		.uleb128 0x25
 4968 12e0 6C00     		.ascii	"l\000"
 4969 12e2 01       		.byte	0x1
 4970 12e3 9F01     		.2byte	0x19f
 4971 12e5 60030000 		.4byte	0x360
 4972 12e9 2D0D0000 		.4byte	.LLST54
 4973 12ed 19       		.uleb128 0x19
 4974 12ee 76010000 		.4byte	.LVL244
 4975 12f2 39190000 		.4byte	0x1939
 4976 12f6 1C       		.uleb128 0x1c
 4977 12f7 90010000 		.4byte	.LVL247
 4978 12fb 02       		.uleb128 0x2
 4979 12fc 74       		.byte	0x74
 4980 12fd 00       		.sleb128 0
 4981 12fe 17       		.uleb128 0x17
 4982 12ff 01       		.uleb128 0x1
 4983 1300 50       		.byte	0x50
 4984 1301 01       		.uleb128 0x1
 4985 1302 30       		.byte	0x30
 4986 1303 17       		.uleb128 0x17
 4987 1304 01       		.uleb128 0x1
 4988 1305 51       		.byte	0x51
 4989 1306 05       		.uleb128 0x5
 4990 1307 03       		.byte	0x3
 4991 1308 00000000 		.4byte	.LC1
 4992 130c 17       		.uleb128 0x17
 4993 130d 01       		.uleb128 0x1
 4994 130e 52       		.byte	0x52
 4995 130f 05       		.uleb128 0x5
 4996 1310 03       		.byte	0x3
 4997 1311 88000000 		.4byte	.LANCHOR2+8
 4998 1315 17       		.uleb128 0x17
 4999 1316 01       		.uleb128 0x1
 5000 1317 53       		.byte	0x53
 5001 1318 03       		.uleb128 0x3
 5002 1319 0A       		.byte	0xa
 5003 131a 9F01     		.2byte	0x19f
 5004 131c 17       		.uleb128 0x17
 5005 131d 02       		.uleb128 0x2
 5006 131e 7D       		.byte	0x7d
 5007 131f 00       		.sleb128 0
 5008 1320 01       		.uleb128 0x1
 5009 1321 31       		.byte	0x31
 5010 1322 17       		.uleb128 0x17
 5011 1323 02       		.uleb128 0x2
 5012 1324 7D       		.byte	0x7d
 5013 1325 04       		.sleb128 4
 5014 1326 05       		.uleb128 0x5
 5015 1327 03       		.byte	0x3
 5016 1328 64050000 		.4byte	.LC66
 5017 132c 00       		.byte	0
 5018 132d 00       		.byte	0
 5019 132e 20       		.uleb128 0x20
 5020 132f 9E010000 		.4byte	.LBB30
ARM GAS  C:\Users\Phuong\AppData\Local\Temp\cc32RpHN.s 			page 105


 5021 1333 1E000000 		.4byte	.LBE30-.LBB30
 5022 1337 8A130000 		.4byte	0x138a
 5023 133b 25       		.uleb128 0x25
 5024 133c 6C00     		.ascii	"l\000"
 5025 133e 01       		.byte	0x1
 5026 133f A401     		.2byte	0x1a4
 5027 1341 60030000 		.4byte	0x360
 5028 1345 560D0000 		.4byte	.LLST55
 5029 1349 19       		.uleb128 0x19
 5030 134a A2010000 		.4byte	.LVL252
 5031 134e 39190000 		.4byte	0x1939
 5032 1352 1C       		.uleb128 0x1c
 5033 1353 BC010000 		.4byte	.LVL255
 5034 1357 02       		.uleb128 0x2
 5035 1358 74       		.byte	0x74
 5036 1359 00       		.sleb128 0
 5037 135a 17       		.uleb128 0x17
 5038 135b 01       		.uleb128 0x1
 5039 135c 50       		.byte	0x50
 5040 135d 01       		.uleb128 0x1
 5041 135e 30       		.byte	0x30
 5042 135f 17       		.uleb128 0x17
 5043 1360 01       		.uleb128 0x1
 5044 1361 51       		.byte	0x51
 5045 1362 05       		.uleb128 0x5
 5046 1363 03       		.byte	0x3
 5047 1364 00000000 		.4byte	.LC1
 5048 1368 17       		.uleb128 0x17
 5049 1369 01       		.uleb128 0x1
 5050 136a 52       		.byte	0x52
 5051 136b 05       		.uleb128 0x5
 5052 136c 03       		.byte	0x3
 5053 136d 88000000 		.4byte	.LANCHOR2+8
 5054 1371 17       		.uleb128 0x17
 5055 1372 01       		.uleb128 0x1
 5056 1373 53       		.byte	0x53
 5057 1374 03       		.uleb128 0x3
 5058 1375 0A       		.byte	0xa
 5059 1376 A401     		.2byte	0x1a4
 5060 1378 17       		.uleb128 0x17
 5061 1379 02       		.uleb128 0x2
 5062 137a 7D       		.byte	0x7d
 5063 137b 00       		.sleb128 0
 5064 137c 01       		.uleb128 0x1
 5065 137d 31       		.byte	0x31
 5066 137e 17       		.uleb128 0x17
 5067 137f 02       		.uleb128 0x2
 5068 1380 7D       		.byte	0x7d
 5069 1381 04       		.sleb128 4
 5070 1382 05       		.uleb128 0x5
 5071 1383 03       		.byte	0x3
 5072 1384 A8050000 		.4byte	.LC68
 5073 1388 00       		.byte	0
 5074 1389 00       		.byte	0
 5075 138a 20       		.uleb128 0x20
 5076 138b D0010000 		.4byte	.LBB31
 5077 138f 1E000000 		.4byte	.LBE31-.LBB31
ARM GAS  C:\Users\Phuong\AppData\Local\Temp\cc32RpHN.s 			page 106


 5078 1393 E6130000 		.4byte	0x13e6
 5079 1397 25       		.uleb128 0x25
 5080 1398 6C00     		.ascii	"l\000"
 5081 139a 01       		.byte	0x1
 5082 139b AB01     		.2byte	0x1ab
 5083 139d 60030000 		.4byte	0x360
 5084 13a1 7F0D0000 		.4byte	.LLST56
 5085 13a5 19       		.uleb128 0x19
 5086 13a6 D4010000 		.4byte	.LVL260
 5087 13aa 39190000 		.4byte	0x1939
 5088 13ae 1C       		.uleb128 0x1c
 5089 13af EE010000 		.4byte	.LVL263
 5090 13b3 02       		.uleb128 0x2
 5091 13b4 74       		.byte	0x74
 5092 13b5 00       		.sleb128 0
 5093 13b6 17       		.uleb128 0x17
 5094 13b7 01       		.uleb128 0x1
 5095 13b8 50       		.byte	0x50
 5096 13b9 01       		.uleb128 0x1
 5097 13ba 30       		.byte	0x30
 5098 13bb 17       		.uleb128 0x17
 5099 13bc 01       		.uleb128 0x1
 5100 13bd 51       		.byte	0x51
 5101 13be 05       		.uleb128 0x5
 5102 13bf 03       		.byte	0x3
 5103 13c0 00000000 		.4byte	.LC1
 5104 13c4 17       		.uleb128 0x17
 5105 13c5 01       		.uleb128 0x1
 5106 13c6 52       		.byte	0x52
 5107 13c7 05       		.uleb128 0x5
 5108 13c8 03       		.byte	0x3
 5109 13c9 88000000 		.4byte	.LANCHOR2+8
 5110 13cd 17       		.uleb128 0x17
 5111 13ce 01       		.uleb128 0x1
 5112 13cf 53       		.byte	0x53
 5113 13d0 03       		.uleb128 0x3
 5114 13d1 0A       		.byte	0xa
 5115 13d2 AB01     		.2byte	0x1ab
 5116 13d4 17       		.uleb128 0x17
 5117 13d5 02       		.uleb128 0x2
 5118 13d6 7D       		.byte	0x7d
 5119 13d7 00       		.sleb128 0
 5120 13d8 01       		.uleb128 0x1
 5121 13d9 31       		.byte	0x31
 5122 13da 17       		.uleb128 0x17
 5123 13db 02       		.uleb128 0x2
 5124 13dc 7D       		.byte	0x7d
 5125 13dd 04       		.sleb128 4
 5126 13de 05       		.uleb128 0x5
 5127 13df 03       		.byte	0x3
 5128 13e0 EC050000 		.4byte	.LC70
 5129 13e4 00       		.byte	0
 5130 13e5 00       		.byte	0
 5131 13e6 18       		.uleb128 0x18
 5132 13e7 86000000 		.4byte	.LVL212
 5133 13eb 91190000 		.4byte	0x1991
 5134 13ef FA130000 		.4byte	0x13fa
ARM GAS  C:\Users\Phuong\AppData\Local\Temp\cc32RpHN.s 			page 107


 5135 13f3 17       		.uleb128 0x17
 5136 13f4 01       		.uleb128 0x1
 5137 13f5 50       		.byte	0x50
 5138 13f6 02       		.uleb128 0x2
 5139 13f7 08       		.byte	0x8
 5140 13f8 38       		.byte	0x38
 5141 13f9 00       		.byte	0
 5142 13fa 18       		.uleb128 0x18
 5143 13fb B6000000 		.4byte	.LVL221
 5144 13ff 9C190000 		.4byte	0x199c
 5145 1403 13140000 		.4byte	0x1413
 5146 1407 17       		.uleb128 0x17
 5147 1408 01       		.uleb128 0x1
 5148 1409 51       		.byte	0x51
 5149 140a 01       		.uleb128 0x1
 5150 140b 30       		.byte	0x30
 5151 140c 17       		.uleb128 0x17
 5152 140d 01       		.uleb128 0x1
 5153 140e 52       		.byte	0x52
 5154 140f 02       		.uleb128 0x2
 5155 1410 08       		.byte	0x8
 5156 1411 38       		.byte	0x38
 5157 1412 00       		.byte	0
 5158 1413 19       		.uleb128 0x19
 5159 1414 BC000000 		.4byte	.LVL222
 5160 1418 601A0000 		.4byte	0x1a60
 5161 141c 18       		.uleb128 0x18
 5162 141d 42010000 		.4byte	.LVL234
 5163 1421 CD060000 		.4byte	0x6cd
 5164 1425 30140000 		.4byte	0x1430
 5165 1429 17       		.uleb128 0x17
 5166 142a 01       		.uleb128 0x1
 5167 142b 50       		.byte	0x50
 5168 142c 02       		.uleb128 0x2
 5169 142d 75       		.byte	0x75
 5170 142e 00       		.sleb128 0
 5171 142f 00       		.byte	0
 5172 1430 18       		.uleb128 0x18
 5173 1431 6E010000 		.4byte	.LVL242
 5174 1435 FB080000 		.4byte	0x8fb
 5175 1439 44140000 		.4byte	0x1444
 5176 143d 17       		.uleb128 0x17
 5177 143e 01       		.uleb128 0x1
 5178 143f 50       		.byte	0x50
 5179 1440 02       		.uleb128 0x2
 5180 1441 75       		.byte	0x75
 5181 1442 00       		.sleb128 0
 5182 1443 00       		.byte	0
 5183 1444 18       		.uleb128 0x18
 5184 1445 9A010000 		.4byte	.LVL250
 5185 1449 F90B0000 		.4byte	0xbf9
 5186 144d 58140000 		.4byte	0x1458
 5187 1451 17       		.uleb128 0x17
 5188 1452 01       		.uleb128 0x1
 5189 1453 50       		.byte	0x50
 5190 1454 02       		.uleb128 0x2
 5191 1455 75       		.byte	0x75
ARM GAS  C:\Users\Phuong\AppData\Local\Temp\cc32RpHN.s 			page 108


 5192 1456 00       		.sleb128 0
 5193 1457 00       		.byte	0
 5194 1458 18       		.uleb128 0x18
 5195 1459 CC010000 		.4byte	.LVL258
 5196 145d 9F0D0000 		.4byte	0xd9f
 5197 1461 6C140000 		.4byte	0x146c
 5198 1465 17       		.uleb128 0x17
 5199 1466 01       		.uleb128 0x1
 5200 1467 50       		.byte	0x50
 5201 1468 02       		.uleb128 0x2
 5202 1469 75       		.byte	0x75
 5203 146a 00       		.sleb128 0
 5204 146b 00       		.byte	0
 5205 146c 16       		.uleb128 0x16
 5206 146d 16020000 		.4byte	.LVL275
 5207 1471 690F0000 		.4byte	0xf69
 5208 1475 17       		.uleb128 0x17
 5209 1476 01       		.uleb128 0x1
 5210 1477 50       		.byte	0x50
 5211 1478 02       		.uleb128 0x2
 5212 1479 75       		.byte	0x75
 5213 147a 00       		.sleb128 0
 5214 147b 00       		.byte	0
 5215 147c 00       		.byte	0
 5216 147d 00       		.byte	0
 5217 147e 06       		.uleb128 0x6
 5218 147f 04       		.byte	0x4
 5219 1480 92020000 		.4byte	0x292
 5220 1484 07       		.uleb128 0x7
 5221 1485 E6080000 		.4byte	0x8e6
 5222 1489 27       		.uleb128 0x27
 5223 148a 20020000 		.4byte	.LASF123
 5224 148e 01       		.byte	0x1
 5225 148f BF01     		.2byte	0x1bf
 5226 1491 00000000 		.4byte	.LFB14
 5227 1495 0E000000 		.4byte	.LFE14-.LFB14
 5228 1499 01       		.uleb128 0x1
 5229 149a 9C       		.byte	0x9c
 5230 149b D3140000 		.4byte	0x14d3
 5231 149f 23       		.uleb128 0x23
 5232 14a0 530C0000 		.4byte	.LASF119
 5233 14a4 01       		.byte	0x1
 5234 14a5 BF01     		.2byte	0x1bf
 5235 14a7 9D020000 		.4byte	0x29d
 5236 14ab A80D0000 		.4byte	.LLST57
 5237 14af 13       		.uleb128 0x13
 5238 14b0 06000000 		.4byte	.LBB33
 5239 14b4 06000000 		.4byte	.LBE33-.LBB33
 5240 14b8 24       		.uleb128 0x24
 5241 14b9 F1030000 		.4byte	.LASF93
 5242 14bd 01       		.byte	0x1
 5243 14be C401     		.2byte	0x1c4
 5244 14c0 AF040000 		.4byte	0x4af
 5245 14c4 C90D0000 		.4byte	.LLST58
 5246 14c8 19       		.uleb128 0x19
 5247 14c9 0C000000 		.4byte	.LVL285
 5248 14cd 6B1A0000 		.4byte	0x1a6b
ARM GAS  C:\Users\Phuong\AppData\Local\Temp\cc32RpHN.s 			page 109


 5249 14d1 00       		.byte	0
 5250 14d2 00       		.byte	0
 5251 14d3 28       		.uleb128 0x28
 5252 14d4 9D070000 		.4byte	.LASF124
 5253 14d8 01       		.byte	0x1
 5254 14d9 CB01     		.2byte	0x1cb
 5255 14db 37000000 		.4byte	0x37
 5256 14df 00000000 		.4byte	.LFB15
 5257 14e3 7C000000 		.4byte	.LFE15-.LFB15
 5258 14e7 01       		.uleb128 0x1
 5259 14e8 9C       		.byte	0x9c
 5260 14e9 FF150000 		.4byte	0x15ff
 5261 14ed 23       		.uleb128 0x23
 5262 14ee 530C0000 		.4byte	.LASF119
 5263 14f2 01       		.byte	0x1
 5264 14f3 CB01     		.2byte	0x1cb
 5265 14f5 9D020000 		.4byte	0x29d
 5266 14f9 EA0D0000 		.4byte	.LLST59
 5267 14fd 23       		.uleb128 0x23
 5268 14fe 4C0A0000 		.4byte	.LASF88
 5269 1502 01       		.byte	0x1
 5270 1503 CB01     		.2byte	0x1cb
 5271 1505 FF150000 		.4byte	0x15ff
 5272 1509 3D0E0000 		.4byte	.LLST60
 5273 150d 24       		.uleb128 0x24
 5274 150e 42030000 		.4byte	.LASF106
 5275 1512 01       		.byte	0x1
 5276 1513 CD01     		.2byte	0x1cd
 5277 1515 37000000 		.4byte	0x37
 5278 1519 900E0000 		.4byte	.LLST61
 5279 151d 1A       		.uleb128 0x1a
 5280 151e 4A0C0000 		.4byte	.LASF105
 5281 1522 15160000 		.4byte	0x1615
 5282 1526 05       		.uleb128 0x5
 5283 1527 03       		.byte	0x3
 5284 1528 A0000000 		.4byte	__func__.7377
 5285 152c 20       		.uleb128 0x20
 5286 152d 08000000 		.4byte	.LBB34
 5287 1531 1E000000 		.4byte	.LBE34-.LBB34
 5288 1535 88150000 		.4byte	0x1588
 5289 1539 25       		.uleb128 0x25
 5290 153a 6C00     		.ascii	"l\000"
 5291 153c 01       		.byte	0x1
 5292 153d D301     		.2byte	0x1d3
 5293 153f 60030000 		.4byte	0x360
 5294 1543 E70E0000 		.4byte	.LLST62
 5295 1547 19       		.uleb128 0x19
 5296 1548 0C000000 		.4byte	.LVL288
 5297 154c 39190000 		.4byte	0x1939
 5298 1550 1C       		.uleb128 0x1c
 5299 1551 26000000 		.4byte	.LVL291
 5300 1555 02       		.uleb128 0x2
 5301 1556 74       		.byte	0x74
 5302 1557 00       		.sleb128 0
 5303 1558 17       		.uleb128 0x17
 5304 1559 01       		.uleb128 0x1
 5305 155a 50       		.byte	0x50
ARM GAS  C:\Users\Phuong\AppData\Local\Temp\cc32RpHN.s 			page 110


 5306 155b 01       		.uleb128 0x1
 5307 155c 30       		.byte	0x30
 5308 155d 17       		.uleb128 0x17
 5309 155e 01       		.uleb128 0x1
 5310 155f 51       		.byte	0x51
 5311 1560 05       		.uleb128 0x5
 5312 1561 03       		.byte	0x3
 5313 1562 00000000 		.4byte	.LC1
 5314 1566 17       		.uleb128 0x17
 5315 1567 01       		.uleb128 0x1
 5316 1568 52       		.byte	0x52
 5317 1569 05       		.uleb128 0x5
 5318 156a 03       		.byte	0x3
 5319 156b A0000000 		.4byte	.LANCHOR2+32
 5320 156f 17       		.uleb128 0x17
 5321 1570 01       		.uleb128 0x1
 5322 1571 53       		.byte	0x53
 5323 1572 03       		.uleb128 0x3
 5324 1573 0A       		.byte	0xa
 5325 1574 D301     		.2byte	0x1d3
 5326 1576 17       		.uleb128 0x17
 5327 1577 02       		.uleb128 0x2
 5328 1578 7D       		.byte	0x7d
 5329 1579 00       		.sleb128 0
 5330 157a 01       		.uleb128 0x1
 5331 157b 31       		.byte	0x31
 5332 157c 17       		.uleb128 0x17
 5333 157d 02       		.uleb128 0x2
 5334 157e 7D       		.byte	0x7d
 5335 157f 04       		.sleb128 4
 5336 1580 05       		.uleb128 0x5
 5337 1581 03       		.byte	0x3
 5338 1582 3C060000 		.4byte	.LC74
 5339 1586 00       		.byte	0
 5340 1587 00       		.byte	0
 5341 1588 20       		.uleb128 0x20
 5342 1589 30000000 		.4byte	.LBB35
 5343 158d 1E000000 		.4byte	.LBE35-.LBB35
 5344 1591 E4150000 		.4byte	0x15e4
 5345 1595 25       		.uleb128 0x25
 5346 1596 6C00     		.ascii	"l\000"
 5347 1598 01       		.byte	0x1
 5348 1599 D901     		.2byte	0x1d9
 5349 159b 60030000 		.4byte	0x360
 5350 159f 1B0F0000 		.4byte	.LLST63
 5351 15a3 19       		.uleb128 0x19
 5352 15a4 34000000 		.4byte	.LVL294
 5353 15a8 39190000 		.4byte	0x1939
 5354 15ac 1C       		.uleb128 0x1c
 5355 15ad 4E000000 		.4byte	.LVL297
 5356 15b1 02       		.uleb128 0x2
 5357 15b2 74       		.byte	0x74
 5358 15b3 00       		.sleb128 0
 5359 15b4 17       		.uleb128 0x17
 5360 15b5 01       		.uleb128 0x1
 5361 15b6 50       		.byte	0x50
 5362 15b7 01       		.uleb128 0x1
ARM GAS  C:\Users\Phuong\AppData\Local\Temp\cc32RpHN.s 			page 111


 5363 15b8 30       		.byte	0x30
 5364 15b9 17       		.uleb128 0x17
 5365 15ba 01       		.uleb128 0x1
 5366 15bb 51       		.byte	0x51
 5367 15bc 05       		.uleb128 0x5
 5368 15bd 03       		.byte	0x3
 5369 15be 00000000 		.4byte	.LC1
 5370 15c2 17       		.uleb128 0x17
 5371 15c3 01       		.uleb128 0x1
 5372 15c4 52       		.byte	0x52
 5373 15c5 05       		.uleb128 0x5
 5374 15c6 03       		.byte	0x3
 5375 15c7 A0000000 		.4byte	.LANCHOR2+32
 5376 15cb 17       		.uleb128 0x17
 5377 15cc 01       		.uleb128 0x1
 5378 15cd 53       		.byte	0x53
 5379 15ce 03       		.uleb128 0x3
 5380 15cf 0A       		.byte	0xa
 5381 15d0 D901     		.2byte	0x1d9
 5382 15d2 17       		.uleb128 0x17
 5383 15d3 02       		.uleb128 0x2
 5384 15d4 7D       		.byte	0x7d
 5385 15d5 00       		.sleb128 0
 5386 15d6 01       		.uleb128 0x1
 5387 15d7 31       		.byte	0x31
 5388 15d8 17       		.uleb128 0x17
 5389 15d9 02       		.uleb128 0x2
 5390 15da 7D       		.byte	0x7d
 5391 15db 04       		.sleb128 4
 5392 15dc 05       		.uleb128 0x5
 5393 15dd 03       		.byte	0x3
 5394 15de 7C060000 		.4byte	.LC76
 5395 15e2 00       		.byte	0
 5396 15e3 00       		.byte	0
 5397 15e4 13       		.uleb128 0x13
 5398 15e5 54000000 		.4byte	.LBB36
 5399 15e9 08000000 		.4byte	.LBE36-.LBB36
 5400 15ed 24       		.uleb128 0x24
 5401 15ee F1030000 		.4byte	.LASF93
 5402 15f2 01       		.byte	0x1
 5403 15f3 DD01     		.2byte	0x1dd
 5404 15f5 AF040000 		.4byte	0x4af
 5405 15f9 4F0F0000 		.4byte	.LLST64
 5406 15fd 00       		.byte	0
 5407 15fe 00       		.byte	0
 5408 15ff 06       		.uleb128 0x6
 5409 1600 04       		.byte	0x4
 5410 1601 64010000 		.4byte	0x164
 5411 1605 1D       		.uleb128 0x1d
 5412 1606 A4000000 		.4byte	0xa4
 5413 160a 15160000 		.4byte	0x1615
 5414 160e 1E       		.uleb128 0x1e
 5415 160f 88000000 		.4byte	0x88
 5416 1613 22       		.byte	0x22
 5417 1614 00       		.byte	0
 5418 1615 07       		.uleb128 0x7
 5419 1616 05160000 		.4byte	0x1605
ARM GAS  C:\Users\Phuong\AppData\Local\Temp\cc32RpHN.s 			page 112


 5420 161a 28       		.uleb128 0x28
 5421 161b 38020000 		.4byte	.LASF125
 5422 161f 01       		.byte	0x1
 5423 1620 E901     		.2byte	0x1e9
 5424 1622 37000000 		.4byte	0x37
 5425 1626 00000000 		.4byte	.LFB16
 5426 162a B0000000 		.4byte	.LFE16-.LFB16
 5427 162e 01       		.uleb128 0x1
 5428 162f 9C       		.byte	0x9c
 5429 1630 9A170000 		.4byte	0x179a
 5430 1634 23       		.uleb128 0x23
 5431 1635 530C0000 		.4byte	.LASF119
 5432 1639 01       		.byte	0x1
 5433 163a E901     		.2byte	0x1e9
 5434 163c 9D020000 		.4byte	0x29d
 5435 1640 700F0000 		.4byte	.LLST65
 5436 1644 23       		.uleb128 0x23
 5437 1645 11000000 		.4byte	.LASF86
 5438 1649 01       		.byte	0x1
 5439 164a E901     		.2byte	0x1e9
 5440 164c 9A170000 		.4byte	0x179a
 5441 1650 DC0F0000 		.4byte	.LLST66
 5442 1654 24       		.uleb128 0x24
 5443 1655 42030000 		.4byte	.LASF106
 5444 1659 01       		.byte	0x1
 5445 165a EB01     		.2byte	0x1eb
 5446 165c 37000000 		.4byte	0x37
 5447 1660 48100000 		.4byte	.LLST67
 5448 1664 1A       		.uleb128 0x1a
 5449 1665 4A0C0000 		.4byte	.LASF105
 5450 1669 B0170000 		.4byte	0x17b0
 5451 166d 05       		.uleb128 0x5
 5452 166e 03       		.byte	0x3
 5453 166f C4000000 		.4byte	__func__.7390
 5454 1673 20       		.uleb128 0x20
 5455 1674 08000000 		.4byte	.LBB37
 5456 1678 1E000000 		.4byte	.LBE37-.LBB37
 5457 167c CF160000 		.4byte	0x16cf
 5458 1680 25       		.uleb128 0x25
 5459 1681 6C00     		.ascii	"l\000"
 5460 1683 01       		.byte	0x1
 5461 1684 F101     		.2byte	0x1f1
 5462 1686 60030000 		.4byte	0x360
 5463 168a BB100000 		.4byte	.LLST68
 5464 168e 19       		.uleb128 0x19
 5465 168f 0C000000 		.4byte	.LVL308
 5466 1693 39190000 		.4byte	0x1939
 5467 1697 1C       		.uleb128 0x1c
 5468 1698 26000000 		.4byte	.LVL311
 5469 169c 02       		.uleb128 0x2
 5470 169d 74       		.byte	0x74
 5471 169e 00       		.sleb128 0
 5472 169f 17       		.uleb128 0x17
 5473 16a0 01       		.uleb128 0x1
 5474 16a1 50       		.byte	0x50
 5475 16a2 01       		.uleb128 0x1
 5476 16a3 30       		.byte	0x30
ARM GAS  C:\Users\Phuong\AppData\Local\Temp\cc32RpHN.s 			page 113


 5477 16a4 17       		.uleb128 0x17
 5478 16a5 01       		.uleb128 0x1
 5479 16a6 51       		.byte	0x51
 5480 16a7 05       		.uleb128 0x5
 5481 16a8 03       		.byte	0x3
 5482 16a9 00000000 		.4byte	.LC1
 5483 16ad 17       		.uleb128 0x17
 5484 16ae 01       		.uleb128 0x1
 5485 16af 52       		.byte	0x52
 5486 16b0 05       		.uleb128 0x5
 5487 16b1 03       		.byte	0x3
 5488 16b2 C4000000 		.4byte	.LANCHOR2+68
 5489 16b6 17       		.uleb128 0x17
 5490 16b7 01       		.uleb128 0x1
 5491 16b8 53       		.byte	0x53
 5492 16b9 03       		.uleb128 0x3
 5493 16ba 0A       		.byte	0xa
 5494 16bb F101     		.2byte	0x1f1
 5495 16bd 17       		.uleb128 0x17
 5496 16be 02       		.uleb128 0x2
 5497 16bf 7D       		.byte	0x7d
 5498 16c0 00       		.sleb128 0
 5499 16c1 01       		.uleb128 0x1
 5500 16c2 31       		.byte	0x31
 5501 16c3 17       		.uleb128 0x17
 5502 16c4 02       		.uleb128 0x2
 5503 16c5 7D       		.byte	0x7d
 5504 16c6 04       		.sleb128 4
 5505 16c7 05       		.uleb128 0x5
 5506 16c8 03       		.byte	0x3
 5507 16c9 C0060000 		.4byte	.LC80
 5508 16cd 00       		.byte	0
 5509 16ce 00       		.byte	0
 5510 16cf 20       		.uleb128 0x20
 5511 16d0 30000000 		.4byte	.LBB38
 5512 16d4 1E000000 		.4byte	.LBE38-.LBB38
 5513 16d8 2B170000 		.4byte	0x172b
 5514 16dc 25       		.uleb128 0x25
 5515 16dd 6C00     		.ascii	"l\000"
 5516 16df 01       		.byte	0x1
 5517 16e0 F701     		.2byte	0x1f7
 5518 16e2 60030000 		.4byte	0x360
 5519 16e6 EF100000 		.4byte	.LLST69
 5520 16ea 19       		.uleb128 0x19
 5521 16eb 34000000 		.4byte	.LVL314
 5522 16ef 39190000 		.4byte	0x1939
 5523 16f3 1C       		.uleb128 0x1c
 5524 16f4 4E000000 		.4byte	.LVL317
 5525 16f8 02       		.uleb128 0x2
 5526 16f9 74       		.byte	0x74
 5527 16fa 00       		.sleb128 0
 5528 16fb 17       		.uleb128 0x17
 5529 16fc 01       		.uleb128 0x1
 5530 16fd 50       		.byte	0x50
 5531 16fe 01       		.uleb128 0x1
 5532 16ff 30       		.byte	0x30
 5533 1700 17       		.uleb128 0x17
ARM GAS  C:\Users\Phuong\AppData\Local\Temp\cc32RpHN.s 			page 114


 5534 1701 01       		.uleb128 0x1
 5535 1702 51       		.byte	0x51
 5536 1703 05       		.uleb128 0x5
 5537 1704 03       		.byte	0x3
 5538 1705 00000000 		.4byte	.LC1
 5539 1709 17       		.uleb128 0x17
 5540 170a 01       		.uleb128 0x1
 5541 170b 52       		.byte	0x52
 5542 170c 05       		.uleb128 0x5
 5543 170d 03       		.byte	0x3
 5544 170e C4000000 		.4byte	.LANCHOR2+68
 5545 1712 17       		.uleb128 0x17
 5546 1713 01       		.uleb128 0x1
 5547 1714 53       		.byte	0x53
 5548 1715 03       		.uleb128 0x3
 5549 1716 0A       		.byte	0xa
 5550 1717 F701     		.2byte	0x1f7
 5551 1719 17       		.uleb128 0x17
 5552 171a 02       		.uleb128 0x2
 5553 171b 7D       		.byte	0x7d
 5554 171c 00       		.sleb128 0
 5555 171d 01       		.uleb128 0x1
 5556 171e 31       		.byte	0x31
 5557 171f 17       		.uleb128 0x17
 5558 1720 02       		.uleb128 0x2
 5559 1721 7D       		.byte	0x7d
 5560 1722 04       		.sleb128 4
 5561 1723 05       		.uleb128 0x5
 5562 1724 03       		.byte	0x3
 5563 1725 FC060000 		.4byte	.LC82
 5564 1729 00       		.byte	0
 5565 172a 00       		.byte	0
 5566 172b 29       		.uleb128 0x29
 5567 172c 18000000 		.4byte	.Ldebug_ranges0+0x18
 5568 1730 24       		.uleb128 0x24
 5569 1731 F1030000 		.4byte	.LASF93
 5570 1735 01       		.byte	0x1
 5571 1736 FB01     		.2byte	0x1fb
 5572 1738 AF040000 		.4byte	0x4af
 5573 173c 23110000 		.4byte	.LLST70
 5574 1740 13       		.uleb128 0x13
 5575 1741 5A000000 		.4byte	.LBB40
 5576 1745 1C000000 		.4byte	.LBE40-.LBB40
 5577 1749 25       		.uleb128 0x25
 5578 174a 6C00     		.ascii	"l\000"
 5579 174c 01       		.byte	0x1
 5580 174d 0102     		.2byte	0x201
 5581 174f 60030000 		.4byte	0x360
 5582 1753 6B110000 		.4byte	.LLST71
 5583 1757 19       		.uleb128 0x19
 5584 1758 5E000000 		.4byte	.LVL320
 5585 175c 39190000 		.4byte	0x1939
 5586 1760 1C       		.uleb128 0x1c
 5587 1761 76000000 		.4byte	.LVL323
 5588 1765 02       		.uleb128 0x2
 5589 1766 74       		.byte	0x74
 5590 1767 00       		.sleb128 0
ARM GAS  C:\Users\Phuong\AppData\Local\Temp\cc32RpHN.s 			page 115


 5591 1768 17       		.uleb128 0x17
 5592 1769 01       		.uleb128 0x1
 5593 176a 50       		.byte	0x50
 5594 176b 01       		.uleb128 0x1
 5595 176c 30       		.byte	0x30
 5596 176d 17       		.uleb128 0x17
 5597 176e 01       		.uleb128 0x1
 5598 176f 51       		.byte	0x51
 5599 1770 05       		.uleb128 0x5
 5600 1771 03       		.byte	0x3
 5601 1772 00000000 		.4byte	.LC1
 5602 1776 17       		.uleb128 0x17
 5603 1777 01       		.uleb128 0x1
 5604 1778 52       		.byte	0x52
 5605 1779 05       		.uleb128 0x5
 5606 177a 03       		.byte	0x3
 5607 177b C4000000 		.4byte	.LANCHOR2+68
 5608 177f 17       		.uleb128 0x17
 5609 1780 01       		.uleb128 0x1
 5610 1781 53       		.byte	0x53
 5611 1782 03       		.uleb128 0x3
 5612 1783 0A       		.byte	0xa
 5613 1784 0102     		.2byte	0x201
 5614 1786 17       		.uleb128 0x17
 5615 1787 02       		.uleb128 0x2
 5616 1788 7D       		.byte	0x7d
 5617 1789 00       		.sleb128 0
 5618 178a 01       		.uleb128 0x1
 5619 178b 31       		.byte	0x31
 5620 178c 17       		.uleb128 0x17
 5621 178d 02       		.uleb128 0x2
 5622 178e 7D       		.byte	0x7d
 5623 178f 04       		.sleb128 4
 5624 1790 05       		.uleb128 0x5
 5625 1791 03       		.byte	0x3
 5626 1792 44070000 		.4byte	.LC84
 5627 1796 00       		.byte	0
 5628 1797 00       		.byte	0
 5629 1798 00       		.byte	0
 5630 1799 00       		.byte	0
 5631 179a 06       		.uleb128 0x6
 5632 179b 04       		.byte	0x4
 5633 179c A8010000 		.4byte	0x1a8
 5634 17a0 1D       		.uleb128 0x1d
 5635 17a1 A4000000 		.4byte	0xa4
 5636 17a5 B0170000 		.4byte	0x17b0
 5637 17a9 1E       		.uleb128 0x1e
 5638 17aa 88000000 		.4byte	0x88
 5639 17ae 1E       		.byte	0x1e
 5640 17af 00       		.byte	0
 5641 17b0 07       		.uleb128 0x7
 5642 17b1 A0170000 		.4byte	0x17a0
 5643 17b5 28       		.uleb128 0x28
 5644 17b6 2B000000 		.4byte	.LASF126
 5645 17ba 01       		.byte	0x1
 5646 17bb 1002     		.2byte	0x210
 5647 17bd 37000000 		.4byte	0x37
ARM GAS  C:\Users\Phuong\AppData\Local\Temp\cc32RpHN.s 			page 116


 5648 17c1 00000000 		.4byte	.LFB17
 5649 17c5 98000000 		.4byte	.LFE17-.LFB17
 5650 17c9 01       		.uleb128 0x1
 5651 17ca 9C       		.byte	0x9c
 5652 17cb 03190000 		.4byte	0x1903
 5653 17cf 23       		.uleb128 0x23
 5654 17d0 530C0000 		.4byte	.LASF119
 5655 17d4 01       		.byte	0x1
 5656 17d5 1002     		.2byte	0x210
 5657 17d7 9D020000 		.4byte	0x29d
 5658 17db 9F110000 		.4byte	.LLST72
 5659 17df 23       		.uleb128 0x23
 5660 17e0 58050000 		.4byte	.LASF56
 5661 17e4 01       		.byte	0x1
 5662 17e5 1002     		.2byte	0x210
 5663 17e7 D1000000 		.4byte	0xd1
 5664 17eb 08120000 		.4byte	.LLST73
 5665 17ef 24       		.uleb128 0x24
 5666 17f0 42030000 		.4byte	.LASF106
 5667 17f4 01       		.byte	0x1
 5668 17f5 1202     		.2byte	0x212
 5669 17f7 37000000 		.4byte	0x37
 5670 17fb 4E120000 		.4byte	.LLST74
 5671 17ff 1A       		.uleb128 0x1a
 5672 1800 4A0C0000 		.4byte	.LASF105
 5673 1804 13190000 		.4byte	0x1913
 5674 1808 05       		.uleb128 0x5
 5675 1809 03       		.byte	0x3
 5676 180a E4000000 		.4byte	__func__.7406
 5677 180e 20       		.uleb128 0x20
 5678 180f 08000000 		.4byte	.LBB42
 5679 1813 1E000000 		.4byte	.LBE42-.LBB42
 5680 1817 6A180000 		.4byte	0x186a
 5681 181b 25       		.uleb128 0x25
 5682 181c 6C00     		.ascii	"l\000"
 5683 181e 01       		.byte	0x1
 5684 181f 1802     		.2byte	0x218
 5685 1821 60030000 		.4byte	0x360
 5686 1825 A5120000 		.4byte	.LLST75
 5687 1829 19       		.uleb128 0x19
 5688 182a 0C000000 		.4byte	.LVL336
 5689 182e 39190000 		.4byte	0x1939
 5690 1832 1C       		.uleb128 0x1c
 5691 1833 26000000 		.4byte	.LVL339
 5692 1837 02       		.uleb128 0x2
 5693 1838 74       		.byte	0x74
 5694 1839 00       		.sleb128 0
 5695 183a 17       		.uleb128 0x17
 5696 183b 01       		.uleb128 0x1
 5697 183c 50       		.byte	0x50
 5698 183d 01       		.uleb128 0x1
 5699 183e 30       		.byte	0x30
 5700 183f 17       		.uleb128 0x17
 5701 1840 01       		.uleb128 0x1
 5702 1841 51       		.byte	0x51
 5703 1842 05       		.uleb128 0x5
 5704 1843 03       		.byte	0x3
ARM GAS  C:\Users\Phuong\AppData\Local\Temp\cc32RpHN.s 			page 117


 5705 1844 00000000 		.4byte	.LC1
 5706 1848 17       		.uleb128 0x17
 5707 1849 01       		.uleb128 0x1
 5708 184a 52       		.byte	0x52
 5709 184b 05       		.uleb128 0x5
 5710 184c 03       		.byte	0x3
 5711 184d E4000000 		.4byte	.LANCHOR2+100
 5712 1851 17       		.uleb128 0x17
 5713 1852 01       		.uleb128 0x1
 5714 1853 53       		.byte	0x53
 5715 1854 03       		.uleb128 0x3
 5716 1855 0A       		.byte	0xa
 5717 1856 1802     		.2byte	0x218
 5718 1858 17       		.uleb128 0x17
 5719 1859 02       		.uleb128 0x2
 5720 185a 7D       		.byte	0x7d
 5721 185b 00       		.sleb128 0
 5722 185c 01       		.uleb128 0x1
 5723 185d 31       		.byte	0x31
 5724 185e 17       		.uleb128 0x17
 5725 185f 02       		.uleb128 0x2
 5726 1860 7D       		.byte	0x7d
 5727 1861 04       		.sleb128 4
 5728 1862 05       		.uleb128 0x5
 5729 1863 03       		.byte	0x3
 5730 1864 98070000 		.4byte	.LC88
 5731 1868 00       		.byte	0
 5732 1869 00       		.byte	0
 5733 186a 29       		.uleb128 0x29
 5734 186b 30000000 		.4byte	.Ldebug_ranges0+0x30
 5735 186f 24       		.uleb128 0x24
 5736 1870 F1030000 		.4byte	.LASF93
 5737 1874 01       		.byte	0x1
 5738 1875 1C02     		.2byte	0x21c
 5739 1877 AF040000 		.4byte	0x4af
 5740 187b D9120000 		.4byte	.LLST76
 5741 187f 20       		.uleb128 0x20
 5742 1880 40000000 		.4byte	.LBB44
 5743 1884 1C000000 		.4byte	.LBE44-.LBB44
 5744 1888 DB180000 		.4byte	0x18db
 5745 188c 25       		.uleb128 0x25
 5746 188d 6C00     		.ascii	"l\000"
 5747 188f 01       		.byte	0x1
 5748 1890 2702     		.2byte	0x227
 5749 1892 60030000 		.4byte	0x360
 5750 1896 1E130000 		.4byte	.LLST77
 5751 189a 19       		.uleb128 0x19
 5752 189b 44000000 		.4byte	.LVL345
 5753 189f 39190000 		.4byte	0x1939
 5754 18a3 1C       		.uleb128 0x1c
 5755 18a4 5C000000 		.4byte	.LVL348
 5756 18a8 02       		.uleb128 0x2
 5757 18a9 74       		.byte	0x74
 5758 18aa 00       		.sleb128 0
 5759 18ab 17       		.uleb128 0x17
 5760 18ac 01       		.uleb128 0x1
 5761 18ad 50       		.byte	0x50
ARM GAS  C:\Users\Phuong\AppData\Local\Temp\cc32RpHN.s 			page 118


 5762 18ae 01       		.uleb128 0x1
 5763 18af 30       		.byte	0x30
 5764 18b0 17       		.uleb128 0x17
 5765 18b1 01       		.uleb128 0x1
 5766 18b2 51       		.byte	0x51
 5767 18b3 05       		.uleb128 0x5
 5768 18b4 03       		.byte	0x3
 5769 18b5 00000000 		.4byte	.LC1
 5770 18b9 17       		.uleb128 0x17
 5771 18ba 01       		.uleb128 0x1
 5772 18bb 52       		.byte	0x52
 5773 18bc 05       		.uleb128 0x5
 5774 18bd 03       		.byte	0x3
 5775 18be E4000000 		.4byte	.LANCHOR2+100
 5776 18c2 17       		.uleb128 0x17
 5777 18c3 01       		.uleb128 0x1
 5778 18c4 53       		.byte	0x53
 5779 18c5 03       		.uleb128 0x3
 5780 18c6 0A       		.byte	0xa
 5781 18c7 2702     		.2byte	0x227
 5782 18c9 17       		.uleb128 0x17
 5783 18ca 02       		.uleb128 0x2
 5784 18cb 7D       		.byte	0x7d
 5785 18cc 00       		.sleb128 0
 5786 18cd 01       		.uleb128 0x1
 5787 18ce 31       		.byte	0x31
 5788 18cf 17       		.uleb128 0x17
 5789 18d0 02       		.uleb128 0x2
 5790 18d1 7D       		.byte	0x7d
 5791 18d2 04       		.sleb128 4
 5792 18d3 05       		.uleb128 0x5
 5793 18d4 03       		.byte	0x3
 5794 18d5 D4070000 		.4byte	.LC91
 5795 18d9 00       		.byte	0
 5796 18da 00       		.byte	0
 5797 18db 18       		.uleb128 0x18
 5798 18dc 3C000000 		.4byte	.LVL343
 5799 18e0 65190000 		.4byte	0x1965
 5800 18e4 F8180000 		.4byte	0x18f8
 5801 18e8 17       		.uleb128 0x17
 5802 18e9 01       		.uleb128 0x1
 5803 18ea 51       		.byte	0x51
 5804 18eb 05       		.uleb128 0x5
 5805 18ec 03       		.byte	0x3
 5806 18ed F8000000 		.4byte	.LC15
 5807 18f1 17       		.uleb128 0x17
 5808 18f2 01       		.uleb128 0x1
 5809 18f3 52       		.byte	0x52
 5810 18f4 02       		.uleb128 0x2
 5811 18f5 74       		.byte	0x74
 5812 18f6 1E       		.sleb128 30
 5813 18f7 00       		.byte	0
 5814 18f8 19       		.uleb128 0x19
 5815 18f9 68000000 		.4byte	.LVL350
 5816 18fd DC190000 		.4byte	0x19dc
 5817 1901 00       		.byte	0
 5818 1902 00       		.byte	0
ARM GAS  C:\Users\Phuong\AppData\Local\Temp\cc32RpHN.s 			page 119


 5819 1903 1D       		.uleb128 0x1d
 5820 1904 A4000000 		.4byte	0xa4
 5821 1908 13190000 		.4byte	0x1913
 5822 190c 1E       		.uleb128 0x1e
 5823 190d 88000000 		.4byte	0x88
 5824 1911 1B       		.byte	0x1b
 5825 1912 00       		.byte	0
 5826 1913 07       		.uleb128 0x7
 5827 1914 03190000 		.4byte	0x1903
 5828 1918 1D       		.uleb128 0x1d
 5829 1919 9E000000 		.4byte	0x9e
 5830 191d 28190000 		.4byte	0x1928
 5831 1921 1E       		.uleb128 0x1e
 5832 1922 88000000 		.4byte	0x88
 5833 1926 02       		.byte	0x2
 5834 1927 00       		.byte	0
 5835 1928 2A       		.uleb128 0x2a
 5836 1929 FC050000 		.4byte	.LASF158
 5837 192d 01       		.byte	0x1
 5838 192e 2B       		.byte	0x2b
 5839 192f 18190000 		.4byte	0x1918
 5840 1933 05       		.uleb128 0x5
 5841 1934 03       		.byte	0x3
 5842 1935 00000000 		.4byte	AMQP_CONNECTION_STATEStringStorage
 5843 1939 2B       		.uleb128 0x2b
 5844 193a CE010000 		.4byte	.LASF127
 5845 193e CE010000 		.4byte	.LASF127
 5846 1942 0E       		.byte	0xe
 5847 1943 9D       		.byte	0x9d
 5848 1944 2B       		.uleb128 0x2b
 5849 1945 B0030000 		.4byte	.LASF128
 5850 1949 B0030000 		.4byte	.LASF128
 5851 194d 0D       		.byte	0xd
 5852 194e 1B       		.byte	0x1b
 5853 194f 2B       		.uleb128 0x2b
 5854 1950 48050000 		.4byte	.LASF129
 5855 1954 48050000 		.4byte	.LASF129
 5856 1958 04       		.byte	0x4
 5857 1959 40       		.byte	0x40
 5858 195a 2B       		.uleb128 0x2b
 5859 195b 79060000 		.4byte	.LASF130
 5860 195f 79060000 		.4byte	.LASF130
 5861 1963 0C       		.byte	0xc
 5862 1964 29       		.byte	0x29
 5863 1965 2B       		.uleb128 0x2b
 5864 1966 76020000 		.4byte	.LASF131
 5865 196a 76020000 		.4byte	.LASF131
 5866 196e 04       		.byte	0x4
 5867 196f 46       		.byte	0x46
 5868 1970 2B       		.uleb128 0x2b
 5869 1971 C0070000 		.4byte	.LASF132
 5870 1975 C0070000 		.4byte	.LASF132
 5871 1979 04       		.byte	0x4
 5872 197a 41       		.byte	0x41
 5873 197b 2B       		.uleb128 0x2b
 5874 197c 9D090000 		.4byte	.LASF133
 5875 1980 9D090000 		.4byte	.LASF133
ARM GAS  C:\Users\Phuong\AppData\Local\Temp\cc32RpHN.s 			page 120


 5876 1984 0F       		.byte	0xf
 5877 1985 14       		.byte	0x14
 5878 1986 2B       		.uleb128 0x2b
 5879 1987 93000000 		.4byte	.LASF134
 5880 198b 93000000 		.4byte	.LASF134
 5881 198f 0C       		.byte	0xc
 5882 1990 28       		.byte	0x28
 5883 1991 2B       		.uleb128 0x2b
 5884 1992 16030000 		.4byte	.LASF135
 5885 1996 16030000 		.4byte	.LASF135
 5886 199a 10       		.byte	0x10
 5887 199b 64       		.byte	0x64
 5888 199c 2C       		.uleb128 0x2c
 5889 199d EE060000 		.4byte	.LASF159
 5890 19a1 EE060000 		.4byte	.LASF159
 5891 19a5 2B       		.uleb128 0x2b
 5892 19a6 58010000 		.4byte	.LASF136
 5893 19aa 58010000 		.4byte	.LASF136
 5894 19ae 0B       		.byte	0xb
 5895 19af 19       		.byte	0x19
 5896 19b0 2B       		.uleb128 0x2b
 5897 19b1 49030000 		.4byte	.LASF137
 5898 19b5 49030000 		.4byte	.LASF137
 5899 19b9 11       		.byte	0x11
 5900 19ba 20       		.byte	0x20
 5901 19bb 2B       		.uleb128 0x2b
 5902 19bc F4080000 		.4byte	.LASF138
 5903 19c0 F4080000 		.4byte	.LASF138
 5904 19c4 06       		.byte	0x6
 5905 19c5 50       		.byte	0x50
 5906 19c6 2B       		.uleb128 0x2b
 5907 19c7 270B0000 		.4byte	.LASF139
 5908 19cb 270B0000 		.4byte	.LASF139
 5909 19cf 06       		.byte	0x6
 5910 19d0 59       		.byte	0x59
 5911 19d1 2B       		.uleb128 0x2b
 5912 19d2 E90C0000 		.4byte	.LASF140
 5913 19d6 E90C0000 		.4byte	.LASF140
 5914 19da 06       		.byte	0x6
 5915 19db 5E       		.byte	0x5e
 5916 19dc 2B       		.uleb128 0x2b
 5917 19dd 720C0000 		.4byte	.LASF141
 5918 19e1 720C0000 		.4byte	.LASF141
 5919 19e5 06       		.byte	0x6
 5920 19e6 66       		.byte	0x66
 5921 19e7 2B       		.uleb128 0x2b
 5922 19e8 36050000 		.4byte	.LASF142
 5923 19ec 36050000 		.4byte	.LASF142
 5924 19f0 10       		.byte	0x10
 5925 19f1 59       		.byte	0x59
 5926 19f2 2B       		.uleb128 0x2b
 5927 19f3 980C0000 		.4byte	.LASF143
 5928 19f7 980C0000 		.4byte	.LASF143
 5929 19fb 07       		.byte	0x7
 5930 19fc 41       		.byte	0x41
 5931 19fd 2B       		.uleb128 0x2b
 5932 19fe A7010000 		.4byte	.LASF144
ARM GAS  C:\Users\Phuong\AppData\Local\Temp\cc32RpHN.s 			page 121


 5933 1a02 A7010000 		.4byte	.LASF144
 5934 1a06 07       		.byte	0x7
 5935 1a07 43       		.byte	0x43
 5936 1a08 2B       		.uleb128 0x2b
 5937 1a09 A70C0000 		.4byte	.LASF145
 5938 1a0d A70C0000 		.4byte	.LASF145
 5939 1a11 07       		.byte	0x7
 5940 1a12 45       		.byte	0x45
 5941 1a13 2B       		.uleb128 0x2b
 5942 1a14 99030000 		.4byte	.LASF146
 5943 1a18 99030000 		.4byte	.LASF146
 5944 1a1c 08       		.byte	0x8
 5945 1a1d 25       		.byte	0x25
 5946 1a1e 2B       		.uleb128 0x2b
 5947 1a1f E5080000 		.4byte	.LASF147
 5948 1a23 E5080000 		.4byte	.LASF147
 5949 1a27 08       		.byte	0x8
 5950 1a28 27       		.byte	0x27
 5951 1a29 2B       		.uleb128 0x2b
 5952 1a2a 230D0000 		.4byte	.LASF148
 5953 1a2e 230D0000 		.4byte	.LASF148
 5954 1a32 12       		.byte	0x12
 5955 1a33 1C       		.byte	0x1c
 5956 1a34 2B       		.uleb128 0x2b
 5957 1a35 44090000 		.4byte	.LASF149
 5958 1a39 44090000 		.4byte	.LASF149
 5959 1a3d 08       		.byte	0x8
 5960 1a3e 26       		.byte	0x26
 5961 1a3f 2B       		.uleb128 0x2b
 5962 1a40 32030000 		.4byte	.LASF150
 5963 1a44 32030000 		.4byte	.LASF150
 5964 1a48 07       		.byte	0x7
 5965 1a49 49       		.byte	0x49
 5966 1a4a 2B       		.uleb128 0x2b
 5967 1a4b A6050000 		.4byte	.LASF151
 5968 1a4f A6050000 		.4byte	.LASF151
 5969 1a53 06       		.byte	0x6
 5970 1a54 51       		.byte	0x51
 5971 1a55 2B       		.uleb128 0x2b
 5972 1a56 15080000 		.4byte	.LASF152
 5973 1a5a 15080000 		.4byte	.LASF152
 5974 1a5e 11       		.byte	0x11
 5975 1a5f 1A       		.byte	0x1a
 5976 1a60 2B       		.uleb128 0x2b
 5977 1a61 870C0000 		.4byte	.LASF153
 5978 1a65 870C0000 		.4byte	.LASF153
 5979 1a69 11       		.byte	0x11
 5980 1a6a 14       		.byte	0x14
 5981 1a6b 2B       		.uleb128 0x2b
 5982 1a6c C20B0000 		.4byte	.LASF154
 5983 1a70 C20B0000 		.4byte	.LASF154
 5984 1a74 06       		.byte	0x6
 5985 1a75 60       		.byte	0x60
 5986 1a76 00       		.byte	0
 5987              		.section	.debug_abbrev,"",%progbits
 5988              	.Ldebug_abbrev0:
 5989 0000 01       		.uleb128 0x1
ARM GAS  C:\Users\Phuong\AppData\Local\Temp\cc32RpHN.s 			page 122


 5990 0001 11       		.uleb128 0x11
 5991 0002 01       		.byte	0x1
 5992 0003 25       		.uleb128 0x25
 5993 0004 0E       		.uleb128 0xe
 5994 0005 13       		.uleb128 0x13
 5995 0006 0B       		.uleb128 0xb
 5996 0007 03       		.uleb128 0x3
 5997 0008 0E       		.uleb128 0xe
 5998 0009 1B       		.uleb128 0x1b
 5999 000a 0E       		.uleb128 0xe
 6000 000b 55       		.uleb128 0x55
 6001 000c 17       		.uleb128 0x17
 6002 000d 11       		.uleb128 0x11
 6003 000e 01       		.uleb128 0x1
 6004 000f 10       		.uleb128 0x10
 6005 0010 17       		.uleb128 0x17
 6006 0011 00       		.byte	0
 6007 0012 00       		.byte	0
 6008 0013 02       		.uleb128 0x2
 6009 0014 16       		.uleb128 0x16
 6010 0015 00       		.byte	0
 6011 0016 03       		.uleb128 0x3
 6012 0017 0E       		.uleb128 0xe
 6013 0018 3A       		.uleb128 0x3a
 6014 0019 0B       		.uleb128 0xb
 6015 001a 3B       		.uleb128 0x3b
 6016 001b 0B       		.uleb128 0xb
 6017 001c 49       		.uleb128 0x49
 6018 001d 13       		.uleb128 0x13
 6019 001e 00       		.byte	0
 6020 001f 00       		.byte	0
 6021 0020 03       		.uleb128 0x3
 6022 0021 24       		.uleb128 0x24
 6023 0022 00       		.byte	0
 6024 0023 0B       		.uleb128 0xb
 6025 0024 0B       		.uleb128 0xb
 6026 0025 3E       		.uleb128 0x3e
 6027 0026 0B       		.uleb128 0xb
 6028 0027 03       		.uleb128 0x3
 6029 0028 0E       		.uleb128 0xe
 6030 0029 00       		.byte	0
 6031 002a 00       		.byte	0
 6032 002b 04       		.uleb128 0x4
 6033 002c 24       		.uleb128 0x24
 6034 002d 00       		.byte	0
 6035 002e 0B       		.uleb128 0xb
 6036 002f 0B       		.uleb128 0xb
 6037 0030 3E       		.uleb128 0x3e
 6038 0031 0B       		.uleb128 0xb
 6039 0032 03       		.uleb128 0x3
 6040 0033 08       		.uleb128 0x8
 6041 0034 00       		.byte	0
 6042 0035 00       		.byte	0
 6043 0036 05       		.uleb128 0x5
 6044 0037 0F       		.uleb128 0xf
 6045 0038 00       		.byte	0
 6046 0039 0B       		.uleb128 0xb
ARM GAS  C:\Users\Phuong\AppData\Local\Temp\cc32RpHN.s 			page 123


 6047 003a 0B       		.uleb128 0xb
 6048 003b 00       		.byte	0
 6049 003c 00       		.byte	0
 6050 003d 06       		.uleb128 0x6
 6051 003e 0F       		.uleb128 0xf
 6052 003f 00       		.byte	0
 6053 0040 0B       		.uleb128 0xb
 6054 0041 0B       		.uleb128 0xb
 6055 0042 49       		.uleb128 0x49
 6056 0043 13       		.uleb128 0x13
 6057 0044 00       		.byte	0
 6058 0045 00       		.byte	0
 6059 0046 07       		.uleb128 0x7
 6060 0047 26       		.uleb128 0x26
 6061 0048 00       		.byte	0
 6062 0049 49       		.uleb128 0x49
 6063 004a 13       		.uleb128 0x13
 6064 004b 00       		.byte	0
 6065 004c 00       		.byte	0
 6066 004d 08       		.uleb128 0x8
 6067 004e 26       		.uleb128 0x26
 6068 004f 00       		.byte	0
 6069 0050 00       		.byte	0
 6070 0051 00       		.byte	0
 6071 0052 09       		.uleb128 0x9
 6072 0053 13       		.uleb128 0x13
 6073 0054 00       		.byte	0
 6074 0055 03       		.uleb128 0x3
 6075 0056 0E       		.uleb128 0xe
 6076 0057 3C       		.uleb128 0x3c
 6077 0058 19       		.uleb128 0x19
 6078 0059 00       		.byte	0
 6079 005a 00       		.byte	0
 6080 005b 0A       		.uleb128 0xa
 6081 005c 04       		.uleb128 0x4
 6082 005d 01       		.byte	0x1
 6083 005e 03       		.uleb128 0x3
 6084 005f 0E       		.uleb128 0xe
 6085 0060 0B       		.uleb128 0xb
 6086 0061 0B       		.uleb128 0xb
 6087 0062 49       		.uleb128 0x49
 6088 0063 13       		.uleb128 0x13
 6089 0064 3A       		.uleb128 0x3a
 6090 0065 0B       		.uleb128 0xb
 6091 0066 3B       		.uleb128 0x3b
 6092 0067 0B       		.uleb128 0xb
 6093 0068 01       		.uleb128 0x1
 6094 0069 13       		.uleb128 0x13
 6095 006a 00       		.byte	0
 6096 006b 00       		.byte	0
 6097 006c 0B       		.uleb128 0xb
 6098 006d 28       		.uleb128 0x28
 6099 006e 00       		.byte	0
 6100 006f 03       		.uleb128 0x3
 6101 0070 0E       		.uleb128 0xe
 6102 0071 1C       		.uleb128 0x1c
 6103 0072 0B       		.uleb128 0xb
ARM GAS  C:\Users\Phuong\AppData\Local\Temp\cc32RpHN.s 			page 124


 6104 0073 00       		.byte	0
 6105 0074 00       		.byte	0
 6106 0075 0C       		.uleb128 0xc
 6107 0076 15       		.uleb128 0x15
 6108 0077 01       		.byte	0x1
 6109 0078 27       		.uleb128 0x27
 6110 0079 19       		.uleb128 0x19
 6111 007a 01       		.uleb128 0x1
 6112 007b 13       		.uleb128 0x13
 6113 007c 00       		.byte	0
 6114 007d 00       		.byte	0
 6115 007e 0D       		.uleb128 0xd
 6116 007f 05       		.uleb128 0x5
 6117 0080 00       		.byte	0
 6118 0081 49       		.uleb128 0x49
 6119 0082 13       		.uleb128 0x13
 6120 0083 00       		.byte	0
 6121 0084 00       		.byte	0
 6122 0085 0E       		.uleb128 0xe
 6123 0086 13       		.uleb128 0x13
 6124 0087 01       		.byte	0x1
 6125 0088 03       		.uleb128 0x3
 6126 0089 0E       		.uleb128 0xe
 6127 008a 0B       		.uleb128 0xb
 6128 008b 0B       		.uleb128 0xb
 6129 008c 3A       		.uleb128 0x3a
 6130 008d 0B       		.uleb128 0xb
 6131 008e 3B       		.uleb128 0x3b
 6132 008f 0B       		.uleb128 0xb
 6133 0090 01       		.uleb128 0x1
 6134 0091 13       		.uleb128 0x13
 6135 0092 00       		.byte	0
 6136 0093 00       		.byte	0
 6137 0094 0F       		.uleb128 0xf
 6138 0095 0D       		.uleb128 0xd
 6139 0096 00       		.byte	0
 6140 0097 03       		.uleb128 0x3
 6141 0098 0E       		.uleb128 0xe
 6142 0099 3A       		.uleb128 0x3a
 6143 009a 0B       		.uleb128 0xb
 6144 009b 3B       		.uleb128 0x3b
 6145 009c 0B       		.uleb128 0xb
 6146 009d 49       		.uleb128 0x49
 6147 009e 13       		.uleb128 0x13
 6148 009f 38       		.uleb128 0x38
 6149 00a0 0B       		.uleb128 0xb
 6150 00a1 00       		.byte	0
 6151 00a2 00       		.byte	0
 6152 00a3 10       		.uleb128 0x10
 6153 00a4 18       		.uleb128 0x18
 6154 00a5 00       		.byte	0
 6155 00a6 00       		.byte	0
 6156 00a7 00       		.byte	0
 6157 00a8 11       		.uleb128 0x11
 6158 00a9 2E       		.uleb128 0x2e
 6159 00aa 01       		.byte	0x1
 6160 00ab 03       		.uleb128 0x3
ARM GAS  C:\Users\Phuong\AppData\Local\Temp\cc32RpHN.s 			page 125


 6161 00ac 0E       		.uleb128 0xe
 6162 00ad 3A       		.uleb128 0x3a
 6163 00ae 0B       		.uleb128 0xb
 6164 00af 3B       		.uleb128 0x3b
 6165 00b0 0B       		.uleb128 0xb
 6166 00b1 27       		.uleb128 0x27
 6167 00b2 19       		.uleb128 0x19
 6168 00b3 11       		.uleb128 0x11
 6169 00b4 01       		.uleb128 0x1
 6170 00b5 12       		.uleb128 0x12
 6171 00b6 06       		.uleb128 0x6
 6172 00b7 40       		.uleb128 0x40
 6173 00b8 18       		.uleb128 0x18
 6174 00b9 9642     		.uleb128 0x2116
 6175 00bb 19       		.uleb128 0x19
 6176 00bc 01       		.uleb128 0x1
 6177 00bd 13       		.uleb128 0x13
 6178 00be 00       		.byte	0
 6179 00bf 00       		.byte	0
 6180 00c0 12       		.uleb128 0x12
 6181 00c1 05       		.uleb128 0x5
 6182 00c2 00       		.byte	0
 6183 00c3 03       		.uleb128 0x3
 6184 00c4 0E       		.uleb128 0xe
 6185 00c5 3A       		.uleb128 0x3a
 6186 00c6 0B       		.uleb128 0xb
 6187 00c7 3B       		.uleb128 0x3b
 6188 00c8 0B       		.uleb128 0xb
 6189 00c9 49       		.uleb128 0x49
 6190 00ca 13       		.uleb128 0x13
 6191 00cb 02       		.uleb128 0x2
 6192 00cc 17       		.uleb128 0x17
 6193 00cd 00       		.byte	0
 6194 00ce 00       		.byte	0
 6195 00cf 13       		.uleb128 0x13
 6196 00d0 0B       		.uleb128 0xb
 6197 00d1 01       		.byte	0x1
 6198 00d2 11       		.uleb128 0x11
 6199 00d3 01       		.uleb128 0x1
 6200 00d4 12       		.uleb128 0x12
 6201 00d5 06       		.uleb128 0x6
 6202 00d6 00       		.byte	0
 6203 00d7 00       		.byte	0
 6204 00d8 14       		.uleb128 0x14
 6205 00d9 34       		.uleb128 0x34
 6206 00da 00       		.byte	0
 6207 00db 03       		.uleb128 0x3
 6208 00dc 0E       		.uleb128 0xe
 6209 00dd 3A       		.uleb128 0x3a
 6210 00de 0B       		.uleb128 0xb
 6211 00df 3B       		.uleb128 0x3b
 6212 00e0 0B       		.uleb128 0xb
 6213 00e1 49       		.uleb128 0x49
 6214 00e2 13       		.uleb128 0x13
 6215 00e3 02       		.uleb128 0x2
 6216 00e4 17       		.uleb128 0x17
 6217 00e5 00       		.byte	0
ARM GAS  C:\Users\Phuong\AppData\Local\Temp\cc32RpHN.s 			page 126


 6218 00e6 00       		.byte	0
 6219 00e7 15       		.uleb128 0x15
 6220 00e8 2E       		.uleb128 0x2e
 6221 00e9 01       		.byte	0x1
 6222 00ea 03       		.uleb128 0x3
 6223 00eb 0E       		.uleb128 0xe
 6224 00ec 3A       		.uleb128 0x3a
 6225 00ed 0B       		.uleb128 0xb
 6226 00ee 3B       		.uleb128 0x3b
 6227 00ef 0B       		.uleb128 0xb
 6228 00f0 27       		.uleb128 0x27
 6229 00f1 19       		.uleb128 0x19
 6230 00f2 11       		.uleb128 0x11
 6231 00f3 01       		.uleb128 0x1
 6232 00f4 12       		.uleb128 0x12
 6233 00f5 06       		.uleb128 0x6
 6234 00f6 40       		.uleb128 0x40
 6235 00f7 18       		.uleb128 0x18
 6236 00f8 9742     		.uleb128 0x2117
 6237 00fa 19       		.uleb128 0x19
 6238 00fb 01       		.uleb128 0x1
 6239 00fc 13       		.uleb128 0x13
 6240 00fd 00       		.byte	0
 6241 00fe 00       		.byte	0
 6242 00ff 16       		.uleb128 0x16
 6243 0100 898201   		.uleb128 0x4109
 6244 0103 01       		.byte	0x1
 6245 0104 11       		.uleb128 0x11
 6246 0105 01       		.uleb128 0x1
 6247 0106 31       		.uleb128 0x31
 6248 0107 13       		.uleb128 0x13
 6249 0108 00       		.byte	0
 6250 0109 00       		.byte	0
 6251 010a 17       		.uleb128 0x17
 6252 010b 8A8201   		.uleb128 0x410a
 6253 010e 00       		.byte	0
 6254 010f 02       		.uleb128 0x2
 6255 0110 18       		.uleb128 0x18
 6256 0111 9142     		.uleb128 0x2111
 6257 0113 18       		.uleb128 0x18
 6258 0114 00       		.byte	0
 6259 0115 00       		.byte	0
 6260 0116 18       		.uleb128 0x18
 6261 0117 898201   		.uleb128 0x4109
 6262 011a 01       		.byte	0x1
 6263 011b 11       		.uleb128 0x11
 6264 011c 01       		.uleb128 0x1
 6265 011d 31       		.uleb128 0x31
 6266 011e 13       		.uleb128 0x13
 6267 011f 01       		.uleb128 0x1
 6268 0120 13       		.uleb128 0x13
 6269 0121 00       		.byte	0
 6270 0122 00       		.byte	0
 6271 0123 19       		.uleb128 0x19
 6272 0124 898201   		.uleb128 0x4109
 6273 0127 00       		.byte	0
 6274 0128 11       		.uleb128 0x11
ARM GAS  C:\Users\Phuong\AppData\Local\Temp\cc32RpHN.s 			page 127


 6275 0129 01       		.uleb128 0x1
 6276 012a 31       		.uleb128 0x31
 6277 012b 13       		.uleb128 0x13
 6278 012c 00       		.byte	0
 6279 012d 00       		.byte	0
 6280 012e 1A       		.uleb128 0x1a
 6281 012f 34       		.uleb128 0x34
 6282 0130 00       		.byte	0
 6283 0131 03       		.uleb128 0x3
 6284 0132 0E       		.uleb128 0xe
 6285 0133 49       		.uleb128 0x49
 6286 0134 13       		.uleb128 0x13
 6287 0135 34       		.uleb128 0x34
 6288 0136 19       		.uleb128 0x19
 6289 0137 02       		.uleb128 0x2
 6290 0138 18       		.uleb128 0x18
 6291 0139 00       		.byte	0
 6292 013a 00       		.byte	0
 6293 013b 1B       		.uleb128 0x1b
 6294 013c 34       		.uleb128 0x34
 6295 013d 00       		.byte	0
 6296 013e 03       		.uleb128 0x3
 6297 013f 08       		.uleb128 0x8
 6298 0140 3A       		.uleb128 0x3a
 6299 0141 0B       		.uleb128 0xb
 6300 0142 3B       		.uleb128 0x3b
 6301 0143 0B       		.uleb128 0xb
 6302 0144 49       		.uleb128 0x49
 6303 0145 13       		.uleb128 0x13
 6304 0146 02       		.uleb128 0x2
 6305 0147 17       		.uleb128 0x17
 6306 0148 00       		.byte	0
 6307 0149 00       		.byte	0
 6308 014a 1C       		.uleb128 0x1c
 6309 014b 898201   		.uleb128 0x4109
 6310 014e 01       		.byte	0x1
 6311 014f 11       		.uleb128 0x11
 6312 0150 01       		.uleb128 0x1
 6313 0151 9342     		.uleb128 0x2113
 6314 0153 18       		.uleb128 0x18
 6315 0154 00       		.byte	0
 6316 0155 00       		.byte	0
 6317 0156 1D       		.uleb128 0x1d
 6318 0157 01       		.uleb128 0x1
 6319 0158 01       		.byte	0x1
 6320 0159 49       		.uleb128 0x49
 6321 015a 13       		.uleb128 0x13
 6322 015b 01       		.uleb128 0x1
 6323 015c 13       		.uleb128 0x13
 6324 015d 00       		.byte	0
 6325 015e 00       		.byte	0
 6326 015f 1E       		.uleb128 0x1e
 6327 0160 21       		.uleb128 0x21
 6328 0161 00       		.byte	0
 6329 0162 49       		.uleb128 0x49
 6330 0163 13       		.uleb128 0x13
 6331 0164 2F       		.uleb128 0x2f
ARM GAS  C:\Users\Phuong\AppData\Local\Temp\cc32RpHN.s 			page 128


 6332 0165 0B       		.uleb128 0xb
 6333 0166 00       		.byte	0
 6334 0167 00       		.byte	0
 6335 0168 1F       		.uleb128 0x1f
 6336 0169 2E       		.uleb128 0x2e
 6337 016a 01       		.byte	0x1
 6338 016b 03       		.uleb128 0x3
 6339 016c 0E       		.uleb128 0xe
 6340 016d 3A       		.uleb128 0x3a
 6341 016e 0B       		.uleb128 0xb
 6342 016f 3B       		.uleb128 0x3b
 6343 0170 0B       		.uleb128 0xb
 6344 0171 27       		.uleb128 0x27
 6345 0172 19       		.uleb128 0x19
 6346 0173 49       		.uleb128 0x49
 6347 0174 13       		.uleb128 0x13
 6348 0175 11       		.uleb128 0x11
 6349 0176 01       		.uleb128 0x1
 6350 0177 12       		.uleb128 0x12
 6351 0178 06       		.uleb128 0x6
 6352 0179 40       		.uleb128 0x40
 6353 017a 18       		.uleb128 0x18
 6354 017b 9742     		.uleb128 0x2117
 6355 017d 19       		.uleb128 0x19
 6356 017e 01       		.uleb128 0x1
 6357 017f 13       		.uleb128 0x13
 6358 0180 00       		.byte	0
 6359 0181 00       		.byte	0
 6360 0182 20       		.uleb128 0x20
 6361 0183 0B       		.uleb128 0xb
 6362 0184 01       		.byte	0x1
 6363 0185 11       		.uleb128 0x11
 6364 0186 01       		.uleb128 0x1
 6365 0187 12       		.uleb128 0x12
 6366 0188 06       		.uleb128 0x6
 6367 0189 01       		.uleb128 0x1
 6368 018a 13       		.uleb128 0x13
 6369 018b 00       		.byte	0
 6370 018c 00       		.byte	0
 6371 018d 21       		.uleb128 0x21
 6372 018e 34       		.uleb128 0x34
 6373 018f 00       		.byte	0
 6374 0190 03       		.uleb128 0x3
 6375 0191 0E       		.uleb128 0xe
 6376 0192 3A       		.uleb128 0x3a
 6377 0193 0B       		.uleb128 0xb
 6378 0194 3B       		.uleb128 0x3b
 6379 0195 0B       		.uleb128 0xb
 6380 0196 49       		.uleb128 0x49
 6381 0197 13       		.uleb128 0x13
 6382 0198 02       		.uleb128 0x2
 6383 0199 18       		.uleb128 0x18
 6384 019a 00       		.byte	0
 6385 019b 00       		.byte	0
 6386 019c 22       		.uleb128 0x22
 6387 019d 2E       		.uleb128 0x2e
 6388 019e 01       		.byte	0x1
ARM GAS  C:\Users\Phuong\AppData\Local\Temp\cc32RpHN.s 			page 129


 6389 019f 03       		.uleb128 0x3
 6390 01a0 0E       		.uleb128 0xe
 6391 01a1 3A       		.uleb128 0x3a
 6392 01a2 0B       		.uleb128 0xb
 6393 01a3 3B       		.uleb128 0x3b
 6394 01a4 05       		.uleb128 0x5
 6395 01a5 27       		.uleb128 0x27
 6396 01a6 19       		.uleb128 0x19
 6397 01a7 49       		.uleb128 0x49
 6398 01a8 13       		.uleb128 0x13
 6399 01a9 11       		.uleb128 0x11
 6400 01aa 01       		.uleb128 0x1
 6401 01ab 12       		.uleb128 0x12
 6402 01ac 06       		.uleb128 0x6
 6403 01ad 40       		.uleb128 0x40
 6404 01ae 18       		.uleb128 0x18
 6405 01af 9742     		.uleb128 0x2117
 6406 01b1 19       		.uleb128 0x19
 6407 01b2 01       		.uleb128 0x1
 6408 01b3 13       		.uleb128 0x13
 6409 01b4 00       		.byte	0
 6410 01b5 00       		.byte	0
 6411 01b6 23       		.uleb128 0x23
 6412 01b7 05       		.uleb128 0x5
 6413 01b8 00       		.byte	0
 6414 01b9 03       		.uleb128 0x3
 6415 01ba 0E       		.uleb128 0xe
 6416 01bb 3A       		.uleb128 0x3a
 6417 01bc 0B       		.uleb128 0xb
 6418 01bd 3B       		.uleb128 0x3b
 6419 01be 05       		.uleb128 0x5
 6420 01bf 49       		.uleb128 0x49
 6421 01c0 13       		.uleb128 0x13
 6422 01c1 02       		.uleb128 0x2
 6423 01c2 17       		.uleb128 0x17
 6424 01c3 00       		.byte	0
 6425 01c4 00       		.byte	0
 6426 01c5 24       		.uleb128 0x24
 6427 01c6 34       		.uleb128 0x34
 6428 01c7 00       		.byte	0
 6429 01c8 03       		.uleb128 0x3
 6430 01c9 0E       		.uleb128 0xe
 6431 01ca 3A       		.uleb128 0x3a
 6432 01cb 0B       		.uleb128 0xb
 6433 01cc 3B       		.uleb128 0x3b
 6434 01cd 05       		.uleb128 0x5
 6435 01ce 49       		.uleb128 0x49
 6436 01cf 13       		.uleb128 0x13
 6437 01d0 02       		.uleb128 0x2
 6438 01d1 17       		.uleb128 0x17
 6439 01d2 00       		.byte	0
 6440 01d3 00       		.byte	0
 6441 01d4 25       		.uleb128 0x25
 6442 01d5 34       		.uleb128 0x34
 6443 01d6 00       		.byte	0
 6444 01d7 03       		.uleb128 0x3
 6445 01d8 08       		.uleb128 0x8
ARM GAS  C:\Users\Phuong\AppData\Local\Temp\cc32RpHN.s 			page 130


 6446 01d9 3A       		.uleb128 0x3a
 6447 01da 0B       		.uleb128 0xb
 6448 01db 3B       		.uleb128 0x3b
 6449 01dc 05       		.uleb128 0x5
 6450 01dd 49       		.uleb128 0x49
 6451 01de 13       		.uleb128 0x13
 6452 01df 02       		.uleb128 0x2
 6453 01e0 17       		.uleb128 0x17
 6454 01e1 00       		.byte	0
 6455 01e2 00       		.byte	0
 6456 01e3 26       		.uleb128 0x26
 6457 01e4 2E       		.uleb128 0x2e
 6458 01e5 01       		.byte	0x1
 6459 01e6 3F       		.uleb128 0x3f
 6460 01e7 19       		.uleb128 0x19
 6461 01e8 03       		.uleb128 0x3
 6462 01e9 0E       		.uleb128 0xe
 6463 01ea 3A       		.uleb128 0x3a
 6464 01eb 0B       		.uleb128 0xb
 6465 01ec 3B       		.uleb128 0x3b
 6466 01ed 0B       		.uleb128 0xb
 6467 01ee 27       		.uleb128 0x27
 6468 01ef 19       		.uleb128 0x19
 6469 01f0 49       		.uleb128 0x49
 6470 01f1 13       		.uleb128 0x13
 6471 01f2 11       		.uleb128 0x11
 6472 01f3 01       		.uleb128 0x1
 6473 01f4 12       		.uleb128 0x12
 6474 01f5 06       		.uleb128 0x6
 6475 01f6 40       		.uleb128 0x40
 6476 01f7 18       		.uleb128 0x18
 6477 01f8 9742     		.uleb128 0x2117
 6478 01fa 19       		.uleb128 0x19
 6479 01fb 01       		.uleb128 0x1
 6480 01fc 13       		.uleb128 0x13
 6481 01fd 00       		.byte	0
 6482 01fe 00       		.byte	0
 6483 01ff 27       		.uleb128 0x27
 6484 0200 2E       		.uleb128 0x2e
 6485 0201 01       		.byte	0x1
 6486 0202 3F       		.uleb128 0x3f
 6487 0203 19       		.uleb128 0x19
 6488 0204 03       		.uleb128 0x3
 6489 0205 0E       		.uleb128 0xe
 6490 0206 3A       		.uleb128 0x3a
 6491 0207 0B       		.uleb128 0xb
 6492 0208 3B       		.uleb128 0x3b
 6493 0209 05       		.uleb128 0x5
 6494 020a 27       		.uleb128 0x27
 6495 020b 19       		.uleb128 0x19
 6496 020c 11       		.uleb128 0x11
 6497 020d 01       		.uleb128 0x1
 6498 020e 12       		.uleb128 0x12
 6499 020f 06       		.uleb128 0x6
 6500 0210 40       		.uleb128 0x40
 6501 0211 18       		.uleb128 0x18
 6502 0212 9742     		.uleb128 0x2117
ARM GAS  C:\Users\Phuong\AppData\Local\Temp\cc32RpHN.s 			page 131


 6503 0214 19       		.uleb128 0x19
 6504 0215 01       		.uleb128 0x1
 6505 0216 13       		.uleb128 0x13
 6506 0217 00       		.byte	0
 6507 0218 00       		.byte	0
 6508 0219 28       		.uleb128 0x28
 6509 021a 2E       		.uleb128 0x2e
 6510 021b 01       		.byte	0x1
 6511 021c 3F       		.uleb128 0x3f
 6512 021d 19       		.uleb128 0x19
 6513 021e 03       		.uleb128 0x3
 6514 021f 0E       		.uleb128 0xe
 6515 0220 3A       		.uleb128 0x3a
 6516 0221 0B       		.uleb128 0xb
 6517 0222 3B       		.uleb128 0x3b
 6518 0223 05       		.uleb128 0x5
 6519 0224 27       		.uleb128 0x27
 6520 0225 19       		.uleb128 0x19
 6521 0226 49       		.uleb128 0x49
 6522 0227 13       		.uleb128 0x13
 6523 0228 11       		.uleb128 0x11
 6524 0229 01       		.uleb128 0x1
 6525 022a 12       		.uleb128 0x12
 6526 022b 06       		.uleb128 0x6
 6527 022c 40       		.uleb128 0x40
 6528 022d 18       		.uleb128 0x18
 6529 022e 9742     		.uleb128 0x2117
 6530 0230 19       		.uleb128 0x19
 6531 0231 01       		.uleb128 0x1
 6532 0232 13       		.uleb128 0x13
 6533 0233 00       		.byte	0
 6534 0234 00       		.byte	0
 6535 0235 29       		.uleb128 0x29
 6536 0236 0B       		.uleb128 0xb
 6537 0237 01       		.byte	0x1
 6538 0238 55       		.uleb128 0x55
 6539 0239 17       		.uleb128 0x17
 6540 023a 00       		.byte	0
 6541 023b 00       		.byte	0
 6542 023c 2A       		.uleb128 0x2a
 6543 023d 34       		.uleb128 0x34
 6544 023e 00       		.byte	0
 6545 023f 03       		.uleb128 0x3
 6546 0240 0E       		.uleb128 0xe
 6547 0241 3A       		.uleb128 0x3a
 6548 0242 0B       		.uleb128 0xb
 6549 0243 3B       		.uleb128 0x3b
 6550 0244 0B       		.uleb128 0xb
 6551 0245 49       		.uleb128 0x49
 6552 0246 13       		.uleb128 0x13
 6553 0247 3F       		.uleb128 0x3f
 6554 0248 19       		.uleb128 0x19
 6555 0249 02       		.uleb128 0x2
 6556 024a 18       		.uleb128 0x18
 6557 024b 00       		.byte	0
 6558 024c 00       		.byte	0
 6559 024d 2B       		.uleb128 0x2b
ARM GAS  C:\Users\Phuong\AppData\Local\Temp\cc32RpHN.s 			page 132


 6560 024e 2E       		.uleb128 0x2e
 6561 024f 00       		.byte	0
 6562 0250 3F       		.uleb128 0x3f
 6563 0251 19       		.uleb128 0x19
 6564 0252 3C       		.uleb128 0x3c
 6565 0253 19       		.uleb128 0x19
 6566 0254 6E       		.uleb128 0x6e
 6567 0255 0E       		.uleb128 0xe
 6568 0256 03       		.uleb128 0x3
 6569 0257 0E       		.uleb128 0xe
 6570 0258 3A       		.uleb128 0x3a
 6571 0259 0B       		.uleb128 0xb
 6572 025a 3B       		.uleb128 0x3b
 6573 025b 0B       		.uleb128 0xb
 6574 025c 00       		.byte	0
 6575 025d 00       		.byte	0
 6576 025e 2C       		.uleb128 0x2c
 6577 025f 2E       		.uleb128 0x2e
 6578 0260 00       		.byte	0
 6579 0261 3F       		.uleb128 0x3f
 6580 0262 19       		.uleb128 0x19
 6581 0263 3C       		.uleb128 0x3c
 6582 0264 19       		.uleb128 0x19
 6583 0265 6E       		.uleb128 0x6e
 6584 0266 0E       		.uleb128 0xe
 6585 0267 03       		.uleb128 0x3
 6586 0268 0E       		.uleb128 0xe
 6587 0269 00       		.byte	0
 6588 026a 00       		.byte	0
 6589 026b 00       		.byte	0
 6590              		.section	.debug_loc,"",%progbits
 6591              	.Ldebug_loc0:
 6592              	.LLST0:
 6593 0000 00000000 		.4byte	.LVL0
 6594 0004 14000000 		.4byte	.LVL3
 6595 0008 0100     		.2byte	0x1
 6596 000a 50       		.byte	0x50
 6597 000b 14000000 		.4byte	.LVL3
 6598 000f 18000000 		.4byte	.LFE4
 6599 0013 0400     		.2byte	0x4
 6600 0015 F3       		.byte	0xf3
 6601 0016 01       		.uleb128 0x1
 6602 0017 50       		.byte	0x50
 6603 0018 9F       		.byte	0x9f
 6604 0019 00000000 		.4byte	0
 6605 001d 00000000 		.4byte	0
 6606              	.LLST1:
 6607 0021 00000000 		.4byte	.LVL0
 6608 0025 06000000 		.4byte	.LVL1
 6609 0029 0100     		.2byte	0x1
 6610 002b 51       		.byte	0x51
 6611 002c 06000000 		.4byte	.LVL1
 6612 0030 18000000 		.4byte	.LFE4
 6613 0034 0400     		.2byte	0x4
 6614 0036 F3       		.byte	0xf3
 6615 0037 01       		.uleb128 0x1
 6616 0038 51       		.byte	0x51
ARM GAS  C:\Users\Phuong\AppData\Local\Temp\cc32RpHN.s 			page 133


 6617 0039 9F       		.byte	0x9f
 6618 003a 00000000 		.4byte	0
 6619 003e 00000000 		.4byte	0
 6620              	.LLST2:
 6621 0042 0A000000 		.4byte	.LVL2
 6622 0046 15000000 		.4byte	.LVL4-1
 6623 004a 0100     		.2byte	0x1
 6624 004c 51       		.byte	0x51
 6625 004d 00000000 		.4byte	0
 6626 0051 00000000 		.4byte	0
 6627              	.LLST3:
 6628 0055 00000000 		.4byte	.LVL5
 6629 0059 07000000 		.4byte	.LVL6-1
 6630 005d 0100     		.2byte	0x1
 6631 005f 50       		.byte	0x50
 6632 0060 07000000 		.4byte	.LVL6-1
 6633 0064 0A000000 		.4byte	.LFE5
 6634 0068 0400     		.2byte	0x4
 6635 006a F3       		.byte	0xf3
 6636 006b 01       		.uleb128 0x1
 6637 006c 50       		.byte	0x50
 6638 006d 9F       		.byte	0x9f
 6639 006e 00000000 		.4byte	0
 6640 0072 00000000 		.4byte	0
 6641              	.LLST4:
 6642 0076 00000000 		.4byte	.LVL7
 6643 007a 17000000 		.4byte	.LVL10-1
 6644 007e 0100     		.2byte	0x1
 6645 0080 50       		.byte	0x50
 6646 0081 17000000 		.4byte	.LVL10-1
 6647 0085 1A000000 		.4byte	.LVL11
 6648 0089 0400     		.2byte	0x4
 6649 008b F3       		.byte	0xf3
 6650 008c 01       		.uleb128 0x1
 6651 008d 50       		.byte	0x50
 6652 008e 9F       		.byte	0x9f
 6653 008f 1A000000 		.4byte	.LVL11
 6654 0093 23000000 		.4byte	.LVL13-1
 6655 0097 0100     		.2byte	0x1
 6656 0099 50       		.byte	0x50
 6657 009a 23000000 		.4byte	.LVL13-1
 6658 009e 26000000 		.4byte	.LVL14
 6659 00a2 0400     		.2byte	0x4
 6660 00a4 F3       		.byte	0xf3
 6661 00a5 01       		.uleb128 0x1
 6662 00a6 50       		.byte	0x50
 6663 00a7 9F       		.byte	0x9f
 6664 00a8 26000000 		.4byte	.LVL14
 6665 00ac 2F000000 		.4byte	.LVL16-1
 6666 00b0 0100     		.2byte	0x1
 6667 00b2 50       		.byte	0x50
 6668 00b3 2F000000 		.4byte	.LVL16-1
 6669 00b7 32000000 		.4byte	.LVL17
 6670 00bb 0400     		.2byte	0x4
 6671 00bd F3       		.byte	0xf3
 6672 00be 01       		.uleb128 0x1
 6673 00bf 50       		.byte	0x50
ARM GAS  C:\Users\Phuong\AppData\Local\Temp\cc32RpHN.s 			page 134


 6674 00c0 9F       		.byte	0x9f
 6675 00c1 32000000 		.4byte	.LVL17
 6676 00c5 3F000000 		.4byte	.LVL19-1
 6677 00c9 0100     		.2byte	0x1
 6678 00cb 50       		.byte	0x50
 6679 00cc 3F000000 		.4byte	.LVL19-1
 6680 00d0 42000000 		.4byte	.LFE6
 6681 00d4 0400     		.2byte	0x4
 6682 00d6 F3       		.byte	0xf3
 6683 00d7 01       		.uleb128 0x1
 6684 00d8 50       		.byte	0x50
 6685 00d9 9F       		.byte	0x9f
 6686 00da 00000000 		.4byte	0
 6687 00de 00000000 		.4byte	0
 6688              	.LLST5:
 6689 00e2 00000000 		.4byte	.LVL7
 6690 00e6 14000000 		.4byte	.LVL9
 6691 00ea 0100     		.2byte	0x1
 6692 00ec 51       		.byte	0x51
 6693 00ed 14000000 		.4byte	.LVL9
 6694 00f1 1A000000 		.4byte	.LVL11
 6695 00f5 0400     		.2byte	0x4
 6696 00f7 F3       		.byte	0xf3
 6697 00f8 01       		.uleb128 0x1
 6698 00f9 51       		.byte	0x51
 6699 00fa 9F       		.byte	0x9f
 6700 00fb 1A000000 		.4byte	.LVL11
 6701 00ff 20000000 		.4byte	.LVL12
 6702 0103 0100     		.2byte	0x1
 6703 0105 51       		.byte	0x51
 6704 0106 20000000 		.4byte	.LVL12
 6705 010a 26000000 		.4byte	.LVL14
 6706 010e 0400     		.2byte	0x4
 6707 0110 F3       		.byte	0xf3
 6708 0111 01       		.uleb128 0x1
 6709 0112 51       		.byte	0x51
 6710 0113 9F       		.byte	0x9f
 6711 0114 26000000 		.4byte	.LVL14
 6712 0118 2C000000 		.4byte	.LVL15
 6713 011c 0100     		.2byte	0x1
 6714 011e 51       		.byte	0x51
 6715 011f 2C000000 		.4byte	.LVL15
 6716 0123 32000000 		.4byte	.LVL17
 6717 0127 0400     		.2byte	0x4
 6718 0129 F3       		.byte	0xf3
 6719 012a 01       		.uleb128 0x1
 6720 012b 51       		.byte	0x51
 6721 012c 9F       		.byte	0x9f
 6722 012d 32000000 		.4byte	.LVL17
 6723 0131 3C000000 		.4byte	.LVL18
 6724 0135 0100     		.2byte	0x1
 6725 0137 51       		.byte	0x51
 6726 0138 3C000000 		.4byte	.LVL18
 6727 013c 42000000 		.4byte	.LFE6
 6728 0140 0400     		.2byte	0x4
 6729 0142 F3       		.byte	0xf3
 6730 0143 01       		.uleb128 0x1
ARM GAS  C:\Users\Phuong\AppData\Local\Temp\cc32RpHN.s 			page 135


 6731 0144 51       		.byte	0x51
 6732 0145 9F       		.byte	0x9f
 6733 0146 00000000 		.4byte	0
 6734 014a 00000000 		.4byte	0
 6735              	.LLST6:
 6736 014e 00000000 		.4byte	.LVL7
 6737 0152 17000000 		.4byte	.LVL10-1
 6738 0156 0100     		.2byte	0x1
 6739 0158 52       		.byte	0x52
 6740 0159 17000000 		.4byte	.LVL10-1
 6741 015d 1A000000 		.4byte	.LVL11
 6742 0161 0400     		.2byte	0x4
 6743 0163 F3       		.byte	0xf3
 6744 0164 01       		.uleb128 0x1
 6745 0165 52       		.byte	0x52
 6746 0166 9F       		.byte	0x9f
 6747 0167 1A000000 		.4byte	.LVL11
 6748 016b 23000000 		.4byte	.LVL13-1
 6749 016f 0100     		.2byte	0x1
 6750 0171 52       		.byte	0x52
 6751 0172 23000000 		.4byte	.LVL13-1
 6752 0176 26000000 		.4byte	.LVL14
 6753 017a 0400     		.2byte	0x4
 6754 017c F3       		.byte	0xf3
 6755 017d 01       		.uleb128 0x1
 6756 017e 52       		.byte	0x52
 6757 017f 9F       		.byte	0x9f
 6758 0180 26000000 		.4byte	.LVL14
 6759 0184 2F000000 		.4byte	.LVL16-1
 6760 0188 0100     		.2byte	0x1
 6761 018a 52       		.byte	0x52
 6762 018b 2F000000 		.4byte	.LVL16-1
 6763 018f 32000000 		.4byte	.LVL17
 6764 0193 0400     		.2byte	0x4
 6765 0195 F3       		.byte	0xf3
 6766 0196 01       		.uleb128 0x1
 6767 0197 52       		.byte	0x52
 6768 0198 9F       		.byte	0x9f
 6769 0199 32000000 		.4byte	.LVL17
 6770 019d 3F000000 		.4byte	.LVL19-1
 6771 01a1 0100     		.2byte	0x1
 6772 01a3 52       		.byte	0x52
 6773 01a4 3F000000 		.4byte	.LVL19-1
 6774 01a8 42000000 		.4byte	.LFE6
 6775 01ac 0400     		.2byte	0x4
 6776 01ae F3       		.byte	0xf3
 6777 01af 01       		.uleb128 0x1
 6778 01b0 52       		.byte	0x52
 6779 01b1 9F       		.byte	0x9f
 6780 01b2 00000000 		.4byte	0
 6781 01b6 00000000 		.4byte	0
 6782              	.LLST7:
 6783 01ba 02000000 		.4byte	.LVL8
 6784 01be 17000000 		.4byte	.LVL10-1
 6785 01c2 0100     		.2byte	0x1
 6786 01c4 50       		.byte	0x50
 6787 01c5 17000000 		.4byte	.LVL10-1
ARM GAS  C:\Users\Phuong\AppData\Local\Temp\cc32RpHN.s 			page 136


 6788 01c9 1A000000 		.4byte	.LVL11
 6789 01cd 0400     		.2byte	0x4
 6790 01cf F3       		.byte	0xf3
 6791 01d0 01       		.uleb128 0x1
 6792 01d1 50       		.byte	0x50
 6793 01d2 9F       		.byte	0x9f
 6794 01d3 1A000000 		.4byte	.LVL11
 6795 01d7 23000000 		.4byte	.LVL13-1
 6796 01db 0100     		.2byte	0x1
 6797 01dd 50       		.byte	0x50
 6798 01de 23000000 		.4byte	.LVL13-1
 6799 01e2 26000000 		.4byte	.LVL14
 6800 01e6 0400     		.2byte	0x4
 6801 01e8 F3       		.byte	0xf3
 6802 01e9 01       		.uleb128 0x1
 6803 01ea 50       		.byte	0x50
 6804 01eb 9F       		.byte	0x9f
 6805 01ec 26000000 		.4byte	.LVL14
 6806 01f0 2F000000 		.4byte	.LVL16-1
 6807 01f4 0100     		.2byte	0x1
 6808 01f6 50       		.byte	0x50
 6809 01f7 2F000000 		.4byte	.LVL16-1
 6810 01fb 32000000 		.4byte	.LVL17
 6811 01ff 0400     		.2byte	0x4
 6812 0201 F3       		.byte	0xf3
 6813 0202 01       		.uleb128 0x1
 6814 0203 50       		.byte	0x50
 6815 0204 9F       		.byte	0x9f
 6816 0205 32000000 		.4byte	.LVL17
 6817 0209 3F000000 		.4byte	.LVL19-1
 6818 020d 0100     		.2byte	0x1
 6819 020f 50       		.byte	0x50
 6820 0210 3F000000 		.4byte	.LVL19-1
 6821 0214 42000000 		.4byte	.LFE6
 6822 0218 0400     		.2byte	0x4
 6823 021a F3       		.byte	0xf3
 6824 021b 01       		.uleb128 0x1
 6825 021c 50       		.byte	0x50
 6826 021d 9F       		.byte	0x9f
 6827 021e 00000000 		.4byte	0
 6828 0222 00000000 		.4byte	0
 6829              	.LLST8:
 6830 0226 00000000 		.4byte	.LVL20
 6831 022a 07000000 		.4byte	.LVL21-1
 6832 022e 0100     		.2byte	0x1
 6833 0230 50       		.byte	0x50
 6834 0231 07000000 		.4byte	.LVL21-1
 6835 0235 30000000 		.4byte	.LFE8
 6836 0239 0400     		.2byte	0x4
 6837 023b F3       		.byte	0xf3
 6838 023c 01       		.uleb128 0x1
 6839 023d 50       		.byte	0x50
 6840 023e 9F       		.byte	0x9f
 6841 023f 00000000 		.4byte	0
 6842 0243 00000000 		.4byte	0
 6843              	.LLST9:
 6844 0247 0A000000 		.4byte	.LVL22
ARM GAS  C:\Users\Phuong\AppData\Local\Temp\cc32RpHN.s 			page 137


 6845 024b 1C000000 		.4byte	.LVL23
 6846 024f 0100     		.2byte	0x1
 6847 0251 50       		.byte	0x50
 6848 0252 1C000000 		.4byte	.LVL23
 6849 0256 20000000 		.4byte	.LVL25
 6850 025a 0100     		.2byte	0x1
 6851 025c 54       		.byte	0x54
 6852 025d 00000000 		.4byte	0
 6853 0261 00000000 		.4byte	0
 6854              	.LLST10:
 6855 0265 00000000 		.4byte	.LVL26
 6856 0269 0B000000 		.4byte	.LVL27-1
 6857 026d 0100     		.2byte	0x1
 6858 026f 50       		.byte	0x50
 6859 0270 0B000000 		.4byte	.LVL27-1
 6860 0274 34000000 		.4byte	.LFE7
 6861 0278 0400     		.2byte	0x4
 6862 027a F3       		.byte	0xf3
 6863 027b 01       		.uleb128 0x1
 6864 027c 50       		.byte	0x50
 6865 027d 9F       		.byte	0x9f
 6866 027e 00000000 		.4byte	0
 6867 0282 00000000 		.4byte	0
 6868              	.LLST11:
 6869 0286 00000000 		.4byte	.LVL26
 6870 028a 0B000000 		.4byte	.LVL27-1
 6871 028e 0100     		.2byte	0x1
 6872 0290 51       		.byte	0x51
 6873 0291 0B000000 		.4byte	.LVL27-1
 6874 0295 34000000 		.4byte	.LFE7
 6875 0299 0400     		.2byte	0x4
 6876 029b F3       		.byte	0xf3
 6877 029c 01       		.uleb128 0x1
 6878 029d 51       		.byte	0x51
 6879 029e 9F       		.byte	0x9f
 6880 029f 00000000 		.4byte	0
 6881 02a3 00000000 		.4byte	0
 6882              	.LLST12:
 6883 02a7 0E000000 		.4byte	.LVL28
 6884 02ab 22000000 		.4byte	.LVL29
 6885 02af 0100     		.2byte	0x1
 6886 02b1 50       		.byte	0x50
 6887 02b2 22000000 		.4byte	.LVL29
 6888 02b6 24000000 		.4byte	.LVL30
 6889 02ba 0100     		.2byte	0x1
 6890 02bc 54       		.byte	0x54
 6891 02bd 00000000 		.4byte	0
 6892 02c1 00000000 		.4byte	0
 6893              	.LLST13:
 6894 02c5 00000000 		.4byte	.LVL31
 6895 02c9 09000000 		.4byte	.LVL32-1
 6896 02cd 0100     		.2byte	0x1
 6897 02cf 50       		.byte	0x50
 6898 02d0 09000000 		.4byte	.LVL32-1
 6899 02d4 4E000000 		.4byte	.LVL44
 6900 02d8 0100     		.2byte	0x1
 6901 02da 55       		.byte	0x55
ARM GAS  C:\Users\Phuong\AppData\Local\Temp\cc32RpHN.s 			page 138


 6902 02db 4E000000 		.4byte	.LVL44
 6903 02df 6E000000 		.4byte	.LVL48
 6904 02e3 0400     		.2byte	0x4
 6905 02e5 F3       		.byte	0xf3
 6906 02e6 01       		.uleb128 0x1
 6907 02e7 50       		.byte	0x50
 6908 02e8 9F       		.byte	0x9f
 6909 02e9 6E000000 		.4byte	.LVL48
 6910 02ed 82000000 		.4byte	.LVL51
 6911 02f1 0100     		.2byte	0x1
 6912 02f3 55       		.byte	0x55
 6913 02f4 82000000 		.4byte	.LVL51
 6914 02f8 A8000000 		.4byte	.LVL56
 6915 02fc 0400     		.2byte	0x4
 6916 02fe F3       		.byte	0xf3
 6917 02ff 01       		.uleb128 0x1
 6918 0300 50       		.byte	0x50
 6919 0301 9F       		.byte	0x9f
 6920 0302 A8000000 		.4byte	.LVL56
 6921 0306 B2000000 		.4byte	.LVL59
 6922 030a 0100     		.2byte	0x1
 6923 030c 55       		.byte	0x55
 6924 030d B2000000 		.4byte	.LVL59
 6925 0311 D0000000 		.4byte	.LFE3
 6926 0315 0400     		.2byte	0x4
 6927 0317 F3       		.byte	0xf3
 6928 0318 01       		.uleb128 0x1
 6929 0319 50       		.byte	0x50
 6930 031a 9F       		.byte	0x9f
 6931 031b 00000000 		.4byte	0
 6932 031f 00000000 		.4byte	0
 6933              	.LLST14:
 6934 0323 6A000000 		.4byte	.LVL47
 6935 0327 6E000000 		.4byte	.LVL48
 6936 032b 0300     		.2byte	0x3
 6937 032d 08       		.byte	0x8
 6938 032e 48       		.byte	0x48
 6939 032f 9F       		.byte	0x9f
 6940 0330 A4000000 		.4byte	.LVL55
 6941 0334 A8000000 		.4byte	.LVL56
 6942 0338 0300     		.2byte	0x3
 6943 033a 08       		.byte	0x8
 6944 033b 50       		.byte	0x50
 6945 033c 9F       		.byte	0x9f
 6946 033d AC000000 		.4byte	.LVL57
 6947 0341 B0000000 		.4byte	.LVL58
 6948 0345 0200     		.2byte	0x2
 6949 0347 30       		.byte	0x30
 6950 0348 9F       		.byte	0x9f
 6951 0349 B2000000 		.4byte	.LVL59
 6952 034d D0000000 		.4byte	.LFE3
 6953 0351 0100     		.2byte	0x1
 6954 0353 50       		.byte	0x50
 6955 0354 00000000 		.4byte	0
 6956 0358 00000000 		.4byte	0
 6957              	.LLST15:
 6958 035c 12000000 		.4byte	.LVL34
ARM GAS  C:\Users\Phuong\AppData\Local\Temp\cc32RpHN.s 			page 139


 6959 0360 17000000 		.4byte	.LVL35-1
 6960 0364 0100     		.2byte	0x1
 6961 0366 50       		.byte	0x50
 6962 0367 17000000 		.4byte	.LVL35-1
 6963 036b 1A000000 		.4byte	.LVL36
 6964 036f 0100     		.2byte	0x1
 6965 0371 54       		.byte	0x54
 6966 0372 34000000 		.4byte	.LVL39
 6967 0376 3D000000 		.4byte	.LVL40-1
 6968 037a 0100     		.2byte	0x1
 6969 037c 50       		.byte	0x50
 6970 037d 3D000000 		.4byte	.LVL40-1
 6971 0381 B0000000 		.4byte	.LVL58
 6972 0385 0100     		.2byte	0x1
 6973 0387 54       		.byte	0x54
 6974 0388 00000000 		.4byte	0
 6975 038c 00000000 		.4byte	0
 6976              	.LLST16:
 6977 0390 46000000 		.4byte	.LVL42
 6978 0394 4B000000 		.4byte	.LVL43-1
 6979 0398 0100     		.2byte	0x1
 6980 039a 50       		.byte	0x50
 6981 039b 4B000000 		.4byte	.LVL43-1
 6982 039f 6E000000 		.4byte	.LVL48
 6983 03a3 0100     		.2byte	0x1
 6984 03a5 56       		.byte	0x56
 6985 03a6 6E000000 		.4byte	.LVL48
 6986 03aa 77000000 		.4byte	.LVL49-1
 6987 03ae 0100     		.2byte	0x1
 6988 03b0 50       		.byte	0x50
 6989 03b1 77000000 		.4byte	.LVL49-1
 6990 03b5 B0000000 		.4byte	.LVL58
 6991 03b9 0100     		.2byte	0x1
 6992 03bb 56       		.byte	0x56
 6993 03bc 00000000 		.4byte	0
 6994 03c0 00000000 		.4byte	0
 6995              	.LLST17:
 6996 03c4 1A000000 		.4byte	.LVL36
 6997 03c8 2E000000 		.4byte	.LVL37
 6998 03cc 0100     		.2byte	0x1
 6999 03ce 50       		.byte	0x50
 7000 03cf 2E000000 		.4byte	.LVL37
 7001 03d3 34000000 		.4byte	.LVL39
 7002 03d7 0100     		.2byte	0x1
 7003 03d9 54       		.byte	0x54
 7004 03da B0000000 		.4byte	.LVL58
 7005 03de B2000000 		.4byte	.LVL59
 7006 03e2 0100     		.2byte	0x1
 7007 03e4 50       		.byte	0x50
 7008 03e5 00000000 		.4byte	0
 7009 03e9 00000000 		.4byte	0
 7010              	.LLST18:
 7011 03ed 4E000000 		.4byte	.LVL44
 7012 03f1 62000000 		.4byte	.LVL45
 7013 03f5 0100     		.2byte	0x1
 7014 03f7 50       		.byte	0x50
 7015 03f8 62000000 		.4byte	.LVL45
ARM GAS  C:\Users\Phuong\AppData\Local\Temp\cc32RpHN.s 			page 140


 7016 03fc 6E000000 		.4byte	.LVL48
 7017 0400 0100     		.2byte	0x1
 7018 0402 55       		.byte	0x55
 7019 0403 00000000 		.4byte	0
 7020 0407 00000000 		.4byte	0
 7021              	.LLST19:
 7022 040b 82000000 		.4byte	.LVL51
 7023 040f 96000000 		.4byte	.LVL52
 7024 0413 0100     		.2byte	0x1
 7025 0415 50       		.byte	0x50
 7026 0416 96000000 		.4byte	.LVL52
 7027 041a A8000000 		.4byte	.LVL56
 7028 041e 0100     		.2byte	0x1
 7029 0420 55       		.byte	0x55
 7030 0421 00000000 		.4byte	0
 7031 0425 00000000 		.4byte	0
 7032              	.LLST20:
 7033 0429 00000000 		.4byte	.LVL60
 7034 042d 10000000 		.4byte	.LVL63
 7035 0431 0100     		.2byte	0x1
 7036 0433 50       		.byte	0x50
 7037 0434 10000000 		.4byte	.LVL63
 7038 0438 1E000000 		.4byte	.LVL68
 7039 043c 0100     		.2byte	0x1
 7040 043e 55       		.byte	0x55
 7041 043f 1E000000 		.4byte	.LVL68
 7042 0443 3A000000 		.4byte	.LVL72
 7043 0447 0400     		.2byte	0x4
 7044 0449 F3       		.byte	0xf3
 7045 044a 01       		.uleb128 0x1
 7046 044b 50       		.byte	0x50
 7047 044c 9F       		.byte	0x9f
 7048 044d 3A000000 		.4byte	.LVL72
 7049 0451 54000000 		.4byte	.LVL77
 7050 0455 0100     		.2byte	0x1
 7051 0457 55       		.byte	0x55
 7052 0458 54000000 		.4byte	.LVL77
 7053 045c 6E000000 		.4byte	.LVL81
 7054 0460 0400     		.2byte	0x4
 7055 0462 F3       		.byte	0xf3
 7056 0463 01       		.uleb128 0x1
 7057 0464 50       		.byte	0x50
 7058 0465 9F       		.byte	0x9f
 7059 0466 6E000000 		.4byte	.LVL81
 7060 046a 9A000000 		.4byte	.LVL86
 7061 046e 0100     		.2byte	0x1
 7062 0470 55       		.byte	0x55
 7063 0471 9A000000 		.4byte	.LVL86
 7064 0475 B4000000 		.4byte	.LVL90
 7065 0479 0400     		.2byte	0x4
 7066 047b F3       		.byte	0xf3
 7067 047c 01       		.uleb128 0x1
 7068 047d 50       		.byte	0x50
 7069 047e 9F       		.byte	0x9f
 7070 047f B4000000 		.4byte	.LVL90
 7071 0483 CA000000 		.4byte	.LVL94
 7072 0487 0100     		.2byte	0x1
ARM GAS  C:\Users\Phuong\AppData\Local\Temp\cc32RpHN.s 			page 141


 7073 0489 55       		.byte	0x55
 7074 048a CA000000 		.4byte	.LVL94
 7075 048e E4000000 		.4byte	.LVL98
 7076 0492 0400     		.2byte	0x4
 7077 0494 F3       		.byte	0xf3
 7078 0495 01       		.uleb128 0x1
 7079 0496 50       		.byte	0x50
 7080 0497 9F       		.byte	0x9f
 7081 0498 E4000000 		.4byte	.LVL98
 7082 049c F8000000 		.4byte	.LVL102
 7083 04a0 0100     		.2byte	0x1
 7084 04a2 55       		.byte	0x55
 7085 04a3 F8000000 		.4byte	.LVL102
 7086 04a7 12010000 		.4byte	.LVL106
 7087 04ab 0400     		.2byte	0x4
 7088 04ad F3       		.byte	0xf3
 7089 04ae 01       		.uleb128 0x1
 7090 04af 50       		.byte	0x50
 7091 04b0 9F       		.byte	0x9f
 7092 04b1 12010000 		.4byte	.LVL106
 7093 04b5 1C010000 		.4byte	.LVL108
 7094 04b9 0100     		.2byte	0x1
 7095 04bb 55       		.byte	0x55
 7096 04bc 1C010000 		.4byte	.LVL108
 7097 04c0 64010000 		.4byte	.LFE9
 7098 04c4 0400     		.2byte	0x4
 7099 04c6 F3       		.byte	0xf3
 7100 04c7 01       		.uleb128 0x1
 7101 04c8 50       		.byte	0x50
 7102 04c9 9F       		.byte	0x9f
 7103 04ca 00000000 		.4byte	0
 7104 04ce 00000000 		.4byte	0
 7105              	.LLST21:
 7106 04d2 18000000 		.4byte	.LVL66
 7107 04d6 3A000000 		.4byte	.LVL72
 7108 04da 0300     		.2byte	0x3
 7109 04dc 08       		.byte	0x8
 7110 04dd B6       		.byte	0xb6
 7111 04de 9F       		.byte	0x9f
 7112 04df 4E000000 		.4byte	.LVL75
 7113 04e3 6E000000 		.4byte	.LVL81
 7114 04e7 0300     		.2byte	0x3
 7115 04e9 08       		.byte	0x8
 7116 04ea BF       		.byte	0xbf
 7117 04eb 9F       		.byte	0x9f
 7118 04ec 94000000 		.4byte	.LVL84
 7119 04f0 B4000000 		.4byte	.LVL90
 7120 04f4 0300     		.2byte	0x3
 7121 04f6 08       		.byte	0x8
 7122 04f7 C7       		.byte	0xc7
 7123 04f8 9F       		.byte	0x9f
 7124 04f9 C4000000 		.4byte	.LVL92
 7125 04fd E4000000 		.4byte	.LVL98
 7126 0501 0300     		.2byte	0x3
 7127 0503 08       		.byte	0x8
 7128 0504 CD       		.byte	0xcd
 7129 0505 9F       		.byte	0x9f
ARM GAS  C:\Users\Phuong\AppData\Local\Temp\cc32RpHN.s 			page 142


 7130 0506 F2000000 		.4byte	.LVL100
 7131 050a 12010000 		.4byte	.LVL106
 7132 050e 0300     		.2byte	0x3
 7133 0510 08       		.byte	0x8
 7134 0511 D3       		.byte	0xd3
 7135 0512 9F       		.byte	0x9f
 7136 0513 1A010000 		.4byte	.LVL107
 7137 0517 1E010000 		.4byte	.LVL109
 7138 051b 0200     		.2byte	0x2
 7139 051d 30       		.byte	0x30
 7140 051e 9F       		.byte	0x9f
 7141 051f 1E010000 		.4byte	.LVL109
 7142 0523 22010000 		.4byte	.LVL110
 7143 0527 0300     		.2byte	0x3
 7144 0529 08       		.byte	0x8
 7145 052a B6       		.byte	0xb6
 7146 052b 9F       		.byte	0x9f
 7147 052c 22010000 		.4byte	.LVL110
 7148 0530 26010000 		.4byte	.LVL111
 7149 0534 0300     		.2byte	0x3
 7150 0536 08       		.byte	0x8
 7151 0537 BF       		.byte	0xbf
 7152 0538 9F       		.byte	0x9f
 7153 0539 26010000 		.4byte	.LVL111
 7154 053d 2A010000 		.4byte	.LVL112
 7155 0541 0300     		.2byte	0x3
 7156 0543 08       		.byte	0x8
 7157 0544 C7       		.byte	0xc7
 7158 0545 9F       		.byte	0x9f
 7159 0546 2A010000 		.4byte	.LVL112
 7160 054a 2E010000 		.4byte	.LVL113
 7161 054e 0300     		.2byte	0x3
 7162 0550 08       		.byte	0x8
 7163 0551 CD       		.byte	0xcd
 7164 0552 9F       		.byte	0x9f
 7165 0553 2E010000 		.4byte	.LVL113
 7166 0557 30010000 		.4byte	.LVL114
 7167 055b 0300     		.2byte	0x3
 7168 055d 08       		.byte	0x8
 7169 055e D3       		.byte	0xd3
 7170 055f 9F       		.byte	0x9f
 7171 0560 30010000 		.4byte	.LVL114
 7172 0564 3E010000 		.4byte	.LVL117
 7173 0568 0100     		.2byte	0x1
 7174 056a 55       		.byte	0x55
 7175 056b 3E010000 		.4byte	.LVL117
 7176 056f 64010000 		.4byte	.LFE9
 7177 0573 0100     		.2byte	0x1
 7178 0575 50       		.byte	0x50
 7179 0576 00000000 		.4byte	0
 7180 057a 00000000 		.4byte	0
 7181              	.LLST22:
 7182 057e 06000000 		.4byte	.LVL61
 7183 0582 16000000 		.4byte	.LVL65
 7184 0586 0200     		.2byte	0x2
 7185 0588 30       		.byte	0x30
 7186 0589 9F       		.byte	0x9f
ARM GAS  C:\Users\Phuong\AppData\Local\Temp\cc32RpHN.s 			page 143


 7187 058a 16000000 		.4byte	.LVL65
 7188 058e 1B000000 		.4byte	.LVL67-1
 7189 0592 0100     		.2byte	0x1
 7190 0594 50       		.byte	0x50
 7191 0595 1B000000 		.4byte	.LVL67-1
 7192 0599 3A000000 		.4byte	.LVL72
 7193 059d 0100     		.2byte	0x1
 7194 059f 54       		.byte	0x54
 7195 05a0 3A000000 		.4byte	.LVL72
 7196 05a4 41000000 		.4byte	.LVL73-1
 7197 05a8 0100     		.2byte	0x1
 7198 05aa 50       		.byte	0x50
 7199 05ab 41000000 		.4byte	.LVL73-1
 7200 05af 3E010000 		.4byte	.LVL116
 7201 05b3 0100     		.2byte	0x1
 7202 05b5 54       		.byte	0x54
 7203 05b6 00000000 		.4byte	0
 7204 05ba 00000000 		.4byte	0
 7205              	.LLST23:
 7206 05be 0E000000 		.4byte	.LVL62
 7207 05c2 3E010000 		.4byte	.LVL118
 7208 05c6 0100     		.2byte	0x1
 7209 05c8 56       		.byte	0x56
 7210 05c9 00000000 		.4byte	0
 7211 05cd 00000000 		.4byte	0
 7212              	.LLST24:
 7213 05d1 1E000000 		.4byte	.LVL68
 7214 05d5 34000000 		.4byte	.LVL69
 7215 05d9 0100     		.2byte	0x1
 7216 05db 50       		.byte	0x50
 7217 05dc 34000000 		.4byte	.LVL69
 7218 05e0 38000000 		.4byte	.LVL71
 7219 05e4 0100     		.2byte	0x1
 7220 05e6 55       		.byte	0x55
 7221 05e7 1E010000 		.4byte	.LVL109
 7222 05eb 22010000 		.4byte	.LVL110
 7223 05ef 0100     		.2byte	0x1
 7224 05f1 50       		.byte	0x50
 7225 05f2 00000000 		.4byte	0
 7226 05f6 00000000 		.4byte	0
 7227              	.LLST25:
 7228 05fa 54000000 		.4byte	.LVL77
 7229 05fe 68000000 		.4byte	.LVL78
 7230 0602 0100     		.2byte	0x1
 7231 0604 50       		.byte	0x50
 7232 0605 68000000 		.4byte	.LVL78
 7233 0609 6C000000 		.4byte	.LVL80
 7234 060d 0100     		.2byte	0x1
 7235 060f 55       		.byte	0x55
 7236 0610 22010000 		.4byte	.LVL110
 7237 0614 26010000 		.4byte	.LVL111
 7238 0618 0100     		.2byte	0x1
 7239 061a 50       		.byte	0x50
 7240 061b 00000000 		.4byte	0
 7241 061f 00000000 		.4byte	0
 7242              	.LLST26:
 7243 0623 9A000000 		.4byte	.LVL86
ARM GAS  C:\Users\Phuong\AppData\Local\Temp\cc32RpHN.s 			page 144


 7244 0627 AE000000 		.4byte	.LVL87
 7245 062b 0100     		.2byte	0x1
 7246 062d 50       		.byte	0x50
 7247 062e AE000000 		.4byte	.LVL87
 7248 0632 B2000000 		.4byte	.LVL89
 7249 0636 0100     		.2byte	0x1
 7250 0638 55       		.byte	0x55
 7251 0639 26010000 		.4byte	.LVL111
 7252 063d 2A010000 		.4byte	.LVL112
 7253 0641 0100     		.2byte	0x1
 7254 0643 50       		.byte	0x50
 7255 0644 00000000 		.4byte	0
 7256 0648 00000000 		.4byte	0
 7257              	.LLST27:
 7258 064c CA000000 		.4byte	.LVL94
 7259 0650 DE000000 		.4byte	.LVL95
 7260 0654 0100     		.2byte	0x1
 7261 0656 50       		.byte	0x50
 7262 0657 DE000000 		.4byte	.LVL95
 7263 065b E2000000 		.4byte	.LVL97
 7264 065f 0100     		.2byte	0x1
 7265 0661 55       		.byte	0x55
 7266 0662 2A010000 		.4byte	.LVL112
 7267 0666 2E010000 		.4byte	.LVL113
 7268 066a 0100     		.2byte	0x1
 7269 066c 50       		.byte	0x50
 7270 066d 00000000 		.4byte	0
 7271 0671 00000000 		.4byte	0
 7272              	.LLST28:
 7273 0675 F8000000 		.4byte	.LVL102
 7274 0679 0C010000 		.4byte	.LVL103
 7275 067d 0100     		.2byte	0x1
 7276 067f 50       		.byte	0x50
 7277 0680 0C010000 		.4byte	.LVL103
 7278 0684 10010000 		.4byte	.LVL105
 7279 0688 0100     		.2byte	0x1
 7280 068a 55       		.byte	0x55
 7281 068b 2E010000 		.4byte	.LVL113
 7282 068f 30010000 		.4byte	.LVL114
 7283 0693 0100     		.2byte	0x1
 7284 0695 50       		.byte	0x50
 7285 0696 00000000 		.4byte	0
 7286 069a 00000000 		.4byte	0
 7287              	.LLST29:
 7288 069e 00000000 		.4byte	.LVL119
 7289 06a2 0C000000 		.4byte	.LVL120
 7290 06a6 0100     		.2byte	0x1
 7291 06a8 50       		.byte	0x50
 7292 06a9 0C000000 		.4byte	.LVL120
 7293 06ad 1C000000 		.4byte	.LVL124
 7294 06b1 0100     		.2byte	0x1
 7295 06b3 54       		.byte	0x54
 7296 06b4 1C000000 		.4byte	.LVL124
 7297 06b8 36000000 		.4byte	.LVL127
 7298 06bc 0400     		.2byte	0x4
 7299 06be F3       		.byte	0xf3
 7300 06bf 01       		.uleb128 0x1
ARM GAS  C:\Users\Phuong\AppData\Local\Temp\cc32RpHN.s 			page 145


 7301 06c0 50       		.byte	0x50
 7302 06c1 9F       		.byte	0x9f
 7303 06c2 36000000 		.4byte	.LVL127
 7304 06c6 70000000 		.4byte	.LVL135
 7305 06ca 0100     		.2byte	0x1
 7306 06cc 54       		.byte	0x54
 7307 06cd 70000000 		.4byte	.LVL135
 7308 06d1 8E000000 		.4byte	.LVL140
 7309 06d5 0400     		.2byte	0x4
 7310 06d7 F3       		.byte	0xf3
 7311 06d8 01       		.uleb128 0x1
 7312 06d9 50       		.byte	0x50
 7313 06da 9F       		.byte	0x9f
 7314 06db 8E000000 		.4byte	.LVL140
 7315 06df 92000000 		.4byte	.LVL141
 7316 06e3 0100     		.2byte	0x1
 7317 06e5 54       		.byte	0x54
 7318 06e6 92000000 		.4byte	.LVL141
 7319 06ea AC000000 		.4byte	.LFE10
 7320 06ee 0400     		.2byte	0x4
 7321 06f0 F3       		.byte	0xf3
 7322 06f1 01       		.uleb128 0x1
 7323 06f2 50       		.byte	0x50
 7324 06f3 9F       		.byte	0x9f
 7325 06f4 00000000 		.4byte	0
 7326 06f8 00000000 		.4byte	0
 7327              	.LLST30:
 7328 06fc 16000000 		.4byte	.LVL122
 7329 0700 36000000 		.4byte	.LVL127
 7330 0704 0300     		.2byte	0x3
 7331 0706 08       		.byte	0x8
 7332 0707 EF       		.byte	0xef
 7333 0708 9F       		.byte	0x9f
 7334 0709 8A000000 		.4byte	.LVL138
 7335 070d 8E000000 		.4byte	.LVL140
 7336 0711 0300     		.2byte	0x3
 7337 0713 08       		.byte	0x8
 7338 0714 EF       		.byte	0xef
 7339 0715 9F       		.byte	0x9f
 7340 0716 94000000 		.4byte	.LVL142
 7341 071a AC000000 		.4byte	.LFE10
 7342 071e 0100     		.2byte	0x1
 7343 0720 50       		.byte	0x50
 7344 0721 00000000 		.4byte	0
 7345 0725 00000000 		.4byte	0
 7346              	.LLST31:
 7347 0729 1C000000 		.4byte	.LVL124
 7348 072d 30000000 		.4byte	.LVL125
 7349 0731 0100     		.2byte	0x1
 7350 0733 50       		.byte	0x50
 7351 0734 30000000 		.4byte	.LVL125
 7352 0738 36000000 		.4byte	.LVL127
 7353 073c 0100     		.2byte	0x1
 7354 073e 54       		.byte	0x54
 7355 073f 8A000000 		.4byte	.LVL138
 7356 0743 8C000000 		.4byte	.LVL139
 7357 0747 0100     		.2byte	0x1
ARM GAS  C:\Users\Phuong\AppData\Local\Temp\cc32RpHN.s 			page 146


 7358 0749 50       		.byte	0x50
 7359 074a 8C000000 		.4byte	.LVL139
 7360 074e 8E000000 		.4byte	.LVL140
 7361 0752 0100     		.2byte	0x1
 7362 0754 54       		.byte	0x54
 7363 0755 00000000 		.4byte	0
 7364 0759 00000000 		.4byte	0
 7365              	.LLST32:
 7366 075d 48000000 		.4byte	.LVL130
 7367 0761 5C000000 		.4byte	.LVL131
 7368 0765 0100     		.2byte	0x1
 7369 0767 50       		.byte	0x50
 7370 0768 5C000000 		.4byte	.LVL131
 7371 076c 5E000000 		.4byte	.LVL132
 7372 0770 0100     		.2byte	0x1
 7373 0772 55       		.byte	0x55
 7374 0773 00000000 		.4byte	0
 7375 0777 00000000 		.4byte	0
 7376              	.LLST33:
 7377 077b 70000000 		.4byte	.LVL135
 7378 077f 84000000 		.4byte	.LVL136
 7379 0783 0100     		.2byte	0x1
 7380 0785 50       		.byte	0x50
 7381 0786 84000000 		.4byte	.LVL136
 7382 078a 8A000000 		.4byte	.LVL138
 7383 078e 0100     		.2byte	0x1
 7384 0790 54       		.byte	0x54
 7385 0791 92000000 		.4byte	.LVL141
 7386 0795 94000000 		.4byte	.LVL142
 7387 0799 0100     		.2byte	0x1
 7388 079b 50       		.byte	0x50
 7389 079c 00000000 		.4byte	0
 7390 07a0 00000000 		.4byte	0
 7391              	.LLST34:
 7392 07a4 00000000 		.4byte	.LVL143
 7393 07a8 08000000 		.4byte	.LVL144
 7394 07ac 0100     		.2byte	0x1
 7395 07ae 50       		.byte	0x50
 7396 07af 08000000 		.4byte	.LVL144
 7397 07b3 18000000 		.4byte	.LVL148
 7398 07b7 0100     		.2byte	0x1
 7399 07b9 54       		.byte	0x54
 7400 07ba 18000000 		.4byte	.LVL148
 7401 07be 36000000 		.4byte	.LVL151
 7402 07c2 0400     		.2byte	0x4
 7403 07c4 F3       		.byte	0xf3
 7404 07c5 01       		.uleb128 0x1
 7405 07c6 50       		.byte	0x50
 7406 07c7 9F       		.byte	0x9f
 7407 07c8 36000000 		.4byte	.LVL151
 7408 07cc 4C000000 		.4byte	.LVL155
 7409 07d0 0100     		.2byte	0x1
 7410 07d2 54       		.byte	0x54
 7411 07d3 4C000000 		.4byte	.LVL155
 7412 07d7 70000000 		.4byte	.LVL160
 7413 07db 0400     		.2byte	0x4
 7414 07dd F3       		.byte	0xf3
ARM GAS  C:\Users\Phuong\AppData\Local\Temp\cc32RpHN.s 			page 147


 7415 07de 01       		.uleb128 0x1
 7416 07df 50       		.byte	0x50
 7417 07e0 9F       		.byte	0x9f
 7418 07e1 70000000 		.4byte	.LVL160
 7419 07e5 74000000 		.4byte	.LVL161
 7420 07e9 0100     		.2byte	0x1
 7421 07eb 54       		.byte	0x54
 7422 07ec 74000000 		.4byte	.LVL161
 7423 07f0 94000000 		.4byte	.LFE11
 7424 07f4 0400     		.2byte	0x4
 7425 07f6 F3       		.byte	0xf3
 7426 07f7 01       		.uleb128 0x1
 7427 07f8 50       		.byte	0x50
 7428 07f9 9F       		.byte	0x9f
 7429 07fa 00000000 		.4byte	0
 7430 07fe 00000000 		.4byte	0
 7431              	.LLST35:
 7432 0802 12000000 		.4byte	.LVL146
 7433 0806 36000000 		.4byte	.LVL151
 7434 080a 0400     		.2byte	0x4
 7435 080c 0A       		.byte	0xa
 7436 080d 0E01     		.2byte	0x10e
 7437 080f 9F       		.byte	0x9f
 7438 0810 46000000 		.4byte	.LVL153
 7439 0814 6A000000 		.4byte	.LVL158
 7440 0818 0400     		.2byte	0x4
 7441 081a 0A       		.byte	0xa
 7442 081b 1501     		.2byte	0x115
 7443 081d 9F       		.byte	0x9f
 7444 081e 6A000000 		.4byte	.LVL158
 7445 0822 70000000 		.4byte	.LVL160
 7446 0826 0400     		.2byte	0x4
 7447 0828 0A       		.byte	0xa
 7448 0829 0E01     		.2byte	0x10e
 7449 082b 9F       		.byte	0x9f
 7450 082c 74000000 		.4byte	.LVL161
 7451 0830 78000000 		.4byte	.LVL163
 7452 0834 0400     		.2byte	0x4
 7453 0836 0A       		.byte	0xa
 7454 0837 1501     		.2byte	0x115
 7455 0839 9F       		.byte	0x9f
 7456 083a 78000000 		.4byte	.LVL163
 7457 083e 94000000 		.4byte	.LFE11
 7458 0842 0100     		.2byte	0x1
 7459 0844 50       		.byte	0x50
 7460 0845 00000000 		.4byte	0
 7461 0849 00000000 		.4byte	0
 7462              	.LLST36:
 7463 084d 18000000 		.4byte	.LVL148
 7464 0851 2E000000 		.4byte	.LVL149
 7465 0855 0100     		.2byte	0x1
 7466 0857 50       		.byte	0x50
 7467 0858 2E000000 		.4byte	.LVL149
 7468 085c 36000000 		.4byte	.LVL151
 7469 0860 0100     		.2byte	0x1
 7470 0862 54       		.byte	0x54
 7471 0863 6A000000 		.4byte	.LVL158
ARM GAS  C:\Users\Phuong\AppData\Local\Temp\cc32RpHN.s 			page 148


 7472 0867 6C000000 		.4byte	.LVL159
 7473 086b 0100     		.2byte	0x1
 7474 086d 50       		.byte	0x50
 7475 086e 6C000000 		.4byte	.LVL159
 7476 0872 70000000 		.4byte	.LVL160
 7477 0876 0100     		.2byte	0x1
 7478 0878 54       		.byte	0x54
 7479 0879 00000000 		.4byte	0
 7480 087d 00000000 		.4byte	0
 7481              	.LLST37:
 7482 0881 4C000000 		.4byte	.LVL155
 7483 0885 62000000 		.4byte	.LVL156
 7484 0889 0100     		.2byte	0x1
 7485 088b 50       		.byte	0x50
 7486 088c 62000000 		.4byte	.LVL156
 7487 0890 6A000000 		.4byte	.LVL158
 7488 0894 0100     		.2byte	0x1
 7489 0896 54       		.byte	0x54
 7490 0897 74000000 		.4byte	.LVL161
 7491 089b 76000000 		.4byte	.LVL162
 7492 089f 0100     		.2byte	0x1
 7493 08a1 50       		.byte	0x50
 7494 08a2 76000000 		.4byte	.LVL162
 7495 08a6 78000000 		.4byte	.LVL163
 7496 08aa 0100     		.2byte	0x1
 7497 08ac 54       		.byte	0x54
 7498 08ad 00000000 		.4byte	0
 7499 08b1 00000000 		.4byte	0
 7500              	.LLST38:
 7501 08b5 00000000 		.4byte	.LVL164
 7502 08b9 06000000 		.4byte	.LVL165
 7503 08bd 0100     		.2byte	0x1
 7504 08bf 50       		.byte	0x50
 7505 08c0 06000000 		.4byte	.LVL165
 7506 08c4 0C000000 		.4byte	.LVL166
 7507 08c8 0400     		.2byte	0x4
 7508 08ca F3       		.byte	0xf3
 7509 08cb 01       		.uleb128 0x1
 7510 08cc 50       		.byte	0x50
 7511 08cd 9F       		.byte	0x9f
 7512 08ce 0C000000 		.4byte	.LVL166
 7513 08d2 0E000000 		.4byte	.LVL167
 7514 08d6 0100     		.2byte	0x1
 7515 08d8 50       		.byte	0x50
 7516 08d9 0E000000 		.4byte	.LVL167
 7517 08dd 14000000 		.4byte	.LFE1
 7518 08e1 0400     		.2byte	0x4
 7519 08e3 F3       		.byte	0xf3
 7520 08e4 01       		.uleb128 0x1
 7521 08e5 50       		.byte	0x50
 7522 08e6 9F       		.byte	0x9f
 7523 08e7 00000000 		.4byte	0
 7524 08eb 00000000 		.4byte	0
 7525              	.LLST39:
 7526 08ef 00000000 		.4byte	.LVL168
 7527 08f3 12000000 		.4byte	.LVL169
 7528 08f7 0100     		.2byte	0x1
ARM GAS  C:\Users\Phuong\AppData\Local\Temp\cc32RpHN.s 			page 149


 7529 08f9 50       		.byte	0x50
 7530 08fa 12000000 		.4byte	.LVL169
 7531 08fe 30000000 		.4byte	.LVL172
 7532 0902 0100     		.2byte	0x1
 7533 0904 55       		.byte	0x55
 7534 0905 30000000 		.4byte	.LVL172
 7535 0909 32000000 		.4byte	.LVL173
 7536 090d 0100     		.2byte	0x1
 7537 090f 50       		.byte	0x50
 7538 0910 32000000 		.4byte	.LVL173
 7539 0914 34000000 		.4byte	.LVL174
 7540 0918 0100     		.2byte	0x1
 7541 091a 55       		.byte	0x55
 7542 091b 34000000 		.4byte	.LVL174
 7543 091f 36000000 		.4byte	.LVL175
 7544 0923 0100     		.2byte	0x1
 7545 0925 50       		.byte	0x50
 7546 0926 36000000 		.4byte	.LVL175
 7547 092a 36000000 		.4byte	.LVL176
 7548 092e 0100     		.2byte	0x1
 7549 0930 55       		.byte	0x55
 7550 0931 36000000 		.4byte	.LVL176
 7551 0935 3C000000 		.4byte	.LFE2
 7552 0939 0400     		.2byte	0x4
 7553 093b F3       		.byte	0xf3
 7554 093c 01       		.uleb128 0x1
 7555 093d 50       		.byte	0x50
 7556 093e 9F       		.byte	0x9f
 7557 093f 00000000 		.4byte	0
 7558 0943 00000000 		.4byte	0
 7559              	.LLST40:
 7560 0947 00000000 		.4byte	.LVL168
 7561 094b 12000000 		.4byte	.LVL169
 7562 094f 0100     		.2byte	0x1
 7563 0951 51       		.byte	0x51
 7564 0952 12000000 		.4byte	.LVL169
 7565 0956 30000000 		.4byte	.LVL172
 7566 095a 0100     		.2byte	0x1
 7567 095c 56       		.byte	0x56
 7568 095d 30000000 		.4byte	.LVL172
 7569 0961 36000000 		.4byte	.LVL175
 7570 0965 0100     		.2byte	0x1
 7571 0967 51       		.byte	0x51
 7572 0968 36000000 		.4byte	.LVL175
 7573 096c 36000000 		.4byte	.LVL177
 7574 0970 0100     		.2byte	0x1
 7575 0972 56       		.byte	0x56
 7576 0973 36000000 		.4byte	.LVL177
 7577 0977 3C000000 		.4byte	.LFE2
 7578 097b 0400     		.2byte	0x4
 7579 097d F3       		.byte	0xf3
 7580 097e 01       		.uleb128 0x1
 7581 097f 51       		.byte	0x51
 7582 0980 9F       		.byte	0x9f
 7583 0981 00000000 		.4byte	0
 7584 0985 00000000 		.4byte	0
 7585              	.LLST41:
ARM GAS  C:\Users\Phuong\AppData\Local\Temp\cc32RpHN.s 			page 150


 7586 0989 12000000 		.4byte	.LVL169
 7587 098d 30000000 		.4byte	.LVL172
 7588 0991 0100     		.2byte	0x1
 7589 0993 54       		.byte	0x54
 7590 0994 00000000 		.4byte	0
 7591 0998 00000000 		.4byte	0
 7592              	.LLST42:
 7593 099c 00000000 		.4byte	.LVL178
 7594 09a0 08000000 		.4byte	.LVL180
 7595 09a4 0100     		.2byte	0x1
 7596 09a6 50       		.byte	0x50
 7597 09a7 08000000 		.4byte	.LVL180
 7598 09ab 48000000 		.4byte	.LVL188
 7599 09af 0100     		.2byte	0x1
 7600 09b1 54       		.byte	0x54
 7601 09b2 48000000 		.4byte	.LVL188
 7602 09b6 4A000000 		.4byte	.LFE12
 7603 09ba 0400     		.2byte	0x4
 7604 09bc F3       		.byte	0xf3
 7605 09bd 01       		.uleb128 0x1
 7606 09be 50       		.byte	0x50
 7607 09bf 9F       		.byte	0x9f
 7608 09c0 00000000 		.4byte	0
 7609 09c4 00000000 		.4byte	0
 7610              	.LLST43:
 7611 09c8 06000000 		.4byte	.LVL179
 7612 09cc 08000000 		.4byte	.LVL180
 7613 09d0 0100     		.2byte	0x1
 7614 09d2 50       		.byte	0x50
 7615 09d3 08000000 		.4byte	.LVL180
 7616 09d7 48000000 		.4byte	.LVL187
 7617 09db 0100     		.2byte	0x1
 7618 09dd 54       		.byte	0x54
 7619 09de 00000000 		.4byte	0
 7620 09e2 00000000 		.4byte	0
 7621              	.LLST44:
 7622 09e6 00000000 		.4byte	.LVL189
 7623 09ea 0B000000 		.4byte	.LVL191-1
 7624 09ee 0100     		.2byte	0x1
 7625 09f0 50       		.byte	0x50
 7626 09f1 0B000000 		.4byte	.LVL191-1
 7627 09f5 0E000000 		.4byte	.LVL192
 7628 09f9 0100     		.2byte	0x1
 7629 09fb 54       		.byte	0x54
 7630 09fc 0E000000 		.4byte	.LVL192
 7631 0a00 2C000000 		.4byte	.LVL196
 7632 0a04 0400     		.2byte	0x4
 7633 0a06 F3       		.byte	0xf3
 7634 0a07 01       		.uleb128 0x1
 7635 0a08 50       		.byte	0x50
 7636 0a09 9F       		.byte	0x9f
 7637 0a0a 2C000000 		.4byte	.LVL196
 7638 0a0e 35000000 		.4byte	.LVL198-1
 7639 0a12 0100     		.2byte	0x1
 7640 0a14 50       		.byte	0x50
 7641 0a15 35000000 		.4byte	.LVL198-1
 7642 0a19 38000000 		.4byte	.LVL199
ARM GAS  C:\Users\Phuong\AppData\Local\Temp\cc32RpHN.s 			page 151


 7643 0a1d 0100     		.2byte	0x1
 7644 0a1f 54       		.byte	0x54
 7645 0a20 38000000 		.4byte	.LVL199
 7646 0a24 56000000 		.4byte	.LVL203
 7647 0a28 0400     		.2byte	0x4
 7648 0a2a F3       		.byte	0xf3
 7649 0a2b 01       		.uleb128 0x1
 7650 0a2c 50       		.byte	0x50
 7651 0a2d 9F       		.byte	0x9f
 7652 0a2e 56000000 		.4byte	.LVL203
 7653 0a32 5F000000 		.4byte	.LVL205-1
 7654 0a36 0100     		.2byte	0x1
 7655 0a38 50       		.byte	0x50
 7656 0a39 5F000000 		.4byte	.LVL205-1
 7657 0a3d 62000000 		.4byte	.LVL206
 7658 0a41 0100     		.2byte	0x1
 7659 0a43 54       		.byte	0x54
 7660 0a44 62000000 		.4byte	.LVL206
 7661 0a48 80000000 		.4byte	.LVL210
 7662 0a4c 0400     		.2byte	0x4
 7663 0a4e F3       		.byte	0xf3
 7664 0a4f 01       		.uleb128 0x1
 7665 0a50 50       		.byte	0x50
 7666 0a51 9F       		.byte	0x9f
 7667 0a52 80000000 		.4byte	.LVL210
 7668 0a56 82000000 		.4byte	.LVL211
 7669 0a5a 0100     		.2byte	0x1
 7670 0a5c 50       		.byte	0x50
 7671 0a5d 82000000 		.4byte	.LVL211
 7672 0a61 90000000 		.4byte	.LVL216
 7673 0a65 0100     		.2byte	0x1
 7674 0a67 54       		.byte	0x54
 7675 0a68 90000000 		.4byte	.LVL216
 7676 0a6c AE000000 		.4byte	.LVL220
 7677 0a70 0400     		.2byte	0x4
 7678 0a72 F3       		.byte	0xf3
 7679 0a73 01       		.uleb128 0x1
 7680 0a74 50       		.byte	0x50
 7681 0a75 9F       		.byte	0x9f
 7682 0a76 AE000000 		.4byte	.LVL220
 7683 0a7a C8000000 		.4byte	.LVL225
 7684 0a7e 0100     		.2byte	0x1
 7685 0a80 54       		.byte	0x54
 7686 0a81 C8000000 		.4byte	.LVL225
 7687 0a85 E6000000 		.4byte	.LVL229
 7688 0a89 0400     		.2byte	0x4
 7689 0a8b F3       		.byte	0xf3
 7690 0a8c 01       		.uleb128 0x1
 7691 0a8d 50       		.byte	0x50
 7692 0a8e 9F       		.byte	0x9f
 7693 0a8f E6000000 		.4byte	.LVL229
 7694 0a93 4C010000 		.4byte	.LVL237
 7695 0a97 0100     		.2byte	0x1
 7696 0a99 54       		.byte	0x54
 7697 0a9a 4C010000 		.4byte	.LVL237
 7698 0a9e 68010000 		.4byte	.LVL241
 7699 0aa2 0400     		.2byte	0x4
ARM GAS  C:\Users\Phuong\AppData\Local\Temp\cc32RpHN.s 			page 152


 7700 0aa4 F3       		.byte	0xf3
 7701 0aa5 01       		.uleb128 0x1
 7702 0aa6 50       		.byte	0x50
 7703 0aa7 9F       		.byte	0x9f
 7704 0aa8 68010000 		.4byte	.LVL241
 7705 0aac 78010000 		.4byte	.LVL245
 7706 0ab0 0100     		.2byte	0x1
 7707 0ab2 54       		.byte	0x54
 7708 0ab3 78010000 		.4byte	.LVL245
 7709 0ab7 94010000 		.4byte	.LVL249
 7710 0abb 0400     		.2byte	0x4
 7711 0abd F3       		.byte	0xf3
 7712 0abe 01       		.uleb128 0x1
 7713 0abf 50       		.byte	0x50
 7714 0ac0 9F       		.byte	0x9f
 7715 0ac1 94010000 		.4byte	.LVL249
 7716 0ac5 A4010000 		.4byte	.LVL253
 7717 0ac9 0100     		.2byte	0x1
 7718 0acb 54       		.byte	0x54
 7719 0acc A4010000 		.4byte	.LVL253
 7720 0ad0 C0010000 		.4byte	.LVL257
 7721 0ad4 0400     		.2byte	0x4
 7722 0ad6 F3       		.byte	0xf3
 7723 0ad7 01       		.uleb128 0x1
 7724 0ad8 50       		.byte	0x50
 7725 0ad9 9F       		.byte	0x9f
 7726 0ada C0010000 		.4byte	.LVL257
 7727 0ade D6010000 		.4byte	.LVL261
 7728 0ae2 0100     		.2byte	0x1
 7729 0ae4 54       		.byte	0x54
 7730 0ae5 D6010000 		.4byte	.LVL261
 7731 0ae9 02020000 		.4byte	.LVL269
 7732 0aed 0400     		.2byte	0x4
 7733 0aef F3       		.byte	0xf3
 7734 0af0 01       		.uleb128 0x1
 7735 0af1 50       		.byte	0x50
 7736 0af2 9F       		.byte	0x9f
 7737 0af3 02020000 		.4byte	.LVL269
 7738 0af7 04020000 		.4byte	.LVL270
 7739 0afb 0100     		.2byte	0x1
 7740 0afd 54       		.byte	0x54
 7741 0afe 04020000 		.4byte	.LVL270
 7742 0b02 06020000 		.4byte	.LVL271
 7743 0b06 0400     		.2byte	0x4
 7744 0b08 F3       		.byte	0xf3
 7745 0b09 01       		.uleb128 0x1
 7746 0b0a 50       		.byte	0x50
 7747 0b0b 9F       		.byte	0x9f
 7748 0b0c 06020000 		.4byte	.LVL271
 7749 0b10 08020000 		.4byte	.LVL272
 7750 0b14 0100     		.2byte	0x1
 7751 0b16 54       		.byte	0x54
 7752 0b17 08020000 		.4byte	.LVL272
 7753 0b1b 5C020000 		.4byte	.LFE13
 7754 0b1f 0400     		.2byte	0x4
 7755 0b21 F3       		.byte	0xf3
 7756 0b22 01       		.uleb128 0x1
ARM GAS  C:\Users\Phuong\AppData\Local\Temp\cc32RpHN.s 			page 153


 7757 0b23 50       		.byte	0x50
 7758 0b24 9F       		.byte	0x9f
 7759 0b25 00000000 		.4byte	0
 7760 0b29 00000000 		.4byte	0
 7761              	.LLST45:
 7762 0b2d 08000000 		.4byte	.LVL190
 7763 0b31 2C000000 		.4byte	.LVL196
 7764 0b35 0200     		.2byte	0x2
 7765 0b37 30       		.byte	0x30
 7766 0b38 9F       		.byte	0x9f
 7767 0b39 32000000 		.4byte	.LVL197
 7768 0b3d 56000000 		.4byte	.LVL203
 7769 0b41 0200     		.2byte	0x2
 7770 0b43 30       		.byte	0x30
 7771 0b44 9F       		.byte	0x9f
 7772 0b45 5C000000 		.4byte	.LVL204
 7773 0b49 80000000 		.4byte	.LVL210
 7774 0b4d 0200     		.2byte	0x2
 7775 0b4f 30       		.byte	0x30
 7776 0b50 9F       		.byte	0x9f
 7777 0b51 8A000000 		.4byte	.LVL214
 7778 0b55 AE000000 		.4byte	.LVL220
 7779 0b59 0200     		.2byte	0x2
 7780 0b5b 30       		.byte	0x30
 7781 0b5c 9F       		.byte	0x9f
 7782 0b5d C2000000 		.4byte	.LVL223
 7783 0b61 E6000000 		.4byte	.LVL229
 7784 0b65 0200     		.2byte	0x2
 7785 0b67 30       		.byte	0x30
 7786 0b68 9F       		.byte	0x9f
 7787 0b69 46010000 		.4byte	.LVL235
 7788 0b6d 68010000 		.4byte	.LVL241
 7789 0b71 0200     		.2byte	0x2
 7790 0b73 30       		.byte	0x30
 7791 0b74 9F       		.byte	0x9f
 7792 0b75 72010000 		.4byte	.LVL243
 7793 0b79 94010000 		.4byte	.LVL249
 7794 0b7d 0200     		.2byte	0x2
 7795 0b7f 30       		.byte	0x30
 7796 0b80 9F       		.byte	0x9f
 7797 0b81 9E010000 		.4byte	.LVL251
 7798 0b85 C0010000 		.4byte	.LVL257
 7799 0b89 0200     		.2byte	0x2
 7800 0b8b 30       		.byte	0x30
 7801 0b8c 9F       		.byte	0x9f
 7802 0b8d D0010000 		.4byte	.LVL259
 7803 0b91 02020000 		.4byte	.LVL269
 7804 0b95 0200     		.2byte	0x2
 7805 0b97 30       		.byte	0x30
 7806 0b98 9F       		.byte	0x9f
 7807 0b99 0A020000 		.4byte	.LVL273
 7808 0b9d 0C020000 		.4byte	.LVL274
 7809 0ba1 0200     		.2byte	0x2
 7810 0ba3 30       		.byte	0x30
 7811 0ba4 9F       		.byte	0x9f
 7812 0ba5 0C020000 		.4byte	.LVL274
 7813 0ba9 18020000 		.4byte	.LVL276
ARM GAS  C:\Users\Phuong\AppData\Local\Temp\cc32RpHN.s 			page 154


 7814 0bad 0100     		.2byte	0x1
 7815 0baf 54       		.byte	0x54
 7816 0bb0 18020000 		.4byte	.LVL276
 7817 0bb4 26020000 		.4byte	.LVL280
 7818 0bb8 0200     		.2byte	0x2
 7819 0bba 30       		.byte	0x30
 7820 0bbb 9F       		.byte	0x9f
 7821 0bbc 26020000 		.4byte	.LVL280
 7822 0bc0 2A020000 		.4byte	.LVL281
 7823 0bc4 0100     		.2byte	0x1
 7824 0bc6 54       		.byte	0x54
 7825 0bc7 2A020000 		.4byte	.LVL281
 7826 0bcb 5C020000 		.4byte	.LFE13
 7827 0bcf 0100     		.2byte	0x1
 7828 0bd1 50       		.byte	0x50
 7829 0bd2 00000000 		.4byte	0
 7830 0bd6 00000000 		.4byte	0
 7831              	.LLST46:
 7832 0bda 0E000000 		.4byte	.LVL192
 7833 0bde 26000000 		.4byte	.LVL193
 7834 0be2 0100     		.2byte	0x1
 7835 0be4 50       		.byte	0x50
 7836 0be5 26000000 		.4byte	.LVL193
 7837 0be9 2A000000 		.4byte	.LVL195
 7838 0bed 0100     		.2byte	0x1
 7839 0bef 54       		.byte	0x54
 7840 0bf0 18020000 		.4byte	.LVL276
 7841 0bf4 1C020000 		.4byte	.LVL277
 7842 0bf8 0100     		.2byte	0x1
 7843 0bfa 50       		.byte	0x50
 7844 0bfb 00000000 		.4byte	0
 7845 0bff 00000000 		.4byte	0
 7846              	.LLST47:
 7847 0c03 38000000 		.4byte	.LVL199
 7848 0c07 50000000 		.4byte	.LVL200
 7849 0c0b 0100     		.2byte	0x1
 7850 0c0d 50       		.byte	0x50
 7851 0c0e 50000000 		.4byte	.LVL200
 7852 0c12 54000000 		.4byte	.LVL202
 7853 0c16 0100     		.2byte	0x1
 7854 0c18 54       		.byte	0x54
 7855 0c19 1C020000 		.4byte	.LVL277
 7856 0c1d 20020000 		.4byte	.LVL278
 7857 0c21 0100     		.2byte	0x1
 7858 0c23 50       		.byte	0x50
 7859 0c24 00000000 		.4byte	0
 7860 0c28 00000000 		.4byte	0
 7861              	.LLST48:
 7862 0c2c 62000000 		.4byte	.LVL206
 7863 0c30 7A000000 		.4byte	.LVL207
 7864 0c34 0100     		.2byte	0x1
 7865 0c36 50       		.byte	0x50
 7866 0c37 7A000000 		.4byte	.LVL207
 7867 0c3b 7E000000 		.4byte	.LVL209
 7868 0c3f 0100     		.2byte	0x1
 7869 0c41 54       		.byte	0x54
 7870 0c42 20020000 		.4byte	.LVL278
ARM GAS  C:\Users\Phuong\AppData\Local\Temp\cc32RpHN.s 			page 155


 7871 0c46 24020000 		.4byte	.LVL279
 7872 0c4a 0100     		.2byte	0x1
 7873 0c4c 50       		.byte	0x50
 7874 0c4d 00000000 		.4byte	0
 7875 0c51 00000000 		.4byte	0
 7876              	.LLST49:
 7877 0c55 88000000 		.4byte	.LVL213
 7878 0c59 8D000000 		.4byte	.LVL215-1
 7879 0c5d 0100     		.2byte	0x1
 7880 0c5f 50       		.byte	0x50
 7881 0c60 8D000000 		.4byte	.LVL215-1
 7882 0c64 AE000000 		.4byte	.LVL220
 7883 0c68 0100     		.2byte	0x1
 7884 0c6a 55       		.byte	0x55
 7885 0c6b AE000000 		.4byte	.LVL220
 7886 0c6f B5000000 		.4byte	.LVL221-1
 7887 0c73 0100     		.2byte	0x1
 7888 0c75 50       		.byte	0x50
 7889 0c76 B5000000 		.4byte	.LVL221-1
 7890 0c7a 18020000 		.4byte	.LVL276
 7891 0c7e 0100     		.2byte	0x1
 7892 0c80 55       		.byte	0x55
 7893 0c81 24020000 		.4byte	.LVL279
 7894 0c85 26020000 		.4byte	.LVL280
 7895 0c89 0100     		.2byte	0x1
 7896 0c8b 55       		.byte	0x55
 7897 0c8c 00000000 		.4byte	0
 7898 0c90 00000000 		.4byte	0
 7899              	.LLST50:
 7900 0c94 90000000 		.4byte	.LVL216
 7901 0c98 A8000000 		.4byte	.LVL217
 7902 0c9c 0100     		.2byte	0x1
 7903 0c9e 50       		.byte	0x50
 7904 0c9f A8000000 		.4byte	.LVL217
 7905 0ca3 AC000000 		.4byte	.LVL219
 7906 0ca7 0100     		.2byte	0x1
 7907 0ca9 54       		.byte	0x54
 7908 0caa 24020000 		.4byte	.LVL279
 7909 0cae 26020000 		.4byte	.LVL280
 7910 0cb2 0100     		.2byte	0x1
 7911 0cb4 50       		.byte	0x50
 7912 0cb5 00000000 		.4byte	0
 7913 0cb9 00000000 		.4byte	0
 7914              	.LLST51:
 7915 0cbd C8000000 		.4byte	.LVL225
 7916 0cc1 E0000000 		.4byte	.LVL226
 7917 0cc5 0100     		.2byte	0x1
 7918 0cc7 50       		.byte	0x50
 7919 0cc8 E0000000 		.4byte	.LVL226
 7920 0ccc E4000000 		.4byte	.LVL228
 7921 0cd0 0100     		.2byte	0x1
 7922 0cd2 54       		.byte	0x54
 7923 0cd3 F2010000 		.4byte	.LVL265
 7924 0cd7 F6010000 		.4byte	.LVL266
 7925 0cdb 0100     		.2byte	0x1
 7926 0cdd 50       		.byte	0x50
 7927 0cde 00000000 		.4byte	0
ARM GAS  C:\Users\Phuong\AppData\Local\Temp\cc32RpHN.s 			page 156


 7928 0ce2 00000000 		.4byte	0
 7929              	.LLST52:
 7930 0ce6 18010000 		.4byte	.LVL231
 7931 0cea 2E010000 		.4byte	.LVL232
 7932 0cee 0100     		.2byte	0x1
 7933 0cf0 50       		.byte	0x50
 7934 0cf1 2E010000 		.4byte	.LVL232
 7935 0cf5 30010000 		.4byte	.LVL233
 7936 0cf9 0100     		.2byte	0x1
 7937 0cfb 56       		.byte	0x56
 7938 0cfc 00000000 		.4byte	0
 7939 0d00 00000000 		.4byte	0
 7940              	.LLST53:
 7941 0d04 4C010000 		.4byte	.LVL237
 7942 0d08 62010000 		.4byte	.LVL238
 7943 0d0c 0100     		.2byte	0x1
 7944 0d0e 50       		.byte	0x50
 7945 0d0f 62010000 		.4byte	.LVL238
 7946 0d13 66010000 		.4byte	.LVL240
 7947 0d17 0100     		.2byte	0x1
 7948 0d19 54       		.byte	0x54
 7949 0d1a F6010000 		.4byte	.LVL266
 7950 0d1e FA010000 		.4byte	.LVL267
 7951 0d22 0100     		.2byte	0x1
 7952 0d24 50       		.byte	0x50
 7953 0d25 00000000 		.4byte	0
 7954 0d29 00000000 		.4byte	0
 7955              	.LLST54:
 7956 0d2d 78010000 		.4byte	.LVL245
 7957 0d31 8E010000 		.4byte	.LVL246
 7958 0d35 0100     		.2byte	0x1
 7959 0d37 50       		.byte	0x50
 7960 0d38 8E010000 		.4byte	.LVL246
 7961 0d3c 92010000 		.4byte	.LVL248
 7962 0d40 0100     		.2byte	0x1
 7963 0d42 54       		.byte	0x54
 7964 0d43 FA010000 		.4byte	.LVL267
 7965 0d47 FE010000 		.4byte	.LVL268
 7966 0d4b 0100     		.2byte	0x1
 7967 0d4d 50       		.byte	0x50
 7968 0d4e 00000000 		.4byte	0
 7969 0d52 00000000 		.4byte	0
 7970              	.LLST55:
 7971 0d56 A4010000 		.4byte	.LVL253
 7972 0d5a BA010000 		.4byte	.LVL254
 7973 0d5e 0100     		.2byte	0x1
 7974 0d60 50       		.byte	0x50
 7975 0d61 BA010000 		.4byte	.LVL254
 7976 0d65 BE010000 		.4byte	.LVL256
 7977 0d69 0100     		.2byte	0x1
 7978 0d6b 54       		.byte	0x54
 7979 0d6c FE010000 		.4byte	.LVL268
 7980 0d70 02020000 		.4byte	.LVL269
 7981 0d74 0100     		.2byte	0x1
 7982 0d76 50       		.byte	0x50
 7983 0d77 00000000 		.4byte	0
 7984 0d7b 00000000 		.4byte	0
ARM GAS  C:\Users\Phuong\AppData\Local\Temp\cc32RpHN.s 			page 157


 7985              	.LLST56:
 7986 0d7f D6010000 		.4byte	.LVL261
 7987 0d83 EC010000 		.4byte	.LVL262
 7988 0d87 0100     		.2byte	0x1
 7989 0d89 50       		.byte	0x50
 7990 0d8a EC010000 		.4byte	.LVL262
 7991 0d8e F0010000 		.4byte	.LVL264
 7992 0d92 0100     		.2byte	0x1
 7993 0d94 54       		.byte	0x54
 7994 0d95 0A020000 		.4byte	.LVL273
 7995 0d99 0C020000 		.4byte	.LVL274
 7996 0d9d 0100     		.2byte	0x1
 7997 0d9f 50       		.byte	0x50
 7998 0da0 00000000 		.4byte	0
 7999 0da4 00000000 		.4byte	0
 8000              	.LLST57:
 8001 0da8 00000000 		.4byte	.LVL282
 8002 0dac 08000000 		.4byte	.LVL284
 8003 0db0 0100     		.2byte	0x1
 8004 0db2 50       		.byte	0x50
 8005 0db3 08000000 		.4byte	.LVL284
 8006 0db7 0E000000 		.4byte	.LFE14
 8007 0dbb 0400     		.2byte	0x4
 8008 0dbd F3       		.byte	0xf3
 8009 0dbe 01       		.uleb128 0x1
 8010 0dbf 50       		.byte	0x50
 8011 0dc0 9F       		.byte	0x9f
 8012 0dc1 00000000 		.4byte	0
 8013 0dc5 00000000 		.4byte	0
 8014              	.LLST58:
 8015 0dc9 06000000 		.4byte	.LVL283
 8016 0dcd 08000000 		.4byte	.LVL284
 8017 0dd1 0100     		.2byte	0x1
 8018 0dd3 50       		.byte	0x50
 8019 0dd4 08000000 		.4byte	.LVL284
 8020 0dd8 0C000000 		.4byte	.LVL285
 8021 0ddc 0400     		.2byte	0x4
 8022 0dde F3       		.byte	0xf3
 8023 0ddf 01       		.uleb128 0x1
 8024 0de0 50       		.byte	0x50
 8025 0de1 9F       		.byte	0x9f
 8026 0de2 00000000 		.4byte	0
 8027 0de6 00000000 		.4byte	0
 8028              	.LLST59:
 8029 0dea 00000000 		.4byte	.LVL286
 8030 0dee 0B000000 		.4byte	.LVL288-1
 8031 0df2 0100     		.2byte	0x1
 8032 0df4 50       		.byte	0x50
 8033 0df5 0B000000 		.4byte	.LVL288-1
 8034 0df9 2C000000 		.4byte	.LVL292
 8035 0dfd 0400     		.2byte	0x4
 8036 0dff F3       		.byte	0xf3
 8037 0e00 01       		.uleb128 0x1
 8038 0e01 50       		.byte	0x50
 8039 0e02 9F       		.byte	0x9f
 8040 0e03 2C000000 		.4byte	.LVL292
 8041 0e07 33000000 		.4byte	.LVL294-1
ARM GAS  C:\Users\Phuong\AppData\Local\Temp\cc32RpHN.s 			page 158


 8042 0e0b 0100     		.2byte	0x1
 8043 0e0d 50       		.byte	0x50
 8044 0e0e 33000000 		.4byte	.LVL294-1
 8045 0e12 54000000 		.4byte	.LVL298
 8046 0e16 0400     		.2byte	0x4
 8047 0e18 F3       		.byte	0xf3
 8048 0e19 01       		.uleb128 0x1
 8049 0e1a 50       		.byte	0x50
 8050 0e1b 9F       		.byte	0x9f
 8051 0e1c 54000000 		.4byte	.LVL298
 8052 0e20 5A000000 		.4byte	.LVL300
 8053 0e24 0100     		.2byte	0x1
 8054 0e26 50       		.byte	0x50
 8055 0e27 5A000000 		.4byte	.LVL300
 8056 0e2b 7C000000 		.4byte	.LFE15
 8057 0e2f 0400     		.2byte	0x4
 8058 0e31 F3       		.byte	0xf3
 8059 0e32 01       		.uleb128 0x1
 8060 0e33 50       		.byte	0x50
 8061 0e34 9F       		.byte	0x9f
 8062 0e35 00000000 		.4byte	0
 8063 0e39 00000000 		.4byte	0
 8064              	.LLST60:
 8065 0e3d 00000000 		.4byte	.LVL286
 8066 0e41 0B000000 		.4byte	.LVL288-1
 8067 0e45 0100     		.2byte	0x1
 8068 0e47 51       		.byte	0x51
 8069 0e48 0B000000 		.4byte	.LVL288-1
 8070 0e4c 2C000000 		.4byte	.LVL292
 8071 0e50 0400     		.2byte	0x4
 8072 0e52 F3       		.byte	0xf3
 8073 0e53 01       		.uleb128 0x1
 8074 0e54 51       		.byte	0x51
 8075 0e55 9F       		.byte	0x9f
 8076 0e56 2C000000 		.4byte	.LVL292
 8077 0e5a 33000000 		.4byte	.LVL294-1
 8078 0e5e 0100     		.2byte	0x1
 8079 0e60 51       		.byte	0x51
 8080 0e61 33000000 		.4byte	.LVL294-1
 8081 0e65 54000000 		.4byte	.LVL298
 8082 0e69 0400     		.2byte	0x4
 8083 0e6b F3       		.byte	0xf3
 8084 0e6c 01       		.uleb128 0x1
 8085 0e6d 51       		.byte	0x51
 8086 0e6e 9F       		.byte	0x9f
 8087 0e6f 54000000 		.4byte	.LVL298
 8088 0e73 5C000000 		.4byte	.LVL301
 8089 0e77 0100     		.2byte	0x1
 8090 0e79 51       		.byte	0x51
 8091 0e7a 5C000000 		.4byte	.LVL301
 8092 0e7e 7C000000 		.4byte	.LFE15
 8093 0e82 0400     		.2byte	0x4
 8094 0e84 F3       		.byte	0xf3
 8095 0e85 01       		.uleb128 0x1
 8096 0e86 51       		.byte	0x51
 8097 0e87 9F       		.byte	0x9f
 8098 0e88 00000000 		.4byte	0
ARM GAS  C:\Users\Phuong\AppData\Local\Temp\cc32RpHN.s 			page 159


 8099 0e8c 00000000 		.4byte	0
 8100              	.LLST61:
 8101 0e90 08000000 		.4byte	.LVL287
 8102 0e94 2C000000 		.4byte	.LVL292
 8103 0e98 0400     		.2byte	0x4
 8104 0e9a 0A       		.byte	0xa
 8105 0e9b D201     		.2byte	0x1d2
 8106 0e9d 9F       		.byte	0x9f
 8107 0e9e 30000000 		.4byte	.LVL293
 8108 0ea2 54000000 		.4byte	.LVL298
 8109 0ea6 0400     		.2byte	0x4
 8110 0ea8 0A       		.byte	0xa
 8111 0ea9 D801     		.2byte	0x1d8
 8112 0eab 9F       		.byte	0x9f
 8113 0eac 58000000 		.4byte	.LVL299
 8114 0eb0 5C000000 		.4byte	.LVL301
 8115 0eb4 0200     		.2byte	0x2
 8116 0eb6 30       		.byte	0x30
 8117 0eb7 9F       		.byte	0x9f
 8118 0eb8 5C000000 		.4byte	.LVL301
 8119 0ebc 62000000 		.4byte	.LVL303
 8120 0ec0 0400     		.2byte	0x4
 8121 0ec2 0A       		.byte	0xa
 8122 0ec3 D201     		.2byte	0x1d2
 8123 0ec5 9F       		.byte	0x9f
 8124 0ec6 62000000 		.4byte	.LVL303
 8125 0eca 66000000 		.4byte	.LVL305
 8126 0ece 0400     		.2byte	0x4
 8127 0ed0 0A       		.byte	0xa
 8128 0ed1 D801     		.2byte	0x1d8
 8129 0ed3 9F       		.byte	0x9f
 8130 0ed4 66000000 		.4byte	.LVL305
 8131 0ed8 7C000000 		.4byte	.LFE15
 8132 0edc 0100     		.2byte	0x1
 8133 0ede 50       		.byte	0x50
 8134 0edf 00000000 		.4byte	0
 8135 0ee3 00000000 		.4byte	0
 8136              	.LLST62:
 8137 0ee7 0E000000 		.4byte	.LVL289
 8138 0eeb 24000000 		.4byte	.LVL290
 8139 0eef 0100     		.2byte	0x1
 8140 0ef1 50       		.byte	0x50
 8141 0ef2 24000000 		.4byte	.LVL290
 8142 0ef6 2C000000 		.4byte	.LVL292
 8143 0efa 0100     		.2byte	0x1
 8144 0efc 54       		.byte	0x54
 8145 0efd 5C000000 		.4byte	.LVL301
 8146 0f01 5E000000 		.4byte	.LVL302
 8147 0f05 0100     		.2byte	0x1
 8148 0f07 50       		.byte	0x50
 8149 0f08 5E000000 		.4byte	.LVL302
 8150 0f0c 62000000 		.4byte	.LVL303
 8151 0f10 0100     		.2byte	0x1
 8152 0f12 54       		.byte	0x54
 8153 0f13 00000000 		.4byte	0
 8154 0f17 00000000 		.4byte	0
 8155              	.LLST63:
ARM GAS  C:\Users\Phuong\AppData\Local\Temp\cc32RpHN.s 			page 160


 8156 0f1b 36000000 		.4byte	.LVL295
 8157 0f1f 4C000000 		.4byte	.LVL296
 8158 0f23 0100     		.2byte	0x1
 8159 0f25 50       		.byte	0x50
 8160 0f26 4C000000 		.4byte	.LVL296
 8161 0f2a 54000000 		.4byte	.LVL298
 8162 0f2e 0100     		.2byte	0x1
 8163 0f30 54       		.byte	0x54
 8164 0f31 62000000 		.4byte	.LVL303
 8165 0f35 64000000 		.4byte	.LVL304
 8166 0f39 0100     		.2byte	0x1
 8167 0f3b 50       		.byte	0x50
 8168 0f3c 64000000 		.4byte	.LVL304
 8169 0f40 66000000 		.4byte	.LVL305
 8170 0f44 0100     		.2byte	0x1
 8171 0f46 54       		.byte	0x54
 8172 0f47 00000000 		.4byte	0
 8173 0f4b 00000000 		.4byte	0
 8174              	.LLST64:
 8175 0f4f 54000000 		.4byte	.LVL298
 8176 0f53 5A000000 		.4byte	.LVL300
 8177 0f57 0100     		.2byte	0x1
 8178 0f59 50       		.byte	0x50
 8179 0f5a 5A000000 		.4byte	.LVL300
 8180 0f5e 5C000000 		.4byte	.LVL301
 8181 0f62 0400     		.2byte	0x4
 8182 0f64 F3       		.byte	0xf3
 8183 0f65 01       		.uleb128 0x1
 8184 0f66 50       		.byte	0x50
 8185 0f67 9F       		.byte	0x9f
 8186 0f68 00000000 		.4byte	0
 8187 0f6c 00000000 		.4byte	0
 8188              	.LLST65:
 8189 0f70 00000000 		.4byte	.LVL306
 8190 0f74 0B000000 		.4byte	.LVL308-1
 8191 0f78 0100     		.2byte	0x1
 8192 0f7a 50       		.byte	0x50
 8193 0f7b 0B000000 		.4byte	.LVL308-1
 8194 0f7f 2C000000 		.4byte	.LVL312
 8195 0f83 0400     		.2byte	0x4
 8196 0f85 F3       		.byte	0xf3
 8197 0f86 01       		.uleb128 0x1
 8198 0f87 50       		.byte	0x50
 8199 0f88 9F       		.byte	0x9f
 8200 0f89 2C000000 		.4byte	.LVL312
 8201 0f8d 33000000 		.4byte	.LVL314-1
 8202 0f91 0100     		.2byte	0x1
 8203 0f93 50       		.byte	0x50
 8204 0f94 33000000 		.4byte	.LVL314-1
 8205 0f98 54000000 		.4byte	.LVL318
 8206 0f9c 0400     		.2byte	0x4
 8207 0f9e F3       		.byte	0xf3
 8208 0f9f 01       		.uleb128 0x1
 8209 0fa0 50       		.byte	0x50
 8210 0fa1 9F       		.byte	0x9f
 8211 0fa2 54000000 		.4byte	.LVL318
 8212 0fa6 5D000000 		.4byte	.LVL320-1
ARM GAS  C:\Users\Phuong\AppData\Local\Temp\cc32RpHN.s 			page 161


 8213 0faa 0100     		.2byte	0x1
 8214 0fac 50       		.byte	0x50
 8215 0fad 5D000000 		.4byte	.LVL320-1
 8216 0fb1 7C000000 		.4byte	.LVL324
 8217 0fb5 0400     		.2byte	0x4
 8218 0fb7 F3       		.byte	0xf3
 8219 0fb8 01       		.uleb128 0x1
 8220 0fb9 50       		.byte	0x50
 8221 0fba 9F       		.byte	0x9f
 8222 0fbb 7C000000 		.4byte	.LVL324
 8223 0fbf 80000000 		.4byte	.LVL326
 8224 0fc3 0100     		.2byte	0x1
 8225 0fc5 50       		.byte	0x50
 8226 0fc6 80000000 		.4byte	.LVL326
 8227 0fca B0000000 		.4byte	.LFE16
 8228 0fce 0400     		.2byte	0x4
 8229 0fd0 F3       		.byte	0xf3
 8230 0fd1 01       		.uleb128 0x1
 8231 0fd2 50       		.byte	0x50
 8232 0fd3 9F       		.byte	0x9f
 8233 0fd4 00000000 		.4byte	0
 8234 0fd8 00000000 		.4byte	0
 8235              	.LLST66:
 8236 0fdc 00000000 		.4byte	.LVL306
 8237 0fe0 0B000000 		.4byte	.LVL308-1
 8238 0fe4 0100     		.2byte	0x1
 8239 0fe6 51       		.byte	0x51
 8240 0fe7 0B000000 		.4byte	.LVL308-1
 8241 0feb 2C000000 		.4byte	.LVL312
 8242 0fef 0400     		.2byte	0x4
 8243 0ff1 F3       		.byte	0xf3
 8244 0ff2 01       		.uleb128 0x1
 8245 0ff3 51       		.byte	0x51
 8246 0ff4 9F       		.byte	0x9f
 8247 0ff5 2C000000 		.4byte	.LVL312
 8248 0ff9 33000000 		.4byte	.LVL314-1
 8249 0ffd 0100     		.2byte	0x1
 8250 0fff 51       		.byte	0x51
 8251 1000 33000000 		.4byte	.LVL314-1
 8252 1004 54000000 		.4byte	.LVL318
 8253 1008 0400     		.2byte	0x4
 8254 100a F3       		.byte	0xf3
 8255 100b 01       		.uleb128 0x1
 8256 100c 51       		.byte	0x51
 8257 100d 9F       		.byte	0x9f
 8258 100e 54000000 		.4byte	.LVL318
 8259 1012 5D000000 		.4byte	.LVL320-1
 8260 1016 0100     		.2byte	0x1
 8261 1018 51       		.byte	0x51
 8262 1019 5D000000 		.4byte	.LVL320-1
 8263 101d 7C000000 		.4byte	.LVL324
 8264 1021 0400     		.2byte	0x4
 8265 1023 F3       		.byte	0xf3
 8266 1024 01       		.uleb128 0x1
 8267 1025 51       		.byte	0x51
 8268 1026 9F       		.byte	0x9f
 8269 1027 7C000000 		.4byte	.LVL324
ARM GAS  C:\Users\Phuong\AppData\Local\Temp\cc32RpHN.s 			page 162


 8270 102b 82000000 		.4byte	.LVL327
 8271 102f 0100     		.2byte	0x1
 8272 1031 51       		.byte	0x51
 8273 1032 82000000 		.4byte	.LVL327
 8274 1036 B0000000 		.4byte	.LFE16
 8275 103a 0400     		.2byte	0x4
 8276 103c F3       		.byte	0xf3
 8277 103d 01       		.uleb128 0x1
 8278 103e 51       		.byte	0x51
 8279 103f 9F       		.byte	0x9f
 8280 1040 00000000 		.4byte	0
 8281 1044 00000000 		.4byte	0
 8282              	.LLST67:
 8283 1048 08000000 		.4byte	.LVL307
 8284 104c 2C000000 		.4byte	.LVL312
 8285 1050 0400     		.2byte	0x4
 8286 1052 0A       		.byte	0xa
 8287 1053 F001     		.2byte	0x1f0
 8288 1055 9F       		.byte	0x9f
 8289 1056 30000000 		.4byte	.LVL313
 8290 105a 54000000 		.4byte	.LVL318
 8291 105e 0400     		.2byte	0x4
 8292 1060 0A       		.byte	0xa
 8293 1061 F601     		.2byte	0x1f6
 8294 1063 9F       		.byte	0x9f
 8295 1064 5A000000 		.4byte	.LVL319
 8296 1068 7C000000 		.4byte	.LVL324
 8297 106c 0400     		.2byte	0x4
 8298 106e 0A       		.byte	0xa
 8299 106f 0002     		.2byte	0x200
 8300 1071 9F       		.byte	0x9f
 8301 1072 7E000000 		.4byte	.LVL325
 8302 1076 82000000 		.4byte	.LVL327
 8303 107a 0200     		.2byte	0x2
 8304 107c 30       		.byte	0x30
 8305 107d 9F       		.byte	0x9f
 8306 107e 82000000 		.4byte	.LVL327
 8307 1082 88000000 		.4byte	.LVL329
 8308 1086 0400     		.2byte	0x4
 8309 1088 0A       		.byte	0xa
 8310 1089 F001     		.2byte	0x1f0
 8311 108b 9F       		.byte	0x9f
 8312 108c 88000000 		.4byte	.LVL329
 8313 1090 8E000000 		.4byte	.LVL331
 8314 1094 0400     		.2byte	0x4
 8315 1096 0A       		.byte	0xa
 8316 1097 F601     		.2byte	0x1f6
 8317 1099 9F       		.byte	0x9f
 8318 109a 8E000000 		.4byte	.LVL331
 8319 109e 92000000 		.4byte	.LVL333
 8320 10a2 0400     		.2byte	0x4
 8321 10a4 0A       		.byte	0xa
 8322 10a5 0002     		.2byte	0x200
 8323 10a7 9F       		.byte	0x9f
 8324 10a8 92000000 		.4byte	.LVL333
 8325 10ac B0000000 		.4byte	.LFE16
 8326 10b0 0100     		.2byte	0x1
ARM GAS  C:\Users\Phuong\AppData\Local\Temp\cc32RpHN.s 			page 163


 8327 10b2 50       		.byte	0x50
 8328 10b3 00000000 		.4byte	0
 8329 10b7 00000000 		.4byte	0
 8330              	.LLST68:
 8331 10bb 0E000000 		.4byte	.LVL309
 8332 10bf 24000000 		.4byte	.LVL310
 8333 10c3 0100     		.2byte	0x1
 8334 10c5 50       		.byte	0x50
 8335 10c6 24000000 		.4byte	.LVL310
 8336 10ca 2C000000 		.4byte	.LVL312
 8337 10ce 0100     		.2byte	0x1
 8338 10d0 54       		.byte	0x54
 8339 10d1 82000000 		.4byte	.LVL327
 8340 10d5 84000000 		.4byte	.LVL328
 8341 10d9 0100     		.2byte	0x1
 8342 10db 50       		.byte	0x50
 8343 10dc 84000000 		.4byte	.LVL328
 8344 10e0 88000000 		.4byte	.LVL329
 8345 10e4 0100     		.2byte	0x1
 8346 10e6 54       		.byte	0x54
 8347 10e7 00000000 		.4byte	0
 8348 10eb 00000000 		.4byte	0
 8349              	.LLST69:
 8350 10ef 36000000 		.4byte	.LVL315
 8351 10f3 4C000000 		.4byte	.LVL316
 8352 10f7 0100     		.2byte	0x1
 8353 10f9 50       		.byte	0x50
 8354 10fa 4C000000 		.4byte	.LVL316
 8355 10fe 54000000 		.4byte	.LVL318
 8356 1102 0100     		.2byte	0x1
 8357 1104 54       		.byte	0x54
 8358 1105 88000000 		.4byte	.LVL329
 8359 1109 8A000000 		.4byte	.LVL330
 8360 110d 0100     		.2byte	0x1
 8361 110f 50       		.byte	0x50
 8362 1110 8A000000 		.4byte	.LVL330
 8363 1114 8E000000 		.4byte	.LVL331
 8364 1118 0100     		.2byte	0x1
 8365 111a 54       		.byte	0x54
 8366 111b 00000000 		.4byte	0
 8367 111f 00000000 		.4byte	0
 8368              	.LLST70:
 8369 1123 54000000 		.4byte	.LVL318
 8370 1127 5D000000 		.4byte	.LVL320-1
 8371 112b 0100     		.2byte	0x1
 8372 112d 50       		.byte	0x50
 8373 112e 5D000000 		.4byte	.LVL320-1
 8374 1132 7C000000 		.4byte	.LVL324
 8375 1136 0400     		.2byte	0x4
 8376 1138 F3       		.byte	0xf3
 8377 1139 01       		.uleb128 0x1
 8378 113a 50       		.byte	0x50
 8379 113b 9F       		.byte	0x9f
 8380 113c 7C000000 		.4byte	.LVL324
 8381 1140 80000000 		.4byte	.LVL326
 8382 1144 0100     		.2byte	0x1
 8383 1146 50       		.byte	0x50
ARM GAS  C:\Users\Phuong\AppData\Local\Temp\cc32RpHN.s 			page 164


 8384 1147 80000000 		.4byte	.LVL326
 8385 114b 82000000 		.4byte	.LVL327
 8386 114f 0400     		.2byte	0x4
 8387 1151 F3       		.byte	0xf3
 8388 1152 01       		.uleb128 0x1
 8389 1153 50       		.byte	0x50
 8390 1154 9F       		.byte	0x9f
 8391 1155 8E000000 		.4byte	.LVL331
 8392 1159 92000000 		.4byte	.LVL333
 8393 115d 0400     		.2byte	0x4
 8394 115f F3       		.byte	0xf3
 8395 1160 01       		.uleb128 0x1
 8396 1161 50       		.byte	0x50
 8397 1162 9F       		.byte	0x9f
 8398 1163 00000000 		.4byte	0
 8399 1167 00000000 		.4byte	0
 8400              	.LLST71:
 8401 116b 60000000 		.4byte	.LVL321
 8402 116f 74000000 		.4byte	.LVL322
 8403 1173 0100     		.2byte	0x1
 8404 1175 50       		.byte	0x50
 8405 1176 74000000 		.4byte	.LVL322
 8406 117a 7C000000 		.4byte	.LVL324
 8407 117e 0100     		.2byte	0x1
 8408 1180 54       		.byte	0x54
 8409 1181 8E000000 		.4byte	.LVL331
 8410 1185 90000000 		.4byte	.LVL332
 8411 1189 0100     		.2byte	0x1
 8412 118b 50       		.byte	0x50
 8413 118c 90000000 		.4byte	.LVL332
 8414 1190 92000000 		.4byte	.LVL333
 8415 1194 0100     		.2byte	0x1
 8416 1196 54       		.byte	0x54
 8417 1197 00000000 		.4byte	0
 8418 119b 00000000 		.4byte	0
 8419              	.LLST72:
 8420 119f 00000000 		.4byte	.LVL334
 8421 11a3 0B000000 		.4byte	.LVL336-1
 8422 11a7 0100     		.2byte	0x1
 8423 11a9 50       		.byte	0x50
 8424 11aa 0B000000 		.4byte	.LVL336-1
 8425 11ae 0E000000 		.4byte	.LVL337
 8426 11b2 0100     		.2byte	0x1
 8427 11b4 54       		.byte	0x54
 8428 11b5 0E000000 		.4byte	.LVL337
 8429 11b9 2A000000 		.4byte	.LVL340
 8430 11bd 0400     		.2byte	0x4
 8431 11bf F3       		.byte	0xf3
 8432 11c0 01       		.uleb128 0x1
 8433 11c1 50       		.byte	0x50
 8434 11c2 9F       		.byte	0x9f
 8435 11c3 2A000000 		.4byte	.LVL340
 8436 11c7 2E000000 		.4byte	.LVL341
 8437 11cb 0100     		.2byte	0x1
 8438 11cd 50       		.byte	0x50
 8439 11ce 2E000000 		.4byte	.LVL341
 8440 11d2 46000000 		.4byte	.LVL346
ARM GAS  C:\Users\Phuong\AppData\Local\Temp\cc32RpHN.s 			page 165


 8441 11d6 0100     		.2byte	0x1
 8442 11d8 54       		.byte	0x54
 8443 11d9 46000000 		.4byte	.LVL346
 8444 11dd 60000000 		.4byte	.LVL349
 8445 11e1 0400     		.2byte	0x4
 8446 11e3 F3       		.byte	0xf3
 8447 11e4 01       		.uleb128 0x1
 8448 11e5 50       		.byte	0x50
 8449 11e6 9F       		.byte	0x9f
 8450 11e7 60000000 		.4byte	.LVL349
 8451 11eb 6C000000 		.4byte	.LVL351
 8452 11ef 0100     		.2byte	0x1
 8453 11f1 54       		.byte	0x54
 8454 11f2 6C000000 		.4byte	.LVL351
 8455 11f6 98000000 		.4byte	.LFE17
 8456 11fa 0400     		.2byte	0x4
 8457 11fc F3       		.byte	0xf3
 8458 11fd 01       		.uleb128 0x1
 8459 11fe 50       		.byte	0x50
 8460 11ff 9F       		.byte	0x9f
 8461 1200 00000000 		.4byte	0
 8462 1204 00000000 		.4byte	0
 8463              	.LLST73:
 8464 1208 00000000 		.4byte	.LVL334
 8465 120c 0B000000 		.4byte	.LVL336-1
 8466 1210 0100     		.2byte	0x1
 8467 1212 51       		.byte	0x51
 8468 1213 0B000000 		.4byte	.LVL336-1
 8469 1217 2A000000 		.4byte	.LVL340
 8470 121b 0400     		.2byte	0x4
 8471 121d F3       		.byte	0xf3
 8472 121e 01       		.uleb128 0x1
 8473 121f 51       		.byte	0x51
 8474 1220 9F       		.byte	0x9f
 8475 1221 2A000000 		.4byte	.LVL340
 8476 1225 38000000 		.4byte	.LVL342
 8477 1229 0100     		.2byte	0x1
 8478 122b 51       		.byte	0x51
 8479 122c 38000000 		.4byte	.LVL342
 8480 1230 3B000000 		.4byte	.LVL343-1
 8481 1234 0200     		.2byte	0x2
 8482 1236 74       		.byte	0x74
 8483 1237 1E       		.sleb128 30
 8484 1238 3B000000 		.4byte	.LVL343-1
 8485 123c 98000000 		.4byte	.LFE17
 8486 1240 0400     		.2byte	0x4
 8487 1242 F3       		.byte	0xf3
 8488 1243 01       		.uleb128 0x1
 8489 1244 51       		.byte	0x51
 8490 1245 9F       		.byte	0x9f
 8491 1246 00000000 		.4byte	0
 8492 124a 00000000 		.4byte	0
 8493              	.LLST74:
 8494 124e 08000000 		.4byte	.LVL335
 8495 1252 2A000000 		.4byte	.LVL340
 8496 1256 0400     		.2byte	0x4
 8497 1258 0A       		.byte	0xa
ARM GAS  C:\Users\Phuong\AppData\Local\Temp\cc32RpHN.s 			page 166


 8498 1259 1702     		.2byte	0x217
 8499 125b 9F       		.byte	0x9f
 8500 125c 40000000 		.4byte	.LVL344
 8501 1260 60000000 		.4byte	.LVL349
 8502 1264 0400     		.2byte	0x4
 8503 1266 0A       		.byte	0xa
 8504 1267 2602     		.2byte	0x226
 8505 1269 9F       		.byte	0x9f
 8506 126a 68000000 		.4byte	.LVL350
 8507 126e 6C000000 		.4byte	.LVL351
 8508 1272 0200     		.2byte	0x2
 8509 1274 30       		.byte	0x30
 8510 1275 9F       		.byte	0x9f
 8511 1276 6C000000 		.4byte	.LVL351
 8512 127a 70000000 		.4byte	.LVL353
 8513 127e 0400     		.2byte	0x4
 8514 1280 0A       		.byte	0xa
 8515 1281 1702     		.2byte	0x217
 8516 1283 9F       		.byte	0x9f
 8517 1284 70000000 		.4byte	.LVL353
 8518 1288 72000000 		.4byte	.LVL354
 8519 128c 0400     		.2byte	0x4
 8520 128e 0A       		.byte	0xa
 8521 128f 2602     		.2byte	0x226
 8522 1291 9F       		.byte	0x9f
 8523 1292 72000000 		.4byte	.LVL354
 8524 1296 98000000 		.4byte	.LFE17
 8525 129a 0100     		.2byte	0x1
 8526 129c 50       		.byte	0x50
 8527 129d 00000000 		.4byte	0
 8528 12a1 00000000 		.4byte	0
 8529              	.LLST75:
 8530 12a5 0E000000 		.4byte	.LVL337
 8531 12a9 24000000 		.4byte	.LVL338
 8532 12ad 0100     		.2byte	0x1
 8533 12af 50       		.byte	0x50
 8534 12b0 24000000 		.4byte	.LVL338
 8535 12b4 2A000000 		.4byte	.LVL340
 8536 12b8 0100     		.2byte	0x1
 8537 12ba 54       		.byte	0x54
 8538 12bb 6C000000 		.4byte	.LVL351
 8539 12bf 6E000000 		.4byte	.LVL352
 8540 12c3 0100     		.2byte	0x1
 8541 12c5 50       		.byte	0x50
 8542 12c6 6E000000 		.4byte	.LVL352
 8543 12ca 70000000 		.4byte	.LVL353
 8544 12ce 0100     		.2byte	0x1
 8545 12d0 54       		.byte	0x54
 8546 12d1 00000000 		.4byte	0
 8547 12d5 00000000 		.4byte	0
 8548              	.LLST76:
 8549 12d9 2A000000 		.4byte	.LVL340
 8550 12dd 2E000000 		.4byte	.LVL341
 8551 12e1 0100     		.2byte	0x1
 8552 12e3 50       		.byte	0x50
 8553 12e4 2E000000 		.4byte	.LVL341
 8554 12e8 46000000 		.4byte	.LVL346
ARM GAS  C:\Users\Phuong\AppData\Local\Temp\cc32RpHN.s 			page 167


 8555 12ec 0100     		.2byte	0x1
 8556 12ee 54       		.byte	0x54
 8557 12ef 46000000 		.4byte	.LVL346
 8558 12f3 60000000 		.4byte	.LVL349
 8559 12f7 0400     		.2byte	0x4
 8560 12f9 F3       		.byte	0xf3
 8561 12fa 01       		.uleb128 0x1
 8562 12fb 50       		.byte	0x50
 8563 12fc 9F       		.byte	0x9f
 8564 12fd 60000000 		.4byte	.LVL349
 8565 1301 6C000000 		.4byte	.LVL351
 8566 1305 0100     		.2byte	0x1
 8567 1307 54       		.byte	0x54
 8568 1308 70000000 		.4byte	.LVL353
 8569 130c 72000000 		.4byte	.LVL354
 8570 1310 0400     		.2byte	0x4
 8571 1312 F3       		.byte	0xf3
 8572 1313 01       		.uleb128 0x1
 8573 1314 50       		.byte	0x50
 8574 1315 9F       		.byte	0x9f
 8575 1316 00000000 		.4byte	0
 8576 131a 00000000 		.4byte	0
 8577              	.LLST77:
 8578 131e 46000000 		.4byte	.LVL346
 8579 1322 5A000000 		.4byte	.LVL347
 8580 1326 0100     		.2byte	0x1
 8581 1328 50       		.byte	0x50
 8582 1329 5A000000 		.4byte	.LVL347
 8583 132d 60000000 		.4byte	.LVL349
 8584 1331 0100     		.2byte	0x1
 8585 1333 54       		.byte	0x54
 8586 1334 70000000 		.4byte	.LVL353
 8587 1338 72000000 		.4byte	.LVL354
 8588 133c 0100     		.2byte	0x1
 8589 133e 50       		.byte	0x50
 8590 133f 00000000 		.4byte	0
 8591 1343 00000000 		.4byte	0
 8592              		.section	.debug_aranges,"",%progbits
 8593 0000 9C000000 		.4byte	0x9c
 8594 0004 0200     		.2byte	0x2
 8595 0006 00000000 		.4byte	.Ldebug_info0
 8596 000a 04       		.byte	0x4
 8597 000b 00       		.byte	0
 8598 000c 0000     		.2byte	0
 8599 000e 0000     		.2byte	0
 8600 0010 00000000 		.4byte	.LFB4
 8601 0014 18000000 		.4byte	.LFE4-.LFB4
 8602 0018 00000000 		.4byte	.LFB5
 8603 001c 0A000000 		.4byte	.LFE5-.LFB5
 8604 0020 00000000 		.4byte	.LFB6
 8605 0024 42000000 		.4byte	.LFE6-.LFB6
 8606 0028 00000000 		.4byte	.LFB8
 8607 002c 30000000 		.4byte	.LFE8-.LFB8
 8608 0030 00000000 		.4byte	.LFB7
 8609 0034 34000000 		.4byte	.LFE7-.LFB7
 8610 0038 00000000 		.4byte	.LFB3
 8611 003c D0000000 		.4byte	.LFE3-.LFB3
ARM GAS  C:\Users\Phuong\AppData\Local\Temp\cc32RpHN.s 			page 168


 8612 0040 00000000 		.4byte	.LFB9
 8613 0044 64010000 		.4byte	.LFE9-.LFB9
 8614 0048 00000000 		.4byte	.LFB10
 8615 004c AC000000 		.4byte	.LFE10-.LFB10
 8616 0050 00000000 		.4byte	.LFB11
 8617 0054 94000000 		.4byte	.LFE11-.LFB11
 8618 0058 00000000 		.4byte	.LFB1
 8619 005c 14000000 		.4byte	.LFE1-.LFB1
 8620 0060 00000000 		.4byte	.LFB2
 8621 0064 3C000000 		.4byte	.LFE2-.LFB2
 8622 0068 00000000 		.4byte	.LFB12
 8623 006c 4A000000 		.4byte	.LFE12-.LFB12
 8624 0070 00000000 		.4byte	.LFB13
 8625 0074 5C020000 		.4byte	.LFE13-.LFB13
 8626 0078 00000000 		.4byte	.LFB14
 8627 007c 0E000000 		.4byte	.LFE14-.LFB14
 8628 0080 00000000 		.4byte	.LFB15
 8629 0084 7C000000 		.4byte	.LFE15-.LFB15
 8630 0088 00000000 		.4byte	.LFB16
 8631 008c B0000000 		.4byte	.LFE16-.LFB16
 8632 0090 00000000 		.4byte	.LFB17
 8633 0094 98000000 		.4byte	.LFE17-.LFB17
 8634 0098 00000000 		.4byte	0
 8635 009c 00000000 		.4byte	0
 8636              		.section	.debug_ranges,"",%progbits
 8637              	.Ldebug_ranges0:
 8638 0000 80000000 		.4byte	.LBB24
 8639 0004 18020000 		.4byte	.LBE24
 8640 0008 24020000 		.4byte	.LBB32
 8641 000c 26020000 		.4byte	.LBE32
 8642 0010 00000000 		.4byte	0
 8643 0014 00000000 		.4byte	0
 8644 0018 54000000 		.4byte	.LBB39
 8645 001c 82000000 		.4byte	.LBE39
 8646 0020 8E000000 		.4byte	.LBB41
 8647 0024 92000000 		.4byte	.LBE41
 8648 0028 00000000 		.4byte	0
 8649 002c 00000000 		.4byte	0
 8650 0030 2A000000 		.4byte	.LBB43
 8651 0034 6C000000 		.4byte	.LBE43
 8652 0038 70000000 		.4byte	.LBB45
 8653 003c 72000000 		.4byte	.LBE45
 8654 0040 00000000 		.4byte	0
 8655 0044 00000000 		.4byte	0
 8656 0048 00000000 		.4byte	.LFB4
 8657 004c 18000000 		.4byte	.LFE4
 8658 0050 00000000 		.4byte	.LFB5
 8659 0054 0A000000 		.4byte	.LFE5
 8660 0058 00000000 		.4byte	.LFB6
 8661 005c 42000000 		.4byte	.LFE6
 8662 0060 00000000 		.4byte	.LFB8
 8663 0064 30000000 		.4byte	.LFE8
 8664 0068 00000000 		.4byte	.LFB7
 8665 006c 34000000 		.4byte	.LFE7
 8666 0070 00000000 		.4byte	.LFB3
 8667 0074 D0000000 		.4byte	.LFE3
 8668 0078 00000000 		.4byte	.LFB9
ARM GAS  C:\Users\Phuong\AppData\Local\Temp\cc32RpHN.s 			page 169


 8669 007c 64010000 		.4byte	.LFE9
 8670 0080 00000000 		.4byte	.LFB10
 8671 0084 AC000000 		.4byte	.LFE10
 8672 0088 00000000 		.4byte	.LFB11
 8673 008c 94000000 		.4byte	.LFE11
 8674 0090 00000000 		.4byte	.LFB1
 8675 0094 14000000 		.4byte	.LFE1
 8676 0098 00000000 		.4byte	.LFB2
 8677 009c 3C000000 		.4byte	.LFE2
 8678 00a0 00000000 		.4byte	.LFB12
 8679 00a4 4A000000 		.4byte	.LFE12
 8680 00a8 00000000 		.4byte	.LFB13
 8681 00ac 5C020000 		.4byte	.LFE13
 8682 00b0 00000000 		.4byte	.LFB14
 8683 00b4 0E000000 		.4byte	.LFE14
 8684 00b8 00000000 		.4byte	.LFB15
 8685 00bc 7C000000 		.4byte	.LFE15
 8686 00c0 00000000 		.4byte	.LFB16
 8687 00c4 B0000000 		.4byte	.LFE16
 8688 00c8 00000000 		.4byte	.LFB17
 8689 00cc 98000000 		.4byte	.LFE17
 8690 00d0 00000000 		.4byte	0
 8691 00d4 00000000 		.4byte	0
 8692              		.section	.debug_line,"",%progbits
 8693              	.Ldebug_line0:
 8694 0000 86070000 		.section	.debug_str,"MS",%progbits,1
 8694      0200C303 
 8694      00000201 
 8694      FB0E0D00 
 8694      01010101 
 8695              	.LASF18:
 8696 0000 58494F5F 		.ascii	"XIO_INSTANCE_TAG\000"
 8696      494E5354 
 8696      414E4345 
 8696      5F544147 
 8696      00
 8697              	.LASF86:
 8698 0011 6362735F 		.ascii	"cbs_handle\000"
 8698      68616E64 
 8698      6C6500
 8699              	.LASF36:
 8700 001c 53455353 		.ascii	"SESSION_HANDLE\000"
 8700      494F4E5F 
 8700      48414E44 
 8700      4C4500
 8701              	.LASF126:
 8702 002b 616D7170 		.ascii	"amqp_connection_set_logging\000"
 8702      5F636F6E 
 8702      6E656374 
 8702      696F6E5F 
 8702      7365745F 
 8703              	.LASF30:
 8704 0047 434F4E4E 		.ascii	"CONNECTION_STATE_CLOSE_RCVD\000"
 8704      45435449 
 8704      4F4E5F53 
 8704      54415445 
 8704      5F434C4F 
ARM GAS  C:\Users\Phuong\AppData\Local\Temp\cc32RpHN.s 			page 170


 8705              	.LASF111:
 8706 0063 636F6E6E 		.ascii	"connection_io_transport\000"
 8706      65637469 
 8706      6F6E5F69 
 8706      6F5F7472 
 8706      616E7370 
 8707              	.LASF29:
 8708 007b 434F4E4E 		.ascii	"CONNECTION_STATE_OPENED\000"
 8708      45435449 
 8708      4F4E5F53 
 8708      54415445 
 8708      5F4F5045 
 8709              	.LASF134:
 8710 0093 7361736C 		.ascii	"saslmechanism_create\000"
 8710      6D656368 
 8710      616E6973 
 8710      6D5F6372 
 8710      65617465 
 8711              	.LASF0:
 8712 00a8 756E7369 		.ascii	"unsigned int\000"
 8712      676E6564 
 8712      20696E74 
 8712      00
 8713              	.LASF75:
 8714 00b5 756E6465 		.ascii	"underlying_io\000"
 8714      726C7969 
 8714      6E675F69 
 8714      6F00
 8715              	.LASF113:
 8716 00c3 63726561 		.ascii	"create_cbs_handle\000"
 8716      74655F63 
 8716      62735F68 
 8716      616E646C 
 8716      6500
 8717              	.LASF33:
 8718 00d5 434F4E4E 		.ascii	"CONNECTION_STATE_END\000"
 8718      45435449 
 8718      4F4E5F53 
 8718      54415445 
 8718      5F454E44 
 8719              	.LASF101:
 8720 00ea 70726576 		.ascii	"previous_state\000"
 8720      696F7573 
 8720      5F737461 
 8720      746500
 8721              	.LASF100:
 8722 00f9 70726576 		.ascii	"previous_connection_state\000"
 8722      696F7573 
 8722      5F636F6E 
 8722      6E656374 
 8722      696F6E5F 
 8723              	.LASF42:
 8724 0113 4342535F 		.ascii	"CBS_OPEN_CANCELLED\000"
 8724      4F50454E 
 8724      5F43414E 
 8724      43454C4C 
 8724      454400
ARM GAS  C:\Users\Phuong\AppData\Local\Temp\cc32RpHN.s 			page 171


 8725              	.LASF49:
 8726 0126 414D5150 		.ascii	"AMQP_CONNECTION_STATE_ERROR\000"
 8726      5F434F4E 
 8726      4E454354 
 8726      494F4E5F 
 8726      53544154 
 8727              	.LASF50:
 8728 0142 414D5150 		.ascii	"AMQP_CONNECTION_STATE\000"
 8728      5F434F4E 
 8728      4E454354 
 8728      494F4E5F 
 8728      53544154 
 8729              	.LASF136:
 8730 0158 556E6971 		.ascii	"UniqueId_Generate\000"
 8730      75654964 
 8730      5F47656E 
 8730      65726174 
 8730      6500
 8731              	.LASF94:
 8732 016a 6E65775F 		.ascii	"new_state\000"
 8732      73746174 
 8732      6500
 8733              	.LASF55:
 8734 0174 63726561 		.ascii	"create_cbs_connection\000"
 8734      74655F63 
 8734      62735F63 
 8734      6F6E6E65 
 8734      6374696F 
 8735              	.LASF48:
 8736 018a 414D5150 		.ascii	"AMQP_CONNECTION_STATE_CLOSED\000"
 8736      5F434F4E 
 8736      4E454354 
 8736      494F4E5F 
 8736      53544154 
 8737              	.LASF144:
 8738 01a7 73657373 		.ascii	"session_set_incoming_window\000"
 8738      696F6E5F 
 8738      7365745F 
 8738      696E636F 
 8738      6D696E67 
 8739              	.LASF44:
 8740 01c3 4342535F 		.ascii	"CBS_HANDLE\000"
 8740      48414E44 
 8740      4C4500
 8741              	.LASF127:
 8742 01ce 786C6F67 		.ascii	"xlogging_get_log_function\000"
 8742      67696E67 
 8742      5F676574 
 8742      5F6C6F67 
 8742      5F66756E 
 8743              	.LASF22:
 8744 01e8 434F4E4E 		.ascii	"CONNECTION_STATE_HDR_SENT\000"
 8744      45435449 
 8744      4F4E5F53 
 8744      54415445 
 8744      5F484452 
 8745              	.LASF38:
ARM GAS  C:\Users\Phuong\AppData\Local\Temp\cc32RpHN.s 			page 172


 8746 0202 434F4E4E 		.ascii	"CONNECTION_STATE_TAG\000"
 8746      45435449 
 8746      4F4E5F53 
 8746      54415445 
 8746      5F544147 
 8747              	.LASF15:
 8748 0217 75696E74 		.ascii	"uint32_t\000"
 8748      33325F74 
 8748      00
 8749              	.LASF123:
 8750 0220 616D7170 		.ascii	"amqp_connection_do_work\000"
 8750      5F636F6E 
 8750      6E656374 
 8750      696F6E5F 
 8750      646F5F77 
 8751              	.LASF125:
 8752 0238 616D7170 		.ascii	"amqp_connection_get_cbs_handle\000"
 8752      5F636F6E 
 8752      6E656374 
 8752      696F6E5F 
 8752      6765745F 
 8753              	.LASF65:
 8754 0257 53545249 		.ascii	"STRING_HANDLE\000"
 8754      4E475F48 
 8754      414E444C 
 8754      4500
 8755              	.LASF52:
 8756 0265 696F7468 		.ascii	"iothub_host_fqdn\000"
 8756      75625F68 
 8756      6F73745F 
 8756      6671646E 
 8756      00
 8757              	.LASF131:
 8758 0276 78696F5F 		.ascii	"xio_setoption\000"
 8758      7365746F 
 8758      7074696F 
 8758      6E00
 8759              	.LASF155:
 8760 0284 474E5520 		.ascii	"GNU C11 5.4.1 20160609 (release) [ARM/embedded-5-br"
 8760      43313120 
 8760      352E342E 
 8760      31203230 
 8760      31363036 
 8761 02b7 616E6368 		.ascii	"anch revision 237715] -mcpu=cortex-m0plus -mthumb -"
 8761      20726576 
 8761      6973696F 
 8761      6E203233 
 8761      37373135 
 8762 02ea 67202D4F 		.ascii	"g -Og -ffunction-sections -ffat-lto-objects\000"
 8762      67202D66 
 8762      66756E63 
 8762      74696F6E 
 8762      2D736563 
 8763              	.LASF135:
 8764 0316 6D616C6C 		.ascii	"malloc\000"
 8764      6F6300
 8765              	.LASF37:
ARM GAS  C:\Users\Phuong\AppData\Local\Temp\cc32RpHN.s 			page 173


 8766 031d 53455353 		.ascii	"SESSION_INSTANCE_TAG\000"
 8766      494F4E5F 
 8766      494E5354 
 8766      414E4345 
 8766      5F544147 
 8767              	.LASF150:
 8768 0332 73657373 		.ascii	"session_destroy\000"
 8768      696F6E5F 
 8768      64657374 
 8768      726F7900 
 8769              	.LASF106:
 8770 0342 72657375 		.ascii	"result\000"
 8770      6C7400
 8771              	.LASF137:
 8772 0349 53545249 		.ascii	"STRING_c_str\000"
 8772      4E475F63 
 8772      5F737472 
 8772      00
 8773              	.LASF11:
 8774 0356 6C6F6E67 		.ascii	"long long unsigned int\000"
 8774      206C6F6E 
 8774      6720756E 
 8774      7369676E 
 8774      65642069 
 8775              	.LASF54:
 8776 036d 63726561 		.ascii	"create_sasl_io\000"
 8776      74655F73 
 8776      61736C5F 
 8776      696F00
 8777              	.LASF47:
 8778 037c 414D5150 		.ascii	"AMQP_CONNECTION_STATE_OPENED\000"
 8778      5F434F4E 
 8778      4E454354 
 8778      494F4E5F 
 8778      53544154 
 8779              	.LASF146:
 8780 0399 6362735F 		.ascii	"cbs_create\000"
 8780      63726561 
 8780      746500
 8781              	.LASF40:
 8782 03a4 4342535F 		.ascii	"CBS_OPEN_OK\000"
 8782      4F50454E 
 8782      5F4F4B00 
 8783              	.LASF128:
 8784 03b0 7361736C 		.ascii	"saslclientio_get_interface_description\000"
 8784      636C6965 
 8784      6E74696F 
 8784      5F676574 
 8784      5F696E74 
 8785              	.LASF46:
 8786 03d7 414D5150 		.ascii	"AMQP_CONNECTION_STATE_TAG\000"
 8786      5F434F4E 
 8786      4E454354 
 8786      494F4E5F 
 8786      53544154 
 8787              	.LASF93:
 8788 03f1 696E7374 		.ascii	"instance\000"
ARM GAS  C:\Users\Phuong\AppData\Local\Temp\cc32RpHN.s 			page 174


 8788      616E6365 
 8788      00
 8789              	.LASF114:
 8790 03fa 76616C75 		.ascii	"value\000"
 8790      6500
 8791              	.LASF157:
 8792 0400 433A5C55 		.ascii	"C:\\Users\\Phuong\\Documents\\PSoC Creator\\Dec0820"
 8792      73657273 
 8792      5C506875 
 8792      6F6E675C 
 8792      446F6375 
 8793 042e 31385C69 		.ascii	"18\\iot-sdk-iot-dev\\PSOC6_FreeRTOS+LwIP+MbedTLS_Az"
 8793      6F742D73 
 8793      646B2D69 
 8793      6F742D64 
 8793      65765C50 
 8794 045f 7572652D 		.ascii	"ure-IOT-Hub-Demo\\PSOC6_FreeRTOS+LwIP+MbedTLS_Azure"
 8794      494F542D 
 8794      4875622D 
 8794      44656D6F 
 8794      5C50534F 
 8795 0491 2D494F54 		.ascii	"-IOT-Hub-Demo.cydsn\000"
 8795      2D487562 
 8795      2D44656D 
 8795      6F2E6379 
 8795      64736E00 
 8796              	.LASF62:
 8797 04a5 414D5150 		.ascii	"AMQP_CONNECTION_CONFIG\000"
 8797      5F434F4E 
 8797      4E454354 
 8797      494F4E5F 
 8797      434F4E46 
 8798              	.LASF39:
 8799 04bc 4342535F 		.ascii	"CBS_OPEN_COMPLETE_RESULT_TAG\000"
 8799      4F50454E 
 8799      5F434F4D 
 8799      504C4554 
 8799      455F5245 
 8800              	.LASF8:
 8801 04d9 73697A65 		.ascii	"size_t\000"
 8801      5F7400
 8802              	.LASF67:
 8803 04e0 554E4951 		.ascii	"UNIQUEID_RESULT_TAG\000"
 8803      55454944 
 8803      5F524553 
 8803      554C545F 
 8803      54414700 
 8804              	.LASF21:
 8805 04f4 434F4E4E 		.ascii	"CONNECTION_STATE_HDR_RCVD\000"
 8805      45435449 
 8805      4F4E5F53 
 8805      54415445 
 8805      5F484452 
 8806              	.LASF41:
 8807 050e 4342535F 		.ascii	"CBS_OPEN_ERROR\000"
 8807      4F50454E 
 8807      5F455252 
ARM GAS  C:\Users\Phuong\AppData\Local\Temp\cc32RpHN.s 			page 175


 8807      4F5200
 8808              	.LASF16:
 8809 051d 5F426F6F 		.ascii	"_Bool\000"
 8809      6C00
 8810              	.LASF107:
 8811 0523 7361736C 		.ascii	"sasl_client_config\000"
 8811      5F636C69 
 8811      656E745F 
 8811      636F6E66 
 8811      696700
 8812              	.LASF142:
 8813 0536 66726565 		.ascii	"free\000"
 8813      00
 8814              	.LASF95:
 8815 053b 75706461 		.ascii	"update_state\000"
 8815      74655F73 
 8815      74617465 
 8815      00
 8816              	.LASF129:
 8817 0548 78696F5F 		.ascii	"xio_create\000"
 8817      63726561 
 8817      746500
 8818              	.LASF13:
 8819 0553 63686172 		.ascii	"char\000"
 8819      00
 8820              	.LASF56:
 8821 0558 69735F74 		.ascii	"is_trace_on\000"
 8821      72616365 
 8821      5F6F6E00 
 8822              	.LASF35:
 8823 0564 434F4E4E 		.ascii	"CONNECTION_STATE\000"
 8823      45435449 
 8823      4F4E5F53 
 8823      54415445 
 8823      00
 8824              	.LASF102:
 8825 0575 6F6E5F63 		.ascii	"on_cbs_error\000"
 8825      62735F65 
 8825      72726F72 
 8825      00
 8826              	.LASF122:
 8827 0582 616D7170 		.ascii	"amqp_connection_destroy\000"
 8827      5F636F6E 
 8827      6E656374 
 8827      696F6E5F 
 8827      64657374 
 8828              	.LASF80:
 8829 059a 415A5F4C 		.ascii	"AZ_LOG_INFO\000"
 8829      4F475F49 
 8829      4E464F00 
 8830              	.LASF151:
 8831 05a6 636F6E6E 		.ascii	"connection_destroy\000"
 8831      65637469 
 8831      6F6E5F64 
 8831      65737472 
 8831      6F7900
 8832              	.LASF66:
ARM GAS  C:\Users\Phuong\AppData\Local\Temp\cc32RpHN.s 			page 176


 8833 05b9 53545249 		.ascii	"STRING_TAG\000"
 8833      4E475F54 
 8833      414700
 8834              	.LASF58:
 8835 05c4 6F6E5F73 		.ascii	"on_state_changed_context\000"
 8835      74617465 
 8835      5F636861 
 8835      6E676564 
 8835      5F636F6E 
 8836              	.LASF59:
 8837 05dd 73766332 		.ascii	"svc2cl_keep_alive_timeout_secs\000"
 8837      636C5F6B 
 8837      6565705F 
 8837      616C6976 
 8837      655F7469 
 8838              	.LASF158:
 8839 05fc 414D5150 		.ascii	"AMQP_CONNECTION_STATEStringStorage\000"
 8839      5F434F4E 
 8839      4E454354 
 8839      494F4E5F 
 8839      53544154 
 8840              	.LASF1:
 8841 061f 6C6F6E67 		.ascii	"long long int\000"
 8841      206C6F6E 
 8841      6720696E 
 8841      7400
 8842              	.LASF108:
 8843 062d 63726561 		.ascii	"create_sasl_components\000"
 8843      74655F73 
 8843      61736C5F 
 8843      636F6D70 
 8843      6F6E656E 
 8844              	.LASF76:
 8845 0644 7361736C 		.ascii	"sasl_mechanism\000"
 8845      5F6D6563 
 8845      68616E69 
 8845      736D00
 8846              	.LASF45:
 8847 0653 4342535F 		.ascii	"CBS_INSTANCE_TAG\000"
 8847      494E5354 
 8847      414E4345 
 8847      5F544147 
 8847      00
 8848              	.LASF103:
 8849 0664 6F6E5F63 		.ascii	"on_cbs_open_complete\000"
 8849      62735F6F 
 8849      70656E5F 
 8849      636F6D70 
 8849      6C657465 
 8850              	.LASF130:
 8851 0679 7361736C 		.ascii	"saslmechanism_destroy\000"
 8851      6D656368 
 8851      616E6973 
 8851      6D5F6465 
 8851      7374726F 
 8852              	.LASF97:
 8853 068f 636F6E74 		.ascii	"context\000"
ARM GAS  C:\Users\Phuong\AppData\Local\Temp\cc32RpHN.s 			page 177


 8853      65787400 
 8854              	.LASF24:
 8855 0697 434F4E4E 		.ascii	"CONNECTION_STATE_OPEN_PIPE\000"
 8855      45435449 
 8855      4F4E5F53 
 8855      54415445 
 8855      5F4F5045 
 8856              	.LASF60:
 8857 06b2 636C3273 		.ascii	"cl2svc_keep_alive_send_ratio\000"
 8857      76635F6B 
 8857      6565705F 
 8857      616C6976 
 8857      655F7365 
 8858              	.LASF82:
 8859 06cf 4C4F475F 		.ascii	"LOG_CATEGORY\000"
 8859      43415445 
 8859      474F5259 
 8859      00
 8860              	.LASF17:
 8861 06dc 434F4E4E 		.ascii	"CONNECTION_HANDLE\000"
 8861      45435449 
 8861      4F4E5F48 
 8861      414E444C 
 8861      4500
 8862              	.LASF159:
 8863 06ee 6D656D73 		.ascii	"memset\000"
 8863      657400
 8864              	.LASF27:
 8865 06f5 434F4E4E 		.ascii	"CONNECTION_STATE_OPEN_SENT\000"
 8865      45435449 
 8865      4F4E5F53 
 8865      54415445 
 8865      5F4F5045 
 8866              	.LASF71:
 8867 0710 5341534C 		.ascii	"SASL_MECHANISM_HANDLE\000"
 8867      5F4D4543 
 8867      48414E49 
 8867      534D5F48 
 8867      414E444C 
 8868              	.LASF74:
 8869 0726 5341534C 		.ascii	"SASLCLIENTIO_CONFIG_TAG\000"
 8869      434C4945 
 8869      4E54494F 
 8869      5F434F4E 
 8869      4649475F 
 8870              	.LASF63:
 8871 073e 414D5150 		.ascii	"AMQP_CONNECTION_HANDLE\000"
 8871      5F434F4E 
 8871      4E454354 
 8871      494F4E5F 
 8871      48414E44 
 8872              	.LASF99:
 8873 0755 6E65775F 		.ascii	"new_connection_state\000"
 8873      636F6E6E 
 8873      65637469 
 8873      6F6E5F73 
 8873      74617465 
ARM GAS  C:\Users\Phuong\AppData\Local\Temp\cc32RpHN.s 			page 178


 8874              	.LASF73:
 8875 076a 414D5150 		.ascii	"AMQP_CONNECTION_CONFIG_TAG\000"
 8875      5F434F4E 
 8875      4E454354 
 8875      494F4E5F 
 8875      434F4E46 
 8876              	.LASF53:
 8877 0785 756E6465 		.ascii	"underlying_io_transport\000"
 8877      726C7969 
 8877      6E675F69 
 8877      6F5F7472 
 8877      616E7370 
 8878              	.LASF124:
 8879 079d 616D7170 		.ascii	"amqp_connection_get_session_handle\000"
 8879      5F636F6E 
 8879      6E656374 
 8879      696F6E5F 
 8879      6765745F 
 8880              	.LASF132:
 8881 07c0 78696F5F 		.ascii	"xio_destroy\000"
 8881      64657374 
 8881      726F7900 
 8882              	.LASF64:
 8883 07cc 414D5150 		.ascii	"AMQP_CONNECTION_INSTANCE\000"
 8883      5F434F4E 
 8883      4E454354 
 8883      494F4E5F 
 8883      494E5354 
 8884              	.LASF89:
 8885 07e5 7361736C 		.ascii	"sasl_io\000"
 8885      5F696F00 
 8886              	.LASF98:
 8887 07ed 6F6E5F63 		.ascii	"on_connection_state_changed\000"
 8887      6F6E6E65 
 8887      6374696F 
 8887      6E5F7374 
 8887      6174655F 
 8888              	.LASF2:
 8889 0809 6C6F6E67 		.ascii	"long double\000"
 8889      20646F75 
 8889      626C6500 
 8890              	.LASF152:
 8891 0815 53545249 		.ascii	"STRING_delete\000"
 8891      4E475F64 
 8891      656C6574 
 8891      6500
 8892              	.LASF43:
 8893 0823 4342535F 		.ascii	"CBS_OPEN_COMPLETE_RESULT\000"
 8893      4F50454E 
 8893      5F434F4D 
 8893      504C4554 
 8893      455F5245 
 8894              	.LASF79:
 8895 083c 415A5F4C 		.ascii	"AZ_LOG_ERROR\000"
 8895      4F475F45 
 8895      52524F52 
 8895      00
ARM GAS  C:\Users\Phuong\AppData\Local\Temp\cc32RpHN.s 			page 179


 8896              	.LASF19:
 8897 0849 434F4E4E 		.ascii	"CONNECTION_INSTANCE_TAG\000"
 8897      45435449 
 8897      4F4E5F49 
 8897      4E535441 
 8897      4E43455F 
 8898              	.LASF121:
 8899 0861 636F6E66 		.ascii	"config\000"
 8899      696700
 8900              	.LASF5:
 8901 0868 73686F72 		.ascii	"short int\000"
 8901      7420696E 
 8901      7400
 8902              	.LASF7:
 8903 0872 6C6F6E67 		.ascii	"long int\000"
 8903      20696E74 
 8903      00
 8904              	.LASF26:
 8905 087b 434F4E4E 		.ascii	"CONNECTION_STATE_OPEN_RCVD\000"
 8905      45435449 
 8905      4F4E5F53 
 8905      54415445 
 8905      5F4F5045 
 8906              	.LASF120:
 8907 0896 616D7170 		.ascii	"amqp_connection_create\000"
 8907      5F636F6E 
 8907      6E656374 
 8907      696F6E5F 
 8907      63726561 
 8908              	.LASF25:
 8909 08ad 434F4E4E 		.ascii	"CONNECTION_STATE_OC_PIPE\000"
 8909      45435449 
 8909      4F4E5F53 
 8909      54415445 
 8909      5F4F435F 
 8910              	.LASF20:
 8911 08c6 434F4E4E 		.ascii	"CONNECTION_STATE_START\000"
 8911      45435449 
 8911      4F4E5F53 
 8911      54415445 
 8911      5F535441 
 8912              	.LASF90:
 8913 08dd 6861735F 		.ascii	"has_cbs\000"
 8913      63627300 
 8914              	.LASF147:
 8915 08e5 6362735F 		.ascii	"cbs_open_async\000"
 8915      6F70656E 
 8915      5F617379 
 8915      6E6300
 8916              	.LASF138:
 8917 08f4 636F6E6E 		.ascii	"connection_create2\000"
 8917      65637469 
 8917      6F6E5F63 
 8917      72656174 
 8917      653200
 8918              	.LASF91:
 8919 0907 6861735F 		.ascii	"has_sasl_mechanism\000"
ARM GAS  C:\Users\Phuong\AppData\Local\Temp\cc32RpHN.s 			page 180


 8919      7361736C 
 8919      5F6D6563 
 8919      68616E69 
 8919      736D00
 8920              	.LASF32:
 8921 091a 434F4E4E 		.ascii	"CONNECTION_STATE_DISCARDING\000"
 8921      45435449 
 8921      4F4E5F53 
 8921      54415445 
 8921      5F444953 
 8922              	.LASF92:
 8923 0936 63757272 		.ascii	"current_state\000"
 8923      656E745F 
 8923      73746174 
 8923      6500
 8924              	.LASF149:
 8925 0944 6362735F 		.ascii	"cbs_destroy\000"
 8925      64657374 
 8925      726F7900 
 8926              	.LASF85:
 8927 0950 696F7468 		.ascii	"iothub_fqdn\000"
 8927      75625F66 
 8927      71646E00 
 8928              	.LASF112:
 8929 095c 63726561 		.ascii	"create_session_handle\000"
 8929      74655F73 
 8929      65737369 
 8929      6F6E5F68 
 8929      616E646C 
 8930              	.LASF14:
 8931 0972 58494F5F 		.ascii	"XIO_HANDLE\000"
 8931      48414E44 
 8931      4C4500
 8932              	.LASF69:
 8933 097d 554E4951 		.ascii	"UNIQUEID_INVALID_ARG\000"
 8933      55454944 
 8933      5F494E56 
 8933      414C4944 
 8933      5F415247 
 8934              	.LASF83:
 8935 0992 4C4F4747 		.ascii	"LOGGER_LOG\000"
 8935      45525F4C 
 8935      4F4700
 8936              	.LASF133:
 8937 099d 7361736C 		.ascii	"saslmssbcbs_get_interface\000"
 8937      6D737362 
 8937      6362735F 
 8937      6765745F 
 8937      696E7465 
 8938              	.LASF12:
 8939 09b7 73697A65 		.ascii	"sizetype\000"
 8939      74797065 
 8939      00
 8940              	.LASF10:
 8941 09c0 6C6F6E67 		.ascii	"long unsigned int\000"
 8941      20756E73 
 8941      69676E65 
ARM GAS  C:\Users\Phuong\AppData\Local\Temp\cc32RpHN.s 			page 181


 8941      6420696E 
 8941      7400
 8942              	.LASF96:
 8943 09d2 6F6E5F63 		.ascii	"on_connection_io_error\000"
 8943      6F6E6E65 
 8943      6374696F 
 8943      6E5F696F 
 8943      5F657272 
 8944              	.LASF57:
 8945 09e9 6F6E5F73 		.ascii	"on_state_changed_callback\000"
 8945      74617465 
 8945      5F636861 
 8945      6E676564 
 8945      5F63616C 
 8946              	.LASF109:
 8947 0a03 63726561 		.ascii	"create_connection_handle\000"
 8947      74655F63 
 8947      6F6E6E65 
 8947      6374696F 
 8947      6E5F6861 
 8948              	.LASF110:
 8949 0a1c 756E6971 		.ascii	"unique_container_id\000"
 8949      75655F63 
 8949      6F6E7461 
 8949      696E6572 
 8949      5F696400 
 8950              	.LASF72:
 8951 0a30 5341534C 		.ascii	"SASL_MECHANISM_INSTANCE_TAG\000"
 8951      5F4D4543 
 8951      48414E49 
 8951      534D5F49 
 8951      4E535441 
 8952              	.LASF88:
 8953 0a4c 73657373 		.ascii	"session_handle\000"
 8953      696F6E5F 
 8953      68616E64 
 8953      6C6500
 8954              	.LASF4:
 8955 0a5b 756E7369 		.ascii	"unsigned char\000"
 8955      676E6564 
 8955      20636861 
 8955      7200
 8956              	.LASF117:
 8957 0a69 656E756D 		.ascii	"enumAsString\000"
 8957      41735374 
 8957      72696E67 
 8957      00
 8958              	.LASF87:
 8959 0a76 636F6E6E 		.ascii	"connection_handle\000"
 8959      65637469 
 8959      6F6E5F68 
 8959      616E646C 
 8959      6500
 8960              	.LASF9:
 8961 0a88 5F5F7569 		.ascii	"__uint32_t\000"
 8961      6E743332 
 8961      5F7400
ARM GAS  C:\Users\Phuong\AppData\Local\Temp\cc32RpHN.s 			page 182


 8962              	.LASF115:
 8963 0a93 414D5150 		.ascii	"AMQP_CONNECTION_STATEStrings\000"
 8963      5F434F4E 
 8963      4E454354 
 8963      494F4E5F 
 8963      53544154 
 8964              	.LASF84:
 8965 0ab0 414D5150 		.ascii	"AMQP_CONNECTION_INSTANCE_TAG\000"
 8965      5F434F4E 
 8965      4E454354 
 8965      494F4E5F 
 8965      494E5354 
 8966              	.LASF78:
 8967 0acd 4C4F475F 		.ascii	"LOG_CATEGORY_TAG\000"
 8967      43415445 
 8967      474F5259 
 8967      5F544147 
 8967      00
 8968              	.LASF156:
 8969 0ade 536F7572 		.ascii	"Source\\azure_iot_sdk\\iothub_client\\src\\iothubtr"
 8969      63655C61 
 8969      7A757265 
 8969      5F696F74 
 8969      5F73646B 
 8970 0b0d 616E7370 		.ascii	"ansport_amqp_connection.c\000"
 8970      6F72745F 
 8970      616D7170 
 8970      5F636F6E 
 8970      6E656374 
 8971              	.LASF139:
 8972 0b27 636F6E6E 		.ascii	"connection_set_idle_timeout\000"
 8972      65637469 
 8972      6F6E5F73 
 8972      65745F69 
 8972      646C655F 
 8973              	.LASF51:
 8974 0b43 4F4E5F41 		.ascii	"ON_AMQP_CONNECTION_STATE_CHANGED\000"
 8974      4D51505F 
 8974      434F4E4E 
 8974      45435449 
 8974      4F4E5F53 
 8975              	.LASF28:
 8976 0b64 434F4E4E 		.ascii	"CONNECTION_STATE_CLOSE_PIPE\000"
 8976      45435449 
 8976      4F4E5F53 
 8976      54415445 
 8976      5F434C4F 
 8977              	.LASF81:
 8978 0b80 415A5F4C 		.ascii	"AZ_LOG_TRACE\000"
 8978      4F475F54 
 8978      52414345 
 8978      00
 8979              	.LASF116:
 8980 0b8d 414D5150 		.ascii	"AMQP_CONNECTION_STATE_FromString\000"
 8980      5F434F4E 
 8980      4E454354 
 8980      494F4E5F 
ARM GAS  C:\Users\Phuong\AppData\Local\Temp\cc32RpHN.s 			page 183


 8980      53544154 
 8981              	.LASF77:
 8982 0bae 5341534C 		.ascii	"SASLCLIENTIO_CONFIG\000"
 8982      434C4945 
 8982      4E54494F 
 8982      5F434F4E 
 8982      46494700 
 8983              	.LASF154:
 8984 0bc2 636F6E6E 		.ascii	"connection_dowork\000"
 8984      65637469 
 8984      6F6E5F64 
 8984      6F776F72 
 8984      6B00
 8985              	.LASF31:
 8986 0bd4 434F4E4E 		.ascii	"CONNECTION_STATE_CLOSE_SENT\000"
 8986      45435449 
 8986      4F4E5F53 
 8986      54415445 
 8986      5F434C4F 
 8987              	.LASF118:
 8988 0bf0 64657374 		.ascii	"destination\000"
 8988      696E6174 
 8988      696F6E00 
 8989              	.LASF3:
 8990 0bfc 7369676E 		.ascii	"signed char\000"
 8990      65642063 
 8990      68617200 
 8991              	.LASF6:
 8992 0c08 73686F72 		.ascii	"short unsigned int\000"
 8992      7420756E 
 8992      7369676E 
 8992      65642069 
 8992      6E7400
 8993              	.LASF23:
 8994 0c1b 434F4E4E 		.ascii	"CONNECTION_STATE_HDR_EXCH\000"
 8994      45435449 
 8994      4F4E5F53 
 8994      54415445 
 8994      5F484452 
 8995              	.LASF104:
 8996 0c35 6F70656E 		.ascii	"open_complete_result\000"
 8996      5F636F6D 
 8996      706C6574 
 8996      655F7265 
 8996      73756C74 
 8997              	.LASF105:
 8998 0c4a 5F5F6675 		.ascii	"__func__\000"
 8998      6E635F5F 
 8998      00
 8999              	.LASF119:
 9000 0c53 636F6E6E 		.ascii	"conn_handle\000"
 9000      5F68616E 
 9000      646C6500 
 9001              	.LASF61:
 9002 0c5f 646F7562 		.ascii	"double\000"
 9002      6C6500
 9003              	.LASF68:
ARM GAS  C:\Users\Phuong\AppData\Local\Temp\cc32RpHN.s 			page 184


 9004 0c66 554E4951 		.ascii	"UNIQUEID_OK\000"
 9004      55454944 
 9004      5F4F4B00 
 9005              	.LASF141:
 9006 0c72 636F6E6E 		.ascii	"connection_set_trace\000"
 9006      65637469 
 9006      6F6E5F73 
 9006      65745F74 
 9006      72616365 
 9007              	.LASF153:
 9008 0c87 53545249 		.ascii	"STRING_construct\000"
 9008      4E475F63 
 9008      6F6E7374 
 9008      72756374 
 9008      00
 9009              	.LASF143:
 9010 0c98 73657373 		.ascii	"session_create\000"
 9010      696F6E5F 
 9010      63726561 
 9010      746500
 9011              	.LASF145:
 9012 0ca7 73657373 		.ascii	"session_set_outgoing_window\000"
 9012      696F6E5F 
 9012      7365745F 
 9012      6F757467 
 9012      6F696E67 
 9013              	.LASF34:
 9014 0cc3 434F4E4E 		.ascii	"CONNECTION_STATE_ERROR\000"
 9014      45435449 
 9014      4F4E5F53 
 9014      54415445 
 9014      5F455252 
 9015              	.LASF70:
 9016 0cda 554E4951 		.ascii	"UNIQUEID_ERROR\000"
 9016      55454944 
 9016      5F455252 
 9016      4F5200
 9017              	.LASF140:
 9018 0ce9 636F6E6E 		.ascii	"connection_set_remote_idle_timeout_empty_frame_send"
 9018      65637469 
 9018      6F6E5F73 
 9018      65745F72 
 9018      656D6F74 
 9019 0d1c 5F726174 		.ascii	"_ratio\000"
 9019      696F00
 9020              	.LASF148:
 9021 0d23 73747263 		.ascii	"strcmp\000"
 9021      6D7000
 9022              		.ident	"GCC: (GNU Tools for ARM Embedded Processors) 5.4.1 20160609 (release) [ARM/embedded-5-bran
