ARM GAS  C:\Users\Phuong\AppData\Local\Temp\cc5oMiPC.s 			page 1


   1              		.syntax unified
   2              		.cpu cortex-m0plus
   3              		.fpu softvfp
   4              		.eabi_attribute 20, 1
   5              		.eabi_attribute 21, 1
   6              		.eabi_attribute 23, 3
   7              		.eabi_attribute 24, 1
   8              		.eabi_attribute 25, 1
   9              		.eabi_attribute 26, 1
  10              		.eabi_attribute 30, 1
  11              		.eabi_attribute 34, 0
  12              		.eabi_attribute 18, 4
  13              		.thumb
  14              		.syntax unified
  15              		.file	"iothub_ll_telemetry_sample.c"
  16              		.text
  17              	.Ltext0:
  18              		.cfi_sections	.debug_frame
  19              		.section	.text.azure,"ax",%progbits
  20              		.align	2
  21              		.global	azure
  22              		.code	16
  23              		.thumb_func
  24              		.type	azure, %function
  25              	azure:
  26              	.LFB468:
  27              		.file 1 "Source\\iothub_ll_telemetry_sample.c"
   1:Source/iothub_ll_telemetry_sample.c **** // Copyright (c) Microsoft. All rights reserved.
   2:Source/iothub_ll_telemetry_sample.c **** // Licensed under the MIT license. See LICENSE file in the project root for full license informatio
   3:Source/iothub_ll_telemetry_sample.c **** 
   4:Source/iothub_ll_telemetry_sample.c **** // CAVEAT: This sample is to demonstrate azure IoT client concepts only and is not a guide design p
   5:Source/iothub_ll_telemetry_sample.c **** // Checking of return codes and error values shall be omitted for brevity.  Please practice sound e
   6:Source/iothub_ll_telemetry_sample.c **** // when writing production code.
   7:Source/iothub_ll_telemetry_sample.c **** 
   8:Source/iothub_ll_telemetry_sample.c **** #include <stdio.h>
   9:Source/iothub_ll_telemetry_sample.c **** #include <stdlib.h>
  10:Source/iothub_ll_telemetry_sample.c **** 
  11:Source/iothub_ll_telemetry_sample.c **** #include "lwip/init.h"
  12:Source/iothub_ll_telemetry_sample.c **** #include "lwip/mem.h"
  13:Source/iothub_ll_telemetry_sample.c **** #include "lwip/sys.h"
  14:Source/iothub_ll_telemetry_sample.c **** #include "lwip/udp.h"
  15:Source/iothub_ll_telemetry_sample.c **** #include "lwip/tcp.h"
  16:Source/iothub_ll_telemetry_sample.c **** #include "lwip/tcpip.h"
  17:Source/iothub_ll_telemetry_sample.c **** #include "lwip/opt.h"
  18:Source/iothub_ll_telemetry_sample.c **** #include "lwip/debug.h"
  19:Source/iothub_ll_telemetry_sample.c **** #include "lwip/ip_addr.h"
  20:Source/iothub_ll_telemetry_sample.c **** #include "netif/slipif.h"
  21:Source/iothub_ll_telemetry_sample.c **** #include "lwip/sio.h"
  22:Source/iothub_ll_telemetry_sample.c **** 
  23:Source/iothub_ll_telemetry_sample.c **** #include "project.h"
  24:Source/iothub_ll_telemetry_sample.c **** #include "FreeRTOS.h"
  25:Source/iothub_ll_telemetry_sample.c **** #include "task.h"
  26:Source/iothub_ll_telemetry_sample.c **** 
  27:Source/iothub_ll_telemetry_sample.c **** #define LWIP_PORT_INIT_SLIP_IPADDR(addr)   IP4_ADDR((addr), 192, 168, 65, 233)
  28:Source/iothub_ll_telemetry_sample.c **** #define LWIP_PORT_INIT_SLIP_GW(addr)       IP4_ADDR((addr), 192, 168, 65, 1)
  29:Source/iothub_ll_telemetry_sample.c **** #define LWIP_PORT_INIT_SLIP_NETMASK(addr)  IP4_ADDR((addr), 255, 255, 255, 0)
  30:Source/iothub_ll_telemetry_sample.c **** 
ARM GAS  C:\Users\Phuong\AppData\Local\Temp\cc5oMiPC.s 			page 2


  31:Source/iothub_ll_telemetry_sample.c **** #define SLIP_ADDRS &ipaddr_slip, &netmask_slip, &gw_slip,
  32:Source/iothub_ll_telemetry_sample.c **** 
  33:Source/iothub_ll_telemetry_sample.c **** ip4_addr_t ipaddr_slip, netmask_slip, gw_slip;
  34:Source/iothub_ll_telemetry_sample.c **** u8_t num_slip = 0;
  35:Source/iothub_ll_telemetry_sample.c **** struct netif slipif;
  36:Source/iothub_ll_telemetry_sample.c **** 
  37:Source/iothub_ll_telemetry_sample.c **** #include "iothub.h"
  38:Source/iothub_ll_telemetry_sample.c **** #include "iothub_device_client_ll.h"
  39:Source/iothub_ll_telemetry_sample.c **** #include "iothub_client_options.h"
  40:Source/iothub_ll_telemetry_sample.c **** #include "iothub_message.h"
  41:Source/iothub_ll_telemetry_sample.c **** #include "azure_c_shared_utility/threadapi.h"
  42:Source/iothub_ll_telemetry_sample.c **** #include "azure_c_shared_utility/crt_abstractions.h"
  43:Source/iothub_ll_telemetry_sample.c **** #include "azure_c_shared_utility/shared_util_options.h"
  44:Source/iothub_ll_telemetry_sample.c **** 
  45:Source/iothub_ll_telemetry_sample.c **** #ifdef SET_TRUSTED_CERT_IN_SAMPLES
  46:Source/iothub_ll_telemetry_sample.c **** #include "certs.h"
  47:Source/iothub_ll_telemetry_sample.c **** #endif // SET_TRUSTED_CERT_IN_SAMPLES
  48:Source/iothub_ll_telemetry_sample.c **** 
  49:Source/iothub_ll_telemetry_sample.c **** /* This sample uses the _LL APIs of iothub_client for example purposes.
  50:Source/iothub_ll_telemetry_sample.c **** Simply changing the using the convenience layer (functions not having _LL)
  51:Source/iothub_ll_telemetry_sample.c **** and removing calls to _DoWork will yield the same results. */
  52:Source/iothub_ll_telemetry_sample.c **** 
  53:Source/iothub_ll_telemetry_sample.c **** // The protocol you wish to use should be uncommented
  54:Source/iothub_ll_telemetry_sample.c **** //
  55:Source/iothub_ll_telemetry_sample.c **** //#define SAMPLE_MQTT
  56:Source/iothub_ll_telemetry_sample.c **** //#define SAMPLE_MQTT_OVER_WEBSOCKETS
  57:Source/iothub_ll_telemetry_sample.c **** #define SAMPLE_AMQP
  58:Source/iothub_ll_telemetry_sample.c **** //#define SAMPLE_AMQP_OVER_WEBSOCKETS
  59:Source/iothub_ll_telemetry_sample.c **** //#define SAMPLE_HTTP
  60:Source/iothub_ll_telemetry_sample.c **** 
  61:Source/iothub_ll_telemetry_sample.c **** #ifdef SAMPLE_MQTT
  62:Source/iothub_ll_telemetry_sample.c ****     #include "iothubtransportmqtt.h"
  63:Source/iothub_ll_telemetry_sample.c **** #endif // SAMPLE_MQTT
  64:Source/iothub_ll_telemetry_sample.c **** #ifdef SAMPLE_MQTT_OVER_WEBSOCKETS
  65:Source/iothub_ll_telemetry_sample.c ****     #include "iothubtransportmqtt_websockets.h"
  66:Source/iothub_ll_telemetry_sample.c **** #endif // SAMPLE_MQTT_OVER_WEBSOCKETS
  67:Source/iothub_ll_telemetry_sample.c **** #ifdef SAMPLE_AMQP
  68:Source/iothub_ll_telemetry_sample.c ****     #include "iothubtransportamqp.h"
  69:Source/iothub_ll_telemetry_sample.c **** #endif // SAMPLE_AMQP
  70:Source/iothub_ll_telemetry_sample.c **** #ifdef SAMPLE_AMQP_OVER_WEBSOCKETS
  71:Source/iothub_ll_telemetry_sample.c ****     #include "iothubtransportamqp_websockets.h"
  72:Source/iothub_ll_telemetry_sample.c **** #endif // SAMPLE_AMQP_OVER_WEBSOCKETS
  73:Source/iothub_ll_telemetry_sample.c **** #ifdef SAMPLE_HTTP
  74:Source/iothub_ll_telemetry_sample.c ****     #include "iothubtransporthttp.h"
  75:Source/iothub_ll_telemetry_sample.c **** #endif // SAMPLE_HTTP
  76:Source/iothub_ll_telemetry_sample.c **** 
  77:Source/iothub_ll_telemetry_sample.c **** #ifdef SET_TRUSTED_CERT_IN_SAMPLES
  78:Source/iothub_ll_telemetry_sample.c **** #include "certs.h"
  79:Source/iothub_ll_telemetry_sample.c **** #endif // SET_TRUSTED_CERT_IN_SAMPLES
  80:Source/iothub_ll_telemetry_sample.c **** 
  81:Source/iothub_ll_telemetry_sample.c **** /* Paste in the your iothub connection string  */
  82:Source/iothub_ll_telemetry_sample.c **** static const char* connectionString = "HostName=IoTSDKPortTesting.azure-devices.net;DeviceId=dev-te
  83:Source/iothub_ll_telemetry_sample.c **** 
  84:Source/iothub_ll_telemetry_sample.c **** #define MESSAGE_COUNT        5
  85:Source/iothub_ll_telemetry_sample.c **** static bool g_continueRunning = true;
  86:Source/iothub_ll_telemetry_sample.c **** static size_t g_message_count_send_confirmations = 0;
  87:Source/iothub_ll_telemetry_sample.c **** 
ARM GAS  C:\Users\Phuong\AppData\Local\Temp\cc5oMiPC.s 			page 3


  88:Source/iothub_ll_telemetry_sample.c **** unsigned int memfreeHeap, memfreeStack;
  89:Source/iothub_ll_telemetry_sample.c **** 
  90:Source/iothub_ll_telemetry_sample.c **** static void send_confirm_callback(IOTHUB_CLIENT_CONFIRMATION_RESULT result, void* userContextCallba
  91:Source/iothub_ll_telemetry_sample.c **** {
  92:Source/iothub_ll_telemetry_sample.c ****     (void)userContextCallback;
  93:Source/iothub_ll_telemetry_sample.c ****     // When a message is sent this callback will get envoked
  94:Source/iothub_ll_telemetry_sample.c ****     g_message_count_send_confirmations++;
  95:Source/iothub_ll_telemetry_sample.c ****     (void)printf("Confirmation callback received for message %zu with result %s\r\n", g_message_cou
  96:Source/iothub_ll_telemetry_sample.c **** }
  97:Source/iothub_ll_telemetry_sample.c **** 
  98:Source/iothub_ll_telemetry_sample.c **** static void connection_status_callback(IOTHUB_CLIENT_CONNECTION_STATUS result, IOTHUB_CLIENT_CONNEC
  99:Source/iothub_ll_telemetry_sample.c **** {
 100:Source/iothub_ll_telemetry_sample.c ****     (void)reason;
 101:Source/iothub_ll_telemetry_sample.c ****     (void)user_context;
 102:Source/iothub_ll_telemetry_sample.c ****     // This sample DOES NOT take into consideration network outages.
 103:Source/iothub_ll_telemetry_sample.c ****     if (result == IOTHUB_CLIENT_CONNECTION_AUTHENTICATED)
 104:Source/iothub_ll_telemetry_sample.c ****     {
 105:Source/iothub_ll_telemetry_sample.c ****         (void)printf("The device client is connected to iothub\r\n");
 106:Source/iothub_ll_telemetry_sample.c ****     }
 107:Source/iothub_ll_telemetry_sample.c ****     else
 108:Source/iothub_ll_telemetry_sample.c ****     {
 109:Source/iothub_ll_telemetry_sample.c ****         (void)printf("The device client has been disconnected\r\n");
 110:Source/iothub_ll_telemetry_sample.c ****     }
 111:Source/iothub_ll_telemetry_sample.c **** }
 112:Source/iothub_ll_telemetry_sample.c **** 
 113:Source/iothub_ll_telemetry_sample.c **** void azure()
 114:Source/iothub_ll_telemetry_sample.c **** {
  28              		.loc 1 114 0
  29              		.cfi_startproc
  30              		@ args = 0, pretend = 0, frame = 8
  31              		@ frame_needed = 0, uses_anonymous_args = 0
  32 0000 70B5     		push	{r4, r5, r6, lr}
  33              		.cfi_def_cfa_offset 16
  34              		.cfi_offset 4, -16
  35              		.cfi_offset 5, -12
  36              		.cfi_offset 6, -8
  37              		.cfi_offset 14, -4
  38 0002 86B0     		sub	sp, sp, #24
  39              		.cfi_def_cfa_offset 40
  40              	.LBB7:
  41              	.LBB8:
  42              		.file 2 "Generated_Source\\PSoC6\\pdl\\cmsis/include/cmsis_gcc.h"
   1:Generated_Source\PSoC6\pdl\cmsis/include/cmsis_gcc.h **** /**************************************************************************//**
   2:Generated_Source\PSoC6\pdl\cmsis/include/cmsis_gcc.h ****  * @file     cmsis_gcc.h
   3:Generated_Source\PSoC6\pdl\cmsis/include/cmsis_gcc.h ****  * @brief    CMSIS compiler GCC header file
   4:Generated_Source\PSoC6\pdl\cmsis/include/cmsis_gcc.h ****  * @version  V5.0.1
   5:Generated_Source\PSoC6\pdl\cmsis/include/cmsis_gcc.h ****  * @date     02. February 2017
   6:Generated_Source\PSoC6\pdl\cmsis/include/cmsis_gcc.h ****  ******************************************************************************/
   7:Generated_Source\PSoC6\pdl\cmsis/include/cmsis_gcc.h **** /*
   8:Generated_Source\PSoC6\pdl\cmsis/include/cmsis_gcc.h ****  * Copyright (c) 2009-2017 ARM Limited. All rights reserved.
   9:Generated_Source\PSoC6\pdl\cmsis/include/cmsis_gcc.h ****  *
  10:Generated_Source\PSoC6\pdl\cmsis/include/cmsis_gcc.h ****  * SPDX-License-Identifier: Apache-2.0
  11:Generated_Source\PSoC6\pdl\cmsis/include/cmsis_gcc.h ****  *
  12:Generated_Source\PSoC6\pdl\cmsis/include/cmsis_gcc.h ****  * Licensed under the Apache License, Version 2.0 (the License); you may
  13:Generated_Source\PSoC6\pdl\cmsis/include/cmsis_gcc.h ****  * not use this file except in compliance with the License.
  14:Generated_Source\PSoC6\pdl\cmsis/include/cmsis_gcc.h ****  * You may obtain a copy of the License at
  15:Generated_Source\PSoC6\pdl\cmsis/include/cmsis_gcc.h ****  *
ARM GAS  C:\Users\Phuong\AppData\Local\Temp\cc5oMiPC.s 			page 4


  16:Generated_Source\PSoC6\pdl\cmsis/include/cmsis_gcc.h ****  * www.apache.org/licenses/LICENSE-2.0
  17:Generated_Source\PSoC6\pdl\cmsis/include/cmsis_gcc.h ****  *
  18:Generated_Source\PSoC6\pdl\cmsis/include/cmsis_gcc.h ****  * Unless required by applicable law or agreed to in writing, software
  19:Generated_Source\PSoC6\pdl\cmsis/include/cmsis_gcc.h ****  * distributed under the License is distributed on an AS IS BASIS, WITHOUT
  20:Generated_Source\PSoC6\pdl\cmsis/include/cmsis_gcc.h ****  * WARRANTIES OR CONDITIONS OF ANY KIND, either express or implied.
  21:Generated_Source\PSoC6\pdl\cmsis/include/cmsis_gcc.h ****  * See the License for the specific language governing permissions and
  22:Generated_Source\PSoC6\pdl\cmsis/include/cmsis_gcc.h ****  * limitations under the License.
  23:Generated_Source\PSoC6\pdl\cmsis/include/cmsis_gcc.h ****  */
  24:Generated_Source\PSoC6\pdl\cmsis/include/cmsis_gcc.h **** 
  25:Generated_Source\PSoC6\pdl\cmsis/include/cmsis_gcc.h **** #ifndef __CMSIS_GCC_H
  26:Generated_Source\PSoC6\pdl\cmsis/include/cmsis_gcc.h **** #define __CMSIS_GCC_H
  27:Generated_Source\PSoC6\pdl\cmsis/include/cmsis_gcc.h **** 
  28:Generated_Source\PSoC6\pdl\cmsis/include/cmsis_gcc.h **** /* ignore some GCC warnings */
  29:Generated_Source\PSoC6\pdl\cmsis/include/cmsis_gcc.h **** #pragma GCC diagnostic push
  30:Generated_Source\PSoC6\pdl\cmsis/include/cmsis_gcc.h **** #pragma GCC diagnostic ignored "-Wsign-conversion"
  31:Generated_Source\PSoC6\pdl\cmsis/include/cmsis_gcc.h **** #pragma GCC diagnostic ignored "-Wconversion"
  32:Generated_Source\PSoC6\pdl\cmsis/include/cmsis_gcc.h **** #pragma GCC diagnostic ignored "-Wunused-parameter"
  33:Generated_Source\PSoC6\pdl\cmsis/include/cmsis_gcc.h **** 
  34:Generated_Source\PSoC6\pdl\cmsis/include/cmsis_gcc.h **** /* CMSIS compiler specific defines */
  35:Generated_Source\PSoC6\pdl\cmsis/include/cmsis_gcc.h **** #ifndef   __ASM
  36:Generated_Source\PSoC6\pdl\cmsis/include/cmsis_gcc.h ****   #define __ASM                     __asm
  37:Generated_Source\PSoC6\pdl\cmsis/include/cmsis_gcc.h **** #endif
  38:Generated_Source\PSoC6\pdl\cmsis/include/cmsis_gcc.h **** #ifndef   __INLINE
  39:Generated_Source\PSoC6\pdl\cmsis/include/cmsis_gcc.h ****   #define __INLINE                  inline
  40:Generated_Source\PSoC6\pdl\cmsis/include/cmsis_gcc.h **** #endif
  41:Generated_Source\PSoC6\pdl\cmsis/include/cmsis_gcc.h **** #ifndef   __STATIC_INLINE
  42:Generated_Source\PSoC6\pdl\cmsis/include/cmsis_gcc.h ****   #define __STATIC_INLINE           static inline
  43:Generated_Source\PSoC6\pdl\cmsis/include/cmsis_gcc.h **** #endif
  44:Generated_Source\PSoC6\pdl\cmsis/include/cmsis_gcc.h **** #ifndef   __NO_RETURN
  45:Generated_Source\PSoC6\pdl\cmsis/include/cmsis_gcc.h ****   #define __NO_RETURN               __attribute__((noreturn))
  46:Generated_Source\PSoC6\pdl\cmsis/include/cmsis_gcc.h **** #endif
  47:Generated_Source\PSoC6\pdl\cmsis/include/cmsis_gcc.h **** #ifndef   __USED
  48:Generated_Source\PSoC6\pdl\cmsis/include/cmsis_gcc.h ****   #define __USED                    __attribute__((used))
  49:Generated_Source\PSoC6\pdl\cmsis/include/cmsis_gcc.h **** #endif
  50:Generated_Source\PSoC6\pdl\cmsis/include/cmsis_gcc.h **** #ifndef   __WEAK
  51:Generated_Source\PSoC6\pdl\cmsis/include/cmsis_gcc.h ****   #define __WEAK                    __attribute__((weak))
  52:Generated_Source\PSoC6\pdl\cmsis/include/cmsis_gcc.h **** #endif
  53:Generated_Source\PSoC6\pdl\cmsis/include/cmsis_gcc.h **** #ifndef   __UNALIGNED_UINT32
  54:Generated_Source\PSoC6\pdl\cmsis/include/cmsis_gcc.h **** #pragma GCC diagnostic push
  55:Generated_Source\PSoC6\pdl\cmsis/include/cmsis_gcc.h **** #pragma GCC diagnostic ignored "-Wpacked"
  56:Generated_Source\PSoC6\pdl\cmsis/include/cmsis_gcc.h **** #pragma GCC diagnostic ignored "-Wattributes"
  57:Generated_Source\PSoC6\pdl\cmsis/include/cmsis_gcc.h ****   struct __attribute__((packed)) T_UINT32 { uint32_t v; };
  58:Generated_Source\PSoC6\pdl\cmsis/include/cmsis_gcc.h **** #pragma GCC diagnostic pop
  59:Generated_Source\PSoC6\pdl\cmsis/include/cmsis_gcc.h ****   #define __UNALIGNED_UINT32(x)     (((struct T_UINT32 *)(x))->v)
  60:Generated_Source\PSoC6\pdl\cmsis/include/cmsis_gcc.h **** #endif
  61:Generated_Source\PSoC6\pdl\cmsis/include/cmsis_gcc.h **** #ifndef   __ALIGNED
  62:Generated_Source\PSoC6\pdl\cmsis/include/cmsis_gcc.h ****   #define __ALIGNED(x)              __attribute__((aligned(x)))
  63:Generated_Source\PSoC6\pdl\cmsis/include/cmsis_gcc.h **** #endif
  64:Generated_Source\PSoC6\pdl\cmsis/include/cmsis_gcc.h **** #ifndef   __PACKED
  65:Generated_Source\PSoC6\pdl\cmsis/include/cmsis_gcc.h ****   #define __PACKED                  __attribute__((packed, aligned(1)))
  66:Generated_Source\PSoC6\pdl\cmsis/include/cmsis_gcc.h **** #endif
  67:Generated_Source\PSoC6\pdl\cmsis/include/cmsis_gcc.h **** #ifndef   __PACKED_STRUCT
  68:Generated_Source\PSoC6\pdl\cmsis/include/cmsis_gcc.h ****   #define __PACKED_STRUCT           struct __attribute__((packed, aligned(1)))
  69:Generated_Source\PSoC6\pdl\cmsis/include/cmsis_gcc.h **** #endif
  70:Generated_Source\PSoC6\pdl\cmsis/include/cmsis_gcc.h **** 
  71:Generated_Source\PSoC6\pdl\cmsis/include/cmsis_gcc.h **** 
  72:Generated_Source\PSoC6\pdl\cmsis/include/cmsis_gcc.h **** /* ###########################  Core Function Access  ########################### */
ARM GAS  C:\Users\Phuong\AppData\Local\Temp\cc5oMiPC.s 			page 5


  73:Generated_Source\PSoC6\pdl\cmsis/include/cmsis_gcc.h **** /** \ingroup  CMSIS_Core_FunctionInterface
  74:Generated_Source\PSoC6\pdl\cmsis/include/cmsis_gcc.h ****     \defgroup CMSIS_Core_RegAccFunctions CMSIS Core Register Access Functions
  75:Generated_Source\PSoC6\pdl\cmsis/include/cmsis_gcc.h ****   @{
  76:Generated_Source\PSoC6\pdl\cmsis/include/cmsis_gcc.h ****  */
  77:Generated_Source\PSoC6\pdl\cmsis/include/cmsis_gcc.h **** 
  78:Generated_Source\PSoC6\pdl\cmsis/include/cmsis_gcc.h **** /**
  79:Generated_Source\PSoC6\pdl\cmsis/include/cmsis_gcc.h ****   \brief   Enable IRQ Interrupts
  80:Generated_Source\PSoC6\pdl\cmsis/include/cmsis_gcc.h ****   \details Enables IRQ interrupts by clearing the I-bit in the CPSR.
  81:Generated_Source\PSoC6\pdl\cmsis/include/cmsis_gcc.h ****            Can only be executed in Privileged modes.
  82:Generated_Source\PSoC6\pdl\cmsis/include/cmsis_gcc.h ****  */
  83:Generated_Source\PSoC6\pdl\cmsis/include/cmsis_gcc.h **** __attribute__((always_inline)) __STATIC_INLINE void __enable_irq(void)
  84:Generated_Source\PSoC6\pdl\cmsis/include/cmsis_gcc.h **** {
  85:Generated_Source\PSoC6\pdl\cmsis/include/cmsis_gcc.h ****   __ASM volatile ("cpsie i" : : : "memory");
  43              		.loc 2 85 0
  44              		.syntax divided
  45              	@ 85 "Generated_Source\PSoC6\pdl\cmsis/include/cmsis_gcc.h" 1
  46 0004 62B6     		cpsie i
  47              	@ 0 "" 2
  48              		.thumb
  49              		.syntax unified
  50              	.LBE8:
  51              	.LBE7:
 115:Source/iothub_ll_telemetry_sample.c ****     
 116:Source/iothub_ll_telemetry_sample.c ****     __enable_irq();
 117:Source/iothub_ll_telemetry_sample.c ****     
 118:Source/iothub_ll_telemetry_sample.c ****     tcpip_init(NULL,NULL);
  52              		.loc 1 118 0
  53 0006 0021     		movs	r1, #0
  54 0008 0020     		movs	r0, #0
  55 000a FFF7FEFF 		bl	tcpip_init
  56              	.LVL0:
 119:Source/iothub_ll_telemetry_sample.c ****     
 120:Source/iothub_ll_telemetry_sample.c ****     LWIP_PORT_INIT_SLIP_IPADDR(&ipaddr_slip);
  57              		.loc 1 120 0
  58 000e 3D49     		ldr	r1, .L9
  59 0010 3D4B     		ldr	r3, .L9+4
  60 0012 0B60     		str	r3, [r1]
 121:Source/iothub_ll_telemetry_sample.c ****     LWIP_PORT_INIT_SLIP_GW(&gw_slip);
  61              		.loc 1 121 0
  62 0014 3D4B     		ldr	r3, .L9+8
  63 0016 3E4A     		ldr	r2, .L9+12
  64 0018 1A60     		str	r2, [r3]
 122:Source/iothub_ll_telemetry_sample.c ****     LWIP_PORT_INIT_SLIP_NETMASK(&netmask_slip);
  65              		.loc 1 122 0
  66 001a 3E4A     		ldr	r2, .L9+16
  67 001c 3E48     		ldr	r0, .L9+20
  68 001e 1060     		str	r0, [r2]
 123:Source/iothub_ll_telemetry_sample.c ****     
 124:Source/iothub_ll_telemetry_sample.c ****     netif_add(&slipif, SLIP_ADDRS &num_slip, slipif_init, ip_input);
  69              		.loc 1 124 0
  70 0020 3E4C     		ldr	r4, .L9+24
  71 0022 3F48     		ldr	r0, .L9+28
  72 0024 0290     		str	r0, [sp, #8]
  73 0026 3F48     		ldr	r0, .L9+32
  74 0028 0190     		str	r0, [sp, #4]
  75 002a 3F48     		ldr	r0, .L9+36
  76 002c 0090     		str	r0, [sp]
ARM GAS  C:\Users\Phuong\AppData\Local\Temp\cc5oMiPC.s 			page 6


  77 002e 2000     		movs	r0, r4
  78 0030 FFF7FEFF 		bl	netif_add
  79              	.LVL1:
 125:Source/iothub_ll_telemetry_sample.c ****     netif_set_default (&slipif);
  80              		.loc 1 125 0
  81 0034 2000     		movs	r0, r4
  82 0036 FFF7FEFF 		bl	netif_set_default
  83              	.LVL2:
 126:Source/iothub_ll_telemetry_sample.c ****     netif_set_up(&slipif);
  84              		.loc 1 126 0
  85 003a 2000     		movs	r0, r4
  86 003c FFF7FEFF 		bl	netif_set_up
  87              	.LVL3:
 127:Source/iothub_ll_telemetry_sample.c ****     netif_set_link_up(&slipif);    
  88              		.loc 1 127 0
  89 0040 2000     		movs	r0, r4
  90 0042 FFF7FEFF 		bl	netif_set_link_up
  91              	.LVL4:
 128:Source/iothub_ll_telemetry_sample.c ****     
 129:Source/iothub_ll_telemetry_sample.c ****     IOTHUB_CLIENT_TRANSPORT_PROVIDER protocol;
 130:Source/iothub_ll_telemetry_sample.c ****     IOTHUB_MESSAGE_HANDLE message_handle;
 131:Source/iothub_ll_telemetry_sample.c ****     size_t messages_sent = 0;
 132:Source/iothub_ll_telemetry_sample.c ****     const char* telemetry_msg = "Telemetry_Data_Test";
 133:Source/iothub_ll_telemetry_sample.c **** 
 134:Source/iothub_ll_telemetry_sample.c ****     // Select the Protocol to use with the connection
 135:Source/iothub_ll_telemetry_sample.c **** #ifdef SAMPLE_MQTT
 136:Source/iothub_ll_telemetry_sample.c ****     protocol = MQTT_Protocol;
 137:Source/iothub_ll_telemetry_sample.c **** #endif // SAMPLE_MQTT
 138:Source/iothub_ll_telemetry_sample.c **** #ifdef SAMPLE_MQTT_OVER_WEBSOCKETS
 139:Source/iothub_ll_telemetry_sample.c ****     protocol = MQTT_WebSocket_Protocol;
 140:Source/iothub_ll_telemetry_sample.c **** #endif // SAMPLE_MQTT_OVER_WEBSOCKETS
 141:Source/iothub_ll_telemetry_sample.c **** #ifdef SAMPLE_AMQP
 142:Source/iothub_ll_telemetry_sample.c ****     protocol = AMQP_Protocol;
 143:Source/iothub_ll_telemetry_sample.c **** #endif // SAMPLE_AMQP
 144:Source/iothub_ll_telemetry_sample.c **** #ifdef SAMPLE_AMQP_OVER_WEBSOCKETS
 145:Source/iothub_ll_telemetry_sample.c ****     protocol = AMQP_Protocol_over_WebSocketsTls;
 146:Source/iothub_ll_telemetry_sample.c **** #endif // SAMPLE_AMQP_OVER_WEBSOCKETS
 147:Source/iothub_ll_telemetry_sample.c **** #ifdef SAMPLE_HTTP
 148:Source/iothub_ll_telemetry_sample.c ****     protocol = HTTP_Protocol;
 149:Source/iothub_ll_telemetry_sample.c **** #endif // SAMPLE_HTTP
 150:Source/iothub_ll_telemetry_sample.c **** 
 151:Source/iothub_ll_telemetry_sample.c ****     // Used to initialize IoTHub SDK subsystem
 152:Source/iothub_ll_telemetry_sample.c ****     (void)IoTHub_Init();
  92              		.loc 1 152 0
  93 0046 FFF7FEFF 		bl	IoTHub_Init
  94              	.LVL5:
 153:Source/iothub_ll_telemetry_sample.c **** 
 154:Source/iothub_ll_telemetry_sample.c ****     IOTHUB_DEVICE_CLIENT_LL_HANDLE device_ll_handle;
 155:Source/iothub_ll_telemetry_sample.c **** 
 156:Source/iothub_ll_telemetry_sample.c ****     (void)printf("Creating IoTHub Device handle\r\n");
  95              		.loc 1 156 0
  96 004a 3848     		ldr	r0, .L9+40
  97 004c FFF7FEFF 		bl	puts
  98              	.LVL6:
 157:Source/iothub_ll_telemetry_sample.c ****     // Create the iothub handle here
 158:Source/iothub_ll_telemetry_sample.c ****     device_ll_handle = IoTHubDeviceClient_LL_CreateFromConnectionString(connectionString, protocol)
  99              		.loc 1 158 0
ARM GAS  C:\Users\Phuong\AppData\Local\Temp\cc5oMiPC.s 			page 7


 100 0050 3749     		ldr	r1, .L9+44
 101 0052 3848     		ldr	r0, .L9+48
 102 0054 FFF7FEFF 		bl	IoTHubDeviceClient_LL_CreateFromConnectionString
 103              	.LVL7:
 104 0058 051E     		subs	r5, r0, #0
 105              	.LVL8:
 159:Source/iothub_ll_telemetry_sample.c ****     if (device_ll_handle == NULL)
 106              		.loc 1 159 0
 107 005a 03D1     		bne	.L2
 160:Source/iothub_ll_telemetry_sample.c ****     {
 161:Source/iothub_ll_telemetry_sample.c ****         (void)printf("Failure creating Iothub device.  Hint: Check you connection string.\r\n");
 108              		.loc 1 161 0
 109 005c 3648     		ldr	r0, .L9+52
 110              	.LVL9:
 111 005e FFF7FEFF 		bl	puts
 112              	.LVL10:
 113 0062 38E0     		b	.L3
 114              	.LVL11:
 115              	.L2:
 116              	.LBB9:
 162:Source/iothub_ll_telemetry_sample.c ****     }
 163:Source/iothub_ll_telemetry_sample.c ****     else
 164:Source/iothub_ll_telemetry_sample.c ****     {
 165:Source/iothub_ll_telemetry_sample.c ****         // Set any option that are neccessary.
 166:Source/iothub_ll_telemetry_sample.c ****         // For available options please see the iothub_sdk_options.md documentation
 167:Source/iothub_ll_telemetry_sample.c **** 
 168:Source/iothub_ll_telemetry_sample.c ****         (void)printf("PSOC6---Set_the_option_for_iothub_client_ll---PSOC6\r\n");
 117              		.loc 1 168 0
 118 0064 3548     		ldr	r0, .L9+56
 119              	.LVL12:
 120 0066 FFF7FEFF 		bl	puts
 121              	.LVL13:
 169:Source/iothub_ll_telemetry_sample.c ****         bool traceOn = true;
 122              		.loc 1 169 0
 123 006a 1722     		movs	r2, #23
 124 006c 6A44     		add	r2, r2, sp
 125 006e 0123     		movs	r3, #1
 126 0070 1370     		strb	r3, [r2]
 170:Source/iothub_ll_telemetry_sample.c ****         IoTHubDeviceClient_LL_SetOption(device_ll_handle, OPTION_LOG_TRACE, &traceOn);
 127              		.loc 1 170 0
 128 0072 3349     		ldr	r1, .L9+60
 129 0074 2800     		movs	r0, r5
 130 0076 FFF7FEFF 		bl	IoTHubDeviceClient_LL_SetOption
 131              	.LVL14:
 132              	.LBE9:
 131:Source/iothub_ll_telemetry_sample.c ****     const char* telemetry_msg = "Telemetry_Data_Test";
 133              		.loc 1 131 0
 134 007a 0024     		movs	r4, #0
 135              	.LVL15:
 136              	.L6:
 137              	.LBB10:
 171:Source/iothub_ll_telemetry_sample.c **** 
 172:Source/iothub_ll_telemetry_sample.c **** #ifdef SET_TRUSTED_CERT_IN_SAMPLES
 173:Source/iothub_ll_telemetry_sample.c ****         // Setting the Trusted Certificate.  This is only necessary on system with without
 174:Source/iothub_ll_telemetry_sample.c ****         // built in certificate stores.
 175:Source/iothub_ll_telemetry_sample.c ****             IoTHubDeviceClient_LL_SetOption(device_ll_handle, OPTION_TRUSTED_CERT, certificates);
 176:Source/iothub_ll_telemetry_sample.c **** #endif // SET_TRUSTED_CERT_IN_SAMPLES
ARM GAS  C:\Users\Phuong\AppData\Local\Temp\cc5oMiPC.s 			page 8


 177:Source/iothub_ll_telemetry_sample.c **** 
 178:Source/iothub_ll_telemetry_sample.c **** #if defined SAMPLE_MQTT || defined SAMPLE_MQTT_WS
 179:Source/iothub_ll_telemetry_sample.c ****         //Setting the auto URL Encoder (recommended for MQTT). Please use this option unless
 180:Source/iothub_ll_telemetry_sample.c ****         //you are URL Encoding inputs yourself.
 181:Source/iothub_ll_telemetry_sample.c ****         //ONLY valid for use with MQTT
 182:Source/iothub_ll_telemetry_sample.c ****         //bool urlEncodeOn = true;
 183:Source/iothub_ll_telemetry_sample.c ****         //IoTHubDeviceClient_LL_SetOption(iothub_ll_handle, OPTION_AUTO_URL_ENCODE_DECODE, &urlEnco
 184:Source/iothub_ll_telemetry_sample.c **** #endif
 185:Source/iothub_ll_telemetry_sample.c **** 
 186:Source/iothub_ll_telemetry_sample.c ****         // Setting connection status callback to get indication of connection to iothub
 187:Source/iothub_ll_telemetry_sample.c **** //        (void)IoTHubDeviceClient_LL_SetConnectionStatusCallback(device_ll_handle, connection_stat
 188:Source/iothub_ll_telemetry_sample.c **** 
 189:Source/iothub_ll_telemetry_sample.c ****         do
 190:Source/iothub_ll_telemetry_sample.c ****         {
 191:Source/iothub_ll_telemetry_sample.c ****             if (messages_sent < MESSAGE_COUNT)
 138              		.loc 1 191 0
 139 007c 042C     		cmp	r4, #4
 140 007e 16D8     		bhi	.L4
 192:Source/iothub_ll_telemetry_sample.c ****             {
 193:Source/iothub_ll_telemetry_sample.c ****                 // Construct the iothub message from a string or a byte array
 194:Source/iothub_ll_telemetry_sample.c ****                 message_handle = IoTHubMessage_CreateFromString(telemetry_msg);
 141              		.loc 1 194 0
 142 0080 3048     		ldr	r0, .L9+64
 143 0082 FFF7FEFF 		bl	IoTHubMessage_CreateFromString
 144              	.LVL16:
 145 0086 0600     		movs	r6, r0
 146              	.LVL17:
 195:Source/iothub_ll_telemetry_sample.c ****                 //message_handle = IoTHubMessage_CreateFromByteArray((const unsigned char*)msgText,
 196:Source/iothub_ll_telemetry_sample.c **** 
 197:Source/iothub_ll_telemetry_sample.c ****                 // Set Message property
 198:Source/iothub_ll_telemetry_sample.c ****                 /*(void)IoTHubMessage_SetMessageId(message_handle, "MSG_ID");
 199:Source/iothub_ll_telemetry_sample.c ****                 (void)IoTHubMessage_SetCorrelationId(message_handle, "CORE_ID");
 200:Source/iothub_ll_telemetry_sample.c ****                 (void)IoTHubMessage_SetContentTypeSystemProperty(message_handle, "application%2fjso
 201:Source/iothub_ll_telemetry_sample.c ****                 (void)IoTHubMessage_SetContentEncodingSystemProperty(message_handle, "utf-8");*/
 202:Source/iothub_ll_telemetry_sample.c **** 
 203:Source/iothub_ll_telemetry_sample.c ****                 // Add custom properties to message
 204:Source/iothub_ll_telemetry_sample.c ****                 (void)IoTHubMessage_SetProperty(message_handle, "property_key", "property_value");
 147              		.loc 1 204 0
 148 0088 2F4A     		ldr	r2, .L9+68
 149 008a 3049     		ldr	r1, .L9+72
 150 008c FFF7FEFF 		bl	IoTHubMessage_SetProperty
 151              	.LVL18:
 205:Source/iothub_ll_telemetry_sample.c **** 
 206:Source/iothub_ll_telemetry_sample.c ****                 (void)printf("Sending message %d to IoTHub\r\n", (int)(messages_sent + 1));
 152              		.loc 1 206 0
 153 0090 0134     		adds	r4, r4, #1
 154              	.LVL19:
 155 0092 2100     		movs	r1, r4
 156 0094 2E48     		ldr	r0, .L9+76
 157 0096 FFF7FEFF 		bl	printf
 158              	.LVL20:
 207:Source/iothub_ll_telemetry_sample.c ****                 IoTHubDeviceClient_LL_SendEventAsync(device_ll_handle, message_handle, send_confirm
 159              		.loc 1 207 0
 160 009a 0023     		movs	r3, #0
 161 009c 2D4A     		ldr	r2, .L9+80
 162 009e 3100     		movs	r1, r6
 163 00a0 2800     		movs	r0, r5
ARM GAS  C:\Users\Phuong\AppData\Local\Temp\cc5oMiPC.s 			page 9


 164 00a2 FFF7FEFF 		bl	IoTHubDeviceClient_LL_SendEventAsync
 165              	.LVL21:
 208:Source/iothub_ll_telemetry_sample.c **** 
 209:Source/iothub_ll_telemetry_sample.c ****                 // The message is copied to the sdk so the we can destroy it
 210:Source/iothub_ll_telemetry_sample.c ****                 IoTHubMessage_Destroy(message_handle);
 166              		.loc 1 210 0
 167 00a6 3000     		movs	r0, r6
 168 00a8 FFF7FEFF 		bl	IoTHubMessage_Destroy
 169              	.LVL22:
 170 00ac 06E0     		b	.L5
 171              	.LVL23:
 172              	.L4:
 211:Source/iothub_ll_telemetry_sample.c **** 
 212:Source/iothub_ll_telemetry_sample.c ****                 messages_sent++;
 213:Source/iothub_ll_telemetry_sample.c ****             }
 214:Source/iothub_ll_telemetry_sample.c ****             else if (g_message_count_send_confirmations >= MESSAGE_COUNT)
 173              		.loc 1 214 0
 174 00ae 1E4B     		ldr	r3, .L9+36
 175 00b0 5B68     		ldr	r3, [r3, #4]
 176 00b2 042B     		cmp	r3, #4
 177 00b4 02D9     		bls	.L5
 215:Source/iothub_ll_telemetry_sample.c ****             {
 216:Source/iothub_ll_telemetry_sample.c ****                 // After all messages are all received stop running
 217:Source/iothub_ll_telemetry_sample.c ****                 g_continueRunning = false;
 178              		.loc 1 217 0
 179 00b6 0022     		movs	r2, #0
 180 00b8 274B     		ldr	r3, .L9+84
 181 00ba 1A70     		strb	r2, [r3]
 182              	.L5:
 218:Source/iothub_ll_telemetry_sample.c ****             }
 219:Source/iothub_ll_telemetry_sample.c **** 
 220:Source/iothub_ll_telemetry_sample.c ****             IoTHubDeviceClient_LL_DoWork(device_ll_handle);
 183              		.loc 1 220 0
 184 00bc 2800     		movs	r0, r5
 185 00be FFF7FEFF 		bl	IoTHubDeviceClient_LL_DoWork
 186              	.LVL24:
 221:Source/iothub_ll_telemetry_sample.c ****             ThreadAPI_Sleep(1);
 187              		.loc 1 221 0
 188 00c2 0120     		movs	r0, #1
 189 00c4 FFF7FEFF 		bl	ThreadAPI_Sleep
 190              	.LVL25:
 222:Source/iothub_ll_telemetry_sample.c **** 
 223:Source/iothub_ll_telemetry_sample.c ****         } while (g_continueRunning);
 191              		.loc 1 223 0
 192 00c8 234B     		ldr	r3, .L9+84
 193 00ca 1B78     		ldrb	r3, [r3]
 194 00cc 002B     		cmp	r3, #0
 195 00ce D5D1     		bne	.L6
 224:Source/iothub_ll_telemetry_sample.c **** 
 225:Source/iothub_ll_telemetry_sample.c ****         // Clean up the iothub sdk handle
 226:Source/iothub_ll_telemetry_sample.c ****         IoTHubDeviceClient_LL_Destroy(device_ll_handle);
 196              		.loc 1 226 0
 197 00d0 2800     		movs	r0, r5
 198 00d2 FFF7FEFF 		bl	IoTHubDeviceClient_LL_Destroy
 199              	.LVL26:
 200              	.L3:
 201              	.LBE10:
ARM GAS  C:\Users\Phuong\AppData\Local\Temp\cc5oMiPC.s 			page 10


 227:Source/iothub_ll_telemetry_sample.c ****     }
 228:Source/iothub_ll_telemetry_sample.c ****     // Free all the sdk subsystem
 229:Source/iothub_ll_telemetry_sample.c ****     IoTHub_Deinit();
 202              		.loc 1 229 0
 203 00d6 FFF7FEFF 		bl	IoTHub_Deinit
 204              	.LVL27:
 230:Source/iothub_ll_telemetry_sample.c **** 
 231:Source/iothub_ll_telemetry_sample.c ****     printf("Press any key to continue");
 205              		.loc 1 231 0
 206 00da 2048     		ldr	r0, .L9+88
 207 00dc FFF7FEFF 		bl	printf
 208              	.LVL28:
 232:Source/iothub_ll_telemetry_sample.c ****     getchar();
 209              		.loc 1 232 0
 210 00e0 1F4B     		ldr	r3, .L9+92
 211 00e2 1868     		ldr	r0, [r3]
 212 00e4 4268     		ldr	r2, [r0, #4]
 213 00e6 5368     		ldr	r3, [r2, #4]
 214 00e8 013B     		subs	r3, r3, #1
 215 00ea 5360     		str	r3, [r2, #4]
 216 00ec 002B     		cmp	r3, #0
 217 00ee 03DA     		bge	.L7
 218              		.loc 1 232 0 is_stmt 0 discriminator 1
 219 00f0 4168     		ldr	r1, [r0, #4]
 220 00f2 FFF7FEFF 		bl	__srget_r
 221              	.LVL29:
 222 00f6 03E0     		b	.L1
 223              	.L7:
 224              		.loc 1 232 0 discriminator 2
 225 00f8 4268     		ldr	r2, [r0, #4]
 226 00fa 1368     		ldr	r3, [r2]
 227 00fc 0133     		adds	r3, r3, #1
 228 00fe 1360     		str	r3, [r2]
 229              	.L1:
 233:Source/iothub_ll_telemetry_sample.c **** 
 234:Source/iothub_ll_telemetry_sample.c ****    // return 0;
 235:Source/iothub_ll_telemetry_sample.c **** }
 230              		.loc 1 235 0 is_stmt 1
 231 0100 06B0     		add	sp, sp, #24
 232              		@ sp needed
 233              	.LVL30:
 234 0102 70BD     		pop	{r4, r5, r6, pc}
 235              	.L10:
 236              		.align	2
 237              	.L9:
 238 0104 00000000 		.word	ipaddr_slip
 239 0108 C0A841E9 		.word	-381572928
 240 010c 00000000 		.word	gw_slip
 241 0110 C0A84101 		.word	21080256
 242 0114 00000000 		.word	netmask_slip
 243 0118 FFFFFF00 		.word	16777215
 244 011c 00000000 		.word	slipif
 245 0120 00000000 		.word	ip4_input
 246 0124 00000000 		.word	slipif_init
 247 0128 00000000 		.word	.LANCHOR0
 248 012c 00000000 		.word	.LC7
 249 0130 00000000 		.word	AMQP_Protocol
ARM GAS  C:\Users\Phuong\AppData\Local\Temp\cc5oMiPC.s 			page 11


 250 0134 20000000 		.word	.LC10
 251 0138 9C000000 		.word	.LC12
 252 013c E4000000 		.word	.LC14
 253 0140 1C010000 		.word	.LC16
 254 0144 28010000 		.word	.LC18
 255 0148 3C010000 		.word	.LC20
 256 014c 4C010000 		.word	.LC22
 257 0150 5C010000 		.word	.LC24
 258 0154 00000000 		.word	send_confirm_callback
 259 0158 00000000 		.word	.LANCHOR1
 260 015c 7C010000 		.word	.LC28
 261 0160 00000000 		.word	_impure_ptr
 262              		.cfi_endproc
 263              	.LFE468:
 264              		.size	azure, .-azure
 265              		.section	.text.send_confirm_callback,"ax",%progbits
 266              		.align	2
 267              		.code	16
 268              		.thumb_func
 269              		.type	send_confirm_callback, %function
 270              	send_confirm_callback:
 271              	.LFB466:
  91:Source/iothub_ll_telemetry_sample.c ****     (void)userContextCallback;
 272              		.loc 1 91 0
 273              		.cfi_startproc
 274              		@ args = 0, pretend = 0, frame = 0
 275              		@ frame_needed = 0, uses_anonymous_args = 0
 276              	.LVL31:
 277 0000 10B5     		push	{r4, lr}
 278              		.cfi_def_cfa_offset 8
 279              		.cfi_offset 4, -8
 280              		.cfi_offset 14, -4
  94:Source/iothub_ll_telemetry_sample.c ****     (void)printf("Confirmation callback received for message %zu with result %s\r\n", g_message_cou
 281              		.loc 1 94 0
 282 0002 064B     		ldr	r3, .L12
 283 0004 5A68     		ldr	r2, [r3, #4]
 284 0006 541C     		adds	r4, r2, #1
 285 0008 5C60     		str	r4, [r3, #4]
  95:Source/iothub_ll_telemetry_sample.c **** }
 286              		.loc 1 95 0
 287 000a FFF7FEFF 		bl	IOTHUB_CLIENT_CONFIRMATION_RESULTStrings
 288              	.LVL32:
 289 000e 0200     		movs	r2, r0
 290 0010 2100     		movs	r1, r4
 291 0012 0348     		ldr	r0, .L12+4
 292 0014 FFF7FEFF 		bl	printf
 293              	.LVL33:
  96:Source/iothub_ll_telemetry_sample.c **** 
 294              		.loc 1 96 0
 295              		@ sp needed
 296 0018 10BD     		pop	{r4, pc}
 297              	.L13:
 298 001a C046     		.align	2
 299              	.L12:
 300 001c 00000000 		.word	.LANCHOR0
 301 0020 98010000 		.word	.LC32
 302              		.cfi_endproc
ARM GAS  C:\Users\Phuong\AppData\Local\Temp\cc5oMiPC.s 			page 12


 303              	.LFE466:
 304              		.size	send_confirm_callback, .-send_confirm_callback
 305              		.section	.text.main,"ax",%progbits
 306              		.align	2
 307              		.global	main
 308              		.code	16
 309              		.thumb_func
 310              		.type	main, %function
 311              	main:
 312              	.LFB469:
 236:Source/iothub_ll_telemetry_sample.c **** 
 237:Source/iothub_ll_telemetry_sample.c **** int main(void)
 238:Source/iothub_ll_telemetry_sample.c **** {
 313              		.loc 1 238 0
 314              		.cfi_startproc
 315              		@ Volatile: function does not return.
 316              		@ args = 0, pretend = 0, frame = 0
 317              		@ frame_needed = 0, uses_anonymous_args = 0
 318 0000 00B5     		push	{lr}
 319              		.cfi_def_cfa_offset 4
 320              		.cfi_offset 14, -4
 321 0002 83B0     		sub	sp, sp, #12
 322              		.cfi_def_cfa_offset 16
 323              	.LBB11:
 324              	.LBB12:
 325              		.loc 2 85 0
 326              		.syntax divided
 327              	@ 85 "Generated_Source\PSoC6\pdl\cmsis/include/cmsis_gcc.h" 1
 328 0004 62B6     		cpsie i
 329              	@ 0 "" 2
 330              		.thumb
 331              		.syntax unified
 332              	.LBE12:
 333              	.LBE11:
 239:Source/iothub_ll_telemetry_sample.c ****    // UART_Start();
 240:Source/iothub_ll_telemetry_sample.c ****    // Cy_SCB_UART_Put(UART_1_HW, 'c');
 241:Source/iothub_ll_telemetry_sample.c ****     __enable_irq();
 242:Source/iothub_ll_telemetry_sample.c ****     xTaskCreate(azure,"azure",6144,0,1,0);
 334              		.loc 1 242 0
 335 0006 0023     		movs	r3, #0
 336 0008 0193     		str	r3, [sp, #4]
 337 000a 0133     		adds	r3, r3, #1
 338 000c 0093     		str	r3, [sp]
 339 000e 0023     		movs	r3, #0
 340 0010 C022     		movs	r2, #192
 341 0012 5201     		lsls	r2, r2, #5
 342 0014 0649     		ldr	r1, .L16
 343 0016 0748     		ldr	r0, .L16+4
 344 0018 FFF7FEFF 		bl	xTaskCreate
 345              	.LVL34:
 243:Source/iothub_ll_telemetry_sample.c ****     //memfreeHeap = xPortGetFreeHeapSize();
 244:Source/iothub_ll_telemetry_sample.c ****         //memfreeStack = uxTaskGetStackHighWaterMark(&xHandle);
 245:Source/iothub_ll_telemetry_sample.c ****         
 246:Source/iothub_ll_telemetry_sample.c ****         printf("memory free : %u %u", memfreeHeap, memfreeStack);
 346              		.loc 1 246 0
 347 001c 064B     		ldr	r3, .L16+8
 348 001e 1A68     		ldr	r2, [r3]
ARM GAS  C:\Users\Phuong\AppData\Local\Temp\cc5oMiPC.s 			page 13


 349 0020 064B     		ldr	r3, .L16+12
 350 0022 1968     		ldr	r1, [r3]
 351 0024 0648     		ldr	r0, .L16+16
 352 0026 FFF7FEFF 		bl	printf
 353              	.LVL35:
 247:Source/iothub_ll_telemetry_sample.c ****     vTaskStartScheduler();
 354              		.loc 1 247 0
 355 002a FFF7FEFF 		bl	vTaskStartScheduler
 356              	.LVL36:
 357              	.L15:
 358 002e FEE7     		b	.L15
 359              	.L17:
 360              		.align	2
 361              	.L16:
 362 0030 D8010000 		.word	.LC34
 363 0034 00000000 		.word	azure
 364 0038 00000000 		.word	memfreeStack
 365 003c 00000000 		.word	memfreeHeap
 366 0040 E0010000 		.word	.LC39
 367              		.cfi_endproc
 368              	.LFE469:
 369              		.size	main, .-main
 370              		.section	.text.vApplicationMallocFailedHook,"ax",%progbits
 371              		.align	2
 372              		.global	vApplicationMallocFailedHook
 373              		.code	16
 374              		.thumb_func
 375              		.type	vApplicationMallocFailedHook, %function
 376              	vApplicationMallocFailedHook:
 377              	.LFB470:
 248:Source/iothub_ll_telemetry_sample.c ****     while(1);
 249:Source/iothub_ll_telemetry_sample.c **** }
 250:Source/iothub_ll_telemetry_sample.c **** 
 251:Source/iothub_ll_telemetry_sample.c **** void vApplicationMallocFailedHook (void)
 252:Source/iothub_ll_telemetry_sample.c **** {
 378              		.loc 1 252 0
 379              		.cfi_startproc
 380              		@ Volatile: function does not return.
 381              		@ args = 0, pretend = 0, frame = 0
 382              		@ frame_needed = 0, uses_anonymous_args = 0
 383 0000 10B5     		push	{r4, lr}
 384              		.cfi_def_cfa_offset 8
 385              		.cfi_offset 4, -8
 386              		.cfi_offset 14, -4
 253:Source/iothub_ll_telemetry_sample.c ****     printf("Heap Overflow\r\n");
 387              		.loc 1 253 0
 388 0002 0248     		ldr	r0, .L20
 389 0004 FFF7FEFF 		bl	puts
 390              	.LVL37:
 391              	.L19:
 392 0008 FEE7     		b	.L19
 393              	.L21:
 394 000a C046     		.align	2
 395              	.L20:
 396 000c F4010000 		.word	.LC41
 397              		.cfi_endproc
 398              	.LFE470:
ARM GAS  C:\Users\Phuong\AppData\Local\Temp\cc5oMiPC.s 			page 14


 399              		.size	vApplicationMallocFailedHook, .-vApplicationMallocFailedHook
 400              		.section	.text.vApplicationStackOverflowHook,"ax",%progbits
 401              		.align	2
 402              		.global	vApplicationStackOverflowHook
 403              		.code	16
 404              		.thumb_func
 405              		.type	vApplicationStackOverflowHook, %function
 406              	vApplicationStackOverflowHook:
 407              	.LFB471:
 254:Source/iothub_ll_telemetry_sample.c ****     while(1);
 255:Source/iothub_ll_telemetry_sample.c **** }
 256:Source/iothub_ll_telemetry_sample.c **** 
 257:Source/iothub_ll_telemetry_sample.c **** void vApplicationStackOverflowHook( TaskHandle_t xTask, char *pcTaskName )
 258:Source/iothub_ll_telemetry_sample.c **** {
 408              		.loc 1 258 0
 409              		.cfi_startproc
 410              		@ Volatile: function does not return.
 411              		@ args = 0, pretend = 0, frame = 0
 412              		@ frame_needed = 0, uses_anonymous_args = 0
 413              	.LVL38:
 414 0000 10B5     		push	{r4, lr}
 415              		.cfi_def_cfa_offset 8
 416              		.cfi_offset 4, -8
 417              		.cfi_offset 14, -4
 259:Source/iothub_ll_telemetry_sample.c ****     printf("Stack Overflow\r\n");
 418              		.loc 1 259 0
 419 0002 0248     		ldr	r0, .L24
 420              	.LVL39:
 421 0004 FFF7FEFF 		bl	puts
 422              	.LVL40:
 423              	.L23:
 424 0008 FEE7     		b	.L23
 425              	.L25:
 426 000a C046     		.align	2
 427              	.L24:
 428 000c 04020000 		.word	.LC43
 429              		.cfi_endproc
 430              	.LFE471:
 431              		.size	vApplicationStackOverflowHook, .-vApplicationStackOverflowHook
 432              		.comm	memfreeStack,4,4
 433              		.comm	memfreeHeap,4,4
 434              		.comm	slipif,72,4
 435              		.global	num_slip
 436              		.comm	gw_slip,4,4
 437              		.comm	netmask_slip,4,4
 438              		.comm	ipaddr_slip,4,4
 439              		.data
 440              		.set	.LANCHOR1,. + 0
 441              		.type	g_continueRunning, %object
 442              		.size	g_continueRunning, 1
 443              	g_continueRunning:
 444 0000 01       		.byte	1
 445              		.section	.rodata.str1.4,"aMS",%progbits,1
 446              		.align	2
 447              	.LC7:
 448 0000 43726561 		.ascii	"Creating IoTHub Device handle\015\000"
 448      74696E67 
ARM GAS  C:\Users\Phuong\AppData\Local\Temp\cc5oMiPC.s 			page 15


 448      20496F54 
 448      48756220 
 448      44657669 
 449 001f 00       		.space	1
 450              	.LC10:
 451 0020 486F7374 		.ascii	"HostName=IoTSDKPortTesting.azure-devices.net;Device"
 451      4E616D65 
 451      3D496F54 
 451      53444B50 
 451      6F727454 
 452 0053 49643D64 		.ascii	"Id=dev-test;SharedAccessKey=//qJeu0wPiLEpy9PbeibmA8"
 452      65762D74 
 452      6573743B 
 452      53686172 
 452      65644163 
 453 0086 494C7838 		.ascii	"ILx8afrpbZUmtXPke5pM=\000"
 453      61667270 
 453      625A556D 
 453      7458506B 
 453      6535704D 
 454              	.LC12:
 455 009c 4661696C 		.ascii	"Failure creating Iothub device.  Hint: Check you co"
 455      75726520 
 455      63726561 
 455      74696E67 
 455      20496F74 
 456 00cf 6E6E6563 		.ascii	"nnection string.\015\000"
 456      74696F6E 
 456      20737472 
 456      696E672E 
 456      0D00
 457 00e1 000000   		.space	3
 458              	.LC14:
 459 00e4 50534F43 		.ascii	"PSOC6---Set_the_option_for_iothub_client_ll---PSOC6"
 459      362D2D2D 
 459      5365745F 
 459      7468655F 
 459      6F707469 
 460 0117 0D00     		.ascii	"\015\000"
 461 0119 000000   		.space	3
 462              	.LC16:
 463 011c 6C6F6774 		.ascii	"logtrace\000"
 463      72616365 
 463      00
 464 0125 000000   		.space	3
 465              	.LC18:
 466 0128 54656C65 		.ascii	"Telemetry_Data_Test\000"
 466      6D657472 
 466      795F4461 
 466      74615F54 
 466      65737400 
 467              	.LC20:
 468 013c 70726F70 		.ascii	"property_value\000"
 468      65727479 
 468      5F76616C 
 468      756500
 469 014b 00       		.space	1
ARM GAS  C:\Users\Phuong\AppData\Local\Temp\cc5oMiPC.s 			page 16


 470              	.LC22:
 471 014c 70726F70 		.ascii	"property_key\000"
 471      65727479 
 471      5F6B6579 
 471      00
 472 0159 000000   		.space	3
 473              	.LC24:
 474 015c 53656E64 		.ascii	"Sending message %d to IoTHub\015\012\000"
 474      696E6720 
 474      6D657373 
 474      61676520 
 474      25642074 
 475 017b 00       		.space	1
 476              	.LC28:
 477 017c 50726573 		.ascii	"Press any key to continue\000"
 477      7320616E 
 477      79206B65 
 477      7920746F 
 477      20636F6E 
 478 0196 0000     		.space	2
 479              	.LC32:
 480 0198 436F6E66 		.ascii	"Confirmation callback received for message %zu with"
 480      69726D61 
 480      74696F6E 
 480      2063616C 
 480      6C626163 
 481 01cb 20726573 		.ascii	" result %s\015\012\000"
 481      756C7420 
 481      25730D0A 
 481      00
 482              	.LC34:
 483 01d8 617A7572 		.ascii	"azure\000"
 483      6500
 484 01de 0000     		.space	2
 485              	.LC39:
 486 01e0 6D656D6F 		.ascii	"memory free : %u %u\000"
 486      72792066 
 486      72656520 
 486      3A202575 
 486      20257500 
 487              	.LC41:
 488 01f4 48656170 		.ascii	"Heap Overflow\015\000"
 488      204F7665 
 488      72666C6F 
 488      770D00
 489 0203 00       		.space	1
 490              	.LC43:
 491 0204 53746163 		.ascii	"Stack Overflow\015\000"
 491      6B204F76 
 491      6572666C 
 491      6F770D00 
 492              		.bss
 493              		.align	2
 494              		.set	.LANCHOR0,. + 0
 495              		.type	num_slip, %object
 496              		.size	num_slip, 1
 497              	num_slip:
ARM GAS  C:\Users\Phuong\AppData\Local\Temp\cc5oMiPC.s 			page 17


 498 0000 00       		.space	1
 499 0001 000000   		.space	3
 500              		.type	g_message_count_send_confirmations, %object
 501              		.size	g_message_count_send_confirmations, 4
 502              	g_message_count_send_confirmations:
 503 0004 00000000 		.space	4
 504              		.text
 505              	.Letext0:
 506              		.file 3 "c:\\program files (x86)\\cypress\\psoc creator\\4.2\\psoc creator\\import\\gnu\\arm\\5.4.
 507              		.file 4 "c:\\program files (x86)\\cypress\\psoc creator\\4.2\\psoc creator\\import\\gnu\\arm\\5.4.
 508              		.file 5 "c:\\program files (x86)\\cypress\\psoc creator\\4.2\\psoc creator\\import\\gnu\\arm\\5.4.
 509              		.file 6 "c:\\program files (x86)\\cypress\\psoc creator\\4.2\\psoc creator\\import\\gnu\\arm\\5.4.
 510              		.file 7 "c:\\program files (x86)\\cypress\\psoc creator\\4.2\\psoc creator\\import\\gnu\\arm\\5.4.
 511              		.file 8 "c:\\program files (x86)\\cypress\\psoc creator\\4.2\\psoc creator\\import\\gnu\\arm\\5.4.
 512              		.file 9 ".\\Source\\FreeRTOS\\10.0.1\\Source\\include/task.h"
 513              		.file 10 ".\\Source\\LwIP\\src\\include/arch/cc.h"
 514              		.file 11 ".\\Source\\LwIP\\src\\include/lwip/err.h"
 515              		.file 12 ".\\Source\\LwIP\\src\\include/lwip/pbuf.h"
 516              		.file 13 ".\\Source\\LwIP\\src\\include/lwip/ip4_addr.h"
 517              		.file 14 ".\\Source\\LwIP\\src\\include/lwip/ip_addr.h"
 518              		.file 15 ".\\Source\\LwIP\\src\\include/lwip/netif.h"
 519              		.file 16 ".\\Source\\LwIP\\src\\include/lwip/memp.h"
 520              		.file 17 "Generated_Source\\PSoC6\\pdl\\drivers/peripheral/scb/cy_scb_i2c.h"
 521              		.file 18 "Generated_Source\\PSoC6\\pdl\\drivers/peripheral/scb/cy_scb_uart.h"
 522              		.file 19 ".\\Source\\azure_iot_sdk\\iothub_client\\inc/iothub_transport_ll.h"
 523              		.file 20 ".\\Source\\azure_iot_sdk\\iothub_client\\inc/iothub_message.h"
 524              		.file 21 ".\\Source\\azure_iot_sdk\\iothub_client\\inc/iothub_client_core_common.h"
 525              		.file 22 ".\\Source\\azure_iot_sdk\\iothub_client\\inc/iothub_device_client_ll.h"
 526              		.file 23 ".\\Source\\azure_iot_sdk\\iothub_client\\inc/iothub_client_options.h"
 527              		.file 24 ".\\Source\\azure_iot_sdk\\c-utility\\inc/azure_c_shared_utility/shared_util_options.h"
 528              		.file 25 "Generated_Source\\PSoC6/UART_1.h"
 529              		.file 26 "Generated_Source\\PSoC6/I2C.h"
 530              		.file 27 "Generated_Source\\PSoC6/UART_2.h"
 531              		.file 28 "c:\\program files (x86)\\cypress\\psoc creator\\4.2\\psoc creator\\import\\gnu\\arm\\5.4
 532              		.file 29 ".\\Source\\azure_iot_sdk\\c-utility\\inc/azure_c_shared_utility/threadapi.h"
 533              		.file 30 ".\\Source\\LwIP\\src\\include/lwip/tcpip.h"
 534              		.file 31 ".\\Source\\azure_iot_sdk\\iothub_client\\inc/iothub.h"
 535              		.file 32 "<built-in>"