ARM GAS  C:\Users\Phuong\AppData\Local\Temp\ccVjqX8s.s 			page 1


   1              		.syntax unified
   2              		.cpu cortex-m0plus
   3              		.fpu softvfp
   4              		.eabi_attribute 20, 1
   5              		.eabi_attribute 21, 1
   6              		.eabi_attribute 23, 3
   7              		.eabi_attribute 24, 1
   8              		.eabi_attribute 25, 1
   9              		.eabi_attribute 26, 1
  10              		.eabi_attribute 30, 1
  11              		.eabi_attribute 34, 0
  12              		.eabi_attribute 18, 4
  13              		.thumb
  14              		.syntax unified
  15              		.file	"iothub_client_authorization.c"
  16              		.text
  17              	.Ltext0:
  18              		.cfi_sections	.debug_frame
  19              		.global	__aeabi_d2uiz
  20              		.section	.text.get_seconds_since_epoch,"ax",%progbits
  21              		.align	2
  22              		.code	16
  23              		.thumb_func
  24              		.type	get_seconds_since_epoch, %function
  25              	get_seconds_since_epoch:
  26              	.LFB1:
  27              		.file 1 "Source\\azure_iot_sdk\\iothub_client\\src\\iothub_client_authorization.c"
   1:Source\azure_iot_sdk\iothub_client\src/iothub_client_authorization.c **** // Copyright (c) Microsoft. All rights reserved.
   2:Source\azure_iot_sdk\iothub_client\src/iothub_client_authorization.c **** // Licensed under the MIT license. See LICENSE file in the project root for full license informatio
   3:Source\azure_iot_sdk\iothub_client\src/iothub_client_authorization.c **** 
   4:Source\azure_iot_sdk\iothub_client\src/iothub_client_authorization.c **** #include <stdlib.h>
   5:Source\azure_iot_sdk\iothub_client\src/iothub_client_authorization.c **** #include "azure_c_shared_utility/gballoc.h"
   6:Source\azure_iot_sdk\iothub_client\src/iothub_client_authorization.c **** #include "azure_c_shared_utility/macro_utils.h"
   7:Source\azure_iot_sdk\iothub_client\src/iothub_client_authorization.c **** #include "azure_c_shared_utility/umock_c_prod.h"
   8:Source\azure_iot_sdk\iothub_client\src/iothub_client_authorization.c **** #include "azure_c_shared_utility/crt_abstractions.h"
   9:Source\azure_iot_sdk\iothub_client\src/iothub_client_authorization.c **** #include "azure_c_shared_utility/agenttime.h"
  10:Source\azure_iot_sdk\iothub_client\src/iothub_client_authorization.c **** #include "azure_c_shared_utility/xlogging.h"
  11:Source\azure_iot_sdk\iothub_client\src/iothub_client_authorization.c **** #include "azure_c_shared_utility/strings.h"
  12:Source\azure_iot_sdk\iothub_client\src/iothub_client_authorization.c **** #include "azure_c_shared_utility/sastoken.h"
  13:Source\azure_iot_sdk\iothub_client\src/iothub_client_authorization.c **** #include "azure_c_shared_utility/shared_util_options.h"
  14:Source\azure_iot_sdk\iothub_client\src/iothub_client_authorization.c **** 
  15:Source\azure_iot_sdk\iothub_client\src/iothub_client_authorization.c **** #ifdef USE_PROV_MODULE
  16:Source\azure_iot_sdk\iothub_client\src/iothub_client_authorization.c **** #include "azure_prov_client/internal/iothub_auth_client.h"
  17:Source\azure_iot_sdk\iothub_client\src/iothub_client_authorization.c **** #endif
  18:Source\azure_iot_sdk\iothub_client\src/iothub_client_authorization.c **** 
  19:Source\azure_iot_sdk\iothub_client\src/iothub_client_authorization.c **** #include "internal/iothub_client_authorization.h"
  20:Source\azure_iot_sdk\iothub_client\src/iothub_client_authorization.c **** 
  21:Source\azure_iot_sdk\iothub_client\src/iothub_client_authorization.c **** #define DEFAULT_SAS_TOKEN_EXPIRY_TIME_SECS          3600
  22:Source\azure_iot_sdk\iothub_client\src/iothub_client_authorization.c **** #define INDEFINITE_TIME                             ((time_t)(-1))
  23:Source\azure_iot_sdk\iothub_client\src/iothub_client_authorization.c **** 
  24:Source\azure_iot_sdk\iothub_client\src/iothub_client_authorization.c **** typedef struct IOTHUB_AUTHORIZATION_DATA_TAG
  25:Source\azure_iot_sdk\iothub_client\src/iothub_client_authorization.c **** {
  26:Source\azure_iot_sdk\iothub_client\src/iothub_client_authorization.c ****     char* device_sas_token;
  27:Source\azure_iot_sdk\iothub_client\src/iothub_client_authorization.c ****     char* device_key;
  28:Source\azure_iot_sdk\iothub_client\src/iothub_client_authorization.c ****     char* device_id;
  29:Source\azure_iot_sdk\iothub_client\src/iothub_client_authorization.c ****     char* module_id;
  30:Source\azure_iot_sdk\iothub_client\src/iothub_client_authorization.c ****     size_t token_expiry_time_sec;
ARM GAS  C:\Users\Phuong\AppData\Local\Temp\ccVjqX8s.s 			page 2


  31:Source\azure_iot_sdk\iothub_client\src/iothub_client_authorization.c ****     IOTHUB_CREDENTIAL_TYPE cred_type;
  32:Source\azure_iot_sdk\iothub_client\src/iothub_client_authorization.c **** #ifdef USE_PROV_MODULE
  33:Source\azure_iot_sdk\iothub_client\src/iothub_client_authorization.c ****     IOTHUB_SECURITY_HANDLE device_auth_handle;
  34:Source\azure_iot_sdk\iothub_client\src/iothub_client_authorization.c **** #endif
  35:Source\azure_iot_sdk\iothub_client\src/iothub_client_authorization.c **** } IOTHUB_AUTHORIZATION_DATA;
  36:Source\azure_iot_sdk\iothub_client\src/iothub_client_authorization.c **** 
  37:Source\azure_iot_sdk\iothub_client\src/iothub_client_authorization.c **** static int get_seconds_since_epoch(size_t* seconds)
  38:Source\azure_iot_sdk\iothub_client\src/iothub_client_authorization.c **** {
  28              		.loc 1 38 0
  29              		.cfi_startproc
  30              		@ args = 0, pretend = 0, frame = 0
  31              		@ frame_needed = 0, uses_anonymous_args = 0
  32              	.LVL0:
  33 0000 10B5     		push	{r4, lr}
  34              		.cfi_def_cfa_offset 8
  35              		.cfi_offset 4, -8
  36              		.cfi_offset 14, -4
  37 0002 82B0     		sub	sp, sp, #8
  38              		.cfi_def_cfa_offset 16
  39 0004 0400     		movs	r4, r0
  39:Source\azure_iot_sdk\iothub_client\src/iothub_client_authorization.c ****     int result;
  40:Source\azure_iot_sdk\iothub_client\src/iothub_client_authorization.c ****     time_t current_time;
  41:Source\azure_iot_sdk\iothub_client\src/iothub_client_authorization.c ****     if ((current_time = get_time(NULL)) == INDEFINITE_TIME)
  40              		.loc 1 41 0
  41 0006 0020     		movs	r0, #0
  42              	.LVL1:
  43 0008 FFF7FEFF 		bl	get_time
  44              	.LVL2:
  45 000c 431C     		adds	r3, r0, #1
  46 000e 0ED1     		bne	.L2
  47              	.LBB2:
  42:Source\azure_iot_sdk\iothub_client\src/iothub_client_authorization.c ****     {
  43:Source\azure_iot_sdk\iothub_client\src/iothub_client_authorization.c ****         LogError("Failed getting the current local time (get_time() failed)");
  48              		.loc 1 43 0 discriminator 3
  49 0010 FFF7FEFF 		bl	xlogging_get_log_function
  50              	.LVL3:
  51 0014 041E     		subs	r4, r0, #0
  52              	.LVL4:
  53 0016 12D0     		beq	.L4
  54              		.loc 1 43 0 is_stmt 0 discriminator 4
  55 0018 0A4B     		ldr	r3, .L5
  56 001a 0193     		str	r3, [sp, #4]
  57 001c 0123     		movs	r3, #1
  58 001e 0093     		str	r3, [sp]
  59 0020 2A33     		adds	r3, r3, #42
  60 0022 094A     		ldr	r2, .L5+4
  61 0024 0949     		ldr	r1, .L5+8
  62 0026 0020     		movs	r0, #0
  63              	.LVL5:
  64 0028 A047     		blx	r4
  65              	.LVL6:
  66              	.LBE2:
  44:Source\azure_iot_sdk\iothub_client\src/iothub_client_authorization.c ****         result = __FAILURE__;
  67              		.loc 1 44 0 is_stmt 1 discriminator 4
  68 002a 2C20     		movs	r0, #44
  69 002c 08E0     		b	.L3
  70              	.LVL7:
ARM GAS  C:\Users\Phuong\AppData\Local\Temp\ccVjqX8s.s 			page 3


  71              	.L2:
  45:Source\azure_iot_sdk\iothub_client\src/iothub_client_authorization.c ****     }
  46:Source\azure_iot_sdk\iothub_client\src/iothub_client_authorization.c ****     else
  47:Source\azure_iot_sdk\iothub_client\src/iothub_client_authorization.c ****     {
  48:Source\azure_iot_sdk\iothub_client\src/iothub_client_authorization.c ****         *seconds = (size_t)get_difftime(current_time, (time_t)0);
  72              		.loc 1 48 0
  73 002e 0021     		movs	r1, #0
  74 0030 FFF7FEFF 		bl	get_difftime
  75              	.LVL8:
  76 0034 FFF7FEFF 		bl	__aeabi_d2uiz
  77              	.LVL9:
  78 0038 2060     		str	r0, [r4]
  79              	.LVL10:
  49:Source\azure_iot_sdk\iothub_client\src/iothub_client_authorization.c ****         result = 0;
  80              		.loc 1 49 0
  81 003a 0020     		movs	r0, #0
  82 003c 00E0     		b	.L3
  83              	.LVL11:
  84              	.L4:
  44:Source\azure_iot_sdk\iothub_client\src/iothub_client_authorization.c ****         result = __FAILURE__;
  85              		.loc 1 44 0
  86 003e 2C20     		movs	r0, #44
  87              	.LVL12:
  88              	.L3:
  50:Source\azure_iot_sdk\iothub_client\src/iothub_client_authorization.c ****     }
  51:Source\azure_iot_sdk\iothub_client\src/iothub_client_authorization.c ****     return result;
  52:Source\azure_iot_sdk\iothub_client\src/iothub_client_authorization.c **** }
  89              		.loc 1 52 0
  90 0040 02B0     		add	sp, sp, #8
  91              		@ sp needed
  92 0042 10BD     		pop	{r4, pc}
  93              	.L6:
  94              		.align	2
  95              	.L5:
  96 0044 48000000 		.word	.LC3
  97 0048 00000000 		.word	.LANCHOR0
  98 004c 00000000 		.word	.LC1
  99              		.cfi_endproc
 100              	.LFE1:
 101              		.size	get_seconds_since_epoch, .-get_seconds_since_epoch
 102              		.section	.text.IoTHubClient_Auth_Create,"ax",%progbits
 103              		.align	2
 104              		.global	IoTHubClient_Auth_Create
 105              		.code	16
 106              		.thumb_func
 107              		.type	IoTHubClient_Auth_Create, %function
 108              	IoTHubClient_Auth_Create:
 109              	.LFB2:
  53:Source\azure_iot_sdk\iothub_client\src/iothub_client_authorization.c **** 
  54:Source\azure_iot_sdk\iothub_client\src/iothub_client_authorization.c **** IOTHUB_AUTHORIZATION_HANDLE IoTHubClient_Auth_Create(const char* device_key, const char* device_id,
  55:Source\azure_iot_sdk\iothub_client\src/iothub_client_authorization.c **** {
 110              		.loc 1 55 0
 111              		.cfi_startproc
 112              		@ args = 0, pretend = 0, frame = 8
 113              		@ frame_needed = 0, uses_anonymous_args = 0
 114              	.LVL13:
 115 0000 F0B5     		push	{r4, r5, r6, r7, lr}
ARM GAS  C:\Users\Phuong\AppData\Local\Temp\ccVjqX8s.s 			page 4


 116              		.cfi_def_cfa_offset 20
 117              		.cfi_offset 4, -20
 118              		.cfi_offset 5, -16
 119              		.cfi_offset 6, -12
 120              		.cfi_offset 7, -8
 121              		.cfi_offset 14, -4
 122 0002 87B0     		sub	sp, sp, #28
 123              		.cfi_def_cfa_offset 48
 124 0004 0700     		movs	r7, r0
 125 0006 0D00     		movs	r5, r1
 126 0008 0592     		str	r2, [sp, #20]
 127 000a 1E00     		movs	r6, r3
  56:Source\azure_iot_sdk\iothub_client\src/iothub_client_authorization.c ****     IOTHUB_AUTHORIZATION_DATA* result;
  57:Source\azure_iot_sdk\iothub_client\src/iothub_client_authorization.c ****     /* Codes_SRS_IoTHub_Authorization_07_001: [if device_id is NULL IoTHubClient_Auth_Create, shall
  58:Source\azure_iot_sdk\iothub_client\src/iothub_client_authorization.c ****     if (device_id == NULL)
 128              		.loc 1 58 0
 129 000c 0029     		cmp	r1, #0
 130 000e 11D1     		bne	.L8
 131              	.LBB3:
  59:Source\azure_iot_sdk\iothub_client\src/iothub_client_authorization.c ****     {
  60:Source\azure_iot_sdk\iothub_client\src/iothub_client_authorization.c ****         LogError("Invalid Parameter device_id: %p", device_id);
 132              		.loc 1 60 0 discriminator 3
 133 0010 FFF7FEFF 		bl	xlogging_get_log_function
 134              	.LVL14:
 135 0014 041E     		subs	r4, r0, #0
 136              	.LVL15:
 137 0016 00D1     		bne	.LCB120
 138 0018 B0E0     		b	.L20	@long jump
 139              	.LCB120:
 140              		.loc 1 60 0 is_stmt 0 discriminator 4
 141 001a 0295     		str	r5, [sp, #8]
 142 001c 594B     		ldr	r3, .L21
 143 001e 0193     		str	r3, [sp, #4]
 144 0020 0123     		movs	r3, #1
 145 0022 0093     		str	r3, [sp]
 146 0024 3B33     		adds	r3, r3, #59
 147 0026 584A     		ldr	r2, .L21+4
 148 0028 1832     		adds	r2, r2, #24
 149 002a 5849     		ldr	r1, .L21+8
 150 002c 0020     		movs	r0, #0
 151              	.LVL16:
 152 002e A047     		blx	r4
 153              	.LVL17:
 154              	.LBE3:
  61:Source\azure_iot_sdk\iothub_client\src/iothub_client_authorization.c ****         result = NULL;
 155              		.loc 1 61 0 is_stmt 1 discriminator 4
 156 0030 0024     		movs	r4, #0
 157              	.LVL18:
 158 0032 A4E0     		b	.L9
 159              	.LVL19:
 160              	.L8:
  62:Source\azure_iot_sdk\iothub_client\src/iothub_client_authorization.c ****     }
  63:Source\azure_iot_sdk\iothub_client\src/iothub_client_authorization.c ****     else
  64:Source\azure_iot_sdk\iothub_client\src/iothub_client_authorization.c ****     {
  65:Source\azure_iot_sdk\iothub_client\src/iothub_client_authorization.c ****         /* Codes_SRS_IoTHub_Authorization_07_002: [IoTHubClient_Auth_Create shall allocate a IOTHUB
  66:Source\azure_iot_sdk\iothub_client\src/iothub_client_authorization.c ****         result = (IOTHUB_AUTHORIZATION_DATA*)malloc(sizeof(IOTHUB_AUTHORIZATION_DATA) );
 161              		.loc 1 66 0
ARM GAS  C:\Users\Phuong\AppData\Local\Temp\ccVjqX8s.s 			page 5


 162 0034 1820     		movs	r0, #24
 163              	.LVL20:
 164 0036 FFF7FEFF 		bl	malloc
 165              	.LVL21:
 166 003a 041E     		subs	r4, r0, #0
 167              	.LVL22:
  67:Source\azure_iot_sdk\iothub_client\src/iothub_client_authorization.c ****         if (result == NULL)
 168              		.loc 1 67 0
 169 003c 0FD1     		bne	.L10
 170              	.LBB4:
  68:Source\azure_iot_sdk\iothub_client\src/iothub_client_authorization.c ****         {
  69:Source\azure_iot_sdk\iothub_client\src/iothub_client_authorization.c ****             /* Codes_SRS_IoTHub_Authorization_07_019: [ On error IoTHubClient_Auth_Create shall ret
  70:Source\azure_iot_sdk\iothub_client\src/iothub_client_authorization.c ****             LogError("Failed allocating IOTHUB_AUTHORIZATION_DATA");
 171              		.loc 1 70 0 discriminator 3
 172 003e FFF7FEFF 		bl	xlogging_get_log_function
 173              	.LVL23:
 174 0042 051E     		subs	r5, r0, #0
 175              	.LVL24:
 176 0044 00D1     		bne	.LCB165
 177 0046 9AE0     		b	.L9	@long jump
 178              	.LCB165:
 179              		.loc 1 70 0 is_stmt 0 discriminator 4
 180 0048 514B     		ldr	r3, .L21+12
 181 004a 0193     		str	r3, [sp, #4]
 182 004c 0123     		movs	r3, #1
 183 004e 0093     		str	r3, [sp]
 184 0050 4533     		adds	r3, r3, #69
 185 0052 4D4A     		ldr	r2, .L21+4
 186 0054 1832     		adds	r2, r2, #24
 187 0056 4D49     		ldr	r1, .L21+8
 188 0058 0020     		movs	r0, #0
 189              	.LVL25:
 190 005a A847     		blx	r5
 191              	.LVL26:
 192 005c 8FE0     		b	.L9
 193              	.LVL27:
 194              	.L10:
 195              	.LBE4:
  71:Source\azure_iot_sdk\iothub_client\src/iothub_client_authorization.c ****             result = NULL;
  72:Source\azure_iot_sdk\iothub_client\src/iothub_client_authorization.c ****         }
  73:Source\azure_iot_sdk\iothub_client\src/iothub_client_authorization.c ****         else
  74:Source\azure_iot_sdk\iothub_client\src/iothub_client_authorization.c ****         {
  75:Source\azure_iot_sdk\iothub_client\src/iothub_client_authorization.c ****             memset(result, 0, sizeof(IOTHUB_AUTHORIZATION_DATA) );
 196              		.loc 1 75 0 is_stmt 1
 197 005e 1822     		movs	r2, #24
 198 0060 0021     		movs	r1, #0
 199 0062 FFF7FEFF 		bl	memset
 200              	.LVL28:
  76:Source\azure_iot_sdk\iothub_client\src/iothub_client_authorization.c ****             result->token_expiry_time_sec = DEFAULT_SAS_TOKEN_EXPIRY_TIME_SECS;
 201              		.loc 1 76 0
 202 0066 E123     		movs	r3, #225
 203 0068 1B01     		lsls	r3, r3, #4
 204 006a 2361     		str	r3, [r4, #16]
  77:Source\azure_iot_sdk\iothub_client\src/iothub_client_authorization.c **** 
  78:Source\azure_iot_sdk\iothub_client\src/iothub_client_authorization.c ****             if (device_key != NULL && mallocAndStrcpy_s(&result->device_key, device_key) != 0)
 205              		.loc 1 78 0
 206 006c 002F     		cmp	r7, #0
ARM GAS  C:\Users\Phuong\AppData\Local\Temp\ccVjqX8s.s 			page 6


 207 006e 18D0     		beq	.L11
 208              		.loc 1 78 0 is_stmt 0 discriminator 1
 209 0070 201D     		adds	r0, r4, #4
 210 0072 3900     		movs	r1, r7
 211 0074 FFF7FEFF 		bl	mallocAndStrcpy_s
 212              	.LVL29:
 213 0078 0028     		cmp	r0, #0
 214 007a 12D0     		beq	.L11
 215              	.LBB5:
  79:Source\azure_iot_sdk\iothub_client\src/iothub_client_authorization.c ****             {
  80:Source\azure_iot_sdk\iothub_client\src/iothub_client_authorization.c ****                 /* Codes_SRS_IoTHub_Authorization_07_019: [ On error IoTHubClient_Auth_Create shall
  81:Source\azure_iot_sdk\iothub_client\src/iothub_client_authorization.c ****                 LogError("Failed allocating device_key");
 216              		.loc 1 81 0 is_stmt 1 discriminator 3
 217 007c FFF7FEFF 		bl	xlogging_get_log_function
 218              	.LVL30:
 219 0080 051E     		subs	r5, r0, #0
 220              	.LVL31:
 221 0082 09D0     		beq	.L12
 222              		.loc 1 81 0 is_stmt 0 discriminator 4
 223 0084 434B     		ldr	r3, .L21+16
 224 0086 0193     		str	r3, [sp, #4]
 225 0088 0123     		movs	r3, #1
 226 008a 0093     		str	r3, [sp]
 227 008c 5033     		adds	r3, r3, #80
 228 008e 3E4A     		ldr	r2, .L21+4
 229 0090 1832     		adds	r2, r2, #24
 230 0092 3E49     		ldr	r1, .L21+8
 231 0094 0020     		movs	r0, #0
 232              	.LVL32:
 233 0096 A847     		blx	r5
 234              	.LVL33:
 235              	.L12:
 236              	.LBE5:
  82:Source\azure_iot_sdk\iothub_client\src/iothub_client_authorization.c ****                 free(result);
 237              		.loc 1 82 0 is_stmt 1
 238 0098 2000     		movs	r0, r4
 239 009a FFF7FEFF 		bl	free
 240              	.LVL34:
  83:Source\azure_iot_sdk\iothub_client\src/iothub_client_authorization.c ****                 result = NULL;
 241              		.loc 1 83 0
 242 009e 0024     		movs	r4, #0
 243 00a0 6DE0     		b	.L9
 244              	.LVL35:
 245              	.L11:
  84:Source\azure_iot_sdk\iothub_client\src/iothub_client_authorization.c ****             }
  85:Source\azure_iot_sdk\iothub_client\src/iothub_client_authorization.c ****             else if (mallocAndStrcpy_s(&result->device_id, device_id) != 0)
 246              		.loc 1 85 0
 247 00a2 2000     		movs	r0, r4
 248 00a4 0830     		adds	r0, r0, #8
 249 00a6 2900     		movs	r1, r5
 250 00a8 FFF7FEFF 		bl	mallocAndStrcpy_s
 251              	.LVL36:
 252 00ac 0028     		cmp	r0, #0
 253 00ae 15D0     		beq	.L13
 254              	.LBB6:
  86:Source\azure_iot_sdk\iothub_client\src/iothub_client_authorization.c ****             {
  87:Source\azure_iot_sdk\iothub_client\src/iothub_client_authorization.c ****                 /* Codes_SRS_IoTHub_Authorization_07_019: [ On error IoTHubClient_Auth_Create shall
ARM GAS  C:\Users\Phuong\AppData\Local\Temp\ccVjqX8s.s 			page 7


  88:Source\azure_iot_sdk\iothub_client\src/iothub_client_authorization.c ****                 LogError("Failed allocating device_key");
 255              		.loc 1 88 0 discriminator 3
 256 00b0 FFF7FEFF 		bl	xlogging_get_log_function
 257              	.LVL37:
 258 00b4 051E     		subs	r5, r0, #0
 259              	.LVL38:
 260 00b6 09D0     		beq	.L14
 261              		.loc 1 88 0 is_stmt 0 discriminator 4
 262 00b8 364B     		ldr	r3, .L21+16
 263 00ba 0193     		str	r3, [sp, #4]
 264 00bc 0123     		movs	r3, #1
 265 00be 0093     		str	r3, [sp]
 266 00c0 5733     		adds	r3, r3, #87
 267 00c2 314A     		ldr	r2, .L21+4
 268 00c4 1832     		adds	r2, r2, #24
 269 00c6 3149     		ldr	r1, .L21+8
 270 00c8 0020     		movs	r0, #0
 271              	.LVL39:
 272 00ca A847     		blx	r5
 273              	.LVL40:
 274              	.L14:
 275              	.LBE6:
  89:Source\azure_iot_sdk\iothub_client\src/iothub_client_authorization.c ****                 free(result->device_key);
 276              		.loc 1 89 0 is_stmt 1
 277 00cc 6068     		ldr	r0, [r4, #4]
 278 00ce FFF7FEFF 		bl	free
 279              	.LVL41:
  90:Source\azure_iot_sdk\iothub_client\src/iothub_client_authorization.c ****                 free(result);
 280              		.loc 1 90 0
 281 00d2 2000     		movs	r0, r4
 282 00d4 FFF7FEFF 		bl	free
 283              	.LVL42:
  91:Source\azure_iot_sdk\iothub_client\src/iothub_client_authorization.c ****                 result = NULL;
 284              		.loc 1 91 0
 285 00d8 0024     		movs	r4, #0
 286 00da 50E0     		b	.L9
 287              	.LVL43:
 288              	.L13:
  92:Source\azure_iot_sdk\iothub_client\src/iothub_client_authorization.c ****             }
  93:Source\azure_iot_sdk\iothub_client\src/iothub_client_authorization.c ****             else if (module_id != NULL && mallocAndStrcpy_s(&result->module_id, module_id) != 0)
 289              		.loc 1 93 0
 290 00dc 002E     		cmp	r6, #0
 291 00de 1FD0     		beq	.L15
 292              		.loc 1 93 0 is_stmt 0 discriminator 1
 293 00e0 2000     		movs	r0, r4
 294 00e2 0C30     		adds	r0, r0, #12
 295 00e4 3100     		movs	r1, r6
 296 00e6 FFF7FEFF 		bl	mallocAndStrcpy_s
 297              	.LVL44:
 298 00ea 0028     		cmp	r0, #0
 299 00ec 18D0     		beq	.L15
 300              	.LBB7:
  94:Source\azure_iot_sdk\iothub_client\src/iothub_client_authorization.c ****             {
  95:Source\azure_iot_sdk\iothub_client\src/iothub_client_authorization.c ****                 /* Codes_SRS_IoTHub_Authorization_07_019: [ On error IoTHubClient_Auth_Create shall
  96:Source\azure_iot_sdk\iothub_client\src/iothub_client_authorization.c ****                 LogError("Failed allocating module_id");
 301              		.loc 1 96 0 is_stmt 1 discriminator 3
 302 00ee FFF7FEFF 		bl	xlogging_get_log_function
ARM GAS  C:\Users\Phuong\AppData\Local\Temp\ccVjqX8s.s 			page 8


 303              	.LVL45:
 304 00f2 051E     		subs	r5, r0, #0
 305              	.LVL46:
 306 00f4 09D0     		beq	.L16
 307              		.loc 1 96 0 is_stmt 0 discriminator 4
 308 00f6 284B     		ldr	r3, .L21+20
 309 00f8 0193     		str	r3, [sp, #4]
 310 00fa 0123     		movs	r3, #1
 311 00fc 0093     		str	r3, [sp]
 312 00fe 5F33     		adds	r3, r3, #95
 313 0100 214A     		ldr	r2, .L21+4
 314 0102 1832     		adds	r2, r2, #24
 315 0104 2149     		ldr	r1, .L21+8
 316 0106 0020     		movs	r0, #0
 317              	.LVL47:
 318 0108 A847     		blx	r5
 319              	.LVL48:
 320              	.L16:
 321              	.LBE7:
  97:Source\azure_iot_sdk\iothub_client\src/iothub_client_authorization.c ****                 free(result->device_id);
 322              		.loc 1 97 0 is_stmt 1
 323 010a A068     		ldr	r0, [r4, #8]
 324 010c FFF7FEFF 		bl	free
 325              	.LVL49:
  98:Source\azure_iot_sdk\iothub_client\src/iothub_client_authorization.c ****                 free(result->device_key);
 326              		.loc 1 98 0
 327 0110 6068     		ldr	r0, [r4, #4]
 328 0112 FFF7FEFF 		bl	free
 329              	.LVL50:
  99:Source\azure_iot_sdk\iothub_client\src/iothub_client_authorization.c ****                 free(result);
 330              		.loc 1 99 0
 331 0116 2000     		movs	r0, r4
 332 0118 FFF7FEFF 		bl	free
 333              	.LVL51:
 100:Source\azure_iot_sdk\iothub_client\src/iothub_client_authorization.c ****                 result = NULL;
 334              		.loc 1 100 0
 335 011c 0024     		movs	r4, #0
 336 011e 2EE0     		b	.L9
 337              	.LVL52:
 338              	.L15:
 101:Source\azure_iot_sdk\iothub_client\src/iothub_client_authorization.c ****             }
 102:Source\azure_iot_sdk\iothub_client\src/iothub_client_authorization.c ****             else
 103:Source\azure_iot_sdk\iothub_client\src/iothub_client_authorization.c ****             {
 104:Source\azure_iot_sdk\iothub_client\src/iothub_client_authorization.c ****                 if (device_key != NULL)
 339              		.loc 1 104 0
 340 0120 002F     		cmp	r7, #0
 341 0122 02D0     		beq	.L17
 105:Source\azure_iot_sdk\iothub_client\src/iothub_client_authorization.c ****                 {
 106:Source\azure_iot_sdk\iothub_client\src/iothub_client_authorization.c ****                     /* Codes_SRS_IoTHub_Authorization_07_003: [ IoTHubClient_Auth_Create shall set 
 107:Source\azure_iot_sdk\iothub_client\src/iothub_client_authorization.c ****                     result->cred_type = IOTHUB_CREDENTIAL_TYPE_DEVICE_KEY;
 342              		.loc 1 107 0
 343 0124 0123     		movs	r3, #1
 344 0126 2375     		strb	r3, [r4, #20]
 345 0128 29E0     		b	.L9
 346              	.L17:
 108:Source\azure_iot_sdk\iothub_client\src/iothub_client_authorization.c ****                 }
 109:Source\azure_iot_sdk\iothub_client\src/iothub_client_authorization.c ****                 else if (device_sas_token != NULL)
ARM GAS  C:\Users\Phuong\AppData\Local\Temp\ccVjqX8s.s 			page 9


 347              		.loc 1 109 0
 348 012a 0599     		ldr	r1, [sp, #20]
 349 012c 0029     		cmp	r1, #0
 350 012e 22D0     		beq	.L18
 110:Source\azure_iot_sdk\iothub_client\src/iothub_client_authorization.c ****                 {
 111:Source\azure_iot_sdk\iothub_client\src/iothub_client_authorization.c ****                     /* Codes_SRS_IoTHub_Authorization_07_020: [ else IoTHubClient_Auth_Create shall
 112:Source\azure_iot_sdk\iothub_client\src/iothub_client_authorization.c ****                     result->cred_type = IOTHUB_CREDENTIAL_TYPE_SAS_TOKEN;
 351              		.loc 1 112 0
 352 0130 0423     		movs	r3, #4
 353 0132 2375     		strb	r3, [r4, #20]
 113:Source\azure_iot_sdk\iothub_client\src/iothub_client_authorization.c ****                     if (mallocAndStrcpy_s(&result->device_sas_token, device_sas_token) != 0)
 354              		.loc 1 113 0
 355 0134 2000     		movs	r0, r4
 356 0136 FFF7FEFF 		bl	mallocAndStrcpy_s
 357              	.LVL53:
 358 013a 0028     		cmp	r0, #0
 359 013c 1FD0     		beq	.L9
 360              	.LBB8:
 114:Source\azure_iot_sdk\iothub_client\src/iothub_client_authorization.c ****                     {
 115:Source\azure_iot_sdk\iothub_client\src/iothub_client_authorization.c ****                         /* Codes_SRS_IoTHub_Authorization_07_019: [ On error IoTHubClient_Auth_Crea
 116:Source\azure_iot_sdk\iothub_client\src/iothub_client_authorization.c ****                         LogError("Failed allocating device_key");
 361              		.loc 1 116 0 discriminator 3
 362 013e FFF7FEFF 		bl	xlogging_get_log_function
 363              	.LVL54:
 364 0142 051E     		subs	r5, r0, #0
 365              	.LVL55:
 366 0144 09D0     		beq	.L19
 367              		.loc 1 116 0 is_stmt 0 discriminator 4
 368 0146 134B     		ldr	r3, .L21+16
 369 0148 0193     		str	r3, [sp, #4]
 370 014a 0123     		movs	r3, #1
 371 014c 0093     		str	r3, [sp]
 372 014e 7333     		adds	r3, r3, #115
 373 0150 0D4A     		ldr	r2, .L21+4
 374 0152 1832     		adds	r2, r2, #24
 375 0154 0D49     		ldr	r1, .L21+8
 376 0156 0020     		movs	r0, #0
 377              	.LVL56:
 378 0158 A847     		blx	r5
 379              	.LVL57:
 380              	.L19:
 381              	.LBE8:
 117:Source\azure_iot_sdk\iothub_client\src/iothub_client_authorization.c ****                         free(result->device_key);
 382              		.loc 1 117 0 is_stmt 1
 383 015a 6068     		ldr	r0, [r4, #4]
 384 015c FFF7FEFF 		bl	free
 385              	.LVL58:
 118:Source\azure_iot_sdk\iothub_client\src/iothub_client_authorization.c ****                         free(result->device_id);
 386              		.loc 1 118 0
 387 0160 A068     		ldr	r0, [r4, #8]
 388 0162 FFF7FEFF 		bl	free
 389              	.LVL59:
 119:Source\azure_iot_sdk\iothub_client\src/iothub_client_authorization.c ****                         free(result->module_id);
 390              		.loc 1 119 0
 391 0166 E068     		ldr	r0, [r4, #12]
 392 0168 FFF7FEFF 		bl	free
 393              	.LVL60:
ARM GAS  C:\Users\Phuong\AppData\Local\Temp\ccVjqX8s.s 			page 10


 120:Source\azure_iot_sdk\iothub_client\src/iothub_client_authorization.c ****                         free(result);
 394              		.loc 1 120 0
 395 016c 2000     		movs	r0, r4
 396 016e FFF7FEFF 		bl	free
 397              	.LVL61:
 121:Source\azure_iot_sdk\iothub_client\src/iothub_client_authorization.c ****                         result = NULL;
 398              		.loc 1 121 0
 399 0172 0024     		movs	r4, #0
 400 0174 03E0     		b	.L9
 401              	.LVL62:
 402              	.L18:
 122:Source\azure_iot_sdk\iothub_client\src/iothub_client_authorization.c ****                     }
 123:Source\azure_iot_sdk\iothub_client\src/iothub_client_authorization.c ****                 }
 124:Source\azure_iot_sdk\iothub_client\src/iothub_client_authorization.c ****                 else
 125:Source\azure_iot_sdk\iothub_client\src/iothub_client_authorization.c ****                 {
 126:Source\azure_iot_sdk\iothub_client\src/iothub_client_authorization.c ****                     /* Codes_SRS_IoTHub_Authorization_07_024: [ if device_sas_token and device_key 
 127:Source\azure_iot_sdk\iothub_client\src/iothub_client_authorization.c ****                     result->cred_type = IOTHUB_CREDENTIAL_TYPE_UNKNOWN;
 403              		.loc 1 127 0
 404 0176 0023     		movs	r3, #0
 405 0178 2375     		strb	r3, [r4, #20]
 406 017a 00E0     		b	.L9
 407              	.LVL63:
 408              	.L20:
  61:Source\azure_iot_sdk\iothub_client\src/iothub_client_authorization.c ****     }
 409              		.loc 1 61 0
 410 017c 0024     		movs	r4, #0
 411              	.LVL64:
 412              	.L9:
 128:Source\azure_iot_sdk\iothub_client\src/iothub_client_authorization.c ****                 }
 129:Source\azure_iot_sdk\iothub_client\src/iothub_client_authorization.c ****             }
 130:Source\azure_iot_sdk\iothub_client\src/iothub_client_authorization.c ****         }
 131:Source\azure_iot_sdk\iothub_client\src/iothub_client_authorization.c ****     }
 132:Source\azure_iot_sdk\iothub_client\src/iothub_client_authorization.c ****     /* Codes_SRS_IoTHub_Authorization_07_004: [ If successful IoTHubClient_Auth_Create shall return
 133:Source\azure_iot_sdk\iothub_client\src/iothub_client_authorization.c ****     return result;
 134:Source\azure_iot_sdk\iothub_client\src/iothub_client_authorization.c **** }
 413              		.loc 1 134 0
 414 017e 2000     		movs	r0, r4
 415 0180 07B0     		add	sp, sp, #28
 416              		@ sp needed
 417              	.LVL65:
 418              	.LVL66:
 419              	.LVL67:
 420 0182 F0BD     		pop	{r4, r5, r6, r7, pc}
 421              	.L22:
 422              		.align	2
 423              	.L21:
 424 0184 84000000 		.word	.LC7
 425 0188 00000000 		.word	.LANCHOR0
 426 018c 00000000 		.word	.LC1
 427 0190 A4000000 		.word	.LC9
 428 0194 D0000000 		.word	.LC11
 429 0198 F0000000 		.word	.LC13
 430              		.cfi_endproc
 431              	.LFE2:
 432              		.size	IoTHubClient_Auth_Create, .-IoTHubClient_Auth_Create
 433              		.section	.text.IoTHubClient_Auth_CreateFromDeviceAuth,"ax",%progbits
 434              		.align	2
ARM GAS  C:\Users\Phuong\AppData\Local\Temp\ccVjqX8s.s 			page 11


 435              		.global	IoTHubClient_Auth_CreateFromDeviceAuth
 436              		.code	16
 437              		.thumb_func
 438              		.type	IoTHubClient_Auth_CreateFromDeviceAuth, %function
 439              	IoTHubClient_Auth_CreateFromDeviceAuth:
 440              	.LFB3:
 135:Source\azure_iot_sdk\iothub_client\src/iothub_client_authorization.c **** 
 136:Source\azure_iot_sdk\iothub_client\src/iothub_client_authorization.c **** IOTHUB_AUTHORIZATION_HANDLE IoTHubClient_Auth_CreateFromDeviceAuth(const char* device_id, const cha
 137:Source\azure_iot_sdk\iothub_client\src/iothub_client_authorization.c **** {
 441              		.loc 1 137 0
 442              		.cfi_startproc
 443              		@ args = 0, pretend = 0, frame = 0
 444              		@ frame_needed = 0, uses_anonymous_args = 0
 445              	.LVL68:
 446 0000 30B5     		push	{r4, r5, lr}
 447              		.cfi_def_cfa_offset 12
 448              		.cfi_offset 4, -12
 449              		.cfi_offset 5, -8
 450              		.cfi_offset 14, -4
 451 0002 85B0     		sub	sp, sp, #20
 452              		.cfi_def_cfa_offset 32
 453 0004 041E     		subs	r4, r0, #0
 138:Source\azure_iot_sdk\iothub_client\src/iothub_client_authorization.c ****     IOTHUB_AUTHORIZATION_DATA* result;
 139:Source\azure_iot_sdk\iothub_client\src/iothub_client_authorization.c ****     if (device_id == NULL)
 454              		.loc 1 139 0
 455 0006 0FD1     		bne	.L24
 456              	.LBB9:
 140:Source\azure_iot_sdk\iothub_client\src/iothub_client_authorization.c ****     {
 141:Source\azure_iot_sdk\iothub_client\src/iothub_client_authorization.c ****         LogError("Invalid Parameter device_id: %p", device_id);
 457              		.loc 1 141 0 discriminator 3
 458 0008 FFF7FEFF 		bl	xlogging_get_log_function
 459              	.LVL69:
 460 000c 051E     		subs	r5, r0, #0
 461              	.LVL70:
 462 000e 19D0     		beq	.L25
 463              		.loc 1 141 0 is_stmt 0 discriminator 4
 464 0010 0294     		str	r4, [sp, #8]
 465 0012 0E4B     		ldr	r3, .L26
 466 0014 0193     		str	r3, [sp, #4]
 467 0016 0123     		movs	r3, #1
 468 0018 0093     		str	r3, [sp]
 469 001a 8C33     		adds	r3, r3, #140
 470 001c 0C4A     		ldr	r2, .L26+4
 471 001e 3432     		adds	r2, r2, #52
 472 0020 0C49     		ldr	r1, .L26+8
 473 0022 0020     		movs	r0, #0
 474              	.LVL71:
 475 0024 A847     		blx	r5
 476              	.LVL72:
 477 0026 0DE0     		b	.L25
 478              	.LVL73:
 479              	.L24:
 480              	.LBE9:
 481              	.LBB10:
 142:Source\azure_iot_sdk\iothub_client\src/iothub_client_authorization.c ****         result = NULL;
 143:Source\azure_iot_sdk\iothub_client\src/iothub_client_authorization.c ****     }
 144:Source\azure_iot_sdk\iothub_client\src/iothub_client_authorization.c ****     else
ARM GAS  C:\Users\Phuong\AppData\Local\Temp\ccVjqX8s.s 			page 12


 145:Source\azure_iot_sdk\iothub_client\src/iothub_client_authorization.c ****     {
 146:Source\azure_iot_sdk\iothub_client\src/iothub_client_authorization.c **** #ifdef USE_PROV_MODULE
 147:Source\azure_iot_sdk\iothub_client\src/iothub_client_authorization.c ****         result = (IOTHUB_AUTHORIZATION_DATA*)malloc(sizeof(IOTHUB_AUTHORIZATION_DATA));
 148:Source\azure_iot_sdk\iothub_client\src/iothub_client_authorization.c ****         if (result == NULL)
 149:Source\azure_iot_sdk\iothub_client\src/iothub_client_authorization.c ****         {
 150:Source\azure_iot_sdk\iothub_client\src/iothub_client_authorization.c ****             LogError("Failed allocating IOTHUB_AUTHORIZATION_DATA");
 151:Source\azure_iot_sdk\iothub_client\src/iothub_client_authorization.c ****             result = NULL;
 152:Source\azure_iot_sdk\iothub_client\src/iothub_client_authorization.c ****         }
 153:Source\azure_iot_sdk\iothub_client\src/iothub_client_authorization.c ****         else
 154:Source\azure_iot_sdk\iothub_client\src/iothub_client_authorization.c ****         {
 155:Source\azure_iot_sdk\iothub_client\src/iothub_client_authorization.c ****             memset(result, 0, sizeof(IOTHUB_AUTHORIZATION_DATA));
 156:Source\azure_iot_sdk\iothub_client\src/iothub_client_authorization.c **** 
 157:Source\azure_iot_sdk\iothub_client\src/iothub_client_authorization.c ****             result->device_auth_handle = iothub_device_auth_create();
 158:Source\azure_iot_sdk\iothub_client\src/iothub_client_authorization.c ****             if (result->device_auth_handle == NULL)
 159:Source\azure_iot_sdk\iothub_client\src/iothub_client_authorization.c ****             {
 160:Source\azure_iot_sdk\iothub_client\src/iothub_client_authorization.c ****                 LogError("Failed allocating IOTHUB_AUTHORIZATION_DATA");
 161:Source\azure_iot_sdk\iothub_client\src/iothub_client_authorization.c ****                 free(result);
 162:Source\azure_iot_sdk\iothub_client\src/iothub_client_authorization.c ****                 result = NULL;
 163:Source\azure_iot_sdk\iothub_client\src/iothub_client_authorization.c ****             }
 164:Source\azure_iot_sdk\iothub_client\src/iothub_client_authorization.c ****             else if (mallocAndStrcpy_s(&result->device_id, device_id) != 0)
 165:Source\azure_iot_sdk\iothub_client\src/iothub_client_authorization.c ****             {
 166:Source\azure_iot_sdk\iothub_client\src/iothub_client_authorization.c ****                 LogError("Failed allocating device_id");
 167:Source\azure_iot_sdk\iothub_client\src/iothub_client_authorization.c ****                 iothub_device_auth_destroy(result->device_auth_handle);
 168:Source\azure_iot_sdk\iothub_client\src/iothub_client_authorization.c ****                 free(result);
 169:Source\azure_iot_sdk\iothub_client\src/iothub_client_authorization.c ****                 result = NULL;
 170:Source\azure_iot_sdk\iothub_client\src/iothub_client_authorization.c ****             }
 171:Source\azure_iot_sdk\iothub_client\src/iothub_client_authorization.c ****             else if ((module_id != NULL) && (mallocAndStrcpy_s(&result->module_id, module_id) != 0)
 172:Source\azure_iot_sdk\iothub_client\src/iothub_client_authorization.c ****             {
 173:Source\azure_iot_sdk\iothub_client\src/iothub_client_authorization.c ****                 LogError("Failed allocating module_id");
 174:Source\azure_iot_sdk\iothub_client\src/iothub_client_authorization.c ****                 iothub_device_auth_destroy(result->device_auth_handle);
 175:Source\azure_iot_sdk\iothub_client\src/iothub_client_authorization.c ****                 free(result->device_id);
 176:Source\azure_iot_sdk\iothub_client\src/iothub_client_authorization.c ****                 free(result);
 177:Source\azure_iot_sdk\iothub_client\src/iothub_client_authorization.c ****                 result = NULL;
 178:Source\azure_iot_sdk\iothub_client\src/iothub_client_authorization.c ****             }
 179:Source\azure_iot_sdk\iothub_client\src/iothub_client_authorization.c ****             else
 180:Source\azure_iot_sdk\iothub_client\src/iothub_client_authorization.c ****             {
 181:Source\azure_iot_sdk\iothub_client\src/iothub_client_authorization.c ****                 if (iothub_device_auth_get_type(result->device_auth_handle) == AUTH_TYPE_SAS)
 182:Source\azure_iot_sdk\iothub_client\src/iothub_client_authorization.c ****                 {
 183:Source\azure_iot_sdk\iothub_client\src/iothub_client_authorization.c ****                     result->cred_type = IOTHUB_CREDENTIAL_TYPE_DEVICE_AUTH;
 184:Source\azure_iot_sdk\iothub_client\src/iothub_client_authorization.c ****                 }
 185:Source\azure_iot_sdk\iothub_client\src/iothub_client_authorization.c ****                 else
 186:Source\azure_iot_sdk\iothub_client\src/iothub_client_authorization.c ****                 {
 187:Source\azure_iot_sdk\iothub_client\src/iothub_client_authorization.c ****                     result->cred_type = IOTHUB_CREDENTIAL_TYPE_X509_ECC;
 188:Source\azure_iot_sdk\iothub_client\src/iothub_client_authorization.c ****                 }
 189:Source\azure_iot_sdk\iothub_client\src/iothub_client_authorization.c ****             }
 190:Source\azure_iot_sdk\iothub_client\src/iothub_client_authorization.c ****         }
 191:Source\azure_iot_sdk\iothub_client\src/iothub_client_authorization.c **** #else
 192:Source\azure_iot_sdk\iothub_client\src/iothub_client_authorization.c ****         (void)module_id;
 193:Source\azure_iot_sdk\iothub_client\src/iothub_client_authorization.c ****         LogError("Failed HSM module is not supported");
 482              		.loc 1 193 0 is_stmt 1 discriminator 3
 483 0028 FFF7FEFF 		bl	xlogging_get_log_function
 484              	.LVL74:
 485 002c 041E     		subs	r4, r0, #0
 486              	.LVL75:
 487 002e 09D0     		beq	.L25
 488              		.loc 1 193 0 is_stmt 0 discriminator 4
 489 0030 094B     		ldr	r3, .L26+12
ARM GAS  C:\Users\Phuong\AppData\Local\Temp\ccVjqX8s.s 			page 13


 490 0032 0193     		str	r3, [sp, #4]
 491 0034 0123     		movs	r3, #1
 492 0036 0093     		str	r3, [sp]
 493 0038 C033     		adds	r3, r3, #192
 494 003a 054A     		ldr	r2, .L26+4
 495 003c 3432     		adds	r2, r2, #52
 496 003e 0549     		ldr	r1, .L26+8
 497 0040 0020     		movs	r0, #0
 498              	.LVL76:
 499 0042 A047     		blx	r4
 500              	.LVL77:
 501              	.L25:
 502              	.LBE10:
 194:Source\azure_iot_sdk\iothub_client\src/iothub_client_authorization.c ****         result = NULL;
 195:Source\azure_iot_sdk\iothub_client\src/iothub_client_authorization.c **** #endif
 196:Source\azure_iot_sdk\iothub_client\src/iothub_client_authorization.c ****     }
 197:Source\azure_iot_sdk\iothub_client\src/iothub_client_authorization.c ****     return result;
 198:Source\azure_iot_sdk\iothub_client\src/iothub_client_authorization.c **** }
 503              		.loc 1 198 0 is_stmt 1
 504 0044 0020     		movs	r0, #0
 505 0046 05B0     		add	sp, sp, #20
 506              		@ sp needed
 507 0048 30BD     		pop	{r4, r5, pc}
 508              	.L27:
 509 004a C046     		.align	2
 510              	.L26:
 511 004c 84000000 		.word	.LC7
 512 0050 00000000 		.word	.LANCHOR0
 513 0054 00000000 		.word	.LC1
 514 0058 0C010000 		.word	.LC18
 515              		.cfi_endproc
 516              	.LFE3:
 517              		.size	IoTHubClient_Auth_CreateFromDeviceAuth, .-IoTHubClient_Auth_CreateFromDeviceAuth
 518              		.section	.text.IoTHubClient_Auth_Destroy,"ax",%progbits
 519              		.align	2
 520              		.global	IoTHubClient_Auth_Destroy
 521              		.code	16
 522              		.thumb_func
 523              		.type	IoTHubClient_Auth_Destroy, %function
 524              	IoTHubClient_Auth_Destroy:
 525              	.LFB4:
 199:Source\azure_iot_sdk\iothub_client\src/iothub_client_authorization.c **** 
 200:Source\azure_iot_sdk\iothub_client\src/iothub_client_authorization.c **** void IoTHubClient_Auth_Destroy(IOTHUB_AUTHORIZATION_HANDLE handle)
 201:Source\azure_iot_sdk\iothub_client\src/iothub_client_authorization.c **** {
 526              		.loc 1 201 0
 527              		.cfi_startproc
 528              		@ args = 0, pretend = 0, frame = 0
 529              		@ frame_needed = 0, uses_anonymous_args = 0
 530              	.LVL78:
 531 0000 10B5     		push	{r4, lr}
 532              		.cfi_def_cfa_offset 8
 533              		.cfi_offset 4, -8
 534              		.cfi_offset 14, -4
 535 0002 041E     		subs	r4, r0, #0
 202:Source\azure_iot_sdk\iothub_client\src/iothub_client_authorization.c ****     /* Codes_SRS_IoTHub_Authorization_07_005: [ if handle is NULL IoTHubClient_Auth_Destroy shall d
 203:Source\azure_iot_sdk\iothub_client\src/iothub_client_authorization.c ****     if (handle != NULL)
 536              		.loc 1 203 0
ARM GAS  C:\Users\Phuong\AppData\Local\Temp\ccVjqX8s.s 			page 14


 537 0004 0ED0     		beq	.L28
 204:Source\azure_iot_sdk\iothub_client\src/iothub_client_authorization.c ****     {
 205:Source\azure_iot_sdk\iothub_client\src/iothub_client_authorization.c ****         /* Codes_SRS_IoTHub_Authorization_07_006: [ IoTHubClient_Auth_Destroy shall free all resour
 206:Source\azure_iot_sdk\iothub_client\src/iothub_client_authorization.c **** #ifdef USE_PROV_MODULE
 207:Source\azure_iot_sdk\iothub_client\src/iothub_client_authorization.c ****         iothub_device_auth_destroy(handle->device_auth_handle);
 208:Source\azure_iot_sdk\iothub_client\src/iothub_client_authorization.c **** #endif
 209:Source\azure_iot_sdk\iothub_client\src/iothub_client_authorization.c ****         free(handle->device_key);
 538              		.loc 1 209 0
 539 0006 4068     		ldr	r0, [r0, #4]
 540              	.LVL79:
 541 0008 FFF7FEFF 		bl	free
 542              	.LVL80:
 210:Source\azure_iot_sdk\iothub_client\src/iothub_client_authorization.c ****         free(handle->device_id);
 543              		.loc 1 210 0
 544 000c A068     		ldr	r0, [r4, #8]
 545 000e FFF7FEFF 		bl	free
 546              	.LVL81:
 211:Source\azure_iot_sdk\iothub_client\src/iothub_client_authorization.c ****         free(handle->module_id);
 547              		.loc 1 211 0
 548 0012 E068     		ldr	r0, [r4, #12]
 549 0014 FFF7FEFF 		bl	free
 550              	.LVL82:
 212:Source\azure_iot_sdk\iothub_client\src/iothub_client_authorization.c ****         free(handle->device_sas_token);
 551              		.loc 1 212 0
 552 0018 2068     		ldr	r0, [r4]
 553 001a FFF7FEFF 		bl	free
 554              	.LVL83:
 213:Source\azure_iot_sdk\iothub_client\src/iothub_client_authorization.c ****         free(handle);
 555              		.loc 1 213 0
 556 001e 2000     		movs	r0, r4
 557 0020 FFF7FEFF 		bl	free
 558              	.LVL84:
 559              	.L28:
 214:Source\azure_iot_sdk\iothub_client\src/iothub_client_authorization.c ****     }
 215:Source\azure_iot_sdk\iothub_client\src/iothub_client_authorization.c **** }
 560              		.loc 1 215 0
 561              		@ sp needed
 562              	.LVL85:
 563 0024 10BD     		pop	{r4, pc}
 564              		.cfi_endproc
 565              	.LFE4:
 566              		.size	IoTHubClient_Auth_Destroy, .-IoTHubClient_Auth_Destroy
 567 0026 C046     		.section	.text.IoTHubClient_Auth_Set_x509_Type,"ax",%progbits
 568              		.align	2
 569              		.global	IoTHubClient_Auth_Set_x509_Type
 570              		.code	16
 571              		.thumb_func
 572              		.type	IoTHubClient_Auth_Set_x509_Type, %function
 573              	IoTHubClient_Auth_Set_x509_Type:
 574              	.LFB5:
 216:Source\azure_iot_sdk\iothub_client\src/iothub_client_authorization.c **** 
 217:Source\azure_iot_sdk\iothub_client\src/iothub_client_authorization.c **** IOTHUB_CREDENTIAL_TYPE IoTHubClient_Auth_Set_x509_Type(IOTHUB_AUTHORIZATION_HANDLE handle, bool ena
 218:Source\azure_iot_sdk\iothub_client\src/iothub_client_authorization.c **** {
 575              		.loc 1 218 0
 576              		.cfi_startproc
 577              		@ args = 0, pretend = 0, frame = 0
 578              		@ frame_needed = 0, uses_anonymous_args = 0
ARM GAS  C:\Users\Phuong\AppData\Local\Temp\ccVjqX8s.s 			page 15


 579              		@ link register save eliminated.
 580              	.LVL86:
 219:Source\azure_iot_sdk\iothub_client\src/iothub_client_authorization.c ****     IOTHUB_CREDENTIAL_TYPE result;
 220:Source\azure_iot_sdk\iothub_client\src/iothub_client_authorization.c ****     if (handle != NULL)
 581              		.loc 1 220 0
 582 0000 0028     		cmp	r0, #0
 583 0002 17D0     		beq	.L35
 221:Source\azure_iot_sdk\iothub_client\src/iothub_client_authorization.c ****     {
 222:Source\azure_iot_sdk\iothub_client\src/iothub_client_authorization.c ****         if (enable_x509)
 584              		.loc 1 222 0
 585 0004 0029     		cmp	r1, #0
 586 0006 03D0     		beq	.L32
 223:Source\azure_iot_sdk\iothub_client\src/iothub_client_authorization.c ****         {
 224:Source\azure_iot_sdk\iothub_client\src/iothub_client_authorization.c ****             result = handle->cred_type = IOTHUB_CREDENTIAL_TYPE_X509;
 587              		.loc 1 224 0
 588 0008 0223     		movs	r3, #2
 589 000a 0375     		strb	r3, [r0, #20]
 590              	.LVL87:
 591 000c 0220     		movs	r0, #2
 592              	.LVL88:
 593 000e 12E0     		b	.L31
 594              	.LVL89:
 595              	.L32:
 225:Source\azure_iot_sdk\iothub_client\src/iothub_client_authorization.c ****         }
 226:Source\azure_iot_sdk\iothub_client\src/iothub_client_authorization.c ****         else
 227:Source\azure_iot_sdk\iothub_client\src/iothub_client_authorization.c ****         {
 228:Source\azure_iot_sdk\iothub_client\src/iothub_client_authorization.c ****             if (handle->device_sas_token == NULL)
 596              		.loc 1 228 0
 597 0010 0368     		ldr	r3, [r0]
 598 0012 002B     		cmp	r3, #0
 599 0014 03D1     		bne	.L33
 229:Source\azure_iot_sdk\iothub_client\src/iothub_client_authorization.c ****             {
 230:Source\azure_iot_sdk\iothub_client\src/iothub_client_authorization.c ****                 result = handle->cred_type = IOTHUB_CREDENTIAL_TYPE_DEVICE_KEY;
 600              		.loc 1 230 0
 601 0016 0133     		adds	r3, r3, #1
 602 0018 0375     		strb	r3, [r0, #20]
 603              	.LVL90:
 604 001a 0120     		movs	r0, #1
 605              	.LVL91:
 606 001c 0BE0     		b	.L31
 607              	.LVL92:
 608              	.L33:
 231:Source\azure_iot_sdk\iothub_client\src/iothub_client_authorization.c ****             }
 232:Source\azure_iot_sdk\iothub_client\src/iothub_client_authorization.c ****             else if (handle->device_key == NULL)
 609              		.loc 1 232 0
 610 001e 4368     		ldr	r3, [r0, #4]
 611 0020 002B     		cmp	r3, #0
 612 0022 03D1     		bne	.L34
 233:Source\azure_iot_sdk\iothub_client\src/iothub_client_authorization.c ****             {
 234:Source\azure_iot_sdk\iothub_client\src/iothub_client_authorization.c ****                 result = handle->cred_type = IOTHUB_CREDENTIAL_TYPE_SAS_TOKEN;
 613              		.loc 1 234 0
 614 0024 0433     		adds	r3, r3, #4
 615 0026 0375     		strb	r3, [r0, #20]
 616              	.LVL93:
 617 0028 0420     		movs	r0, #4
 618              	.LVL94:
 619 002a 04E0     		b	.L31
ARM GAS  C:\Users\Phuong\AppData\Local\Temp\ccVjqX8s.s 			page 16


 620              	.LVL95:
 621              	.L34:
 235:Source\azure_iot_sdk\iothub_client\src/iothub_client_authorization.c ****             }
 236:Source\azure_iot_sdk\iothub_client\src/iothub_client_authorization.c ****             else
 237:Source\azure_iot_sdk\iothub_client\src/iothub_client_authorization.c ****             {
 238:Source\azure_iot_sdk\iothub_client\src/iothub_client_authorization.c ****                 result = handle->cred_type = IOTHUB_CREDENTIAL_TYPE_UNKNOWN;
 622              		.loc 1 238 0
 623 002c 0023     		movs	r3, #0
 624 002e 0375     		strb	r3, [r0, #20]
 625              	.LVL96:
 626 0030 0020     		movs	r0, #0
 627              	.LVL97:
 628 0032 00E0     		b	.L31
 629              	.LVL98:
 630              	.L35:
 239:Source\azure_iot_sdk\iothub_client\src/iothub_client_authorization.c ****             }
 240:Source\azure_iot_sdk\iothub_client\src/iothub_client_authorization.c ****         }
 241:Source\azure_iot_sdk\iothub_client\src/iothub_client_authorization.c ****     }
 242:Source\azure_iot_sdk\iothub_client\src/iothub_client_authorization.c ****     else
 243:Source\azure_iot_sdk\iothub_client\src/iothub_client_authorization.c ****     {
 244:Source\azure_iot_sdk\iothub_client\src/iothub_client_authorization.c ****         result = IOTHUB_CREDENTIAL_TYPE_UNKNOWN;
 631              		.loc 1 244 0
 632 0034 0020     		movs	r0, #0
 633              	.LVL99:
 634              	.L31:
 245:Source\azure_iot_sdk\iothub_client\src/iothub_client_authorization.c ****     }
 246:Source\azure_iot_sdk\iothub_client\src/iothub_client_authorization.c ****     return result;
 247:Source\azure_iot_sdk\iothub_client\src/iothub_client_authorization.c **** }
 635              		.loc 1 247 0
 636              		@ sp needed
 637 0036 7047     		bx	lr
 638              		.cfi_endproc
 639              	.LFE5:
 640              		.size	IoTHubClient_Auth_Set_x509_Type, .-IoTHubClient_Auth_Set_x509_Type
 641              		.section	.text.IoTHubClient_Auth_Set_xio_Certificate,"ax",%progbits
 642              		.align	2
 643              		.global	IoTHubClient_Auth_Set_xio_Certificate
 644              		.code	16
 645              		.thumb_func
 646              		.type	IoTHubClient_Auth_Set_xio_Certificate, %function
 647              	IoTHubClient_Auth_Set_xio_Certificate:
 648              	.LFB6:
 248:Source\azure_iot_sdk\iothub_client\src/iothub_client_authorization.c **** 
 249:Source\azure_iot_sdk\iothub_client\src/iothub_client_authorization.c **** int IoTHubClient_Auth_Set_xio_Certificate(IOTHUB_AUTHORIZATION_HANDLE handle, XIO_HANDLE xio)
 250:Source\azure_iot_sdk\iothub_client\src/iothub_client_authorization.c **** {
 649              		.loc 1 250 0
 650              		.cfi_startproc
 651              		@ args = 0, pretend = 0, frame = 0
 652              		@ frame_needed = 0, uses_anonymous_args = 0
 653              	.LVL100:
 654 0000 70B5     		push	{r4, r5, r6, lr}
 655              		.cfi_def_cfa_offset 16
 656              		.cfi_offset 4, -16
 657              		.cfi_offset 5, -12
 658              		.cfi_offset 6, -8
 659              		.cfi_offset 14, -4
 660 0002 84B0     		sub	sp, sp, #16
ARM GAS  C:\Users\Phuong\AppData\Local\Temp\ccVjqX8s.s 			page 17


 661              		.cfi_def_cfa_offset 32
 662 0004 0400     		movs	r4, r0
 663 0006 0D00     		movs	r5, r1
 251:Source\azure_iot_sdk\iothub_client\src/iothub_client_authorization.c ****     int result;
 252:Source\azure_iot_sdk\iothub_client\src/iothub_client_authorization.c ****     if (handle == NULL || xio == NULL)
 664              		.loc 1 252 0
 665 0008 0028     		cmp	r0, #0
 666 000a 01D0     		beq	.L37
 667              		.loc 1 252 0 is_stmt 0 discriminator 1
 668 000c 0029     		cmp	r1, #0
 669 000e 11D1     		bne	.L38
 670              	.L37:
 671              	.LBB11:
 253:Source\azure_iot_sdk\iothub_client\src/iothub_client_authorization.c ****     {
 254:Source\azure_iot_sdk\iothub_client\src/iothub_client_authorization.c ****         LogError("Invalid Parameter handle: %p xio: %p", handle, xio);
 672              		.loc 1 254 0 is_stmt 1 discriminator 3
 673 0010 FFF7FEFF 		bl	xlogging_get_log_function
 674              	.LVL101:
 675 0014 061E     		subs	r6, r0, #0
 676              	.LVL102:
 677 0016 34D0     		beq	.L41
 678              		.loc 1 254 0 is_stmt 0 discriminator 4
 679 0018 0395     		str	r5, [sp, #12]
 680 001a 0294     		str	r4, [sp, #8]
 681 001c 1D4B     		ldr	r3, .L44
 682 001e 0193     		str	r3, [sp, #4]
 683 0020 0123     		movs	r3, #1
 684 0022 0093     		str	r3, [sp]
 685 0024 FD33     		adds	r3, r3, #253
 686 0026 1C4A     		ldr	r2, .L44+4
 687 0028 5C32     		adds	r2, r2, #92
 688 002a 1C49     		ldr	r1, .L44+8
 689 002c 0020     		movs	r0, #0
 690              	.LVL103:
 691 002e B047     		blx	r6
 692              	.LVL104:
 693              	.LBE11:
 255:Source\azure_iot_sdk\iothub_client\src/iothub_client_authorization.c ****         result = __FAILURE__;
 694              		.loc 1 255 0 is_stmt 1 discriminator 4
 695 0030 FF20     		movs	r0, #255
 696 0032 2DE0     		b	.L39
 697              	.LVL105:
 698              	.L38:
 256:Source\azure_iot_sdk\iothub_client\src/iothub_client_authorization.c ****     }
 257:Source\azure_iot_sdk\iothub_client\src/iothub_client_authorization.c ****     else if (handle->cred_type != IOTHUB_CREDENTIAL_TYPE_X509_ECC)
 699              		.loc 1 257 0
 700 0034 037D     		ldrb	r3, [r0, #20]
 701 0036 032B     		cmp	r3, #3
 702 0038 11D0     		beq	.L40
 703              	.LBB12:
 258:Source\azure_iot_sdk\iothub_client\src/iothub_client_authorization.c ****     {
 259:Source\azure_iot_sdk\iothub_client\src/iothub_client_authorization.c ****         LogError("Invalid credential types for this operation");
 704              		.loc 1 259 0 discriminator 3
 705 003a FFF7FEFF 		bl	xlogging_get_log_function
 706              	.LVL106:
 707 003e 041E     		subs	r4, r0, #0
 708              	.LVL107:
ARM GAS  C:\Users\Phuong\AppData\Local\Temp\ccVjqX8s.s 			page 18


 709 0040 21D0     		beq	.L42
 710              		.loc 1 259 0 is_stmt 0 discriminator 4
 711 0042 174B     		ldr	r3, .L44+12
 712 0044 0193     		str	r3, [sp, #4]
 713 0046 0123     		movs	r3, #1
 714 0048 0093     		str	r3, [sp]
 715 004a 0423     		movs	r3, #4
 716 004c FF33     		adds	r3, r3, #255
 717 004e 124A     		ldr	r2, .L44+4
 718 0050 5C32     		adds	r2, r2, #92
 719 0052 1249     		ldr	r1, .L44+8
 720 0054 0020     		movs	r0, #0
 721              	.LVL108:
 722 0056 A047     		blx	r4
 723              	.LVL109:
 724              	.LBE12:
 260:Source\azure_iot_sdk\iothub_client\src/iothub_client_authorization.c ****         result = __FAILURE__;
 725              		.loc 1 260 0 is_stmt 1 discriminator 4
 726 0058 8220     		movs	r0, #130
 727 005a 4000     		lsls	r0, r0, #1
 728 005c 18E0     		b	.L39
 729              	.LVL110:
 730              	.L40:
 731              	.LBB13:
 261:Source\azure_iot_sdk\iothub_client\src/iothub_client_authorization.c ****     }
 262:Source\azure_iot_sdk\iothub_client\src/iothub_client_authorization.c ****     else
 263:Source\azure_iot_sdk\iothub_client\src/iothub_client_authorization.c ****     {
 264:Source\azure_iot_sdk\iothub_client\src/iothub_client_authorization.c **** #ifdef USE_PROV_MODULE
 265:Source\azure_iot_sdk\iothub_client\src/iothub_client_authorization.c ****         CREDENTIAL_RESULT* cred_result = iothub_device_auth_generate_credentials(handle->device_aut
 266:Source\azure_iot_sdk\iothub_client\src/iothub_client_authorization.c ****         if (cred_result == NULL)
 267:Source\azure_iot_sdk\iothub_client\src/iothub_client_authorization.c ****         {
 268:Source\azure_iot_sdk\iothub_client\src/iothub_client_authorization.c ****             LogError("Failure generating credentials");
 269:Source\azure_iot_sdk\iothub_client\src/iothub_client_authorization.c ****             result = __FAILURE__;
 270:Source\azure_iot_sdk\iothub_client\src/iothub_client_authorization.c ****         }
 271:Source\azure_iot_sdk\iothub_client\src/iothub_client_authorization.c ****         else
 272:Source\azure_iot_sdk\iothub_client\src/iothub_client_authorization.c ****         {
 273:Source\azure_iot_sdk\iothub_client\src/iothub_client_authorization.c ****             if (xio_setoption(xio, OPTION_X509_ECC_CERT, cred_result->auth_cred_result.x509_result.
 274:Source\azure_iot_sdk\iothub_client\src/iothub_client_authorization.c ****             {
 275:Source\azure_iot_sdk\iothub_client\src/iothub_client_authorization.c ****                 LogError("Failure setting x509 cert on xio");
 276:Source\azure_iot_sdk\iothub_client\src/iothub_client_authorization.c ****                 result = __FAILURE__;
 277:Source\azure_iot_sdk\iothub_client\src/iothub_client_authorization.c ****             }
 278:Source\azure_iot_sdk\iothub_client\src/iothub_client_authorization.c ****             else if (xio_setoption(xio, OPTION_X509_ECC_KEY, cred_result->auth_cred_result.x509_res
 279:Source\azure_iot_sdk\iothub_client\src/iothub_client_authorization.c ****             {
 280:Source\azure_iot_sdk\iothub_client\src/iothub_client_authorization.c ****                 LogError("Failure setting x509 key on xio");
 281:Source\azure_iot_sdk\iothub_client\src/iothub_client_authorization.c ****                 result = __FAILURE__;
 282:Source\azure_iot_sdk\iothub_client\src/iothub_client_authorization.c ****             }
 283:Source\azure_iot_sdk\iothub_client\src/iothub_client_authorization.c ****             else
 284:Source\azure_iot_sdk\iothub_client\src/iothub_client_authorization.c ****             {
 285:Source\azure_iot_sdk\iothub_client\src/iothub_client_authorization.c ****                 result = 0;
 286:Source\azure_iot_sdk\iothub_client\src/iothub_client_authorization.c ****             }
 287:Source\azure_iot_sdk\iothub_client\src/iothub_client_authorization.c ****             free(cred_result);
 288:Source\azure_iot_sdk\iothub_client\src/iothub_client_authorization.c ****         }
 289:Source\azure_iot_sdk\iothub_client\src/iothub_client_authorization.c **** #else
 290:Source\azure_iot_sdk\iothub_client\src/iothub_client_authorization.c ****         LogError("Failed HSM module is not supported");
 732              		.loc 1 290 0 discriminator 3
 733 005e FFF7FEFF 		bl	xlogging_get_log_function
 734              	.LVL111:
ARM GAS  C:\Users\Phuong\AppData\Local\Temp\ccVjqX8s.s 			page 19


 735 0062 041E     		subs	r4, r0, #0
 736              	.LVL112:
 737 0064 12D0     		beq	.L43
 738              		.loc 1 290 0 is_stmt 0 discriminator 4
 739 0066 0F4B     		ldr	r3, .L44+16
 740 0068 0193     		str	r3, [sp, #4]
 741 006a 0123     		movs	r3, #1
 742 006c 0093     		str	r3, [sp]
 743 006e 2233     		adds	r3, r3, #34
 744 0070 FF33     		adds	r3, r3, #255
 745 0072 094A     		ldr	r2, .L44+4
 746 0074 5C32     		adds	r2, r2, #92
 747 0076 0949     		ldr	r1, .L44+8
 748 0078 0020     		movs	r0, #0
 749              	.LVL113:
 750 007a A047     		blx	r4
 751              	.LVL114:
 752              	.LBE13:
 291:Source\azure_iot_sdk\iothub_client\src/iothub_client_authorization.c ****         result = __FAILURE__;
 753              		.loc 1 291 0 is_stmt 1 discriminator 4
 754 007c 2420     		movs	r0, #36
 755 007e FF30     		adds	r0, r0, #255
 756 0080 06E0     		b	.L39
 757              	.LVL115:
 758              	.L41:
 255:Source\azure_iot_sdk\iothub_client\src/iothub_client_authorization.c ****     }
 759              		.loc 1 255 0
 760 0082 FF20     		movs	r0, #255
 761              	.LVL116:
 762 0084 04E0     		b	.L39
 763              	.LVL117:
 764              	.L42:
 260:Source\azure_iot_sdk\iothub_client\src/iothub_client_authorization.c ****     }
 765              		.loc 1 260 0
 766 0086 8220     		movs	r0, #130
 767              	.LVL118:
 768 0088 4000     		lsls	r0, r0, #1
 769 008a 01E0     		b	.L39
 770              	.LVL119:
 771              	.L43:
 772              		.loc 1 291 0
 773 008c 2420     		movs	r0, #36
 774              	.LVL120:
 775 008e FF30     		adds	r0, r0, #255
 776              	.LVL121:
 777              	.L39:
 292:Source\azure_iot_sdk\iothub_client\src/iothub_client_authorization.c **** #endif
 293:Source\azure_iot_sdk\iothub_client\src/iothub_client_authorization.c ****     }
 294:Source\azure_iot_sdk\iothub_client\src/iothub_client_authorization.c ****     return result;
 295:Source\azure_iot_sdk\iothub_client\src/iothub_client_authorization.c **** }
 778              		.loc 1 295 0
 779 0090 04B0     		add	sp, sp, #16
 780              		@ sp needed
 781              	.LVL122:
 782 0092 70BD     		pop	{r4, r5, r6, pc}
 783              	.L45:
 784              		.align	2
ARM GAS  C:\Users\Phuong\AppData\Local\Temp\ccVjqX8s.s 			page 20


 785              	.L44:
 786 0094 30010000 		.word	.LC22
 787 0098 00000000 		.word	.LANCHOR0
 788 009c 00000000 		.word	.LC1
 789 00a0 58010000 		.word	.LC24
 790 00a4 0C010000 		.word	.LC18
 791              		.cfi_endproc
 792              	.LFE6:
 793              		.size	IoTHubClient_Auth_Set_xio_Certificate, .-IoTHubClient_Auth_Set_xio_Certificate
 794              		.section	.text.IoTHubClient_Auth_Get_Credential_Type,"ax",%progbits
 795              		.align	2
 796              		.global	IoTHubClient_Auth_Get_Credential_Type
 797              		.code	16
 798              		.thumb_func
 799              		.type	IoTHubClient_Auth_Get_Credential_Type, %function
 800              	IoTHubClient_Auth_Get_Credential_Type:
 801              	.LFB7:
 296:Source\azure_iot_sdk\iothub_client\src/iothub_client_authorization.c **** 
 297:Source\azure_iot_sdk\iothub_client\src/iothub_client_authorization.c **** IOTHUB_CREDENTIAL_TYPE IoTHubClient_Auth_Get_Credential_Type(IOTHUB_AUTHORIZATION_HANDLE handle)
 298:Source\azure_iot_sdk\iothub_client\src/iothub_client_authorization.c **** {
 802              		.loc 1 298 0
 803              		.cfi_startproc
 804              		@ args = 0, pretend = 0, frame = 0
 805              		@ frame_needed = 0, uses_anonymous_args = 0
 806              	.LVL123:
 807 0000 30B5     		push	{r4, r5, lr}
 808              		.cfi_def_cfa_offset 12
 809              		.cfi_offset 4, -12
 810              		.cfi_offset 5, -8
 811              		.cfi_offset 14, -4
 812 0002 85B0     		sub	sp, sp, #20
 813              		.cfi_def_cfa_offset 32
 814 0004 041E     		subs	r4, r0, #0
 299:Source\azure_iot_sdk\iothub_client\src/iothub_client_authorization.c ****     IOTHUB_CREDENTIAL_TYPE result;
 300:Source\azure_iot_sdk\iothub_client\src/iothub_client_authorization.c ****     /* Codes_SRS_IoTHub_Authorization_07_007: [ if handle is NULL IoTHub_Auth_Get_Credential_Type s
 301:Source\azure_iot_sdk\iothub_client\src/iothub_client_authorization.c ****     if (handle == NULL)
 815              		.loc 1 301 0
 816 0006 11D1     		bne	.L47
 817              	.LBB14:
 302:Source\azure_iot_sdk\iothub_client\src/iothub_client_authorization.c ****     {
 303:Source\azure_iot_sdk\iothub_client\src/iothub_client_authorization.c ****         LogError("Invalid Parameter handle: %p", handle);
 818              		.loc 1 303 0 discriminator 3
 819 0008 FFF7FEFF 		bl	xlogging_get_log_function
 820              	.LVL124:
 821 000c 051E     		subs	r5, r0, #0
 822              	.LVL125:
 823 000e 0FD0     		beq	.L49
 824              		.loc 1 303 0 is_stmt 0 discriminator 4
 825 0010 0294     		str	r4, [sp, #8]
 826 0012 094B     		ldr	r3, .L50
 827 0014 0193     		str	r3, [sp, #4]
 828 0016 0123     		movs	r3, #1
 829 0018 0093     		str	r3, [sp]
 830 001a 3023     		movs	r3, #48
 831 001c FF33     		adds	r3, r3, #255
 832 001e 074A     		ldr	r2, .L50+4
 833 0020 0432     		adds	r2, r2, #4
ARM GAS  C:\Users\Phuong\AppData\Local\Temp\ccVjqX8s.s 			page 21


 834 0022 0749     		ldr	r1, .L50+8
 835 0024 0020     		movs	r0, #0
 836              	.LVL126:
 837 0026 A847     		blx	r5
 838              	.LVL127:
 839              	.LBE14:
 304:Source\azure_iot_sdk\iothub_client\src/iothub_client_authorization.c ****         result = IOTHUB_CREDENTIAL_TYPE_UNKNOWN;
 840              		.loc 1 304 0 is_stmt 1 discriminator 4
 841 0028 0020     		movs	r0, #0
 842 002a 02E0     		b	.L48
 843              	.LVL128:
 844              	.L47:
 305:Source\azure_iot_sdk\iothub_client\src/iothub_client_authorization.c ****     }
 306:Source\azure_iot_sdk\iothub_client\src/iothub_client_authorization.c ****     else
 307:Source\azure_iot_sdk\iothub_client\src/iothub_client_authorization.c ****     {
 308:Source\azure_iot_sdk\iothub_client\src/iothub_client_authorization.c ****         /* Codes_SRS_IoTHub_Authorization_07_008: [ IoTHub_Auth_Get_Credential_Type shall return th
 309:Source\azure_iot_sdk\iothub_client\src/iothub_client_authorization.c ****         result = handle->cred_type;
 845              		.loc 1 309 0
 846 002c 007D     		ldrb	r0, [r0, #20]
 847              	.LVL129:
 848 002e 00E0     		b	.L48
 849              	.LVL130:
 850              	.L49:
 304:Source\azure_iot_sdk\iothub_client\src/iothub_client_authorization.c ****         result = IOTHUB_CREDENTIAL_TYPE_UNKNOWN;
 851              		.loc 1 304 0
 852 0030 0020     		movs	r0, #0
 853              	.LVL131:
 854              	.L48:
 310:Source\azure_iot_sdk\iothub_client\src/iothub_client_authorization.c ****     }
 311:Source\azure_iot_sdk\iothub_client\src/iothub_client_authorization.c ****     return result;
 312:Source\azure_iot_sdk\iothub_client\src/iothub_client_authorization.c **** }
 855              		.loc 1 312 0
 856 0032 05B0     		add	sp, sp, #20
 857              		@ sp needed
 858              	.LVL132:
 859 0034 30BD     		pop	{r4, r5, pc}
 860              	.L51:
 861 0036 C046     		.align	2
 862              	.L50:
 863 0038 84010000 		.word	.LC29
 864 003c 80000000 		.word	.LANCHOR1
 865 0040 00000000 		.word	.LC1
 866              		.cfi_endproc
 867              	.LFE7:
 868              		.size	IoTHubClient_Auth_Get_Credential_Type, .-IoTHubClient_Auth_Get_Credential_Type
 869              		.section	.text.IoTHubClient_Auth_Get_SasToken,"ax",%progbits
 870              		.align	2
 871              		.global	IoTHubClient_Auth_Get_SasToken
 872              		.code	16
 873              		.thumb_func
 874              		.type	IoTHubClient_Auth_Get_SasToken, %function
 875              	IoTHubClient_Auth_Get_SasToken:
 876              	.LFB8:
 313:Source\azure_iot_sdk\iothub_client\src/iothub_client_authorization.c **** 
 314:Source\azure_iot_sdk\iothub_client\src/iothub_client_authorization.c **** char* IoTHubClient_Auth_Get_SasToken(IOTHUB_AUTHORIZATION_HANDLE handle, const char* scope, size_t 
 315:Source\azure_iot_sdk\iothub_client\src/iothub_client_authorization.c **** {
 877              		.loc 1 315 0
ARM GAS  C:\Users\Phuong\AppData\Local\Temp\ccVjqX8s.s 			page 22


 878              		.cfi_startproc
 879              		@ args = 0, pretend = 0, frame = 8
 880              		@ frame_needed = 0, uses_anonymous_args = 0
 881              	.LVL133:
 882 0000 F0B5     		push	{r4, r5, r6, r7, lr}
 883              		.cfi_def_cfa_offset 20
 884              		.cfi_offset 4, -20
 885              		.cfi_offset 5, -16
 886              		.cfi_offset 6, -12
 887              		.cfi_offset 7, -8
 888              		.cfi_offset 14, -4
 889 0002 87B0     		sub	sp, sp, #28
 890              		.cfi_def_cfa_offset 48
 891 0004 0400     		movs	r4, r0
 892 0006 0D00     		movs	r5, r1
 893 0008 1600     		movs	r6, r2
 894 000a 1F00     		movs	r7, r3
 316:Source\azure_iot_sdk\iothub_client\src/iothub_client_authorization.c ****     char* result;
 317:Source\azure_iot_sdk\iothub_client\src/iothub_client_authorization.c ****     /* Codes_SRS_IoTHub_Authorization_07_009: [ if handle or scope are NULL, IoTHubClient_Auth_Get_
 318:Source\azure_iot_sdk\iothub_client\src/iothub_client_authorization.c ****     if (handle == NULL)
 895              		.loc 1 318 0
 896 000c 0028     		cmp	r0, #0
 897 000e 12D1     		bne	.L53
 898              	.LBB15:
 319:Source\azure_iot_sdk\iothub_client\src/iothub_client_authorization.c ****     {
 320:Source\azure_iot_sdk\iothub_client\src/iothub_client_authorization.c ****         LogError("Invalid Parameter handle: %p", handle);
 899              		.loc 1 320 0 discriminator 3
 900 0010 FFF7FEFF 		bl	xlogging_get_log_function
 901              	.LVL134:
 902 0014 051E     		subs	r5, r0, #0
 903              	.LVL135:
 904 0016 0BD0     		beq	.L54
 905              		.loc 1 320 0 is_stmt 0 discriminator 4
 906 0018 0294     		str	r4, [sp, #8]
 907 001a 664B     		ldr	r3, .L73
 908 001c 0193     		str	r3, [sp, #4]
 909 001e 0123     		movs	r3, #1
 910 0020 0093     		str	r3, [sp]
 911 0022 4033     		adds	r3, r3, #64
 912 0024 FF33     		adds	r3, r3, #255
 913 0026 644A     		ldr	r2, .L73+4
 914 0028 2C32     		adds	r2, r2, #44
 915 002a 6449     		ldr	r1, .L73+8
 916 002c 0020     		movs	r0, #0
 917              	.LVL136:
 918 002e A847     		blx	r5
 919              	.LVL137:
 920              	.L54:
 921              	.LBE15:
 321:Source\azure_iot_sdk\iothub_client\src/iothub_client_authorization.c ****         result = NULL;
 922              		.loc 1 321 0 is_stmt 1
 923 0030 0023     		movs	r3, #0
 924 0032 0593     		str	r3, [sp, #20]
 925 0034 BAE0     		b	.L55
 926              	.LVL138:
 927              	.L53:
 322:Source\azure_iot_sdk\iothub_client\src/iothub_client_authorization.c ****     }
ARM GAS  C:\Users\Phuong\AppData\Local\Temp\ccVjqX8s.s 			page 23


 323:Source\azure_iot_sdk\iothub_client\src/iothub_client_authorization.c ****     else
 324:Source\azure_iot_sdk\iothub_client\src/iothub_client_authorization.c ****     {
 325:Source\azure_iot_sdk\iothub_client\src/iothub_client_authorization.c ****         if (handle->cred_type == IOTHUB_CREDENTIAL_TYPE_DEVICE_AUTH)
 928              		.loc 1 325 0
 929 0036 037D     		ldrb	r3, [r0, #20]
 930              	.LVL139:
 931 0038 052B     		cmp	r3, #5
 932 003a 11D1     		bne	.L56
 933              	.LBB16:
 326:Source\azure_iot_sdk\iothub_client\src/iothub_client_authorization.c ****         {
 327:Source\azure_iot_sdk\iothub_client\src/iothub_client_authorization.c **** #ifdef USE_PROV_MODULE
 328:Source\azure_iot_sdk\iothub_client\src/iothub_client_authorization.c ****             DEVICE_AUTH_CREDENTIAL_INFO dev_auth_cred;
 329:Source\azure_iot_sdk\iothub_client\src/iothub_client_authorization.c ****             size_t sec_since_epoch;
 330:Source\azure_iot_sdk\iothub_client\src/iothub_client_authorization.c **** 
 331:Source\azure_iot_sdk\iothub_client\src/iothub_client_authorization.c ****             if (get_seconds_since_epoch(&sec_since_epoch) != 0)
 332:Source\azure_iot_sdk\iothub_client\src/iothub_client_authorization.c ****             {
 333:Source\azure_iot_sdk\iothub_client\src/iothub_client_authorization.c ****                 LogError("failure getting seconds from epoch");
 334:Source\azure_iot_sdk\iothub_client\src/iothub_client_authorization.c ****                 result = NULL;
 335:Source\azure_iot_sdk\iothub_client\src/iothub_client_authorization.c ****             }
 336:Source\azure_iot_sdk\iothub_client\src/iothub_client_authorization.c ****             else
 337:Source\azure_iot_sdk\iothub_client\src/iothub_client_authorization.c ****             {
 338:Source\azure_iot_sdk\iothub_client\src/iothub_client_authorization.c ****                 memset(&dev_auth_cred, 0, sizeof(DEVICE_AUTH_CREDENTIAL_INFO));
 339:Source\azure_iot_sdk\iothub_client\src/iothub_client_authorization.c ****                 size_t expiry_time = sec_since_epoch+expiry_time_relative_seconds;
 340:Source\azure_iot_sdk\iothub_client\src/iothub_client_authorization.c ****                 dev_auth_cred.sas_info.expiry_seconds = expiry_time;
 341:Source\azure_iot_sdk\iothub_client\src/iothub_client_authorization.c ****                 dev_auth_cred.sas_info.token_scope = scope;
 342:Source\azure_iot_sdk\iothub_client\src/iothub_client_authorization.c ****                 dev_auth_cred.sas_info.key_name = key_name;
 343:Source\azure_iot_sdk\iothub_client\src/iothub_client_authorization.c ****                 dev_auth_cred.dev_auth_type = AUTH_TYPE_SAS;
 344:Source\azure_iot_sdk\iothub_client\src/iothub_client_authorization.c **** 
 345:Source\azure_iot_sdk\iothub_client\src/iothub_client_authorization.c ****                 CREDENTIAL_RESULT* cred_result = iothub_device_auth_generate_credentials(handle->de
 346:Source\azure_iot_sdk\iothub_client\src/iothub_client_authorization.c ****                 if (cred_result == NULL)
 347:Source\azure_iot_sdk\iothub_client\src/iothub_client_authorization.c ****                 {
 348:Source\azure_iot_sdk\iothub_client\src/iothub_client_authorization.c ****                     LogError("failure getting credentials from device auth module");
 349:Source\azure_iot_sdk\iothub_client\src/iothub_client_authorization.c ****                     result = NULL;
 350:Source\azure_iot_sdk\iothub_client\src/iothub_client_authorization.c ****                 }
 351:Source\azure_iot_sdk\iothub_client\src/iothub_client_authorization.c ****                 else
 352:Source\azure_iot_sdk\iothub_client\src/iothub_client_authorization.c ****                 {
 353:Source\azure_iot_sdk\iothub_client\src/iothub_client_authorization.c ****                     if (mallocAndStrcpy_s(&result, cred_result->auth_cred_result.sas_result.sas_tok
 354:Source\azure_iot_sdk\iothub_client\src/iothub_client_authorization.c ****                     {
 355:Source\azure_iot_sdk\iothub_client\src/iothub_client_authorization.c ****                         LogError("failure allocating Sas Token");
 356:Source\azure_iot_sdk\iothub_client\src/iothub_client_authorization.c ****                         result = NULL;
 357:Source\azure_iot_sdk\iothub_client\src/iothub_client_authorization.c ****                     }
 358:Source\azure_iot_sdk\iothub_client\src/iothub_client_authorization.c ****                     free(cred_result);
 359:Source\azure_iot_sdk\iothub_client\src/iothub_client_authorization.c ****                 }
 360:Source\azure_iot_sdk\iothub_client\src/iothub_client_authorization.c ****             }
 361:Source\azure_iot_sdk\iothub_client\src/iothub_client_authorization.c **** #else
 362:Source\azure_iot_sdk\iothub_client\src/iothub_client_authorization.c ****             LogError("Failed HSM module is not supported");
 934              		.loc 1 362 0 discriminator 3
 935 003c FFF7FEFF 		bl	xlogging_get_log_function
 936              	.LVL140:
 937 0040 041E     		subs	r4, r0, #0
 938              	.LVL141:
 939 0042 0AD0     		beq	.L57
 940              		.loc 1 362 0 is_stmt 0 discriminator 4
 941 0044 5E4B     		ldr	r3, .L73+12
 942 0046 0193     		str	r3, [sp, #4]
 943 0048 0123     		movs	r3, #1
 944 004a 0093     		str	r3, [sp]
ARM GAS  C:\Users\Phuong\AppData\Local\Temp\ccVjqX8s.s 			page 24


 945 004c 6A33     		adds	r3, r3, #106
 946 004e FF33     		adds	r3, r3, #255
 947 0050 594A     		ldr	r2, .L73+4
 948 0052 2C32     		adds	r2, r2, #44
 949 0054 5949     		ldr	r1, .L73+8
 950 0056 0020     		movs	r0, #0
 951              	.LVL142:
 952 0058 A047     		blx	r4
 953              	.LVL143:
 954              	.L57:
 955              	.LBE16:
 363:Source\azure_iot_sdk\iothub_client\src/iothub_client_authorization.c ****             result = NULL;
 956              		.loc 1 363 0 is_stmt 1
 957 005a 0023     		movs	r3, #0
 958 005c 0593     		str	r3, [sp, #20]
 959 005e A5E0     		b	.L55
 960              	.LVL144:
 961              	.L56:
 364:Source\azure_iot_sdk\iothub_client\src/iothub_client_authorization.c **** #endif
 365:Source\azure_iot_sdk\iothub_client\src/iothub_client_authorization.c ****         }
 366:Source\azure_iot_sdk\iothub_client\src/iothub_client_authorization.c ****         else if (handle->cred_type == IOTHUB_CREDENTIAL_TYPE_SAS_TOKEN)
 962              		.loc 1 366 0
 963 0060 042B     		cmp	r3, #4
 964 0062 2CD1     		bne	.L58
 367:Source\azure_iot_sdk\iothub_client\src/iothub_client_authorization.c ****         {
 368:Source\azure_iot_sdk\iothub_client\src/iothub_client_authorization.c ****             /* Codes_SRS_IoTHub_Authorization_07_021: [If the device_sas_token is NOT NULL IoTHubCl
 369:Source\azure_iot_sdk\iothub_client\src/iothub_client_authorization.c ****             if (handle->device_sas_token != NULL)
 965              		.loc 1 369 0
 966 0064 0168     		ldr	r1, [r0]
 967              	.LVL145:
 968 0066 0029     		cmp	r1, #0
 969 0068 17D0     		beq	.L59
 370:Source\azure_iot_sdk\iothub_client\src/iothub_client_authorization.c ****             {
 371:Source\azure_iot_sdk\iothub_client\src/iothub_client_authorization.c ****                 if (mallocAndStrcpy_s(&result, handle->device_sas_token) != 0)
 970              		.loc 1 371 0
 971 006a 05A8     		add	r0, sp, #20
 972              	.LVL146:
 973 006c FFF7FEFF 		bl	mallocAndStrcpy_s
 974              	.LVL147:
 975 0070 0028     		cmp	r0, #0
 976 0072 00D1     		bne	.LCB1019
 977 0074 9AE0     		b	.L55	@long jump
 978              	.LCB1019:
 979              	.LBB17:
 372:Source\azure_iot_sdk\iothub_client\src/iothub_client_authorization.c ****                 {
 373:Source\azure_iot_sdk\iothub_client\src/iothub_client_authorization.c ****                     LogError("failure allocating sas token");
 980              		.loc 1 373 0 discriminator 3
 981 0076 FFF7FEFF 		bl	xlogging_get_log_function
 982              	.LVL148:
 983 007a 041E     		subs	r4, r0, #0
 984              	.LVL149:
 985 007c 0AD0     		beq	.L60
 986              		.loc 1 373 0 is_stmt 0 discriminator 4
 987 007e 514B     		ldr	r3, .L73+16
 988 0080 0193     		str	r3, [sp, #4]
 989 0082 0123     		movs	r3, #1
 990 0084 0093     		str	r3, [sp]
ARM GAS  C:\Users\Phuong\AppData\Local\Temp\ccVjqX8s.s 			page 25


 991 0086 7623     		movs	r3, #118
 992 0088 FF33     		adds	r3, r3, #255
 993 008a 4B4A     		ldr	r2, .L73+4
 994 008c 2C32     		adds	r2, r2, #44
 995 008e 4B49     		ldr	r1, .L73+8
 996 0090 0020     		movs	r0, #0
 997              	.LVL150:
 998 0092 A047     		blx	r4
 999              	.LVL151:
 1000              	.L60:
 1001              	.LBE17:
 374:Source\azure_iot_sdk\iothub_client\src/iothub_client_authorization.c ****                     result = NULL;
 1002              		.loc 1 374 0 is_stmt 1
 1003 0094 0023     		movs	r3, #0
 1004 0096 0593     		str	r3, [sp, #20]
 1005 0098 88E0     		b	.L55
 1006              	.LVL152:
 1007              	.L59:
 1008              	.LBB18:
 375:Source\azure_iot_sdk\iothub_client\src/iothub_client_authorization.c ****                 }
 376:Source\azure_iot_sdk\iothub_client\src/iothub_client_authorization.c ****             }
 377:Source\azure_iot_sdk\iothub_client\src/iothub_client_authorization.c ****             else
 378:Source\azure_iot_sdk\iothub_client\src/iothub_client_authorization.c ****             {
 379:Source\azure_iot_sdk\iothub_client\src/iothub_client_authorization.c ****                 LogError("failure device sas token is NULL");
 1009              		.loc 1 379 0 discriminator 3
 1010 009a FFF7FEFF 		bl	xlogging_get_log_function
 1011              	.LVL153:
 1012 009e 041E     		subs	r4, r0, #0
 1013              	.LVL154:
 1014 00a0 0AD0     		beq	.L61
 1015              		.loc 1 379 0 is_stmt 0 discriminator 4
 1016 00a2 494B     		ldr	r3, .L73+20
 1017 00a4 0193     		str	r3, [sp, #4]
 1018 00a6 0123     		movs	r3, #1
 1019 00a8 0093     		str	r3, [sp]
 1020 00aa 7C23     		movs	r3, #124
 1021 00ac FF33     		adds	r3, r3, #255
 1022 00ae 424A     		ldr	r2, .L73+4
 1023 00b0 2C32     		adds	r2, r2, #44
 1024 00b2 4249     		ldr	r1, .L73+8
 1025 00b4 0020     		movs	r0, #0
 1026              	.LVL155:
 1027 00b6 A047     		blx	r4
 1028              	.LVL156:
 1029              	.L61:
 1030              	.LBE18:
 380:Source\azure_iot_sdk\iothub_client\src/iothub_client_authorization.c ****                 result = NULL;
 1031              		.loc 1 380 0 is_stmt 1
 1032 00b8 0023     		movs	r3, #0
 1033 00ba 0593     		str	r3, [sp, #20]
 1034 00bc 76E0     		b	.L55
 1035              	.LVL157:
 1036              	.L58:
 381:Source\azure_iot_sdk\iothub_client\src/iothub_client_authorization.c ****             }
 382:Source\azure_iot_sdk\iothub_client\src/iothub_client_authorization.c ****         }
 383:Source\azure_iot_sdk\iothub_client\src/iothub_client_authorization.c ****         else if (handle->cred_type == IOTHUB_CREDENTIAL_TYPE_DEVICE_KEY)
 1037              		.loc 1 383 0
ARM GAS  C:\Users\Phuong\AppData\Local\Temp\ccVjqX8s.s 			page 26


 1038 00be 012B     		cmp	r3, #1
 1039 00c0 63D1     		bne	.L62
 384:Source\azure_iot_sdk\iothub_client\src/iothub_client_authorization.c ****         {
 385:Source\azure_iot_sdk\iothub_client\src/iothub_client_authorization.c ****             /* Codes_SRS_IoTHub_Authorization_07_009: [ if handle or scope are NULL, IoTHubClient_A
 386:Source\azure_iot_sdk\iothub_client\src/iothub_client_authorization.c ****             if (scope == NULL)
 1040              		.loc 1 386 0
 1041 00c2 0029     		cmp	r1, #0
 1042 00c4 12D1     		bne	.L63
 1043              	.LBB19:
 387:Source\azure_iot_sdk\iothub_client\src/iothub_client_authorization.c ****             {
 388:Source\azure_iot_sdk\iothub_client\src/iothub_client_authorization.c ****                 LogError("Invalid Parameter scope: %p", scope);
 1044              		.loc 1 388 0 discriminator 3
 1045 00c6 FFF7FEFF 		bl	xlogging_get_log_function
 1046              	.LVL158:
 1047 00ca 041E     		subs	r4, r0, #0
 1048              	.LVL159:
 1049 00cc 0BD0     		beq	.L64
 1050              		.loc 1 388 0 is_stmt 0 discriminator 4
 1051 00ce 0295     		str	r5, [sp, #8]
 1052 00d0 3E4B     		ldr	r3, .L73+24
 1053 00d2 0193     		str	r3, [sp, #4]
 1054 00d4 0123     		movs	r3, #1
 1055 00d6 0093     		str	r3, [sp]
 1056 00d8 8433     		adds	r3, r3, #132
 1057 00da FF33     		adds	r3, r3, #255
 1058 00dc 364A     		ldr	r2, .L73+4
 1059 00de 2C32     		adds	r2, r2, #44
 1060 00e0 3649     		ldr	r1, .L73+8
 1061 00e2 0020     		movs	r0, #0
 1062              	.LVL160:
 1063 00e4 A047     		blx	r4
 1064              	.LVL161:
 1065              	.L64:
 1066              	.LBE19:
 389:Source\azure_iot_sdk\iothub_client\src/iothub_client_authorization.c ****                 result = NULL;
 1067              		.loc 1 389 0 is_stmt 1
 1068 00e6 0023     		movs	r3, #0
 1069 00e8 0593     		str	r3, [sp, #20]
 1070 00ea 5FE0     		b	.L55
 1071              	.LVL162:
 1072              	.L63:
 1073              	.LBB20:
 390:Source\azure_iot_sdk\iothub_client\src/iothub_client_authorization.c ****             }
 391:Source\azure_iot_sdk\iothub_client\src/iothub_client_authorization.c ****             else
 392:Source\azure_iot_sdk\iothub_client\src/iothub_client_authorization.c ****             {
 393:Source\azure_iot_sdk\iothub_client\src/iothub_client_authorization.c ****                 STRING_HANDLE sas_token;
 394:Source\azure_iot_sdk\iothub_client\src/iothub_client_authorization.c ****                 size_t sec_since_epoch;
 395:Source\azure_iot_sdk\iothub_client\src/iothub_client_authorization.c **** 
 396:Source\azure_iot_sdk\iothub_client\src/iothub_client_authorization.c ****                 /* Codes_SRS_IoTHub_Authorization_07_010: [ IoTHubClient_Auth_Get_SasToken` shall c
 397:Source\azure_iot_sdk\iothub_client\src/iothub_client_authorization.c ****                 if (get_seconds_since_epoch(&sec_since_epoch) != 0)
 1074              		.loc 1 397 0
 1075 00ec 04A8     		add	r0, sp, #16
 1076              	.LVL163:
 1077 00ee FFF7FEFF 		bl	get_seconds_since_epoch
 1078              	.LVL164:
 1079 00f2 0028     		cmp	r0, #0
 1080 00f4 11D0     		beq	.L65
ARM GAS  C:\Users\Phuong\AppData\Local\Temp\ccVjqX8s.s 			page 27


 1081              	.LBB21:
 398:Source\azure_iot_sdk\iothub_client\src/iothub_client_authorization.c ****                 {
 399:Source\azure_iot_sdk\iothub_client\src/iothub_client_authorization.c ****                     /* Codes_SRS_IoTHub_Authorization_07_020: [ If any error is encountered IoTHubC
 400:Source\azure_iot_sdk\iothub_client\src/iothub_client_authorization.c ****                     LogError("failure getting seconds from epoch");
 1082              		.loc 1 400 0 discriminator 3
 1083 00f6 FFF7FEFF 		bl	xlogging_get_log_function
 1084              	.LVL165:
 1085 00fa 041E     		subs	r4, r0, #0
 1086              	.LVL166:
 1087 00fc 0AD0     		beq	.L66
 1088              		.loc 1 400 0 is_stmt 0 discriminator 4
 1089 00fe 344B     		ldr	r3, .L73+28
 1090 0100 0193     		str	r3, [sp, #4]
 1091 0102 0123     		movs	r3, #1
 1092 0104 0093     		str	r3, [sp]
 1093 0106 9033     		adds	r3, r3, #144
 1094 0108 FF33     		adds	r3, r3, #255
 1095 010a 2B4A     		ldr	r2, .L73+4
 1096 010c 2C32     		adds	r2, r2, #44
 1097 010e 2B49     		ldr	r1, .L73+8
 1098 0110 0020     		movs	r0, #0
 1099              	.LVL167:
 1100 0112 A047     		blx	r4
 1101              	.LVL168:
 1102              	.L66:
 1103              	.LBE21:
 401:Source\azure_iot_sdk\iothub_client\src/iothub_client_authorization.c ****                     result = NULL;
 1104              		.loc 1 401 0 is_stmt 1
 1105 0114 0023     		movs	r3, #0
 1106 0116 0593     		str	r3, [sp, #20]
 1107 0118 48E0     		b	.L55
 1108              	.LVL169:
 1109              	.L65:
 1110              	.LBB22:
 402:Source\azure_iot_sdk\iothub_client\src/iothub_client_authorization.c ****                 }
 403:Source\azure_iot_sdk\iothub_client\src/iothub_client_authorization.c ****                 else
 404:Source\azure_iot_sdk\iothub_client\src/iothub_client_authorization.c ****                 {
 405:Source\azure_iot_sdk\iothub_client\src/iothub_client_authorization.c ****                     /* Codes_SRS_IoTHub_Authorization_07_011: [ IoTHubClient_Auth_Get_ConnString sh
 406:Source\azure_iot_sdk\iothub_client\src/iothub_client_authorization.c ****                     size_t expiry_time = sec_since_epoch+expiry_time_relative_seconds;
 1111              		.loc 1 406 0
 1112 011a 049B     		ldr	r3, [sp, #16]
 1113 011c 9B19     		adds	r3, r3, r6
 1114              	.LVL170:
 407:Source\azure_iot_sdk\iothub_client\src/iothub_client_authorization.c ****                     if ( (sas_token = SASToken_CreateString(handle->device_key, scope, key_name, ex
 1115              		.loc 1 407 0
 1116 011e 6068     		ldr	r0, [r4, #4]
 1117 0120 3A00     		movs	r2, r7
 1118 0122 2900     		movs	r1, r5
 1119 0124 FFF7FEFF 		bl	SASToken_CreateString
 1120              	.LVL171:
 1121 0128 041E     		subs	r4, r0, #0
 1122              	.LVL172:
 1123 012a 11D1     		bne	.L68
 1124              	.LBB23:
 408:Source\azure_iot_sdk\iothub_client\src/iothub_client_authorization.c ****                     {
 409:Source\azure_iot_sdk\iothub_client\src/iothub_client_authorization.c ****                         /* Codes_SRS_IoTHub_Authorization_07_020: [ If any error is encountered IoT
 410:Source\azure_iot_sdk\iothub_client\src/iothub_client_authorization.c ****                         LogError("Failed creating sas_token");
ARM GAS  C:\Users\Phuong\AppData\Local\Temp\ccVjqX8s.s 			page 28


 1125              		.loc 1 410 0 discriminator 3
 1126 012c FFF7FEFF 		bl	xlogging_get_log_function
 1127              	.LVL173:
 1128 0130 041E     		subs	r4, r0, #0
 1129              	.LVL174:
 1130 0132 0AD0     		beq	.L69
 1131              		.loc 1 410 0 is_stmt 0 discriminator 4
 1132 0134 274B     		ldr	r3, .L73+32
 1133 0136 0193     		str	r3, [sp, #4]
 1134 0138 0123     		movs	r3, #1
 1135 013a 0093     		str	r3, [sp]
 1136 013c 9A33     		adds	r3, r3, #154
 1137 013e FF33     		adds	r3, r3, #255
 1138 0140 1D4A     		ldr	r2, .L73+4
 1139 0142 2C32     		adds	r2, r2, #44
 1140 0144 1D49     		ldr	r1, .L73+8
 1141 0146 0020     		movs	r0, #0
 1142              	.LVL175:
 1143 0148 A047     		blx	r4
 1144              	.LVL176:
 1145              	.L69:
 1146              	.LBE23:
 411:Source\azure_iot_sdk\iothub_client\src/iothub_client_authorization.c ****                         result = NULL;
 1147              		.loc 1 411 0 is_stmt 1
 1148 014a 0023     		movs	r3, #0
 1149 014c 0593     		str	r3, [sp, #20]
 1150 014e 2DE0     		b	.L55
 1151              	.LVL177:
 1152              	.L68:
 412:Source\azure_iot_sdk\iothub_client\src/iothub_client_authorization.c ****                     }
 413:Source\azure_iot_sdk\iothub_client\src/iothub_client_authorization.c ****                     else
 414:Source\azure_iot_sdk\iothub_client\src/iothub_client_authorization.c ****                     {
 415:Source\azure_iot_sdk\iothub_client\src/iothub_client_authorization.c ****                         /* Codes_SRS_IoTHub_Authorization_07_012: [ On success IoTHubClient_Auth_Ge
 416:Source\azure_iot_sdk\iothub_client\src/iothub_client_authorization.c ****                         if (mallocAndStrcpy_s(&result, STRING_c_str(sas_token) ) != 0)
 1153              		.loc 1 416 0
 1154 0150 FFF7FEFF 		bl	STRING_c_str
 1155              	.LVL178:
 1156 0154 0100     		movs	r1, r0
 1157 0156 05A8     		add	r0, sp, #20
 1158 0158 FFF7FEFF 		bl	mallocAndStrcpy_s
 1159              	.LVL179:
 1160 015c 0028     		cmp	r0, #0
 1161 015e 10D0     		beq	.L70
 1162              	.LBB24:
 417:Source\azure_iot_sdk\iothub_client\src/iothub_client_authorization.c ****                         {
 418:Source\azure_iot_sdk\iothub_client\src/iothub_client_authorization.c ****                             /* Codes_SRS_IoTHub_Authorization_07_020: [ If any error is encountered
 419:Source\azure_iot_sdk\iothub_client\src/iothub_client_authorization.c ****                             LogError("Failed copying result");
 1163              		.loc 1 419 0 discriminator 3
 1164 0160 FFF7FEFF 		bl	xlogging_get_log_function
 1165              	.LVL180:
 1166 0164 051E     		subs	r5, r0, #0
 1167              	.LVL181:
 1168 0166 0AD0     		beq	.L71
 1169              		.loc 1 419 0 is_stmt 0 discriminator 4
 1170 0168 1B4B     		ldr	r3, .L73+36
 1171 016a 0193     		str	r3, [sp, #4]
 1172 016c 0123     		movs	r3, #1
ARM GAS  C:\Users\Phuong\AppData\Local\Temp\ccVjqX8s.s 			page 29


 1173 016e 0093     		str	r3, [sp]
 1174 0170 A423     		movs	r3, #164
 1175 0172 FF33     		adds	r3, r3, #255
 1176 0174 104A     		ldr	r2, .L73+4
 1177 0176 2C32     		adds	r2, r2, #44
 1178 0178 1049     		ldr	r1, .L73+8
 1179 017a 0020     		movs	r0, #0
 1180              	.LVL182:
 1181 017c A847     		blx	r5
 1182              	.LVL183:
 1183              	.L71:
 1184              	.LBE24:
 420:Source\azure_iot_sdk\iothub_client\src/iothub_client_authorization.c ****                             result = NULL;
 1185              		.loc 1 420 0 is_stmt 1
 1186 017e 0023     		movs	r3, #0
 1187 0180 0593     		str	r3, [sp, #20]
 1188              	.LVL184:
 1189              	.L70:
 421:Source\azure_iot_sdk\iothub_client\src/iothub_client_authorization.c ****                         }
 422:Source\azure_iot_sdk\iothub_client\src/iothub_client_authorization.c ****                         STRING_delete(sas_token);
 1190              		.loc 1 422 0
 1191 0182 2000     		movs	r0, r4
 1192 0184 FFF7FEFF 		bl	STRING_delete
 1193              	.LVL185:
 1194 0188 10E0     		b	.L55
 1195              	.LVL186:
 1196              	.L62:
 1197              	.LBE22:
 1198              	.LBE20:
 1199              	.LBB25:
 423:Source\azure_iot_sdk\iothub_client\src/iothub_client_authorization.c ****                     }
 424:Source\azure_iot_sdk\iothub_client\src/iothub_client_authorization.c ****                 }
 425:Source\azure_iot_sdk\iothub_client\src/iothub_client_authorization.c ****             }
 426:Source\azure_iot_sdk\iothub_client\src/iothub_client_authorization.c ****         }
 427:Source\azure_iot_sdk\iothub_client\src/iothub_client_authorization.c ****         else
 428:Source\azure_iot_sdk\iothub_client\src/iothub_client_authorization.c ****         {
 429:Source\azure_iot_sdk\iothub_client\src/iothub_client_authorization.c ****             LogError("Failed getting sas token invalid credential type");
 1200              		.loc 1 429 0 discriminator 3
 1201 018a FFF7FEFF 		bl	xlogging_get_log_function
 1202              	.LVL187:
 1203 018e 041E     		subs	r4, r0, #0
 1204              	.LVL188:
 1205 0190 0AD0     		beq	.L72
 1206              		.loc 1 429 0 is_stmt 0 discriminator 4
 1207 0192 124B     		ldr	r3, .L73+40
 1208 0194 0193     		str	r3, [sp, #4]
 1209 0196 0123     		movs	r3, #1
 1210 0198 0093     		str	r3, [sp]
 1211 019a AE23     		movs	r3, #174
 1212 019c FF33     		adds	r3, r3, #255
 1213 019e 064A     		ldr	r2, .L73+4
 1214 01a0 2C32     		adds	r2, r2, #44
 1215 01a2 0649     		ldr	r1, .L73+8
 1216 01a4 0020     		movs	r0, #0
 1217              	.LVL189:
 1218 01a6 A047     		blx	r4
 1219              	.LVL190:
ARM GAS  C:\Users\Phuong\AppData\Local\Temp\ccVjqX8s.s 			page 30


 1220              	.L72:
 1221              	.LBE25:
 430:Source\azure_iot_sdk\iothub_client\src/iothub_client_authorization.c ****             result = NULL;
 1222              		.loc 1 430 0 is_stmt 1
 1223 01a8 0023     		movs	r3, #0
 1224 01aa 0593     		str	r3, [sp, #20]
 1225              	.LVL191:
 1226              	.L55:
 431:Source\azure_iot_sdk\iothub_client\src/iothub_client_authorization.c ****         }
 432:Source\azure_iot_sdk\iothub_client\src/iothub_client_authorization.c ****     }
 433:Source\azure_iot_sdk\iothub_client\src/iothub_client_authorization.c ****     return result;
 434:Source\azure_iot_sdk\iothub_client\src/iothub_client_authorization.c **** }
 1227              		.loc 1 434 0
 1228 01ac 0598     		ldr	r0, [sp, #20]
 1229 01ae 07B0     		add	sp, sp, #28
 1230              		@ sp needed
 1231              	.LVL192:
 1232              	.LVL193:
 1233 01b0 F0BD     		pop	{r4, r5, r6, r7, pc}
 1234              	.L74:
 1235 01b2 C046     		.align	2
 1236              	.L73:
 1237 01b4 84010000 		.word	.LC29
 1238 01b8 80000000 		.word	.LANCHOR1
 1239 01bc 00000000 		.word	.LC1
 1240 01c0 0C010000 		.word	.LC18
 1241 01c4 A4010000 		.word	.LC35
 1242 01c8 C4010000 		.word	.LC37
 1243 01cc E8010000 		.word	.LC39
 1244 01d0 04020000 		.word	.LC41
 1245 01d4 28020000 		.word	.LC43
 1246 01d8 44020000 		.word	.LC45
 1247 01dc 5C020000 		.word	.LC47
 1248              		.cfi_endproc
 1249              	.LFE8:
 1250              		.size	IoTHubClient_Auth_Get_SasToken, .-IoTHubClient_Auth_Get_SasToken
 1251              		.section	.text.IoTHubClient_Auth_Get_DeviceId,"ax",%progbits
 1252              		.align	2
 1253              		.global	IoTHubClient_Auth_Get_DeviceId
 1254              		.code	16
 1255              		.thumb_func
 1256              		.type	IoTHubClient_Auth_Get_DeviceId, %function
 1257              	IoTHubClient_Auth_Get_DeviceId:
 1258              	.LFB9:
 435:Source\azure_iot_sdk\iothub_client\src/iothub_client_authorization.c **** 
 436:Source\azure_iot_sdk\iothub_client\src/iothub_client_authorization.c **** const char* IoTHubClient_Auth_Get_DeviceId(IOTHUB_AUTHORIZATION_HANDLE handle)
 437:Source\azure_iot_sdk\iothub_client\src/iothub_client_authorization.c **** {
 1259              		.loc 1 437 0
 1260              		.cfi_startproc
 1261              		@ args = 0, pretend = 0, frame = 0
 1262              		@ frame_needed = 0, uses_anonymous_args = 0
 1263              	.LVL194:
 1264 0000 30B5     		push	{r4, r5, lr}
 1265              		.cfi_def_cfa_offset 12
 1266              		.cfi_offset 4, -12
 1267              		.cfi_offset 5, -8
 1268              		.cfi_offset 14, -4
ARM GAS  C:\Users\Phuong\AppData\Local\Temp\ccVjqX8s.s 			page 31


 1269 0002 85B0     		sub	sp, sp, #20
 1270              		.cfi_def_cfa_offset 32
 1271 0004 041E     		subs	r4, r0, #0
 438:Source\azure_iot_sdk\iothub_client\src/iothub_client_authorization.c ****     const char* result;
 439:Source\azure_iot_sdk\iothub_client\src/iothub_client_authorization.c ****     if (handle == NULL)
 1272              		.loc 1 439 0
 1273 0006 11D1     		bne	.L76
 1274              	.LBB26:
 440:Source\azure_iot_sdk\iothub_client\src/iothub_client_authorization.c ****     {
 441:Source\azure_iot_sdk\iothub_client\src/iothub_client_authorization.c ****         /* Codes_SRS_IoTHub_Authorization_07_013: [ if handle is NULL, IoTHubClient_Auth_Get_Device
 442:Source\azure_iot_sdk\iothub_client\src/iothub_client_authorization.c ****         LogError("Invalid Parameter handle: %p", handle);
 1275              		.loc 1 442 0 discriminator 3
 1276 0008 FFF7FEFF 		bl	xlogging_get_log_function
 1277              	.LVL195:
 1278 000c 051E     		subs	r5, r0, #0
 1279              	.LVL196:
 1280 000e 0FD0     		beq	.L78
 1281              		.loc 1 442 0 is_stmt 0 discriminator 4
 1282 0010 0294     		str	r4, [sp, #8]
 1283 0012 094B     		ldr	r3, .L79
 1284 0014 0193     		str	r3, [sp, #4]
 1285 0016 0123     		movs	r3, #1
 1286 0018 0093     		str	r3, [sp]
 1287 001a BA33     		adds	r3, r3, #186
 1288 001c FF33     		adds	r3, r3, #255
 1289 001e 074A     		ldr	r2, .L79+4
 1290 0020 4C32     		adds	r2, r2, #76
 1291 0022 0749     		ldr	r1, .L79+8
 1292 0024 0020     		movs	r0, #0
 1293              	.LVL197:
 1294 0026 A847     		blx	r5
 1295              	.LVL198:
 1296              	.LBE26:
 443:Source\azure_iot_sdk\iothub_client\src/iothub_client_authorization.c ****         result = NULL;
 1297              		.loc 1 443 0 is_stmt 1 discriminator 4
 1298 0028 0020     		movs	r0, #0
 1299 002a 02E0     		b	.L77
 1300              	.LVL199:
 1301              	.L76:
 444:Source\azure_iot_sdk\iothub_client\src/iothub_client_authorization.c ****     }
 445:Source\azure_iot_sdk\iothub_client\src/iothub_client_authorization.c ****     else
 446:Source\azure_iot_sdk\iothub_client\src/iothub_client_authorization.c ****     {
 447:Source\azure_iot_sdk\iothub_client\src/iothub_client_authorization.c ****         /* Codes_SRS_IoTHub_Authorization_07_014: [ IoTHubClient_Auth_Get_DeviceId shall return the
 448:Source\azure_iot_sdk\iothub_client\src/iothub_client_authorization.c ****         result = handle->device_id;
 1302              		.loc 1 448 0
 1303 002c 8068     		ldr	r0, [r0, #8]
 1304              	.LVL200:
 1305 002e 00E0     		b	.L77
 1306              	.LVL201:
 1307              	.L78:
 443:Source\azure_iot_sdk\iothub_client\src/iothub_client_authorization.c ****         result = NULL;
 1308              		.loc 1 443 0
 1309 0030 0020     		movs	r0, #0
 1310              	.LVL202:
 1311              	.L77:
 449:Source\azure_iot_sdk\iothub_client\src/iothub_client_authorization.c ****     }
 450:Source\azure_iot_sdk\iothub_client\src/iothub_client_authorization.c ****     return result;
ARM GAS  C:\Users\Phuong\AppData\Local\Temp\ccVjqX8s.s 			page 32


 451:Source\azure_iot_sdk\iothub_client\src/iothub_client_authorization.c **** }
 1312              		.loc 1 451 0
 1313 0032 05B0     		add	sp, sp, #20
 1314              		@ sp needed
 1315              	.LVL203:
 1316 0034 30BD     		pop	{r4, r5, pc}
 1317              	.L80:
 1318 0036 C046     		.align	2
 1319              	.L79:
 1320 0038 84010000 		.word	.LC29
 1321 003c 80000000 		.word	.LANCHOR1
 1322 0040 00000000 		.word	.LC1
 1323              		.cfi_endproc
 1324              	.LFE9:
 1325              		.size	IoTHubClient_Auth_Get_DeviceId, .-IoTHubClient_Auth_Get_DeviceId
 1326              		.section	.text.IoTHubClient_Auth_Get_ModuleId,"ax",%progbits
 1327              		.align	2
 1328              		.global	IoTHubClient_Auth_Get_ModuleId
 1329              		.code	16
 1330              		.thumb_func
 1331              		.type	IoTHubClient_Auth_Get_ModuleId, %function
 1332              	IoTHubClient_Auth_Get_ModuleId:
 1333              	.LFB10:
 452:Source\azure_iot_sdk\iothub_client\src/iothub_client_authorization.c **** 
 453:Source\azure_iot_sdk\iothub_client\src/iothub_client_authorization.c **** const char* IoTHubClient_Auth_Get_ModuleId(IOTHUB_AUTHORIZATION_HANDLE handle)
 454:Source\azure_iot_sdk\iothub_client\src/iothub_client_authorization.c **** {
 1334              		.loc 1 454 0
 1335              		.cfi_startproc
 1336              		@ args = 0, pretend = 0, frame = 0
 1337              		@ frame_needed = 0, uses_anonymous_args = 0
 1338              	.LVL204:
 1339 0000 30B5     		push	{r4, r5, lr}
 1340              		.cfi_def_cfa_offset 12
 1341              		.cfi_offset 4, -12
 1342              		.cfi_offset 5, -8
 1343              		.cfi_offset 14, -4
 1344 0002 85B0     		sub	sp, sp, #20
 1345              		.cfi_def_cfa_offset 32
 1346 0004 041E     		subs	r4, r0, #0
 455:Source\azure_iot_sdk\iothub_client\src/iothub_client_authorization.c ****     const char* result;
 456:Source\azure_iot_sdk\iothub_client\src/iothub_client_authorization.c ****     if (handle == NULL)
 1347              		.loc 1 456 0
 1348 0006 11D1     		bne	.L82
 1349              	.LBB27:
 457:Source\azure_iot_sdk\iothub_client\src/iothub_client_authorization.c ****     {
 458:Source\azure_iot_sdk\iothub_client\src/iothub_client_authorization.c ****         /* Codes_SRS_IoTHub_Authorization_31_025: [ if handle is NULL, IoTHubClient_Auth_Get_Module
 459:Source\azure_iot_sdk\iothub_client\src/iothub_client_authorization.c ****         LogError("Invalid Parameter handle: %p", handle);
 1350              		.loc 1 459 0 discriminator 3
 1351 0008 FFF7FEFF 		bl	xlogging_get_log_function
 1352              	.LVL205:
 1353 000c 051E     		subs	r5, r0, #0
 1354              	.LVL206:
 1355 000e 0FD0     		beq	.L84
 1356              		.loc 1 459 0 is_stmt 0 discriminator 4
 1357 0010 0294     		str	r4, [sp, #8]
 1358 0012 094B     		ldr	r3, .L85
 1359 0014 0193     		str	r3, [sp, #4]
ARM GAS  C:\Users\Phuong\AppData\Local\Temp\ccVjqX8s.s 			page 33


 1360 0016 0123     		movs	r3, #1
 1361 0018 0093     		str	r3, [sp]
 1362 001a CC23     		movs	r3, #204
 1363 001c FF33     		adds	r3, r3, #255
 1364 001e 074A     		ldr	r2, .L85+4
 1365 0020 6C32     		adds	r2, r2, #108
 1366 0022 0749     		ldr	r1, .L85+8
 1367 0024 0020     		movs	r0, #0
 1368              	.LVL207:
 1369 0026 A847     		blx	r5
 1370              	.LVL208:
 1371              	.LBE27:
 460:Source\azure_iot_sdk\iothub_client\src/iothub_client_authorization.c ****         result = NULL;
 1372              		.loc 1 460 0 is_stmt 1 discriminator 4
 1373 0028 0020     		movs	r0, #0
 1374 002a 02E0     		b	.L83
 1375              	.LVL209:
 1376              	.L82:
 461:Source\azure_iot_sdk\iothub_client\src/iothub_client_authorization.c ****     }
 462:Source\azure_iot_sdk\iothub_client\src/iothub_client_authorization.c ****     else
 463:Source\azure_iot_sdk\iothub_client\src/iothub_client_authorization.c ****     {
 464:Source\azure_iot_sdk\iothub_client\src/iothub_client_authorization.c ****         /* Codes_SRS_IoTHub_Authorization_31_026: [ IoTHubClient_Auth_Get_ModuleId shall return the
 465:Source\azure_iot_sdk\iothub_client\src/iothub_client_authorization.c ****         result = handle->module_id;
 1377              		.loc 1 465 0
 1378 002c C068     		ldr	r0, [r0, #12]
 1379              	.LVL210:
 1380 002e 00E0     		b	.L83
 1381              	.LVL211:
 1382              	.L84:
 460:Source\azure_iot_sdk\iothub_client\src/iothub_client_authorization.c ****         result = NULL;
 1383              		.loc 1 460 0
 1384 0030 0020     		movs	r0, #0
 1385              	.LVL212:
 1386              	.L83:
 466:Source\azure_iot_sdk\iothub_client\src/iothub_client_authorization.c ****     }
 467:Source\azure_iot_sdk\iothub_client\src/iothub_client_authorization.c ****     return result;
 468:Source\azure_iot_sdk\iothub_client\src/iothub_client_authorization.c **** }
 1387              		.loc 1 468 0
 1388 0032 05B0     		add	sp, sp, #20
 1389              		@ sp needed
 1390              	.LVL213:
 1391 0034 30BD     		pop	{r4, r5, pc}
 1392              	.L86:
 1393 0036 C046     		.align	2
 1394              	.L85:
 1395 0038 84010000 		.word	.LC29
 1396 003c 80000000 		.word	.LANCHOR1
 1397 0040 00000000 		.word	.LC1
 1398              		.cfi_endproc
 1399              	.LFE10:
 1400              		.size	IoTHubClient_Auth_Get_ModuleId, .-IoTHubClient_Auth_Get_ModuleId
 1401              		.section	.text.IoTHubClient_Auth_Get_DeviceKey,"ax",%progbits
 1402              		.align	2
 1403              		.global	IoTHubClient_Auth_Get_DeviceKey
 1404              		.code	16
 1405              		.thumb_func
 1406              		.type	IoTHubClient_Auth_Get_DeviceKey, %function
ARM GAS  C:\Users\Phuong\AppData\Local\Temp\ccVjqX8s.s 			page 34


 1407              	IoTHubClient_Auth_Get_DeviceKey:
 1408              	.LFB11:
 469:Source\azure_iot_sdk\iothub_client\src/iothub_client_authorization.c **** 
 470:Source\azure_iot_sdk\iothub_client\src/iothub_client_authorization.c **** const char* IoTHubClient_Auth_Get_DeviceKey(IOTHUB_AUTHORIZATION_HANDLE handle)
 471:Source\azure_iot_sdk\iothub_client\src/iothub_client_authorization.c **** {
 1409              		.loc 1 471 0
 1410              		.cfi_startproc
 1411              		@ args = 0, pretend = 0, frame = 0
 1412              		@ frame_needed = 0, uses_anonymous_args = 0
 1413              	.LVL214:
 1414 0000 30B5     		push	{r4, r5, lr}
 1415              		.cfi_def_cfa_offset 12
 1416              		.cfi_offset 4, -12
 1417              		.cfi_offset 5, -8
 1418              		.cfi_offset 14, -4
 1419 0002 85B0     		sub	sp, sp, #20
 1420              		.cfi_def_cfa_offset 32
 1421 0004 041E     		subs	r4, r0, #0
 472:Source\azure_iot_sdk\iothub_client\src/iothub_client_authorization.c ****     const char* result;
 473:Source\azure_iot_sdk\iothub_client\src/iothub_client_authorization.c ****     if (handle == NULL)
 1422              		.loc 1 473 0
 1423 0006 11D1     		bne	.L88
 1424              	.LBB28:
 474:Source\azure_iot_sdk\iothub_client\src/iothub_client_authorization.c ****     {
 475:Source\azure_iot_sdk\iothub_client\src/iothub_client_authorization.c ****         /* Codes_SRS_IoTHub_Authorization_07_022: [ if handle is NULL, IoTHubClient_Auth_Get_Device
 476:Source\azure_iot_sdk\iothub_client\src/iothub_client_authorization.c ****         LogError("Invalid Parameter handle: %p", handle);
 1425              		.loc 1 476 0 discriminator 3
 1426 0008 FFF7FEFF 		bl	xlogging_get_log_function
 1427              	.LVL215:
 1428 000c 051E     		subs	r5, r0, #0
 1429              	.LVL216:
 1430 000e 0FD0     		beq	.L90
 1431              		.loc 1 476 0 is_stmt 0 discriminator 4
 1432 0010 0294     		str	r4, [sp, #8]
 1433 0012 094B     		ldr	r3, .L91
 1434 0014 0193     		str	r3, [sp, #4]
 1435 0016 0123     		movs	r3, #1
 1436 0018 0093     		str	r3, [sp]
 1437 001a DC33     		adds	r3, r3, #220
 1438 001c FF33     		adds	r3, r3, #255
 1439 001e 074A     		ldr	r2, .L91+4
 1440 0020 0C32     		adds	r2, r2, #12
 1441 0022 0749     		ldr	r1, .L91+8
 1442 0024 0020     		movs	r0, #0
 1443              	.LVL217:
 1444 0026 A847     		blx	r5
 1445              	.LVL218:
 1446              	.LBE28:
 477:Source\azure_iot_sdk\iothub_client\src/iothub_client_authorization.c ****         result = NULL;
 1447              		.loc 1 477 0 is_stmt 1 discriminator 4
 1448 0028 0020     		movs	r0, #0
 1449 002a 02E0     		b	.L89
 1450              	.LVL219:
 1451              	.L88:
 478:Source\azure_iot_sdk\iothub_client\src/iothub_client_authorization.c ****     }
 479:Source\azure_iot_sdk\iothub_client\src/iothub_client_authorization.c ****     else
 480:Source\azure_iot_sdk\iothub_client\src/iothub_client_authorization.c ****     {
ARM GAS  C:\Users\Phuong\AppData\Local\Temp\ccVjqX8s.s 			page 35


 481:Source\azure_iot_sdk\iothub_client\src/iothub_client_authorization.c ****         /* Codes_SRS_IoTHub_Authorization_07_023: [ IoTHubClient_Auth_Get_DeviceKey shall return th
 482:Source\azure_iot_sdk\iothub_client\src/iothub_client_authorization.c ****         result = handle->device_key;
 1452              		.loc 1 482 0
 1453 002c 4068     		ldr	r0, [r0, #4]
 1454              	.LVL220:
 1455 002e 00E0     		b	.L89
 1456              	.LVL221:
 1457              	.L90:
 477:Source\azure_iot_sdk\iothub_client\src/iothub_client_authorization.c ****         result = NULL;
 1458              		.loc 1 477 0
 1459 0030 0020     		movs	r0, #0
 1460              	.LVL222:
 1461              	.L89:
 483:Source\azure_iot_sdk\iothub_client\src/iothub_client_authorization.c ****     }
 484:Source\azure_iot_sdk\iothub_client\src/iothub_client_authorization.c ****     return result;
 485:Source\azure_iot_sdk\iothub_client\src/iothub_client_authorization.c **** }
 1462              		.loc 1 485 0
 1463 0032 05B0     		add	sp, sp, #20
 1464              		@ sp needed
 1465              	.LVL223:
 1466 0034 30BD     		pop	{r4, r5, pc}
 1467              	.L92:
 1468 0036 C046     		.align	2
 1469              	.L91:
 1470 0038 84010000 		.word	.LC29
 1471 003c 00010000 		.word	.LANCHOR2
 1472 0040 00000000 		.word	.LC1
 1473              		.cfi_endproc
 1474              	.LFE11:
 1475              		.size	IoTHubClient_Auth_Get_DeviceKey, .-IoTHubClient_Auth_Get_DeviceKey
 1476              		.section	.text.IoTHubClient_Auth_Is_SasToken_Valid,"ax",%progbits
 1477              		.align	2
 1478              		.global	IoTHubClient_Auth_Is_SasToken_Valid
 1479              		.code	16
 1480              		.thumb_func
 1481              		.type	IoTHubClient_Auth_Is_SasToken_Valid, %function
 1482              	IoTHubClient_Auth_Is_SasToken_Valid:
 1483              	.LFB12:
 486:Source\azure_iot_sdk\iothub_client\src/iothub_client_authorization.c **** 
 487:Source\azure_iot_sdk\iothub_client\src/iothub_client_authorization.c **** SAS_TOKEN_STATUS IoTHubClient_Auth_Is_SasToken_Valid(IOTHUB_AUTHORIZATION_HANDLE handle)
 488:Source\azure_iot_sdk\iothub_client\src/iothub_client_authorization.c **** {
 1484              		.loc 1 488 0
 1485              		.cfi_startproc
 1486              		@ args = 0, pretend = 0, frame = 0
 1487              		@ frame_needed = 0, uses_anonymous_args = 0
 1488              	.LVL224:
 1489 0000 30B5     		push	{r4, r5, lr}
 1490              		.cfi_def_cfa_offset 12
 1491              		.cfi_offset 4, -12
 1492              		.cfi_offset 5, -8
 1493              		.cfi_offset 14, -4
 1494 0002 85B0     		sub	sp, sp, #20
 1495              		.cfi_def_cfa_offset 32
 1496 0004 041E     		subs	r4, r0, #0
 489:Source\azure_iot_sdk\iothub_client\src/iothub_client_authorization.c ****     SAS_TOKEN_STATUS result;
 490:Source\azure_iot_sdk\iothub_client\src/iothub_client_authorization.c ****     if (handle == NULL)
 1497              		.loc 1 490 0
ARM GAS  C:\Users\Phuong\AppData\Local\Temp\ccVjqX8s.s 			page 36


 1498 0006 10D1     		bne	.L94
 1499              	.LBB29:
 491:Source\azure_iot_sdk\iothub_client\src/iothub_client_authorization.c ****     {
 492:Source\azure_iot_sdk\iothub_client\src/iothub_client_authorization.c ****         /* Codes_SRS_IoTHub_Authorization_07_015: [ if handle is NULL, IoTHubClient_Auth_Is_SasToke
 493:Source\azure_iot_sdk\iothub_client\src/iothub_client_authorization.c ****         LogError("Invalid Parameter handle: %p", handle);
 1500              		.loc 1 493 0 discriminator 3
 1501 0008 FFF7FEFF 		bl	xlogging_get_log_function
 1502              	.LVL225:
 1503 000c 051E     		subs	r5, r0, #0
 1504              	.LVL226:
 1505 000e 43D0     		beq	.L99
 1506              		.loc 1 493 0 is_stmt 0 discriminator 4
 1507 0010 0294     		str	r4, [sp, #8]
 1508 0012 264B     		ldr	r3, .L104
 1509 0014 0193     		str	r3, [sp, #4]
 1510 0016 0123     		movs	r3, #1
 1511 0018 0093     		str	r3, [sp]
 1512 001a EE23     		movs	r3, #238
 1513 001c FF33     		adds	r3, r3, #255
 1514 001e 244A     		ldr	r2, .L104+4
 1515 0020 2C32     		adds	r2, r2, #44
 1516 0022 2449     		ldr	r1, .L104+8
 1517 0024 0020     		movs	r0, #0
 1518              	.LVL227:
 1519 0026 A847     		blx	r5
 1520              	.LVL228:
 1521 0028 3DE0     		b	.L95
 1522              	.LVL229:
 1523              	.L94:
 1524              	.LBE29:
 494:Source\azure_iot_sdk\iothub_client\src/iothub_client_authorization.c ****         result = SAS_TOKEN_STATUS_FAILED;
 495:Source\azure_iot_sdk\iothub_client\src/iothub_client_authorization.c ****     }
 496:Source\azure_iot_sdk\iothub_client\src/iothub_client_authorization.c ****     else
 497:Source\azure_iot_sdk\iothub_client\src/iothub_client_authorization.c ****     {
 498:Source\azure_iot_sdk\iothub_client\src/iothub_client_authorization.c ****         if (handle->cred_type == IOTHUB_CREDENTIAL_TYPE_SAS_TOKEN)
 1525              		.loc 1 498 0 is_stmt 1
 1526 002a 037D     		ldrb	r3, [r0, #20]
 1527 002c 042B     		cmp	r3, #4
 1528 002e 35D1     		bne	.L100
 499:Source\azure_iot_sdk\iothub_client\src/iothub_client_authorization.c ****         {
 500:Source\azure_iot_sdk\iothub_client\src/iothub_client_authorization.c ****             if (handle->device_sas_token == NULL)
 1529              		.loc 1 500 0
 1530 0030 0068     		ldr	r0, [r0]
 1531              	.LVL230:
 1532 0032 0028     		cmp	r0, #0
 1533 0034 10D1     		bne	.L96
 1534              	.LBB30:
 501:Source\azure_iot_sdk\iothub_client\src/iothub_client_authorization.c ****             {
 502:Source\azure_iot_sdk\iothub_client\src/iothub_client_authorization.c ****                 /* Codes_SRS_IoTHub_Authorization_07_017: [ If the sas_token is NULL IoTHubClient_A
 503:Source\azure_iot_sdk\iothub_client\src/iothub_client_authorization.c ****                 LogError("Failure: device_sas_toke is NULL");
 1535              		.loc 1 503 0 discriminator 3
 1536 0036 FFF7FEFF 		bl	xlogging_get_log_function
 1537              	.LVL231:
 1538 003a 041E     		subs	r4, r0, #0
 1539              	.LVL232:
 1540 003c 30D0     		beq	.L101
 1541              		.loc 1 503 0 is_stmt 0 discriminator 4
ARM GAS  C:\Users\Phuong\AppData\Local\Temp\ccVjqX8s.s 			page 37


 1542 003e 1E4B     		ldr	r3, .L104+12
 1543 0040 0193     		str	r3, [sp, #4]
 1544 0042 0123     		movs	r3, #1
 1545 0044 0093     		str	r3, [sp]
 1546 0046 F823     		movs	r3, #248
 1547 0048 FF33     		adds	r3, r3, #255
 1548 004a 194A     		ldr	r2, .L104+4
 1549 004c 2C32     		adds	r2, r2, #44
 1550 004e 1949     		ldr	r1, .L104+8
 1551 0050 0020     		movs	r0, #0
 1552              	.LVL233:
 1553 0052 A047     		blx	r4
 1554              	.LVL234:
 1555              	.LBE30:
 504:Source\azure_iot_sdk\iothub_client\src/iothub_client_authorization.c ****                 result = SAS_TOKEN_STATUS_FAILED;
 1556              		.loc 1 504 0 is_stmt 1 discriminator 4
 1557 0054 0024     		movs	r4, #0
 1558              	.LVL235:
 1559 0056 26E0     		b	.L95
 1560              	.LVL236:
 1561              	.L96:
 1562              	.LBB31:
 505:Source\azure_iot_sdk\iothub_client\src/iothub_client_authorization.c ****             }
 506:Source\azure_iot_sdk\iothub_client\src/iothub_client_authorization.c ****             else
 507:Source\azure_iot_sdk\iothub_client\src/iothub_client_authorization.c ****             {
 508:Source\azure_iot_sdk\iothub_client\src/iothub_client_authorization.c ****                 /* Codes_SRS_IoTHub_Authorization_07_018: [ otherwise IoTHubClient_Auth_Is_SasToken
 509:Source\azure_iot_sdk\iothub_client\src/iothub_client_authorization.c ****                 STRING_HANDLE strSasToken = STRING_construct(handle->device_sas_token);
 1563              		.loc 1 509 0
 1564 0058 FFF7FEFF 		bl	STRING_construct
 1565              	.LVL237:
 1566 005c 051E     		subs	r5, r0, #0
 1567              	.LVL238:
 510:Source\azure_iot_sdk\iothub_client\src/iothub_client_authorization.c ****                 if (strSasToken != NULL)
 1568              		.loc 1 510 0
 1569 005e 0AD0     		beq	.L97
 511:Source\azure_iot_sdk\iothub_client\src/iothub_client_authorization.c ****                 {
 512:Source\azure_iot_sdk\iothub_client\src/iothub_client_authorization.c ****                     if (!SASToken_Validate(strSasToken))
 1570              		.loc 1 512 0
 1571 0060 FFF7FEFF 		bl	SASToken_Validate
 1572              	.LVL239:
 1573 0064 0028     		cmp	r0, #0
 1574 0066 01D1     		bne	.L102
 513:Source\azure_iot_sdk\iothub_client\src/iothub_client_authorization.c ****                     {
 514:Source\azure_iot_sdk\iothub_client\src/iothub_client_authorization.c ****                         result = SAS_TOKEN_STATUS_INVALID;
 1575              		.loc 1 514 0
 1576 0068 0224     		movs	r4, #2
 1577              	.LVL240:
 1578 006a 00E0     		b	.L98
 1579              	.LVL241:
 1580              	.L102:
 515:Source\azure_iot_sdk\iothub_client\src/iothub_client_authorization.c ****                     }
 516:Source\azure_iot_sdk\iothub_client\src/iothub_client_authorization.c ****                     else
 517:Source\azure_iot_sdk\iothub_client\src/iothub_client_authorization.c ****                     {
 518:Source\azure_iot_sdk\iothub_client\src/iothub_client_authorization.c ****                         result = SAS_TOKEN_STATUS_VALID;
 1581              		.loc 1 518 0
 1582 006c 0124     		movs	r4, #1
 1583              	.LVL242:
ARM GAS  C:\Users\Phuong\AppData\Local\Temp\ccVjqX8s.s 			page 38


 1584              	.L98:
 519:Source\azure_iot_sdk\iothub_client\src/iothub_client_authorization.c ****                     }
 520:Source\azure_iot_sdk\iothub_client\src/iothub_client_authorization.c ****                     STRING_delete(strSasToken);
 1585              		.loc 1 520 0
 1586 006e 2800     		movs	r0, r5
 1587 0070 FFF7FEFF 		bl	STRING_delete
 1588              	.LVL243:
 1589 0074 17E0     		b	.L95
 1590              	.LVL244:
 1591              	.L97:
 1592              	.LBB32:
 521:Source\azure_iot_sdk\iothub_client\src/iothub_client_authorization.c ****                 }
 522:Source\azure_iot_sdk\iothub_client\src/iothub_client_authorization.c ****                 else
 523:Source\azure_iot_sdk\iothub_client\src/iothub_client_authorization.c ****                 {
 524:Source\azure_iot_sdk\iothub_client\src/iothub_client_authorization.c ****                     LogError("Failure constructing SAS Token");
 1593              		.loc 1 524 0 discriminator 3
 1594 0076 FFF7FEFF 		bl	xlogging_get_log_function
 1595              	.LVL245:
 1596 007a 041E     		subs	r4, r0, #0
 1597              	.LVL246:
 1598 007c 12D0     		beq	.L103
 1599              		.loc 1 524 0 is_stmt 0 discriminator 4
 1600 007e 0F4B     		ldr	r3, .L104+16
 1601 0080 0193     		str	r3, [sp, #4]
 1602 0082 0123     		movs	r3, #1
 1603 0084 0093     		str	r3, [sp]
 1604 0086 8323     		movs	r3, #131
 1605 0088 9B00     		lsls	r3, r3, #2
 1606 008a 094A     		ldr	r2, .L104+4
 1607 008c 2C32     		adds	r2, r2, #44
 1608 008e 0949     		ldr	r1, .L104+8
 1609 0090 0020     		movs	r0, #0
 1610              	.LVL247:
 1611 0092 A047     		blx	r4
 1612              	.LVL248:
 1613              	.LBE32:
 525:Source\azure_iot_sdk\iothub_client\src/iothub_client_authorization.c ****                     result = SAS_TOKEN_STATUS_FAILED;
 1614              		.loc 1 525 0 is_stmt 1 discriminator 4
 1615 0094 0024     		movs	r4, #0
 1616              	.LVL249:
 1617 0096 06E0     		b	.L95
 1618              	.LVL250:
 1619              	.L99:
 1620              	.LBE31:
 494:Source\azure_iot_sdk\iothub_client\src/iothub_client_authorization.c ****     }
 1621              		.loc 1 494 0
 1622 0098 0024     		movs	r4, #0
 1623              	.LVL251:
 1624 009a 04E0     		b	.L95
 1625              	.LVL252:
 1626              	.L100:
 526:Source\azure_iot_sdk\iothub_client\src/iothub_client_authorization.c ****                 }
 527:Source\azure_iot_sdk\iothub_client\src/iothub_client_authorization.c ****             }
 528:Source\azure_iot_sdk\iothub_client\src/iothub_client_authorization.c ****         }
 529:Source\azure_iot_sdk\iothub_client\src/iothub_client_authorization.c ****         else
 530:Source\azure_iot_sdk\iothub_client\src/iothub_client_authorization.c ****         {
 531:Source\azure_iot_sdk\iothub_client\src/iothub_client_authorization.c ****             /* Codes_SRS_IoTHub_Authorization_07_016: [ if credential type is not IOTHUB_CREDENTIAL
ARM GAS  C:\Users\Phuong\AppData\Local\Temp\ccVjqX8s.s 			page 39


 532:Source\azure_iot_sdk\iothub_client\src/iothub_client_authorization.c ****             result = SAS_TOKEN_STATUS_VALID;
 1627              		.loc 1 532 0
 1628 009c 0124     		movs	r4, #1
 1629 009e 02E0     		b	.L95
 1630              	.LVL253:
 1631              	.L101:
 504:Source\azure_iot_sdk\iothub_client\src/iothub_client_authorization.c ****             }
 1632              		.loc 1 504 0
 1633 00a0 0024     		movs	r4, #0
 1634 00a2 00E0     		b	.L95
 1635              	.LVL254:
 1636              	.L103:
 1637              	.LBB33:
 525:Source\azure_iot_sdk\iothub_client\src/iothub_client_authorization.c ****                 }
 1638              		.loc 1 525 0
 1639 00a4 0024     		movs	r4, #0
 1640              	.LVL255:
 1641              	.L95:
 1642              	.LBE33:
 533:Source\azure_iot_sdk\iothub_client\src/iothub_client_authorization.c ****         }
 534:Source\azure_iot_sdk\iothub_client\src/iothub_client_authorization.c ****     }
 535:Source\azure_iot_sdk\iothub_client\src/iothub_client_authorization.c ****     return result;
 536:Source\azure_iot_sdk\iothub_client\src/iothub_client_authorization.c **** }
 1643              		.loc 1 536 0
 1644 00a6 2000     		movs	r0, r4
 1645 00a8 05B0     		add	sp, sp, #20
 1646              		@ sp needed
 1647              	.LVL256:
 1648 00aa 30BD     		pop	{r4, r5, pc}
 1649              	.L105:
 1650              		.align	2
 1651              	.L104:
 1652 00ac 84010000 		.word	.LC29
 1653 00b0 00010000 		.word	.LANCHOR2
 1654 00b4 00000000 		.word	.LC1
 1655 00b8 90020000 		.word	.LC61
 1656 00bc B4020000 		.word	.LC63
 1657              		.cfi_endproc
 1658              	.LFE12:
 1659              		.size	IoTHubClient_Auth_Is_SasToken_Valid, .-IoTHubClient_Auth_Is_SasToken_Valid
 1660              		.section	.rodata
 1661              		.align	2
 1662              		.set	.LANCHOR0,. + 0
 1663              		.set	.LANCHOR1,. + 128
 1664              		.set	.LANCHOR2,. + 256
 1665              		.type	__func__.6182, %object
 1666              		.size	__func__.6182, 24
 1667              	__func__.6182:
 1668 0000 6765745F 		.ascii	"get_seconds_since_epoch\000"
 1668      7365636F 
 1668      6E64735F 
 1668      73696E63 
 1668      655F6570 
 1669              		.type	__func__.6193, %object
 1670              		.size	__func__.6193, 25
 1671              	__func__.6193:
 1672 0018 496F5448 		.ascii	"IoTHubClient_Auth_Create\000"
ARM GAS  C:\Users\Phuong\AppData\Local\Temp\ccVjqX8s.s 			page 40


 1672      7562436C 
 1672      69656E74 
 1672      5F417574 
 1672      685F4372 
 1673 0031 000000   		.space	3
 1674              		.type	__func__.6217, %object
 1675              		.size	__func__.6217, 39
 1676              	__func__.6217:
 1677 0034 496F5448 		.ascii	"IoTHubClient_Auth_CreateFromDeviceAuth\000"
 1677      7562436C 
 1677      69656E74 
 1677      5F417574 
 1677      685F4372 
 1678 005b 00       		.space	1
 1679              		.type	__func__.6237, %object
 1680              		.size	__func__.6237, 38
 1681              	__func__.6237:
 1682 005c 496F5448 		.ascii	"IoTHubClient_Auth_Set_xio_Certificate\000"
 1682      7562436C 
 1682      69656E74 
 1682      5F417574 
 1682      685F5365 
 1683 0082 0000     		.space	2
 1684              		.type	__func__.6251, %object
 1685              		.size	__func__.6251, 38
 1686              	__func__.6251:
 1687 0084 496F5448 		.ascii	"IoTHubClient_Auth_Get_Credential_Type\000"
 1687      7562436C 
 1687      69656E74 
 1687      5F417574 
 1687      685F4765 
 1688 00aa 0000     		.space	2
 1689              		.type	__func__.6262, %object
 1690              		.size	__func__.6262, 31
 1691              	__func__.6262:
 1692 00ac 496F5448 		.ascii	"IoTHubClient_Auth_Get_SasToken\000"
 1692      7562436C 
 1692      69656E74 
 1692      5F417574 
 1692      685F4765 
 1693 00cb 00       		.space	1
 1694              		.type	__func__.6297, %object
 1695              		.size	__func__.6297, 31
 1696              	__func__.6297:
 1697 00cc 496F5448 		.ascii	"IoTHubClient_Auth_Get_DeviceId\000"
 1697      7562436C 
 1697      69656E74 
 1697      5F417574 
 1697      685F4765 
 1698 00eb 00       		.space	1
 1699              		.type	__func__.6305, %object
 1700              		.size	__func__.6305, 31
 1701              	__func__.6305:
 1702 00ec 496F5448 		.ascii	"IoTHubClient_Auth_Get_ModuleId\000"
 1702      7562436C 
 1702      69656E74 
 1702      5F417574 
ARM GAS  C:\Users\Phuong\AppData\Local\Temp\ccVjqX8s.s 			page 41


 1702      685F4765 
 1703 010b 00       		.space	1
 1704              		.type	__func__.6313, %object
 1705              		.size	__func__.6313, 32
 1706              	__func__.6313:
 1707 010c 496F5448 		.ascii	"IoTHubClient_Auth_Get_DeviceKey\000"
 1707      7562436C 
 1707      69656E74 
 1707      5F417574 
 1707      685F4765 
 1708              		.type	__func__.6321, %object
 1709              		.size	__func__.6321, 36
 1710              	__func__.6321:
 1711 012c 496F5448 		.ascii	"IoTHubClient_Auth_Is_SasToken_Valid\000"
 1711      7562436C 
 1711      69656E74 
 1711      5F417574 
 1711      685F4973 
 1712              		.section	.rodata.str1.4,"aMS",%progbits,1
 1713              		.align	2
 1714              	.LC1:
 1715 0000 536F7572 		.ascii	"Source\\azure_iot_sdk\\iothub_client\\src\\iothub_c"
 1715      63655C61 
 1715      7A757265 
 1715      5F696F74 
 1715      5F73646B 
 1716 002f 6C69656E 		.ascii	"lient_authorization.c\000"
 1716      745F6175 
 1716      74686F72 
 1716      697A6174 
 1716      696F6E2E 
 1717 0045 000000   		.space	3
 1718              	.LC3:
 1719 0048 4661696C 		.ascii	"Failed getting the current local time (get_time() f"
 1719      65642067 
 1719      65747469 
 1719      6E672074 
 1719      68652063 
 1720 007b 61696C65 		.ascii	"ailed)\000"
 1720      642900
 1721 0082 0000     		.space	2
 1722              	.LC7:
 1723 0084 496E7661 		.ascii	"Invalid Parameter device_id: %p\000"
 1723      6C696420 
 1723      50617261 
 1723      6D657465 
 1723      72206465 
 1724              	.LC9:
 1725 00a4 4661696C 		.ascii	"Failed allocating IOTHUB_AUTHORIZATION_DATA\000"
 1725      65642061 
 1725      6C6C6F63 
 1725      6174696E 
 1725      6720494F 
 1726              	.LC11:
 1727 00d0 4661696C 		.ascii	"Failed allocating device_key\000"
 1727      65642061 
 1727      6C6C6F63 
ARM GAS  C:\Users\Phuong\AppData\Local\Temp\ccVjqX8s.s 			page 42


 1727      6174696E 
 1727      67206465 
 1728 00ed 000000   		.space	3
 1729              	.LC13:
 1730 00f0 4661696C 		.ascii	"Failed allocating module_id\000"
 1730      65642061 
 1730      6C6C6F63 
 1730      6174696E 
 1730      67206D6F 
 1731              	.LC18:
 1732 010c 4661696C 		.ascii	"Failed HSM module is not supported\000"
 1732      65642048 
 1732      534D206D 
 1732      6F64756C 
 1732      65206973 
 1733 012f 00       		.space	1
 1734              	.LC22:
 1735 0130 496E7661 		.ascii	"Invalid Parameter handle: %p xio: %p\000"
 1735      6C696420 
 1735      50617261 
 1735      6D657465 
 1735      72206861 
 1736 0155 000000   		.space	3
 1737              	.LC24:
 1738 0158 496E7661 		.ascii	"Invalid credential types for this operation\000"
 1738      6C696420 
 1738      63726564 
 1738      656E7469 
 1738      616C2074 
 1739              	.LC29:
 1740 0184 496E7661 		.ascii	"Invalid Parameter handle: %p\000"
 1740      6C696420 
 1740      50617261 
 1740      6D657465 
 1740      72206861 
 1741 01a1 000000   		.space	3
 1742              	.LC35:
 1743 01a4 6661696C 		.ascii	"failure allocating sas token\000"
 1743      75726520 
 1743      616C6C6F 
 1743      63617469 
 1743      6E672073 
 1744 01c1 000000   		.space	3
 1745              	.LC37:
 1746 01c4 6661696C 		.ascii	"failure device sas token is NULL\000"
 1746      75726520 
 1746      64657669 
 1746      63652073 
 1746      61732074 
 1747 01e5 000000   		.space	3
 1748              	.LC39:
 1749 01e8 496E7661 		.ascii	"Invalid Parameter scope: %p\000"
 1749      6C696420 
 1749      50617261 
 1749      6D657465 
 1749      72207363 
 1750              	.LC41:
ARM GAS  C:\Users\Phuong\AppData\Local\Temp\ccVjqX8s.s 			page 43


 1751 0204 6661696C 		.ascii	"failure getting seconds from epoch\000"
 1751      75726520 
 1751      67657474 
 1751      696E6720 
 1751      7365636F 
 1752 0227 00       		.space	1
 1753              	.LC43:
 1754 0228 4661696C 		.ascii	"Failed creating sas_token\000"
 1754      65642063 
 1754      72656174 
 1754      696E6720 
 1754      7361735F 
 1755 0242 0000     		.space	2
 1756              	.LC45:
 1757 0244 4661696C 		.ascii	"Failed copying result\000"
 1757      65642063 
 1757      6F707969 
 1757      6E672072 
 1757      6573756C 
 1758 025a 0000     		.space	2
 1759              	.LC47:
 1760 025c 4661696C 		.ascii	"Failed getting sas token invalid credential type\000"
 1760      65642067 
 1760      65747469 
 1760      6E672073 
 1760      61732074 
 1761 028d 000000   		.space	3
 1762              	.LC61:
 1763 0290 4661696C 		.ascii	"Failure: device_sas_toke is NULL\000"
 1763      7572653A 
 1763      20646576 
 1763      6963655F 
 1763      7361735F 
 1764 02b1 000000   		.space	3
 1765              	.LC63:
 1766 02b4 4661696C 		.ascii	"Failure constructing SAS Token\000"
 1766      75726520 
 1766      636F6E73 
 1766      74727563 
 1766      74696E67 
 1767              		.text
 1768              	.Letext0:
 1769              		.file 2 "c:\\program files (x86)\\cypress\\psoc creator\\4.2\\psoc creator\\import\\gnu\\arm\\5.4.
 1770              		.file 3 "c:\\program files (x86)\\cypress\\psoc creator\\4.2\\psoc creator\\import\\gnu\\arm\\5.4.
 1771              		.file 4 ".\\Source\\azure_iot_sdk\\c-utility\\inc/azure_c_shared_utility/xlogging.h"
 1772              		.file 5 ".\\Source\\azure_iot_sdk\\c-utility\\inc/azure_c_shared_utility/strings_types.h"
 1773              		.file 6 ".\\Source\\azure_iot_sdk\\c-utility\\inc/azure_c_shared_utility/xio.h"
 1774              		.file 7 ".\\Source\\azure_iot_sdk\\iothub_client\\inc/internal/iothub_client_authorization.h"
 1775              		.file 8 ".\\Source\\azure_iot_sdk\\c-utility\\inc/azure_c_shared_utility/shared_util_options.h"
 1776              		.file 9 ".\\Source\\azure_iot_sdk\\c-utility\\inc/azure_c_shared_utility/agenttime.h"
 1777              		.file 10 "c:\\program files (x86)\\cypress\\psoc creator\\4.2\\psoc creator\\import\\gnu\\arm\\5.4
 1778              		.file 11 ".\\Source\\azure_iot_sdk\\c-utility\\inc/azure_c_shared_utility/crt_abstractions.h"
 1779              		.file 12 ".\\Source\\azure_iot_sdk\\c-utility\\inc/azure_c_shared_utility/sastoken.h"
 1780              		.file 13 ".\\Source\\azure_iot_sdk\\c-utility\\inc/azure_c_shared_utility/strings.h"