ARM GAS  C:\Users\Phuong\AppData\Local\Temp\ccPPbPWA.s 			page 1


   1              		.syntax unified
   2              		.cpu cortex-m0plus
   3              		.fpu softvfp
   4              		.eabi_attribute 20, 1
   5              		.eabi_attribute 21, 1
   6              		.eabi_attribute 23, 3
   7              		.eabi_attribute 24, 1
   8              		.eabi_attribute 25, 1
   9              		.eabi_attribute 26, 1
  10              		.eabi_attribute 30, 1
  11              		.eabi_attribute 34, 0
  12              		.eabi_attribute 18, 4
  13              		.thumb
  14              		.syntax unified
  15              		.file	"iothubtransport_amqp_cbs_auth.c"
  16              		.text
  17              	.Ltext0:
  18              		.cfi_sections	.debug_frame
  19              		.section	.text.update_state,"ax",%progbits
  20              		.align	2
  21              		.code	16
  22              		.thumb_func
  23              		.type	update_state, %function
  24              	update_state:
  25              	.LFB1:
  26              		.file 1 "Source\\azure_iot_sdk\\iothub_client\\src\\iothubtransport_amqp_cbs_auth.c"
   1:Source\azure_iot_sdk\iothub_client\src/iothubtransport_amqp_cbs_auth.c **** // Copyright (c) Microsoft. All rights reserved.
   2:Source\azure_iot_sdk\iothub_client\src/iothubtransport_amqp_cbs_auth.c **** // Licensed under the MIT license. See LICENSE file in the project root for full license informatio
   3:Source\azure_iot_sdk\iothub_client\src/iothubtransport_amqp_cbs_auth.c **** 
   4:Source\azure_iot_sdk\iothub_client\src/iothubtransport_amqp_cbs_auth.c **** #include <stdlib.h>
   5:Source\azure_iot_sdk\iothub_client\src/iothubtransport_amqp_cbs_auth.c **** #include "internal/iothubtransport_amqp_cbs_auth.h"
   6:Source\azure_iot_sdk\iothub_client\src/iothubtransport_amqp_cbs_auth.c **** #include "azure_c_shared_utility/optimize_size.h"
   7:Source\azure_iot_sdk\iothub_client\src/iothubtransport_amqp_cbs_auth.c **** #include "azure_c_shared_utility/gballoc.h"
   8:Source\azure_iot_sdk\iothub_client\src/iothubtransport_amqp_cbs_auth.c **** #include "azure_c_shared_utility/agenttime.h"
   9:Source\azure_iot_sdk\iothub_client\src/iothubtransport_amqp_cbs_auth.c **** #include "azure_c_shared_utility/xlogging.h"
  10:Source\azure_iot_sdk\iothub_client\src/iothubtransport_amqp_cbs_auth.c **** #include "azure_c_shared_utility/sastoken.h"
  11:Source\azure_iot_sdk\iothub_client\src/iothubtransport_amqp_cbs_auth.c **** 
  12:Source\azure_iot_sdk\iothub_client\src/iothubtransport_amqp_cbs_auth.c **** #define RESULT_OK                                 0
  13:Source\azure_iot_sdk\iothub_client\src/iothubtransport_amqp_cbs_auth.c **** #define INDEFINITE_TIME                           ((time_t)(-1))
  14:Source\azure_iot_sdk\iothub_client\src/iothubtransport_amqp_cbs_auth.c **** #define SAS_TOKEN_TYPE                            "servicebus.windows.net:sastoken"
  15:Source\azure_iot_sdk\iothub_client\src/iothubtransport_amqp_cbs_auth.c **** #define IOTHUB_DEVICES_PATH_FMT                   "%s/devices/%s"
  16:Source\azure_iot_sdk\iothub_client\src/iothubtransport_amqp_cbs_auth.c **** #define IOTHUB_DEVICES_MODULE_PATH_FMT            "%s/devices/%s/modules/%s"
  17:Source\azure_iot_sdk\iothub_client\src/iothubtransport_amqp_cbs_auth.c **** #define DEFAULT_CBS_REQUEST_TIMEOUT_SECS          UINT32_MAX
  18:Source\azure_iot_sdk\iothub_client\src/iothubtransport_amqp_cbs_auth.c **** #define DEFAULT_SAS_TOKEN_LIFETIME_SECS           3600
  19:Source\azure_iot_sdk\iothub_client\src/iothubtransport_amqp_cbs_auth.c **** #define DEFAULT_SAS_TOKEN_REFRESH_TIME_SECS       1800
  20:Source\azure_iot_sdk\iothub_client\src/iothubtransport_amqp_cbs_auth.c **** 
  21:Source\azure_iot_sdk\iothub_client\src/iothubtransport_amqp_cbs_auth.c **** typedef struct AUTHENTICATION_INSTANCE_TAG
  22:Source\azure_iot_sdk\iothub_client\src/iothubtransport_amqp_cbs_auth.c **** {
  23:Source\azure_iot_sdk\iothub_client\src/iothubtransport_amqp_cbs_auth.c ****     const char* device_id;
  24:Source\azure_iot_sdk\iothub_client\src/iothubtransport_amqp_cbs_auth.c ****     const char* module_id;
  25:Source\azure_iot_sdk\iothub_client\src/iothubtransport_amqp_cbs_auth.c ****     STRING_HANDLE iothub_host_fqdn;
  26:Source\azure_iot_sdk\iothub_client\src/iothubtransport_amqp_cbs_auth.c **** 
  27:Source\azure_iot_sdk\iothub_client\src/iothubtransport_amqp_cbs_auth.c ****     ON_AUTHENTICATION_STATE_CHANGED_CALLBACK on_state_changed_callback;
  28:Source\azure_iot_sdk\iothub_client\src/iothubtransport_amqp_cbs_auth.c ****     void* on_state_changed_callback_context;
  29:Source\azure_iot_sdk\iothub_client\src/iothubtransport_amqp_cbs_auth.c **** 
  30:Source\azure_iot_sdk\iothub_client\src/iothubtransport_amqp_cbs_auth.c ****     ON_AUTHENTICATION_ERROR_CALLBACK on_error_callback;
  31:Source\azure_iot_sdk\iothub_client\src/iothubtransport_amqp_cbs_auth.c ****     void* on_error_callback_context;
ARM GAS  C:\Users\Phuong\AppData\Local\Temp\ccPPbPWA.s 			page 2


  32:Source\azure_iot_sdk\iothub_client\src/iothubtransport_amqp_cbs_auth.c **** 
  33:Source\azure_iot_sdk\iothub_client\src/iothubtransport_amqp_cbs_auth.c ****     size_t cbs_request_timeout_secs;
  34:Source\azure_iot_sdk\iothub_client\src/iothubtransport_amqp_cbs_auth.c ****     size_t sas_token_lifetime_secs;
  35:Source\azure_iot_sdk\iothub_client\src/iothubtransport_amqp_cbs_auth.c ****     size_t sas_token_refresh_time_secs;
  36:Source\azure_iot_sdk\iothub_client\src/iothubtransport_amqp_cbs_auth.c **** 
  37:Source\azure_iot_sdk\iothub_client\src/iothubtransport_amqp_cbs_auth.c ****     AUTHENTICATION_STATE state;
  38:Source\azure_iot_sdk\iothub_client\src/iothubtransport_amqp_cbs_auth.c ****     CBS_HANDLE cbs_handle;
  39:Source\azure_iot_sdk\iothub_client\src/iothubtransport_amqp_cbs_auth.c **** 
  40:Source\azure_iot_sdk\iothub_client\src/iothubtransport_amqp_cbs_auth.c ****     bool is_cbs_put_token_in_progress;
  41:Source\azure_iot_sdk\iothub_client\src/iothubtransport_amqp_cbs_auth.c ****     bool is_sas_token_refresh_in_progress;
  42:Source\azure_iot_sdk\iothub_client\src/iothubtransport_amqp_cbs_auth.c **** 
  43:Source\azure_iot_sdk\iothub_client\src/iothubtransport_amqp_cbs_auth.c ****     time_t current_sas_token_put_time;
  44:Source\azure_iot_sdk\iothub_client\src/iothubtransport_amqp_cbs_auth.c **** 
  45:Source\azure_iot_sdk\iothub_client\src/iothubtransport_amqp_cbs_auth.c ****     // Auth module used to generating handle authorization
  46:Source\azure_iot_sdk\iothub_client\src/iothubtransport_amqp_cbs_auth.c ****     // with either SAS Token, x509 Certs, and Device SAS Token
  47:Source\azure_iot_sdk\iothub_client\src/iothubtransport_amqp_cbs_auth.c ****     IOTHUB_AUTHORIZATION_HANDLE authorization_module;
  48:Source\azure_iot_sdk\iothub_client\src/iothubtransport_amqp_cbs_auth.c **** } AUTHENTICATION_INSTANCE;
  49:Source\azure_iot_sdk\iothub_client\src/iothubtransport_amqp_cbs_auth.c **** 
  50:Source\azure_iot_sdk\iothub_client\src/iothubtransport_amqp_cbs_auth.c **** 
  51:Source\azure_iot_sdk\iothub_client\src/iothubtransport_amqp_cbs_auth.c **** // Helper functions:
  52:Source\azure_iot_sdk\iothub_client\src/iothubtransport_amqp_cbs_auth.c **** 
  53:Source\azure_iot_sdk\iothub_client\src/iothubtransport_amqp_cbs_auth.c **** static void update_state(AUTHENTICATION_INSTANCE* instance, AUTHENTICATION_STATE new_state)
  54:Source\azure_iot_sdk\iothub_client\src/iothubtransport_amqp_cbs_auth.c **** {
  27              		.loc 1 54 0
  28              		.cfi_startproc
  29              		@ args = 0, pretend = 0, frame = 0
  30              		@ frame_needed = 0, uses_anonymous_args = 0
  31              	.LVL0:
  32 0000 10B5     		push	{r4, lr}
  33              		.cfi_def_cfa_offset 8
  34              		.cfi_offset 4, -8
  35              		.cfi_offset 14, -4
  36 0002 0A00     		movs	r2, r1
  55:Source\azure_iot_sdk\iothub_client\src/iothubtransport_amqp_cbs_auth.c ****     if (new_state != instance->state)
  37              		.loc 1 55 0
  38 0004 2823     		movs	r3, #40
  39 0006 C15C     		ldrb	r1, [r0, r3]
  40              	.LVL1:
  41 0008 9142     		cmp	r1, r2
  42 000a 05D0     		beq	.L1
  43              	.LVL2:
  44              	.LBB2:
  56:Source\azure_iot_sdk\iothub_client\src/iothubtransport_amqp_cbs_auth.c ****     {
  57:Source\azure_iot_sdk\iothub_client\src/iothubtransport_amqp_cbs_auth.c ****         AUTHENTICATION_STATE previous_state = instance->state;
  58:Source\azure_iot_sdk\iothub_client\src/iothubtransport_amqp_cbs_auth.c ****         instance->state = new_state;
  45              		.loc 1 58 0
  46 000c C254     		strb	r2, [r0, r3]
  59:Source\azure_iot_sdk\iothub_client\src/iothubtransport_amqp_cbs_auth.c **** 
  60:Source\azure_iot_sdk\iothub_client\src/iothubtransport_amqp_cbs_auth.c ****         if (instance->on_state_changed_callback != NULL)
  47              		.loc 1 60 0
  48 000e C368     		ldr	r3, [r0, #12]
  49 0010 002B     		cmp	r3, #0
  50 0012 01D0     		beq	.L1
  61:Source\azure_iot_sdk\iothub_client\src/iothubtransport_amqp_cbs_auth.c ****         {
  62:Source\azure_iot_sdk\iothub_client\src/iothubtransport_amqp_cbs_auth.c ****             instance->on_state_changed_callback(instance->on_state_changed_callback_context, previo
  51              		.loc 1 62 0
  52 0014 0069     		ldr	r0, [r0, #16]
ARM GAS  C:\Users\Phuong\AppData\Local\Temp\ccPPbPWA.s 			page 3


  53              	.LVL3:
  54 0016 9847     		blx	r3
  55              	.LVL4:
  56              	.L1:
  57              	.LBE2:
  63:Source\azure_iot_sdk\iothub_client\src/iothubtransport_amqp_cbs_auth.c ****         }
  64:Source\azure_iot_sdk\iothub_client\src/iothubtransport_amqp_cbs_auth.c ****     }
  65:Source\azure_iot_sdk\iothub_client\src/iothubtransport_amqp_cbs_auth.c **** }
  58              		.loc 1 65 0
  59              		@ sp needed
  60 0018 10BD     		pop	{r4, pc}
  61              		.cfi_endproc
  62              	.LFE1:
  63              		.size	update_state, .-update_state
  64 001a C046     		.section	.text.notify_error,"ax",%progbits
  65              		.align	2
  66              		.code	16
  67              		.thumb_func
  68              		.type	notify_error, %function
  69              	notify_error:
  70              	.LFB2:
  66:Source\azure_iot_sdk\iothub_client\src/iothubtransport_amqp_cbs_auth.c **** 
  67:Source\azure_iot_sdk\iothub_client\src/iothubtransport_amqp_cbs_auth.c **** static void notify_error(AUTHENTICATION_INSTANCE* instance, AUTHENTICATION_ERROR_CODE error_code)
  68:Source\azure_iot_sdk\iothub_client\src/iothubtransport_amqp_cbs_auth.c **** {
  71              		.loc 1 68 0
  72              		.cfi_startproc
  73              		@ args = 0, pretend = 0, frame = 0
  74              		@ frame_needed = 0, uses_anonymous_args = 0
  75              	.LVL5:
  76 0000 10B5     		push	{r4, lr}
  77              		.cfi_def_cfa_offset 8
  78              		.cfi_offset 4, -8
  79              		.cfi_offset 14, -4
  69:Source\azure_iot_sdk\iothub_client\src/iothubtransport_amqp_cbs_auth.c ****     if (instance->on_error_callback != NULL)
  80              		.loc 1 69 0
  81 0002 4369     		ldr	r3, [r0, #20]
  82 0004 002B     		cmp	r3, #0
  83 0006 01D0     		beq	.L3
  70:Source\azure_iot_sdk\iothub_client\src/iothubtransport_amqp_cbs_auth.c ****     {
  71:Source\azure_iot_sdk\iothub_client\src/iothubtransport_amqp_cbs_auth.c ****         instance->on_error_callback(instance->on_error_callback_context, error_code);
  84              		.loc 1 71 0
  85 0008 8069     		ldr	r0, [r0, #24]
  86              	.LVL6:
  87 000a 9847     		blx	r3
  88              	.LVL7:
  89              	.L3:
  72:Source\azure_iot_sdk\iothub_client\src/iothubtransport_amqp_cbs_auth.c ****     }
  73:Source\azure_iot_sdk\iothub_client\src/iothubtransport_amqp_cbs_auth.c **** }
  90              		.loc 1 73 0
  91              		@ sp needed
  92 000c 10BD     		pop	{r4, pc}
  93              		.cfi_endproc
  94              	.LFE2:
  95              		.size	notify_error, .-notify_error
  96 000e C046     		.section	.text.on_cbs_put_token_complete_callback,"ax",%progbits
  97              		.align	2
  98              		.code	16
ARM GAS  C:\Users\Phuong\AppData\Local\Temp\ccPPbPWA.s 			page 4


  99              		.thumb_func
 100              		.type	on_cbs_put_token_complete_callback, %function
 101              	on_cbs_put_token_complete_callback:
 102              	.LFB6:
  74:Source\azure_iot_sdk\iothub_client\src/iothubtransport_amqp_cbs_auth.c **** 
  75:Source\azure_iot_sdk\iothub_client\src/iothubtransport_amqp_cbs_auth.c **** static int verify_cbs_put_token_timeout(AUTHENTICATION_INSTANCE* instance, bool* is_timed_out)
  76:Source\azure_iot_sdk\iothub_client\src/iothubtransport_amqp_cbs_auth.c **** {
  77:Source\azure_iot_sdk\iothub_client\src/iothubtransport_amqp_cbs_auth.c ****     int result;
  78:Source\azure_iot_sdk\iothub_client\src/iothubtransport_amqp_cbs_auth.c **** 
  79:Source\azure_iot_sdk\iothub_client\src/iothubtransport_amqp_cbs_auth.c ****     if (instance->current_sas_token_put_time == INDEFINITE_TIME)
  80:Source\azure_iot_sdk\iothub_client\src/iothubtransport_amqp_cbs_auth.c ****     {
  81:Source\azure_iot_sdk\iothub_client\src/iothubtransport_amqp_cbs_auth.c ****         result = __FAILURE__;
  82:Source\azure_iot_sdk\iothub_client\src/iothubtransport_amqp_cbs_auth.c ****         LogError("Failed verifying if cbs_put_token has timed out (current_sas_token_put_time is no
  83:Source\azure_iot_sdk\iothub_client\src/iothubtransport_amqp_cbs_auth.c ****     }
  84:Source\azure_iot_sdk\iothub_client\src/iothubtransport_amqp_cbs_auth.c ****     else
  85:Source\azure_iot_sdk\iothub_client\src/iothubtransport_amqp_cbs_auth.c ****     {
  86:Source\azure_iot_sdk\iothub_client\src/iothubtransport_amqp_cbs_auth.c ****         time_t current_time;
  87:Source\azure_iot_sdk\iothub_client\src/iothubtransport_amqp_cbs_auth.c **** 
  88:Source\azure_iot_sdk\iothub_client\src/iothubtransport_amqp_cbs_auth.c ****         if ((current_time = get_time(NULL)) == INDEFINITE_TIME)
  89:Source\azure_iot_sdk\iothub_client\src/iothubtransport_amqp_cbs_auth.c ****         {
  90:Source\azure_iot_sdk\iothub_client\src/iothubtransport_amqp_cbs_auth.c ****             result = __FAILURE__;
  91:Source\azure_iot_sdk\iothub_client\src/iothubtransport_amqp_cbs_auth.c ****             LogError("Failed verifying if cbs_put_token has timed out (get_time failed)");
  92:Source\azure_iot_sdk\iothub_client\src/iothubtransport_amqp_cbs_auth.c ****         }
  93:Source\azure_iot_sdk\iothub_client\src/iothubtransport_amqp_cbs_auth.c ****         // Codes_SRS_IOTHUBTRANSPORT_AMQP_AUTH_09_083: [authentication_do_work() shall check for au
  94:Source\azure_iot_sdk\iothub_client\src/iothubtransport_amqp_cbs_auth.c ****         else if ((uint32_t)get_difftime(current_time, instance->current_sas_token_put_time) >= inst
  95:Source\azure_iot_sdk\iothub_client\src/iothubtransport_amqp_cbs_auth.c ****         {
  96:Source\azure_iot_sdk\iothub_client\src/iothubtransport_amqp_cbs_auth.c ****             *is_timed_out = true;
  97:Source\azure_iot_sdk\iothub_client\src/iothubtransport_amqp_cbs_auth.c ****             result = RESULT_OK;
  98:Source\azure_iot_sdk\iothub_client\src/iothubtransport_amqp_cbs_auth.c ****         }
  99:Source\azure_iot_sdk\iothub_client\src/iothubtransport_amqp_cbs_auth.c ****         else
 100:Source\azure_iot_sdk\iothub_client\src/iothubtransport_amqp_cbs_auth.c ****         {
 101:Source\azure_iot_sdk\iothub_client\src/iothubtransport_amqp_cbs_auth.c ****             *is_timed_out = false;
 102:Source\azure_iot_sdk\iothub_client\src/iothubtransport_amqp_cbs_auth.c ****             result = RESULT_OK;
 103:Source\azure_iot_sdk\iothub_client\src/iothubtransport_amqp_cbs_auth.c ****         }
 104:Source\azure_iot_sdk\iothub_client\src/iothubtransport_amqp_cbs_auth.c ****     }
 105:Source\azure_iot_sdk\iothub_client\src/iothubtransport_amqp_cbs_auth.c **** 
 106:Source\azure_iot_sdk\iothub_client\src/iothubtransport_amqp_cbs_auth.c ****     return result;
 107:Source\azure_iot_sdk\iothub_client\src/iothubtransport_amqp_cbs_auth.c **** }
 108:Source\azure_iot_sdk\iothub_client\src/iothubtransport_amqp_cbs_auth.c **** 
 109:Source\azure_iot_sdk\iothub_client\src/iothubtransport_amqp_cbs_auth.c **** static int verify_sas_token_refresh_timeout(AUTHENTICATION_INSTANCE* instance, bool* is_timed_out)
 110:Source\azure_iot_sdk\iothub_client\src/iothubtransport_amqp_cbs_auth.c **** {
 111:Source\azure_iot_sdk\iothub_client\src/iothubtransport_amqp_cbs_auth.c ****     int result;
 112:Source\azure_iot_sdk\iothub_client\src/iothubtransport_amqp_cbs_auth.c **** 
 113:Source\azure_iot_sdk\iothub_client\src/iothubtransport_amqp_cbs_auth.c ****     if (instance->current_sas_token_put_time == INDEFINITE_TIME)
 114:Source\azure_iot_sdk\iothub_client\src/iothubtransport_amqp_cbs_auth.c ****     {
 115:Source\azure_iot_sdk\iothub_client\src/iothubtransport_amqp_cbs_auth.c ****         result = __FAILURE__;
 116:Source\azure_iot_sdk\iothub_client\src/iothubtransport_amqp_cbs_auth.c ****         LogError("Failed verifying if SAS token refresh timed out (current_sas_token_put_time is no
 117:Source\azure_iot_sdk\iothub_client\src/iothubtransport_amqp_cbs_auth.c ****     }
 118:Source\azure_iot_sdk\iothub_client\src/iothubtransport_amqp_cbs_auth.c ****     else
 119:Source\azure_iot_sdk\iothub_client\src/iothubtransport_amqp_cbs_auth.c ****     {
 120:Source\azure_iot_sdk\iothub_client\src/iothubtransport_amqp_cbs_auth.c ****         time_t current_time;
 121:Source\azure_iot_sdk\iothub_client\src/iothubtransport_amqp_cbs_auth.c **** 
 122:Source\azure_iot_sdk\iothub_client\src/iothubtransport_amqp_cbs_auth.c ****         if ((current_time = get_time(NULL)) == INDEFINITE_TIME)
 123:Source\azure_iot_sdk\iothub_client\src/iothubtransport_amqp_cbs_auth.c ****         {
 124:Source\azure_iot_sdk\iothub_client\src/iothubtransport_amqp_cbs_auth.c ****             result = __FAILURE__;
 125:Source\azure_iot_sdk\iothub_client\src/iothubtransport_amqp_cbs_auth.c ****             LogError("Failed verifying if SAS token refresh timed out (get_time failed)");
 126:Source\azure_iot_sdk\iothub_client\src/iothubtransport_amqp_cbs_auth.c ****         }
ARM GAS  C:\Users\Phuong\AppData\Local\Temp\ccPPbPWA.s 			page 5


 127:Source\azure_iot_sdk\iothub_client\src/iothubtransport_amqp_cbs_auth.c ****         else if ((uint32_t)get_difftime(current_time, instance->current_sas_token_put_time) >= inst
 128:Source\azure_iot_sdk\iothub_client\src/iothubtransport_amqp_cbs_auth.c ****         {
 129:Source\azure_iot_sdk\iothub_client\src/iothubtransport_amqp_cbs_auth.c ****             *is_timed_out = true;
 130:Source\azure_iot_sdk\iothub_client\src/iothubtransport_amqp_cbs_auth.c ****             result = RESULT_OK;
 131:Source\azure_iot_sdk\iothub_client\src/iothubtransport_amqp_cbs_auth.c ****         }
 132:Source\azure_iot_sdk\iothub_client\src/iothubtransport_amqp_cbs_auth.c ****         else
 133:Source\azure_iot_sdk\iothub_client\src/iothubtransport_amqp_cbs_auth.c ****         {
 134:Source\azure_iot_sdk\iothub_client\src/iothubtransport_amqp_cbs_auth.c ****             *is_timed_out = false;
 135:Source\azure_iot_sdk\iothub_client\src/iothubtransport_amqp_cbs_auth.c ****             result = RESULT_OK;
 136:Source\azure_iot_sdk\iothub_client\src/iothubtransport_amqp_cbs_auth.c ****         }
 137:Source\azure_iot_sdk\iothub_client\src/iothubtransport_amqp_cbs_auth.c ****     }
 138:Source\azure_iot_sdk\iothub_client\src/iothubtransport_amqp_cbs_auth.c **** 
 139:Source\azure_iot_sdk\iothub_client\src/iothubtransport_amqp_cbs_auth.c ****     return result;
 140:Source\azure_iot_sdk\iothub_client\src/iothubtransport_amqp_cbs_auth.c **** }
 141:Source\azure_iot_sdk\iothub_client\src/iothubtransport_amqp_cbs_auth.c **** 
 142:Source\azure_iot_sdk\iothub_client\src/iothubtransport_amqp_cbs_auth.c **** static STRING_HANDLE create_device_and_module_path(STRING_HANDLE iothub_host_fqdn, const char* devi
 143:Source\azure_iot_sdk\iothub_client\src/iothubtransport_amqp_cbs_auth.c **** {
 144:Source\azure_iot_sdk\iothub_client\src/iothubtransport_amqp_cbs_auth.c ****     STRING_HANDLE devices_and_modules_path;
 145:Source\azure_iot_sdk\iothub_client\src/iothubtransport_amqp_cbs_auth.c **** 
 146:Source\azure_iot_sdk\iothub_client\src/iothubtransport_amqp_cbs_auth.c ****     if (module_id == NULL)
 147:Source\azure_iot_sdk\iothub_client\src/iothubtransport_amqp_cbs_auth.c ****     {
 148:Source\azure_iot_sdk\iothub_client\src/iothubtransport_amqp_cbs_auth.c ****         if ((devices_and_modules_path = STRING_construct_sprintf(IOTHUB_DEVICES_PATH_FMT, STRING_c_
 149:Source\azure_iot_sdk\iothub_client\src/iothubtransport_amqp_cbs_auth.c ****         {
 150:Source\azure_iot_sdk\iothub_client\src/iothubtransport_amqp_cbs_auth.c ****             LogError("Failed creating devices_and_modules_path (STRING_new failed)");
 151:Source\azure_iot_sdk\iothub_client\src/iothubtransport_amqp_cbs_auth.c ****         }
 152:Source\azure_iot_sdk\iothub_client\src/iothubtransport_amqp_cbs_auth.c ****     }
 153:Source\azure_iot_sdk\iothub_client\src/iothubtransport_amqp_cbs_auth.c ****     else
 154:Source\azure_iot_sdk\iothub_client\src/iothubtransport_amqp_cbs_auth.c ****     {
 155:Source\azure_iot_sdk\iothub_client\src/iothubtransport_amqp_cbs_auth.c ****         if ((devices_and_modules_path = STRING_construct_sprintf(IOTHUB_DEVICES_MODULE_PATH_FMT, ST
 156:Source\azure_iot_sdk\iothub_client\src/iothubtransport_amqp_cbs_auth.c ****         {
 157:Source\azure_iot_sdk\iothub_client\src/iothubtransport_amqp_cbs_auth.c ****             LogError("Failed creating devices_and_modules_path (STRING_new failed)");
 158:Source\azure_iot_sdk\iothub_client\src/iothubtransport_amqp_cbs_auth.c ****         }
 159:Source\azure_iot_sdk\iothub_client\src/iothubtransport_amqp_cbs_auth.c ****     }
 160:Source\azure_iot_sdk\iothub_client\src/iothubtransport_amqp_cbs_auth.c ****     return devices_and_modules_path;
 161:Source\azure_iot_sdk\iothub_client\src/iothubtransport_amqp_cbs_auth.c **** }
 162:Source\azure_iot_sdk\iothub_client\src/iothubtransport_amqp_cbs_auth.c **** 
 163:Source\azure_iot_sdk\iothub_client\src/iothubtransport_amqp_cbs_auth.c **** static void on_cbs_put_token_complete_callback(void* context, CBS_OPERATION_RESULT operation_result
 164:Source\azure_iot_sdk\iothub_client\src/iothubtransport_amqp_cbs_auth.c **** {
 103              		.loc 1 164 0
 104              		.cfi_startproc
 105              		@ args = 0, pretend = 0, frame = 0
 106              		@ frame_needed = 0, uses_anonymous_args = 0
 107              	.LVL8:
 108 0000 F0B5     		push	{r4, r5, r6, r7, lr}
 109              		.cfi_def_cfa_offset 20
 110              		.cfi_offset 4, -20
 111              		.cfi_offset 5, -16
 112              		.cfi_offset 6, -12
 113              		.cfi_offset 7, -8
 114              		.cfi_offset 14, -4
 115 0002 87B0     		sub	sp, sp, #28
 116              		.cfi_def_cfa_offset 48
 117 0004 0400     		movs	r4, r0
 118 0006 1500     		movs	r5, r2
 119 0008 1E00     		movs	r6, r3
 120              	.LVL9:
 165:Source\azure_iot_sdk\iothub_client\src/iothubtransport_amqp_cbs_auth.c **** #ifdef NO_LOGGING
ARM GAS  C:\Users\Phuong\AppData\Local\Temp\ccPPbPWA.s 			page 6


 166:Source\azure_iot_sdk\iothub_client\src/iothubtransport_amqp_cbs_auth.c ****     UNUSED(status_code);
 167:Source\azure_iot_sdk\iothub_client\src/iothubtransport_amqp_cbs_auth.c ****     UNUSED(status_description);
 168:Source\azure_iot_sdk\iothub_client\src/iothubtransport_amqp_cbs_auth.c **** #endif
 169:Source\azure_iot_sdk\iothub_client\src/iothubtransport_amqp_cbs_auth.c ****     AUTHENTICATION_INSTANCE* instance = (AUTHENTICATION_INSTANCE*)context;
 170:Source\azure_iot_sdk\iothub_client\src/iothubtransport_amqp_cbs_auth.c **** 
 171:Source\azure_iot_sdk\iothub_client\src/iothubtransport_amqp_cbs_auth.c ****     // Codes_SRS_IOTHUBTRANSPORT_AMQP_AUTH_09_095: [`instance->is_sas_token_refresh_in_progress` an
 172:Source\azure_iot_sdk\iothub_client\src/iothubtransport_amqp_cbs_auth.c ****     instance->is_cbs_put_token_in_progress = false;
 121              		.loc 1 172 0
 122 000a 0022     		movs	r2, #0
 123              	.LVL10:
 124 000c 3023     		movs	r3, #48
 125              	.LVL11:
 126 000e C254     		strb	r2, [r0, r3]
 173:Source\azure_iot_sdk\iothub_client\src/iothubtransport_amqp_cbs_auth.c **** 
 174:Source\azure_iot_sdk\iothub_client\src/iothubtransport_amqp_cbs_auth.c ****     // Codes_SRS_IOTHUBTRANSPORT_AMQP_AUTH_09_091: [If `result` is CBS_OPERATION_RESULT_OK `instanc
 175:Source\azure_iot_sdk\iothub_client\src/iothubtransport_amqp_cbs_auth.c ****     if (operation_result == CBS_OPERATION_RESULT_OK)
 127              		.loc 1 175 0
 128 0010 0029     		cmp	r1, #0
 129 0012 03D1     		bne	.L6
 176:Source\azure_iot_sdk\iothub_client\src/iothubtransport_amqp_cbs_auth.c ****     {
 177:Source\azure_iot_sdk\iothub_client\src/iothubtransport_amqp_cbs_auth.c ****         update_state(instance, AUTHENTICATION_STATE_STARTED);
 130              		.loc 1 177 0
 131 0014 0231     		adds	r1, r1, #2
 132              	.LVL12:
 133 0016 FFF7FEFF 		bl	update_state
 134              	.LVL13:
 135 001a 21E0     		b	.L7
 136              	.LVL14:
 137              	.L6:
 138              	.LBB3:
 178:Source\azure_iot_sdk\iothub_client\src/iothubtransport_amqp_cbs_auth.c ****     }
 179:Source\azure_iot_sdk\iothub_client\src/iothubtransport_amqp_cbs_auth.c ****     else
 180:Source\azure_iot_sdk\iothub_client\src/iothubtransport_amqp_cbs_auth.c ****     {
 181:Source\azure_iot_sdk\iothub_client\src/iothubtransport_amqp_cbs_auth.c ****         LogError("CBS reported status code %u, error: '%s' for put-token operation for device '%s'"
 139              		.loc 1 181 0 discriminator 3
 140 001c FFF7FEFF 		bl	xlogging_get_log_function
 141              	.LVL15:
 142 0020 071E     		subs	r7, r0, #0
 143              	.LVL16:
 144 0022 0CD0     		beq	.L8
 145              		.loc 1 181 0 is_stmt 0 discriminator 4
 146 0024 2368     		ldr	r3, [r4]
 147 0026 0493     		str	r3, [sp, #16]
 148 0028 0396     		str	r6, [sp, #12]
 149 002a 0295     		str	r5, [sp, #8]
 150 002c 0F4B     		ldr	r3, .L10
 151 002e 0193     		str	r3, [sp, #4]
 152 0030 0123     		movs	r3, #1
 153 0032 0093     		str	r3, [sp]
 154 0034 B433     		adds	r3, r3, #180
 155 0036 0E4A     		ldr	r2, .L10+4
 156 0038 0E49     		ldr	r1, .L10+8
 157 003a 0020     		movs	r0, #0
 158              	.LVL17:
 159 003c B847     		blx	r7
 160              	.LVL18:
 161              	.L8:
ARM GAS  C:\Users\Phuong\AppData\Local\Temp\ccPPbPWA.s 			page 7


 162              	.LBE3:
 182:Source\azure_iot_sdk\iothub_client\src/iothubtransport_amqp_cbs_auth.c **** 
 183:Source\azure_iot_sdk\iothub_client\src/iothubtransport_amqp_cbs_auth.c ****         // Codes_SRS_IOTHUBTRANSPORT_AMQP_AUTH_09_092: [If `result` is not CBS_OPERATION_RESULT_OK 
 184:Source\azure_iot_sdk\iothub_client\src/iothubtransport_amqp_cbs_auth.c ****         update_state(instance, AUTHENTICATION_STATE_ERROR);
 163              		.loc 1 184 0 is_stmt 1
 164 003e 0321     		movs	r1, #3
 165 0040 2000     		movs	r0, r4
 166 0042 FFF7FEFF 		bl	update_state
 167              	.LVL19:
 185:Source\azure_iot_sdk\iothub_client\src/iothubtransport_amqp_cbs_auth.c **** 
 186:Source\azure_iot_sdk\iothub_client\src/iothubtransport_amqp_cbs_auth.c ****         // Codes_SRS_IOTHUBTRANSPORT_AMQP_AUTH_09_094: [If `result` is not CBS_OPERATION_RESULT_OK 
 187:Source\azure_iot_sdk\iothub_client\src/iothubtransport_amqp_cbs_auth.c ****         if (instance->is_sas_token_refresh_in_progress)
 168              		.loc 1 187 0
 169 0046 3123     		movs	r3, #49
 170 0048 E35C     		ldrb	r3, [r4, r3]
 171 004a 002B     		cmp	r3, #0
 172 004c 04D0     		beq	.L9
 188:Source\azure_iot_sdk\iothub_client\src/iothubtransport_amqp_cbs_auth.c ****         {
 189:Source\azure_iot_sdk\iothub_client\src/iothubtransport_amqp_cbs_auth.c ****             notify_error(instance, AUTHENTICATION_ERROR_SAS_REFRESH_FAILED);
 173              		.loc 1 189 0
 174 004e 0321     		movs	r1, #3
 175 0050 2000     		movs	r0, r4
 176 0052 FFF7FEFF 		bl	notify_error
 177              	.LVL20:
 178 0056 03E0     		b	.L7
 179              	.L9:
 190:Source\azure_iot_sdk\iothub_client\src/iothubtransport_amqp_cbs_auth.c ****         }
 191:Source\azure_iot_sdk\iothub_client\src/iothubtransport_amqp_cbs_auth.c ****         // Codes_SRS_IOTHUBTRANSPORT_AMQP_AUTH_09_093: [If `result` is not CBS_OPERATION_RESULT_OK 
 192:Source\azure_iot_sdk\iothub_client\src/iothubtransport_amqp_cbs_auth.c ****         else
 193:Source\azure_iot_sdk\iothub_client\src/iothubtransport_amqp_cbs_auth.c ****         {
 194:Source\azure_iot_sdk\iothub_client\src/iothubtransport_amqp_cbs_auth.c ****             notify_error(instance, AUTHENTICATION_ERROR_AUTH_FAILED);
 180              		.loc 1 194 0
 181 0058 0121     		movs	r1, #1
 182 005a 2000     		movs	r0, r4
 183 005c FFF7FEFF 		bl	notify_error
 184              	.LVL21:
 185              	.L7:
 195:Source\azure_iot_sdk\iothub_client\src/iothubtransport_amqp_cbs_auth.c ****         }
 196:Source\azure_iot_sdk\iothub_client\src/iothubtransport_amqp_cbs_auth.c ****     }
 197:Source\azure_iot_sdk\iothub_client\src/iothubtransport_amqp_cbs_auth.c **** 
 198:Source\azure_iot_sdk\iothub_client\src/iothubtransport_amqp_cbs_auth.c ****     instance->is_sas_token_refresh_in_progress = false;
 186              		.loc 1 198 0
 187 0060 0022     		movs	r2, #0
 188 0062 3123     		movs	r3, #49
 189 0064 E254     		strb	r2, [r4, r3]
 199:Source\azure_iot_sdk\iothub_client\src/iothubtransport_amqp_cbs_auth.c **** }
 190              		.loc 1 199 0
 191 0066 07B0     		add	sp, sp, #28
 192              		@ sp needed
 193              	.LVL22:
 194              	.LVL23:
 195              	.LVL24:
 196 0068 F0BD     		pop	{r4, r5, r6, r7, pc}
 197              	.L11:
 198 006a C046     		.align	2
 199              	.L10:
 200 006c 48000000 		.word	.LC3
ARM GAS  C:\Users\Phuong\AppData\Local\Temp\ccPPbPWA.s 			page 8


 201 0070 00000000 		.word	.LANCHOR0
 202 0074 00000000 		.word	.LC1
 203              		.cfi_endproc
 204              	.LFE6:
 205              		.size	on_cbs_put_token_complete_callback, .-on_cbs_put_token_complete_callback
 206              		.global	__aeabi_d2uiz
 207              		.section	.text.verify_cbs_put_token_timeout,"ax",%progbits
 208              		.align	2
 209              		.code	16
 210              		.thumb_func
 211              		.type	verify_cbs_put_token_timeout, %function
 212              	verify_cbs_put_token_timeout:
 213              	.LFB3:
  76:Source\azure_iot_sdk\iothub_client\src/iothubtransport_amqp_cbs_auth.c ****     int result;
 214              		.loc 1 76 0
 215              		.cfi_startproc
 216              		@ args = 0, pretend = 0, frame = 0
 217              		@ frame_needed = 0, uses_anonymous_args = 0
 218              	.LVL25:
 219 0000 30B5     		push	{r4, r5, lr}
 220              		.cfi_def_cfa_offset 12
 221              		.cfi_offset 4, -12
 222              		.cfi_offset 5, -8
 223              		.cfi_offset 14, -4
 224 0002 83B0     		sub	sp, sp, #12
 225              		.cfi_def_cfa_offset 24
 226 0004 0400     		movs	r4, r0
 227 0006 0D00     		movs	r5, r1
  79:Source\azure_iot_sdk\iothub_client\src/iothubtransport_amqp_cbs_auth.c ****     {
 228              		.loc 1 79 0
 229 0008 436B     		ldr	r3, [r0, #52]
 230 000a 0133     		adds	r3, r3, #1
 231 000c 0FD1     		bne	.L13
 232              	.LVL26:
 233              	.LBB4:
  82:Source\azure_iot_sdk\iothub_client\src/iothubtransport_amqp_cbs_auth.c ****     }
 234              		.loc 1 82 0
 235 000e FFF7FEFF 		bl	xlogging_get_log_function
 236              	.LVL27:
 237 0012 041E     		subs	r4, r0, #0
 238              	.LVL28:
 239 0014 30D0     		beq	.L17
  82:Source\azure_iot_sdk\iothub_client\src/iothubtransport_amqp_cbs_auth.c ****     }
 240              		.loc 1 82 0 is_stmt 0 discriminator 4
 241 0016 1B4B     		ldr	r3, .L19
 242 0018 0193     		str	r3, [sp, #4]
 243 001a 0123     		movs	r3, #1
 244 001c 0093     		str	r3, [sp]
 245 001e 5133     		adds	r3, r3, #81
 246 0020 194A     		ldr	r2, .L19+4
 247 0022 2432     		adds	r2, r2, #36
 248 0024 1949     		ldr	r1, .L19+8
 249 0026 0020     		movs	r0, #0
 250              	.LVL29:
 251 0028 A047     		blx	r4
 252              	.LVL30:
 253              	.LBE4:
ARM GAS  C:\Users\Phuong\AppData\Local\Temp\ccPPbPWA.s 			page 9


  81:Source\azure_iot_sdk\iothub_client\src/iothubtransport_amqp_cbs_auth.c ****         LogError("Failed verifying if cbs_put_token has timed out (current_sas_token_put_time is no
 254              		.loc 1 81 0 is_stmt 1 discriminator 4
 255 002a 5120     		movs	r0, #81
 256 002c 27E0     		b	.L14
 257              	.LVL31:
 258              	.L13:
 259              	.LBB5:
  88:Source\azure_iot_sdk\iothub_client\src/iothubtransport_amqp_cbs_auth.c ****         {
 260              		.loc 1 88 0
 261 002e 0020     		movs	r0, #0
 262              	.LVL32:
 263 0030 FFF7FEFF 		bl	get_time
 264              	.LVL33:
 265 0034 431C     		adds	r3, r0, #1
 266 0036 0FD1     		bne	.L15
 267              	.LVL34:
 268              	.LBB6:
  91:Source\azure_iot_sdk\iothub_client\src/iothubtransport_amqp_cbs_auth.c ****         }
 269              		.loc 1 91 0
 270 0038 FFF7FEFF 		bl	xlogging_get_log_function
 271              	.LVL35:
 272 003c 041E     		subs	r4, r0, #0
 273              	.LVL36:
 274 003e 1DD0     		beq	.L18
  91:Source\azure_iot_sdk\iothub_client\src/iothubtransport_amqp_cbs_auth.c ****         }
 275              		.loc 1 91 0 is_stmt 0 discriminator 4
 276 0040 134B     		ldr	r3, .L19+12
 277 0042 0193     		str	r3, [sp, #4]
 278 0044 0123     		movs	r3, #1
 279 0046 0093     		str	r3, [sp]
 280 0048 5A33     		adds	r3, r3, #90
 281 004a 0F4A     		ldr	r2, .L19+4
 282 004c 2432     		adds	r2, r2, #36
 283 004e 0F49     		ldr	r1, .L19+8
 284 0050 0020     		movs	r0, #0
 285              	.LVL37:
 286 0052 A047     		blx	r4
 287              	.LVL38:
 288              	.LBE6:
  90:Source\azure_iot_sdk\iothub_client\src/iothubtransport_amqp_cbs_auth.c ****             LogError("Failed verifying if cbs_put_token has timed out (get_time failed)");
 289              		.loc 1 90 0 is_stmt 1 discriminator 4
 290 0054 5A20     		movs	r0, #90
 291 0056 12E0     		b	.L14
 292              	.LVL39:
 293              	.L15:
  94:Source\azure_iot_sdk\iothub_client\src/iothubtransport_amqp_cbs_auth.c ****         {
 294              		.loc 1 94 0
 295 0058 616B     		ldr	r1, [r4, #52]
 296 005a FFF7FEFF 		bl	get_difftime
 297              	.LVL40:
 298 005e FFF7FEFF 		bl	__aeabi_d2uiz
 299              	.LVL41:
 300 0062 E369     		ldr	r3, [r4, #28]
 301 0064 9842     		cmp	r0, r3
 302 0066 03D3     		bcc	.L16
  96:Source\azure_iot_sdk\iothub_client\src/iothubtransport_amqp_cbs_auth.c ****             result = RESULT_OK;
 303              		.loc 1 96 0
ARM GAS  C:\Users\Phuong\AppData\Local\Temp\ccPPbPWA.s 			page 10


 304 0068 0123     		movs	r3, #1
 305 006a 2B70     		strb	r3, [r5]
 306              	.LVL42:
  97:Source\azure_iot_sdk\iothub_client\src/iothubtransport_amqp_cbs_auth.c ****         }
 307              		.loc 1 97 0
 308 006c 0020     		movs	r0, #0
 309 006e 06E0     		b	.L14
 310              	.LVL43:
 311              	.L16:
 101:Source\azure_iot_sdk\iothub_client\src/iothubtransport_amqp_cbs_auth.c ****             result = RESULT_OK;
 312              		.loc 1 101 0
 313 0070 0023     		movs	r3, #0
 314 0072 2B70     		strb	r3, [r5]
 315              	.LVL44:
 102:Source\azure_iot_sdk\iothub_client\src/iothubtransport_amqp_cbs_auth.c ****         }
 316              		.loc 1 102 0
 317 0074 0020     		movs	r0, #0
 318 0076 02E0     		b	.L14
 319              	.LVL45:
 320              	.L17:
 321              	.LBE5:
  81:Source\azure_iot_sdk\iothub_client\src/iothubtransport_amqp_cbs_auth.c ****         LogError("Failed verifying if cbs_put_token has timed out (current_sas_token_put_time is no
 322              		.loc 1 81 0
 323 0078 5120     		movs	r0, #81
 324              	.LVL46:
 325 007a 00E0     		b	.L14
 326              	.LVL47:
 327              	.L18:
 328              	.LBB7:
  90:Source\azure_iot_sdk\iothub_client\src/iothubtransport_amqp_cbs_auth.c ****             LogError("Failed verifying if cbs_put_token has timed out (get_time failed)");
 329              		.loc 1 90 0
 330 007c 5A20     		movs	r0, #90
 331              	.LVL48:
 332              	.L14:
 333              	.LBE7:
 107:Source\azure_iot_sdk\iothub_client\src/iothubtransport_amqp_cbs_auth.c **** 
 334              		.loc 1 107 0
 335 007e 03B0     		add	sp, sp, #12
 336              		@ sp needed
 337              	.LVL49:
 338 0080 30BD     		pop	{r4, r5, pc}
 339              	.L20:
 340 0082 C046     		.align	2
 341              	.L19:
 342 0084 9C000000 		.word	.LC7
 343 0088 00000000 		.word	.LANCHOR0
 344 008c 00000000 		.word	.LC1
 345 0090 F4000000 		.word	.LC9
 346              		.cfi_endproc
 347              	.LFE3:
 348              		.size	verify_cbs_put_token_timeout, .-verify_cbs_put_token_timeout
 349              		.section	.text.verify_sas_token_refresh_timeout,"ax",%progbits
 350              		.align	2
 351              		.code	16
 352              		.thumb_func
 353              		.type	verify_sas_token_refresh_timeout, %function
 354              	verify_sas_token_refresh_timeout:
ARM GAS  C:\Users\Phuong\AppData\Local\Temp\ccPPbPWA.s 			page 11


 355              	.LFB4:
 110:Source\azure_iot_sdk\iothub_client\src/iothubtransport_amqp_cbs_auth.c ****     int result;
 356              		.loc 1 110 0
 357              		.cfi_startproc
 358              		@ args = 0, pretend = 0, frame = 0
 359              		@ frame_needed = 0, uses_anonymous_args = 0
 360              	.LVL50:
 361 0000 30B5     		push	{r4, r5, lr}
 362              		.cfi_def_cfa_offset 12
 363              		.cfi_offset 4, -12
 364              		.cfi_offset 5, -8
 365              		.cfi_offset 14, -4
 366 0002 83B0     		sub	sp, sp, #12
 367              		.cfi_def_cfa_offset 24
 368 0004 0400     		movs	r4, r0
 369 0006 0D00     		movs	r5, r1
 113:Source\azure_iot_sdk\iothub_client\src/iothubtransport_amqp_cbs_auth.c ****     {
 370              		.loc 1 113 0
 371 0008 436B     		ldr	r3, [r0, #52]
 372 000a 0133     		adds	r3, r3, #1
 373 000c 0FD1     		bne	.L22
 374              	.LVL51:
 375              	.LBB8:
 116:Source\azure_iot_sdk\iothub_client\src/iothubtransport_amqp_cbs_auth.c ****     }
 376              		.loc 1 116 0
 377 000e FFF7FEFF 		bl	xlogging_get_log_function
 378              	.LVL52:
 379 0012 041E     		subs	r4, r0, #0
 380              	.LVL53:
 381 0014 30D0     		beq	.L26
 116:Source\azure_iot_sdk\iothub_client\src/iothubtransport_amqp_cbs_auth.c ****     }
 382              		.loc 1 116 0 is_stmt 0 discriminator 4
 383 0016 1B4B     		ldr	r3, .L28
 384 0018 0193     		str	r3, [sp, #4]
 385 001a 0123     		movs	r3, #1
 386 001c 0093     		str	r3, [sp]
 387 001e 7333     		adds	r3, r3, #115
 388 0020 194A     		ldr	r2, .L28+4
 389 0022 4432     		adds	r2, r2, #68
 390 0024 1949     		ldr	r1, .L28+8
 391 0026 0020     		movs	r0, #0
 392              	.LVL54:
 393 0028 A047     		blx	r4
 394              	.LVL55:
 395              	.LBE8:
 115:Source\azure_iot_sdk\iothub_client\src/iothubtransport_amqp_cbs_auth.c ****         LogError("Failed verifying if SAS token refresh timed out (current_sas_token_put_time is no
 396              		.loc 1 115 0 is_stmt 1 discriminator 4
 397 002a 7320     		movs	r0, #115
 398 002c 27E0     		b	.L23
 399              	.LVL56:
 400              	.L22:
 401              	.LBB9:
 122:Source\azure_iot_sdk\iothub_client\src/iothubtransport_amqp_cbs_auth.c ****         {
 402              		.loc 1 122 0
 403 002e 0020     		movs	r0, #0
 404              	.LVL57:
 405 0030 FFF7FEFF 		bl	get_time
ARM GAS  C:\Users\Phuong\AppData\Local\Temp\ccPPbPWA.s 			page 12


 406              	.LVL58:
 407 0034 431C     		adds	r3, r0, #1
 408 0036 0FD1     		bne	.L24
 409              	.LVL59:
 410              	.LBB10:
 125:Source\azure_iot_sdk\iothub_client\src/iothubtransport_amqp_cbs_auth.c ****         }
 411              		.loc 1 125 0
 412 0038 FFF7FEFF 		bl	xlogging_get_log_function
 413              	.LVL60:
 414 003c 041E     		subs	r4, r0, #0
 415              	.LVL61:
 416 003e 1DD0     		beq	.L27
 125:Source\azure_iot_sdk\iothub_client\src/iothubtransport_amqp_cbs_auth.c ****         }
 417              		.loc 1 125 0 is_stmt 0 discriminator 4
 418 0040 134B     		ldr	r3, .L28+12
 419 0042 0193     		str	r3, [sp, #4]
 420 0044 0123     		movs	r3, #1
 421 0046 0093     		str	r3, [sp]
 422 0048 7C33     		adds	r3, r3, #124
 423 004a 0F4A     		ldr	r2, .L28+4
 424 004c 4432     		adds	r2, r2, #68
 425 004e 0F49     		ldr	r1, .L28+8
 426 0050 0020     		movs	r0, #0
 427              	.LVL62:
 428 0052 A047     		blx	r4
 429              	.LVL63:
 430              	.LBE10:
 124:Source\azure_iot_sdk\iothub_client\src/iothubtransport_amqp_cbs_auth.c ****             LogError("Failed verifying if SAS token refresh timed out (get_time failed)");
 431              		.loc 1 124 0 is_stmt 1 discriminator 4
 432 0054 7C20     		movs	r0, #124
 433 0056 12E0     		b	.L23
 434              	.LVL64:
 435              	.L24:
 127:Source\azure_iot_sdk\iothub_client\src/iothubtransport_amqp_cbs_auth.c ****         {
 436              		.loc 1 127 0
 437 0058 616B     		ldr	r1, [r4, #52]
 438 005a FFF7FEFF 		bl	get_difftime
 439              	.LVL65:
 440 005e FFF7FEFF 		bl	__aeabi_d2uiz
 441              	.LVL66:
 442 0062 636A     		ldr	r3, [r4, #36]
 443 0064 9842     		cmp	r0, r3
 444 0066 03D3     		bcc	.L25
 129:Source\azure_iot_sdk\iothub_client\src/iothubtransport_amqp_cbs_auth.c ****             result = RESULT_OK;
 445              		.loc 1 129 0
 446 0068 0123     		movs	r3, #1
 447 006a 2B70     		strb	r3, [r5]
 448              	.LVL67:
 130:Source\azure_iot_sdk\iothub_client\src/iothubtransport_amqp_cbs_auth.c ****         }
 449              		.loc 1 130 0
 450 006c 0020     		movs	r0, #0
 451 006e 06E0     		b	.L23
 452              	.LVL68:
 453              	.L25:
 134:Source\azure_iot_sdk\iothub_client\src/iothubtransport_amqp_cbs_auth.c ****             result = RESULT_OK;
 454              		.loc 1 134 0
 455 0070 0023     		movs	r3, #0
ARM GAS  C:\Users\Phuong\AppData\Local\Temp\ccPPbPWA.s 			page 13


 456 0072 2B70     		strb	r3, [r5]
 457              	.LVL69:
 135:Source\azure_iot_sdk\iothub_client\src/iothubtransport_amqp_cbs_auth.c ****         }
 458              		.loc 1 135 0
 459 0074 0020     		movs	r0, #0
 460 0076 02E0     		b	.L23
 461              	.LVL70:
 462              	.L26:
 463              	.LBE9:
 115:Source\azure_iot_sdk\iothub_client\src/iothubtransport_amqp_cbs_auth.c ****         LogError("Failed verifying if SAS token refresh timed out (current_sas_token_put_time is no
 464              		.loc 1 115 0
 465 0078 7320     		movs	r0, #115
 466              	.LVL71:
 467 007a 00E0     		b	.L23
 468              	.LVL72:
 469              	.L27:
 470              	.LBB11:
 124:Source\azure_iot_sdk\iothub_client\src/iothubtransport_amqp_cbs_auth.c ****             LogError("Failed verifying if SAS token refresh timed out (get_time failed)");
 471              		.loc 1 124 0
 472 007c 7C20     		movs	r0, #124
 473              	.LVL73:
 474              	.L23:
 475              	.LBE11:
 140:Source\azure_iot_sdk\iothub_client\src/iothubtransport_amqp_cbs_auth.c **** 
 476              		.loc 1 140 0
 477 007e 03B0     		add	sp, sp, #12
 478              		@ sp needed
 479              	.LVL74:
 480 0080 30BD     		pop	{r4, r5, pc}
 481              	.L29:
 482 0082 C046     		.align	2
 483              	.L28:
 484 0084 38010000 		.word	.LC13
 485 0088 00000000 		.word	.LANCHOR0
 486 008c 00000000 		.word	.LC1
 487 0090 90010000 		.word	.LC15
 488              		.cfi_endproc
 489              	.LFE4:
 490              		.size	verify_sas_token_refresh_timeout, .-verify_sas_token_refresh_timeout
 491              		.section	.text.create_device_and_module_path,"ax",%progbits
 492              		.align	2
 493              		.code	16
 494              		.thumb_func
 495              		.type	create_device_and_module_path, %function
 496              	create_device_and_module_path:
 497              	.LFB5:
 143:Source\azure_iot_sdk\iothub_client\src/iothubtransport_amqp_cbs_auth.c ****     STRING_HANDLE devices_and_modules_path;
 498              		.loc 1 143 0
 499              		.cfi_startproc
 500              		@ args = 0, pretend = 0, frame = 0
 501              		@ frame_needed = 0, uses_anonymous_args = 0
 502              	.LVL75:
 503 0000 30B5     		push	{r4, r5, lr}
 504              		.cfi_def_cfa_offset 12
 505              		.cfi_offset 4, -12
 506              		.cfi_offset 5, -8
 507              		.cfi_offset 14, -4
ARM GAS  C:\Users\Phuong\AppData\Local\Temp\ccPPbPWA.s 			page 14


 508 0002 83B0     		sub	sp, sp, #12
 509              		.cfi_def_cfa_offset 24
 510 0004 0D00     		movs	r5, r1
 511 0006 141E     		subs	r4, r2, #0
 146:Source\azure_iot_sdk\iothub_client\src/iothubtransport_amqp_cbs_auth.c ****     {
 512              		.loc 1 146 0
 513 0008 17D1     		bne	.L31
 148:Source\azure_iot_sdk\iothub_client\src/iothubtransport_amqp_cbs_auth.c ****         {
 514              		.loc 1 148 0
 515 000a FFF7FEFF 		bl	STRING_c_str
 516              	.LVL76:
 517 000e 0100     		movs	r1, r0
 518 0010 2A00     		movs	r2, r5
 519 0012 1748     		ldr	r0, .L33
 520 0014 FFF7FEFF 		bl	STRING_construct_sprintf
 521              	.LVL77:
 522 0018 041E     		subs	r4, r0, #0
 523              	.LVL78:
 524 001a 26D1     		bne	.L32
 525              	.LBB12:
 150:Source\azure_iot_sdk\iothub_client\src/iothubtransport_amqp_cbs_auth.c ****         }
 526              		.loc 1 150 0 discriminator 3
 527 001c FFF7FEFF 		bl	xlogging_get_log_function
 528              	.LVL79:
 529 0020 051E     		subs	r5, r0, #0
 530              	.LVL80:
 531 0022 22D0     		beq	.L32
 150:Source\azure_iot_sdk\iothub_client\src/iothubtransport_amqp_cbs_auth.c ****         }
 532              		.loc 1 150 0 is_stmt 0 discriminator 4
 533 0024 134B     		ldr	r3, .L33+4
 534 0026 0193     		str	r3, [sp, #4]
 535 0028 0123     		movs	r3, #1
 536 002a 0093     		str	r3, [sp]
 537 002c 9533     		adds	r3, r3, #149
 538 002e 124A     		ldr	r2, .L33+8
 539 0030 6832     		adds	r2, r2, #104
 540 0032 1249     		ldr	r1, .L33+12
 541 0034 0020     		movs	r0, #0
 542              	.LVL81:
 543 0036 A847     		blx	r5
 544              	.LVL82:
 545 0038 17E0     		b	.L32
 546              	.LVL83:
 547              	.L31:
 548              	.LBE12:
 155:Source\azure_iot_sdk\iothub_client\src/iothubtransport_amqp_cbs_auth.c ****         {
 549              		.loc 1 155 0 is_stmt 1
 550 003a FFF7FEFF 		bl	STRING_c_str
 551              	.LVL84:
 552 003e 0100     		movs	r1, r0
 553 0040 2300     		movs	r3, r4
 554 0042 2A00     		movs	r2, r5
 555 0044 0E48     		ldr	r0, .L33+16
 556 0046 FFF7FEFF 		bl	STRING_construct_sprintf
 557              	.LVL85:
 558 004a 041E     		subs	r4, r0, #0
 559              	.LVL86:
ARM GAS  C:\Users\Phuong\AppData\Local\Temp\ccPPbPWA.s 			page 15


 560 004c 0DD1     		bne	.L32
 561              	.LBB13:
 157:Source\azure_iot_sdk\iothub_client\src/iothubtransport_amqp_cbs_auth.c ****         }
 562              		.loc 1 157 0 discriminator 3
 563 004e FFF7FEFF 		bl	xlogging_get_log_function
 564              	.LVL87:
 565 0052 051E     		subs	r5, r0, #0
 566              	.LVL88:
 567 0054 09D0     		beq	.L32
 157:Source\azure_iot_sdk\iothub_client\src/iothubtransport_amqp_cbs_auth.c ****         }
 568              		.loc 1 157 0 is_stmt 0 discriminator 4
 569 0056 074B     		ldr	r3, .L33+4
 570 0058 0193     		str	r3, [sp, #4]
 571 005a 0123     		movs	r3, #1
 572 005c 0093     		str	r3, [sp]
 573 005e 9C33     		adds	r3, r3, #156
 574 0060 054A     		ldr	r2, .L33+8
 575 0062 6832     		adds	r2, r2, #104
 576 0064 0549     		ldr	r1, .L33+12
 577 0066 0020     		movs	r0, #0
 578              	.LVL89:
 579 0068 A847     		blx	r5
 580              	.LVL90:
 581              	.L32:
 582              	.LBE13:
 161:Source\azure_iot_sdk\iothub_client\src/iothubtransport_amqp_cbs_auth.c **** 
 583              		.loc 1 161 0 is_stmt 1
 584 006a 2000     		movs	r0, r4
 585 006c 03B0     		add	sp, sp, #12
 586              		@ sp needed
 587              	.LVL91:
 588 006e 30BD     		pop	{r4, r5, pc}
 589              	.L34:
 590              		.align	2
 591              	.L33:
 592 0070 D4010000 		.word	.LC17
 593 0074 E4010000 		.word	.LC21
 594 0078 00000000 		.word	.LANCHOR0
 595 007c 00000000 		.word	.LC1
 596 0080 24020000 		.word	.LC23
 597              		.cfi_endproc
 598              	.LFE5:
 599              		.size	create_device_and_module_path, .-create_device_and_module_path
 600              		.section	.text.put_SAS_token_to_cbs,"ax",%progbits
 601              		.align	2
 602              		.code	16
 603              		.thumb_func
 604              		.type	put_SAS_token_to_cbs, %function
 605              	put_SAS_token_to_cbs:
 606              	.LFB7:
 200:Source\azure_iot_sdk\iothub_client\src/iothubtransport_amqp_cbs_auth.c **** 
 201:Source\azure_iot_sdk\iothub_client\src/iothubtransport_amqp_cbs_auth.c **** static int put_SAS_token_to_cbs(AUTHENTICATION_INSTANCE* instance, STRING_HANDLE cbs_audience, cons
 202:Source\azure_iot_sdk\iothub_client\src/iothubtransport_amqp_cbs_auth.c **** {
 607              		.loc 1 202 0
 608              		.cfi_startproc
 609              		@ args = 0, pretend = 0, frame = 0
 610              		@ frame_needed = 0, uses_anonymous_args = 0
ARM GAS  C:\Users\Phuong\AppData\Local\Temp\ccPPbPWA.s 			page 16


 611              	.LVL92:
 612 0000 70B5     		push	{r4, r5, r6, lr}
 613              		.cfi_def_cfa_offset 16
 614              		.cfi_offset 4, -16
 615              		.cfi_offset 5, -12
 616              		.cfi_offset 6, -8
 617              		.cfi_offset 14, -4
 618 0002 84B0     		sub	sp, sp, #16
 619              		.cfi_def_cfa_offset 32
 620 0004 0400     		movs	r4, r0
 621 0006 1500     		movs	r5, r2
 203:Source\azure_iot_sdk\iothub_client\src/iothubtransport_amqp_cbs_auth.c ****     int result;
 204:Source\azure_iot_sdk\iothub_client\src/iothubtransport_amqp_cbs_auth.c **** 
 205:Source\azure_iot_sdk\iothub_client\src/iothubtransport_amqp_cbs_auth.c ****     // Codes_SRS_IOTHUBTRANSPORT_AMQP_AUTH_09_043: [authentication_do_work() shall set `instance->i
 206:Source\azure_iot_sdk\iothub_client\src/iothubtransport_amqp_cbs_auth.c ****     // Codes_SRS_IOTHUBTRANSPORT_AMQP_AUTH_09_057: [authentication_do_work() shall set `instance->i
 207:Source\azure_iot_sdk\iothub_client\src/iothubtransport_amqp_cbs_auth.c ****     // Codes_SRS_IOTHUBTRANSPORT_AMQP_AUTH_09_075: [authentication_do_work() shall set `instance->i
 208:Source\azure_iot_sdk\iothub_client\src/iothubtransport_amqp_cbs_auth.c ****     instance->is_cbs_put_token_in_progress = true;
 622              		.loc 1 208 0
 623 0008 0122     		movs	r2, #1
 624              	.LVL93:
 625 000a 3023     		movs	r3, #48
 626 000c C254     		strb	r2, [r0, r3]
 209:Source\azure_iot_sdk\iothub_client\src/iothubtransport_amqp_cbs_auth.c **** 
 210:Source\azure_iot_sdk\iothub_client\src/iothubtransport_amqp_cbs_auth.c ****     // Codes_SRS_IOTHUBTRANSPORT_AMQP_AUTH_09_046: [The SAS token provided shall be sent to CBS usi
 211:Source\azure_iot_sdk\iothub_client\src/iothubtransport_amqp_cbs_auth.c ****     // Codes_SRS_IOTHUBTRANSPORT_AMQP_AUTH_09_058: [The SAS token shall be sent to CBS using cbs_pu
 212:Source\azure_iot_sdk\iothub_client\src/iothubtransport_amqp_cbs_auth.c ****     // Codes_SRS_IOTHUBTRANSPORT_AMQP_AUTH_09_076: [The SAS token shall be sent to CBS using cbs_pu
 213:Source\azure_iot_sdk\iothub_client\src/iothubtransport_amqp_cbs_auth.c ****     const char* cbs_audience_c_str = STRING_c_str(cbs_audience);
 627              		.loc 1 213 0
 628 000e 0800     		movs	r0, r1
 629              	.LVL94:
 630 0010 FFF7FEFF 		bl	STRING_c_str
 631              	.LVL95:
 632 0014 0200     		movs	r2, r0
 633              	.LVL96:
 214:Source\azure_iot_sdk\iothub_client\src/iothubtransport_amqp_cbs_auth.c ****     if (cbs_put_token_async(instance->cbs_handle, SAS_TOKEN_TYPE, cbs_audience_c_str, sas_token, on
 634              		.loc 1 214 0
 635 0016 0194     		str	r4, [sp, #4]
 636 0018 1C4B     		ldr	r3, .L40
 637 001a 0093     		str	r3, [sp]
 638 001c 2B00     		movs	r3, r5
 639 001e 1C49     		ldr	r1, .L40+4
 640 0020 E06A     		ldr	r0, [r4, #44]
 641              	.LVL97:
 642 0022 FFF7FEFF 		bl	cbs_put_token_async
 643              	.LVL98:
 644 0026 0028     		cmp	r0, #0
 645 0028 14D0     		beq	.L36
 215:Source\azure_iot_sdk\iothub_client\src/iothubtransport_amqp_cbs_auth.c ****     {
 216:Source\azure_iot_sdk\iothub_client\src/iothubtransport_amqp_cbs_auth.c ****         // Codes_SRS_IOTHUBTRANSPORT_AMQP_AUTH_09_048: [If cbs_put_token() failed, authentication_d
 217:Source\azure_iot_sdk\iothub_client\src/iothubtransport_amqp_cbs_auth.c ****         // Codes_SRS_IOTHUBTRANSPORT_AMQP_AUTH_09_060: [If cbs_put_token() fails, `instance->is_cbs
 218:Source\azure_iot_sdk\iothub_client\src/iothubtransport_amqp_cbs_auth.c ****         // Codes_SRS_IOTHUBTRANSPORT_AMQP_AUTH_09_078: [If cbs_put_token() fails, `instance->is_cbs
 219:Source\azure_iot_sdk\iothub_client\src/iothubtransport_amqp_cbs_auth.c ****         instance->is_cbs_put_token_in_progress = false;
 646              		.loc 1 219 0
 647 002a 0022     		movs	r2, #0
 648 002c 3023     		movs	r3, #48
 649 002e E254     		strb	r2, [r4, r3]
 650              	.LVL99:
ARM GAS  C:\Users\Phuong\AppData\Local\Temp\ccPPbPWA.s 			page 17


 651              	.LBB14:
 220:Source\azure_iot_sdk\iothub_client\src/iothubtransport_amqp_cbs_auth.c ****         result = __FAILURE__;
 221:Source\azure_iot_sdk\iothub_client\src/iothubtransport_amqp_cbs_auth.c ****         LogError("Failed putting SAS token to CBS for device '%s' (cbs_put_token failed)", instance
 652              		.loc 1 221 0
 653 0030 FFF7FEFF 		bl	xlogging_get_log_function
 654              	.LVL100:
 655 0034 051E     		subs	r5, r0, #0
 656              	.LVL101:
 657 0036 26D0     		beq	.L39
 658              		.loc 1 221 0 is_stmt 0 discriminator 4
 659 0038 2368     		ldr	r3, [r4]
 660 003a 0293     		str	r3, [sp, #8]
 661 003c 154B     		ldr	r3, .L40+8
 662 003e 0193     		str	r3, [sp, #4]
 663 0040 0123     		movs	r3, #1
 664 0042 0093     		str	r3, [sp]
 665 0044 DC33     		adds	r3, r3, #220
 666 0046 144A     		ldr	r2, .L40+12
 667 0048 0832     		adds	r2, r2, #8
 668 004a 1449     		ldr	r1, .L40+16
 669 004c 0020     		movs	r0, #0
 670              	.LVL102:
 671 004e A847     		blx	r5
 672              	.LVL103:
 673              	.LBE14:
 220:Source\azure_iot_sdk\iothub_client\src/iothubtransport_amqp_cbs_auth.c ****         result = __FAILURE__;
 674              		.loc 1 220 0 is_stmt 1 discriminator 4
 675 0050 DC20     		movs	r0, #220
 676 0052 19E0     		b	.L37
 677              	.LVL104:
 678              	.L36:
 679              	.LBB15:
 222:Source\azure_iot_sdk\iothub_client\src/iothubtransport_amqp_cbs_auth.c ****     }
 223:Source\azure_iot_sdk\iothub_client\src/iothubtransport_amqp_cbs_auth.c ****     else
 224:Source\azure_iot_sdk\iothub_client\src/iothubtransport_amqp_cbs_auth.c ****     {
 225:Source\azure_iot_sdk\iothub_client\src/iothubtransport_amqp_cbs_auth.c ****         // Codes_SRS_IOTHUBTRANSPORT_AMQP_AUTH_09_047: [If cbs_put_token() succeeds, authentication
 226:Source\azure_iot_sdk\iothub_client\src/iothubtransport_amqp_cbs_auth.c ****         // Codes_SRS_IOTHUBTRANSPORT_AMQP_AUTH_09_059: [If cbs_put_token() succeeds, authentication
 227:Source\azure_iot_sdk\iothub_client\src/iothubtransport_amqp_cbs_auth.c ****         // Codes_SRS_IOTHUBTRANSPORT_AMQP_AUTH_09_077: [If cbs_put_token() succeeds, authentication
 228:Source\azure_iot_sdk\iothub_client\src/iothubtransport_amqp_cbs_auth.c ****         time_t current_time;
 229:Source\azure_iot_sdk\iothub_client\src/iothubtransport_amqp_cbs_auth.c **** 
 230:Source\azure_iot_sdk\iothub_client\src/iothubtransport_amqp_cbs_auth.c ****         if ((current_time = get_time(NULL)) == INDEFINITE_TIME)
 680              		.loc 1 230 0
 681 0054 0020     		movs	r0, #0
 682 0056 FFF7FEFF 		bl	get_time
 683              	.LVL105:
 684 005a 0500     		movs	r5, r0
 685              	.LVL106:
 686 005c 431C     		adds	r3, r0, #1
 687 005e 0FD1     		bne	.L38
 688              	.LBB16:
 231:Source\azure_iot_sdk\iothub_client\src/iothubtransport_amqp_cbs_auth.c ****         {
 232:Source\azure_iot_sdk\iothub_client\src/iothubtransport_amqp_cbs_auth.c ****             LogError("Failed setting current_sas_token_put_time for device '%s' (get_time() failed)
 689              		.loc 1 232 0 discriminator 3
 690 0060 FFF7FEFF 		bl	xlogging_get_log_function
 691              	.LVL107:
 692 0064 061E     		subs	r6, r0, #0
 693              	.LVL108:
ARM GAS  C:\Users\Phuong\AppData\Local\Temp\ccPPbPWA.s 			page 18


 694 0066 0BD0     		beq	.L38
 695              		.loc 1 232 0 is_stmt 0 discriminator 4
 696 0068 2368     		ldr	r3, [r4]
 697 006a 0293     		str	r3, [sp, #8]
 698 006c 0C4B     		ldr	r3, .L40+20
 699 006e 0193     		str	r3, [sp, #4]
 700 0070 0123     		movs	r3, #1
 701 0072 0093     		str	r3, [sp]
 702 0074 E733     		adds	r3, r3, #231
 703 0076 084A     		ldr	r2, .L40+12
 704 0078 0832     		adds	r2, r2, #8
 705 007a 0849     		ldr	r1, .L40+16
 706 007c 0020     		movs	r0, #0
 707              	.LVL109:
 708 007e B047     		blx	r6
 709              	.LVL110:
 710              	.L38:
 711              	.LBE16:
 233:Source\azure_iot_sdk\iothub_client\src/iothubtransport_amqp_cbs_auth.c ****         }
 234:Source\azure_iot_sdk\iothub_client\src/iothubtransport_amqp_cbs_auth.c **** 
 235:Source\azure_iot_sdk\iothub_client\src/iothubtransport_amqp_cbs_auth.c ****         instance->current_sas_token_put_time = current_time; // If it failed, fear not. `current_sa
 712              		.loc 1 235 0 is_stmt 1
 713 0080 6563     		str	r5, [r4, #52]
 714              	.LVL111:
 236:Source\azure_iot_sdk\iothub_client\src/iothubtransport_amqp_cbs_auth.c **** 
 237:Source\azure_iot_sdk\iothub_client\src/iothubtransport_amqp_cbs_auth.c ****         result = RESULT_OK;
 715              		.loc 1 237 0
 716 0082 0020     		movs	r0, #0
 717 0084 00E0     		b	.L37
 718              	.LVL112:
 719              	.L39:
 720              	.LBE15:
 220:Source\azure_iot_sdk\iothub_client\src/iothubtransport_amqp_cbs_auth.c ****         LogError("Failed putting SAS token to CBS for device '%s' (cbs_put_token failed)", instance
 721              		.loc 1 220 0
 722 0086 DC20     		movs	r0, #220
 723              	.LVL113:
 724              	.L37:
 238:Source\azure_iot_sdk\iothub_client\src/iothubtransport_amqp_cbs_auth.c ****     }
 239:Source\azure_iot_sdk\iothub_client\src/iothubtransport_amqp_cbs_auth.c **** 
 240:Source\azure_iot_sdk\iothub_client\src/iothubtransport_amqp_cbs_auth.c ****     return result;
 241:Source\azure_iot_sdk\iothub_client\src/iothubtransport_amqp_cbs_auth.c **** }
 725              		.loc 1 241 0
 726 0088 04B0     		add	sp, sp, #16
 727              		@ sp needed
 728              	.LVL114:
 729 008a 70BD     		pop	{r4, r5, r6, pc}
 730              	.L41:
 731              		.align	2
 732              	.L40:
 733 008c 00000000 		.word	on_cbs_put_token_complete_callback
 734 0090 40020000 		.word	.LC25
 735 0094 60020000 		.word	.LC30
 736 0098 80000000 		.word	.LANCHOR1
 737 009c 00000000 		.word	.LC1
 738 00a0 A8020000 		.word	.LC32
 739              		.cfi_endproc
 740              	.LFE7:
ARM GAS  C:\Users\Phuong\AppData\Local\Temp\ccPPbPWA.s 			page 19


 741              		.size	put_SAS_token_to_cbs, .-put_SAS_token_to_cbs
 742              		.section	.text.create_and_put_SAS_token_to_cbs,"ax",%progbits
 743              		.align	2
 744              		.code	16
 745              		.thumb_func
 746              		.type	create_and_put_SAS_token_to_cbs, %function
 747              	create_and_put_SAS_token_to_cbs:
 748              	.LFB8:
 242:Source\azure_iot_sdk\iothub_client\src/iothubtransport_amqp_cbs_auth.c **** 
 243:Source\azure_iot_sdk\iothub_client\src/iothubtransport_amqp_cbs_auth.c **** static int create_and_put_SAS_token_to_cbs(AUTHENTICATION_INSTANCE* instance)
 244:Source\azure_iot_sdk\iothub_client\src/iothubtransport_amqp_cbs_auth.c **** {
 749              		.loc 1 244 0
 750              		.cfi_startproc
 751              		@ args = 0, pretend = 0, frame = 0
 752              		@ frame_needed = 0, uses_anonymous_args = 0
 753              	.LVL115:
 754 0000 F0B5     		push	{r4, r5, r6, r7, lr}
 755              		.cfi_def_cfa_offset 20
 756              		.cfi_offset 4, -20
 757              		.cfi_offset 5, -16
 758              		.cfi_offset 6, -12
 759              		.cfi_offset 7, -8
 760              		.cfi_offset 14, -4
 761 0002 83B0     		sub	sp, sp, #12
 762              		.cfi_def_cfa_offset 32
 763 0004 0400     		movs	r4, r0
 245:Source\azure_iot_sdk\iothub_client\src/iothubtransport_amqp_cbs_auth.c ****     int result;
 246:Source\azure_iot_sdk\iothub_client\src/iothubtransport_amqp_cbs_auth.c ****     char* sas_token;
 247:Source\azure_iot_sdk\iothub_client\src/iothubtransport_amqp_cbs_auth.c ****     STRING_HANDLE device_and_module_path;
 248:Source\azure_iot_sdk\iothub_client\src/iothubtransport_amqp_cbs_auth.c **** 
 249:Source\azure_iot_sdk\iothub_client\src/iothubtransport_amqp_cbs_auth.c ****     // Codes_SRS_IOTHUBTRANSPORT_AMQP_AUTH_09_053: [A STRING_HANDLE, referred to as `devices_and_mo
 250:Source\azure_iot_sdk\iothub_client\src/iothubtransport_amqp_cbs_auth.c ****     // Codes_SRS_IOTHUBTRANSPORT_AMQP_AUTH_09_071: [A STRING_HANDLE, referred to as `devices_and_mo
 251:Source\azure_iot_sdk\iothub_client\src/iothubtransport_amqp_cbs_auth.c ****     if ((device_and_module_path = create_device_and_module_path(instance->iothub_host_fqdn, instanc
 764              		.loc 1 251 0
 765 0006 4268     		ldr	r2, [r0, #4]
 766 0008 0168     		ldr	r1, [r0]
 767 000a 8068     		ldr	r0, [r0, #8]
 768              	.LVL116:
 769 000c FFF7FEFF 		bl	create_device_and_module_path
 770              	.LVL117:
 771 0010 051E     		subs	r5, r0, #0
 772              	.LVL118:
 773 0012 11D1     		bne	.L43
 774              	.LVL119:
 775              	.LBB17:
 252:Source\azure_iot_sdk\iothub_client\src/iothubtransport_amqp_cbs_auth.c ****     {
 253:Source\azure_iot_sdk\iothub_client\src/iothubtransport_amqp_cbs_auth.c ****         // Codes_SRS_IOTHUBTRANSPORT_AMQP_AUTH_09_054: [If `devices_and_modules_path` failed to be 
 254:Source\azure_iot_sdk\iothub_client\src/iothubtransport_amqp_cbs_auth.c ****         // Codes_SRS_IOTHUBTRANSPORT_AMQP_AUTH_09_072: [If `devices_and_modules_path` failed to be 
 255:Source\azure_iot_sdk\iothub_client\src/iothubtransport_amqp_cbs_auth.c ****         result = __FAILURE__;
 256:Source\azure_iot_sdk\iothub_client\src/iothubtransport_amqp_cbs_auth.c ****         sas_token = NULL;
 257:Source\azure_iot_sdk\iothub_client\src/iothubtransport_amqp_cbs_auth.c ****         LogError("Failed creating a SAS token (create_device_and_module_path() failed)");
 776              		.loc 1 257 0
 777 0014 FFF7FEFF 		bl	xlogging_get_log_function
 778              	.LVL120:
 779 0018 041E     		subs	r4, r0, #0
 780              	.LVL121:
 781 001a 00D1     		bne	.LCB845
ARM GAS  C:\Users\Phuong\AppData\Local\Temp\ccPPbPWA.s 			page 20


 782 001c CFE0     		b	.L53	@long jump
 783              	.LCB845:
 784              		.loc 1 257 0 is_stmt 0 discriminator 4
 785 001e 6A4B     		ldr	r3, .L64
 786 0020 0193     		str	r3, [sp, #4]
 787 0022 0123     		movs	r3, #1
 788 0024 0093     		str	r3, [sp]
 789 0026 0223     		movs	r3, #2
 790 0028 FF33     		adds	r3, r3, #255
 791 002a 684A     		ldr	r2, .L64+4
 792 002c 2032     		adds	r2, r2, #32
 793 002e 6849     		ldr	r1, .L64+8
 794 0030 0020     		movs	r0, #0
 795              	.LVL122:
 796 0032 A047     		blx	r4
 797              	.LVL123:
 798              	.LBE17:
 255:Source\azure_iot_sdk\iothub_client\src/iothubtransport_amqp_cbs_auth.c ****         sas_token = NULL;
 799              		.loc 1 255 0 is_stmt 1 discriminator 4
 800 0034 FF27     		movs	r7, #255
 801 0036 C3E0     		b	.L44
 802              	.LVL124:
 803              	.L43:
 804              	.LBB18:
 258:Source\azure_iot_sdk\iothub_client\src/iothubtransport_amqp_cbs_auth.c ****     }
 259:Source\azure_iot_sdk\iothub_client\src/iothubtransport_amqp_cbs_auth.c ****     else
 260:Source\azure_iot_sdk\iothub_client\src/iothubtransport_amqp_cbs_auth.c ****     {
 261:Source\azure_iot_sdk\iothub_client\src/iothubtransport_amqp_cbs_auth.c ****         /* Codes_SRS_IOTHUBTRANSPORT_AMQP_AUTH_07_001: [ authentication_do_work() shall determine w
 262:Source\azure_iot_sdk\iothub_client\src/iothubtransport_amqp_cbs_auth.c ****         IOTHUB_CREDENTIAL_TYPE cred_type = IoTHubClient_Auth_Get_Credential_Type(instance->authoriz
 805              		.loc 1 262 0
 806 0038 A06B     		ldr	r0, [r4, #56]
 807              	.LVL125:
 808 003a FFF7FEFF 		bl	IoTHubClient_Auth_Get_Credential_Type
 809              	.LVL126:
 263:Source\azure_iot_sdk\iothub_client\src/iothubtransport_amqp_cbs_auth.c ****         if (cred_type == IOTHUB_CREDENTIAL_TYPE_DEVICE_KEY || cred_type == IOTHUB_CREDENTIAL_TYPE_D
 810              		.loc 1 263 0
 811 003e 0128     		cmp	r0, #1
 812 0040 01D0     		beq	.L45
 813              		.loc 1 263 0 is_stmt 0 discriminator 1
 814 0042 0528     		cmp	r0, #5
 815 0044 1DD1     		bne	.L46
 816              	.L45:
 264:Source\azure_iot_sdk\iothub_client\src/iothubtransport_amqp_cbs_auth.c ****         {
 265:Source\azure_iot_sdk\iothub_client\src/iothubtransport_amqp_cbs_auth.c ****             /* Codes_SRS_IOTHUBTRANSPORT_AMQP_AUTH_09_049: [authentication_do_work() shall create a
 266:Source\azure_iot_sdk\iothub_client\src/iothubtransport_amqp_cbs_auth.c ****             sas_token = IoTHubClient_Auth_Get_SasToken(instance->authorization_module, STRING_c_str
 817              		.loc 1 266 0 is_stmt 1
 818 0046 A66B     		ldr	r6, [r4, #56]
 819 0048 2800     		movs	r0, r5
 820              	.LVL127:
 821 004a FFF7FEFF 		bl	STRING_c_str
 822              	.LVL128:
 823 004e 0100     		movs	r1, r0
 824 0050 0023     		movs	r3, #0
 825 0052 226A     		ldr	r2, [r4, #32]
 826 0054 3000     		movs	r0, r6
 827 0056 FFF7FEFF 		bl	IoTHubClient_Auth_Get_SasToken
 828              	.LVL129:
ARM GAS  C:\Users\Phuong\AppData\Local\Temp\ccPPbPWA.s 			page 21


 829 005a 061E     		subs	r6, r0, #0
 830              	.LVL130:
 267:Source\azure_iot_sdk\iothub_client\src/iothubtransport_amqp_cbs_auth.c ****             if (sas_token == NULL)
 831              		.loc 1 267 0
 832 005c 71D1     		bne	.L54
 833              	.LBB19:
 268:Source\azure_iot_sdk\iothub_client\src/iothubtransport_amqp_cbs_auth.c ****             {
 269:Source\azure_iot_sdk\iothub_client\src/iothubtransport_amqp_cbs_auth.c ****                 LogError("failure getting sas token.");
 834              		.loc 1 269 0 discriminator 3
 835 005e FFF7FEFF 		bl	xlogging_get_log_function
 836              	.LVL131:
 837 0062 071E     		subs	r7, r0, #0
 838              	.LVL132:
 839 0064 6FD0     		beq	.L55
 840              		.loc 1 269 0 is_stmt 0 discriminator 4
 841 0066 5B4B     		ldr	r3, .L64+12
 842 0068 0193     		str	r3, [sp, #4]
 843 006a 0123     		movs	r3, #1
 844 006c 0093     		str	r3, [sp]
 845 006e 0E23     		movs	r3, #14
 846 0070 FF33     		adds	r3, r3, #255
 847 0072 564A     		ldr	r2, .L64+4
 848 0074 2032     		adds	r2, r2, #32
 849 0076 5649     		ldr	r1, .L64+8
 850 0078 0020     		movs	r0, #0
 851              	.LVL133:
 852 007a B847     		blx	r7
 853              	.LVL134:
 854              	.LBE19:
 270:Source\azure_iot_sdk\iothub_client\src/iothubtransport_amqp_cbs_auth.c ****                 result = __FAILURE__;
 855              		.loc 1 270 0 is_stmt 1 discriminator 4
 856 007c 8727     		movs	r7, #135
 857              	.LVL135:
 858 007e 7F00     		lsls	r7, r7, #1
 859 0080 77E0     		b	.L47
 860              	.LVL136:
 861              	.L46:
 271:Source\azure_iot_sdk\iothub_client\src/iothubtransport_amqp_cbs_auth.c ****             }
 272:Source\azure_iot_sdk\iothub_client\src/iothubtransport_amqp_cbs_auth.c ****             else
 273:Source\azure_iot_sdk\iothub_client\src/iothubtransport_amqp_cbs_auth.c ****             {
 274:Source\azure_iot_sdk\iothub_client\src/iothubtransport_amqp_cbs_auth.c ****                 result = RESULT_OK;
 275:Source\azure_iot_sdk\iothub_client\src/iothubtransport_amqp_cbs_auth.c ****             }
 276:Source\azure_iot_sdk\iothub_client\src/iothubtransport_amqp_cbs_auth.c ****         }
 277:Source\azure_iot_sdk\iothub_client\src/iothubtransport_amqp_cbs_auth.c ****         else if (cred_type == IOTHUB_CREDENTIAL_TYPE_SAS_TOKEN)
 862              		.loc 1 277 0
 863 0082 0428     		cmp	r0, #4
 864 0084 46D1     		bne	.L48
 865              	.LBB20:
 278:Source\azure_iot_sdk\iothub_client\src/iothubtransport_amqp_cbs_auth.c ****         {
 279:Source\azure_iot_sdk\iothub_client\src/iothubtransport_amqp_cbs_auth.c ****             /* Codes_SRS_IOTHUBTRANSPORT_AMQP_AUTH_07_002: [ If credential Type is SAS_TOKEN authen
 280:Source\azure_iot_sdk\iothub_client\src/iothubtransport_amqp_cbs_auth.c ****             SAS_TOKEN_STATUS token_status = IoTHubClient_Auth_Is_SasToken_Valid(instance->authoriza
 866              		.loc 1 280 0
 867 0086 A06B     		ldr	r0, [r4, #56]
 868              	.LVL137:
 869 0088 FFF7FEFF 		bl	IoTHubClient_Auth_Is_SasToken_Valid
 870              	.LVL138:
 281:Source\azure_iot_sdk\iothub_client\src/iothubtransport_amqp_cbs_auth.c ****             if (token_status == SAS_TOKEN_STATUS_INVALID)
ARM GAS  C:\Users\Phuong\AppData\Local\Temp\ccPPbPWA.s 			page 22


 871              		.loc 1 281 0
 872 008c 0228     		cmp	r0, #2
 873 008e 12D1     		bne	.L49
 874              	.LBB21:
 282:Source\azure_iot_sdk\iothub_client\src/iothubtransport_amqp_cbs_auth.c ****             {
 283:Source\azure_iot_sdk\iothub_client\src/iothubtransport_amqp_cbs_auth.c ****                 LogError("sas token is invalid.");
 875              		.loc 1 283 0 discriminator 3
 876 0090 FFF7FEFF 		bl	xlogging_get_log_function
 877              	.LVL139:
 878 0094 061E     		subs	r6, r0, #0
 879              	.LVL140:
 880 0096 59D0     		beq	.L56
 881              		.loc 1 283 0 is_stmt 0 discriminator 4
 882 0098 4F4B     		ldr	r3, .L64+16
 883 009a 0193     		str	r3, [sp, #4]
 884 009c 0123     		movs	r3, #1
 885 009e 0093     		str	r3, [sp]
 886 00a0 1C23     		movs	r3, #28
 887 00a2 FF33     		adds	r3, r3, #255
 888 00a4 494A     		ldr	r2, .L64+4
 889 00a6 2032     		adds	r2, r2, #32
 890 00a8 4949     		ldr	r1, .L64+8
 891 00aa 0020     		movs	r0, #0
 892              	.LVL141:
 893 00ac B047     		blx	r6
 894              	.LVL142:
 895              	.LBE21:
 284:Source\azure_iot_sdk\iothub_client\src/iothubtransport_amqp_cbs_auth.c ****                 sas_token = NULL;
 896              		.loc 1 284 0 is_stmt 1 discriminator 4
 897 00ae 0026     		movs	r6, #0
 898              	.LVL143:
 285:Source\azure_iot_sdk\iothub_client\src/iothubtransport_amqp_cbs_auth.c ****                 result = __FAILURE__;
 899              		.loc 1 285 0 discriminator 4
 900 00b0 1E27     		movs	r7, #30
 901 00b2 FF37     		adds	r7, r7, #255
 902 00b4 5DE0     		b	.L47
 903              	.LVL144:
 904              	.L49:
 286:Source\azure_iot_sdk\iothub_client\src/iothubtransport_amqp_cbs_auth.c ****             }
 287:Source\azure_iot_sdk\iothub_client\src/iothubtransport_amqp_cbs_auth.c ****             else if (token_status == SAS_TOKEN_STATUS_FAILED)
 905              		.loc 1 287 0
 906 00b6 0028     		cmp	r0, #0
 907 00b8 12D1     		bne	.L50
 908              	.LBB22:
 288:Source\azure_iot_sdk\iothub_client\src/iothubtransport_amqp_cbs_auth.c ****             {
 289:Source\azure_iot_sdk\iothub_client\src/iothubtransport_amqp_cbs_auth.c ****                 LogError("testing Sas Token failed.");
 909              		.loc 1 289 0 discriminator 3
 910 00ba FFF7FEFF 		bl	xlogging_get_log_function
 911              	.LVL145:
 912 00be 061E     		subs	r6, r0, #0
 913              	.LVL146:
 914 00c0 48D0     		beq	.L57
 915              		.loc 1 289 0 is_stmt 0 discriminator 4
 916 00c2 464B     		ldr	r3, .L64+20
 917 00c4 0193     		str	r3, [sp, #4]
 918 00c6 0123     		movs	r3, #1
 919 00c8 0093     		str	r3, [sp]
ARM GAS  C:\Users\Phuong\AppData\Local\Temp\ccPPbPWA.s 			page 23


 920 00ca 2223     		movs	r3, #34
 921 00cc FF33     		adds	r3, r3, #255
 922 00ce 3F4A     		ldr	r2, .L64+4
 923 00d0 2032     		adds	r2, r2, #32
 924 00d2 3F49     		ldr	r1, .L64+8
 925 00d4 0020     		movs	r0, #0
 926              	.LVL147:
 927 00d6 B047     		blx	r6
 928              	.LVL148:
 929              	.LBE22:
 290:Source\azure_iot_sdk\iothub_client\src/iothubtransport_amqp_cbs_auth.c ****                 sas_token = NULL;
 930              		.loc 1 290 0 is_stmt 1 discriminator 4
 931 00d8 0026     		movs	r6, #0
 932              	.LVL149:
 291:Source\azure_iot_sdk\iothub_client\src/iothubtransport_amqp_cbs_auth.c ****                 result = __FAILURE__;
 933              		.loc 1 291 0 discriminator 4
 934 00da 2427     		movs	r7, #36
 935 00dc FF37     		adds	r7, r7, #255
 936 00de 48E0     		b	.L47
 937              	.LVL150:
 938              	.L50:
 292:Source\azure_iot_sdk\iothub_client\src/iothubtransport_amqp_cbs_auth.c ****             }
 293:Source\azure_iot_sdk\iothub_client\src/iothubtransport_amqp_cbs_auth.c ****             else
 294:Source\azure_iot_sdk\iothub_client\src/iothubtransport_amqp_cbs_auth.c ****             {
 295:Source\azure_iot_sdk\iothub_client\src/iothubtransport_amqp_cbs_auth.c ****                 /* Codes_SRS_IOTHUBTRANSPORT_AMQP_AUTH_09_049: [authentication_do_work() shall crea
 296:Source\azure_iot_sdk\iothub_client\src/iothubtransport_amqp_cbs_auth.c ****                 sas_token = IoTHubClient_Auth_Get_SasToken(instance->authorization_module, NULL, 0,
 939              		.loc 1 296 0
 940 00e0 0023     		movs	r3, #0
 941 00e2 0022     		movs	r2, #0
 942 00e4 0021     		movs	r1, #0
 943 00e6 A06B     		ldr	r0, [r4, #56]
 944              	.LVL151:
 945 00e8 FFF7FEFF 		bl	IoTHubClient_Auth_Get_SasToken
 946              	.LVL152:
 947 00ec 061E     		subs	r6, r0, #0
 948              	.LVL153:
 297:Source\azure_iot_sdk\iothub_client\src/iothubtransport_amqp_cbs_auth.c ****                 if (sas_token == NULL)
 949              		.loc 1 297 0
 950 00ee 35D1     		bne	.L58
 951              	.LBB23:
 298:Source\azure_iot_sdk\iothub_client\src/iothubtransport_amqp_cbs_auth.c ****                 {
 299:Source\azure_iot_sdk\iothub_client\src/iothubtransport_amqp_cbs_auth.c ****                     LogError("failure getting sas Token.");
 952              		.loc 1 299 0 discriminator 3
 953 00f0 FFF7FEFF 		bl	xlogging_get_log_function
 954              	.LVL154:
 955 00f4 071E     		subs	r7, r0, #0
 956              	.LVL155:
 957 00f6 33D0     		beq	.L59
 958              		.loc 1 299 0 is_stmt 0 discriminator 4
 959 00f8 394B     		ldr	r3, .L64+24
 960 00fa 0193     		str	r3, [sp, #4]
 961 00fc 0123     		movs	r3, #1
 962 00fe 0093     		str	r3, [sp]
 963 0100 2C23     		movs	r3, #44
 964 0102 FF33     		adds	r3, r3, #255
 965 0104 314A     		ldr	r2, .L64+4
 966 0106 2032     		adds	r2, r2, #32
ARM GAS  C:\Users\Phuong\AppData\Local\Temp\ccPPbPWA.s 			page 24


 967 0108 3149     		ldr	r1, .L64+8
 968 010a 0020     		movs	r0, #0
 969              	.LVL156:
 970 010c B847     		blx	r7
 971              	.LVL157:
 972              	.LBE23:
 300:Source\azure_iot_sdk\iothub_client\src/iothubtransport_amqp_cbs_auth.c ****                     result = __FAILURE__;
 973              		.loc 1 300 0 is_stmt 1 discriminator 4
 974 010e 9627     		movs	r7, #150
 975              	.LVL158:
 976 0110 7F00     		lsls	r7, r7, #1
 977 0112 2EE0     		b	.L47
 978              	.LVL159:
 979              	.L48:
 980              	.LBE20:
 301:Source\azure_iot_sdk\iothub_client\src/iothubtransport_amqp_cbs_auth.c ****                 }
 302:Source\azure_iot_sdk\iothub_client\src/iothubtransport_amqp_cbs_auth.c ****                 else
 303:Source\azure_iot_sdk\iothub_client\src/iothubtransport_amqp_cbs_auth.c ****                 {
 304:Source\azure_iot_sdk\iothub_client\src/iothubtransport_amqp_cbs_auth.c ****                     result = RESULT_OK;
 305:Source\azure_iot_sdk\iothub_client\src/iothubtransport_amqp_cbs_auth.c ****                 }
 306:Source\azure_iot_sdk\iothub_client\src/iothubtransport_amqp_cbs_auth.c ****             }
 307:Source\azure_iot_sdk\iothub_client\src/iothubtransport_amqp_cbs_auth.c ****         }
 308:Source\azure_iot_sdk\iothub_client\src/iothubtransport_amqp_cbs_auth.c ****         else if (cred_type == IOTHUB_CREDENTIAL_TYPE_X509 || cred_type == IOTHUB_CREDENTIAL_TYPE_X5
 981              		.loc 1 308 0
 982 0114 0238     		subs	r0, r0, #2
 983              	.LVL160:
 984 0116 C0B2     		uxtb	r0, r0
 985 0118 0128     		cmp	r0, #1
 986 011a 24D9     		bls	.L60
 987              	.LBB24:
 309:Source\azure_iot_sdk\iothub_client\src/iothubtransport_amqp_cbs_auth.c ****         {
 310:Source\azure_iot_sdk\iothub_client\src/iothubtransport_amqp_cbs_auth.c ****             sas_token = NULL;
 311:Source\azure_iot_sdk\iothub_client\src/iothubtransport_amqp_cbs_auth.c ****             result = RESULT_OK;
 312:Source\azure_iot_sdk\iothub_client\src/iothubtransport_amqp_cbs_auth.c ****         }
 313:Source\azure_iot_sdk\iothub_client\src/iothubtransport_amqp_cbs_auth.c ****         else
 314:Source\azure_iot_sdk\iothub_client\src/iothubtransport_amqp_cbs_auth.c ****         {
 315:Source\azure_iot_sdk\iothub_client\src/iothubtransport_amqp_cbs_auth.c ****             LogError("failure unknown credential type found.");
 988              		.loc 1 315 0 discriminator 3
 989 011c FFF7FEFF 		bl	xlogging_get_log_function
 990              	.LVL161:
 991 0120 061E     		subs	r6, r0, #0
 992              	.LVL162:
 993 0122 23D0     		beq	.L61
 994              		.loc 1 315 0 is_stmt 0 discriminator 4
 995 0124 2F4B     		ldr	r3, .L64+28
 996 0126 0193     		str	r3, [sp, #4]
 997 0128 0123     		movs	r3, #1
 998 012a 0093     		str	r3, [sp]
 999 012c 3C23     		movs	r3, #60
 1000 012e FF33     		adds	r3, r3, #255
 1001 0130 264A     		ldr	r2, .L64+4
 1002 0132 2032     		adds	r2, r2, #32
 1003 0134 2649     		ldr	r1, .L64+8
 1004 0136 0020     		movs	r0, #0
 1005              	.LVL163:
 1006 0138 B047     		blx	r6
 1007              	.LVL164:
ARM GAS  C:\Users\Phuong\AppData\Local\Temp\ccPPbPWA.s 			page 25


 1008              	.LBE24:
 316:Source\azure_iot_sdk\iothub_client\src/iothubtransport_amqp_cbs_auth.c ****             sas_token = NULL;
 1009              		.loc 1 316 0 is_stmt 1 discriminator 4
 1010 013a 0026     		movs	r6, #0
 1011              	.LVL165:
 317:Source\azure_iot_sdk\iothub_client\src/iothubtransport_amqp_cbs_auth.c ****             result = __FAILURE__;
 1012              		.loc 1 317 0 discriminator 4
 1013 013c 3E27     		movs	r7, #62
 1014 013e FF37     		adds	r7, r7, #255
 1015 0140 17E0     		b	.L47
 1016              	.LVL166:
 1017              	.L54:
 274:Source\azure_iot_sdk\iothub_client\src/iothubtransport_amqp_cbs_auth.c ****             }
 1018              		.loc 1 274 0
 1019 0142 0027     		movs	r7, #0
 1020 0144 15E0     		b	.L47
 1021              	.LVL167:
 1022              	.L55:
 270:Source\azure_iot_sdk\iothub_client\src/iothubtransport_amqp_cbs_auth.c ****             }
 1023              		.loc 1 270 0
 1024 0146 8727     		movs	r7, #135
 1025 0148 7F00     		lsls	r7, r7, #1
 1026 014a 12E0     		b	.L47
 1027              	.LVL168:
 1028              	.L56:
 1029              	.LBB25:
 284:Source\azure_iot_sdk\iothub_client\src/iothubtransport_amqp_cbs_auth.c ****                 result = __FAILURE__;
 1030              		.loc 1 284 0
 1031 014c 0026     		movs	r6, #0
 285:Source\azure_iot_sdk\iothub_client\src/iothubtransport_amqp_cbs_auth.c ****             }
 1032              		.loc 1 285 0
 1033 014e 1E27     		movs	r7, #30
 1034 0150 FF37     		adds	r7, r7, #255
 1035 0152 0EE0     		b	.L47
 1036              	.LVL169:
 1037              	.L57:
 290:Source\azure_iot_sdk\iothub_client\src/iothubtransport_amqp_cbs_auth.c ****                 result = __FAILURE__;
 1038              		.loc 1 290 0
 1039 0154 0026     		movs	r6, #0
 291:Source\azure_iot_sdk\iothub_client\src/iothubtransport_amqp_cbs_auth.c ****             }
 1040              		.loc 1 291 0
 1041 0156 2427     		movs	r7, #36
 1042 0158 FF37     		adds	r7, r7, #255
 1043 015a 0AE0     		b	.L47
 1044              	.LVL170:
 1045              	.L58:
 304:Source\azure_iot_sdk\iothub_client\src/iothubtransport_amqp_cbs_auth.c ****                 }
 1046              		.loc 1 304 0
 1047 015c 0027     		movs	r7, #0
 1048 015e 08E0     		b	.L47
 1049              	.LVL171:
 1050              	.L59:
 300:Source\azure_iot_sdk\iothub_client\src/iothubtransport_amqp_cbs_auth.c ****                 }
 1051              		.loc 1 300 0
 1052 0160 9627     		movs	r7, #150
 1053 0162 7F00     		lsls	r7, r7, #1
 1054 0164 05E0     		b	.L47
ARM GAS  C:\Users\Phuong\AppData\Local\Temp\ccPPbPWA.s 			page 26


 1055              	.LVL172:
 1056              	.L60:
 1057              	.LBE25:
 310:Source\azure_iot_sdk\iothub_client\src/iothubtransport_amqp_cbs_auth.c ****             result = RESULT_OK;
 1058              		.loc 1 310 0
 1059 0166 0026     		movs	r6, #0
 311:Source\azure_iot_sdk\iothub_client\src/iothubtransport_amqp_cbs_auth.c ****         }
 1060              		.loc 1 311 0
 1061 0168 0027     		movs	r7, #0
 1062 016a 02E0     		b	.L47
 1063              	.LVL173:
 1064              	.L61:
 316:Source\azure_iot_sdk\iothub_client\src/iothubtransport_amqp_cbs_auth.c ****             result = __FAILURE__;
 1065              		.loc 1 316 0
 1066 016c 0026     		movs	r6, #0
 1067              		.loc 1 317 0
 1068 016e 3E27     		movs	r7, #62
 1069 0170 FF37     		adds	r7, r7, #255
 1070              	.LVL174:
 1071              	.L47:
 318:Source\azure_iot_sdk\iothub_client\src/iothubtransport_amqp_cbs_auth.c ****         }
 319:Source\azure_iot_sdk\iothub_client\src/iothubtransport_amqp_cbs_auth.c **** 
 320:Source\azure_iot_sdk\iothub_client\src/iothubtransport_amqp_cbs_auth.c **** 
 321:Source\azure_iot_sdk\iothub_client\src/iothubtransport_amqp_cbs_auth.c ****         if (sas_token != NULL)
 1072              		.loc 1 321 0
 1073 0172 002E     		cmp	r6, #0
 1074 0174 1FD0     		beq	.L51
 322:Source\azure_iot_sdk\iothub_client\src/iothubtransport_amqp_cbs_auth.c ****         {
 323:Source\azure_iot_sdk\iothub_client\src/iothubtransport_amqp_cbs_auth.c ****             if (put_SAS_token_to_cbs(instance, device_and_module_path, sas_token) != RESULT_OK)
 1075              		.loc 1 323 0
 1076 0176 3200     		movs	r2, r6
 1077 0178 2900     		movs	r1, r5
 1078 017a 2000     		movs	r0, r4
 1079 017c FFF7FEFF 		bl	put_SAS_token_to_cbs
 1080              	.LVL175:
 1081 0180 0028     		cmp	r0, #0
 1082 0182 11D0     		beq	.L62
 1083              	.LVL176:
 1084              	.LBB26:
 324:Source\azure_iot_sdk\iothub_client\src/iothubtransport_amqp_cbs_auth.c ****             {
 325:Source\azure_iot_sdk\iothub_client\src/iothubtransport_amqp_cbs_auth.c ****                 result = __FAILURE__;
 326:Source\azure_iot_sdk\iothub_client\src/iothubtransport_amqp_cbs_auth.c ****                 LogError("Failed putting SAS token to CBS");
 1085              		.loc 1 326 0
 1086 0184 FFF7FEFF 		bl	xlogging_get_log_function
 1087              	.LVL177:
 1088 0188 041E     		subs	r4, r0, #0
 1089              	.LVL178:
 1090 018a 0FD0     		beq	.L63
 1091              		.loc 1 326 0 is_stmt 0 discriminator 4
 1092 018c 164B     		ldr	r3, .L64+32
 1093 018e 0193     		str	r3, [sp, #4]
 1094 0190 0123     		movs	r3, #1
 1095 0192 0093     		str	r3, [sp]
 1096 0194 4633     		adds	r3, r3, #70
 1097 0196 FF33     		adds	r3, r3, #255
 1098 0198 0C4A     		ldr	r2, .L64+4
 1099 019a 2032     		adds	r2, r2, #32
ARM GAS  C:\Users\Phuong\AppData\Local\Temp\ccPPbPWA.s 			page 27


 1100 019c 0C49     		ldr	r1, .L64+8
 1101 019e 0020     		movs	r0, #0
 1102              	.LVL179:
 1103 01a0 A047     		blx	r4
 1104              	.LVL180:
 1105              	.LBE26:
 325:Source\azure_iot_sdk\iothub_client\src/iothubtransport_amqp_cbs_auth.c ****                 LogError("Failed putting SAS token to CBS");
 1106              		.loc 1 325 0 is_stmt 1 discriminator 4
 1107 01a2 4627     		movs	r7, #70
 1108 01a4 FF37     		adds	r7, r7, #255
 1109 01a6 03E0     		b	.L52
 1110              	.LVL181:
 1111              	.L62:
 327:Source\azure_iot_sdk\iothub_client\src/iothubtransport_amqp_cbs_auth.c ****             }
 328:Source\azure_iot_sdk\iothub_client\src/iothubtransport_amqp_cbs_auth.c ****             else
 329:Source\azure_iot_sdk\iothub_client\src/iothubtransport_amqp_cbs_auth.c ****             {
 330:Source\azure_iot_sdk\iothub_client\src/iothubtransport_amqp_cbs_auth.c ****                 result = RESULT_OK;
 1112              		.loc 1 330 0
 1113 01a8 0027     		movs	r7, #0
 1114              	.LVL182:
 1115 01aa 01E0     		b	.L52
 1116              	.LVL183:
 1117              	.L63:
 325:Source\azure_iot_sdk\iothub_client\src/iothubtransport_amqp_cbs_auth.c ****                 LogError("Failed putting SAS token to CBS");
 1118              		.loc 1 325 0
 1119 01ac 4627     		movs	r7, #70
 1120 01ae FF37     		adds	r7, r7, #255
 1121              	.LVL184:
 1122              	.L52:
 331:Source\azure_iot_sdk\iothub_client\src/iothubtransport_amqp_cbs_auth.c ****             }
 332:Source\azure_iot_sdk\iothub_client\src/iothubtransport_amqp_cbs_auth.c ****             free(sas_token);
 1123              		.loc 1 332 0
 1124 01b0 3000     		movs	r0, r6
 1125 01b2 FFF7FEFF 		bl	free
 1126              	.LVL185:
 1127              	.L51:
 333:Source\azure_iot_sdk\iothub_client\src/iothubtransport_amqp_cbs_auth.c ****         }
 334:Source\azure_iot_sdk\iothub_client\src/iothubtransport_amqp_cbs_auth.c **** 
 335:Source\azure_iot_sdk\iothub_client\src/iothubtransport_amqp_cbs_auth.c ****         // Codes_SRS_IOTHUBTRANSPORT_AMQP_AUTH_09_081: [authentication_do_work() shall free the mem
 336:Source\azure_iot_sdk\iothub_client\src/iothubtransport_amqp_cbs_auth.c ****         STRING_delete(device_and_module_path);
 1128              		.loc 1 336 0
 1129 01b6 2800     		movs	r0, r5
 1130 01b8 FFF7FEFF 		bl	STRING_delete
 1131              	.LVL186:
 1132 01bc 00E0     		b	.L44
 1133              	.LVL187:
 1134              	.L53:
 1135              	.LBE18:
 255:Source\azure_iot_sdk\iothub_client\src/iothubtransport_amqp_cbs_auth.c ****         sas_token = NULL;
 1136              		.loc 1 255 0
 1137 01be FF27     		movs	r7, #255
 1138              	.LVL188:
 1139              	.L44:
 337:Source\azure_iot_sdk\iothub_client\src/iothubtransport_amqp_cbs_auth.c ****     }
 338:Source\azure_iot_sdk\iothub_client\src/iothubtransport_amqp_cbs_auth.c ****     return result;
 339:Source\azure_iot_sdk\iothub_client\src/iothubtransport_amqp_cbs_auth.c **** }
 1140              		.loc 1 339 0
ARM GAS  C:\Users\Phuong\AppData\Local\Temp\ccPPbPWA.s 			page 28


 1141 01c0 3800     		movs	r0, r7
 1142 01c2 03B0     		add	sp, sp, #12
 1143              		@ sp needed
 1144              	.LVL189:
 1145              	.LVL190:
 1146 01c4 F0BD     		pop	{r4, r5, r6, r7, pc}
 1147              	.L65:
 1148 01c6 C046     		.align	2
 1149              	.L64:
 1150 01c8 F8020000 		.word	.LC36
 1151 01cc 80000000 		.word	.LANCHOR1
 1152 01d0 00000000 		.word	.LC1
 1153 01d4 40030000 		.word	.LC38
 1154 01d8 5C030000 		.word	.LC40
 1155 01dc 74030000 		.word	.LC42
 1156 01e0 90030000 		.word	.LC44
 1157 01e4 AC030000 		.word	.LC46
 1158 01e8 D4030000 		.word	.LC48
 1159              		.cfi_endproc
 1160              	.LFE8:
 1161              		.size	create_and_put_SAS_token_to_cbs, .-create_and_put_SAS_token_to_cbs
 1162              		.section	.text.authentication_clone_option,"ax",%progbits
 1163              		.align	2
 1164              		.code	16
 1165              		.thumb_func
 1166              		.type	authentication_clone_option, %function
 1167              	authentication_clone_option:
 1168              	.LFB9:
 340:Source\azure_iot_sdk\iothub_client\src/iothubtransport_amqp_cbs_auth.c **** 
 341:Source\azure_iot_sdk\iothub_client\src/iothubtransport_amqp_cbs_auth.c **** // ---------- Set/Retrieve Options Helpers ----------//
 342:Source\azure_iot_sdk\iothub_client\src/iothubtransport_amqp_cbs_auth.c **** static void* authentication_clone_option(const char* name, const void* value)
 343:Source\azure_iot_sdk\iothub_client\src/iothubtransport_amqp_cbs_auth.c **** {
 1169              		.loc 1 343 0
 1170              		.cfi_startproc
 1171              		@ args = 0, pretend = 0, frame = 0
 1172              		@ frame_needed = 0, uses_anonymous_args = 0
 1173              	.LVL191:
 1174 0000 30B5     		push	{r4, r5, lr}
 1175              		.cfi_def_cfa_offset 12
 1176              		.cfi_offset 4, -12
 1177              		.cfi_offset 5, -8
 1178              		.cfi_offset 14, -4
 1179 0002 85B0     		sub	sp, sp, #20
 1180              		.cfi_def_cfa_offset 32
 1181 0004 0400     		movs	r4, r0
 1182 0006 0D00     		movs	r5, r1
 344:Source\azure_iot_sdk\iothub_client\src/iothubtransport_amqp_cbs_auth.c ****     void* result;
 345:Source\azure_iot_sdk\iothub_client\src/iothubtransport_amqp_cbs_auth.c **** 
 346:Source\azure_iot_sdk\iothub_client\src/iothubtransport_amqp_cbs_auth.c ****     if (name == NULL)
 1183              		.loc 1 346 0
 1184 0008 0028     		cmp	r0, #0
 1185 000a 10D1     		bne	.L67
 1186              	.LBB27:
 347:Source\azure_iot_sdk\iothub_client\src/iothubtransport_amqp_cbs_auth.c ****     {
 348:Source\azure_iot_sdk\iothub_client\src/iothubtransport_amqp_cbs_auth.c ****         LogError("Failed to clone authentication option (name is NULL)");
 1187              		.loc 1 348 0 discriminator 3
 1188 000c FFF7FEFF 		bl	xlogging_get_log_function
ARM GAS  C:\Users\Phuong\AppData\Local\Temp\ccPPbPWA.s 			page 29


 1189              	.LVL192:
 1190 0010 041E     		subs	r4, r0, #0
 1191              	.LVL193:
 1192 0012 48D0     		beq	.L70
 1193              		.loc 1 348 0 is_stmt 0 discriminator 4
 1194 0014 274B     		ldr	r3, .L72
 1195 0016 0193     		str	r3, [sp, #4]
 1196 0018 0123     		movs	r3, #1
 1197 001a 0093     		str	r3, [sp]
 1198 001c 5C33     		adds	r3, r3, #92
 1199 001e FF33     		adds	r3, r3, #255
 1200 0020 254A     		ldr	r2, .L72+4
 1201 0022 4032     		adds	r2, r2, #64
 1202 0024 2549     		ldr	r1, .L72+8
 1203 0026 0020     		movs	r0, #0
 1204              	.LVL194:
 1205 0028 A047     		blx	r4
 1206              	.LVL195:
 1207              	.LBE27:
 349:Source\azure_iot_sdk\iothub_client\src/iothubtransport_amqp_cbs_auth.c ****         result = NULL;
 1208              		.loc 1 349 0 is_stmt 1 discriminator 4
 1209 002a 0025     		movs	r5, #0
 1210              	.LVL196:
 1211 002c 3EE0     		b	.L68
 1212              	.LVL197:
 1213              	.L67:
 350:Source\azure_iot_sdk\iothub_client\src/iothubtransport_amqp_cbs_auth.c ****     }
 351:Source\azure_iot_sdk\iothub_client\src/iothubtransport_amqp_cbs_auth.c ****     else if (value == NULL)
 1214              		.loc 1 351 0
 1215 002e 0029     		cmp	r1, #0
 1216 0030 0FD1     		bne	.L69
 1217              	.LBB28:
 352:Source\azure_iot_sdk\iothub_client\src/iothubtransport_amqp_cbs_auth.c ****     {
 353:Source\azure_iot_sdk\iothub_client\src/iothubtransport_amqp_cbs_auth.c ****         LogError("Failed to clone authentication option (value is NULL)");
 1218              		.loc 1 353 0 discriminator 3
 1219 0032 FFF7FEFF 		bl	xlogging_get_log_function
 1220              	.LVL198:
 1221 0036 041E     		subs	r4, r0, #0
 1222              	.LVL199:
 1223 0038 38D0     		beq	.L68
 1224              		.loc 1 353 0 is_stmt 0 discriminator 4
 1225 003a 214B     		ldr	r3, .L72+12
 1226 003c 0193     		str	r3, [sp, #4]
 1227 003e 0123     		movs	r3, #1
 1228 0040 0093     		str	r3, [sp]
 1229 0042 6223     		movs	r3, #98
 1230 0044 FF33     		adds	r3, r3, #255
 1231 0046 1C4A     		ldr	r2, .L72+4
 1232 0048 4032     		adds	r2, r2, #64
 1233 004a 1C49     		ldr	r1, .L72+8
 1234 004c 0020     		movs	r0, #0
 1235              	.LVL200:
 1236 004e A047     		blx	r4
 1237              	.LVL201:
 1238 0050 2CE0     		b	.L68
 1239              	.LVL202:
 1240              	.L69:
ARM GAS  C:\Users\Phuong\AppData\Local\Temp\ccPPbPWA.s 			page 30


 1241              	.LBE28:
 354:Source\azure_iot_sdk\iothub_client\src/iothubtransport_amqp_cbs_auth.c ****         result = NULL;
 355:Source\azure_iot_sdk\iothub_client\src/iothubtransport_amqp_cbs_auth.c ****     }
 356:Source\azure_iot_sdk\iothub_client\src/iothubtransport_amqp_cbs_auth.c ****     else
 357:Source\azure_iot_sdk\iothub_client\src/iothubtransport_amqp_cbs_auth.c ****     {
 358:Source\azure_iot_sdk\iothub_client\src/iothubtransport_amqp_cbs_auth.c ****         if (strcmp(AUTHENTICATION_OPTION_CBS_REQUEST_TIMEOUT_SECS, name) == 0 ||
 1242              		.loc 1 358 0 is_stmt 1
 1243 0052 0100     		movs	r1, r0
 1244              	.LVL203:
 1245 0054 1B48     		ldr	r0, .L72+16
 1246              	.LVL204:
 1247 0056 FFF7FEFF 		bl	strcmp
 1248              	.LVL205:
 1249 005a 0028     		cmp	r0, #0
 1250 005c 26D0     		beq	.L68
 359:Source\azure_iot_sdk\iothub_client\src/iothubtransport_amqp_cbs_auth.c ****             strcmp(AUTHENTICATION_OPTION_SAS_TOKEN_REFRESH_TIME_SECS, name) == 0 ||
 1251              		.loc 1 359 0 discriminator 1
 1252 005e 2100     		movs	r1, r4
 1253 0060 1948     		ldr	r0, .L72+20
 1254 0062 FFF7FEFF 		bl	strcmp
 1255              	.LVL206:
 358:Source\azure_iot_sdk\iothub_client\src/iothubtransport_amqp_cbs_auth.c ****             strcmp(AUTHENTICATION_OPTION_SAS_TOKEN_REFRESH_TIME_SECS, name) == 0 ||
 1256              		.loc 1 358 0 discriminator 1
 1257 0066 0028     		cmp	r0, #0
 1258 0068 20D0     		beq	.L68
 360:Source\azure_iot_sdk\iothub_client\src/iothubtransport_amqp_cbs_auth.c ****             strcmp(AUTHENTICATION_OPTION_SAS_TOKEN_LIFETIME_SECS, name) == 0 ||
 1259              		.loc 1 360 0
 1260 006a 2100     		movs	r1, r4
 1261 006c 1748     		ldr	r0, .L72+24
 1262 006e FFF7FEFF 		bl	strcmp
 1263              	.LVL207:
 359:Source\azure_iot_sdk\iothub_client\src/iothubtransport_amqp_cbs_auth.c ****             strcmp(AUTHENTICATION_OPTION_SAS_TOKEN_REFRESH_TIME_SECS, name) == 0 ||
 1264              		.loc 1 359 0
 1265 0072 0028     		cmp	r0, #0
 1266 0074 1AD0     		beq	.L68
 361:Source\azure_iot_sdk\iothub_client\src/iothubtransport_amqp_cbs_auth.c ****             strcmp(AUTHENTICATION_OPTION_SAVED_OPTIONS, name) == 0)
 1267              		.loc 1 361 0
 1268 0076 2100     		movs	r1, r4
 1269 0078 1548     		ldr	r0, .L72+28
 1270 007a FFF7FEFF 		bl	strcmp
 1271              	.LVL208:
 360:Source\azure_iot_sdk\iothub_client\src/iothubtransport_amqp_cbs_auth.c ****             strcmp(AUTHENTICATION_OPTION_SAS_TOKEN_LIFETIME_SECS, name) == 0 ||
 1272              		.loc 1 360 0
 1273 007e 0028     		cmp	r0, #0
 1274 0080 14D0     		beq	.L68
 1275              	.LBB29:
 362:Source\azure_iot_sdk\iothub_client\src/iothubtransport_amqp_cbs_auth.c ****         {
 363:Source\azure_iot_sdk\iothub_client\src/iothubtransport_amqp_cbs_auth.c ****             result = (void*)value;
 364:Source\azure_iot_sdk\iothub_client\src/iothubtransport_amqp_cbs_auth.c ****         }
 365:Source\azure_iot_sdk\iothub_client\src/iothubtransport_amqp_cbs_auth.c ****         else
 366:Source\azure_iot_sdk\iothub_client\src/iothubtransport_amqp_cbs_auth.c ****         {
 367:Source\azure_iot_sdk\iothub_client\src/iothubtransport_amqp_cbs_auth.c ****             LogError("Failed to clone authentication option (option with name '%s' is not suppporte
 1276              		.loc 1 367 0 discriminator 3
 1277 0082 FFF7FEFF 		bl	xlogging_get_log_function
 1278              	.LVL209:
 1279 0086 051E     		subs	r5, r0, #0
 1280              	.LVL210:
ARM GAS  C:\Users\Phuong\AppData\Local\Temp\ccPPbPWA.s 			page 31


 1281 0088 0FD0     		beq	.L71
 1282              		.loc 1 367 0 is_stmt 0 discriminator 4
 1283 008a 0294     		str	r4, [sp, #8]
 1284 008c 114B     		ldr	r3, .L72+32
 1285 008e 0193     		str	r3, [sp, #4]
 1286 0090 0123     		movs	r3, #1
 1287 0092 0093     		str	r3, [sp]
 1288 0094 7023     		movs	r3, #112
 1289 0096 FF33     		adds	r3, r3, #255
 1290 0098 074A     		ldr	r2, .L72+4
 1291 009a 4032     		adds	r2, r2, #64
 1292 009c 0749     		ldr	r1, .L72+8
 1293 009e 0020     		movs	r0, #0
 1294              	.LVL211:
 1295 00a0 A847     		blx	r5
 1296              	.LVL212:
 1297              	.LBE29:
 368:Source\azure_iot_sdk\iothub_client\src/iothubtransport_amqp_cbs_auth.c ****             result = NULL;
 1298              		.loc 1 368 0 is_stmt 1 discriminator 4
 1299 00a2 0025     		movs	r5, #0
 1300              	.LVL213:
 1301 00a4 02E0     		b	.L68
 1302              	.LVL214:
 1303              	.L70:
 349:Source\azure_iot_sdk\iothub_client\src/iothubtransport_amqp_cbs_auth.c ****     }
 1304              		.loc 1 349 0
 1305 00a6 0025     		movs	r5, #0
 1306              	.LVL215:
 1307 00a8 00E0     		b	.L68
 1308              	.LVL216:
 1309              	.L71:
 1310              		.loc 1 368 0
 1311 00aa 0025     		movs	r5, #0
 1312              	.LVL217:
 1313              	.L68:
 369:Source\azure_iot_sdk\iothub_client\src/iothubtransport_amqp_cbs_auth.c ****         }
 370:Source\azure_iot_sdk\iothub_client\src/iothubtransport_amqp_cbs_auth.c ****     }
 371:Source\azure_iot_sdk\iothub_client\src/iothubtransport_amqp_cbs_auth.c **** 
 372:Source\azure_iot_sdk\iothub_client\src/iothubtransport_amqp_cbs_auth.c ****     return result;
 373:Source\azure_iot_sdk\iothub_client\src/iothubtransport_amqp_cbs_auth.c **** }
 1314              		.loc 1 373 0
 1315 00ac 2800     		movs	r0, r5
 1316 00ae 05B0     		add	sp, sp, #20
 1317              		@ sp needed
 1318              	.LVL218:
 1319 00b0 30BD     		pop	{r4, r5, pc}
 1320              	.L73:
 1321 00b2 C046     		.align	2
 1322              	.L72:
 1323 00b4 F4030000 		.word	.LC52
 1324 00b8 80000000 		.word	.LANCHOR1
 1325 00bc 00000000 		.word	.LC1
 1326 00c0 2C040000 		.word	.LC54
 1327 00c4 64040000 		.word	.LC56
 1328 00c8 80040000 		.word	.LC58
 1329 00cc 9C040000 		.word	.LC60
 1330 00d0 B4040000 		.word	.LC62
ARM GAS  C:\Users\Phuong\AppData\Local\Temp\ccPPbPWA.s 			page 32


 1331 00d4 D4040000 		.word	.LC64
 1332              		.cfi_endproc
 1333              	.LFE9:
 1334              		.size	authentication_clone_option, .-authentication_clone_option
 1335              		.section	.text.authentication_set_option,"ax",%progbits
 1336              		.align	2
 1337              		.global	authentication_set_option
 1338              		.code	16
 1339              		.thumb_func
 1340              		.type	authentication_set_option, %function
 1341              	authentication_set_option:
 1342              	.LFB16:
 374:Source\azure_iot_sdk\iothub_client\src/iothubtransport_amqp_cbs_auth.c **** 
 375:Source\azure_iot_sdk\iothub_client\src/iothubtransport_amqp_cbs_auth.c **** static void authentication_destroy_option(const char* name, const void* value)
 376:Source\azure_iot_sdk\iothub_client\src/iothubtransport_amqp_cbs_auth.c **** {
 377:Source\azure_iot_sdk\iothub_client\src/iothubtransport_amqp_cbs_auth.c ****     if (name == NULL)
 378:Source\azure_iot_sdk\iothub_client\src/iothubtransport_amqp_cbs_auth.c ****     {
 379:Source\azure_iot_sdk\iothub_client\src/iothubtransport_amqp_cbs_auth.c ****         LogError("Failed to destroy authentication option (name is NULL)");
 380:Source\azure_iot_sdk\iothub_client\src/iothubtransport_amqp_cbs_auth.c ****     }
 381:Source\azure_iot_sdk\iothub_client\src/iothubtransport_amqp_cbs_auth.c ****     else if (value == NULL)
 382:Source\azure_iot_sdk\iothub_client\src/iothubtransport_amqp_cbs_auth.c ****     {
 383:Source\azure_iot_sdk\iothub_client\src/iothubtransport_amqp_cbs_auth.c ****         LogError("Failed to destroy authentication option (value is NULL)");
 384:Source\azure_iot_sdk\iothub_client\src/iothubtransport_amqp_cbs_auth.c ****     }
 385:Source\azure_iot_sdk\iothub_client\src/iothubtransport_amqp_cbs_auth.c ****     else
 386:Source\azure_iot_sdk\iothub_client\src/iothubtransport_amqp_cbs_auth.c ****     {
 387:Source\azure_iot_sdk\iothub_client\src/iothubtransport_amqp_cbs_auth.c ****         if (strcmp(name, AUTHENTICATION_OPTION_SAVED_OPTIONS) == 0)
 388:Source\azure_iot_sdk\iothub_client\src/iothubtransport_amqp_cbs_auth.c ****         {
 389:Source\azure_iot_sdk\iothub_client\src/iothubtransport_amqp_cbs_auth.c ****             OptionHandler_Destroy((OPTIONHANDLER_HANDLE)value);
 390:Source\azure_iot_sdk\iothub_client\src/iothubtransport_amqp_cbs_auth.c ****         }
 391:Source\azure_iot_sdk\iothub_client\src/iothubtransport_amqp_cbs_auth.c ****     }
 392:Source\azure_iot_sdk\iothub_client\src/iothubtransport_amqp_cbs_auth.c **** }
 393:Source\azure_iot_sdk\iothub_client\src/iothubtransport_amqp_cbs_auth.c **** 
 394:Source\azure_iot_sdk\iothub_client\src/iothubtransport_amqp_cbs_auth.c **** // Public APIs:
 395:Source\azure_iot_sdk\iothub_client\src/iothubtransport_amqp_cbs_auth.c **** int authentication_start(AUTHENTICATION_HANDLE authentication_handle, const CBS_HANDLE cbs_handle)
 396:Source\azure_iot_sdk\iothub_client\src/iothubtransport_amqp_cbs_auth.c **** {
 397:Source\azure_iot_sdk\iothub_client\src/iothubtransport_amqp_cbs_auth.c ****     int result;
 398:Source\azure_iot_sdk\iothub_client\src/iothubtransport_amqp_cbs_auth.c **** 
 399:Source\azure_iot_sdk\iothub_client\src/iothubtransport_amqp_cbs_auth.c ****     // Codes_SRS_IOTHUBTRANSPORT_AMQP_AUTH_09_025: [If authentication_handle is NULL, authenticatio
 400:Source\azure_iot_sdk\iothub_client\src/iothubtransport_amqp_cbs_auth.c ****     if (authentication_handle == NULL)
 401:Source\azure_iot_sdk\iothub_client\src/iothubtransport_amqp_cbs_auth.c ****     {
 402:Source\azure_iot_sdk\iothub_client\src/iothubtransport_amqp_cbs_auth.c ****         result = __FAILURE__;
 403:Source\azure_iot_sdk\iothub_client\src/iothubtransport_amqp_cbs_auth.c ****         LogError("authentication_start failed (authentication_handle is NULL)");
 404:Source\azure_iot_sdk\iothub_client\src/iothubtransport_amqp_cbs_auth.c ****     }
 405:Source\azure_iot_sdk\iothub_client\src/iothubtransport_amqp_cbs_auth.c ****     // Codes_SRS_IOTHUBTRANSPORT_AMQP_AUTH_09_026: [If `cbs_handle` is NULL, authentication_start()
 406:Source\azure_iot_sdk\iothub_client\src/iothubtransport_amqp_cbs_auth.c ****     else if (cbs_handle == NULL)
 407:Source\azure_iot_sdk\iothub_client\src/iothubtransport_amqp_cbs_auth.c ****     {
 408:Source\azure_iot_sdk\iothub_client\src/iothubtransport_amqp_cbs_auth.c ****         result = __FAILURE__;
 409:Source\azure_iot_sdk\iothub_client\src/iothubtransport_amqp_cbs_auth.c ****         LogError("authentication_start failed (cbs_handle is NULL)");
 410:Source\azure_iot_sdk\iothub_client\src/iothubtransport_amqp_cbs_auth.c ****     }
 411:Source\azure_iot_sdk\iothub_client\src/iothubtransport_amqp_cbs_auth.c ****     else
 412:Source\azure_iot_sdk\iothub_client\src/iothubtransport_amqp_cbs_auth.c ****     {
 413:Source\azure_iot_sdk\iothub_client\src/iothubtransport_amqp_cbs_auth.c ****         AUTHENTICATION_INSTANCE* instance = (AUTHENTICATION_INSTANCE*)authentication_handle;
 414:Source\azure_iot_sdk\iothub_client\src/iothubtransport_amqp_cbs_auth.c **** 
 415:Source\azure_iot_sdk\iothub_client\src/iothubtransport_amqp_cbs_auth.c ****         // Codes_SRS_IOTHUBTRANSPORT_AMQP_AUTH_09_027: [If authenticate state has been started alre
 416:Source\azure_iot_sdk\iothub_client\src/iothubtransport_amqp_cbs_auth.c ****         if (instance->state != AUTHENTICATION_STATE_STOPPED)
 417:Source\azure_iot_sdk\iothub_client\src/iothubtransport_amqp_cbs_auth.c ****         {
 418:Source\azure_iot_sdk\iothub_client\src/iothubtransport_amqp_cbs_auth.c ****             result = __FAILURE__;
ARM GAS  C:\Users\Phuong\AppData\Local\Temp\ccPPbPWA.s 			page 33


 419:Source\azure_iot_sdk\iothub_client\src/iothubtransport_amqp_cbs_auth.c ****             LogError("authentication_start failed (messenger has already been started; current stat
 420:Source\azure_iot_sdk\iothub_client\src/iothubtransport_amqp_cbs_auth.c ****         }
 421:Source\azure_iot_sdk\iothub_client\src/iothubtransport_amqp_cbs_auth.c ****         else
 422:Source\azure_iot_sdk\iothub_client\src/iothubtransport_amqp_cbs_auth.c ****         {
 423:Source\azure_iot_sdk\iothub_client\src/iothubtransport_amqp_cbs_auth.c ****             // Codes_SRS_IOTHUBTRANSPORT_AMQP_AUTH_09_028: [authentication_start() shall save `cbs_
 424:Source\azure_iot_sdk\iothub_client\src/iothubtransport_amqp_cbs_auth.c ****             instance->cbs_handle = cbs_handle;
 425:Source\azure_iot_sdk\iothub_client\src/iothubtransport_amqp_cbs_auth.c **** 
 426:Source\azure_iot_sdk\iothub_client\src/iothubtransport_amqp_cbs_auth.c ****             // Codes_SRS_IOTHUBTRANSPORT_AMQP_AUTH_09_029: [If no failures occur, `instance->state`
 427:Source\azure_iot_sdk\iothub_client\src/iothubtransport_amqp_cbs_auth.c ****             update_state(instance, AUTHENTICATION_STATE_STARTING);
 428:Source\azure_iot_sdk\iothub_client\src/iothubtransport_amqp_cbs_auth.c **** 
 429:Source\azure_iot_sdk\iothub_client\src/iothubtransport_amqp_cbs_auth.c ****             // Codes_SRS_IOTHUBTRANSPORT_AMQP_AUTH_09_030: [If no failures occur, authentication_st
 430:Source\azure_iot_sdk\iothub_client\src/iothubtransport_amqp_cbs_auth.c ****             result = RESULT_OK;
 431:Source\azure_iot_sdk\iothub_client\src/iothubtransport_amqp_cbs_auth.c ****         }
 432:Source\azure_iot_sdk\iothub_client\src/iothubtransport_amqp_cbs_auth.c ****     }
 433:Source\azure_iot_sdk\iothub_client\src/iothubtransport_amqp_cbs_auth.c **** 
 434:Source\azure_iot_sdk\iothub_client\src/iothubtransport_amqp_cbs_auth.c ****     return result;
 435:Source\azure_iot_sdk\iothub_client\src/iothubtransport_amqp_cbs_auth.c **** }
 436:Source\azure_iot_sdk\iothub_client\src/iothubtransport_amqp_cbs_auth.c **** 
 437:Source\azure_iot_sdk\iothub_client\src/iothubtransport_amqp_cbs_auth.c **** int authentication_stop(AUTHENTICATION_HANDLE authentication_handle)
 438:Source\azure_iot_sdk\iothub_client\src/iothubtransport_amqp_cbs_auth.c **** {
 439:Source\azure_iot_sdk\iothub_client\src/iothubtransport_amqp_cbs_auth.c ****     int result;
 440:Source\azure_iot_sdk\iothub_client\src/iothubtransport_amqp_cbs_auth.c **** 
 441:Source\azure_iot_sdk\iothub_client\src/iothubtransport_amqp_cbs_auth.c ****     // Codes_SRS_IOTHUBTRANSPORT_AMQP_AUTH_09_031: [If `authentication_handle` is NULL, authenticat
 442:Source\azure_iot_sdk\iothub_client\src/iothubtransport_amqp_cbs_auth.c ****     if (authentication_handle == NULL)
 443:Source\azure_iot_sdk\iothub_client\src/iothubtransport_amqp_cbs_auth.c ****     {
 444:Source\azure_iot_sdk\iothub_client\src/iothubtransport_amqp_cbs_auth.c ****         result = __FAILURE__;
 445:Source\azure_iot_sdk\iothub_client\src/iothubtransport_amqp_cbs_auth.c ****         LogError("authentication_stop failed (authentication_handle is NULL)");
 446:Source\azure_iot_sdk\iothub_client\src/iothubtransport_amqp_cbs_auth.c ****     }
 447:Source\azure_iot_sdk\iothub_client\src/iothubtransport_amqp_cbs_auth.c ****     else
 448:Source\azure_iot_sdk\iothub_client\src/iothubtransport_amqp_cbs_auth.c ****     {
 449:Source\azure_iot_sdk\iothub_client\src/iothubtransport_amqp_cbs_auth.c ****         AUTHENTICATION_INSTANCE* instance = (AUTHENTICATION_INSTANCE*)authentication_handle;
 450:Source\azure_iot_sdk\iothub_client\src/iothubtransport_amqp_cbs_auth.c **** 
 451:Source\azure_iot_sdk\iothub_client\src/iothubtransport_amqp_cbs_auth.c ****         // Codes_SRS_IOTHUBTRANSPORT_AMQP_AUTH_09_032: [If `instance->state` is AUTHENTICATION_STAT
 452:Source\azure_iot_sdk\iothub_client\src/iothubtransport_amqp_cbs_auth.c ****         if (instance->state == AUTHENTICATION_STATE_STOPPED)
 453:Source\azure_iot_sdk\iothub_client\src/iothubtransport_amqp_cbs_auth.c ****         {
 454:Source\azure_iot_sdk\iothub_client\src/iothubtransport_amqp_cbs_auth.c ****             result = __FAILURE__;
 455:Source\azure_iot_sdk\iothub_client\src/iothubtransport_amqp_cbs_auth.c ****             LogError("authentication_stop failed (messenger is already stopped)");
 456:Source\azure_iot_sdk\iothub_client\src/iothubtransport_amqp_cbs_auth.c ****         }
 457:Source\azure_iot_sdk\iothub_client\src/iothubtransport_amqp_cbs_auth.c ****         else
 458:Source\azure_iot_sdk\iothub_client\src/iothubtransport_amqp_cbs_auth.c ****         {
 459:Source\azure_iot_sdk\iothub_client\src/iothubtransport_amqp_cbs_auth.c ****             // Codes_SRS_IOTHUBTRANSPORT_AMQP_AUTH_09_033: [`instance->cbs_handle` shall be set to 
 460:Source\azure_iot_sdk\iothub_client\src/iothubtransport_amqp_cbs_auth.c ****             instance->cbs_handle = NULL;
 461:Source\azure_iot_sdk\iothub_client\src/iothubtransport_amqp_cbs_auth.c **** 
 462:Source\azure_iot_sdk\iothub_client\src/iothubtransport_amqp_cbs_auth.c ****             // Codes_SRS_IOTHUBTRANSPORT_AMQP_AUTH_09_034: [`instance->state` shall be set to AUTHE
 463:Source\azure_iot_sdk\iothub_client\src/iothubtransport_amqp_cbs_auth.c ****             update_state(instance, AUTHENTICATION_STATE_STOPPED);
 464:Source\azure_iot_sdk\iothub_client\src/iothubtransport_amqp_cbs_auth.c **** 
 465:Source\azure_iot_sdk\iothub_client\src/iothubtransport_amqp_cbs_auth.c ****             // Codes_SRS_IOTHUBTRANSPORT_AMQP_AUTH_09_035: [authentication_stop() shall return succ
 466:Source\azure_iot_sdk\iothub_client\src/iothubtransport_amqp_cbs_auth.c ****             result = RESULT_OK;
 467:Source\azure_iot_sdk\iothub_client\src/iothubtransport_amqp_cbs_auth.c ****         }
 468:Source\azure_iot_sdk\iothub_client\src/iothubtransport_amqp_cbs_auth.c ****     }
 469:Source\azure_iot_sdk\iothub_client\src/iothubtransport_amqp_cbs_auth.c **** 
 470:Source\azure_iot_sdk\iothub_client\src/iothubtransport_amqp_cbs_auth.c ****     return result;
 471:Source\azure_iot_sdk\iothub_client\src/iothubtransport_amqp_cbs_auth.c **** }
 472:Source\azure_iot_sdk\iothub_client\src/iothubtransport_amqp_cbs_auth.c **** 
 473:Source\azure_iot_sdk\iothub_client\src/iothubtransport_amqp_cbs_auth.c **** void authentication_destroy(AUTHENTICATION_HANDLE authentication_handle)
 474:Source\azure_iot_sdk\iothub_client\src/iothubtransport_amqp_cbs_auth.c **** {
 475:Source\azure_iot_sdk\iothub_client\src/iothubtransport_amqp_cbs_auth.c ****     // Codes_SRS_IOTHUBTRANSPORT_AMQP_AUTH_09_106: [If authentication_handle is NULL, authenticatio
ARM GAS  C:\Users\Phuong\AppData\Local\Temp\ccPPbPWA.s 			page 34


 476:Source\azure_iot_sdk\iothub_client\src/iothubtransport_amqp_cbs_auth.c ****     if (authentication_handle == NULL)
 477:Source\azure_iot_sdk\iothub_client\src/iothubtransport_amqp_cbs_auth.c ****     {
 478:Source\azure_iot_sdk\iothub_client\src/iothubtransport_amqp_cbs_auth.c ****         LogError("authentication_destroy failed (authentication_handle is NULL)");
 479:Source\azure_iot_sdk\iothub_client\src/iothubtransport_amqp_cbs_auth.c ****     }
 480:Source\azure_iot_sdk\iothub_client\src/iothubtransport_amqp_cbs_auth.c ****     else
 481:Source\azure_iot_sdk\iothub_client\src/iothubtransport_amqp_cbs_auth.c ****     {
 482:Source\azure_iot_sdk\iothub_client\src/iothubtransport_amqp_cbs_auth.c ****         AUTHENTICATION_INSTANCE* instance = (AUTHENTICATION_INSTANCE*)authentication_handle;
 483:Source\azure_iot_sdk\iothub_client\src/iothubtransport_amqp_cbs_auth.c **** 
 484:Source\azure_iot_sdk\iothub_client\src/iothubtransport_amqp_cbs_auth.c ****         // Codes_SRS_IOTHUBTRANSPORT_AMQP_AUTH_09_107: [If `instance->state` is AUTHENTICATION_STAT
 485:Source\azure_iot_sdk\iothub_client\src/iothubtransport_amqp_cbs_auth.c ****         if (instance->state != AUTHENTICATION_STATE_STOPPED)
 486:Source\azure_iot_sdk\iothub_client\src/iothubtransport_amqp_cbs_auth.c ****         {
 487:Source\azure_iot_sdk\iothub_client\src/iothubtransport_amqp_cbs_auth.c ****             (void)authentication_stop(authentication_handle);
 488:Source\azure_iot_sdk\iothub_client\src/iothubtransport_amqp_cbs_auth.c ****         }
 489:Source\azure_iot_sdk\iothub_client\src/iothubtransport_amqp_cbs_auth.c ****         // Codes_SRS_IOTHUBTRANSPORT_AMQP_AUTH_09_108: [authentication_destroy() shall destroy all 
 490:Source\azure_iot_sdk\iothub_client\src/iothubtransport_amqp_cbs_auth.c ****         if (instance->iothub_host_fqdn != NULL)
 491:Source\azure_iot_sdk\iothub_client\src/iothubtransport_amqp_cbs_auth.c ****             STRING_delete(instance->iothub_host_fqdn);
 492:Source\azure_iot_sdk\iothub_client\src/iothubtransport_amqp_cbs_auth.c **** 
 493:Source\azure_iot_sdk\iothub_client\src/iothubtransport_amqp_cbs_auth.c ****         // Codes_SRS_IOTHUBTRANSPORT_AMQP_AUTH_09_108: [authentication_destroy() shall destroy all 
 494:Source\azure_iot_sdk\iothub_client\src/iothubtransport_amqp_cbs_auth.c ****         free(instance);
 495:Source\azure_iot_sdk\iothub_client\src/iothubtransport_amqp_cbs_auth.c ****     }
 496:Source\azure_iot_sdk\iothub_client\src/iothubtransport_amqp_cbs_auth.c **** }
 497:Source\azure_iot_sdk\iothub_client\src/iothubtransport_amqp_cbs_auth.c **** 
 498:Source\azure_iot_sdk\iothub_client\src/iothubtransport_amqp_cbs_auth.c **** AUTHENTICATION_HANDLE authentication_create(const AUTHENTICATION_CONFIG* config)
 499:Source\azure_iot_sdk\iothub_client\src/iothubtransport_amqp_cbs_auth.c **** {
 500:Source\azure_iot_sdk\iothub_client\src/iothubtransport_amqp_cbs_auth.c ****     AUTHENTICATION_HANDLE result;
 501:Source\azure_iot_sdk\iothub_client\src/iothubtransport_amqp_cbs_auth.c **** 
 502:Source\azure_iot_sdk\iothub_client\src/iothubtransport_amqp_cbs_auth.c ****     // Codes_SRS_IOTHUBTRANSPORT_AMQP_AUTH_09_001: [If parameter `config` is NULL, authentication_c
 503:Source\azure_iot_sdk\iothub_client\src/iothubtransport_amqp_cbs_auth.c ****     if (config == NULL)
 504:Source\azure_iot_sdk\iothub_client\src/iothubtransport_amqp_cbs_auth.c ****     {
 505:Source\azure_iot_sdk\iothub_client\src/iothubtransport_amqp_cbs_auth.c ****         result = NULL;
 506:Source\azure_iot_sdk\iothub_client\src/iothubtransport_amqp_cbs_auth.c ****         LogError("authentication_create failed (config is NULL)");
 507:Source\azure_iot_sdk\iothub_client\src/iothubtransport_amqp_cbs_auth.c ****     }
 508:Source\azure_iot_sdk\iothub_client\src/iothubtransport_amqp_cbs_auth.c ****     else if (config->authorization_module == NULL)
 509:Source\azure_iot_sdk\iothub_client\src/iothubtransport_amqp_cbs_auth.c ****     {
 510:Source\azure_iot_sdk\iothub_client\src/iothubtransport_amqp_cbs_auth.c ****         result = NULL;
 511:Source\azure_iot_sdk\iothub_client\src/iothubtransport_amqp_cbs_auth.c ****         LogError("authentication_create failed (config->authorization_module is NULL)");
 512:Source\azure_iot_sdk\iothub_client\src/iothubtransport_amqp_cbs_auth.c ****     }
 513:Source\azure_iot_sdk\iothub_client\src/iothubtransport_amqp_cbs_auth.c ****     // Codes_SRS_IOTHUBTRANSPORT_AMQP_AUTH_09_004: [If `config->iothub_host_fqdn` is NULL, authenti
 514:Source\azure_iot_sdk\iothub_client\src/iothubtransport_amqp_cbs_auth.c ****     else if (config->iothub_host_fqdn == NULL)
 515:Source\azure_iot_sdk\iothub_client\src/iothubtransport_amqp_cbs_auth.c ****     {
 516:Source\azure_iot_sdk\iothub_client\src/iothubtransport_amqp_cbs_auth.c ****         result = NULL;
 517:Source\azure_iot_sdk\iothub_client\src/iothubtransport_amqp_cbs_auth.c ****         LogError("authentication_create failed (config->iothub_host_fqdn is NULL)");
 518:Source\azure_iot_sdk\iothub_client\src/iothubtransport_amqp_cbs_auth.c ****     }
 519:Source\azure_iot_sdk\iothub_client\src/iothubtransport_amqp_cbs_auth.c ****     // Codes_SRS_IOTHUBTRANSPORT_AMQP_AUTH_09_005: [If `config->on_state_changed_callback` is NULL,
 520:Source\azure_iot_sdk\iothub_client\src/iothubtransport_amqp_cbs_auth.c ****     else if (config->on_state_changed_callback == NULL)
 521:Source\azure_iot_sdk\iothub_client\src/iothubtransport_amqp_cbs_auth.c ****     {
 522:Source\azure_iot_sdk\iothub_client\src/iothubtransport_amqp_cbs_auth.c ****         result = NULL;
 523:Source\azure_iot_sdk\iothub_client\src/iothubtransport_amqp_cbs_auth.c ****         LogError("authentication_create failed (config->on_state_changed_callback is NULL)");
 524:Source\azure_iot_sdk\iothub_client\src/iothubtransport_amqp_cbs_auth.c ****     }
 525:Source\azure_iot_sdk\iothub_client\src/iothubtransport_amqp_cbs_auth.c ****     else
 526:Source\azure_iot_sdk\iothub_client\src/iothubtransport_amqp_cbs_auth.c ****     {
 527:Source\azure_iot_sdk\iothub_client\src/iothubtransport_amqp_cbs_auth.c ****         AUTHENTICATION_INSTANCE* instance;
 528:Source\azure_iot_sdk\iothub_client\src/iothubtransport_amqp_cbs_auth.c **** 
 529:Source\azure_iot_sdk\iothub_client\src/iothubtransport_amqp_cbs_auth.c ****         // Codes_SRS_IOTHUBTRANSPORT_AMQP_AUTH_09_006: [authentication_create() shall allocate memo
 530:Source\azure_iot_sdk\iothub_client\src/iothubtransport_amqp_cbs_auth.c ****         if ((instance = (AUTHENTICATION_INSTANCE*)malloc(sizeof(AUTHENTICATION_INSTANCE))) == NULL)
 531:Source\azure_iot_sdk\iothub_client\src/iothubtransport_amqp_cbs_auth.c ****         {
 532:Source\azure_iot_sdk\iothub_client\src/iothubtransport_amqp_cbs_auth.c ****             // Codes_SRS_IOTHUBTRANSPORT_AMQP_AUTH_09_007: [If malloc() fails, authentication_creat
ARM GAS  C:\Users\Phuong\AppData\Local\Temp\ccPPbPWA.s 			page 35


 533:Source\azure_iot_sdk\iothub_client\src/iothubtransport_amqp_cbs_auth.c ****             result = NULL;
 534:Source\azure_iot_sdk\iothub_client\src/iothubtransport_amqp_cbs_auth.c ****             LogError("authentication_create failed (malloc failed)");
 535:Source\azure_iot_sdk\iothub_client\src/iothubtransport_amqp_cbs_auth.c ****         }
 536:Source\azure_iot_sdk\iothub_client\src/iothubtransport_amqp_cbs_auth.c ****         else
 537:Source\azure_iot_sdk\iothub_client\src/iothubtransport_amqp_cbs_auth.c ****         {
 538:Source\azure_iot_sdk\iothub_client\src/iothubtransport_amqp_cbs_auth.c ****             // Codes_SRS_IOTHUBTRANSPORT_AMQP_AUTH_09_123: [authentication_create() shall initializ
 539:Source\azure_iot_sdk\iothub_client\src/iothubtransport_amqp_cbs_auth.c ****             memset(instance, 0, sizeof(AUTHENTICATION_INSTANCE));
 540:Source\azure_iot_sdk\iothub_client\src/iothubtransport_amqp_cbs_auth.c **** 
 541:Source\azure_iot_sdk\iothub_client\src/iothubtransport_amqp_cbs_auth.c ****             // Codes_SRS_IOTHUBTRANSPORT_AMQP_AUTH_09_008: [authentication_create() shall save the 
 542:Source\azure_iot_sdk\iothub_client\src/iothubtransport_amqp_cbs_auth.c ****             if ((instance->device_id = IoTHubClient_Auth_Get_DeviceId(config->authorization_module)
 543:Source\azure_iot_sdk\iothub_client\src/iothubtransport_amqp_cbs_auth.c ****             {
 544:Source\azure_iot_sdk\iothub_client\src/iothubtransport_amqp_cbs_auth.c ****                 // Codes_SRS_IOTHUBTRANSPORT_AMQP_AUTH_09_009: [If STRING_construct() fails, authen
 545:Source\azure_iot_sdk\iothub_client\src/iothubtransport_amqp_cbs_auth.c ****                 result = NULL;
 546:Source\azure_iot_sdk\iothub_client\src/iothubtransport_amqp_cbs_auth.c ****                 LogError("authentication_create failed (config->device_id could not be copied; STRI
 547:Source\azure_iot_sdk\iothub_client\src/iothubtransport_amqp_cbs_auth.c ****             }
 548:Source\azure_iot_sdk\iothub_client\src/iothubtransport_amqp_cbs_auth.c ****             // Codes_SRS_IOTHUBTRANSPORT_AMQP_AUTH_09_016: [If provided, authentication_create() sh
 549:Source\azure_iot_sdk\iothub_client\src/iothubtransport_amqp_cbs_auth.c ****             else if ((instance->iothub_host_fqdn = STRING_construct(config->iothub_host_fqdn)) == N
 550:Source\azure_iot_sdk\iothub_client\src/iothubtransport_amqp_cbs_auth.c ****             {
 551:Source\azure_iot_sdk\iothub_client\src/iothubtransport_amqp_cbs_auth.c ****                 // Codes_SRS_IOTHUBTRANSPORT_AMQP_AUTH_09_017: [If STRING_clone() fails to copy `co
 552:Source\azure_iot_sdk\iothub_client\src/iothubtransport_amqp_cbs_auth.c ****                 result = NULL;
 553:Source\azure_iot_sdk\iothub_client\src/iothubtransport_amqp_cbs_auth.c ****                 LogError("authentication_create failed (config->iothub_host_fqdn could not be copie
 554:Source\azure_iot_sdk\iothub_client\src/iothubtransport_amqp_cbs_auth.c ****             }
 555:Source\azure_iot_sdk\iothub_client\src/iothubtransport_amqp_cbs_auth.c ****             else
 556:Source\azure_iot_sdk\iothub_client\src/iothubtransport_amqp_cbs_auth.c ****             {
 557:Source\azure_iot_sdk\iothub_client\src/iothubtransport_amqp_cbs_auth.c ****                 instance->state = AUTHENTICATION_STATE_STOPPED;
 558:Source\azure_iot_sdk\iothub_client\src/iothubtransport_amqp_cbs_auth.c **** 
 559:Source\azure_iot_sdk\iothub_client\src/iothubtransport_amqp_cbs_auth.c ****                 instance->module_id = IoTHubClient_Auth_Get_ModuleId(config->authorization_module);
 560:Source\azure_iot_sdk\iothub_client\src/iothubtransport_amqp_cbs_auth.c **** 
 561:Source\azure_iot_sdk\iothub_client\src/iothubtransport_amqp_cbs_auth.c ****                 // Codes_SRS_IOTHUBTRANSPORT_AMQP_AUTH_09_018: [authentication_create() shall save 
 562:Source\azure_iot_sdk\iothub_client\src/iothubtransport_amqp_cbs_auth.c ****                 instance->on_state_changed_callback = config->on_state_changed_callback;
 563:Source\azure_iot_sdk\iothub_client\src/iothubtransport_amqp_cbs_auth.c ****                 instance->on_state_changed_callback_context = config->on_state_changed_callback_con
 564:Source\azure_iot_sdk\iothub_client\src/iothubtransport_amqp_cbs_auth.c **** 
 565:Source\azure_iot_sdk\iothub_client\src/iothubtransport_amqp_cbs_auth.c ****                 // Codes_SRS_IOTHUBTRANSPORT_AMQP_AUTH_09_019: [authentication_create() shall save 
 566:Source\azure_iot_sdk\iothub_client\src/iothubtransport_amqp_cbs_auth.c ****                 instance->on_error_callback = config->on_error_callback;
 567:Source\azure_iot_sdk\iothub_client\src/iothubtransport_amqp_cbs_auth.c ****                 instance->on_error_callback_context = config->on_error_callback_context;
 568:Source\azure_iot_sdk\iothub_client\src/iothubtransport_amqp_cbs_auth.c **** 
 569:Source\azure_iot_sdk\iothub_client\src/iothubtransport_amqp_cbs_auth.c ****                 // Codes_SRS_IOTHUBTRANSPORT_AMQP_AUTH_09_021: [authentication_create() shall set `
 570:Source\azure_iot_sdk\iothub_client\src/iothubtransport_amqp_cbs_auth.c ****                 instance->cbs_request_timeout_secs = DEFAULT_CBS_REQUEST_TIMEOUT_SECS;
 571:Source\azure_iot_sdk\iothub_client\src/iothubtransport_amqp_cbs_auth.c ****                 // Codes_SRS_IOTHUBTRANSPORT_AMQP_AUTH_09_022: [authentication_create() shall set `
 572:Source\azure_iot_sdk\iothub_client\src/iothubtransport_amqp_cbs_auth.c ****                 instance->sas_token_lifetime_secs = DEFAULT_SAS_TOKEN_LIFETIME_SECS;
 573:Source\azure_iot_sdk\iothub_client\src/iothubtransport_amqp_cbs_auth.c ****                 // Codes_SRS_IOTHUBTRANSPORT_AMQP_AUTH_09_023: [authentication_create() shall set `
 574:Source\azure_iot_sdk\iothub_client\src/iothubtransport_amqp_cbs_auth.c ****                 instance->sas_token_refresh_time_secs = DEFAULT_SAS_TOKEN_REFRESH_TIME_SECS;
 575:Source\azure_iot_sdk\iothub_client\src/iothubtransport_amqp_cbs_auth.c **** 
 576:Source\azure_iot_sdk\iothub_client\src/iothubtransport_amqp_cbs_auth.c ****                 instance->authorization_module = config->authorization_module;
 577:Source\azure_iot_sdk\iothub_client\src/iothubtransport_amqp_cbs_auth.c **** 
 578:Source\azure_iot_sdk\iothub_client\src/iothubtransport_amqp_cbs_auth.c ****                 // Codes_SRS_IOTHUBTRANSPORT_AMQP_AUTH_09_024: [If no failure occurs, authenticatio
 579:Source\azure_iot_sdk\iothub_client\src/iothubtransport_amqp_cbs_auth.c ****                 result = (AUTHENTICATION_HANDLE)instance;
 580:Source\azure_iot_sdk\iothub_client\src/iothubtransport_amqp_cbs_auth.c ****             }
 581:Source\azure_iot_sdk\iothub_client\src/iothubtransport_amqp_cbs_auth.c **** 
 582:Source\azure_iot_sdk\iothub_client\src/iothubtransport_amqp_cbs_auth.c ****             // Codes_SRS_IOTHUBTRANSPORT_AMQP_AUTH_09_020: [If any failure occurs, authentication_c
 583:Source\azure_iot_sdk\iothub_client\src/iothubtransport_amqp_cbs_auth.c ****             if (result == NULL)
 584:Source\azure_iot_sdk\iothub_client\src/iothubtransport_amqp_cbs_auth.c ****             {
 585:Source\azure_iot_sdk\iothub_client\src/iothubtransport_amqp_cbs_auth.c ****                 authentication_destroy((AUTHENTICATION_HANDLE)instance);
 586:Source\azure_iot_sdk\iothub_client\src/iothubtransport_amqp_cbs_auth.c ****             }
 587:Source\azure_iot_sdk\iothub_client\src/iothubtransport_amqp_cbs_auth.c ****         }
 588:Source\azure_iot_sdk\iothub_client\src/iothubtransport_amqp_cbs_auth.c ****     }
 589:Source\azure_iot_sdk\iothub_client\src/iothubtransport_amqp_cbs_auth.c **** 
ARM GAS  C:\Users\Phuong\AppData\Local\Temp\ccPPbPWA.s 			page 36


 590:Source\azure_iot_sdk\iothub_client\src/iothubtransport_amqp_cbs_auth.c ****     return result;
 591:Source\azure_iot_sdk\iothub_client\src/iothubtransport_amqp_cbs_auth.c **** }
 592:Source\azure_iot_sdk\iothub_client\src/iothubtransport_amqp_cbs_auth.c **** 
 593:Source\azure_iot_sdk\iothub_client\src/iothubtransport_amqp_cbs_auth.c **** void authentication_do_work(AUTHENTICATION_HANDLE authentication_handle)
 594:Source\azure_iot_sdk\iothub_client\src/iothubtransport_amqp_cbs_auth.c **** {
 595:Source\azure_iot_sdk\iothub_client\src/iothubtransport_amqp_cbs_auth.c ****     // Codes_SRS_IOTHUBTRANSPORT_AMQP_AUTH_09_036: [If authentication_handle is NULL, authenticatio
 596:Source\azure_iot_sdk\iothub_client\src/iothubtransport_amqp_cbs_auth.c ****     if (authentication_handle == NULL)
 597:Source\azure_iot_sdk\iothub_client\src/iothubtransport_amqp_cbs_auth.c ****     {
 598:Source\azure_iot_sdk\iothub_client\src/iothubtransport_amqp_cbs_auth.c ****         LogError("authentication_do_work failed (authentication_handle is NULL)");
 599:Source\azure_iot_sdk\iothub_client\src/iothubtransport_amqp_cbs_auth.c ****     }
 600:Source\azure_iot_sdk\iothub_client\src/iothubtransport_amqp_cbs_auth.c ****     else
 601:Source\azure_iot_sdk\iothub_client\src/iothubtransport_amqp_cbs_auth.c ****     {
 602:Source\azure_iot_sdk\iothub_client\src/iothubtransport_amqp_cbs_auth.c ****         AUTHENTICATION_INSTANCE* instance = (AUTHENTICATION_INSTANCE*)authentication_handle;
 603:Source\azure_iot_sdk\iothub_client\src/iothubtransport_amqp_cbs_auth.c **** 
 604:Source\azure_iot_sdk\iothub_client\src/iothubtransport_amqp_cbs_auth.c ****         // Codes_SRS_IOTHUBTRANSPORT_AMQP_AUTH_09_038: [If `instance->is_cbs_put_token_in_progress`
 605:Source\azure_iot_sdk\iothub_client\src/iothubtransport_amqp_cbs_auth.c ****         if (instance->is_cbs_put_token_in_progress)
 606:Source\azure_iot_sdk\iothub_client\src/iothubtransport_amqp_cbs_auth.c ****         {
 607:Source\azure_iot_sdk\iothub_client\src/iothubtransport_amqp_cbs_auth.c ****             // Codes_SRS_IOTHUBTRANSPORT_AMQP_AUTH_09_084: [If no timeout has occurred, authenticat
 608:Source\azure_iot_sdk\iothub_client\src/iothubtransport_amqp_cbs_auth.c **** 
 609:Source\azure_iot_sdk\iothub_client\src/iothubtransport_amqp_cbs_auth.c ****             bool is_timed_out;
 610:Source\azure_iot_sdk\iothub_client\src/iothubtransport_amqp_cbs_auth.c ****             if (verify_cbs_put_token_timeout(instance, &is_timed_out) == RESULT_OK && is_timed_out)
 611:Source\azure_iot_sdk\iothub_client\src/iothubtransport_amqp_cbs_auth.c ****             {
 612:Source\azure_iot_sdk\iothub_client\src/iothubtransport_amqp_cbs_auth.c ****                 // Codes_SRS_IOTHUBTRANSPORT_AMQP_AUTH_09_085: [`instance->is_cbs_put_token_in_prog
 613:Source\azure_iot_sdk\iothub_client\src/iothubtransport_amqp_cbs_auth.c ****                 instance->is_cbs_put_token_in_progress = false;
 614:Source\azure_iot_sdk\iothub_client\src/iothubtransport_amqp_cbs_auth.c **** 
 615:Source\azure_iot_sdk\iothub_client\src/iothubtransport_amqp_cbs_auth.c ****                 // Codes_SRS_IOTHUBTRANSPORT_AMQP_AUTH_09_086: [`instance->state` shall be updated 
 616:Source\azure_iot_sdk\iothub_client\src/iothubtransport_amqp_cbs_auth.c ****                 update_state(instance, AUTHENTICATION_STATE_ERROR);
 617:Source\azure_iot_sdk\iothub_client\src/iothubtransport_amqp_cbs_auth.c **** 
 618:Source\azure_iot_sdk\iothub_client\src/iothubtransport_amqp_cbs_auth.c ****                 if (instance->is_sas_token_refresh_in_progress)
 619:Source\azure_iot_sdk\iothub_client\src/iothubtransport_amqp_cbs_auth.c ****                 {
 620:Source\azure_iot_sdk\iothub_client\src/iothubtransport_amqp_cbs_auth.c ****                     // Codes_SRS_IOTHUBTRANSPORT_AMQP_AUTH_09_087: [If `instance->is_sas_token_refr
 621:Source\azure_iot_sdk\iothub_client\src/iothubtransport_amqp_cbs_auth.c ****                     notify_error(instance, AUTHENTICATION_ERROR_SAS_REFRESH_TIMEOUT);
 622:Source\azure_iot_sdk\iothub_client\src/iothubtransport_amqp_cbs_auth.c ****                 }
 623:Source\azure_iot_sdk\iothub_client\src/iothubtransport_amqp_cbs_auth.c ****                 else
 624:Source\azure_iot_sdk\iothub_client\src/iothubtransport_amqp_cbs_auth.c ****                 {
 625:Source\azure_iot_sdk\iothub_client\src/iothubtransport_amqp_cbs_auth.c ****                     // Codes_SRS_IOTHUBTRANSPORT_AMQP_AUTH_09_088: [If `instance->is_sas_token_refr
 626:Source\azure_iot_sdk\iothub_client\src/iothubtransport_amqp_cbs_auth.c ****                     notify_error(instance, AUTHENTICATION_ERROR_AUTH_TIMEOUT);
 627:Source\azure_iot_sdk\iothub_client\src/iothubtransport_amqp_cbs_auth.c ****                 }
 628:Source\azure_iot_sdk\iothub_client\src/iothubtransport_amqp_cbs_auth.c **** 
 629:Source\azure_iot_sdk\iothub_client\src/iothubtransport_amqp_cbs_auth.c ****                 // Codes_SRS_IOTHUBTRANSPORT_AMQP_AUTH_09_089: [`instance->is_sas_token_refresh_in_
 630:Source\azure_iot_sdk\iothub_client\src/iothubtransport_amqp_cbs_auth.c ****                 instance->is_sas_token_refresh_in_progress = false;
 631:Source\azure_iot_sdk\iothub_client\src/iothubtransport_amqp_cbs_auth.c ****             }
 632:Source\azure_iot_sdk\iothub_client\src/iothubtransport_amqp_cbs_auth.c ****         }
 633:Source\azure_iot_sdk\iothub_client\src/iothubtransport_amqp_cbs_auth.c ****         else if (instance->state == AUTHENTICATION_STATE_STARTED)
 634:Source\azure_iot_sdk\iothub_client\src/iothubtransport_amqp_cbs_auth.c ****         {
 635:Source\azure_iot_sdk\iothub_client\src/iothubtransport_amqp_cbs_auth.c ****             // Codes_SRS_IOTHUBTRANSPORT_AMQP_AUTH_09_040: [If `instance->state` is AUTHENTICATION_
 636:Source\azure_iot_sdk\iothub_client\src/iothubtransport_amqp_cbs_auth.c ****             if (IoTHubClient_Auth_Get_Credential_Type(instance->authorization_module) == IOTHUB_CRE
 637:Source\azure_iot_sdk\iothub_client\src/iothubtransport_amqp_cbs_auth.c ****             {
 638:Source\azure_iot_sdk\iothub_client\src/iothubtransport_amqp_cbs_auth.c ****                 // Codes_SRS_IOTHUBTRANSPORT_AMQP_AUTH_09_039: [If `instance->state` is AUTHENTICAT
 639:Source\azure_iot_sdk\iothub_client\src/iothubtransport_amqp_cbs_auth.c ****                 // Codes_SRS_IOTHUBTRANSPORT_AMQP_AUTH_09_065: [The SAS token shall be refreshed if
 640:Source\azure_iot_sdk\iothub_client\src/iothubtransport_amqp_cbs_auth.c ****                 // Codes_SRS_IOTHUBTRANSPORT_AMQP_AUTH_09_066: [If SAS token does not need to be re
 641:Source\azure_iot_sdk\iothub_client\src/iothubtransport_amqp_cbs_auth.c ****                 bool is_timed_out;
 642:Source\azure_iot_sdk\iothub_client\src/iothubtransport_amqp_cbs_auth.c ****                 if (verify_sas_token_refresh_timeout(instance, &is_timed_out) == RESULT_OK && is_ti
 643:Source\azure_iot_sdk\iothub_client\src/iothubtransport_amqp_cbs_auth.c ****                 {
 644:Source\azure_iot_sdk\iothub_client\src/iothubtransport_amqp_cbs_auth.c ****                     // Codes_SRS_IOTHUBTRANSPORT_AMQP_AUTH_09_119: [authentication_do_work() shall 
 645:Source\azure_iot_sdk\iothub_client\src/iothubtransport_amqp_cbs_auth.c ****                     instance->is_sas_token_refresh_in_progress = true;
 646:Source\azure_iot_sdk\iothub_client\src/iothubtransport_amqp_cbs_auth.c **** 
ARM GAS  C:\Users\Phuong\AppData\Local\Temp\ccPPbPWA.s 			page 37


 647:Source\azure_iot_sdk\iothub_client\src/iothubtransport_amqp_cbs_auth.c ****                     // Codes_SRS_IOTHUBTRANSPORT_AMQP_AUTH_09_067: [authentication_do_work() shall 
 648:Source\azure_iot_sdk\iothub_client\src/iothubtransport_amqp_cbs_auth.c ****                     // Codes_SRS_IOTHUBTRANSPORT_AMQP_AUTH_09_069: [If using `instance->device_prim
 649:Source\azure_iot_sdk\iothub_client\src/iothubtransport_amqp_cbs_auth.c ****                     // Codes_SRS_IOTHUBTRANSPORT_AMQP_AUTH_09_068: [If using `instance->device_prim
 650:Source\azure_iot_sdk\iothub_client\src/iothubtransport_amqp_cbs_auth.c ****                     if (create_and_put_SAS_token_to_cbs(instance) != RESULT_OK)
 651:Source\azure_iot_sdk\iothub_client\src/iothubtransport_amqp_cbs_auth.c ****                     {
 652:Source\azure_iot_sdk\iothub_client\src/iothubtransport_amqp_cbs_auth.c ****                         LogError("Failed refreshing SAS token '%'", instance->device_id);
 653:Source\azure_iot_sdk\iothub_client\src/iothubtransport_amqp_cbs_auth.c ****                     }
 654:Source\azure_iot_sdk\iothub_client\src/iothubtransport_amqp_cbs_auth.c **** 
 655:Source\azure_iot_sdk\iothub_client\src/iothubtransport_amqp_cbs_auth.c ****                     if (!instance->is_cbs_put_token_in_progress)
 656:Source\azure_iot_sdk\iothub_client\src/iothubtransport_amqp_cbs_auth.c ****                     {
 657:Source\azure_iot_sdk\iothub_client\src/iothubtransport_amqp_cbs_auth.c ****                         // Codes_SRS_IOTHUBTRANSPORT_AMQP_AUTH_09_120: [If cbs_put_token() fails, `
 658:Source\azure_iot_sdk\iothub_client\src/iothubtransport_amqp_cbs_auth.c ****                         instance->is_sas_token_refresh_in_progress = false;
 659:Source\azure_iot_sdk\iothub_client\src/iothubtransport_amqp_cbs_auth.c **** 
 660:Source\azure_iot_sdk\iothub_client\src/iothubtransport_amqp_cbs_auth.c ****                         // Codes_SRS_IOTHUBTRANSPORT_AMQP_AUTH_09_079: [If cbs_put_token() fails, `
 661:Source\azure_iot_sdk\iothub_client\src/iothubtransport_amqp_cbs_auth.c ****                         update_state(instance, AUTHENTICATION_STATE_ERROR);
 662:Source\azure_iot_sdk\iothub_client\src/iothubtransport_amqp_cbs_auth.c **** 
 663:Source\azure_iot_sdk\iothub_client\src/iothubtransport_amqp_cbs_auth.c ****                         // Codes_SRS_IOTHUBTRANSPORT_AMQP_AUTH_09_080: [If cbs_put_token() fails, `
 664:Source\azure_iot_sdk\iothub_client\src/iothubtransport_amqp_cbs_auth.c ****                         notify_error(instance, AUTHENTICATION_ERROR_SAS_REFRESH_FAILED);
 665:Source\azure_iot_sdk\iothub_client\src/iothubtransport_amqp_cbs_auth.c ****                     }
 666:Source\azure_iot_sdk\iothub_client\src/iothubtransport_amqp_cbs_auth.c ****                 }
 667:Source\azure_iot_sdk\iothub_client\src/iothubtransport_amqp_cbs_auth.c ****             }
 668:Source\azure_iot_sdk\iothub_client\src/iothubtransport_amqp_cbs_auth.c ****         }
 669:Source\azure_iot_sdk\iothub_client\src/iothubtransport_amqp_cbs_auth.c ****         else if (instance->state == AUTHENTICATION_STATE_STARTING)
 670:Source\azure_iot_sdk\iothub_client\src/iothubtransport_amqp_cbs_auth.c ****         {
 671:Source\azure_iot_sdk\iothub_client\src/iothubtransport_amqp_cbs_auth.c ****             if (create_and_put_SAS_token_to_cbs(instance) != RESULT_OK)
 672:Source\azure_iot_sdk\iothub_client\src/iothubtransport_amqp_cbs_auth.c ****             {
 673:Source\azure_iot_sdk\iothub_client\src/iothubtransport_amqp_cbs_auth.c ****                 LogError("Failed authenticating device '%s' using device keys", instance->device_id
 674:Source\azure_iot_sdk\iothub_client\src/iothubtransport_amqp_cbs_auth.c ****             }
 675:Source\azure_iot_sdk\iothub_client\src/iothubtransport_amqp_cbs_auth.c **** 
 676:Source\azure_iot_sdk\iothub_client\src/iothubtransport_amqp_cbs_auth.c ****             if (!instance->is_cbs_put_token_in_progress)
 677:Source\azure_iot_sdk\iothub_client\src/iothubtransport_amqp_cbs_auth.c ****             {
 678:Source\azure_iot_sdk\iothub_client\src/iothubtransport_amqp_cbs_auth.c ****                 // Codes_SRS_IOTHUBTRANSPORT_AMQP_AUTH_09_061: [If cbs_put_token() fails, `instance
 679:Source\azure_iot_sdk\iothub_client\src/iothubtransport_amqp_cbs_auth.c ****                 // Codes_SRS_IOTHUBTRANSPORT_AMQP_AUTH_09_121: [If cbs_put_token() fails, `instance
 680:Source\azure_iot_sdk\iothub_client\src/iothubtransport_amqp_cbs_auth.c ****                 update_state(instance, AUTHENTICATION_STATE_ERROR);
 681:Source\azure_iot_sdk\iothub_client\src/iothubtransport_amqp_cbs_auth.c **** 
 682:Source\azure_iot_sdk\iothub_client\src/iothubtransport_amqp_cbs_auth.c ****                 // Codes_SRS_IOTHUBTRANSPORT_AMQP_AUTH_09_062: [If cbs_put_token() fails, `instance
 683:Source\azure_iot_sdk\iothub_client\src/iothubtransport_amqp_cbs_auth.c ****                 // Codes_SRS_IOTHUBTRANSPORT_AMQP_AUTH_09_122: [If cbs_put_token() fails, `instance
 684:Source\azure_iot_sdk\iothub_client\src/iothubtransport_amqp_cbs_auth.c ****                 notify_error(instance, AUTHENTICATION_ERROR_AUTH_FAILED);
 685:Source\azure_iot_sdk\iothub_client\src/iothubtransport_amqp_cbs_auth.c ****             }
 686:Source\azure_iot_sdk\iothub_client\src/iothubtransport_amqp_cbs_auth.c ****         }
 687:Source\azure_iot_sdk\iothub_client\src/iothubtransport_amqp_cbs_auth.c ****         else
 688:Source\azure_iot_sdk\iothub_client\src/iothubtransport_amqp_cbs_auth.c ****         {
 689:Source\azure_iot_sdk\iothub_client\src/iothubtransport_amqp_cbs_auth.c ****             // Codes_SRS_IOTHUBTRANSPORT_AMQP_AUTH_09_037: [If `instance->state` is not AUTHENTICAT
 690:Source\azure_iot_sdk\iothub_client\src/iothubtransport_amqp_cbs_auth.c ****             // Nothing to be done.
 691:Source\azure_iot_sdk\iothub_client\src/iothubtransport_amqp_cbs_auth.c ****         }
 692:Source\azure_iot_sdk\iothub_client\src/iothubtransport_amqp_cbs_auth.c ****     }
 693:Source\azure_iot_sdk\iothub_client\src/iothubtransport_amqp_cbs_auth.c **** }
 694:Source\azure_iot_sdk\iothub_client\src/iothubtransport_amqp_cbs_auth.c **** 
 695:Source\azure_iot_sdk\iothub_client\src/iothubtransport_amqp_cbs_auth.c **** int authentication_set_option(AUTHENTICATION_HANDLE authentication_handle, const char* name, void* 
 696:Source\azure_iot_sdk\iothub_client\src/iothubtransport_amqp_cbs_auth.c **** {
 1343              		.loc 1 696 0
 1344              		.cfi_startproc
 1345              		@ args = 0, pretend = 0, frame = 0
 1346              		@ frame_needed = 0, uses_anonymous_args = 0
 1347              	.LVL219:
 1348 0000 F0B5     		push	{r4, r5, r6, r7, lr}
 1349              		.cfi_def_cfa_offset 20
ARM GAS  C:\Users\Phuong\AppData\Local\Temp\ccPPbPWA.s 			page 38


 1350              		.cfi_offset 4, -20
 1351              		.cfi_offset 5, -16
 1352              		.cfi_offset 6, -12
 1353              		.cfi_offset 7, -8
 1354              		.cfi_offset 14, -4
 1355 0002 87B0     		sub	sp, sp, #28
 1356              		.cfi_def_cfa_offset 48
 1357 0004 0500     		movs	r5, r0
 1358 0006 0C00     		movs	r4, r1
 1359 0008 1600     		movs	r6, r2
 697:Source\azure_iot_sdk\iothub_client\src/iothubtransport_amqp_cbs_auth.c ****     int result;
 698:Source\azure_iot_sdk\iothub_client\src/iothubtransport_amqp_cbs_auth.c **** 
 699:Source\azure_iot_sdk\iothub_client\src/iothubtransport_amqp_cbs_auth.c ****     // Codes_SRS_IOTHUBTRANSPORT_AMQP_AUTH_09_097: [If `authentication_handle` or `name` or `value`
 700:Source\azure_iot_sdk\iothub_client\src/iothubtransport_amqp_cbs_auth.c ****     if (authentication_handle == NULL || name == NULL || value == NULL)
 1360              		.loc 1 700 0
 1361 000a 0028     		cmp	r0, #0
 1362 000c 03D0     		beq	.L75
 1363              		.loc 1 700 0 is_stmt 0 discriminator 1
 1364 000e 0029     		cmp	r1, #0
 1365 0010 01D0     		beq	.L75
 1366              		.loc 1 700 0 discriminator 2
 1367 0012 002A     		cmp	r2, #0
 1368 0014 13D1     		bne	.L76
 1369              	.L75:
 1370              	.LBB30:
 701:Source\azure_iot_sdk\iothub_client\src/iothubtransport_amqp_cbs_auth.c ****     {
 702:Source\azure_iot_sdk\iothub_client\src/iothubtransport_amqp_cbs_auth.c ****         LogError("authentication_set_option failed (one of the followin are NULL: authentication_ha
 1371              		.loc 1 702 0 is_stmt 1 discriminator 3
 1372 0016 FFF7FEFF 		bl	xlogging_get_log_function
 1373              	.LVL220:
 1374 001a 071E     		subs	r7, r0, #0
 1375              	.LVL221:
 1376 001c 56D0     		beq	.L82
 1377              		.loc 1 702 0 is_stmt 0 discriminator 4
 1378 001e 0496     		str	r6, [sp, #16]
 1379 0020 0394     		str	r4, [sp, #12]
 1380 0022 0295     		str	r5, [sp, #8]
 1381 0024 2E4B     		ldr	r3, .L86
 1382 0026 0193     		str	r3, [sp, #4]
 1383 0028 0123     		movs	r3, #1
 1384 002a 0093     		str	r3, [sp]
 1385 002c 2D4B     		ldr	r3, .L86+4
 1386 002e 2E4A     		ldr	r2, .L86+8
 1387 0030 5C32     		adds	r2, r2, #92
 1388 0032 2E49     		ldr	r1, .L86+12
 1389 0034 0020     		movs	r0, #0
 1390              	.LVL222:
 1391 0036 B847     		blx	r7
 1392              	.LVL223:
 1393              	.LBE30:
 703:Source\azure_iot_sdk\iothub_client\src/iothubtransport_amqp_cbs_auth.c ****             authentication_handle, name, value);
 704:Source\azure_iot_sdk\iothub_client\src/iothubtransport_amqp_cbs_auth.c ****         result = __FAILURE__;
 1394              		.loc 1 704 0 is_stmt 1 discriminator 4
 1395 0038 B020     		movs	r0, #176
 1396 003a 8000     		lsls	r0, r0, #2
 1397 003c 4EE0     		b	.L77
 1398              	.LVL224:
ARM GAS  C:\Users\Phuong\AppData\Local\Temp\ccPPbPWA.s 			page 39


 1399              	.L76:
 1400              	.LBB31:
 705:Source\azure_iot_sdk\iothub_client\src/iothubtransport_amqp_cbs_auth.c ****     }
 706:Source\azure_iot_sdk\iothub_client\src/iothubtransport_amqp_cbs_auth.c ****     else
 707:Source\azure_iot_sdk\iothub_client\src/iothubtransport_amqp_cbs_auth.c ****     {
 708:Source\azure_iot_sdk\iothub_client\src/iothubtransport_amqp_cbs_auth.c ****         AUTHENTICATION_INSTANCE* instance = (AUTHENTICATION_INSTANCE*)authentication_handle;
 709:Source\azure_iot_sdk\iothub_client\src/iothubtransport_amqp_cbs_auth.c **** 
 710:Source\azure_iot_sdk\iothub_client\src/iothubtransport_amqp_cbs_auth.c ****         // Codes_SRS_IOTHUBTRANSPORT_AMQP_AUTH_09_098: [If name matches AUTHENTICATION_OPTION_CBS_R
 711:Source\azure_iot_sdk\iothub_client\src/iothubtransport_amqp_cbs_auth.c ****         if (strcmp(AUTHENTICATION_OPTION_CBS_REQUEST_TIMEOUT_SECS, name) == 0)
 1401              		.loc 1 711 0
 1402 003e 2C48     		ldr	r0, .L86+16
 1403              	.LVL225:
 1404 0040 FFF7FEFF 		bl	strcmp
 1405              	.LVL226:
 1406 0044 0028     		cmp	r0, #0
 1407 0046 02D1     		bne	.L78
 712:Source\azure_iot_sdk\iothub_client\src/iothubtransport_amqp_cbs_auth.c ****         {
 713:Source\azure_iot_sdk\iothub_client\src/iothubtransport_amqp_cbs_auth.c ****             instance->cbs_request_timeout_secs = *((size_t*)value);
 1408              		.loc 1 713 0
 1409 0048 3368     		ldr	r3, [r6]
 1410 004a EB61     		str	r3, [r5, #28]
 1411              	.LVL227:
 1412 004c 46E0     		b	.L77
 1413              	.LVL228:
 1414              	.L78:
 714:Source\azure_iot_sdk\iothub_client\src/iothubtransport_amqp_cbs_auth.c ****             result = RESULT_OK;
 715:Source\azure_iot_sdk\iothub_client\src/iothubtransport_amqp_cbs_auth.c ****         }
 716:Source\azure_iot_sdk\iothub_client\src/iothubtransport_amqp_cbs_auth.c ****         // Codes_SRS_IOTHUBTRANSPORT_AMQP_AUTH_09_124: [If name matches AUTHENTICATION_OPTION_SAS_T
 717:Source\azure_iot_sdk\iothub_client\src/iothubtransport_amqp_cbs_auth.c ****         else if (strcmp(AUTHENTICATION_OPTION_SAS_TOKEN_REFRESH_TIME_SECS, name) == 0)
 1415              		.loc 1 717 0
 1416 004e 2100     		movs	r1, r4
 1417 0050 2848     		ldr	r0, .L86+20
 1418 0052 FFF7FEFF 		bl	strcmp
 1419              	.LVL229:
 1420 0056 0028     		cmp	r0, #0
 1421 0058 02D1     		bne	.L79
 718:Source\azure_iot_sdk\iothub_client\src/iothubtransport_amqp_cbs_auth.c ****         {
 719:Source\azure_iot_sdk\iothub_client\src/iothubtransport_amqp_cbs_auth.c ****             instance->sas_token_refresh_time_secs = *((size_t*)value);
 1422              		.loc 1 719 0
 1423 005a 3368     		ldr	r3, [r6]
 1424 005c 6B62     		str	r3, [r5, #36]
 1425              	.LVL230:
 1426 005e 3DE0     		b	.L77
 1427              	.LVL231:
 1428              	.L79:
 720:Source\azure_iot_sdk\iothub_client\src/iothubtransport_amqp_cbs_auth.c ****             result = RESULT_OK;
 721:Source\azure_iot_sdk\iothub_client\src/iothubtransport_amqp_cbs_auth.c ****         }
 722:Source\azure_iot_sdk\iothub_client\src/iothubtransport_amqp_cbs_auth.c ****         // Codes_SRS_IOTHUBTRANSPORT_AMQP_AUTH_09_125: [If name matches AUTHENTICATION_OPTION_SAS_T
 723:Source\azure_iot_sdk\iothub_client\src/iothubtransport_amqp_cbs_auth.c ****         else if (strcmp(AUTHENTICATION_OPTION_SAS_TOKEN_LIFETIME_SECS, name) == 0)
 1429              		.loc 1 723 0
 1430 0060 2100     		movs	r1, r4
 1431 0062 2548     		ldr	r0, .L86+24
 1432 0064 FFF7FEFF 		bl	strcmp
 1433              	.LVL232:
 1434 0068 0028     		cmp	r0, #0
 1435 006a 02D1     		bne	.L80
 724:Source\azure_iot_sdk\iothub_client\src/iothubtransport_amqp_cbs_auth.c ****         {
ARM GAS  C:\Users\Phuong\AppData\Local\Temp\ccPPbPWA.s 			page 40


 725:Source\azure_iot_sdk\iothub_client\src/iothubtransport_amqp_cbs_auth.c ****             instance->sas_token_lifetime_secs = *((size_t*)value);
 1436              		.loc 1 725 0
 1437 006c 3368     		ldr	r3, [r6]
 1438 006e 2B62     		str	r3, [r5, #32]
 1439              	.LVL233:
 1440 0070 34E0     		b	.L77
 1441              	.LVL234:
 1442              	.L80:
 726:Source\azure_iot_sdk\iothub_client\src/iothubtransport_amqp_cbs_auth.c ****             result = RESULT_OK;
 727:Source\azure_iot_sdk\iothub_client\src/iothubtransport_amqp_cbs_auth.c ****         }
 728:Source\azure_iot_sdk\iothub_client\src/iothubtransport_amqp_cbs_auth.c ****         else if (strcmp(AUTHENTICATION_OPTION_SAVED_OPTIONS, name) == 0)
 1443              		.loc 1 728 0
 1444 0072 2100     		movs	r1, r4
 1445 0074 2148     		ldr	r0, .L86+28
 1446 0076 FFF7FEFF 		bl	strcmp
 1447              	.LVL235:
 1448 007a 0028     		cmp	r0, #0
 1449 007c 15D1     		bne	.L81
 729:Source\azure_iot_sdk\iothub_client\src/iothubtransport_amqp_cbs_auth.c ****         {
 730:Source\azure_iot_sdk\iothub_client\src/iothubtransport_amqp_cbs_auth.c ****             // Codes_SRS_IOTHUBTRANSPORT_AMQP_AUTH_09_098: [If name matches AUTHENTICATION_OPTION_S
 731:Source\azure_iot_sdk\iothub_client\src/iothubtransport_amqp_cbs_auth.c ****             if (OptionHandler_FeedOptions((OPTIONHANDLER_HANDLE)value, authentication_handle) != OP
 1450              		.loc 1 731 0
 1451 007e 2900     		movs	r1, r5
 1452 0080 3000     		movs	r0, r6
 1453 0082 FFF7FEFF 		bl	OptionHandler_FeedOptions
 1454              	.LVL236:
 1455 0086 0028     		cmp	r0, #0
 1456 0088 23D0     		beq	.L83
 1457              	.LBB32:
 732:Source\azure_iot_sdk\iothub_client\src/iothubtransport_amqp_cbs_auth.c ****             {
 733:Source\azure_iot_sdk\iothub_client\src/iothubtransport_amqp_cbs_auth.c ****                 // Codes_SRS_IOTHUBTRANSPORT_AMQP_AUTH_09_126: [If OptionHandler_FeedOptions fails,
 734:Source\azure_iot_sdk\iothub_client\src/iothubtransport_amqp_cbs_auth.c ****                 LogError("authentication_set_option failed (OptionHandler_FeedOptions failed)");
 1458              		.loc 1 734 0 discriminator 3
 1459 008a FFF7FEFF 		bl	xlogging_get_log_function
 1460              	.LVL237:
 1461 008e 041E     		subs	r4, r0, #0
 1462              	.LVL238:
 1463 0090 21D0     		beq	.L84
 1464              		.loc 1 734 0 is_stmt 0 discriminator 4
 1465 0092 1B4B     		ldr	r3, .L86+32
 1466 0094 0193     		str	r3, [sp, #4]
 1467 0096 0123     		movs	r3, #1
 1468 0098 0093     		str	r3, [sp]
 1469 009a 1A4B     		ldr	r3, .L86+36
 1470 009c 124A     		ldr	r2, .L86+8
 1471 009e 5C32     		adds	r2, r2, #92
 1472 00a0 1249     		ldr	r1, .L86+12
 1473 00a2 0020     		movs	r0, #0
 1474              	.LVL239:
 1475 00a4 A047     		blx	r4
 1476              	.LVL240:
 1477              	.LBE32:
 735:Source\azure_iot_sdk\iothub_client\src/iothubtransport_amqp_cbs_auth.c ****                 result = __FAILURE__;
 1478              		.loc 1 735 0 is_stmt 1 discriminator 4
 1479 00a6 1848     		ldr	r0, .L86+40
 1480 00a8 18E0     		b	.L77
 1481              	.LVL241:
ARM GAS  C:\Users\Phuong\AppData\Local\Temp\ccPPbPWA.s 			page 41


 1482              	.L81:
 1483              	.LBB33:
 736:Source\azure_iot_sdk\iothub_client\src/iothubtransport_amqp_cbs_auth.c ****             }
 737:Source\azure_iot_sdk\iothub_client\src/iothubtransport_amqp_cbs_auth.c ****             else
 738:Source\azure_iot_sdk\iothub_client\src/iothubtransport_amqp_cbs_auth.c ****             {
 739:Source\azure_iot_sdk\iothub_client\src/iothubtransport_amqp_cbs_auth.c ****                 result = RESULT_OK;
 740:Source\azure_iot_sdk\iothub_client\src/iothubtransport_amqp_cbs_auth.c ****             }
 741:Source\azure_iot_sdk\iothub_client\src/iothubtransport_amqp_cbs_auth.c ****         }
 742:Source\azure_iot_sdk\iothub_client\src/iothubtransport_amqp_cbs_auth.c ****         else
 743:Source\azure_iot_sdk\iothub_client\src/iothubtransport_amqp_cbs_auth.c ****         {
 744:Source\azure_iot_sdk\iothub_client\src/iothubtransport_amqp_cbs_auth.c ****             // Codes_SRS_IOTHUBTRANSPORT_AMQP_AUTH_09_128: [If name does not match any supported op
 745:Source\azure_iot_sdk\iothub_client\src/iothubtransport_amqp_cbs_auth.c ****             LogError("authentication_set_option failed (option with name '%s' is not suppported)", 
 1484              		.loc 1 745 0 discriminator 3
 1485 00aa FFF7FEFF 		bl	xlogging_get_log_function
 1486              	.LVL242:
 1487 00ae 051E     		subs	r5, r0, #0
 1488              	.LVL243:
 1489 00b0 13D0     		beq	.L85
 1490              		.loc 1 745 0 is_stmt 0 discriminator 4
 1491 00b2 0294     		str	r4, [sp, #8]
 1492 00b4 154B     		ldr	r3, .L86+44
 1493 00b6 0193     		str	r3, [sp, #4]
 1494 00b8 0123     		movs	r3, #1
 1495 00ba 0093     		str	r3, [sp]
 1496 00bc 144B     		ldr	r3, .L86+48
 1497 00be 0A4A     		ldr	r2, .L86+8
 1498 00c0 5C32     		adds	r2, r2, #92
 1499 00c2 0A49     		ldr	r1, .L86+12
 1500 00c4 0020     		movs	r0, #0
 1501              	.LVL244:
 1502 00c6 A847     		blx	r5
 1503              	.LVL245:
 1504              	.LBE33:
 746:Source\azure_iot_sdk\iothub_client\src/iothubtransport_amqp_cbs_auth.c ****             result = __FAILURE__;
 1505              		.loc 1 746 0 is_stmt 1 discriminator 4
 1506 00c8 1248     		ldr	r0, .L86+52
 1507 00ca 07E0     		b	.L77
 1508              	.LVL246:
 1509              	.L82:
 1510              	.LBE31:
 704:Source\azure_iot_sdk\iothub_client\src/iothubtransport_amqp_cbs_auth.c ****     }
 1511              		.loc 1 704 0
 1512 00cc B020     		movs	r0, #176
 1513              	.LVL247:
 1514 00ce 8000     		lsls	r0, r0, #2
 1515 00d0 04E0     		b	.L77
 1516              	.LVL248:
 1517              	.L83:
 1518              	.LBB34:
 739:Source\azure_iot_sdk\iothub_client\src/iothubtransport_amqp_cbs_auth.c ****             }
 1519              		.loc 1 739 0
 1520 00d2 0020     		movs	r0, #0
 1521 00d4 02E0     		b	.L77
 1522              	.LVL249:
 1523              	.L84:
 735:Source\azure_iot_sdk\iothub_client\src/iothubtransport_amqp_cbs_auth.c ****             }
 1524              		.loc 1 735 0
ARM GAS  C:\Users\Phuong\AppData\Local\Temp\ccPPbPWA.s 			page 42


 1525 00d6 0C48     		ldr	r0, .L86+40
 1526              	.LVL250:
 1527 00d8 00E0     		b	.L77
 1528              	.LVL251:
 1529              	.L85:
 1530              		.loc 1 746 0
 1531 00da 0E48     		ldr	r0, .L86+52
 1532              	.LVL252:
 1533              	.L77:
 1534              	.LBE34:
 747:Source\azure_iot_sdk\iothub_client\src/iothubtransport_amqp_cbs_auth.c ****         }
 748:Source\azure_iot_sdk\iothub_client\src/iothubtransport_amqp_cbs_auth.c ****     }
 749:Source\azure_iot_sdk\iothub_client\src/iothubtransport_amqp_cbs_auth.c **** 
 750:Source\azure_iot_sdk\iothub_client\src/iothubtransport_amqp_cbs_auth.c ****     // Codes_SRS_IOTHUBTRANSPORT_AMQP_AUTH_09_099: [If no errors occur, authentication_set_option s
 751:Source\azure_iot_sdk\iothub_client\src/iothubtransport_amqp_cbs_auth.c ****     return result;
 752:Source\azure_iot_sdk\iothub_client\src/iothubtransport_amqp_cbs_auth.c **** }
 1535              		.loc 1 752 0
 1536 00dc 07B0     		add	sp, sp, #28
 1537              		@ sp needed
 1538              	.LVL253:
 1539 00de F0BD     		pop	{r4, r5, r6, r7, pc}
 1540              	.L87:
 1541              		.align	2
 1542              	.L86:
 1543 00e0 24050000 		.word	.LC68
 1544 00e4 BF020000 		.word	703
 1545 00e8 80000000 		.word	.LANCHOR1
 1546 00ec 00000000 		.word	.LC1
 1547 00f0 64040000 		.word	.LC56
 1548 00f4 80040000 		.word	.LC58
 1549 00f8 9C040000 		.word	.LC60
 1550 00fc B4040000 		.word	.LC62
 1551 0100 94050000 		.word	.LC74
 1552 0104 DE020000 		.word	734
 1553 0108 DF020000 		.word	735
 1554 010c D8050000 		.word	.LC76
 1555 0110 E9020000 		.word	745
 1556 0114 EA020000 		.word	746
 1557              		.cfi_endproc
 1558              	.LFE16:
 1559              		.size	authentication_set_option, .-authentication_set_option
 1560              		.section	.text.authentication_destroy_option,"ax",%progbits
 1561              		.align	2
 1562              		.code	16
 1563              		.thumb_func
 1564              		.type	authentication_destroy_option, %function
 1565              	authentication_destroy_option:
 1566              	.LFB10:
 376:Source\azure_iot_sdk\iothub_client\src/iothubtransport_amqp_cbs_auth.c ****     if (name == NULL)
 1567              		.loc 1 376 0
 1568              		.cfi_startproc
 1569              		@ args = 0, pretend = 0, frame = 0
 1570              		@ frame_needed = 0, uses_anonymous_args = 0
 1571              	.LVL254:
 1572 0000 10B5     		push	{r4, lr}
 1573              		.cfi_def_cfa_offset 8
 1574              		.cfi_offset 4, -8
ARM GAS  C:\Users\Phuong\AppData\Local\Temp\ccPPbPWA.s 			page 43


 1575              		.cfi_offset 14, -4
 1576 0002 82B0     		sub	sp, sp, #8
 1577              		.cfi_def_cfa_offset 16
 1578 0004 0C00     		movs	r4, r1
 377:Source\azure_iot_sdk\iothub_client\src/iothubtransport_amqp_cbs_auth.c ****     {
 1579              		.loc 1 377 0
 1580 0006 0028     		cmp	r0, #0
 1581 0008 0FD1     		bne	.L89
 1582              	.LBB35:
 379:Source\azure_iot_sdk\iothub_client\src/iothubtransport_amqp_cbs_auth.c ****     }
 1583              		.loc 1 379 0 discriminator 3
 1584 000a FFF7FEFF 		bl	xlogging_get_log_function
 1585              	.LVL255:
 1586 000e 041E     		subs	r4, r0, #0
 1587              	.LVL256:
 1588 0010 25D0     		beq	.L88
 379:Source\azure_iot_sdk\iothub_client\src/iothubtransport_amqp_cbs_auth.c ****     }
 1589              		.loc 1 379 0 is_stmt 0 discriminator 4
 1590 0012 144B     		ldr	r3, .L92
 1591 0014 0193     		str	r3, [sp, #4]
 1592 0016 0123     		movs	r3, #1
 1593 0018 0093     		str	r3, [sp]
 1594 001a 7C23     		movs	r3, #124
 1595 001c FF33     		adds	r3, r3, #255
 1596 001e 124A     		ldr	r2, .L92+4
 1597 0020 7832     		adds	r2, r2, #120
 1598 0022 1249     		ldr	r1, .L92+8
 1599 0024 0020     		movs	r0, #0
 1600              	.LVL257:
 1601 0026 A047     		blx	r4
 1602              	.LVL258:
 1603 0028 19E0     		b	.L88
 1604              	.LVL259:
 1605              	.L89:
 1606              	.LBE35:
 381:Source\azure_iot_sdk\iothub_client\src/iothubtransport_amqp_cbs_auth.c ****     {
 1607              		.loc 1 381 0 is_stmt 1
 1608 002a 0029     		cmp	r1, #0
 1609 002c 0FD1     		bne	.L91
 1610              	.LBB36:
 383:Source\azure_iot_sdk\iothub_client\src/iothubtransport_amqp_cbs_auth.c ****     }
 1611              		.loc 1 383 0 discriminator 3
 1612 002e FFF7FEFF 		bl	xlogging_get_log_function
 1613              	.LVL260:
 1614 0032 041E     		subs	r4, r0, #0
 1615              	.LVL261:
 1616 0034 13D0     		beq	.L88
 383:Source\azure_iot_sdk\iothub_client\src/iothubtransport_amqp_cbs_auth.c ****     }
 1617              		.loc 1 383 0 is_stmt 0 discriminator 4
 1618 0036 0E4B     		ldr	r3, .L92+12
 1619 0038 0193     		str	r3, [sp, #4]
 1620 003a 0123     		movs	r3, #1
 1621 003c 0093     		str	r3, [sp]
 1622 003e 8023     		movs	r3, #128
 1623 0040 FF33     		adds	r3, r3, #255
 1624 0042 094A     		ldr	r2, .L92+4
 1625 0044 7832     		adds	r2, r2, #120
ARM GAS  C:\Users\Phuong\AppData\Local\Temp\ccPPbPWA.s 			page 44


 1626 0046 0949     		ldr	r1, .L92+8
 1627 0048 0020     		movs	r0, #0
 1628              	.LVL262:
 1629 004a A047     		blx	r4
 1630              	.LVL263:
 1631 004c 07E0     		b	.L88
 1632              	.LVL264:
 1633              	.L91:
 1634              	.LBE36:
 387:Source\azure_iot_sdk\iothub_client\src/iothubtransport_amqp_cbs_auth.c ****         {
 1635              		.loc 1 387 0 is_stmt 1
 1636 004e 0949     		ldr	r1, .L92+16
 1637              	.LVL265:
 1638 0050 FFF7FEFF 		bl	strcmp
 1639              	.LVL266:
 1640 0054 0028     		cmp	r0, #0
 1641 0056 02D1     		bne	.L88
 389:Source\azure_iot_sdk\iothub_client\src/iothubtransport_amqp_cbs_auth.c ****         }
 1642              		.loc 1 389 0
 1643 0058 2000     		movs	r0, r4
 1644 005a FFF7FEFF 		bl	OptionHandler_Destroy
 1645              	.LVL267:
 1646              	.L88:
 392:Source\azure_iot_sdk\iothub_client\src/iothubtransport_amqp_cbs_auth.c **** 
 1647              		.loc 1 392 0
 1648 005e 02B0     		add	sp, sp, #8
 1649              		@ sp needed
 1650 0060 10BD     		pop	{r4, pc}
 1651              	.L93:
 1652 0062 C046     		.align	2
 1653              	.L92:
 1654 0064 24060000 		.word	.LC80
 1655 0068 80000000 		.word	.LANCHOR1
 1656 006c 00000000 		.word	.LC1
 1657 0070 5C060000 		.word	.LC82
 1658 0074 B4040000 		.word	.LC62
 1659              		.cfi_endproc
 1660              	.LFE10:
 1661              		.size	authentication_destroy_option, .-authentication_destroy_option
 1662              		.section	.text.authentication_start,"ax",%progbits
 1663              		.align	2
 1664              		.global	authentication_start
 1665              		.code	16
 1666              		.thumb_func
 1667              		.type	authentication_start, %function
 1668              	authentication_start:
 1669              	.LFB11:
 396:Source\azure_iot_sdk\iothub_client\src/iothubtransport_amqp_cbs_auth.c ****     int result;
 1670              		.loc 1 396 0
 1671              		.cfi_startproc
 1672              		@ args = 0, pretend = 0, frame = 0
 1673              		@ frame_needed = 0, uses_anonymous_args = 0
 1674              	.LVL268:
 1675 0000 30B5     		push	{r4, r5, lr}
 1676              		.cfi_def_cfa_offset 12
 1677              		.cfi_offset 4, -12
 1678              		.cfi_offset 5, -8
ARM GAS  C:\Users\Phuong\AppData\Local\Temp\ccPPbPWA.s 			page 45


 1679              		.cfi_offset 14, -4
 1680 0002 85B0     		sub	sp, sp, #20
 1681              		.cfi_def_cfa_offset 32
 1682 0004 041E     		subs	r4, r0, #0
 400:Source\azure_iot_sdk\iothub_client\src/iothubtransport_amqp_cbs_auth.c ****     {
 1683              		.loc 1 400 0
 1684 0006 11D1     		bne	.L95
 1685              	.LVL269:
 1686              	.LBB37:
 403:Source\azure_iot_sdk\iothub_client\src/iothubtransport_amqp_cbs_auth.c ****     }
 1687              		.loc 1 403 0
 1688 0008 FFF7FEFF 		bl	xlogging_get_log_function
 1689              	.LVL270:
 1690 000c 041E     		subs	r4, r0, #0
 1691              	.LVL271:
 1692 000e 40D0     		beq	.L99
 403:Source\azure_iot_sdk\iothub_client\src/iothubtransport_amqp_cbs_auth.c ****     }
 1693              		.loc 1 403 0 is_stmt 0 discriminator 4
 1694 0010 254B     		ldr	r3, .L102
 1695 0012 0193     		str	r3, [sp, #4]
 1696 0014 0123     		movs	r3, #1
 1697 0016 0093     		str	r3, [sp]
 1698 0018 9423     		movs	r3, #148
 1699 001a FF33     		adds	r3, r3, #255
 1700 001c 234A     		ldr	r2, .L102+4
 1701 001e 1832     		adds	r2, r2, #24
 1702 0020 2349     		ldr	r1, .L102+8
 1703 0022 0020     		movs	r0, #0
 1704              	.LVL272:
 1705 0024 A047     		blx	r4
 1706              	.LVL273:
 1707              	.LBE37:
 402:Source\azure_iot_sdk\iothub_client\src/iothubtransport_amqp_cbs_auth.c ****         LogError("authentication_start failed (authentication_handle is NULL)");
 1708              		.loc 1 402 0 is_stmt 1 discriminator 4
 1709 0026 C920     		movs	r0, #201
 1710 0028 4000     		lsls	r0, r0, #1
 1711 002a 3AE0     		b	.L96
 1712              	.LVL274:
 1713              	.L95:
 406:Source\azure_iot_sdk\iothub_client\src/iothubtransport_amqp_cbs_auth.c ****     {
 1714              		.loc 1 406 0
 1715 002c 0029     		cmp	r1, #0
 1716 002e 11D1     		bne	.L97
 1717              	.LVL275:
 1718              	.LBB38:
 409:Source\azure_iot_sdk\iothub_client\src/iothubtransport_amqp_cbs_auth.c ****     }
 1719              		.loc 1 409 0
 1720 0030 FFF7FEFF 		bl	xlogging_get_log_function
 1721              	.LVL276:
 1722 0034 041E     		subs	r4, r0, #0
 1723              	.LVL277:
 1724 0036 2FD0     		beq	.L100
 409:Source\azure_iot_sdk\iothub_client\src/iothubtransport_amqp_cbs_auth.c ****     }
 1725              		.loc 1 409 0 is_stmt 0 discriminator 4
 1726 0038 1E4B     		ldr	r3, .L102+12
 1727 003a 0193     		str	r3, [sp, #4]
 1728 003c 0123     		movs	r3, #1
ARM GAS  C:\Users\Phuong\AppData\Local\Temp\ccPPbPWA.s 			page 46


 1729 003e 0093     		str	r3, [sp]
 1730 0040 9A23     		movs	r3, #154
 1731 0042 FF33     		adds	r3, r3, #255
 1732 0044 194A     		ldr	r2, .L102+4
 1733 0046 1832     		adds	r2, r2, #24
 1734 0048 1949     		ldr	r1, .L102+8
 1735 004a 0020     		movs	r0, #0
 1736              	.LVL278:
 1737 004c A047     		blx	r4
 1738              	.LVL279:
 1739              	.LBE38:
 408:Source\azure_iot_sdk\iothub_client\src/iothubtransport_amqp_cbs_auth.c ****         LogError("authentication_start failed (cbs_handle is NULL)");
 1740              		.loc 1 408 0 is_stmt 1 discriminator 4
 1741 004e CC20     		movs	r0, #204
 1742 0050 4000     		lsls	r0, r0, #1
 1743 0052 26E0     		b	.L96
 1744              	.LVL280:
 1745              	.L97:
 1746              	.LBB39:
 416:Source\azure_iot_sdk\iothub_client\src/iothubtransport_amqp_cbs_auth.c ****         {
 1747              		.loc 1 416 0
 1748 0054 2823     		movs	r3, #40
 1749 0056 C35C     		ldrb	r3, [r0, r3]
 1750 0058 002B     		cmp	r3, #0
 1751 005a 14D0     		beq	.L98
 1752              	.LVL281:
 1753              	.LBB40:
 419:Source\azure_iot_sdk\iothub_client\src/iothubtransport_amqp_cbs_auth.c ****         }
 1754              		.loc 1 419 0
 1755 005c FFF7FEFF 		bl	xlogging_get_log_function
 1756              	.LVL282:
 1757 0060 051E     		subs	r5, r0, #0
 1758              	.LVL283:
 1759 0062 1CD0     		beq	.L101
 419:Source\azure_iot_sdk\iothub_client\src/iothubtransport_amqp_cbs_auth.c ****         }
 1760              		.loc 1 419 0 is_stmt 0 discriminator 4
 1761 0064 2823     		movs	r3, #40
 1762 0066 E35C     		ldrb	r3, [r4, r3]
 1763 0068 0293     		str	r3, [sp, #8]
 1764 006a 134B     		ldr	r3, .L102+16
 1765 006c 0193     		str	r3, [sp, #4]
 1766 006e 0123     		movs	r3, #1
 1767 0070 0093     		str	r3, [sp]
 1768 0072 A423     		movs	r3, #164
 1769 0074 FF33     		adds	r3, r3, #255
 1770 0076 0D4A     		ldr	r2, .L102+4
 1771 0078 1832     		adds	r2, r2, #24
 1772 007a 0D49     		ldr	r1, .L102+8
 1773 007c 0020     		movs	r0, #0
 1774              	.LVL284:
 1775 007e A847     		blx	r5
 1776              	.LVL285:
 1777              	.LBE40:
 418:Source\azure_iot_sdk\iothub_client\src/iothubtransport_amqp_cbs_auth.c ****             LogError("authentication_start failed (messenger has already been started; current stat
 1778              		.loc 1 418 0 is_stmt 1 discriminator 4
 1779 0080 D120     		movs	r0, #209
 1780 0082 4000     		lsls	r0, r0, #1
ARM GAS  C:\Users\Phuong\AppData\Local\Temp\ccPPbPWA.s 			page 47


 1781 0084 0DE0     		b	.L96
 1782              	.LVL286:
 1783              	.L98:
 424:Source\azure_iot_sdk\iothub_client\src/iothubtransport_amqp_cbs_auth.c **** 
 1784              		.loc 1 424 0
 1785 0086 C162     		str	r1, [r0, #44]
 427:Source\azure_iot_sdk\iothub_client\src/iothubtransport_amqp_cbs_auth.c **** 
 1786              		.loc 1 427 0
 1787 0088 0121     		movs	r1, #1
 1788              	.LVL287:
 1789 008a FFF7FEFF 		bl	update_state
 1790              	.LVL288:
 430:Source\azure_iot_sdk\iothub_client\src/iothubtransport_amqp_cbs_auth.c ****         }
 1791              		.loc 1 430 0
 1792 008e 0020     		movs	r0, #0
 1793 0090 07E0     		b	.L96
 1794              	.LVL289:
 1795              	.L99:
 1796              	.LBE39:
 402:Source\azure_iot_sdk\iothub_client\src/iothubtransport_amqp_cbs_auth.c ****         LogError("authentication_start failed (authentication_handle is NULL)");
 1797              		.loc 1 402 0
 1798 0092 C920     		movs	r0, #201
 1799              	.LVL290:
 1800 0094 4000     		lsls	r0, r0, #1
 1801 0096 04E0     		b	.L96
 1802              	.LVL291:
 1803              	.L100:
 408:Source\azure_iot_sdk\iothub_client\src/iothubtransport_amqp_cbs_auth.c ****         LogError("authentication_start failed (cbs_handle is NULL)");
 1804              		.loc 1 408 0
 1805 0098 CC20     		movs	r0, #204
 1806              	.LVL292:
 1807 009a 4000     		lsls	r0, r0, #1
 1808 009c 01E0     		b	.L96
 1809              	.LVL293:
 1810              	.L101:
 1811              	.LBB41:
 418:Source\azure_iot_sdk\iothub_client\src/iothubtransport_amqp_cbs_auth.c ****             LogError("authentication_start failed (messenger has already been started; current stat
 1812              		.loc 1 418 0
 1813 009e D120     		movs	r0, #209
 1814              	.LVL294:
 1815 00a0 4000     		lsls	r0, r0, #1
 1816              	.LVL295:
 1817              	.L96:
 1818              	.LBE41:
 435:Source\azure_iot_sdk\iothub_client\src/iothubtransport_amqp_cbs_auth.c **** 
 1819              		.loc 1 435 0
 1820 00a2 05B0     		add	sp, sp, #20
 1821              		@ sp needed
 1822 00a4 30BD     		pop	{r4, r5, pc}
 1823              	.L103:
 1824 00a6 C046     		.align	2
 1825              	.L102:
 1826 00a8 94060000 		.word	.LC87
 1827 00ac 00010000 		.word	.LANCHOR2
 1828 00b0 00000000 		.word	.LC1
 1829 00b4 D0060000 		.word	.LC89
 1830 00b8 04070000 		.word	.LC91
ARM GAS  C:\Users\Phuong\AppData\Local\Temp\ccPPbPWA.s 			page 48


 1831              		.cfi_endproc
 1832              	.LFE11:
 1833              		.size	authentication_start, .-authentication_start
 1834              		.section	.text.authentication_stop,"ax",%progbits
 1835              		.align	2
 1836              		.global	authentication_stop
 1837              		.code	16
 1838              		.thumb_func
 1839              		.type	authentication_stop, %function
 1840              	authentication_stop:
 1841              	.LFB12:
 438:Source\azure_iot_sdk\iothub_client\src/iothubtransport_amqp_cbs_auth.c ****     int result;
 1842              		.loc 1 438 0
 1843              		.cfi_startproc
 1844              		@ args = 0, pretend = 0, frame = 0
 1845              		@ frame_needed = 0, uses_anonymous_args = 0
 1846              	.LVL296:
 1847 0000 10B5     		push	{r4, lr}
 1848              		.cfi_def_cfa_offset 8
 1849              		.cfi_offset 4, -8
 1850              		.cfi_offset 14, -4
 1851 0002 82B0     		sub	sp, sp, #8
 1852              		.cfi_def_cfa_offset 16
 442:Source\azure_iot_sdk\iothub_client\src/iothubtransport_amqp_cbs_auth.c ****     {
 1853              		.loc 1 442 0
 1854 0004 0028     		cmp	r0, #0
 1855 0006 11D1     		bne	.L105
 1856              	.LVL297:
 1857              	.LBB42:
 445:Source\azure_iot_sdk\iothub_client\src/iothubtransport_amqp_cbs_auth.c ****     }
 1858              		.loc 1 445 0
 1859 0008 FFF7FEFF 		bl	xlogging_get_log_function
 1860              	.LVL298:
 1861 000c 041E     		subs	r4, r0, #0
 1862              	.LVL299:
 1863 000e 2AD0     		beq	.L108
 445:Source\azure_iot_sdk\iothub_client\src/iothubtransport_amqp_cbs_auth.c ****     }
 1864              		.loc 1 445 0 is_stmt 0 discriminator 4
 1865 0010 184B     		ldr	r3, .L110
 1866 0012 0193     		str	r3, [sp, #4]
 1867 0014 0123     		movs	r3, #1
 1868 0016 0093     		str	r3, [sp]
 1869 0018 BE23     		movs	r3, #190
 1870 001a FF33     		adds	r3, r3, #255
 1871 001c 164A     		ldr	r2, .L110+4
 1872 001e 3032     		adds	r2, r2, #48
 1873 0020 1649     		ldr	r1, .L110+8
 1874 0022 0020     		movs	r0, #0
 1875              	.LVL300:
 1876 0024 A047     		blx	r4
 1877              	.LVL301:
 1878              	.LBE42:
 444:Source\azure_iot_sdk\iothub_client\src/iothubtransport_amqp_cbs_auth.c ****         LogError("authentication_stop failed (authentication_handle is NULL)");
 1879              		.loc 1 444 0 is_stmt 1 discriminator 4
 1880 0026 DE20     		movs	r0, #222
 1881 0028 4000     		lsls	r0, r0, #1
 1882 002a 21E0     		b	.L106
ARM GAS  C:\Users\Phuong\AppData\Local\Temp\ccPPbPWA.s 			page 49


 1883              	.LVL302:
 1884              	.L105:
 1885              	.LBB43:
 452:Source\azure_iot_sdk\iothub_client\src/iothubtransport_amqp_cbs_auth.c ****         {
 1886              		.loc 1 452 0
 1887 002c 2823     		movs	r3, #40
 1888 002e C35C     		ldrb	r3, [r0, r3]
 1889 0030 002B     		cmp	r3, #0
 1890 0032 11D1     		bne	.L107
 1891              	.LVL303:
 1892              	.LBB44:
 455:Source\azure_iot_sdk\iothub_client\src/iothubtransport_amqp_cbs_auth.c ****         }
 1893              		.loc 1 455 0
 1894 0034 FFF7FEFF 		bl	xlogging_get_log_function
 1895              	.LVL304:
 1896 0038 041E     		subs	r4, r0, #0
 1897              	.LVL305:
 1898 003a 17D0     		beq	.L109
 455:Source\azure_iot_sdk\iothub_client\src/iothubtransport_amqp_cbs_auth.c ****         }
 1899              		.loc 1 455 0 is_stmt 0 discriminator 4
 1900 003c 104B     		ldr	r3, .L110+12
 1901 003e 0193     		str	r3, [sp, #4]
 1902 0040 0123     		movs	r3, #1
 1903 0042 0093     		str	r3, [sp]
 1904 0044 C823     		movs	r3, #200
 1905 0046 FF33     		adds	r3, r3, #255
 1906 0048 0B4A     		ldr	r2, .L110+4
 1907 004a 3032     		adds	r2, r2, #48
 1908 004c 0B49     		ldr	r1, .L110+8
 1909 004e 0020     		movs	r0, #0
 1910              	.LVL306:
 1911 0050 A047     		blx	r4
 1912              	.LVL307:
 1913              	.LBE44:
 454:Source\azure_iot_sdk\iothub_client\src/iothubtransport_amqp_cbs_auth.c ****             LogError("authentication_stop failed (messenger is already stopped)");
 1914              		.loc 1 454 0 is_stmt 1 discriminator 4
 1915 0052 E320     		movs	r0, #227
 1916 0054 4000     		lsls	r0, r0, #1
 1917 0056 0BE0     		b	.L106
 1918              	.LVL308:
 1919              	.L107:
 460:Source\azure_iot_sdk\iothub_client\src/iothubtransport_amqp_cbs_auth.c **** 
 1920              		.loc 1 460 0
 1921 0058 0023     		movs	r3, #0
 1922 005a C362     		str	r3, [r0, #44]
 463:Source\azure_iot_sdk\iothub_client\src/iothubtransport_amqp_cbs_auth.c **** 
 1923              		.loc 1 463 0
 1924 005c 0021     		movs	r1, #0
 1925 005e FFF7FEFF 		bl	update_state
 1926              	.LVL309:
 466:Source\azure_iot_sdk\iothub_client\src/iothubtransport_amqp_cbs_auth.c ****         }
 1927              		.loc 1 466 0
 1928 0062 0020     		movs	r0, #0
 1929 0064 04E0     		b	.L106
 1930              	.LVL310:
 1931              	.L108:
 1932              	.LBE43:
ARM GAS  C:\Users\Phuong\AppData\Local\Temp\ccPPbPWA.s 			page 50


 444:Source\azure_iot_sdk\iothub_client\src/iothubtransport_amqp_cbs_auth.c ****         LogError("authentication_stop failed (authentication_handle is NULL)");
 1933              		.loc 1 444 0
 1934 0066 DE20     		movs	r0, #222
 1935              	.LVL311:
 1936 0068 4000     		lsls	r0, r0, #1
 1937 006a 01E0     		b	.L106
 1938              	.LVL312:
 1939              	.L109:
 1940              	.LBB45:
 454:Source\azure_iot_sdk\iothub_client\src/iothubtransport_amqp_cbs_auth.c ****             LogError("authentication_stop failed (messenger is already stopped)");
 1941              		.loc 1 454 0
 1942 006c E320     		movs	r0, #227
 1943              	.LVL313:
 1944 006e 4000     		lsls	r0, r0, #1
 1945              	.LVL314:
 1946              	.L106:
 1947              	.LBE45:
 471:Source\azure_iot_sdk\iothub_client\src/iothubtransport_amqp_cbs_auth.c **** 
 1948              		.loc 1 471 0
 1949 0070 02B0     		add	sp, sp, #8
 1950              		@ sp needed
 1951 0072 10BD     		pop	{r4, pc}
 1952              	.L111:
 1953              		.align	2
 1954              	.L110:
 1955 0074 58070000 		.word	.LC95
 1956 0078 00010000 		.word	.LANCHOR2
 1957 007c 00000000 		.word	.LC1
 1958 0080 94070000 		.word	.LC97
 1959              		.cfi_endproc
 1960              	.LFE12:
 1961              		.size	authentication_stop, .-authentication_stop
 1962              		.section	.text.authentication_destroy,"ax",%progbits
 1963              		.align	2
 1964              		.global	authentication_destroy
 1965              		.code	16
 1966              		.thumb_func
 1967              		.type	authentication_destroy, %function
 1968              	authentication_destroy:
 1969              	.LFB13:
 474:Source\azure_iot_sdk\iothub_client\src/iothubtransport_amqp_cbs_auth.c ****     // Codes_SRS_IOTHUBTRANSPORT_AMQP_AUTH_09_106: [If authentication_handle is NULL, authenticatio
 1970              		.loc 1 474 0
 1971              		.cfi_startproc
 1972              		@ args = 0, pretend = 0, frame = 0
 1973              		@ frame_needed = 0, uses_anonymous_args = 0
 1974              	.LVL315:
 1975 0000 10B5     		push	{r4, lr}
 1976              		.cfi_def_cfa_offset 8
 1977              		.cfi_offset 4, -8
 1978              		.cfi_offset 14, -4
 1979 0002 82B0     		sub	sp, sp, #8
 1980              		.cfi_def_cfa_offset 16
 1981 0004 041E     		subs	r4, r0, #0
 476:Source\azure_iot_sdk\iothub_client\src/iothubtransport_amqp_cbs_auth.c ****     {
 1982              		.loc 1 476 0
 1983 0006 0FD1     		bne	.L113
 1984              	.LBB46:
ARM GAS  C:\Users\Phuong\AppData\Local\Temp\ccPPbPWA.s 			page 51


 478:Source\azure_iot_sdk\iothub_client\src/iothubtransport_amqp_cbs_auth.c ****     }
 1985              		.loc 1 478 0 discriminator 3
 1986 0008 FFF7FEFF 		bl	xlogging_get_log_function
 1987              	.LVL316:
 1988 000c 041E     		subs	r4, r0, #0
 1989              	.LVL317:
 1990 000e 19D0     		beq	.L112
 478:Source\azure_iot_sdk\iothub_client\src/iothubtransport_amqp_cbs_auth.c ****     }
 1991              		.loc 1 478 0 is_stmt 0 discriminator 4
 1992 0010 0D4B     		ldr	r3, .L117
 1993 0012 0193     		str	r3, [sp, #4]
 1994 0014 0123     		movs	r3, #1
 1995 0016 0093     		str	r3, [sp]
 1996 0018 DE33     		adds	r3, r3, #222
 1997 001a FF33     		adds	r3, r3, #255
 1998 001c 0B4A     		ldr	r2, .L117+4
 1999 001e 4432     		adds	r2, r2, #68
 2000 0020 0B49     		ldr	r1, .L117+8
 2001 0022 0020     		movs	r0, #0
 2002              	.LVL318:
 2003 0024 A047     		blx	r4
 2004              	.LVL319:
 2005 0026 0DE0     		b	.L112
 2006              	.LVL320:
 2007              	.L113:
 2008              	.LBE46:
 2009              	.LBB47:
 485:Source\azure_iot_sdk\iothub_client\src/iothubtransport_amqp_cbs_auth.c ****         {
 2010              		.loc 1 485 0 is_stmt 1
 2011 0028 2823     		movs	r3, #40
 2012 002a C35C     		ldrb	r3, [r0, r3]
 2013 002c 002B     		cmp	r3, #0
 2014 002e 01D0     		beq	.L115
 487:Source\azure_iot_sdk\iothub_client\src/iothubtransport_amqp_cbs_auth.c ****         }
 2015              		.loc 1 487 0
 2016 0030 FFF7FEFF 		bl	authentication_stop
 2017              	.LVL321:
 2018              	.L115:
 490:Source\azure_iot_sdk\iothub_client\src/iothubtransport_amqp_cbs_auth.c ****             STRING_delete(instance->iothub_host_fqdn);
 2019              		.loc 1 490 0
 2020 0034 A068     		ldr	r0, [r4, #8]
 2021 0036 0028     		cmp	r0, #0
 2022 0038 01D0     		beq	.L116
 491:Source\azure_iot_sdk\iothub_client\src/iothubtransport_amqp_cbs_auth.c **** 
 2023              		.loc 1 491 0
 2024 003a FFF7FEFF 		bl	STRING_delete
 2025              	.LVL322:
 2026              	.L116:
 494:Source\azure_iot_sdk\iothub_client\src/iothubtransport_amqp_cbs_auth.c ****     }
 2027              		.loc 1 494 0
 2028 003e 2000     		movs	r0, r4
 2029 0040 FFF7FEFF 		bl	free
 2030              	.LVL323:
 2031              	.L112:
 2032              	.LBE47:
 496:Source\azure_iot_sdk\iothub_client\src/iothubtransport_amqp_cbs_auth.c **** 
 2033              		.loc 1 496 0
ARM GAS  C:\Users\Phuong\AppData\Local\Temp\ccPPbPWA.s 			page 52


 2034 0044 02B0     		add	sp, sp, #8
 2035              		@ sp needed
 2036 0046 10BD     		pop	{r4, pc}
 2037              	.L118:
 2038              		.align	2
 2039              	.L117:
 2040 0048 D0070000 		.word	.LC101
 2041 004c 00010000 		.word	.LANCHOR2
 2042 0050 00000000 		.word	.LC1
 2043              		.cfi_endproc
 2044              	.LFE13:
 2045              		.size	authentication_destroy, .-authentication_destroy
 2046              		.section	.text.authentication_create,"ax",%progbits
 2047              		.align	2
 2048              		.global	authentication_create
 2049              		.code	16
 2050              		.thumb_func
 2051              		.type	authentication_create, %function
 2052              	authentication_create:
 2053              	.LFB14:
 499:Source\azure_iot_sdk\iothub_client\src/iothubtransport_amqp_cbs_auth.c ****     AUTHENTICATION_HANDLE result;
 2054              		.loc 1 499 0
 2055              		.cfi_startproc
 2056              		@ args = 0, pretend = 0, frame = 0
 2057              		@ frame_needed = 0, uses_anonymous_args = 0
 2058              	.LVL324:
 2059 0000 30B5     		push	{r4, r5, lr}
 2060              		.cfi_def_cfa_offset 12
 2061              		.cfi_offset 4, -12
 2062              		.cfi_offset 5, -8
 2063              		.cfi_offset 14, -4
 2064 0002 83B0     		sub	sp, sp, #12
 2065              		.cfi_def_cfa_offset 24
 2066 0004 041E     		subs	r4, r0, #0
 503:Source\azure_iot_sdk\iothub_client\src/iothubtransport_amqp_cbs_auth.c ****     {
 2067              		.loc 1 503 0
 2068 0006 11D1     		bne	.L120
 2069              	.LVL325:
 2070              	.LBB48:
 506:Source\azure_iot_sdk\iothub_client\src/iothubtransport_amqp_cbs_auth.c ****     }
 2071              		.loc 1 506 0
 2072 0008 FFF7FEFF 		bl	xlogging_get_log_function
 2073              	.LVL326:
 2074 000c 041E     		subs	r4, r0, #0
 2075              	.LVL327:
 2076 000e 00D1     		bne	.LCB2309
 2077 0010 B1E0     		b	.L129	@long jump
 2078              	.LCB2309:
 506:Source\azure_iot_sdk\iothub_client\src/iothubtransport_amqp_cbs_auth.c ****     }
 2079              		.loc 1 506 0 is_stmt 0 discriminator 4
 2080 0012 5F4B     		ldr	r3, .L136
 2081 0014 0193     		str	r3, [sp, #4]
 2082 0016 0123     		movs	r3, #1
 2083 0018 0093     		str	r3, [sp]
 2084 001a FA33     		adds	r3, r3, #250
 2085 001c FF33     		adds	r3, r3, #255
 2086 001e 5D4A     		ldr	r2, .L136+4
ARM GAS  C:\Users\Phuong\AppData\Local\Temp\ccPPbPWA.s 			page 53


 2087 0020 5C32     		adds	r2, r2, #92
 2088 0022 5D49     		ldr	r1, .L136+8
 2089 0024 0020     		movs	r0, #0
 2090              	.LVL328:
 2091 0026 A047     		blx	r4
 2092              	.LVL329:
 2093              	.LBE48:
 505:Source\azure_iot_sdk\iothub_client\src/iothubtransport_amqp_cbs_auth.c ****         LogError("authentication_create failed (config is NULL)");
 2094              		.loc 1 505 0 is_stmt 1 discriminator 4
 2095 0028 0024     		movs	r4, #0
 2096              	.LVL330:
 2097 002a ADE0     		b	.L121
 2098              	.LVL331:
 2099              	.L120:
 508:Source\azure_iot_sdk\iothub_client\src/iothubtransport_amqp_cbs_auth.c ****     {
 2100              		.loc 1 508 0
 2101 002c C369     		ldr	r3, [r0, #28]
 2102 002e 002B     		cmp	r3, #0
 2103 0030 10D1     		bne	.L122
 2104              	.LVL332:
 2105              	.LBB49:
 511:Source\azure_iot_sdk\iothub_client\src/iothubtransport_amqp_cbs_auth.c ****     }
 2106              		.loc 1 511 0
 2107 0032 FFF7FEFF 		bl	xlogging_get_log_function
 2108              	.LVL333:
 2109 0036 041E     		subs	r4, r0, #0
 2110              	.LVL334:
 2111 0038 00D1     		bne	.LCB2346
 2112 003a 9EE0     		b	.L130	@long jump
 2113              	.LCB2346:
 511:Source\azure_iot_sdk\iothub_client\src/iothubtransport_amqp_cbs_auth.c ****     }
 2114              		.loc 1 511 0 is_stmt 0 discriminator 4
 2115 003c 574B     		ldr	r3, .L136+12
 2116 003e 0193     		str	r3, [sp, #4]
 2117 0040 0123     		movs	r3, #1
 2118 0042 0093     		str	r3, [sp]
 2119 0044 564B     		ldr	r3, .L136+16
 2120 0046 534A     		ldr	r2, .L136+4
 2121 0048 5C32     		adds	r2, r2, #92
 2122 004a 5349     		ldr	r1, .L136+8
 2123 004c 0020     		movs	r0, #0
 2124              	.LVL335:
 2125 004e A047     		blx	r4
 2126              	.LVL336:
 2127              	.LBE49:
 510:Source\azure_iot_sdk\iothub_client\src/iothubtransport_amqp_cbs_auth.c ****         LogError("authentication_create failed (config->authorization_module is NULL)");
 2128              		.loc 1 510 0 is_stmt 1 discriminator 4
 2129 0050 0024     		movs	r4, #0
 2130              	.LVL337:
 2131 0052 99E0     		b	.L121
 2132              	.LVL338:
 2133              	.L122:
 514:Source\azure_iot_sdk\iothub_client\src/iothubtransport_amqp_cbs_auth.c ****     {
 2134              		.loc 1 514 0
 2135 0054 8368     		ldr	r3, [r0, #8]
 2136 0056 002B     		cmp	r3, #0
 2137 0058 10D1     		bne	.L123
ARM GAS  C:\Users\Phuong\AppData\Local\Temp\ccPPbPWA.s 			page 54


 2138              	.LVL339:
 2139              	.LBB50:
 517:Source\azure_iot_sdk\iothub_client\src/iothubtransport_amqp_cbs_auth.c ****     }
 2140              		.loc 1 517 0
 2141 005a FFF7FEFF 		bl	xlogging_get_log_function
 2142              	.LVL340:
 2143 005e 041E     		subs	r4, r0, #0
 2144              	.LVL341:
 2145 0060 00D1     		bne	.LCB2382
 2146 0062 8CE0     		b	.L131	@long jump
 2147              	.LCB2382:
 517:Source\azure_iot_sdk\iothub_client\src/iothubtransport_amqp_cbs_auth.c ****     }
 2148              		.loc 1 517 0 is_stmt 0 discriminator 4
 2149 0064 4F4B     		ldr	r3, .L136+20
 2150 0066 0193     		str	r3, [sp, #4]
 2151 0068 0123     		movs	r3, #1
 2152 006a 0093     		str	r3, [sp]
 2153 006c 4E4B     		ldr	r3, .L136+24
 2154 006e 494A     		ldr	r2, .L136+4
 2155 0070 5C32     		adds	r2, r2, #92
 2156 0072 4949     		ldr	r1, .L136+8
 2157 0074 0020     		movs	r0, #0
 2158              	.LVL342:
 2159 0076 A047     		blx	r4
 2160              	.LVL343:
 2161              	.LBE50:
 516:Source\azure_iot_sdk\iothub_client\src/iothubtransport_amqp_cbs_auth.c ****         LogError("authentication_create failed (config->iothub_host_fqdn is NULL)");
 2162              		.loc 1 516 0 is_stmt 1 discriminator 4
 2163 0078 0024     		movs	r4, #0
 2164              	.LVL344:
 2165 007a 85E0     		b	.L121
 2166              	.LVL345:
 2167              	.L123:
 520:Source\azure_iot_sdk\iothub_client\src/iothubtransport_amqp_cbs_auth.c ****     {
 2168              		.loc 1 520 0
 2169 007c C368     		ldr	r3, [r0, #12]
 2170 007e 002B     		cmp	r3, #0
 2171 0080 0FD1     		bne	.L124
 2172              	.LVL346:
 2173              	.LBB51:
 523:Source\azure_iot_sdk\iothub_client\src/iothubtransport_amqp_cbs_auth.c ****     }
 2174              		.loc 1 523 0
 2175 0082 FFF7FEFF 		bl	xlogging_get_log_function
 2176              	.LVL347:
 2177 0086 041E     		subs	r4, r0, #0
 2178              	.LVL348:
 2179 0088 7BD0     		beq	.L132
 523:Source\azure_iot_sdk\iothub_client\src/iothubtransport_amqp_cbs_auth.c ****     }
 2180              		.loc 1 523 0 is_stmt 0 discriminator 4
 2181 008a 484B     		ldr	r3, .L136+28
 2182 008c 0193     		str	r3, [sp, #4]
 2183 008e 0123     		movs	r3, #1
 2184 0090 0093     		str	r3, [sp]
 2185 0092 474B     		ldr	r3, .L136+32
 2186 0094 3F4A     		ldr	r2, .L136+4
 2187 0096 5C32     		adds	r2, r2, #92
 2188 0098 3F49     		ldr	r1, .L136+8
ARM GAS  C:\Users\Phuong\AppData\Local\Temp\ccPPbPWA.s 			page 55


 2189 009a 0020     		movs	r0, #0
 2190              	.LVL349:
 2191 009c A047     		blx	r4
 2192              	.LVL350:
 2193              	.LBE51:
 522:Source\azure_iot_sdk\iothub_client\src/iothubtransport_amqp_cbs_auth.c ****         LogError("authentication_create failed (config->on_state_changed_callback is NULL)");
 2194              		.loc 1 522 0 is_stmt 1 discriminator 4
 2195 009e 0024     		movs	r4, #0
 2196              	.LVL351:
 2197 00a0 72E0     		b	.L121
 2198              	.LVL352:
 2199              	.L124:
 2200              	.LBB52:
 530:Source\azure_iot_sdk\iothub_client\src/iothubtransport_amqp_cbs_auth.c ****         {
 2201              		.loc 1 530 0
 2202 00a2 3C20     		movs	r0, #60
 2203              	.LVL353:
 2204 00a4 FFF7FEFF 		bl	malloc
 2205              	.LVL354:
 2206 00a8 051E     		subs	r5, r0, #0
 2207              	.LVL355:
 2208 00aa 0FD1     		bne	.L125
 2209              	.LVL356:
 2210              	.LBB53:
 534:Source\azure_iot_sdk\iothub_client\src/iothubtransport_amqp_cbs_auth.c ****         }
 2211              		.loc 1 534 0
 2212 00ac FFF7FEFF 		bl	xlogging_get_log_function
 2213              	.LVL357:
 2214 00b0 041E     		subs	r4, r0, #0
 2215              	.LVL358:
 2216 00b2 68D0     		beq	.L133
 534:Source\azure_iot_sdk\iothub_client\src/iothubtransport_amqp_cbs_auth.c ****         }
 2217              		.loc 1 534 0 is_stmt 0 discriminator 4
 2218 00b4 3F4B     		ldr	r3, .L136+36
 2219 00b6 0193     		str	r3, [sp, #4]
 2220 00b8 0123     		movs	r3, #1
 2221 00ba 0093     		str	r3, [sp]
 2222 00bc 3E4B     		ldr	r3, .L136+40
 2223 00be 354A     		ldr	r2, .L136+4
 2224 00c0 5C32     		adds	r2, r2, #92
 2225 00c2 3549     		ldr	r1, .L136+8
 2226 00c4 0020     		movs	r0, #0
 2227              	.LVL359:
 2228 00c6 A047     		blx	r4
 2229              	.LVL360:
 2230              	.LBE53:
 533:Source\azure_iot_sdk\iothub_client\src/iothubtransport_amqp_cbs_auth.c ****             LogError("authentication_create failed (malloc failed)");
 2231              		.loc 1 533 0 is_stmt 1 discriminator 4
 2232 00c8 2C00     		movs	r4, r5
 2233              	.LVL361:
 2234 00ca 5DE0     		b	.L121
 2235              	.LVL362:
 2236              	.L125:
 539:Source\azure_iot_sdk\iothub_client\src/iothubtransport_amqp_cbs_auth.c **** 
 2237              		.loc 1 539 0
 2238 00cc 3C22     		movs	r2, #60
 2239 00ce 0021     		movs	r1, #0
ARM GAS  C:\Users\Phuong\AppData\Local\Temp\ccPPbPWA.s 			page 56


 2240 00d0 FFF7FEFF 		bl	memset
 2241              	.LVL363:
 542:Source\azure_iot_sdk\iothub_client\src/iothubtransport_amqp_cbs_auth.c ****             {
 2242              		.loc 1 542 0
 2243 00d4 E069     		ldr	r0, [r4, #28]
 2244 00d6 FFF7FEFF 		bl	IoTHubClient_Auth_Get_DeviceId
 2245              	.LVL364:
 2246 00da 2860     		str	r0, [r5]
 2247 00dc 0028     		cmp	r0, #0
 2248 00de 0FD1     		bne	.L126
 2249              	.LVL365:
 2250              	.LBB54:
 546:Source\azure_iot_sdk\iothub_client\src/iothubtransport_amqp_cbs_auth.c ****             }
 2251              		.loc 1 546 0
 2252 00e0 FFF7FEFF 		bl	xlogging_get_log_function
 2253              	.LVL366:
 2254 00e4 041E     		subs	r4, r0, #0
 2255              	.LVL367:
 2256 00e6 3DD0     		beq	.L134
 546:Source\azure_iot_sdk\iothub_client\src/iothubtransport_amqp_cbs_auth.c ****             }
 2257              		.loc 1 546 0 is_stmt 0 discriminator 4
 2258 00e8 344B     		ldr	r3, .L136+44
 2259 00ea 0193     		str	r3, [sp, #4]
 2260 00ec 0123     		movs	r3, #1
 2261 00ee 0093     		str	r3, [sp]
 2262 00f0 334B     		ldr	r3, .L136+48
 2263 00f2 284A     		ldr	r2, .L136+4
 2264 00f4 5C32     		adds	r2, r2, #92
 2265 00f6 2849     		ldr	r1, .L136+8
 2266 00f8 0020     		movs	r0, #0
 2267              	.LVL368:
 2268 00fa A047     		blx	r4
 2269              	.LVL369:
 2270              	.LBE54:
 545:Source\azure_iot_sdk\iothub_client\src/iothubtransport_amqp_cbs_auth.c ****                 LogError("authentication_create failed (config->device_id could not be copied; STRI
 2271              		.loc 1 545 0 is_stmt 1 discriminator 4
 2272 00fc 0024     		movs	r4, #0
 2273              	.LVL370:
 2274 00fe 34E0     		b	.L127
 2275              	.LVL371:
 2276              	.L126:
 549:Source\azure_iot_sdk\iothub_client\src/iothubtransport_amqp_cbs_auth.c ****             {
 2277              		.loc 1 549 0
 2278 0100 A068     		ldr	r0, [r4, #8]
 2279 0102 FFF7FEFF 		bl	STRING_construct
 2280              	.LVL372:
 2281 0106 A860     		str	r0, [r5, #8]
 2282 0108 0028     		cmp	r0, #0
 2283 010a 0FD1     		bne	.L128
 2284              	.LVL373:
 2285              	.LBB55:
 553:Source\azure_iot_sdk\iothub_client\src/iothubtransport_amqp_cbs_auth.c ****             }
 2286              		.loc 1 553 0
 2287 010c FFF7FEFF 		bl	xlogging_get_log_function
 2288              	.LVL374:
 2289 0110 041E     		subs	r4, r0, #0
 2290              	.LVL375:
ARM GAS  C:\Users\Phuong\AppData\Local\Temp\ccPPbPWA.s 			page 57


 2291 0112 29D0     		beq	.L135
 553:Source\azure_iot_sdk\iothub_client\src/iothubtransport_amqp_cbs_auth.c ****             }
 2292              		.loc 1 553 0 is_stmt 0 discriminator 4
 2293 0114 2B4B     		ldr	r3, .L136+52
 2294 0116 0193     		str	r3, [sp, #4]
 2295 0118 0123     		movs	r3, #1
 2296 011a 0093     		str	r3, [sp]
 2297 011c 2A4B     		ldr	r3, .L136+56
 2298 011e 1D4A     		ldr	r2, .L136+4
 2299 0120 5C32     		adds	r2, r2, #92
 2300 0122 1D49     		ldr	r1, .L136+8
 2301 0124 0020     		movs	r0, #0
 2302              	.LVL376:
 2303 0126 A047     		blx	r4
 2304              	.LVL377:
 2305              	.LBE55:
 552:Source\azure_iot_sdk\iothub_client\src/iothubtransport_amqp_cbs_auth.c ****                 LogError("authentication_create failed (config->iothub_host_fqdn could not be copie
 2306              		.loc 1 552 0 is_stmt 1 discriminator 4
 2307 0128 0024     		movs	r4, #0
 2308              	.LVL378:
 2309 012a 1EE0     		b	.L127
 2310              	.LVL379:
 2311              	.L128:
 557:Source\azure_iot_sdk\iothub_client\src/iothubtransport_amqp_cbs_auth.c **** 
 2312              		.loc 1 557 0
 2313 012c 0022     		movs	r2, #0
 2314 012e 2823     		movs	r3, #40
 2315 0130 EA54     		strb	r2, [r5, r3]
 559:Source\azure_iot_sdk\iothub_client\src/iothubtransport_amqp_cbs_auth.c **** 
 2316              		.loc 1 559 0
 2317 0132 E069     		ldr	r0, [r4, #28]
 2318 0134 FFF7FEFF 		bl	IoTHubClient_Auth_Get_ModuleId
 2319              	.LVL380:
 2320 0138 6860     		str	r0, [r5, #4]
 562:Source\azure_iot_sdk\iothub_client\src/iothubtransport_amqp_cbs_auth.c ****                 instance->on_state_changed_callback_context = config->on_state_changed_callback_con
 2321              		.loc 1 562 0
 2322 013a E368     		ldr	r3, [r4, #12]
 2323 013c EB60     		str	r3, [r5, #12]
 563:Source\azure_iot_sdk\iothub_client\src/iothubtransport_amqp_cbs_auth.c **** 
 2324              		.loc 1 563 0
 2325 013e 2369     		ldr	r3, [r4, #16]
 2326 0140 2B61     		str	r3, [r5, #16]
 566:Source\azure_iot_sdk\iothub_client\src/iothubtransport_amqp_cbs_auth.c ****                 instance->on_error_callback_context = config->on_error_callback_context;
 2327              		.loc 1 566 0
 2328 0142 6369     		ldr	r3, [r4, #20]
 2329 0144 6B61     		str	r3, [r5, #20]
 567:Source\azure_iot_sdk\iothub_client\src/iothubtransport_amqp_cbs_auth.c **** 
 2330              		.loc 1 567 0
 2331 0146 A369     		ldr	r3, [r4, #24]
 2332 0148 AB61     		str	r3, [r5, #24]
 570:Source\azure_iot_sdk\iothub_client\src/iothubtransport_amqp_cbs_auth.c ****                 // Codes_SRS_IOTHUBTRANSPORT_AMQP_AUTH_09_022: [authentication_create() shall set `
 2333              		.loc 1 570 0
 2334 014a 0123     		movs	r3, #1
 2335 014c 5B42     		rsbs	r3, r3, #0
 2336 014e EB61     		str	r3, [r5, #28]
 572:Source\azure_iot_sdk\iothub_client\src/iothubtransport_amqp_cbs_auth.c ****                 // Codes_SRS_IOTHUBTRANSPORT_AMQP_AUTH_09_023: [authentication_create() shall set `
 2337              		.loc 1 572 0
ARM GAS  C:\Users\Phuong\AppData\Local\Temp\ccPPbPWA.s 			page 58


 2338 0150 E123     		movs	r3, #225
 2339 0152 1B01     		lsls	r3, r3, #4
 2340 0154 2B62     		str	r3, [r5, #32]
 574:Source\azure_iot_sdk\iothub_client\src/iothubtransport_amqp_cbs_auth.c **** 
 2341              		.loc 1 574 0
 2342 0156 E123     		movs	r3, #225
 2343 0158 DB00     		lsls	r3, r3, #3
 2344 015a 6B62     		str	r3, [r5, #36]
 576:Source\azure_iot_sdk\iothub_client\src/iothubtransport_amqp_cbs_auth.c **** 
 2345              		.loc 1 576 0
 2346 015c E369     		ldr	r3, [r4, #28]
 2347 015e AB63     		str	r3, [r5, #56]
 2348              	.LVL381:
 579:Source\azure_iot_sdk\iothub_client\src/iothubtransport_amqp_cbs_auth.c ****             }
 2349              		.loc 1 579 0
 2350 0160 2C00     		movs	r4, r5
 2351              	.LVL382:
 2352 0162 02E0     		b	.L127
 2353              	.LVL383:
 2354              	.L134:
 545:Source\azure_iot_sdk\iothub_client\src/iothubtransport_amqp_cbs_auth.c ****                 LogError("authentication_create failed (config->device_id could not be copied; STRI
 2355              		.loc 1 545 0
 2356 0164 0024     		movs	r4, #0
 2357 0166 00E0     		b	.L127
 2358              	.LVL384:
 2359              	.L135:
 552:Source\azure_iot_sdk\iothub_client\src/iothubtransport_amqp_cbs_auth.c ****                 LogError("authentication_create failed (config->iothub_host_fqdn could not be copie
 2360              		.loc 1 552 0
 2361 0168 0024     		movs	r4, #0
 2362              	.LVL385:
 2363              	.L127:
 583:Source\azure_iot_sdk\iothub_client\src/iothubtransport_amqp_cbs_auth.c ****             {
 2364              		.loc 1 583 0
 2365 016a 002C     		cmp	r4, #0
 2366 016c 0CD1     		bne	.L121
 585:Source\azure_iot_sdk\iothub_client\src/iothubtransport_amqp_cbs_auth.c ****             }
 2367              		.loc 1 585 0
 2368 016e 2800     		movs	r0, r5
 2369 0170 FFF7FEFF 		bl	authentication_destroy
 2370              	.LVL386:
 2371 0174 08E0     		b	.L121
 2372              	.LVL387:
 2373              	.L129:
 2374              	.LBE52:
 505:Source\azure_iot_sdk\iothub_client\src/iothubtransport_amqp_cbs_auth.c ****         LogError("authentication_create failed (config is NULL)");
 2375              		.loc 1 505 0
 2376 0176 0024     		movs	r4, #0
 2377 0178 06E0     		b	.L121
 2378              	.LVL388:
 2379              	.L130:
 510:Source\azure_iot_sdk\iothub_client\src/iothubtransport_amqp_cbs_auth.c ****         LogError("authentication_create failed (config->authorization_module is NULL)");
 2380              		.loc 1 510 0
 2381 017a 0024     		movs	r4, #0
 2382 017c 04E0     		b	.L121
 2383              	.LVL389:
 2384              	.L131:
 516:Source\azure_iot_sdk\iothub_client\src/iothubtransport_amqp_cbs_auth.c ****         LogError("authentication_create failed (config->iothub_host_fqdn is NULL)");
ARM GAS  C:\Users\Phuong\AppData\Local\Temp\ccPPbPWA.s 			page 59


 2385              		.loc 1 516 0
 2386 017e 0024     		movs	r4, #0
 2387 0180 02E0     		b	.L121
 2388              	.LVL390:
 2389              	.L132:
 522:Source\azure_iot_sdk\iothub_client\src/iothubtransport_amqp_cbs_auth.c ****         LogError("authentication_create failed (config->on_state_changed_callback is NULL)");
 2390              		.loc 1 522 0
 2391 0182 0024     		movs	r4, #0
 2392 0184 00E0     		b	.L121
 2393              	.LVL391:
 2394              	.L133:
 2395              	.LBB56:
 533:Source\azure_iot_sdk\iothub_client\src/iothubtransport_amqp_cbs_auth.c ****             LogError("authentication_create failed (malloc failed)");
 2396              		.loc 1 533 0
 2397 0186 2C00     		movs	r4, r5
 2398              	.LVL392:
 2399              	.L121:
 2400              	.LBE56:
 591:Source\azure_iot_sdk\iothub_client\src/iothubtransport_amqp_cbs_auth.c **** 
 2401              		.loc 1 591 0
 2402 0188 2000     		movs	r0, r4
 2403 018a 03B0     		add	sp, sp, #12
 2404              		@ sp needed
 2405              	.LVL393:
 2406 018c 30BD     		pop	{r4, r5, pc}
 2407              	.L137:
 2408 018e C046     		.align	2
 2409              	.L136:
 2410 0190 10080000 		.word	.LC105
 2411 0194 00010000 		.word	.LANCHOR2
 2412 0198 00000000 		.word	.LC1
 2413 019c 40080000 		.word	.LC107
 2414 01a0 FF010000 		.word	511
 2415 01a4 84080000 		.word	.LC109
 2416 01a8 05020000 		.word	517
 2417 01ac C4080000 		.word	.LC111
 2418 01b0 0B020000 		.word	523
 2419 01b4 10090000 		.word	.LC113
 2420 01b8 16020000 		.word	534
 2421 01bc 40090000 		.word	.LC115
 2422 01c0 22020000 		.word	546
 2423 01c4 A0090000 		.word	.LC117
 2424 01c8 29020000 		.word	553
 2425              		.cfi_endproc
 2426              	.LFE14:
 2427              		.size	authentication_create, .-authentication_create
 2428              		.section	.text.authentication_do_work,"ax",%progbits
 2429              		.align	2
 2430              		.global	authentication_do_work
 2431              		.code	16
 2432              		.thumb_func
 2433              		.type	authentication_do_work, %function
 2434              	authentication_do_work:
 2435              	.LFB15:
 594:Source\azure_iot_sdk\iothub_client\src/iothubtransport_amqp_cbs_auth.c ****     // Codes_SRS_IOTHUBTRANSPORT_AMQP_AUTH_09_036: [If authentication_handle is NULL, authenticatio
 2436              		.loc 1 594 0
 2437              		.cfi_startproc
ARM GAS  C:\Users\Phuong\AppData\Local\Temp\ccPPbPWA.s 			page 60


 2438              		@ args = 0, pretend = 0, frame = 8
 2439              		@ frame_needed = 0, uses_anonymous_args = 0
 2440              	.LVL394:
 2441 0000 30B5     		push	{r4, r5, lr}
 2442              		.cfi_def_cfa_offset 12
 2443              		.cfi_offset 4, -12
 2444              		.cfi_offset 5, -8
 2445              		.cfi_offset 14, -4
 2446 0002 87B0     		sub	sp, sp, #28
 2447              		.cfi_def_cfa_offset 40
 2448 0004 041E     		subs	r4, r0, #0
 596:Source\azure_iot_sdk\iothub_client\src/iothubtransport_amqp_cbs_auth.c ****     {
 2449              		.loc 1 596 0
 2450 0006 0FD1     		bne	.L139
 2451              	.LBB57:
 598:Source\azure_iot_sdk\iothub_client\src/iothubtransport_amqp_cbs_auth.c ****     }
 2452              		.loc 1 598 0 discriminator 3
 2453 0008 FFF7FEFF 		bl	xlogging_get_log_function
 2454              	.LVL395:
 2455 000c 041E     		subs	r4, r0, #0
 2456              	.LVL396:
 2457 000e 00D1     		bne	.LCB2735
 2458 0010 91E0     		b	.L138	@long jump
 2459              	.LCB2735:
 598:Source\azure_iot_sdk\iothub_client\src/iothubtransport_amqp_cbs_auth.c ****     }
 2460              		.loc 1 598 0 is_stmt 0 discriminator 4
 2461 0012 4A4B     		ldr	r3, .L149
 2462 0014 0193     		str	r3, [sp, #4]
 2463 0016 0123     		movs	r3, #1
 2464 0018 0093     		str	r3, [sp]
 2465 001a 494B     		ldr	r3, .L149+4
 2466 001c 494A     		ldr	r2, .L149+8
 2467 001e 7432     		adds	r2, r2, #116
 2468 0020 4949     		ldr	r1, .L149+12
 2469 0022 0020     		movs	r0, #0
 2470              	.LVL397:
 2471 0024 A047     		blx	r4
 2472              	.LVL398:
 2473 0026 86E0     		b	.L138
 2474              	.LVL399:
 2475              	.L139:
 2476              	.LBE57:
 2477              	.LBB58:
 605:Source\azure_iot_sdk\iothub_client\src/iothubtransport_amqp_cbs_auth.c ****         {
 2478              		.loc 1 605 0 is_stmt 1
 2479 0028 3023     		movs	r3, #48
 2480 002a C35C     		ldrb	r3, [r0, r3]
 2481 002c 002B     		cmp	r3, #0
 2482 002e 22D0     		beq	.L141
 2483              	.LBB59:
 610:Source\azure_iot_sdk\iothub_client\src/iothubtransport_amqp_cbs_auth.c ****             {
 2484              		.loc 1 610 0
 2485 0030 1721     		movs	r1, #23
 2486 0032 6944     		add	r1, r1, sp
 2487 0034 FFF7FEFF 		bl	verify_cbs_put_token_timeout
 2488              	.LVL400:
 2489 0038 0028     		cmp	r0, #0
ARM GAS  C:\Users\Phuong\AppData\Local\Temp\ccPPbPWA.s 			page 61


 2490 003a 7CD1     		bne	.L138
 610:Source\azure_iot_sdk\iothub_client\src/iothubtransport_amqp_cbs_auth.c ****             {
 2491              		.loc 1 610 0 is_stmt 0 discriminator 1
 2492 003c 1723     		movs	r3, #23
 2493 003e 6B44     		add	r3, r3, sp
 2494 0040 1B78     		ldrb	r3, [r3]
 2495 0042 002B     		cmp	r3, #0
 2496 0044 77D0     		beq	.L138
 613:Source\azure_iot_sdk\iothub_client\src/iothubtransport_amqp_cbs_auth.c **** 
 2497              		.loc 1 613 0 is_stmt 1
 2498 0046 0022     		movs	r2, #0
 2499 0048 3023     		movs	r3, #48
 2500 004a E254     		strb	r2, [r4, r3]
 616:Source\azure_iot_sdk\iothub_client\src/iothubtransport_amqp_cbs_auth.c **** 
 2501              		.loc 1 616 0
 2502 004c 0321     		movs	r1, #3
 2503 004e 2000     		movs	r0, r4
 2504 0050 FFF7FEFF 		bl	update_state
 2505              	.LVL401:
 618:Source\azure_iot_sdk\iothub_client\src/iothubtransport_amqp_cbs_auth.c ****                 {
 2506              		.loc 1 618 0
 2507 0054 3123     		movs	r3, #49
 2508 0056 E35C     		ldrb	r3, [r4, r3]
 2509 0058 002B     		cmp	r3, #0
 2510 005a 04D0     		beq	.L143
 621:Source\azure_iot_sdk\iothub_client\src/iothubtransport_amqp_cbs_auth.c ****                 }
 2511              		.loc 1 621 0
 2512 005c 0221     		movs	r1, #2
 2513 005e 2000     		movs	r0, r4
 2514 0060 FFF7FEFF 		bl	notify_error
 2515              	.LVL402:
 2516 0064 03E0     		b	.L144
 2517              	.L143:
 626:Source\azure_iot_sdk\iothub_client\src/iothubtransport_amqp_cbs_auth.c ****                 }
 2518              		.loc 1 626 0
 2519 0066 0021     		movs	r1, #0
 2520 0068 2000     		movs	r0, r4
 2521 006a FFF7FEFF 		bl	notify_error
 2522              	.LVL403:
 2523              	.L144:
 630:Source\azure_iot_sdk\iothub_client\src/iothubtransport_amqp_cbs_auth.c ****             }
 2524              		.loc 1 630 0
 2525 006e 0022     		movs	r2, #0
 2526 0070 3123     		movs	r3, #49
 2527 0072 E254     		strb	r2, [r4, r3]
 2528 0074 5FE0     		b	.L138
 2529              	.LVL404:
 2530              	.L141:
 2531              	.LBE59:
 633:Source\azure_iot_sdk\iothub_client\src/iothubtransport_amqp_cbs_auth.c ****         {
 2532              		.loc 1 633 0
 2533 0076 2823     		movs	r3, #40
 2534 0078 C35C     		ldrb	r3, [r0, r3]
 2535 007a 022B     		cmp	r3, #2
 2536 007c 39D1     		bne	.L145
 636:Source\azure_iot_sdk\iothub_client\src/iothubtransport_amqp_cbs_auth.c ****             {
 2537              		.loc 1 636 0
ARM GAS  C:\Users\Phuong\AppData\Local\Temp\ccPPbPWA.s 			page 62


 2538 007e 806B     		ldr	r0, [r0, #56]
 2539              	.LVL405:
 2540 0080 FFF7FEFF 		bl	IoTHubClient_Auth_Get_Credential_Type
 2541              	.LVL406:
 2542 0084 0128     		cmp	r0, #1
 2543 0086 56D1     		bne	.L138
 2544              	.LBB60:
 642:Source\azure_iot_sdk\iothub_client\src/iothubtransport_amqp_cbs_auth.c ****                 {
 2545              		.loc 1 642 0
 2546 0088 1721     		movs	r1, #23
 2547 008a 6944     		add	r1, r1, sp
 2548 008c 2000     		movs	r0, r4
 2549 008e FFF7FEFF 		bl	verify_sas_token_refresh_timeout
 2550              	.LVL407:
 2551 0092 0028     		cmp	r0, #0
 2552 0094 4FD1     		bne	.L138
 642:Source\azure_iot_sdk\iothub_client\src/iothubtransport_amqp_cbs_auth.c ****                 {
 2553              		.loc 1 642 0 is_stmt 0 discriminator 1
 2554 0096 1723     		movs	r3, #23
 2555 0098 6B44     		add	r3, r3, sp
 2556 009a 1B78     		ldrb	r3, [r3]
 2557 009c 002B     		cmp	r3, #0
 2558 009e 4AD0     		beq	.L138
 645:Source\azure_iot_sdk\iothub_client\src/iothubtransport_amqp_cbs_auth.c **** 
 2559              		.loc 1 645 0 is_stmt 1
 2560 00a0 0122     		movs	r2, #1
 2561 00a2 3123     		movs	r3, #49
 2562 00a4 E254     		strb	r2, [r4, r3]
 650:Source\azure_iot_sdk\iothub_client\src/iothubtransport_amqp_cbs_auth.c ****                     {
 2563              		.loc 1 650 0
 2564 00a6 2000     		movs	r0, r4
 2565 00a8 FFF7FEFF 		bl	create_and_put_SAS_token_to_cbs
 2566              	.LVL408:
 2567 00ac 0028     		cmp	r0, #0
 2568 00ae 10D0     		beq	.L147
 2569              	.LBB61:
 652:Source\azure_iot_sdk\iothub_client\src/iothubtransport_amqp_cbs_auth.c ****                     }
 2570              		.loc 1 652 0 discriminator 3
 2571 00b0 FFF7FEFF 		bl	xlogging_get_log_function
 2572              	.LVL409:
 2573 00b4 051E     		subs	r5, r0, #0
 2574              	.LVL410:
 2575 00b6 0CD0     		beq	.L147
 652:Source\azure_iot_sdk\iothub_client\src/iothubtransport_amqp_cbs_auth.c ****                     }
 2576              		.loc 1 652 0 is_stmt 0 discriminator 4
 2577 00b8 2368     		ldr	r3, [r4]
 2578 00ba 0293     		str	r3, [sp, #8]
 2579 00bc 234B     		ldr	r3, .L149+16
 2580 00be 0193     		str	r3, [sp, #4]
 2581 00c0 0123     		movs	r3, #1
 2582 00c2 0093     		str	r3, [sp]
 2583 00c4 A323     		movs	r3, #163
 2584 00c6 9B00     		lsls	r3, r3, #2
 2585 00c8 1E4A     		ldr	r2, .L149+8
 2586 00ca 7432     		adds	r2, r2, #116
 2587 00cc 1E49     		ldr	r1, .L149+12
 2588 00ce 0020     		movs	r0, #0
ARM GAS  C:\Users\Phuong\AppData\Local\Temp\ccPPbPWA.s 			page 63


 2589              	.LVL411:
 2590 00d0 A847     		blx	r5
 2591              	.LVL412:
 2592              	.L147:
 2593              	.LBE61:
 655:Source\azure_iot_sdk\iothub_client\src/iothubtransport_amqp_cbs_auth.c ****                     {
 2594              		.loc 1 655 0 is_stmt 1
 2595 00d2 3023     		movs	r3, #48
 2596 00d4 E35C     		ldrb	r3, [r4, r3]
 2597 00d6 002B     		cmp	r3, #0
 2598 00d8 2DD1     		bne	.L138
 658:Source\azure_iot_sdk\iothub_client\src/iothubtransport_amqp_cbs_auth.c **** 
 2599              		.loc 1 658 0
 2600 00da 0022     		movs	r2, #0
 2601 00dc 3133     		adds	r3, r3, #49
 2602 00de E254     		strb	r2, [r4, r3]
 661:Source\azure_iot_sdk\iothub_client\src/iothubtransport_amqp_cbs_auth.c **** 
 2603              		.loc 1 661 0
 2604 00e0 0321     		movs	r1, #3
 2605 00e2 2000     		movs	r0, r4
 2606 00e4 FFF7FEFF 		bl	update_state
 2607              	.LVL413:
 664:Source\azure_iot_sdk\iothub_client\src/iothubtransport_amqp_cbs_auth.c ****                     }
 2608              		.loc 1 664 0
 2609 00e8 0321     		movs	r1, #3
 2610 00ea 2000     		movs	r0, r4
 2611 00ec FFF7FEFF 		bl	notify_error
 2612              	.LVL414:
 2613 00f0 21E0     		b	.L138
 2614              	.LVL415:
 2615              	.L145:
 2616              	.LBE60:
 669:Source\azure_iot_sdk\iothub_client\src/iothubtransport_amqp_cbs_auth.c ****         {
 2617              		.loc 1 669 0
 2618 00f2 012B     		cmp	r3, #1
 2619 00f4 1FD1     		bne	.L138
 671:Source\azure_iot_sdk\iothub_client\src/iothubtransport_amqp_cbs_auth.c ****             {
 2620              		.loc 1 671 0
 2621 00f6 FFF7FEFF 		bl	create_and_put_SAS_token_to_cbs
 2622              	.LVL416:
 2623 00fa 0028     		cmp	r0, #0
 2624 00fc 0FD0     		beq	.L148
 2625              	.LBB62:
 673:Source\azure_iot_sdk\iothub_client\src/iothubtransport_amqp_cbs_auth.c ****             }
 2626              		.loc 1 673 0 discriminator 3
 2627 00fe FFF7FEFF 		bl	xlogging_get_log_function
 2628              	.LVL417:
 2629 0102 051E     		subs	r5, r0, #0
 2630              	.LVL418:
 2631 0104 0BD0     		beq	.L148
 673:Source\azure_iot_sdk\iothub_client\src/iothubtransport_amqp_cbs_auth.c ****             }
 2632              		.loc 1 673 0 is_stmt 0 discriminator 4
 2633 0106 2368     		ldr	r3, [r4]
 2634 0108 0293     		str	r3, [sp, #8]
 2635 010a 114B     		ldr	r3, .L149+20
 2636 010c 0193     		str	r3, [sp, #4]
 2637 010e 0123     		movs	r3, #1
ARM GAS  C:\Users\Phuong\AppData\Local\Temp\ccPPbPWA.s 			page 64


 2638 0110 0093     		str	r3, [sp]
 2639 0112 104B     		ldr	r3, .L149+24
 2640 0114 0B4A     		ldr	r2, .L149+8
 2641 0116 7432     		adds	r2, r2, #116
 2642 0118 0B49     		ldr	r1, .L149+12
 2643 011a 0020     		movs	r0, #0
 2644              	.LVL419:
 2645 011c A847     		blx	r5
 2646              	.LVL420:
 2647              	.L148:
 2648              	.LBE62:
 676:Source\azure_iot_sdk\iothub_client\src/iothubtransport_amqp_cbs_auth.c ****             {
 2649              		.loc 1 676 0 is_stmt 1
 2650 011e 3023     		movs	r3, #48
 2651 0120 E35C     		ldrb	r3, [r4, r3]
 2652 0122 002B     		cmp	r3, #0
 2653 0124 07D1     		bne	.L138
 680:Source\azure_iot_sdk\iothub_client\src/iothubtransport_amqp_cbs_auth.c **** 
 2654              		.loc 1 680 0
 2655 0126 0321     		movs	r1, #3
 2656 0128 2000     		movs	r0, r4
 2657 012a FFF7FEFF 		bl	update_state
 2658              	.LVL421:
 684:Source\azure_iot_sdk\iothub_client\src/iothubtransport_amqp_cbs_auth.c ****             }
 2659              		.loc 1 684 0
 2660 012e 0121     		movs	r1, #1
 2661 0130 2000     		movs	r0, r4
 2662 0132 FFF7FEFF 		bl	notify_error
 2663              	.LVL422:
 2664              	.L138:
 2665              	.LBE58:
 693:Source\azure_iot_sdk\iothub_client\src/iothubtransport_amqp_cbs_auth.c **** 
 2666              		.loc 1 693 0
 2667 0136 07B0     		add	sp, sp, #28
 2668              		@ sp needed
 2669 0138 30BD     		pop	{r4, r5, pc}
 2670              	.L150:
 2671 013a C046     		.align	2
 2672              	.L149:
 2673 013c 080A0000 		.word	.LC121
 2674 0140 56020000 		.word	598
 2675 0144 00010000 		.word	.LANCHOR2
 2676 0148 00000000 		.word	.LC1
 2677 014c 480A0000 		.word	.LC123
 2678 0150 680A0000 		.word	.LC125
 2679 0154 A1020000 		.word	673
 2680              		.cfi_endproc
 2681              	.LFE15:
 2682              		.size	authentication_do_work, .-authentication_do_work
 2683              		.section	.text.authentication_retrieve_options,"ax",%progbits
 2684              		.align	2
 2685              		.global	authentication_retrieve_options
 2686              		.code	16
 2687              		.thumb_func
 2688              		.type	authentication_retrieve_options, %function
 2689              	authentication_retrieve_options:
 2690              	.LFB17:
ARM GAS  C:\Users\Phuong\AppData\Local\Temp\ccPPbPWA.s 			page 65


 753:Source\azure_iot_sdk\iothub_client\src/iothubtransport_amqp_cbs_auth.c **** 
 754:Source\azure_iot_sdk\iothub_client\src/iothubtransport_amqp_cbs_auth.c **** OPTIONHANDLER_HANDLE authentication_retrieve_options(AUTHENTICATION_HANDLE authentication_handle)
 755:Source\azure_iot_sdk\iothub_client\src/iothubtransport_amqp_cbs_auth.c **** {
 2691              		.loc 1 755 0
 2692              		.cfi_startproc
 2693              		@ args = 0, pretend = 0, frame = 0
 2694              		@ frame_needed = 0, uses_anonymous_args = 0
 2695              	.LVL423:
 2696 0000 30B5     		push	{r4, r5, lr}
 2697              		.cfi_def_cfa_offset 12
 2698              		.cfi_offset 4, -12
 2699              		.cfi_offset 5, -8
 2700              		.cfi_offset 14, -4
 2701 0002 85B0     		sub	sp, sp, #20
 2702              		.cfi_def_cfa_offset 32
 2703 0004 041E     		subs	r4, r0, #0
 756:Source\azure_iot_sdk\iothub_client\src/iothubtransport_amqp_cbs_auth.c ****     OPTIONHANDLER_HANDLE result;
 757:Source\azure_iot_sdk\iothub_client\src/iothubtransport_amqp_cbs_auth.c **** 
 758:Source\azure_iot_sdk\iothub_client\src/iothubtransport_amqp_cbs_auth.c ****     // Codes_SRS_IOTHUBTRANSPORT_AMQP_AUTH_09_100: [If `authentication_handle` is NULL, authenticat
 759:Source\azure_iot_sdk\iothub_client\src/iothubtransport_amqp_cbs_auth.c ****     if (authentication_handle == NULL)
 2704              		.loc 1 759 0
 2705 0006 10D1     		bne	.L152
 2706              	.LBB63:
 760:Source\azure_iot_sdk\iothub_client\src/iothubtransport_amqp_cbs_auth.c ****     {
 761:Source\azure_iot_sdk\iothub_client\src/iothubtransport_amqp_cbs_auth.c ****         LogError("Failed to retrieve options from authentication instance (authentication_handle is
 2707              		.loc 1 761 0 discriminator 3
 2708 0008 FFF7FEFF 		bl	xlogging_get_log_function
 2709              	.LVL424:
 2710 000c 041E     		subs	r4, r0, #0
 2711              	.LVL425:
 2712 000e 00D1     		bne	.LCB2992
 2713 0010 7EE0     		b	.L158	@long jump
 2714              	.LCB2992:
 2715              		.loc 1 761 0 is_stmt 0 discriminator 4
 2716 0012 424B     		ldr	r3, .L164
 2717 0014 0193     		str	r3, [sp, #4]
 2718 0016 0123     		movs	r3, #1
 2719 0018 0093     		str	r3, [sp]
 2720 001a 414B     		ldr	r3, .L164+4
 2721 001c 414A     		ldr	r2, .L164+8
 2722 001e 0C32     		adds	r2, r2, #12
 2723 0020 4149     		ldr	r1, .L164+12
 2724 0022 0020     		movs	r0, #0
 2725              	.LVL426:
 2726 0024 A047     		blx	r4
 2727              	.LVL427:
 2728              	.LBE63:
 762:Source\azure_iot_sdk\iothub_client\src/iothubtransport_amqp_cbs_auth.c ****         result = NULL;
 2729              		.loc 1 762 0 is_stmt 1 discriminator 4
 2730 0026 0024     		movs	r4, #0
 2731              	.LVL428:
 2732 0028 75E0     		b	.L153
 2733              	.LVL429:
 2734              	.L152:
 2735              	.LBB64:
 763:Source\azure_iot_sdk\iothub_client\src/iothubtransport_amqp_cbs_auth.c ****     }
 764:Source\azure_iot_sdk\iothub_client\src/iothubtransport_amqp_cbs_auth.c ****     else
ARM GAS  C:\Users\Phuong\AppData\Local\Temp\ccPPbPWA.s 			page 66


 765:Source\azure_iot_sdk\iothub_client\src/iothubtransport_amqp_cbs_auth.c ****     {
 766:Source\azure_iot_sdk\iothub_client\src/iothubtransport_amqp_cbs_auth.c ****         // Codes_SRS_IOTHUBTRANSPORT_AMQP_AUTH_09_101: [An OPTIONHANDLER_HANDLE instance shall be c
 767:Source\azure_iot_sdk\iothub_client\src/iothubtransport_amqp_cbs_auth.c ****         OPTIONHANDLER_HANDLE options = OptionHandler_Create(authentication_clone_option, authentica
 2736              		.loc 1 767 0
 2737 002a 404A     		ldr	r2, .L164+16
 2738 002c 4049     		ldr	r1, .L164+20
 2739 002e 4148     		ldr	r0, .L164+24
 2740              	.LVL430:
 2741 0030 FFF7FEFF 		bl	OptionHandler_Create
 2742              	.LVL431:
 2743 0034 051E     		subs	r5, r0, #0
 2744              	.LVL432:
 768:Source\azure_iot_sdk\iothub_client\src/iothubtransport_amqp_cbs_auth.c **** 
 769:Source\azure_iot_sdk\iothub_client\src/iothubtransport_amqp_cbs_auth.c ****         if (options == NULL)
 2745              		.loc 1 769 0
 2746 0036 10D1     		bne	.L154
 2747              	.LBB65:
 770:Source\azure_iot_sdk\iothub_client\src/iothubtransport_amqp_cbs_auth.c ****         {
 771:Source\azure_iot_sdk\iothub_client\src/iothubtransport_amqp_cbs_auth.c ****             // Codes_SRS_IOTHUBTRANSPORT_AMQP_AUTH_09_102: [If an OPTIONHANDLER_HANDLE instance fai
 772:Source\azure_iot_sdk\iothub_client\src/iothubtransport_amqp_cbs_auth.c ****             LogError("Failed to retrieve options from authentication instance (OptionHandler_Create
 2748              		.loc 1 772 0 discriminator 3
 2749 0038 FFF7FEFF 		bl	xlogging_get_log_function
 2750              	.LVL433:
 2751 003c 041E     		subs	r4, r0, #0
 2752              	.LVL434:
 2753 003e 69D0     		beq	.L159
 2754              		.loc 1 772 0 is_stmt 0 discriminator 4
 2755 0040 3D4B     		ldr	r3, .L164+28
 2756 0042 0193     		str	r3, [sp, #4]
 2757 0044 0123     		movs	r3, #1
 2758 0046 0093     		str	r3, [sp]
 2759 0048 C123     		movs	r3, #193
 2760 004a 9B00     		lsls	r3, r3, #2
 2761 004c 354A     		ldr	r2, .L164+8
 2762 004e 0C32     		adds	r2, r2, #12
 2763 0050 3549     		ldr	r1, .L164+12
 2764 0052 0020     		movs	r0, #0
 2765              	.LVL435:
 2766 0054 A047     		blx	r4
 2767              	.LVL436:
 2768              	.LBE65:
 773:Source\azure_iot_sdk\iothub_client\src/iothubtransport_amqp_cbs_auth.c ****             result = NULL;
 2769              		.loc 1 773 0 is_stmt 1 discriminator 4
 2770 0056 2C00     		movs	r4, r5
 2771              	.LVL437:
 2772 0058 5DE0     		b	.L153
 2773              	.LVL438:
 2774              	.L154:
 2775              	.LBB66:
 774:Source\azure_iot_sdk\iothub_client\src/iothubtransport_amqp_cbs_auth.c ****         }
 775:Source\azure_iot_sdk\iothub_client\src/iothubtransport_amqp_cbs_auth.c ****         else
 776:Source\azure_iot_sdk\iothub_client\src/iothubtransport_amqp_cbs_auth.c ****         {
 777:Source\azure_iot_sdk\iothub_client\src/iothubtransport_amqp_cbs_auth.c ****             AUTHENTICATION_INSTANCE* instance = (AUTHENTICATION_INSTANCE*)authentication_handle;
 778:Source\azure_iot_sdk\iothub_client\src/iothubtransport_amqp_cbs_auth.c **** 
 779:Source\azure_iot_sdk\iothub_client\src/iothubtransport_amqp_cbs_auth.c ****             // Codes_SRS_IOTHUBTRANSPORT_AMQP_AUTH_09_103: [Each option of `instance` shall be adde
 780:Source\azure_iot_sdk\iothub_client\src/iothubtransport_amqp_cbs_auth.c ****             // Codes_SRS_IOTHUBTRANSPORT_AMQP_AUTH_09_104: [If OptionHandler_AddOption fails, authe
 781:Source\azure_iot_sdk\iothub_client\src/iothubtransport_amqp_cbs_auth.c ****             if (OptionHandler_AddOption(options, AUTHENTICATION_OPTION_CBS_REQUEST_TIMEOUT_SECS, (v
ARM GAS  C:\Users\Phuong\AppData\Local\Temp\ccPPbPWA.s 			page 67


 2776              		.loc 1 781 0
 2777 005a 2200     		movs	r2, r4
 2778 005c 1C32     		adds	r2, r2, #28
 2779 005e 3749     		ldr	r1, .L164+32
 2780 0060 FFF7FEFF 		bl	OptionHandler_AddOption
 2781              	.LVL439:
 2782 0064 0028     		cmp	r0, #0
 2783 0066 11D0     		beq	.L155
 2784              	.LBB67:
 782:Source\azure_iot_sdk\iothub_client\src/iothubtransport_amqp_cbs_auth.c ****             {
 783:Source\azure_iot_sdk\iothub_client\src/iothubtransport_amqp_cbs_auth.c ****                 LogError("Failed to retrieve options from authentication instance (OptionHandler_Cr
 2785              		.loc 1 783 0 discriminator 3
 2786 0068 FFF7FEFF 		bl	xlogging_get_log_function
 2787              	.LVL440:
 2788 006c 041E     		subs	r4, r0, #0
 2789              	.LVL441:
 2790 006e 42D0     		beq	.L160
 2791              		.loc 1 783 0 is_stmt 0 discriminator 4
 2792 0070 324B     		ldr	r3, .L164+32
 2793 0072 0293     		str	r3, [sp, #8]
 2794 0074 324B     		ldr	r3, .L164+36
 2795 0076 0193     		str	r3, [sp, #4]
 2796 0078 0123     		movs	r3, #1
 2797 007a 0093     		str	r3, [sp]
 2798 007c 314B     		ldr	r3, .L164+40
 2799 007e 294A     		ldr	r2, .L164+8
 2800 0080 0C32     		adds	r2, r2, #12
 2801 0082 2949     		ldr	r1, .L164+12
 2802 0084 0020     		movs	r0, #0
 2803              	.LVL442:
 2804 0086 A047     		blx	r4
 2805              	.LVL443:
 2806              	.LBE67:
 784:Source\azure_iot_sdk\iothub_client\src/iothubtransport_amqp_cbs_auth.c ****                 result = NULL;
 2807              		.loc 1 784 0 is_stmt 1 discriminator 4
 2808 0088 0024     		movs	r4, #0
 2809              	.LVL444:
 2810 008a 3BE0     		b	.L156
 2811              	.LVL445:
 2812              	.L155:
 785:Source\azure_iot_sdk\iothub_client\src/iothubtransport_amqp_cbs_auth.c ****             }
 786:Source\azure_iot_sdk\iothub_client\src/iothubtransport_amqp_cbs_auth.c ****             else if (OptionHandler_AddOption(options, AUTHENTICATION_OPTION_SAS_TOKEN_REFRESH_TIME_
 2813              		.loc 1 786 0
 2814 008c 2200     		movs	r2, r4
 2815 008e 2432     		adds	r2, r2, #36
 2816 0090 2D49     		ldr	r1, .L164+44
 2817 0092 2800     		movs	r0, r5
 2818 0094 FFF7FEFF 		bl	OptionHandler_AddOption
 2819              	.LVL446:
 2820 0098 0028     		cmp	r0, #0
 2821 009a 12D0     		beq	.L157
 2822              	.LBB68:
 787:Source\azure_iot_sdk\iothub_client\src/iothubtransport_amqp_cbs_auth.c ****             {
 788:Source\azure_iot_sdk\iothub_client\src/iothubtransport_amqp_cbs_auth.c ****                 LogError("Failed to retrieve options from authentication instance (OptionHandler_Cr
 2823              		.loc 1 788 0 discriminator 3
 2824 009c FFF7FEFF 		bl	xlogging_get_log_function
 2825              	.LVL447:
ARM GAS  C:\Users\Phuong\AppData\Local\Temp\ccPPbPWA.s 			page 68


 2826 00a0 041E     		subs	r4, r0, #0
 2827              	.LVL448:
 2828 00a2 2AD0     		beq	.L161
 2829              		.loc 1 788 0 is_stmt 0 discriminator 4
 2830 00a4 284B     		ldr	r3, .L164+44
 2831 00a6 0293     		str	r3, [sp, #8]
 2832 00a8 254B     		ldr	r3, .L164+36
 2833 00aa 0193     		str	r3, [sp, #4]
 2834 00ac 0123     		movs	r3, #1
 2835 00ae 0093     		str	r3, [sp]
 2836 00b0 C523     		movs	r3, #197
 2837 00b2 9B00     		lsls	r3, r3, #2
 2838 00b4 1B4A     		ldr	r2, .L164+8
 2839 00b6 0C32     		adds	r2, r2, #12
 2840 00b8 1B49     		ldr	r1, .L164+12
 2841 00ba 0020     		movs	r0, #0
 2842              	.LVL449:
 2843 00bc A047     		blx	r4
 2844              	.LVL450:
 2845              	.LBE68:
 789:Source\azure_iot_sdk\iothub_client\src/iothubtransport_amqp_cbs_auth.c ****                 result = NULL;
 2846              		.loc 1 789 0 is_stmt 1 discriminator 4
 2847 00be 0024     		movs	r4, #0
 2848              	.LVL451:
 2849 00c0 20E0     		b	.L156
 2850              	.LVL452:
 2851              	.L157:
 790:Source\azure_iot_sdk\iothub_client\src/iothubtransport_amqp_cbs_auth.c ****             }
 791:Source\azure_iot_sdk\iothub_client\src/iothubtransport_amqp_cbs_auth.c ****             else if (OptionHandler_AddOption(options, AUTHENTICATION_OPTION_SAS_TOKEN_LIFETIME_SECS
 2852              		.loc 1 791 0
 2853 00c2 2200     		movs	r2, r4
 2854 00c4 2032     		adds	r2, r2, #32
 2855 00c6 2149     		ldr	r1, .L164+48
 2856 00c8 2800     		movs	r0, r5
 2857 00ca FFF7FEFF 		bl	OptionHandler_AddOption
 2858              	.LVL453:
 2859 00ce 0028     		cmp	r0, #0
 2860 00d0 15D0     		beq	.L162
 2861              	.LBB69:
 792:Source\azure_iot_sdk\iothub_client\src/iothubtransport_amqp_cbs_auth.c ****             {
 793:Source\azure_iot_sdk\iothub_client\src/iothubtransport_amqp_cbs_auth.c ****                 LogError("Failed to retrieve options from authentication instance (OptionHandler_Cr
 2862              		.loc 1 793 0 discriminator 3
 2863 00d2 FFF7FEFF 		bl	xlogging_get_log_function
 2864              	.LVL454:
 2865 00d6 041E     		subs	r4, r0, #0
 2866              	.LVL455:
 2867 00d8 13D0     		beq	.L163
 2868              		.loc 1 793 0 is_stmt 0 discriminator 4
 2869 00da 1C4B     		ldr	r3, .L164+48
 2870 00dc 0293     		str	r3, [sp, #8]
 2871 00de 184B     		ldr	r3, .L164+36
 2872 00e0 0193     		str	r3, [sp, #4]
 2873 00e2 0123     		movs	r3, #1
 2874 00e4 0093     		str	r3, [sp]
 2875 00e6 1A4B     		ldr	r3, .L164+52
 2876 00e8 0E4A     		ldr	r2, .L164+8
 2877 00ea 0C32     		adds	r2, r2, #12
ARM GAS  C:\Users\Phuong\AppData\Local\Temp\ccPPbPWA.s 			page 69


 2878 00ec 0E49     		ldr	r1, .L164+12
 2879 00ee 0020     		movs	r0, #0
 2880              	.LVL456:
 2881 00f0 A047     		blx	r4
 2882              	.LVL457:
 2883              	.LBE69:
 794:Source\azure_iot_sdk\iothub_client\src/iothubtransport_amqp_cbs_auth.c ****                 result = NULL;
 2884              		.loc 1 794 0 is_stmt 1 discriminator 4
 2885 00f2 0024     		movs	r4, #0
 2886              	.LVL458:
 2887 00f4 06E0     		b	.L156
 2888              	.LVL459:
 2889              	.L160:
 784:Source\azure_iot_sdk\iothub_client\src/iothubtransport_amqp_cbs_auth.c ****             }
 2890              		.loc 1 784 0
 2891 00f6 0024     		movs	r4, #0
 2892 00f8 04E0     		b	.L156
 2893              	.LVL460:
 2894              	.L161:
 789:Source\azure_iot_sdk\iothub_client\src/iothubtransport_amqp_cbs_auth.c ****             }
 2895              		.loc 1 789 0
 2896 00fa 0024     		movs	r4, #0
 2897 00fc 02E0     		b	.L156
 2898              	.LVL461:
 2899              	.L162:
 795:Source\azure_iot_sdk\iothub_client\src/iothubtransport_amqp_cbs_auth.c ****             }
 796:Source\azure_iot_sdk\iothub_client\src/iothubtransport_amqp_cbs_auth.c ****             else
 797:Source\azure_iot_sdk\iothub_client\src/iothubtransport_amqp_cbs_auth.c ****             {
 798:Source\azure_iot_sdk\iothub_client\src/iothubtransport_amqp_cbs_auth.c ****                 // Codes_SRS_IOTHUBTRANSPORT_AMQP_AUTH_09_127: [If no failures occur, authenticatio
 799:Source\azure_iot_sdk\iothub_client\src/iothubtransport_amqp_cbs_auth.c ****                 result = options;
 2900              		.loc 1 799 0
 2901 00fe 2C00     		movs	r4, r5
 2902              	.LVL462:
 2903 0100 00E0     		b	.L156
 2904              	.LVL463:
 2905              	.L163:
 794:Source\azure_iot_sdk\iothub_client\src/iothubtransport_amqp_cbs_auth.c ****             }
 2906              		.loc 1 794 0
 2907 0102 0024     		movs	r4, #0
 2908              	.LVL464:
 2909              	.L156:
 800:Source\azure_iot_sdk\iothub_client\src/iothubtransport_amqp_cbs_auth.c ****             }
 801:Source\azure_iot_sdk\iothub_client\src/iothubtransport_amqp_cbs_auth.c **** 
 802:Source\azure_iot_sdk\iothub_client\src/iothubtransport_amqp_cbs_auth.c ****             if (result == NULL)
 2910              		.loc 1 802 0
 2911 0104 002C     		cmp	r4, #0
 2912 0106 06D1     		bne	.L153
 803:Source\azure_iot_sdk\iothub_client\src/iothubtransport_amqp_cbs_auth.c ****             {
 804:Source\azure_iot_sdk\iothub_client\src/iothubtransport_amqp_cbs_auth.c ****                 // Codes_SRS_IOTHUBTRANSPORT_AMQP_AUTH_09_105: [If authentication_retrieve_options 
 805:Source\azure_iot_sdk\iothub_client\src/iothubtransport_amqp_cbs_auth.c ****                 OptionHandler_Destroy(options);
 2913              		.loc 1 805 0
 2914 0108 2800     		movs	r0, r5
 2915 010a FFF7FEFF 		bl	OptionHandler_Destroy
 2916              	.LVL465:
 2917 010e 02E0     		b	.L153
 2918              	.LVL466:
 2919              	.L158:
ARM GAS  C:\Users\Phuong\AppData\Local\Temp\ccPPbPWA.s 			page 70


 2920              	.LBE66:
 2921              	.LBE64:
 762:Source\azure_iot_sdk\iothub_client\src/iothubtransport_amqp_cbs_auth.c ****     }
 2922              		.loc 1 762 0
 2923 0110 0024     		movs	r4, #0
 2924 0112 00E0     		b	.L153
 2925              	.LVL467:
 2926              	.L159:
 2927              	.LBB70:
 773:Source\azure_iot_sdk\iothub_client\src/iothubtransport_amqp_cbs_auth.c ****         }
 2928              		.loc 1 773 0
 2929 0114 2C00     		movs	r4, r5
 2930              	.LVL468:
 2931              	.L153:
 2932              	.LBE70:
 806:Source\azure_iot_sdk\iothub_client\src/iothubtransport_amqp_cbs_auth.c ****             }
 807:Source\azure_iot_sdk\iothub_client\src/iothubtransport_amqp_cbs_auth.c ****         }
 808:Source\azure_iot_sdk\iothub_client\src/iothubtransport_amqp_cbs_auth.c ****     }
 809:Source\azure_iot_sdk\iothub_client\src/iothubtransport_amqp_cbs_auth.c ****     return result;
 810:Source\azure_iot_sdk\iothub_client\src/iothubtransport_amqp_cbs_auth.c **** }
 2933              		.loc 1 810 0
 2934 0116 2000     		movs	r0, r4
 2935 0118 05B0     		add	sp, sp, #20
 2936              		@ sp needed
 2937              	.LVL469:
 2938 011a 30BD     		pop	{r4, r5, pc}
 2939              	.L165:
 2940              		.align	2
 2941              	.L164:
 2942 011c 9C0A0000 		.word	.LC129
 2943 0120 F9020000 		.word	761
 2944 0124 80010000 		.word	.LANCHOR3
 2945 0128 00000000 		.word	.LC1
 2946 012c 00000000 		.word	authentication_set_option
 2947 0130 00000000 		.word	authentication_destroy_option
 2948 0134 00000000 		.word	authentication_clone_option
 2949 0138 F40A0000 		.word	.LC134
 2950 013c 64040000 		.word	.LC56
 2951 0140 4C0B0000 		.word	.LC137
 2952 0144 0F030000 		.word	783
 2953 0148 80040000 		.word	.LC58
 2954 014c 9C040000 		.word	.LC60
 2955 0150 19030000 		.word	793
 2956              		.cfi_endproc
 2957              	.LFE17:
 2958              		.size	authentication_retrieve_options, .-authentication_retrieve_options
 2959              		.section	.rodata
 2960              		.align	2
 2961              		.set	.LANCHOR0,. + 0
 2962              		.set	.LANCHOR1,. + 128
 2963              		.set	.LANCHOR2,. + 256
 2964              		.set	.LANCHOR3,. + 384
 2965              		.type	__func__.8006, %object
 2966              		.size	__func__.8006, 35
 2967              	__func__.8006:
 2968 0000 6F6E5F63 		.ascii	"on_cbs_put_token_complete_callback\000"
 2968      62735F70 
ARM GAS  C:\Users\Phuong\AppData\Local\Temp\ccPPbPWA.s 			page 71


 2968      75745F74 
 2968      6F6B656E 
 2968      5F636F6D 
 2969 0023 00       		.space	1
 2970              		.type	__func__.7965, %object
 2971              		.size	__func__.7965, 29
 2972              	__func__.7965:
 2973 0024 76657269 		.ascii	"verify_cbs_put_token_timeout\000"
 2973      66795F63 
 2973      62735F70 
 2973      75745F74 
 2973      6F6B656E 
 2974 0041 000000   		.space	3
 2975              		.type	__func__.7978, %object
 2976              		.size	__func__.7978, 33
 2977              	__func__.7978:
 2978 0044 76657269 		.ascii	"verify_sas_token_refresh_timeout\000"
 2978      66795F73 
 2978      61735F74 
 2978      6F6B656E 
 2978      5F726566 
 2979 0065 000000   		.space	3
 2980              		.type	__func__.7992, %object
 2981              		.size	__func__.7992, 30
 2982              	__func__.7992:
 2983 0068 63726561 		.ascii	"create_device_and_module_path\000"
 2983      74655F64 
 2983      65766963 
 2983      655F616E 
 2983      645F6D6F 
 2984 0086 0000     		.space	2
 2985              		.type	__func__.8017, %object
 2986              		.size	__func__.8017, 21
 2987              	__func__.8017:
 2988 0088 7075745F 		.ascii	"put_SAS_token_to_cbs\000"
 2988      5341535F 
 2988      746F6B65 
 2988      6E5F746F 
 2988      5F636273 
 2989 009d 000000   		.space	3
 2990              		.type	__func__.8031, %object
 2991              		.size	__func__.8031, 32
 2992              	__func__.8031:
 2993 00a0 63726561 		.ascii	"create_and_put_SAS_token_to_cbs\000"
 2993      74655F61 
 2993      6E645F70 
 2993      75745F53 
 2993      41535F74 
 2994              		.type	__func__.8060, %object
 2995              		.size	__func__.8060, 28
 2996              	__func__.8060:
 2997 00c0 61757468 		.ascii	"authentication_clone_option\000"
 2997      656E7469 
 2997      63617469 
 2997      6F6E5F63 
 2997      6C6F6E65 
 2998              		.type	__func__.8166, %object
ARM GAS  C:\Users\Phuong\AppData\Local\Temp\ccPPbPWA.s 			page 72


 2999              		.size	__func__.8166, 26
 3000              	__func__.8166:
 3001 00dc 61757468 		.ascii	"authentication_set_option\000"
 3001      656E7469 
 3001      63617469 
 3001      6F6E5F73 
 3001      65745F6F 
 3002 00f6 0000     		.space	2
 3003              		.type	__func__.8074, %object
 3004              		.size	__func__.8074, 30
 3005              	__func__.8074:
 3006 00f8 61757468 		.ascii	"authentication_destroy_option\000"
 3006      656E7469 
 3006      63617469 
 3006      6F6E5F64 
 3006      65737472 
 3007 0116 0000     		.space	2
 3008              		.type	__func__.8086, %object
 3009              		.size	__func__.8086, 21
 3010              	__func__.8086:
 3011 0118 61757468 		.ascii	"authentication_start\000"
 3011      656E7469 
 3011      63617469 
 3011      6F6E5F73 
 3011      74617274 
 3012 012d 000000   		.space	3
 3013              		.type	__func__.8101, %object
 3014              		.size	__func__.8101, 20
 3015              	__func__.8101:
 3016 0130 61757468 		.ascii	"authentication_stop\000"
 3016      656E7469 
 3016      63617469 
 3016      6F6E5F73 
 3016      746F7000 
 3017              		.type	__func__.8112, %object
 3018              		.size	__func__.8112, 23
 3019              	__func__.8112:
 3020 0144 61757468 		.ascii	"authentication_destroy\000"
 3020      656E7469 
 3020      63617469 
 3020      6F6E5F64 
 3020      65737472 
 3021 015b 00       		.space	1
 3022              		.type	__func__.8121, %object
 3023              		.size	__func__.8121, 22
 3024              	__func__.8121:
 3025 015c 61757468 		.ascii	"authentication_create\000"
 3025      656E7469 
 3025      63617469 
 3025      6F6E5F63 
 3025      72656174 
 3026 0172 0000     		.space	2
 3027              		.type	__func__.8147, %object
 3028              		.size	__func__.8147, 23
 3029              	__func__.8147:
 3030 0174 61757468 		.ascii	"authentication_do_work\000"
 3030      656E7469 
ARM GAS  C:\Users\Phuong\AppData\Local\Temp\ccPPbPWA.s 			page 73


 3030      63617469 
 3030      6F6E5F64 
 3030      6F5F776F 
 3031 018b 00       		.space	1
 3032              		.type	__func__.8181, %object
 3033              		.size	__func__.8181, 32
 3034              	__func__.8181:
 3035 018c 61757468 		.ascii	"authentication_retrieve_options\000"
 3035      656E7469 
 3035      63617469 
 3035      6F6E5F72 
 3035      65747269 
 3036              		.section	.rodata.str1.4,"aMS",%progbits,1
 3037              		.align	2
 3038              	.LC1:
 3039 0000 536F7572 		.ascii	"Source\\azure_iot_sdk\\iothub_client\\src\\iothubtr"
 3039      63655C61 
 3039      7A757265 
 3039      5F696F74 
 3039      5F73646B 
 3040 002f 616E7370 		.ascii	"ansport_amqp_cbs_auth.c\000"
 3040      6F72745F 
 3040      616D7170 
 3040      5F636273 
 3040      5F617574 
 3041 0047 00       		.space	1
 3042              	.LC3:
 3043 0048 43425320 		.ascii	"CBS reported status code %u, error: '%s' for put-to"
 3043      7265706F 
 3043      72746564 
 3043      20737461 
 3043      74757320 
 3044 007b 6B656E20 		.ascii	"ken operation for device '%s'\000"
 3044      6F706572 
 3044      6174696F 
 3044      6E20666F 
 3044      72206465 
 3045 0099 000000   		.space	3
 3046              	.LC7:
 3047 009c 4661696C 		.ascii	"Failed verifying if cbs_put_token has timed out (cu"
 3047      65642076 
 3047      65726966 
 3047      79696E67 
 3047      20696620 
 3048 00cf 7272656E 		.ascii	"rrent_sas_token_put_time is not set)\000"
 3048      745F7361 
 3048      735F746F 
 3048      6B656E5F 
 3048      7075745F 
 3049              	.LC9:
 3050 00f4 4661696C 		.ascii	"Failed verifying if cbs_put_token has timed out (ge"
 3050      65642076 
 3050      65726966 
 3050      79696E67 
 3050      20696620 
 3051 0127 745F7469 		.ascii	"t_time failed)\000"
 3051      6D652066 
ARM GAS  C:\Users\Phuong\AppData\Local\Temp\ccPPbPWA.s 			page 74


 3051      61696C65 
 3051      642900
 3052 0136 0000     		.space	2
 3053              	.LC13:
 3054 0138 4661696C 		.ascii	"Failed verifying if SAS token refresh timed out (cu"
 3054      65642076 
 3054      65726966 
 3054      79696E67 
 3054      20696620 
 3055 016b 7272656E 		.ascii	"rrent_sas_token_put_time is not set)\000"
 3055      745F7361 
 3055      735F746F 
 3055      6B656E5F 
 3055      7075745F 
 3056              	.LC15:
 3057 0190 4661696C 		.ascii	"Failed verifying if SAS token refresh timed out (ge"
 3057      65642076 
 3057      65726966 
 3057      79696E67 
 3057      20696620 
 3058 01c3 745F7469 		.ascii	"t_time failed)\000"
 3058      6D652066 
 3058      61696C65 
 3058      642900
 3059 01d2 0000     		.space	2
 3060              	.LC17:
 3061 01d4 25732F64 		.ascii	"%s/devices/%s\000"
 3061      65766963 
 3061      65732F25 
 3061      7300
 3062 01e2 0000     		.space	2
 3063              	.LC21:
 3064 01e4 4661696C 		.ascii	"Failed creating devices_and_modules_path (STRING_ne"
 3064      65642063 
 3064      72656174 
 3064      696E6720 
 3064      64657669 
 3065 0217 77206661 		.ascii	"w failed)\000"
 3065      696C6564 
 3065      2900
 3066 0221 000000   		.space	3
 3067              	.LC23:
 3068 0224 25732F64 		.ascii	"%s/devices/%s/modules/%s\000"
 3068      65766963 
 3068      65732F25 
 3068      732F6D6F 
 3068      64756C65 
 3069 023d 000000   		.space	3
 3070              	.LC25:
 3071 0240 73657276 		.ascii	"servicebus.windows.net:sastoken\000"
 3071      69636562 
 3071      75732E77 
 3071      696E646F 
 3071      77732E6E 
 3072              	.LC30:
 3073 0260 4661696C 		.ascii	"Failed putting SAS token to CBS for device '%s' (cb"
 3073      65642070 
ARM GAS  C:\Users\Phuong\AppData\Local\Temp\ccPPbPWA.s 			page 75


 3073      75747469 
 3073      6E672053 
 3073      41532074 
 3074 0293 735F7075 		.ascii	"s_put_token failed)\000"
 3074      745F746F 
 3074      6B656E20 
 3074      6661696C 
 3074      65642900 
 3075 02a7 00       		.space	1
 3076              	.LC32:
 3077 02a8 4661696C 		.ascii	"Failed setting current_sas_token_put_time for devic"
 3077      65642073 
 3077      65747469 
 3077      6E672063 
 3077      75727265 
 3078 02db 65202725 		.ascii	"e '%s' (get_time() failed)\000"
 3078      73272028 
 3078      6765745F 
 3078      74696D65 
 3078      28292066 
 3079 02f6 0000     		.space	2
 3080              	.LC36:
 3081 02f8 4661696C 		.ascii	"Failed creating a SAS token (create_device_and_modu"
 3081      65642063 
 3081      72656174 
 3081      696E6720 
 3081      61205341 
 3082 032b 6C655F70 		.ascii	"le_path() failed)\000"
 3082      61746828 
 3082      29206661 
 3082      696C6564 
 3082      2900
 3083 033d 000000   		.space	3
 3084              	.LC38:
 3085 0340 6661696C 		.ascii	"failure getting sas token.\000"
 3085      75726520 
 3085      67657474 
 3085      696E6720 
 3085      73617320 
 3086 035b 00       		.space	1
 3087              	.LC40:
 3088 035c 73617320 		.ascii	"sas token is invalid.\000"
 3088      746F6B65 
 3088      6E206973 
 3088      20696E76 
 3088      616C6964 
 3089 0372 0000     		.space	2
 3090              	.LC42:
 3091 0374 74657374 		.ascii	"testing Sas Token failed.\000"
 3091      696E6720 
 3091      53617320 
 3091      546F6B65 
 3091      6E206661 
 3092 038e 0000     		.space	2
 3093              	.LC44:
 3094 0390 6661696C 		.ascii	"failure getting sas Token.\000"
 3094      75726520 
ARM GAS  C:\Users\Phuong\AppData\Local\Temp\ccPPbPWA.s 			page 76


 3094      67657474 
 3094      696E6720 
 3094      73617320 
 3095 03ab 00       		.space	1
 3096              	.LC46:
 3097 03ac 6661696C 		.ascii	"failure unknown credential type found.\000"
 3097      75726520 
 3097      756E6B6E 
 3097      6F776E20 
 3097      63726564 
 3098 03d3 00       		.space	1
 3099              	.LC48:
 3100 03d4 4661696C 		.ascii	"Failed putting SAS token to CBS\000"
 3100      65642070 
 3100      75747469 
 3100      6E672053 
 3100      41532074 
 3101              	.LC52:
 3102 03f4 4661696C 		.ascii	"Failed to clone authentication option (name is NULL"
 3102      65642074 
 3102      6F20636C 
 3102      6F6E6520 
 3102      61757468 
 3103 0427 2900     		.ascii	")\000"
 3104 0429 000000   		.space	3
 3105              	.LC54:
 3106 042c 4661696C 		.ascii	"Failed to clone authentication option (value is NUL"
 3106      65642074 
 3106      6F20636C 
 3106      6F6E6520 
 3106      61757468 
 3107 045f 4C2900   		.ascii	"L)\000"
 3108 0462 0000     		.space	2
 3109              	.LC56:
 3110 0464 6362735F 		.ascii	"cbs_request_timeout_secs\000"
 3110      72657175 
 3110      6573745F 
 3110      74696D65 
 3110      6F75745F 
 3111 047d 000000   		.space	3
 3112              	.LC58:
 3113 0480 7361735F 		.ascii	"sas_token_refresh_time_secs\000"
 3113      746F6B65 
 3113      6E5F7265 
 3113      66726573 
 3113      685F7469 
 3114              	.LC60:
 3115 049c 7361735F 		.ascii	"sas_token_lifetime_secs\000"
 3115      746F6B65 
 3115      6E5F6C69 
 3115      66657469 
 3115      6D655F73 
 3116              	.LC62:
 3117 04b4 73617665 		.ascii	"saved_authentication_options\000"
 3117      645F6175 
 3117      7468656E 
 3117      74696361 
ARM GAS  C:\Users\Phuong\AppData\Local\Temp\ccPPbPWA.s 			page 77


 3117      74696F6E 
 3118 04d1 000000   		.space	3
 3119              	.LC64:
 3120 04d4 4661696C 		.ascii	"Failed to clone authentication option (option with "
 3120      65642074 
 3120      6F20636C 
 3120      6F6E6520 
 3120      61757468 
 3121 0507 6E616D65 		.ascii	"name '%s' is not suppported)\000"
 3121      20272573 
 3121      27206973 
 3121      206E6F74 
 3121      20737570 
 3122              	.LC68:
 3123 0524 61757468 		.ascii	"authentication_set_option failed (one of the follow"
 3123      656E7469 
 3123      63617469 
 3123      6F6E5F73 
 3123      65745F6F 
 3124 0557 696E2061 		.ascii	"in are NULL: authentication_handle=%p, name=%p, val"
 3124      7265204E 
 3124      554C4C3A 
 3124      20617574 
 3124      68656E74 
 3125 058a 75653D25 		.ascii	"ue=%p)\000"
 3125      702900
 3126 0591 000000   		.space	3
 3127              	.LC74:
 3128 0594 61757468 		.ascii	"authentication_set_option failed (OptionHandler_Fee"
 3128      656E7469 
 3128      63617469 
 3128      6F6E5F73 
 3128      65745F6F 
 3129 05c7 644F7074 		.ascii	"dOptions failed)\000"
 3129      696F6E73 
 3129      20666169 
 3129      6C656429 
 3129      00
 3130              	.LC76:
 3131 05d8 61757468 		.ascii	"authentication_set_option failed (option with name "
 3131      656E7469 
 3131      63617469 
 3131      6F6E5F73 
 3131      65745F6F 
 3132 060b 27257327 		.ascii	"'%s' is not suppported)\000"
 3132      20697320 
 3132      6E6F7420 
 3132      73757070 
 3132      706F7274 
 3133 0623 00       		.space	1
 3134              	.LC80:
 3135 0624 4661696C 		.ascii	"Failed to destroy authentication option (name is NU"
 3135      65642074 
 3135      6F206465 
 3135      7374726F 
 3135      79206175 
 3136 0657 4C4C2900 		.ascii	"LL)\000"
ARM GAS  C:\Users\Phuong\AppData\Local\Temp\ccPPbPWA.s 			page 78


 3137 065b 00       		.space	1
 3138              	.LC82:
 3139 065c 4661696C 		.ascii	"Failed to destroy authentication option (value is N"
 3139      65642074 
 3139      6F206465 
 3139      7374726F 
 3139      79206175 
 3140 068f 554C4C29 		.ascii	"ULL)\000"
 3140      00
 3141              	.LC87:
 3142 0694 61757468 		.ascii	"authentication_start failed (authentication_handle "
 3142      656E7469 
 3142      63617469 
 3142      6F6E5F73 
 3142      74617274 
 3143 06c7 6973204E 		.ascii	"is NULL)\000"
 3143      554C4C29 
 3143      00
 3144              	.LC89:
 3145 06d0 61757468 		.ascii	"authentication_start failed (cbs_handle is NULL)\000"
 3145      656E7469 
 3145      63617469 
 3145      6F6E5F73 
 3145      74617274 
 3146 0701 000000   		.space	3
 3147              	.LC91:
 3148 0704 61757468 		.ascii	"authentication_start failed (messenger has already "
 3148      656E7469 
 3148      63617469 
 3148      6F6E5F73 
 3148      74617274 
 3149 0737 6265656E 		.ascii	"been started; current state: %d)\000"
 3149      20737461 
 3149      72746564 
 3149      3B206375 
 3149      7272656E 
 3150              	.LC95:
 3151 0758 61757468 		.ascii	"authentication_stop failed (authentication_handle i"
 3151      656E7469 
 3151      63617469 
 3151      6F6E5F73 
 3151      746F7020 
 3152 078b 73204E55 		.ascii	"s NULL)\000"
 3152      4C4C2900 
 3153 0793 00       		.space	1
 3154              	.LC97:
 3155 0794 61757468 		.ascii	"authentication_stop failed (messenger is already st"
 3155      656E7469 
 3155      63617469 
 3155      6F6E5F73 
 3155      746F7020 
 3156 07c7 6F707065 		.ascii	"opped)\000"
 3156      642900
 3157 07ce 0000     		.space	2
 3158              	.LC101:
 3159 07d0 61757468 		.ascii	"authentication_destroy failed (authentication_handl"
 3159      656E7469 
ARM GAS  C:\Users\Phuong\AppData\Local\Temp\ccPPbPWA.s 			page 79


 3159      63617469 
 3159      6F6E5F64 
 3159      65737472 
 3160 0803 65206973 		.ascii	"e is NULL)\000"
 3160      204E554C 
 3160      4C2900
 3161 080e 0000     		.space	2
 3162              	.LC105:
 3163 0810 61757468 		.ascii	"authentication_create failed (config is NULL)\000"
 3163      656E7469 
 3163      63617469 
 3163      6F6E5F63 
 3163      72656174 
 3164 083e 0000     		.space	2
 3165              	.LC107:
 3166 0840 61757468 		.ascii	"authentication_create failed (config->authorization"
 3166      656E7469 
 3166      63617469 
 3166      6F6E5F63 
 3166      72656174 
 3167 0873 5F6D6F64 		.ascii	"_module is NULL)\000"
 3167      756C6520 
 3167      6973204E 
 3167      554C4C29 
 3167      00
 3168              	.LC109:
 3169 0884 61757468 		.ascii	"authentication_create failed (config->iothub_host_f"
 3169      656E7469 
 3169      63617469 
 3169      6F6E5F63 
 3169      72656174 
 3170 08b7 71646E20 		.ascii	"qdn is NULL)\000"
 3170      6973204E 
 3170      554C4C29 
 3170      00
 3171              	.LC111:
 3172 08c4 61757468 		.ascii	"authentication_create failed (config->on_state_chan"
 3172      656E7469 
 3172      63617469 
 3172      6F6E5F63 
 3172      72656174 
 3173 08f7 6765645F 		.ascii	"ged_callback is NULL)\000"
 3173      63616C6C 
 3173      6261636B 
 3173      20697320 
 3173      4E554C4C 
 3174 090d 000000   		.space	3
 3175              	.LC113:
 3176 0910 61757468 		.ascii	"authentication_create failed (malloc failed)\000"
 3176      656E7469 
 3176      63617469 
 3176      6F6E5F63 
 3176      72656174 
 3177 093d 000000   		.space	3
 3178              	.LC115:
 3179 0940 61757468 		.ascii	"authentication_create failed (config->device_id cou"
 3179      656E7469 
ARM GAS  C:\Users\Phuong\AppData\Local\Temp\ccPPbPWA.s 			page 80


 3179      63617469 
 3179      6F6E5F63 
 3179      72656174 
 3180 0973 6C64206E 		.ascii	"ld not be copied; STRING_construct failed)\000"
 3180      6F742062 
 3180      6520636F 
 3180      70696564 
 3180      3B205354 
 3181 099e 0000     		.space	2
 3182              	.LC117:
 3183 09a0 61757468 		.ascii	"authentication_create failed (config->iothub_host_f"
 3183      656E7469 
 3183      63617469 
 3183      6F6E5F63 
 3183      72656174 
 3184 09d3 71646E20 		.ascii	"qdn could not be copied; STRING_construct failed)\000"
 3184      636F756C 
 3184      64206E6F 
 3184      74206265 
 3184      20636F70 
 3185 0a05 000000   		.space	3
 3186              	.LC121:
 3187 0a08 61757468 		.ascii	"authentication_do_work failed (authentication_handl"
 3187      656E7469 
 3187      63617469 
 3187      6F6E5F64 
 3187      6F5F776F 
 3188 0a3b 65206973 		.ascii	"e is NULL)\000"
 3188      204E554C 
 3188      4C2900
 3189 0a46 0000     		.space	2
 3190              	.LC123:
 3191 0a48 4661696C 		.ascii	"Failed refreshing SAS token '%'\000"
 3191      65642072 
 3191      65667265 
 3191      7368696E 
 3191      67205341 
 3192              	.LC125:
 3193 0a68 4661696C 		.ascii	"Failed authenticating device '%s' using device keys"
 3193      65642061 
 3193      75746865 
 3193      6E746963 
 3193      6174696E 
 3194 0a9b 00       		.ascii	"\000"
 3195              	.LC129:
 3196 0a9c 4661696C 		.ascii	"Failed to retrieve options from authentication inst"
 3196      65642074 
 3196      6F207265 
 3196      74726965 
 3196      7665206F 
 3197 0acf 616E6365 		.ascii	"ance (authentication_handle is NULL)\000"
 3197      20286175 
 3197      7468656E 
 3197      74696361 
 3197      74696F6E 
 3198              	.LC134:
 3199 0af4 4661696C 		.ascii	"Failed to retrieve options from authentication inst"
ARM GAS  C:\Users\Phuong\AppData\Local\Temp\ccPPbPWA.s 			page 81


 3199      65642074 
 3199      6F207265 
 3199      74726965 
 3199      7665206F 
 3200 0b27 616E6365 		.ascii	"ance (OptionHandler_Create failed)\000"
 3200      20284F70 
 3200      74696F6E 
 3200      48616E64 
 3200      6C65725F 
 3201 0b4a 0000     		.space	2
 3202              	.LC137:
 3203 0b4c 4661696C 		.ascii	"Failed to retrieve options from authentication inst"
 3203      65642074 
 3203      6F207265 
 3203      74726965 
 3203      7665206F 
 3204 0b7f 616E6365 		.ascii	"ance (OptionHandler_Create failed for option '%s')\000"
 3204      20284F70 
 3204      74696F6E 
 3204      48616E64 
 3204      6C65725F 
 3205              		.text
 3206              	.Letext0:
 3207              		.file 2 "c:\\program files (x86)\\cypress\\psoc creator\\4.2\\psoc creator\\import\\gnu\\arm\\5.4.
 3208              		.file 3 "c:\\program files (x86)\\cypress\\psoc creator\\4.2\\psoc creator\\import\\gnu\\arm\\5.4.
 3209              		.file 4 "c:\\program files (x86)\\cypress\\psoc creator\\4.2\\psoc creator\\import\\gnu\\arm\\5.4.
 3210              		.file 5 ".\\Source\\azure_iot_sdk\\c-utility\\inc/azure_c_shared_utility/optionhandler.h"
 3211              		.file 6 ".\\Source\\azure_iot_sdk\\iothub_client\\inc/internal/iothub_client_authorization.h"
 3212              		.file 7 ".\\Source\\azure_iot_sdk\\c-utility\\inc/azure_c_shared_utility/strings_types.h"
 3213              		.file 8 "c:\\program files (x86)\\cypress\\psoc creator\\4.2\\psoc creator\\import\\gnu\\arm\\5.4.
 3214              		.file 9 ".\\Source\\azure_iot_sdk\\uamqp\\inc/azure_uamqp_c/cbs.h"
 3215              		.file 10 ".\\Source\\azure_iot_sdk\\iothub_client\\inc/internal/iothubtransport_amqp_cbs_auth.h"
 3216              		.file 11 ".\\Source\\azure_iot_sdk\\c-utility\\inc/azure_c_shared_utility/xlogging.h"
 3217              		.file 12 ".\\Source\\azure_iot_sdk\\c-utility\\inc/azure_c_shared_utility/agenttime.h"
 3218              		.file 13 ".\\Source\\azure_iot_sdk\\c-utility\\inc/azure_c_shared_utility/strings.h"
 3219              		.file 14 "c:\\program files (x86)\\cypress\\psoc creator\\4.2\\psoc creator\\import\\gnu\\arm\\5.4
 3220              		.file 15 "c:\\program files (x86)\\cypress\\psoc creator\\4.2\\psoc creator\\import\\gnu\\arm\\5.4
 3221              		.file 16 ".\\Source\\azure_iot_sdk\\iothub_client\\inc/iothub_message.h"
 3222              		.section	.debug_info,"",%progbits
 3223              	.Ldebug_info0:
 3224 0000 8E230000 		.4byte	0x238e
 3225 0004 0400     		.2byte	0x4
 3226 0006 00000000 		.4byte	.Ldebug_abbrev0
 3227 000a 04       		.byte	0x4
 3228 000b 01       		.uleb128 0x1
 3229 000c 860A0000 		.4byte	.LASF156
 3230 0010 0C       		.byte	0xc
 3231 0011 37040000 		.4byte	.LASF157
 3232 0015 A4060000 		.4byte	.LASF158
 3233 0019 C0000000 		.4byte	.Ldebug_ranges0+0xc0
 3234 001d 00000000 		.4byte	0
 3235 0021 00000000 		.4byte	.Ldebug_line0
 3236 0025 02       		.uleb128 0x2
 3237 0026 2E000000 		.4byte	.LASF8
 3238 002a 02       		.byte	0x2
 3239 002b D8       		.byte	0xd8
 3240 002c 30000000 		.4byte	0x30
ARM GAS  C:\Users\Phuong\AppData\Local\Temp\ccPPbPWA.s 			page 82


 3241 0030 03       		.uleb128 0x3
 3242 0031 04       		.byte	0x4
 3243 0032 07       		.byte	0x7
 3244 0033 D3030000 		.4byte	.LASF0
 3245 0037 04       		.uleb128 0x4
 3246 0038 04       		.byte	0x4
 3247 0039 05       		.byte	0x5
 3248 003a 696E7400 		.ascii	"int\000"
 3249 003e 03       		.uleb128 0x3
 3250 003f 08       		.byte	0x8
 3251 0040 05       		.byte	0x5
 3252 0041 B9010000 		.4byte	.LASF1
 3253 0045 03       		.uleb128 0x3
 3254 0046 08       		.byte	0x8
 3255 0047 04       		.byte	0x4
 3256 0048 80060000 		.4byte	.LASF2
 3257 004c 03       		.uleb128 0x3
 3258 004d 01       		.byte	0x1
 3259 004e 06       		.byte	0x6
 3260 004f C7010000 		.4byte	.LASF3
 3261 0053 03       		.uleb128 0x3
 3262 0054 01       		.byte	0x1
 3263 0055 08       		.byte	0x8
 3264 0056 2A090000 		.4byte	.LASF4
 3265 005a 03       		.uleb128 0x3
 3266 005b 02       		.byte	0x2
 3267 005c 05       		.byte	0x5
 3268 005d A1090000 		.4byte	.LASF5
 3269 0061 03       		.uleb128 0x3
 3270 0062 02       		.byte	0x2
 3271 0063 07       		.byte	0x7
 3272 0064 C1040000 		.4byte	.LASF6
 3273 0068 03       		.uleb128 0x3
 3274 0069 04       		.byte	0x4
 3275 006a 05       		.byte	0x5
 3276 006b 7F020000 		.4byte	.LASF7
 3277 006f 02       		.uleb128 0x2
 3278 0070 3F030000 		.4byte	.LASF9
 3279 0074 03       		.byte	0x3
 3280 0075 41       		.byte	0x41
 3281 0076 7A000000 		.4byte	0x7a
 3282 007a 03       		.uleb128 0x3
 3283 007b 04       		.byte	0x4
 3284 007c 07       		.byte	0x7
 3285 007d 370B0000 		.4byte	.LASF10
 3286 0081 03       		.uleb128 0x3
 3287 0082 08       		.byte	0x8
 3288 0083 07       		.byte	0x7
 3289 0084 16020000 		.4byte	.LASF11
 3290 0088 03       		.uleb128 0x3
 3291 0089 04       		.byte	0x4
 3292 008a 07       		.byte	0x7
 3293 008b 40060000 		.4byte	.LASF12
 3294 008f 05       		.uleb128 0x5
 3295 0090 04       		.byte	0x4
 3296 0091 06       		.uleb128 0x6
 3297 0092 04       		.byte	0x4
ARM GAS  C:\Users\Phuong\AppData\Local\Temp\ccPPbPWA.s 			page 83


 3298 0093 97000000 		.4byte	0x97
 3299 0097 03       		.uleb128 0x3
 3300 0098 01       		.byte	0x1
 3301 0099 08       		.byte	0x8
 3302 009a 490B0000 		.4byte	.LASF13
 3303 009e 06       		.uleb128 0x6
 3304 009f 04       		.byte	0x4
 3305 00a0 A4000000 		.4byte	0xa4
 3306 00a4 07       		.uleb128 0x7
 3307 00a5 97000000 		.4byte	0x97
 3308 00a9 06       		.uleb128 0x6
 3309 00aa 04       		.byte	0x4
 3310 00ab AF000000 		.4byte	0xaf
 3311 00af 08       		.uleb128 0x8
 3312 00b0 02       		.uleb128 0x2
 3313 00b1 C30C0000 		.4byte	.LASF14
 3314 00b5 04       		.byte	0x4
 3315 00b6 30       		.byte	0x30
 3316 00b7 6F000000 		.4byte	0x6f
 3317 00bb 09       		.uleb128 0x9
 3318 00bc 67060000 		.4byte	.LASF23
 3319 00c0 01       		.byte	0x1
 3320 00c1 53000000 		.4byte	0x53
 3321 00c5 05       		.byte	0x5
 3322 00c6 0E       		.byte	0xe
 3323 00c7 DE000000 		.4byte	0xde
 3324 00cb 0A       		.uleb128 0xa
 3325 00cc 1B0C0000 		.4byte	.LASF15
 3326 00d0 00       		.byte	0
 3327 00d1 0A       		.uleb128 0xa
 3328 00d2 EC020000 		.4byte	.LASF16
 3329 00d6 01       		.byte	0x1
 3330 00d7 0A       		.uleb128 0xa
 3331 00d8 D3020000 		.4byte	.LASF17
 3332 00dc 02       		.byte	0x2
 3333 00dd 00       		.byte	0
 3334 00de 02       		.uleb128 0x2
 3335 00df 040E0000 		.4byte	.LASF18
 3336 00e3 05       		.byte	0x5
 3337 00e4 16       		.byte	0x16
 3338 00e5 E9000000 		.4byte	0xe9
 3339 00e9 06       		.uleb128 0x6
 3340 00ea 04       		.byte	0x4
 3341 00eb EF000000 		.4byte	0xef
 3342 00ef 0B       		.uleb128 0xb
 3343 00f0 49060000 		.4byte	.LASF21
 3344 00f4 02       		.uleb128 0x2
 3345 00f5 38090000 		.4byte	.LASF19
 3346 00f9 05       		.byte	0x5
 3347 00fa 24       		.byte	0x24
 3348 00fb FF000000 		.4byte	0xff
 3349 00ff 06       		.uleb128 0x6
 3350 0100 04       		.byte	0x4
 3351 0101 05010000 		.4byte	0x105
 3352 0105 0C       		.uleb128 0xc
 3353 0106 37000000 		.4byte	0x37
 3354 010a 1E010000 		.4byte	0x11e
ARM GAS  C:\Users\Phuong\AppData\Local\Temp\ccPPbPWA.s 			page 84


 3355 010e 0D       		.uleb128 0xd
 3356 010f 8F000000 		.4byte	0x8f
 3357 0113 0D       		.uleb128 0xd
 3358 0114 9E000000 		.4byte	0x9e
 3359 0118 0D       		.uleb128 0xd
 3360 0119 A9000000 		.4byte	0xa9
 3361 011d 00       		.byte	0
 3362 011e 02       		.uleb128 0x2
 3363 011f 6B010000 		.4byte	.LASF20
 3364 0123 06       		.byte	0x6
 3365 0124 11       		.byte	0x11
 3366 0125 29010000 		.4byte	0x129
 3367 0129 06       		.uleb128 0x6
 3368 012a 04       		.byte	0x4
 3369 012b 2F010000 		.4byte	0x12f
 3370 012f 0B       		.uleb128 0xb
 3371 0130 4E0B0000 		.4byte	.LASF22
 3372 0134 09       		.uleb128 0x9
 3373 0135 7A050000 		.4byte	.LASF24
 3374 0139 01       		.byte	0x1
 3375 013a 53000000 		.4byte	0x53
 3376 013e 06       		.byte	0x6
 3377 013f 1C       		.byte	0x1c
 3378 0140 69010000 		.4byte	0x169
 3379 0144 0A       		.uleb128 0xa
 3380 0145 95050000 		.4byte	.LASF25
 3381 0149 00       		.byte	0
 3382 014a 0A       		.uleb128 0xa
 3383 014b 35000000 		.4byte	.LASF26
 3384 014f 01       		.byte	0x1
 3385 0150 0A       		.uleb128 0xa
 3386 0151 5D020000 		.4byte	.LASF27
 3387 0155 02       		.byte	0x2
 3388 0156 0A       		.uleb128 0xa
 3389 0157 4B010000 		.4byte	.LASF28
 3390 015b 03       		.byte	0x3
 3391 015c 0A       		.uleb128 0xa
 3392 015d B3000000 		.4byte	.LASF29
 3393 0161 04       		.byte	0x4
 3394 0162 0A       		.uleb128 0xa
 3395 0163 C00B0000 		.4byte	.LASF30
 3396 0167 05       		.byte	0x5
 3397 0168 00       		.byte	0
 3398 0169 02       		.uleb128 0x2
 3399 016a 0B030000 		.4byte	.LASF31
 3400 016e 06       		.byte	0x6
 3401 016f 1C       		.byte	0x1c
 3402 0170 34010000 		.4byte	0x134
 3403 0174 09       		.uleb128 0x9
 3404 0175 16060000 		.4byte	.LASF32
 3405 0179 01       		.byte	0x1
 3406 017a 53000000 		.4byte	0x53
 3407 017e 06       		.byte	0x6
 3408 017f 23       		.byte	0x23
 3409 0180 97010000 		.4byte	0x197
 3410 0184 0A       		.uleb128 0xa
 3411 0185 A0020000 		.4byte	.LASF33
ARM GAS  C:\Users\Phuong\AppData\Local\Temp\ccPPbPWA.s 			page 85


 3412 0189 00       		.byte	0
 3413 018a 0A       		.uleb128 0xa
 3414 018b 280D0000 		.4byte	.LASF34
 3415 018f 01       		.byte	0x1
 3416 0190 0A       		.uleb128 0xa
 3417 0191 88090000 		.4byte	.LASF35
 3418 0195 02       		.byte	0x2
 3419 0196 00       		.byte	0
 3420 0197 02       		.uleb128 0x2
 3421 0198 BF090000 		.4byte	.LASF36
 3422 019c 06       		.byte	0x6
 3423 019d 23       		.byte	0x23
 3424 019e 74010000 		.4byte	0x174
 3425 01a2 02       		.uleb128 0x2
 3426 01a3 C6080000 		.4byte	.LASF37
 3427 01a7 07       		.byte	0x7
 3428 01a8 07       		.byte	0x7
 3429 01a9 AD010000 		.4byte	0x1ad
 3430 01ad 06       		.uleb128 0x6
 3431 01ae 04       		.byte	0x4
 3432 01af B3010000 		.4byte	0x1b3
 3433 01b3 0B       		.uleb128 0xb
 3434 01b4 740D0000 		.4byte	.LASF38
 3435 01b8 02       		.uleb128 0x2
 3436 01b9 66080000 		.4byte	.LASF39
 3437 01bd 08       		.byte	0x8
 3438 01be 28       		.byte	0x28
 3439 01bf 68000000 		.4byte	0x68
 3440 01c3 03       		.uleb128 0x3
 3441 01c4 01       		.byte	0x1
 3442 01c5 02       		.byte	0x2
 3443 01c6 07090000 		.4byte	.LASF40
 3444 01ca 09       		.uleb128 0x9
 3445 01cb D6070000 		.4byte	.LASF41
 3446 01cf 01       		.byte	0x1
 3447 01d0 53000000 		.4byte	0x53
 3448 01d4 09       		.byte	0x9
 3449 01d5 17       		.byte	0x17
 3450 01d6 F3010000 		.4byte	0x1f3
 3451 01da 0A       		.uleb128 0xa
 3452 01db 09080000 		.4byte	.LASF42
 3453 01df 00       		.byte	0
 3454 01e0 0A       		.uleb128 0xa
 3455 01e1 180B0000 		.4byte	.LASF43
 3456 01e5 01       		.byte	0x1
 3457 01e6 0A       		.uleb128 0xa
 3458 01e7 3B0A0000 		.4byte	.LASF44
 3459 01eb 02       		.byte	0x2
 3460 01ec 0A       		.uleb128 0xa
 3461 01ed 9B0B0000 		.4byte	.LASF45
 3462 01f1 03       		.byte	0x3
 3463 01f2 00       		.byte	0
 3464 01f3 02       		.uleb128 0x2
 3465 01f4 73070000 		.4byte	.LASF46
 3466 01f8 09       		.byte	0x9
 3467 01f9 17       		.byte	0x17
 3468 01fa CA010000 		.4byte	0x1ca
ARM GAS  C:\Users\Phuong\AppData\Local\Temp\ccPPbPWA.s 			page 86


 3469 01fe 02       		.uleb128 0x2
 3470 01ff 00030000 		.4byte	.LASF47
 3471 0203 09       		.byte	0x9
 3472 0204 20       		.byte	0x20
 3473 0205 09020000 		.4byte	0x209
 3474 0209 06       		.uleb128 0x6
 3475 020a 04       		.byte	0x4
 3476 020b 0F020000 		.4byte	0x20f
 3477 020f 0B       		.uleb128 0xb
 3478 0210 A2000000 		.4byte	.LASF48
 3479 0214 09       		.uleb128 0x9
 3480 0215 21080000 		.4byte	.LASF49
 3481 0219 01       		.byte	0x1
 3482 021a 53000000 		.4byte	0x53
 3483 021e 0A       		.byte	0xa
 3484 021f 17       		.byte	0x17
 3485 0220 3D020000 		.4byte	0x23d
 3486 0224 0A       		.uleb128 0xa
 3487 0225 22030000 		.4byte	.LASF50
 3488 0229 00       		.byte	0
 3489 022a 0A       		.uleb128 0xa
 3490 022b 730C0000 		.4byte	.LASF51
 3491 022f 01       		.byte	0x1
 3492 0230 0A       		.uleb128 0xa
 3493 0231 1A040000 		.4byte	.LASF52
 3494 0235 02       		.byte	0x2
 3495 0236 0A       		.uleb128 0xa
 3496 0237 44090000 		.4byte	.LASF53
 3497 023b 03       		.byte	0x3
 3498 023c 00       		.byte	0
 3499 023d 02       		.uleb128 0x2
 3500 023e D4000000 		.4byte	.LASF54
 3501 0242 0A       		.byte	0xa
 3502 0243 1D       		.byte	0x1d
 3503 0244 14020000 		.4byte	0x214
 3504 0248 09       		.uleb128 0x9
 3505 0249 0F0D0000 		.4byte	.LASF55
 3506 024d 01       		.byte	0x1
 3507 024e 53000000 		.4byte	0x53
 3508 0252 0A       		.byte	0xa
 3509 0253 1F       		.byte	0x1f
 3510 0254 71020000 		.4byte	0x271
 3511 0258 0A       		.uleb128 0xa
 3512 0259 9D0D0000 		.4byte	.LASF56
 3513 025d 00       		.byte	0
 3514 025e 0A       		.uleb128 0xa
 3515 025f E30D0000 		.4byte	.LASF57
 3516 0263 01       		.byte	0x1
 3517 0264 0A       		.uleb128 0xa
 3518 0265 910C0000 		.4byte	.LASF58
 3519 0269 02       		.byte	0x2
 3520 026a 0A       		.uleb128 0xa
 3521 026b EE090000 		.4byte	.LASF59
 3522 026f 03       		.byte	0x3
 3523 0270 00       		.byte	0
 3524 0271 02       		.uleb128 0x2
 3525 0272 7D000000 		.4byte	.LASF60
ARM GAS  C:\Users\Phuong\AppData\Local\Temp\ccPPbPWA.s 			page 87


 3526 0276 0A       		.byte	0xa
 3527 0277 25       		.byte	0x25
 3528 0278 48020000 		.4byte	0x248
 3529 027c 02       		.uleb128 0x2
 3530 027d 5F090000 		.4byte	.LASF61
 3531 0281 0A       		.byte	0xa
 3532 0282 27       		.byte	0x27
 3533 0283 87020000 		.4byte	0x287
 3534 0287 06       		.uleb128 0x6
 3535 0288 04       		.byte	0x4
 3536 0289 8D020000 		.4byte	0x28d
 3537 028d 0E       		.uleb128 0xe
 3538 028e A2020000 		.4byte	0x2a2
 3539 0292 0D       		.uleb128 0xd
 3540 0293 8F000000 		.4byte	0x8f
 3541 0297 0D       		.uleb128 0xd
 3542 0298 3D020000 		.4byte	0x23d
 3543 029c 0D       		.uleb128 0xd
 3544 029d 3D020000 		.4byte	0x23d
 3545 02a1 00       		.byte	0
 3546 02a2 02       		.uleb128 0x2
 3547 02a3 08050000 		.4byte	.LASF62
 3548 02a7 0A       		.byte	0xa
 3549 02a8 28       		.byte	0x28
 3550 02a9 AD020000 		.4byte	0x2ad
 3551 02ad 06       		.uleb128 0x6
 3552 02ae 04       		.byte	0x4
 3553 02af B3020000 		.4byte	0x2b3
 3554 02b3 0E       		.uleb128 0xe
 3555 02b4 C3020000 		.4byte	0x2c3
 3556 02b8 0D       		.uleb128 0xd
 3557 02b9 8F000000 		.4byte	0x8f
 3558 02bd 0D       		.uleb128 0xd
 3559 02be 71020000 		.4byte	0x271
 3560 02c2 00       		.byte	0
 3561 02c3 0F       		.uleb128 0xf
 3562 02c4 D4040000 		.4byte	.LASF80
 3563 02c8 20       		.byte	0x20
 3564 02c9 0A       		.byte	0xa
 3565 02ca 2A       		.byte	0x2a
 3566 02cb 30030000 		.4byte	0x330
 3567 02cf 10       		.uleb128 0x10
 3568 02d0 770B0000 		.4byte	.LASF63
 3569 02d4 0A       		.byte	0xa
 3570 02d5 2C       		.byte	0x2c
 3571 02d6 9E000000 		.4byte	0x9e
 3572 02da 00       		.byte	0
 3573 02db 10       		.uleb128 0x10
 3574 02dc 02020000 		.4byte	.LASF64
 3575 02e0 0A       		.byte	0xa
 3576 02e1 2D       		.byte	0x2d
 3577 02e2 9E000000 		.4byte	0x9e
 3578 02e6 04       		.byte	0x4
 3579 02e7 10       		.uleb128 0x10
 3580 02e8 69050000 		.4byte	.LASF65
 3581 02ec 0A       		.byte	0xa
 3582 02ed 2E       		.byte	0x2e
ARM GAS  C:\Users\Phuong\AppData\Local\Temp\ccPPbPWA.s 			page 88


 3583 02ee 91000000 		.4byte	0x91
 3584 02f2 08       		.byte	0x8
 3585 02f3 10       		.uleb128 0x10
 3586 02f4 DE050000 		.4byte	.LASF66
 3587 02f8 0A       		.byte	0xa
 3588 02f9 30       		.byte	0x30
 3589 02fa 7C020000 		.4byte	0x27c
 3590 02fe 0C       		.byte	0xc
 3591 02ff 10       		.uleb128 0x10
 3592 0300 D4080000 		.4byte	.LASF67
 3593 0304 0A       		.byte	0xa
 3594 0305 31       		.byte	0x31
 3595 0306 8F000000 		.4byte	0x8f
 3596 030a 10       		.byte	0x10
 3597 030b 10       		.uleb128 0x10
 3598 030c 4B020000 		.4byte	.LASF68
 3599 0310 0A       		.byte	0xa
 3600 0311 33       		.byte	0x33
 3601 0312 A2020000 		.4byte	0x2a2
 3602 0316 14       		.byte	0x14
 3603 0317 10       		.uleb128 0x10
 3604 0318 EF070000 		.4byte	.LASF69
 3605 031c 0A       		.byte	0xa
 3606 031d 34       		.byte	0x34
 3607 031e 8F000000 		.4byte	0x8f
 3608 0322 18       		.byte	0x18
 3609 0323 10       		.uleb128 0x10
 3610 0324 2B060000 		.4byte	.LASF70
 3611 0328 0A       		.byte	0xa
 3612 0329 36       		.byte	0x36
 3613 032a 1E010000 		.4byte	0x11e
 3614 032e 1C       		.byte	0x1c
 3615 032f 00       		.byte	0
 3616 0330 02       		.uleb128 0x2
 3617 0331 5E0D0000 		.4byte	.LASF71
 3618 0335 0A       		.byte	0xa
 3619 0336 38       		.byte	0x38
 3620 0337 C3020000 		.4byte	0x2c3
 3621 033b 02       		.uleb128 0x2
 3622 033c E9000000 		.4byte	.LASF72
 3623 0340 0A       		.byte	0xa
 3624 0341 3A       		.byte	0x3a
 3625 0342 46030000 		.4byte	0x346
 3626 0346 06       		.uleb128 0x6
 3627 0347 04       		.byte	0x4
 3628 0348 4C030000 		.4byte	0x34c
 3629 034c 0B       		.uleb128 0xb
 3630 034d 88020000 		.4byte	.LASF73
 3631 0351 09       		.uleb128 0x9
 3632 0352 300E0000 		.4byte	.LASF74
 3633 0356 01       		.byte	0x1
 3634 0357 53000000 		.4byte	0x53
 3635 035b 0B       		.byte	0xb
 3636 035c 22       		.byte	0x22
 3637 035d 74030000 		.4byte	0x374
 3638 0361 0A       		.uleb128 0xa
 3639 0362 A3010000 		.4byte	.LASF75
ARM GAS  C:\Users\Phuong\AppData\Local\Temp\ccPPbPWA.s 			page 89


 3640 0366 00       		.byte	0
 3641 0367 0A       		.uleb128 0xa
 3642 0368 800E0000 		.4byte	.LASF76
 3643 036c 01       		.byte	0x1
 3644 036d 0A       		.uleb128 0xa
 3645 036e 21000000 		.4byte	.LASF77
 3646 0372 02       		.byte	0x2
 3647 0373 00       		.byte	0
 3648 0374 02       		.uleb128 0x2
 3649 0375 2C0C0000 		.4byte	.LASF78
 3650 0379 0B       		.byte	0xb
 3651 037a 27       		.byte	0x27
 3652 037b 51030000 		.4byte	0x351
 3653 037f 02       		.uleb128 0x2
 3654 0380 AA040000 		.4byte	.LASF79
 3655 0384 0B       		.byte	0xb
 3656 0385 2F       		.byte	0x2f
 3657 0386 8A030000 		.4byte	0x38a
 3658 038a 06       		.uleb128 0x6
 3659 038b 04       		.byte	0x4
 3660 038c 90030000 		.4byte	0x390
 3661 0390 0E       		.uleb128 0xe
 3662 0391 B5030000 		.4byte	0x3b5
 3663 0395 0D       		.uleb128 0xd
 3664 0396 74030000 		.4byte	0x374
 3665 039a 0D       		.uleb128 0xd
 3666 039b 9E000000 		.4byte	0x9e
 3667 039f 0D       		.uleb128 0xd
 3668 03a0 9E000000 		.4byte	0x9e
 3669 03a4 0D       		.uleb128 0xd
 3670 03a5 37000000 		.4byte	0x37
 3671 03a9 0D       		.uleb128 0xd
 3672 03aa 30000000 		.4byte	0x30
 3673 03ae 0D       		.uleb128 0xd
 3674 03af 9E000000 		.4byte	0x9e
 3675 03b3 11       		.uleb128 0x11
 3676 03b4 00       		.byte	0
 3677 03b5 0F       		.uleb128 0xf
 3678 03b6 C2050000 		.4byte	.LASF81
 3679 03ba 3C       		.byte	0x3c
 3680 03bb 01       		.byte	0x1
 3681 03bc 15       		.byte	0x15
 3682 03bd 82040000 		.4byte	0x482
 3683 03c1 10       		.uleb128 0x10
 3684 03c2 770B0000 		.4byte	.LASF63
 3685 03c6 01       		.byte	0x1
 3686 03c7 17       		.byte	0x17
 3687 03c8 9E000000 		.4byte	0x9e
 3688 03cc 00       		.byte	0
 3689 03cd 10       		.uleb128 0x10
 3690 03ce 02020000 		.4byte	.LASF64
 3691 03d2 01       		.byte	0x1
 3692 03d3 18       		.byte	0x18
 3693 03d4 9E000000 		.4byte	0x9e
 3694 03d8 04       		.byte	0x4
 3695 03d9 10       		.uleb128 0x10
 3696 03da 69050000 		.4byte	.LASF65
ARM GAS  C:\Users\Phuong\AppData\Local\Temp\ccPPbPWA.s 			page 90


 3697 03de 01       		.byte	0x1
 3698 03df 19       		.byte	0x19
 3699 03e0 A2010000 		.4byte	0x1a2
 3700 03e4 08       		.byte	0x8
 3701 03e5 10       		.uleb128 0x10
 3702 03e6 DE050000 		.4byte	.LASF66
 3703 03ea 01       		.byte	0x1
 3704 03eb 1B       		.byte	0x1b
 3705 03ec 7C020000 		.4byte	0x27c
 3706 03f0 0C       		.byte	0xc
 3707 03f1 10       		.uleb128 0x10
 3708 03f2 D4080000 		.4byte	.LASF67
 3709 03f6 01       		.byte	0x1
 3710 03f7 1C       		.byte	0x1c
 3711 03f8 8F000000 		.4byte	0x8f
 3712 03fc 10       		.byte	0x10
 3713 03fd 10       		.uleb128 0x10
 3714 03fe 4B020000 		.4byte	.LASF68
 3715 0402 01       		.byte	0x1
 3716 0403 1E       		.byte	0x1e
 3717 0404 A2020000 		.4byte	0x2a2
 3718 0408 14       		.byte	0x14
 3719 0409 10       		.uleb128 0x10
 3720 040a EF070000 		.4byte	.LASF69
 3721 040e 01       		.byte	0x1
 3722 040f 1F       		.byte	0x1f
 3723 0410 8F000000 		.4byte	0x8f
 3724 0414 18       		.byte	0x18
 3725 0415 10       		.uleb128 0x10
 3726 0416 92030000 		.4byte	.LASF82
 3727 041a 01       		.byte	0x1
 3728 041b 21       		.byte	0x21
 3729 041c 25000000 		.4byte	0x25
 3730 0420 1C       		.byte	0x1c
 3731 0421 10       		.uleb128 0x10
 3732 0422 030C0000 		.4byte	.LASF83
 3733 0426 01       		.byte	0x1
 3734 0427 22       		.byte	0x22
 3735 0428 25000000 		.4byte	0x25
 3736 042c 20       		.byte	0x20
 3737 042d 10       		.uleb128 0x10
 3738 042e 0B010000 		.4byte	.LASF84
 3739 0432 01       		.byte	0x1
 3740 0433 23       		.byte	0x23
 3741 0434 25000000 		.4byte	0x25
 3742 0438 24       		.byte	0x24
 3743 0439 10       		.uleb128 0x10
 3744 043a 79020000 		.4byte	.LASF85
 3745 043e 01       		.byte	0x1
 3746 043f 25       		.byte	0x25
 3747 0440 3D020000 		.4byte	0x23d
 3748 0444 28       		.byte	0x28
 3749 0445 10       		.uleb128 0x10
 3750 0446 6C0B0000 		.4byte	.LASF86
 3751 044a 01       		.byte	0x1
 3752 044b 26       		.byte	0x26
 3753 044c FE010000 		.4byte	0x1fe
ARM GAS  C:\Users\Phuong\AppData\Local\Temp\ccPPbPWA.s 			page 91


 3754 0450 2C       		.byte	0x2c
 3755 0451 10       		.uleb128 0x10
 3756 0452 52030000 		.4byte	.LASF87
 3757 0456 01       		.byte	0x1
 3758 0457 28       		.byte	0x28
 3759 0458 C3010000 		.4byte	0x1c3
 3760 045c 30       		.byte	0x30
 3761 045d 10       		.uleb128 0x10
 3762 045e 480E0000 		.4byte	.LASF88
 3763 0462 01       		.byte	0x1
 3764 0463 29       		.byte	0x29
 3765 0464 C3010000 		.4byte	0x1c3
 3766 0468 31       		.byte	0x31
 3767 0469 10       		.uleb128 0x10
 3768 046a B8020000 		.4byte	.LASF89
 3769 046e 01       		.byte	0x1
 3770 046f 2B       		.byte	0x2b
 3771 0470 B8010000 		.4byte	0x1b8
 3772 0474 34       		.byte	0x34
 3773 0475 10       		.uleb128 0x10
 3774 0476 2B060000 		.4byte	.LASF70
 3775 047a 01       		.byte	0x1
 3776 047b 2F       		.byte	0x2f
 3777 047c 1E010000 		.4byte	0x11e
 3778 0480 38       		.byte	0x38
 3779 0481 00       		.byte	0
 3780 0482 02       		.uleb128 0x2
 3781 0483 88020000 		.4byte	.LASF73
 3782 0487 01       		.byte	0x1
 3783 0488 30       		.byte	0x30
 3784 0489 B5030000 		.4byte	0x3b5
 3785 048d 12       		.uleb128 0x12
 3786 048e 7E040000 		.4byte	.LASF92
 3787 0492 01       		.byte	0x1
 3788 0493 35       		.byte	0x35
 3789 0494 00000000 		.4byte	.LFB1
 3790 0498 1A000000 		.4byte	.LFE1-.LFB1
 3791 049c 01       		.uleb128 0x1
 3792 049d 9C       		.byte	0x9c
 3793 049e DA040000 		.4byte	0x4da
 3794 04a2 13       		.uleb128 0x13
 3795 04a3 B0010000 		.4byte	.LASF90
 3796 04a7 01       		.byte	0x1
 3797 04a8 35       		.byte	0x35
 3798 04a9 DA040000 		.4byte	0x4da
 3799 04ad 00000000 		.4byte	.LLST0
 3800 04b1 13       		.uleb128 0x13
 3801 04b2 BC080000 		.4byte	.LASF91
 3802 04b6 01       		.byte	0x1
 3803 04b7 35       		.byte	0x35
 3804 04b8 3D020000 		.4byte	0x23d
 3805 04bc 21000000 		.4byte	.LLST1
 3806 04c0 14       		.uleb128 0x14
 3807 04c1 0C000000 		.4byte	.LBB2
 3808 04c5 0C000000 		.4byte	.LBE2-.LBB2
 3809 04c9 15       		.uleb128 0x15
 3810 04ca 770A0000 		.4byte	.LASF100
ARM GAS  C:\Users\Phuong\AppData\Local\Temp\ccPPbPWA.s 			page 92


 3811 04ce 01       		.byte	0x1
 3812 04cf 39       		.byte	0x39
 3813 04d0 3D020000 		.4byte	0x23d
 3814 04d4 42000000 		.4byte	.LLST2
 3815 04d8 00       		.byte	0
 3816 04d9 00       		.byte	0
 3817 04da 06       		.uleb128 0x6
 3818 04db 04       		.byte	0x4
 3819 04dc 82040000 		.4byte	0x482
 3820 04e0 12       		.uleb128 0x12
 3821 04e1 CC0C0000 		.4byte	.LASF93
 3822 04e5 01       		.byte	0x1
 3823 04e6 43       		.byte	0x43
 3824 04e7 00000000 		.4byte	.LFB2
 3825 04eb 0E000000 		.4byte	.LFE2-.LFB2
 3826 04ef 01       		.uleb128 0x1
 3827 04f0 9C       		.byte	0x9c
 3828 04f1 14050000 		.4byte	0x514
 3829 04f5 13       		.uleb128 0x13
 3830 04f6 B0010000 		.4byte	.LASF90
 3831 04fa 01       		.byte	0x1
 3832 04fb 43       		.byte	0x43
 3833 04fc DA040000 		.4byte	0x4da
 3834 0500 55000000 		.4byte	.LLST3
 3835 0504 13       		.uleb128 0x13
 3836 0505 97000000 		.4byte	.LASF94
 3837 0509 01       		.byte	0x1
 3838 050a 43       		.byte	0x43
 3839 050b 71020000 		.4byte	0x271
 3840 050f 76000000 		.4byte	.LLST4
 3841 0513 00       		.byte	0
 3842 0514 16       		.uleb128 0x16
 3843 0515 6F030000 		.4byte	.LASF95
 3844 0519 01       		.byte	0x1
 3845 051a A3       		.byte	0xa3
 3846 051b 00000000 		.4byte	.LFB6
 3847 051f 78000000 		.4byte	.LFE6-.LFB6
 3848 0523 01       		.uleb128 0x1
 3849 0524 9C       		.byte	0x9c
 3850 0525 47060000 		.4byte	0x647
 3851 0529 13       		.uleb128 0x13
 3852 052a 390C0000 		.4byte	.LASF96
 3853 052e 01       		.byte	0x1
 3854 052f A3       		.byte	0xa3
 3855 0530 8F000000 		.4byte	0x8f
 3856 0534 97000000 		.4byte	.LLST5
 3857 0538 13       		.uleb128 0x13
 3858 0539 8C0D0000 		.4byte	.LASF97
 3859 053d 01       		.byte	0x1
 3860 053e A3       		.byte	0xa3
 3861 053f F3010000 		.4byte	0x1f3
 3862 0543 D9000000 		.4byte	.LLST6
 3863 0547 13       		.uleb128 0x13
 3864 0548 FF000000 		.4byte	.LASF98
 3865 054c 01       		.byte	0x1
 3866 054d A3       		.byte	0xa3
 3867 054e 30000000 		.4byte	0x30
ARM GAS  C:\Users\Phuong\AppData\Local\Temp\ccPPbPWA.s 			page 93


 3868 0552 13010000 		.4byte	.LLST7
 3869 0556 13       		.uleb128 0x13
 3870 0557 FC0C0000 		.4byte	.LASF99
 3871 055b 01       		.byte	0x1
 3872 055c A3       		.byte	0xa3
 3873 055d 9E000000 		.4byte	0x9e
 3874 0561 3F010000 		.4byte	.LLST8
 3875 0565 15       		.uleb128 0x15
 3876 0566 B0010000 		.4byte	.LASF90
 3877 056a 01       		.byte	0x1
 3878 056b A9       		.byte	0xa9
 3879 056c DA040000 		.4byte	0x4da
 3880 0570 6B010000 		.4byte	.LLST9
 3881 0574 17       		.uleb128 0x17
 3882 0575 D0090000 		.4byte	.LASF103
 3883 0579 57060000 		.4byte	0x657
 3884 057d 05       		.uleb128 0x5
 3885 057e 03       		.byte	0x3
 3886 057f 00000000 		.4byte	__func__.8006
 3887 0583 18       		.uleb128 0x18
 3888 0584 1C000000 		.4byte	.LBB3
 3889 0588 22000000 		.4byte	.LBE3-.LBB3
 3890 058c EB050000 		.4byte	0x5eb
 3891 0590 19       		.uleb128 0x19
 3892 0591 6C00     		.ascii	"l\000"
 3893 0593 01       		.byte	0x1
 3894 0594 B5       		.byte	0xb5
 3895 0595 7F030000 		.4byte	0x37f
 3896 0599 AD010000 		.4byte	.LLST10
 3897 059d 1A       		.uleb128 0x1a
 3898 059e 20000000 		.4byte	.LVL15
 3899 05a2 AC220000 		.4byte	0x22ac
 3900 05a6 1B       		.uleb128 0x1b
 3901 05a7 3E000000 		.4byte	.LVL18
 3902 05ab 02       		.uleb128 0x2
 3903 05ac 77       		.byte	0x77
 3904 05ad 00       		.sleb128 0
 3905 05ae 1C       		.uleb128 0x1c
 3906 05af 01       		.uleb128 0x1
 3907 05b0 50       		.byte	0x50
 3908 05b1 01       		.uleb128 0x1
 3909 05b2 30       		.byte	0x30
 3910 05b3 1C       		.uleb128 0x1c
 3911 05b4 01       		.uleb128 0x1
 3912 05b5 51       		.byte	0x51
 3913 05b6 05       		.uleb128 0x5
 3914 05b7 03       		.byte	0x3
 3915 05b8 00000000 		.4byte	.LC1
 3916 05bc 1C       		.uleb128 0x1c
 3917 05bd 01       		.uleb128 0x1
 3918 05be 52       		.byte	0x52
 3919 05bf 05       		.uleb128 0x5
 3920 05c0 03       		.byte	0x3
 3921 05c1 00000000 		.4byte	.LANCHOR0
 3922 05c5 1C       		.uleb128 0x1c
 3923 05c6 01       		.uleb128 0x1
 3924 05c7 53       		.byte	0x53
ARM GAS  C:\Users\Phuong\AppData\Local\Temp\ccPPbPWA.s 			page 94


 3925 05c8 02       		.uleb128 0x2
 3926 05c9 08       		.byte	0x8
 3927 05ca B5       		.byte	0xb5
 3928 05cb 1C       		.uleb128 0x1c
 3929 05cc 02       		.uleb128 0x2
 3930 05cd 7D       		.byte	0x7d
 3931 05ce 00       		.sleb128 0
 3932 05cf 01       		.uleb128 0x1
 3933 05d0 31       		.byte	0x31
 3934 05d1 1C       		.uleb128 0x1c
 3935 05d2 02       		.uleb128 0x2
 3936 05d3 7D       		.byte	0x7d
 3937 05d4 04       		.sleb128 4
 3938 05d5 05       		.uleb128 0x5
 3939 05d6 03       		.byte	0x3
 3940 05d7 48000000 		.4byte	.LC3
 3941 05db 1C       		.uleb128 0x1c
 3942 05dc 02       		.uleb128 0x2
 3943 05dd 7D       		.byte	0x7d
 3944 05de 08       		.sleb128 8
 3945 05df 02       		.uleb128 0x2
 3946 05e0 75       		.byte	0x75
 3947 05e1 00       		.sleb128 0
 3948 05e2 1C       		.uleb128 0x1c
 3949 05e3 02       		.uleb128 0x2
 3950 05e4 7D       		.byte	0x7d
 3951 05e5 0C       		.sleb128 12
 3952 05e6 02       		.uleb128 0x2
 3953 05e7 76       		.byte	0x76
 3954 05e8 00       		.sleb128 0
 3955 05e9 00       		.byte	0
 3956 05ea 00       		.byte	0
 3957 05eb 1D       		.uleb128 0x1d
 3958 05ec 1A000000 		.4byte	.LVL13
 3959 05f0 8D040000 		.4byte	0x48d
 3960 05f4 FF050000 		.4byte	0x5ff
 3961 05f8 1C       		.uleb128 0x1c
 3962 05f9 01       		.uleb128 0x1
 3963 05fa 50       		.byte	0x50
 3964 05fb 02       		.uleb128 0x2
 3965 05fc 74       		.byte	0x74
 3966 05fd 00       		.sleb128 0
 3967 05fe 00       		.byte	0
 3968 05ff 1D       		.uleb128 0x1d
 3969 0600 46000000 		.4byte	.LVL19
 3970 0604 8D040000 		.4byte	0x48d
 3971 0608 18060000 		.4byte	0x618
 3972 060c 1C       		.uleb128 0x1c
 3973 060d 01       		.uleb128 0x1
 3974 060e 50       		.byte	0x50
 3975 060f 02       		.uleb128 0x2
 3976 0610 74       		.byte	0x74
 3977 0611 00       		.sleb128 0
 3978 0612 1C       		.uleb128 0x1c
 3979 0613 01       		.uleb128 0x1
 3980 0614 51       		.byte	0x51
 3981 0615 01       		.uleb128 0x1
ARM GAS  C:\Users\Phuong\AppData\Local\Temp\ccPPbPWA.s 			page 95


 3982 0616 33       		.byte	0x33
 3983 0617 00       		.byte	0
 3984 0618 1D       		.uleb128 0x1d
 3985 0619 56000000 		.4byte	.LVL20
 3986 061d E0040000 		.4byte	0x4e0
 3987 0621 31060000 		.4byte	0x631
 3988 0625 1C       		.uleb128 0x1c
 3989 0626 01       		.uleb128 0x1
 3990 0627 50       		.byte	0x50
 3991 0628 02       		.uleb128 0x2
 3992 0629 74       		.byte	0x74
 3993 062a 00       		.sleb128 0
 3994 062b 1C       		.uleb128 0x1c
 3995 062c 01       		.uleb128 0x1
 3996 062d 51       		.byte	0x51
 3997 062e 01       		.uleb128 0x1
 3998 062f 33       		.byte	0x33
 3999 0630 00       		.byte	0
 4000 0631 1E       		.uleb128 0x1e
 4001 0632 60000000 		.4byte	.LVL21
 4002 0636 E0040000 		.4byte	0x4e0
 4003 063a 1C       		.uleb128 0x1c
 4004 063b 01       		.uleb128 0x1
 4005 063c 50       		.byte	0x50
 4006 063d 02       		.uleb128 0x2
 4007 063e 74       		.byte	0x74
 4008 063f 00       		.sleb128 0
 4009 0640 1C       		.uleb128 0x1c
 4010 0641 01       		.uleb128 0x1
 4011 0642 51       		.byte	0x51
 4012 0643 01       		.uleb128 0x1
 4013 0644 31       		.byte	0x31
 4014 0645 00       		.byte	0
 4015 0646 00       		.byte	0
 4016 0647 1F       		.uleb128 0x1f
 4017 0648 A4000000 		.4byte	0xa4
 4018 064c 57060000 		.4byte	0x657
 4019 0650 20       		.uleb128 0x20
 4020 0651 88000000 		.4byte	0x88
 4021 0655 22       		.byte	0x22
 4022 0656 00       		.byte	0
 4023 0657 07       		.uleb128 0x7
 4024 0658 47060000 		.4byte	0x647
 4025 065c 21       		.uleb128 0x21
 4026 065d 0D090000 		.4byte	.LASF105
 4027 0661 01       		.byte	0x1
 4028 0662 4B       		.byte	0x4b
 4029 0663 37000000 		.4byte	0x37
 4030 0667 00000000 		.4byte	.LFB3
 4031 066b 94000000 		.4byte	.LFE3-.LFB3
 4032 066f 01       		.uleb128 0x1
 4033 0670 9C       		.byte	0x9c
 4034 0671 97070000 		.4byte	0x797
 4035 0675 13       		.uleb128 0x13
 4036 0676 B0010000 		.4byte	.LASF90
 4037 067a 01       		.byte	0x1
 4038 067b 4B       		.byte	0x4b
ARM GAS  C:\Users\Phuong\AppData\Local\Temp\ccPPbPWA.s 			page 96


 4039 067c DA040000 		.4byte	0x4da
 4040 0680 CB010000 		.4byte	.LLST11
 4041 0684 13       		.uleb128 0x13
 4042 0685 00040000 		.4byte	.LASF101
 4043 0689 01       		.byte	0x1
 4044 068a 4B       		.byte	0x4b
 4045 068b 97070000 		.4byte	0x797
 4046 068f 34020000 		.4byte	.LLST12
 4047 0693 15       		.uleb128 0x15
 4048 0694 410E0000 		.4byte	.LASF102
 4049 0698 01       		.byte	0x1
 4050 0699 4D       		.byte	0x4d
 4051 069a 37000000 		.4byte	0x37
 4052 069e 76020000 		.4byte	.LLST13
 4053 06a2 17       		.uleb128 0x17
 4054 06a3 D0090000 		.4byte	.LASF103
 4055 06a7 AD070000 		.4byte	0x7ad
 4056 06ab 05       		.uleb128 0x5
 4057 06ac 03       		.byte	0x3
 4058 06ad 24000000 		.4byte	__func__.7965
 4059 06b1 18       		.uleb128 0x18
 4060 06b2 0E000000 		.4byte	.LBB4
 4061 06b6 1C000000 		.4byte	.LBE4-.LBB4
 4062 06ba 0B070000 		.4byte	0x70b
 4063 06be 19       		.uleb128 0x19
 4064 06bf 6C00     		.ascii	"l\000"
 4065 06c1 01       		.byte	0x1
 4066 06c2 52       		.byte	0x52
 4067 06c3 7F030000 		.4byte	0x37f
 4068 06c7 D5020000 		.4byte	.LLST14
 4069 06cb 1A       		.uleb128 0x1a
 4070 06cc 12000000 		.4byte	.LVL27
 4071 06d0 AC220000 		.4byte	0x22ac
 4072 06d4 1B       		.uleb128 0x1b
 4073 06d5 2A000000 		.4byte	.LVL30
 4074 06d9 02       		.uleb128 0x2
 4075 06da 74       		.byte	0x74
 4076 06db 00       		.sleb128 0
 4077 06dc 1C       		.uleb128 0x1c
 4078 06dd 01       		.uleb128 0x1
 4079 06de 50       		.byte	0x50
 4080 06df 01       		.uleb128 0x1
 4081 06e0 30       		.byte	0x30
 4082 06e1 1C       		.uleb128 0x1c
 4083 06e2 01       		.uleb128 0x1
 4084 06e3 51       		.byte	0x51
 4085 06e4 05       		.uleb128 0x5
 4086 06e5 03       		.byte	0x3
 4087 06e6 00000000 		.4byte	.LC1
 4088 06ea 1C       		.uleb128 0x1c
 4089 06eb 01       		.uleb128 0x1
 4090 06ec 52       		.byte	0x52
 4091 06ed 05       		.uleb128 0x5
 4092 06ee 03       		.byte	0x3
 4093 06ef 24000000 		.4byte	.LANCHOR0+36
 4094 06f3 1C       		.uleb128 0x1c
 4095 06f4 01       		.uleb128 0x1
ARM GAS  C:\Users\Phuong\AppData\Local\Temp\ccPPbPWA.s 			page 97


 4096 06f5 53       		.byte	0x53
 4097 06f6 02       		.uleb128 0x2
 4098 06f7 08       		.byte	0x8
 4099 06f8 52       		.byte	0x52
 4100 06f9 1C       		.uleb128 0x1c
 4101 06fa 02       		.uleb128 0x2
 4102 06fb 7D       		.byte	0x7d
 4103 06fc 00       		.sleb128 0
 4104 06fd 01       		.uleb128 0x1
 4105 06fe 31       		.byte	0x31
 4106 06ff 1C       		.uleb128 0x1c
 4107 0700 02       		.uleb128 0x2
 4108 0701 7D       		.byte	0x7d
 4109 0702 04       		.sleb128 4
 4110 0703 05       		.uleb128 0x5
 4111 0704 03       		.byte	0x3
 4112 0705 9C000000 		.4byte	.LC7
 4113 0709 00       		.byte	0
 4114 070a 00       		.byte	0
 4115 070b 22       		.uleb128 0x22
 4116 070c 00000000 		.4byte	.Ldebug_ranges0+0
 4117 0710 15       		.uleb128 0x15
 4118 0711 AB030000 		.4byte	.LASF104
 4119 0715 01       		.byte	0x1
 4120 0716 56       		.byte	0x56
 4121 0717 B8010000 		.4byte	0x1b8
 4122 071b 09030000 		.4byte	.LLST15
 4123 071f 18       		.uleb128 0x18
 4124 0720 38000000 		.4byte	.LBB6
 4125 0724 1C000000 		.4byte	.LBE6-.LBB6
 4126 0728 79070000 		.4byte	0x779
 4127 072c 19       		.uleb128 0x19
 4128 072d 6C00     		.ascii	"l\000"
 4129 072f 01       		.byte	0x1
 4130 0730 5B       		.byte	0x5b
 4131 0731 7F030000 		.4byte	0x37f
 4132 0735 27030000 		.4byte	.LLST16
 4133 0739 1A       		.uleb128 0x1a
 4134 073a 3C000000 		.4byte	.LVL35
 4135 073e AC220000 		.4byte	0x22ac
 4136 0742 1B       		.uleb128 0x1b
 4137 0743 54000000 		.4byte	.LVL38
 4138 0747 02       		.uleb128 0x2
 4139 0748 74       		.byte	0x74
 4140 0749 00       		.sleb128 0
 4141 074a 1C       		.uleb128 0x1c
 4142 074b 01       		.uleb128 0x1
 4143 074c 50       		.byte	0x50
 4144 074d 01       		.uleb128 0x1
 4145 074e 30       		.byte	0x30
 4146 074f 1C       		.uleb128 0x1c
 4147 0750 01       		.uleb128 0x1
 4148 0751 51       		.byte	0x51
 4149 0752 05       		.uleb128 0x5
 4150 0753 03       		.byte	0x3
 4151 0754 00000000 		.4byte	.LC1
 4152 0758 1C       		.uleb128 0x1c
ARM GAS  C:\Users\Phuong\AppData\Local\Temp\ccPPbPWA.s 			page 98


 4153 0759 01       		.uleb128 0x1
 4154 075a 52       		.byte	0x52
 4155 075b 05       		.uleb128 0x5
 4156 075c 03       		.byte	0x3
 4157 075d 24000000 		.4byte	.LANCHOR0+36
 4158 0761 1C       		.uleb128 0x1c
 4159 0762 01       		.uleb128 0x1
 4160 0763 53       		.byte	0x53
 4161 0764 02       		.uleb128 0x2
 4162 0765 08       		.byte	0x8
 4163 0766 5B       		.byte	0x5b
 4164 0767 1C       		.uleb128 0x1c
 4165 0768 02       		.uleb128 0x2
 4166 0769 7D       		.byte	0x7d
 4167 076a 00       		.sleb128 0
 4168 076b 01       		.uleb128 0x1
 4169 076c 31       		.byte	0x31
 4170 076d 1C       		.uleb128 0x1c
 4171 076e 02       		.uleb128 0x2
 4172 076f 7D       		.byte	0x7d
 4173 0770 04       		.sleb128 4
 4174 0771 05       		.uleb128 0x5
 4175 0772 03       		.byte	0x3
 4176 0773 F4000000 		.4byte	.LC9
 4177 0777 00       		.byte	0
 4178 0778 00       		.byte	0
 4179 0779 1D       		.uleb128 0x1d
 4180 077a 34000000 		.4byte	.LVL33
 4181 077e B7220000 		.4byte	0x22b7
 4182 0782 8C070000 		.4byte	0x78c
 4183 0786 1C       		.uleb128 0x1c
 4184 0787 01       		.uleb128 0x1
 4185 0788 50       		.byte	0x50
 4186 0789 01       		.uleb128 0x1
 4187 078a 30       		.byte	0x30
 4188 078b 00       		.byte	0
 4189 078c 1A       		.uleb128 0x1a
 4190 078d 5E000000 		.4byte	.LVL40
 4191 0791 C2220000 		.4byte	0x22c2
 4192 0795 00       		.byte	0
 4193 0796 00       		.byte	0
 4194 0797 06       		.uleb128 0x6
 4195 0798 04       		.byte	0x4
 4196 0799 C3010000 		.4byte	0x1c3
 4197 079d 1F       		.uleb128 0x1f
 4198 079e A4000000 		.4byte	0xa4
 4199 07a2 AD070000 		.4byte	0x7ad
 4200 07a6 20       		.uleb128 0x20
 4201 07a7 88000000 		.4byte	0x88
 4202 07ab 1C       		.byte	0x1c
 4203 07ac 00       		.byte	0
 4204 07ad 07       		.uleb128 0x7
 4205 07ae 9D070000 		.4byte	0x79d
 4206 07b2 21       		.uleb128 0x21
 4207 07b3 48050000 		.4byte	.LASF106
 4208 07b7 01       		.byte	0x1
 4209 07b8 6D       		.byte	0x6d
ARM GAS  C:\Users\Phuong\AppData\Local\Temp\ccPPbPWA.s 			page 99


 4210 07b9 37000000 		.4byte	0x37
 4211 07bd 00000000 		.4byte	.LFB4
 4212 07c1 94000000 		.4byte	.LFE4-.LFB4
 4213 07c5 01       		.uleb128 0x1
 4214 07c6 9C       		.byte	0x9c
 4215 07c7 ED080000 		.4byte	0x8ed
 4216 07cb 13       		.uleb128 0x13
 4217 07cc B0010000 		.4byte	.LASF90
 4218 07d0 01       		.byte	0x1
 4219 07d1 6D       		.byte	0x6d
 4220 07d2 DA040000 		.4byte	0x4da
 4221 07d6 50030000 		.4byte	.LLST17
 4222 07da 13       		.uleb128 0x13
 4223 07db 00040000 		.4byte	.LASF101
 4224 07df 01       		.byte	0x1
 4225 07e0 6D       		.byte	0x6d
 4226 07e1 97070000 		.4byte	0x797
 4227 07e5 B9030000 		.4byte	.LLST18
 4228 07e9 15       		.uleb128 0x15
 4229 07ea 410E0000 		.4byte	.LASF102
 4230 07ee 01       		.byte	0x1
 4231 07ef 6F       		.byte	0x6f
 4232 07f0 37000000 		.4byte	0x37
 4233 07f4 FB030000 		.4byte	.LLST19
 4234 07f8 17       		.uleb128 0x17
 4235 07f9 D0090000 		.4byte	.LASF103
 4236 07fd FD080000 		.4byte	0x8fd
 4237 0801 05       		.uleb128 0x5
 4238 0802 03       		.byte	0x3
 4239 0803 44000000 		.4byte	__func__.7978
 4240 0807 18       		.uleb128 0x18
 4241 0808 0E000000 		.4byte	.LBB8
 4242 080c 1C000000 		.4byte	.LBE8-.LBB8
 4243 0810 61080000 		.4byte	0x861
 4244 0814 19       		.uleb128 0x19
 4245 0815 6C00     		.ascii	"l\000"
 4246 0817 01       		.byte	0x1
 4247 0818 74       		.byte	0x74
 4248 0819 7F030000 		.4byte	0x37f
 4249 081d 5A040000 		.4byte	.LLST20
 4250 0821 1A       		.uleb128 0x1a
 4251 0822 12000000 		.4byte	.LVL52
 4252 0826 AC220000 		.4byte	0x22ac
 4253 082a 1B       		.uleb128 0x1b
 4254 082b 2A000000 		.4byte	.LVL55
 4255 082f 02       		.uleb128 0x2
 4256 0830 74       		.byte	0x74
 4257 0831 00       		.sleb128 0
 4258 0832 1C       		.uleb128 0x1c
 4259 0833 01       		.uleb128 0x1
 4260 0834 50       		.byte	0x50
 4261 0835 01       		.uleb128 0x1
 4262 0836 30       		.byte	0x30
 4263 0837 1C       		.uleb128 0x1c
 4264 0838 01       		.uleb128 0x1
 4265 0839 51       		.byte	0x51
 4266 083a 05       		.uleb128 0x5
ARM GAS  C:\Users\Phuong\AppData\Local\Temp\ccPPbPWA.s 			page 100


 4267 083b 03       		.byte	0x3
 4268 083c 00000000 		.4byte	.LC1
 4269 0840 1C       		.uleb128 0x1c
 4270 0841 01       		.uleb128 0x1
 4271 0842 52       		.byte	0x52
 4272 0843 05       		.uleb128 0x5
 4273 0844 03       		.byte	0x3
 4274 0845 44000000 		.4byte	.LANCHOR0+68
 4275 0849 1C       		.uleb128 0x1c
 4276 084a 01       		.uleb128 0x1
 4277 084b 53       		.byte	0x53
 4278 084c 02       		.uleb128 0x2
 4279 084d 08       		.byte	0x8
 4280 084e 74       		.byte	0x74
 4281 084f 1C       		.uleb128 0x1c
 4282 0850 02       		.uleb128 0x2
 4283 0851 7D       		.byte	0x7d
 4284 0852 00       		.sleb128 0
 4285 0853 01       		.uleb128 0x1
 4286 0854 31       		.byte	0x31
 4287 0855 1C       		.uleb128 0x1c
 4288 0856 02       		.uleb128 0x2
 4289 0857 7D       		.byte	0x7d
 4290 0858 04       		.sleb128 4
 4291 0859 05       		.uleb128 0x5
 4292 085a 03       		.byte	0x3
 4293 085b 38010000 		.4byte	.LC13
 4294 085f 00       		.byte	0
 4295 0860 00       		.byte	0
 4296 0861 22       		.uleb128 0x22
 4297 0862 18000000 		.4byte	.Ldebug_ranges0+0x18
 4298 0866 15       		.uleb128 0x15
 4299 0867 AB030000 		.4byte	.LASF104
 4300 086b 01       		.byte	0x1
 4301 086c 78       		.byte	0x78
 4302 086d B8010000 		.4byte	0x1b8
 4303 0871 8E040000 		.4byte	.LLST21
 4304 0875 18       		.uleb128 0x18
 4305 0876 38000000 		.4byte	.LBB10
 4306 087a 1C000000 		.4byte	.LBE10-.LBB10
 4307 087e CF080000 		.4byte	0x8cf
 4308 0882 19       		.uleb128 0x19
 4309 0883 6C00     		.ascii	"l\000"
 4310 0885 01       		.byte	0x1
 4311 0886 7D       		.byte	0x7d
 4312 0887 7F030000 		.4byte	0x37f
 4313 088b AC040000 		.4byte	.LLST22
 4314 088f 1A       		.uleb128 0x1a
 4315 0890 3C000000 		.4byte	.LVL60
 4316 0894 AC220000 		.4byte	0x22ac
 4317 0898 1B       		.uleb128 0x1b
 4318 0899 54000000 		.4byte	.LVL63
 4319 089d 02       		.uleb128 0x2
 4320 089e 74       		.byte	0x74
 4321 089f 00       		.sleb128 0
 4322 08a0 1C       		.uleb128 0x1c
 4323 08a1 01       		.uleb128 0x1
ARM GAS  C:\Users\Phuong\AppData\Local\Temp\ccPPbPWA.s 			page 101


 4324 08a2 50       		.byte	0x50
 4325 08a3 01       		.uleb128 0x1
 4326 08a4 30       		.byte	0x30
 4327 08a5 1C       		.uleb128 0x1c
 4328 08a6 01       		.uleb128 0x1
 4329 08a7 51       		.byte	0x51
 4330 08a8 05       		.uleb128 0x5
 4331 08a9 03       		.byte	0x3
 4332 08aa 00000000 		.4byte	.LC1
 4333 08ae 1C       		.uleb128 0x1c
 4334 08af 01       		.uleb128 0x1
 4335 08b0 52       		.byte	0x52
 4336 08b1 05       		.uleb128 0x5
 4337 08b2 03       		.byte	0x3
 4338 08b3 44000000 		.4byte	.LANCHOR0+68
 4339 08b7 1C       		.uleb128 0x1c
 4340 08b8 01       		.uleb128 0x1
 4341 08b9 53       		.byte	0x53
 4342 08ba 02       		.uleb128 0x2
 4343 08bb 08       		.byte	0x8
 4344 08bc 7D       		.byte	0x7d
 4345 08bd 1C       		.uleb128 0x1c
 4346 08be 02       		.uleb128 0x2
 4347 08bf 7D       		.byte	0x7d
 4348 08c0 00       		.sleb128 0
 4349 08c1 01       		.uleb128 0x1
 4350 08c2 31       		.byte	0x31
 4351 08c3 1C       		.uleb128 0x1c
 4352 08c4 02       		.uleb128 0x2
 4353 08c5 7D       		.byte	0x7d
 4354 08c6 04       		.sleb128 4
 4355 08c7 05       		.uleb128 0x5
 4356 08c8 03       		.byte	0x3
 4357 08c9 90010000 		.4byte	.LC15
 4358 08cd 00       		.byte	0
 4359 08ce 00       		.byte	0
 4360 08cf 1D       		.uleb128 0x1d
 4361 08d0 34000000 		.4byte	.LVL58
 4362 08d4 B7220000 		.4byte	0x22b7
 4363 08d8 E2080000 		.4byte	0x8e2
 4364 08dc 1C       		.uleb128 0x1c
 4365 08dd 01       		.uleb128 0x1
 4366 08de 50       		.byte	0x50
 4367 08df 01       		.uleb128 0x1
 4368 08e0 30       		.byte	0x30
 4369 08e1 00       		.byte	0
 4370 08e2 1A       		.uleb128 0x1a
 4371 08e3 5E000000 		.4byte	.LVL65
 4372 08e7 C2220000 		.4byte	0x22c2
 4373 08eb 00       		.byte	0
 4374 08ec 00       		.byte	0
 4375 08ed 1F       		.uleb128 0x1f
 4376 08ee A4000000 		.4byte	0xa4
 4377 08f2 FD080000 		.4byte	0x8fd
 4378 08f6 20       		.uleb128 0x20
 4379 08f7 88000000 		.4byte	0x88
 4380 08fb 20       		.byte	0x20
ARM GAS  C:\Users\Phuong\AppData\Local\Temp\ccPPbPWA.s 			page 102


 4381 08fc 00       		.byte	0
 4382 08fd 07       		.uleb128 0x7
 4383 08fe ED080000 		.4byte	0x8ed
 4384 0902 23       		.uleb128 0x23
 4385 0903 F8050000 		.4byte	.LASF107
 4386 0907 01       		.byte	0x1
 4387 0908 8E       		.byte	0x8e
 4388 0909 A2010000 		.4byte	0x1a2
 4389 090d 00000000 		.4byte	.LFB5
 4390 0911 84000000 		.4byte	.LFE5-.LFB5
 4391 0915 01       		.uleb128 0x1
 4392 0916 9C       		.byte	0x9c
 4393 0917 750A0000 		.4byte	0xa75
 4394 091b 13       		.uleb128 0x13
 4395 091c 69050000 		.4byte	.LASF65
 4396 0920 01       		.byte	0x1
 4397 0921 8E       		.byte	0x8e
 4398 0922 A2010000 		.4byte	0x1a2
 4399 0926 D5040000 		.4byte	.LLST23
 4400 092a 13       		.uleb128 0x13
 4401 092b 770B0000 		.4byte	.LASF63
 4402 092f 01       		.byte	0x1
 4403 0930 8E       		.byte	0x8e
 4404 0931 9E000000 		.4byte	0x9e
 4405 0935 0F050000 		.4byte	.LLST24
 4406 0939 13       		.uleb128 0x13
 4407 093a 02020000 		.4byte	.LASF64
 4408 093e 01       		.byte	0x1
 4409 093f 8E       		.byte	0x8e
 4410 0940 9E000000 		.4byte	0x9e
 4411 0944 5F050000 		.4byte	.LLST25
 4412 0948 15       		.uleb128 0x15
 4413 0949 3A080000 		.4byte	.LASF108
 4414 094d 01       		.byte	0x1
 4415 094e 90       		.byte	0x90
 4416 094f A2010000 		.4byte	0x1a2
 4417 0953 AF050000 		.4byte	.LLST26
 4418 0957 17       		.uleb128 0x17
 4419 0958 D0090000 		.4byte	.LASF103
 4420 095c 850A0000 		.4byte	0xa85
 4421 0960 05       		.uleb128 0x5
 4422 0961 03       		.byte	0x3
 4423 0962 68000000 		.4byte	__func__.7992
 4424 0966 18       		.uleb128 0x18
 4425 0967 1C000000 		.4byte	.LBB12
 4426 096b 1E000000 		.4byte	.LBE12-.LBB12
 4427 096f C0090000 		.4byte	0x9c0
 4428 0973 19       		.uleb128 0x19
 4429 0974 6C00     		.ascii	"l\000"
 4430 0976 01       		.byte	0x1
 4431 0977 96       		.byte	0x96
 4432 0978 7F030000 		.4byte	0x37f
 4433 097c EE050000 		.4byte	.LLST27
 4434 0980 1A       		.uleb128 0x1a
 4435 0981 20000000 		.4byte	.LVL79
 4436 0985 AC220000 		.4byte	0x22ac
 4437 0989 1B       		.uleb128 0x1b
ARM GAS  C:\Users\Phuong\AppData\Local\Temp\ccPPbPWA.s 			page 103


 4438 098a 38000000 		.4byte	.LVL82
 4439 098e 02       		.uleb128 0x2
 4440 098f 75       		.byte	0x75
 4441 0990 00       		.sleb128 0
 4442 0991 1C       		.uleb128 0x1c
 4443 0992 01       		.uleb128 0x1
 4444 0993 50       		.byte	0x50
 4445 0994 01       		.uleb128 0x1
 4446 0995 30       		.byte	0x30
 4447 0996 1C       		.uleb128 0x1c
 4448 0997 01       		.uleb128 0x1
 4449 0998 51       		.byte	0x51
 4450 0999 05       		.uleb128 0x5
 4451 099a 03       		.byte	0x3
 4452 099b 00000000 		.4byte	.LC1
 4453 099f 1C       		.uleb128 0x1c
 4454 09a0 01       		.uleb128 0x1
 4455 09a1 52       		.byte	0x52
 4456 09a2 05       		.uleb128 0x5
 4457 09a3 03       		.byte	0x3
 4458 09a4 68000000 		.4byte	.LANCHOR0+104
 4459 09a8 1C       		.uleb128 0x1c
 4460 09a9 01       		.uleb128 0x1
 4461 09aa 53       		.byte	0x53
 4462 09ab 02       		.uleb128 0x2
 4463 09ac 08       		.byte	0x8
 4464 09ad 96       		.byte	0x96
 4465 09ae 1C       		.uleb128 0x1c
 4466 09af 02       		.uleb128 0x2
 4467 09b0 7D       		.byte	0x7d
 4468 09b1 00       		.sleb128 0
 4469 09b2 01       		.uleb128 0x1
 4470 09b3 31       		.byte	0x31
 4471 09b4 1C       		.uleb128 0x1c
 4472 09b5 02       		.uleb128 0x2
 4473 09b6 7D       		.byte	0x7d
 4474 09b7 04       		.sleb128 4
 4475 09b8 05       		.uleb128 0x5
 4476 09b9 03       		.byte	0x3
 4477 09ba E4010000 		.4byte	.LC21
 4478 09be 00       		.byte	0
 4479 09bf 00       		.byte	0
 4480 09c0 18       		.uleb128 0x18
 4481 09c1 4E000000 		.4byte	.LBB13
 4482 09c5 1C000000 		.4byte	.LBE13-.LBB13
 4483 09c9 1A0A0000 		.4byte	0xa1a
 4484 09cd 19       		.uleb128 0x19
 4485 09ce 6C00     		.ascii	"l\000"
 4486 09d0 01       		.byte	0x1
 4487 09d1 9D       		.byte	0x9d
 4488 09d2 7F030000 		.4byte	0x37f
 4489 09d6 0C060000 		.4byte	.LLST28
 4490 09da 1A       		.uleb128 0x1a
 4491 09db 52000000 		.4byte	.LVL87
 4492 09df AC220000 		.4byte	0x22ac
 4493 09e3 1B       		.uleb128 0x1b
 4494 09e4 6A000000 		.4byte	.LVL90
ARM GAS  C:\Users\Phuong\AppData\Local\Temp\ccPPbPWA.s 			page 104


 4495 09e8 02       		.uleb128 0x2
 4496 09e9 75       		.byte	0x75
 4497 09ea 00       		.sleb128 0
 4498 09eb 1C       		.uleb128 0x1c
 4499 09ec 01       		.uleb128 0x1
 4500 09ed 50       		.byte	0x50
 4501 09ee 01       		.uleb128 0x1
 4502 09ef 30       		.byte	0x30
 4503 09f0 1C       		.uleb128 0x1c
 4504 09f1 01       		.uleb128 0x1
 4505 09f2 51       		.byte	0x51
 4506 09f3 05       		.uleb128 0x5
 4507 09f4 03       		.byte	0x3
 4508 09f5 00000000 		.4byte	.LC1
 4509 09f9 1C       		.uleb128 0x1c
 4510 09fa 01       		.uleb128 0x1
 4511 09fb 52       		.byte	0x52
 4512 09fc 05       		.uleb128 0x5
 4513 09fd 03       		.byte	0x3
 4514 09fe 68000000 		.4byte	.LANCHOR0+104
 4515 0a02 1C       		.uleb128 0x1c
 4516 0a03 01       		.uleb128 0x1
 4517 0a04 53       		.byte	0x53
 4518 0a05 02       		.uleb128 0x2
 4519 0a06 08       		.byte	0x8
 4520 0a07 9D       		.byte	0x9d
 4521 0a08 1C       		.uleb128 0x1c
 4522 0a09 02       		.uleb128 0x2
 4523 0a0a 7D       		.byte	0x7d
 4524 0a0b 00       		.sleb128 0
 4525 0a0c 01       		.uleb128 0x1
 4526 0a0d 31       		.byte	0x31
 4527 0a0e 1C       		.uleb128 0x1c
 4528 0a0f 02       		.uleb128 0x2
 4529 0a10 7D       		.byte	0x7d
 4530 0a11 04       		.sleb128 4
 4531 0a12 05       		.uleb128 0x5
 4532 0a13 03       		.byte	0x3
 4533 0a14 E4010000 		.4byte	.LC21
 4534 0a18 00       		.byte	0
 4535 0a19 00       		.byte	0
 4536 0a1a 1D       		.uleb128 0x1d
 4537 0a1b 0E000000 		.4byte	.LVL76
 4538 0a1f CD220000 		.4byte	0x22cd
 4539 0a23 2F0A0000 		.4byte	0xa2f
 4540 0a27 1C       		.uleb128 0x1c
 4541 0a28 01       		.uleb128 0x1
 4542 0a29 50       		.byte	0x50
 4543 0a2a 03       		.uleb128 0x3
 4544 0a2b F3       		.byte	0xf3
 4545 0a2c 01       		.uleb128 0x1
 4546 0a2d 50       		.byte	0x50
 4547 0a2e 00       		.byte	0
 4548 0a2f 1D       		.uleb128 0x1d
 4549 0a30 18000000 		.4byte	.LVL77
 4550 0a34 D8220000 		.4byte	0x22d8
 4551 0a38 4C0A0000 		.4byte	0xa4c
ARM GAS  C:\Users\Phuong\AppData\Local\Temp\ccPPbPWA.s 			page 105


 4552 0a3c 1C       		.uleb128 0x1c
 4553 0a3d 01       		.uleb128 0x1
 4554 0a3e 50       		.byte	0x50
 4555 0a3f 05       		.uleb128 0x5
 4556 0a40 03       		.byte	0x3
 4557 0a41 D4010000 		.4byte	.LC17
 4558 0a45 1C       		.uleb128 0x1c
 4559 0a46 01       		.uleb128 0x1
 4560 0a47 52       		.byte	0x52
 4561 0a48 02       		.uleb128 0x2
 4562 0a49 75       		.byte	0x75
 4563 0a4a 00       		.sleb128 0
 4564 0a4b 00       		.byte	0
 4565 0a4c 1A       		.uleb128 0x1a
 4566 0a4d 3E000000 		.4byte	.LVL84
 4567 0a51 CD220000 		.4byte	0x22cd
 4568 0a55 1E       		.uleb128 0x1e
 4569 0a56 4A000000 		.4byte	.LVL85
 4570 0a5a D8220000 		.4byte	0x22d8
 4571 0a5e 1C       		.uleb128 0x1c
 4572 0a5f 01       		.uleb128 0x1
 4573 0a60 50       		.byte	0x50
 4574 0a61 05       		.uleb128 0x5
 4575 0a62 03       		.byte	0x3
 4576 0a63 24020000 		.4byte	.LC23
 4577 0a67 1C       		.uleb128 0x1c
 4578 0a68 01       		.uleb128 0x1
 4579 0a69 52       		.byte	0x52
 4580 0a6a 02       		.uleb128 0x2
 4581 0a6b 75       		.byte	0x75
 4582 0a6c 00       		.sleb128 0
 4583 0a6d 1C       		.uleb128 0x1c
 4584 0a6e 01       		.uleb128 0x1
 4585 0a6f 53       		.byte	0x53
 4586 0a70 02       		.uleb128 0x2
 4587 0a71 74       		.byte	0x74
 4588 0a72 00       		.sleb128 0
 4589 0a73 00       		.byte	0
 4590 0a74 00       		.byte	0
 4591 0a75 1F       		.uleb128 0x1f
 4592 0a76 A4000000 		.4byte	0xa4
 4593 0a7a 850A0000 		.4byte	0xa85
 4594 0a7e 20       		.uleb128 0x20
 4595 0a7f 88000000 		.4byte	0x88
 4596 0a83 1D       		.byte	0x1d
 4597 0a84 00       		.byte	0
 4598 0a85 07       		.uleb128 0x7
 4599 0a86 750A0000 		.4byte	0xa75
 4600 0a8a 23       		.uleb128 0x23
 4601 0a8b BE030000 		.4byte	.LASF109
 4602 0a8f 01       		.byte	0x1
 4603 0a90 C9       		.byte	0xc9
 4604 0a91 37000000 		.4byte	0x37
 4605 0a95 00000000 		.4byte	.LFB7
 4606 0a99 A4000000 		.4byte	.LFE7-.LFB7
 4607 0a9d 01       		.uleb128 0x1
 4608 0a9e 9C       		.byte	0x9c
ARM GAS  C:\Users\Phuong\AppData\Local\Temp\ccPPbPWA.s 			page 106


 4609 0a9f 1D0C0000 		.4byte	0xc1d
 4610 0aa3 13       		.uleb128 0x13
 4611 0aa4 B0010000 		.4byte	.LASF90
 4612 0aa8 01       		.byte	0x1
 4613 0aa9 C9       		.byte	0xc9
 4614 0aaa DA040000 		.4byte	0x4da
 4615 0aae 2A060000 		.4byte	.LLST29
 4616 0ab2 13       		.uleb128 0x13
 4617 0ab3 0D040000 		.4byte	.LASF110
 4618 0ab7 01       		.byte	0x1
 4619 0ab8 C9       		.byte	0xc9
 4620 0ab9 A2010000 		.4byte	0x1a2
 4621 0abd 56060000 		.4byte	.LLST30
 4622 0ac1 13       		.uleb128 0x13
 4623 0ac2 0C020000 		.4byte	.LASF111
 4624 0ac6 01       		.byte	0x1
 4625 0ac7 C9       		.byte	0xc9
 4626 0ac8 9E000000 		.4byte	0x9e
 4627 0acc 77060000 		.4byte	.LLST31
 4628 0ad0 15       		.uleb128 0x15
 4629 0ad1 410E0000 		.4byte	.LASF102
 4630 0ad5 01       		.byte	0x1
 4631 0ad6 CB       		.byte	0xcb
 4632 0ad7 37000000 		.4byte	0x37
 4633 0adb BC060000 		.4byte	.LLST32
 4634 0adf 15       		.uleb128 0x15
 4635 0ae0 53080000 		.4byte	.LASF112
 4636 0ae4 01       		.byte	0x1
 4637 0ae5 D5       		.byte	0xd5
 4638 0ae6 9E000000 		.4byte	0x9e
 4639 0aea F5060000 		.4byte	.LLST33
 4640 0aee 17       		.uleb128 0x17
 4641 0aef D0090000 		.4byte	.LASF103
 4642 0af3 2D0C0000 		.4byte	0xc2d
 4643 0af7 05       		.uleb128 0x5
 4644 0af8 03       		.byte	0x3
 4645 0af9 88000000 		.4byte	__func__.8017
 4646 0afd 18       		.uleb128 0x18
 4647 0afe 30000000 		.4byte	.LBB14
 4648 0b02 20000000 		.4byte	.LBE14-.LBB14
 4649 0b06 570B0000 		.4byte	0xb57
 4650 0b0a 19       		.uleb128 0x19
 4651 0b0b 6C00     		.ascii	"l\000"
 4652 0b0d 01       		.byte	0x1
 4653 0b0e DD       		.byte	0xdd
 4654 0b0f 7F030000 		.4byte	0x37f
 4655 0b13 13070000 		.4byte	.LLST34
 4656 0b17 1A       		.uleb128 0x1a
 4657 0b18 34000000 		.4byte	.LVL100
 4658 0b1c AC220000 		.4byte	0x22ac
 4659 0b20 1B       		.uleb128 0x1b
 4660 0b21 50000000 		.4byte	.LVL103
 4661 0b25 02       		.uleb128 0x2
 4662 0b26 75       		.byte	0x75
 4663 0b27 00       		.sleb128 0
 4664 0b28 1C       		.uleb128 0x1c
 4665 0b29 01       		.uleb128 0x1
ARM GAS  C:\Users\Phuong\AppData\Local\Temp\ccPPbPWA.s 			page 107


 4666 0b2a 50       		.byte	0x50
 4667 0b2b 01       		.uleb128 0x1
 4668 0b2c 30       		.byte	0x30
 4669 0b2d 1C       		.uleb128 0x1c
 4670 0b2e 01       		.uleb128 0x1
 4671 0b2f 51       		.byte	0x51
 4672 0b30 05       		.uleb128 0x5
 4673 0b31 03       		.byte	0x3
 4674 0b32 00000000 		.4byte	.LC1
 4675 0b36 1C       		.uleb128 0x1c
 4676 0b37 01       		.uleb128 0x1
 4677 0b38 52       		.byte	0x52
 4678 0b39 05       		.uleb128 0x5
 4679 0b3a 03       		.byte	0x3
 4680 0b3b 88000000 		.4byte	.LANCHOR1+8
 4681 0b3f 1C       		.uleb128 0x1c
 4682 0b40 01       		.uleb128 0x1
 4683 0b41 53       		.byte	0x53
 4684 0b42 02       		.uleb128 0x2
 4685 0b43 08       		.byte	0x8
 4686 0b44 DD       		.byte	0xdd
 4687 0b45 1C       		.uleb128 0x1c
 4688 0b46 02       		.uleb128 0x2
 4689 0b47 7D       		.byte	0x7d
 4690 0b48 00       		.sleb128 0
 4691 0b49 01       		.uleb128 0x1
 4692 0b4a 31       		.byte	0x31
 4693 0b4b 1C       		.uleb128 0x1c
 4694 0b4c 02       		.uleb128 0x2
 4695 0b4d 7D       		.byte	0x7d
 4696 0b4e 04       		.sleb128 4
 4697 0b4f 05       		.uleb128 0x5
 4698 0b50 03       		.byte	0x3
 4699 0b51 60020000 		.4byte	.LC30
 4700 0b55 00       		.byte	0
 4701 0b56 00       		.byte	0
 4702 0b57 18       		.uleb128 0x18
 4703 0b58 54000000 		.4byte	.LBB15
 4704 0b5c 32000000 		.4byte	.LBE15-.LBB15
 4705 0b60 DD0B0000 		.4byte	0xbdd
 4706 0b64 15       		.uleb128 0x15
 4707 0b65 AB030000 		.4byte	.LASF104
 4708 0b69 01       		.byte	0x1
 4709 0b6a E4       		.byte	0xe4
 4710 0b6b B8010000 		.4byte	0x1b8
 4711 0b6f 3C070000 		.4byte	.LLST35
 4712 0b73 18       		.uleb128 0x18
 4713 0b74 60000000 		.4byte	.LBB16
 4714 0b78 20000000 		.4byte	.LBE16-.LBB16
 4715 0b7c CD0B0000 		.4byte	0xbcd
 4716 0b80 19       		.uleb128 0x19
 4717 0b81 6C00     		.ascii	"l\000"
 4718 0b83 01       		.byte	0x1
 4719 0b84 E8       		.byte	0xe8
 4720 0b85 7F030000 		.4byte	0x37f
 4721 0b89 5A070000 		.4byte	.LLST36
 4722 0b8d 1A       		.uleb128 0x1a
ARM GAS  C:\Users\Phuong\AppData\Local\Temp\ccPPbPWA.s 			page 108


 4723 0b8e 64000000 		.4byte	.LVL107
 4724 0b92 AC220000 		.4byte	0x22ac
 4725 0b96 1B       		.uleb128 0x1b
 4726 0b97 80000000 		.4byte	.LVL110
 4727 0b9b 02       		.uleb128 0x2
 4728 0b9c 76       		.byte	0x76
 4729 0b9d 00       		.sleb128 0
 4730 0b9e 1C       		.uleb128 0x1c
 4731 0b9f 01       		.uleb128 0x1
 4732 0ba0 50       		.byte	0x50
 4733 0ba1 01       		.uleb128 0x1
 4734 0ba2 30       		.byte	0x30
 4735 0ba3 1C       		.uleb128 0x1c
 4736 0ba4 01       		.uleb128 0x1
 4737 0ba5 51       		.byte	0x51
 4738 0ba6 05       		.uleb128 0x5
 4739 0ba7 03       		.byte	0x3
 4740 0ba8 00000000 		.4byte	.LC1
 4741 0bac 1C       		.uleb128 0x1c
 4742 0bad 01       		.uleb128 0x1
 4743 0bae 52       		.byte	0x52
 4744 0baf 05       		.uleb128 0x5
 4745 0bb0 03       		.byte	0x3
 4746 0bb1 88000000 		.4byte	.LANCHOR1+8
 4747 0bb5 1C       		.uleb128 0x1c
 4748 0bb6 01       		.uleb128 0x1
 4749 0bb7 53       		.byte	0x53
 4750 0bb8 02       		.uleb128 0x2
 4751 0bb9 08       		.byte	0x8
 4752 0bba E8       		.byte	0xe8
 4753 0bbb 1C       		.uleb128 0x1c
 4754 0bbc 02       		.uleb128 0x2
 4755 0bbd 7D       		.byte	0x7d
 4756 0bbe 00       		.sleb128 0
 4757 0bbf 01       		.uleb128 0x1
 4758 0bc0 31       		.byte	0x31
 4759 0bc1 1C       		.uleb128 0x1c
 4760 0bc2 02       		.uleb128 0x2
 4761 0bc3 7D       		.byte	0x7d
 4762 0bc4 04       		.sleb128 4
 4763 0bc5 05       		.uleb128 0x5
 4764 0bc6 03       		.byte	0x3
 4765 0bc7 A8020000 		.4byte	.LC32
 4766 0bcb 00       		.byte	0
 4767 0bcc 00       		.byte	0
 4768 0bcd 1E       		.uleb128 0x1e
 4769 0bce 5A000000 		.4byte	.LVL105
 4770 0bd2 B7220000 		.4byte	0x22b7
 4771 0bd6 1C       		.uleb128 0x1c
 4772 0bd7 01       		.uleb128 0x1
 4773 0bd8 50       		.byte	0x50
 4774 0bd9 01       		.uleb128 0x1
 4775 0bda 30       		.byte	0x30
 4776 0bdb 00       		.byte	0
 4777 0bdc 00       		.byte	0
 4778 0bdd 1D       		.uleb128 0x1d
 4779 0bde 14000000 		.4byte	.LVL95
ARM GAS  C:\Users\Phuong\AppData\Local\Temp\ccPPbPWA.s 			page 109


 4780 0be2 CD220000 		.4byte	0x22cd
 4781 0be6 F20B0000 		.4byte	0xbf2
 4782 0bea 1C       		.uleb128 0x1c
 4783 0beb 01       		.uleb128 0x1
 4784 0bec 50       		.byte	0x50
 4785 0bed 03       		.uleb128 0x3
 4786 0bee F3       		.byte	0xf3
 4787 0bef 01       		.uleb128 0x1
 4788 0bf0 51       		.byte	0x51
 4789 0bf1 00       		.byte	0
 4790 0bf2 1E       		.uleb128 0x1e
 4791 0bf3 26000000 		.4byte	.LVL98
 4792 0bf7 E3220000 		.4byte	0x22e3
 4793 0bfb 1C       		.uleb128 0x1c
 4794 0bfc 01       		.uleb128 0x1
 4795 0bfd 51       		.byte	0x51
 4796 0bfe 05       		.uleb128 0x5
 4797 0bff 03       		.byte	0x3
 4798 0c00 40020000 		.4byte	.LC25
 4799 0c04 1C       		.uleb128 0x1c
 4800 0c05 01       		.uleb128 0x1
 4801 0c06 53       		.byte	0x53
 4802 0c07 02       		.uleb128 0x2
 4803 0c08 75       		.byte	0x75
 4804 0c09 00       		.sleb128 0
 4805 0c0a 1C       		.uleb128 0x1c
 4806 0c0b 02       		.uleb128 0x2
 4807 0c0c 7D       		.byte	0x7d
 4808 0c0d 00       		.sleb128 0
 4809 0c0e 05       		.uleb128 0x5
 4810 0c0f 03       		.byte	0x3
 4811 0c10 00000000 		.4byte	on_cbs_put_token_complete_callback
 4812 0c14 1C       		.uleb128 0x1c
 4813 0c15 02       		.uleb128 0x2
 4814 0c16 7D       		.byte	0x7d
 4815 0c17 04       		.sleb128 4
 4816 0c18 02       		.uleb128 0x2
 4817 0c19 74       		.byte	0x74
 4818 0c1a 00       		.sleb128 0
 4819 0c1b 00       		.byte	0
 4820 0c1c 00       		.byte	0
 4821 0c1d 1F       		.uleb128 0x1f
 4822 0c1e A4000000 		.4byte	0xa4
 4823 0c22 2D0C0000 		.4byte	0xc2d
 4824 0c26 20       		.uleb128 0x20
 4825 0c27 88000000 		.4byte	0x88
 4826 0c2b 14       		.byte	0x14
 4827 0c2c 00       		.byte	0
 4828 0c2d 07       		.uleb128 0x7
 4829 0c2e 1D0C0000 		.4byte	0xc1d
 4830 0c32 23       		.uleb128 0x23
 4831 0c33 E30B0000 		.4byte	.LASF113
 4832 0c37 01       		.byte	0x1
 4833 0c38 F3       		.byte	0xf3
 4834 0c39 37000000 		.4byte	0x37
 4835 0c3d 00000000 		.4byte	.LFB8
 4836 0c41 EC010000 		.4byte	.LFE8-.LFB8
ARM GAS  C:\Users\Phuong\AppData\Local\Temp\ccPPbPWA.s 			page 110


 4837 0c45 01       		.uleb128 0x1
 4838 0c46 9C       		.byte	0x9c
 4839 0c47 F80F0000 		.4byte	0xff8
 4840 0c4b 13       		.uleb128 0x13
 4841 0c4c B0010000 		.4byte	.LASF90
 4842 0c50 01       		.byte	0x1
 4843 0c51 F3       		.byte	0xf3
 4844 0c52 DA040000 		.4byte	0x4da
 4845 0c56 78070000 		.4byte	.LLST37
 4846 0c5a 15       		.uleb128 0x15
 4847 0c5b 410E0000 		.4byte	.LASF102
 4848 0c5f 01       		.byte	0x1
 4849 0c60 F5       		.byte	0xf5
 4850 0c61 37000000 		.4byte	0x37
 4851 0c65 D6070000 		.4byte	.LLST38
 4852 0c69 15       		.uleb128 0x15
 4853 0c6a 0C020000 		.4byte	.LASF111
 4854 0c6e 01       		.byte	0x1
 4855 0c6f F6       		.byte	0xf6
 4856 0c70 91000000 		.4byte	0x91
 4857 0c74 4B080000 		.4byte	.LLST39
 4858 0c78 15       		.uleb128 0x15
 4859 0c79 190E0000 		.4byte	.LASF114
 4860 0c7d 01       		.byte	0x1
 4861 0c7e F7       		.byte	0xf7
 4862 0c7f A2010000 		.4byte	0x1a2
 4863 0c83 CE080000 		.4byte	.LLST40
 4864 0c87 17       		.uleb128 0x17
 4865 0c88 D0090000 		.4byte	.LASF103
 4866 0c8c 08100000 		.4byte	0x1008
 4867 0c90 05       		.uleb128 0x5
 4868 0c91 03       		.byte	0x3
 4869 0c92 A0000000 		.4byte	__func__.8031
 4870 0c96 18       		.uleb128 0x18
 4871 0c97 14000000 		.4byte	.LBB17
 4872 0c9b 20000000 		.4byte	.LBE17-.LBB17
 4873 0c9f F20C0000 		.4byte	0xcf2
 4874 0ca3 24       		.uleb128 0x24
 4875 0ca4 6C00     		.ascii	"l\000"
 4876 0ca6 01       		.byte	0x1
 4877 0ca7 0101     		.2byte	0x101
 4878 0ca9 7F030000 		.4byte	0x37f
 4879 0cad 02090000 		.4byte	.LLST41
 4880 0cb1 1A       		.uleb128 0x1a
 4881 0cb2 18000000 		.4byte	.LVL120
 4882 0cb6 AC220000 		.4byte	0x22ac
 4883 0cba 1B       		.uleb128 0x1b
 4884 0cbb 34000000 		.4byte	.LVL123
 4885 0cbf 02       		.uleb128 0x2
 4886 0cc0 74       		.byte	0x74
 4887 0cc1 00       		.sleb128 0
 4888 0cc2 1C       		.uleb128 0x1c
 4889 0cc3 01       		.uleb128 0x1
 4890 0cc4 50       		.byte	0x50
 4891 0cc5 01       		.uleb128 0x1
 4892 0cc6 30       		.byte	0x30
 4893 0cc7 1C       		.uleb128 0x1c
ARM GAS  C:\Users\Phuong\AppData\Local\Temp\ccPPbPWA.s 			page 111


 4894 0cc8 01       		.uleb128 0x1
 4895 0cc9 51       		.byte	0x51
 4896 0cca 05       		.uleb128 0x5
 4897 0ccb 03       		.byte	0x3
 4898 0ccc 00000000 		.4byte	.LC1
 4899 0cd0 1C       		.uleb128 0x1c
 4900 0cd1 01       		.uleb128 0x1
 4901 0cd2 52       		.byte	0x52
 4902 0cd3 05       		.uleb128 0x5
 4903 0cd4 03       		.byte	0x3
 4904 0cd5 A0000000 		.4byte	.LANCHOR1+32
 4905 0cd9 1C       		.uleb128 0x1c
 4906 0cda 01       		.uleb128 0x1
 4907 0cdb 53       		.byte	0x53
 4908 0cdc 03       		.uleb128 0x3
 4909 0cdd 0A       		.byte	0xa
 4910 0cde 0101     		.2byte	0x101
 4911 0ce0 1C       		.uleb128 0x1c
 4912 0ce1 02       		.uleb128 0x2
 4913 0ce2 7D       		.byte	0x7d
 4914 0ce3 00       		.sleb128 0
 4915 0ce4 01       		.uleb128 0x1
 4916 0ce5 31       		.byte	0x31
 4917 0ce6 1C       		.uleb128 0x1c
 4918 0ce7 02       		.uleb128 0x2
 4919 0ce8 7D       		.byte	0x7d
 4920 0ce9 04       		.sleb128 4
 4921 0cea 05       		.uleb128 0x5
 4922 0ceb 03       		.byte	0x3
 4923 0cec F8020000 		.4byte	.LC36
 4924 0cf0 00       		.byte	0
 4925 0cf1 00       		.byte	0
 4926 0cf2 18       		.uleb128 0x18
 4927 0cf3 38000000 		.4byte	.LBB18
 4928 0cf7 86010000 		.4byte	.LBE18-.LBB18
 4929 0cfb EE0F0000 		.4byte	0xfee
 4930 0cff 25       		.uleb128 0x25
 4931 0d00 27010000 		.4byte	.LASF115
 4932 0d04 01       		.byte	0x1
 4933 0d05 0601     		.2byte	0x106
 4934 0d07 69010000 		.4byte	0x169
 4935 0d0b 2B090000 		.4byte	.LLST42
 4936 0d0f 18       		.uleb128 0x18
 4937 0d10 5E000000 		.4byte	.LBB19
 4938 0d14 1E000000 		.4byte	.LBE19-.LBB19
 4939 0d18 6B0D0000 		.4byte	0xd6b
 4940 0d1c 24       		.uleb128 0x24
 4941 0d1d 6C00     		.ascii	"l\000"
 4942 0d1f 01       		.byte	0x1
 4943 0d20 0D01     		.2byte	0x10d
 4944 0d22 7F030000 		.4byte	0x37f
 4945 0d26 54090000 		.4byte	.LLST43
 4946 0d2a 1A       		.uleb128 0x1a
 4947 0d2b 62000000 		.4byte	.LVL131
 4948 0d2f AC220000 		.4byte	0x22ac
 4949 0d33 1B       		.uleb128 0x1b
 4950 0d34 7C000000 		.4byte	.LVL134
ARM GAS  C:\Users\Phuong\AppData\Local\Temp\ccPPbPWA.s 			page 112


 4951 0d38 02       		.uleb128 0x2
 4952 0d39 77       		.byte	0x77
 4953 0d3a 00       		.sleb128 0
 4954 0d3b 1C       		.uleb128 0x1c
 4955 0d3c 01       		.uleb128 0x1
 4956 0d3d 50       		.byte	0x50
 4957 0d3e 01       		.uleb128 0x1
 4958 0d3f 30       		.byte	0x30
 4959 0d40 1C       		.uleb128 0x1c
 4960 0d41 01       		.uleb128 0x1
 4961 0d42 51       		.byte	0x51
 4962 0d43 05       		.uleb128 0x5
 4963 0d44 03       		.byte	0x3
 4964 0d45 00000000 		.4byte	.LC1
 4965 0d49 1C       		.uleb128 0x1c
 4966 0d4a 01       		.uleb128 0x1
 4967 0d4b 52       		.byte	0x52
 4968 0d4c 05       		.uleb128 0x5
 4969 0d4d 03       		.byte	0x3
 4970 0d4e A0000000 		.4byte	.LANCHOR1+32
 4971 0d52 1C       		.uleb128 0x1c
 4972 0d53 01       		.uleb128 0x1
 4973 0d54 53       		.byte	0x53
 4974 0d55 03       		.uleb128 0x3
 4975 0d56 0A       		.byte	0xa
 4976 0d57 0D01     		.2byte	0x10d
 4977 0d59 1C       		.uleb128 0x1c
 4978 0d5a 02       		.uleb128 0x2
 4979 0d5b 7D       		.byte	0x7d
 4980 0d5c 00       		.sleb128 0
 4981 0d5d 01       		.uleb128 0x1
 4982 0d5e 31       		.byte	0x31
 4983 0d5f 1C       		.uleb128 0x1c
 4984 0d60 02       		.uleb128 0x2
 4985 0d61 7D       		.byte	0x7d
 4986 0d62 04       		.sleb128 4
 4987 0d63 05       		.uleb128 0x5
 4988 0d64 03       		.byte	0x3
 4989 0d65 40030000 		.4byte	.LC38
 4990 0d69 00       		.byte	0
 4991 0d6a 00       		.byte	0
 4992 0d6b 26       		.uleb128 0x26
 4993 0d6c 30000000 		.4byte	.Ldebug_ranges0+0x30
 4994 0d70 BB0E0000 		.4byte	0xebb
 4995 0d74 25       		.uleb128 0x25
 4996 0d75 7F0D0000 		.4byte	.LASF116
 4997 0d79 01       		.byte	0x1
 4998 0d7a 1801     		.2byte	0x118
 4999 0d7c 97010000 		.4byte	0x197
 5000 0d80 7D090000 		.4byte	.LLST44
 5001 0d84 18       		.uleb128 0x18
 5002 0d85 90000000 		.4byte	.LBB21
 5003 0d89 1E000000 		.4byte	.LBE21-.LBB21
 5004 0d8d E00D0000 		.4byte	0xde0
 5005 0d91 24       		.uleb128 0x24
 5006 0d92 6C00     		.ascii	"l\000"
 5007 0d94 01       		.byte	0x1
ARM GAS  C:\Users\Phuong\AppData\Local\Temp\ccPPbPWA.s 			page 113


 5008 0d95 1B01     		.2byte	0x11b
 5009 0d97 7F030000 		.4byte	0x37f
 5010 0d9b A6090000 		.4byte	.LLST45
 5011 0d9f 1A       		.uleb128 0x1a
 5012 0da0 94000000 		.4byte	.LVL139
 5013 0da4 AC220000 		.4byte	0x22ac
 5014 0da8 1B       		.uleb128 0x1b
 5015 0da9 AE000000 		.4byte	.LVL142
 5016 0dad 02       		.uleb128 0x2
 5017 0dae 76       		.byte	0x76
 5018 0daf 00       		.sleb128 0
 5019 0db0 1C       		.uleb128 0x1c
 5020 0db1 01       		.uleb128 0x1
 5021 0db2 50       		.byte	0x50
 5022 0db3 01       		.uleb128 0x1
 5023 0db4 30       		.byte	0x30
 5024 0db5 1C       		.uleb128 0x1c
 5025 0db6 01       		.uleb128 0x1
 5026 0db7 51       		.byte	0x51
 5027 0db8 05       		.uleb128 0x5
 5028 0db9 03       		.byte	0x3
 5029 0dba 00000000 		.4byte	.LC1
 5030 0dbe 1C       		.uleb128 0x1c
 5031 0dbf 01       		.uleb128 0x1
 5032 0dc0 52       		.byte	0x52
 5033 0dc1 05       		.uleb128 0x5
 5034 0dc2 03       		.byte	0x3
 5035 0dc3 A0000000 		.4byte	.LANCHOR1+32
 5036 0dc7 1C       		.uleb128 0x1c
 5037 0dc8 01       		.uleb128 0x1
 5038 0dc9 53       		.byte	0x53
 5039 0dca 03       		.uleb128 0x3
 5040 0dcb 0A       		.byte	0xa
 5041 0dcc 1B01     		.2byte	0x11b
 5042 0dce 1C       		.uleb128 0x1c
 5043 0dcf 02       		.uleb128 0x2
 5044 0dd0 7D       		.byte	0x7d
 5045 0dd1 00       		.sleb128 0
 5046 0dd2 01       		.uleb128 0x1
 5047 0dd3 31       		.byte	0x31
 5048 0dd4 1C       		.uleb128 0x1c
 5049 0dd5 02       		.uleb128 0x2
 5050 0dd6 7D       		.byte	0x7d
 5051 0dd7 04       		.sleb128 4
 5052 0dd8 05       		.uleb128 0x5
 5053 0dd9 03       		.byte	0x3
 5054 0dda 5C030000 		.4byte	.LC40
 5055 0dde 00       		.byte	0
 5056 0ddf 00       		.byte	0
 5057 0de0 18       		.uleb128 0x18
 5058 0de1 BA000000 		.4byte	.LBB22
 5059 0de5 1E000000 		.4byte	.LBE22-.LBB22
 5060 0de9 3C0E0000 		.4byte	0xe3c
 5061 0ded 24       		.uleb128 0x24
 5062 0dee 6C00     		.ascii	"l\000"
 5063 0df0 01       		.byte	0x1
 5064 0df1 2101     		.2byte	0x121
ARM GAS  C:\Users\Phuong\AppData\Local\Temp\ccPPbPWA.s 			page 114


 5065 0df3 7F030000 		.4byte	0x37f
 5066 0df7 CF090000 		.4byte	.LLST46
 5067 0dfb 1A       		.uleb128 0x1a
 5068 0dfc BE000000 		.4byte	.LVL145
 5069 0e00 AC220000 		.4byte	0x22ac
 5070 0e04 1B       		.uleb128 0x1b
 5071 0e05 D8000000 		.4byte	.LVL148
 5072 0e09 02       		.uleb128 0x2
 5073 0e0a 76       		.byte	0x76
 5074 0e0b 00       		.sleb128 0
 5075 0e0c 1C       		.uleb128 0x1c
 5076 0e0d 01       		.uleb128 0x1
 5077 0e0e 50       		.byte	0x50
 5078 0e0f 01       		.uleb128 0x1
 5079 0e10 30       		.byte	0x30
 5080 0e11 1C       		.uleb128 0x1c
 5081 0e12 01       		.uleb128 0x1
 5082 0e13 51       		.byte	0x51
 5083 0e14 05       		.uleb128 0x5
 5084 0e15 03       		.byte	0x3
 5085 0e16 00000000 		.4byte	.LC1
 5086 0e1a 1C       		.uleb128 0x1c
 5087 0e1b 01       		.uleb128 0x1
 5088 0e1c 52       		.byte	0x52
 5089 0e1d 05       		.uleb128 0x5
 5090 0e1e 03       		.byte	0x3
 5091 0e1f A0000000 		.4byte	.LANCHOR1+32
 5092 0e23 1C       		.uleb128 0x1c
 5093 0e24 01       		.uleb128 0x1
 5094 0e25 53       		.byte	0x53
 5095 0e26 03       		.uleb128 0x3
 5096 0e27 0A       		.byte	0xa
 5097 0e28 2101     		.2byte	0x121
 5098 0e2a 1C       		.uleb128 0x1c
 5099 0e2b 02       		.uleb128 0x2
 5100 0e2c 7D       		.byte	0x7d
 5101 0e2d 00       		.sleb128 0
 5102 0e2e 01       		.uleb128 0x1
 5103 0e2f 31       		.byte	0x31
 5104 0e30 1C       		.uleb128 0x1c
 5105 0e31 02       		.uleb128 0x2
 5106 0e32 7D       		.byte	0x7d
 5107 0e33 04       		.sleb128 4
 5108 0e34 05       		.uleb128 0x5
 5109 0e35 03       		.byte	0x3
 5110 0e36 74030000 		.4byte	.LC42
 5111 0e3a 00       		.byte	0
 5112 0e3b 00       		.byte	0
 5113 0e3c 18       		.uleb128 0x18
 5114 0e3d F0000000 		.4byte	.LBB23
 5115 0e41 1E000000 		.4byte	.LBE23-.LBB23
 5116 0e45 980E0000 		.4byte	0xe98
 5117 0e49 24       		.uleb128 0x24
 5118 0e4a 6C00     		.ascii	"l\000"
 5119 0e4c 01       		.byte	0x1
 5120 0e4d 2B01     		.2byte	0x12b
 5121 0e4f 7F030000 		.4byte	0x37f
ARM GAS  C:\Users\Phuong\AppData\Local\Temp\ccPPbPWA.s 			page 115


 5122 0e53 F8090000 		.4byte	.LLST47
 5123 0e57 1A       		.uleb128 0x1a
 5124 0e58 F4000000 		.4byte	.LVL154
 5125 0e5c AC220000 		.4byte	0x22ac
 5126 0e60 1B       		.uleb128 0x1b
 5127 0e61 0E010000 		.4byte	.LVL157
 5128 0e65 02       		.uleb128 0x2
 5129 0e66 77       		.byte	0x77
 5130 0e67 00       		.sleb128 0
 5131 0e68 1C       		.uleb128 0x1c
 5132 0e69 01       		.uleb128 0x1
 5133 0e6a 50       		.byte	0x50
 5134 0e6b 01       		.uleb128 0x1
 5135 0e6c 30       		.byte	0x30
 5136 0e6d 1C       		.uleb128 0x1c
 5137 0e6e 01       		.uleb128 0x1
 5138 0e6f 51       		.byte	0x51
 5139 0e70 05       		.uleb128 0x5
 5140 0e71 03       		.byte	0x3
 5141 0e72 00000000 		.4byte	.LC1
 5142 0e76 1C       		.uleb128 0x1c
 5143 0e77 01       		.uleb128 0x1
 5144 0e78 52       		.byte	0x52
 5145 0e79 05       		.uleb128 0x5
 5146 0e7a 03       		.byte	0x3
 5147 0e7b A0000000 		.4byte	.LANCHOR1+32
 5148 0e7f 1C       		.uleb128 0x1c
 5149 0e80 01       		.uleb128 0x1
 5150 0e81 53       		.byte	0x53
 5151 0e82 03       		.uleb128 0x3
 5152 0e83 0A       		.byte	0xa
 5153 0e84 2B01     		.2byte	0x12b
 5154 0e86 1C       		.uleb128 0x1c
 5155 0e87 02       		.uleb128 0x2
 5156 0e88 7D       		.byte	0x7d
 5157 0e89 00       		.sleb128 0
 5158 0e8a 01       		.uleb128 0x1
 5159 0e8b 31       		.byte	0x31
 5160 0e8c 1C       		.uleb128 0x1c
 5161 0e8d 02       		.uleb128 0x2
 5162 0e8e 7D       		.byte	0x7d
 5163 0e8f 04       		.sleb128 4
 5164 0e90 05       		.uleb128 0x5
 5165 0e91 03       		.byte	0x3
 5166 0e92 90030000 		.4byte	.LC44
 5167 0e96 00       		.byte	0
 5168 0e97 00       		.byte	0
 5169 0e98 1A       		.uleb128 0x1a
 5170 0e99 8C000000 		.4byte	.LVL138
 5171 0e9d EE220000 		.4byte	0x22ee
 5172 0ea1 1E       		.uleb128 0x1e
 5173 0ea2 EC000000 		.4byte	.LVL152
 5174 0ea6 F9220000 		.4byte	0x22f9
 5175 0eaa 1C       		.uleb128 0x1c
 5176 0eab 01       		.uleb128 0x1
 5177 0eac 51       		.byte	0x51
 5178 0ead 01       		.uleb128 0x1
ARM GAS  C:\Users\Phuong\AppData\Local\Temp\ccPPbPWA.s 			page 116


 5179 0eae 30       		.byte	0x30
 5180 0eaf 1C       		.uleb128 0x1c
 5181 0eb0 01       		.uleb128 0x1
 5182 0eb1 52       		.byte	0x52
 5183 0eb2 01       		.uleb128 0x1
 5184 0eb3 30       		.byte	0x30
 5185 0eb4 1C       		.uleb128 0x1c
 5186 0eb5 01       		.uleb128 0x1
 5187 0eb6 53       		.byte	0x53
 5188 0eb7 01       		.uleb128 0x1
 5189 0eb8 30       		.byte	0x30
 5190 0eb9 00       		.byte	0
 5191 0eba 00       		.byte	0
 5192 0ebb 18       		.uleb128 0x18
 5193 0ebc 1C010000 		.4byte	.LBB24
 5194 0ec0 1E000000 		.4byte	.LBE24-.LBB24
 5195 0ec4 170F0000 		.4byte	0xf17
 5196 0ec8 24       		.uleb128 0x24
 5197 0ec9 6C00     		.ascii	"l\000"
 5198 0ecb 01       		.byte	0x1
 5199 0ecc 3B01     		.2byte	0x13b
 5200 0ece 7F030000 		.4byte	0x37f
 5201 0ed2 210A0000 		.4byte	.LLST48
 5202 0ed6 1A       		.uleb128 0x1a
 5203 0ed7 20010000 		.4byte	.LVL161
 5204 0edb AC220000 		.4byte	0x22ac
 5205 0edf 1B       		.uleb128 0x1b
 5206 0ee0 3A010000 		.4byte	.LVL164
 5207 0ee4 02       		.uleb128 0x2
 5208 0ee5 76       		.byte	0x76
 5209 0ee6 00       		.sleb128 0
 5210 0ee7 1C       		.uleb128 0x1c
 5211 0ee8 01       		.uleb128 0x1
 5212 0ee9 50       		.byte	0x50
 5213 0eea 01       		.uleb128 0x1
 5214 0eeb 30       		.byte	0x30
 5215 0eec 1C       		.uleb128 0x1c
 5216 0eed 01       		.uleb128 0x1
 5217 0eee 51       		.byte	0x51
 5218 0eef 05       		.uleb128 0x5
 5219 0ef0 03       		.byte	0x3
 5220 0ef1 00000000 		.4byte	.LC1
 5221 0ef5 1C       		.uleb128 0x1c
 5222 0ef6 01       		.uleb128 0x1
 5223 0ef7 52       		.byte	0x52
 5224 0ef8 05       		.uleb128 0x5
 5225 0ef9 03       		.byte	0x3
 5226 0efa A0000000 		.4byte	.LANCHOR1+32
 5227 0efe 1C       		.uleb128 0x1c
 5228 0eff 01       		.uleb128 0x1
 5229 0f00 53       		.byte	0x53
 5230 0f01 03       		.uleb128 0x3
 5231 0f02 0A       		.byte	0xa
 5232 0f03 3B01     		.2byte	0x13b
 5233 0f05 1C       		.uleb128 0x1c
 5234 0f06 02       		.uleb128 0x2
 5235 0f07 7D       		.byte	0x7d
ARM GAS  C:\Users\Phuong\AppData\Local\Temp\ccPPbPWA.s 			page 117


 5236 0f08 00       		.sleb128 0
 5237 0f09 01       		.uleb128 0x1
 5238 0f0a 31       		.byte	0x31
 5239 0f0b 1C       		.uleb128 0x1c
 5240 0f0c 02       		.uleb128 0x2
 5241 0f0d 7D       		.byte	0x7d
 5242 0f0e 04       		.sleb128 4
 5243 0f0f 05       		.uleb128 0x5
 5244 0f10 03       		.byte	0x3
 5245 0f11 AC030000 		.4byte	.LC46
 5246 0f15 00       		.byte	0
 5247 0f16 00       		.byte	0
 5248 0f17 18       		.uleb128 0x18
 5249 0f18 84010000 		.4byte	.LBB26
 5250 0f1c 1E000000 		.4byte	.LBE26-.LBB26
 5251 0f20 730F0000 		.4byte	0xf73
 5252 0f24 24       		.uleb128 0x24
 5253 0f25 6C00     		.ascii	"l\000"
 5254 0f27 01       		.byte	0x1
 5255 0f28 4601     		.2byte	0x146
 5256 0f2a 7F030000 		.4byte	0x37f
 5257 0f2e 4A0A0000 		.4byte	.LLST49
 5258 0f32 1A       		.uleb128 0x1a
 5259 0f33 88010000 		.4byte	.LVL177
 5260 0f37 AC220000 		.4byte	0x22ac
 5261 0f3b 1B       		.uleb128 0x1b
 5262 0f3c A2010000 		.4byte	.LVL180
 5263 0f40 02       		.uleb128 0x2
 5264 0f41 74       		.byte	0x74
 5265 0f42 00       		.sleb128 0
 5266 0f43 1C       		.uleb128 0x1c
 5267 0f44 01       		.uleb128 0x1
 5268 0f45 50       		.byte	0x50
 5269 0f46 01       		.uleb128 0x1
 5270 0f47 30       		.byte	0x30
 5271 0f48 1C       		.uleb128 0x1c
 5272 0f49 01       		.uleb128 0x1
 5273 0f4a 51       		.byte	0x51
 5274 0f4b 05       		.uleb128 0x5
 5275 0f4c 03       		.byte	0x3
 5276 0f4d 00000000 		.4byte	.LC1
 5277 0f51 1C       		.uleb128 0x1c
 5278 0f52 01       		.uleb128 0x1
 5279 0f53 52       		.byte	0x52
 5280 0f54 05       		.uleb128 0x5
 5281 0f55 03       		.byte	0x3
 5282 0f56 A0000000 		.4byte	.LANCHOR1+32
 5283 0f5a 1C       		.uleb128 0x1c
 5284 0f5b 01       		.uleb128 0x1
 5285 0f5c 53       		.byte	0x53
 5286 0f5d 03       		.uleb128 0x3
 5287 0f5e 0A       		.byte	0xa
 5288 0f5f 4601     		.2byte	0x146
 5289 0f61 1C       		.uleb128 0x1c
 5290 0f62 02       		.uleb128 0x2
 5291 0f63 7D       		.byte	0x7d
 5292 0f64 00       		.sleb128 0
ARM GAS  C:\Users\Phuong\AppData\Local\Temp\ccPPbPWA.s 			page 118


 5293 0f65 01       		.uleb128 0x1
 5294 0f66 31       		.byte	0x31
 5295 0f67 1C       		.uleb128 0x1c
 5296 0f68 02       		.uleb128 0x2
 5297 0f69 7D       		.byte	0x7d
 5298 0f6a 04       		.sleb128 4
 5299 0f6b 05       		.uleb128 0x5
 5300 0f6c 03       		.byte	0x3
 5301 0f6d D4030000 		.4byte	.LC48
 5302 0f71 00       		.byte	0
 5303 0f72 00       		.byte	0
 5304 0f73 1A       		.uleb128 0x1a
 5305 0f74 3E000000 		.4byte	.LVL126
 5306 0f78 04230000 		.4byte	0x2304
 5307 0f7c 1D       		.uleb128 0x1d
 5308 0f7d 4E000000 		.4byte	.LVL128
 5309 0f81 CD220000 		.4byte	0x22cd
 5310 0f85 900F0000 		.4byte	0xf90
 5311 0f89 1C       		.uleb128 0x1c
 5312 0f8a 01       		.uleb128 0x1
 5313 0f8b 50       		.byte	0x50
 5314 0f8c 02       		.uleb128 0x2
 5315 0f8d 75       		.byte	0x75
 5316 0f8e 00       		.sleb128 0
 5317 0f8f 00       		.byte	0
 5318 0f90 1D       		.uleb128 0x1d
 5319 0f91 5A000000 		.4byte	.LVL129
 5320 0f95 F9220000 		.4byte	0x22f9
 5321 0f99 A90F0000 		.4byte	0xfa9
 5322 0f9d 1C       		.uleb128 0x1c
 5323 0f9e 01       		.uleb128 0x1
 5324 0f9f 50       		.byte	0x50
 5325 0fa0 02       		.uleb128 0x2
 5326 0fa1 76       		.byte	0x76
 5327 0fa2 00       		.sleb128 0
 5328 0fa3 1C       		.uleb128 0x1c
 5329 0fa4 01       		.uleb128 0x1
 5330 0fa5 53       		.byte	0x53
 5331 0fa6 01       		.uleb128 0x1
 5332 0fa7 30       		.byte	0x30
 5333 0fa8 00       		.byte	0
 5334 0fa9 1D       		.uleb128 0x1d
 5335 0faa 80010000 		.4byte	.LVL175
 5336 0fae 8A0A0000 		.4byte	0xa8a
 5337 0fb2 C90F0000 		.4byte	0xfc9
 5338 0fb6 1C       		.uleb128 0x1c
 5339 0fb7 01       		.uleb128 0x1
 5340 0fb8 50       		.byte	0x50
 5341 0fb9 02       		.uleb128 0x2
 5342 0fba 74       		.byte	0x74
 5343 0fbb 00       		.sleb128 0
 5344 0fbc 1C       		.uleb128 0x1c
 5345 0fbd 01       		.uleb128 0x1
 5346 0fbe 51       		.byte	0x51
 5347 0fbf 02       		.uleb128 0x2
 5348 0fc0 75       		.byte	0x75
 5349 0fc1 00       		.sleb128 0
ARM GAS  C:\Users\Phuong\AppData\Local\Temp\ccPPbPWA.s 			page 119


 5350 0fc2 1C       		.uleb128 0x1c
 5351 0fc3 01       		.uleb128 0x1
 5352 0fc4 52       		.byte	0x52
 5353 0fc5 02       		.uleb128 0x2
 5354 0fc6 76       		.byte	0x76
 5355 0fc7 00       		.sleb128 0
 5356 0fc8 00       		.byte	0
 5357 0fc9 1D       		.uleb128 0x1d
 5358 0fca B6010000 		.4byte	.LVL185
 5359 0fce 0F230000 		.4byte	0x230f
 5360 0fd2 DD0F0000 		.4byte	0xfdd
 5361 0fd6 1C       		.uleb128 0x1c
 5362 0fd7 01       		.uleb128 0x1
 5363 0fd8 50       		.byte	0x50
 5364 0fd9 02       		.uleb128 0x2
 5365 0fda 76       		.byte	0x76
 5366 0fdb 00       		.sleb128 0
 5367 0fdc 00       		.byte	0
 5368 0fdd 1E       		.uleb128 0x1e
 5369 0fde BC010000 		.4byte	.LVL186
 5370 0fe2 1A230000 		.4byte	0x231a
 5371 0fe6 1C       		.uleb128 0x1c
 5372 0fe7 01       		.uleb128 0x1
 5373 0fe8 50       		.byte	0x50
 5374 0fe9 02       		.uleb128 0x2
 5375 0fea 75       		.byte	0x75
 5376 0feb 00       		.sleb128 0
 5377 0fec 00       		.byte	0
 5378 0fed 00       		.byte	0
 5379 0fee 1A       		.uleb128 0x1a
 5380 0fef 10000000 		.4byte	.LVL117
 5381 0ff3 02090000 		.4byte	0x902
 5382 0ff7 00       		.byte	0
 5383 0ff8 1F       		.uleb128 0x1f
 5384 0ff9 A4000000 		.4byte	0xa4
 5385 0ffd 08100000 		.4byte	0x1008
 5386 1001 20       		.uleb128 0x20
 5387 1002 88000000 		.4byte	0x88
 5388 1006 1F       		.byte	0x1f
 5389 1007 00       		.byte	0
 5390 1008 07       		.uleb128 0x7
 5391 1009 F80F0000 		.4byte	0xff8
 5392 100d 27       		.uleb128 0x27
 5393 100e E00C0000 		.4byte	.LASF117
 5394 1012 01       		.byte	0x1
 5395 1013 5601     		.2byte	0x156
 5396 1015 8F000000 		.4byte	0x8f
 5397 1019 00000000 		.4byte	.LFB9
 5398 101d D8000000 		.4byte	.LFE9-.LFB9
 5399 1021 01       		.uleb128 0x1
 5400 1022 9C       		.byte	0x9c
 5401 1023 F2110000 		.4byte	0x11f2
 5402 1027 28       		.uleb128 0x28
 5403 1028 B5040000 		.4byte	.LASF118
 5404 102c 01       		.byte	0x1
 5405 102d 5601     		.2byte	0x156
 5406 102f 9E000000 		.4byte	0x9e
ARM GAS  C:\Users\Phuong\AppData\Local\Temp\ccPPbPWA.s 			page 120


 5407 1033 730A0000 		.4byte	.LLST50
 5408 1037 28       		.uleb128 0x28
 5409 1038 B8030000 		.4byte	.LASF119
 5410 103c 01       		.byte	0x1
 5411 103d 5601     		.2byte	0x156
 5412 103f A9000000 		.4byte	0xa9
 5413 1043 000B0000 		.4byte	.LLST51
 5414 1047 25       		.uleb128 0x25
 5415 1048 410E0000 		.4byte	.LASF102
 5416 104c 01       		.byte	0x1
 5417 104d 5801     		.2byte	0x158
 5418 104f 8F000000 		.4byte	0x8f
 5419 1053 7F0B0000 		.4byte	.LLST52
 5420 1057 17       		.uleb128 0x17
 5421 1058 D0090000 		.4byte	.LASF103
 5422 105c 02120000 		.4byte	0x1202
 5423 1060 05       		.uleb128 0x5
 5424 1061 03       		.byte	0x3
 5425 1062 C0000000 		.4byte	__func__.8060
 5426 1066 18       		.uleb128 0x18
 5427 1067 0C000000 		.4byte	.LBB27
 5428 106b 1E000000 		.4byte	.LBE27-.LBB27
 5429 106f C2100000 		.4byte	0x10c2
 5430 1073 24       		.uleb128 0x24
 5431 1074 6C00     		.ascii	"l\000"
 5432 1076 01       		.byte	0x1
 5433 1077 5C01     		.2byte	0x15c
 5434 1079 7F030000 		.4byte	0x37f
 5435 107d 9D0B0000 		.4byte	.LLST53
 5436 1081 1A       		.uleb128 0x1a
 5437 1082 10000000 		.4byte	.LVL192
 5438 1086 AC220000 		.4byte	0x22ac
 5439 108a 1B       		.uleb128 0x1b
 5440 108b 2A000000 		.4byte	.LVL195
 5441 108f 02       		.uleb128 0x2
 5442 1090 74       		.byte	0x74
 5443 1091 00       		.sleb128 0
 5444 1092 1C       		.uleb128 0x1c
 5445 1093 01       		.uleb128 0x1
 5446 1094 50       		.byte	0x50
 5447 1095 01       		.uleb128 0x1
 5448 1096 30       		.byte	0x30
 5449 1097 1C       		.uleb128 0x1c
 5450 1098 01       		.uleb128 0x1
 5451 1099 51       		.byte	0x51
 5452 109a 05       		.uleb128 0x5
 5453 109b 03       		.byte	0x3
 5454 109c 00000000 		.4byte	.LC1
 5455 10a0 1C       		.uleb128 0x1c
 5456 10a1 01       		.uleb128 0x1
 5457 10a2 52       		.byte	0x52
 5458 10a3 05       		.uleb128 0x5
 5459 10a4 03       		.byte	0x3
 5460 10a5 C0000000 		.4byte	.LANCHOR1+64
 5461 10a9 1C       		.uleb128 0x1c
 5462 10aa 01       		.uleb128 0x1
 5463 10ab 53       		.byte	0x53
ARM GAS  C:\Users\Phuong\AppData\Local\Temp\ccPPbPWA.s 			page 121


 5464 10ac 03       		.uleb128 0x3
 5465 10ad 0A       		.byte	0xa
 5466 10ae 5C01     		.2byte	0x15c
 5467 10b0 1C       		.uleb128 0x1c
 5468 10b1 02       		.uleb128 0x2
 5469 10b2 7D       		.byte	0x7d
 5470 10b3 00       		.sleb128 0
 5471 10b4 01       		.uleb128 0x1
 5472 10b5 31       		.byte	0x31
 5473 10b6 1C       		.uleb128 0x1c
 5474 10b7 02       		.uleb128 0x2
 5475 10b8 7D       		.byte	0x7d
 5476 10b9 04       		.sleb128 4
 5477 10ba 05       		.uleb128 0x5
 5478 10bb 03       		.byte	0x3
 5479 10bc F4030000 		.4byte	.LC52
 5480 10c0 00       		.byte	0
 5481 10c1 00       		.byte	0
 5482 10c2 18       		.uleb128 0x18
 5483 10c3 32000000 		.4byte	.LBB28
 5484 10c7 20000000 		.4byte	.LBE28-.LBB28
 5485 10cb 1E110000 		.4byte	0x111e
 5486 10cf 24       		.uleb128 0x24
 5487 10d0 6C00     		.ascii	"l\000"
 5488 10d2 01       		.byte	0x1
 5489 10d3 6101     		.2byte	0x161
 5490 10d5 7F030000 		.4byte	0x37f
 5491 10d9 C60B0000 		.4byte	.LLST54
 5492 10dd 1A       		.uleb128 0x1a
 5493 10de 36000000 		.4byte	.LVL198
 5494 10e2 AC220000 		.4byte	0x22ac
 5495 10e6 1B       		.uleb128 0x1b
 5496 10e7 50000000 		.4byte	.LVL201
 5497 10eb 02       		.uleb128 0x2
 5498 10ec 74       		.byte	0x74
 5499 10ed 00       		.sleb128 0
 5500 10ee 1C       		.uleb128 0x1c
 5501 10ef 01       		.uleb128 0x1
 5502 10f0 50       		.byte	0x50
 5503 10f1 01       		.uleb128 0x1
 5504 10f2 30       		.byte	0x30
 5505 10f3 1C       		.uleb128 0x1c
 5506 10f4 01       		.uleb128 0x1
 5507 10f5 51       		.byte	0x51
 5508 10f6 05       		.uleb128 0x5
 5509 10f7 03       		.byte	0x3
 5510 10f8 00000000 		.4byte	.LC1
 5511 10fc 1C       		.uleb128 0x1c
 5512 10fd 01       		.uleb128 0x1
 5513 10fe 52       		.byte	0x52
 5514 10ff 05       		.uleb128 0x5
 5515 1100 03       		.byte	0x3
 5516 1101 C0000000 		.4byte	.LANCHOR1+64
 5517 1105 1C       		.uleb128 0x1c
 5518 1106 01       		.uleb128 0x1
 5519 1107 53       		.byte	0x53
 5520 1108 03       		.uleb128 0x3
ARM GAS  C:\Users\Phuong\AppData\Local\Temp\ccPPbPWA.s 			page 122


 5521 1109 0A       		.byte	0xa
 5522 110a 6101     		.2byte	0x161
 5523 110c 1C       		.uleb128 0x1c
 5524 110d 02       		.uleb128 0x2
 5525 110e 7D       		.byte	0x7d
 5526 110f 00       		.sleb128 0
 5527 1110 01       		.uleb128 0x1
 5528 1111 31       		.byte	0x31
 5529 1112 1C       		.uleb128 0x1c
 5530 1113 02       		.uleb128 0x2
 5531 1114 7D       		.byte	0x7d
 5532 1115 04       		.sleb128 4
 5533 1116 05       		.uleb128 0x5
 5534 1117 03       		.byte	0x3
 5535 1118 2C040000 		.4byte	.LC54
 5536 111c 00       		.byte	0
 5537 111d 00       		.byte	0
 5538 111e 18       		.uleb128 0x18
 5539 111f 82000000 		.4byte	.LBB29
 5540 1123 20000000 		.4byte	.LBE29-.LBB29
 5541 1127 81110000 		.4byte	0x1181
 5542 112b 24       		.uleb128 0x24
 5543 112c 6C00     		.ascii	"l\000"
 5544 112e 01       		.byte	0x1
 5545 112f 6F01     		.2byte	0x16f
 5546 1131 7F030000 		.4byte	0x37f
 5547 1135 E40B0000 		.4byte	.LLST55
 5548 1139 1A       		.uleb128 0x1a
 5549 113a 86000000 		.4byte	.LVL209
 5550 113e AC220000 		.4byte	0x22ac
 5551 1142 1B       		.uleb128 0x1b
 5552 1143 A2000000 		.4byte	.LVL212
 5553 1147 02       		.uleb128 0x2
 5554 1148 75       		.byte	0x75
 5555 1149 00       		.sleb128 0
 5556 114a 1C       		.uleb128 0x1c
 5557 114b 01       		.uleb128 0x1
 5558 114c 50       		.byte	0x50
 5559 114d 01       		.uleb128 0x1
 5560 114e 30       		.byte	0x30
 5561 114f 1C       		.uleb128 0x1c
 5562 1150 01       		.uleb128 0x1
 5563 1151 51       		.byte	0x51
 5564 1152 05       		.uleb128 0x5
 5565 1153 03       		.byte	0x3
 5566 1154 00000000 		.4byte	.LC1
 5567 1158 1C       		.uleb128 0x1c
 5568 1159 01       		.uleb128 0x1
 5569 115a 52       		.byte	0x52
 5570 115b 05       		.uleb128 0x5
 5571 115c 03       		.byte	0x3
 5572 115d C0000000 		.4byte	.LANCHOR1+64
 5573 1161 1C       		.uleb128 0x1c
 5574 1162 01       		.uleb128 0x1
 5575 1163 53       		.byte	0x53
 5576 1164 03       		.uleb128 0x3
 5577 1165 0A       		.byte	0xa
ARM GAS  C:\Users\Phuong\AppData\Local\Temp\ccPPbPWA.s 			page 123


 5578 1166 6F01     		.2byte	0x16f
 5579 1168 1C       		.uleb128 0x1c
 5580 1169 02       		.uleb128 0x2
 5581 116a 7D       		.byte	0x7d
 5582 116b 00       		.sleb128 0
 5583 116c 01       		.uleb128 0x1
 5584 116d 31       		.byte	0x31
 5585 116e 1C       		.uleb128 0x1c
 5586 116f 02       		.uleb128 0x2
 5587 1170 7D       		.byte	0x7d
 5588 1171 04       		.sleb128 4
 5589 1172 05       		.uleb128 0x5
 5590 1173 03       		.byte	0x3
 5591 1174 D4040000 		.4byte	.LC64
 5592 1178 1C       		.uleb128 0x1c
 5593 1179 02       		.uleb128 0x2
 5594 117a 7D       		.byte	0x7d
 5595 117b 08       		.sleb128 8
 5596 117c 02       		.uleb128 0x2
 5597 117d 74       		.byte	0x74
 5598 117e 00       		.sleb128 0
 5599 117f 00       		.byte	0
 5600 1180 00       		.byte	0
 5601 1181 1D       		.uleb128 0x1d
 5602 1182 5A000000 		.4byte	.LVL205
 5603 1186 25230000 		.4byte	0x2325
 5604 118a 9E110000 		.4byte	0x119e
 5605 118e 1C       		.uleb128 0x1c
 5606 118f 01       		.uleb128 0x1
 5607 1190 50       		.byte	0x50
 5608 1191 05       		.uleb128 0x5
 5609 1192 03       		.byte	0x3
 5610 1193 64040000 		.4byte	.LC56
 5611 1197 1C       		.uleb128 0x1c
 5612 1198 01       		.uleb128 0x1
 5613 1199 51       		.byte	0x51
 5614 119a 02       		.uleb128 0x2
 5615 119b 74       		.byte	0x74
 5616 119c 00       		.sleb128 0
 5617 119d 00       		.byte	0
 5618 119e 1D       		.uleb128 0x1d
 5619 119f 66000000 		.4byte	.LVL206
 5620 11a3 25230000 		.4byte	0x2325
 5621 11a7 BB110000 		.4byte	0x11bb
 5622 11ab 1C       		.uleb128 0x1c
 5623 11ac 01       		.uleb128 0x1
 5624 11ad 50       		.byte	0x50
 5625 11ae 05       		.uleb128 0x5
 5626 11af 03       		.byte	0x3
 5627 11b0 80040000 		.4byte	.LC58
 5628 11b4 1C       		.uleb128 0x1c
 5629 11b5 01       		.uleb128 0x1
 5630 11b6 51       		.byte	0x51
 5631 11b7 02       		.uleb128 0x2
 5632 11b8 74       		.byte	0x74
 5633 11b9 00       		.sleb128 0
 5634 11ba 00       		.byte	0
ARM GAS  C:\Users\Phuong\AppData\Local\Temp\ccPPbPWA.s 			page 124


 5635 11bb 1D       		.uleb128 0x1d
 5636 11bc 72000000 		.4byte	.LVL207
 5637 11c0 25230000 		.4byte	0x2325
 5638 11c4 D8110000 		.4byte	0x11d8
 5639 11c8 1C       		.uleb128 0x1c
 5640 11c9 01       		.uleb128 0x1
 5641 11ca 50       		.byte	0x50
 5642 11cb 05       		.uleb128 0x5
 5643 11cc 03       		.byte	0x3
 5644 11cd 9C040000 		.4byte	.LC60
 5645 11d1 1C       		.uleb128 0x1c
 5646 11d2 01       		.uleb128 0x1
 5647 11d3 51       		.byte	0x51
 5648 11d4 02       		.uleb128 0x2
 5649 11d5 74       		.byte	0x74
 5650 11d6 00       		.sleb128 0
 5651 11d7 00       		.byte	0
 5652 11d8 1E       		.uleb128 0x1e
 5653 11d9 7E000000 		.4byte	.LVL208
 5654 11dd 25230000 		.4byte	0x2325
 5655 11e1 1C       		.uleb128 0x1c
 5656 11e2 01       		.uleb128 0x1
 5657 11e3 50       		.byte	0x50
 5658 11e4 05       		.uleb128 0x5
 5659 11e5 03       		.byte	0x3
 5660 11e6 B4040000 		.4byte	.LC62
 5661 11ea 1C       		.uleb128 0x1c
 5662 11eb 01       		.uleb128 0x1
 5663 11ec 51       		.byte	0x51
 5664 11ed 02       		.uleb128 0x2
 5665 11ee 74       		.byte	0x74
 5666 11ef 00       		.sleb128 0
 5667 11f0 00       		.byte	0
 5668 11f1 00       		.byte	0
 5669 11f2 1F       		.uleb128 0x1f
 5670 11f3 A4000000 		.4byte	0xa4
 5671 11f7 02120000 		.4byte	0x1202
 5672 11fb 20       		.uleb128 0x20
 5673 11fc 88000000 		.4byte	0x88
 5674 1200 1B       		.byte	0x1b
 5675 1201 00       		.byte	0
 5676 1202 07       		.uleb128 0x7
 5677 1203 F2110000 		.4byte	0x11f2
 5678 1207 29       		.uleb128 0x29
 5679 1208 EE040000 		.4byte	.LASF122
 5680 120c 01       		.byte	0x1
 5681 120d B702     		.2byte	0x2b7
 5682 120f 37000000 		.4byte	0x37
 5683 1213 00000000 		.4byte	.LFB16
 5684 1217 18010000 		.4byte	.LFE16-.LFB16
 5685 121b 01       		.uleb128 0x1
 5686 121c 9C       		.byte	0x9c
 5687 121d 3B140000 		.4byte	0x143b
 5688 1221 28       		.uleb128 0x28
 5689 1222 5D070000 		.4byte	.LASF120
 5690 1226 01       		.byte	0x1
 5691 1227 B702     		.2byte	0x2b7
ARM GAS  C:\Users\Phuong\AppData\Local\Temp\ccPPbPWA.s 			page 125


 5692 1229 3B030000 		.4byte	0x33b
 5693 122d 0D0C0000 		.4byte	.LLST56
 5694 1231 28       		.uleb128 0x28
 5695 1232 B5040000 		.4byte	.LASF118
 5696 1236 01       		.byte	0x1
 5697 1237 B702     		.2byte	0x2b7
 5698 1239 9E000000 		.4byte	0x9e
 5699 123d 680C0000 		.4byte	.LLST57
 5700 1241 28       		.uleb128 0x28
 5701 1242 B8030000 		.4byte	.LASF119
 5702 1246 01       		.byte	0x1
 5703 1247 B702     		.2byte	0x2b7
 5704 1249 8F000000 		.4byte	0x8f
 5705 124d DC0C0000 		.4byte	.LLST58
 5706 1251 25       		.uleb128 0x25
 5707 1252 410E0000 		.4byte	.LASF102
 5708 1256 01       		.byte	0x1
 5709 1257 B902     		.2byte	0x2b9
 5710 1259 37000000 		.4byte	0x37
 5711 125d 1E0D0000 		.4byte	.LLST59
 5712 1261 17       		.uleb128 0x17
 5713 1262 D0090000 		.4byte	.LASF103
 5714 1266 4B140000 		.4byte	0x144b
 5715 126a 05       		.uleb128 0x5
 5716 126b 03       		.byte	0x3
 5717 126c DC000000 		.4byte	__func__.8166
 5718 1270 18       		.uleb128 0x18
 5719 1271 16000000 		.4byte	.LBB30
 5720 1275 22000000 		.4byte	.LBE30-.LBB30
 5721 1279 E1120000 		.4byte	0x12e1
 5722 127d 24       		.uleb128 0x24
 5723 127e 6C00     		.ascii	"l\000"
 5724 1280 01       		.byte	0x1
 5725 1281 BE02     		.2byte	0x2be
 5726 1283 7F030000 		.4byte	0x37f
 5727 1287 550D0000 		.4byte	.LLST60
 5728 128b 1A       		.uleb128 0x1a
 5729 128c 1A000000 		.4byte	.LVL220
 5730 1290 AC220000 		.4byte	0x22ac
 5731 1294 1B       		.uleb128 0x1b
 5732 1295 38000000 		.4byte	.LVL223
 5733 1299 02       		.uleb128 0x2
 5734 129a 77       		.byte	0x77
 5735 129b 00       		.sleb128 0
 5736 129c 1C       		.uleb128 0x1c
 5737 129d 01       		.uleb128 0x1
 5738 129e 50       		.byte	0x50
 5739 129f 01       		.uleb128 0x1
 5740 12a0 30       		.byte	0x30
 5741 12a1 1C       		.uleb128 0x1c
 5742 12a2 01       		.uleb128 0x1
 5743 12a3 51       		.byte	0x51
 5744 12a4 05       		.uleb128 0x5
 5745 12a5 03       		.byte	0x3
 5746 12a6 00000000 		.4byte	.LC1
 5747 12aa 1C       		.uleb128 0x1c
 5748 12ab 01       		.uleb128 0x1
ARM GAS  C:\Users\Phuong\AppData\Local\Temp\ccPPbPWA.s 			page 126


 5749 12ac 52       		.byte	0x52
 5750 12ad 05       		.uleb128 0x5
 5751 12ae 03       		.byte	0x3
 5752 12af DC000000 		.4byte	.LANCHOR1+92
 5753 12b3 1C       		.uleb128 0x1c
 5754 12b4 01       		.uleb128 0x1
 5755 12b5 53       		.byte	0x53
 5756 12b6 03       		.uleb128 0x3
 5757 12b7 0A       		.byte	0xa
 5758 12b8 BF02     		.2byte	0x2bf
 5759 12ba 1C       		.uleb128 0x1c
 5760 12bb 02       		.uleb128 0x2
 5761 12bc 7D       		.byte	0x7d
 5762 12bd 00       		.sleb128 0
 5763 12be 01       		.uleb128 0x1
 5764 12bf 31       		.byte	0x31
 5765 12c0 1C       		.uleb128 0x1c
 5766 12c1 02       		.uleb128 0x2
 5767 12c2 7D       		.byte	0x7d
 5768 12c3 04       		.sleb128 4
 5769 12c4 05       		.uleb128 0x5
 5770 12c5 03       		.byte	0x3
 5771 12c6 24050000 		.4byte	.LC68
 5772 12ca 1C       		.uleb128 0x1c
 5773 12cb 02       		.uleb128 0x2
 5774 12cc 7D       		.byte	0x7d
 5775 12cd 08       		.sleb128 8
 5776 12ce 02       		.uleb128 0x2
 5777 12cf 75       		.byte	0x75
 5778 12d0 00       		.sleb128 0
 5779 12d1 1C       		.uleb128 0x1c
 5780 12d2 02       		.uleb128 0x2
 5781 12d3 7D       		.byte	0x7d
 5782 12d4 0C       		.sleb128 12
 5783 12d5 02       		.uleb128 0x2
 5784 12d6 74       		.byte	0x74
 5785 12d7 00       		.sleb128 0
 5786 12d8 1C       		.uleb128 0x1c
 5787 12d9 02       		.uleb128 0x2
 5788 12da 7D       		.byte	0x7d
 5789 12db 10       		.sleb128 16
 5790 12dc 02       		.uleb128 0x2
 5791 12dd 76       		.byte	0x76
 5792 12de 00       		.sleb128 0
 5793 12df 00       		.byte	0
 5794 12e0 00       		.byte	0
 5795 12e1 22       		.uleb128 0x22
 5796 12e2 48000000 		.4byte	.Ldebug_ranges0+0x48
 5797 12e6 25       		.uleb128 0x25
 5798 12e7 B0010000 		.4byte	.LASF90
 5799 12eb 01       		.byte	0x1
 5800 12ec C402     		.2byte	0x2c4
 5801 12ee DA040000 		.4byte	0x4da
 5802 12f2 890D0000 		.4byte	.LLST61
 5803 12f6 18       		.uleb128 0x18
 5804 12f7 8A000000 		.4byte	.LBB32
 5805 12fb 1C000000 		.4byte	.LBE32-.LBB32
ARM GAS  C:\Users\Phuong\AppData\Local\Temp\ccPPbPWA.s 			page 127


 5806 12ff 52130000 		.4byte	0x1352
 5807 1303 24       		.uleb128 0x24
 5808 1304 6C00     		.ascii	"l\000"
 5809 1306 01       		.byte	0x1
 5810 1307 DE02     		.2byte	0x2de
 5811 1309 7F030000 		.4byte	0x37f
 5812 130d CE0D0000 		.4byte	.LLST62
 5813 1311 1A       		.uleb128 0x1a
 5814 1312 8E000000 		.4byte	.LVL237
 5815 1316 AC220000 		.4byte	0x22ac
 5816 131a 1B       		.uleb128 0x1b
 5817 131b A6000000 		.4byte	.LVL240
 5818 131f 02       		.uleb128 0x2
 5819 1320 74       		.byte	0x74
 5820 1321 00       		.sleb128 0
 5821 1322 1C       		.uleb128 0x1c
 5822 1323 01       		.uleb128 0x1
 5823 1324 50       		.byte	0x50
 5824 1325 01       		.uleb128 0x1
 5825 1326 30       		.byte	0x30
 5826 1327 1C       		.uleb128 0x1c
 5827 1328 01       		.uleb128 0x1
 5828 1329 51       		.byte	0x51
 5829 132a 05       		.uleb128 0x5
 5830 132b 03       		.byte	0x3
 5831 132c 00000000 		.4byte	.LC1
 5832 1330 1C       		.uleb128 0x1c
 5833 1331 01       		.uleb128 0x1
 5834 1332 52       		.byte	0x52
 5835 1333 05       		.uleb128 0x5
 5836 1334 03       		.byte	0x3
 5837 1335 DC000000 		.4byte	.LANCHOR1+92
 5838 1339 1C       		.uleb128 0x1c
 5839 133a 01       		.uleb128 0x1
 5840 133b 53       		.byte	0x53
 5841 133c 03       		.uleb128 0x3
 5842 133d 0A       		.byte	0xa
 5843 133e DE02     		.2byte	0x2de
 5844 1340 1C       		.uleb128 0x1c
 5845 1341 02       		.uleb128 0x2
 5846 1342 7D       		.byte	0x7d
 5847 1343 00       		.sleb128 0
 5848 1344 01       		.uleb128 0x1
 5849 1345 31       		.byte	0x31
 5850 1346 1C       		.uleb128 0x1c
 5851 1347 02       		.uleb128 0x2
 5852 1348 7D       		.byte	0x7d
 5853 1349 04       		.sleb128 4
 5854 134a 05       		.uleb128 0x5
 5855 134b 03       		.byte	0x3
 5856 134c 94050000 		.4byte	.LC74
 5857 1350 00       		.byte	0
 5858 1351 00       		.byte	0
 5859 1352 18       		.uleb128 0x18
 5860 1353 AA000000 		.4byte	.LBB33
 5861 1357 1E000000 		.4byte	.LBE33-.LBB33
 5862 135b B5130000 		.4byte	0x13b5
ARM GAS  C:\Users\Phuong\AppData\Local\Temp\ccPPbPWA.s 			page 128


 5863 135f 24       		.uleb128 0x24
 5864 1360 6C00     		.ascii	"l\000"
 5865 1362 01       		.byte	0x1
 5866 1363 E902     		.2byte	0x2e9
 5867 1365 7F030000 		.4byte	0x37f
 5868 1369 020E0000 		.4byte	.LLST63
 5869 136d 1A       		.uleb128 0x1a
 5870 136e AE000000 		.4byte	.LVL242
 5871 1372 AC220000 		.4byte	0x22ac
 5872 1376 1B       		.uleb128 0x1b
 5873 1377 C8000000 		.4byte	.LVL245
 5874 137b 02       		.uleb128 0x2
 5875 137c 75       		.byte	0x75
 5876 137d 00       		.sleb128 0
 5877 137e 1C       		.uleb128 0x1c
 5878 137f 01       		.uleb128 0x1
 5879 1380 50       		.byte	0x50
 5880 1381 01       		.uleb128 0x1
 5881 1382 30       		.byte	0x30
 5882 1383 1C       		.uleb128 0x1c
 5883 1384 01       		.uleb128 0x1
 5884 1385 51       		.byte	0x51
 5885 1386 05       		.uleb128 0x5
 5886 1387 03       		.byte	0x3
 5887 1388 00000000 		.4byte	.LC1
 5888 138c 1C       		.uleb128 0x1c
 5889 138d 01       		.uleb128 0x1
 5890 138e 52       		.byte	0x52
 5891 138f 05       		.uleb128 0x5
 5892 1390 03       		.byte	0x3
 5893 1391 DC000000 		.4byte	.LANCHOR1+92
 5894 1395 1C       		.uleb128 0x1c
 5895 1396 01       		.uleb128 0x1
 5896 1397 53       		.byte	0x53
 5897 1398 03       		.uleb128 0x3
 5898 1399 0A       		.byte	0xa
 5899 139a E902     		.2byte	0x2e9
 5900 139c 1C       		.uleb128 0x1c
 5901 139d 02       		.uleb128 0x2
 5902 139e 7D       		.byte	0x7d
 5903 139f 00       		.sleb128 0
 5904 13a0 01       		.uleb128 0x1
 5905 13a1 31       		.byte	0x31
 5906 13a2 1C       		.uleb128 0x1c
 5907 13a3 02       		.uleb128 0x2
 5908 13a4 7D       		.byte	0x7d
 5909 13a5 04       		.sleb128 4
 5910 13a6 05       		.uleb128 0x5
 5911 13a7 03       		.byte	0x3
 5912 13a8 D8050000 		.4byte	.LC76
 5913 13ac 1C       		.uleb128 0x1c
 5914 13ad 02       		.uleb128 0x2
 5915 13ae 7D       		.byte	0x7d
 5916 13af 08       		.sleb128 8
 5917 13b0 02       		.uleb128 0x2
 5918 13b1 74       		.byte	0x74
 5919 13b2 00       		.sleb128 0
ARM GAS  C:\Users\Phuong\AppData\Local\Temp\ccPPbPWA.s 			page 129


 5920 13b3 00       		.byte	0
 5921 13b4 00       		.byte	0
 5922 13b5 1D       		.uleb128 0x1d
 5923 13b6 44000000 		.4byte	.LVL226
 5924 13ba 25230000 		.4byte	0x2325
 5925 13be CC130000 		.4byte	0x13cc
 5926 13c2 1C       		.uleb128 0x1c
 5927 13c3 01       		.uleb128 0x1
 5928 13c4 50       		.byte	0x50
 5929 13c5 05       		.uleb128 0x5
 5930 13c6 03       		.byte	0x3
 5931 13c7 64040000 		.4byte	.LC56
 5932 13cb 00       		.byte	0
 5933 13cc 1D       		.uleb128 0x1d
 5934 13cd 56000000 		.4byte	.LVL229
 5935 13d1 25230000 		.4byte	0x2325
 5936 13d5 E9130000 		.4byte	0x13e9
 5937 13d9 1C       		.uleb128 0x1c
 5938 13da 01       		.uleb128 0x1
 5939 13db 50       		.byte	0x50
 5940 13dc 05       		.uleb128 0x5
 5941 13dd 03       		.byte	0x3
 5942 13de 80040000 		.4byte	.LC58
 5943 13e2 1C       		.uleb128 0x1c
 5944 13e3 01       		.uleb128 0x1
 5945 13e4 51       		.byte	0x51
 5946 13e5 02       		.uleb128 0x2
 5947 13e6 74       		.byte	0x74
 5948 13e7 00       		.sleb128 0
 5949 13e8 00       		.byte	0
 5950 13e9 1D       		.uleb128 0x1d
 5951 13ea 68000000 		.4byte	.LVL232
 5952 13ee 25230000 		.4byte	0x2325
 5953 13f2 06140000 		.4byte	0x1406
 5954 13f6 1C       		.uleb128 0x1c
 5955 13f7 01       		.uleb128 0x1
 5956 13f8 50       		.byte	0x50
 5957 13f9 05       		.uleb128 0x5
 5958 13fa 03       		.byte	0x3
 5959 13fb 9C040000 		.4byte	.LC60
 5960 13ff 1C       		.uleb128 0x1c
 5961 1400 01       		.uleb128 0x1
 5962 1401 51       		.byte	0x51
 5963 1402 02       		.uleb128 0x2
 5964 1403 74       		.byte	0x74
 5965 1404 00       		.sleb128 0
 5966 1405 00       		.byte	0
 5967 1406 1D       		.uleb128 0x1d
 5968 1407 7A000000 		.4byte	.LVL235
 5969 140b 25230000 		.4byte	0x2325
 5970 140f 23140000 		.4byte	0x1423
 5971 1413 1C       		.uleb128 0x1c
 5972 1414 01       		.uleb128 0x1
 5973 1415 50       		.byte	0x50
 5974 1416 05       		.uleb128 0x5
 5975 1417 03       		.byte	0x3
 5976 1418 B4040000 		.4byte	.LC62
ARM GAS  C:\Users\Phuong\AppData\Local\Temp\ccPPbPWA.s 			page 130


 5977 141c 1C       		.uleb128 0x1c
 5978 141d 01       		.uleb128 0x1
 5979 141e 51       		.byte	0x51
 5980 141f 02       		.uleb128 0x2
 5981 1420 74       		.byte	0x74
 5982 1421 00       		.sleb128 0
 5983 1422 00       		.byte	0
 5984 1423 1E       		.uleb128 0x1e
 5985 1424 86000000 		.4byte	.LVL236
 5986 1428 30230000 		.4byte	0x2330
 5987 142c 1C       		.uleb128 0x1c
 5988 142d 01       		.uleb128 0x1
 5989 142e 50       		.byte	0x50
 5990 142f 02       		.uleb128 0x2
 5991 1430 76       		.byte	0x76
 5992 1431 00       		.sleb128 0
 5993 1432 1C       		.uleb128 0x1c
 5994 1433 01       		.uleb128 0x1
 5995 1434 51       		.byte	0x51
 5996 1435 02       		.uleb128 0x2
 5997 1436 75       		.byte	0x75
 5998 1437 00       		.sleb128 0
 5999 1438 00       		.byte	0
 6000 1439 00       		.byte	0
 6001 143a 00       		.byte	0
 6002 143b 1F       		.uleb128 0x1f
 6003 143c A4000000 		.4byte	0xa4
 6004 1440 4B140000 		.4byte	0x144b
 6005 1444 20       		.uleb128 0x20
 6006 1445 88000000 		.4byte	0x88
 6007 1449 19       		.byte	0x19
 6008 144a 00       		.byte	0
 6009 144b 07       		.uleb128 0x7
 6010 144c 3B140000 		.4byte	0x143b
 6011 1450 2A       		.uleb128 0x2a
 6012 1451 2D020000 		.4byte	.LASF121
 6013 1455 01       		.byte	0x1
 6014 1456 7701     		.2byte	0x177
 6015 1458 00000000 		.4byte	.LFB10
 6016 145c 78000000 		.4byte	.LFE10-.LFB10
 6017 1460 01       		.uleb128 0x1
 6018 1461 9C       		.byte	0x9c
 6019 1462 75150000 		.4byte	0x1575
 6020 1466 28       		.uleb128 0x28
 6021 1467 B5040000 		.4byte	.LASF118
 6022 146b 01       		.byte	0x1
 6023 146c 7701     		.2byte	0x177
 6024 146e 9E000000 		.4byte	0x9e
 6025 1472 2B0E0000 		.4byte	.LLST64
 6026 1476 28       		.uleb128 0x28
 6027 1477 B8030000 		.4byte	.LASF119
 6028 147b 01       		.byte	0x1
 6029 147c 7701     		.2byte	0x177
 6030 147e A9000000 		.4byte	0xa9
 6031 1482 7E0E0000 		.4byte	.LLST65
 6032 1486 17       		.uleb128 0x17
 6033 1487 D0090000 		.4byte	.LASF103
ARM GAS  C:\Users\Phuong\AppData\Local\Temp\ccPPbPWA.s 			page 131


 6034 148b 75150000 		.4byte	0x1575
 6035 148f 05       		.uleb128 0x5
 6036 1490 03       		.byte	0x3
 6037 1491 F8000000 		.4byte	__func__.8074
 6038 1495 18       		.uleb128 0x18
 6039 1496 0A000000 		.4byte	.LBB35
 6040 149a 20000000 		.4byte	.LBE35-.LBB35
 6041 149e F1140000 		.4byte	0x14f1
 6042 14a2 24       		.uleb128 0x24
 6043 14a3 6C00     		.ascii	"l\000"
 6044 14a5 01       		.byte	0x1
 6045 14a6 7B01     		.2byte	0x17b
 6046 14a8 7F030000 		.4byte	0x37f
 6047 14ac F20E0000 		.4byte	.LLST66
 6048 14b0 1A       		.uleb128 0x1a
 6049 14b1 0E000000 		.4byte	.LVL255
 6050 14b5 AC220000 		.4byte	0x22ac
 6051 14b9 1B       		.uleb128 0x1b
 6052 14ba 28000000 		.4byte	.LVL258
 6053 14be 02       		.uleb128 0x2
 6054 14bf 74       		.byte	0x74
 6055 14c0 00       		.sleb128 0
 6056 14c1 1C       		.uleb128 0x1c
 6057 14c2 01       		.uleb128 0x1
 6058 14c3 50       		.byte	0x50
 6059 14c4 01       		.uleb128 0x1
 6060 14c5 30       		.byte	0x30
 6061 14c6 1C       		.uleb128 0x1c
 6062 14c7 01       		.uleb128 0x1
 6063 14c8 51       		.byte	0x51
 6064 14c9 05       		.uleb128 0x5
 6065 14ca 03       		.byte	0x3
 6066 14cb 00000000 		.4byte	.LC1
 6067 14cf 1C       		.uleb128 0x1c
 6068 14d0 01       		.uleb128 0x1
 6069 14d1 52       		.byte	0x52
 6070 14d2 05       		.uleb128 0x5
 6071 14d3 03       		.byte	0x3
 6072 14d4 F8000000 		.4byte	.LANCHOR1+120
 6073 14d8 1C       		.uleb128 0x1c
 6074 14d9 01       		.uleb128 0x1
 6075 14da 53       		.byte	0x53
 6076 14db 03       		.uleb128 0x3
 6077 14dc 0A       		.byte	0xa
 6078 14dd 7B01     		.2byte	0x17b
 6079 14df 1C       		.uleb128 0x1c
 6080 14e0 02       		.uleb128 0x2
 6081 14e1 7D       		.byte	0x7d
 6082 14e2 00       		.sleb128 0
 6083 14e3 01       		.uleb128 0x1
 6084 14e4 31       		.byte	0x31
 6085 14e5 1C       		.uleb128 0x1c
 6086 14e6 02       		.uleb128 0x2
 6087 14e7 7D       		.byte	0x7d
 6088 14e8 04       		.sleb128 4
 6089 14e9 05       		.uleb128 0x5
 6090 14ea 03       		.byte	0x3
ARM GAS  C:\Users\Phuong\AppData\Local\Temp\ccPPbPWA.s 			page 132


 6091 14eb 24060000 		.4byte	.LC80
 6092 14ef 00       		.byte	0
 6093 14f0 00       		.byte	0
 6094 14f1 18       		.uleb128 0x18
 6095 14f2 2E000000 		.4byte	.LBB36
 6096 14f6 20000000 		.4byte	.LBE36-.LBB36
 6097 14fa 4D150000 		.4byte	0x154d
 6098 14fe 24       		.uleb128 0x24
 6099 14ff 6C00     		.ascii	"l\000"
 6100 1501 01       		.byte	0x1
 6101 1502 7F01     		.2byte	0x17f
 6102 1504 7F030000 		.4byte	0x37f
 6103 1508 100F0000 		.4byte	.LLST67
 6104 150c 1A       		.uleb128 0x1a
 6105 150d 32000000 		.4byte	.LVL260
 6106 1511 AC220000 		.4byte	0x22ac
 6107 1515 1B       		.uleb128 0x1b
 6108 1516 4C000000 		.4byte	.LVL263
 6109 151a 02       		.uleb128 0x2
 6110 151b 74       		.byte	0x74
 6111 151c 00       		.sleb128 0
 6112 151d 1C       		.uleb128 0x1c
 6113 151e 01       		.uleb128 0x1
 6114 151f 50       		.byte	0x50
 6115 1520 01       		.uleb128 0x1
 6116 1521 30       		.byte	0x30
 6117 1522 1C       		.uleb128 0x1c
 6118 1523 01       		.uleb128 0x1
 6119 1524 51       		.byte	0x51
 6120 1525 05       		.uleb128 0x5
 6121 1526 03       		.byte	0x3
 6122 1527 00000000 		.4byte	.LC1
 6123 152b 1C       		.uleb128 0x1c
 6124 152c 01       		.uleb128 0x1
 6125 152d 52       		.byte	0x52
 6126 152e 05       		.uleb128 0x5
 6127 152f 03       		.byte	0x3
 6128 1530 F8000000 		.4byte	.LANCHOR1+120
 6129 1534 1C       		.uleb128 0x1c
 6130 1535 01       		.uleb128 0x1
 6131 1536 53       		.byte	0x53
 6132 1537 03       		.uleb128 0x3
 6133 1538 0A       		.byte	0xa
 6134 1539 7F01     		.2byte	0x17f
 6135 153b 1C       		.uleb128 0x1c
 6136 153c 02       		.uleb128 0x2
 6137 153d 7D       		.byte	0x7d
 6138 153e 00       		.sleb128 0
 6139 153f 01       		.uleb128 0x1
 6140 1540 31       		.byte	0x31
 6141 1541 1C       		.uleb128 0x1c
 6142 1542 02       		.uleb128 0x2
 6143 1543 7D       		.byte	0x7d
 6144 1544 04       		.sleb128 4
 6145 1545 05       		.uleb128 0x5
 6146 1546 03       		.byte	0x3
 6147 1547 5C060000 		.4byte	.LC82
ARM GAS  C:\Users\Phuong\AppData\Local\Temp\ccPPbPWA.s 			page 133


 6148 154b 00       		.byte	0
 6149 154c 00       		.byte	0
 6150 154d 1D       		.uleb128 0x1d
 6151 154e 54000000 		.4byte	.LVL266
 6152 1552 25230000 		.4byte	0x2325
 6153 1556 64150000 		.4byte	0x1564
 6154 155a 1C       		.uleb128 0x1c
 6155 155b 01       		.uleb128 0x1
 6156 155c 51       		.byte	0x51
 6157 155d 05       		.uleb128 0x5
 6158 155e 03       		.byte	0x3
 6159 155f B4040000 		.4byte	.LC62
 6160 1563 00       		.byte	0
 6161 1564 1E       		.uleb128 0x1e
 6162 1565 5E000000 		.4byte	.LVL267
 6163 1569 3B230000 		.4byte	0x233b
 6164 156d 1C       		.uleb128 0x1c
 6165 156e 01       		.uleb128 0x1
 6166 156f 50       		.byte	0x50
 6167 1570 02       		.uleb128 0x2
 6168 1571 74       		.byte	0x74
 6169 1572 00       		.sleb128 0
 6170 1573 00       		.byte	0
 6171 1574 00       		.byte	0
 6172 1575 07       		.uleb128 0x7
 6173 1576 750A0000 		.4byte	0xa75
 6174 157a 29       		.uleb128 0x29
 6175 157b 83080000 		.4byte	.LASF123
 6176 157f 01       		.byte	0x1
 6177 1580 8B01     		.2byte	0x18b
 6178 1582 37000000 		.4byte	0x37
 6179 1586 00000000 		.4byte	.LFB11
 6180 158a BC000000 		.4byte	.LFE11-.LFB11
 6181 158e 01       		.uleb128 0x1
 6182 158f 9C       		.byte	0x9c
 6183 1590 13170000 		.4byte	0x1713
 6184 1594 28       		.uleb128 0x28
 6185 1595 5D070000 		.4byte	.LASF120
 6186 1599 01       		.byte	0x1
 6187 159a 8B01     		.2byte	0x18b
 6188 159c 3B030000 		.4byte	0x33b
 6189 15a0 2E0F0000 		.4byte	.LLST68
 6190 15a4 28       		.uleb128 0x28
 6191 15a5 6C0B0000 		.4byte	.LASF86
 6192 15a9 01       		.byte	0x1
 6193 15aa 8B01     		.2byte	0x18b
 6194 15ac 13170000 		.4byte	0x1713
 6195 15b0 D10F0000 		.4byte	.LLST69
 6196 15b4 25       		.uleb128 0x25
 6197 15b5 410E0000 		.4byte	.LASF102
 6198 15b9 01       		.byte	0x1
 6199 15ba 8D01     		.2byte	0x18d
 6200 15bc 37000000 		.4byte	0x37
 6201 15c0 49100000 		.4byte	.LLST70
 6202 15c4 17       		.uleb128 0x17
 6203 15c5 D0090000 		.4byte	.LASF103
 6204 15c9 18170000 		.4byte	0x1718
ARM GAS  C:\Users\Phuong\AppData\Local\Temp\ccPPbPWA.s 			page 134


 6205 15cd 05       		.uleb128 0x5
 6206 15ce 03       		.byte	0x3
 6207 15cf 18010000 		.4byte	__func__.8086
 6208 15d3 18       		.uleb128 0x18
 6209 15d4 08000000 		.4byte	.LBB37
 6210 15d8 1E000000 		.4byte	.LBE37-.LBB37
 6211 15dc 2F160000 		.4byte	0x162f
 6212 15e0 24       		.uleb128 0x24
 6213 15e1 6C00     		.ascii	"l\000"
 6214 15e3 01       		.byte	0x1
 6215 15e4 9301     		.2byte	0x193
 6216 15e6 7F030000 		.4byte	0x37f
 6217 15ea BC100000 		.4byte	.LLST71
 6218 15ee 1A       		.uleb128 0x1a
 6219 15ef 0C000000 		.4byte	.LVL270
 6220 15f3 AC220000 		.4byte	0x22ac
 6221 15f7 1B       		.uleb128 0x1b
 6222 15f8 26000000 		.4byte	.LVL273
 6223 15fc 02       		.uleb128 0x2
 6224 15fd 74       		.byte	0x74
 6225 15fe 00       		.sleb128 0
 6226 15ff 1C       		.uleb128 0x1c
 6227 1600 01       		.uleb128 0x1
 6228 1601 50       		.byte	0x50
 6229 1602 01       		.uleb128 0x1
 6230 1603 30       		.byte	0x30
 6231 1604 1C       		.uleb128 0x1c
 6232 1605 01       		.uleb128 0x1
 6233 1606 51       		.byte	0x51
 6234 1607 05       		.uleb128 0x5
 6235 1608 03       		.byte	0x3
 6236 1609 00000000 		.4byte	.LC1
 6237 160d 1C       		.uleb128 0x1c
 6238 160e 01       		.uleb128 0x1
 6239 160f 52       		.byte	0x52
 6240 1610 05       		.uleb128 0x5
 6241 1611 03       		.byte	0x3
 6242 1612 18010000 		.4byte	.LANCHOR2+24
 6243 1616 1C       		.uleb128 0x1c
 6244 1617 01       		.uleb128 0x1
 6245 1618 53       		.byte	0x53
 6246 1619 03       		.uleb128 0x3
 6247 161a 0A       		.byte	0xa
 6248 161b 9301     		.2byte	0x193
 6249 161d 1C       		.uleb128 0x1c
 6250 161e 02       		.uleb128 0x2
 6251 161f 7D       		.byte	0x7d
 6252 1620 00       		.sleb128 0
 6253 1621 01       		.uleb128 0x1
 6254 1622 31       		.byte	0x31
 6255 1623 1C       		.uleb128 0x1c
 6256 1624 02       		.uleb128 0x2
 6257 1625 7D       		.byte	0x7d
 6258 1626 04       		.sleb128 4
 6259 1627 05       		.uleb128 0x5
 6260 1628 03       		.byte	0x3
 6261 1629 94060000 		.4byte	.LC87
ARM GAS  C:\Users\Phuong\AppData\Local\Temp\ccPPbPWA.s 			page 135


 6262 162d 00       		.byte	0
 6263 162e 00       		.byte	0
 6264 162f 18       		.uleb128 0x18
 6265 1630 30000000 		.4byte	.LBB38
 6266 1634 1E000000 		.4byte	.LBE38-.LBB38
 6267 1638 8B160000 		.4byte	0x168b
 6268 163c 24       		.uleb128 0x24
 6269 163d 6C00     		.ascii	"l\000"
 6270 163f 01       		.byte	0x1
 6271 1640 9901     		.2byte	0x199
 6272 1642 7F030000 		.4byte	0x37f
 6273 1646 F0100000 		.4byte	.LLST72
 6274 164a 1A       		.uleb128 0x1a
 6275 164b 34000000 		.4byte	.LVL276
 6276 164f AC220000 		.4byte	0x22ac
 6277 1653 1B       		.uleb128 0x1b
 6278 1654 4E000000 		.4byte	.LVL279
 6279 1658 02       		.uleb128 0x2
 6280 1659 74       		.byte	0x74
 6281 165a 00       		.sleb128 0
 6282 165b 1C       		.uleb128 0x1c
 6283 165c 01       		.uleb128 0x1
 6284 165d 50       		.byte	0x50
 6285 165e 01       		.uleb128 0x1
 6286 165f 30       		.byte	0x30
 6287 1660 1C       		.uleb128 0x1c
 6288 1661 01       		.uleb128 0x1
 6289 1662 51       		.byte	0x51
 6290 1663 05       		.uleb128 0x5
 6291 1664 03       		.byte	0x3
 6292 1665 00000000 		.4byte	.LC1
 6293 1669 1C       		.uleb128 0x1c
 6294 166a 01       		.uleb128 0x1
 6295 166b 52       		.byte	0x52
 6296 166c 05       		.uleb128 0x5
 6297 166d 03       		.byte	0x3
 6298 166e 18010000 		.4byte	.LANCHOR2+24
 6299 1672 1C       		.uleb128 0x1c
 6300 1673 01       		.uleb128 0x1
 6301 1674 53       		.byte	0x53
 6302 1675 03       		.uleb128 0x3
 6303 1676 0A       		.byte	0xa
 6304 1677 9901     		.2byte	0x199
 6305 1679 1C       		.uleb128 0x1c
 6306 167a 02       		.uleb128 0x2
 6307 167b 7D       		.byte	0x7d
 6308 167c 00       		.sleb128 0
 6309 167d 01       		.uleb128 0x1
 6310 167e 31       		.byte	0x31
 6311 167f 1C       		.uleb128 0x1c
 6312 1680 02       		.uleb128 0x2
 6313 1681 7D       		.byte	0x7d
 6314 1682 04       		.sleb128 4
 6315 1683 05       		.uleb128 0x5
 6316 1684 03       		.byte	0x3
 6317 1685 D0060000 		.4byte	.LC89
 6318 1689 00       		.byte	0
ARM GAS  C:\Users\Phuong\AppData\Local\Temp\ccPPbPWA.s 			page 136


 6319 168a 00       		.byte	0
 6320 168b 22       		.uleb128 0x22
 6321 168c 60000000 		.4byte	.Ldebug_ranges0+0x60
 6322 1690 25       		.uleb128 0x25
 6323 1691 B0010000 		.4byte	.LASF90
 6324 1695 01       		.byte	0x1
 6325 1696 9D01     		.2byte	0x19d
 6326 1698 DA040000 		.4byte	0x4da
 6327 169c 24110000 		.4byte	.LLST73
 6328 16a0 18       		.uleb128 0x18
 6329 16a1 5C000000 		.4byte	.LBB40
 6330 16a5 24000000 		.4byte	.LBE40-.LBB40
 6331 16a9 FC160000 		.4byte	0x16fc
 6332 16ad 24       		.uleb128 0x24
 6333 16ae 6C00     		.ascii	"l\000"
 6334 16b0 01       		.byte	0x1
 6335 16b1 A301     		.2byte	0x1a3
 6336 16b3 7F030000 		.4byte	0x37f
 6337 16b7 63110000 		.4byte	.LLST74
 6338 16bb 1A       		.uleb128 0x1a
 6339 16bc 60000000 		.4byte	.LVL282
 6340 16c0 AC220000 		.4byte	0x22ac
 6341 16c4 1B       		.uleb128 0x1b
 6342 16c5 80000000 		.4byte	.LVL285
 6343 16c9 02       		.uleb128 0x2
 6344 16ca 75       		.byte	0x75
 6345 16cb 00       		.sleb128 0
 6346 16cc 1C       		.uleb128 0x1c
 6347 16cd 01       		.uleb128 0x1
 6348 16ce 50       		.byte	0x50
 6349 16cf 01       		.uleb128 0x1
 6350 16d0 30       		.byte	0x30
 6351 16d1 1C       		.uleb128 0x1c
 6352 16d2 01       		.uleb128 0x1
 6353 16d3 51       		.byte	0x51
 6354 16d4 05       		.uleb128 0x5
 6355 16d5 03       		.byte	0x3
 6356 16d6 00000000 		.4byte	.LC1
 6357 16da 1C       		.uleb128 0x1c
 6358 16db 01       		.uleb128 0x1
 6359 16dc 52       		.byte	0x52
 6360 16dd 05       		.uleb128 0x5
 6361 16de 03       		.byte	0x3
 6362 16df 18010000 		.4byte	.LANCHOR2+24
 6363 16e3 1C       		.uleb128 0x1c
 6364 16e4 01       		.uleb128 0x1
 6365 16e5 53       		.byte	0x53
 6366 16e6 03       		.uleb128 0x3
 6367 16e7 0A       		.byte	0xa
 6368 16e8 A301     		.2byte	0x1a3
 6369 16ea 1C       		.uleb128 0x1c
 6370 16eb 02       		.uleb128 0x2
 6371 16ec 7D       		.byte	0x7d
 6372 16ed 00       		.sleb128 0
 6373 16ee 01       		.uleb128 0x1
 6374 16ef 31       		.byte	0x31
 6375 16f0 1C       		.uleb128 0x1c
ARM GAS  C:\Users\Phuong\AppData\Local\Temp\ccPPbPWA.s 			page 137


 6376 16f1 02       		.uleb128 0x2
 6377 16f2 7D       		.byte	0x7d
 6378 16f3 04       		.sleb128 4
 6379 16f4 05       		.uleb128 0x5
 6380 16f5 03       		.byte	0x3
 6381 16f6 04070000 		.4byte	.LC91
 6382 16fa 00       		.byte	0
 6383 16fb 00       		.byte	0
 6384 16fc 1E       		.uleb128 0x1e
 6385 16fd 8E000000 		.4byte	.LVL288
 6386 1701 8D040000 		.4byte	0x48d
 6387 1705 1C       		.uleb128 0x1c
 6388 1706 01       		.uleb128 0x1
 6389 1707 50       		.byte	0x50
 6390 1708 02       		.uleb128 0x2
 6391 1709 74       		.byte	0x74
 6392 170a 00       		.sleb128 0
 6393 170b 1C       		.uleb128 0x1c
 6394 170c 01       		.uleb128 0x1
 6395 170d 51       		.byte	0x51
 6396 170e 01       		.uleb128 0x1
 6397 170f 31       		.byte	0x31
 6398 1710 00       		.byte	0
 6399 1711 00       		.byte	0
 6400 1712 00       		.byte	0
 6401 1713 07       		.uleb128 0x7
 6402 1714 FE010000 		.4byte	0x1fe
 6403 1718 07       		.uleb128 0x7
 6404 1719 1D0C0000 		.4byte	0xc1d
 6405 171d 29       		.uleb128 0x29
 6406 171e AB090000 		.4byte	.LASF124
 6407 1722 01       		.byte	0x1
 6408 1723 B501     		.2byte	0x1b5
 6409 1725 37000000 		.4byte	0x37
 6410 1729 00000000 		.4byte	.LFB12
 6411 172d 84000000 		.4byte	.LFE12-.LFB12
 6412 1731 01       		.uleb128 0x1
 6413 1732 9C       		.byte	0x9c
 6414 1733 4B180000 		.4byte	0x184b
 6415 1737 28       		.uleb128 0x28
 6416 1738 5D070000 		.4byte	.LASF120
 6417 173c 01       		.byte	0x1
 6418 173d B501     		.2byte	0x1b5
 6419 173f 3B030000 		.4byte	0x33b
 6420 1743 97110000 		.4byte	.LLST75
 6421 1747 25       		.uleb128 0x25
 6422 1748 410E0000 		.4byte	.LASF102
 6423 174c 01       		.byte	0x1
 6424 174d B701     		.2byte	0x1b7
 6425 174f 37000000 		.4byte	0x37
 6426 1753 EA110000 		.4byte	.LLST76
 6427 1757 17       		.uleb128 0x17
 6428 1758 D0090000 		.4byte	.LASF103
 6429 175c 5B180000 		.4byte	0x185b
 6430 1760 05       		.uleb128 0x5
 6431 1761 03       		.byte	0x3
 6432 1762 30010000 		.4byte	__func__.8101
ARM GAS  C:\Users\Phuong\AppData\Local\Temp\ccPPbPWA.s 			page 138


 6433 1766 18       		.uleb128 0x18
 6434 1767 08000000 		.4byte	.LBB42
 6435 176b 1E000000 		.4byte	.LBE42-.LBB42
 6436 176f C2170000 		.4byte	0x17c2
 6437 1773 24       		.uleb128 0x24
 6438 1774 6C00     		.ascii	"l\000"
 6439 1776 01       		.byte	0x1
 6440 1777 BD01     		.2byte	0x1bd
 6441 1779 7F030000 		.4byte	0x37f
 6442 177d 41120000 		.4byte	.LLST77
 6443 1781 1A       		.uleb128 0x1a
 6444 1782 0C000000 		.4byte	.LVL298
 6445 1786 AC220000 		.4byte	0x22ac
 6446 178a 1B       		.uleb128 0x1b
 6447 178b 26000000 		.4byte	.LVL301
 6448 178f 02       		.uleb128 0x2
 6449 1790 74       		.byte	0x74
 6450 1791 00       		.sleb128 0
 6451 1792 1C       		.uleb128 0x1c
 6452 1793 01       		.uleb128 0x1
 6453 1794 50       		.byte	0x50
 6454 1795 01       		.uleb128 0x1
 6455 1796 30       		.byte	0x30
 6456 1797 1C       		.uleb128 0x1c
 6457 1798 01       		.uleb128 0x1
 6458 1799 51       		.byte	0x51
 6459 179a 05       		.uleb128 0x5
 6460 179b 03       		.byte	0x3
 6461 179c 00000000 		.4byte	.LC1
 6462 17a0 1C       		.uleb128 0x1c
 6463 17a1 01       		.uleb128 0x1
 6464 17a2 52       		.byte	0x52
 6465 17a3 05       		.uleb128 0x5
 6466 17a4 03       		.byte	0x3
 6467 17a5 30010000 		.4byte	.LANCHOR2+48
 6468 17a9 1C       		.uleb128 0x1c
 6469 17aa 01       		.uleb128 0x1
 6470 17ab 53       		.byte	0x53
 6471 17ac 03       		.uleb128 0x3
 6472 17ad 0A       		.byte	0xa
 6473 17ae BD01     		.2byte	0x1bd
 6474 17b0 1C       		.uleb128 0x1c
 6475 17b1 02       		.uleb128 0x2
 6476 17b2 7D       		.byte	0x7d
 6477 17b3 00       		.sleb128 0
 6478 17b4 01       		.uleb128 0x1
 6479 17b5 31       		.byte	0x31
 6480 17b6 1C       		.uleb128 0x1c
 6481 17b7 02       		.uleb128 0x2
 6482 17b8 7D       		.byte	0x7d
 6483 17b9 04       		.sleb128 4
 6484 17ba 05       		.uleb128 0x5
 6485 17bb 03       		.byte	0x3
 6486 17bc 58070000 		.4byte	.LC95
 6487 17c0 00       		.byte	0
 6488 17c1 00       		.byte	0
 6489 17c2 22       		.uleb128 0x22
ARM GAS  C:\Users\Phuong\AppData\Local\Temp\ccPPbPWA.s 			page 139


 6490 17c3 78000000 		.4byte	.Ldebug_ranges0+0x78
 6491 17c7 25       		.uleb128 0x25
 6492 17c8 B0010000 		.4byte	.LASF90
 6493 17cc 01       		.byte	0x1
 6494 17cd C101     		.2byte	0x1c1
 6495 17cf DA040000 		.4byte	0x4da
 6496 17d3 75120000 		.4byte	.LLST78
 6497 17d7 18       		.uleb128 0x18
 6498 17d8 34000000 		.4byte	.LBB44
 6499 17dc 1E000000 		.4byte	.LBE44-.LBB44
 6500 17e0 33180000 		.4byte	0x1833
 6501 17e4 24       		.uleb128 0x24
 6502 17e5 6C00     		.ascii	"l\000"
 6503 17e7 01       		.byte	0x1
 6504 17e8 C701     		.2byte	0x1c7
 6505 17ea 7F030000 		.4byte	0x37f
 6506 17ee BD120000 		.4byte	.LLST79
 6507 17f2 1A       		.uleb128 0x1a
 6508 17f3 38000000 		.4byte	.LVL304
 6509 17f7 AC220000 		.4byte	0x22ac
 6510 17fb 1B       		.uleb128 0x1b
 6511 17fc 52000000 		.4byte	.LVL307
 6512 1800 02       		.uleb128 0x2
 6513 1801 74       		.byte	0x74
 6514 1802 00       		.sleb128 0
 6515 1803 1C       		.uleb128 0x1c
 6516 1804 01       		.uleb128 0x1
 6517 1805 50       		.byte	0x50
 6518 1806 01       		.uleb128 0x1
 6519 1807 30       		.byte	0x30
 6520 1808 1C       		.uleb128 0x1c
 6521 1809 01       		.uleb128 0x1
 6522 180a 51       		.byte	0x51
 6523 180b 05       		.uleb128 0x5
 6524 180c 03       		.byte	0x3
 6525 180d 00000000 		.4byte	.LC1
 6526 1811 1C       		.uleb128 0x1c
 6527 1812 01       		.uleb128 0x1
 6528 1813 52       		.byte	0x52
 6529 1814 05       		.uleb128 0x5
 6530 1815 03       		.byte	0x3
 6531 1816 30010000 		.4byte	.LANCHOR2+48
 6532 181a 1C       		.uleb128 0x1c
 6533 181b 01       		.uleb128 0x1
 6534 181c 53       		.byte	0x53
 6535 181d 03       		.uleb128 0x3
 6536 181e 0A       		.byte	0xa
 6537 181f C701     		.2byte	0x1c7
 6538 1821 1C       		.uleb128 0x1c
 6539 1822 02       		.uleb128 0x2
 6540 1823 7D       		.byte	0x7d
 6541 1824 00       		.sleb128 0
 6542 1825 01       		.uleb128 0x1
 6543 1826 31       		.byte	0x31
 6544 1827 1C       		.uleb128 0x1c
 6545 1828 02       		.uleb128 0x2
 6546 1829 7D       		.byte	0x7d
ARM GAS  C:\Users\Phuong\AppData\Local\Temp\ccPPbPWA.s 			page 140


 6547 182a 04       		.sleb128 4
 6548 182b 05       		.uleb128 0x5
 6549 182c 03       		.byte	0x3
 6550 182d 94070000 		.4byte	.LC97
 6551 1831 00       		.byte	0
 6552 1832 00       		.byte	0
 6553 1833 1E       		.uleb128 0x1e
 6554 1834 62000000 		.4byte	.LVL309
 6555 1838 8D040000 		.4byte	0x48d
 6556 183c 1C       		.uleb128 0x1c
 6557 183d 01       		.uleb128 0x1
 6558 183e 50       		.byte	0x50
 6559 183f 03       		.uleb128 0x3
 6560 1840 F3       		.byte	0xf3
 6561 1841 01       		.uleb128 0x1
 6562 1842 50       		.byte	0x50
 6563 1843 1C       		.uleb128 0x1c
 6564 1844 01       		.uleb128 0x1
 6565 1845 51       		.byte	0x51
 6566 1846 01       		.uleb128 0x1
 6567 1847 30       		.byte	0x30
 6568 1848 00       		.byte	0
 6569 1849 00       		.byte	0
 6570 184a 00       		.byte	0
 6571 184b 1F       		.uleb128 0x1f
 6572 184c A4000000 		.4byte	0xa4
 6573 1850 5B180000 		.4byte	0x185b
 6574 1854 20       		.uleb128 0x20
 6575 1855 88000000 		.4byte	0x88
 6576 1859 13       		.byte	0x13
 6577 185a 00       		.byte	0
 6578 185b 07       		.uleb128 0x7
 6579 185c 4B180000 		.4byte	0x184b
 6580 1860 2B       		.uleb128 0x2b
 6581 1861 690E0000 		.4byte	.LASF127
 6582 1865 01       		.byte	0x1
 6583 1866 D901     		.2byte	0x1d9
 6584 1868 00000000 		.4byte	.LFB13
 6585 186c 54000000 		.4byte	.LFE13-.LFB13
 6586 1870 01       		.uleb128 0x1
 6587 1871 9C       		.byte	0x9c
 6588 1872 39190000 		.4byte	0x1939
 6589 1876 28       		.uleb128 0x28
 6590 1877 5D070000 		.4byte	.LASF120
 6591 187b 01       		.byte	0x1
 6592 187c D901     		.2byte	0x1d9
 6593 187e 3B030000 		.4byte	0x33b
 6594 1882 F1120000 		.4byte	.LLST80
 6595 1886 17       		.uleb128 0x17
 6596 1887 D0090000 		.4byte	.LASF103
 6597 188b 49190000 		.4byte	0x1949
 6598 188f 05       		.uleb128 0x5
 6599 1890 03       		.byte	0x3
 6600 1891 44010000 		.4byte	__func__.8112
 6601 1895 18       		.uleb128 0x18
 6602 1896 08000000 		.4byte	.LBB46
 6603 189a 20000000 		.4byte	.LBE46-.LBB46
ARM GAS  C:\Users\Phuong\AppData\Local\Temp\ccPPbPWA.s 			page 141


 6604 189e F1180000 		.4byte	0x18f1
 6605 18a2 24       		.uleb128 0x24
 6606 18a3 6C00     		.ascii	"l\000"
 6607 18a5 01       		.byte	0x1
 6608 18a6 DE01     		.2byte	0x1de
 6609 18a8 7F030000 		.4byte	0x37f
 6610 18ac 41130000 		.4byte	.LLST81
 6611 18b0 1A       		.uleb128 0x1a
 6612 18b1 0C000000 		.4byte	.LVL316
 6613 18b5 AC220000 		.4byte	0x22ac
 6614 18b9 1B       		.uleb128 0x1b
 6615 18ba 26000000 		.4byte	.LVL319
 6616 18be 02       		.uleb128 0x2
 6617 18bf 74       		.byte	0x74
 6618 18c0 00       		.sleb128 0
 6619 18c1 1C       		.uleb128 0x1c
 6620 18c2 01       		.uleb128 0x1
 6621 18c3 50       		.byte	0x50
 6622 18c4 01       		.uleb128 0x1
 6623 18c5 30       		.byte	0x30
 6624 18c6 1C       		.uleb128 0x1c
 6625 18c7 01       		.uleb128 0x1
 6626 18c8 51       		.byte	0x51
 6627 18c9 05       		.uleb128 0x5
 6628 18ca 03       		.byte	0x3
 6629 18cb 00000000 		.4byte	.LC1
 6630 18cf 1C       		.uleb128 0x1c
 6631 18d0 01       		.uleb128 0x1
 6632 18d1 52       		.byte	0x52
 6633 18d2 05       		.uleb128 0x5
 6634 18d3 03       		.byte	0x3
 6635 18d4 44010000 		.4byte	.LANCHOR2+68
 6636 18d8 1C       		.uleb128 0x1c
 6637 18d9 01       		.uleb128 0x1
 6638 18da 53       		.byte	0x53
 6639 18db 03       		.uleb128 0x3
 6640 18dc 0A       		.byte	0xa
 6641 18dd DE01     		.2byte	0x1de
 6642 18df 1C       		.uleb128 0x1c
 6643 18e0 02       		.uleb128 0x2
 6644 18e1 7D       		.byte	0x7d
 6645 18e2 00       		.sleb128 0
 6646 18e3 01       		.uleb128 0x1
 6647 18e4 31       		.byte	0x31
 6648 18e5 1C       		.uleb128 0x1c
 6649 18e6 02       		.uleb128 0x2
 6650 18e7 7D       		.byte	0x7d
 6651 18e8 04       		.sleb128 4
 6652 18e9 05       		.uleb128 0x5
 6653 18ea 03       		.byte	0x3
 6654 18eb D0070000 		.4byte	.LC101
 6655 18ef 00       		.byte	0
 6656 18f0 00       		.byte	0
 6657 18f1 14       		.uleb128 0x14
 6658 18f2 28000000 		.4byte	.LBB47
 6659 18f6 1C000000 		.4byte	.LBE47-.LBB47
 6660 18fa 25       		.uleb128 0x25
ARM GAS  C:\Users\Phuong\AppData\Local\Temp\ccPPbPWA.s 			page 142


 6661 18fb B0010000 		.4byte	.LASF90
 6662 18ff 01       		.byte	0x1
 6663 1900 E201     		.2byte	0x1e2
 6664 1902 DA040000 		.4byte	0x4da
 6665 1906 5F130000 		.4byte	.LLST82
 6666 190a 1D       		.uleb128 0x1d
 6667 190b 34000000 		.4byte	.LVL321
 6668 190f 1D170000 		.4byte	0x171d
 6669 1913 1E190000 		.4byte	0x191e
 6670 1917 1C       		.uleb128 0x1c
 6671 1918 01       		.uleb128 0x1
 6672 1919 50       		.byte	0x50
 6673 191a 02       		.uleb128 0x2
 6674 191b 74       		.byte	0x74
 6675 191c 00       		.sleb128 0
 6676 191d 00       		.byte	0
 6677 191e 1A       		.uleb128 0x1a
 6678 191f 3E000000 		.4byte	.LVL322
 6679 1923 1A230000 		.4byte	0x231a
 6680 1927 1E       		.uleb128 0x1e
 6681 1928 44000000 		.4byte	.LVL323
 6682 192c 0F230000 		.4byte	0x230f
 6683 1930 1C       		.uleb128 0x1c
 6684 1931 01       		.uleb128 0x1
 6685 1932 50       		.byte	0x50
 6686 1933 02       		.uleb128 0x2
 6687 1934 74       		.byte	0x74
 6688 1935 00       		.sleb128 0
 6689 1936 00       		.byte	0
 6690 1937 00       		.byte	0
 6691 1938 00       		.byte	0
 6692 1939 1F       		.uleb128 0x1f
 6693 193a A4000000 		.4byte	0xa4
 6694 193e 49190000 		.4byte	0x1949
 6695 1942 20       		.uleb128 0x20
 6696 1943 88000000 		.4byte	0x88
 6697 1947 16       		.byte	0x16
 6698 1948 00       		.byte	0
 6699 1949 07       		.uleb128 0x7
 6700 194a 39190000 		.4byte	0x1939
 6701 194e 29       		.uleb128 0x29
 6702 194f 6D080000 		.4byte	.LASF125
 6703 1953 01       		.byte	0x1
 6704 1954 F201     		.2byte	0x1f2
 6705 1956 3B030000 		.4byte	0x33b
 6706 195a 00000000 		.4byte	.LFB14
 6707 195e CC010000 		.4byte	.LFE14-.LFB14
 6708 1962 01       		.uleb128 0x1
 6709 1963 9C       		.byte	0x9c
 6710 1964 8A1C0000 		.4byte	0x1c8a
 6711 1968 28       		.uleb128 0x28
 6712 1969 E0030000 		.4byte	.LASF126
 6713 196d 01       		.byte	0x1
 6714 196e F201     		.2byte	0x1f2
 6715 1970 8A1C0000 		.4byte	0x1c8a
 6716 1974 7D130000 		.4byte	.LLST83
 6717 1978 25       		.uleb128 0x25
ARM GAS  C:\Users\Phuong\AppData\Local\Temp\ccPPbPWA.s 			page 143


 6718 1979 410E0000 		.4byte	.LASF102
 6719 197d 01       		.byte	0x1
 6720 197e F401     		.2byte	0x1f4
 6721 1980 3B030000 		.4byte	0x33b
 6722 1984 84140000 		.4byte	.LLST84
 6723 1988 17       		.uleb128 0x17
 6724 1989 D0090000 		.4byte	.LASF103
 6725 198d A51C0000 		.4byte	0x1ca5
 6726 1991 05       		.uleb128 0x5
 6727 1992 03       		.byte	0x3
 6728 1993 5C010000 		.4byte	__func__.8121
 6729 1997 18       		.uleb128 0x18
 6730 1998 08000000 		.4byte	.LBB48
 6731 199c 20000000 		.4byte	.LBE48-.LBB48
 6732 19a0 F3190000 		.4byte	0x19f3
 6733 19a4 24       		.uleb128 0x24
 6734 19a5 6C00     		.ascii	"l\000"
 6735 19a7 01       		.byte	0x1
 6736 19a8 FA01     		.2byte	0x1fa
 6737 19aa 7F030000 		.4byte	0x37f
 6738 19ae 24150000 		.4byte	.LLST85
 6739 19b2 1A       		.uleb128 0x1a
 6740 19b3 0C000000 		.4byte	.LVL326
 6741 19b7 AC220000 		.4byte	0x22ac
 6742 19bb 1B       		.uleb128 0x1b
 6743 19bc 28000000 		.4byte	.LVL329
 6744 19c0 02       		.uleb128 0x2
 6745 19c1 74       		.byte	0x74
 6746 19c2 00       		.sleb128 0
 6747 19c3 1C       		.uleb128 0x1c
 6748 19c4 01       		.uleb128 0x1
 6749 19c5 50       		.byte	0x50
 6750 19c6 01       		.uleb128 0x1
 6751 19c7 30       		.byte	0x30
 6752 19c8 1C       		.uleb128 0x1c
 6753 19c9 01       		.uleb128 0x1
 6754 19ca 51       		.byte	0x51
 6755 19cb 05       		.uleb128 0x5
 6756 19cc 03       		.byte	0x3
 6757 19cd 00000000 		.4byte	.LC1
 6758 19d1 1C       		.uleb128 0x1c
 6759 19d2 01       		.uleb128 0x1
 6760 19d3 52       		.byte	0x52
 6761 19d4 05       		.uleb128 0x5
 6762 19d5 03       		.byte	0x3
 6763 19d6 5C010000 		.4byte	.LANCHOR2+92
 6764 19da 1C       		.uleb128 0x1c
 6765 19db 01       		.uleb128 0x1
 6766 19dc 53       		.byte	0x53
 6767 19dd 03       		.uleb128 0x3
 6768 19de 0A       		.byte	0xa
 6769 19df FA01     		.2byte	0x1fa
 6770 19e1 1C       		.uleb128 0x1c
 6771 19e2 02       		.uleb128 0x2
 6772 19e3 7D       		.byte	0x7d
 6773 19e4 00       		.sleb128 0
 6774 19e5 01       		.uleb128 0x1
ARM GAS  C:\Users\Phuong\AppData\Local\Temp\ccPPbPWA.s 			page 144


 6775 19e6 31       		.byte	0x31
 6776 19e7 1C       		.uleb128 0x1c
 6777 19e8 02       		.uleb128 0x2
 6778 19e9 7D       		.byte	0x7d
 6779 19ea 04       		.sleb128 4
 6780 19eb 05       		.uleb128 0x5
 6781 19ec 03       		.byte	0x3
 6782 19ed 10080000 		.4byte	.LC105
 6783 19f1 00       		.byte	0
 6784 19f2 00       		.byte	0
 6785 19f3 18       		.uleb128 0x18
 6786 19f4 32000000 		.4byte	.LBB49
 6787 19f8 1E000000 		.4byte	.LBE49-.LBB49
 6788 19fc 4F1A0000 		.4byte	0x1a4f
 6789 1a00 24       		.uleb128 0x24
 6790 1a01 6C00     		.ascii	"l\000"
 6791 1a03 01       		.byte	0x1
 6792 1a04 FF01     		.2byte	0x1ff
 6793 1a06 7F030000 		.4byte	0x37f
 6794 1a0a 4D150000 		.4byte	.LLST86
 6795 1a0e 1A       		.uleb128 0x1a
 6796 1a0f 36000000 		.4byte	.LVL333
 6797 1a13 AC220000 		.4byte	0x22ac
 6798 1a17 1B       		.uleb128 0x1b
 6799 1a18 50000000 		.4byte	.LVL336
 6800 1a1c 02       		.uleb128 0x2
 6801 1a1d 74       		.byte	0x74
 6802 1a1e 00       		.sleb128 0
 6803 1a1f 1C       		.uleb128 0x1c
 6804 1a20 01       		.uleb128 0x1
 6805 1a21 50       		.byte	0x50
 6806 1a22 01       		.uleb128 0x1
 6807 1a23 30       		.byte	0x30
 6808 1a24 1C       		.uleb128 0x1c
 6809 1a25 01       		.uleb128 0x1
 6810 1a26 51       		.byte	0x51
 6811 1a27 05       		.uleb128 0x5
 6812 1a28 03       		.byte	0x3
 6813 1a29 00000000 		.4byte	.LC1
 6814 1a2d 1C       		.uleb128 0x1c
 6815 1a2e 01       		.uleb128 0x1
 6816 1a2f 52       		.byte	0x52
 6817 1a30 05       		.uleb128 0x5
 6818 1a31 03       		.byte	0x3
 6819 1a32 5C010000 		.4byte	.LANCHOR2+92
 6820 1a36 1C       		.uleb128 0x1c
 6821 1a37 01       		.uleb128 0x1
 6822 1a38 53       		.byte	0x53
 6823 1a39 03       		.uleb128 0x3
 6824 1a3a 0A       		.byte	0xa
 6825 1a3b FF01     		.2byte	0x1ff
 6826 1a3d 1C       		.uleb128 0x1c
 6827 1a3e 02       		.uleb128 0x2
 6828 1a3f 7D       		.byte	0x7d
 6829 1a40 00       		.sleb128 0
 6830 1a41 01       		.uleb128 0x1
 6831 1a42 31       		.byte	0x31
ARM GAS  C:\Users\Phuong\AppData\Local\Temp\ccPPbPWA.s 			page 145


 6832 1a43 1C       		.uleb128 0x1c
 6833 1a44 02       		.uleb128 0x2
 6834 1a45 7D       		.byte	0x7d
 6835 1a46 04       		.sleb128 4
 6836 1a47 05       		.uleb128 0x5
 6837 1a48 03       		.byte	0x3
 6838 1a49 40080000 		.4byte	.LC107
 6839 1a4d 00       		.byte	0
 6840 1a4e 00       		.byte	0
 6841 1a4f 18       		.uleb128 0x18
 6842 1a50 5A000000 		.4byte	.LBB50
 6843 1a54 1E000000 		.4byte	.LBE50-.LBB50
 6844 1a58 AB1A0000 		.4byte	0x1aab
 6845 1a5c 24       		.uleb128 0x24
 6846 1a5d 6C00     		.ascii	"l\000"
 6847 1a5f 01       		.byte	0x1
 6848 1a60 0502     		.2byte	0x205
 6849 1a62 7F030000 		.4byte	0x37f
 6850 1a66 76150000 		.4byte	.LLST87
 6851 1a6a 1A       		.uleb128 0x1a
 6852 1a6b 5E000000 		.4byte	.LVL340
 6853 1a6f AC220000 		.4byte	0x22ac
 6854 1a73 1B       		.uleb128 0x1b
 6855 1a74 78000000 		.4byte	.LVL343
 6856 1a78 02       		.uleb128 0x2
 6857 1a79 74       		.byte	0x74
 6858 1a7a 00       		.sleb128 0
 6859 1a7b 1C       		.uleb128 0x1c
 6860 1a7c 01       		.uleb128 0x1
 6861 1a7d 50       		.byte	0x50
 6862 1a7e 01       		.uleb128 0x1
 6863 1a7f 30       		.byte	0x30
 6864 1a80 1C       		.uleb128 0x1c
 6865 1a81 01       		.uleb128 0x1
 6866 1a82 51       		.byte	0x51
 6867 1a83 05       		.uleb128 0x5
 6868 1a84 03       		.byte	0x3
 6869 1a85 00000000 		.4byte	.LC1
 6870 1a89 1C       		.uleb128 0x1c
 6871 1a8a 01       		.uleb128 0x1
 6872 1a8b 52       		.byte	0x52
 6873 1a8c 05       		.uleb128 0x5
 6874 1a8d 03       		.byte	0x3
 6875 1a8e 5C010000 		.4byte	.LANCHOR2+92
 6876 1a92 1C       		.uleb128 0x1c
 6877 1a93 01       		.uleb128 0x1
 6878 1a94 53       		.byte	0x53
 6879 1a95 03       		.uleb128 0x3
 6880 1a96 0A       		.byte	0xa
 6881 1a97 0502     		.2byte	0x205
 6882 1a99 1C       		.uleb128 0x1c
 6883 1a9a 02       		.uleb128 0x2
 6884 1a9b 7D       		.byte	0x7d
 6885 1a9c 00       		.sleb128 0
 6886 1a9d 01       		.uleb128 0x1
 6887 1a9e 31       		.byte	0x31
 6888 1a9f 1C       		.uleb128 0x1c
ARM GAS  C:\Users\Phuong\AppData\Local\Temp\ccPPbPWA.s 			page 146


 6889 1aa0 02       		.uleb128 0x2
 6890 1aa1 7D       		.byte	0x7d
 6891 1aa2 04       		.sleb128 4
 6892 1aa3 05       		.uleb128 0x5
 6893 1aa4 03       		.byte	0x3
 6894 1aa5 84080000 		.4byte	.LC109
 6895 1aa9 00       		.byte	0
 6896 1aaa 00       		.byte	0
 6897 1aab 18       		.uleb128 0x18
 6898 1aac 82000000 		.4byte	.LBB51
 6899 1ab0 1C000000 		.4byte	.LBE51-.LBB51
 6900 1ab4 071B0000 		.4byte	0x1b07
 6901 1ab8 24       		.uleb128 0x24
 6902 1ab9 6C00     		.ascii	"l\000"
 6903 1abb 01       		.byte	0x1
 6904 1abc 0B02     		.2byte	0x20b
 6905 1abe 7F030000 		.4byte	0x37f
 6906 1ac2 9F150000 		.4byte	.LLST88
 6907 1ac6 1A       		.uleb128 0x1a
 6908 1ac7 86000000 		.4byte	.LVL347
 6909 1acb AC220000 		.4byte	0x22ac
 6910 1acf 1B       		.uleb128 0x1b
 6911 1ad0 9E000000 		.4byte	.LVL350
 6912 1ad4 02       		.uleb128 0x2
 6913 1ad5 74       		.byte	0x74
 6914 1ad6 00       		.sleb128 0
 6915 1ad7 1C       		.uleb128 0x1c
 6916 1ad8 01       		.uleb128 0x1
 6917 1ad9 50       		.byte	0x50
 6918 1ada 01       		.uleb128 0x1
 6919 1adb 30       		.byte	0x30
 6920 1adc 1C       		.uleb128 0x1c
 6921 1add 01       		.uleb128 0x1
 6922 1ade 51       		.byte	0x51
 6923 1adf 05       		.uleb128 0x5
 6924 1ae0 03       		.byte	0x3
 6925 1ae1 00000000 		.4byte	.LC1
 6926 1ae5 1C       		.uleb128 0x1c
 6927 1ae6 01       		.uleb128 0x1
 6928 1ae7 52       		.byte	0x52
 6929 1ae8 05       		.uleb128 0x5
 6930 1ae9 03       		.byte	0x3
 6931 1aea 5C010000 		.4byte	.LANCHOR2+92
 6932 1aee 1C       		.uleb128 0x1c
 6933 1aef 01       		.uleb128 0x1
 6934 1af0 53       		.byte	0x53
 6935 1af1 03       		.uleb128 0x3
 6936 1af2 0A       		.byte	0xa
 6937 1af3 0B02     		.2byte	0x20b
 6938 1af5 1C       		.uleb128 0x1c
 6939 1af6 02       		.uleb128 0x2
 6940 1af7 7D       		.byte	0x7d
 6941 1af8 00       		.sleb128 0
 6942 1af9 01       		.uleb128 0x1
 6943 1afa 31       		.byte	0x31
 6944 1afb 1C       		.uleb128 0x1c
 6945 1afc 02       		.uleb128 0x2
ARM GAS  C:\Users\Phuong\AppData\Local\Temp\ccPPbPWA.s 			page 147


 6946 1afd 7D       		.byte	0x7d
 6947 1afe 04       		.sleb128 4
 6948 1aff 05       		.uleb128 0x5
 6949 1b00 03       		.byte	0x3
 6950 1b01 C4080000 		.4byte	.LC111
 6951 1b05 00       		.byte	0
 6952 1b06 00       		.byte	0
 6953 1b07 22       		.uleb128 0x22
 6954 1b08 90000000 		.4byte	.Ldebug_ranges0+0x90
 6955 1b0c 25       		.uleb128 0x25
 6956 1b0d B0010000 		.4byte	.LASF90
 6957 1b11 01       		.byte	0x1
 6958 1b12 0F02     		.2byte	0x20f
 6959 1b14 DA040000 		.4byte	0x4da
 6960 1b18 C8150000 		.4byte	.LLST89
 6961 1b1c 18       		.uleb128 0x18
 6962 1b1d AC000000 		.4byte	.LBB53
 6963 1b21 1C000000 		.4byte	.LBE53-.LBB53
 6964 1b25 781B0000 		.4byte	0x1b78
 6965 1b29 24       		.uleb128 0x24
 6966 1b2a 6C00     		.ascii	"l\000"
 6967 1b2c 01       		.byte	0x1
 6968 1b2d 1602     		.2byte	0x216
 6969 1b2f 7F030000 		.4byte	0x37f
 6970 1b33 07160000 		.4byte	.LLST90
 6971 1b37 1A       		.uleb128 0x1a
 6972 1b38 B0000000 		.4byte	.LVL357
 6973 1b3c AC220000 		.4byte	0x22ac
 6974 1b40 1B       		.uleb128 0x1b
 6975 1b41 C8000000 		.4byte	.LVL360
 6976 1b45 02       		.uleb128 0x2
 6977 1b46 74       		.byte	0x74
 6978 1b47 00       		.sleb128 0
 6979 1b48 1C       		.uleb128 0x1c
 6980 1b49 01       		.uleb128 0x1
 6981 1b4a 50       		.byte	0x50
 6982 1b4b 01       		.uleb128 0x1
 6983 1b4c 30       		.byte	0x30
 6984 1b4d 1C       		.uleb128 0x1c
 6985 1b4e 01       		.uleb128 0x1
 6986 1b4f 51       		.byte	0x51
 6987 1b50 05       		.uleb128 0x5
 6988 1b51 03       		.byte	0x3
 6989 1b52 00000000 		.4byte	.LC1
 6990 1b56 1C       		.uleb128 0x1c
 6991 1b57 01       		.uleb128 0x1
 6992 1b58 52       		.byte	0x52
 6993 1b59 05       		.uleb128 0x5
 6994 1b5a 03       		.byte	0x3
 6995 1b5b 5C010000 		.4byte	.LANCHOR2+92
 6996 1b5f 1C       		.uleb128 0x1c
 6997 1b60 01       		.uleb128 0x1
 6998 1b61 53       		.byte	0x53
 6999 1b62 03       		.uleb128 0x3
 7000 1b63 0A       		.byte	0xa
 7001 1b64 1602     		.2byte	0x216
 7002 1b66 1C       		.uleb128 0x1c
ARM GAS  C:\Users\Phuong\AppData\Local\Temp\ccPPbPWA.s 			page 148


 7003 1b67 02       		.uleb128 0x2
 7004 1b68 7D       		.byte	0x7d
 7005 1b69 00       		.sleb128 0
 7006 1b6a 01       		.uleb128 0x1
 7007 1b6b 31       		.byte	0x31
 7008 1b6c 1C       		.uleb128 0x1c
 7009 1b6d 02       		.uleb128 0x2
 7010 1b6e 7D       		.byte	0x7d
 7011 1b6f 04       		.sleb128 4
 7012 1b70 05       		.uleb128 0x5
 7013 1b71 03       		.byte	0x3
 7014 1b72 10090000 		.4byte	.LC113
 7015 1b76 00       		.byte	0
 7016 1b77 00       		.byte	0
 7017 1b78 18       		.uleb128 0x18
 7018 1b79 E0000000 		.4byte	.LBB54
 7019 1b7d 1C000000 		.4byte	.LBE54-.LBB54
 7020 1b81 D41B0000 		.4byte	0x1bd4
 7021 1b85 24       		.uleb128 0x24
 7022 1b86 6C00     		.ascii	"l\000"
 7023 1b88 01       		.byte	0x1
 7024 1b89 2202     		.2byte	0x222
 7025 1b8b 7F030000 		.4byte	0x37f
 7026 1b8f 30160000 		.4byte	.LLST91
 7027 1b93 1A       		.uleb128 0x1a
 7028 1b94 E4000000 		.4byte	.LVL366
 7029 1b98 AC220000 		.4byte	0x22ac
 7030 1b9c 1B       		.uleb128 0x1b
 7031 1b9d FC000000 		.4byte	.LVL369
 7032 1ba1 02       		.uleb128 0x2
 7033 1ba2 74       		.byte	0x74
 7034 1ba3 00       		.sleb128 0
 7035 1ba4 1C       		.uleb128 0x1c
 7036 1ba5 01       		.uleb128 0x1
 7037 1ba6 50       		.byte	0x50
 7038 1ba7 01       		.uleb128 0x1
 7039 1ba8 30       		.byte	0x30
 7040 1ba9 1C       		.uleb128 0x1c
 7041 1baa 01       		.uleb128 0x1
 7042 1bab 51       		.byte	0x51
 7043 1bac 05       		.uleb128 0x5
 7044 1bad 03       		.byte	0x3
 7045 1bae 00000000 		.4byte	.LC1
 7046 1bb2 1C       		.uleb128 0x1c
 7047 1bb3 01       		.uleb128 0x1
 7048 1bb4 52       		.byte	0x52
 7049 1bb5 05       		.uleb128 0x5
 7050 1bb6 03       		.byte	0x3
 7051 1bb7 5C010000 		.4byte	.LANCHOR2+92
 7052 1bbb 1C       		.uleb128 0x1c
 7053 1bbc 01       		.uleb128 0x1
 7054 1bbd 53       		.byte	0x53
 7055 1bbe 03       		.uleb128 0x3
 7056 1bbf 0A       		.byte	0xa
 7057 1bc0 2202     		.2byte	0x222
 7058 1bc2 1C       		.uleb128 0x1c
 7059 1bc3 02       		.uleb128 0x2
ARM GAS  C:\Users\Phuong\AppData\Local\Temp\ccPPbPWA.s 			page 149


 7060 1bc4 7D       		.byte	0x7d
 7061 1bc5 00       		.sleb128 0
 7062 1bc6 01       		.uleb128 0x1
 7063 1bc7 31       		.byte	0x31
 7064 1bc8 1C       		.uleb128 0x1c
 7065 1bc9 02       		.uleb128 0x2
 7066 1bca 7D       		.byte	0x7d
 7067 1bcb 04       		.sleb128 4
 7068 1bcc 05       		.uleb128 0x5
 7069 1bcd 03       		.byte	0x3
 7070 1bce 40090000 		.4byte	.LC115
 7071 1bd2 00       		.byte	0
 7072 1bd3 00       		.byte	0
 7073 1bd4 18       		.uleb128 0x18
 7074 1bd5 0C010000 		.4byte	.LBB55
 7075 1bd9 1C000000 		.4byte	.LBE55-.LBB55
 7076 1bdd 301C0000 		.4byte	0x1c30
 7077 1be1 24       		.uleb128 0x24
 7078 1be2 6C00     		.ascii	"l\000"
 7079 1be4 01       		.byte	0x1
 7080 1be5 2902     		.2byte	0x229
 7081 1be7 7F030000 		.4byte	0x37f
 7082 1beb 59160000 		.4byte	.LLST92
 7083 1bef 1A       		.uleb128 0x1a
 7084 1bf0 10010000 		.4byte	.LVL374
 7085 1bf4 AC220000 		.4byte	0x22ac
 7086 1bf8 1B       		.uleb128 0x1b
 7087 1bf9 28010000 		.4byte	.LVL377
 7088 1bfd 02       		.uleb128 0x2
 7089 1bfe 74       		.byte	0x74
 7090 1bff 00       		.sleb128 0
 7091 1c00 1C       		.uleb128 0x1c
 7092 1c01 01       		.uleb128 0x1
 7093 1c02 50       		.byte	0x50
 7094 1c03 01       		.uleb128 0x1
 7095 1c04 30       		.byte	0x30
 7096 1c05 1C       		.uleb128 0x1c
 7097 1c06 01       		.uleb128 0x1
 7098 1c07 51       		.byte	0x51
 7099 1c08 05       		.uleb128 0x5
 7100 1c09 03       		.byte	0x3
 7101 1c0a 00000000 		.4byte	.LC1
 7102 1c0e 1C       		.uleb128 0x1c
 7103 1c0f 01       		.uleb128 0x1
 7104 1c10 52       		.byte	0x52
 7105 1c11 05       		.uleb128 0x5
 7106 1c12 03       		.byte	0x3
 7107 1c13 5C010000 		.4byte	.LANCHOR2+92
 7108 1c17 1C       		.uleb128 0x1c
 7109 1c18 01       		.uleb128 0x1
 7110 1c19 53       		.byte	0x53
 7111 1c1a 03       		.uleb128 0x3
 7112 1c1b 0A       		.byte	0xa
 7113 1c1c 2902     		.2byte	0x229
 7114 1c1e 1C       		.uleb128 0x1c
 7115 1c1f 02       		.uleb128 0x2
 7116 1c20 7D       		.byte	0x7d
ARM GAS  C:\Users\Phuong\AppData\Local\Temp\ccPPbPWA.s 			page 150


 7117 1c21 00       		.sleb128 0
 7118 1c22 01       		.uleb128 0x1
 7119 1c23 31       		.byte	0x31
 7120 1c24 1C       		.uleb128 0x1c
 7121 1c25 02       		.uleb128 0x2
 7122 1c26 7D       		.byte	0x7d
 7123 1c27 04       		.sleb128 4
 7124 1c28 05       		.uleb128 0x5
 7125 1c29 03       		.byte	0x3
 7126 1c2a A0090000 		.4byte	.LC117
 7127 1c2e 00       		.byte	0
 7128 1c2f 00       		.byte	0
 7129 1c30 1D       		.uleb128 0x1d
 7130 1c31 A8000000 		.4byte	.LVL354
 7131 1c35 46230000 		.4byte	0x2346
 7132 1c39 441C0000 		.4byte	0x1c44
 7133 1c3d 1C       		.uleb128 0x1c
 7134 1c3e 01       		.uleb128 0x1
 7135 1c3f 50       		.byte	0x50
 7136 1c40 02       		.uleb128 0x2
 7137 1c41 08       		.byte	0x8
 7138 1c42 3C       		.byte	0x3c
 7139 1c43 00       		.byte	0
 7140 1c44 1D       		.uleb128 0x1d
 7141 1c45 D4000000 		.4byte	.LVL363
 7142 1c49 51230000 		.4byte	0x2351
 7143 1c4d 5D1C0000 		.4byte	0x1c5d
 7144 1c51 1C       		.uleb128 0x1c
 7145 1c52 01       		.uleb128 0x1
 7146 1c53 51       		.byte	0x51
 7147 1c54 01       		.uleb128 0x1
 7148 1c55 30       		.byte	0x30
 7149 1c56 1C       		.uleb128 0x1c
 7150 1c57 01       		.uleb128 0x1
 7151 1c58 52       		.byte	0x52
 7152 1c59 02       		.uleb128 0x2
 7153 1c5a 08       		.byte	0x8
 7154 1c5b 3C       		.byte	0x3c
 7155 1c5c 00       		.byte	0
 7156 1c5d 1A       		.uleb128 0x1a
 7157 1c5e DA000000 		.4byte	.LVL364
 7158 1c62 5A230000 		.4byte	0x235a
 7159 1c66 1A       		.uleb128 0x1a
 7160 1c67 06010000 		.4byte	.LVL372
 7161 1c6b 65230000 		.4byte	0x2365
 7162 1c6f 1A       		.uleb128 0x1a
 7163 1c70 38010000 		.4byte	.LVL380
 7164 1c74 70230000 		.4byte	0x2370
 7165 1c78 1E       		.uleb128 0x1e
 7166 1c79 74010000 		.4byte	.LVL386
 7167 1c7d 60180000 		.4byte	0x1860
 7168 1c81 1C       		.uleb128 0x1c
 7169 1c82 01       		.uleb128 0x1
 7170 1c83 50       		.byte	0x50
 7171 1c84 02       		.uleb128 0x2
 7172 1c85 75       		.byte	0x75
 7173 1c86 00       		.sleb128 0
ARM GAS  C:\Users\Phuong\AppData\Local\Temp\ccPPbPWA.s 			page 151


 7174 1c87 00       		.byte	0
 7175 1c88 00       		.byte	0
 7176 1c89 00       		.byte	0
 7177 1c8a 06       		.uleb128 0x6
 7178 1c8b 04       		.byte	0x4
 7179 1c8c 901C0000 		.4byte	0x1c90
 7180 1c90 07       		.uleb128 0x7
 7181 1c91 30030000 		.4byte	0x330
 7182 1c95 1F       		.uleb128 0x1f
 7183 1c96 A4000000 		.4byte	0xa4
 7184 1c9a A51C0000 		.4byte	0x1ca5
 7185 1c9e 20       		.uleb128 0x20
 7186 1c9f 88000000 		.4byte	0x88
 7187 1ca3 15       		.byte	0x15
 7188 1ca4 00       		.byte	0
 7189 1ca5 07       		.uleb128 0x7
 7190 1ca6 951C0000 		.4byte	0x1c95
 7191 1caa 2B       		.uleb128 0x2b
 7192 1cab 8C010000 		.4byte	.LASF128
 7193 1caf 01       		.byte	0x1
 7194 1cb0 5102     		.2byte	0x251
 7195 1cb2 00000000 		.4byte	.LFB15
 7196 1cb6 58010000 		.4byte	.LFE15-.LFB15
 7197 1cba 01       		.uleb128 0x1
 7198 1cbb 9C       		.byte	0x9c
 7199 1cbc 451F0000 		.4byte	0x1f45
 7200 1cc0 28       		.uleb128 0x28
 7201 1cc1 5D070000 		.4byte	.LASF120
 7202 1cc5 01       		.byte	0x1
 7203 1cc6 5102     		.2byte	0x251
 7204 1cc8 3B030000 		.4byte	0x33b
 7205 1ccc 82160000 		.4byte	.LLST93
 7206 1cd0 17       		.uleb128 0x17
 7207 1cd1 D0090000 		.4byte	.LASF103
 7208 1cd5 451F0000 		.4byte	0x1f45
 7209 1cd9 05       		.uleb128 0x5
 7210 1cda 03       		.byte	0x3
 7211 1cdb 74010000 		.4byte	__func__.8147
 7212 1cdf 18       		.uleb128 0x18
 7213 1ce0 08000000 		.4byte	.LBB57
 7214 1ce4 20000000 		.4byte	.LBE57-.LBB57
 7215 1ce8 3B1D0000 		.4byte	0x1d3b
 7216 1cec 24       		.uleb128 0x24
 7217 1ced 6C00     		.ascii	"l\000"
 7218 1cef 01       		.byte	0x1
 7219 1cf0 5602     		.2byte	0x256
 7220 1cf2 7F030000 		.4byte	0x37f
 7221 1cf6 FE160000 		.4byte	.LLST94
 7222 1cfa 1A       		.uleb128 0x1a
 7223 1cfb 0C000000 		.4byte	.LVL395
 7224 1cff AC220000 		.4byte	0x22ac
 7225 1d03 1B       		.uleb128 0x1b
 7226 1d04 26000000 		.4byte	.LVL398
 7227 1d08 02       		.uleb128 0x2
 7228 1d09 74       		.byte	0x74
 7229 1d0a 00       		.sleb128 0
 7230 1d0b 1C       		.uleb128 0x1c
ARM GAS  C:\Users\Phuong\AppData\Local\Temp\ccPPbPWA.s 			page 152


 7231 1d0c 01       		.uleb128 0x1
 7232 1d0d 50       		.byte	0x50
 7233 1d0e 01       		.uleb128 0x1
 7234 1d0f 30       		.byte	0x30
 7235 1d10 1C       		.uleb128 0x1c
 7236 1d11 01       		.uleb128 0x1
 7237 1d12 51       		.byte	0x51
 7238 1d13 05       		.uleb128 0x5
 7239 1d14 03       		.byte	0x3
 7240 1d15 00000000 		.4byte	.LC1
 7241 1d19 1C       		.uleb128 0x1c
 7242 1d1a 01       		.uleb128 0x1
 7243 1d1b 52       		.byte	0x52
 7244 1d1c 05       		.uleb128 0x5
 7245 1d1d 03       		.byte	0x3
 7246 1d1e 74010000 		.4byte	.LANCHOR2+116
 7247 1d22 1C       		.uleb128 0x1c
 7248 1d23 01       		.uleb128 0x1
 7249 1d24 53       		.byte	0x53
 7250 1d25 03       		.uleb128 0x3
 7251 1d26 0A       		.byte	0xa
 7252 1d27 5602     		.2byte	0x256
 7253 1d29 1C       		.uleb128 0x1c
 7254 1d2a 02       		.uleb128 0x2
 7255 1d2b 7D       		.byte	0x7d
 7256 1d2c 00       		.sleb128 0
 7257 1d2d 01       		.uleb128 0x1
 7258 1d2e 31       		.byte	0x31
 7259 1d2f 1C       		.uleb128 0x1c
 7260 1d30 02       		.uleb128 0x2
 7261 1d31 7D       		.byte	0x7d
 7262 1d32 04       		.sleb128 4
 7263 1d33 05       		.uleb128 0x5
 7264 1d34 03       		.byte	0x3
 7265 1d35 080A0000 		.4byte	.LC121
 7266 1d39 00       		.byte	0
 7267 1d3a 00       		.byte	0
 7268 1d3b 14       		.uleb128 0x14
 7269 1d3c 28000000 		.4byte	.LBB58
 7270 1d40 0E010000 		.4byte	.LBE58-.LBB58
 7271 1d44 25       		.uleb128 0x25
 7272 1d45 B0010000 		.4byte	.LASF90
 7273 1d49 01       		.byte	0x1
 7274 1d4a 5A02     		.2byte	0x25a
 7275 1d4c DA040000 		.4byte	0x4da
 7276 1d50 1C170000 		.4byte	.LLST95
 7277 1d54 18       		.uleb128 0x18
 7278 1d55 30000000 		.4byte	.LBB59
 7279 1d59 46000000 		.4byte	.LBE59-.LBB59
 7280 1d5d D21D0000 		.4byte	0x1dd2
 7281 1d61 2C       		.uleb128 0x2c
 7282 1d62 00040000 		.4byte	.LASF101
 7283 1d66 01       		.byte	0x1
 7284 1d67 6102     		.2byte	0x261
 7285 1d69 C3010000 		.4byte	0x1c3
 7286 1d6d 02       		.uleb128 0x2
 7287 1d6e 91       		.byte	0x91
ARM GAS  C:\Users\Phuong\AppData\Local\Temp\ccPPbPWA.s 			page 153


 7288 1d6f 6F       		.sleb128 -17
 7289 1d70 1D       		.uleb128 0x1d
 7290 1d71 38000000 		.4byte	.LVL400
 7291 1d75 5C060000 		.4byte	0x65c
 7292 1d79 8A1D0000 		.4byte	0x1d8a
 7293 1d7d 1C       		.uleb128 0x1c
 7294 1d7e 01       		.uleb128 0x1
 7295 1d7f 50       		.byte	0x50
 7296 1d80 02       		.uleb128 0x2
 7297 1d81 74       		.byte	0x74
 7298 1d82 00       		.sleb128 0
 7299 1d83 1C       		.uleb128 0x1c
 7300 1d84 01       		.uleb128 0x1
 7301 1d85 51       		.byte	0x51
 7302 1d86 02       		.uleb128 0x2
 7303 1d87 91       		.byte	0x91
 7304 1d88 6F       		.sleb128 -17
 7305 1d89 00       		.byte	0
 7306 1d8a 1D       		.uleb128 0x1d
 7307 1d8b 54000000 		.4byte	.LVL401
 7308 1d8f 8D040000 		.4byte	0x48d
 7309 1d93 A31D0000 		.4byte	0x1da3
 7310 1d97 1C       		.uleb128 0x1c
 7311 1d98 01       		.uleb128 0x1
 7312 1d99 50       		.byte	0x50
 7313 1d9a 02       		.uleb128 0x2
 7314 1d9b 74       		.byte	0x74
 7315 1d9c 00       		.sleb128 0
 7316 1d9d 1C       		.uleb128 0x1c
 7317 1d9e 01       		.uleb128 0x1
 7318 1d9f 51       		.byte	0x51
 7319 1da0 01       		.uleb128 0x1
 7320 1da1 33       		.byte	0x33
 7321 1da2 00       		.byte	0
 7322 1da3 1D       		.uleb128 0x1d
 7323 1da4 64000000 		.4byte	.LVL402
 7324 1da8 E0040000 		.4byte	0x4e0
 7325 1dac BC1D0000 		.4byte	0x1dbc
 7326 1db0 1C       		.uleb128 0x1c
 7327 1db1 01       		.uleb128 0x1
 7328 1db2 50       		.byte	0x50
 7329 1db3 02       		.uleb128 0x2
 7330 1db4 74       		.byte	0x74
 7331 1db5 00       		.sleb128 0
 7332 1db6 1C       		.uleb128 0x1c
 7333 1db7 01       		.uleb128 0x1
 7334 1db8 51       		.byte	0x51
 7335 1db9 01       		.uleb128 0x1
 7336 1dba 32       		.byte	0x32
 7337 1dbb 00       		.byte	0
 7338 1dbc 1E       		.uleb128 0x1e
 7339 1dbd 6E000000 		.4byte	.LVL403
 7340 1dc1 E0040000 		.4byte	0x4e0
 7341 1dc5 1C       		.uleb128 0x1c
 7342 1dc6 01       		.uleb128 0x1
 7343 1dc7 50       		.byte	0x50
 7344 1dc8 02       		.uleb128 0x2
ARM GAS  C:\Users\Phuong\AppData\Local\Temp\ccPPbPWA.s 			page 154


 7345 1dc9 74       		.byte	0x74
 7346 1dca 00       		.sleb128 0
 7347 1dcb 1C       		.uleb128 0x1c
 7348 1dcc 01       		.uleb128 0x1
 7349 1dcd 51       		.byte	0x51
 7350 1dce 01       		.uleb128 0x1
 7351 1dcf 30       		.byte	0x30
 7352 1dd0 00       		.byte	0
 7353 1dd1 00       		.byte	0
 7354 1dd2 18       		.uleb128 0x18
 7355 1dd3 88000000 		.4byte	.LBB60
 7356 1dd7 6A000000 		.4byte	.LBE60-.LBB60
 7357 1ddb A71E0000 		.4byte	0x1ea7
 7358 1ddf 2C       		.uleb128 0x2c
 7359 1de0 00040000 		.4byte	.LASF101
 7360 1de4 01       		.byte	0x1
 7361 1de5 8102     		.2byte	0x281
 7362 1de7 C3010000 		.4byte	0x1c3
 7363 1deb 02       		.uleb128 0x2
 7364 1dec 91       		.byte	0x91
 7365 1ded 6F       		.sleb128 -17
 7366 1dee 18       		.uleb128 0x18
 7367 1def B0000000 		.4byte	.LBB61
 7368 1df3 22000000 		.4byte	.LBE61-.LBB61
 7369 1df7 4A1E0000 		.4byte	0x1e4a
 7370 1dfb 24       		.uleb128 0x24
 7371 1dfc 6C00     		.ascii	"l\000"
 7372 1dfe 01       		.byte	0x1
 7373 1dff 8C02     		.2byte	0x28c
 7374 1e01 7F030000 		.4byte	0x37f
 7375 1e05 66170000 		.4byte	.LLST96
 7376 1e09 1A       		.uleb128 0x1a
 7377 1e0a B4000000 		.4byte	.LVL409
 7378 1e0e AC220000 		.4byte	0x22ac
 7379 1e12 1B       		.uleb128 0x1b
 7380 1e13 D2000000 		.4byte	.LVL412
 7381 1e17 02       		.uleb128 0x2
 7382 1e18 75       		.byte	0x75
 7383 1e19 00       		.sleb128 0
 7384 1e1a 1C       		.uleb128 0x1c
 7385 1e1b 01       		.uleb128 0x1
 7386 1e1c 50       		.byte	0x50
 7387 1e1d 01       		.uleb128 0x1
 7388 1e1e 30       		.byte	0x30
 7389 1e1f 1C       		.uleb128 0x1c
 7390 1e20 01       		.uleb128 0x1
 7391 1e21 51       		.byte	0x51
 7392 1e22 05       		.uleb128 0x5
 7393 1e23 03       		.byte	0x3
 7394 1e24 00000000 		.4byte	.LC1
 7395 1e28 1C       		.uleb128 0x1c
 7396 1e29 01       		.uleb128 0x1
 7397 1e2a 52       		.byte	0x52
 7398 1e2b 05       		.uleb128 0x5
 7399 1e2c 03       		.byte	0x3
 7400 1e2d 74010000 		.4byte	.LANCHOR2+116
 7401 1e31 1C       		.uleb128 0x1c
ARM GAS  C:\Users\Phuong\AppData\Local\Temp\ccPPbPWA.s 			page 155


 7402 1e32 01       		.uleb128 0x1
 7403 1e33 53       		.byte	0x53
 7404 1e34 03       		.uleb128 0x3
 7405 1e35 0A       		.byte	0xa
 7406 1e36 8C02     		.2byte	0x28c
 7407 1e38 1C       		.uleb128 0x1c
 7408 1e39 02       		.uleb128 0x2
 7409 1e3a 7D       		.byte	0x7d
 7410 1e3b 00       		.sleb128 0
 7411 1e3c 01       		.uleb128 0x1
 7412 1e3d 31       		.byte	0x31
 7413 1e3e 1C       		.uleb128 0x1c
 7414 1e3f 02       		.uleb128 0x2
 7415 1e40 7D       		.byte	0x7d
 7416 1e41 04       		.sleb128 4
 7417 1e42 05       		.uleb128 0x5
 7418 1e43 03       		.byte	0x3
 7419 1e44 480A0000 		.4byte	.LC123
 7420 1e48 00       		.byte	0
 7421 1e49 00       		.byte	0
 7422 1e4a 1D       		.uleb128 0x1d
 7423 1e4b 92000000 		.4byte	.LVL407
 7424 1e4f B2070000 		.4byte	0x7b2
 7425 1e53 641E0000 		.4byte	0x1e64
 7426 1e57 1C       		.uleb128 0x1c
 7427 1e58 01       		.uleb128 0x1
 7428 1e59 50       		.byte	0x50
 7429 1e5a 02       		.uleb128 0x2
 7430 1e5b 74       		.byte	0x74
 7431 1e5c 00       		.sleb128 0
 7432 1e5d 1C       		.uleb128 0x1c
 7433 1e5e 01       		.uleb128 0x1
 7434 1e5f 51       		.byte	0x51
 7435 1e60 02       		.uleb128 0x2
 7436 1e61 91       		.byte	0x91
 7437 1e62 6F       		.sleb128 -17
 7438 1e63 00       		.byte	0
 7439 1e64 1D       		.uleb128 0x1d
 7440 1e65 AC000000 		.4byte	.LVL408
 7441 1e69 320C0000 		.4byte	0xc32
 7442 1e6d 781E0000 		.4byte	0x1e78
 7443 1e71 1C       		.uleb128 0x1c
 7444 1e72 01       		.uleb128 0x1
 7445 1e73 50       		.byte	0x50
 7446 1e74 02       		.uleb128 0x2
 7447 1e75 74       		.byte	0x74
 7448 1e76 00       		.sleb128 0
 7449 1e77 00       		.byte	0
 7450 1e78 1D       		.uleb128 0x1d
 7451 1e79 E8000000 		.4byte	.LVL413
 7452 1e7d 8D040000 		.4byte	0x48d
 7453 1e81 911E0000 		.4byte	0x1e91
 7454 1e85 1C       		.uleb128 0x1c
 7455 1e86 01       		.uleb128 0x1
 7456 1e87 50       		.byte	0x50
 7457 1e88 02       		.uleb128 0x2
 7458 1e89 74       		.byte	0x74
ARM GAS  C:\Users\Phuong\AppData\Local\Temp\ccPPbPWA.s 			page 156


 7459 1e8a 00       		.sleb128 0
 7460 1e8b 1C       		.uleb128 0x1c
 7461 1e8c 01       		.uleb128 0x1
 7462 1e8d 51       		.byte	0x51
 7463 1e8e 01       		.uleb128 0x1
 7464 1e8f 33       		.byte	0x33
 7465 1e90 00       		.byte	0
 7466 1e91 1E       		.uleb128 0x1e
 7467 1e92 F0000000 		.4byte	.LVL414
 7468 1e96 E0040000 		.4byte	0x4e0
 7469 1e9a 1C       		.uleb128 0x1c
 7470 1e9b 01       		.uleb128 0x1
 7471 1e9c 50       		.byte	0x50
 7472 1e9d 02       		.uleb128 0x2
 7473 1e9e 74       		.byte	0x74
 7474 1e9f 00       		.sleb128 0
 7475 1ea0 1C       		.uleb128 0x1c
 7476 1ea1 01       		.uleb128 0x1
 7477 1ea2 51       		.byte	0x51
 7478 1ea3 01       		.uleb128 0x1
 7479 1ea4 33       		.byte	0x33
 7480 1ea5 00       		.byte	0
 7481 1ea6 00       		.byte	0
 7482 1ea7 18       		.uleb128 0x18
 7483 1ea8 FE000000 		.4byte	.LBB62
 7484 1eac 20000000 		.4byte	.LBE62-.LBB62
 7485 1eb0 031F0000 		.4byte	0x1f03
 7486 1eb4 24       		.uleb128 0x24
 7487 1eb5 6C00     		.ascii	"l\000"
 7488 1eb7 01       		.byte	0x1
 7489 1eb8 A102     		.2byte	0x2a1
 7490 1eba 7F030000 		.4byte	0x37f
 7491 1ebe 84170000 		.4byte	.LLST97
 7492 1ec2 1A       		.uleb128 0x1a
 7493 1ec3 02010000 		.4byte	.LVL417
 7494 1ec7 AC220000 		.4byte	0x22ac
 7495 1ecb 1B       		.uleb128 0x1b
 7496 1ecc 1E010000 		.4byte	.LVL420
 7497 1ed0 02       		.uleb128 0x2
 7498 1ed1 75       		.byte	0x75
 7499 1ed2 00       		.sleb128 0
 7500 1ed3 1C       		.uleb128 0x1c
 7501 1ed4 01       		.uleb128 0x1
 7502 1ed5 50       		.byte	0x50
 7503 1ed6 01       		.uleb128 0x1
 7504 1ed7 30       		.byte	0x30
 7505 1ed8 1C       		.uleb128 0x1c
 7506 1ed9 01       		.uleb128 0x1
 7507 1eda 51       		.byte	0x51
 7508 1edb 05       		.uleb128 0x5
 7509 1edc 03       		.byte	0x3
 7510 1edd 00000000 		.4byte	.LC1
 7511 1ee1 1C       		.uleb128 0x1c
 7512 1ee2 01       		.uleb128 0x1
 7513 1ee3 52       		.byte	0x52
 7514 1ee4 05       		.uleb128 0x5
 7515 1ee5 03       		.byte	0x3
ARM GAS  C:\Users\Phuong\AppData\Local\Temp\ccPPbPWA.s 			page 157


 7516 1ee6 74010000 		.4byte	.LANCHOR2+116
 7517 1eea 1C       		.uleb128 0x1c
 7518 1eeb 01       		.uleb128 0x1
 7519 1eec 53       		.byte	0x53
 7520 1eed 03       		.uleb128 0x3
 7521 1eee 0A       		.byte	0xa
 7522 1eef A102     		.2byte	0x2a1
 7523 1ef1 1C       		.uleb128 0x1c
 7524 1ef2 02       		.uleb128 0x2
 7525 1ef3 7D       		.byte	0x7d
 7526 1ef4 00       		.sleb128 0
 7527 1ef5 01       		.uleb128 0x1
 7528 1ef6 31       		.byte	0x31
 7529 1ef7 1C       		.uleb128 0x1c
 7530 1ef8 02       		.uleb128 0x2
 7531 1ef9 7D       		.byte	0x7d
 7532 1efa 04       		.sleb128 4
 7533 1efb 05       		.uleb128 0x5
 7534 1efc 03       		.byte	0x3
 7535 1efd 680A0000 		.4byte	.LC125
 7536 1f01 00       		.byte	0
 7537 1f02 00       		.byte	0
 7538 1f03 1A       		.uleb128 0x1a
 7539 1f04 84000000 		.4byte	.LVL406
 7540 1f08 04230000 		.4byte	0x2304
 7541 1f0c 1A       		.uleb128 0x1a
 7542 1f0d FA000000 		.4byte	.LVL416
 7543 1f11 320C0000 		.4byte	0xc32
 7544 1f15 1D       		.uleb128 0x1d
 7545 1f16 2E010000 		.4byte	.LVL421
 7546 1f1a 8D040000 		.4byte	0x48d
 7547 1f1e 2E1F0000 		.4byte	0x1f2e
 7548 1f22 1C       		.uleb128 0x1c
 7549 1f23 01       		.uleb128 0x1
 7550 1f24 50       		.byte	0x50
 7551 1f25 02       		.uleb128 0x2
 7552 1f26 74       		.byte	0x74
 7553 1f27 00       		.sleb128 0
 7554 1f28 1C       		.uleb128 0x1c
 7555 1f29 01       		.uleb128 0x1
 7556 1f2a 51       		.byte	0x51
 7557 1f2b 01       		.uleb128 0x1
 7558 1f2c 33       		.byte	0x33
 7559 1f2d 00       		.byte	0
 7560 1f2e 1E       		.uleb128 0x1e
 7561 1f2f 36010000 		.4byte	.LVL422
 7562 1f33 E0040000 		.4byte	0x4e0
 7563 1f37 1C       		.uleb128 0x1c
 7564 1f38 01       		.uleb128 0x1
 7565 1f39 50       		.byte	0x50
 7566 1f3a 02       		.uleb128 0x2
 7567 1f3b 74       		.byte	0x74
 7568 1f3c 00       		.sleb128 0
 7569 1f3d 1C       		.uleb128 0x1c
 7570 1f3e 01       		.uleb128 0x1
 7571 1f3f 51       		.byte	0x51
 7572 1f40 01       		.uleb128 0x1
ARM GAS  C:\Users\Phuong\AppData\Local\Temp\ccPPbPWA.s 			page 158


 7573 1f41 31       		.byte	0x31
 7574 1f42 00       		.byte	0
 7575 1f43 00       		.byte	0
 7576 1f44 00       		.byte	0
 7577 1f45 07       		.uleb128 0x7
 7578 1f46 39190000 		.4byte	0x1939
 7579 1f4a 29       		.uleb128 0x29
 7580 1f4b B6070000 		.4byte	.LASF129
 7581 1f4f 01       		.byte	0x1
 7582 1f50 F202     		.2byte	0x2f2
 7583 1f52 DE000000 		.4byte	0xde
 7584 1f56 00000000 		.4byte	.LFB17
 7585 1f5a 54010000 		.4byte	.LFE17-.LFB17
 7586 1f5e 01       		.uleb128 0x1
 7587 1f5f 9C       		.byte	0x9c
 7588 1f60 4A220000 		.4byte	0x224a
 7589 1f64 28       		.uleb128 0x28
 7590 1f65 5D070000 		.4byte	.LASF120
 7591 1f69 01       		.byte	0x1
 7592 1f6a F202     		.2byte	0x2f2
 7593 1f6c 3B030000 		.4byte	0x33b
 7594 1f70 A2170000 		.4byte	.LLST98
 7595 1f74 25       		.uleb128 0x25
 7596 1f75 410E0000 		.4byte	.LASF102
 7597 1f79 01       		.byte	0x1
 7598 1f7a F402     		.2byte	0x2f4
 7599 1f7c DE000000 		.4byte	0xde
 7600 1f80 56180000 		.4byte	.LLST99
 7601 1f84 17       		.uleb128 0x17
 7602 1f85 D0090000 		.4byte	.LASF103
 7603 1f89 4A220000 		.4byte	0x224a
 7604 1f8d 05       		.uleb128 0x5
 7605 1f8e 03       		.byte	0x3
 7606 1f8f 8C010000 		.4byte	__func__.8181
 7607 1f93 18       		.uleb128 0x18
 7608 1f94 08000000 		.4byte	.LBB63
 7609 1f98 1E000000 		.4byte	.LBE63-.LBB63
 7610 1f9c EF1F0000 		.4byte	0x1fef
 7611 1fa0 24       		.uleb128 0x24
 7612 1fa1 6C00     		.ascii	"l\000"
 7613 1fa3 01       		.byte	0x1
 7614 1fa4 F902     		.2byte	0x2f9
 7615 1fa6 7F030000 		.4byte	0x37f
 7616 1faa 7F180000 		.4byte	.LLST100
 7617 1fae 1A       		.uleb128 0x1a
 7618 1faf 0C000000 		.4byte	.LVL424
 7619 1fb3 AC220000 		.4byte	0x22ac
 7620 1fb7 1B       		.uleb128 0x1b
 7621 1fb8 26000000 		.4byte	.LVL427
 7622 1fbc 02       		.uleb128 0x2
 7623 1fbd 74       		.byte	0x74
 7624 1fbe 00       		.sleb128 0
 7625 1fbf 1C       		.uleb128 0x1c
 7626 1fc0 01       		.uleb128 0x1
 7627 1fc1 50       		.byte	0x50
 7628 1fc2 01       		.uleb128 0x1
 7629 1fc3 30       		.byte	0x30
ARM GAS  C:\Users\Phuong\AppData\Local\Temp\ccPPbPWA.s 			page 159


 7630 1fc4 1C       		.uleb128 0x1c
 7631 1fc5 01       		.uleb128 0x1
 7632 1fc6 51       		.byte	0x51
 7633 1fc7 05       		.uleb128 0x5
 7634 1fc8 03       		.byte	0x3
 7635 1fc9 00000000 		.4byte	.LC1
 7636 1fcd 1C       		.uleb128 0x1c
 7637 1fce 01       		.uleb128 0x1
 7638 1fcf 52       		.byte	0x52
 7639 1fd0 05       		.uleb128 0x5
 7640 1fd1 03       		.byte	0x3
 7641 1fd2 8C010000 		.4byte	.LANCHOR3+12
 7642 1fd6 1C       		.uleb128 0x1c
 7643 1fd7 01       		.uleb128 0x1
 7644 1fd8 53       		.byte	0x53
 7645 1fd9 03       		.uleb128 0x3
 7646 1fda 0A       		.byte	0xa
 7647 1fdb F902     		.2byte	0x2f9
 7648 1fdd 1C       		.uleb128 0x1c
 7649 1fde 02       		.uleb128 0x2
 7650 1fdf 7D       		.byte	0x7d
 7651 1fe0 00       		.sleb128 0
 7652 1fe1 01       		.uleb128 0x1
 7653 1fe2 31       		.byte	0x31
 7654 1fe3 1C       		.uleb128 0x1c
 7655 1fe4 02       		.uleb128 0x2
 7656 1fe5 7D       		.byte	0x7d
 7657 1fe6 04       		.sleb128 4
 7658 1fe7 05       		.uleb128 0x5
 7659 1fe8 03       		.byte	0x3
 7660 1fe9 9C0A0000 		.4byte	.LC129
 7661 1fed 00       		.byte	0
 7662 1fee 00       		.byte	0
 7663 1fef 22       		.uleb128 0x22
 7664 1ff0 A8000000 		.4byte	.Ldebug_ranges0+0xa8
 7665 1ff4 25       		.uleb128 0x25
 7666 1ff5 4A030000 		.4byte	.LASF130
 7667 1ff9 01       		.byte	0x1
 7668 1ffa FF02     		.2byte	0x2ff
 7669 1ffc DE000000 		.4byte	0xde
 7670 2000 A8180000 		.4byte	.LLST101
 7671 2004 18       		.uleb128 0x18
 7672 2005 38000000 		.4byte	.LBB65
 7673 2009 1E000000 		.4byte	.LBE65-.LBB65
 7674 200d 60200000 		.4byte	0x2060
 7675 2011 24       		.uleb128 0x24
 7676 2012 6C00     		.ascii	"l\000"
 7677 2014 01       		.byte	0x1
 7678 2015 0403     		.2byte	0x304
 7679 2017 7F030000 		.4byte	0x37f
 7680 201b E7180000 		.4byte	.LLST102
 7681 201f 1A       		.uleb128 0x1a
 7682 2020 3C000000 		.4byte	.LVL433
 7683 2024 AC220000 		.4byte	0x22ac
 7684 2028 1B       		.uleb128 0x1b
 7685 2029 56000000 		.4byte	.LVL436
 7686 202d 02       		.uleb128 0x2
ARM GAS  C:\Users\Phuong\AppData\Local\Temp\ccPPbPWA.s 			page 160


 7687 202e 74       		.byte	0x74
 7688 202f 00       		.sleb128 0
 7689 2030 1C       		.uleb128 0x1c
 7690 2031 01       		.uleb128 0x1
 7691 2032 50       		.byte	0x50
 7692 2033 01       		.uleb128 0x1
 7693 2034 30       		.byte	0x30
 7694 2035 1C       		.uleb128 0x1c
 7695 2036 01       		.uleb128 0x1
 7696 2037 51       		.byte	0x51
 7697 2038 05       		.uleb128 0x5
 7698 2039 03       		.byte	0x3
 7699 203a 00000000 		.4byte	.LC1
 7700 203e 1C       		.uleb128 0x1c
 7701 203f 01       		.uleb128 0x1
 7702 2040 52       		.byte	0x52
 7703 2041 05       		.uleb128 0x5
 7704 2042 03       		.byte	0x3
 7705 2043 8C010000 		.4byte	.LANCHOR3+12
 7706 2047 1C       		.uleb128 0x1c
 7707 2048 01       		.uleb128 0x1
 7708 2049 53       		.byte	0x53
 7709 204a 03       		.uleb128 0x3
 7710 204b 0A       		.byte	0xa
 7711 204c 0403     		.2byte	0x304
 7712 204e 1C       		.uleb128 0x1c
 7713 204f 02       		.uleb128 0x2
 7714 2050 7D       		.byte	0x7d
 7715 2051 00       		.sleb128 0
 7716 2052 01       		.uleb128 0x1
 7717 2053 31       		.byte	0x31
 7718 2054 1C       		.uleb128 0x1c
 7719 2055 02       		.uleb128 0x2
 7720 2056 7D       		.byte	0x7d
 7721 2057 04       		.sleb128 4
 7722 2058 05       		.uleb128 0x5
 7723 2059 03       		.byte	0x3
 7724 205a F40A0000 		.4byte	.LC134
 7725 205e 00       		.byte	0
 7726 205f 00       		.byte	0
 7727 2060 18       		.uleb128 0x18
 7728 2061 5A000000 		.4byte	.LBB66
 7729 2065 B6000000 		.4byte	.LBE66-.LBB66
 7730 2069 23220000 		.4byte	0x2223
 7731 206d 25       		.uleb128 0x25
 7732 206e B0010000 		.4byte	.LASF90
 7733 2072 01       		.byte	0x1
 7734 2073 0903     		.2byte	0x309
 7735 2075 DA040000 		.4byte	0x4da
 7736 2079 10190000 		.4byte	.LLST103
 7737 207d 18       		.uleb128 0x18
 7738 207e 68000000 		.4byte	.LBB67
 7739 2082 20000000 		.4byte	.LBE67-.LBB67
 7740 2086 E3200000 		.4byte	0x20e3
 7741 208a 24       		.uleb128 0x24
 7742 208b 6C00     		.ascii	"l\000"
 7743 208d 01       		.byte	0x1
ARM GAS  C:\Users\Phuong\AppData\Local\Temp\ccPPbPWA.s 			page 161


 7744 208e 0F03     		.2byte	0x30f
 7745 2090 7F030000 		.4byte	0x37f
 7746 2094 7C190000 		.4byte	.LLST104
 7747 2098 1A       		.uleb128 0x1a
 7748 2099 6C000000 		.4byte	.LVL440
 7749 209d AC220000 		.4byte	0x22ac
 7750 20a1 1B       		.uleb128 0x1b
 7751 20a2 88000000 		.4byte	.LVL443
 7752 20a6 02       		.uleb128 0x2
 7753 20a7 74       		.byte	0x74
 7754 20a8 00       		.sleb128 0
 7755 20a9 1C       		.uleb128 0x1c
 7756 20aa 01       		.uleb128 0x1
 7757 20ab 50       		.byte	0x50
 7758 20ac 01       		.uleb128 0x1
 7759 20ad 30       		.byte	0x30
 7760 20ae 1C       		.uleb128 0x1c
 7761 20af 01       		.uleb128 0x1
 7762 20b0 51       		.byte	0x51
 7763 20b1 05       		.uleb128 0x5
 7764 20b2 03       		.byte	0x3
 7765 20b3 00000000 		.4byte	.LC1
 7766 20b7 1C       		.uleb128 0x1c
 7767 20b8 01       		.uleb128 0x1
 7768 20b9 52       		.byte	0x52
 7769 20ba 05       		.uleb128 0x5
 7770 20bb 03       		.byte	0x3
 7771 20bc 8C010000 		.4byte	.LANCHOR3+12
 7772 20c0 1C       		.uleb128 0x1c
 7773 20c1 01       		.uleb128 0x1
 7774 20c2 53       		.byte	0x53
 7775 20c3 03       		.uleb128 0x3
 7776 20c4 0A       		.byte	0xa
 7777 20c5 0F03     		.2byte	0x30f
 7778 20c7 1C       		.uleb128 0x1c
 7779 20c8 02       		.uleb128 0x2
 7780 20c9 7D       		.byte	0x7d
 7781 20ca 00       		.sleb128 0
 7782 20cb 01       		.uleb128 0x1
 7783 20cc 31       		.byte	0x31
 7784 20cd 1C       		.uleb128 0x1c
 7785 20ce 02       		.uleb128 0x2
 7786 20cf 7D       		.byte	0x7d
 7787 20d0 04       		.sleb128 4
 7788 20d1 05       		.uleb128 0x5
 7789 20d2 03       		.byte	0x3
 7790 20d3 4C0B0000 		.4byte	.LC137
 7791 20d7 1C       		.uleb128 0x1c
 7792 20d8 02       		.uleb128 0x2
 7793 20d9 7D       		.byte	0x7d
 7794 20da 08       		.sleb128 8
 7795 20db 05       		.uleb128 0x5
 7796 20dc 03       		.byte	0x3
 7797 20dd 64040000 		.4byte	.LC56
 7798 20e1 00       		.byte	0
 7799 20e2 00       		.byte	0
 7800 20e3 18       		.uleb128 0x18
ARM GAS  C:\Users\Phuong\AppData\Local\Temp\ccPPbPWA.s 			page 162


 7801 20e4 9C000000 		.4byte	.LBB68
 7802 20e8 22000000 		.4byte	.LBE68-.LBB68
 7803 20ec 49210000 		.4byte	0x2149
 7804 20f0 24       		.uleb128 0x24
 7805 20f1 6C00     		.ascii	"l\000"
 7806 20f3 01       		.byte	0x1
 7807 20f4 1403     		.2byte	0x314
 7808 20f6 7F030000 		.4byte	0x37f
 7809 20fa A5190000 		.4byte	.LLST105
 7810 20fe 1A       		.uleb128 0x1a
 7811 20ff A0000000 		.4byte	.LVL447
 7812 2103 AC220000 		.4byte	0x22ac
 7813 2107 1B       		.uleb128 0x1b
 7814 2108 BE000000 		.4byte	.LVL450
 7815 210c 02       		.uleb128 0x2
 7816 210d 74       		.byte	0x74
 7817 210e 00       		.sleb128 0
 7818 210f 1C       		.uleb128 0x1c
 7819 2110 01       		.uleb128 0x1
 7820 2111 50       		.byte	0x50
 7821 2112 01       		.uleb128 0x1
 7822 2113 30       		.byte	0x30
 7823 2114 1C       		.uleb128 0x1c
 7824 2115 01       		.uleb128 0x1
 7825 2116 51       		.byte	0x51
 7826 2117 05       		.uleb128 0x5
 7827 2118 03       		.byte	0x3
 7828 2119 00000000 		.4byte	.LC1
 7829 211d 1C       		.uleb128 0x1c
 7830 211e 01       		.uleb128 0x1
 7831 211f 52       		.byte	0x52
 7832 2120 05       		.uleb128 0x5
 7833 2121 03       		.byte	0x3
 7834 2122 8C010000 		.4byte	.LANCHOR3+12
 7835 2126 1C       		.uleb128 0x1c
 7836 2127 01       		.uleb128 0x1
 7837 2128 53       		.byte	0x53
 7838 2129 03       		.uleb128 0x3
 7839 212a 0A       		.byte	0xa
 7840 212b 1403     		.2byte	0x314
 7841 212d 1C       		.uleb128 0x1c
 7842 212e 02       		.uleb128 0x2
 7843 212f 7D       		.byte	0x7d
 7844 2130 00       		.sleb128 0
 7845 2131 01       		.uleb128 0x1
 7846 2132 31       		.byte	0x31
 7847 2133 1C       		.uleb128 0x1c
 7848 2134 02       		.uleb128 0x2
 7849 2135 7D       		.byte	0x7d
 7850 2136 04       		.sleb128 4
 7851 2137 05       		.uleb128 0x5
 7852 2138 03       		.byte	0x3
 7853 2139 4C0B0000 		.4byte	.LC137
 7854 213d 1C       		.uleb128 0x1c
 7855 213e 02       		.uleb128 0x2
 7856 213f 7D       		.byte	0x7d
 7857 2140 08       		.sleb128 8
ARM GAS  C:\Users\Phuong\AppData\Local\Temp\ccPPbPWA.s 			page 163


 7858 2141 05       		.uleb128 0x5
 7859 2142 03       		.byte	0x3
 7860 2143 80040000 		.4byte	.LC58
 7861 2147 00       		.byte	0
 7862 2148 00       		.byte	0
 7863 2149 18       		.uleb128 0x18
 7864 214a D2000000 		.4byte	.LBB69
 7865 214e 20000000 		.4byte	.LBE69-.LBB69
 7866 2152 AF210000 		.4byte	0x21af
 7867 2156 24       		.uleb128 0x24
 7868 2157 6C00     		.ascii	"l\000"
 7869 2159 01       		.byte	0x1
 7870 215a 1903     		.2byte	0x319
 7871 215c 7F030000 		.4byte	0x37f
 7872 2160 CE190000 		.4byte	.LLST106
 7873 2164 1A       		.uleb128 0x1a
 7874 2165 D6000000 		.4byte	.LVL454
 7875 2169 AC220000 		.4byte	0x22ac
 7876 216d 1B       		.uleb128 0x1b
 7877 216e F2000000 		.4byte	.LVL457
 7878 2172 02       		.uleb128 0x2
 7879 2173 74       		.byte	0x74
 7880 2174 00       		.sleb128 0
 7881 2175 1C       		.uleb128 0x1c
 7882 2176 01       		.uleb128 0x1
 7883 2177 50       		.byte	0x50
 7884 2178 01       		.uleb128 0x1
 7885 2179 30       		.byte	0x30
 7886 217a 1C       		.uleb128 0x1c
 7887 217b 01       		.uleb128 0x1
 7888 217c 51       		.byte	0x51
 7889 217d 05       		.uleb128 0x5
 7890 217e 03       		.byte	0x3
 7891 217f 00000000 		.4byte	.LC1
 7892 2183 1C       		.uleb128 0x1c
 7893 2184 01       		.uleb128 0x1
 7894 2185 52       		.byte	0x52
 7895 2186 05       		.uleb128 0x5
 7896 2187 03       		.byte	0x3
 7897 2188 8C010000 		.4byte	.LANCHOR3+12
 7898 218c 1C       		.uleb128 0x1c
 7899 218d 01       		.uleb128 0x1
 7900 218e 53       		.byte	0x53
 7901 218f 03       		.uleb128 0x3
 7902 2190 0A       		.byte	0xa
 7903 2191 1903     		.2byte	0x319
 7904 2193 1C       		.uleb128 0x1c
 7905 2194 02       		.uleb128 0x2
 7906 2195 7D       		.byte	0x7d
 7907 2196 00       		.sleb128 0
 7908 2197 01       		.uleb128 0x1
 7909 2198 31       		.byte	0x31
 7910 2199 1C       		.uleb128 0x1c
 7911 219a 02       		.uleb128 0x2
 7912 219b 7D       		.byte	0x7d
 7913 219c 04       		.sleb128 4
 7914 219d 05       		.uleb128 0x5
ARM GAS  C:\Users\Phuong\AppData\Local\Temp\ccPPbPWA.s 			page 164


 7915 219e 03       		.byte	0x3
 7916 219f 4C0B0000 		.4byte	.LC137
 7917 21a3 1C       		.uleb128 0x1c
 7918 21a4 02       		.uleb128 0x2
 7919 21a5 7D       		.byte	0x7d
 7920 21a6 08       		.sleb128 8
 7921 21a7 05       		.uleb128 0x5
 7922 21a8 03       		.byte	0x3
 7923 21a9 9C040000 		.4byte	.LC60
 7924 21ad 00       		.byte	0
 7925 21ae 00       		.byte	0
 7926 21af 1D       		.uleb128 0x1d
 7927 21b0 64000000 		.4byte	.LVL439
 7928 21b4 7B230000 		.4byte	0x237b
 7929 21b8 CC210000 		.4byte	0x21cc
 7930 21bc 1C       		.uleb128 0x1c
 7931 21bd 01       		.uleb128 0x1
 7932 21be 51       		.byte	0x51
 7933 21bf 05       		.uleb128 0x5
 7934 21c0 03       		.byte	0x3
 7935 21c1 64040000 		.4byte	.LC56
 7936 21c5 1C       		.uleb128 0x1c
 7937 21c6 01       		.uleb128 0x1
 7938 21c7 52       		.byte	0x52
 7939 21c8 02       		.uleb128 0x2
 7940 21c9 74       		.byte	0x74
 7941 21ca 1C       		.sleb128 28
 7942 21cb 00       		.byte	0
 7943 21cc 1D       		.uleb128 0x1d
 7944 21cd 98000000 		.4byte	.LVL446
 7945 21d1 7B230000 		.4byte	0x237b
 7946 21d5 EF210000 		.4byte	0x21ef
 7947 21d9 1C       		.uleb128 0x1c
 7948 21da 01       		.uleb128 0x1
 7949 21db 50       		.byte	0x50
 7950 21dc 02       		.uleb128 0x2
 7951 21dd 75       		.byte	0x75
 7952 21de 00       		.sleb128 0
 7953 21df 1C       		.uleb128 0x1c
 7954 21e0 01       		.uleb128 0x1
 7955 21e1 51       		.byte	0x51
 7956 21e2 05       		.uleb128 0x5
 7957 21e3 03       		.byte	0x3
 7958 21e4 80040000 		.4byte	.LC58
 7959 21e8 1C       		.uleb128 0x1c
 7960 21e9 01       		.uleb128 0x1
 7961 21ea 52       		.byte	0x52
 7962 21eb 02       		.uleb128 0x2
 7963 21ec 74       		.byte	0x74
 7964 21ed 24       		.sleb128 36
 7965 21ee 00       		.byte	0
 7966 21ef 1D       		.uleb128 0x1d
 7967 21f0 CE000000 		.4byte	.LVL453
 7968 21f4 7B230000 		.4byte	0x237b
 7969 21f8 12220000 		.4byte	0x2212
 7970 21fc 1C       		.uleb128 0x1c
 7971 21fd 01       		.uleb128 0x1
ARM GAS  C:\Users\Phuong\AppData\Local\Temp\ccPPbPWA.s 			page 165


 7972 21fe 50       		.byte	0x50
 7973 21ff 02       		.uleb128 0x2
 7974 2200 75       		.byte	0x75
 7975 2201 00       		.sleb128 0
 7976 2202 1C       		.uleb128 0x1c
 7977 2203 01       		.uleb128 0x1
 7978 2204 51       		.byte	0x51
 7979 2205 05       		.uleb128 0x5
 7980 2206 03       		.byte	0x3
 7981 2207 9C040000 		.4byte	.LC60
 7982 220b 1C       		.uleb128 0x1c
 7983 220c 01       		.uleb128 0x1
 7984 220d 52       		.byte	0x52
 7985 220e 02       		.uleb128 0x2
 7986 220f 74       		.byte	0x74
 7987 2210 20       		.sleb128 32
 7988 2211 00       		.byte	0
 7989 2212 1E       		.uleb128 0x1e
 7990 2213 0E010000 		.4byte	.LVL465
 7991 2217 3B230000 		.4byte	0x233b
 7992 221b 1C       		.uleb128 0x1c
 7993 221c 01       		.uleb128 0x1
 7994 221d 50       		.byte	0x50
 7995 221e 02       		.uleb128 0x2
 7996 221f 75       		.byte	0x75
 7997 2220 00       		.sleb128 0
 7998 2221 00       		.byte	0
 7999 2222 00       		.byte	0
 8000 2223 1E       		.uleb128 0x1e
 8001 2224 34000000 		.4byte	.LVL431
 8002 2228 86230000 		.4byte	0x2386
 8003 222c 1C       		.uleb128 0x1c
 8004 222d 01       		.uleb128 0x1
 8005 222e 50       		.byte	0x50
 8006 222f 05       		.uleb128 0x5
 8007 2230 03       		.byte	0x3
 8008 2231 00000000 		.4byte	authentication_clone_option
 8009 2235 1C       		.uleb128 0x1c
 8010 2236 01       		.uleb128 0x1
 8011 2237 51       		.byte	0x51
 8012 2238 05       		.uleb128 0x5
 8013 2239 03       		.byte	0x3
 8014 223a 00000000 		.4byte	authentication_destroy_option
 8015 223e 1C       		.uleb128 0x1c
 8016 223f 01       		.uleb128 0x1
 8017 2240 52       		.byte	0x52
 8018 2241 05       		.uleb128 0x5
 8019 2242 03       		.byte	0x3
 8020 2243 00000000 		.4byte	authentication_set_option
 8021 2247 00       		.byte	0
 8022 2248 00       		.byte	0
 8023 2249 00       		.byte	0
 8024 224a 07       		.uleb128 0x7
 8025 224b F80F0000 		.4byte	0xff8
 8026 224f 2D       		.uleb128 0x2d
 8027 2250 160A0000 		.4byte	.LASF131
 8028 2254 10       		.byte	0x10
ARM GAS  C:\Users\Phuong\AppData\Local\Temp\ccPPbPWA.s 			page 166


 8029 2255 36       		.byte	0x36
 8030 2256 5A220000 		.4byte	0x225a
 8031 225a 07       		.uleb128 0x7
 8032 225b 39190000 		.4byte	0x1939
 8033 225f 2E       		.uleb128 0x2e
 8034 2260 BF0D0000 		.4byte	.LASF132
 8035 2264 0A       		.byte	0xa
 8036 2265 0D       		.byte	0xd
 8037 2266 71220000 		.4byte	0x2271
 8038 226a 06       		.uleb128 0x6
 8039 226b 03       		.byte	0x3
 8040 226c B4040000 		.4byte	.LC62
 8041 2270 9F       		.byte	0x9f
 8042 2271 07       		.uleb128 0x7
 8043 2272 9E000000 		.4byte	0x9e
 8044 2276 2E       		.uleb128 0x2e
 8045 2277 D3010000 		.4byte	.LASF133
 8046 227b 0A       		.byte	0xa
 8047 227c 0E       		.byte	0xe
 8048 227d 71220000 		.4byte	0x2271
 8049 2281 06       		.uleb128 0x6
 8050 2282 03       		.byte	0x3
 8051 2283 64040000 		.4byte	.LC56
 8052 2287 9F       		.byte	0x9f
 8053 2288 2E       		.uleb128 0x2e
 8054 2289 410C0000 		.4byte	.LASF134
 8055 228d 0A       		.byte	0xa
 8056 228e 0F       		.byte	0xf
 8057 228f 71220000 		.4byte	0x2271
 8058 2293 06       		.uleb128 0x6
 8059 2294 03       		.byte	0x3
 8060 2295 80040000 		.4byte	.LC58
 8061 2299 9F       		.byte	0x9f
 8062 229a 2E       		.uleb128 0x2e
 8063 229b 88070000 		.4byte	.LASF135
 8064 229f 0A       		.byte	0xa
 8065 22a0 10       		.byte	0x10
 8066 22a1 71220000 		.4byte	0x2271
 8067 22a5 06       		.uleb128 0x6
 8068 22a6 03       		.byte	0x3
 8069 22a7 9C040000 		.4byte	.LC60
 8070 22ab 9F       		.byte	0x9f
 8071 22ac 2F       		.uleb128 0x2f
 8072 22ad 31010000 		.4byte	.LASF136
 8073 22b1 31010000 		.4byte	.LASF136
 8074 22b5 0B       		.byte	0xb
 8075 22b6 9D       		.byte	0x9d
 8076 22b7 2F       		.uleb128 0x2f
 8077 22b8 BA0C0000 		.4byte	.LASF137
 8078 22bc BA0C0000 		.4byte	.LASF137
 8079 22c0 0C       		.byte	0xc
 8080 22c1 1C       		.byte	0x1c
 8081 22c2 2F       		.uleb128 0x2f
 8082 22c3 00000000 		.4byte	.LASF138
 8083 22c7 00000000 		.4byte	.LASF138
 8084 22cb 0C       		.byte	0xc
 8085 22cc 39       		.byte	0x39
ARM GAS  C:\Users\Phuong\AppData\Local\Temp\ccPPbPWA.s 			page 167


 8086 22cd 2F       		.uleb128 0x2f
 8087 22ce 0D000000 		.4byte	.LASF139
 8088 22d2 0D000000 		.4byte	.LASF139
 8089 22d6 0D       		.byte	0xd
 8090 22d7 20       		.byte	0x20
 8091 22d8 2F       		.uleb128 0x2f
 8092 22d9 E7030000 		.4byte	.LASF140
 8093 22dd E7030000 		.4byte	.LASF140
 8094 22e1 0D       		.byte	0xd
 8095 22e2 26       		.byte	0x26
 8096 22e3 2F       		.uleb128 0x2f
 8097 22e4 49070000 		.4byte	.LASF141
 8098 22e8 49070000 		.4byte	.LASF141
 8099 22ec 09       		.byte	0x9
 8100 22ed 29       		.byte	0x29
 8101 22ee 2F       		.uleb128 0x2f
 8102 22ef 98080000 		.4byte	.LASF142
 8103 22f3 98080000 		.4byte	.LASF142
 8104 22f7 06       		.byte	0x6
 8105 22f8 2F       		.byte	0x2f
 8106 22f9 2F       		.uleb128 0x2f
 8107 22fa 3F0D0000 		.4byte	.LASF143
 8108 22fe 3F0D0000 		.4byte	.LASF143
 8109 2302 06       		.byte	0x6
 8110 2303 2A       		.byte	0x2a
 8111 2304 2F       		.uleb128 0x2f
 8112 2305 57000000 		.4byte	.LASF144
 8113 2309 57000000 		.4byte	.LASF144
 8114 230d 06       		.byte	0x6
 8115 230e 29       		.byte	0x29
 8116 230f 2F       		.uleb128 0x2f
 8117 2310 87010000 		.4byte	.LASF145
 8118 2314 87010000 		.4byte	.LASF145
 8119 2318 0E       		.byte	0xe
 8120 2319 59       		.byte	0x59
 8121 231a 2F       		.uleb128 0x2f
 8122 231b B4050000 		.4byte	.LASF146
 8123 231f B4050000 		.4byte	.LASF146
 8124 2323 0D       		.byte	0xd
 8125 2324 1A       		.byte	0x1a
 8126 2325 2F       		.uleb128 0x2f
 8127 2326 1A000000 		.4byte	.LASF147
 8128 232a 1A000000 		.4byte	.LASF147
 8129 232e 0F       		.byte	0xf
 8130 232f 1C       		.byte	0x1c
 8131 2330 2F       		.uleb128 0x2f
 8132 2331 810B0000 		.4byte	.LASF148
 8133 2335 810B0000 		.4byte	.LASF148
 8134 2339 05       		.byte	0x5
 8135 233a 29       		.byte	0x29
 8136 233b 2F       		.uleb128 0x2f
 8137 233c 610A0000 		.4byte	.LASF149
 8138 2340 610A0000 		.4byte	.LASF149
 8139 2344 05       		.byte	0x5
 8140 2345 2A       		.byte	0x2a
 8141 2346 2F       		.uleb128 0x2f
 8142 2347 BA040000 		.4byte	.LASF150
ARM GAS  C:\Users\Phuong\AppData\Local\Temp\ccPPbPWA.s 			page 168


 8143 234b BA040000 		.4byte	.LASF150
 8144 234f 0E       		.byte	0xe
 8145 2350 64       		.byte	0x64
 8146 2351 30       		.uleb128 0x30
 8147 2352 D90C0000 		.4byte	.LASF159
 8148 2356 D90C0000 		.4byte	.LASF159
 8149 235a 2F       		.uleb128 0x2f
 8150 235b 29050000 		.4byte	.LASF151
 8151 235f 29050000 		.4byte	.LASF151
 8152 2363 06       		.byte	0x6
 8153 2364 2C       		.byte	0x2c
 8154 2365 2F       		.uleb128 0x2f
 8155 2366 F6080000 		.4byte	.LASF152
 8156 236a F6080000 		.4byte	.LASF152
 8157 236e 0D       		.byte	0xd
 8158 236f 14       		.byte	0x14
 8159 2370 2F       		.uleb128 0x2f
 8160 2371 8B040000 		.4byte	.LASF153
 8161 2375 8B040000 		.4byte	.LASF153
 8162 2379 06       		.byte	0x6
 8163 237a 2D       		.byte	0x2d
 8164 237b 2F       		.uleb128 0x2f
 8165 237c 8C060000 		.4byte	.LASF154
 8166 2380 8C060000 		.4byte	.LASF154
 8167 2384 05       		.byte	0x5
 8168 2385 28       		.byte	0x28
 8169 2386 2F       		.uleb128 0x2f
 8170 2387 D9090000 		.4byte	.LASF155
 8171 238b D9090000 		.4byte	.LASF155
 8172 238f 05       		.byte	0x5
 8173 2390 26       		.byte	0x26
 8174 2391 00       		.byte	0
 8175              		.section	.debug_abbrev,"",%progbits
 8176              	.Ldebug_abbrev0:
 8177 0000 01       		.uleb128 0x1
 8178 0001 11       		.uleb128 0x11
 8179 0002 01       		.byte	0x1
 8180 0003 25       		.uleb128 0x25
 8181 0004 0E       		.uleb128 0xe
 8182 0005 13       		.uleb128 0x13
 8183 0006 0B       		.uleb128 0xb
 8184 0007 03       		.uleb128 0x3
 8185 0008 0E       		.uleb128 0xe
 8186 0009 1B       		.uleb128 0x1b
 8187 000a 0E       		.uleb128 0xe
 8188 000b 55       		.uleb128 0x55
 8189 000c 17       		.uleb128 0x17
 8190 000d 11       		.uleb128 0x11
 8191 000e 01       		.uleb128 0x1
 8192 000f 10       		.uleb128 0x10
 8193 0010 17       		.uleb128 0x17
 8194 0011 00       		.byte	0
 8195 0012 00       		.byte	0
 8196 0013 02       		.uleb128 0x2
 8197 0014 16       		.uleb128 0x16
 8198 0015 00       		.byte	0
 8199 0016 03       		.uleb128 0x3
ARM GAS  C:\Users\Phuong\AppData\Local\Temp\ccPPbPWA.s 			page 169


 8200 0017 0E       		.uleb128 0xe
 8201 0018 3A       		.uleb128 0x3a
 8202 0019 0B       		.uleb128 0xb
 8203 001a 3B       		.uleb128 0x3b
 8204 001b 0B       		.uleb128 0xb
 8205 001c 49       		.uleb128 0x49
 8206 001d 13       		.uleb128 0x13
 8207 001e 00       		.byte	0
 8208 001f 00       		.byte	0
 8209 0020 03       		.uleb128 0x3
 8210 0021 24       		.uleb128 0x24
 8211 0022 00       		.byte	0
 8212 0023 0B       		.uleb128 0xb
 8213 0024 0B       		.uleb128 0xb
 8214 0025 3E       		.uleb128 0x3e
 8215 0026 0B       		.uleb128 0xb
 8216 0027 03       		.uleb128 0x3
 8217 0028 0E       		.uleb128 0xe
 8218 0029 00       		.byte	0
 8219 002a 00       		.byte	0
 8220 002b 04       		.uleb128 0x4
 8221 002c 24       		.uleb128 0x24
 8222 002d 00       		.byte	0
 8223 002e 0B       		.uleb128 0xb
 8224 002f 0B       		.uleb128 0xb
 8225 0030 3E       		.uleb128 0x3e
 8226 0031 0B       		.uleb128 0xb
 8227 0032 03       		.uleb128 0x3
 8228 0033 08       		.uleb128 0x8
 8229 0034 00       		.byte	0
 8230 0035 00       		.byte	0
 8231 0036 05       		.uleb128 0x5
 8232 0037 0F       		.uleb128 0xf
 8233 0038 00       		.byte	0
 8234 0039 0B       		.uleb128 0xb
 8235 003a 0B       		.uleb128 0xb
 8236 003b 00       		.byte	0
 8237 003c 00       		.byte	0
 8238 003d 06       		.uleb128 0x6
 8239 003e 0F       		.uleb128 0xf
 8240 003f 00       		.byte	0
 8241 0040 0B       		.uleb128 0xb
 8242 0041 0B       		.uleb128 0xb
 8243 0042 49       		.uleb128 0x49
 8244 0043 13       		.uleb128 0x13
 8245 0044 00       		.byte	0
 8246 0045 00       		.byte	0
 8247 0046 07       		.uleb128 0x7
 8248 0047 26       		.uleb128 0x26
 8249 0048 00       		.byte	0
 8250 0049 49       		.uleb128 0x49
 8251 004a 13       		.uleb128 0x13
 8252 004b 00       		.byte	0
 8253 004c 00       		.byte	0
 8254 004d 08       		.uleb128 0x8
 8255 004e 26       		.uleb128 0x26
 8256 004f 00       		.byte	0
ARM GAS  C:\Users\Phuong\AppData\Local\Temp\ccPPbPWA.s 			page 170


 8257 0050 00       		.byte	0
 8258 0051 00       		.byte	0
 8259 0052 09       		.uleb128 0x9
 8260 0053 04       		.uleb128 0x4
 8261 0054 01       		.byte	0x1
 8262 0055 03       		.uleb128 0x3
 8263 0056 0E       		.uleb128 0xe
 8264 0057 0B       		.uleb128 0xb
 8265 0058 0B       		.uleb128 0xb
 8266 0059 49       		.uleb128 0x49
 8267 005a 13       		.uleb128 0x13
 8268 005b 3A       		.uleb128 0x3a
 8269 005c 0B       		.uleb128 0xb
 8270 005d 3B       		.uleb128 0x3b
 8271 005e 0B       		.uleb128 0xb
 8272 005f 01       		.uleb128 0x1
 8273 0060 13       		.uleb128 0x13
 8274 0061 00       		.byte	0
 8275 0062 00       		.byte	0
 8276 0063 0A       		.uleb128 0xa
 8277 0064 28       		.uleb128 0x28
 8278 0065 00       		.byte	0
 8279 0066 03       		.uleb128 0x3
 8280 0067 0E       		.uleb128 0xe
 8281 0068 1C       		.uleb128 0x1c
 8282 0069 0B       		.uleb128 0xb
 8283 006a 00       		.byte	0
 8284 006b 00       		.byte	0
 8285 006c 0B       		.uleb128 0xb
 8286 006d 13       		.uleb128 0x13
 8287 006e 00       		.byte	0
 8288 006f 03       		.uleb128 0x3
 8289 0070 0E       		.uleb128 0xe
 8290 0071 3C       		.uleb128 0x3c
 8291 0072 19       		.uleb128 0x19
 8292 0073 00       		.byte	0
 8293 0074 00       		.byte	0
 8294 0075 0C       		.uleb128 0xc
 8295 0076 15       		.uleb128 0x15
 8296 0077 01       		.byte	0x1
 8297 0078 27       		.uleb128 0x27
 8298 0079 19       		.uleb128 0x19
 8299 007a 49       		.uleb128 0x49
 8300 007b 13       		.uleb128 0x13
 8301 007c 01       		.uleb128 0x1
 8302 007d 13       		.uleb128 0x13
 8303 007e 00       		.byte	0
 8304 007f 00       		.byte	0
 8305 0080 0D       		.uleb128 0xd
 8306 0081 05       		.uleb128 0x5
 8307 0082 00       		.byte	0
 8308 0083 49       		.uleb128 0x49
 8309 0084 13       		.uleb128 0x13
 8310 0085 00       		.byte	0
 8311 0086 00       		.byte	0
 8312 0087 0E       		.uleb128 0xe
 8313 0088 15       		.uleb128 0x15
ARM GAS  C:\Users\Phuong\AppData\Local\Temp\ccPPbPWA.s 			page 171


 8314 0089 01       		.byte	0x1
 8315 008a 27       		.uleb128 0x27
 8316 008b 19       		.uleb128 0x19
 8317 008c 01       		.uleb128 0x1
 8318 008d 13       		.uleb128 0x13
 8319 008e 00       		.byte	0
 8320 008f 00       		.byte	0
 8321 0090 0F       		.uleb128 0xf
 8322 0091 13       		.uleb128 0x13
 8323 0092 01       		.byte	0x1
 8324 0093 03       		.uleb128 0x3
 8325 0094 0E       		.uleb128 0xe
 8326 0095 0B       		.uleb128 0xb
 8327 0096 0B       		.uleb128 0xb
 8328 0097 3A       		.uleb128 0x3a
 8329 0098 0B       		.uleb128 0xb
 8330 0099 3B       		.uleb128 0x3b
 8331 009a 0B       		.uleb128 0xb
 8332 009b 01       		.uleb128 0x1
 8333 009c 13       		.uleb128 0x13
 8334 009d 00       		.byte	0
 8335 009e 00       		.byte	0
 8336 009f 10       		.uleb128 0x10
 8337 00a0 0D       		.uleb128 0xd
 8338 00a1 00       		.byte	0
 8339 00a2 03       		.uleb128 0x3
 8340 00a3 0E       		.uleb128 0xe
 8341 00a4 3A       		.uleb128 0x3a
 8342 00a5 0B       		.uleb128 0xb
 8343 00a6 3B       		.uleb128 0x3b
 8344 00a7 0B       		.uleb128 0xb
 8345 00a8 49       		.uleb128 0x49
 8346 00a9 13       		.uleb128 0x13
 8347 00aa 38       		.uleb128 0x38
 8348 00ab 0B       		.uleb128 0xb
 8349 00ac 00       		.byte	0
 8350 00ad 00       		.byte	0
 8351 00ae 11       		.uleb128 0x11
 8352 00af 18       		.uleb128 0x18
 8353 00b0 00       		.byte	0
 8354 00b1 00       		.byte	0
 8355 00b2 00       		.byte	0
 8356 00b3 12       		.uleb128 0x12
 8357 00b4 2E       		.uleb128 0x2e
 8358 00b5 01       		.byte	0x1
 8359 00b6 03       		.uleb128 0x3
 8360 00b7 0E       		.uleb128 0xe
 8361 00b8 3A       		.uleb128 0x3a
 8362 00b9 0B       		.uleb128 0xb
 8363 00ba 3B       		.uleb128 0x3b
 8364 00bb 0B       		.uleb128 0xb
 8365 00bc 27       		.uleb128 0x27
 8366 00bd 19       		.uleb128 0x19
 8367 00be 11       		.uleb128 0x11
 8368 00bf 01       		.uleb128 0x1
 8369 00c0 12       		.uleb128 0x12
 8370 00c1 06       		.uleb128 0x6
ARM GAS  C:\Users\Phuong\AppData\Local\Temp\ccPPbPWA.s 			page 172


 8371 00c2 40       		.uleb128 0x40
 8372 00c3 18       		.uleb128 0x18
 8373 00c4 9642     		.uleb128 0x2116
 8374 00c6 19       		.uleb128 0x19
 8375 00c7 01       		.uleb128 0x1
 8376 00c8 13       		.uleb128 0x13
 8377 00c9 00       		.byte	0
 8378 00ca 00       		.byte	0
 8379 00cb 13       		.uleb128 0x13
 8380 00cc 05       		.uleb128 0x5
 8381 00cd 00       		.byte	0
 8382 00ce 03       		.uleb128 0x3
 8383 00cf 0E       		.uleb128 0xe
 8384 00d0 3A       		.uleb128 0x3a
 8385 00d1 0B       		.uleb128 0xb
 8386 00d2 3B       		.uleb128 0x3b
 8387 00d3 0B       		.uleb128 0xb
 8388 00d4 49       		.uleb128 0x49
 8389 00d5 13       		.uleb128 0x13
 8390 00d6 02       		.uleb128 0x2
 8391 00d7 17       		.uleb128 0x17
 8392 00d8 00       		.byte	0
 8393 00d9 00       		.byte	0
 8394 00da 14       		.uleb128 0x14
 8395 00db 0B       		.uleb128 0xb
 8396 00dc 01       		.byte	0x1
 8397 00dd 11       		.uleb128 0x11
 8398 00de 01       		.uleb128 0x1
 8399 00df 12       		.uleb128 0x12
 8400 00e0 06       		.uleb128 0x6
 8401 00e1 00       		.byte	0
 8402 00e2 00       		.byte	0
 8403 00e3 15       		.uleb128 0x15
 8404 00e4 34       		.uleb128 0x34
 8405 00e5 00       		.byte	0
 8406 00e6 03       		.uleb128 0x3
 8407 00e7 0E       		.uleb128 0xe
 8408 00e8 3A       		.uleb128 0x3a
 8409 00e9 0B       		.uleb128 0xb
 8410 00ea 3B       		.uleb128 0x3b
 8411 00eb 0B       		.uleb128 0xb
 8412 00ec 49       		.uleb128 0x49
 8413 00ed 13       		.uleb128 0x13
 8414 00ee 02       		.uleb128 0x2
 8415 00ef 17       		.uleb128 0x17
 8416 00f0 00       		.byte	0
 8417 00f1 00       		.byte	0
 8418 00f2 16       		.uleb128 0x16
 8419 00f3 2E       		.uleb128 0x2e
 8420 00f4 01       		.byte	0x1
 8421 00f5 03       		.uleb128 0x3
 8422 00f6 0E       		.uleb128 0xe
 8423 00f7 3A       		.uleb128 0x3a
 8424 00f8 0B       		.uleb128 0xb
 8425 00f9 3B       		.uleb128 0x3b
 8426 00fa 0B       		.uleb128 0xb
 8427 00fb 27       		.uleb128 0x27
ARM GAS  C:\Users\Phuong\AppData\Local\Temp\ccPPbPWA.s 			page 173


 8428 00fc 19       		.uleb128 0x19
 8429 00fd 11       		.uleb128 0x11
 8430 00fe 01       		.uleb128 0x1
 8431 00ff 12       		.uleb128 0x12
 8432 0100 06       		.uleb128 0x6
 8433 0101 40       		.uleb128 0x40
 8434 0102 18       		.uleb128 0x18
 8435 0103 9742     		.uleb128 0x2117
 8436 0105 19       		.uleb128 0x19
 8437 0106 01       		.uleb128 0x1
 8438 0107 13       		.uleb128 0x13
 8439 0108 00       		.byte	0
 8440 0109 00       		.byte	0
 8441 010a 17       		.uleb128 0x17
 8442 010b 34       		.uleb128 0x34
 8443 010c 00       		.byte	0
 8444 010d 03       		.uleb128 0x3
 8445 010e 0E       		.uleb128 0xe
 8446 010f 49       		.uleb128 0x49
 8447 0110 13       		.uleb128 0x13
 8448 0111 34       		.uleb128 0x34
 8449 0112 19       		.uleb128 0x19
 8450 0113 02       		.uleb128 0x2
 8451 0114 18       		.uleb128 0x18
 8452 0115 00       		.byte	0
 8453 0116 00       		.byte	0
 8454 0117 18       		.uleb128 0x18
 8455 0118 0B       		.uleb128 0xb
 8456 0119 01       		.byte	0x1
 8457 011a 11       		.uleb128 0x11
 8458 011b 01       		.uleb128 0x1
 8459 011c 12       		.uleb128 0x12
 8460 011d 06       		.uleb128 0x6
 8461 011e 01       		.uleb128 0x1
 8462 011f 13       		.uleb128 0x13
 8463 0120 00       		.byte	0
 8464 0121 00       		.byte	0
 8465 0122 19       		.uleb128 0x19
 8466 0123 34       		.uleb128 0x34
 8467 0124 00       		.byte	0
 8468 0125 03       		.uleb128 0x3
 8469 0126 08       		.uleb128 0x8
 8470 0127 3A       		.uleb128 0x3a
 8471 0128 0B       		.uleb128 0xb
 8472 0129 3B       		.uleb128 0x3b
 8473 012a 0B       		.uleb128 0xb
 8474 012b 49       		.uleb128 0x49
 8475 012c 13       		.uleb128 0x13
 8476 012d 02       		.uleb128 0x2
 8477 012e 17       		.uleb128 0x17
 8478 012f 00       		.byte	0
 8479 0130 00       		.byte	0
 8480 0131 1A       		.uleb128 0x1a
 8481 0132 898201   		.uleb128 0x4109
 8482 0135 00       		.byte	0
 8483 0136 11       		.uleb128 0x11
 8484 0137 01       		.uleb128 0x1
ARM GAS  C:\Users\Phuong\AppData\Local\Temp\ccPPbPWA.s 			page 174


 8485 0138 31       		.uleb128 0x31
 8486 0139 13       		.uleb128 0x13
 8487 013a 00       		.byte	0
 8488 013b 00       		.byte	0
 8489 013c 1B       		.uleb128 0x1b
 8490 013d 898201   		.uleb128 0x4109
 8491 0140 01       		.byte	0x1
 8492 0141 11       		.uleb128 0x11
 8493 0142 01       		.uleb128 0x1
 8494 0143 9342     		.uleb128 0x2113
 8495 0145 18       		.uleb128 0x18
 8496 0146 00       		.byte	0
 8497 0147 00       		.byte	0
 8498 0148 1C       		.uleb128 0x1c
 8499 0149 8A8201   		.uleb128 0x410a
 8500 014c 00       		.byte	0
 8501 014d 02       		.uleb128 0x2
 8502 014e 18       		.uleb128 0x18
 8503 014f 9142     		.uleb128 0x2111
 8504 0151 18       		.uleb128 0x18
 8505 0152 00       		.byte	0
 8506 0153 00       		.byte	0
 8507 0154 1D       		.uleb128 0x1d
 8508 0155 898201   		.uleb128 0x4109
 8509 0158 01       		.byte	0x1
 8510 0159 11       		.uleb128 0x11
 8511 015a 01       		.uleb128 0x1
 8512 015b 31       		.uleb128 0x31
 8513 015c 13       		.uleb128 0x13
 8514 015d 01       		.uleb128 0x1
 8515 015e 13       		.uleb128 0x13
 8516 015f 00       		.byte	0
 8517 0160 00       		.byte	0
 8518 0161 1E       		.uleb128 0x1e
 8519 0162 898201   		.uleb128 0x4109
 8520 0165 01       		.byte	0x1
 8521 0166 11       		.uleb128 0x11
 8522 0167 01       		.uleb128 0x1
 8523 0168 31       		.uleb128 0x31
 8524 0169 13       		.uleb128 0x13
 8525 016a 00       		.byte	0
 8526 016b 00       		.byte	0
 8527 016c 1F       		.uleb128 0x1f
 8528 016d 01       		.uleb128 0x1
 8529 016e 01       		.byte	0x1
 8530 016f 49       		.uleb128 0x49
 8531 0170 13       		.uleb128 0x13
 8532 0171 01       		.uleb128 0x1
 8533 0172 13       		.uleb128 0x13
 8534 0173 00       		.byte	0
 8535 0174 00       		.byte	0
 8536 0175 20       		.uleb128 0x20
 8537 0176 21       		.uleb128 0x21
 8538 0177 00       		.byte	0
 8539 0178 49       		.uleb128 0x49
 8540 0179 13       		.uleb128 0x13
 8541 017a 2F       		.uleb128 0x2f
ARM GAS  C:\Users\Phuong\AppData\Local\Temp\ccPPbPWA.s 			page 175


 8542 017b 0B       		.uleb128 0xb
 8543 017c 00       		.byte	0
 8544 017d 00       		.byte	0
 8545 017e 21       		.uleb128 0x21
 8546 017f 2E       		.uleb128 0x2e
 8547 0180 01       		.byte	0x1
 8548 0181 03       		.uleb128 0x3
 8549 0182 0E       		.uleb128 0xe
 8550 0183 3A       		.uleb128 0x3a
 8551 0184 0B       		.uleb128 0xb
 8552 0185 3B       		.uleb128 0x3b
 8553 0186 0B       		.uleb128 0xb
 8554 0187 27       		.uleb128 0x27
 8555 0188 19       		.uleb128 0x19
 8556 0189 49       		.uleb128 0x49
 8557 018a 13       		.uleb128 0x13
 8558 018b 11       		.uleb128 0x11
 8559 018c 01       		.uleb128 0x1
 8560 018d 12       		.uleb128 0x12
 8561 018e 06       		.uleb128 0x6
 8562 018f 40       		.uleb128 0x40
 8563 0190 18       		.uleb128 0x18
 8564 0191 9642     		.uleb128 0x2116
 8565 0193 19       		.uleb128 0x19
 8566 0194 01       		.uleb128 0x1
 8567 0195 13       		.uleb128 0x13
 8568 0196 00       		.byte	0
 8569 0197 00       		.byte	0
 8570 0198 22       		.uleb128 0x22
 8571 0199 0B       		.uleb128 0xb
 8572 019a 01       		.byte	0x1
 8573 019b 55       		.uleb128 0x55
 8574 019c 17       		.uleb128 0x17
 8575 019d 00       		.byte	0
 8576 019e 00       		.byte	0
 8577 019f 23       		.uleb128 0x23
 8578 01a0 2E       		.uleb128 0x2e
 8579 01a1 01       		.byte	0x1
 8580 01a2 03       		.uleb128 0x3
 8581 01a3 0E       		.uleb128 0xe
 8582 01a4 3A       		.uleb128 0x3a
 8583 01a5 0B       		.uleb128 0xb
 8584 01a6 3B       		.uleb128 0x3b
 8585 01a7 0B       		.uleb128 0xb
 8586 01a8 27       		.uleb128 0x27
 8587 01a9 19       		.uleb128 0x19
 8588 01aa 49       		.uleb128 0x49
 8589 01ab 13       		.uleb128 0x13
 8590 01ac 11       		.uleb128 0x11
 8591 01ad 01       		.uleb128 0x1
 8592 01ae 12       		.uleb128 0x12
 8593 01af 06       		.uleb128 0x6
 8594 01b0 40       		.uleb128 0x40
 8595 01b1 18       		.uleb128 0x18
 8596 01b2 9742     		.uleb128 0x2117
 8597 01b4 19       		.uleb128 0x19
 8598 01b5 01       		.uleb128 0x1
ARM GAS  C:\Users\Phuong\AppData\Local\Temp\ccPPbPWA.s 			page 176


 8599 01b6 13       		.uleb128 0x13
 8600 01b7 00       		.byte	0
 8601 01b8 00       		.byte	0
 8602 01b9 24       		.uleb128 0x24
 8603 01ba 34       		.uleb128 0x34
 8604 01bb 00       		.byte	0
 8605 01bc 03       		.uleb128 0x3
 8606 01bd 08       		.uleb128 0x8
 8607 01be 3A       		.uleb128 0x3a
 8608 01bf 0B       		.uleb128 0xb
 8609 01c0 3B       		.uleb128 0x3b
 8610 01c1 05       		.uleb128 0x5
 8611 01c2 49       		.uleb128 0x49
 8612 01c3 13       		.uleb128 0x13
 8613 01c4 02       		.uleb128 0x2
 8614 01c5 17       		.uleb128 0x17
 8615 01c6 00       		.byte	0
 8616 01c7 00       		.byte	0
 8617 01c8 25       		.uleb128 0x25
 8618 01c9 34       		.uleb128 0x34
 8619 01ca 00       		.byte	0
 8620 01cb 03       		.uleb128 0x3
 8621 01cc 0E       		.uleb128 0xe
 8622 01cd 3A       		.uleb128 0x3a
 8623 01ce 0B       		.uleb128 0xb
 8624 01cf 3B       		.uleb128 0x3b
 8625 01d0 05       		.uleb128 0x5
 8626 01d1 49       		.uleb128 0x49
 8627 01d2 13       		.uleb128 0x13
 8628 01d3 02       		.uleb128 0x2
 8629 01d4 17       		.uleb128 0x17
 8630 01d5 00       		.byte	0
 8631 01d6 00       		.byte	0
 8632 01d7 26       		.uleb128 0x26
 8633 01d8 0B       		.uleb128 0xb
 8634 01d9 01       		.byte	0x1
 8635 01da 55       		.uleb128 0x55
 8636 01db 17       		.uleb128 0x17
 8637 01dc 01       		.uleb128 0x1
 8638 01dd 13       		.uleb128 0x13
 8639 01de 00       		.byte	0
 8640 01df 00       		.byte	0
 8641 01e0 27       		.uleb128 0x27
 8642 01e1 2E       		.uleb128 0x2e
 8643 01e2 01       		.byte	0x1
 8644 01e3 03       		.uleb128 0x3
 8645 01e4 0E       		.uleb128 0xe
 8646 01e5 3A       		.uleb128 0x3a
 8647 01e6 0B       		.uleb128 0xb
 8648 01e7 3B       		.uleb128 0x3b
 8649 01e8 05       		.uleb128 0x5
 8650 01e9 27       		.uleb128 0x27
 8651 01ea 19       		.uleb128 0x19
 8652 01eb 49       		.uleb128 0x49
 8653 01ec 13       		.uleb128 0x13
 8654 01ed 11       		.uleb128 0x11
 8655 01ee 01       		.uleb128 0x1
ARM GAS  C:\Users\Phuong\AppData\Local\Temp\ccPPbPWA.s 			page 177


 8656 01ef 12       		.uleb128 0x12
 8657 01f0 06       		.uleb128 0x6
 8658 01f1 40       		.uleb128 0x40
 8659 01f2 18       		.uleb128 0x18
 8660 01f3 9742     		.uleb128 0x2117
 8661 01f5 19       		.uleb128 0x19
 8662 01f6 01       		.uleb128 0x1
 8663 01f7 13       		.uleb128 0x13
 8664 01f8 00       		.byte	0
 8665 01f9 00       		.byte	0
 8666 01fa 28       		.uleb128 0x28
 8667 01fb 05       		.uleb128 0x5
 8668 01fc 00       		.byte	0
 8669 01fd 03       		.uleb128 0x3
 8670 01fe 0E       		.uleb128 0xe
 8671 01ff 3A       		.uleb128 0x3a
 8672 0200 0B       		.uleb128 0xb
 8673 0201 3B       		.uleb128 0x3b
 8674 0202 05       		.uleb128 0x5
 8675 0203 49       		.uleb128 0x49
 8676 0204 13       		.uleb128 0x13
 8677 0205 02       		.uleb128 0x2
 8678 0206 17       		.uleb128 0x17
 8679 0207 00       		.byte	0
 8680 0208 00       		.byte	0
 8681 0209 29       		.uleb128 0x29
 8682 020a 2E       		.uleb128 0x2e
 8683 020b 01       		.byte	0x1
 8684 020c 3F       		.uleb128 0x3f
 8685 020d 19       		.uleb128 0x19
 8686 020e 03       		.uleb128 0x3
 8687 020f 0E       		.uleb128 0xe
 8688 0210 3A       		.uleb128 0x3a
 8689 0211 0B       		.uleb128 0xb
 8690 0212 3B       		.uleb128 0x3b
 8691 0213 05       		.uleb128 0x5
 8692 0214 27       		.uleb128 0x27
 8693 0215 19       		.uleb128 0x19
 8694 0216 49       		.uleb128 0x49
 8695 0217 13       		.uleb128 0x13
 8696 0218 11       		.uleb128 0x11
 8697 0219 01       		.uleb128 0x1
 8698 021a 12       		.uleb128 0x12
 8699 021b 06       		.uleb128 0x6
 8700 021c 40       		.uleb128 0x40
 8701 021d 18       		.uleb128 0x18
 8702 021e 9742     		.uleb128 0x2117
 8703 0220 19       		.uleb128 0x19
 8704 0221 01       		.uleb128 0x1
 8705 0222 13       		.uleb128 0x13
 8706 0223 00       		.byte	0
 8707 0224 00       		.byte	0
 8708 0225 2A       		.uleb128 0x2a
 8709 0226 2E       		.uleb128 0x2e
 8710 0227 01       		.byte	0x1
 8711 0228 03       		.uleb128 0x3
 8712 0229 0E       		.uleb128 0xe
ARM GAS  C:\Users\Phuong\AppData\Local\Temp\ccPPbPWA.s 			page 178


 8713 022a 3A       		.uleb128 0x3a
 8714 022b 0B       		.uleb128 0xb
 8715 022c 3B       		.uleb128 0x3b
 8716 022d 05       		.uleb128 0x5
 8717 022e 27       		.uleb128 0x27
 8718 022f 19       		.uleb128 0x19
 8719 0230 11       		.uleb128 0x11
 8720 0231 01       		.uleb128 0x1
 8721 0232 12       		.uleb128 0x12
 8722 0233 06       		.uleb128 0x6
 8723 0234 40       		.uleb128 0x40
 8724 0235 18       		.uleb128 0x18
 8725 0236 9742     		.uleb128 0x2117
 8726 0238 19       		.uleb128 0x19
 8727 0239 01       		.uleb128 0x1
 8728 023a 13       		.uleb128 0x13
 8729 023b 00       		.byte	0
 8730 023c 00       		.byte	0
 8731 023d 2B       		.uleb128 0x2b
 8732 023e 2E       		.uleb128 0x2e
 8733 023f 01       		.byte	0x1
 8734 0240 3F       		.uleb128 0x3f
 8735 0241 19       		.uleb128 0x19
 8736 0242 03       		.uleb128 0x3
 8737 0243 0E       		.uleb128 0xe
 8738 0244 3A       		.uleb128 0x3a
 8739 0245 0B       		.uleb128 0xb
 8740 0246 3B       		.uleb128 0x3b
 8741 0247 05       		.uleb128 0x5
 8742 0248 27       		.uleb128 0x27
 8743 0249 19       		.uleb128 0x19
 8744 024a 11       		.uleb128 0x11
 8745 024b 01       		.uleb128 0x1
 8746 024c 12       		.uleb128 0x12
 8747 024d 06       		.uleb128 0x6
 8748 024e 40       		.uleb128 0x40
 8749 024f 18       		.uleb128 0x18
 8750 0250 9742     		.uleb128 0x2117
 8751 0252 19       		.uleb128 0x19
 8752 0253 01       		.uleb128 0x1
 8753 0254 13       		.uleb128 0x13
 8754 0255 00       		.byte	0
 8755 0256 00       		.byte	0
 8756 0257 2C       		.uleb128 0x2c
 8757 0258 34       		.uleb128 0x34
 8758 0259 00       		.byte	0
 8759 025a 03       		.uleb128 0x3
 8760 025b 0E       		.uleb128 0xe
 8761 025c 3A       		.uleb128 0x3a
 8762 025d 0B       		.uleb128 0xb
 8763 025e 3B       		.uleb128 0x3b
 8764 025f 05       		.uleb128 0x5
 8765 0260 49       		.uleb128 0x49
 8766 0261 13       		.uleb128 0x13
 8767 0262 02       		.uleb128 0x2
 8768 0263 18       		.uleb128 0x18
 8769 0264 00       		.byte	0
ARM GAS  C:\Users\Phuong\AppData\Local\Temp\ccPPbPWA.s 			page 179


 8770 0265 00       		.byte	0
 8771 0266 2D       		.uleb128 0x2d
 8772 0267 34       		.uleb128 0x34
 8773 0268 00       		.byte	0
 8774 0269 03       		.uleb128 0x3
 8775 026a 0E       		.uleb128 0xe
 8776 026b 3A       		.uleb128 0x3a
 8777 026c 0B       		.uleb128 0xb
 8778 026d 3B       		.uleb128 0x3b
 8779 026e 0B       		.uleb128 0xb
 8780 026f 49       		.uleb128 0x49
 8781 0270 13       		.uleb128 0x13
 8782 0271 00       		.byte	0
 8783 0272 00       		.byte	0
 8784 0273 2E       		.uleb128 0x2e
 8785 0274 34       		.uleb128 0x34
 8786 0275 00       		.byte	0
 8787 0276 03       		.uleb128 0x3
 8788 0277 0E       		.uleb128 0xe
 8789 0278 3A       		.uleb128 0x3a
 8790 0279 0B       		.uleb128 0xb
 8791 027a 3B       		.uleb128 0x3b
 8792 027b 0B       		.uleb128 0xb
 8793 027c 49       		.uleb128 0x49
 8794 027d 13       		.uleb128 0x13
 8795 027e 02       		.uleb128 0x2
 8796 027f 18       		.uleb128 0x18
 8797 0280 00       		.byte	0
 8798 0281 00       		.byte	0
 8799 0282 2F       		.uleb128 0x2f
 8800 0283 2E       		.uleb128 0x2e
 8801 0284 00       		.byte	0
 8802 0285 3F       		.uleb128 0x3f
 8803 0286 19       		.uleb128 0x19
 8804 0287 3C       		.uleb128 0x3c
 8805 0288 19       		.uleb128 0x19
 8806 0289 6E       		.uleb128 0x6e
 8807 028a 0E       		.uleb128 0xe
 8808 028b 03       		.uleb128 0x3
 8809 028c 0E       		.uleb128 0xe
 8810 028d 3A       		.uleb128 0x3a
 8811 028e 0B       		.uleb128 0xb
 8812 028f 3B       		.uleb128 0x3b
 8813 0290 0B       		.uleb128 0xb
 8814 0291 00       		.byte	0
 8815 0292 00       		.byte	0
 8816 0293 30       		.uleb128 0x30
 8817 0294 2E       		.uleb128 0x2e
 8818 0295 00       		.byte	0
 8819 0296 3F       		.uleb128 0x3f
 8820 0297 19       		.uleb128 0x19
 8821 0298 3C       		.uleb128 0x3c
 8822 0299 19       		.uleb128 0x19
 8823 029a 6E       		.uleb128 0x6e
 8824 029b 0E       		.uleb128 0xe
 8825 029c 03       		.uleb128 0x3
 8826 029d 0E       		.uleb128 0xe
ARM GAS  C:\Users\Phuong\AppData\Local\Temp\ccPPbPWA.s 			page 180


 8827 029e 00       		.byte	0
 8828 029f 00       		.byte	0
 8829 02a0 00       		.byte	0
 8830              		.section	.debug_loc,"",%progbits
 8831              	.Ldebug_loc0:
 8832              	.LLST0:
 8833 0000 00000000 		.4byte	.LVL0
 8834 0004 16000000 		.4byte	.LVL3
 8835 0008 0100     		.2byte	0x1
 8836 000a 50       		.byte	0x50
 8837 000b 16000000 		.4byte	.LVL3
 8838 000f 1A000000 		.4byte	.LFE1
 8839 0013 0400     		.2byte	0x4
 8840 0015 F3       		.byte	0xf3
 8841 0016 01       		.uleb128 0x1
 8842 0017 50       		.byte	0x50
 8843 0018 9F       		.byte	0x9f
 8844 0019 00000000 		.4byte	0
 8845 001d 00000000 		.4byte	0
 8846              	.LLST1:
 8847 0021 00000000 		.4byte	.LVL0
 8848 0025 08000000 		.4byte	.LVL1
 8849 0029 0100     		.2byte	0x1
 8850 002b 51       		.byte	0x51
 8851 002c 08000000 		.4byte	.LVL1
 8852 0030 1A000000 		.4byte	.LFE1
 8853 0034 0400     		.2byte	0x4
 8854 0036 F3       		.byte	0xf3
 8855 0037 01       		.uleb128 0x1
 8856 0038 51       		.byte	0x51
 8857 0039 9F       		.byte	0x9f
 8858 003a 00000000 		.4byte	0
 8859 003e 00000000 		.4byte	0
 8860              	.LLST2:
 8861 0042 0C000000 		.4byte	.LVL2
 8862 0046 17000000 		.4byte	.LVL4-1
 8863 004a 0100     		.2byte	0x1
 8864 004c 51       		.byte	0x51
 8865 004d 00000000 		.4byte	0
 8866 0051 00000000 		.4byte	0
 8867              	.LLST3:
 8868 0055 00000000 		.4byte	.LVL5
 8869 0059 0A000000 		.4byte	.LVL6
 8870 005d 0100     		.2byte	0x1
 8871 005f 50       		.byte	0x50
 8872 0060 0A000000 		.4byte	.LVL6
 8873 0064 0E000000 		.4byte	.LFE2
 8874 0068 0400     		.2byte	0x4
 8875 006a F3       		.byte	0xf3
 8876 006b 01       		.uleb128 0x1
 8877 006c 50       		.byte	0x50
 8878 006d 9F       		.byte	0x9f
 8879 006e 00000000 		.4byte	0
 8880 0072 00000000 		.4byte	0
 8881              	.LLST4:
 8882 0076 00000000 		.4byte	.LVL5
 8883 007a 0B000000 		.4byte	.LVL7-1
ARM GAS  C:\Users\Phuong\AppData\Local\Temp\ccPPbPWA.s 			page 181


 8884 007e 0100     		.2byte	0x1
 8885 0080 51       		.byte	0x51
 8886 0081 0B000000 		.4byte	.LVL7-1
 8887 0085 0E000000 		.4byte	.LFE2
 8888 0089 0400     		.2byte	0x4
 8889 008b F3       		.byte	0xf3
 8890 008c 01       		.uleb128 0x1
 8891 008d 51       		.byte	0x51
 8892 008e 9F       		.byte	0x9f
 8893 008f 00000000 		.4byte	0
 8894 0093 00000000 		.4byte	0
 8895              	.LLST5:
 8896 0097 00000000 		.4byte	.LVL8
 8897 009b 19000000 		.4byte	.LVL13-1
 8898 009f 0100     		.2byte	0x1
 8899 00a1 50       		.byte	0x50
 8900 00a2 19000000 		.4byte	.LVL13-1
 8901 00a6 1C000000 		.4byte	.LVL14
 8902 00aa 0100     		.2byte	0x1
 8903 00ac 54       		.byte	0x54
 8904 00ad 1C000000 		.4byte	.LVL14
 8905 00b1 1F000000 		.4byte	.LVL15-1
 8906 00b5 0100     		.2byte	0x1
 8907 00b7 50       		.byte	0x50
 8908 00b8 1F000000 		.4byte	.LVL15-1
 8909 00bc 68000000 		.4byte	.LVL22
 8910 00c0 0100     		.2byte	0x1
 8911 00c2 54       		.byte	0x54
 8912 00c3 68000000 		.4byte	.LVL22
 8913 00c7 78000000 		.4byte	.LFE6
 8914 00cb 0400     		.2byte	0x4
 8915 00cd F3       		.byte	0xf3
 8916 00ce 01       		.uleb128 0x1
 8917 00cf 50       		.byte	0x50
 8918 00d0 9F       		.byte	0x9f
 8919 00d1 00000000 		.4byte	0
 8920 00d5 00000000 		.4byte	0
 8921              	.LLST6:
 8922 00d9 00000000 		.4byte	.LVL8
 8923 00dd 16000000 		.4byte	.LVL12
 8924 00e1 0100     		.2byte	0x1
 8925 00e3 51       		.byte	0x51
 8926 00e4 16000000 		.4byte	.LVL12
 8927 00e8 1C000000 		.4byte	.LVL14
 8928 00ec 0400     		.2byte	0x4
 8929 00ee F3       		.byte	0xf3
 8930 00ef 01       		.uleb128 0x1
 8931 00f0 51       		.byte	0x51
 8932 00f1 9F       		.byte	0x9f
 8933 00f2 1C000000 		.4byte	.LVL14
 8934 00f6 1F000000 		.4byte	.LVL15-1
 8935 00fa 0100     		.2byte	0x1
 8936 00fc 51       		.byte	0x51
 8937 00fd 1F000000 		.4byte	.LVL15-1
 8938 0101 78000000 		.4byte	.LFE6
 8939 0105 0400     		.2byte	0x4
 8940 0107 F3       		.byte	0xf3
ARM GAS  C:\Users\Phuong\AppData\Local\Temp\ccPPbPWA.s 			page 182


 8941 0108 01       		.uleb128 0x1
 8942 0109 51       		.byte	0x51
 8943 010a 9F       		.byte	0x9f
 8944 010b 00000000 		.4byte	0
 8945 010f 00000000 		.4byte	0
 8946              	.LLST7:
 8947 0113 00000000 		.4byte	.LVL8
 8948 0117 0C000000 		.4byte	.LVL10
 8949 011b 0100     		.2byte	0x1
 8950 011d 52       		.byte	0x52
 8951 011e 0C000000 		.4byte	.LVL10
 8952 0122 68000000 		.4byte	.LVL23
 8953 0126 0100     		.2byte	0x1
 8954 0128 55       		.byte	0x55
 8955 0129 68000000 		.4byte	.LVL23
 8956 012d 78000000 		.4byte	.LFE6
 8957 0131 0400     		.2byte	0x4
 8958 0133 F3       		.byte	0xf3
 8959 0134 01       		.uleb128 0x1
 8960 0135 52       		.byte	0x52
 8961 0136 9F       		.byte	0x9f
 8962 0137 00000000 		.4byte	0
 8963 013b 00000000 		.4byte	0
 8964              	.LLST8:
 8965 013f 00000000 		.4byte	.LVL8
 8966 0143 0E000000 		.4byte	.LVL11
 8967 0147 0100     		.2byte	0x1
 8968 0149 53       		.byte	0x53
 8969 014a 0E000000 		.4byte	.LVL11
 8970 014e 68000000 		.4byte	.LVL24
 8971 0152 0100     		.2byte	0x1
 8972 0154 56       		.byte	0x56
 8973 0155 68000000 		.4byte	.LVL24
 8974 0159 78000000 		.4byte	.LFE6
 8975 015d 0400     		.2byte	0x4
 8976 015f F3       		.byte	0xf3
 8977 0160 01       		.uleb128 0x1
 8978 0161 53       		.byte	0x53
 8979 0162 9F       		.byte	0x9f
 8980 0163 00000000 		.4byte	0
 8981 0167 00000000 		.4byte	0
 8982              	.LLST9:
 8983 016b 0A000000 		.4byte	.LVL9
 8984 016f 19000000 		.4byte	.LVL13-1
 8985 0173 0100     		.2byte	0x1
 8986 0175 50       		.byte	0x50
 8987 0176 19000000 		.4byte	.LVL13-1
 8988 017a 1C000000 		.4byte	.LVL14
 8989 017e 0100     		.2byte	0x1
 8990 0180 54       		.byte	0x54
 8991 0181 1C000000 		.4byte	.LVL14
 8992 0185 1F000000 		.4byte	.LVL15-1
 8993 0189 0100     		.2byte	0x1
 8994 018b 50       		.byte	0x50
 8995 018c 1F000000 		.4byte	.LVL15-1
 8996 0190 68000000 		.4byte	.LVL22
 8997 0194 0100     		.2byte	0x1
ARM GAS  C:\Users\Phuong\AppData\Local\Temp\ccPPbPWA.s 			page 183


 8998 0196 54       		.byte	0x54
 8999 0197 68000000 		.4byte	.LVL22
 9000 019b 78000000 		.4byte	.LFE6
 9001 019f 0400     		.2byte	0x4
 9002 01a1 F3       		.byte	0xf3
 9003 01a2 01       		.uleb128 0x1
 9004 01a3 50       		.byte	0x50
 9005 01a4 9F       		.byte	0x9f
 9006 01a5 00000000 		.4byte	0
 9007 01a9 00000000 		.4byte	0
 9008              	.LLST10:
 9009 01ad 22000000 		.4byte	.LVL16
 9010 01b1 3C000000 		.4byte	.LVL17
 9011 01b5 0100     		.2byte	0x1
 9012 01b7 50       		.byte	0x50
 9013 01b8 3C000000 		.4byte	.LVL17
 9014 01bc 60000000 		.4byte	.LVL21
 9015 01c0 0100     		.2byte	0x1
 9016 01c2 57       		.byte	0x57
 9017 01c3 00000000 		.4byte	0
 9018 01c7 00000000 		.4byte	0
 9019              	.LLST11:
 9020 01cb 00000000 		.4byte	.LVL25
 9021 01cf 11000000 		.4byte	.LVL27-1
 9022 01d3 0100     		.2byte	0x1
 9023 01d5 50       		.byte	0x50
 9024 01d6 11000000 		.4byte	.LVL27-1
 9025 01da 14000000 		.4byte	.LVL28
 9026 01de 0100     		.2byte	0x1
 9027 01e0 54       		.byte	0x54
 9028 01e1 14000000 		.4byte	.LVL28
 9029 01e5 2E000000 		.4byte	.LVL31
 9030 01e9 0400     		.2byte	0x4
 9031 01eb F3       		.byte	0xf3
 9032 01ec 01       		.uleb128 0x1
 9033 01ed 50       		.byte	0x50
 9034 01ee 9F       		.byte	0x9f
 9035 01ef 2E000000 		.4byte	.LVL31
 9036 01f3 30000000 		.4byte	.LVL32
 9037 01f7 0100     		.2byte	0x1
 9038 01f9 50       		.byte	0x50
 9039 01fa 30000000 		.4byte	.LVL32
 9040 01fe 3E000000 		.4byte	.LVL36
 9041 0202 0100     		.2byte	0x1
 9042 0204 54       		.byte	0x54
 9043 0205 3E000000 		.4byte	.LVL36
 9044 0209 58000000 		.4byte	.LVL39
 9045 020d 0400     		.2byte	0x4
 9046 020f F3       		.byte	0xf3
 9047 0210 01       		.uleb128 0x1
 9048 0211 50       		.byte	0x50
 9049 0212 9F       		.byte	0x9f
 9050 0213 58000000 		.4byte	.LVL39
 9051 0217 78000000 		.4byte	.LVL45
 9052 021b 0100     		.2byte	0x1
 9053 021d 54       		.byte	0x54
 9054 021e 78000000 		.4byte	.LVL45
ARM GAS  C:\Users\Phuong\AppData\Local\Temp\ccPPbPWA.s 			page 184


 9055 0222 94000000 		.4byte	.LFE3
 9056 0226 0400     		.2byte	0x4
 9057 0228 F3       		.byte	0xf3
 9058 0229 01       		.uleb128 0x1
 9059 022a 50       		.byte	0x50
 9060 022b 9F       		.byte	0x9f
 9061 022c 00000000 		.4byte	0
 9062 0230 00000000 		.4byte	0
 9063              	.LLST12:
 9064 0234 00000000 		.4byte	.LVL25
 9065 0238 11000000 		.4byte	.LVL27-1
 9066 023c 0100     		.2byte	0x1
 9067 023e 51       		.byte	0x51
 9068 023f 11000000 		.4byte	.LVL27-1
 9069 0243 2E000000 		.4byte	.LVL31
 9070 0247 0100     		.2byte	0x1
 9071 0249 55       		.byte	0x55
 9072 024a 2E000000 		.4byte	.LVL31
 9073 024e 33000000 		.4byte	.LVL33-1
 9074 0252 0100     		.2byte	0x1
 9075 0254 51       		.byte	0x51
 9076 0255 33000000 		.4byte	.LVL33-1
 9077 0259 80000000 		.4byte	.LVL49
 9078 025d 0100     		.2byte	0x1
 9079 025f 55       		.byte	0x55
 9080 0260 80000000 		.4byte	.LVL49
 9081 0264 94000000 		.4byte	.LFE3
 9082 0268 0400     		.2byte	0x4
 9083 026a F3       		.byte	0xf3
 9084 026b 01       		.uleb128 0x1
 9085 026c 51       		.byte	0x51
 9086 026d 9F       		.byte	0x9f
 9087 026e 00000000 		.4byte	0
 9088 0272 00000000 		.4byte	0
 9089              	.LLST13:
 9090 0276 0E000000 		.4byte	.LVL26
 9091 027a 2E000000 		.4byte	.LVL31
 9092 027e 0300     		.2byte	0x3
 9093 0280 08       		.byte	0x8
 9094 0281 51       		.byte	0x51
 9095 0282 9F       		.byte	0x9f
 9096 0283 38000000 		.4byte	.LVL34
 9097 0287 58000000 		.4byte	.LVL39
 9098 028b 0300     		.2byte	0x3
 9099 028d 08       		.byte	0x8
 9100 028e 5A       		.byte	0x5a
 9101 028f 9F       		.byte	0x9f
 9102 0290 6C000000 		.4byte	.LVL42
 9103 0294 70000000 		.4byte	.LVL43
 9104 0298 0200     		.2byte	0x2
 9105 029a 30       		.byte	0x30
 9106 029b 9F       		.byte	0x9f
 9107 029c 74000000 		.4byte	.LVL44
 9108 02a0 78000000 		.4byte	.LVL45
 9109 02a4 0200     		.2byte	0x2
 9110 02a6 30       		.byte	0x30
 9111 02a7 9F       		.byte	0x9f
ARM GAS  C:\Users\Phuong\AppData\Local\Temp\ccPPbPWA.s 			page 185


 9112 02a8 78000000 		.4byte	.LVL45
 9113 02ac 7C000000 		.4byte	.LVL47
 9114 02b0 0300     		.2byte	0x3
 9115 02b2 08       		.byte	0x8
 9116 02b3 51       		.byte	0x51
 9117 02b4 9F       		.byte	0x9f
 9118 02b5 7C000000 		.4byte	.LVL47
 9119 02b9 7E000000 		.4byte	.LVL48
 9120 02bd 0300     		.2byte	0x3
 9121 02bf 08       		.byte	0x8
 9122 02c0 5A       		.byte	0x5a
 9123 02c1 9F       		.byte	0x9f
 9124 02c2 7E000000 		.4byte	.LVL48
 9125 02c6 94000000 		.4byte	.LFE3
 9126 02ca 0100     		.2byte	0x1
 9127 02cc 50       		.byte	0x50
 9128 02cd 00000000 		.4byte	0
 9129 02d1 00000000 		.4byte	0
 9130              	.LLST14:
 9131 02d5 14000000 		.4byte	.LVL28
 9132 02d9 28000000 		.4byte	.LVL29
 9133 02dd 0100     		.2byte	0x1
 9134 02df 50       		.byte	0x50
 9135 02e0 28000000 		.4byte	.LVL29
 9136 02e4 2E000000 		.4byte	.LVL31
 9137 02e8 0100     		.2byte	0x1
 9138 02ea 54       		.byte	0x54
 9139 02eb 78000000 		.4byte	.LVL45
 9140 02ef 7A000000 		.4byte	.LVL46
 9141 02f3 0100     		.2byte	0x1
 9142 02f5 50       		.byte	0x50
 9143 02f6 7A000000 		.4byte	.LVL46
 9144 02fa 7C000000 		.4byte	.LVL47
 9145 02fe 0100     		.2byte	0x1
 9146 0300 54       		.byte	0x54
 9147 0301 00000000 		.4byte	0
 9148 0305 00000000 		.4byte	0
 9149              	.LLST15:
 9150 0309 34000000 		.4byte	.LVL33
 9151 030d 3B000000 		.4byte	.LVL35-1
 9152 0311 0100     		.2byte	0x1
 9153 0313 50       		.byte	0x50
 9154 0314 58000000 		.4byte	.LVL39
 9155 0318 5D000000 		.4byte	.LVL40-1
 9156 031c 0100     		.2byte	0x1
 9157 031e 50       		.byte	0x50
 9158 031f 00000000 		.4byte	0
 9159 0323 00000000 		.4byte	0
 9160              	.LLST16:
 9161 0327 3E000000 		.4byte	.LVL36
 9162 032b 52000000 		.4byte	.LVL37
 9163 032f 0100     		.2byte	0x1
 9164 0331 50       		.byte	0x50
 9165 0332 52000000 		.4byte	.LVL37
 9166 0336 58000000 		.4byte	.LVL39
 9167 033a 0100     		.2byte	0x1
 9168 033c 54       		.byte	0x54
ARM GAS  C:\Users\Phuong\AppData\Local\Temp\ccPPbPWA.s 			page 186


 9169 033d 7C000000 		.4byte	.LVL47
 9170 0341 7E000000 		.4byte	.LVL48
 9171 0345 0100     		.2byte	0x1
 9172 0347 50       		.byte	0x50
 9173 0348 00000000 		.4byte	0
 9174 034c 00000000 		.4byte	0
 9175              	.LLST17:
 9176 0350 00000000 		.4byte	.LVL50
 9177 0354 11000000 		.4byte	.LVL52-1
 9178 0358 0100     		.2byte	0x1
 9179 035a 50       		.byte	0x50
 9180 035b 11000000 		.4byte	.LVL52-1
 9181 035f 14000000 		.4byte	.LVL53
 9182 0363 0100     		.2byte	0x1
 9183 0365 54       		.byte	0x54
 9184 0366 14000000 		.4byte	.LVL53
 9185 036a 2E000000 		.4byte	.LVL56
 9186 036e 0400     		.2byte	0x4
 9187 0370 F3       		.byte	0xf3
 9188 0371 01       		.uleb128 0x1
 9189 0372 50       		.byte	0x50
 9190 0373 9F       		.byte	0x9f
 9191 0374 2E000000 		.4byte	.LVL56
 9192 0378 30000000 		.4byte	.LVL57
 9193 037c 0100     		.2byte	0x1
 9194 037e 50       		.byte	0x50
 9195 037f 30000000 		.4byte	.LVL57
 9196 0383 3E000000 		.4byte	.LVL61
 9197 0387 0100     		.2byte	0x1
 9198 0389 54       		.byte	0x54
 9199 038a 3E000000 		.4byte	.LVL61
 9200 038e 58000000 		.4byte	.LVL64
 9201 0392 0400     		.2byte	0x4
 9202 0394 F3       		.byte	0xf3
 9203 0395 01       		.uleb128 0x1
 9204 0396 50       		.byte	0x50
 9205 0397 9F       		.byte	0x9f
 9206 0398 58000000 		.4byte	.LVL64
 9207 039c 78000000 		.4byte	.LVL70
 9208 03a0 0100     		.2byte	0x1
 9209 03a2 54       		.byte	0x54
 9210 03a3 78000000 		.4byte	.LVL70
 9211 03a7 94000000 		.4byte	.LFE4
 9212 03ab 0400     		.2byte	0x4
 9213 03ad F3       		.byte	0xf3
 9214 03ae 01       		.uleb128 0x1
 9215 03af 50       		.byte	0x50
 9216 03b0 9F       		.byte	0x9f
 9217 03b1 00000000 		.4byte	0
 9218 03b5 00000000 		.4byte	0
 9219              	.LLST18:
 9220 03b9 00000000 		.4byte	.LVL50
 9221 03bd 11000000 		.4byte	.LVL52-1
 9222 03c1 0100     		.2byte	0x1
 9223 03c3 51       		.byte	0x51
 9224 03c4 11000000 		.4byte	.LVL52-1
 9225 03c8 2E000000 		.4byte	.LVL56
ARM GAS  C:\Users\Phuong\AppData\Local\Temp\ccPPbPWA.s 			page 187


 9226 03cc 0100     		.2byte	0x1
 9227 03ce 55       		.byte	0x55
 9228 03cf 2E000000 		.4byte	.LVL56
 9229 03d3 33000000 		.4byte	.LVL58-1
 9230 03d7 0100     		.2byte	0x1
 9231 03d9 51       		.byte	0x51
 9232 03da 33000000 		.4byte	.LVL58-1
 9233 03de 80000000 		.4byte	.LVL74
 9234 03e2 0100     		.2byte	0x1
 9235 03e4 55       		.byte	0x55
 9236 03e5 80000000 		.4byte	.LVL74
 9237 03e9 94000000 		.4byte	.LFE4
 9238 03ed 0400     		.2byte	0x4
 9239 03ef F3       		.byte	0xf3
 9240 03f0 01       		.uleb128 0x1
 9241 03f1 51       		.byte	0x51
 9242 03f2 9F       		.byte	0x9f
 9243 03f3 00000000 		.4byte	0
 9244 03f7 00000000 		.4byte	0
 9245              	.LLST19:
 9246 03fb 0E000000 		.4byte	.LVL51
 9247 03ff 2E000000 		.4byte	.LVL56
 9248 0403 0300     		.2byte	0x3
 9249 0405 08       		.byte	0x8
 9250 0406 73       		.byte	0x73
 9251 0407 9F       		.byte	0x9f
 9252 0408 38000000 		.4byte	.LVL59
 9253 040c 58000000 		.4byte	.LVL64
 9254 0410 0300     		.2byte	0x3
 9255 0412 08       		.byte	0x8
 9256 0413 7C       		.byte	0x7c
 9257 0414 9F       		.byte	0x9f
 9258 0415 6C000000 		.4byte	.LVL67
 9259 0419 70000000 		.4byte	.LVL68
 9260 041d 0200     		.2byte	0x2
 9261 041f 30       		.byte	0x30
 9262 0420 9F       		.byte	0x9f
 9263 0421 74000000 		.4byte	.LVL69
 9264 0425 78000000 		.4byte	.LVL70
 9265 0429 0200     		.2byte	0x2
 9266 042b 30       		.byte	0x30
 9267 042c 9F       		.byte	0x9f
 9268 042d 78000000 		.4byte	.LVL70
 9269 0431 7C000000 		.4byte	.LVL72
 9270 0435 0300     		.2byte	0x3
 9271 0437 08       		.byte	0x8
 9272 0438 73       		.byte	0x73
 9273 0439 9F       		.byte	0x9f
 9274 043a 7C000000 		.4byte	.LVL72
 9275 043e 7E000000 		.4byte	.LVL73
 9276 0442 0300     		.2byte	0x3
 9277 0444 08       		.byte	0x8
 9278 0445 7C       		.byte	0x7c
 9279 0446 9F       		.byte	0x9f
 9280 0447 7E000000 		.4byte	.LVL73
 9281 044b 94000000 		.4byte	.LFE4
 9282 044f 0100     		.2byte	0x1
ARM GAS  C:\Users\Phuong\AppData\Local\Temp\ccPPbPWA.s 			page 188


 9283 0451 50       		.byte	0x50
 9284 0452 00000000 		.4byte	0
 9285 0456 00000000 		.4byte	0
 9286              	.LLST20:
 9287 045a 14000000 		.4byte	.LVL53
 9288 045e 28000000 		.4byte	.LVL54
 9289 0462 0100     		.2byte	0x1
 9290 0464 50       		.byte	0x50
 9291 0465 28000000 		.4byte	.LVL54
 9292 0469 2E000000 		.4byte	.LVL56
 9293 046d 0100     		.2byte	0x1
 9294 046f 54       		.byte	0x54
 9295 0470 78000000 		.4byte	.LVL70
 9296 0474 7A000000 		.4byte	.LVL71
 9297 0478 0100     		.2byte	0x1
 9298 047a 50       		.byte	0x50
 9299 047b 7A000000 		.4byte	.LVL71
 9300 047f 7C000000 		.4byte	.LVL72
 9301 0483 0100     		.2byte	0x1
 9302 0485 54       		.byte	0x54
 9303 0486 00000000 		.4byte	0
 9304 048a 00000000 		.4byte	0
 9305              	.LLST21:
 9306 048e 34000000 		.4byte	.LVL58
 9307 0492 3B000000 		.4byte	.LVL60-1
 9308 0496 0100     		.2byte	0x1
 9309 0498 50       		.byte	0x50
 9310 0499 58000000 		.4byte	.LVL64
 9311 049d 5D000000 		.4byte	.LVL65-1
 9312 04a1 0100     		.2byte	0x1
 9313 04a3 50       		.byte	0x50
 9314 04a4 00000000 		.4byte	0
 9315 04a8 00000000 		.4byte	0
 9316              	.LLST22:
 9317 04ac 3E000000 		.4byte	.LVL61
 9318 04b0 52000000 		.4byte	.LVL62
 9319 04b4 0100     		.2byte	0x1
 9320 04b6 50       		.byte	0x50
 9321 04b7 52000000 		.4byte	.LVL62
 9322 04bb 58000000 		.4byte	.LVL64
 9323 04bf 0100     		.2byte	0x1
 9324 04c1 54       		.byte	0x54
 9325 04c2 7C000000 		.4byte	.LVL72
 9326 04c6 7E000000 		.4byte	.LVL73
 9327 04ca 0100     		.2byte	0x1
 9328 04cc 50       		.byte	0x50
 9329 04cd 00000000 		.4byte	0
 9330 04d1 00000000 		.4byte	0
 9331              	.LLST23:
 9332 04d5 00000000 		.4byte	.LVL75
 9333 04d9 0D000000 		.4byte	.LVL76-1
 9334 04dd 0100     		.2byte	0x1
 9335 04df 50       		.byte	0x50
 9336 04e0 0D000000 		.4byte	.LVL76-1
 9337 04e4 3A000000 		.4byte	.LVL83
 9338 04e8 0400     		.2byte	0x4
 9339 04ea F3       		.byte	0xf3
ARM GAS  C:\Users\Phuong\AppData\Local\Temp\ccPPbPWA.s 			page 189


 9340 04eb 01       		.uleb128 0x1
 9341 04ec 50       		.byte	0x50
 9342 04ed 9F       		.byte	0x9f
 9343 04ee 3A000000 		.4byte	.LVL83
 9344 04f2 3D000000 		.4byte	.LVL84-1
 9345 04f6 0100     		.2byte	0x1
 9346 04f8 50       		.byte	0x50
 9347 04f9 3D000000 		.4byte	.LVL84-1
 9348 04fd 84000000 		.4byte	.LFE5
 9349 0501 0400     		.2byte	0x4
 9350 0503 F3       		.byte	0xf3
 9351 0504 01       		.uleb128 0x1
 9352 0505 50       		.byte	0x50
 9353 0506 9F       		.byte	0x9f
 9354 0507 00000000 		.4byte	0
 9355 050b 00000000 		.4byte	0
 9356              	.LLST24:
 9357 050f 00000000 		.4byte	.LVL75
 9358 0513 0D000000 		.4byte	.LVL76-1
 9359 0517 0100     		.2byte	0x1
 9360 0519 51       		.byte	0x51
 9361 051a 0D000000 		.4byte	.LVL76-1
 9362 051e 22000000 		.4byte	.LVL80
 9363 0522 0100     		.2byte	0x1
 9364 0524 55       		.byte	0x55
 9365 0525 22000000 		.4byte	.LVL80
 9366 0529 3A000000 		.4byte	.LVL83
 9367 052d 0400     		.2byte	0x4
 9368 052f F3       		.byte	0xf3
 9369 0530 01       		.uleb128 0x1
 9370 0531 51       		.byte	0x51
 9371 0532 9F       		.byte	0x9f
 9372 0533 3A000000 		.4byte	.LVL83
 9373 0537 3D000000 		.4byte	.LVL84-1
 9374 053b 0100     		.2byte	0x1
 9375 053d 51       		.byte	0x51
 9376 053e 3D000000 		.4byte	.LVL84-1
 9377 0542 54000000 		.4byte	.LVL88
 9378 0546 0100     		.2byte	0x1
 9379 0548 55       		.byte	0x55
 9380 0549 54000000 		.4byte	.LVL88
 9381 054d 84000000 		.4byte	.LFE5
 9382 0551 0400     		.2byte	0x4
 9383 0553 F3       		.byte	0xf3
 9384 0554 01       		.uleb128 0x1
 9385 0555 51       		.byte	0x51
 9386 0556 9F       		.byte	0x9f
 9387 0557 00000000 		.4byte	0
 9388 055b 00000000 		.4byte	0
 9389              	.LLST25:
 9390 055f 00000000 		.4byte	.LVL75
 9391 0563 0D000000 		.4byte	.LVL76-1
 9392 0567 0100     		.2byte	0x1
 9393 0569 52       		.byte	0x52
 9394 056a 0D000000 		.4byte	.LVL76-1
 9395 056e 1A000000 		.4byte	.LVL78
 9396 0572 0100     		.2byte	0x1
ARM GAS  C:\Users\Phuong\AppData\Local\Temp\ccPPbPWA.s 			page 190


 9397 0574 54       		.byte	0x54
 9398 0575 1A000000 		.4byte	.LVL78
 9399 0579 3A000000 		.4byte	.LVL83
 9400 057d 0400     		.2byte	0x4
 9401 057f F3       		.byte	0xf3
 9402 0580 01       		.uleb128 0x1
 9403 0581 52       		.byte	0x52
 9404 0582 9F       		.byte	0x9f
 9405 0583 3A000000 		.4byte	.LVL83
 9406 0587 3D000000 		.4byte	.LVL84-1
 9407 058b 0100     		.2byte	0x1
 9408 058d 52       		.byte	0x52
 9409 058e 3D000000 		.4byte	.LVL84-1
 9410 0592 4C000000 		.4byte	.LVL86
 9411 0596 0100     		.2byte	0x1
 9412 0598 54       		.byte	0x54
 9413 0599 4C000000 		.4byte	.LVL86
 9414 059d 84000000 		.4byte	.LFE5
 9415 05a1 0400     		.2byte	0x4
 9416 05a3 F3       		.byte	0xf3
 9417 05a4 01       		.uleb128 0x1
 9418 05a5 52       		.byte	0x52
 9419 05a6 9F       		.byte	0x9f
 9420 05a7 00000000 		.4byte	0
 9421 05ab 00000000 		.4byte	0
 9422              	.LLST26:
 9423 05af 1A000000 		.4byte	.LVL78
 9424 05b3 1F000000 		.4byte	.LVL79-1
 9425 05b7 0100     		.2byte	0x1
 9426 05b9 50       		.byte	0x50
 9427 05ba 1F000000 		.4byte	.LVL79-1
 9428 05be 3A000000 		.4byte	.LVL83
 9429 05c2 0100     		.2byte	0x1
 9430 05c4 54       		.byte	0x54
 9431 05c5 4C000000 		.4byte	.LVL86
 9432 05c9 51000000 		.4byte	.LVL87-1
 9433 05cd 0100     		.2byte	0x1
 9434 05cf 50       		.byte	0x50
 9435 05d0 51000000 		.4byte	.LVL87-1
 9436 05d4 6E000000 		.4byte	.LVL91
 9437 05d8 0100     		.2byte	0x1
 9438 05da 54       		.byte	0x54
 9439 05db 6E000000 		.4byte	.LVL91
 9440 05df 84000000 		.4byte	.LFE5
 9441 05e3 0100     		.2byte	0x1
 9442 05e5 50       		.byte	0x50
 9443 05e6 00000000 		.4byte	0
 9444 05ea 00000000 		.4byte	0
 9445              	.LLST27:
 9446 05ee 22000000 		.4byte	.LVL80
 9447 05f2 36000000 		.4byte	.LVL81
 9448 05f6 0100     		.2byte	0x1
 9449 05f8 50       		.byte	0x50
 9450 05f9 36000000 		.4byte	.LVL81
 9451 05fd 3A000000 		.4byte	.LVL83
 9452 0601 0100     		.2byte	0x1
 9453 0603 55       		.byte	0x55
ARM GAS  C:\Users\Phuong\AppData\Local\Temp\ccPPbPWA.s 			page 191


 9454 0604 00000000 		.4byte	0
 9455 0608 00000000 		.4byte	0
 9456              	.LLST28:
 9457 060c 54000000 		.4byte	.LVL88
 9458 0610 68000000 		.4byte	.LVL89
 9459 0614 0100     		.2byte	0x1
 9460 0616 50       		.byte	0x50
 9461 0617 68000000 		.4byte	.LVL89
 9462 061b 6A000000 		.4byte	.LVL90
 9463 061f 0100     		.2byte	0x1
 9464 0621 55       		.byte	0x55
 9465 0622 00000000 		.4byte	0
 9466 0626 00000000 		.4byte	0
 9467              	.LLST29:
 9468 062a 00000000 		.4byte	.LVL92
 9469 062e 10000000 		.4byte	.LVL94
 9470 0632 0100     		.2byte	0x1
 9471 0634 50       		.byte	0x50
 9472 0635 10000000 		.4byte	.LVL94
 9473 0639 8A000000 		.4byte	.LVL114
 9474 063d 0100     		.2byte	0x1
 9475 063f 54       		.byte	0x54
 9476 0640 8A000000 		.4byte	.LVL114
 9477 0644 A4000000 		.4byte	.LFE7
 9478 0648 0400     		.2byte	0x4
 9479 064a F3       		.byte	0xf3
 9480 064b 01       		.uleb128 0x1
 9481 064c 50       		.byte	0x50
 9482 064d 9F       		.byte	0x9f
 9483 064e 00000000 		.4byte	0
 9484 0652 00000000 		.4byte	0
 9485              	.LLST30:
 9486 0656 00000000 		.4byte	.LVL92
 9487 065a 13000000 		.4byte	.LVL95-1
 9488 065e 0100     		.2byte	0x1
 9489 0660 51       		.byte	0x51
 9490 0661 13000000 		.4byte	.LVL95-1
 9491 0665 A4000000 		.4byte	.LFE7
 9492 0669 0400     		.2byte	0x4
 9493 066b F3       		.byte	0xf3
 9494 066c 01       		.uleb128 0x1
 9495 066d 51       		.byte	0x51
 9496 066e 9F       		.byte	0x9f
 9497 066f 00000000 		.4byte	0
 9498 0673 00000000 		.4byte	0
 9499              	.LLST31:
 9500 0677 00000000 		.4byte	.LVL92
 9501 067b 0A000000 		.4byte	.LVL93
 9502 067f 0100     		.2byte	0x1
 9503 0681 52       		.byte	0x52
 9504 0682 0A000000 		.4byte	.LVL93
 9505 0686 36000000 		.4byte	.LVL101
 9506 068a 0100     		.2byte	0x1
 9507 068c 55       		.byte	0x55
 9508 068d 36000000 		.4byte	.LVL101
 9509 0691 54000000 		.4byte	.LVL104
 9510 0695 0400     		.2byte	0x4
ARM GAS  C:\Users\Phuong\AppData\Local\Temp\ccPPbPWA.s 			page 192


 9511 0697 F3       		.byte	0xf3
 9512 0698 01       		.uleb128 0x1
 9513 0699 52       		.byte	0x52
 9514 069a 9F       		.byte	0x9f
 9515 069b 54000000 		.4byte	.LVL104
 9516 069f 5C000000 		.4byte	.LVL106
 9517 06a3 0100     		.2byte	0x1
 9518 06a5 55       		.byte	0x55
 9519 06a6 5C000000 		.4byte	.LVL106
 9520 06aa A4000000 		.4byte	.LFE7
 9521 06ae 0400     		.2byte	0x4
 9522 06b0 F3       		.byte	0xf3
 9523 06b1 01       		.uleb128 0x1
 9524 06b2 52       		.byte	0x52
 9525 06b3 9F       		.byte	0x9f
 9526 06b4 00000000 		.4byte	0
 9527 06b8 00000000 		.4byte	0
 9528              	.LLST32:
 9529 06bc 30000000 		.4byte	.LVL99
 9530 06c0 54000000 		.4byte	.LVL104
 9531 06c4 0300     		.2byte	0x3
 9532 06c6 08       		.byte	0x8
 9533 06c7 DC       		.byte	0xdc
 9534 06c8 9F       		.byte	0x9f
 9535 06c9 82000000 		.4byte	.LVL111
 9536 06cd 86000000 		.4byte	.LVL112
 9537 06d1 0200     		.2byte	0x2
 9538 06d3 30       		.byte	0x30
 9539 06d4 9F       		.byte	0x9f
 9540 06d5 86000000 		.4byte	.LVL112
 9541 06d9 88000000 		.4byte	.LVL113
 9542 06dd 0300     		.2byte	0x3
 9543 06df 08       		.byte	0x8
 9544 06e0 DC       		.byte	0xdc
 9545 06e1 9F       		.byte	0x9f
 9546 06e2 88000000 		.4byte	.LVL113
 9547 06e6 A4000000 		.4byte	.LFE7
 9548 06ea 0100     		.2byte	0x1
 9549 06ec 50       		.byte	0x50
 9550 06ed 00000000 		.4byte	0
 9551 06f1 00000000 		.4byte	0
 9552              	.LLST33:
 9553 06f5 16000000 		.4byte	.LVL96
 9554 06f9 22000000 		.4byte	.LVL97
 9555 06fd 0100     		.2byte	0x1
 9556 06ff 50       		.byte	0x50
 9557 0700 22000000 		.4byte	.LVL97
 9558 0704 25000000 		.4byte	.LVL98-1
 9559 0708 0100     		.2byte	0x1
 9560 070a 52       		.byte	0x52
 9561 070b 00000000 		.4byte	0
 9562 070f 00000000 		.4byte	0
 9563              	.LLST34:
 9564 0713 36000000 		.4byte	.LVL101
 9565 0717 4E000000 		.4byte	.LVL102
 9566 071b 0100     		.2byte	0x1
 9567 071d 50       		.byte	0x50
ARM GAS  C:\Users\Phuong\AppData\Local\Temp\ccPPbPWA.s 			page 193


 9568 071e 4E000000 		.4byte	.LVL102
 9569 0722 54000000 		.4byte	.LVL104
 9570 0726 0100     		.2byte	0x1
 9571 0728 55       		.byte	0x55
 9572 0729 86000000 		.4byte	.LVL112
 9573 072d 88000000 		.4byte	.LVL113
 9574 0731 0100     		.2byte	0x1
 9575 0733 50       		.byte	0x50
 9576 0734 00000000 		.4byte	0
 9577 0738 00000000 		.4byte	0
 9578              	.LLST35:
 9579 073c 5C000000 		.4byte	.LVL106
 9580 0740 63000000 		.4byte	.LVL107-1
 9581 0744 0100     		.2byte	0x1
 9582 0746 50       		.byte	0x50
 9583 0747 63000000 		.4byte	.LVL107-1
 9584 074b 86000000 		.4byte	.LVL112
 9585 074f 0100     		.2byte	0x1
 9586 0751 55       		.byte	0x55
 9587 0752 00000000 		.4byte	0
 9588 0756 00000000 		.4byte	0
 9589              	.LLST36:
 9590 075a 66000000 		.4byte	.LVL108
 9591 075e 7E000000 		.4byte	.LVL109
 9592 0762 0100     		.2byte	0x1
 9593 0764 50       		.byte	0x50
 9594 0765 7E000000 		.4byte	.LVL109
 9595 0769 80000000 		.4byte	.LVL110
 9596 076d 0100     		.2byte	0x1
 9597 076f 56       		.byte	0x56
 9598 0770 00000000 		.4byte	0
 9599 0774 00000000 		.4byte	0
 9600              	.LLST37:
 9601 0778 00000000 		.4byte	.LVL115
 9602 077c 0C000000 		.4byte	.LVL116
 9603 0780 0100     		.2byte	0x1
 9604 0782 50       		.byte	0x50
 9605 0783 0C000000 		.4byte	.LVL116
 9606 0787 1A000000 		.4byte	.LVL121
 9607 078b 0100     		.2byte	0x1
 9608 078d 54       		.byte	0x54
 9609 078e 1A000000 		.4byte	.LVL121
 9610 0792 38000000 		.4byte	.LVL124
 9611 0796 0400     		.2byte	0x4
 9612 0798 F3       		.byte	0xf3
 9613 0799 01       		.uleb128 0x1
 9614 079a 50       		.byte	0x50
 9615 079b 9F       		.byte	0x9f
 9616 079c 38000000 		.4byte	.LVL124
 9617 07a0 8A010000 		.4byte	.LVL178
 9618 07a4 0100     		.2byte	0x1
 9619 07a6 54       		.byte	0x54
 9620 07a7 8A010000 		.4byte	.LVL178
 9621 07ab A8010000 		.4byte	.LVL181
 9622 07af 0400     		.2byte	0x4
 9623 07b1 F3       		.byte	0xf3
 9624 07b2 01       		.uleb128 0x1
ARM GAS  C:\Users\Phuong\AppData\Local\Temp\ccPPbPWA.s 			page 194


 9625 07b3 50       		.byte	0x50
 9626 07b4 9F       		.byte	0x9f
 9627 07b5 A8010000 		.4byte	.LVL181
 9628 07b9 AC010000 		.4byte	.LVL183
 9629 07bd 0100     		.2byte	0x1
 9630 07bf 54       		.byte	0x54
 9631 07c0 AC010000 		.4byte	.LVL183
 9632 07c4 EC010000 		.4byte	.LFE8
 9633 07c8 0400     		.2byte	0x4
 9634 07ca F3       		.byte	0xf3
 9635 07cb 01       		.uleb128 0x1
 9636 07cc 50       		.byte	0x50
 9637 07cd 9F       		.byte	0x9f
 9638 07ce 00000000 		.4byte	0
 9639 07d2 00000000 		.4byte	0
 9640              	.LLST38:
 9641 07d6 14000000 		.4byte	.LVL119
 9642 07da 38000000 		.4byte	.LVL124
 9643 07de 0300     		.2byte	0x3
 9644 07e0 08       		.byte	0x8
 9645 07e1 FF       		.byte	0xff
 9646 07e2 9F       		.byte	0x9f
 9647 07e3 72010000 		.4byte	.LVL174
 9648 07e7 84010000 		.4byte	.LVL176
 9649 07eb 0100     		.2byte	0x1
 9650 07ed 57       		.byte	0x57
 9651 07ee 84010000 		.4byte	.LVL176
 9652 07f2 A8010000 		.4byte	.LVL181
 9653 07f6 0400     		.2byte	0x4
 9654 07f8 0A       		.byte	0xa
 9655 07f9 4501     		.2byte	0x145
 9656 07fb 9F       		.byte	0x9f
 9657 07fc A8010000 		.4byte	.LVL181
 9658 0800 AA010000 		.4byte	.LVL182
 9659 0804 0100     		.2byte	0x1
 9660 0806 57       		.byte	0x57
 9661 0807 AC010000 		.4byte	.LVL183
 9662 080b B0010000 		.4byte	.LVL184
 9663 080f 0400     		.2byte	0x4
 9664 0811 0A       		.byte	0xa
 9665 0812 4501     		.2byte	0x145
 9666 0814 9F       		.byte	0x9f
 9667 0815 B0010000 		.4byte	.LVL184
 9668 0819 BE010000 		.4byte	.LVL187
 9669 081d 0100     		.2byte	0x1
 9670 081f 57       		.byte	0x57
 9671 0820 BE010000 		.4byte	.LVL187
 9672 0824 C0010000 		.4byte	.LVL188
 9673 0828 0300     		.2byte	0x3
 9674 082a 08       		.byte	0x8
 9675 082b FF       		.byte	0xff
 9676 082c 9F       		.byte	0x9f
 9677 082d C0010000 		.4byte	.LVL188
 9678 0831 C4010000 		.4byte	.LVL190
 9679 0835 0100     		.2byte	0x1
 9680 0837 57       		.byte	0x57
 9681 0838 C4010000 		.4byte	.LVL190
ARM GAS  C:\Users\Phuong\AppData\Local\Temp\ccPPbPWA.s 			page 195


 9682 083c EC010000 		.4byte	.LFE8
 9683 0840 0100     		.2byte	0x1
 9684 0842 50       		.byte	0x50
 9685 0843 00000000 		.4byte	0
 9686 0847 00000000 		.4byte	0
 9687              	.LLST39:
 9688 084b 14000000 		.4byte	.LVL119
 9689 084f 38000000 		.4byte	.LVL124
 9690 0853 0200     		.2byte	0x2
 9691 0855 30       		.byte	0x30
 9692 0856 9F       		.byte	0x9f
 9693 0857 5C000000 		.4byte	.LVL130
 9694 085b 61000000 		.4byte	.LVL131-1
 9695 085f 0100     		.2byte	0x1
 9696 0861 50       		.byte	0x50
 9697 0862 61000000 		.4byte	.LVL131-1
 9698 0866 82000000 		.4byte	.LVL136
 9699 086a 0100     		.2byte	0x1
 9700 086c 56       		.byte	0x56
 9701 086d EE000000 		.4byte	.LVL153
 9702 0871 F3000000 		.4byte	.LVL154-1
 9703 0875 0100     		.2byte	0x1
 9704 0877 50       		.byte	0x50
 9705 0878 F3000000 		.4byte	.LVL154-1
 9706 087c 14010000 		.4byte	.LVL159
 9707 0880 0100     		.2byte	0x1
 9708 0882 56       		.byte	0x56
 9709 0883 42010000 		.4byte	.LVL166
 9710 0887 46010000 		.4byte	.LVL167
 9711 088b 0100     		.2byte	0x1
 9712 088d 50       		.byte	0x50
 9713 088e 46010000 		.4byte	.LVL167
 9714 0892 4C010000 		.4byte	.LVL168
 9715 0896 0100     		.2byte	0x1
 9716 0898 56       		.byte	0x56
 9717 0899 5C010000 		.4byte	.LVL170
 9718 089d 60010000 		.4byte	.LVL171
 9719 08a1 0100     		.2byte	0x1
 9720 08a3 50       		.byte	0x50
 9721 08a4 60010000 		.4byte	.LVL171
 9722 08a8 66010000 		.4byte	.LVL172
 9723 08ac 0100     		.2byte	0x1
 9724 08ae 56       		.byte	0x56
 9725 08af 72010000 		.4byte	.LVL174
 9726 08b3 BE010000 		.4byte	.LVL187
 9727 08b7 0100     		.2byte	0x1
 9728 08b9 56       		.byte	0x56
 9729 08ba BE010000 		.4byte	.LVL187
 9730 08be C0010000 		.4byte	.LVL188
 9731 08c2 0200     		.2byte	0x2
 9732 08c4 30       		.byte	0x30
 9733 08c5 9F       		.byte	0x9f
 9734 08c6 00000000 		.4byte	0
 9735 08ca 00000000 		.4byte	0
 9736              	.LLST40:
 9737 08ce 12000000 		.4byte	.LVL118
 9738 08d2 17000000 		.4byte	.LVL120-1
ARM GAS  C:\Users\Phuong\AppData\Local\Temp\ccPPbPWA.s 			page 196


 9739 08d6 0100     		.2byte	0x1
 9740 08d8 50       		.byte	0x50
 9741 08d9 17000000 		.4byte	.LVL120-1
 9742 08dd 38000000 		.4byte	.LVL124
 9743 08e1 0100     		.2byte	0x1
 9744 08e3 55       		.byte	0x55
 9745 08e4 38000000 		.4byte	.LVL124
 9746 08e8 3A000000 		.4byte	.LVL125
 9747 08ec 0100     		.2byte	0x1
 9748 08ee 50       		.byte	0x50
 9749 08ef 3A000000 		.4byte	.LVL125
 9750 08f3 C4010000 		.4byte	.LVL189
 9751 08f7 0100     		.2byte	0x1
 9752 08f9 55       		.byte	0x55
 9753 08fa 00000000 		.4byte	0
 9754 08fe 00000000 		.4byte	0
 9755              	.LLST41:
 9756 0902 1A000000 		.4byte	.LVL121
 9757 0906 32000000 		.4byte	.LVL122
 9758 090a 0100     		.2byte	0x1
 9759 090c 50       		.byte	0x50
 9760 090d 32000000 		.4byte	.LVL122
 9761 0911 38000000 		.4byte	.LVL124
 9762 0915 0100     		.2byte	0x1
 9763 0917 54       		.byte	0x54
 9764 0918 BE010000 		.4byte	.LVL187
 9765 091c C0010000 		.4byte	.LVL188
 9766 0920 0100     		.2byte	0x1
 9767 0922 50       		.byte	0x50
 9768 0923 00000000 		.4byte	0
 9769 0927 00000000 		.4byte	0
 9770              	.LLST42:
 9771 092b 3E000000 		.4byte	.LVL126
 9772 092f 4A000000 		.4byte	.LVL127
 9773 0933 0100     		.2byte	0x1
 9774 0935 50       		.byte	0x50
 9775 0936 82000000 		.4byte	.LVL136
 9776 093a 88000000 		.4byte	.LVL137
 9777 093e 0100     		.2byte	0x1
 9778 0940 50       		.byte	0x50
 9779 0941 14010000 		.4byte	.LVL159
 9780 0945 16010000 		.4byte	.LVL160
 9781 0949 0100     		.2byte	0x1
 9782 094b 50       		.byte	0x50
 9783 094c 00000000 		.4byte	0
 9784 0950 00000000 		.4byte	0
 9785              	.LLST43:
 9786 0954 64000000 		.4byte	.LVL132
 9787 0958 7A000000 		.4byte	.LVL133
 9788 095c 0100     		.2byte	0x1
 9789 095e 50       		.byte	0x50
 9790 095f 7A000000 		.4byte	.LVL133
 9791 0963 7E000000 		.4byte	.LVL135
 9792 0967 0100     		.2byte	0x1
 9793 0969 57       		.byte	0x57
 9794 096a 46010000 		.4byte	.LVL167
 9795 096e 4C010000 		.4byte	.LVL168
ARM GAS  C:\Users\Phuong\AppData\Local\Temp\ccPPbPWA.s 			page 197


 9796 0972 0100     		.2byte	0x1
 9797 0974 50       		.byte	0x50
 9798 0975 00000000 		.4byte	0
 9799 0979 00000000 		.4byte	0
 9800              	.LLST44:
 9801 097d 8C000000 		.4byte	.LVL138
 9802 0981 93000000 		.4byte	.LVL139-1
 9803 0985 0100     		.2byte	0x1
 9804 0987 50       		.byte	0x50
 9805 0988 B6000000 		.4byte	.LVL144
 9806 098c BD000000 		.4byte	.LVL145-1
 9807 0990 0100     		.2byte	0x1
 9808 0992 50       		.byte	0x50
 9809 0993 E0000000 		.4byte	.LVL150
 9810 0997 E8000000 		.4byte	.LVL151
 9811 099b 0100     		.2byte	0x1
 9812 099d 50       		.byte	0x50
 9813 099e 00000000 		.4byte	0
 9814 09a2 00000000 		.4byte	0
 9815              	.LLST45:
 9816 09a6 96000000 		.4byte	.LVL140
 9817 09aa AC000000 		.4byte	.LVL141
 9818 09ae 0100     		.2byte	0x1
 9819 09b0 50       		.byte	0x50
 9820 09b1 AC000000 		.4byte	.LVL141
 9821 09b5 B0000000 		.4byte	.LVL143
 9822 09b9 0100     		.2byte	0x1
 9823 09bb 56       		.byte	0x56
 9824 09bc 4C010000 		.4byte	.LVL168
 9825 09c0 54010000 		.4byte	.LVL169
 9826 09c4 0100     		.2byte	0x1
 9827 09c6 50       		.byte	0x50
 9828 09c7 00000000 		.4byte	0
 9829 09cb 00000000 		.4byte	0
 9830              	.LLST46:
 9831 09cf C0000000 		.4byte	.LVL146
 9832 09d3 D6000000 		.4byte	.LVL147
 9833 09d7 0100     		.2byte	0x1
 9834 09d9 50       		.byte	0x50
 9835 09da D6000000 		.4byte	.LVL147
 9836 09de DA000000 		.4byte	.LVL149
 9837 09e2 0100     		.2byte	0x1
 9838 09e4 56       		.byte	0x56
 9839 09e5 54010000 		.4byte	.LVL169
 9840 09e9 5C010000 		.4byte	.LVL170
 9841 09ed 0100     		.2byte	0x1
 9842 09ef 50       		.byte	0x50
 9843 09f0 00000000 		.4byte	0
 9844 09f4 00000000 		.4byte	0
 9845              	.LLST47:
 9846 09f8 F6000000 		.4byte	.LVL155
 9847 09fc 0C010000 		.4byte	.LVL156
 9848 0a00 0100     		.2byte	0x1
 9849 0a02 50       		.byte	0x50
 9850 0a03 0C010000 		.4byte	.LVL156
 9851 0a07 10010000 		.4byte	.LVL158
 9852 0a0b 0100     		.2byte	0x1
ARM GAS  C:\Users\Phuong\AppData\Local\Temp\ccPPbPWA.s 			page 198


 9853 0a0d 57       		.byte	0x57
 9854 0a0e 60010000 		.4byte	.LVL171
 9855 0a12 66010000 		.4byte	.LVL172
 9856 0a16 0100     		.2byte	0x1
 9857 0a18 50       		.byte	0x50
 9858 0a19 00000000 		.4byte	0
 9859 0a1d 00000000 		.4byte	0
 9860              	.LLST48:
 9861 0a21 22010000 		.4byte	.LVL162
 9862 0a25 38010000 		.4byte	.LVL163
 9863 0a29 0100     		.2byte	0x1
 9864 0a2b 50       		.byte	0x50
 9865 0a2c 38010000 		.4byte	.LVL163
 9866 0a30 3C010000 		.4byte	.LVL165
 9867 0a34 0100     		.2byte	0x1
 9868 0a36 56       		.byte	0x56
 9869 0a37 6C010000 		.4byte	.LVL173
 9870 0a3b 72010000 		.4byte	.LVL174
 9871 0a3f 0100     		.2byte	0x1
 9872 0a41 50       		.byte	0x50
 9873 0a42 00000000 		.4byte	0
 9874 0a46 00000000 		.4byte	0
 9875              	.LLST49:
 9876 0a4a 8A010000 		.4byte	.LVL178
 9877 0a4e A0010000 		.4byte	.LVL179
 9878 0a52 0100     		.2byte	0x1
 9879 0a54 50       		.byte	0x50
 9880 0a55 A0010000 		.4byte	.LVL179
 9881 0a59 A8010000 		.4byte	.LVL181
 9882 0a5d 0100     		.2byte	0x1
 9883 0a5f 54       		.byte	0x54
 9884 0a60 AC010000 		.4byte	.LVL183
 9885 0a64 B0010000 		.4byte	.LVL184
 9886 0a68 0100     		.2byte	0x1
 9887 0a6a 50       		.byte	0x50
 9888 0a6b 00000000 		.4byte	0
 9889 0a6f 00000000 		.4byte	0
 9890              	.LLST50:
 9891 0a73 00000000 		.4byte	.LVL191
 9892 0a77 0F000000 		.4byte	.LVL192-1
 9893 0a7b 0100     		.2byte	0x1
 9894 0a7d 50       		.byte	0x50
 9895 0a7e 0F000000 		.4byte	.LVL192-1
 9896 0a82 12000000 		.4byte	.LVL193
 9897 0a86 0100     		.2byte	0x1
 9898 0a88 54       		.byte	0x54
 9899 0a89 12000000 		.4byte	.LVL193
 9900 0a8d 2E000000 		.4byte	.LVL197
 9901 0a91 0400     		.2byte	0x4
 9902 0a93 F3       		.byte	0xf3
 9903 0a94 01       		.uleb128 0x1
 9904 0a95 50       		.byte	0x50
 9905 0a96 9F       		.byte	0x9f
 9906 0a97 2E000000 		.4byte	.LVL197
 9907 0a9b 35000000 		.4byte	.LVL198-1
 9908 0a9f 0100     		.2byte	0x1
 9909 0aa1 50       		.byte	0x50
ARM GAS  C:\Users\Phuong\AppData\Local\Temp\ccPPbPWA.s 			page 199


 9910 0aa2 35000000 		.4byte	.LVL198-1
 9911 0aa6 38000000 		.4byte	.LVL199
 9912 0aaa 0100     		.2byte	0x1
 9913 0aac 54       		.byte	0x54
 9914 0aad 38000000 		.4byte	.LVL199
 9915 0ab1 52000000 		.4byte	.LVL202
 9916 0ab5 0400     		.2byte	0x4
 9917 0ab7 F3       		.byte	0xf3
 9918 0ab8 01       		.uleb128 0x1
 9919 0ab9 50       		.byte	0x50
 9920 0aba 9F       		.byte	0x9f
 9921 0abb 52000000 		.4byte	.LVL202
 9922 0abf 56000000 		.4byte	.LVL204
 9923 0ac3 0100     		.2byte	0x1
 9924 0ac5 50       		.byte	0x50
 9925 0ac6 56000000 		.4byte	.LVL204
 9926 0aca A6000000 		.4byte	.LVL214
 9927 0ace 0100     		.2byte	0x1
 9928 0ad0 54       		.byte	0x54
 9929 0ad1 A6000000 		.4byte	.LVL214
 9930 0ad5 AA000000 		.4byte	.LVL216
 9931 0ad9 0400     		.2byte	0x4
 9932 0adb F3       		.byte	0xf3
 9933 0adc 01       		.uleb128 0x1
 9934 0add 50       		.byte	0x50
 9935 0ade 9F       		.byte	0x9f
 9936 0adf AA000000 		.4byte	.LVL216
 9937 0ae3 AC000000 		.4byte	.LVL217
 9938 0ae7 0100     		.2byte	0x1
 9939 0ae9 54       		.byte	0x54
 9940 0aea AC000000 		.4byte	.LVL217
 9941 0aee D8000000 		.4byte	.LFE9
 9942 0af2 0400     		.2byte	0x4
 9943 0af4 F3       		.byte	0xf3
 9944 0af5 01       		.uleb128 0x1
 9945 0af6 50       		.byte	0x50
 9946 0af7 9F       		.byte	0x9f
 9947 0af8 00000000 		.4byte	0
 9948 0afc 00000000 		.4byte	0
 9949              	.LLST51:
 9950 0b00 00000000 		.4byte	.LVL191
 9951 0b04 0F000000 		.4byte	.LVL192-1
 9952 0b08 0100     		.2byte	0x1
 9953 0b0a 51       		.byte	0x51
 9954 0b0b 0F000000 		.4byte	.LVL192-1
 9955 0b0f 2C000000 		.4byte	.LVL196
 9956 0b13 0100     		.2byte	0x1
 9957 0b15 55       		.byte	0x55
 9958 0b16 2C000000 		.4byte	.LVL196
 9959 0b1a 2E000000 		.4byte	.LVL197
 9960 0b1e 0400     		.2byte	0x4
 9961 0b20 F3       		.byte	0xf3
 9962 0b21 01       		.uleb128 0x1
 9963 0b22 51       		.byte	0x51
 9964 0b23 9F       		.byte	0x9f
 9965 0b24 2E000000 		.4byte	.LVL197
 9966 0b28 35000000 		.4byte	.LVL198-1
ARM GAS  C:\Users\Phuong\AppData\Local\Temp\ccPPbPWA.s 			page 200


 9967 0b2c 0100     		.2byte	0x1
 9968 0b2e 51       		.byte	0x51
 9969 0b2f 35000000 		.4byte	.LVL198-1
 9970 0b33 52000000 		.4byte	.LVL202
 9971 0b37 0100     		.2byte	0x1
 9972 0b39 55       		.byte	0x55
 9973 0b3a 52000000 		.4byte	.LVL202
 9974 0b3e 54000000 		.4byte	.LVL203
 9975 0b42 0100     		.2byte	0x1
 9976 0b44 51       		.byte	0x51
 9977 0b45 54000000 		.4byte	.LVL203
 9978 0b49 88000000 		.4byte	.LVL210
 9979 0b4d 0100     		.2byte	0x1
 9980 0b4f 55       		.byte	0x55
 9981 0b50 88000000 		.4byte	.LVL210
 9982 0b54 A6000000 		.4byte	.LVL214
 9983 0b58 0400     		.2byte	0x4
 9984 0b5a F3       		.byte	0xf3
 9985 0b5b 01       		.uleb128 0x1
 9986 0b5c 51       		.byte	0x51
 9987 0b5d 9F       		.byte	0x9f
 9988 0b5e A6000000 		.4byte	.LVL214
 9989 0b62 A8000000 		.4byte	.LVL215
 9990 0b66 0100     		.2byte	0x1
 9991 0b68 55       		.byte	0x55
 9992 0b69 A8000000 		.4byte	.LVL215
 9993 0b6d D8000000 		.4byte	.LFE9
 9994 0b71 0400     		.2byte	0x4
 9995 0b73 F3       		.byte	0xf3
 9996 0b74 01       		.uleb128 0x1
 9997 0b75 51       		.byte	0x51
 9998 0b76 9F       		.byte	0x9f
 9999 0b77 00000000 		.4byte	0
 10000 0b7b 00000000 		.4byte	0
 10001              	.LLST52:
 10002 0b7f AC000000 		.4byte	.LVL217
 10003 0b83 B0000000 		.4byte	.LVL218
 10004 0b87 0100     		.2byte	0x1
 10005 0b89 55       		.byte	0x55
 10006 0b8a B0000000 		.4byte	.LVL218
 10007 0b8e D8000000 		.4byte	.LFE9
 10008 0b92 0100     		.2byte	0x1
 10009 0b94 50       		.byte	0x50
 10010 0b95 00000000 		.4byte	0
 10011 0b99 00000000 		.4byte	0
 10012              	.LLST53:
 10013 0b9d 12000000 		.4byte	.LVL193
 10014 0ba1 28000000 		.4byte	.LVL194
 10015 0ba5 0100     		.2byte	0x1
 10016 0ba7 50       		.byte	0x50
 10017 0ba8 28000000 		.4byte	.LVL194
 10018 0bac 2E000000 		.4byte	.LVL197
 10019 0bb0 0100     		.2byte	0x1
 10020 0bb2 54       		.byte	0x54
 10021 0bb3 A6000000 		.4byte	.LVL214
 10022 0bb7 AA000000 		.4byte	.LVL216
 10023 0bbb 0100     		.2byte	0x1
ARM GAS  C:\Users\Phuong\AppData\Local\Temp\ccPPbPWA.s 			page 201


 10024 0bbd 50       		.byte	0x50
 10025 0bbe 00000000 		.4byte	0
 10026 0bc2 00000000 		.4byte	0
 10027              	.LLST54:
 10028 0bc6 38000000 		.4byte	.LVL199
 10029 0bca 4E000000 		.4byte	.LVL200
 10030 0bce 0100     		.2byte	0x1
 10031 0bd0 50       		.byte	0x50
 10032 0bd1 4E000000 		.4byte	.LVL200
 10033 0bd5 52000000 		.4byte	.LVL202
 10034 0bd9 0100     		.2byte	0x1
 10035 0bdb 54       		.byte	0x54
 10036 0bdc 00000000 		.4byte	0
 10037 0be0 00000000 		.4byte	0
 10038              	.LLST55:
 10039 0be4 88000000 		.4byte	.LVL210
 10040 0be8 A0000000 		.4byte	.LVL211
 10041 0bec 0100     		.2byte	0x1
 10042 0bee 50       		.byte	0x50
 10043 0bef A0000000 		.4byte	.LVL211
 10044 0bf3 A4000000 		.4byte	.LVL213
 10045 0bf7 0100     		.2byte	0x1
 10046 0bf9 55       		.byte	0x55
 10047 0bfa AA000000 		.4byte	.LVL216
 10048 0bfe AC000000 		.4byte	.LVL217
 10049 0c02 0100     		.2byte	0x1
 10050 0c04 50       		.byte	0x50
 10051 0c05 00000000 		.4byte	0
 10052 0c09 00000000 		.4byte	0
 10053              	.LLST56:
 10054 0c0d 00000000 		.4byte	.LVL219
 10055 0c11 19000000 		.4byte	.LVL220-1
 10056 0c15 0100     		.2byte	0x1
 10057 0c17 50       		.byte	0x50
 10058 0c18 19000000 		.4byte	.LVL220-1
 10059 0c1c 3E000000 		.4byte	.LVL224
 10060 0c20 0100     		.2byte	0x1
 10061 0c22 55       		.byte	0x55
 10062 0c23 3E000000 		.4byte	.LVL224
 10063 0c27 40000000 		.4byte	.LVL225
 10064 0c2b 0100     		.2byte	0x1
 10065 0c2d 50       		.byte	0x50
 10066 0c2e 40000000 		.4byte	.LVL225
 10067 0c32 B0000000 		.4byte	.LVL243
 10068 0c36 0100     		.2byte	0x1
 10069 0c38 55       		.byte	0x55
 10070 0c39 B0000000 		.4byte	.LVL243
 10071 0c3d CC000000 		.4byte	.LVL246
 10072 0c41 0400     		.2byte	0x4
 10073 0c43 F3       		.byte	0xf3
 10074 0c44 01       		.uleb128 0x1
 10075 0c45 50       		.byte	0x50
 10076 0c46 9F       		.byte	0x9f
 10077 0c47 CC000000 		.4byte	.LVL246
 10078 0c4b DA000000 		.4byte	.LVL251
 10079 0c4f 0100     		.2byte	0x1
 10080 0c51 55       		.byte	0x55
ARM GAS  C:\Users\Phuong\AppData\Local\Temp\ccPPbPWA.s 			page 202


 10081 0c52 DA000000 		.4byte	.LVL251
 10082 0c56 18010000 		.4byte	.LFE16
 10083 0c5a 0400     		.2byte	0x4
 10084 0c5c F3       		.byte	0xf3
 10085 0c5d 01       		.uleb128 0x1
 10086 0c5e 50       		.byte	0x50
 10087 0c5f 9F       		.byte	0x9f
 10088 0c60 00000000 		.4byte	0
 10089 0c64 00000000 		.4byte	0
 10090              	.LLST57:
 10091 0c68 00000000 		.4byte	.LVL219
 10092 0c6c 19000000 		.4byte	.LVL220-1
 10093 0c70 0100     		.2byte	0x1
 10094 0c72 51       		.byte	0x51
 10095 0c73 19000000 		.4byte	.LVL220-1
 10096 0c77 3E000000 		.4byte	.LVL224
 10097 0c7b 0100     		.2byte	0x1
 10098 0c7d 54       		.byte	0x54
 10099 0c7e 3E000000 		.4byte	.LVL224
 10100 0c82 43000000 		.4byte	.LVL226-1
 10101 0c86 0100     		.2byte	0x1
 10102 0c88 51       		.byte	0x51
 10103 0c89 43000000 		.4byte	.LVL226-1
 10104 0c8d 90000000 		.4byte	.LVL238
 10105 0c91 0100     		.2byte	0x1
 10106 0c93 54       		.byte	0x54
 10107 0c94 90000000 		.4byte	.LVL238
 10108 0c98 AA000000 		.4byte	.LVL241
 10109 0c9c 0400     		.2byte	0x4
 10110 0c9e F3       		.byte	0xf3
 10111 0c9f 01       		.uleb128 0x1
 10112 0ca0 51       		.byte	0x51
 10113 0ca1 9F       		.byte	0x9f
 10114 0ca2 AA000000 		.4byte	.LVL241
 10115 0ca6 D6000000 		.4byte	.LVL249
 10116 0caa 0100     		.2byte	0x1
 10117 0cac 54       		.byte	0x54
 10118 0cad D6000000 		.4byte	.LVL249
 10119 0cb1 DA000000 		.4byte	.LVL251
 10120 0cb5 0400     		.2byte	0x4
 10121 0cb7 F3       		.byte	0xf3
 10122 0cb8 01       		.uleb128 0x1
 10123 0cb9 51       		.byte	0x51
 10124 0cba 9F       		.byte	0x9f
 10125 0cbb DA000000 		.4byte	.LVL251
 10126 0cbf DC000000 		.4byte	.LVL252
 10127 0cc3 0100     		.2byte	0x1
 10128 0cc5 54       		.byte	0x54
 10129 0cc6 DC000000 		.4byte	.LVL252
 10130 0cca 18010000 		.4byte	.LFE16
 10131 0cce 0400     		.2byte	0x4
 10132 0cd0 F3       		.byte	0xf3
 10133 0cd1 01       		.uleb128 0x1
 10134 0cd2 51       		.byte	0x51
 10135 0cd3 9F       		.byte	0x9f
 10136 0cd4 00000000 		.4byte	0
 10137 0cd8 00000000 		.4byte	0
ARM GAS  C:\Users\Phuong\AppData\Local\Temp\ccPPbPWA.s 			page 203


 10138              	.LLST58:
 10139 0cdc 00000000 		.4byte	.LVL219
 10140 0ce0 19000000 		.4byte	.LVL220-1
 10141 0ce4 0100     		.2byte	0x1
 10142 0ce6 52       		.byte	0x52
 10143 0ce7 19000000 		.4byte	.LVL220-1
 10144 0ceb 3E000000 		.4byte	.LVL224
 10145 0cef 0100     		.2byte	0x1
 10146 0cf1 56       		.byte	0x56
 10147 0cf2 3E000000 		.4byte	.LVL224
 10148 0cf6 43000000 		.4byte	.LVL226-1
 10149 0cfa 0100     		.2byte	0x1
 10150 0cfc 52       		.byte	0x52
 10151 0cfd 43000000 		.4byte	.LVL226-1
 10152 0d01 DE000000 		.4byte	.LVL253
 10153 0d05 0100     		.2byte	0x1
 10154 0d07 56       		.byte	0x56
 10155 0d08 DE000000 		.4byte	.LVL253
 10156 0d0c 18010000 		.4byte	.LFE16
 10157 0d10 0400     		.2byte	0x4
 10158 0d12 F3       		.byte	0xf3
 10159 0d13 01       		.uleb128 0x1
 10160 0d14 52       		.byte	0x52
 10161 0d15 9F       		.byte	0x9f
 10162 0d16 00000000 		.4byte	0
 10163 0d1a 00000000 		.4byte	0
 10164              	.LLST59:
 10165 0d1e 4C000000 		.4byte	.LVL227
 10166 0d22 4E000000 		.4byte	.LVL228
 10167 0d26 0200     		.2byte	0x2
 10168 0d28 30       		.byte	0x30
 10169 0d29 9F       		.byte	0x9f
 10170 0d2a 5E000000 		.4byte	.LVL230
 10171 0d2e 60000000 		.4byte	.LVL231
 10172 0d32 0200     		.2byte	0x2
 10173 0d34 30       		.byte	0x30
 10174 0d35 9F       		.byte	0x9f
 10175 0d36 70000000 		.4byte	.LVL233
 10176 0d3a 72000000 		.4byte	.LVL234
 10177 0d3e 0200     		.2byte	0x2
 10178 0d40 30       		.byte	0x30
 10179 0d41 9F       		.byte	0x9f
 10180 0d42 DC000000 		.4byte	.LVL252
 10181 0d46 18010000 		.4byte	.LFE16
 10182 0d4a 0100     		.2byte	0x1
 10183 0d4c 50       		.byte	0x50
 10184 0d4d 00000000 		.4byte	0
 10185 0d51 00000000 		.4byte	0
 10186              	.LLST60:
 10187 0d55 1C000000 		.4byte	.LVL221
 10188 0d59 36000000 		.4byte	.LVL222
 10189 0d5d 0100     		.2byte	0x1
 10190 0d5f 50       		.byte	0x50
 10191 0d60 36000000 		.4byte	.LVL222
 10192 0d64 3E000000 		.4byte	.LVL224
 10193 0d68 0100     		.2byte	0x1
 10194 0d6a 57       		.byte	0x57
ARM GAS  C:\Users\Phuong\AppData\Local\Temp\ccPPbPWA.s 			page 204


 10195 0d6b CC000000 		.4byte	.LVL246
 10196 0d6f CE000000 		.4byte	.LVL247
 10197 0d73 0100     		.2byte	0x1
 10198 0d75 50       		.byte	0x50
 10199 0d76 CE000000 		.4byte	.LVL247
 10200 0d7a D2000000 		.4byte	.LVL248
 10201 0d7e 0100     		.2byte	0x1
 10202 0d80 57       		.byte	0x57
 10203 0d81 00000000 		.4byte	0
 10204 0d85 00000000 		.4byte	0
 10205              	.LLST61:
 10206 0d89 3E000000 		.4byte	.LVL224
 10207 0d8d 40000000 		.4byte	.LVL225
 10208 0d91 0100     		.2byte	0x1
 10209 0d93 50       		.byte	0x50
 10210 0d94 40000000 		.4byte	.LVL225
 10211 0d98 B0000000 		.4byte	.LVL243
 10212 0d9c 0100     		.2byte	0x1
 10213 0d9e 55       		.byte	0x55
 10214 0d9f B0000000 		.4byte	.LVL243
 10215 0da3 CC000000 		.4byte	.LVL246
 10216 0da7 0400     		.2byte	0x4
 10217 0da9 F3       		.byte	0xf3
 10218 0daa 01       		.uleb128 0x1
 10219 0dab 50       		.byte	0x50
 10220 0dac 9F       		.byte	0x9f
 10221 0dad D2000000 		.4byte	.LVL248
 10222 0db1 DA000000 		.4byte	.LVL251
 10223 0db5 0100     		.2byte	0x1
 10224 0db7 55       		.byte	0x55
 10225 0db8 DA000000 		.4byte	.LVL251
 10226 0dbc DC000000 		.4byte	.LVL252
 10227 0dc0 0400     		.2byte	0x4
 10228 0dc2 F3       		.byte	0xf3
 10229 0dc3 01       		.uleb128 0x1
 10230 0dc4 50       		.byte	0x50
 10231 0dc5 9F       		.byte	0x9f
 10232 0dc6 00000000 		.4byte	0
 10233 0dca 00000000 		.4byte	0
 10234              	.LLST62:
 10235 0dce 90000000 		.4byte	.LVL238
 10236 0dd2 A4000000 		.4byte	.LVL239
 10237 0dd6 0100     		.2byte	0x1
 10238 0dd8 50       		.byte	0x50
 10239 0dd9 A4000000 		.4byte	.LVL239
 10240 0ddd AA000000 		.4byte	.LVL241
 10241 0de1 0100     		.2byte	0x1
 10242 0de3 54       		.byte	0x54
 10243 0de4 D6000000 		.4byte	.LVL249
 10244 0de8 D8000000 		.4byte	.LVL250
 10245 0dec 0100     		.2byte	0x1
 10246 0dee 50       		.byte	0x50
 10247 0def D8000000 		.4byte	.LVL250
 10248 0df3 DA000000 		.4byte	.LVL251
 10249 0df7 0100     		.2byte	0x1
 10250 0df9 54       		.byte	0x54
 10251 0dfa 00000000 		.4byte	0
ARM GAS  C:\Users\Phuong\AppData\Local\Temp\ccPPbPWA.s 			page 205


 10252 0dfe 00000000 		.4byte	0
 10253              	.LLST63:
 10254 0e02 B0000000 		.4byte	.LVL243
 10255 0e06 C6000000 		.4byte	.LVL244
 10256 0e0a 0100     		.2byte	0x1
 10257 0e0c 50       		.byte	0x50
 10258 0e0d C6000000 		.4byte	.LVL244
 10259 0e11 CC000000 		.4byte	.LVL246
 10260 0e15 0100     		.2byte	0x1
 10261 0e17 55       		.byte	0x55
 10262 0e18 DA000000 		.4byte	.LVL251
 10263 0e1c DC000000 		.4byte	.LVL252
 10264 0e20 0100     		.2byte	0x1
 10265 0e22 50       		.byte	0x50
 10266 0e23 00000000 		.4byte	0
 10267 0e27 00000000 		.4byte	0
 10268              	.LLST64:
 10269 0e2b 00000000 		.4byte	.LVL254
 10270 0e2f 0D000000 		.4byte	.LVL255-1
 10271 0e33 0100     		.2byte	0x1
 10272 0e35 50       		.byte	0x50
 10273 0e36 0D000000 		.4byte	.LVL255-1
 10274 0e3a 2A000000 		.4byte	.LVL259
 10275 0e3e 0400     		.2byte	0x4
 10276 0e40 F3       		.byte	0xf3
 10277 0e41 01       		.uleb128 0x1
 10278 0e42 50       		.byte	0x50
 10279 0e43 9F       		.byte	0x9f
 10280 0e44 2A000000 		.4byte	.LVL259
 10281 0e48 31000000 		.4byte	.LVL260-1
 10282 0e4c 0100     		.2byte	0x1
 10283 0e4e 50       		.byte	0x50
 10284 0e4f 31000000 		.4byte	.LVL260-1
 10285 0e53 4E000000 		.4byte	.LVL264
 10286 0e57 0400     		.2byte	0x4
 10287 0e59 F3       		.byte	0xf3
 10288 0e5a 01       		.uleb128 0x1
 10289 0e5b 50       		.byte	0x50
 10290 0e5c 9F       		.byte	0x9f
 10291 0e5d 4E000000 		.4byte	.LVL264
 10292 0e61 53000000 		.4byte	.LVL266-1
 10293 0e65 0100     		.2byte	0x1
 10294 0e67 50       		.byte	0x50
 10295 0e68 53000000 		.4byte	.LVL266-1
 10296 0e6c 78000000 		.4byte	.LFE10
 10297 0e70 0400     		.2byte	0x4
 10298 0e72 F3       		.byte	0xf3
 10299 0e73 01       		.uleb128 0x1
 10300 0e74 50       		.byte	0x50
 10301 0e75 9F       		.byte	0x9f
 10302 0e76 00000000 		.4byte	0
 10303 0e7a 00000000 		.4byte	0
 10304              	.LLST65:
 10305 0e7e 00000000 		.4byte	.LVL254
 10306 0e82 0D000000 		.4byte	.LVL255-1
 10307 0e86 0100     		.2byte	0x1
 10308 0e88 51       		.byte	0x51
ARM GAS  C:\Users\Phuong\AppData\Local\Temp\ccPPbPWA.s 			page 206


 10309 0e89 0D000000 		.4byte	.LVL255-1
 10310 0e8d 10000000 		.4byte	.LVL256
 10311 0e91 0100     		.2byte	0x1
 10312 0e93 54       		.byte	0x54
 10313 0e94 10000000 		.4byte	.LVL256
 10314 0e98 2A000000 		.4byte	.LVL259
 10315 0e9c 0400     		.2byte	0x4
 10316 0e9e F3       		.byte	0xf3
 10317 0e9f 01       		.uleb128 0x1
 10318 0ea0 51       		.byte	0x51
 10319 0ea1 9F       		.byte	0x9f
 10320 0ea2 2A000000 		.4byte	.LVL259
 10321 0ea6 31000000 		.4byte	.LVL260-1
 10322 0eaa 0100     		.2byte	0x1
 10323 0eac 51       		.byte	0x51
 10324 0ead 31000000 		.4byte	.LVL260-1
 10325 0eb1 34000000 		.4byte	.LVL261
 10326 0eb5 0100     		.2byte	0x1
 10327 0eb7 54       		.byte	0x54
 10328 0eb8 34000000 		.4byte	.LVL261
 10329 0ebc 4E000000 		.4byte	.LVL264
 10330 0ec0 0400     		.2byte	0x4
 10331 0ec2 F3       		.byte	0xf3
 10332 0ec3 01       		.uleb128 0x1
 10333 0ec4 51       		.byte	0x51
 10334 0ec5 9F       		.byte	0x9f
 10335 0ec6 4E000000 		.4byte	.LVL264
 10336 0eca 50000000 		.4byte	.LVL265
 10337 0ece 0100     		.2byte	0x1
 10338 0ed0 51       		.byte	0x51
 10339 0ed1 50000000 		.4byte	.LVL265
 10340 0ed5 5E000000 		.4byte	.LVL267
 10341 0ed9 0100     		.2byte	0x1
 10342 0edb 54       		.byte	0x54
 10343 0edc 5E000000 		.4byte	.LVL267
 10344 0ee0 78000000 		.4byte	.LFE10
 10345 0ee4 0400     		.2byte	0x4
 10346 0ee6 F3       		.byte	0xf3
 10347 0ee7 01       		.uleb128 0x1
 10348 0ee8 51       		.byte	0x51
 10349 0ee9 9F       		.byte	0x9f
 10350 0eea 00000000 		.4byte	0
 10351 0eee 00000000 		.4byte	0
 10352              	.LLST66:
 10353 0ef2 10000000 		.4byte	.LVL256
 10354 0ef6 26000000 		.4byte	.LVL257
 10355 0efa 0100     		.2byte	0x1
 10356 0efc 50       		.byte	0x50
 10357 0efd 26000000 		.4byte	.LVL257
 10358 0f01 2A000000 		.4byte	.LVL259
 10359 0f05 0100     		.2byte	0x1
 10360 0f07 54       		.byte	0x54
 10361 0f08 00000000 		.4byte	0
 10362 0f0c 00000000 		.4byte	0
 10363              	.LLST67:
 10364 0f10 34000000 		.4byte	.LVL261
 10365 0f14 4A000000 		.4byte	.LVL262
ARM GAS  C:\Users\Phuong\AppData\Local\Temp\ccPPbPWA.s 			page 207


 10366 0f18 0100     		.2byte	0x1
 10367 0f1a 50       		.byte	0x50
 10368 0f1b 4A000000 		.4byte	.LVL262
 10369 0f1f 4E000000 		.4byte	.LVL264
 10370 0f23 0100     		.2byte	0x1
 10371 0f25 54       		.byte	0x54
 10372 0f26 00000000 		.4byte	0
 10373 0f2a 00000000 		.4byte	0
 10374              	.LLST68:
 10375 0f2e 00000000 		.4byte	.LVL268
 10376 0f32 0B000000 		.4byte	.LVL270-1
 10377 0f36 0100     		.2byte	0x1
 10378 0f38 50       		.byte	0x50
 10379 0f39 0B000000 		.4byte	.LVL270-1
 10380 0f3d 0E000000 		.4byte	.LVL271
 10381 0f41 0100     		.2byte	0x1
 10382 0f43 54       		.byte	0x54
 10383 0f44 0E000000 		.4byte	.LVL271
 10384 0f48 2C000000 		.4byte	.LVL274
 10385 0f4c 0400     		.2byte	0x4
 10386 0f4e F3       		.byte	0xf3
 10387 0f4f 01       		.uleb128 0x1
 10388 0f50 50       		.byte	0x50
 10389 0f51 9F       		.byte	0x9f
 10390 0f52 2C000000 		.4byte	.LVL274
 10391 0f56 33000000 		.4byte	.LVL276-1
 10392 0f5a 0100     		.2byte	0x1
 10393 0f5c 50       		.byte	0x50
 10394 0f5d 33000000 		.4byte	.LVL276-1
 10395 0f61 36000000 		.4byte	.LVL277
 10396 0f65 0100     		.2byte	0x1
 10397 0f67 54       		.byte	0x54
 10398 0f68 36000000 		.4byte	.LVL277
 10399 0f6c 54000000 		.4byte	.LVL280
 10400 0f70 0400     		.2byte	0x4
 10401 0f72 F3       		.byte	0xf3
 10402 0f73 01       		.uleb128 0x1
 10403 0f74 50       		.byte	0x50
 10404 0f75 9F       		.byte	0x9f
 10405 0f76 54000000 		.4byte	.LVL280
 10406 0f7a 5F000000 		.4byte	.LVL282-1
 10407 0f7e 0100     		.2byte	0x1
 10408 0f80 50       		.byte	0x50
 10409 0f81 5F000000 		.4byte	.LVL282-1
 10410 0f85 86000000 		.4byte	.LVL286
 10411 0f89 0100     		.2byte	0x1
 10412 0f8b 54       		.byte	0x54
 10413 0f8c 86000000 		.4byte	.LVL286
 10414 0f90 8D000000 		.4byte	.LVL288-1
 10415 0f94 0100     		.2byte	0x1
 10416 0f96 50       		.byte	0x50
 10417 0f97 8D000000 		.4byte	.LVL288-1
 10418 0f9b 92000000 		.4byte	.LVL289
 10419 0f9f 0100     		.2byte	0x1
 10420 0fa1 54       		.byte	0x54
 10421 0fa2 92000000 		.4byte	.LVL289
 10422 0fa6 9E000000 		.4byte	.LVL293
ARM GAS  C:\Users\Phuong\AppData\Local\Temp\ccPPbPWA.s 			page 208


 10423 0faa 0400     		.2byte	0x4
 10424 0fac F3       		.byte	0xf3
 10425 0fad 01       		.uleb128 0x1
 10426 0fae 50       		.byte	0x50
 10427 0faf 9F       		.byte	0x9f
 10428 0fb0 9E000000 		.4byte	.LVL293
 10429 0fb4 A2000000 		.4byte	.LVL295
 10430 0fb8 0100     		.2byte	0x1
 10431 0fba 54       		.byte	0x54
 10432 0fbb A2000000 		.4byte	.LVL295
 10433 0fbf BC000000 		.4byte	.LFE11
 10434 0fc3 0400     		.2byte	0x4
 10435 0fc5 F3       		.byte	0xf3
 10436 0fc6 01       		.uleb128 0x1
 10437 0fc7 50       		.byte	0x50
 10438 0fc8 9F       		.byte	0x9f
 10439 0fc9 00000000 		.4byte	0
 10440 0fcd 00000000 		.4byte	0
 10441              	.LLST69:
 10442 0fd1 00000000 		.4byte	.LVL268
 10443 0fd5 0B000000 		.4byte	.LVL270-1
 10444 0fd9 0100     		.2byte	0x1
 10445 0fdb 51       		.byte	0x51
 10446 0fdc 0B000000 		.4byte	.LVL270-1
 10447 0fe0 2C000000 		.4byte	.LVL274
 10448 0fe4 0400     		.2byte	0x4
 10449 0fe6 F3       		.byte	0xf3
 10450 0fe7 01       		.uleb128 0x1
 10451 0fe8 51       		.byte	0x51
 10452 0fe9 9F       		.byte	0x9f
 10453 0fea 2C000000 		.4byte	.LVL274
 10454 0fee 33000000 		.4byte	.LVL276-1
 10455 0ff2 0100     		.2byte	0x1
 10456 0ff4 51       		.byte	0x51
 10457 0ff5 33000000 		.4byte	.LVL276-1
 10458 0ff9 54000000 		.4byte	.LVL280
 10459 0ffd 0400     		.2byte	0x4
 10460 0fff F3       		.byte	0xf3
 10461 1000 01       		.uleb128 0x1
 10462 1001 51       		.byte	0x51
 10463 1002 9F       		.byte	0x9f
 10464 1003 54000000 		.4byte	.LVL280
 10465 1007 5F000000 		.4byte	.LVL282-1
 10466 100b 0100     		.2byte	0x1
 10467 100d 51       		.byte	0x51
 10468 100e 5F000000 		.4byte	.LVL282-1
 10469 1012 86000000 		.4byte	.LVL286
 10470 1016 0400     		.2byte	0x4
 10471 1018 F3       		.byte	0xf3
 10472 1019 01       		.uleb128 0x1
 10473 101a 51       		.byte	0x51
 10474 101b 9F       		.byte	0x9f
 10475 101c 86000000 		.4byte	.LVL286
 10476 1020 8A000000 		.4byte	.LVL287
 10477 1024 0100     		.2byte	0x1
 10478 1026 51       		.byte	0x51
 10479 1027 8A000000 		.4byte	.LVL287
ARM GAS  C:\Users\Phuong\AppData\Local\Temp\ccPPbPWA.s 			page 209


 10480 102b 8D000000 		.4byte	.LVL288-1
 10481 102f 0200     		.2byte	0x2
 10482 1031 70       		.byte	0x70
 10483 1032 2C       		.sleb128 44
 10484 1033 8D000000 		.4byte	.LVL288-1
 10485 1037 BC000000 		.4byte	.LFE11
 10486 103b 0400     		.2byte	0x4
 10487 103d F3       		.byte	0xf3
 10488 103e 01       		.uleb128 0x1
 10489 103f 51       		.byte	0x51
 10490 1040 9F       		.byte	0x9f
 10491 1041 00000000 		.4byte	0
 10492 1045 00000000 		.4byte	0
 10493              	.LLST70:
 10494 1049 08000000 		.4byte	.LVL269
 10495 104d 2C000000 		.4byte	.LVL274
 10496 1051 0400     		.2byte	0x4
 10497 1053 0A       		.byte	0xa
 10498 1054 9201     		.2byte	0x192
 10499 1056 9F       		.byte	0x9f
 10500 1057 30000000 		.4byte	.LVL275
 10501 105b 54000000 		.4byte	.LVL280
 10502 105f 0400     		.2byte	0x4
 10503 1061 0A       		.byte	0xa
 10504 1062 9801     		.2byte	0x198
 10505 1064 9F       		.byte	0x9f
 10506 1065 5C000000 		.4byte	.LVL281
 10507 1069 86000000 		.4byte	.LVL286
 10508 106d 0400     		.2byte	0x4
 10509 106f 0A       		.byte	0xa
 10510 1070 A201     		.2byte	0x1a2
 10511 1072 9F       		.byte	0x9f
 10512 1073 8E000000 		.4byte	.LVL288
 10513 1077 92000000 		.4byte	.LVL289
 10514 107b 0200     		.2byte	0x2
 10515 107d 30       		.byte	0x30
 10516 107e 9F       		.byte	0x9f
 10517 107f 92000000 		.4byte	.LVL289
 10518 1083 98000000 		.4byte	.LVL291
 10519 1087 0400     		.2byte	0x4
 10520 1089 0A       		.byte	0xa
 10521 108a 9201     		.2byte	0x192
 10522 108c 9F       		.byte	0x9f
 10523 108d 98000000 		.4byte	.LVL291
 10524 1091 9E000000 		.4byte	.LVL293
 10525 1095 0400     		.2byte	0x4
 10526 1097 0A       		.byte	0xa
 10527 1098 9801     		.2byte	0x198
 10528 109a 9F       		.byte	0x9f
 10529 109b 9E000000 		.4byte	.LVL293
 10530 109f A2000000 		.4byte	.LVL295
 10531 10a3 0400     		.2byte	0x4
 10532 10a5 0A       		.byte	0xa
 10533 10a6 A201     		.2byte	0x1a2
 10534 10a8 9F       		.byte	0x9f
 10535 10a9 A2000000 		.4byte	.LVL295
 10536 10ad BC000000 		.4byte	.LFE11
ARM GAS  C:\Users\Phuong\AppData\Local\Temp\ccPPbPWA.s 			page 210


 10537 10b1 0100     		.2byte	0x1
 10538 10b3 50       		.byte	0x50
 10539 10b4 00000000 		.4byte	0
 10540 10b8 00000000 		.4byte	0
 10541              	.LLST71:
 10542 10bc 0E000000 		.4byte	.LVL271
 10543 10c0 24000000 		.4byte	.LVL272
 10544 10c4 0100     		.2byte	0x1
 10545 10c6 50       		.byte	0x50
 10546 10c7 24000000 		.4byte	.LVL272
 10547 10cb 2C000000 		.4byte	.LVL274
 10548 10cf 0100     		.2byte	0x1
 10549 10d1 54       		.byte	0x54
 10550 10d2 92000000 		.4byte	.LVL289
 10551 10d6 94000000 		.4byte	.LVL290
 10552 10da 0100     		.2byte	0x1
 10553 10dc 50       		.byte	0x50
 10554 10dd 94000000 		.4byte	.LVL290
 10555 10e1 98000000 		.4byte	.LVL291
 10556 10e5 0100     		.2byte	0x1
 10557 10e7 54       		.byte	0x54
 10558 10e8 00000000 		.4byte	0
 10559 10ec 00000000 		.4byte	0
 10560              	.LLST72:
 10561 10f0 36000000 		.4byte	.LVL277
 10562 10f4 4C000000 		.4byte	.LVL278
 10563 10f8 0100     		.2byte	0x1
 10564 10fa 50       		.byte	0x50
 10565 10fb 4C000000 		.4byte	.LVL278
 10566 10ff 54000000 		.4byte	.LVL280
 10567 1103 0100     		.2byte	0x1
 10568 1105 54       		.byte	0x54
 10569 1106 98000000 		.4byte	.LVL291
 10570 110a 9A000000 		.4byte	.LVL292
 10571 110e 0100     		.2byte	0x1
 10572 1110 50       		.byte	0x50
 10573 1111 9A000000 		.4byte	.LVL292
 10574 1115 9E000000 		.4byte	.LVL293
 10575 1119 0100     		.2byte	0x1
 10576 111b 54       		.byte	0x54
 10577 111c 00000000 		.4byte	0
 10578 1120 00000000 		.4byte	0
 10579              	.LLST73:
 10580 1124 54000000 		.4byte	.LVL280
 10581 1128 5F000000 		.4byte	.LVL282-1
 10582 112c 0100     		.2byte	0x1
 10583 112e 50       		.byte	0x50
 10584 112f 5F000000 		.4byte	.LVL282-1
 10585 1133 86000000 		.4byte	.LVL286
 10586 1137 0100     		.2byte	0x1
 10587 1139 54       		.byte	0x54
 10588 113a 86000000 		.4byte	.LVL286
 10589 113e 8D000000 		.4byte	.LVL288-1
 10590 1142 0100     		.2byte	0x1
 10591 1144 50       		.byte	0x50
 10592 1145 8D000000 		.4byte	.LVL288-1
 10593 1149 92000000 		.4byte	.LVL289
ARM GAS  C:\Users\Phuong\AppData\Local\Temp\ccPPbPWA.s 			page 211


 10594 114d 0100     		.2byte	0x1
 10595 114f 54       		.byte	0x54
 10596 1150 9E000000 		.4byte	.LVL293
 10597 1154 A2000000 		.4byte	.LVL295
 10598 1158 0100     		.2byte	0x1
 10599 115a 54       		.byte	0x54
 10600 115b 00000000 		.4byte	0
 10601 115f 00000000 		.4byte	0
 10602              	.LLST74:
 10603 1163 62000000 		.4byte	.LVL283
 10604 1167 7E000000 		.4byte	.LVL284
 10605 116b 0100     		.2byte	0x1
 10606 116d 50       		.byte	0x50
 10607 116e 7E000000 		.4byte	.LVL284
 10608 1172 86000000 		.4byte	.LVL286
 10609 1176 0100     		.2byte	0x1
 10610 1178 55       		.byte	0x55
 10611 1179 9E000000 		.4byte	.LVL293
 10612 117d A0000000 		.4byte	.LVL294
 10613 1181 0100     		.2byte	0x1
 10614 1183 50       		.byte	0x50
 10615 1184 A0000000 		.4byte	.LVL294
 10616 1188 A2000000 		.4byte	.LVL295
 10617 118c 0100     		.2byte	0x1
 10618 118e 55       		.byte	0x55
 10619 118f 00000000 		.4byte	0
 10620 1193 00000000 		.4byte	0
 10621              	.LLST75:
 10622 1197 00000000 		.4byte	.LVL296
 10623 119b 0B000000 		.4byte	.LVL298-1
 10624 119f 0100     		.2byte	0x1
 10625 11a1 50       		.byte	0x50
 10626 11a2 0B000000 		.4byte	.LVL298-1
 10627 11a6 2C000000 		.4byte	.LVL302
 10628 11aa 0400     		.2byte	0x4
 10629 11ac F3       		.byte	0xf3
 10630 11ad 01       		.uleb128 0x1
 10631 11ae 50       		.byte	0x50
 10632 11af 9F       		.byte	0x9f
 10633 11b0 2C000000 		.4byte	.LVL302
 10634 11b4 37000000 		.4byte	.LVL304-1
 10635 11b8 0100     		.2byte	0x1
 10636 11ba 50       		.byte	0x50
 10637 11bb 37000000 		.4byte	.LVL304-1
 10638 11bf 58000000 		.4byte	.LVL308
 10639 11c3 0400     		.2byte	0x4
 10640 11c5 F3       		.byte	0xf3
 10641 11c6 01       		.uleb128 0x1
 10642 11c7 50       		.byte	0x50
 10643 11c8 9F       		.byte	0x9f
 10644 11c9 58000000 		.4byte	.LVL308
 10645 11cd 61000000 		.4byte	.LVL309-1
 10646 11d1 0100     		.2byte	0x1
 10647 11d3 50       		.byte	0x50
 10648 11d4 61000000 		.4byte	.LVL309-1
 10649 11d8 84000000 		.4byte	.LFE12
 10650 11dc 0400     		.2byte	0x4
ARM GAS  C:\Users\Phuong\AppData\Local\Temp\ccPPbPWA.s 			page 212


 10651 11de F3       		.byte	0xf3
 10652 11df 01       		.uleb128 0x1
 10653 11e0 50       		.byte	0x50
 10654 11e1 9F       		.byte	0x9f
 10655 11e2 00000000 		.4byte	0
 10656 11e6 00000000 		.4byte	0
 10657              	.LLST76:
 10658 11ea 08000000 		.4byte	.LVL297
 10659 11ee 2C000000 		.4byte	.LVL302
 10660 11f2 0400     		.2byte	0x4
 10661 11f4 0A       		.byte	0xa
 10662 11f5 BC01     		.2byte	0x1bc
 10663 11f7 9F       		.byte	0x9f
 10664 11f8 34000000 		.4byte	.LVL303
 10665 11fc 58000000 		.4byte	.LVL308
 10666 1200 0400     		.2byte	0x4
 10667 1202 0A       		.byte	0xa
 10668 1203 C601     		.2byte	0x1c6
 10669 1205 9F       		.byte	0x9f
 10670 1206 62000000 		.4byte	.LVL309
 10671 120a 66000000 		.4byte	.LVL310
 10672 120e 0200     		.2byte	0x2
 10673 1210 30       		.byte	0x30
 10674 1211 9F       		.byte	0x9f
 10675 1212 66000000 		.4byte	.LVL310
 10676 1216 6C000000 		.4byte	.LVL312
 10677 121a 0400     		.2byte	0x4
 10678 121c 0A       		.byte	0xa
 10679 121d BC01     		.2byte	0x1bc
 10680 121f 9F       		.byte	0x9f
 10681 1220 6C000000 		.4byte	.LVL312
 10682 1224 70000000 		.4byte	.LVL314
 10683 1228 0400     		.2byte	0x4
 10684 122a 0A       		.byte	0xa
 10685 122b C601     		.2byte	0x1c6
 10686 122d 9F       		.byte	0x9f
 10687 122e 70000000 		.4byte	.LVL314
 10688 1232 84000000 		.4byte	.LFE12
 10689 1236 0100     		.2byte	0x1
 10690 1238 50       		.byte	0x50
 10691 1239 00000000 		.4byte	0
 10692 123d 00000000 		.4byte	0
 10693              	.LLST77:
 10694 1241 0E000000 		.4byte	.LVL299
 10695 1245 24000000 		.4byte	.LVL300
 10696 1249 0100     		.2byte	0x1
 10697 124b 50       		.byte	0x50
 10698 124c 24000000 		.4byte	.LVL300
 10699 1250 2C000000 		.4byte	.LVL302
 10700 1254 0100     		.2byte	0x1
 10701 1256 54       		.byte	0x54
 10702 1257 66000000 		.4byte	.LVL310
 10703 125b 68000000 		.4byte	.LVL311
 10704 125f 0100     		.2byte	0x1
 10705 1261 50       		.byte	0x50
 10706 1262 68000000 		.4byte	.LVL311
 10707 1266 6C000000 		.4byte	.LVL312
ARM GAS  C:\Users\Phuong\AppData\Local\Temp\ccPPbPWA.s 			page 213


 10708 126a 0100     		.2byte	0x1
 10709 126c 54       		.byte	0x54
 10710 126d 00000000 		.4byte	0
 10711 1271 00000000 		.4byte	0
 10712              	.LLST78:
 10713 1275 2C000000 		.4byte	.LVL302
 10714 1279 37000000 		.4byte	.LVL304-1
 10715 127d 0100     		.2byte	0x1
 10716 127f 50       		.byte	0x50
 10717 1280 37000000 		.4byte	.LVL304-1
 10718 1284 58000000 		.4byte	.LVL308
 10719 1288 0400     		.2byte	0x4
 10720 128a F3       		.byte	0xf3
 10721 128b 01       		.uleb128 0x1
 10722 128c 50       		.byte	0x50
 10723 128d 9F       		.byte	0x9f
 10724 128e 58000000 		.4byte	.LVL308
 10725 1292 61000000 		.4byte	.LVL309-1
 10726 1296 0100     		.2byte	0x1
 10727 1298 50       		.byte	0x50
 10728 1299 61000000 		.4byte	.LVL309-1
 10729 129d 66000000 		.4byte	.LVL310
 10730 12a1 0400     		.2byte	0x4
 10731 12a3 F3       		.byte	0xf3
 10732 12a4 01       		.uleb128 0x1
 10733 12a5 50       		.byte	0x50
 10734 12a6 9F       		.byte	0x9f
 10735 12a7 6C000000 		.4byte	.LVL312
 10736 12ab 70000000 		.4byte	.LVL314
 10737 12af 0400     		.2byte	0x4
 10738 12b1 F3       		.byte	0xf3
 10739 12b2 01       		.uleb128 0x1
 10740 12b3 50       		.byte	0x50
 10741 12b4 9F       		.byte	0x9f
 10742 12b5 00000000 		.4byte	0
 10743 12b9 00000000 		.4byte	0
 10744              	.LLST79:
 10745 12bd 3A000000 		.4byte	.LVL305
 10746 12c1 50000000 		.4byte	.LVL306
 10747 12c5 0100     		.2byte	0x1
 10748 12c7 50       		.byte	0x50
 10749 12c8 50000000 		.4byte	.LVL306
 10750 12cc 58000000 		.4byte	.LVL308
 10751 12d0 0100     		.2byte	0x1
 10752 12d2 54       		.byte	0x54
 10753 12d3 6C000000 		.4byte	.LVL312
 10754 12d7 6E000000 		.4byte	.LVL313
 10755 12db 0100     		.2byte	0x1
 10756 12dd 50       		.byte	0x50
 10757 12de 6E000000 		.4byte	.LVL313
 10758 12e2 70000000 		.4byte	.LVL314
 10759 12e6 0100     		.2byte	0x1
 10760 12e8 54       		.byte	0x54
 10761 12e9 00000000 		.4byte	0
 10762 12ed 00000000 		.4byte	0
 10763              	.LLST80:
 10764 12f1 00000000 		.4byte	.LVL315
ARM GAS  C:\Users\Phuong\AppData\Local\Temp\ccPPbPWA.s 			page 214


 10765 12f5 0B000000 		.4byte	.LVL316-1
 10766 12f9 0100     		.2byte	0x1
 10767 12fb 50       		.byte	0x50
 10768 12fc 0B000000 		.4byte	.LVL316-1
 10769 1300 0E000000 		.4byte	.LVL317
 10770 1304 0100     		.2byte	0x1
 10771 1306 54       		.byte	0x54
 10772 1307 0E000000 		.4byte	.LVL317
 10773 130b 28000000 		.4byte	.LVL320
 10774 130f 0400     		.2byte	0x4
 10775 1311 F3       		.byte	0xf3
 10776 1312 01       		.uleb128 0x1
 10777 1313 50       		.byte	0x50
 10778 1314 9F       		.byte	0x9f
 10779 1315 28000000 		.4byte	.LVL320
 10780 1319 33000000 		.4byte	.LVL321-1
 10781 131d 0100     		.2byte	0x1
 10782 131f 50       		.byte	0x50
 10783 1320 33000000 		.4byte	.LVL321-1
 10784 1324 44000000 		.4byte	.LVL323
 10785 1328 0100     		.2byte	0x1
 10786 132a 54       		.byte	0x54
 10787 132b 44000000 		.4byte	.LVL323
 10788 132f 54000000 		.4byte	.LFE13
 10789 1333 0400     		.2byte	0x4
 10790 1335 F3       		.byte	0xf3
 10791 1336 01       		.uleb128 0x1
 10792 1337 50       		.byte	0x50
 10793 1338 9F       		.byte	0x9f
 10794 1339 00000000 		.4byte	0
 10795 133d 00000000 		.4byte	0
 10796              	.LLST81:
 10797 1341 0E000000 		.4byte	.LVL317
 10798 1345 24000000 		.4byte	.LVL318
 10799 1349 0100     		.2byte	0x1
 10800 134b 50       		.byte	0x50
 10801 134c 24000000 		.4byte	.LVL318
 10802 1350 28000000 		.4byte	.LVL320
 10803 1354 0100     		.2byte	0x1
 10804 1356 54       		.byte	0x54
 10805 1357 00000000 		.4byte	0
 10806 135b 00000000 		.4byte	0
 10807              	.LLST82:
 10808 135f 28000000 		.4byte	.LVL320
 10809 1363 33000000 		.4byte	.LVL321-1
 10810 1367 0100     		.2byte	0x1
 10811 1369 50       		.byte	0x50
 10812 136a 33000000 		.4byte	.LVL321-1
 10813 136e 44000000 		.4byte	.LVL323
 10814 1372 0100     		.2byte	0x1
 10815 1374 54       		.byte	0x54
 10816 1375 00000000 		.4byte	0
 10817 1379 00000000 		.4byte	0
 10818              	.LLST83:
 10819 137d 00000000 		.4byte	.LVL324
 10820 1381 0B000000 		.4byte	.LVL326-1
 10821 1385 0100     		.2byte	0x1
ARM GAS  C:\Users\Phuong\AppData\Local\Temp\ccPPbPWA.s 			page 215


 10822 1387 50       		.byte	0x50
 10823 1388 0B000000 		.4byte	.LVL326-1
 10824 138c 0E000000 		.4byte	.LVL327
 10825 1390 0100     		.2byte	0x1
 10826 1392 54       		.byte	0x54
 10827 1393 0E000000 		.4byte	.LVL327
 10828 1397 2C000000 		.4byte	.LVL331
 10829 139b 0400     		.2byte	0x4
 10830 139d F3       		.byte	0xf3
 10831 139e 01       		.uleb128 0x1
 10832 139f 50       		.byte	0x50
 10833 13a0 9F       		.byte	0x9f
 10834 13a1 2C000000 		.4byte	.LVL331
 10835 13a5 35000000 		.4byte	.LVL333-1
 10836 13a9 0100     		.2byte	0x1
 10837 13ab 50       		.byte	0x50
 10838 13ac 35000000 		.4byte	.LVL333-1
 10839 13b0 38000000 		.4byte	.LVL334
 10840 13b4 0100     		.2byte	0x1
 10841 13b6 54       		.byte	0x54
 10842 13b7 38000000 		.4byte	.LVL334
 10843 13bb 54000000 		.4byte	.LVL338
 10844 13bf 0400     		.2byte	0x4
 10845 13c1 F3       		.byte	0xf3
 10846 13c2 01       		.uleb128 0x1
 10847 13c3 50       		.byte	0x50
 10848 13c4 9F       		.byte	0x9f
 10849 13c5 54000000 		.4byte	.LVL338
 10850 13c9 5D000000 		.4byte	.LVL340-1
 10851 13cd 0100     		.2byte	0x1
 10852 13cf 50       		.byte	0x50
 10853 13d0 5D000000 		.4byte	.LVL340-1
 10854 13d4 60000000 		.4byte	.LVL341
 10855 13d8 0100     		.2byte	0x1
 10856 13da 54       		.byte	0x54
 10857 13db 60000000 		.4byte	.LVL341
 10858 13df 7C000000 		.4byte	.LVL345
 10859 13e3 0400     		.2byte	0x4
 10860 13e5 F3       		.byte	0xf3
 10861 13e6 01       		.uleb128 0x1
 10862 13e7 50       		.byte	0x50
 10863 13e8 9F       		.byte	0x9f
 10864 13e9 7C000000 		.4byte	.LVL345
 10865 13ed 85000000 		.4byte	.LVL347-1
 10866 13f1 0100     		.2byte	0x1
 10867 13f3 50       		.byte	0x50
 10868 13f4 85000000 		.4byte	.LVL347-1
 10869 13f8 88000000 		.4byte	.LVL348
 10870 13fc 0100     		.2byte	0x1
 10871 13fe 54       		.byte	0x54
 10872 13ff 88000000 		.4byte	.LVL348
 10873 1403 A2000000 		.4byte	.LVL352
 10874 1407 0400     		.2byte	0x4
 10875 1409 F3       		.byte	0xf3
 10876 140a 01       		.uleb128 0x1
 10877 140b 50       		.byte	0x50
 10878 140c 9F       		.byte	0x9f
ARM GAS  C:\Users\Phuong\AppData\Local\Temp\ccPPbPWA.s 			page 216


 10879 140d A2000000 		.4byte	.LVL352
 10880 1411 A4000000 		.4byte	.LVL353
 10881 1415 0100     		.2byte	0x1
 10882 1417 50       		.byte	0x50
 10883 1418 A4000000 		.4byte	.LVL353
 10884 141c B2000000 		.4byte	.LVL358
 10885 1420 0100     		.2byte	0x1
 10886 1422 54       		.byte	0x54
 10887 1423 B2000000 		.4byte	.LVL358
 10888 1427 CC000000 		.4byte	.LVL362
 10889 142b 0400     		.2byte	0x4
 10890 142d F3       		.byte	0xf3
 10891 142e 01       		.uleb128 0x1
 10892 142f 50       		.byte	0x50
 10893 1430 9F       		.byte	0x9f
 10894 1431 CC000000 		.4byte	.LVL362
 10895 1435 E6000000 		.4byte	.LVL367
 10896 1439 0100     		.2byte	0x1
 10897 143b 54       		.byte	0x54
 10898 143c E6000000 		.4byte	.LVL367
 10899 1440 00010000 		.4byte	.LVL371
 10900 1444 0400     		.2byte	0x4
 10901 1446 F3       		.byte	0xf3
 10902 1447 01       		.uleb128 0x1
 10903 1448 50       		.byte	0x50
 10904 1449 9F       		.byte	0x9f
 10905 144a 00010000 		.4byte	.LVL371
 10906 144e 12010000 		.4byte	.LVL375
 10907 1452 0100     		.2byte	0x1
 10908 1454 54       		.byte	0x54
 10909 1455 12010000 		.4byte	.LVL375
 10910 1459 2C010000 		.4byte	.LVL379
 10911 145d 0400     		.2byte	0x4
 10912 145f F3       		.byte	0xf3
 10913 1460 01       		.uleb128 0x1
 10914 1461 50       		.byte	0x50
 10915 1462 9F       		.byte	0x9f
 10916 1463 2C010000 		.4byte	.LVL379
 10917 1467 62010000 		.4byte	.LVL382
 10918 146b 0100     		.2byte	0x1
 10919 146d 54       		.byte	0x54
 10920 146e 62010000 		.4byte	.LVL382
 10921 1472 CC010000 		.4byte	.LFE14
 10922 1476 0400     		.2byte	0x4
 10923 1478 F3       		.byte	0xf3
 10924 1479 01       		.uleb128 0x1
 10925 147a 50       		.byte	0x50
 10926 147b 9F       		.byte	0x9f
 10927 147c 00000000 		.4byte	0
 10928 1480 00000000 		.4byte	0
 10929              	.LLST84:
 10930 1484 08000000 		.4byte	.LVL325
 10931 1488 2C000000 		.4byte	.LVL331
 10932 148c 0200     		.2byte	0x2
 10933 148e 30       		.byte	0x30
 10934 148f 9F       		.byte	0x9f
 10935 1490 32000000 		.4byte	.LVL332
ARM GAS  C:\Users\Phuong\AppData\Local\Temp\ccPPbPWA.s 			page 217


 10936 1494 54000000 		.4byte	.LVL338
 10937 1498 0200     		.2byte	0x2
 10938 149a 30       		.byte	0x30
 10939 149b 9F       		.byte	0x9f
 10940 149c 5A000000 		.4byte	.LVL339
 10941 14a0 7C000000 		.4byte	.LVL345
 10942 14a4 0200     		.2byte	0x2
 10943 14a6 30       		.byte	0x30
 10944 14a7 9F       		.byte	0x9f
 10945 14a8 82000000 		.4byte	.LVL346
 10946 14ac A2000000 		.4byte	.LVL352
 10947 14b0 0200     		.2byte	0x2
 10948 14b2 30       		.byte	0x30
 10949 14b3 9F       		.byte	0x9f
 10950 14b4 AC000000 		.4byte	.LVL356
 10951 14b8 CC000000 		.4byte	.LVL362
 10952 14bc 0200     		.2byte	0x2
 10953 14be 30       		.byte	0x30
 10954 14bf 9F       		.byte	0x9f
 10955 14c0 E0000000 		.4byte	.LVL365
 10956 14c4 00010000 		.4byte	.LVL371
 10957 14c8 0200     		.2byte	0x2
 10958 14ca 30       		.byte	0x30
 10959 14cb 9F       		.byte	0x9f
 10960 14cc 0C010000 		.4byte	.LVL373
 10961 14d0 2C010000 		.4byte	.LVL379
 10962 14d4 0200     		.2byte	0x2
 10963 14d6 30       		.byte	0x30
 10964 14d7 9F       		.byte	0x9f
 10965 14d8 60010000 		.4byte	.LVL381
 10966 14dc 64010000 		.4byte	.LVL383
 10967 14e0 0100     		.2byte	0x1
 10968 14e2 55       		.byte	0x55
 10969 14e3 64010000 		.4byte	.LVL383
 10970 14e7 6A010000 		.4byte	.LVL385
 10971 14eb 0200     		.2byte	0x2
 10972 14ed 30       		.byte	0x30
 10973 14ee 9F       		.byte	0x9f
 10974 14ef 6A010000 		.4byte	.LVL385
 10975 14f3 76010000 		.4byte	.LVL387
 10976 14f7 0100     		.2byte	0x1
 10977 14f9 54       		.byte	0x54
 10978 14fa 76010000 		.4byte	.LVL387
 10979 14fe 88010000 		.4byte	.LVL392
 10980 1502 0200     		.2byte	0x2
 10981 1504 30       		.byte	0x30
 10982 1505 9F       		.byte	0x9f
 10983 1506 88010000 		.4byte	.LVL392
 10984 150a 8C010000 		.4byte	.LVL393
 10985 150e 0100     		.2byte	0x1
 10986 1510 54       		.byte	0x54
 10987 1511 8C010000 		.4byte	.LVL393
 10988 1515 CC010000 		.4byte	.LFE14
 10989 1519 0100     		.2byte	0x1
 10990 151b 50       		.byte	0x50
 10991 151c 00000000 		.4byte	0
 10992 1520 00000000 		.4byte	0
ARM GAS  C:\Users\Phuong\AppData\Local\Temp\ccPPbPWA.s 			page 218


 10993              	.LLST85:
 10994 1524 0E000000 		.4byte	.LVL327
 10995 1528 26000000 		.4byte	.LVL328
 10996 152c 0100     		.2byte	0x1
 10997 152e 50       		.byte	0x50
 10998 152f 26000000 		.4byte	.LVL328
 10999 1533 2A000000 		.4byte	.LVL330
 11000 1537 0100     		.2byte	0x1
 11001 1539 54       		.byte	0x54
 11002 153a 76010000 		.4byte	.LVL387
 11003 153e 7A010000 		.4byte	.LVL388
 11004 1542 0100     		.2byte	0x1
 11005 1544 50       		.byte	0x50
 11006 1545 00000000 		.4byte	0
 11007 1549 00000000 		.4byte	0
 11008              	.LLST86:
 11009 154d 38000000 		.4byte	.LVL334
 11010 1551 4E000000 		.4byte	.LVL335
 11011 1555 0100     		.2byte	0x1
 11012 1557 50       		.byte	0x50
 11013 1558 4E000000 		.4byte	.LVL335
 11014 155c 52000000 		.4byte	.LVL337
 11015 1560 0100     		.2byte	0x1
 11016 1562 54       		.byte	0x54
 11017 1563 7A010000 		.4byte	.LVL388
 11018 1567 7E010000 		.4byte	.LVL389
 11019 156b 0100     		.2byte	0x1
 11020 156d 50       		.byte	0x50
 11021 156e 00000000 		.4byte	0
 11022 1572 00000000 		.4byte	0
 11023              	.LLST87:
 11024 1576 60000000 		.4byte	.LVL341
 11025 157a 76000000 		.4byte	.LVL342
 11026 157e 0100     		.2byte	0x1
 11027 1580 50       		.byte	0x50
 11028 1581 76000000 		.4byte	.LVL342
 11029 1585 7A000000 		.4byte	.LVL344
 11030 1589 0100     		.2byte	0x1
 11031 158b 54       		.byte	0x54
 11032 158c 7E010000 		.4byte	.LVL389
 11033 1590 82010000 		.4byte	.LVL390
 11034 1594 0100     		.2byte	0x1
 11035 1596 50       		.byte	0x50
 11036 1597 00000000 		.4byte	0
 11037 159b 00000000 		.4byte	0
 11038              	.LLST88:
 11039 159f 88000000 		.4byte	.LVL348
 11040 15a3 9C000000 		.4byte	.LVL349
 11041 15a7 0100     		.2byte	0x1
 11042 15a9 50       		.byte	0x50
 11043 15aa 9C000000 		.4byte	.LVL349
 11044 15ae A0000000 		.4byte	.LVL351
 11045 15b2 0100     		.2byte	0x1
 11046 15b4 54       		.byte	0x54
 11047 15b5 82010000 		.4byte	.LVL390
 11048 15b9 86010000 		.4byte	.LVL391
 11049 15bd 0100     		.2byte	0x1
ARM GAS  C:\Users\Phuong\AppData\Local\Temp\ccPPbPWA.s 			page 219


 11050 15bf 50       		.byte	0x50
 11051 15c0 00000000 		.4byte	0
 11052 15c4 00000000 		.4byte	0
 11053              	.LLST89:
 11054 15c8 AA000000 		.4byte	.LVL355
 11055 15cc AF000000 		.4byte	.LVL357-1
 11056 15d0 0100     		.2byte	0x1
 11057 15d2 50       		.byte	0x50
 11058 15d3 AF000000 		.4byte	.LVL357-1
 11059 15d7 CC000000 		.4byte	.LVL362
 11060 15db 0100     		.2byte	0x1
 11061 15dd 55       		.byte	0x55
 11062 15de CC000000 		.4byte	.LVL362
 11063 15e2 D3000000 		.4byte	.LVL363-1
 11064 15e6 0100     		.2byte	0x1
 11065 15e8 50       		.byte	0x50
 11066 15e9 D3000000 		.4byte	.LVL363-1
 11067 15ed 76010000 		.4byte	.LVL387
 11068 15f1 0100     		.2byte	0x1
 11069 15f3 55       		.byte	0x55
 11070 15f4 86010000 		.4byte	.LVL391
 11071 15f8 88010000 		.4byte	.LVL392
 11072 15fc 0100     		.2byte	0x1
 11073 15fe 55       		.byte	0x55
 11074 15ff 00000000 		.4byte	0
 11075 1603 00000000 		.4byte	0
 11076              	.LLST90:
 11077 1607 B2000000 		.4byte	.LVL358
 11078 160b C6000000 		.4byte	.LVL359
 11079 160f 0100     		.2byte	0x1
 11080 1611 50       		.byte	0x50
 11081 1612 C6000000 		.4byte	.LVL359
 11082 1616 CA000000 		.4byte	.LVL361
 11083 161a 0100     		.2byte	0x1
 11084 161c 54       		.byte	0x54
 11085 161d 86010000 		.4byte	.LVL391
 11086 1621 88010000 		.4byte	.LVL392
 11087 1625 0100     		.2byte	0x1
 11088 1627 50       		.byte	0x50
 11089 1628 00000000 		.4byte	0
 11090 162c 00000000 		.4byte	0
 11091              	.LLST91:
 11092 1630 E6000000 		.4byte	.LVL367
 11093 1634 FA000000 		.4byte	.LVL368
 11094 1638 0100     		.2byte	0x1
 11095 163a 50       		.byte	0x50
 11096 163b FA000000 		.4byte	.LVL368
 11097 163f FE000000 		.4byte	.LVL370
 11098 1643 0100     		.2byte	0x1
 11099 1645 54       		.byte	0x54
 11100 1646 64010000 		.4byte	.LVL383
 11101 164a 68010000 		.4byte	.LVL384
 11102 164e 0100     		.2byte	0x1
 11103 1650 50       		.byte	0x50
 11104 1651 00000000 		.4byte	0
 11105 1655 00000000 		.4byte	0
 11106              	.LLST92:
ARM GAS  C:\Users\Phuong\AppData\Local\Temp\ccPPbPWA.s 			page 220


 11107 1659 12010000 		.4byte	.LVL375
 11108 165d 26010000 		.4byte	.LVL376
 11109 1661 0100     		.2byte	0x1
 11110 1663 50       		.byte	0x50
 11111 1664 26010000 		.4byte	.LVL376
 11112 1668 2A010000 		.4byte	.LVL378
 11113 166c 0100     		.2byte	0x1
 11114 166e 54       		.byte	0x54
 11115 166f 68010000 		.4byte	.LVL384
 11116 1673 6A010000 		.4byte	.LVL385
 11117 1677 0100     		.2byte	0x1
 11118 1679 50       		.byte	0x50
 11119 167a 00000000 		.4byte	0
 11120 167e 00000000 		.4byte	0
 11121              	.LLST93:
 11122 1682 00000000 		.4byte	.LVL394
 11123 1686 0B000000 		.4byte	.LVL395-1
 11124 168a 0100     		.2byte	0x1
 11125 168c 50       		.byte	0x50
 11126 168d 0B000000 		.4byte	.LVL395-1
 11127 1691 0E000000 		.4byte	.LVL396
 11128 1695 0100     		.2byte	0x1
 11129 1697 54       		.byte	0x54
 11130 1698 0E000000 		.4byte	.LVL396
 11131 169c 28000000 		.4byte	.LVL399
 11132 16a0 0400     		.2byte	0x4
 11133 16a2 F3       		.byte	0xf3
 11134 16a3 01       		.uleb128 0x1
 11135 16a4 50       		.byte	0x50
 11136 16a5 9F       		.byte	0x9f
 11137 16a6 28000000 		.4byte	.LVL399
 11138 16aa 37000000 		.4byte	.LVL400-1
 11139 16ae 0100     		.2byte	0x1
 11140 16b0 50       		.byte	0x50
 11141 16b1 37000000 		.4byte	.LVL400-1
 11142 16b5 76000000 		.4byte	.LVL404
 11143 16b9 0100     		.2byte	0x1
 11144 16bb 54       		.byte	0x54
 11145 16bc 76000000 		.4byte	.LVL404
 11146 16c0 80000000 		.4byte	.LVL405
 11147 16c4 0100     		.2byte	0x1
 11148 16c6 50       		.byte	0x50
 11149 16c7 80000000 		.4byte	.LVL405
 11150 16cb F2000000 		.4byte	.LVL415
 11151 16cf 0100     		.2byte	0x1
 11152 16d1 54       		.byte	0x54
 11153 16d2 F2000000 		.4byte	.LVL415
 11154 16d6 F9000000 		.4byte	.LVL416-1
 11155 16da 0100     		.2byte	0x1
 11156 16dc 50       		.byte	0x50
 11157 16dd F9000000 		.4byte	.LVL416-1
 11158 16e1 36010000 		.4byte	.LVL422
 11159 16e5 0100     		.2byte	0x1
 11160 16e7 54       		.byte	0x54
 11161 16e8 36010000 		.4byte	.LVL422
 11162 16ec 58010000 		.4byte	.LFE15
 11163 16f0 0400     		.2byte	0x4
ARM GAS  C:\Users\Phuong\AppData\Local\Temp\ccPPbPWA.s 			page 221


 11164 16f2 F3       		.byte	0xf3
 11165 16f3 01       		.uleb128 0x1
 11166 16f4 50       		.byte	0x50
 11167 16f5 9F       		.byte	0x9f
 11168 16f6 00000000 		.4byte	0
 11169 16fa 00000000 		.4byte	0
 11170              	.LLST94:
 11171 16fe 0E000000 		.4byte	.LVL396
 11172 1702 24000000 		.4byte	.LVL397
 11173 1706 0100     		.2byte	0x1
 11174 1708 50       		.byte	0x50
 11175 1709 24000000 		.4byte	.LVL397
 11176 170d 28000000 		.4byte	.LVL399
 11177 1711 0100     		.2byte	0x1
 11178 1713 54       		.byte	0x54
 11179 1714 00000000 		.4byte	0
 11180 1718 00000000 		.4byte	0
 11181              	.LLST95:
 11182 171c 28000000 		.4byte	.LVL399
 11183 1720 37000000 		.4byte	.LVL400-1
 11184 1724 0100     		.2byte	0x1
 11185 1726 50       		.byte	0x50
 11186 1727 37000000 		.4byte	.LVL400-1
 11187 172b 76000000 		.4byte	.LVL404
 11188 172f 0100     		.2byte	0x1
 11189 1731 54       		.byte	0x54
 11190 1732 76000000 		.4byte	.LVL404
 11191 1736 80000000 		.4byte	.LVL405
 11192 173a 0100     		.2byte	0x1
 11193 173c 50       		.byte	0x50
 11194 173d 80000000 		.4byte	.LVL405
 11195 1741 F2000000 		.4byte	.LVL415
 11196 1745 0100     		.2byte	0x1
 11197 1747 54       		.byte	0x54
 11198 1748 F2000000 		.4byte	.LVL415
 11199 174c F9000000 		.4byte	.LVL416-1
 11200 1750 0100     		.2byte	0x1
 11201 1752 50       		.byte	0x50
 11202 1753 F9000000 		.4byte	.LVL416-1
 11203 1757 36010000 		.4byte	.LVL422
 11204 175b 0100     		.2byte	0x1
 11205 175d 54       		.byte	0x54
 11206 175e 00000000 		.4byte	0
 11207 1762 00000000 		.4byte	0
 11208              	.LLST96:
 11209 1766 B6000000 		.4byte	.LVL410
 11210 176a D0000000 		.4byte	.LVL411
 11211 176e 0100     		.2byte	0x1
 11212 1770 50       		.byte	0x50
 11213 1771 D0000000 		.4byte	.LVL411
 11214 1775 D2000000 		.4byte	.LVL412
 11215 1779 0100     		.2byte	0x1
 11216 177b 55       		.byte	0x55
 11217 177c 00000000 		.4byte	0
 11218 1780 00000000 		.4byte	0
 11219              	.LLST97:
 11220 1784 04010000 		.4byte	.LVL418
ARM GAS  C:\Users\Phuong\AppData\Local\Temp\ccPPbPWA.s 			page 222


 11221 1788 1C010000 		.4byte	.LVL419
 11222 178c 0100     		.2byte	0x1
 11223 178e 50       		.byte	0x50
 11224 178f 1C010000 		.4byte	.LVL419
 11225 1793 1E010000 		.4byte	.LVL420
 11226 1797 0100     		.2byte	0x1
 11227 1799 55       		.byte	0x55
 11228 179a 00000000 		.4byte	0
 11229 179e 00000000 		.4byte	0
 11230              	.LLST98:
 11231 17a2 00000000 		.4byte	.LVL423
 11232 17a6 0B000000 		.4byte	.LVL424-1
 11233 17aa 0100     		.2byte	0x1
 11234 17ac 50       		.byte	0x50
 11235 17ad 0B000000 		.4byte	.LVL424-1
 11236 17b1 0E000000 		.4byte	.LVL425
 11237 17b5 0100     		.2byte	0x1
 11238 17b7 54       		.byte	0x54
 11239 17b8 0E000000 		.4byte	.LVL425
 11240 17bc 2A000000 		.4byte	.LVL429
 11241 17c0 0400     		.2byte	0x4
 11242 17c2 F3       		.byte	0xf3
 11243 17c3 01       		.uleb128 0x1
 11244 17c4 50       		.byte	0x50
 11245 17c5 9F       		.byte	0x9f
 11246 17c6 2A000000 		.4byte	.LVL429
 11247 17ca 30000000 		.4byte	.LVL430
 11248 17ce 0100     		.2byte	0x1
 11249 17d0 50       		.byte	0x50
 11250 17d1 30000000 		.4byte	.LVL430
 11251 17d5 3E000000 		.4byte	.LVL434
 11252 17d9 0100     		.2byte	0x1
 11253 17db 54       		.byte	0x54
 11254 17dc 3E000000 		.4byte	.LVL434
 11255 17e0 5A000000 		.4byte	.LVL438
 11256 17e4 0400     		.2byte	0x4
 11257 17e6 F3       		.byte	0xf3
 11258 17e7 01       		.uleb128 0x1
 11259 17e8 50       		.byte	0x50
 11260 17e9 9F       		.byte	0x9f
 11261 17ea 5A000000 		.4byte	.LVL438
 11262 17ee 6E000000 		.4byte	.LVL441
 11263 17f2 0100     		.2byte	0x1
 11264 17f4 54       		.byte	0x54
 11265 17f5 6E000000 		.4byte	.LVL441
 11266 17f9 8C000000 		.4byte	.LVL445
 11267 17fd 0400     		.2byte	0x4
 11268 17ff F3       		.byte	0xf3
 11269 1800 01       		.uleb128 0x1
 11270 1801 50       		.byte	0x50
 11271 1802 9F       		.byte	0x9f
 11272 1803 8C000000 		.4byte	.LVL445
 11273 1807 A2000000 		.4byte	.LVL448
 11274 180b 0100     		.2byte	0x1
 11275 180d 54       		.byte	0x54
 11276 180e A2000000 		.4byte	.LVL448
 11277 1812 C2000000 		.4byte	.LVL452
ARM GAS  C:\Users\Phuong\AppData\Local\Temp\ccPPbPWA.s 			page 223


 11278 1816 0400     		.2byte	0x4
 11279 1818 F3       		.byte	0xf3
 11280 1819 01       		.uleb128 0x1
 11281 181a 50       		.byte	0x50
 11282 181b 9F       		.byte	0x9f
 11283 181c C2000000 		.4byte	.LVL452
 11284 1820 D8000000 		.4byte	.LVL455
 11285 1824 0100     		.2byte	0x1
 11286 1826 54       		.byte	0x54
 11287 1827 D8000000 		.4byte	.LVL455
 11288 182b FE000000 		.4byte	.LVL461
 11289 182f 0400     		.2byte	0x4
 11290 1831 F3       		.byte	0xf3
 11291 1832 01       		.uleb128 0x1
 11292 1833 50       		.byte	0x50
 11293 1834 9F       		.byte	0x9f
 11294 1835 FE000000 		.4byte	.LVL461
 11295 1839 00010000 		.4byte	.LVL462
 11296 183d 0100     		.2byte	0x1
 11297 183f 54       		.byte	0x54
 11298 1840 00010000 		.4byte	.LVL462
 11299 1844 54010000 		.4byte	.LFE17
 11300 1848 0400     		.2byte	0x4
 11301 184a F3       		.byte	0xf3
 11302 184b 01       		.uleb128 0x1
 11303 184c 50       		.byte	0x50
 11304 184d 9F       		.byte	0x9f
 11305 184e 00000000 		.4byte	0
 11306 1852 00000000 		.4byte	0
 11307              	.LLST99:
 11308 1856 04010000 		.4byte	.LVL464
 11309 185a 10010000 		.4byte	.LVL466
 11310 185e 0100     		.2byte	0x1
 11311 1860 54       		.byte	0x54
 11312 1861 16010000 		.4byte	.LVL468
 11313 1865 1A010000 		.4byte	.LVL469
 11314 1869 0100     		.2byte	0x1
 11315 186b 54       		.byte	0x54
 11316 186c 1A010000 		.4byte	.LVL469
 11317 1870 54010000 		.4byte	.LFE17
 11318 1874 0100     		.2byte	0x1
 11319 1876 50       		.byte	0x50
 11320 1877 00000000 		.4byte	0
 11321 187b 00000000 		.4byte	0
 11322              	.LLST100:
 11323 187f 0E000000 		.4byte	.LVL425
 11324 1883 24000000 		.4byte	.LVL426
 11325 1887 0100     		.2byte	0x1
 11326 1889 50       		.byte	0x50
 11327 188a 24000000 		.4byte	.LVL426
 11328 188e 28000000 		.4byte	.LVL428
 11329 1892 0100     		.2byte	0x1
 11330 1894 54       		.byte	0x54
 11331 1895 10010000 		.4byte	.LVL466
 11332 1899 14010000 		.4byte	.LVL467
 11333 189d 0100     		.2byte	0x1
 11334 189f 50       		.byte	0x50
ARM GAS  C:\Users\Phuong\AppData\Local\Temp\ccPPbPWA.s 			page 224


 11335 18a0 00000000 		.4byte	0
 11336 18a4 00000000 		.4byte	0
 11337              	.LLST101:
 11338 18a8 36000000 		.4byte	.LVL432
 11339 18ac 3B000000 		.4byte	.LVL433-1
 11340 18b0 0100     		.2byte	0x1
 11341 18b2 50       		.byte	0x50
 11342 18b3 3B000000 		.4byte	.LVL433-1
 11343 18b7 5A000000 		.4byte	.LVL438
 11344 18bb 0100     		.2byte	0x1
 11345 18bd 55       		.byte	0x55
 11346 18be 5A000000 		.4byte	.LVL438
 11347 18c2 63000000 		.4byte	.LVL439-1
 11348 18c6 0100     		.2byte	0x1
 11349 18c8 50       		.byte	0x50
 11350 18c9 63000000 		.4byte	.LVL439-1
 11351 18cd 10010000 		.4byte	.LVL466
 11352 18d1 0100     		.2byte	0x1
 11353 18d3 55       		.byte	0x55
 11354 18d4 14010000 		.4byte	.LVL467
 11355 18d8 16010000 		.4byte	.LVL468
 11356 18dc 0100     		.2byte	0x1
 11357 18de 55       		.byte	0x55
 11358 18df 00000000 		.4byte	0
 11359 18e3 00000000 		.4byte	0
 11360              	.LLST102:
 11361 18e7 3E000000 		.4byte	.LVL434
 11362 18eb 54000000 		.4byte	.LVL435
 11363 18ef 0100     		.2byte	0x1
 11364 18f1 50       		.byte	0x50
 11365 18f2 54000000 		.4byte	.LVL435
 11366 18f6 58000000 		.4byte	.LVL437
 11367 18fa 0100     		.2byte	0x1
 11368 18fc 54       		.byte	0x54
 11369 18fd 14010000 		.4byte	.LVL467
 11370 1901 16010000 		.4byte	.LVL468
 11371 1905 0100     		.2byte	0x1
 11372 1907 50       		.byte	0x50
 11373 1908 00000000 		.4byte	0
 11374 190c 00000000 		.4byte	0
 11375              	.LLST103:
 11376 1910 5A000000 		.4byte	.LVL438
 11377 1914 6E000000 		.4byte	.LVL441
 11378 1918 0100     		.2byte	0x1
 11379 191a 54       		.byte	0x54
 11380 191b 6E000000 		.4byte	.LVL441
 11381 191f 8C000000 		.4byte	.LVL445
 11382 1923 0400     		.2byte	0x4
 11383 1925 F3       		.byte	0xf3
 11384 1926 01       		.uleb128 0x1
 11385 1927 50       		.byte	0x50
 11386 1928 9F       		.byte	0x9f
 11387 1929 8C000000 		.4byte	.LVL445
 11388 192d A2000000 		.4byte	.LVL448
 11389 1931 0100     		.2byte	0x1
 11390 1933 54       		.byte	0x54
 11391 1934 A2000000 		.4byte	.LVL448
ARM GAS  C:\Users\Phuong\AppData\Local\Temp\ccPPbPWA.s 			page 225


 11392 1938 C2000000 		.4byte	.LVL452
 11393 193c 0400     		.2byte	0x4
 11394 193e F3       		.byte	0xf3
 11395 193f 01       		.uleb128 0x1
 11396 1940 50       		.byte	0x50
 11397 1941 9F       		.byte	0x9f
 11398 1942 C2000000 		.4byte	.LVL452
 11399 1946 D8000000 		.4byte	.LVL455
 11400 194a 0100     		.2byte	0x1
 11401 194c 54       		.byte	0x54
 11402 194d D8000000 		.4byte	.LVL455
 11403 1951 FE000000 		.4byte	.LVL461
 11404 1955 0400     		.2byte	0x4
 11405 1957 F3       		.byte	0xf3
 11406 1958 01       		.uleb128 0x1
 11407 1959 50       		.byte	0x50
 11408 195a 9F       		.byte	0x9f
 11409 195b FE000000 		.4byte	.LVL461
 11410 195f 00010000 		.4byte	.LVL462
 11411 1963 0100     		.2byte	0x1
 11412 1965 54       		.byte	0x54
 11413 1966 00010000 		.4byte	.LVL462
 11414 196a 10010000 		.4byte	.LVL466
 11415 196e 0400     		.2byte	0x4
 11416 1970 F3       		.byte	0xf3
 11417 1971 01       		.uleb128 0x1
 11418 1972 50       		.byte	0x50
 11419 1973 9F       		.byte	0x9f
 11420 1974 00000000 		.4byte	0
 11421 1978 00000000 		.4byte	0
 11422              	.LLST104:
 11423 197c 6E000000 		.4byte	.LVL441
 11424 1980 86000000 		.4byte	.LVL442
 11425 1984 0100     		.2byte	0x1
 11426 1986 50       		.byte	0x50
 11427 1987 86000000 		.4byte	.LVL442
 11428 198b 8A000000 		.4byte	.LVL444
 11429 198f 0100     		.2byte	0x1
 11430 1991 54       		.byte	0x54
 11431 1992 F6000000 		.4byte	.LVL459
 11432 1996 FA000000 		.4byte	.LVL460
 11433 199a 0100     		.2byte	0x1
 11434 199c 50       		.byte	0x50
 11435 199d 00000000 		.4byte	0
 11436 19a1 00000000 		.4byte	0
 11437              	.LLST105:
 11438 19a5 A2000000 		.4byte	.LVL448
 11439 19a9 BC000000 		.4byte	.LVL449
 11440 19ad 0100     		.2byte	0x1
 11441 19af 50       		.byte	0x50
 11442 19b0 BC000000 		.4byte	.LVL449
 11443 19b4 C0000000 		.4byte	.LVL451
 11444 19b8 0100     		.2byte	0x1
 11445 19ba 54       		.byte	0x54
 11446 19bb FA000000 		.4byte	.LVL460
 11447 19bf FE000000 		.4byte	.LVL461
 11448 19c3 0100     		.2byte	0x1
ARM GAS  C:\Users\Phuong\AppData\Local\Temp\ccPPbPWA.s 			page 226


 11449 19c5 50       		.byte	0x50
 11450 19c6 00000000 		.4byte	0
 11451 19ca 00000000 		.4byte	0
 11452              	.LLST106:
 11453 19ce D8000000 		.4byte	.LVL455
 11454 19d2 F0000000 		.4byte	.LVL456
 11455 19d6 0100     		.2byte	0x1
 11456 19d8 50       		.byte	0x50
 11457 19d9 F0000000 		.4byte	.LVL456
 11458 19dd F4000000 		.4byte	.LVL458
 11459 19e1 0100     		.2byte	0x1
 11460 19e3 54       		.byte	0x54
 11461 19e4 02010000 		.4byte	.LVL463
 11462 19e8 04010000 		.4byte	.LVL464
 11463 19ec 0100     		.2byte	0x1
 11464 19ee 50       		.byte	0x50
 11465 19ef 00000000 		.4byte	0
 11466 19f3 00000000 		.4byte	0
 11467              		.section	.debug_aranges,"",%progbits
 11468 0000 9C000000 		.4byte	0x9c
 11469 0004 0200     		.2byte	0x2
 11470 0006 00000000 		.4byte	.Ldebug_info0
 11471 000a 04       		.byte	0x4
 11472 000b 00       		.byte	0
 11473 000c 0000     		.2byte	0
 11474 000e 0000     		.2byte	0
 11475 0010 00000000 		.4byte	.LFB1
 11476 0014 1A000000 		.4byte	.LFE1-.LFB1
 11477 0018 00000000 		.4byte	.LFB2
 11478 001c 0E000000 		.4byte	.LFE2-.LFB2
 11479 0020 00000000 		.4byte	.LFB6
 11480 0024 78000000 		.4byte	.LFE6-.LFB6
 11481 0028 00000000 		.4byte	.LFB3
 11482 002c 94000000 		.4byte	.LFE3-.LFB3
 11483 0030 00000000 		.4byte	.LFB4
 11484 0034 94000000 		.4byte	.LFE4-.LFB4
 11485 0038 00000000 		.4byte	.LFB5
 11486 003c 84000000 		.4byte	.LFE5-.LFB5
 11487 0040 00000000 		.4byte	.LFB7
 11488 0044 A4000000 		.4byte	.LFE7-.LFB7
 11489 0048 00000000 		.4byte	.LFB8
 11490 004c EC010000 		.4byte	.LFE8-.LFB8
 11491 0050 00000000 		.4byte	.LFB9
 11492 0054 D8000000 		.4byte	.LFE9-.LFB9
 11493 0058 00000000 		.4byte	.LFB16
 11494 005c 18010000 		.4byte	.LFE16-.LFB16
 11495 0060 00000000 		.4byte	.LFB10
 11496 0064 78000000 		.4byte	.LFE10-.LFB10
 11497 0068 00000000 		.4byte	.LFB11
 11498 006c BC000000 		.4byte	.LFE11-.LFB11
 11499 0070 00000000 		.4byte	.LFB12
 11500 0074 84000000 		.4byte	.LFE12-.LFB12
 11501 0078 00000000 		.4byte	.LFB13
 11502 007c 54000000 		.4byte	.LFE13-.LFB13
 11503 0080 00000000 		.4byte	.LFB14
 11504 0084 CC010000 		.4byte	.LFE14-.LFB14
 11505 0088 00000000 		.4byte	.LFB15
ARM GAS  C:\Users\Phuong\AppData\Local\Temp\ccPPbPWA.s 			page 227


 11506 008c 58010000 		.4byte	.LFE15-.LFB15
 11507 0090 00000000 		.4byte	.LFB17
 11508 0094 54010000 		.4byte	.LFE17-.LFB17
 11509 0098 00000000 		.4byte	0
 11510 009c 00000000 		.4byte	0
 11511              		.section	.debug_ranges,"",%progbits
 11512              	.Ldebug_ranges0:
 11513 0000 2E000000 		.4byte	.LBB5
 11514 0004 78000000 		.4byte	.LBE5
 11515 0008 7C000000 		.4byte	.LBB7
 11516 000c 7E000000 		.4byte	.LBE7
 11517 0010 00000000 		.4byte	0
 11518 0014 00000000 		.4byte	0
 11519 0018 2E000000 		.4byte	.LBB9
 11520 001c 78000000 		.4byte	.LBE9
 11521 0020 7C000000 		.4byte	.LBB11
 11522 0024 7E000000 		.4byte	.LBE11
 11523 0028 00000000 		.4byte	0
 11524 002c 00000000 		.4byte	0
 11525 0030 86000000 		.4byte	.LBB20
 11526 0034 14010000 		.4byte	.LBE20
 11527 0038 4C010000 		.4byte	.LBB25
 11528 003c 66010000 		.4byte	.LBE25
 11529 0040 00000000 		.4byte	0
 11530 0044 00000000 		.4byte	0
 11531 0048 3E000000 		.4byte	.LBB31
 11532 004c CC000000 		.4byte	.LBE31
 11533 0050 D2000000 		.4byte	.LBB34
 11534 0054 DC000000 		.4byte	.LBE34
 11535 0058 00000000 		.4byte	0
 11536 005c 00000000 		.4byte	0
 11537 0060 54000000 		.4byte	.LBB39
 11538 0064 92000000 		.4byte	.LBE39
 11539 0068 9E000000 		.4byte	.LBB41
 11540 006c A2000000 		.4byte	.LBE41
 11541 0070 00000000 		.4byte	0
 11542 0074 00000000 		.4byte	0
 11543 0078 2C000000 		.4byte	.LBB43
 11544 007c 66000000 		.4byte	.LBE43
 11545 0080 6C000000 		.4byte	.LBB45
 11546 0084 70000000 		.4byte	.LBE45
 11547 0088 00000000 		.4byte	0
 11548 008c 00000000 		.4byte	0
 11549 0090 A2000000 		.4byte	.LBB52
 11550 0094 76010000 		.4byte	.LBE52
 11551 0098 86010000 		.4byte	.LBB56
 11552 009c 88010000 		.4byte	.LBE56
 11553 00a0 00000000 		.4byte	0
 11554 00a4 00000000 		.4byte	0
 11555 00a8 2A000000 		.4byte	.LBB64
 11556 00ac 10010000 		.4byte	.LBE64
 11557 00b0 14010000 		.4byte	.LBB70
 11558 00b4 16010000 		.4byte	.LBE70
 11559 00b8 00000000 		.4byte	0
 11560 00bc 00000000 		.4byte	0
 11561 00c0 00000000 		.4byte	.LFB1
 11562 00c4 1A000000 		.4byte	.LFE1
ARM GAS  C:\Users\Phuong\AppData\Local\Temp\ccPPbPWA.s 			page 228


 11563 00c8 00000000 		.4byte	.LFB2
 11564 00cc 0E000000 		.4byte	.LFE2
 11565 00d0 00000000 		.4byte	.LFB6
 11566 00d4 78000000 		.4byte	.LFE6
 11567 00d8 00000000 		.4byte	.LFB3
 11568 00dc 94000000 		.4byte	.LFE3
 11569 00e0 00000000 		.4byte	.LFB4
 11570 00e4 94000000 		.4byte	.LFE4
 11571 00e8 00000000 		.4byte	.LFB5
 11572 00ec 84000000 		.4byte	.LFE5
 11573 00f0 00000000 		.4byte	.LFB7
 11574 00f4 A4000000 		.4byte	.LFE7
 11575 00f8 00000000 		.4byte	.LFB8
 11576 00fc EC010000 		.4byte	.LFE8
 11577 0100 00000000 		.4byte	.LFB9
 11578 0104 D8000000 		.4byte	.LFE9
 11579 0108 00000000 		.4byte	.LFB16
 11580 010c 18010000 		.4byte	.LFE16
 11581 0110 00000000 		.4byte	.LFB10
 11582 0114 78000000 		.4byte	.LFE10
 11583 0118 00000000 		.4byte	.LFB11
 11584 011c BC000000 		.4byte	.LFE11
 11585 0120 00000000 		.4byte	.LFB12
 11586 0124 84000000 		.4byte	.LFE12
 11587 0128 00000000 		.4byte	.LFB13
 11588 012c 54000000 		.4byte	.LFE13
 11589 0130 00000000 		.4byte	.LFB14
 11590 0134 CC010000 		.4byte	.LFE14
 11591 0138 00000000 		.4byte	.LFB15
 11592 013c 58010000 		.4byte	.LFE15
 11593 0140 00000000 		.4byte	.LFB17
 11594 0144 54010000 		.4byte	.LFE17
 11595 0148 00000000 		.4byte	0
 11596 014c 00000000 		.4byte	0
 11597              		.section	.debug_line,"",%progbits
 11598              	.Ldebug_line0:
 11599 0000 C4080000 		.section	.debug_str,"MS",%progbits,1
 11599      0200E103 
 11599      00000201 
 11599      FB0E0D00 
 11599      01010101 
 11600              	.LASF138:
 11601 0000 6765745F 		.ascii	"get_difftime\000"
 11601      64696666 
 11601      74696D65 
 11601      00
 11602              	.LASF139:
 11603 000d 53545249 		.ascii	"STRING_c_str\000"
 11603      4E475F63 
 11603      5F737472 
 11603      00
 11604              	.LASF147:
 11605 001a 73747263 		.ascii	"strcmp\000"
 11605      6D7000
 11606              	.LASF77:
 11607 0021 415A5F4C 		.ascii	"AZ_LOG_TRACE\000"
 11607      4F475F54 
ARM GAS  C:\Users\Phuong\AppData\Local\Temp\ccPPbPWA.s 			page 229


 11607      52414345 
 11607      00
 11608              	.LASF8:
 11609 002e 73697A65 		.ascii	"size_t\000"
 11609      5F7400
 11610              	.LASF26:
 11611 0035 494F5448 		.ascii	"IOTHUB_CREDENTIAL_TYPE_DEVICE_KEY\000"
 11611      55425F43 
 11611      52454445 
 11611      4E544941 
 11611      4C5F5459 
 11612              	.LASF144:
 11613 0057 496F5448 		.ascii	"IoTHubClient_Auth_Get_Credential_Type\000"
 11613      7562436C 
 11613      69656E74 
 11613      5F417574 
 11613      685F4765 
 11614              	.LASF60:
 11615 007d 41555448 		.ascii	"AUTHENTICATION_ERROR_CODE\000"
 11615      454E5449 
 11615      43415449 
 11615      4F4E5F45 
 11615      52524F52 
 11616              	.LASF94:
 11617 0097 6572726F 		.ascii	"error_code\000"
 11617      725F636F 
 11617      646500
 11618              	.LASF48:
 11619 00a2 4342535F 		.ascii	"CBS_INSTANCE_TAG\000"
 11619      494E5354 
 11619      414E4345 
 11619      5F544147 
 11619      00
 11620              	.LASF29:
 11621 00b3 494F5448 		.ascii	"IOTHUB_CREDENTIAL_TYPE_SAS_TOKEN\000"
 11621      55425F43 
 11621      52454445 
 11621      4E544941 
 11621      4C5F5459 
 11622              	.LASF54:
 11623 00d4 41555448 		.ascii	"AUTHENTICATION_STATE\000"
 11623      454E5449 
 11623      43415449 
 11623      4F4E5F53 
 11623      54415445 
 11624              	.LASF72:
 11625 00e9 41555448 		.ascii	"AUTHENTICATION_HANDLE\000"
 11625      454E5449 
 11625      43415449 
 11625      4F4E5F48 
 11625      414E444C 
 11626              	.LASF98:
 11627 00ff 73746174 		.ascii	"status_code\000"
 11627      75735F63 
 11627      6F646500 
 11628              	.LASF84:
 11629 010b 7361735F 		.ascii	"sas_token_refresh_time_secs\000"
ARM GAS  C:\Users\Phuong\AppData\Local\Temp\ccPPbPWA.s 			page 230


 11629      746F6B65 
 11629      6E5F7265 
 11629      66726573 
 11629      685F7469 
 11630              	.LASF115:
 11631 0127 63726564 		.ascii	"cred_type\000"
 11631      5F747970 
 11631      6500
 11632              	.LASF136:
 11633 0131 786C6F67 		.ascii	"xlogging_get_log_function\000"
 11633      67696E67 
 11633      5F676574 
 11633      5F6C6F67 
 11633      5F66756E 
 11634              	.LASF28:
 11635 014b 494F5448 		.ascii	"IOTHUB_CREDENTIAL_TYPE_X509_ECC\000"
 11635      55425F43 
 11635      52454445 
 11635      4E544941 
 11635      4C5F5459 
 11636              	.LASF20:
 11637 016b 494F5448 		.ascii	"IOTHUB_AUTHORIZATION_HANDLE\000"
 11637      55425F41 
 11637      5554484F 
 11637      52495A41 
 11637      54494F4E 
 11638              	.LASF145:
 11639 0187 66726565 		.ascii	"free\000"
 11639      00
 11640              	.LASF128:
 11641 018c 61757468 		.ascii	"authentication_do_work\000"
 11641      656E7469 
 11641      63617469 
 11641      6F6E5F64 
 11641      6F5F776F 
 11642              	.LASF75:
 11643 01a3 415A5F4C 		.ascii	"AZ_LOG_ERROR\000"
 11643      4F475F45 
 11643      52524F52 
 11643      00
 11644              	.LASF90:
 11645 01b0 696E7374 		.ascii	"instance\000"
 11645      616E6365 
 11645      00
 11646              	.LASF1:
 11647 01b9 6C6F6E67 		.ascii	"long long int\000"
 11647      206C6F6E 
 11647      6720696E 
 11647      7400
 11648              	.LASF3:
 11649 01c7 7369676E 		.ascii	"signed char\000"
 11649      65642063 
 11649      68617200 
 11650              	.LASF133:
 11651 01d3 41555448 		.ascii	"AUTHENTICATION_OPTION_CBS_REQUEST_TIMEOUT_SECS\000"
 11651      454E5449 
 11651      43415449 
ARM GAS  C:\Users\Phuong\AppData\Local\Temp\ccPPbPWA.s 			page 231


 11651      4F4E5F4F 
 11651      5054494F 
 11652              	.LASF64:
 11653 0202 6D6F6475 		.ascii	"module_id\000"
 11653      6C655F69 
 11653      6400
 11654              	.LASF111:
 11655 020c 7361735F 		.ascii	"sas_token\000"
 11655      746F6B65 
 11655      6E00
 11656              	.LASF11:
 11657 0216 6C6F6E67 		.ascii	"long long unsigned int\000"
 11657      206C6F6E 
 11657      6720756E 
 11657      7369676E 
 11657      65642069 
 11658              	.LASF121:
 11659 022d 61757468 		.ascii	"authentication_destroy_option\000"
 11659      656E7469 
 11659      63617469 
 11659      6F6E5F64 
 11659      65737472 
 11660              	.LASF68:
 11661 024b 6F6E5F65 		.ascii	"on_error_callback\000"
 11661      72726F72 
 11661      5F63616C 
 11661      6C626163 
 11661      6B00
 11662              	.LASF27:
 11663 025d 494F5448 		.ascii	"IOTHUB_CREDENTIAL_TYPE_X509\000"
 11663      55425F43 
 11663      52454445 
 11663      4E544941 
 11663      4C5F5459 
 11664              	.LASF85:
 11665 0279 73746174 		.ascii	"state\000"
 11665      6500
 11666              	.LASF7:
 11667 027f 6C6F6E67 		.ascii	"long int\000"
 11667      20696E74 
 11667      00
 11668              	.LASF73:
 11669 0288 41555448 		.ascii	"AUTHENTICATION_INSTANCE\000"
 11669      454E5449 
 11669      43415449 
 11669      4F4E5F49 
 11669      4E535441 
 11670              	.LASF33:
 11671 02a0 5341535F 		.ascii	"SAS_TOKEN_STATUS_FAILED\000"
 11671      544F4B45 
 11671      4E5F5354 
 11671      41545553 
 11671      5F464149 
 11672              	.LASF89:
 11673 02b8 63757272 		.ascii	"current_sas_token_put_time\000"
 11673      656E745F 
 11673      7361735F 
ARM GAS  C:\Users\Phuong\AppData\Local\Temp\ccPPbPWA.s 			page 232


 11673      746F6B65 
 11673      6E5F7075 
 11674              	.LASF17:
 11675 02d3 4F505449 		.ascii	"OPTIONHANDLER_INVALIDARG\000"
 11675      4F4E4841 
 11675      4E444C45 
 11675      525F494E 
 11675      56414C49 
 11676              	.LASF16:
 11677 02ec 4F505449 		.ascii	"OPTIONHANDLER_ERROR\000"
 11677      4F4E4841 
 11677      4E444C45 
 11677      525F4552 
 11677      524F5200 
 11678              	.LASF47:
 11679 0300 4342535F 		.ascii	"CBS_HANDLE\000"
 11679      48414E44 
 11679      4C4500
 11680              	.LASF31:
 11681 030b 494F5448 		.ascii	"IOTHUB_CREDENTIAL_TYPE\000"
 11681      55425F43 
 11681      52454445 
 11681      4E544941 
 11681      4C5F5459 
 11682              	.LASF50:
 11683 0322 41555448 		.ascii	"AUTHENTICATION_STATE_STOPPED\000"
 11683      454E5449 
 11683      43415449 
 11683      4F4E5F53 
 11683      54415445 
 11684              	.LASF9:
 11685 033f 5F5F7569 		.ascii	"__uint32_t\000"
 11685      6E743332 
 11685      5F7400
 11686              	.LASF130:
 11687 034a 6F707469 		.ascii	"options\000"
 11687      6F6E7300 
 11688              	.LASF87:
 11689 0352 69735F63 		.ascii	"is_cbs_put_token_in_progress\000"
 11689      62735F70 
 11689      75745F74 
 11689      6F6B656E 
 11689      5F696E5F 
 11690              	.LASF95:
 11691 036f 6F6E5F63 		.ascii	"on_cbs_put_token_complete_callback\000"
 11691      62735F70 
 11691      75745F74 
 11691      6F6B656E 
 11691      5F636F6D 
 11692              	.LASF82:
 11693 0392 6362735F 		.ascii	"cbs_request_timeout_secs\000"
 11693      72657175 
 11693      6573745F 
 11693      74696D65 
 11693      6F75745F 
 11694              	.LASF104:
 11695 03ab 63757272 		.ascii	"current_time\000"
ARM GAS  C:\Users\Phuong\AppData\Local\Temp\ccPPbPWA.s 			page 233


 11695      656E745F 
 11695      74696D65 
 11695      00
 11696              	.LASF119:
 11697 03b8 76616C75 		.ascii	"value\000"
 11697      6500
 11698              	.LASF109:
 11699 03be 7075745F 		.ascii	"put_SAS_token_to_cbs\000"
 11699      5341535F 
 11699      746F6B65 
 11699      6E5F746F 
 11699      5F636273 
 11700              	.LASF0:
 11701 03d3 756E7369 		.ascii	"unsigned int\000"
 11701      676E6564 
 11701      20696E74 
 11701      00
 11702              	.LASF126:
 11703 03e0 636F6E66 		.ascii	"config\000"
 11703      696700
 11704              	.LASF140:
 11705 03e7 53545249 		.ascii	"STRING_construct_sprintf\000"
 11705      4E475F63 
 11705      6F6E7374 
 11705      72756374 
 11705      5F737072 
 11706              	.LASF101:
 11707 0400 69735F74 		.ascii	"is_timed_out\000"
 11707      696D6564 
 11707      5F6F7574 
 11707      00
 11708              	.LASF110:
 11709 040d 6362735F 		.ascii	"cbs_audience\000"
 11709      61756469 
 11709      656E6365 
 11709      00
 11710              	.LASF52:
 11711 041a 41555448 		.ascii	"AUTHENTICATION_STATE_STARTED\000"
 11711      454E5449 
 11711      43415449 
 11711      4F4E5F53 
 11711      54415445 
 11712              	.LASF157:
 11713 0437 536F7572 		.ascii	"Source\\azure_iot_sdk\\iothub_client\\src\\iothubtr"
 11713      63655C61 
 11713      7A757265 
 11713      5F696F74 
 11713      5F73646B 
 11714 0466 616E7370 		.ascii	"ansport_amqp_cbs_auth.c\000"
 11714      6F72745F 
 11714      616D7170 
 11714      5F636273 
 11714      5F617574 
 11715              	.LASF92:
 11716 047e 75706461 		.ascii	"update_state\000"
 11716      74655F73 
 11716      74617465 
ARM GAS  C:\Users\Phuong\AppData\Local\Temp\ccPPbPWA.s 			page 234


 11716      00
 11717              	.LASF153:
 11718 048b 496F5448 		.ascii	"IoTHubClient_Auth_Get_ModuleId\000"
 11718      7562436C 
 11718      69656E74 
 11718      5F417574 
 11718      685F4765 
 11719              	.LASF79:
 11720 04aa 4C4F4747 		.ascii	"LOGGER_LOG\000"
 11720      45525F4C 
 11720      4F4700
 11721              	.LASF118:
 11722 04b5 6E616D65 		.ascii	"name\000"
 11722      00
 11723              	.LASF150:
 11724 04ba 6D616C6C 		.ascii	"malloc\000"
 11724      6F6300
 11725              	.LASF6:
 11726 04c1 73686F72 		.ascii	"short unsigned int\000"
 11726      7420756E 
 11726      7369676E 
 11726      65642069 
 11726      6E7400
 11727              	.LASF80:
 11728 04d4 41555448 		.ascii	"AUTHENTICATION_CONFIG_TAG\000"
 11728      454E5449 
 11728      43415449 
 11728      4F4E5F43 
 11728      4F4E4649 
 11729              	.LASF122:
 11730 04ee 61757468 		.ascii	"authentication_set_option\000"
 11730      656E7469 
 11730      63617469 
 11730      6F6E5F73 
 11730      65745F6F 
 11731              	.LASF62:
 11732 0508 4F4E5F41 		.ascii	"ON_AUTHENTICATION_ERROR_CALLBACK\000"
 11732      55544845 
 11732      4E544943 
 11732      4154494F 
 11732      4E5F4552 
 11733              	.LASF151:
 11734 0529 496F5448 		.ascii	"IoTHubClient_Auth_Get_DeviceId\000"
 11734      7562436C 
 11734      69656E74 
 11734      5F417574 
 11734      685F4765 
 11735              	.LASF106:
 11736 0548 76657269 		.ascii	"verify_sas_token_refresh_timeout\000"
 11736      66795F73 
 11736      61735F74 
 11736      6F6B656E 
 11736      5F726566 
 11737              	.LASF65:
 11738 0569 696F7468 		.ascii	"iothub_host_fqdn\000"
 11738      75625F68 
 11738      6F73745F 
ARM GAS  C:\Users\Phuong\AppData\Local\Temp\ccPPbPWA.s 			page 235


 11738      6671646E 
 11738      00
 11739              	.LASF24:
 11740 057a 494F5448 		.ascii	"IOTHUB_CREDENTIAL_TYPE_TAG\000"
 11740      55425F43 
 11740      52454445 
 11740      4E544941 
 11740      4C5F5459 
 11741              	.LASF25:
 11742 0595 494F5448 		.ascii	"IOTHUB_CREDENTIAL_TYPE_UNKNOWN\000"
 11742      55425F43 
 11742      52454445 
 11742      4E544941 
 11742      4C5F5459 
 11743              	.LASF146:
 11744 05b4 53545249 		.ascii	"STRING_delete\000"
 11744      4E475F64 
 11744      656C6574 
 11744      6500
 11745              	.LASF81:
 11746 05c2 41555448 		.ascii	"AUTHENTICATION_INSTANCE_TAG\000"
 11746      454E5449 
 11746      43415449 
 11746      4F4E5F49 
 11746      4E535441 
 11747              	.LASF66:
 11748 05de 6F6E5F73 		.ascii	"on_state_changed_callback\000"
 11748      74617465 
 11748      5F636861 
 11748      6E676564 
 11748      5F63616C 
 11749              	.LASF107:
 11750 05f8 63726561 		.ascii	"create_device_and_module_path\000"
 11750      74655F64 
 11750      65766963 
 11750      655F616E 
 11750      645F6D6F 
 11751              	.LASF32:
 11752 0616 5341535F 		.ascii	"SAS_TOKEN_STATUS_TAG\000"
 11752      544F4B45 
 11752      4E5F5354 
 11752      41545553 
 11752      5F544147 
 11753              	.LASF70:
 11754 062b 61757468 		.ascii	"authorization_module\000"
 11754      6F72697A 
 11754      6174696F 
 11754      6E5F6D6F 
 11754      64756C65 
 11755              	.LASF12:
 11756 0640 73697A65 		.ascii	"sizetype\000"
 11756      74797065 
 11756      00
 11757              	.LASF21:
 11758 0649 4F505449 		.ascii	"OPTIONHANDLER_HANDLE_DATA_TAG\000"
 11758      4F4E4841 
 11758      4E444C45 
ARM GAS  C:\Users\Phuong\AppData\Local\Temp\ccPPbPWA.s 			page 236


 11758      525F4841 
 11758      4E444C45 
 11759              	.LASF23:
 11760 0667 4F505449 		.ascii	"OPTIONHANDLER_RESULT_TAG\000"
 11760      4F4E4841 
 11760      4E444C45 
 11760      525F5245 
 11760      53554C54 
 11761              	.LASF2:
 11762 0680 6C6F6E67 		.ascii	"long double\000"
 11762      20646F75 
 11762      626C6500 
 11763              	.LASF154:
 11764 068c 4F707469 		.ascii	"OptionHandler_AddOption\000"
 11764      6F6E4861 
 11764      6E646C65 
 11764      725F4164 
 11764      644F7074 
 11765              	.LASF158:
 11766 06a4 433A5C55 		.ascii	"C:\\Users\\Phuong\\Documents\\PSoC Creator\\Dec0820"
 11766      73657273 
 11766      5C506875 
 11766      6F6E675C 
 11766      446F6375 
 11767 06d2 31385C69 		.ascii	"18\\iot-sdk-iot-dev\\PSOC6_FreeRTOS+LwIP+MbedTLS_Az"
 11767      6F742D73 
 11767      646B2D69 
 11767      6F742D64 
 11767      65765C50 
 11768 0703 7572652D 		.ascii	"ure-IOT-Hub-Demo\\PSOC6_FreeRTOS+LwIP+MbedTLS_Azure"
 11768      494F542D 
 11768      4875622D 
 11768      44656D6F 
 11768      5C50534F 
 11769 0735 2D494F54 		.ascii	"-IOT-Hub-Demo.cydsn\000"
 11769      2D487562 
 11769      2D44656D 
 11769      6F2E6379 
 11769      64736E00 
 11770              	.LASF141:
 11771 0749 6362735F 		.ascii	"cbs_put_token_async\000"
 11771      7075745F 
 11771      746F6B65 
 11771      6E5F6173 
 11771      796E6300 
 11772              	.LASF120:
 11773 075d 61757468 		.ascii	"authentication_handle\000"
 11773      656E7469 
 11773      63617469 
 11773      6F6E5F68 
 11773      616E646C 
 11774              	.LASF46:
 11775 0773 4342535F 		.ascii	"CBS_OPERATION_RESULT\000"
 11775      4F504552 
 11775      4154494F 
 11775      4E5F5245 
 11775      53554C54 
ARM GAS  C:\Users\Phuong\AppData\Local\Temp\ccPPbPWA.s 			page 237


 11776              	.LASF135:
 11777 0788 41555448 		.ascii	"AUTHENTICATION_OPTION_SAS_TOKEN_LIFETIME_SECS\000"
 11777      454E5449 
 11777      43415449 
 11777      4F4E5F4F 
 11777      5054494F 
 11778              	.LASF129:
 11779 07b6 61757468 		.ascii	"authentication_retrieve_options\000"
 11779      656E7469 
 11779      63617469 
 11779      6F6E5F72 
 11779      65747269 
 11780              	.LASF41:
 11781 07d6 4342535F 		.ascii	"CBS_OPERATION_RESULT_TAG\000"
 11781      4F504552 
 11781      4154494F 
 11781      4E5F5245 
 11781      53554C54 
 11782              	.LASF69:
 11783 07ef 6F6E5F65 		.ascii	"on_error_callback_context\000"
 11783      72726F72 
 11783      5F63616C 
 11783      6C626163 
 11783      6B5F636F 
 11784              	.LASF42:
 11785 0809 4342535F 		.ascii	"CBS_OPERATION_RESULT_OK\000"
 11785      4F504552 
 11785      4154494F 
 11785      4E5F5245 
 11785      53554C54 
 11786              	.LASF49:
 11787 0821 41555448 		.ascii	"AUTHENTICATION_STATE_TAG\000"
 11787      454E5449 
 11787      43415449 
 11787      4F4E5F53 
 11787      54415445 
 11788              	.LASF108:
 11789 083a 64657669 		.ascii	"devices_and_modules_path\000"
 11789      6365735F 
 11789      616E645F 
 11789      6D6F6475 
 11789      6C65735F 
 11790              	.LASF112:
 11791 0853 6362735F 		.ascii	"cbs_audience_c_str\000"
 11791      61756469 
 11791      656E6365 
 11791      5F635F73 
 11791      747200
 11792              	.LASF39:
 11793 0866 74696D65 		.ascii	"time_t\000"
 11793      5F7400
 11794              	.LASF125:
 11795 086d 61757468 		.ascii	"authentication_create\000"
 11795      656E7469 
 11795      63617469 
 11795      6F6E5F63 
 11795      72656174 
ARM GAS  C:\Users\Phuong\AppData\Local\Temp\ccPPbPWA.s 			page 238


 11796              	.LASF123:
 11797 0883 61757468 		.ascii	"authentication_start\000"
 11797      656E7469 
 11797      63617469 
 11797      6F6E5F73 
 11797      74617274 
 11798              	.LASF142:
 11799 0898 496F5448 		.ascii	"IoTHubClient_Auth_Is_SasToken_Valid\000"
 11799      7562436C 
 11799      69656E74 
 11799      5F417574 
 11799      685F4973 
 11800              	.LASF91:
 11801 08bc 6E65775F 		.ascii	"new_state\000"
 11801      73746174 
 11801      6500
 11802              	.LASF37:
 11803 08c6 53545249 		.ascii	"STRING_HANDLE\000"
 11803      4E475F48 
 11803      414E444C 
 11803      4500
 11804              	.LASF67:
 11805 08d4 6F6E5F73 		.ascii	"on_state_changed_callback_context\000"
 11805      74617465 
 11805      5F636861 
 11805      6E676564 
 11805      5F63616C 
 11806              	.LASF152:
 11807 08f6 53545249 		.ascii	"STRING_construct\000"
 11807      4E475F63 
 11807      6F6E7374 
 11807      72756374 
 11807      00
 11808              	.LASF40:
 11809 0907 5F426F6F 		.ascii	"_Bool\000"
 11809      6C00
 11810              	.LASF105:
 11811 090d 76657269 		.ascii	"verify_cbs_put_token_timeout\000"
 11811      66795F63 
 11811      62735F70 
 11811      75745F74 
 11811      6F6B656E 
 11812              	.LASF4:
 11813 092a 756E7369 		.ascii	"unsigned char\000"
 11813      676E6564 
 11813      20636861 
 11813      7200
 11814              	.LASF19:
 11815 0938 70665365 		.ascii	"pfSetOption\000"
 11815      744F7074 
 11815      696F6E00 
 11816              	.LASF53:
 11817 0944 41555448 		.ascii	"AUTHENTICATION_STATE_ERROR\000"
 11817      454E5449 
 11817      43415449 
 11817      4F4E5F53 
 11817      54415445 
ARM GAS  C:\Users\Phuong\AppData\Local\Temp\ccPPbPWA.s 			page 239


 11818              	.LASF61:
 11819 095f 4F4E5F41 		.ascii	"ON_AUTHENTICATION_STATE_CHANGED_CALLBACK\000"
 11819      55544845 
 11819      4E544943 
 11819      4154494F 
 11819      4E5F5354 
 11820              	.LASF35:
 11821 0988 5341535F 		.ascii	"SAS_TOKEN_STATUS_INVALID\000"
 11821      544F4B45 
 11821      4E5F5354 
 11821      41545553 
 11821      5F494E56 
 11822              	.LASF5:
 11823 09a1 73686F72 		.ascii	"short int\000"
 11823      7420696E 
 11823      7400
 11824              	.LASF124:
 11825 09ab 61757468 		.ascii	"authentication_stop\000"
 11825      656E7469 
 11825      63617469 
 11825      6F6E5F73 
 11825      746F7000 
 11826              	.LASF36:
 11827 09bf 5341535F 		.ascii	"SAS_TOKEN_STATUS\000"
 11827      544F4B45 
 11827      4E5F5354 
 11827      41545553 
 11827      00
 11828              	.LASF103:
 11829 09d0 5F5F6675 		.ascii	"__func__\000"
 11829      6E635F5F 
 11829      00
 11830              	.LASF155:
 11831 09d9 4F707469 		.ascii	"OptionHandler_Create\000"
 11831      6F6E4861 
 11831      6E646C65 
 11831      725F4372 
 11831      65617465 
 11832              	.LASF59:
 11833 09ee 41555448 		.ascii	"AUTHENTICATION_ERROR_SAS_REFRESH_FAILED\000"
 11833      454E5449 
 11833      43415449 
 11833      4F4E5F45 
 11833      52524F52 
 11834              	.LASF131:
 11835 0a16 44494147 		.ascii	"DIAG_CREATION_TIME_UTC_PROPERTY_NAME\000"
 11835      5F435245 
 11835      4154494F 
 11835      4E5F5449 
 11835      4D455F55 
 11836              	.LASF44:
 11837 0a3b 4342535F 		.ascii	"CBS_OPERATION_RESULT_OPERATION_FAILED\000"
 11837      4F504552 
 11837      4154494F 
 11837      4E5F5245 
 11837      53554C54 
 11838              	.LASF149:
ARM GAS  C:\Users\Phuong\AppData\Local\Temp\ccPPbPWA.s 			page 240


 11839 0a61 4F707469 		.ascii	"OptionHandler_Destroy\000"
 11839      6F6E4861 
 11839      6E646C65 
 11839      725F4465 
 11839      7374726F 
 11840              	.LASF100:
 11841 0a77 70726576 		.ascii	"previous_state\000"
 11841      696F7573 
 11841      5F737461 
 11841      746500
 11842              	.LASF156:
 11843 0a86 474E5520 		.ascii	"GNU C11 5.4.1 20160609 (release) [ARM/embedded-5-br"
 11843      43313120 
 11843      352E342E 
 11843      31203230 
 11843      31363036 
 11844 0ab9 616E6368 		.ascii	"anch revision 237715] -mcpu=cortex-m0plus -mthumb -"
 11844      20726576 
 11844      6973696F 
 11844      6E203233 
 11844      37373135 
 11845 0aec 67202D4F 		.ascii	"g -Og -ffunction-sections -ffat-lto-objects\000"
 11845      67202D66 
 11845      66756E63 
 11845      74696F6E 
 11845      2D736563 
 11846              	.LASF43:
 11847 0b18 4342535F 		.ascii	"CBS_OPERATION_RESULT_CBS_ERROR\000"
 11847      4F504552 
 11847      4154494F 
 11847      4E5F5245 
 11847      53554C54 
 11848              	.LASF10:
 11849 0b37 6C6F6E67 		.ascii	"long unsigned int\000"
 11849      20756E73 
 11849      69676E65 
 11849      6420696E 
 11849      7400
 11850              	.LASF13:
 11851 0b49 63686172 		.ascii	"char\000"
 11851      00
 11852              	.LASF22:
 11853 0b4e 494F5448 		.ascii	"IOTHUB_AUTHORIZATION_DATA_TAG\000"
 11853      55425F41 
 11853      5554484F 
 11853      52495A41 
 11853      54494F4E 
 11854              	.LASF86:
 11855 0b6c 6362735F 		.ascii	"cbs_handle\000"
 11855      68616E64 
 11855      6C6500
 11856              	.LASF63:
 11857 0b77 64657669 		.ascii	"device_id\000"
 11857      63655F69 
 11857      6400
 11858              	.LASF148:
 11859 0b81 4F707469 		.ascii	"OptionHandler_FeedOptions\000"
ARM GAS  C:\Users\Phuong\AppData\Local\Temp\ccPPbPWA.s 			page 241


 11859      6F6E4861 
 11859      6E646C65 
 11859      725F4665 
 11859      65644F70 
 11860              	.LASF45:
 11861 0b9b 4342535F 		.ascii	"CBS_OPERATION_RESULT_INSTANCE_CLOSED\000"
 11861      4F504552 
 11861      4154494F 
 11861      4E5F5245 
 11861      53554C54 
 11862              	.LASF30:
 11863 0bc0 494F5448 		.ascii	"IOTHUB_CREDENTIAL_TYPE_DEVICE_AUTH\000"
 11863      55425F43 
 11863      52454445 
 11863      4E544941 
 11863      4C5F5459 
 11864              	.LASF113:
 11865 0be3 63726561 		.ascii	"create_and_put_SAS_token_to_cbs\000"
 11865      74655F61 
 11865      6E645F70 
 11865      75745F53 
 11865      41535F74 
 11866              	.LASF83:
 11867 0c03 7361735F 		.ascii	"sas_token_lifetime_secs\000"
 11867      746F6B65 
 11867      6E5F6C69 
 11867      66657469 
 11867      6D655F73 
 11868              	.LASF15:
 11869 0c1b 4F505449 		.ascii	"OPTIONHANDLER_OK\000"
 11869      4F4E4841 
 11869      4E444C45 
 11869      525F4F4B 
 11869      00
 11870              	.LASF78:
 11871 0c2c 4C4F475F 		.ascii	"LOG_CATEGORY\000"
 11871      43415445 
 11871      474F5259 
 11871      00
 11872              	.LASF96:
 11873 0c39 636F6E74 		.ascii	"context\000"
 11873      65787400 
 11874              	.LASF134:
 11875 0c41 41555448 		.ascii	"AUTHENTICATION_OPTION_SAS_TOKEN_REFRESH_TIME_SECS\000"
 11875      454E5449 
 11875      43415449 
 11875      4F4E5F4F 
 11875      5054494F 
 11876              	.LASF51:
 11877 0c73 41555448 		.ascii	"AUTHENTICATION_STATE_STARTING\000"
 11877      454E5449 
 11877      43415449 
 11877      4F4E5F53 
 11877      54415445 
 11878              	.LASF58:
 11879 0c91 41555448 		.ascii	"AUTHENTICATION_ERROR_SAS_REFRESH_TIMEOUT\000"
 11879      454E5449 
ARM GAS  C:\Users\Phuong\AppData\Local\Temp\ccPPbPWA.s 			page 242


 11879      43415449 
 11879      4F4E5F45 
 11879      52524F52 
 11880              	.LASF137:
 11881 0cba 6765745F 		.ascii	"get_time\000"
 11881      74696D65 
 11881      00
 11882              	.LASF14:
 11883 0cc3 75696E74 		.ascii	"uint32_t\000"
 11883      33325F74 
 11883      00
 11884              	.LASF93:
 11885 0ccc 6E6F7469 		.ascii	"notify_error\000"
 11885      66795F65 
 11885      72726F72 
 11885      00
 11886              	.LASF159:
 11887 0cd9 6D656D73 		.ascii	"memset\000"
 11887      657400
 11888              	.LASF117:
 11889 0ce0 61757468 		.ascii	"authentication_clone_option\000"
 11889      656E7469 
 11889      63617469 
 11889      6F6E5F63 
 11889      6C6F6E65 
 11890              	.LASF99:
 11891 0cfc 73746174 		.ascii	"status_description\000"
 11891      75735F64 
 11891      65736372 
 11891      69707469 
 11891      6F6E00
 11892              	.LASF55:
 11893 0d0f 41555448 		.ascii	"AUTHENTICATION_ERROR_TAG\000"
 11893      454E5449 
 11893      43415449 
 11893      4F4E5F45 
 11893      52524F52 
 11894              	.LASF34:
 11895 0d28 5341535F 		.ascii	"SAS_TOKEN_STATUS_VALID\000"
 11895      544F4B45 
 11895      4E5F5354 
 11895      41545553 
 11895      5F56414C 
 11896              	.LASF143:
 11897 0d3f 496F5448 		.ascii	"IoTHubClient_Auth_Get_SasToken\000"
 11897      7562436C 
 11897      69656E74 
 11897      5F417574 
 11897      685F4765 
 11898              	.LASF71:
 11899 0d5e 41555448 		.ascii	"AUTHENTICATION_CONFIG\000"
 11899      454E5449 
 11899      43415449 
 11899      4F4E5F43 
 11899      4F4E4649 
 11900              	.LASF38:
 11901 0d74 53545249 		.ascii	"STRING_TAG\000"
ARM GAS  C:\Users\Phuong\AppData\Local\Temp\ccPPbPWA.s 			page 243


 11901      4E475F54 
 11901      414700
 11902              	.LASF116:
 11903 0d7f 746F6B65 		.ascii	"token_status\000"
 11903      6E5F7374 
 11903      61747573 
 11903      00
 11904              	.LASF97:
 11905 0d8c 6F706572 		.ascii	"operation_result\000"
 11905      6174696F 
 11905      6E5F7265 
 11905      73756C74 
 11905      00
 11906              	.LASF56:
 11907 0d9d 41555448 		.ascii	"AUTHENTICATION_ERROR_AUTH_TIMEOUT\000"
 11907      454E5449 
 11907      43415449 
 11907      4F4E5F45 
 11907      52524F52 
 11908              	.LASF132:
 11909 0dbf 41555448 		.ascii	"AUTHENTICATION_OPTION_SAVED_OPTIONS\000"
 11909      454E5449 
 11909      43415449 
 11909      4F4E5F4F 
 11909      5054494F 
 11910              	.LASF57:
 11911 0de3 41555448 		.ascii	"AUTHENTICATION_ERROR_AUTH_FAILED\000"
 11911      454E5449 
 11911      43415449 
 11911      4F4E5F45 
 11911      52524F52 
 11912              	.LASF18:
 11913 0e04 4F505449 		.ascii	"OPTIONHANDLER_HANDLE\000"
 11913      4F4E4841 
 11913      4E444C45 
 11913      525F4841 
 11913      4E444C45 
 11914              	.LASF114:
 11915 0e19 64657669 		.ascii	"device_and_module_path\000"
 11915      63655F61 
 11915      6E645F6D 
 11915      6F64756C 
 11915      655F7061 
 11916              	.LASF74:
 11917 0e30 4C4F475F 		.ascii	"LOG_CATEGORY_TAG\000"
 11917      43415445 
 11917      474F5259 
 11917      5F544147 
 11917      00
 11918              	.LASF102:
 11919 0e41 72657375 		.ascii	"result\000"
 11919      6C7400
 11920              	.LASF88:
 11921 0e48 69735F73 		.ascii	"is_sas_token_refresh_in_progress\000"
 11921      61735F74 
 11921      6F6B656E 
 11921      5F726566 
ARM GAS  C:\Users\Phuong\AppData\Local\Temp\ccPPbPWA.s 			page 244


 11921      72657368 
 11922              	.LASF127:
 11923 0e69 61757468 		.ascii	"authentication_destroy\000"
 11923      656E7469 
 11923      63617469 
 11923      6F6E5F64 
 11923      65737472 
 11924              	.LASF76:
 11925 0e80 415A5F4C 		.ascii	"AZ_LOG_INFO\000"
 11925      4F475F49 
 11925      4E464F00 
 11926              		.ident	"GCC: (GNU Tools for ARM Embedded Processors) 5.4.1 20160609 (release) [ARM/embedded-5-bran
