ARM GAS  C:\Users\Phuong\AppData\Local\Temp\ccy2wtPc.s 			page 1


   1              		.syntax unified
   2              		.cpu cortex-m0plus
   3              		.fpu softvfp
   4              		.eabi_attribute 20, 1
   5              		.eabi_attribute 21, 1
   6              		.eabi_attribute 23, 3
   7              		.eabi_attribute 24, 1
   8              		.eabi_attribute 25, 1
   9              		.eabi_attribute 26, 1
  10              		.eabi_attribute 30, 1
  11              		.eabi_attribute 34, 0
  12              		.eabi_attribute 18, 4
  13              		.thumb
  14              		.syntax unified
  15              		.file	"iothub_client_diagnostic.c"
  16              		.text
  17              	.Ltext0:
  18              		.cfi_sections	.debug_frame
  19              		.section	.text.get_base36_char,"ax",%progbits
  20              		.align	2
  21              		.code	16
  22              		.thumb_func
  23              		.type	get_base36_char, %function
  24              	get_base36_char:
  25              	.LFB2:
  26              		.file 1 "Source\\azure_iot_sdk\\iothub_client\\src\\iothub_client_diagnostic.c"
   1:Source\azure_iot_sdk\iothub_client\src/iothub_client_diagnostic.c **** // Copyright (c) Microsoft. All rights reserved.
   2:Source\azure_iot_sdk\iothub_client\src/iothub_client_diagnostic.c **** // Licensed under the MIT license. See LICENSE file in the project root for full license informatio
   3:Source\azure_iot_sdk\iothub_client\src/iothub_client_diagnostic.c **** 
   4:Source\azure_iot_sdk\iothub_client\src/iothub_client_diagnostic.c **** #include <stdlib.h>
   5:Source\azure_iot_sdk\iothub_client\src/iothub_client_diagnostic.c **** #include <inttypes.h>
   6:Source\azure_iot_sdk\iothub_client\src/iothub_client_diagnostic.c **** #include <math.h>
   7:Source\azure_iot_sdk\iothub_client\src/iothub_client_diagnostic.c **** #include "azure_c_shared_utility/optimize_size.h"
   8:Source\azure_iot_sdk\iothub_client\src/iothub_client_diagnostic.c **** #include "azure_c_shared_utility/gballoc.h"
   9:Source\azure_iot_sdk\iothub_client\src/iothub_client_diagnostic.c **** #include "azure_c_shared_utility/xlogging.h"
  10:Source\azure_iot_sdk\iothub_client\src/iothub_client_diagnostic.c **** #include "azure_c_shared_utility/agenttime.h"
  11:Source\azure_iot_sdk\iothub_client\src/iothub_client_diagnostic.c **** #include "azure_c_shared_utility/buffer_.h"
  12:Source\azure_iot_sdk\iothub_client\src/iothub_client_diagnostic.c **** 
  13:Source\azure_iot_sdk\iothub_client\src/iothub_client_diagnostic.c **** #include "internal/iothub_client_diagnostic.h"
  14:Source\azure_iot_sdk\iothub_client\src/iothub_client_diagnostic.c **** 
  15:Source\azure_iot_sdk\iothub_client\src/iothub_client_diagnostic.c **** #define TIME_STRING_BUFFER_LEN 30
  16:Source\azure_iot_sdk\iothub_client\src/iothub_client_diagnostic.c **** 
  17:Source\azure_iot_sdk\iothub_client\src/iothub_client_diagnostic.c **** static const int BASE_36 = 36;
  18:Source\azure_iot_sdk\iothub_client\src/iothub_client_diagnostic.c **** 
  19:Source\azure_iot_sdk\iothub_client\src/iothub_client_diagnostic.c **** #define INDEFINITE_TIME ((time_t)-1)
  20:Source\azure_iot_sdk\iothub_client\src/iothub_client_diagnostic.c **** 
  21:Source\azure_iot_sdk\iothub_client\src/iothub_client_diagnostic.c **** static char* get_epoch_time(char* timeBuffer)
  22:Source\azure_iot_sdk\iothub_client\src/iothub_client_diagnostic.c **** {
  23:Source\azure_iot_sdk\iothub_client\src/iothub_client_diagnostic.c ****     char* result;
  24:Source\azure_iot_sdk\iothub_client\src/iothub_client_diagnostic.c ****     time_t epochTime;
  25:Source\azure_iot_sdk\iothub_client\src/iothub_client_diagnostic.c ****     int timeLen = sizeof(time_t);
  26:Source\azure_iot_sdk\iothub_client\src/iothub_client_diagnostic.c **** 
  27:Source\azure_iot_sdk\iothub_client\src/iothub_client_diagnostic.c ****     if ((epochTime = get_time(NULL)) == INDEFINITE_TIME)
  28:Source\azure_iot_sdk\iothub_client\src/iothub_client_diagnostic.c ****     {
  29:Source\azure_iot_sdk\iothub_client\src/iothub_client_diagnostic.c ****         LogError("Failed getting current time");
  30:Source\azure_iot_sdk\iothub_client\src/iothub_client_diagnostic.c ****         result = NULL;
  31:Source\azure_iot_sdk\iothub_client\src/iothub_client_diagnostic.c ****     }
ARM GAS  C:\Users\Phuong\AppData\Local\Temp\ccy2wtPc.s 			page 2


  32:Source\azure_iot_sdk\iothub_client\src/iothub_client_diagnostic.c ****     else if (timeLen == sizeof(int64_t))
  33:Source\azure_iot_sdk\iothub_client\src/iothub_client_diagnostic.c ****     {
  34:Source\azure_iot_sdk\iothub_client\src/iothub_client_diagnostic.c ****         if (sprintf(timeBuffer, "%"PRIu64, (int64_t)epochTime) < 0)
  35:Source\azure_iot_sdk\iothub_client\src/iothub_client_diagnostic.c ****         {
  36:Source\azure_iot_sdk\iothub_client\src/iothub_client_diagnostic.c ****             LogError("Failed sprintf to timeBuffer with 8 bytes of time_t");
  37:Source\azure_iot_sdk\iothub_client\src/iothub_client_diagnostic.c ****             result = NULL;
  38:Source\azure_iot_sdk\iothub_client\src/iothub_client_diagnostic.c ****         }
  39:Source\azure_iot_sdk\iothub_client\src/iothub_client_diagnostic.c ****         else
  40:Source\azure_iot_sdk\iothub_client\src/iothub_client_diagnostic.c ****         {
  41:Source\azure_iot_sdk\iothub_client\src/iothub_client_diagnostic.c ****             result = timeBuffer;
  42:Source\azure_iot_sdk\iothub_client\src/iothub_client_diagnostic.c ****         }
  43:Source\azure_iot_sdk\iothub_client\src/iothub_client_diagnostic.c ****     }
  44:Source\azure_iot_sdk\iothub_client\src/iothub_client_diagnostic.c ****     else if (timeLen == sizeof(int32_t))
  45:Source\azure_iot_sdk\iothub_client\src/iothub_client_diagnostic.c ****     {
  46:Source\azure_iot_sdk\iothub_client\src/iothub_client_diagnostic.c ****         if (sprintf(timeBuffer, "%"PRIu32, (int32_t)epochTime) < 0)
  47:Source\azure_iot_sdk\iothub_client\src/iothub_client_diagnostic.c ****         {
  48:Source\azure_iot_sdk\iothub_client\src/iothub_client_diagnostic.c ****             LogError("Failed sprintf to timeBuffer with 4 bytes of time_t");
  49:Source\azure_iot_sdk\iothub_client\src/iothub_client_diagnostic.c ****             result = NULL;
  50:Source\azure_iot_sdk\iothub_client\src/iothub_client_diagnostic.c ****         }
  51:Source\azure_iot_sdk\iothub_client\src/iothub_client_diagnostic.c ****         else
  52:Source\azure_iot_sdk\iothub_client\src/iothub_client_diagnostic.c ****         {
  53:Source\azure_iot_sdk\iothub_client\src/iothub_client_diagnostic.c ****             result = timeBuffer;
  54:Source\azure_iot_sdk\iothub_client\src/iothub_client_diagnostic.c ****         }
  55:Source\azure_iot_sdk\iothub_client\src/iothub_client_diagnostic.c ****     }
  56:Source\azure_iot_sdk\iothub_client\src/iothub_client_diagnostic.c ****     else
  57:Source\azure_iot_sdk\iothub_client\src/iothub_client_diagnostic.c ****     {
  58:Source\azure_iot_sdk\iothub_client\src/iothub_client_diagnostic.c ****         LogError("Unknown size of time_t");
  59:Source\azure_iot_sdk\iothub_client\src/iothub_client_diagnostic.c ****         result = NULL;
  60:Source\azure_iot_sdk\iothub_client\src/iothub_client_diagnostic.c ****     }
  61:Source\azure_iot_sdk\iothub_client\src/iothub_client_diagnostic.c **** 
  62:Source\azure_iot_sdk\iothub_client\src/iothub_client_diagnostic.c ****     return result;
  63:Source\azure_iot_sdk\iothub_client\src/iothub_client_diagnostic.c **** }
  64:Source\azure_iot_sdk\iothub_client\src/iothub_client_diagnostic.c **** 
  65:Source\azure_iot_sdk\iothub_client\src/iothub_client_diagnostic.c **** static char get_base36_char(unsigned char value)
  66:Source\azure_iot_sdk\iothub_client\src/iothub_client_diagnostic.c **** {
  27              		.loc 1 66 0
  28              		.cfi_startproc
  29              		@ args = 0, pretend = 0, frame = 0
  30              		@ frame_needed = 0, uses_anonymous_args = 0
  31              		@ link register save eliminated.
  32              	.LVL0:
  67:Source\azure_iot_sdk\iothub_client\src/iothub_client_diagnostic.c ****     return value <= 9 ? '0' + value : 'a' + value - 10;
  33              		.loc 1 67 0
  34 0000 0928     		cmp	r0, #9
  35 0002 02D8     		bhi	.L2
  36              		.loc 1 67 0 is_stmt 0 discriminator 1
  37 0004 3030     		adds	r0, r0, #48
  38              	.LVL1:
  39 0006 C0B2     		uxtb	r0, r0
  40 0008 01E0     		b	.L3
  41              	.LVL2:
  42              	.L2:
  43              		.loc 1 67 0 discriminator 2
  44 000a 5730     		adds	r0, r0, #87
  45              	.LVL3:
  46 000c C0B2     		uxtb	r0, r0
  47              	.L3:
ARM GAS  C:\Users\Phuong\AppData\Local\Temp\ccy2wtPc.s 			page 3


  68:Source\azure_iot_sdk\iothub_client\src/iothub_client_diagnostic.c **** }
  48              		.loc 1 68 0 is_stmt 1 discriminator 4
  49              		@ sp needed
  50 000e 7047     		bx	lr
  51              		.cfi_endproc
  52              	.LFE2:
  53              		.size	get_base36_char, .-get_base36_char
  54              		.global	__aeabi_uidivmod
  55              		.global	__aeabi_ui2d
  56              		.global	__aeabi_dsub
  57              		.global	__aeabi_dmul
  58              		.global	__aeabi_ddiv
  59              		.global	__aeabi_dcmplt
  60              		.section	.text.should_add_diagnostic_info,"ax",%progbits
  61              		.align	2
  62              		.code	16
  63              		.thumb_func
  64              		.type	should_add_diagnostic_info, %function
  65              	should_add_diagnostic_info:
  66              	.LFB4:
  69:Source\azure_iot_sdk\iothub_client\src/iothub_client_diagnostic.c **** 
  70:Source\azure_iot_sdk\iothub_client\src/iothub_client_diagnostic.c **** static char* generate_eight_random_characters(char *randomString)
  71:Source\azure_iot_sdk\iothub_client\src/iothub_client_diagnostic.c **** {
  72:Source\azure_iot_sdk\iothub_client\src/iothub_client_diagnostic.c ****     int i;
  73:Source\azure_iot_sdk\iothub_client\src/iothub_client_diagnostic.c ****     char* randomStringPos = randomString;
  74:Source\azure_iot_sdk\iothub_client\src/iothub_client_diagnostic.c ****     for (i = 0; i < 4; ++i)
  75:Source\azure_iot_sdk\iothub_client\src/iothub_client_diagnostic.c ****     {
  76:Source\azure_iot_sdk\iothub_client\src/iothub_client_diagnostic.c ****         int rawRandom = rand();
  77:Source\azure_iot_sdk\iothub_client\src/iothub_client_diagnostic.c ****         int first = rawRandom % BASE_36;
  78:Source\azure_iot_sdk\iothub_client\src/iothub_client_diagnostic.c ****         int second = rawRandom / BASE_36 % BASE_36;
  79:Source\azure_iot_sdk\iothub_client\src/iothub_client_diagnostic.c ****         *randomStringPos++ = get_base36_char((unsigned char)first);
  80:Source\azure_iot_sdk\iothub_client\src/iothub_client_diagnostic.c ****         *randomStringPos++ = get_base36_char((unsigned char)second);
  81:Source\azure_iot_sdk\iothub_client\src/iothub_client_diagnostic.c ****     }
  82:Source\azure_iot_sdk\iothub_client\src/iothub_client_diagnostic.c ****     *randomStringPos = 0;
  83:Source\azure_iot_sdk\iothub_client\src/iothub_client_diagnostic.c **** 
  84:Source\azure_iot_sdk\iothub_client\src/iothub_client_diagnostic.c ****     return randomString;
  85:Source\azure_iot_sdk\iothub_client\src/iothub_client_diagnostic.c **** }
  86:Source\azure_iot_sdk\iothub_client\src/iothub_client_diagnostic.c **** 
  87:Source\azure_iot_sdk\iothub_client\src/iothub_client_diagnostic.c **** static bool should_add_diagnostic_info(IOTHUB_DIAGNOSTIC_SETTING_DATA* diagSetting)
  88:Source\azure_iot_sdk\iothub_client\src/iothub_client_diagnostic.c **** {
  67              		.loc 1 88 0
  68              		.cfi_startproc
  69              		@ args = 0, pretend = 0, frame = 8
  70              		@ frame_needed = 0, uses_anonymous_args = 0
  71              	.LVL4:
  72 0000 F0B5     		push	{r4, r5, r6, r7, lr}
  73              		.cfi_def_cfa_offset 20
  74              		.cfi_offset 4, -20
  75              		.cfi_offset 5, -16
  76              		.cfi_offset 6, -12
  77              		.cfi_offset 7, -8
  78              		.cfi_offset 14, -4
  79 0002 83B0     		sub	sp, sp, #12
  80              		.cfi_def_cfa_offset 32
  81 0004 0400     		movs	r4, r0
  82              	.LVL5:
  89:Source\azure_iot_sdk\iothub_client\src/iothub_client_diagnostic.c ****     bool result = false;
ARM GAS  C:\Users\Phuong\AppData\Local\Temp\ccy2wtPc.s 			page 4


  90:Source\azure_iot_sdk\iothub_client\src/iothub_client_diagnostic.c ****     if (diagSetting->diagSamplingPercentage > 0)
  83              		.loc 1 90 0
  84 0006 0668     		ldr	r6, [r0]
  85 0008 002E     		cmp	r6, #0
  86 000a 46D0     		beq	.L8
  87              	.LBB2:
  91:Source\azure_iot_sdk\iothub_client\src/iothub_client_diagnostic.c ****     {
  92:Source\azure_iot_sdk\iothub_client\src/iothub_client_diagnostic.c ****         double number;
  93:Source\azure_iot_sdk\iothub_client\src/iothub_client_diagnostic.c ****         double percentage;
  94:Source\azure_iot_sdk\iothub_client\src/iothub_client_diagnostic.c **** 
  95:Source\azure_iot_sdk\iothub_client\src/iothub_client_diagnostic.c ****         if (diagSetting->currentMessageNumber == UINT32_MAX)
  88              		.loc 1 95 0
  89 000c 4068     		ldr	r0, [r0, #4]
  90              	.LVL6:
  91 000e 431C     		adds	r3, r0, #1
  92 0010 04D1     		bne	.L6
  96:Source\azure_iot_sdk\iothub_client\src/iothub_client_diagnostic.c ****         {
  97:Source\azure_iot_sdk\iothub_client\src/iothub_client_diagnostic.c ****             diagSetting->currentMessageNumber %= diagSetting->diagSamplingPercentage * 100;
  93              		.loc 1 97 0
  94 0012 6421     		movs	r1, #100
  95 0014 7143     		muls	r1, r6
  96 0016 FFF7FEFF 		bl	__aeabi_uidivmod
  97              	.LVL7:
  98 001a 6160     		str	r1, [r4, #4]
  99              	.L6:
  98:Source\azure_iot_sdk\iothub_client\src/iothub_client_diagnostic.c ****         }
  99:Source\azure_iot_sdk\iothub_client\src/iothub_client_diagnostic.c ****         ++diagSetting->currentMessageNumber;
 100              		.loc 1 99 0
 101 001c 6368     		ldr	r3, [r4, #4]
 102 001e 581C     		adds	r0, r3, #1
 103 0020 6060     		str	r0, [r4, #4]
 100:Source\azure_iot_sdk\iothub_client\src/iothub_client_diagnostic.c **** 
 101:Source\azure_iot_sdk\iothub_client\src/iothub_client_diagnostic.c ****         number = diagSetting->currentMessageNumber;
 104              		.loc 1 101 0
 105 0022 FFF7FEFF 		bl	__aeabi_ui2d
 106              	.LVL8:
 107 0026 0400     		movs	r4, r0
 108              	.LVL9:
 109 0028 0D00     		movs	r5, r1
 110              	.LVL10:
 102:Source\azure_iot_sdk\iothub_client\src/iothub_client_diagnostic.c ****         percentage = diagSetting->diagSamplingPercentage;
 111              		.loc 1 102 0
 112 002a 3000     		movs	r0, r6
 113 002c FFF7FEFF 		bl	__aeabi_ui2d
 114              	.LVL11:
 115 0030 0600     		movs	r6, r0
 116 0032 0F00     		movs	r7, r1
 117              	.LVL12:
 103:Source\azure_iot_sdk\iothub_client\src/iothub_client_diagnostic.c ****         result = (floor((number - 2) * percentage / 100.0) < floor((number - 1) * percentage / 100.
 118              		.loc 1 103 0
 119 0034 0022     		movs	r2, #0
 120 0036 8023     		movs	r3, #128
 121 0038 DB05     		lsls	r3, r3, #23
 122 003a 2000     		movs	r0, r4
 123 003c 2900     		movs	r1, r5
 124 003e FFF7FEFF 		bl	__aeabi_dsub
 125              	.LVL13:
ARM GAS  C:\Users\Phuong\AppData\Local\Temp\ccy2wtPc.s 			page 5


 126 0042 0200     		movs	r2, r0
 127 0044 0B00     		movs	r3, r1
 128 0046 3000     		movs	r0, r6
 129 0048 3900     		movs	r1, r7
 130 004a FFF7FEFF 		bl	__aeabi_dmul
 131              	.LVL14:
 132 004e 0022     		movs	r2, #0
 133 0050 134B     		ldr	r3, .L9
 134 0052 FFF7FEFF 		bl	__aeabi_ddiv
 135              	.LVL15:
 136 0056 FFF7FEFF 		bl	floor
 137              	.LVL16:
 138 005a 0090     		str	r0, [sp]
 139 005c 0191     		str	r1, [sp, #4]
 140 005e 0022     		movs	r2, #0
 141 0060 104B     		ldr	r3, .L9+4
 142 0062 2000     		movs	r0, r4
 143 0064 2900     		movs	r1, r5
 144 0066 FFF7FEFF 		bl	__aeabi_dsub
 145              	.LVL17:
 146 006a 0200     		movs	r2, r0
 147 006c 0B00     		movs	r3, r1
 148 006e 3000     		movs	r0, r6
 149 0070 3900     		movs	r1, r7
 150 0072 FFF7FEFF 		bl	__aeabi_dmul
 151              	.LVL18:
 152 0076 0022     		movs	r2, #0
 153 0078 094B     		ldr	r3, .L9
 154 007a FFF7FEFF 		bl	__aeabi_ddiv
 155              	.LVL19:
 156 007e FFF7FEFF 		bl	floor
 157              	.LVL20:
 158 0082 0200     		movs	r2, r0
 159 0084 0B00     		movs	r3, r1
 160 0086 0124     		movs	r4, #1
 161              	.LVL21:
 162 0088 0098     		ldr	r0, [sp]
 163 008a 0199     		ldr	r1, [sp, #4]
 164 008c FFF7FEFF 		bl	__aeabi_dcmplt
 165              	.LVL22:
 166 0090 0028     		cmp	r0, #0
 167 0092 00D1     		bne	.L7
 168 0094 0024     		movs	r4, #0
 169              	.L7:
 170 0096 E0B2     		uxtb	r0, r4
 171              	.LVL23:
 172 0098 00E0     		b	.L5
 173              	.LVL24:
 174              	.L8:
 175              	.LBE2:
  89:Source\azure_iot_sdk\iothub_client\src/iothub_client_diagnostic.c ****     if (diagSetting->diagSamplingPercentage > 0)
 176              		.loc 1 89 0
 177 009a 0020     		movs	r0, #0
 178              	.LVL25:
 179              	.L5:
 104:Source\azure_iot_sdk\iothub_client\src/iothub_client_diagnostic.c ****     }
 105:Source\azure_iot_sdk\iothub_client\src/iothub_client_diagnostic.c ****     return result;
ARM GAS  C:\Users\Phuong\AppData\Local\Temp\ccy2wtPc.s 			page 6


 106:Source\azure_iot_sdk\iothub_client\src/iothub_client_diagnostic.c **** }
 180              		.loc 1 106 0
 181 009c 03B0     		add	sp, sp, #12
 182              		@ sp needed
 183 009e F0BD     		pop	{r4, r5, r6, r7, pc}
 184              	.L10:
 185              		.align	2
 186              	.L9:
 187 00a0 00005940 		.word	1079574528
 188 00a4 0000F03F 		.word	1072693248
 189              		.cfi_endproc
 190              	.LFE4:
 191              		.size	should_add_diagnostic_info, .-should_add_diagnostic_info
 192              		.global	__aeabi_idivmod
 193              		.global	__aeabi_idiv
 194              		.section	.text.generate_eight_random_characters,"ax",%progbits
 195              		.align	2
 196              		.code	16
 197              		.thumb_func
 198              		.type	generate_eight_random_characters, %function
 199              	generate_eight_random_characters:
 200              	.LFB3:
  71:Source\azure_iot_sdk\iothub_client\src/iothub_client_diagnostic.c ****     int i;
 201              		.loc 1 71 0
 202              		.cfi_startproc
 203              		@ args = 0, pretend = 0, frame = 8
 204              		@ frame_needed = 0, uses_anonymous_args = 0
 205              	.LVL26:
 206 0000 F0B5     		push	{r4, r5, r6, r7, lr}
 207              		.cfi_def_cfa_offset 20
 208              		.cfi_offset 4, -20
 209              		.cfi_offset 5, -16
 210              		.cfi_offset 6, -12
 211              		.cfi_offset 7, -8
 212              		.cfi_offset 14, -4
 213 0002 83B0     		sub	sp, sp, #12
 214              		.cfi_def_cfa_offset 32
 215 0004 0190     		str	r0, [sp, #4]
 216              	.LVL27:
  73:Source\azure_iot_sdk\iothub_client\src/iothub_client_diagnostic.c ****     for (i = 0; i < 4; ++i)
 217              		.loc 1 73 0
 218 0006 0400     		movs	r4, r0
  74:Source\azure_iot_sdk\iothub_client\src/iothub_client_diagnostic.c ****     {
 219              		.loc 1 74 0
 220 0008 0026     		movs	r6, #0
 221 000a 19E0     		b	.L12
 222              	.LVL28:
 223              	.L13:
 224              	.LBB3:
  76:Source\azure_iot_sdk\iothub_client\src/iothub_client_diagnostic.c ****         int first = rawRandom % BASE_36;
 225              		.loc 1 76 0 discriminator 3
 226 000c FFF7FEFF 		bl	rand
 227              	.LVL29:
 228 0010 0500     		movs	r5, r0
 229              	.LVL30:
  77:Source\azure_iot_sdk\iothub_client\src/iothub_client_diagnostic.c ****         int second = rawRandom / BASE_36 % BASE_36;
 230              		.loc 1 77 0 discriminator 3
ARM GAS  C:\Users\Phuong\AppData\Local\Temp\ccy2wtPc.s 			page 7


 231 0012 2421     		movs	r1, #36
 232 0014 FFF7FEFF 		bl	__aeabi_idivmod
 233              	.LVL31:
 234 0018 0F00     		movs	r7, r1
 235              	.LVL32:
  78:Source\azure_iot_sdk\iothub_client\src/iothub_client_diagnostic.c ****         *randomStringPos++ = get_base36_char((unsigned char)first);
 236              		.loc 1 78 0 discriminator 3
 237 001a 2421     		movs	r1, #36
 238              	.LVL33:
 239 001c 2800     		movs	r0, r5
 240 001e FFF7FEFF 		bl	__aeabi_idiv
 241              	.LVL34:
 242 0022 2421     		movs	r1, #36
 243 0024 FFF7FEFF 		bl	__aeabi_idivmod
 244              	.LVL35:
 245 0028 0D00     		movs	r5, r1
 246              	.LVL36:
  79:Source\azure_iot_sdk\iothub_client\src/iothub_client_diagnostic.c ****         *randomStringPos++ = get_base36_char((unsigned char)second);
 247              		.loc 1 79 0 discriminator 3
 248 002a F8B2     		uxtb	r0, r7
 249 002c FFF7FEFF 		bl	get_base36_char
 250              	.LVL37:
 251 0030 2070     		strb	r0, [r4]
  80:Source\azure_iot_sdk\iothub_client\src/iothub_client_diagnostic.c ****     }
 252              		.loc 1 80 0 discriminator 3
 253 0032 A71C     		adds	r7, r4, #2
 254              	.LVL38:
 255 0034 E8B2     		uxtb	r0, r5
 256 0036 FFF7FEFF 		bl	get_base36_char
 257              	.LVL39:
 258 003a 6070     		strb	r0, [r4, #1]
 259              	.LBE3:
  74:Source\azure_iot_sdk\iothub_client\src/iothub_client_diagnostic.c ****     {
 260              		.loc 1 74 0 discriminator 3
 261 003c 0136     		adds	r6, r6, #1
 262              	.LVL40:
 263              	.LBB4:
  80:Source\azure_iot_sdk\iothub_client\src/iothub_client_diagnostic.c ****     }
 264              		.loc 1 80 0 discriminator 3
 265 003e 3C00     		movs	r4, r7
 266              	.LVL41:
 267              	.L12:
 268              	.LBE4:
  74:Source\azure_iot_sdk\iothub_client\src/iothub_client_diagnostic.c ****     {
 269              		.loc 1 74 0 discriminator 1
 270 0040 032E     		cmp	r6, #3
 271 0042 E3DD     		ble	.L13
  82:Source\azure_iot_sdk\iothub_client\src/iothub_client_diagnostic.c **** 
 272              		.loc 1 82 0
 273 0044 0023     		movs	r3, #0
 274 0046 2370     		strb	r3, [r4]
  85:Source\azure_iot_sdk\iothub_client\src/iothub_client_diagnostic.c **** 
 275              		.loc 1 85 0
 276 0048 0198     		ldr	r0, [sp, #4]
 277 004a 03B0     		add	sp, sp, #12
 278              		@ sp needed
 279              	.LVL42:
ARM GAS  C:\Users\Phuong\AppData\Local\Temp\ccy2wtPc.s 			page 8


 280              	.LVL43:
 281 004c F0BD     		pop	{r4, r5, r6, r7, pc}
 282              		.cfi_endproc
 283              	.LFE3:
 284              		.size	generate_eight_random_characters, .-generate_eight_random_characters
 285 004e C046     		.section	.text.get_epoch_time,"ax",%progbits
 286              		.align	2
 287              		.code	16
 288              		.thumb_func
 289              		.type	get_epoch_time, %function
 290              	get_epoch_time:
 291              	.LFB1:
  22:Source\azure_iot_sdk\iothub_client\src/iothub_client_diagnostic.c ****     char* result;
 292              		.loc 1 22 0
 293              		.cfi_startproc
 294              		@ args = 0, pretend = 0, frame = 0
 295              		@ frame_needed = 0, uses_anonymous_args = 0
 296              	.LVL44:
 297 0000 10B5     		push	{r4, lr}
 298              		.cfi_def_cfa_offset 8
 299              		.cfi_offset 4, -8
 300              		.cfi_offset 14, -4
 301 0002 82B0     		sub	sp, sp, #8
 302              		.cfi_def_cfa_offset 16
 303 0004 0400     		movs	r4, r0
 304              	.LVL45:
  27:Source\azure_iot_sdk\iothub_client\src/iothub_client_diagnostic.c ****     {
 305              		.loc 1 27 0
 306 0006 0020     		movs	r0, #0
 307              	.LVL46:
 308 0008 FFF7FEFF 		bl	get_time
 309              	.LVL47:
 310 000c 431C     		adds	r3, r0, #1
 311 000e 0ED1     		bne	.L15
 312              	.LBB5:
  29:Source\azure_iot_sdk\iothub_client\src/iothub_client_diagnostic.c ****         result = NULL;
 313              		.loc 1 29 0 discriminator 3
 314 0010 FFF7FEFF 		bl	xlogging_get_log_function
 315              	.LVL48:
 316 0014 041E     		subs	r4, r0, #0
 317              	.LVL49:
 318 0016 20D0     		beq	.L17
  29:Source\azure_iot_sdk\iothub_client\src/iothub_client_diagnostic.c ****         result = NULL;
 319              		.loc 1 29 0 is_stmt 0 discriminator 4
 320 0018 134B     		ldr	r3, .L19
 321 001a 0193     		str	r3, [sp, #4]
 322 001c 0123     		movs	r3, #1
 323 001e 0093     		str	r3, [sp]
 324 0020 1C33     		adds	r3, r3, #28
 325 0022 124A     		ldr	r2, .L19+4
 326 0024 1249     		ldr	r1, .L19+8
 327 0026 0020     		movs	r0, #0
 328              	.LVL50:
 329 0028 A047     		blx	r4
 330              	.LVL51:
 331              	.LBE5:
  30:Source\azure_iot_sdk\iothub_client\src/iothub_client_diagnostic.c ****     }
ARM GAS  C:\Users\Phuong\AppData\Local\Temp\ccy2wtPc.s 			page 9


 332              		.loc 1 30 0 is_stmt 1 discriminator 4
 333 002a 0024     		movs	r4, #0
 334              	.LVL52:
 335 002c 18E0     		b	.L16
 336              	.LVL53:
 337              	.L15:
  46:Source\azure_iot_sdk\iothub_client\src/iothub_client_diagnostic.c ****         {
 338              		.loc 1 46 0
 339 002e 0200     		movs	r2, r0
 340 0030 1049     		ldr	r1, .L19+12
 341 0032 2000     		movs	r0, r4
 342              	.LVL54:
 343 0034 FFF7FEFF 		bl	sprintf
 344              	.LVL55:
 345 0038 0028     		cmp	r0, #0
 346 003a 11DA     		bge	.L16
 347              	.LBB6:
  48:Source\azure_iot_sdk\iothub_client\src/iothub_client_diagnostic.c ****             result = NULL;
 348              		.loc 1 48 0 discriminator 3
 349 003c FFF7FEFF 		bl	xlogging_get_log_function
 350              	.LVL56:
 351 0040 041E     		subs	r4, r0, #0
 352              	.LVL57:
 353 0042 0CD0     		beq	.L18
  48:Source\azure_iot_sdk\iothub_client\src/iothub_client_diagnostic.c ****             result = NULL;
 354              		.loc 1 48 0 is_stmt 0 discriminator 4
 355 0044 0C4B     		ldr	r3, .L19+16
 356 0046 0193     		str	r3, [sp, #4]
 357 0048 0123     		movs	r3, #1
 358 004a 0093     		str	r3, [sp]
 359 004c 2F33     		adds	r3, r3, #47
 360 004e 074A     		ldr	r2, .L19+4
 361 0050 0749     		ldr	r1, .L19+8
 362 0052 0020     		movs	r0, #0
 363              	.LVL58:
 364 0054 A047     		blx	r4
 365              	.LVL59:
 366              	.LBE6:
  49:Source\azure_iot_sdk\iothub_client\src/iothub_client_diagnostic.c ****         }
 367              		.loc 1 49 0 is_stmt 1 discriminator 4
 368 0056 0024     		movs	r4, #0
 369              	.LVL60:
 370 0058 02E0     		b	.L16
 371              	.LVL61:
 372              	.L17:
  30:Source\azure_iot_sdk\iothub_client\src/iothub_client_diagnostic.c ****     }
 373              		.loc 1 30 0
 374 005a 0024     		movs	r4, #0
 375 005c 00E0     		b	.L16
 376              	.LVL62:
 377              	.L18:
  49:Source\azure_iot_sdk\iothub_client\src/iothub_client_diagnostic.c ****         }
 378              		.loc 1 49 0
 379 005e 0024     		movs	r4, #0
 380              	.LVL63:
 381              	.L16:
  63:Source\azure_iot_sdk\iothub_client\src/iothub_client_diagnostic.c **** 
ARM GAS  C:\Users\Phuong\AppData\Local\Temp\ccy2wtPc.s 			page 10


 382              		.loc 1 63 0
 383 0060 2000     		movs	r0, r4
 384 0062 02B0     		add	sp, sp, #8
 385              		@ sp needed
 386              	.LVL64:
 387 0064 10BD     		pop	{r4, pc}
 388              	.L20:
 389 0066 C046     		.align	2
 390              	.L19:
 391 0068 44000000 		.word	.LC3
 392 006c 00000000 		.word	.LANCHOR0
 393 0070 00000000 		.word	.LC1
 394 0074 60000000 		.word	.LC5
 395 0078 64000000 		.word	.LC7
 396              		.cfi_endproc
 397              	.LFE1:
 398              		.size	get_epoch_time, .-get_epoch_time
 399              		.section	.text.prepare_message_diagnostic_data,"ax",%progbits
 400              		.align	2
 401              		.code	16
 402              		.thumb_func
 403              		.type	prepare_message_diagnostic_data, %function
 404              	prepare_message_diagnostic_data:
 405              	.LFB5:
 107:Source\azure_iot_sdk\iothub_client\src/iothub_client_diagnostic.c **** 
 108:Source\azure_iot_sdk\iothub_client\src/iothub_client_diagnostic.c **** static IOTHUB_MESSAGE_DIAGNOSTIC_PROPERTY_DATA* prepare_message_diagnostic_data()
 109:Source\azure_iot_sdk\iothub_client\src/iothub_client_diagnostic.c **** {
 406              		.loc 1 109 0
 407              		.cfi_startproc
 408              		@ args = 0, pretend = 0, frame = 0
 409              		@ frame_needed = 0, uses_anonymous_args = 0
 410 0000 70B5     		push	{r4, r5, r6, lr}
 411              		.cfi_def_cfa_offset 16
 412              		.cfi_offset 4, -16
 413              		.cfi_offset 5, -12
 414              		.cfi_offset 6, -8
 415              		.cfi_offset 14, -4
 416 0002 82B0     		sub	sp, sp, #8
 417              		.cfi_def_cfa_offset 24
 110:Source\azure_iot_sdk\iothub_client\src/iothub_client_diagnostic.c ****     IOTHUB_MESSAGE_DIAGNOSTIC_PROPERTY_DATA* result = (IOTHUB_MESSAGE_DIAGNOSTIC_PROPERTY_DATA*)mal
 418              		.loc 1 110 0
 419 0004 0820     		movs	r0, #8
 420 0006 FFF7FEFF 		bl	malloc
 421              	.LVL65:
 422 000a 041E     		subs	r4, r0, #0
 423              	.LVL66:
 111:Source\azure_iot_sdk\iothub_client\src/iothub_client_diagnostic.c ****     if (result == NULL)
 424              		.loc 1 111 0
 425 000c 0ED1     		bne	.L22
 426              	.LBB7:
 112:Source\azure_iot_sdk\iothub_client\src/iothub_client_diagnostic.c ****     {
 113:Source\azure_iot_sdk\iothub_client\src/iothub_client_diagnostic.c ****         LogError("malloc for DiagnosticData failed");
 427              		.loc 1 113 0 discriminator 3
 428 000e FFF7FEFF 		bl	xlogging_get_log_function
 429              	.LVL67:
 430 0012 051E     		subs	r5, r0, #0
 431              	.LVL68:
ARM GAS  C:\Users\Phuong\AppData\Local\Temp\ccy2wtPc.s 			page 11


 432 0014 5ED0     		beq	.L23
 433              		.loc 1 113 0 is_stmt 0 discriminator 4
 434 0016 314B     		ldr	r3, .L30
 435 0018 0193     		str	r3, [sp, #4]
 436 001a 0123     		movs	r3, #1
 437 001c 0093     		str	r3, [sp]
 438 001e 7033     		adds	r3, r3, #112
 439 0020 2F4A     		ldr	r2, .L30+4
 440 0022 1032     		adds	r2, r2, #16
 441 0024 2F49     		ldr	r1, .L30+8
 442 0026 0020     		movs	r0, #0
 443              	.LVL69:
 444 0028 A847     		blx	r5
 445              	.LVL70:
 446 002a 53E0     		b	.L23
 447              	.LVL71:
 448              	.L22:
 449              	.LBE7:
 450              	.LBB8:
 114:Source\azure_iot_sdk\iothub_client\src/iothub_client_diagnostic.c ****     }
 115:Source\azure_iot_sdk\iothub_client\src/iothub_client_diagnostic.c ****     else
 116:Source\azure_iot_sdk\iothub_client\src/iothub_client_diagnostic.c ****     {
 117:Source\azure_iot_sdk\iothub_client\src/iothub_client_diagnostic.c ****         char* diagId = (char*)malloc(9);
 451              		.loc 1 117 0 is_stmt 1
 452 002c 0920     		movs	r0, #9
 453              	.LVL72:
 454 002e FFF7FEFF 		bl	malloc
 455              	.LVL73:
 456 0032 051E     		subs	r5, r0, #0
 457              	.LVL74:
 118:Source\azure_iot_sdk\iothub_client\src/iothub_client_diagnostic.c ****         if (diagId == NULL)
 458              		.loc 1 118 0
 459 0034 12D1     		bne	.L24
 460              	.LBB9:
 119:Source\azure_iot_sdk\iothub_client\src/iothub_client_diagnostic.c ****         {
 120:Source\azure_iot_sdk\iothub_client\src/iothub_client_diagnostic.c ****             LogError("malloc for diagId failed");
 461              		.loc 1 120 0 discriminator 3
 462 0036 FFF7FEFF 		bl	xlogging_get_log_function
 463              	.LVL75:
 464 003a 051E     		subs	r5, r0, #0
 465              	.LVL76:
 466 003c 09D0     		beq	.L25
 467              		.loc 1 120 0 is_stmt 0 discriminator 4
 468 003e 2A4B     		ldr	r3, .L30+12
 469 0040 0193     		str	r3, [sp, #4]
 470 0042 0123     		movs	r3, #1
 471 0044 0093     		str	r3, [sp]
 472 0046 7733     		adds	r3, r3, #119
 473 0048 254A     		ldr	r2, .L30+4
 474 004a 1032     		adds	r2, r2, #16
 475 004c 2549     		ldr	r1, .L30+8
 476 004e 0020     		movs	r0, #0
 477              	.LVL77:
 478 0050 A847     		blx	r5
 479              	.LVL78:
 480              	.L25:
 481              	.LBE9:
ARM GAS  C:\Users\Phuong\AppData\Local\Temp\ccy2wtPc.s 			page 12


 121:Source\azure_iot_sdk\iothub_client\src/iothub_client_diagnostic.c ****             free(result);
 482              		.loc 1 121 0 is_stmt 1
 483 0052 2000     		movs	r0, r4
 484 0054 FFF7FEFF 		bl	free
 485              	.LVL79:
 122:Source\azure_iot_sdk\iothub_client\src/iothub_client_diagnostic.c ****             result = NULL;
 486              		.loc 1 122 0
 487 0058 0024     		movs	r4, #0
 488 005a 3BE0     		b	.L23
 489              	.LVL80:
 490              	.L24:
 491              	.LBB10:
 123:Source\azure_iot_sdk\iothub_client\src/iothub_client_diagnostic.c ****         }
 124:Source\azure_iot_sdk\iothub_client\src/iothub_client_diagnostic.c ****         else
 125:Source\azure_iot_sdk\iothub_client\src/iothub_client_diagnostic.c ****         {
 126:Source\azure_iot_sdk\iothub_client\src/iothub_client_diagnostic.c ****             char* timeBuffer;
 127:Source\azure_iot_sdk\iothub_client\src/iothub_client_diagnostic.c **** 
 128:Source\azure_iot_sdk\iothub_client\src/iothub_client_diagnostic.c ****             (void)generate_eight_random_characters(diagId);
 492              		.loc 1 128 0
 493 005c FFF7FEFF 		bl	generate_eight_random_characters
 494              	.LVL81:
 129:Source\azure_iot_sdk\iothub_client\src/iothub_client_diagnostic.c ****             result->diagnosticId = diagId;
 495              		.loc 1 129 0
 496 0060 2560     		str	r5, [r4]
 130:Source\azure_iot_sdk\iothub_client\src/iothub_client_diagnostic.c **** 
 131:Source\azure_iot_sdk\iothub_client\src/iothub_client_diagnostic.c ****             timeBuffer = (char*)malloc(TIME_STRING_BUFFER_LEN);
 497              		.loc 1 131 0
 498 0062 1E20     		movs	r0, #30
 499 0064 FFF7FEFF 		bl	malloc
 500              	.LVL82:
 501 0068 051E     		subs	r5, r0, #0
 502              	.LVL83:
 132:Source\azure_iot_sdk\iothub_client\src/iothub_client_diagnostic.c ****             if (timeBuffer == NULL)
 503              		.loc 1 132 0
 504 006a 15D1     		bne	.L26
 505              	.LBB11:
 133:Source\azure_iot_sdk\iothub_client\src/iothub_client_diagnostic.c ****             {
 134:Source\azure_iot_sdk\iothub_client\src/iothub_client_diagnostic.c ****                 LogError("malloc for timeBuffer failed");
 506              		.loc 1 134 0 discriminator 3
 507 006c FFF7FEFF 		bl	xlogging_get_log_function
 508              	.LVL84:
 509 0070 051E     		subs	r5, r0, #0
 510              	.LVL85:
 511 0072 09D0     		beq	.L27
 512              		.loc 1 134 0 is_stmt 0 discriminator 4
 513 0074 1D4B     		ldr	r3, .L30+16
 514 0076 0193     		str	r3, [sp, #4]
 515 0078 0123     		movs	r3, #1
 516 007a 0093     		str	r3, [sp]
 517 007c 8533     		adds	r3, r3, #133
 518 007e 184A     		ldr	r2, .L30+4
 519 0080 1032     		adds	r2, r2, #16
 520 0082 1849     		ldr	r1, .L30+8
 521 0084 0020     		movs	r0, #0
 522              	.LVL86:
 523 0086 A847     		blx	r5
 524              	.LVL87:
ARM GAS  C:\Users\Phuong\AppData\Local\Temp\ccy2wtPc.s 			page 13


 525              	.L27:
 526              	.LBE11:
 135:Source\azure_iot_sdk\iothub_client\src/iothub_client_diagnostic.c ****                 free(result->diagnosticId);
 527              		.loc 1 135 0 is_stmt 1
 528 0088 2068     		ldr	r0, [r4]
 529 008a FFF7FEFF 		bl	free
 530              	.LVL88:
 136:Source\azure_iot_sdk\iothub_client\src/iothub_client_diagnostic.c ****                 free(result);
 531              		.loc 1 136 0
 532 008e 2000     		movs	r0, r4
 533 0090 FFF7FEFF 		bl	free
 534              	.LVL89:
 137:Source\azure_iot_sdk\iothub_client\src/iothub_client_diagnostic.c ****                 result = NULL;
 535              		.loc 1 137 0
 536 0094 0024     		movs	r4, #0
 537 0096 1DE0     		b	.L23
 538              	.LVL90:
 539              	.L26:
 138:Source\azure_iot_sdk\iothub_client\src/iothub_client_diagnostic.c ****             }
 139:Source\azure_iot_sdk\iothub_client\src/iothub_client_diagnostic.c ****             else if (get_epoch_time(timeBuffer) == NULL)
 540              		.loc 1 139 0
 541 0098 FFF7FEFF 		bl	get_epoch_time
 542              	.LVL91:
 543 009c 0028     		cmp	r0, #0
 544 009e 18D1     		bne	.L28
 545              	.LBB12:
 140:Source\azure_iot_sdk\iothub_client\src/iothub_client_diagnostic.c ****             {
 141:Source\azure_iot_sdk\iothub_client\src/iothub_client_diagnostic.c ****                 LogError("Failed getting current time");
 546              		.loc 1 141 0 discriminator 3
 547 00a0 FFF7FEFF 		bl	xlogging_get_log_function
 548              	.LVL92:
 549 00a4 061E     		subs	r6, r0, #0
 550              	.LVL93:
 551 00a6 09D0     		beq	.L29
 552              		.loc 1 141 0 is_stmt 0 discriminator 4
 553 00a8 114B     		ldr	r3, .L30+20
 554 00aa 0193     		str	r3, [sp, #4]
 555 00ac 0123     		movs	r3, #1
 556 00ae 0093     		str	r3, [sp]
 557 00b0 8C33     		adds	r3, r3, #140
 558 00b2 0B4A     		ldr	r2, .L30+4
 559 00b4 1032     		adds	r2, r2, #16
 560 00b6 0B49     		ldr	r1, .L30+8
 561 00b8 0020     		movs	r0, #0
 562              	.LVL94:
 563 00ba B047     		blx	r6
 564              	.LVL95:
 565              	.L29:
 566              	.LBE12:
 142:Source\azure_iot_sdk\iothub_client\src/iothub_client_diagnostic.c ****                 free(result->diagnosticId);
 567              		.loc 1 142 0 is_stmt 1
 568 00bc 2068     		ldr	r0, [r4]
 569 00be FFF7FEFF 		bl	free
 570              	.LVL96:
 143:Source\azure_iot_sdk\iothub_client\src/iothub_client_diagnostic.c ****                 free(result);
 571              		.loc 1 143 0
 572 00c2 2000     		movs	r0, r4
ARM GAS  C:\Users\Phuong\AppData\Local\Temp\ccy2wtPc.s 			page 14


 573 00c4 FFF7FEFF 		bl	free
 574              	.LVL97:
 144:Source\azure_iot_sdk\iothub_client\src/iothub_client_diagnostic.c ****                 free(timeBuffer);
 575              		.loc 1 144 0
 576 00c8 2800     		movs	r0, r5
 577 00ca FFF7FEFF 		bl	free
 578              	.LVL98:
 145:Source\azure_iot_sdk\iothub_client\src/iothub_client_diagnostic.c ****                 result = NULL;
 579              		.loc 1 145 0
 580 00ce 0024     		movs	r4, #0
 581 00d0 00E0     		b	.L23
 582              	.LVL99:
 583              	.L28:
 146:Source\azure_iot_sdk\iothub_client\src/iothub_client_diagnostic.c ****             }
 147:Source\azure_iot_sdk\iothub_client\src/iothub_client_diagnostic.c ****             else
 148:Source\azure_iot_sdk\iothub_client\src/iothub_client_diagnostic.c ****             {
 149:Source\azure_iot_sdk\iothub_client\src/iothub_client_diagnostic.c ****                 result->diagnosticCreationTimeUtc = timeBuffer;
 584              		.loc 1 149 0
 585 00d2 6560     		str	r5, [r4, #4]
 586              	.LVL100:
 587              	.L23:
 588              	.LBE10:
 589              	.LBE8:
 150:Source\azure_iot_sdk\iothub_client\src/iothub_client_diagnostic.c ****             }
 151:Source\azure_iot_sdk\iothub_client\src/iothub_client_diagnostic.c ****         }
 152:Source\azure_iot_sdk\iothub_client\src/iothub_client_diagnostic.c ****     }
 153:Source\azure_iot_sdk\iothub_client\src/iothub_client_diagnostic.c ****     return result;
 154:Source\azure_iot_sdk\iothub_client\src/iothub_client_diagnostic.c **** }
 590              		.loc 1 154 0
 591 00d4 2000     		movs	r0, r4
 592 00d6 02B0     		add	sp, sp, #8
 593              		@ sp needed
 594              	.LVL101:
 595 00d8 70BD     		pop	{r4, r5, r6, pc}
 596              	.L31:
 597 00da C046     		.align	2
 598              	.L30:
 599 00dc 98000000 		.word	.LC11
 600 00e0 00000000 		.word	.LANCHOR0
 601 00e4 00000000 		.word	.LC1
 602 00e8 BC000000 		.word	.LC13
 603 00ec D8000000 		.word	.LC15
 604 00f0 44000000 		.word	.LC3
 605              		.cfi_endproc
 606              	.LFE5:
 607              		.size	prepare_message_diagnostic_data, .-prepare_message_diagnostic_data
 608              		.section	.text.IoTHubClient_Diagnostic_AddIfNecessary,"ax",%progbits
 609              		.align	2
 610              		.global	IoTHubClient_Diagnostic_AddIfNecessary
 611              		.code	16
 612              		.thumb_func
 613              		.type	IoTHubClient_Diagnostic_AddIfNecessary, %function
 614              	IoTHubClient_Diagnostic_AddIfNecessary:
 615              	.LFB6:
 155:Source\azure_iot_sdk\iothub_client\src/iothub_client_diagnostic.c **** 
 156:Source\azure_iot_sdk\iothub_client\src/iothub_client_diagnostic.c **** int IoTHubClient_Diagnostic_AddIfNecessary(IOTHUB_DIAGNOSTIC_SETTING_DATA* diagSetting, IOTHUB_MESS
 157:Source\azure_iot_sdk\iothub_client\src/iothub_client_diagnostic.c **** {
ARM GAS  C:\Users\Phuong\AppData\Local\Temp\ccy2wtPc.s 			page 15


 616              		.loc 1 157 0
 617              		.cfi_startproc
 618              		@ args = 0, pretend = 0, frame = 0
 619              		@ frame_needed = 0, uses_anonymous_args = 0
 620              	.LVL102:
 621 0000 70B5     		push	{r4, r5, r6, lr}
 622              		.cfi_def_cfa_offset 16
 623              		.cfi_offset 4, -16
 624              		.cfi_offset 5, -12
 625              		.cfi_offset 6, -8
 626              		.cfi_offset 14, -4
 627 0002 0C00     		movs	r4, r1
 158:Source\azure_iot_sdk\iothub_client\src/iothub_client_diagnostic.c ****     int result;
 159:Source\azure_iot_sdk\iothub_client\src/iothub_client_diagnostic.c ****     /* Codes_SRS_IOTHUB_DIAGNOSTIC_13_001: [ IoTHubClient_Diagnostic_AddIfNecessary should return n
 160:Source\azure_iot_sdk\iothub_client\src/iothub_client_diagnostic.c ****     if (diagSetting == NULL || messageHandle == NULL)
 628              		.loc 1 160 0
 629 0004 0028     		cmp	r0, #0
 630 0006 1CD0     		beq	.L35
 631              		.loc 1 160 0 is_stmt 0 discriminator 1
 632 0008 0029     		cmp	r1, #0
 633 000a 1CD0     		beq	.L36
 161:Source\azure_iot_sdk\iothub_client\src/iothub_client_diagnostic.c ****     {
 162:Source\azure_iot_sdk\iothub_client\src/iothub_client_diagnostic.c ****         result = __FAILURE__;
 163:Source\azure_iot_sdk\iothub_client\src/iothub_client_diagnostic.c ****     }
 164:Source\azure_iot_sdk\iothub_client\src/iothub_client_diagnostic.c ****     /* Codes_SRS_IOTHUB_DIAGNOSTIC_13_003: [ If diagSamplingPercentage is equal to 0, message numbe
 165:Source\azure_iot_sdk\iothub_client\src/iothub_client_diagnostic.c ****     else if (should_add_diagnostic_info(diagSetting))
 634              		.loc 1 165 0 is_stmt 1
 635 000c FFF7FEFF 		bl	should_add_diagnostic_info
 636              	.LVL103:
 637 0010 0028     		cmp	r0, #0
 638 0012 1AD0     		beq	.L37
 639              	.LBB13:
 166:Source\azure_iot_sdk\iothub_client\src/iothub_client_diagnostic.c ****     {
 167:Source\azure_iot_sdk\iothub_client\src/iothub_client_diagnostic.c ****         /* Codes_SRS_IOTHUB_DIAGNOSTIC_13_004: [ If diagSamplingPercentage is equal to 100, diagnos
 168:Source\azure_iot_sdk\iothub_client\src/iothub_client_diagnostic.c ****         /* Codes_SRS_IOTHUB_DIAGNOSTIC_13_005: [ If diagSamplingPercentage is between(0, 100), diag
 169:Source\azure_iot_sdk\iothub_client\src/iothub_client_diagnostic.c **** 
 170:Source\azure_iot_sdk\iothub_client\src/iothub_client_diagnostic.c ****         IOTHUB_MESSAGE_DIAGNOSTIC_PROPERTY_DATA* diagnosticData;
 171:Source\azure_iot_sdk\iothub_client\src/iothub_client_diagnostic.c ****         if ((diagnosticData = prepare_message_diagnostic_data()) == NULL)
 640              		.loc 1 171 0
 641 0014 FFF7FEFF 		bl	prepare_message_diagnostic_data
 642              	.LVL104:
 643 0018 051E     		subs	r5, r0, #0
 644              	.LVL105:
 645 001a 18D0     		beq	.L38
 172:Source\azure_iot_sdk\iothub_client\src/iothub_client_diagnostic.c ****         {
 173:Source\azure_iot_sdk\iothub_client\src/iothub_client_diagnostic.c ****             result = __FAILURE__;
 174:Source\azure_iot_sdk\iothub_client\src/iothub_client_diagnostic.c ****         }
 175:Source\azure_iot_sdk\iothub_client\src/iothub_client_diagnostic.c ****         else
 176:Source\azure_iot_sdk\iothub_client\src/iothub_client_diagnostic.c ****         {
 177:Source\azure_iot_sdk\iothub_client\src/iothub_client_diagnostic.c ****             if (IoTHubMessage_SetDiagnosticPropertyData(messageHandle, diagnosticData) != IOTHUB_ME
 646              		.loc 1 177 0
 647 001c 0100     		movs	r1, r0
 648 001e 2000     		movs	r0, r4
 649              	.LVL106:
 650 0020 FFF7FEFF 		bl	IoTHubMessage_SetDiagnosticPropertyData
 651              	.LVL107:
 652 0024 0028     		cmp	r0, #0
ARM GAS  C:\Users\Phuong\AppData\Local\Temp\ccy2wtPc.s 			page 16


 653 0026 01D0     		beq	.L39
 178:Source\azure_iot_sdk\iothub_client\src/iothub_client_diagnostic.c ****             {
 179:Source\azure_iot_sdk\iothub_client\src/iothub_client_diagnostic.c ****                 /* Codes_SRS_IOTHUB_DIAGNOSTIC_13_002: [ IoTHubClient_Diagnostic_AddIfNecessary sho
 180:Source\azure_iot_sdk\iothub_client\src/iothub_client_diagnostic.c ****                 result = __FAILURE__;
 654              		.loc 1 180 0
 655 0028 B424     		movs	r4, #180
 656              	.LVL108:
 657 002a 00E0     		b	.L34
 658              	.LVL109:
 659              	.L39:
 181:Source\azure_iot_sdk\iothub_client\src/iothub_client_diagnostic.c ****             }
 182:Source\azure_iot_sdk\iothub_client\src/iothub_client_diagnostic.c ****             else
 183:Source\azure_iot_sdk\iothub_client\src/iothub_client_diagnostic.c ****             {
 184:Source\azure_iot_sdk\iothub_client\src/iothub_client_diagnostic.c ****                 result = 0;
 660              		.loc 1 184 0
 661 002c 0024     		movs	r4, #0
 662              	.LVL110:
 663              	.L34:
 185:Source\azure_iot_sdk\iothub_client\src/iothub_client_diagnostic.c ****             }
 186:Source\azure_iot_sdk\iothub_client\src/iothub_client_diagnostic.c **** 
 187:Source\azure_iot_sdk\iothub_client\src/iothub_client_diagnostic.c ****             free(diagnosticData->diagnosticCreationTimeUtc);
 664              		.loc 1 187 0
 665 002e 6868     		ldr	r0, [r5, #4]
 666 0030 FFF7FEFF 		bl	free
 667              	.LVL111:
 188:Source\azure_iot_sdk\iothub_client\src/iothub_client_diagnostic.c ****             free(diagnosticData->diagnosticId);
 668              		.loc 1 188 0
 669 0034 2868     		ldr	r0, [r5]
 670 0036 FFF7FEFF 		bl	free
 671              	.LVL112:
 189:Source\azure_iot_sdk\iothub_client\src/iothub_client_diagnostic.c ****             free(diagnosticData);
 672              		.loc 1 189 0
 673 003a 2800     		movs	r0, r5
 674 003c FFF7FEFF 		bl	free
 675              	.LVL113:
 676 0040 06E0     		b	.L33
 677              	.LVL114:
 678              	.L35:
 679              	.LBE13:
 162:Source\azure_iot_sdk\iothub_client\src/iothub_client_diagnostic.c ****     }
 680              		.loc 1 162 0
 681 0042 A224     		movs	r4, #162
 682 0044 04E0     		b	.L33
 683              	.L36:
 684 0046 A224     		movs	r4, #162
 685 0048 02E0     		b	.L33
 686              	.LVL115:
 687              	.L37:
 190:Source\azure_iot_sdk\iothub_client\src/iothub_client_diagnostic.c ****             diagnosticData = NULL;
 191:Source\azure_iot_sdk\iothub_client\src/iothub_client_diagnostic.c ****         }
 192:Source\azure_iot_sdk\iothub_client\src/iothub_client_diagnostic.c ****     }
 193:Source\azure_iot_sdk\iothub_client\src/iothub_client_diagnostic.c ****     else
 194:Source\azure_iot_sdk\iothub_client\src/iothub_client_diagnostic.c ****     {
 195:Source\azure_iot_sdk\iothub_client\src/iothub_client_diagnostic.c ****         result = 0;
 688              		.loc 1 195 0
 689 004a 0024     		movs	r4, #0
 690              	.LVL116:
ARM GAS  C:\Users\Phuong\AppData\Local\Temp\ccy2wtPc.s 			page 17


 691 004c 00E0     		b	.L33
 692              	.LVL117:
 693              	.L38:
 694              	.LBB14:
 173:Source\azure_iot_sdk\iothub_client\src/iothub_client_diagnostic.c ****         }
 695              		.loc 1 173 0
 696 004e AD24     		movs	r4, #173
 697              	.LVL118:
 698              	.L33:
 699              	.LBE14:
 196:Source\azure_iot_sdk\iothub_client\src/iothub_client_diagnostic.c ****     }
 197:Source\azure_iot_sdk\iothub_client\src/iothub_client_diagnostic.c **** 
 198:Source\azure_iot_sdk\iothub_client\src/iothub_client_diagnostic.c ****     return result;
 199:Source\azure_iot_sdk\iothub_client\src/iothub_client_diagnostic.c **** }
 700              		.loc 1 199 0
 701 0050 2000     		movs	r0, r4
 702              		@ sp needed
 703              	.LVL119:
 704 0052 70BD     		pop	{r4, r5, r6, pc}
 705              		.cfi_endproc
 706              	.LFE6:
 707              		.size	IoTHubClient_Diagnostic_AddIfNecessary, .-IoTHubClient_Diagnostic_AddIfNecessary
 708              		.section	.rodata
 709              		.align	2
 710              		.set	.LANCHOR0,. + 0
 711              		.type	__func__.6707, %object
 712              		.size	__func__.6707, 15
 713              	__func__.6707:
 714 0000 6765745F 		.ascii	"get_epoch_time\000"
 714      65706F63 
 714      685F7469 
 714      6D6500
 715 000f 00       		.space	1
 716              		.type	__func__.6743, %object
 717              		.size	__func__.6743, 32
 718              	__func__.6743:
 719 0010 70726570 		.ascii	"prepare_message_diagnostic_data\000"
 719      6172655F 
 719      6D657373 
 719      6167655F 
 719      64696167 
 720              		.section	.rodata.str1.4,"aMS",%progbits,1
 721              		.align	2
 722              	.LC1:
 723 0000 536F7572 		.ascii	"Source\\azure_iot_sdk\\iothub_client\\src\\iothub_c"
 723      63655C61 
 723      7A757265 
 723      5F696F74 
 723      5F73646B 
 724 002f 6C69656E 		.ascii	"lient_diagnostic.c\000"
 724      745F6469 
 724      61676E6F 
 724      73746963 
 724      2E6300
 725 0042 0000     		.space	2
 726              	.LC3:
 727 0044 4661696C 		.ascii	"Failed getting current time\000"
ARM GAS  C:\Users\Phuong\AppData\Local\Temp\ccy2wtPc.s 			page 18


 727      65642067 
 727      65747469 
 727      6E672063 
 727      75727265 
 728              	.LC5:
 729 0060 256C7500 		.ascii	"%lu\000"
 730              	.LC7:
 731 0064 4661696C 		.ascii	"Failed sprintf to timeBuffer with 4 bytes of time_t"
 731      65642073 
 731      7072696E 
 731      74662074 
 731      6F207469 
 732 0097 00       		.ascii	"\000"
 733              	.LC11:
 734 0098 6D616C6C 		.ascii	"malloc for DiagnosticData failed\000"
 734      6F632066 
 734      6F722044 
 734      6961676E 
 734      6F737469 
 735 00b9 000000   		.space	3
 736              	.LC13:
 737 00bc 6D616C6C 		.ascii	"malloc for diagId failed\000"
 737      6F632066 
 737      6F722064 
 737      69616749 
 737      64206661 
 738 00d5 000000   		.space	3
 739              	.LC15:
 740 00d8 6D616C6C 		.ascii	"malloc for timeBuffer failed\000"
 740      6F632066 
 740      6F722074 
 740      696D6542 
 740      75666665 
 741              		.text
 742              	.Letext0:
 743              		.file 2 "c:\\program files (x86)\\cypress\\psoc creator\\4.2\\psoc creator\\import\\gnu\\arm\\5.4.
 744              		.file 3 "c:\\program files (x86)\\cypress\\psoc creator\\4.2\\psoc creator\\import\\gnu\\arm\\5.4.
 745              		.file 4 "c:\\program files (x86)\\cypress\\psoc creator\\4.2\\psoc creator\\import\\gnu\\arm\\5.4.
 746              		.file 5 ".\\Source\\azure_iot_sdk\\c-utility\\inc/azure_c_shared_utility/xlogging.h"
 747              		.file 6 ".\\Source\\azure_iot_sdk\\iothub_client\\inc/iothub_message.h"
 748              		.file 7 ".\\Source\\azure_iot_sdk\\iothub_client\\inc/internal/iothub_client_diagnostic.h"
 749              		.file 8 "c:\\program files (x86)\\cypress\\psoc creator\\4.2\\psoc creator\\import\\gnu\\arm\\5.4.
 750              		.file 9 "c:\\program files (x86)\\cypress\\psoc creator\\4.2\\psoc creator\\import\\gnu\\arm\\5.4.
 751              		.file 10 ".\\Source\\azure_iot_sdk\\c-utility\\inc/azure_c_shared_utility/agenttime.h"
 752              		.file 11 "c:\\program files (x86)\\cypress\\psoc creator\\4.2\\psoc creator\\import\\gnu\\arm\\5.4