ARM GAS  C:\Users\Phuong\AppData\Local\Temp\ccr8V995.s 			page 1


   1              		.syntax unified
   2              		.cpu cortex-m0plus
   3              		.fpu softvfp
   4              		.eabi_attribute 20, 1
   5              		.eabi_attribute 21, 1
   6              		.eabi_attribute 23, 3
   7              		.eabi_attribute 24, 1
   8              		.eabi_attribute 25, 1
   9              		.eabi_attribute 26, 1
  10              		.eabi_attribute 30, 1
  11              		.eabi_attribute 34, 0
  12              		.eabi_attribute 18, 4
  13              		.thumb
  14              		.syntax unified
  15              		.file	"iothubtransport.c"
  16              		.text
  17              	.Ltext0:
  18              		.cfi_sections	.debug_frame
  19              		.section	.text.find_by_handle,"ax",%progbits
  20              		.align	2
  21              		.code	16
  22              		.thumb_func
  23              		.type	find_by_handle, %function
  24              	find_by_handle:
  25              	.LFB4:
  26              		.file 1 "Source\\azure_iot_sdk\\iothub_client\\src\\iothubtransport.c"
   1:Source\azure_iot_sdk\iothub_client\src/iothubtransport.c **** // Copyright (c) Microsoft. All rights reserved.
   2:Source\azure_iot_sdk\iothub_client\src/iothubtransport.c **** // Licensed under the MIT license. See LICENSE file in the project root for full license informatio
   3:Source\azure_iot_sdk\iothub_client\src/iothubtransport.c **** 
   4:Source\azure_iot_sdk\iothub_client\src/iothubtransport.c **** #include <stdlib.h>
   5:Source\azure_iot_sdk\iothub_client\src/iothubtransport.c **** #include <signal.h>
   6:Source\azure_iot_sdk\iothub_client\src/iothubtransport.c **** #include <stddef.h>
   7:Source\azure_iot_sdk\iothub_client\src/iothubtransport.c **** #include "azure_c_shared_utility/gballoc.h"
   8:Source\azure_iot_sdk\iothub_client\src/iothubtransport.c **** #include "azure_c_shared_utility/crt_abstractions.h"
   9:Source\azure_iot_sdk\iothub_client\src/iothubtransport.c **** #include "internal/iothubtransport.h"
  10:Source\azure_iot_sdk\iothub_client\src/iothubtransport.c **** #include "iothub_client_core.h"
  11:Source\azure_iot_sdk\iothub_client\src/iothubtransport.c **** #include "internal/iothub_client_private.h"
  12:Source\azure_iot_sdk\iothub_client\src/iothubtransport.c **** #include "azure_c_shared_utility/threadapi.h"
  13:Source\azure_iot_sdk\iothub_client\src/iothubtransport.c **** #include "azure_c_shared_utility/lock.h"
  14:Source\azure_iot_sdk\iothub_client\src/iothubtransport.c **** #include "azure_c_shared_utility/xlogging.h"
  15:Source\azure_iot_sdk\iothub_client\src/iothubtransport.c **** #include "azure_c_shared_utility/vector.h"
  16:Source\azure_iot_sdk\iothub_client\src/iothubtransport.c **** 
  17:Source\azure_iot_sdk\iothub_client\src/iothubtransport.c **** #include "internal/iothubtransport.h"
  18:Source\azure_iot_sdk\iothub_client\src/iothubtransport.c **** #include "internal/iothub_client_private.h"
  19:Source\azure_iot_sdk\iothub_client\src/iothubtransport.c **** #include "iothub_transport_ll.h"
  20:Source\azure_iot_sdk\iothub_client\src/iothubtransport.c **** #include "iothub_client_core.h"
  21:Source\azure_iot_sdk\iothub_client\src/iothubtransport.c **** 
  22:Source\azure_iot_sdk\iothub_client\src/iothubtransport.c **** typedef struct TRANSPORT_HANDLE_DATA_TAG
  23:Source\azure_iot_sdk\iothub_client\src/iothubtransport.c **** {
  24:Source\azure_iot_sdk\iothub_client\src/iothubtransport.c ****     TRANSPORT_LL_HANDLE transportLLHandle;
  25:Source\azure_iot_sdk\iothub_client\src/iothubtransport.c ****     THREAD_HANDLE workerThreadHandle;
  26:Source\azure_iot_sdk\iothub_client\src/iothubtransport.c ****     LOCK_HANDLE lockHandle;
  27:Source\azure_iot_sdk\iothub_client\src/iothubtransport.c ****     sig_atomic_t stopThread;
  28:Source\azure_iot_sdk\iothub_client\src/iothubtransport.c ****     TRANSPORT_PROVIDER_FIELDS;
  29:Source\azure_iot_sdk\iothub_client\src/iothubtransport.c ****     VECTOR_HANDLE clients;
  30:Source\azure_iot_sdk\iothub_client\src/iothubtransport.c ****     LOCK_HANDLE clientsLockHandle;
  31:Source\azure_iot_sdk\iothub_client\src/iothubtransport.c ****     IOTHUB_CLIENT_MULTIPLEXED_DO_WORK clientDoWork;
ARM GAS  C:\Users\Phuong\AppData\Local\Temp\ccr8V995.s 			page 2


  32:Source\azure_iot_sdk\iothub_client\src/iothubtransport.c **** } TRANSPORT_HANDLE_DATA;
  33:Source\azure_iot_sdk\iothub_client\src/iothubtransport.c **** 
  34:Source\azure_iot_sdk\iothub_client\src/iothubtransport.c **** /* Used for Unit test */
  35:Source\azure_iot_sdk\iothub_client\src/iothubtransport.c **** const size_t IoTHubTransport_ThreadTerminationOffset = offsetof(TRANSPORT_HANDLE_DATA, stopThread);
  36:Source\azure_iot_sdk\iothub_client\src/iothubtransport.c **** 
  37:Source\azure_iot_sdk\iothub_client\src/iothubtransport.c **** TRANSPORT_HANDLE IoTHubTransport_Create(IOTHUB_CLIENT_TRANSPORT_PROVIDER protocol, const char* iotH
  38:Source\azure_iot_sdk\iothub_client\src/iothubtransport.c **** {
  39:Source\azure_iot_sdk\iothub_client\src/iothubtransport.c ****     TRANSPORT_HANDLE_DATA *result;
  40:Source\azure_iot_sdk\iothub_client\src/iothubtransport.c **** 
  41:Source\azure_iot_sdk\iothub_client\src/iothubtransport.c ****     if (protocol == NULL || iotHubName == NULL || iotHubSuffix == NULL)
  42:Source\azure_iot_sdk\iothub_client\src/iothubtransport.c ****     {
  43:Source\azure_iot_sdk\iothub_client\src/iothubtransport.c ****         /*Codes_SRS_IOTHUBTRANSPORT_17_002: [ If protocol is NULL, this function shall return NULL.
  44:Source\azure_iot_sdk\iothub_client\src/iothubtransport.c ****         /*Codes_SRS_IOTHUBTRANSPORT_17_003: [ If iotHubName is NULL, this function shall return NUL
  45:Source\azure_iot_sdk\iothub_client\src/iothubtransport.c ****         /*Codes_SRS_IOTHUBTRANSPORT_17_004: [ If iotHubSuffix is NULL, this function shall return N
  46:Source\azure_iot_sdk\iothub_client\src/iothubtransport.c ****         LogError("Invalid NULL argument, protocol [%p], name [%p], suffix [%p].", protocol, iotHubN
  47:Source\azure_iot_sdk\iothub_client\src/iothubtransport.c ****         result = NULL;
  48:Source\azure_iot_sdk\iothub_client\src/iothubtransport.c ****     }
  49:Source\azure_iot_sdk\iothub_client\src/iothubtransport.c ****     else
  50:Source\azure_iot_sdk\iothub_client\src/iothubtransport.c ****     {
  51:Source\azure_iot_sdk\iothub_client\src/iothubtransport.c ****         /*Codes_SRS_IOTHUBTRANSPORT_17_032: [ IoTHubTransport_Create shall allocate memory for the 
  52:Source\azure_iot_sdk\iothub_client\src/iothubtransport.c ****         result = (TRANSPORT_HANDLE_DATA*)malloc(sizeof(TRANSPORT_HANDLE_DATA));
  53:Source\azure_iot_sdk\iothub_client\src/iothubtransport.c ****         if (result == NULL)
  54:Source\azure_iot_sdk\iothub_client\src/iothubtransport.c ****         {
  55:Source\azure_iot_sdk\iothub_client\src/iothubtransport.c ****             /*Codes_SRS_IOTHUBTRANSPORT_17_040: [ If memory allocation fails, IoTHubTransport_Creat
  56:Source\azure_iot_sdk\iothub_client\src/iothubtransport.c ****             LogError("Transport handle was not allocated.");
  57:Source\azure_iot_sdk\iothub_client\src/iothubtransport.c ****         }
  58:Source\azure_iot_sdk\iothub_client\src/iothubtransport.c ****         else
  59:Source\azure_iot_sdk\iothub_client\src/iothubtransport.c ****         {
  60:Source\azure_iot_sdk\iothub_client\src/iothubtransport.c ****             TRANSPORT_PROVIDER * transportProtocol = (TRANSPORT_PROVIDER*)(protocol());
  61:Source\azure_iot_sdk\iothub_client\src/iothubtransport.c ****             IOTHUB_CLIENT_CONFIG upperConfig;
  62:Source\azure_iot_sdk\iothub_client\src/iothubtransport.c ****             upperConfig.deviceId = NULL;
  63:Source\azure_iot_sdk\iothub_client\src/iothubtransport.c ****             upperConfig.deviceKey = NULL;
  64:Source\azure_iot_sdk\iothub_client\src/iothubtransport.c ****             upperConfig.iotHubName = iotHubName;
  65:Source\azure_iot_sdk\iothub_client\src/iothubtransport.c ****             upperConfig.iotHubSuffix = iotHubSuffix;
  66:Source\azure_iot_sdk\iothub_client\src/iothubtransport.c ****             upperConfig.protocol = protocol;
  67:Source\azure_iot_sdk\iothub_client\src/iothubtransport.c ****             upperConfig.protocolGatewayHostName = NULL;
  68:Source\azure_iot_sdk\iothub_client\src/iothubtransport.c **** 
  69:Source\azure_iot_sdk\iothub_client\src/iothubtransport.c ****             IOTHUBTRANSPORT_CONFIG transportLLConfig;
  70:Source\azure_iot_sdk\iothub_client\src/iothubtransport.c ****             memset(&transportLLConfig, 0, sizeof(IOTHUBTRANSPORT_CONFIG));
  71:Source\azure_iot_sdk\iothub_client\src/iothubtransport.c ****             transportLLConfig.upperConfig = &upperConfig;
  72:Source\azure_iot_sdk\iothub_client\src/iothubtransport.c ****             transportLLConfig.waitingToSend = NULL;
  73:Source\azure_iot_sdk\iothub_client\src/iothubtransport.c **** 
  74:Source\azure_iot_sdk\iothub_client\src/iothubtransport.c ****             /*Codes_SRS_IOTHUBTRANSPORT_17_005: [ IoTHubTransport_Create shall create the lower lay
  75:Source\azure_iot_sdk\iothub_client\src/iothubtransport.c ****             result->transportLLHandle = transportProtocol->IoTHubTransport_Create(&transportLLConfi
  76:Source\azure_iot_sdk\iothub_client\src/iothubtransport.c ****             if (result->transportLLHandle == NULL)
  77:Source\azure_iot_sdk\iothub_client\src/iothubtransport.c ****             {
  78:Source\azure_iot_sdk\iothub_client\src/iothubtransport.c ****                 /*Codes_SRS_IOTHUBTRANSPORT_17_006: [ If the creation of the transport fails, IoTHu
  79:Source\azure_iot_sdk\iothub_client\src/iothubtransport.c ****                 LogError("Lower Layer transport not created.");
  80:Source\azure_iot_sdk\iothub_client\src/iothubtransport.c ****                 free(result);
  81:Source\azure_iot_sdk\iothub_client\src/iothubtransport.c ****                 result = NULL;
  82:Source\azure_iot_sdk\iothub_client\src/iothubtransport.c ****             }
  83:Source\azure_iot_sdk\iothub_client\src/iothubtransport.c ****             else
  84:Source\azure_iot_sdk\iothub_client\src/iothubtransport.c ****             {
  85:Source\azure_iot_sdk\iothub_client\src/iothubtransport.c ****                 /*Codes_SRS_IOTHUBTRANSPORT_17_007: [ IoTHubTransport_Create shall create the trans
  86:Source\azure_iot_sdk\iothub_client\src/iothubtransport.c ****                 result->lockHandle = Lock_Init();
  87:Source\azure_iot_sdk\iothub_client\src/iothubtransport.c ****                 if (result->lockHandle == NULL)
  88:Source\azure_iot_sdk\iothub_client\src/iothubtransport.c ****                 {
ARM GAS  C:\Users\Phuong\AppData\Local\Temp\ccr8V995.s 			page 3


  89:Source\azure_iot_sdk\iothub_client\src/iothubtransport.c ****                     /*Codes_SRS_IOTHUBTRANSPORT_17_008: [ If the lock creation fails, IoTHubTranspo
  90:Source\azure_iot_sdk\iothub_client\src/iothubtransport.c ****                     LogError("transport Lock not created.");
  91:Source\azure_iot_sdk\iothub_client\src/iothubtransport.c ****                     transportProtocol->IoTHubTransport_Destroy(result->transportLLHandle);
  92:Source\azure_iot_sdk\iothub_client\src/iothubtransport.c ****                     free(result);
  93:Source\azure_iot_sdk\iothub_client\src/iothubtransport.c ****                     result = NULL;
  94:Source\azure_iot_sdk\iothub_client\src/iothubtransport.c ****                 }
  95:Source\azure_iot_sdk\iothub_client\src/iothubtransport.c ****                 else if ((result->clientsLockHandle = Lock_Init()) == NULL)
  96:Source\azure_iot_sdk\iothub_client\src/iothubtransport.c ****                 {
  97:Source\azure_iot_sdk\iothub_client\src/iothubtransport.c ****                     LogError("clients Lock not created.");
  98:Source\azure_iot_sdk\iothub_client\src/iothubtransport.c ****                     Lock_Deinit(result->lockHandle);
  99:Source\azure_iot_sdk\iothub_client\src/iothubtransport.c ****                     transportProtocol->IoTHubTransport_Destroy(result->transportLLHandle);
 100:Source\azure_iot_sdk\iothub_client\src/iothubtransport.c ****                     free(result);
 101:Source\azure_iot_sdk\iothub_client\src/iothubtransport.c ****                     result = NULL;
 102:Source\azure_iot_sdk\iothub_client\src/iothubtransport.c ****                 }
 103:Source\azure_iot_sdk\iothub_client\src/iothubtransport.c ****                 else
 104:Source\azure_iot_sdk\iothub_client\src/iothubtransport.c ****                 {
 105:Source\azure_iot_sdk\iothub_client\src/iothubtransport.c ****                     /*Codes_SRS_IOTHUBTRANSPORT_17_038: [ IoTHubTransport_Create shall call VECTOR_
 106:Source\azure_iot_sdk\iothub_client\src/iothubtransport.c ****                     result->clients = VECTOR_create(sizeof(IOTHUB_CLIENT_CORE_HANDLE));
 107:Source\azure_iot_sdk\iothub_client\src/iothubtransport.c ****                     if (result->clients == NULL)
 108:Source\azure_iot_sdk\iothub_client\src/iothubtransport.c ****                     {
 109:Source\azure_iot_sdk\iothub_client\src/iothubtransport.c ****                         /*Codes_SRS_IOTHUBTRANSPORT_17_039: [ If the Vector creation fails, IoTHubT
 110:Source\azure_iot_sdk\iothub_client\src/iothubtransport.c ****                         /*Codes_SRS_IOTHUBTRANSPORT_17_009: [ IoTHubTransport_Create shall clean up
 111:Source\azure_iot_sdk\iothub_client\src/iothubtransport.c ****                         LogError("clients list not created.");
 112:Source\azure_iot_sdk\iothub_client\src/iothubtransport.c ****                         Lock_Deinit(result->clientsLockHandle);
 113:Source\azure_iot_sdk\iothub_client\src/iothubtransport.c ****                         Lock_Deinit(result->lockHandle);
 114:Source\azure_iot_sdk\iothub_client\src/iothubtransport.c ****                         transportProtocol->IoTHubTransport_Destroy(result->transportLLHandle);
 115:Source\azure_iot_sdk\iothub_client\src/iothubtransport.c ****                         free(result);
 116:Source\azure_iot_sdk\iothub_client\src/iothubtransport.c ****                         result = NULL;
 117:Source\azure_iot_sdk\iothub_client\src/iothubtransport.c ****                     }
 118:Source\azure_iot_sdk\iothub_client\src/iothubtransport.c ****                     else
 119:Source\azure_iot_sdk\iothub_client\src/iothubtransport.c ****                     {
 120:Source\azure_iot_sdk\iothub_client\src/iothubtransport.c ****                         /*Codes_SRS_IOTHUBTRANSPORT_17_001: [ IoTHubTransport_Create shall return a
 121:Source\azure_iot_sdk\iothub_client\src/iothubtransport.c ****                         result->stopThread = 1;
 122:Source\azure_iot_sdk\iothub_client\src/iothubtransport.c ****                         result->clientDoWork = NULL;
 123:Source\azure_iot_sdk\iothub_client\src/iothubtransport.c ****                         result->workerThreadHandle = NULL; /* create thread when work needs to be d
 124:Source\azure_iot_sdk\iothub_client\src/iothubtransport.c ****                         result->IoTHubTransport_GetHostname = transportProtocol->IoTHubTransport_Ge
 125:Source\azure_iot_sdk\iothub_client\src/iothubtransport.c ****                         result->IoTHubTransport_SetOption = transportProtocol->IoTHubTransport_SetO
 126:Source\azure_iot_sdk\iothub_client\src/iothubtransport.c ****                         result->IoTHubTransport_Create = transportProtocol->IoTHubTransport_Create;
 127:Source\azure_iot_sdk\iothub_client\src/iothubtransport.c ****                         result->IoTHubTransport_Destroy = transportProtocol->IoTHubTransport_Destro
 128:Source\azure_iot_sdk\iothub_client\src/iothubtransport.c ****                         result->IoTHubTransport_Register = transportProtocol->IoTHubTransport_Regis
 129:Source\azure_iot_sdk\iothub_client\src/iothubtransport.c ****                         result->IoTHubTransport_Unregister = transportProtocol->IoTHubTransport_Unr
 130:Source\azure_iot_sdk\iothub_client\src/iothubtransport.c ****                         result->IoTHubTransport_Subscribe = transportProtocol->IoTHubTransport_Subs
 131:Source\azure_iot_sdk\iothub_client\src/iothubtransport.c ****                         result->IoTHubTransport_Unsubscribe = transportProtocol->IoTHubTransport_Un
 132:Source\azure_iot_sdk\iothub_client\src/iothubtransport.c ****                         result->IoTHubTransport_DoWork = transportProtocol->IoTHubTransport_DoWork;
 133:Source\azure_iot_sdk\iothub_client\src/iothubtransport.c ****                         result->IoTHubTransport_SetRetryPolicy = transportProtocol->IoTHubTransport
 134:Source\azure_iot_sdk\iothub_client\src/iothubtransport.c ****                         result->IoTHubTransport_GetSendStatus = transportProtocol->IoTHubTransport_
 135:Source\azure_iot_sdk\iothub_client\src/iothubtransport.c ****                     }
 136:Source\azure_iot_sdk\iothub_client\src/iothubtransport.c ****                 }
 137:Source\azure_iot_sdk\iothub_client\src/iothubtransport.c ****             }
 138:Source\azure_iot_sdk\iothub_client\src/iothubtransport.c ****         }
 139:Source\azure_iot_sdk\iothub_client\src/iothubtransport.c ****     }
 140:Source\azure_iot_sdk\iothub_client\src/iothubtransport.c **** 
 141:Source\azure_iot_sdk\iothub_client\src/iothubtransport.c ****     return result;
 142:Source\azure_iot_sdk\iothub_client\src/iothubtransport.c **** }
 143:Source\azure_iot_sdk\iothub_client\src/iothubtransport.c **** 
 144:Source\azure_iot_sdk\iothub_client\src/iothubtransport.c **** static void multiplexed_client_do_work(TRANSPORT_HANDLE_DATA* transportData)
 145:Source\azure_iot_sdk\iothub_client\src/iothubtransport.c **** {
ARM GAS  C:\Users\Phuong\AppData\Local\Temp\ccr8V995.s 			page 4


 146:Source\azure_iot_sdk\iothub_client\src/iothubtransport.c ****     if (Lock(transportData->clientsLockHandle) != LOCK_OK)
 147:Source\azure_iot_sdk\iothub_client\src/iothubtransport.c ****     {
 148:Source\azure_iot_sdk\iothub_client\src/iothubtransport.c ****         LogError("failed to lock for multiplexed_client_do_work");
 149:Source\azure_iot_sdk\iothub_client\src/iothubtransport.c ****     }
 150:Source\azure_iot_sdk\iothub_client\src/iothubtransport.c ****     else
 151:Source\azure_iot_sdk\iothub_client\src/iothubtransport.c ****     {
 152:Source\azure_iot_sdk\iothub_client\src/iothubtransport.c ****         size_t numberOfClients;
 153:Source\azure_iot_sdk\iothub_client\src/iothubtransport.c ****         size_t iterator;
 154:Source\azure_iot_sdk\iothub_client\src/iothubtransport.c **** 
 155:Source\azure_iot_sdk\iothub_client\src/iothubtransport.c ****         numberOfClients = VECTOR_size(transportData->clients);
 156:Source\azure_iot_sdk\iothub_client\src/iothubtransport.c ****         for (iterator = 0; iterator < numberOfClients; iterator++)
 157:Source\azure_iot_sdk\iothub_client\src/iothubtransport.c ****         {
 158:Source\azure_iot_sdk\iothub_client\src/iothubtransport.c ****             IOTHUB_CLIENT_CORE_HANDLE* clientHandle = (IOTHUB_CLIENT_CORE_HANDLE*)VECTOR_element(tr
 159:Source\azure_iot_sdk\iothub_client\src/iothubtransport.c **** 
 160:Source\azure_iot_sdk\iothub_client\src/iothubtransport.c ****             if (clientHandle != NULL)
 161:Source\azure_iot_sdk\iothub_client\src/iothubtransport.c ****             {
 162:Source\azure_iot_sdk\iothub_client\src/iothubtransport.c ****                 transportData->clientDoWork(*clientHandle);
 163:Source\azure_iot_sdk\iothub_client\src/iothubtransport.c ****             }
 164:Source\azure_iot_sdk\iothub_client\src/iothubtransport.c ****         }
 165:Source\azure_iot_sdk\iothub_client\src/iothubtransport.c **** 
 166:Source\azure_iot_sdk\iothub_client\src/iothubtransport.c ****         if (Unlock(transportData->clientsLockHandle) != LOCK_OK)
 167:Source\azure_iot_sdk\iothub_client\src/iothubtransport.c ****         {
 168:Source\azure_iot_sdk\iothub_client\src/iothubtransport.c ****             LogError("failed to unlock on multiplexed_client_do_work");
 169:Source\azure_iot_sdk\iothub_client\src/iothubtransport.c ****         }
 170:Source\azure_iot_sdk\iothub_client\src/iothubtransport.c ****     }
 171:Source\azure_iot_sdk\iothub_client\src/iothubtransport.c **** }
 172:Source\azure_iot_sdk\iothub_client\src/iothubtransport.c **** 
 173:Source\azure_iot_sdk\iothub_client\src/iothubtransport.c **** static int transport_worker_thread(void* threadArgument)
 174:Source\azure_iot_sdk\iothub_client\src/iothubtransport.c **** {
 175:Source\azure_iot_sdk\iothub_client\src/iothubtransport.c ****     TRANSPORT_HANDLE_DATA* transportData = (TRANSPORT_HANDLE_DATA*)threadArgument;
 176:Source\azure_iot_sdk\iothub_client\src/iothubtransport.c **** 
 177:Source\azure_iot_sdk\iothub_client\src/iothubtransport.c ****     while (1)
 178:Source\azure_iot_sdk\iothub_client\src/iothubtransport.c ****     {
 179:Source\azure_iot_sdk\iothub_client\src/iothubtransport.c ****         /*Codes_SRS_IOTHUBTRANSPORT_17_030: [ All calls to lower layer transport DoWork shall be pr
 180:Source\azure_iot_sdk\iothub_client\src/iothubtransport.c ****         if (Lock(transportData->lockHandle) == LOCK_OK)
 181:Source\azure_iot_sdk\iothub_client\src/iothubtransport.c ****         {
 182:Source\azure_iot_sdk\iothub_client\src/iothubtransport.c ****             /*Codes_SRS_IOTHUBTRANSPORT_17_031: [ If acquiring the lock fails, lower layer transpor
 183:Source\azure_iot_sdk\iothub_client\src/iothubtransport.c ****             if (transportData->stopThread)
 184:Source\azure_iot_sdk\iothub_client\src/iothubtransport.c ****             {
 185:Source\azure_iot_sdk\iothub_client\src/iothubtransport.c ****                 /*Codes_SRS_IOTHUBTRANSPORT_17_028: [ The thread shall exit when IoTHubTransport_En
 186:Source\azure_iot_sdk\iothub_client\src/iothubtransport.c ****                 (void)Unlock(transportData->lockHandle);
 187:Source\azure_iot_sdk\iothub_client\src/iothubtransport.c ****                 break;
 188:Source\azure_iot_sdk\iothub_client\src/iothubtransport.c ****             }
 189:Source\azure_iot_sdk\iothub_client\src/iothubtransport.c ****             else
 190:Source\azure_iot_sdk\iothub_client\src/iothubtransport.c ****             {
 191:Source\azure_iot_sdk\iothub_client\src/iothubtransport.c ****                 (transportData->IoTHubTransport_DoWork)(transportData->transportLLHandle, NULL);
 192:Source\azure_iot_sdk\iothub_client\src/iothubtransport.c **** 
 193:Source\azure_iot_sdk\iothub_client\src/iothubtransport.c ****                 (void)Unlock(transportData->lockHandle);
 194:Source\azure_iot_sdk\iothub_client\src/iothubtransport.c ****             }
 195:Source\azure_iot_sdk\iothub_client\src/iothubtransport.c ****         }
 196:Source\azure_iot_sdk\iothub_client\src/iothubtransport.c **** 
 197:Source\azure_iot_sdk\iothub_client\src/iothubtransport.c ****         multiplexed_client_do_work(transportData);
 198:Source\azure_iot_sdk\iothub_client\src/iothubtransport.c **** 
 199:Source\azure_iot_sdk\iothub_client\src/iothubtransport.c ****         /*Codes_SRS_IOTHUBTRANSPORT_17_029: [ The thread shall call lower layer transport DoWork ev
 200:Source\azure_iot_sdk\iothub_client\src/iothubtransport.c ****         ThreadAPI_Sleep(1);
 201:Source\azure_iot_sdk\iothub_client\src/iothubtransport.c ****     }
 202:Source\azure_iot_sdk\iothub_client\src/iothubtransport.c **** 
ARM GAS  C:\Users\Phuong\AppData\Local\Temp\ccr8V995.s 			page 5


 203:Source\azure_iot_sdk\iothub_client\src/iothubtransport.c ****     ThreadAPI_Exit(0);
 204:Source\azure_iot_sdk\iothub_client\src/iothubtransport.c ****     return 0;
 205:Source\azure_iot_sdk\iothub_client\src/iothubtransport.c **** }
 206:Source\azure_iot_sdk\iothub_client\src/iothubtransport.c **** 
 207:Source\azure_iot_sdk\iothub_client\src/iothubtransport.c **** static bool find_by_handle(const void* element, const void* value)
 208:Source\azure_iot_sdk\iothub_client\src/iothubtransport.c **** {
  27              		.loc 1 208 0
  28              		.cfi_startproc
  29              		@ args = 0, pretend = 0, frame = 0
  30              		@ frame_needed = 0, uses_anonymous_args = 0
  31              		@ link register save eliminated.
  32              	.LVL0:
 209:Source\azure_iot_sdk\iothub_client\src/iothubtransport.c ****     /* data stored at element is device handle */
 210:Source\azure_iot_sdk\iothub_client\src/iothubtransport.c ****     const IOTHUB_CLIENT_CORE_HANDLE * guess = (const IOTHUB_CLIENT_CORE_HANDLE *)element;
 211:Source\azure_iot_sdk\iothub_client\src/iothubtransport.c ****     const IOTHUB_CLIENT_CORE_HANDLE match = (const IOTHUB_CLIENT_CORE_HANDLE)value;
 212:Source\azure_iot_sdk\iothub_client\src/iothubtransport.c ****     return (*guess == match);
  33              		.loc 1 212 0
  34 0000 0068     		ldr	r0, [r0]
  35              	.LVL1:
  36 0002 081A     		subs	r0, r1, r0
  37 0004 4142     		rsbs	r1, r0, #0
  38 0006 4841     		adcs	r0, r0, r1
  39              	.LVL2:
  40 0008 C0B2     		uxtb	r0, r0
 213:Source\azure_iot_sdk\iothub_client\src/iothubtransport.c **** }
  41              		.loc 1 213 0
  42              		@ sp needed
  43 000a 7047     		bx	lr
  44              		.cfi_endproc
  45              	.LFE4:
  46              		.size	find_by_handle, .-find_by_handle
  47              		.section	.text.stop_worker_thread,"ax",%progbits
  48              		.align	2
  49              		.code	16
  50              		.thumb_func
  51              		.type	stop_worker_thread, %function
  52              	stop_worker_thread:
  53              	.LFB6:
 214:Source\azure_iot_sdk\iothub_client\src/iothubtransport.c **** 
 215:Source\azure_iot_sdk\iothub_client\src/iothubtransport.c **** static IOTHUB_CLIENT_RESULT start_worker_if_needed(TRANSPORT_HANDLE_DATA * transportData, IOTHUB_CL
 216:Source\azure_iot_sdk\iothub_client\src/iothubtransport.c **** {
 217:Source\azure_iot_sdk\iothub_client\src/iothubtransport.c ****     IOTHUB_CLIENT_RESULT result;
 218:Source\azure_iot_sdk\iothub_client\src/iothubtransport.c ****     if (transportData->workerThreadHandle == NULL)
 219:Source\azure_iot_sdk\iothub_client\src/iothubtransport.c ****     {
 220:Source\azure_iot_sdk\iothub_client\src/iothubtransport.c ****         /*Codes_SRS_IOTHUBTRANSPORT_17_018: [ If the worker thread does not exist, IoTHubTransport_
 221:Source\azure_iot_sdk\iothub_client\src/iothubtransport.c ****         transportData->stopThread = 0;
 222:Source\azure_iot_sdk\iothub_client\src/iothubtransport.c ****         if (ThreadAPI_Create(&transportData->workerThreadHandle, transport_worker_thread, transport
 223:Source\azure_iot_sdk\iothub_client\src/iothubtransport.c ****         {
 224:Source\azure_iot_sdk\iothub_client\src/iothubtransport.c ****             transportData->workerThreadHandle = NULL;
 225:Source\azure_iot_sdk\iothub_client\src/iothubtransport.c ****         }
 226:Source\azure_iot_sdk\iothub_client\src/iothubtransport.c ****     }
 227:Source\azure_iot_sdk\iothub_client\src/iothubtransport.c ****     if (transportData->workerThreadHandle != NULL)
 228:Source\azure_iot_sdk\iothub_client\src/iothubtransport.c ****     {
 229:Source\azure_iot_sdk\iothub_client\src/iothubtransport.c ****         if (Lock(transportData->clientsLockHandle) != LOCK_OK)
 230:Source\azure_iot_sdk\iothub_client\src/iothubtransport.c ****         {
 231:Source\azure_iot_sdk\iothub_client\src/iothubtransport.c ****             LogError("failed to lock for start_worker_if_needed");
 232:Source\azure_iot_sdk\iothub_client\src/iothubtransport.c ****             result = IOTHUB_CLIENT_ERROR;
ARM GAS  C:\Users\Phuong\AppData\Local\Temp\ccr8V995.s 			page 6


 233:Source\azure_iot_sdk\iothub_client\src/iothubtransport.c ****         }
 234:Source\azure_iot_sdk\iothub_client\src/iothubtransport.c ****         else
 235:Source\azure_iot_sdk\iothub_client\src/iothubtransport.c ****         {
 236:Source\azure_iot_sdk\iothub_client\src/iothubtransport.c ****             /*Codes_SRS_IOTHUBTRANSPORT_17_020: [ IoTHubTransport_StartWorkerThread shall search fo
 237:Source\azure_iot_sdk\iothub_client\src/iothubtransport.c ****             bool addToList = ((VECTOR_size(transportData->clients) == 0) || (VECTOR_find_if(transpo
 238:Source\azure_iot_sdk\iothub_client\src/iothubtransport.c ****             if (addToList)
 239:Source\azure_iot_sdk\iothub_client\src/iothubtransport.c ****             {
 240:Source\azure_iot_sdk\iothub_client\src/iothubtransport.c ****                 /*Codes_SRS_IOTHUBTRANSPORT_17_021: [ If handle is not found, then clientHandle sha
 241:Source\azure_iot_sdk\iothub_client\src/iothubtransport.c ****                 if (VECTOR_push_back(transportData->clients, &clientHandle, 1) != 0)
 242:Source\azure_iot_sdk\iothub_client\src/iothubtransport.c ****                 {
 243:Source\azure_iot_sdk\iothub_client\src/iothubtransport.c ****                     LogError("Failed adding device to list (VECTOR_push_back failed)");
 244:Source\azure_iot_sdk\iothub_client\src/iothubtransport.c ****                     /*Codes_SRS_IOTHUBTRANSPORT_17_042: [ If Adding to the client list fails, IoTHu
 245:Source\azure_iot_sdk\iothub_client\src/iothubtransport.c ****                     result = IOTHUB_CLIENT_ERROR;
 246:Source\azure_iot_sdk\iothub_client\src/iothubtransport.c ****                 }
 247:Source\azure_iot_sdk\iothub_client\src/iothubtransport.c ****                 else
 248:Source\azure_iot_sdk\iothub_client\src/iothubtransport.c ****                 {
 249:Source\azure_iot_sdk\iothub_client\src/iothubtransport.c ****                     result = IOTHUB_CLIENT_OK;
 250:Source\azure_iot_sdk\iothub_client\src/iothubtransport.c ****                 }
 251:Source\azure_iot_sdk\iothub_client\src/iothubtransport.c ****             }
 252:Source\azure_iot_sdk\iothub_client\src/iothubtransport.c ****             else
 253:Source\azure_iot_sdk\iothub_client\src/iothubtransport.c ****             {
 254:Source\azure_iot_sdk\iothub_client\src/iothubtransport.c ****                 result = IOTHUB_CLIENT_OK;
 255:Source\azure_iot_sdk\iothub_client\src/iothubtransport.c ****             }
 256:Source\azure_iot_sdk\iothub_client\src/iothubtransport.c **** 
 257:Source\azure_iot_sdk\iothub_client\src/iothubtransport.c ****             if (Unlock(transportData->clientsLockHandle) != LOCK_OK)
 258:Source\azure_iot_sdk\iothub_client\src/iothubtransport.c ****             {
 259:Source\azure_iot_sdk\iothub_client\src/iothubtransport.c ****                 LogError("failed to unlock on start_worker_if_needed");
 260:Source\azure_iot_sdk\iothub_client\src/iothubtransport.c ****             }
 261:Source\azure_iot_sdk\iothub_client\src/iothubtransport.c ****         }
 262:Source\azure_iot_sdk\iothub_client\src/iothubtransport.c ****     }
 263:Source\azure_iot_sdk\iothub_client\src/iothubtransport.c ****     else
 264:Source\azure_iot_sdk\iothub_client\src/iothubtransport.c ****     {
 265:Source\azure_iot_sdk\iothub_client\src/iothubtransport.c ****         result = IOTHUB_CLIENT_ERROR;
 266:Source\azure_iot_sdk\iothub_client\src/iothubtransport.c ****     }
 267:Source\azure_iot_sdk\iothub_client\src/iothubtransport.c ****     return result;
 268:Source\azure_iot_sdk\iothub_client\src/iothubtransport.c **** }
 269:Source\azure_iot_sdk\iothub_client\src/iothubtransport.c **** 
 270:Source\azure_iot_sdk\iothub_client\src/iothubtransport.c **** static void stop_worker_thread(TRANSPORT_HANDLE_DATA * transportData)
 271:Source\azure_iot_sdk\iothub_client\src/iothubtransport.c **** {
  54              		.loc 1 271 0
  55              		.cfi_startproc
  56              		@ args = 0, pretend = 0, frame = 0
  57              		@ frame_needed = 0, uses_anonymous_args = 0
  58              		@ link register save eliminated.
  59              	.LVL3:
 272:Source\azure_iot_sdk\iothub_client\src/iothubtransport.c ****     /*Codes_SRS_IOTHUBTRANSPORT_17_043: [** IoTHubTransport_SignalEndWorkerThread shall signal the 
 273:Source\azure_iot_sdk\iothub_client\src/iothubtransport.c ****     transportData->stopThread = 1;
  60              		.loc 1 273 0
  61 0000 0123     		movs	r3, #1
  62 0002 C360     		str	r3, [r0, #12]
 274:Source\azure_iot_sdk\iothub_client\src/iothubtransport.c **** }
  63              		.loc 1 274 0
  64              		@ sp needed
  65 0004 7047     		bx	lr
  66              		.cfi_endproc
  67              	.LFE6:
  68              		.size	stop_worker_thread, .-stop_worker_thread
ARM GAS  C:\Users\Phuong\AppData\Local\Temp\ccr8V995.s 			page 7


  69 0006 C046     		.section	.text.wait_worker_thread,"ax",%progbits
  70              		.align	2
  71              		.code	16
  72              		.thumb_func
  73              		.type	wait_worker_thread, %function
  74              	wait_worker_thread:
  75              	.LFB7:
 275:Source\azure_iot_sdk\iothub_client\src/iothubtransport.c **** 
 276:Source\azure_iot_sdk\iothub_client\src/iothubtransport.c **** static void wait_worker_thread(TRANSPORT_HANDLE_DATA * transportData)
 277:Source\azure_iot_sdk\iothub_client\src/iothubtransport.c **** {
  76              		.loc 1 277 0
  77              		.cfi_startproc
  78              		@ args = 0, pretend = 0, frame = 8
  79              		@ frame_needed = 0, uses_anonymous_args = 0
  80              	.LVL4:
  81 0000 10B5     		push	{r4, lr}
  82              		.cfi_def_cfa_offset 8
  83              		.cfi_offset 4, -8
  84              		.cfi_offset 14, -4
  85 0002 84B0     		sub	sp, sp, #16
  86              		.cfi_def_cfa_offset 24
  87 0004 0400     		movs	r4, r0
 278:Source\azure_iot_sdk\iothub_client\src/iothubtransport.c ****     if (transportData->workerThreadHandle != NULL)
  88              		.loc 1 278 0
  89 0006 4068     		ldr	r0, [r0, #4]
  90              	.LVL5:
  91 0008 0028     		cmp	r0, #0
  92 000a 15D0     		beq	.L3
  93              	.LBB2:
 279:Source\azure_iot_sdk\iothub_client\src/iothubtransport.c ****     {
 280:Source\azure_iot_sdk\iothub_client\src/iothubtransport.c ****         int res;
 281:Source\azure_iot_sdk\iothub_client\src/iothubtransport.c ****         /*Codes_SRS_IOTHUBTRANSPORT_17_027: [ If handle list is empty, IoTHubTransport_EndWorkerThr
 282:Source\azure_iot_sdk\iothub_client\src/iothubtransport.c ****         if (ThreadAPI_Join(transportData->workerThreadHandle, &res) != THREADAPI_OK)
  94              		.loc 1 282 0
  95 000c 03A9     		add	r1, sp, #12
  96 000e FFF7FEFF 		bl	ThreadAPI_Join
  97              	.LVL6:
  98 0012 0028     		cmp	r0, #0
  99 0014 0ED0     		beq	.L5
 100              	.LBB3:
 283:Source\azure_iot_sdk\iothub_client\src/iothubtransport.c ****         {
 284:Source\azure_iot_sdk\iothub_client\src/iothubtransport.c ****             LogError("ThreadAPI_Join failed");
 101              		.loc 1 284 0 discriminator 3
 102 0016 FFF7FEFF 		bl	xlogging_get_log_function
 103              	.LVL7:
 104 001a 041E     		subs	r4, r0, #0
 105              	.LVL8:
 106 001c 0CD0     		beq	.L3
 107              		.loc 1 284 0 is_stmt 0 discriminator 4
 108 001e 074B     		ldr	r3, .L7
 109 0020 0193     		str	r3, [sp, #4]
 110 0022 0123     		movs	r3, #1
 111 0024 0093     		str	r3, [sp]
 112 0026 1C33     		adds	r3, r3, #28
 113 0028 FF33     		adds	r3, r3, #255
 114 002a 054A     		ldr	r2, .L7+4
 115 002c 0549     		ldr	r1, .L7+8
ARM GAS  C:\Users\Phuong\AppData\Local\Temp\ccr8V995.s 			page 8


 116 002e 0020     		movs	r0, #0
 117              	.LVL9:
 118 0030 A047     		blx	r4
 119              	.LVL10:
 120 0032 01E0     		b	.L3
 121              	.LVL11:
 122              	.L5:
 123              	.LBE3:
 285:Source\azure_iot_sdk\iothub_client\src/iothubtransport.c ****         }
 286:Source\azure_iot_sdk\iothub_client\src/iothubtransport.c ****         else
 287:Source\azure_iot_sdk\iothub_client\src/iothubtransport.c ****         {
 288:Source\azure_iot_sdk\iothub_client\src/iothubtransport.c ****             transportData->workerThreadHandle = NULL;
 124              		.loc 1 288 0 is_stmt 1
 125 0034 0023     		movs	r3, #0
 126 0036 6360     		str	r3, [r4, #4]
 127              	.LVL12:
 128              	.L3:
 129              	.LBE2:
 289:Source\azure_iot_sdk\iothub_client\src/iothubtransport.c ****         }
 290:Source\azure_iot_sdk\iothub_client\src/iothubtransport.c ****     }
 291:Source\azure_iot_sdk\iothub_client\src/iothubtransport.c **** }
 130              		.loc 1 291 0
 131 0038 04B0     		add	sp, sp, #16
 132              		@ sp needed
 133 003a 10BD     		pop	{r4, pc}
 134              	.L8:
 135              		.align	2
 136              	.L7:
 137 003c 3C000000 		.word	.LC3
 138 0040 00000000 		.word	.LANCHOR0
 139 0044 00000000 		.word	.LC1
 140              		.cfi_endproc
 141              	.LFE7:
 142              		.size	wait_worker_thread, .-wait_worker_thread
 143              		.section	.text.start_worker_if_needed,"ax",%progbits
 144              		.align	2
 145              		.code	16
 146              		.thumb_func
 147              		.type	start_worker_if_needed, %function
 148              	start_worker_if_needed:
 149              	.LFB5:
 216:Source\azure_iot_sdk\iothub_client\src/iothubtransport.c ****     IOTHUB_CLIENT_RESULT result;
 150              		.loc 1 216 0
 151              		.cfi_startproc
 152              		@ args = 0, pretend = 0, frame = 8
 153              		@ frame_needed = 0, uses_anonymous_args = 0
 154              	.LVL13:
 155 0000 30B5     		push	{r4, r5, lr}
 156              		.cfi_def_cfa_offset 12
 157              		.cfi_offset 4, -12
 158              		.cfi_offset 5, -8
 159              		.cfi_offset 14, -4
 160 0002 85B0     		sub	sp, sp, #20
 161              		.cfi_def_cfa_offset 32
 162 0004 0400     		movs	r4, r0
 163 0006 0391     		str	r1, [sp, #12]
 218:Source\azure_iot_sdk\iothub_client\src/iothubtransport.c ****     {
ARM GAS  C:\Users\Phuong\AppData\Local\Temp\ccr8V995.s 			page 9


 164              		.loc 1 218 0
 165 0008 4368     		ldr	r3, [r0, #4]
 166 000a 002B     		cmp	r3, #0
 167 000c 09D1     		bne	.L10
 221:Source\azure_iot_sdk\iothub_client\src/iothubtransport.c ****         if (ThreadAPI_Create(&transportData->workerThreadHandle, transport_worker_thread, transport
 168              		.loc 1 221 0
 169 000e C360     		str	r3, [r0, #12]
 222:Source\azure_iot_sdk\iothub_client\src/iothubtransport.c ****         {
 170              		.loc 1 222 0
 171 0010 0430     		adds	r0, r0, #4
 172              	.LVL14:
 173 0012 2200     		movs	r2, r4
 174 0014 3449     		ldr	r1, .L22
 175              	.LVL15:
 176 0016 FFF7FEFF 		bl	ThreadAPI_Create
 177              	.LVL16:
 178 001a 0028     		cmp	r0, #0
 179 001c 01D0     		beq	.L10
 224:Source\azure_iot_sdk\iothub_client\src/iothubtransport.c ****         }
 180              		.loc 1 224 0
 181 001e 0023     		movs	r3, #0
 182 0020 6360     		str	r3, [r4, #4]
 183              	.L10:
 227:Source\azure_iot_sdk\iothub_client\src/iothubtransport.c ****     {
 184              		.loc 1 227 0
 185 0022 6368     		ldr	r3, [r4, #4]
 186 0024 002B     		cmp	r3, #0
 187 0026 58D0     		beq	.L15
 229:Source\azure_iot_sdk\iothub_client\src/iothubtransport.c ****         {
 188              		.loc 1 229 0
 189 0028 606E     		ldr	r0, [r4, #100]
 190 002a FFF7FEFF 		bl	Lock
 191              	.LVL17:
 192 002e 0028     		cmp	r0, #0
 193 0030 0FD0     		beq	.L12
 194              	.LBB4:
 231:Source\azure_iot_sdk\iothub_client\src/iothubtransport.c ****             result = IOTHUB_CLIENT_ERROR;
 195              		.loc 1 231 0 discriminator 3
 196 0032 FFF7FEFF 		bl	xlogging_get_log_function
 197              	.LVL18:
 198 0036 041E     		subs	r4, r0, #0
 199              	.LVL19:
 200 0038 51D0     		beq	.L16
 231:Source\azure_iot_sdk\iothub_client\src/iothubtransport.c ****             result = IOTHUB_CLIENT_ERROR;
 201              		.loc 1 231 0 is_stmt 0 discriminator 4
 202 003a 2C4B     		ldr	r3, .L22+4
 203 003c 0193     		str	r3, [sp, #4]
 204 003e 0123     		movs	r3, #1
 205 0040 0093     		str	r3, [sp]
 206 0042 E633     		adds	r3, r3, #230
 207 0044 2A4A     		ldr	r2, .L22+8
 208 0046 1432     		adds	r2, r2, #20
 209 0048 2A49     		ldr	r1, .L22+12
 210 004a 0020     		movs	r0, #0
 211              	.LVL20:
 212 004c A047     		blx	r4
 213              	.LVL21:
ARM GAS  C:\Users\Phuong\AppData\Local\Temp\ccr8V995.s 			page 10


 214              	.LBE4:
 232:Source\azure_iot_sdk\iothub_client\src/iothubtransport.c ****         }
 215              		.loc 1 232 0 is_stmt 1 discriminator 4
 216 004e 0225     		movs	r5, #2
 217 0050 46E0     		b	.L11
 218              	.LVL22:
 219              	.L12:
 220              	.LBB5:
 237:Source\azure_iot_sdk\iothub_client\src/iothubtransport.c ****             if (addToList)
 221              		.loc 1 237 0
 222 0052 206E     		ldr	r0, [r4, #96]
 223 0054 FFF7FEFF 		bl	VECTOR_size
 224              	.LVL23:
 225 0058 0028     		cmp	r0, #0
 226 005a 08D0     		beq	.L17
 237:Source\azure_iot_sdk\iothub_client\src/iothubtransport.c ****             if (addToList)
 227              		.loc 1 237 0 is_stmt 0 discriminator 2
 228 005c 039A     		ldr	r2, [sp, #12]
 229 005e 2649     		ldr	r1, .L22+16
 230 0060 206E     		ldr	r0, [r4, #96]
 231 0062 FFF7FEFF 		bl	VECTOR_find_if
 232              	.LVL24:
 233 0066 0028     		cmp	r0, #0
 234 0068 03D0     		beq	.L18
 237:Source\azure_iot_sdk\iothub_client\src/iothubtransport.c ****             if (addToList)
 235              		.loc 1 237 0
 236 006a 0023     		movs	r3, #0
 237 006c 02E0     		b	.L13
 238              	.L17:
 239 006e 0123     		movs	r3, #1
 240 0070 00E0     		b	.L13
 241              	.L18:
 242 0072 0123     		movs	r3, #1
 243              	.L13:
 244              	.LVL25:
 238:Source\azure_iot_sdk\iothub_client\src/iothubtransport.c ****             {
 245              		.loc 1 238 0 is_stmt 1 discriminator 6
 246 0074 002B     		cmp	r3, #0
 247 0076 16D0     		beq	.L19
 241:Source\azure_iot_sdk\iothub_client\src/iothubtransport.c ****                 {
 248              		.loc 1 241 0
 249 0078 0122     		movs	r2, #1
 250 007a 03A9     		add	r1, sp, #12
 251              	.LVL26:
 252 007c 206E     		ldr	r0, [r4, #96]
 253 007e FFF7FEFF 		bl	VECTOR_push_back
 254              	.LVL27:
 255 0082 0028     		cmp	r0, #0
 256 0084 11D0     		beq	.L20
 257              	.LBB6:
 243:Source\azure_iot_sdk\iothub_client\src/iothubtransport.c ****                     /*Codes_SRS_IOTHUBTRANSPORT_17_042: [ If Adding to the client list fails, IoTHu
 258              		.loc 1 243 0 discriminator 3
 259 0086 FFF7FEFF 		bl	xlogging_get_log_function
 260              	.LVL28:
 261 008a 051E     		subs	r5, r0, #0
 262              	.LVL29:
 263 008c 0FD0     		beq	.L21
ARM GAS  C:\Users\Phuong\AppData\Local\Temp\ccr8V995.s 			page 11


 243:Source\azure_iot_sdk\iothub_client\src/iothubtransport.c ****                     /*Codes_SRS_IOTHUBTRANSPORT_17_042: [ If Adding to the client list fails, IoTHu
 264              		.loc 1 243 0 is_stmt 0 discriminator 4
 265 008e 1B4B     		ldr	r3, .L22+20
 266 0090 0193     		str	r3, [sp, #4]
 267 0092 0123     		movs	r3, #1
 268 0094 0093     		str	r3, [sp]
 269 0096 F233     		adds	r3, r3, #242
 270 0098 154A     		ldr	r2, .L22+8
 271 009a 1432     		adds	r2, r2, #20
 272 009c 1549     		ldr	r1, .L22+12
 273 009e 0020     		movs	r0, #0
 274              	.LVL30:
 275 00a0 A847     		blx	r5
 276              	.LVL31:
 277              	.LBE6:
 245:Source\azure_iot_sdk\iothub_client\src/iothubtransport.c ****                 }
 278              		.loc 1 245 0 is_stmt 1 discriminator 4
 279 00a2 0225     		movs	r5, #2
 280              	.LVL32:
 281 00a4 04E0     		b	.L14
 282              	.LVL33:
 283              	.L19:
 254:Source\azure_iot_sdk\iothub_client\src/iothubtransport.c ****             }
 284              		.loc 1 254 0
 285 00a6 0025     		movs	r5, #0
 286 00a8 02E0     		b	.L14
 287              	.LVL34:
 288              	.L20:
 249:Source\azure_iot_sdk\iothub_client\src/iothubtransport.c ****                 }
 289              		.loc 1 249 0
 290 00aa 0025     		movs	r5, #0
 291 00ac 00E0     		b	.L14
 292              	.LVL35:
 293              	.L21:
 245:Source\azure_iot_sdk\iothub_client\src/iothubtransport.c ****                 }
 294              		.loc 1 245 0
 295 00ae 0225     		movs	r5, #2
 296              	.LVL36:
 297              	.L14:
 257:Source\azure_iot_sdk\iothub_client\src/iothubtransport.c ****             {
 298              		.loc 1 257 0
 299 00b0 606E     		ldr	r0, [r4, #100]
 300 00b2 FFF7FEFF 		bl	Unlock
 301              	.LVL37:
 302 00b6 0028     		cmp	r0, #0
 303 00b8 12D0     		beq	.L11
 304              	.LBB7:
 259:Source\azure_iot_sdk\iothub_client\src/iothubtransport.c ****             }
 305              		.loc 1 259 0 discriminator 3
 306 00ba FFF7FEFF 		bl	xlogging_get_log_function
 307              	.LVL38:
 308 00be 041E     		subs	r4, r0, #0
 309              	.LVL39:
 310 00c0 0ED0     		beq	.L11
 259:Source\azure_iot_sdk\iothub_client\src/iothubtransport.c ****             }
 311              		.loc 1 259 0 is_stmt 0 discriminator 4
 312 00c2 0F4B     		ldr	r3, .L22+24
ARM GAS  C:\Users\Phuong\AppData\Local\Temp\ccr8V995.s 			page 12


 313 00c4 0193     		str	r3, [sp, #4]
 314 00c6 0123     		movs	r3, #1
 315 00c8 0093     		str	r3, [sp]
 316 00ca 0423     		movs	r3, #4
 317 00cc FF33     		adds	r3, r3, #255
 318 00ce 084A     		ldr	r2, .L22+8
 319 00d0 1432     		adds	r2, r2, #20
 320 00d2 0849     		ldr	r1, .L22+12
 321 00d4 0020     		movs	r0, #0
 322              	.LVL40:
 323 00d6 A047     		blx	r4
 324              	.LVL41:
 325 00d8 02E0     		b	.L11
 326              	.LVL42:
 327              	.L15:
 328              	.LBE7:
 329              	.LBE5:
 265:Source\azure_iot_sdk\iothub_client\src/iothubtransport.c ****     }
 330              		.loc 1 265 0 is_stmt 1
 331 00da 0225     		movs	r5, #2
 332 00dc 00E0     		b	.L11
 333              	.LVL43:
 334              	.L16:
 232:Source\azure_iot_sdk\iothub_client\src/iothubtransport.c ****         }
 335              		.loc 1 232 0
 336 00de 0225     		movs	r5, #2
 337              	.LVL44:
 338              	.L11:
 268:Source\azure_iot_sdk\iothub_client\src/iothubtransport.c **** 
 339              		.loc 1 268 0
 340 00e0 2800     		movs	r0, r5
 341 00e2 05B0     		add	sp, sp, #20
 342              		@ sp needed
 343              	.LVL45:
 344 00e4 30BD     		pop	{r4, r5, pc}
 345              	.L23:
 346 00e6 C046     		.align	2
 347              	.L22:
 348 00e8 00000000 		.word	transport_worker_thread
 349 00ec 54000000 		.word	.LC8
 350 00f0 00000000 		.word	.LANCHOR0
 351 00f4 00000000 		.word	.LC1
 352 00f8 00000000 		.word	find_by_handle
 353 00fc 80000000 		.word	.LC11
 354 0100 B8000000 		.word	.LC13
 355              		.cfi_endproc
 356              	.LFE5:
 357              		.size	start_worker_if_needed, .-start_worker_if_needed
 358              		.section	.text.multiplexed_client_do_work,"ax",%progbits
 359              		.align	2
 360              		.code	16
 361              		.thumb_func
 362              		.type	multiplexed_client_do_work, %function
 363              	multiplexed_client_do_work:
 364              	.LFB2:
 145:Source\azure_iot_sdk\iothub_client\src/iothubtransport.c ****     if (Lock(transportData->clientsLockHandle) != LOCK_OK)
 365              		.loc 1 145 0
ARM GAS  C:\Users\Phuong\AppData\Local\Temp\ccr8V995.s 			page 13


 366              		.cfi_startproc
 367              		@ args = 0, pretend = 0, frame = 0
 368              		@ frame_needed = 0, uses_anonymous_args = 0
 369              	.LVL46:
 370 0000 70B5     		push	{r4, r5, r6, lr}
 371              		.cfi_def_cfa_offset 16
 372              		.cfi_offset 4, -16
 373              		.cfi_offset 5, -12
 374              		.cfi_offset 6, -8
 375              		.cfi_offset 14, -4
 376 0002 82B0     		sub	sp, sp, #8
 377              		.cfi_def_cfa_offset 24
 378 0004 0500     		movs	r5, r0
 146:Source\azure_iot_sdk\iothub_client\src/iothubtransport.c ****     {
 379              		.loc 1 146 0
 380 0006 406E     		ldr	r0, [r0, #100]
 381              	.LVL47:
 382 0008 FFF7FEFF 		bl	Lock
 383              	.LVL48:
 384 000c 0028     		cmp	r0, #0
 385 000e 0ED0     		beq	.L25
 386              	.LBB8:
 148:Source\azure_iot_sdk\iothub_client\src/iothubtransport.c ****     }
 387              		.loc 1 148 0 discriminator 3
 388 0010 FFF7FEFF 		bl	xlogging_get_log_function
 389              	.LVL49:
 390 0014 041E     		subs	r4, r0, #0
 391              	.LVL50:
 392 0016 2FD0     		beq	.L24
 148:Source\azure_iot_sdk\iothub_client\src/iothubtransport.c ****     }
 393              		.loc 1 148 0 is_stmt 0 discriminator 4
 394 0018 184B     		ldr	r3, .L30
 395 001a 0193     		str	r3, [sp, #4]
 396 001c 0123     		movs	r3, #1
 397 001e 0093     		str	r3, [sp]
 398 0020 9333     		adds	r3, r3, #147
 399 0022 174A     		ldr	r2, .L30+4
 400 0024 2C32     		adds	r2, r2, #44
 401 0026 1749     		ldr	r1, .L30+8
 402 0028 0020     		movs	r0, #0
 403              	.LVL51:
 404 002a A047     		blx	r4
 405              	.LVL52:
 406 002c 24E0     		b	.L24
 407              	.LVL53:
 408              	.L25:
 409              	.LBE8:
 410              	.LBB9:
 155:Source\azure_iot_sdk\iothub_client\src/iothubtransport.c ****         for (iterator = 0; iterator < numberOfClients; iterator++)
 411              		.loc 1 155 0 is_stmt 1
 412 002e 286E     		ldr	r0, [r5, #96]
 413 0030 FFF7FEFF 		bl	VECTOR_size
 414              	.LVL54:
 415 0034 0600     		movs	r6, r0
 416              	.LVL55:
 156:Source\azure_iot_sdk\iothub_client\src/iothubtransport.c ****         {
 417              		.loc 1 156 0
ARM GAS  C:\Users\Phuong\AppData\Local\Temp\ccr8V995.s 			page 14


 418 0036 0024     		movs	r4, #0
 419 0038 09E0     		b	.L27
 420              	.LVL56:
 421              	.L29:
 422              	.LBB10:
 158:Source\azure_iot_sdk\iothub_client\src/iothubtransport.c **** 
 423              		.loc 1 158 0
 424 003a 2100     		movs	r1, r4
 425 003c 286E     		ldr	r0, [r5, #96]
 426 003e FFF7FEFF 		bl	VECTOR_element
 427              	.LVL57:
 160:Source\azure_iot_sdk\iothub_client\src/iothubtransport.c ****             {
 428              		.loc 1 160 0
 429 0042 0028     		cmp	r0, #0
 430 0044 02D0     		beq	.L28
 162:Source\azure_iot_sdk\iothub_client\src/iothubtransport.c ****             }
 431              		.loc 1 162 0
 432 0046 0068     		ldr	r0, [r0]
 433              	.LVL58:
 434 0048 AB6E     		ldr	r3, [r5, #104]
 435 004a 9847     		blx	r3
 436              	.LVL59:
 437              	.L28:
 438              	.LBE10:
 156:Source\azure_iot_sdk\iothub_client\src/iothubtransport.c ****         {
 439              		.loc 1 156 0 discriminator 2
 440 004c 0134     		adds	r4, r4, #1
 441              	.LVL60:
 442              	.L27:
 156:Source\azure_iot_sdk\iothub_client\src/iothubtransport.c ****         {
 443              		.loc 1 156 0 is_stmt 0 discriminator 1
 444 004e B442     		cmp	r4, r6
 445 0050 F3D3     		bcc	.L29
 166:Source\azure_iot_sdk\iothub_client\src/iothubtransport.c ****         {
 446              		.loc 1 166 0 is_stmt 1
 447 0052 686E     		ldr	r0, [r5, #100]
 448 0054 FFF7FEFF 		bl	Unlock
 449              	.LVL61:
 450 0058 0028     		cmp	r0, #0
 451 005a 0DD0     		beq	.L24
 452              	.LBB11:
 168:Source\azure_iot_sdk\iothub_client\src/iothubtransport.c ****         }
 453              		.loc 1 168 0 discriminator 3
 454 005c FFF7FEFF 		bl	xlogging_get_log_function
 455              	.LVL62:
 456 0060 041E     		subs	r4, r0, #0
 457              	.LVL63:
 458 0062 09D0     		beq	.L24
 168:Source\azure_iot_sdk\iothub_client\src/iothubtransport.c ****         }
 459              		.loc 1 168 0 is_stmt 0 discriminator 4
 460 0064 084B     		ldr	r3, .L30+12
 461 0066 0193     		str	r3, [sp, #4]
 462 0068 0123     		movs	r3, #1
 463 006a 0093     		str	r3, [sp]
 464 006c A733     		adds	r3, r3, #167
 465 006e 044A     		ldr	r2, .L30+4
 466 0070 2C32     		adds	r2, r2, #44
ARM GAS  C:\Users\Phuong\AppData\Local\Temp\ccr8V995.s 			page 15


 467 0072 0449     		ldr	r1, .L30+8
 468 0074 0020     		movs	r0, #0
 469              	.LVL64:
 470 0076 A047     		blx	r4
 471              	.LVL65:
 472              	.L24:
 473              	.LBE11:
 474              	.LBE9:
 171:Source\azure_iot_sdk\iothub_client\src/iothubtransport.c **** 
 475              		.loc 1 171 0 is_stmt 1
 476 0078 02B0     		add	sp, sp, #8
 477              		@ sp needed
 478              	.LVL66:
 479 007a 70BD     		pop	{r4, r5, r6, pc}
 480              	.L31:
 481              		.align	2
 482              	.L30:
 483 007c E4000000 		.word	.LC17
 484 0080 00000000 		.word	.LANCHOR0
 485 0084 00000000 		.word	.LC1
 486 0088 14010000 		.word	.LC19
 487              		.cfi_endproc
 488              	.LFE2:
 489              		.size	multiplexed_client_do_work, .-multiplexed_client_do_work
 490              		.section	.text.transport_worker_thread,"ax",%progbits
 491              		.align	2
 492              		.code	16
 493              		.thumb_func
 494              		.type	transport_worker_thread, %function
 495              	transport_worker_thread:
 496              	.LFB3:
 174:Source\azure_iot_sdk\iothub_client\src/iothubtransport.c ****     TRANSPORT_HANDLE_DATA* transportData = (TRANSPORT_HANDLE_DATA*)threadArgument;
 497              		.loc 1 174 0
 498              		.cfi_startproc
 499              		@ args = 0, pretend = 0, frame = 0
 500              		@ frame_needed = 0, uses_anonymous_args = 0
 501              	.LVL67:
 502 0000 10B5     		push	{r4, lr}
 503              		.cfi_def_cfa_offset 8
 504              		.cfi_offset 4, -8
 505              		.cfi_offset 14, -4
 506 0002 0400     		movs	r4, r0
 507              	.LVL68:
 508              	.L35:
 180:Source\azure_iot_sdk\iothub_client\src/iothubtransport.c ****         {
 509              		.loc 1 180 0
 510 0004 A068     		ldr	r0, [r4, #8]
 511 0006 FFF7FEFF 		bl	Lock
 512              	.LVL69:
 513 000a 0028     		cmp	r0, #0
 514 000c 09D1     		bne	.L33
 183:Source\azure_iot_sdk\iothub_client\src/iothubtransport.c ****             {
 515              		.loc 1 183 0
 516 000e E368     		ldr	r3, [r4, #12]
 517 0010 002B     		cmp	r3, #0
 518 0012 0DD1     		bne	.L37
 191:Source\azure_iot_sdk\iothub_client\src/iothubtransport.c **** 
ARM GAS  C:\Users\Phuong\AppData\Local\Temp\ccr8V995.s 			page 16


 519              		.loc 1 191 0
 520 0014 0021     		movs	r1, #0
 521 0016 2068     		ldr	r0, [r4]
 522 0018 E36C     		ldr	r3, [r4, #76]
 523 001a 9847     		blx	r3
 524              	.LVL70:
 193:Source\azure_iot_sdk\iothub_client\src/iothubtransport.c ****             }
 525              		.loc 1 193 0
 526 001c A068     		ldr	r0, [r4, #8]
 527 001e FFF7FEFF 		bl	Unlock
 528              	.LVL71:
 529              	.L33:
 197:Source\azure_iot_sdk\iothub_client\src/iothubtransport.c **** 
 530              		.loc 1 197 0
 531 0022 2000     		movs	r0, r4
 532 0024 FFF7FEFF 		bl	multiplexed_client_do_work
 533              	.LVL72:
 200:Source\azure_iot_sdk\iothub_client\src/iothubtransport.c ****     }
 534              		.loc 1 200 0
 535 0028 0120     		movs	r0, #1
 536 002a FFF7FEFF 		bl	ThreadAPI_Sleep
 537              	.LVL73:
 201:Source\azure_iot_sdk\iothub_client\src/iothubtransport.c **** 
 538              		.loc 1 201 0
 539 002e E9E7     		b	.L35
 540              	.L37:
 186:Source\azure_iot_sdk\iothub_client\src/iothubtransport.c ****                 break;
 541              		.loc 1 186 0
 542 0030 A068     		ldr	r0, [r4, #8]
 543 0032 FFF7FEFF 		bl	Unlock
 544              	.LVL74:
 203:Source\azure_iot_sdk\iothub_client\src/iothubtransport.c ****     return 0;
 545              		.loc 1 203 0
 546 0036 0020     		movs	r0, #0
 547 0038 FFF7FEFF 		bl	ThreadAPI_Exit
 548              	.LVL75:
 205:Source\azure_iot_sdk\iothub_client\src/iothubtransport.c **** 
 549              		.loc 1 205 0
 550 003c 0020     		movs	r0, #0
 551              		@ sp needed
 552              	.LVL76:
 553 003e 10BD     		pop	{r4, pc}
 554              		.cfi_endproc
 555              	.LFE3:
 556              		.size	transport_worker_thread, .-transport_worker_thread
 557              		.section	.text.signal_end_worker_thread,"ax",%progbits
 558              		.align	2
 559              		.code	16
 560              		.thumb_func
 561              		.type	signal_end_worker_thread, %function
 562              	signal_end_worker_thread:
 563              	.LFB8:
 292:Source\azure_iot_sdk\iothub_client\src/iothubtransport.c **** 
 293:Source\azure_iot_sdk\iothub_client\src/iothubtransport.c **** static bool signal_end_worker_thread(TRANSPORT_HANDLE_DATA * transportData, IOTHUB_CLIENT_CORE_HAND
 294:Source\azure_iot_sdk\iothub_client\src/iothubtransport.c **** {
 564              		.loc 1 294 0
 565              		.cfi_startproc
ARM GAS  C:\Users\Phuong\AppData\Local\Temp\ccr8V995.s 			page 17


 566              		@ args = 0, pretend = 0, frame = 0
 567              		@ frame_needed = 0, uses_anonymous_args = 0
 568              	.LVL77:
 569 0000 30B5     		push	{r4, r5, lr}
 570              		.cfi_def_cfa_offset 12
 571              		.cfi_offset 4, -12
 572              		.cfi_offset 5, -8
 573              		.cfi_offset 14, -4
 574 0002 83B0     		sub	sp, sp, #12
 575              		.cfi_def_cfa_offset 24
 576 0004 0400     		movs	r4, r0
 577 0006 0D00     		movs	r5, r1
 295:Source\azure_iot_sdk\iothub_client\src/iothubtransport.c ****     bool okToJoin;
 296:Source\azure_iot_sdk\iothub_client\src/iothubtransport.c **** 
 297:Source\azure_iot_sdk\iothub_client\src/iothubtransport.c ****     if (Lock(transportData->clientsLockHandle) != LOCK_OK)
 578              		.loc 1 297 0
 579 0008 406E     		ldr	r0, [r0, #100]
 580              	.LVL78:
 581 000a FFF7FEFF 		bl	Lock
 582              	.LVL79:
 583 000e 0028     		cmp	r0, #0
 584 0010 10D0     		beq	.L39
 585              	.LBB12:
 298:Source\azure_iot_sdk\iothub_client\src/iothubtransport.c ****     {
 299:Source\azure_iot_sdk\iothub_client\src/iothubtransport.c ****         LogError("failed to lock for signal_end_worker_thread");
 586              		.loc 1 299 0 discriminator 3
 587 0012 FFF7FEFF 		bl	xlogging_get_log_function
 588              	.LVL80:
 589 0016 041E     		subs	r4, r0, #0
 590              	.LVL81:
 591 0018 3DD0     		beq	.L43
 592              		.loc 1 299 0 is_stmt 0 discriminator 4
 593 001a 214B     		ldr	r3, .L46
 594 001c 0193     		str	r3, [sp, #4]
 595 001e 0123     		movs	r3, #1
 596 0020 0093     		str	r3, [sp]
 597 0022 2C23     		movs	r3, #44
 598 0024 FF33     		adds	r3, r3, #255
 599 0026 1F4A     		ldr	r2, .L46+4
 600 0028 4832     		adds	r2, r2, #72
 601 002a 1F49     		ldr	r1, .L46+8
 602 002c 0020     		movs	r0, #0
 603              	.LVL82:
 604 002e A047     		blx	r4
 605              	.LVL83:
 606              	.LBE12:
 300:Source\azure_iot_sdk\iothub_client\src/iothubtransport.c ****         okToJoin = false;
 607              		.loc 1 300 0 is_stmt 1 discriminator 4
 608 0030 0025     		movs	r5, #0
 609              	.LVL84:
 610 0032 31E0     		b	.L40
 611              	.LVL85:
 612              	.L39:
 613              	.LBB13:
 301:Source\azure_iot_sdk\iothub_client\src/iothubtransport.c ****     }
 302:Source\azure_iot_sdk\iothub_client\src/iothubtransport.c ****     else
 303:Source\azure_iot_sdk\iothub_client\src/iothubtransport.c ****     {
ARM GAS  C:\Users\Phuong\AppData\Local\Temp\ccr8V995.s 			page 18


 304:Source\azure_iot_sdk\iothub_client\src/iothubtransport.c ****         void* element = VECTOR_find_if(transportData->clients, find_by_handle, clientHandle);
 614              		.loc 1 304 0
 615 0034 2A00     		movs	r2, r5
 616 0036 1D49     		ldr	r1, .L46+12
 617 0038 206E     		ldr	r0, [r4, #96]
 618 003a FFF7FEFF 		bl	VECTOR_find_if
 619              	.LVL86:
 305:Source\azure_iot_sdk\iothub_client\src/iothubtransport.c ****         if (element != NULL)
 620              		.loc 1 305 0
 621 003e 0028     		cmp	r0, #0
 622 0040 04D0     		beq	.L41
 306:Source\azure_iot_sdk\iothub_client\src/iothubtransport.c ****         {
 307:Source\azure_iot_sdk\iothub_client\src/iothubtransport.c ****             /*Codes_SRS_IOTHUBTRANSPORT_17_026: [ IoTHubTransport_EndWorkerThread shall remove clie
 308:Source\azure_iot_sdk\iothub_client\src/iothubtransport.c ****             VECTOR_erase(transportData->clients, element, 1);
 623              		.loc 1 308 0
 624 0042 0122     		movs	r2, #1
 625 0044 0100     		movs	r1, r0
 626 0046 206E     		ldr	r0, [r4, #96]
 627              	.LVL87:
 628 0048 FFF7FEFF 		bl	VECTOR_erase
 629              	.LVL88:
 630              	.L41:
 309:Source\azure_iot_sdk\iothub_client\src/iothubtransport.c ****         }
 310:Source\azure_iot_sdk\iothub_client\src/iothubtransport.c ****         /*Codes_SRS_IOTHUBTRANSPORT_17_025: [ If the worker thread does not exist, then IoTHubTrans
 311:Source\azure_iot_sdk\iothub_client\src/iothubtransport.c ****         if (transportData->workerThreadHandle != NULL)
 631              		.loc 1 311 0
 632 004c 6368     		ldr	r3, [r4, #4]
 633 004e 002B     		cmp	r3, #0
 634 0050 09D0     		beq	.L44
 312:Source\azure_iot_sdk\iothub_client\src/iothubtransport.c ****         {
 313:Source\azure_iot_sdk\iothub_client\src/iothubtransport.c ****             if (VECTOR_size(transportData->clients) == 0)
 635              		.loc 1 313 0
 636 0052 206E     		ldr	r0, [r4, #96]
 637 0054 FFF7FEFF 		bl	VECTOR_size
 638              	.LVL89:
 639 0058 0028     		cmp	r0, #0
 640 005a 06D1     		bne	.L45
 314:Source\azure_iot_sdk\iothub_client\src/iothubtransport.c ****             {
 315:Source\azure_iot_sdk\iothub_client\src/iothubtransport.c ****                 stop_worker_thread(transportData);
 641              		.loc 1 315 0
 642 005c 2000     		movs	r0, r4
 643 005e FFF7FEFF 		bl	stop_worker_thread
 644              	.LVL90:
 316:Source\azure_iot_sdk\iothub_client\src/iothubtransport.c ****                 okToJoin = true;
 645              		.loc 1 316 0
 646 0062 0125     		movs	r5, #1
 647              	.LVL91:
 648 0064 02E0     		b	.L42
 649              	.LVL92:
 650              	.L44:
 317:Source\azure_iot_sdk\iothub_client\src/iothubtransport.c ****             }
 318:Source\azure_iot_sdk\iothub_client\src/iothubtransport.c ****             else
 319:Source\azure_iot_sdk\iothub_client\src/iothubtransport.c ****             {
 320:Source\azure_iot_sdk\iothub_client\src/iothubtransport.c ****                 okToJoin = false;
 321:Source\azure_iot_sdk\iothub_client\src/iothubtransport.c ****             }
 322:Source\azure_iot_sdk\iothub_client\src/iothubtransport.c ****         }
 323:Source\azure_iot_sdk\iothub_client\src/iothubtransport.c ****         else
ARM GAS  C:\Users\Phuong\AppData\Local\Temp\ccr8V995.s 			page 19


 324:Source\azure_iot_sdk\iothub_client\src/iothubtransport.c ****         {
 325:Source\azure_iot_sdk\iothub_client\src/iothubtransport.c ****             okToJoin = false;
 651              		.loc 1 325 0
 652 0066 0025     		movs	r5, #0
 653              	.LVL93:
 654 0068 00E0     		b	.L42
 655              	.LVL94:
 656              	.L45:
 320:Source\azure_iot_sdk\iothub_client\src/iothubtransport.c ****             }
 657              		.loc 1 320 0
 658 006a 0025     		movs	r5, #0
 659              	.LVL95:
 660              	.L42:
 326:Source\azure_iot_sdk\iothub_client\src/iothubtransport.c ****         }
 327:Source\azure_iot_sdk\iothub_client\src/iothubtransport.c **** 
 328:Source\azure_iot_sdk\iothub_client\src/iothubtransport.c ****         if (Unlock(transportData->clientsLockHandle) != LOCK_OK)
 661              		.loc 1 328 0
 662 006c 606E     		ldr	r0, [r4, #100]
 663 006e FFF7FEFF 		bl	Unlock
 664              	.LVL96:
 665 0072 0028     		cmp	r0, #0
 666 0074 10D0     		beq	.L40
 667              	.LBB14:
 329:Source\azure_iot_sdk\iothub_client\src/iothubtransport.c ****         {
 330:Source\azure_iot_sdk\iothub_client\src/iothubtransport.c ****             LogError("failed to unlock on signal_end_worker_thread");
 668              		.loc 1 330 0 discriminator 3
 669 0076 FFF7FEFF 		bl	xlogging_get_log_function
 670              	.LVL97:
 671 007a 041E     		subs	r4, r0, #0
 672              	.LVL98:
 673 007c 0CD0     		beq	.L40
 674              		.loc 1 330 0 is_stmt 0 discriminator 4
 675 007e 0C4B     		ldr	r3, .L46+16
 676 0080 0193     		str	r3, [sp, #4]
 677 0082 0123     		movs	r3, #1
 678 0084 0093     		str	r3, [sp]
 679 0086 4A33     		adds	r3, r3, #74
 680 0088 FF33     		adds	r3, r3, #255
 681 008a 064A     		ldr	r2, .L46+4
 682 008c 4832     		adds	r2, r2, #72
 683 008e 0649     		ldr	r1, .L46+8
 684 0090 0020     		movs	r0, #0
 685              	.LVL99:
 686 0092 A047     		blx	r4
 687              	.LVL100:
 688 0094 00E0     		b	.L40
 689              	.LVL101:
 690              	.L43:
 691              	.LBE14:
 692              	.LBE13:
 300:Source\azure_iot_sdk\iothub_client\src/iothubtransport.c ****     }
 693              		.loc 1 300 0 is_stmt 1
 694 0096 0025     		movs	r5, #0
 695              	.LVL102:
 696              	.L40:
 331:Source\azure_iot_sdk\iothub_client\src/iothubtransport.c ****         }
 332:Source\azure_iot_sdk\iothub_client\src/iothubtransport.c ****     }
ARM GAS  C:\Users\Phuong\AppData\Local\Temp\ccr8V995.s 			page 20


 333:Source\azure_iot_sdk\iothub_client\src/iothubtransport.c ****     return okToJoin;
 334:Source\azure_iot_sdk\iothub_client\src/iothubtransport.c **** }
 697              		.loc 1 334 0
 698 0098 2800     		movs	r0, r5
 699 009a 03B0     		add	sp, sp, #12
 700              		@ sp needed
 701              	.LVL103:
 702 009c 30BD     		pop	{r4, r5, pc}
 703              	.L47:
 704 009e C046     		.align	2
 705              	.L46:
 706 00a0 44010000 		.word	.LC23
 707 00a4 00000000 		.word	.LANCHOR0
 708 00a8 00000000 		.word	.LC1
 709 00ac 00000000 		.word	find_by_handle
 710 00b0 70010000 		.word	.LC26
 711              		.cfi_endproc
 712              	.LFE8:
 713              		.size	signal_end_worker_thread, .-signal_end_worker_thread
 714              		.section	.text.IoTHubTransport_Create,"ax",%progbits
 715              		.align	2
 716              		.global	IoTHubTransport_Create
 717              		.code	16
 718              		.thumb_func
 719              		.type	IoTHubTransport_Create, %function
 720              	IoTHubTransport_Create:
 721              	.LFB1:
  38:Source\azure_iot_sdk\iothub_client\src/iothubtransport.c ****     TRANSPORT_HANDLE_DATA *result;
 722              		.loc 1 38 0
 723              		.cfi_startproc
 724              		@ args = 0, pretend = 0, frame = 48
 725              		@ frame_needed = 0, uses_anonymous_args = 0
 726              	.LVL104:
 727 0000 F0B5     		push	{r4, r5, r6, r7, lr}
 728              		.cfi_def_cfa_offset 20
 729              		.cfi_offset 4, -20
 730              		.cfi_offset 5, -16
 731              		.cfi_offset 6, -12
 732              		.cfi_offset 7, -8
 733              		.cfi_offset 14, -4
 734 0002 4F46     		mov	r7, r9
 735 0004 4646     		mov	r6, r8
 736 0006 C0B4     		push	{r6, r7}
 737              		.cfi_def_cfa_offset 28
 738              		.cfi_offset 8, -28
 739              		.cfi_offset 9, -24
 740 0008 93B0     		sub	sp, sp, #76
 741              		.cfi_def_cfa_offset 104
 742 000a 071E     		subs	r7, r0, #0
 743 000c 8846     		mov	r8, r1
 744 000e 9146     		mov	r9, r2
  41:Source\azure_iot_sdk\iothub_client\src/iothubtransport.c ****     {
 745              		.loc 1 41 0
 746 0010 03D0     		beq	.L49
  41:Source\azure_iot_sdk\iothub_client\src/iothubtransport.c ****     {
 747              		.loc 1 41 0 is_stmt 0 discriminator 1
 748 0012 0029     		cmp	r1, #0
ARM GAS  C:\Users\Phuong\AppData\Local\Temp\ccr8V995.s 			page 21


 749 0014 01D0     		beq	.L49
  41:Source\azure_iot_sdk\iothub_client\src/iothubtransport.c ****     {
 750              		.loc 1 41 0 discriminator 2
 751 0016 002A     		cmp	r2, #0
 752 0018 15D1     		bne	.L50
 753              	.L49:
 754              	.LBB15:
  46:Source\azure_iot_sdk\iothub_client\src/iothubtransport.c ****         result = NULL;
 755              		.loc 1 46 0 is_stmt 1 discriminator 3
 756 001a FFF7FEFF 		bl	xlogging_get_log_function
 757              	.LVL105:
 758 001e 041E     		subs	r4, r0, #0
 759              	.LVL106:
 760 0020 00D1     		bne	.LCB770
 761 0022 C7E0     		b	.L62	@long jump
 762              	.LCB770:
  46:Source\azure_iot_sdk\iothub_client\src/iothubtransport.c ****         result = NULL;
 763              		.loc 1 46 0 is_stmt 0 discriminator 4
 764 0024 4B46     		mov	r3, r9
 765 0026 0493     		str	r3, [sp, #16]
 766 0028 4346     		mov	r3, r8
 767 002a 0393     		str	r3, [sp, #12]
 768 002c 0297     		str	r7, [sp, #8]
 769 002e 654B     		ldr	r3, .L63
 770 0030 0193     		str	r3, [sp, #4]
 771 0032 0123     		movs	r3, #1
 772 0034 0093     		str	r3, [sp]
 773 0036 2D33     		adds	r3, r3, #45
 774 0038 634A     		ldr	r2, .L63+4
 775 003a 6432     		adds	r2, r2, #100
 776 003c 6349     		ldr	r1, .L63+8
 777 003e 0020     		movs	r0, #0
 778              	.LVL107:
 779 0040 A047     		blx	r4
 780              	.LVL108:
 781              	.LBE15:
  47:Source\azure_iot_sdk\iothub_client\src/iothubtransport.c ****     }
 782              		.loc 1 47 0 is_stmt 1 discriminator 4
 783 0042 0024     		movs	r4, #0
 784              	.LVL109:
 785 0044 B7E0     		b	.L51
 786              	.LVL110:
 787              	.L50:
  52:Source\azure_iot_sdk\iothub_client\src/iothubtransport.c ****         if (result == NULL)
 788              		.loc 1 52 0
 789 0046 6C20     		movs	r0, #108
 790              	.LVL111:
 791 0048 FFF7FEFF 		bl	malloc
 792              	.LVL112:
 793 004c 041E     		subs	r4, r0, #0
 794              	.LVL113:
  53:Source\azure_iot_sdk\iothub_client\src/iothubtransport.c ****         {
 795              		.loc 1 53 0
 796 004e 0FD1     		bne	.L52
 797              	.LBB16:
  56:Source\azure_iot_sdk\iothub_client\src/iothubtransport.c ****         }
 798              		.loc 1 56 0 discriminator 3
ARM GAS  C:\Users\Phuong\AppData\Local\Temp\ccr8V995.s 			page 22


 799 0050 FFF7FEFF 		bl	xlogging_get_log_function
 800              	.LVL114:
 801 0054 051E     		subs	r5, r0, #0
 802              	.LVL115:
 803 0056 00D1     		bne	.LCB816
 804 0058 ADE0     		b	.L51	@long jump
 805              	.LCB816:
  56:Source\azure_iot_sdk\iothub_client\src/iothubtransport.c ****         }
 806              		.loc 1 56 0 is_stmt 0 discriminator 4
 807 005a 5D4B     		ldr	r3, .L63+12
 808 005c 0193     		str	r3, [sp, #4]
 809 005e 0123     		movs	r3, #1
 810 0060 0093     		str	r3, [sp]
 811 0062 3733     		adds	r3, r3, #55
 812 0064 584A     		ldr	r2, .L63+4
 813 0066 6432     		adds	r2, r2, #100
 814 0068 5849     		ldr	r1, .L63+8
 815 006a 0020     		movs	r0, #0
 816              	.LVL116:
 817 006c A847     		blx	r5
 818              	.LVL117:
 819 006e A2E0     		b	.L51
 820              	.LVL118:
 821              	.L52:
 822              	.LBE16:
 823              	.LBB17:
  60:Source\azure_iot_sdk\iothub_client\src/iothubtransport.c ****             IOTHUB_CLIENT_CONFIG upperConfig;
 824              		.loc 1 60 0 is_stmt 1
 825 0070 B847     		blx	r7
 826              	.LVL119:
 827 0072 0500     		movs	r5, r0
 828              	.LVL120:
  62:Source\azure_iot_sdk\iothub_client\src/iothubtransport.c ****             upperConfig.deviceKey = NULL;
 829              		.loc 1 62 0
 830 0074 0BAE     		add	r6, sp, #44
 831 0076 0023     		movs	r3, #0
 832 0078 0C93     		str	r3, [sp, #48]
  63:Source\azure_iot_sdk\iothub_client\src/iothubtransport.c ****             upperConfig.iotHubName = iotHubName;
 833              		.loc 1 63 0
 834 007a 0D93     		str	r3, [sp, #52]
  64:Source\azure_iot_sdk\iothub_client\src/iothubtransport.c ****             upperConfig.iotHubSuffix = iotHubSuffix;
 835              		.loc 1 64 0
 836 007c 4246     		mov	r2, r8
 837 007e 0F92     		str	r2, [sp, #60]
  65:Source\azure_iot_sdk\iothub_client\src/iothubtransport.c ****             upperConfig.protocol = protocol;
 838              		.loc 1 65 0
 839 0080 4A46     		mov	r2, r9
 840 0082 1092     		str	r2, [sp, #64]
  66:Source\azure_iot_sdk\iothub_client\src/iothubtransport.c ****             upperConfig.protocolGatewayHostName = NULL;
 841              		.loc 1 66 0
 842 0084 0B97     		str	r7, [sp, #44]
  67:Source\azure_iot_sdk\iothub_client\src/iothubtransport.c **** 
 843              		.loc 1 67 0
 844 0086 1193     		str	r3, [sp, #68]
  70:Source\azure_iot_sdk\iothub_client\src/iothubtransport.c ****             transportLLConfig.upperConfig = &upperConfig;
 845              		.loc 1 70 0
 846 0088 1022     		movs	r2, #16
ARM GAS  C:\Users\Phuong\AppData\Local\Temp\ccr8V995.s 			page 23


 847 008a 0021     		movs	r1, #0
 848 008c 07A8     		add	r0, sp, #28
 849              	.LVL121:
 850 008e FFF7FEFF 		bl	memset
 851              	.LVL122:
  71:Source\azure_iot_sdk\iothub_client\src/iothubtransport.c ****             transportLLConfig.waitingToSend = NULL;
 852              		.loc 1 71 0
 853 0092 0796     		str	r6, [sp, #28]
  75:Source\azure_iot_sdk\iothub_client\src/iothubtransport.c ****             if (result->transportLLHandle == NULL)
 854              		.loc 1 75 0
 855 0094 07A8     		add	r0, sp, #28
 856 0096 6B6A     		ldr	r3, [r5, #36]
 857 0098 9847     		blx	r3
 858              	.LVL123:
 859 009a 2060     		str	r0, [r4]
  76:Source\azure_iot_sdk\iothub_client\src/iothubtransport.c ****             {
 860              		.loc 1 76 0
 861 009c 0028     		cmp	r0, #0
 862 009e 12D1     		bne	.L53
 863              	.LBB18:
  79:Source\azure_iot_sdk\iothub_client\src/iothubtransport.c ****                 free(result);
 864              		.loc 1 79 0 discriminator 3
 865 00a0 FFF7FEFF 		bl	xlogging_get_log_function
 866              	.LVL124:
 867 00a4 051E     		subs	r5, r0, #0
 868              	.LVL125:
 869 00a6 09D0     		beq	.L54
  79:Source\azure_iot_sdk\iothub_client\src/iothubtransport.c ****                 free(result);
 870              		.loc 1 79 0 is_stmt 0 discriminator 4
 871 00a8 4A4B     		ldr	r3, .L63+16
 872 00aa 0193     		str	r3, [sp, #4]
 873 00ac 0123     		movs	r3, #1
 874 00ae 0093     		str	r3, [sp]
 875 00b0 4E33     		adds	r3, r3, #78
 876 00b2 454A     		ldr	r2, .L63+4
 877 00b4 6432     		adds	r2, r2, #100
 878 00b6 4549     		ldr	r1, .L63+8
 879 00b8 0020     		movs	r0, #0
 880              	.LVL126:
 881 00ba A847     		blx	r5
 882              	.LVL127:
 883              	.L54:
 884              	.LBE18:
  80:Source\azure_iot_sdk\iothub_client\src/iothubtransport.c ****                 result = NULL;
 885              		.loc 1 80 0 is_stmt 1
 886 00bc 2000     		movs	r0, r4
 887 00be FFF7FEFF 		bl	free
 888              	.LVL128:
  81:Source\azure_iot_sdk\iothub_client\src/iothubtransport.c ****             }
 889              		.loc 1 81 0
 890 00c2 0024     		movs	r4, #0
 891 00c4 77E0     		b	.L51
 892              	.LVL129:
 893              	.L53:
  86:Source\azure_iot_sdk\iothub_client\src/iothubtransport.c ****                 if (result->lockHandle == NULL)
 894              		.loc 1 86 0
 895 00c6 FFF7FEFF 		bl	Lock_Init
ARM GAS  C:\Users\Phuong\AppData\Local\Temp\ccr8V995.s 			page 24


 896              	.LVL130:
 897 00ca A060     		str	r0, [r4, #8]
  87:Source\azure_iot_sdk\iothub_client\src/iothubtransport.c ****                 {
 898              		.loc 1 87 0
 899 00cc 0028     		cmp	r0, #0
 900 00ce 15D1     		bne	.L56
 901              	.LBB19:
  90:Source\azure_iot_sdk\iothub_client\src/iothubtransport.c ****                     transportProtocol->IoTHubTransport_Destroy(result->transportLLHandle);
 902              		.loc 1 90 0 discriminator 3
 903 00d0 FFF7FEFF 		bl	xlogging_get_log_function
 904              	.LVL131:
 905 00d4 061E     		subs	r6, r0, #0
 906              	.LVL132:
 907 00d6 09D0     		beq	.L57
  90:Source\azure_iot_sdk\iothub_client\src/iothubtransport.c ****                     transportProtocol->IoTHubTransport_Destroy(result->transportLLHandle);
 908              		.loc 1 90 0 is_stmt 0 discriminator 4
 909 00d8 3F4B     		ldr	r3, .L63+20
 910 00da 0193     		str	r3, [sp, #4]
 911 00dc 0123     		movs	r3, #1
 912 00de 0093     		str	r3, [sp]
 913 00e0 5933     		adds	r3, r3, #89
 914 00e2 394A     		ldr	r2, .L63+4
 915 00e4 6432     		adds	r2, r2, #100
 916 00e6 3949     		ldr	r1, .L63+8
 917 00e8 0020     		movs	r0, #0
 918              	.LVL133:
 919 00ea B047     		blx	r6
 920              	.LVL134:
 921              	.L57:
 922              	.LBE19:
  91:Source\azure_iot_sdk\iothub_client\src/iothubtransport.c ****                     free(result);
 923              		.loc 1 91 0 is_stmt 1
 924 00ec AB6A     		ldr	r3, [r5, #40]
 925 00ee 2068     		ldr	r0, [r4]
 926 00f0 9847     		blx	r3
 927              	.LVL135:
  92:Source\azure_iot_sdk\iothub_client\src/iothubtransport.c ****                     result = NULL;
 928              		.loc 1 92 0
 929 00f2 2000     		movs	r0, r4
 930 00f4 FFF7FEFF 		bl	free
 931              	.LVL136:
  93:Source\azure_iot_sdk\iothub_client\src/iothubtransport.c ****                 }
 932              		.loc 1 93 0
 933 00f8 0024     		movs	r4, #0
 934 00fa 5CE0     		b	.L51
 935              	.LVL137:
 936              	.L56:
  95:Source\azure_iot_sdk\iothub_client\src/iothubtransport.c ****                 {
 937              		.loc 1 95 0
 938 00fc FFF7FEFF 		bl	Lock_Init
 939              	.LVL138:
 940 0100 6066     		str	r0, [r4, #100]
 941 0102 0028     		cmp	r0, #0
 942 0104 18D1     		bne	.L58
 943              	.LBB20:
  97:Source\azure_iot_sdk\iothub_client\src/iothubtransport.c ****                     Lock_Deinit(result->lockHandle);
 944              		.loc 1 97 0 discriminator 3
ARM GAS  C:\Users\Phuong\AppData\Local\Temp\ccr8V995.s 			page 25


 945 0106 FFF7FEFF 		bl	xlogging_get_log_function
 946              	.LVL139:
 947 010a 061E     		subs	r6, r0, #0
 948              	.LVL140:
 949 010c 09D0     		beq	.L59
  97:Source\azure_iot_sdk\iothub_client\src/iothubtransport.c ****                     Lock_Deinit(result->lockHandle);
 950              		.loc 1 97 0 is_stmt 0 discriminator 4
 951 010e 334B     		ldr	r3, .L63+24
 952 0110 0193     		str	r3, [sp, #4]
 953 0112 0123     		movs	r3, #1
 954 0114 0093     		str	r3, [sp]
 955 0116 6033     		adds	r3, r3, #96
 956 0118 2B4A     		ldr	r2, .L63+4
 957 011a 6432     		adds	r2, r2, #100
 958 011c 2B49     		ldr	r1, .L63+8
 959 011e 0020     		movs	r0, #0
 960              	.LVL141:
 961 0120 B047     		blx	r6
 962              	.LVL142:
 963              	.L59:
 964              	.LBE20:
  98:Source\azure_iot_sdk\iothub_client\src/iothubtransport.c ****                     transportProtocol->IoTHubTransport_Destroy(result->transportLLHandle);
 965              		.loc 1 98 0 is_stmt 1
 966 0122 A068     		ldr	r0, [r4, #8]
 967 0124 FFF7FEFF 		bl	Lock_Deinit
 968              	.LVL143:
  99:Source\azure_iot_sdk\iothub_client\src/iothubtransport.c ****                     free(result);
 969              		.loc 1 99 0
 970 0128 AB6A     		ldr	r3, [r5, #40]
 971 012a 2068     		ldr	r0, [r4]
 972 012c 9847     		blx	r3
 973              	.LVL144:
 100:Source\azure_iot_sdk\iothub_client\src/iothubtransport.c ****                     result = NULL;
 974              		.loc 1 100 0
 975 012e 2000     		movs	r0, r4
 976 0130 FFF7FEFF 		bl	free
 977              	.LVL145:
 101:Source\azure_iot_sdk\iothub_client\src/iothubtransport.c ****                 }
 978              		.loc 1 101 0
 979 0134 0024     		movs	r4, #0
 980 0136 3EE0     		b	.L51
 981              	.LVL146:
 982              	.L58:
 106:Source\azure_iot_sdk\iothub_client\src/iothubtransport.c ****                     if (result->clients == NULL)
 983              		.loc 1 106 0
 984 0138 0420     		movs	r0, #4
 985 013a FFF7FEFF 		bl	VECTOR_create
 986              	.LVL147:
 987 013e 2066     		str	r0, [r4, #96]
 107:Source\azure_iot_sdk\iothub_client\src/iothubtransport.c ****                     {
 988              		.loc 1 107 0
 989 0140 0028     		cmp	r0, #0
 990 0142 1BD1     		bne	.L60
 991              	.LBB21:
 111:Source\azure_iot_sdk\iothub_client\src/iothubtransport.c ****                         Lock_Deinit(result->clientsLockHandle);
 992              		.loc 1 111 0 discriminator 3
 993 0144 FFF7FEFF 		bl	xlogging_get_log_function
ARM GAS  C:\Users\Phuong\AppData\Local\Temp\ccr8V995.s 			page 26


 994              	.LVL148:
 995 0148 061E     		subs	r6, r0, #0
 996              	.LVL149:
 997 014a 09D0     		beq	.L61
 111:Source\azure_iot_sdk\iothub_client\src/iothubtransport.c ****                         Lock_Deinit(result->clientsLockHandle);
 998              		.loc 1 111 0 is_stmt 0 discriminator 4
 999 014c 244B     		ldr	r3, .L63+28
 1000 014e 0193     		str	r3, [sp, #4]
 1001 0150 0123     		movs	r3, #1
 1002 0152 0093     		str	r3, [sp]
 1003 0154 6E33     		adds	r3, r3, #110
 1004 0156 1C4A     		ldr	r2, .L63+4
 1005 0158 6432     		adds	r2, r2, #100
 1006 015a 1C49     		ldr	r1, .L63+8
 1007 015c 0020     		movs	r0, #0
 1008              	.LVL150:
 1009 015e B047     		blx	r6
 1010              	.LVL151:
 1011              	.L61:
 1012              	.LBE21:
 112:Source\azure_iot_sdk\iothub_client\src/iothubtransport.c ****                         Lock_Deinit(result->lockHandle);
 1013              		.loc 1 112 0 is_stmt 1
 1014 0160 606E     		ldr	r0, [r4, #100]
 1015 0162 FFF7FEFF 		bl	Lock_Deinit
 1016              	.LVL152:
 113:Source\azure_iot_sdk\iothub_client\src/iothubtransport.c ****                         transportProtocol->IoTHubTransport_Destroy(result->transportLLHandle);
 1017              		.loc 1 113 0
 1018 0166 A068     		ldr	r0, [r4, #8]
 1019 0168 FFF7FEFF 		bl	Lock_Deinit
 1020              	.LVL153:
 114:Source\azure_iot_sdk\iothub_client\src/iothubtransport.c ****                         free(result);
 1021              		.loc 1 114 0
 1022 016c AB6A     		ldr	r3, [r5, #40]
 1023 016e 2068     		ldr	r0, [r4]
 1024 0170 9847     		blx	r3
 1025              	.LVL154:
 115:Source\azure_iot_sdk\iothub_client\src/iothubtransport.c ****                         result = NULL;
 1026              		.loc 1 115 0
 1027 0172 2000     		movs	r0, r4
 1028 0174 FFF7FEFF 		bl	free
 1029              	.LVL155:
 116:Source\azure_iot_sdk\iothub_client\src/iothubtransport.c ****                     }
 1030              		.loc 1 116 0
 1031 0178 0024     		movs	r4, #0
 1032 017a 1CE0     		b	.L51
 1033              	.LVL156:
 1034              	.L60:
 121:Source\azure_iot_sdk\iothub_client\src/iothubtransport.c ****                         result->clientDoWork = NULL;
 1035              		.loc 1 121 0
 1036 017c 0123     		movs	r3, #1
 1037 017e E360     		str	r3, [r4, #12]
 122:Source\azure_iot_sdk\iothub_client\src/iothubtransport.c ****                         result->workerThreadHandle = NULL; /* create thread when work needs to be d
 1038              		.loc 1 122 0
 1039 0180 0023     		movs	r3, #0
 1040 0182 A366     		str	r3, [r4, #104]
 123:Source\azure_iot_sdk\iothub_client\src/iothubtransport.c ****                         result->IoTHubTransport_GetHostname = transportProtocol->IoTHubTransport_Ge
 1041              		.loc 1 123 0
ARM GAS  C:\Users\Phuong\AppData\Local\Temp\ccr8V995.s 			page 27


 1042 0184 6360     		str	r3, [r4, #4]
 124:Source\azure_iot_sdk\iothub_client\src/iothubtransport.c ****                         result->IoTHubTransport_SetOption = transportProtocol->IoTHubTransport_SetO
 1043              		.loc 1 124 0
 1044 0186 EB69     		ldr	r3, [r5, #28]
 1045 0188 E362     		str	r3, [r4, #44]
 125:Source\azure_iot_sdk\iothub_client\src/iothubtransport.c ****                         result->IoTHubTransport_Create = transportProtocol->IoTHubTransport_Create;
 1046              		.loc 1 125 0
 1047 018a 2B6A     		ldr	r3, [r5, #32]
 1048 018c 2363     		str	r3, [r4, #48]
 126:Source\azure_iot_sdk\iothub_client\src/iothubtransport.c ****                         result->IoTHubTransport_Destroy = transportProtocol->IoTHubTransport_Destro
 1049              		.loc 1 126 0
 1050 018e 6B6A     		ldr	r3, [r5, #36]
 1051 0190 6363     		str	r3, [r4, #52]
 127:Source\azure_iot_sdk\iothub_client\src/iothubtransport.c ****                         result->IoTHubTransport_Register = transportProtocol->IoTHubTransport_Regis
 1052              		.loc 1 127 0
 1053 0192 AB6A     		ldr	r3, [r5, #40]
 1054 0194 A363     		str	r3, [r4, #56]
 128:Source\azure_iot_sdk\iothub_client\src/iothubtransport.c ****                         result->IoTHubTransport_Unregister = transportProtocol->IoTHubTransport_Unr
 1055              		.loc 1 128 0
 1056 0196 EB6A     		ldr	r3, [r5, #44]
 1057 0198 E363     		str	r3, [r4, #60]
 129:Source\azure_iot_sdk\iothub_client\src/iothubtransport.c ****                         result->IoTHubTransport_Subscribe = transportProtocol->IoTHubTransport_Subs
 1058              		.loc 1 129 0
 1059 019a 2B6B     		ldr	r3, [r5, #48]
 1060 019c 2364     		str	r3, [r4, #64]
 130:Source\azure_iot_sdk\iothub_client\src/iothubtransport.c ****                         result->IoTHubTransport_Unsubscribe = transportProtocol->IoTHubTransport_Un
 1061              		.loc 1 130 0
 1062 019e 6B6B     		ldr	r3, [r5, #52]
 1063 01a0 6364     		str	r3, [r4, #68]
 131:Source\azure_iot_sdk\iothub_client\src/iothubtransport.c ****                         result->IoTHubTransport_DoWork = transportProtocol->IoTHubTransport_DoWork;
 1064              		.loc 1 131 0
 1065 01a2 AB6B     		ldr	r3, [r5, #56]
 1066 01a4 A364     		str	r3, [r4, #72]
 132:Source\azure_iot_sdk\iothub_client\src/iothubtransport.c ****                         result->IoTHubTransport_SetRetryPolicy = transportProtocol->IoTHubTransport
 1067              		.loc 1 132 0
 1068 01a6 EB6B     		ldr	r3, [r5, #60]
 1069 01a8 E364     		str	r3, [r4, #76]
 133:Source\azure_iot_sdk\iothub_client\src/iothubtransport.c ****                         result->IoTHubTransport_GetSendStatus = transportProtocol->IoTHubTransport_
 1070              		.loc 1 133 0
 1071 01aa 2B6C     		ldr	r3, [r5, #64]
 1072 01ac 2365     		str	r3, [r4, #80]
 134:Source\azure_iot_sdk\iothub_client\src/iothubtransport.c ****                     }
 1073              		.loc 1 134 0
 1074 01ae 6B6C     		ldr	r3, [r5, #68]
 1075 01b0 6365     		str	r3, [r4, #84]
 1076 01b2 00E0     		b	.L51
 1077              	.LVL157:
 1078              	.L62:
 1079              	.LBE17:
  47:Source\azure_iot_sdk\iothub_client\src/iothubtransport.c ****     }
 1080              		.loc 1 47 0
 1081 01b4 0024     		movs	r4, #0
 1082              	.LVL158:
 1083              	.L51:
 142:Source\azure_iot_sdk\iothub_client\src/iothubtransport.c **** 
 1084              		.loc 1 142 0
 1085 01b6 2000     		movs	r0, r4
ARM GAS  C:\Users\Phuong\AppData\Local\Temp\ccr8V995.s 			page 28


 1086 01b8 13B0     		add	sp, sp, #76
 1087              		@ sp needed
 1088              	.LVL159:
 1089              	.LVL160:
 1090              	.LVL161:
 1091              	.LVL162:
 1092 01ba 0CBC     		pop	{r2, r3}
 1093 01bc 9046     		mov	r8, r2
 1094 01be 9946     		mov	r9, r3
 1095 01c0 F0BD     		pop	{r4, r5, r6, r7, pc}
 1096              	.L64:
 1097 01c2 C046     		.align	2
 1098              	.L63:
 1099 01c4 A0010000 		.word	.LC30
 1100 01c8 00000000 		.word	.LANCHOR0
 1101 01cc 00000000 		.word	.LC1
 1102 01d0 E0010000 		.word	.LC32
 1103 01d4 04020000 		.word	.LC34
 1104 01d8 28020000 		.word	.LC36
 1105 01dc 44020000 		.word	.LC38
 1106 01e0 60020000 		.word	.LC40
 1107              		.cfi_endproc
 1108              	.LFE1:
 1109              		.size	IoTHubTransport_Create, .-IoTHubTransport_Create
 1110              		.section	.text.IoTHubTransport_Destroy,"ax",%progbits
 1111              		.align	2
 1112              		.global	IoTHubTransport_Destroy
 1113              		.code	16
 1114              		.thumb_func
 1115              		.type	IoTHubTransport_Destroy, %function
 1116              	IoTHubTransport_Destroy:
 1117              	.LFB9:
 335:Source\azure_iot_sdk\iothub_client\src/iothubtransport.c **** 
 336:Source\azure_iot_sdk\iothub_client\src/iothubtransport.c **** void IoTHubTransport_Destroy(TRANSPORT_HANDLE transportHandle)
 337:Source\azure_iot_sdk\iothub_client\src/iothubtransport.c **** {
 1118              		.loc 1 337 0
 1119              		.cfi_startproc
 1120              		@ args = 0, pretend = 0, frame = 0
 1121              		@ frame_needed = 0, uses_anonymous_args = 0
 1122              	.LVL163:
 1123 0000 30B5     		push	{r4, r5, lr}
 1124              		.cfi_def_cfa_offset 12
 1125              		.cfi_offset 4, -12
 1126              		.cfi_offset 5, -8
 1127              		.cfi_offset 14, -4
 1128 0002 83B0     		sub	sp, sp, #12
 1129              		.cfi_def_cfa_offset 24
 1130 0004 041E     		subs	r4, r0, #0
 338:Source\azure_iot_sdk\iothub_client\src/iothubtransport.c ****     /*Codes_SRS_IOTHUBTRANSPORT_17_011: [ IoTHubTransport_Destroy shall do nothing if transportHand
 339:Source\azure_iot_sdk\iothub_client\src/iothubtransport.c ****     if (transportHandle != NULL)
 1131              		.loc 1 339 0
 1132 0006 2FD0     		beq	.L65
 1133              	.LVL164:
 1134              	.LBB22:
 340:Source\azure_iot_sdk\iothub_client\src/iothubtransport.c ****     {
 341:Source\azure_iot_sdk\iothub_client\src/iothubtransport.c ****         TRANSPORT_HANDLE_DATA * transportData = (TRANSPORT_HANDLE_DATA*)transportHandle;
 342:Source\azure_iot_sdk\iothub_client\src/iothubtransport.c ****         /*Codes_SRS_IOTHUBTRANSPORT_17_033: [ IoTHubTransport_Destroy shall lock the transport lock
ARM GAS  C:\Users\Phuong\AppData\Local\Temp\ccr8V995.s 			page 29


 343:Source\azure_iot_sdk\iothub_client\src/iothubtransport.c ****         if (Lock(transportData->lockHandle) != LOCK_OK)
 1135              		.loc 1 343 0
 1136 0008 8068     		ldr	r0, [r0, #8]
 1137              	.LVL165:
 1138 000a FFF7FEFF 		bl	Lock
 1139              	.LVL166:
 1140 000e 0028     		cmp	r0, #0
 1141 0010 12D0     		beq	.L67
 1142              	.LBB23:
 344:Source\azure_iot_sdk\iothub_client\src/iothubtransport.c ****         {
 345:Source\azure_iot_sdk\iothub_client\src/iothubtransport.c ****             LogError("Unable to lock - will still attempt to end thread without thread safety");
 1143              		.loc 1 345 0 discriminator 3
 1144 0012 FFF7FEFF 		bl	xlogging_get_log_function
 1145              	.LVL167:
 1146 0016 051E     		subs	r5, r0, #0
 1147              	.LVL168:
 1148 0018 0AD0     		beq	.L68
 1149              		.loc 1 345 0 is_stmt 0 discriminator 4
 1150 001a 144B     		ldr	r3, .L70
 1151 001c 0193     		str	r3, [sp, #4]
 1152 001e 0123     		movs	r3, #1
 1153 0020 0093     		str	r3, [sp]
 1154 0022 5A23     		movs	r3, #90
 1155 0024 FF33     		adds	r3, r3, #255
 1156 0026 124A     		ldr	r2, .L70+4
 1157 0028 7C32     		adds	r2, r2, #124
 1158 002a 1249     		ldr	r1, .L70+8
 1159 002c 0020     		movs	r0, #0
 1160              	.LVL169:
 1161 002e A847     		blx	r5
 1162              	.LVL170:
 1163              	.L68:
 1164              	.LBE23:
 346:Source\azure_iot_sdk\iothub_client\src/iothubtransport.c ****             stop_worker_thread(transportData);
 1165              		.loc 1 346 0 is_stmt 1
 1166 0030 2000     		movs	r0, r4
 1167 0032 FFF7FEFF 		bl	stop_worker_thread
 1168              	.LVL171:
 1169 0036 05E0     		b	.L69
 1170              	.LVL172:
 1171              	.L67:
 347:Source\azure_iot_sdk\iothub_client\src/iothubtransport.c ****         }
 348:Source\azure_iot_sdk\iothub_client\src/iothubtransport.c ****         else
 349:Source\azure_iot_sdk\iothub_client\src/iothubtransport.c ****         {
 350:Source\azure_iot_sdk\iothub_client\src/iothubtransport.c ****             stop_worker_thread(transportData);
 1172              		.loc 1 350 0
 1173 0038 2000     		movs	r0, r4
 1174 003a FFF7FEFF 		bl	stop_worker_thread
 1175              	.LVL173:
 351:Source\azure_iot_sdk\iothub_client\src/iothubtransport.c ****             (void)Unlock(transportData->lockHandle);
 1176              		.loc 1 351 0
 1177 003e A068     		ldr	r0, [r4, #8]
 1178 0040 FFF7FEFF 		bl	Unlock
 1179              	.LVL174:
 1180              	.L69:
 352:Source\azure_iot_sdk\iothub_client\src/iothubtransport.c ****         }
 353:Source\azure_iot_sdk\iothub_client\src/iothubtransport.c ****         wait_worker_thread(transportData);
ARM GAS  C:\Users\Phuong\AppData\Local\Temp\ccr8V995.s 			page 30


 1181              		.loc 1 353 0
 1182 0044 2000     		movs	r0, r4
 1183 0046 FFF7FEFF 		bl	wait_worker_thread
 1184              	.LVL175:
 354:Source\azure_iot_sdk\iothub_client\src/iothubtransport.c ****         /*Codes_SRS_IOTHUBTRANSPORT_17_010: [ IoTHubTransport_Destroy shall free all resources. ]*/
 355:Source\azure_iot_sdk\iothub_client\src/iothubtransport.c ****         Lock_Deinit(transportData->lockHandle);
 1185              		.loc 1 355 0
 1186 004a A068     		ldr	r0, [r4, #8]
 1187 004c FFF7FEFF 		bl	Lock_Deinit
 1188              	.LVL176:
 356:Source\azure_iot_sdk\iothub_client\src/iothubtransport.c ****         (transportData->IoTHubTransport_Destroy)(transportData->transportLLHandle);
 1189              		.loc 1 356 0
 1190 0050 2068     		ldr	r0, [r4]
 1191 0052 A36B     		ldr	r3, [r4, #56]
 1192 0054 9847     		blx	r3
 1193              	.LVL177:
 357:Source\azure_iot_sdk\iothub_client\src/iothubtransport.c ****         VECTOR_destroy(transportData->clients);
 1194              		.loc 1 357 0
 1195 0056 206E     		ldr	r0, [r4, #96]
 1196 0058 FFF7FEFF 		bl	VECTOR_destroy
 1197              	.LVL178:
 358:Source\azure_iot_sdk\iothub_client\src/iothubtransport.c ****         Lock_Deinit(transportData->clientsLockHandle);
 1198              		.loc 1 358 0
 1199 005c 606E     		ldr	r0, [r4, #100]
 1200 005e FFF7FEFF 		bl	Lock_Deinit
 1201              	.LVL179:
 359:Source\azure_iot_sdk\iothub_client\src/iothubtransport.c ****         free(transportHandle);
 1202              		.loc 1 359 0
 1203 0062 2000     		movs	r0, r4
 1204 0064 FFF7FEFF 		bl	free
 1205              	.LVL180:
 1206              	.L65:
 1207              	.LBE22:
 360:Source\azure_iot_sdk\iothub_client\src/iothubtransport.c ****     }
 361:Source\azure_iot_sdk\iothub_client\src/iothubtransport.c **** }
 1208              		.loc 1 361 0
 1209 0068 03B0     		add	sp, sp, #12
 1210              		@ sp needed
 1211              	.LVL181:
 1212 006a 30BD     		pop	{r4, r5, pc}
 1213              	.L71:
 1214              		.align	2
 1215              	.L70:
 1216 006c 7C020000 		.word	.LC44
 1217 0070 00000000 		.word	.LANCHOR0
 1218 0074 00000000 		.word	.LC1
 1219              		.cfi_endproc
 1220              	.LFE9:
 1221              		.size	IoTHubTransport_Destroy, .-IoTHubTransport_Destroy
 1222              		.section	.text.IoTHubTransport_GetLock,"ax",%progbits
 1223              		.align	2
 1224              		.global	IoTHubTransport_GetLock
 1225              		.code	16
 1226              		.thumb_func
 1227              		.type	IoTHubTransport_GetLock, %function
 1228              	IoTHubTransport_GetLock:
 1229              	.LFB10:
ARM GAS  C:\Users\Phuong\AppData\Local\Temp\ccr8V995.s 			page 31


 362:Source\azure_iot_sdk\iothub_client\src/iothubtransport.c **** 
 363:Source\azure_iot_sdk\iothub_client\src/iothubtransport.c **** LOCK_HANDLE IoTHubTransport_GetLock(TRANSPORT_HANDLE transportHandle)
 364:Source\azure_iot_sdk\iothub_client\src/iothubtransport.c **** {
 1230              		.loc 1 364 0
 1231              		.cfi_startproc
 1232              		@ args = 0, pretend = 0, frame = 0
 1233              		@ frame_needed = 0, uses_anonymous_args = 0
 1234              		@ link register save eliminated.
 1235              	.LVL182:
 365:Source\azure_iot_sdk\iothub_client\src/iothubtransport.c ****     LOCK_HANDLE lock;
 366:Source\azure_iot_sdk\iothub_client\src/iothubtransport.c ****     if (transportHandle == NULL)
 1236              		.loc 1 366 0
 1237 0000 0028     		cmp	r0, #0
 1238 0002 01D0     		beq	.L74
 1239              	.LVL183:
 1240              	.LBB24:
 367:Source\azure_iot_sdk\iothub_client\src/iothubtransport.c ****     {
 368:Source\azure_iot_sdk\iothub_client\src/iothubtransport.c ****         /*Codes_SRS_IOTHUBTRANSPORT_17_013: [ If transportHandle is NULL, IoTHubTransport_GetLock s
 369:Source\azure_iot_sdk\iothub_client\src/iothubtransport.c ****         lock = NULL;
 370:Source\azure_iot_sdk\iothub_client\src/iothubtransport.c ****     }
 371:Source\azure_iot_sdk\iothub_client\src/iothubtransport.c ****     else
 372:Source\azure_iot_sdk\iothub_client\src/iothubtransport.c ****     {
 373:Source\azure_iot_sdk\iothub_client\src/iothubtransport.c ****         /*Codes_SRS_IOTHUBTRANSPORT_17_012: [ IoTHubTransport_GetLock shall return a handle to the 
 374:Source\azure_iot_sdk\iothub_client\src/iothubtransport.c ****         TRANSPORT_HANDLE_DATA * transportData = (TRANSPORT_HANDLE_DATA*)transportHandle;
 375:Source\azure_iot_sdk\iothub_client\src/iothubtransport.c ****         lock = transportData->lockHandle;
 1241              		.loc 1 375 0
 1242 0004 8068     		ldr	r0, [r0, #8]
 1243              	.LVL184:
 1244 0006 00E0     		b	.L73
 1245              	.LVL185:
 1246              	.L74:
 1247              	.LBE24:
 369:Source\azure_iot_sdk\iothub_client\src/iothubtransport.c ****     }
 1248              		.loc 1 369 0
 1249 0008 0020     		movs	r0, #0
 1250              	.LVL186:
 1251              	.L73:
 376:Source\azure_iot_sdk\iothub_client\src/iothubtransport.c ****     }
 377:Source\azure_iot_sdk\iothub_client\src/iothubtransport.c ****     return lock;
 378:Source\azure_iot_sdk\iothub_client\src/iothubtransport.c **** }
 1252              		.loc 1 378 0
 1253              		@ sp needed
 1254 000a 7047     		bx	lr
 1255              		.cfi_endproc
 1256              	.LFE10:
 1257              		.size	IoTHubTransport_GetLock, .-IoTHubTransport_GetLock
 1258              		.section	.text.IoTHubTransport_GetLLTransport,"ax",%progbits
 1259              		.align	2
 1260              		.global	IoTHubTransport_GetLLTransport
 1261              		.code	16
 1262              		.thumb_func
 1263              		.type	IoTHubTransport_GetLLTransport, %function
 1264              	IoTHubTransport_GetLLTransport:
 1265              	.LFB11:
 379:Source\azure_iot_sdk\iothub_client\src/iothubtransport.c **** 
 380:Source\azure_iot_sdk\iothub_client\src/iothubtransport.c **** TRANSPORT_LL_HANDLE IoTHubTransport_GetLLTransport(TRANSPORT_HANDLE transportHandle)
 381:Source\azure_iot_sdk\iothub_client\src/iothubtransport.c **** {
ARM GAS  C:\Users\Phuong\AppData\Local\Temp\ccr8V995.s 			page 32


 1266              		.loc 1 381 0
 1267              		.cfi_startproc
 1268              		@ args = 0, pretend = 0, frame = 0
 1269              		@ frame_needed = 0, uses_anonymous_args = 0
 1270              		@ link register save eliminated.
 1271              	.LVL187:
 382:Source\azure_iot_sdk\iothub_client\src/iothubtransport.c ****     TRANSPORT_LL_HANDLE llTransport;
 383:Source\azure_iot_sdk\iothub_client\src/iothubtransport.c ****     if (transportHandle == NULL)
 1272              		.loc 1 383 0
 1273 0000 0028     		cmp	r0, #0
 1274 0002 01D0     		beq	.L77
 1275              	.LVL188:
 1276              	.LBB25:
 384:Source\azure_iot_sdk\iothub_client\src/iothubtransport.c ****     {
 385:Source\azure_iot_sdk\iothub_client\src/iothubtransport.c ****         /*Codes_SRS_IOTHUBTRANSPORT_17_015: [ If transportHandle is NULL, IoTHubTransport_GetLLTran
 386:Source\azure_iot_sdk\iothub_client\src/iothubtransport.c ****         llTransport = NULL;
 387:Source\azure_iot_sdk\iothub_client\src/iothubtransport.c ****     }
 388:Source\azure_iot_sdk\iothub_client\src/iothubtransport.c ****     else
 389:Source\azure_iot_sdk\iothub_client\src/iothubtransport.c ****     {
 390:Source\azure_iot_sdk\iothub_client\src/iothubtransport.c ****         /*Codes_SRS_IOTHUBTRANSPORT_17_014: [ IoTHubTransport_GetLLTransport shall return a handle 
 391:Source\azure_iot_sdk\iothub_client\src/iothubtransport.c ****         TRANSPORT_HANDLE_DATA * transportData = (TRANSPORT_HANDLE_DATA*)transportHandle;
 392:Source\azure_iot_sdk\iothub_client\src/iothubtransport.c ****         llTransport = transportData->transportLLHandle;
 1277              		.loc 1 392 0
 1278 0004 0068     		ldr	r0, [r0]
 1279              	.LVL189:
 1280 0006 00E0     		b	.L76
 1281              	.LVL190:
 1282              	.L77:
 1283              	.LBE25:
 386:Source\azure_iot_sdk\iothub_client\src/iothubtransport.c ****     }
 1284              		.loc 1 386 0
 1285 0008 0020     		movs	r0, #0
 1286              	.LVL191:
 1287              	.L76:
 393:Source\azure_iot_sdk\iothub_client\src/iothubtransport.c ****     }
 394:Source\azure_iot_sdk\iothub_client\src/iothubtransport.c ****     return llTransport;
 395:Source\azure_iot_sdk\iothub_client\src/iothubtransport.c **** }
 1288              		.loc 1 395 0
 1289              		@ sp needed
 1290 000a 7047     		bx	lr
 1291              		.cfi_endproc
 1292              	.LFE11:
 1293              		.size	IoTHubTransport_GetLLTransport, .-IoTHubTransport_GetLLTransport
 1294              		.section	.text.IoTHubTransport_StartWorkerThread,"ax",%progbits
 1295              		.align	2
 1296              		.global	IoTHubTransport_StartWorkerThread
 1297              		.code	16
 1298              		.thumb_func
 1299              		.type	IoTHubTransport_StartWorkerThread, %function
 1300              	IoTHubTransport_StartWorkerThread:
 1301              	.LFB12:
 396:Source\azure_iot_sdk\iothub_client\src/iothubtransport.c **** 
 397:Source\azure_iot_sdk\iothub_client\src/iothubtransport.c **** IOTHUB_CLIENT_RESULT IoTHubTransport_StartWorkerThread(TRANSPORT_HANDLE transportHandle, IOTHUB_CLI
 398:Source\azure_iot_sdk\iothub_client\src/iothubtransport.c **** {
 1302              		.loc 1 398 0
 1303              		.cfi_startproc
 1304              		@ args = 0, pretend = 0, frame = 0
ARM GAS  C:\Users\Phuong\AppData\Local\Temp\ccr8V995.s 			page 33


 1305              		@ frame_needed = 0, uses_anonymous_args = 0
 1306              	.LVL192:
 1307 0000 30B5     		push	{r4, r5, lr}
 1308              		.cfi_def_cfa_offset 12
 1309              		.cfi_offset 4, -12
 1310              		.cfi_offset 5, -8
 1311              		.cfi_offset 14, -4
 1312 0002 83B0     		sub	sp, sp, #12
 1313              		.cfi_def_cfa_offset 24
 399:Source\azure_iot_sdk\iothub_client\src/iothubtransport.c ****     IOTHUB_CLIENT_RESULT result;
 400:Source\azure_iot_sdk\iothub_client\src/iothubtransport.c ****     if (transportHandle == NULL || clientHandle == NULL)
 1314              		.loc 1 400 0
 1315 0004 0028     		cmp	r0, #0
 1316 0006 19D0     		beq	.L81
 1317              		.loc 1 400 0 is_stmt 0 discriminator 1
 1318 0008 0029     		cmp	r1, #0
 1319 000a 19D0     		beq	.L82
 1320              	.LVL193:
 1321              	.LBB26:
 401:Source\azure_iot_sdk\iothub_client\src/iothubtransport.c ****     {
 402:Source\azure_iot_sdk\iothub_client\src/iothubtransport.c ****         /*Codes_SRS_IOTHUBTRANSPORT_17_016: [ If transportHandle is NULL, IoTHubTransport_StartWork
 403:Source\azure_iot_sdk\iothub_client\src/iothubtransport.c ****         /*Codes_SRS_IOTHUBTRANSPORT_17_017: [ If clientHandle is NULL, IoTHubTransport_StartWorkerT
 404:Source\azure_iot_sdk\iothub_client\src/iothubtransport.c ****         result = IOTHUB_CLIENT_INVALID_ARG;
 405:Source\azure_iot_sdk\iothub_client\src/iothubtransport.c ****     }
 406:Source\azure_iot_sdk\iothub_client\src/iothubtransport.c ****     else
 407:Source\azure_iot_sdk\iothub_client\src/iothubtransport.c ****     {
 408:Source\azure_iot_sdk\iothub_client\src/iothubtransport.c ****         TRANSPORT_HANDLE_DATA * transportData = (TRANSPORT_HANDLE_DATA*)transportHandle;
 409:Source\azure_iot_sdk\iothub_client\src/iothubtransport.c **** 
 410:Source\azure_iot_sdk\iothub_client\src/iothubtransport.c ****         if (transportData->clientDoWork == NULL)
 1322              		.loc 1 410 0 is_stmt 1
 1323 000c 836E     		ldr	r3, [r0, #104]
 1324 000e 002B     		cmp	r3, #0
 1325 0010 00D1     		bne	.L80
 411:Source\azure_iot_sdk\iothub_client\src/iothubtransport.c ****         {
 412:Source\azure_iot_sdk\iothub_client\src/iothubtransport.c ****             transportData->clientDoWork = muxDoWork;
 1326              		.loc 1 412 0
 1327 0012 8266     		str	r2, [r0, #104]
 1328              	.L80:
 413:Source\azure_iot_sdk\iothub_client\src/iothubtransport.c ****         }
 414:Source\azure_iot_sdk\iothub_client\src/iothubtransport.c **** 
 415:Source\azure_iot_sdk\iothub_client\src/iothubtransport.c ****         if ((result = start_worker_if_needed(transportData, clientHandle)) != IOTHUB_CLIENT_OK)
 1329              		.loc 1 415 0
 1330 0014 FFF7FEFF 		bl	start_worker_if_needed
 1331              	.LVL194:
 1332 0018 041E     		subs	r4, r0, #0
 1333              	.LVL195:
 1334 001a 12D0     		beq	.L79
 1335              	.LBB27:
 416:Source\azure_iot_sdk\iothub_client\src/iothubtransport.c ****         {
 417:Source\azure_iot_sdk\iothub_client\src/iothubtransport.c ****             /*Codes_SRS_IOTHUBTRANSPORT_17_019: [ If thread creation fails, IoTHubTransport_StartWo
 418:Source\azure_iot_sdk\iothub_client\src/iothubtransport.c ****             LogError("Unable to start thread safely");
 1336              		.loc 1 418 0 discriminator 3
 1337 001c FFF7FEFF 		bl	xlogging_get_log_function
 1338              	.LVL196:
 1339 0020 051E     		subs	r5, r0, #0
 1340              	.LVL197:
 1341 0022 0ED0     		beq	.L79
ARM GAS  C:\Users\Phuong\AppData\Local\Temp\ccr8V995.s 			page 34


 1342              		.loc 1 418 0 is_stmt 0 discriminator 4
 1343 0024 084B     		ldr	r3, .L83
 1344 0026 0193     		str	r3, [sp, #4]
 1345 0028 0123     		movs	r3, #1
 1346 002a 0093     		str	r3, [sp]
 1347 002c A233     		adds	r3, r3, #162
 1348 002e FF33     		adds	r3, r3, #255
 1349 0030 064A     		ldr	r2, .L83+4
 1350 0032 1432     		adds	r2, r2, #20
 1351 0034 0649     		ldr	r1, .L83+8
 1352 0036 0020     		movs	r0, #0
 1353              	.LVL198:
 1354 0038 A847     		blx	r5
 1355              	.LVL199:
 1356 003a 02E0     		b	.L79
 1357              	.LVL200:
 1358              	.L81:
 1359              	.LBE27:
 1360              	.LBE26:
 404:Source\azure_iot_sdk\iothub_client\src/iothubtransport.c ****     }
 1361              		.loc 1 404 0 is_stmt 1
 1362 003c 0124     		movs	r4, #1
 1363 003e 00E0     		b	.L79
 1364              	.L82:
 1365 0040 0124     		movs	r4, #1
 1366              	.LVL201:
 1367              	.L79:
 419:Source\azure_iot_sdk\iothub_client\src/iothubtransport.c ****         }
 420:Source\azure_iot_sdk\iothub_client\src/iothubtransport.c ****         else
 421:Source\azure_iot_sdk\iothub_client\src/iothubtransport.c ****         {
 422:Source\azure_iot_sdk\iothub_client\src/iothubtransport.c ****             /*Codes_SRS_IOTHUBTRANSPORT_17_022: [ Upon success, IoTHubTransport_StartWorkerThread s
 423:Source\azure_iot_sdk\iothub_client\src/iothubtransport.c ****             result = IOTHUB_CLIENT_OK;
 424:Source\azure_iot_sdk\iothub_client\src/iothubtransport.c ****         }
 425:Source\azure_iot_sdk\iothub_client\src/iothubtransport.c ****     }
 426:Source\azure_iot_sdk\iothub_client\src/iothubtransport.c ****     return result;
 427:Source\azure_iot_sdk\iothub_client\src/iothubtransport.c **** }
 1368              		.loc 1 427 0
 1369 0042 2000     		movs	r0, r4
 1370 0044 03B0     		add	sp, sp, #12
 1371              		@ sp needed
 1372              	.LVL202:
 1373 0046 30BD     		pop	{r4, r5, pc}
 1374              	.L84:
 1375              		.align	2
 1376              	.L83:
 1377 0048 C4020000 		.word	.LC48
 1378 004c 80000000 		.word	.LANCHOR1
 1379 0050 00000000 		.word	.LC1
 1380              		.cfi_endproc
 1381              	.LFE12:
 1382              		.size	IoTHubTransport_StartWorkerThread, .-IoTHubTransport_StartWorkerThread
 1383              		.section	.text.IoTHubTransport_SignalEndWorkerThread,"ax",%progbits
 1384              		.align	2
 1385              		.global	IoTHubTransport_SignalEndWorkerThread
 1386              		.code	16
 1387              		.thumb_func
 1388              		.type	IoTHubTransport_SignalEndWorkerThread, %function
ARM GAS  C:\Users\Phuong\AppData\Local\Temp\ccr8V995.s 			page 35


 1389              	IoTHubTransport_SignalEndWorkerThread:
 1390              	.LFB13:
 428:Source\azure_iot_sdk\iothub_client\src/iothubtransport.c **** 
 429:Source\azure_iot_sdk\iothub_client\src/iothubtransport.c **** bool IoTHubTransport_SignalEndWorkerThread(TRANSPORT_HANDLE transportHandle, IOTHUB_CLIENT_CORE_HAN
 430:Source\azure_iot_sdk\iothub_client\src/iothubtransport.c **** {
 1391              		.loc 1 430 0
 1392              		.cfi_startproc
 1393              		@ args = 0, pretend = 0, frame = 0
 1394              		@ frame_needed = 0, uses_anonymous_args = 0
 1395              	.LVL203:
 1396 0000 10B5     		push	{r4, lr}
 1397              		.cfi_def_cfa_offset 8
 1398              		.cfi_offset 4, -8
 1399              		.cfi_offset 14, -4
 431:Source\azure_iot_sdk\iothub_client\src/iothubtransport.c ****     bool okToJoin;
 432:Source\azure_iot_sdk\iothub_client\src/iothubtransport.c ****     /*Codes_SRS_IOTHUBTRANSPORT_17_023: [ If transportHandle is NULL, IoTHubTransport_EndWorkerThre
 433:Source\azure_iot_sdk\iothub_client\src/iothubtransport.c ****     /*Codes_SRS_IOTHUBTRANSPORT_17_024: [ If clientHandle is NULL, IoTHubTransport_EndWorkerThread 
 434:Source\azure_iot_sdk\iothub_client\src/iothubtransport.c ****     if (!(transportHandle == NULL || clientHandle == NULL))
 1400              		.loc 1 434 0
 1401 0002 0028     		cmp	r0, #0
 1402 0004 04D0     		beq	.L87
 1403              		.loc 1 434 0 is_stmt 0 discriminator 1
 1404 0006 0029     		cmp	r1, #0
 1405 0008 04D0     		beq	.L88
 1406              	.LVL204:
 1407              	.LBB28:
 435:Source\azure_iot_sdk\iothub_client\src/iothubtransport.c ****     {
 436:Source\azure_iot_sdk\iothub_client\src/iothubtransport.c ****         TRANSPORT_HANDLE_DATA * transportData = (TRANSPORT_HANDLE_DATA*)transportHandle;
 437:Source\azure_iot_sdk\iothub_client\src/iothubtransport.c ****         okToJoin = signal_end_worker_thread(transportData, clientHandle);
 1408              		.loc 1 437 0 is_stmt 1
 1409 000a FFF7FEFF 		bl	signal_end_worker_thread
 1410              	.LVL205:
 1411              	.LBE28:
 435:Source\azure_iot_sdk\iothub_client\src/iothubtransport.c ****     {
 1412              		.loc 1 435 0
 1413 000e 02E0     		b	.L86
 1414              	.LVL206:
 1415              	.L87:
 438:Source\azure_iot_sdk\iothub_client\src/iothubtransport.c ****     }
 439:Source\azure_iot_sdk\iothub_client\src/iothubtransport.c ****     else
 440:Source\azure_iot_sdk\iothub_client\src/iothubtransport.c ****     {
 441:Source\azure_iot_sdk\iothub_client\src/iothubtransport.c ****         okToJoin = false;
 1416              		.loc 1 441 0
 1417 0010 0020     		movs	r0, #0
 1418              	.LVL207:
 1419 0012 00E0     		b	.L86
 1420              	.LVL208:
 1421              	.L88:
 1422 0014 0020     		movs	r0, #0
 1423              	.LVL209:
 1424              	.L86:
 442:Source\azure_iot_sdk\iothub_client\src/iothubtransport.c ****     }
 443:Source\azure_iot_sdk\iothub_client\src/iothubtransport.c ****     return okToJoin;
 444:Source\azure_iot_sdk\iothub_client\src/iothubtransport.c **** }
 1425              		.loc 1 444 0
 1426              		@ sp needed
 1427 0016 10BD     		pop	{r4, pc}
ARM GAS  C:\Users\Phuong\AppData\Local\Temp\ccr8V995.s 			page 36


 1428              		.cfi_endproc
 1429              	.LFE13:
 1430              		.size	IoTHubTransport_SignalEndWorkerThread, .-IoTHubTransport_SignalEndWorkerThread
 1431              		.section	.text.IoTHubTransport_JoinWorkerThread,"ax",%progbits
 1432              		.align	2
 1433              		.global	IoTHubTransport_JoinWorkerThread
 1434              		.code	16
 1435              		.thumb_func
 1436              		.type	IoTHubTransport_JoinWorkerThread, %function
 1437              	IoTHubTransport_JoinWorkerThread:
 1438              	.LFB14:
 445:Source\azure_iot_sdk\iothub_client\src/iothubtransport.c **** 
 446:Source\azure_iot_sdk\iothub_client\src/iothubtransport.c **** void IoTHubTransport_JoinWorkerThread(TRANSPORT_HANDLE transportHandle, IOTHUB_CLIENT_CORE_HANDLE c
 447:Source\azure_iot_sdk\iothub_client\src/iothubtransport.c **** {
 1439              		.loc 1 447 0
 1440              		.cfi_startproc
 1441              		@ args = 0, pretend = 0, frame = 0
 1442              		@ frame_needed = 0, uses_anonymous_args = 0
 1443              	.LVL210:
 1444 0000 10B5     		push	{r4, lr}
 1445              		.cfi_def_cfa_offset 8
 1446              		.cfi_offset 4, -8
 1447              		.cfi_offset 14, -4
 448:Source\azure_iot_sdk\iothub_client\src/iothubtransport.c ****     /*Codes_SRS_IOTHUBTRANSPORT_17_044: [ If transportHandle is NULL, IoTHubTransport_JoinWorkerThr
 449:Source\azure_iot_sdk\iothub_client\src/iothubtransport.c ****     /*Codes_SRS_IOTHUBTRANSPORT_17_045: [ If clientHandle is NULL, IoTHubTransport_JoinWorkerThread
 450:Source\azure_iot_sdk\iothub_client\src/iothubtransport.c ****     if (!(transportHandle == NULL || clientHandle == NULL))
 1448              		.loc 1 450 0
 1449 0002 0028     		cmp	r0, #0
 1450 0004 03D0     		beq	.L89
 1451              		.loc 1 450 0 is_stmt 0 discriminator 1
 1452 0006 0029     		cmp	r1, #0
 1453 0008 01D0     		beq	.L89
 1454              	.LVL211:
 1455              	.LBB29:
 451:Source\azure_iot_sdk\iothub_client\src/iothubtransport.c ****     {
 452:Source\azure_iot_sdk\iothub_client\src/iothubtransport.c ****         TRANSPORT_HANDLE_DATA * transportData = (TRANSPORT_HANDLE_DATA*)transportHandle;
 453:Source\azure_iot_sdk\iothub_client\src/iothubtransport.c ****         /*Codes_SRS_IOTHUBTRANSPORT_17_027: [ The worker thread shall be joined. ]*/
 454:Source\azure_iot_sdk\iothub_client\src/iothubtransport.c ****         wait_worker_thread(transportData);
 1456              		.loc 1 454 0 is_stmt 1
 1457 000a FFF7FEFF 		bl	wait_worker_thread
 1458              	.LVL212:
 1459              	.L89:
 1460              	.LBE29:
 455:Source\azure_iot_sdk\iothub_client\src/iothubtransport.c ****     }
 456:Source\azure_iot_sdk\iothub_client\src/iothubtransport.c **** }
 1461              		.loc 1 456 0
 1462              		@ sp needed
 1463 000e 10BD     		pop	{r4, pc}
 1464              		.cfi_endproc
 1465              	.LFE14:
 1466              		.size	IoTHubTransport_JoinWorkerThread, .-IoTHubTransport_JoinWorkerThread
 1467              		.global	IoTHubTransport_ThreadTerminationOffset
 1468              		.section	.rodata
 1469              		.align	2
 1470              		.set	.LANCHOR0,. + 0
 1471              		.set	.LANCHOR1,. + 128
 1472              		.type	__func__.7342, %object
ARM GAS  C:\Users\Phuong\AppData\Local\Temp\ccr8V995.s 			page 37


 1473              		.size	__func__.7342, 19
 1474              	__func__.7342:
 1475 0000 77616974 		.ascii	"wait_worker_thread\000"
 1475      5F776F72 
 1475      6B65725F 
 1475      74687265 
 1475      616400
 1476 0013 00       		.space	1
 1477              		.type	__func__.7324, %object
 1478              		.size	__func__.7324, 23
 1479              	__func__.7324:
 1480 0014 73746172 		.ascii	"start_worker_if_needed\000"
 1480      745F776F 
 1480      726B6572 
 1480      5F69665F 
 1480      6E656564 
 1481 002b 00       		.space	1
 1482              		.type	__func__.7294, %object
 1483              		.size	__func__.7294, 27
 1484              	__func__.7294:
 1485 002c 6D756C74 		.ascii	"multiplexed_client_do_work\000"
 1485      69706C65 
 1485      7865645F 
 1485      636C6965 
 1485      6E745F64 
 1486 0047 00       		.space	1
 1487              		.type	__func__.7351, %object
 1488              		.size	__func__.7351, 25
 1489              	__func__.7351:
 1490 0048 7369676E 		.ascii	"signal_end_worker_thread\000"
 1490      616C5F65 
 1490      6E645F77 
 1490      6F726B65 
 1490      725F7468 
 1491 0061 000000   		.space	3
 1492              		.type	__func__.7269, %object
 1493              		.size	__func__.7269, 23
 1494              	__func__.7269:
 1495 0064 496F5448 		.ascii	"IoTHubTransport_Create\000"
 1495      75625472 
 1495      616E7370 
 1495      6F72745F 
 1495      43726561 
 1496 007b 00       		.space	1
 1497              		.type	__func__.7363, %object
 1498              		.size	__func__.7363, 24
 1499              	__func__.7363:
 1500 007c 496F5448 		.ascii	"IoTHubTransport_Destroy\000"
 1500      75625472 
 1500      616E7370 
 1500      6F72745F 
 1500      44657374 
 1501              		.type	__func__.7384, %object
 1502              		.size	__func__.7384, 34
 1503              	__func__.7384:
 1504 0094 496F5448 		.ascii	"IoTHubTransport_StartWorkerThread\000"
 1504      75625472 
ARM GAS  C:\Users\Phuong\AppData\Local\Temp\ccr8V995.s 			page 38


 1504      616E7370 
 1504      6F72745F 
 1504      53746172 
 1505 00b6 0000     		.space	2
 1506              		.type	IoTHubTransport_ThreadTerminationOffset, %object
 1507              		.size	IoTHubTransport_ThreadTerminationOffset, 4
 1508              	IoTHubTransport_ThreadTerminationOffset:
 1509 00b8 0C000000 		.word	12
 1510              		.section	.rodata.str1.4,"aMS",%progbits,1
 1511              		.align	2
 1512              	.LC1:
 1513 0000 536F7572 		.ascii	"Source\\azure_iot_sdk\\iothub_client\\src\\iothubtr"
 1513      63655C61 
 1513      7A757265 
 1513      5F696F74 
 1513      5F73646B 
 1514 002f 616E7370 		.ascii	"ansport.c\000"
 1514      6F72742E 
 1514      6300
 1515 0039 000000   		.space	3
 1516              	.LC3:
 1517 003c 54687265 		.ascii	"ThreadAPI_Join failed\000"
 1517      61644150 
 1517      495F4A6F 
 1517      696E2066 
 1517      61696C65 
 1518 0052 0000     		.space	2
 1519              	.LC8:
 1520 0054 6661696C 		.ascii	"failed to lock for start_worker_if_needed\000"
 1520      65642074 
 1520      6F206C6F 
 1520      636B2066 
 1520      6F722073 
 1521 007e 0000     		.space	2
 1522              	.LC11:
 1523 0080 4661696C 		.ascii	"Failed adding device to list (VECTOR_push_back fail"
 1523      65642061 
 1523      6464696E 
 1523      67206465 
 1523      76696365 
 1524 00b3 65642900 		.ascii	"ed)\000"
 1525 00b7 00       		.space	1
 1526              	.LC13:
 1527 00b8 6661696C 		.ascii	"failed to unlock on start_worker_if_needed\000"
 1527      65642074 
 1527      6F20756E 
 1527      6C6F636B 
 1527      206F6E20 
 1528 00e3 00       		.space	1
 1529              	.LC17:
 1530 00e4 6661696C 		.ascii	"failed to lock for multiplexed_client_do_work\000"
 1530      65642074 
 1530      6F206C6F 
 1530      636B2066 
 1530      6F72206D 
 1531 0112 0000     		.space	2
 1532              	.LC19:
ARM GAS  C:\Users\Phuong\AppData\Local\Temp\ccr8V995.s 			page 39


 1533 0114 6661696C 		.ascii	"failed to unlock on multiplexed_client_do_work\000"
 1533      65642074 
 1533      6F20756E 
 1533      6C6F636B 
 1533      206F6E20 
 1534 0143 00       		.space	1
 1535              	.LC23:
 1536 0144 6661696C 		.ascii	"failed to lock for signal_end_worker_thread\000"
 1536      65642074 
 1536      6F206C6F 
 1536      636B2066 
 1536      6F722073 
 1537              	.LC26:
 1538 0170 6661696C 		.ascii	"failed to unlock on signal_end_worker_thread\000"
 1538      65642074 
 1538      6F20756E 
 1538      6C6F636B 
 1538      206F6E20 
 1539 019d 000000   		.space	3
 1540              	.LC30:
 1541 01a0 496E7661 		.ascii	"Invalid NULL argument, protocol [%p], name [%p], su"
 1541      6C696420 
 1541      4E554C4C 
 1541      20617267 
 1541      756D656E 
 1542 01d3 66666978 		.ascii	"ffix [%p].\000"
 1542      205B2570 
 1542      5D2E00
 1543 01de 0000     		.space	2
 1544              	.LC32:
 1545 01e0 5472616E 		.ascii	"Transport handle was not allocated.\000"
 1545      73706F72 
 1545      74206861 
 1545      6E646C65 
 1545      20776173 
 1546              	.LC34:
 1547 0204 4C6F7765 		.ascii	"Lower Layer transport not created.\000"
 1547      72204C61 
 1547      79657220 
 1547      7472616E 
 1547      73706F72 
 1548 0227 00       		.space	1
 1549              	.LC36:
 1550 0228 7472616E 		.ascii	"transport Lock not created.\000"
 1550      73706F72 
 1550      74204C6F 
 1550      636B206E 
 1550      6F742063 
 1551              	.LC38:
 1552 0244 636C6965 		.ascii	"clients Lock not created.\000"
 1552      6E747320 
 1552      4C6F636B 
 1552      206E6F74 
 1552      20637265 
 1553 025e 0000     		.space	2
 1554              	.LC40:
 1555 0260 636C6965 		.ascii	"clients list not created.\000"
ARM GAS  C:\Users\Phuong\AppData\Local\Temp\ccr8V995.s 			page 40


 1555      6E747320 
 1555      6C697374 
 1555      206E6F74 
 1555      20637265 
 1556 027a 0000     		.space	2
 1557              	.LC44:
 1558 027c 556E6162 		.ascii	"Unable to lock - will still attempt to end thread w"
 1558      6C652074 
 1558      6F206C6F 
 1558      636B202D 
 1558      2077696C 
 1559 02af 6974686F 		.ascii	"ithout thread safety\000"
 1559      75742074 
 1559      68726561 
 1559      64207361 
 1559      66657479 
 1560              	.LC48:
 1561 02c4 556E6162 		.ascii	"Unable to start thread safely\000"
 1561      6C652074 
 1561      6F207374 
 1561      61727420 
 1561      74687265 
 1562              		.text
 1563              	.Letext0:
 1564              		.file 2 "c:\\program files (x86)\\cypress\\psoc creator\\4.2\\psoc creator\\import\\gnu\\arm\\5.4.
 1565              		.file 3 "c:\\program files (x86)\\cypress\\psoc creator\\4.2\\psoc creator\\import\\gnu\\arm\\5.4.
 1566              		.file 4 "c:\\program files (x86)\\cypress\\psoc creator\\4.2\\psoc creator\\import\\gnu\\arm\\5.4.
 1567              		.file 5 "c:\\program files (x86)\\cypress\\psoc creator\\4.2\\psoc creator\\import\\gnu\\arm\\5.4.
 1568              		.file 6 ".\\Source\\azure_iot_sdk\\c-utility\\inc/azure_c_shared_utility/lock.h"
 1569              		.file 7 "c:\\program files (x86)\\cypress\\psoc creator\\4.2\\psoc creator\\import\\gnu\\arm\\5.4.
 1570              		.file 8 ".\\Source\\azure_iot_sdk\\iothub_client\\inc/iothub_transport_ll.h"
 1571              		.file 9 ".\\Source\\azure_iot_sdk\\iothub_client\\inc/internal/iothub_transport_ll_private.h"
 1572              		.file 10 ".\\Source\\azure_iot_sdk\\iothub_client\\inc/iothub_client_core_ll.h"
 1573              		.file 11 ".\\Source\\azure_iot_sdk\\c-utility\\inc/azure_c_shared_utility/strings_types.h"
 1574              		.file 12 ".\\Source\\azure_iot_sdk\\iothub_client\\inc/iothub_message.h"
 1575              		.file 13 ".\\Source\\azure_iot_sdk\\iothub_client\\inc/iothub_client_core_common.h"
 1576              		.file 14 ".\\Source\\azure_iot_sdk\\iothub_client\\inc/internal/iothubtransport.h"
 1577              		.file 15 ".\\Source\\azure_iot_sdk\\iothub_client\\inc/iothub_client_core.h"
 1578              		.file 16 ".\\Source\\azure_iot_sdk\\c-utility\\inc/azure_c_shared_utility/constbuffer.h"
 1579              		.file 17 ".\\Source\\azure_iot_sdk\\c-utility\\inc/azure_c_shared_utility/doublylinkedlist.h"
 1580              		.file 18 ".\\Source\\azure_iot_sdk\\c-utility\\inc/azure_c_shared_utility/tickcounter.h"
 1581              		.file 19 ".\\Source\\azure_iot_sdk\\iothub_client\\inc/internal/iothub_client_authorization.h"
 1582              		.file 20 ".\\Source\\azure_iot_sdk\\iothub_client\\inc/internal/iothub_client_private.h"
 1583              		.file 21 ".\\Source\\azure_iot_sdk\\iothub_client\\inc/iothub_client_ll.h"
 1584              		.file 22 ".\\Source\\azure_iot_sdk\\c-utility\\inc/azure_c_shared_utility/threadapi.h"
 1585              		.file 23 ".\\Source\\azure_iot_sdk\\c-utility\\inc/azure_c_shared_utility/xlogging.h"
 1586              		.file 24 ".\\Source\\azure_iot_sdk\\c-utility\\inc/azure_c_shared_utility/vector_types.h"
 1587              		.file 25 ".\\Source\\azure_iot_sdk\\c-utility\\inc/azure_c_shared_utility/vector.h"
 1588              		.file 26 "c:\\program files (x86)\\cypress\\psoc creator\\4.2\\psoc creator\\import\\gnu\\arm\\5.4