ARM GAS  C:\Users\Phuong\AppData\Local\Temp\ccu7x7Ah.s 			page 1


   1              		.syntax unified
   2              		.cpu cortex-m0plus
   3              		.fpu softvfp
   4              		.eabi_attribute 20, 1
   5              		.eabi_attribute 21, 1
   6              		.eabi_attribute 23, 3
   7              		.eabi_attribute 24, 1
   8              		.eabi_attribute 25, 1
   9              		.eabi_attribute 26, 1
  10              		.eabi_attribute 30, 1
  11              		.eabi_attribute 34, 0
  12              		.eabi_attribute 18, 4
  13              		.thumb
  14              		.syntax unified
  15              		.file	"iothubtransportamqp_methods.c"
  16              		.text
  17              	.Ltext0:
  18              		.cfi_sections	.debug_frame
  19              		.section	.text.call_methods_unsubscribed_if_needed,"ax",%progbits
  20              		.align	2
  21              		.code	16
  22              		.thumb_func
  23              		.type	call_methods_unsubscribed_if_needed, %function
  24              	call_methods_unsubscribed_if_needed:
  25              	.LFB4:
  26              		.file 1 "Source\\azure_iot_sdk\\iothub_client\\src\\iothubtransportamqp_methods.c"
   1:Source\azure_iot_sdk\iothub_client\src/iothubtransportamqp_methods.c **** // Copyright (c) Microsoft. All rights reserved.
   2:Source\azure_iot_sdk\iothub_client\src/iothubtransportamqp_methods.c **** // Licensed under the MIT license. See LICENSE file in the project root for full license informatio
   3:Source\azure_iot_sdk\iothub_client\src/iothubtransportamqp_methods.c **** 
   4:Source\azure_iot_sdk\iothub_client\src/iothubtransportamqp_methods.c **** #include <stdlib.h>
   5:Source\azure_iot_sdk\iothub_client\src/iothubtransportamqp_methods.c **** #include <stddef.h>
   6:Source\azure_iot_sdk\iothub_client\src/iothubtransportamqp_methods.c **** #include "azure_c_shared_utility/optimize_size.h"
   7:Source\azure_iot_sdk\iothub_client\src/iothubtransportamqp_methods.c **** #include "azure_c_shared_utility/gballoc.h"
   8:Source\azure_iot_sdk\iothub_client\src/iothubtransportamqp_methods.c **** #include "azure_c_shared_utility/crt_abstractions.h"
   9:Source\azure_iot_sdk\iothub_client\src/iothubtransportamqp_methods.c **** #include "azure_c_shared_utility/xlogging.h"
  10:Source\azure_iot_sdk\iothub_client\src/iothubtransportamqp_methods.c **** #include "azure_c_shared_utility/strings.h"
  11:Source\azure_iot_sdk\iothub_client\src/iothubtransportamqp_methods.c **** #include "azure_uamqp_c/link.h"
  12:Source\azure_iot_sdk\iothub_client\src/iothubtransportamqp_methods.c **** #include "azure_uamqp_c/messaging.h"
  13:Source\azure_iot_sdk\iothub_client\src/iothubtransportamqp_methods.c **** #include "azure_uamqp_c/message_receiver.h"
  14:Source\azure_iot_sdk\iothub_client\src/iothubtransportamqp_methods.c **** #include "azure_uamqp_c/message_sender.h"
  15:Source\azure_iot_sdk\iothub_client\src/iothubtransportamqp_methods.c **** #include "azure_uamqp_c/amqp_definitions_application_properties.h"
  16:Source\azure_iot_sdk\iothub_client\src/iothubtransportamqp_methods.c **** 
  17:Source\azure_iot_sdk\iothub_client\src/iothubtransportamqp_methods.c **** #include "internal/iothubtransportamqp_methods.h"
  18:Source\azure_iot_sdk\iothub_client\src/iothubtransportamqp_methods.c **** 
  19:Source\azure_iot_sdk\iothub_client\src/iothubtransportamqp_methods.c **** typedef enum SUBSCRIBE_STATE_TAG
  20:Source\azure_iot_sdk\iothub_client\src/iothubtransportamqp_methods.c **** {
  21:Source\azure_iot_sdk\iothub_client\src/iothubtransportamqp_methods.c ****     SUBSCRIBE_STATE_NOT_SUBSCRIBED,
  22:Source\azure_iot_sdk\iothub_client\src/iothubtransportamqp_methods.c ****     SUBSCRIBE_STATE_SUBSCRIBED
  23:Source\azure_iot_sdk\iothub_client\src/iothubtransportamqp_methods.c **** } SUBSCRIBE_STATE;
  24:Source\azure_iot_sdk\iothub_client\src/iothubtransportamqp_methods.c **** 
  25:Source\azure_iot_sdk\iothub_client\src/iothubtransportamqp_methods.c **** typedef struct IOTHUBTRANSPORT_AMQP_METHODS_TAG
  26:Source\azure_iot_sdk\iothub_client\src/iothubtransportamqp_methods.c **** {
  27:Source\azure_iot_sdk\iothub_client\src/iothubtransportamqp_methods.c ****     char* device_id;
  28:Source\azure_iot_sdk\iothub_client\src/iothubtransportamqp_methods.c ****     char* module_id;
  29:Source\azure_iot_sdk\iothub_client\src/iothubtransportamqp_methods.c ****     char* hostname;
  30:Source\azure_iot_sdk\iothub_client\src/iothubtransportamqp_methods.c ****     LINK_HANDLE receiver_link;
  31:Source\azure_iot_sdk\iothub_client\src/iothubtransportamqp_methods.c ****     LINK_HANDLE sender_link;
ARM GAS  C:\Users\Phuong\AppData\Local\Temp\ccu7x7Ah.s 			page 2


  32:Source\azure_iot_sdk\iothub_client\src/iothubtransportamqp_methods.c ****     MESSAGE_RECEIVER_HANDLE message_receiver;
  33:Source\azure_iot_sdk\iothub_client\src/iothubtransportamqp_methods.c ****     MESSAGE_SENDER_HANDLE message_sender;
  34:Source\azure_iot_sdk\iothub_client\src/iothubtransportamqp_methods.c ****     ON_METHOD_REQUEST_RECEIVED on_method_request_received;
  35:Source\azure_iot_sdk\iothub_client\src/iothubtransportamqp_methods.c ****     void* on_method_request_received_context;
  36:Source\azure_iot_sdk\iothub_client\src/iothubtransportamqp_methods.c ****     ON_METHODS_ERROR on_methods_error;
  37:Source\azure_iot_sdk\iothub_client\src/iothubtransportamqp_methods.c ****     void* on_methods_error_context;
  38:Source\azure_iot_sdk\iothub_client\src/iothubtransportamqp_methods.c ****     ON_METHODS_UNSUBSCRIBED on_methods_unsubscribed;
  39:Source\azure_iot_sdk\iothub_client\src/iothubtransportamqp_methods.c ****     void* on_methods_unsubscribed_context;
  40:Source\azure_iot_sdk\iothub_client\src/iothubtransportamqp_methods.c ****     SUBSCRIBE_STATE subscribe_state;
  41:Source\azure_iot_sdk\iothub_client\src/iothubtransportamqp_methods.c ****     IOTHUBTRANSPORT_AMQP_METHOD_HANDLE* method_request_handles;
  42:Source\azure_iot_sdk\iothub_client\src/iothubtransportamqp_methods.c ****     size_t method_request_handle_count;
  43:Source\azure_iot_sdk\iothub_client\src/iothubtransportamqp_methods.c ****     bool receiver_link_disconnected;
  44:Source\azure_iot_sdk\iothub_client\src/iothubtransportamqp_methods.c ****     bool sender_link_disconnected;
  45:Source\azure_iot_sdk\iothub_client\src/iothubtransportamqp_methods.c **** } IOTHUBTRANSPORT_AMQP_METHODS;
  46:Source\azure_iot_sdk\iothub_client\src/iothubtransportamqp_methods.c **** 
  47:Source\azure_iot_sdk\iothub_client\src/iothubtransportamqp_methods.c **** typedef enum MESSAGE_OUTCOME_TAG
  48:Source\azure_iot_sdk\iothub_client\src/iothubtransportamqp_methods.c **** {
  49:Source\azure_iot_sdk\iothub_client\src/iothubtransportamqp_methods.c ****     MESSAGE_OUTCOME_ACCEPTED,
  50:Source\azure_iot_sdk\iothub_client\src/iothubtransportamqp_methods.c ****     MESSAGE_OUTCOME_REJECTED,
  51:Source\azure_iot_sdk\iothub_client\src/iothubtransportamqp_methods.c ****     MESSAGE_OUTCOME_RELEASED
  52:Source\azure_iot_sdk\iothub_client\src/iothubtransportamqp_methods.c **** } MESSAGE_OUTCOME;
  53:Source\azure_iot_sdk\iothub_client\src/iothubtransportamqp_methods.c **** 
  54:Source\azure_iot_sdk\iothub_client\src/iothubtransportamqp_methods.c **** typedef struct IOTHUBTRANSPORT_AMQP_METHOD_TAG
  55:Source\azure_iot_sdk\iothub_client\src/iothubtransportamqp_methods.c **** {
  56:Source\azure_iot_sdk\iothub_client\src/iothubtransportamqp_methods.c ****     IOTHUBTRANSPORT_AMQP_METHODS_HANDLE iothubtransport_amqp_methods_handle;
  57:Source\azure_iot_sdk\iothub_client\src/iothubtransportamqp_methods.c ****     uuid correlation_id;
  58:Source\azure_iot_sdk\iothub_client\src/iothubtransportamqp_methods.c **** } IOTHUBTRANSPORT_AMQP_METHOD;
  59:Source\azure_iot_sdk\iothub_client\src/iothubtransportamqp_methods.c **** 
  60:Source\azure_iot_sdk\iothub_client\src/iothubtransportamqp_methods.c **** static void remove_tracked_handle(IOTHUBTRANSPORT_AMQP_METHODS* amqp_methods_handle, IOTHUBTRANSPOR
  61:Source\azure_iot_sdk\iothub_client\src/iothubtransportamqp_methods.c **** {
  62:Source\azure_iot_sdk\iothub_client\src/iothubtransportamqp_methods.c ****     size_t i;
  63:Source\azure_iot_sdk\iothub_client\src/iothubtransportamqp_methods.c **** 
  64:Source\azure_iot_sdk\iothub_client\src/iothubtransportamqp_methods.c ****     for (i = 0; i < amqp_methods_handle->method_request_handle_count; i++)
  65:Source\azure_iot_sdk\iothub_client\src/iothubtransportamqp_methods.c ****     {
  66:Source\azure_iot_sdk\iothub_client\src/iothubtransportamqp_methods.c ****         if (amqp_methods_handle->method_request_handles[i] == method_request_handle)
  67:Source\azure_iot_sdk\iothub_client\src/iothubtransportamqp_methods.c ****         {
  68:Source\azure_iot_sdk\iothub_client\src/iothubtransportamqp_methods.c ****             if (amqp_methods_handle->method_request_handle_count - i > 1)
  69:Source\azure_iot_sdk\iothub_client\src/iothubtransportamqp_methods.c ****             {
  70:Source\azure_iot_sdk\iothub_client\src/iothubtransportamqp_methods.c ****                 (void)memmove(&amqp_methods_handle->method_request_handles[i], &amqp_methods_handle
  71:Source\azure_iot_sdk\iothub_client\src/iothubtransportamqp_methods.c ****                     (amqp_methods_handle->method_request_handle_count - i - 1) * sizeof(IOTHUBTRANS
  72:Source\azure_iot_sdk\iothub_client\src/iothubtransportamqp_methods.c ****             }
  73:Source\azure_iot_sdk\iothub_client\src/iothubtransportamqp_methods.c **** 
  74:Source\azure_iot_sdk\iothub_client\src/iothubtransportamqp_methods.c ****             amqp_methods_handle->method_request_handle_count--;
  75:Source\azure_iot_sdk\iothub_client\src/iothubtransportamqp_methods.c ****             i--;
  76:Source\azure_iot_sdk\iothub_client\src/iothubtransportamqp_methods.c ****         }
  77:Source\azure_iot_sdk\iothub_client\src/iothubtransportamqp_methods.c ****     }
  78:Source\azure_iot_sdk\iothub_client\src/iothubtransportamqp_methods.c **** 
  79:Source\azure_iot_sdk\iothub_client\src/iothubtransportamqp_methods.c ****     if (amqp_methods_handle->method_request_handle_count == 0)
  80:Source\azure_iot_sdk\iothub_client\src/iothubtransportamqp_methods.c ****     {
  81:Source\azure_iot_sdk\iothub_client\src/iothubtransportamqp_methods.c ****         free(amqp_methods_handle->method_request_handles);
  82:Source\azure_iot_sdk\iothub_client\src/iothubtransportamqp_methods.c ****         amqp_methods_handle->method_request_handles = NULL;
  83:Source\azure_iot_sdk\iothub_client\src/iothubtransportamqp_methods.c ****     }
  84:Source\azure_iot_sdk\iothub_client\src/iothubtransportamqp_methods.c ****     else
  85:Source\azure_iot_sdk\iothub_client\src/iothubtransportamqp_methods.c ****     {
  86:Source\azure_iot_sdk\iothub_client\src/iothubtransportamqp_methods.c ****         IOTHUBTRANSPORT_AMQP_METHOD_HANDLE* new_handles = (IOTHUBTRANSPORT_AMQP_METHOD_HANDLE*)real
  87:Source\azure_iot_sdk\iothub_client\src/iothubtransportamqp_methods.c ****         if (new_handles != NULL)
  88:Source\azure_iot_sdk\iothub_client\src/iothubtransportamqp_methods.c ****         {
ARM GAS  C:\Users\Phuong\AppData\Local\Temp\ccu7x7Ah.s 			page 3


  89:Source\azure_iot_sdk\iothub_client\src/iothubtransportamqp_methods.c ****             amqp_methods_handle->method_request_handles = new_handles;
  90:Source\azure_iot_sdk\iothub_client\src/iothubtransportamqp_methods.c ****         }
  91:Source\azure_iot_sdk\iothub_client\src/iothubtransportamqp_methods.c ****     }
  92:Source\azure_iot_sdk\iothub_client\src/iothubtransportamqp_methods.c **** }
  93:Source\azure_iot_sdk\iothub_client\src/iothubtransportamqp_methods.c **** 
  94:Source\azure_iot_sdk\iothub_client\src/iothubtransportamqp_methods.c **** IOTHUBTRANSPORT_AMQP_METHODS_HANDLE iothubtransportamqp_methods_create(const char* hostname, const 
  95:Source\azure_iot_sdk\iothub_client\src/iothubtransportamqp_methods.c **** {
  96:Source\azure_iot_sdk\iothub_client\src/iothubtransportamqp_methods.c ****     IOTHUBTRANSPORT_AMQP_METHODS* result;
  97:Source\azure_iot_sdk\iothub_client\src/iothubtransportamqp_methods.c **** 
  98:Source\azure_iot_sdk\iothub_client\src/iothubtransportamqp_methods.c ****     if ((hostname == NULL) ||
  99:Source\azure_iot_sdk\iothub_client\src/iothubtransportamqp_methods.c ****         (device_id == NULL))
 100:Source\azure_iot_sdk\iothub_client\src/iothubtransportamqp_methods.c ****     {
 101:Source\azure_iot_sdk\iothub_client\src/iothubtransportamqp_methods.c ****         /* Codes_SRS_IOTHUBTRANSPORT_AMQP_METHODS_01_002: [ If any argument is NULL, `iothubtranspo
 102:Source\azure_iot_sdk\iothub_client\src/iothubtransportamqp_methods.c ****         result = NULL;
 103:Source\azure_iot_sdk\iothub_client\src/iothubtransportamqp_methods.c ****         LogError("Bad arguments: hostname=%p, device_id=%p", hostname, device_id);
 104:Source\azure_iot_sdk\iothub_client\src/iothubtransportamqp_methods.c ****     }
 105:Source\azure_iot_sdk\iothub_client\src/iothubtransportamqp_methods.c ****     else
 106:Source\azure_iot_sdk\iothub_client\src/iothubtransportamqp_methods.c ****     {
 107:Source\azure_iot_sdk\iothub_client\src/iothubtransportamqp_methods.c ****         /* Codes_SRS_IOTHUBTRANSPORT_AMQP_METHODS_01_001: [ `iothubtransportamqp_methods_create` sh
 108:Source\azure_iot_sdk\iothub_client\src/iothubtransportamqp_methods.c ****         /* Codes_SRS_IOTHUBTRANSPORT_AMQP_METHODS_01_003: [ `iothubtransportamqp_methods_create` sh
 109:Source\azure_iot_sdk\iothub_client\src/iothubtransportamqp_methods.c ****         result = malloc(sizeof(IOTHUBTRANSPORT_AMQP_METHODS));
 110:Source\azure_iot_sdk\iothub_client\src/iothubtransportamqp_methods.c ****         if (result == NULL)
 111:Source\azure_iot_sdk\iothub_client\src/iothubtransportamqp_methods.c ****         {
 112:Source\azure_iot_sdk\iothub_client\src/iothubtransportamqp_methods.c ****             /* Codes_SRS_IOTHUBTRANSPORT_AMQP_METHODS_01_004: [ If allocating memory fails, `iothub
 113:Source\azure_iot_sdk\iothub_client\src/iothubtransportamqp_methods.c ****             LogError("Cannot allocate memory for AMQP C2D methods handle");
 114:Source\azure_iot_sdk\iothub_client\src/iothubtransportamqp_methods.c ****         }
 115:Source\azure_iot_sdk\iothub_client\src/iothubtransportamqp_methods.c ****         else
 116:Source\azure_iot_sdk\iothub_client\src/iothubtransportamqp_methods.c ****         {
 117:Source\azure_iot_sdk\iothub_client\src/iothubtransportamqp_methods.c ****             memset(result, 0, sizeof(IOTHUBTRANSPORT_AMQP_METHODS));
 118:Source\azure_iot_sdk\iothub_client\src/iothubtransportamqp_methods.c **** 
 119:Source\azure_iot_sdk\iothub_client\src/iothubtransportamqp_methods.c ****             /* Codes_SRS_IOTHUBTRANSPORT_AMQP_METHODS_01_115: [ `iothubtransportamqp_methods_create
 120:Source\azure_iot_sdk\iothub_client\src/iothubtransportamqp_methods.c ****             if (mallocAndStrcpy_s(&result->device_id, device_id) != 0)
 121:Source\azure_iot_sdk\iothub_client\src/iothubtransportamqp_methods.c ****             {
 122:Source\azure_iot_sdk\iothub_client\src/iothubtransportamqp_methods.c ****                 /* Codes_SRS_IOTHUBTRANSPORT_AMQP_METHODS_01_116: [ If `mallocAndStrcpy_s` fails, `
 123:Source\azure_iot_sdk\iothub_client\src/iothubtransportamqp_methods.c ****                 LogError("Cannot copy device_id");
 124:Source\azure_iot_sdk\iothub_client\src/iothubtransportamqp_methods.c ****                 free(result);
 125:Source\azure_iot_sdk\iothub_client\src/iothubtransportamqp_methods.c ****                 result = NULL;
 126:Source\azure_iot_sdk\iothub_client\src/iothubtransportamqp_methods.c ****             }
 127:Source\azure_iot_sdk\iothub_client\src/iothubtransportamqp_methods.c ****             else if ((module_id != NULL) && (mallocAndStrcpy_s(&result->module_id, module_id) != 0)
 128:Source\azure_iot_sdk\iothub_client\src/iothubtransportamqp_methods.c ****             {
 129:Source\azure_iot_sdk\iothub_client\src/iothubtransportamqp_methods.c ****                 /* Codes_SRS_IOTHUBTRANSPORT_AMQP_METHODS_01_116: [ If `mallocAndStrcpy_s` fails, `
 130:Source\azure_iot_sdk\iothub_client\src/iothubtransportamqp_methods.c ****                 LogError("Cannot copy device_id");
 131:Source\azure_iot_sdk\iothub_client\src/iothubtransportamqp_methods.c ****                 free(result->device_id);
 132:Source\azure_iot_sdk\iothub_client\src/iothubtransportamqp_methods.c ****                 free(result);
 133:Source\azure_iot_sdk\iothub_client\src/iothubtransportamqp_methods.c ****                 result = NULL;
 134:Source\azure_iot_sdk\iothub_client\src/iothubtransportamqp_methods.c ****             }
 135:Source\azure_iot_sdk\iothub_client\src/iothubtransportamqp_methods.c ****             else
 136:Source\azure_iot_sdk\iothub_client\src/iothubtransportamqp_methods.c ****             {
 137:Source\azure_iot_sdk\iothub_client\src/iothubtransportamqp_methods.c ****                 /* Codes_SRS_IOTHUBTRANSPORT_AMQP_METHODS_01_139: [ `iothubtransportamqp_methods_cr
 138:Source\azure_iot_sdk\iothub_client\src/iothubtransportamqp_methods.c ****                 if (mallocAndStrcpy_s(&result->hostname, hostname) != 0)
 139:Source\azure_iot_sdk\iothub_client\src/iothubtransportamqp_methods.c ****                 {
 140:Source\azure_iot_sdk\iothub_client\src/iothubtransportamqp_methods.c ****                     /* Codes_SRS_IOTHUBTRANSPORT_AMQP_METHODS_01_116: [ If `mallocAndStrcpy_s` fail
 141:Source\azure_iot_sdk\iothub_client\src/iothubtransportamqp_methods.c ****                     LogError("Cannot copy hostname");
 142:Source\azure_iot_sdk\iothub_client\src/iothubtransportamqp_methods.c ****                     free(result->device_id);
 143:Source\azure_iot_sdk\iothub_client\src/iothubtransportamqp_methods.c ****                     free(result->module_id);
 144:Source\azure_iot_sdk\iothub_client\src/iothubtransportamqp_methods.c ****                     free(result);
 145:Source\azure_iot_sdk\iothub_client\src/iothubtransportamqp_methods.c ****                     result = NULL;
ARM GAS  C:\Users\Phuong\AppData\Local\Temp\ccu7x7Ah.s 			page 4


 146:Source\azure_iot_sdk\iothub_client\src/iothubtransportamqp_methods.c ****                 }
 147:Source\azure_iot_sdk\iothub_client\src/iothubtransportamqp_methods.c ****                 else
 148:Source\azure_iot_sdk\iothub_client\src/iothubtransportamqp_methods.c ****                 {
 149:Source\azure_iot_sdk\iothub_client\src/iothubtransportamqp_methods.c ****                     result->subscribe_state = SUBSCRIBE_STATE_NOT_SUBSCRIBED;
 150:Source\azure_iot_sdk\iothub_client\src/iothubtransportamqp_methods.c ****                     result->method_request_handles = NULL;
 151:Source\azure_iot_sdk\iothub_client\src/iothubtransportamqp_methods.c ****                     result->method_request_handle_count = 0;
 152:Source\azure_iot_sdk\iothub_client\src/iothubtransportamqp_methods.c ****                     result->receiver_link_disconnected = false;
 153:Source\azure_iot_sdk\iothub_client\src/iothubtransportamqp_methods.c ****                     result->sender_link_disconnected = false;
 154:Source\azure_iot_sdk\iothub_client\src/iothubtransportamqp_methods.c ****                 }
 155:Source\azure_iot_sdk\iothub_client\src/iothubtransportamqp_methods.c ****             }
 156:Source\azure_iot_sdk\iothub_client\src/iothubtransportamqp_methods.c ****         }
 157:Source\azure_iot_sdk\iothub_client\src/iothubtransportamqp_methods.c ****     }
 158:Source\azure_iot_sdk\iothub_client\src/iothubtransportamqp_methods.c **** 
 159:Source\azure_iot_sdk\iothub_client\src/iothubtransportamqp_methods.c ****     return result;
 160:Source\azure_iot_sdk\iothub_client\src/iothubtransportamqp_methods.c **** }
 161:Source\azure_iot_sdk\iothub_client\src/iothubtransportamqp_methods.c **** 
 162:Source\azure_iot_sdk\iothub_client\src/iothubtransportamqp_methods.c **** void iothubtransportamqp_methods_destroy(IOTHUBTRANSPORT_AMQP_METHODS_HANDLE iothubtransport_amqp_m
 163:Source\azure_iot_sdk\iothub_client\src/iothubtransportamqp_methods.c **** {
 164:Source\azure_iot_sdk\iothub_client\src/iothubtransportamqp_methods.c ****     /* Codes_SRS_IOTHUBTRANSPORT_AMQP_METHODS_01_006: [ If `iothubtransport_amqp_methods_handle` is
 165:Source\azure_iot_sdk\iothub_client\src/iothubtransportamqp_methods.c ****     if (iothubtransport_amqp_methods_handle == NULL)
 166:Source\azure_iot_sdk\iothub_client\src/iothubtransportamqp_methods.c ****     {
 167:Source\azure_iot_sdk\iothub_client\src/iothubtransportamqp_methods.c ****         LogError("NULL handle");
 168:Source\azure_iot_sdk\iothub_client\src/iothubtransportamqp_methods.c ****     }
 169:Source\azure_iot_sdk\iothub_client\src/iothubtransportamqp_methods.c ****     else
 170:Source\azure_iot_sdk\iothub_client\src/iothubtransportamqp_methods.c ****     {
 171:Source\azure_iot_sdk\iothub_client\src/iothubtransportamqp_methods.c ****         size_t i;
 172:Source\azure_iot_sdk\iothub_client\src/iothubtransportamqp_methods.c **** 
 173:Source\azure_iot_sdk\iothub_client\src/iothubtransportamqp_methods.c ****         /* Codes_SRS_IOTHUBTRANSPORT_AMQP_METHODS_01_007: [ If the instance pointed to by `iothubtr
 174:Source\azure_iot_sdk\iothub_client\src/iothubtransportamqp_methods.c ****         if (iothubtransport_amqp_methods_handle->subscribe_state == SUBSCRIBE_STATE_SUBSCRIBED)
 175:Source\azure_iot_sdk\iothub_client\src/iothubtransportamqp_methods.c ****         {
 176:Source\azure_iot_sdk\iothub_client\src/iothubtransportamqp_methods.c ****             iothubtransportamqp_methods_unsubscribe(iothubtransport_amqp_methods_handle);
 177:Source\azure_iot_sdk\iothub_client\src/iothubtransportamqp_methods.c ****         }
 178:Source\azure_iot_sdk\iothub_client\src/iothubtransportamqp_methods.c **** 
 179:Source\azure_iot_sdk\iothub_client\src/iothubtransportamqp_methods.c ****         for (i = 0; i < iothubtransport_amqp_methods_handle->method_request_handle_count; i++)
 180:Source\azure_iot_sdk\iothub_client\src/iothubtransportamqp_methods.c ****         {
 181:Source\azure_iot_sdk\iothub_client\src/iothubtransportamqp_methods.c ****             free(iothubtransport_amqp_methods_handle->method_request_handles[i]);
 182:Source\azure_iot_sdk\iothub_client\src/iothubtransportamqp_methods.c ****         }
 183:Source\azure_iot_sdk\iothub_client\src/iothubtransportamqp_methods.c **** 
 184:Source\azure_iot_sdk\iothub_client\src/iothubtransportamqp_methods.c ****         if (iothubtransport_amqp_methods_handle->method_request_handles != NULL)
 185:Source\azure_iot_sdk\iothub_client\src/iothubtransportamqp_methods.c ****         {
 186:Source\azure_iot_sdk\iothub_client\src/iothubtransportamqp_methods.c ****             free(iothubtransport_amqp_methods_handle->method_request_handles);
 187:Source\azure_iot_sdk\iothub_client\src/iothubtransportamqp_methods.c ****         }
 188:Source\azure_iot_sdk\iothub_client\src/iothubtransportamqp_methods.c **** 
 189:Source\azure_iot_sdk\iothub_client\src/iothubtransportamqp_methods.c ****         /* Codes_SRS_IOTHUBTRANSPORT_AMQP_METHODS_01_005: [ `iothubtransportamqp_methods_destroy` s
 190:Source\azure_iot_sdk\iothub_client\src/iothubtransportamqp_methods.c ****         free(iothubtransport_amqp_methods_handle->hostname);
 191:Source\azure_iot_sdk\iothub_client\src/iothubtransportamqp_methods.c ****         free(iothubtransport_amqp_methods_handle->device_id);
 192:Source\azure_iot_sdk\iothub_client\src/iothubtransportamqp_methods.c ****         free(iothubtransport_amqp_methods_handle->module_id);
 193:Source\azure_iot_sdk\iothub_client\src/iothubtransportamqp_methods.c ****         free(iothubtransport_amqp_methods_handle);
 194:Source\azure_iot_sdk\iothub_client\src/iothubtransportamqp_methods.c ****     }
 195:Source\azure_iot_sdk\iothub_client\src/iothubtransportamqp_methods.c **** }
 196:Source\azure_iot_sdk\iothub_client\src/iothubtransportamqp_methods.c **** 
 197:Source\azure_iot_sdk\iothub_client\src/iothubtransportamqp_methods.c **** static void call_methods_unsubscribed_if_needed(IOTHUBTRANSPORT_AMQP_METHODS_HANDLE amqp_methods_ha
 198:Source\azure_iot_sdk\iothub_client\src/iothubtransportamqp_methods.c **** {
  27              		.loc 1 198 0
  28              		.cfi_startproc
  29              		@ args = 0, pretend = 0, frame = 0
  30              		@ frame_needed = 0, uses_anonymous_args = 0
ARM GAS  C:\Users\Phuong\AppData\Local\Temp\ccu7x7Ah.s 			page 5


  31              	.LVL0:
  32 0000 10B5     		push	{r4, lr}
  33              		.cfi_def_cfa_offset 8
  34              		.cfi_offset 4, -8
  35              		.cfi_offset 14, -4
 199:Source\azure_iot_sdk\iothub_client\src/iothubtransportamqp_methods.c ****     if (amqp_methods_handle->receiver_link_disconnected && amqp_methods_handle->sender_link_disconn
  36              		.loc 1 199 0
  37 0002 4023     		movs	r3, #64
  38 0004 C35C     		ldrb	r3, [r0, r3]
  39 0006 002B     		cmp	r3, #0
  40 0008 0BD0     		beq	.L1
  41              		.loc 1 199 0 is_stmt 0 discriminator 1
  42 000a 4123     		movs	r3, #65
  43 000c C35C     		ldrb	r3, [r0, r3]
  44 000e 002B     		cmp	r3, #0
  45 0010 07D0     		beq	.L1
 200:Source\azure_iot_sdk\iothub_client\src/iothubtransportamqp_methods.c ****     {
 201:Source\azure_iot_sdk\iothub_client\src/iothubtransportamqp_methods.c ****         amqp_methods_handle->receiver_link_disconnected = false;
  46              		.loc 1 201 0 is_stmt 1
  47 0012 0023     		movs	r3, #0
  48 0014 4022     		movs	r2, #64
  49 0016 8354     		strb	r3, [r0, r2]
 202:Source\azure_iot_sdk\iothub_client\src/iothubtransportamqp_methods.c ****         amqp_methods_handle->sender_link_disconnected = false;
  50              		.loc 1 202 0
  51 0018 0132     		adds	r2, r2, #1
  52 001a 8354     		strb	r3, [r0, r2]
 203:Source\azure_iot_sdk\iothub_client\src/iothubtransportamqp_methods.c ****         amqp_methods_handle->on_methods_unsubscribed(amqp_methods_handle->on_methods_unsubscribed_c
  53              		.loc 1 203 0
  54 001c C36A     		ldr	r3, [r0, #44]
  55 001e 006B     		ldr	r0, [r0, #48]
  56              	.LVL1:
  57 0020 9847     		blx	r3
  58              	.LVL2:
  59              	.L1:
 204:Source\azure_iot_sdk\iothub_client\src/iothubtransportamqp_methods.c ****     }
 205:Source\azure_iot_sdk\iothub_client\src/iothubtransportamqp_methods.c **** }
  60              		.loc 1 205 0
  61              		@ sp needed
  62 0022 10BD     		pop	{r4, pc}
  63              		.cfi_endproc
  64              	.LFE4:
  65              		.size	call_methods_unsubscribed_if_needed, .-call_methods_unsubscribed_if_needed
  66              		.section	.text.on_message_receiver_state_changed,"ax",%progbits
  67              		.align	2
  68              		.code	16
  69              		.thumb_func
  70              		.type	on_message_receiver_state_changed, %function
  71              	on_message_receiver_state_changed:
  72              	.LFB5:
 206:Source\azure_iot_sdk\iothub_client\src/iothubtransportamqp_methods.c **** 
 207:Source\azure_iot_sdk\iothub_client\src/iothubtransportamqp_methods.c **** static void on_message_receiver_state_changed(const void* context, MESSAGE_RECEIVER_STATE new_state
 208:Source\azure_iot_sdk\iothub_client\src/iothubtransportamqp_methods.c **** {
  73              		.loc 1 208 0
  74              		.cfi_startproc
  75              		@ args = 0, pretend = 0, frame = 0
  76              		@ frame_needed = 0, uses_anonymous_args = 0
  77              	.LVL3:
ARM GAS  C:\Users\Phuong\AppData\Local\Temp\ccu7x7Ah.s 			page 6


  78 0000 10B5     		push	{r4, lr}
  79              		.cfi_def_cfa_offset 8
  80              		.cfi_offset 4, -8
  81              		.cfi_offset 14, -4
  82              	.LVL4:
 209:Source\azure_iot_sdk\iothub_client\src/iothubtransportamqp_methods.c ****     /* Codes_SRS_IOTHUBTRANSPORT_AMQP_METHODS_01_119: [ When `on_message_receiver_state_changed` is
 210:Source\azure_iot_sdk\iothub_client\src/iothubtransportamqp_methods.c ****     /* Codes_SRS_IOTHUBTRANSPORT_AMQP_METHODS_01_126: [ For the other state changes, on_message_rec
 211:Source\azure_iot_sdk\iothub_client\src/iothubtransportamqp_methods.c ****     IOTHUBTRANSPORT_AMQP_METHODS_HANDLE amqp_methods_handle = (IOTHUBTRANSPORT_AMQP_METHODS_HANDLE)
 212:Source\azure_iot_sdk\iothub_client\src/iothubtransportamqp_methods.c ****     if ((new_state != previous_state) &&
  83              		.loc 1 212 0
  84 0002 9142     		cmp	r1, r2
  85 0004 05D0     		beq	.L4
  86              		.loc 1 212 0 is_stmt 0 discriminator 1
  87 0006 0429     		cmp	r1, #4
  88 0008 03D1     		bne	.L4
 213:Source\azure_iot_sdk\iothub_client\src/iothubtransportamqp_methods.c ****         (new_state == MESSAGE_RECEIVER_STATE_ERROR))
 214:Source\azure_iot_sdk\iothub_client\src/iothubtransportamqp_methods.c ****     {
 215:Source\azure_iot_sdk\iothub_client\src/iothubtransportamqp_methods.c ****         /* Codes_SRS_IOTHUBTRANSPORT_AMQP_METHODS_01_120: [ When an error is indicated by calling t
 216:Source\azure_iot_sdk\iothub_client\src/iothubtransportamqp_methods.c ****         amqp_methods_handle->on_methods_error(amqp_methods_handle->on_methods_error_context);
  89              		.loc 1 216 0 is_stmt 1
  90 000a 436A     		ldr	r3, [r0, #36]
  91 000c 806A     		ldr	r0, [r0, #40]
  92              	.LVL5:
  93 000e 9847     		blx	r3
  94              	.LVL6:
  95 0010 08E0     		b	.L3
  96              	.LVL7:
  97              	.L4:
 217:Source\azure_iot_sdk\iothub_client\src/iothubtransportamqp_methods.c ****     }
 218:Source\azure_iot_sdk\iothub_client\src/iothubtransportamqp_methods.c ****     else
 219:Source\azure_iot_sdk\iothub_client\src/iothubtransportamqp_methods.c ****     {
 220:Source\azure_iot_sdk\iothub_client\src/iothubtransportamqp_methods.c ****         /* Codes_SRS_IOTHUBTRANSPORT_AMQP_METHODS_12_001: [ When `on_message_receiver_state_changed
 221:Source\azure_iot_sdk\iothub_client\src/iothubtransportamqp_methods.c ****         if ((new_state == MESSAGE_RECEIVER_STATE_IDLE) && (previous_state == MESSAGE_RECEIVER_STATE
  98              		.loc 1 221 0
  99 0012 0029     		cmp	r1, #0
 100 0014 04D1     		bne	.L6
 101              		.loc 1 221 0 is_stmt 0 discriminator 1
 102 0016 022A     		cmp	r2, #2
 103 0018 02D1     		bne	.L6
 222:Source\azure_iot_sdk\iothub_client\src/iothubtransportamqp_methods.c ****         {
 223:Source\azure_iot_sdk\iothub_client\src/iothubtransportamqp_methods.c ****             amqp_methods_handle->receiver_link_disconnected = true;
 104              		.loc 1 223 0 is_stmt 1
 105 001a 013A     		subs	r2, r2, #1
 106              	.LVL8:
 107 001c 4023     		movs	r3, #64
 108 001e C254     		strb	r2, [r0, r3]
 109              	.L6:
 224:Source\azure_iot_sdk\iothub_client\src/iothubtransportamqp_methods.c ****         }
 225:Source\azure_iot_sdk\iothub_client\src/iothubtransportamqp_methods.c ****         call_methods_unsubscribed_if_needed(amqp_methods_handle);
 110              		.loc 1 225 0
 111 0020 FFF7FEFF 		bl	call_methods_unsubscribed_if_needed
 112              	.LVL9:
 113              	.L3:
 226:Source\azure_iot_sdk\iothub_client\src/iothubtransportamqp_methods.c ****     }
 227:Source\azure_iot_sdk\iothub_client\src/iothubtransportamqp_methods.c **** }
 114              		.loc 1 227 0
 115              		@ sp needed
ARM GAS  C:\Users\Phuong\AppData\Local\Temp\ccu7x7Ah.s 			page 7


 116 0024 10BD     		pop	{r4, pc}
 117              		.cfi_endproc
 118              	.LFE5:
 119              		.size	on_message_receiver_state_changed, .-on_message_receiver_state_changed
 120 0026 C046     		.section	.text.on_message_sender_state_changed,"ax",%progbits
 121              		.align	2
 122              		.code	16
 123              		.thumb_func
 124              		.type	on_message_sender_state_changed, %function
 125              	on_message_sender_state_changed:
 126              	.LFB6:
 228:Source\azure_iot_sdk\iothub_client\src/iothubtransportamqp_methods.c **** 
 229:Source\azure_iot_sdk\iothub_client\src/iothubtransportamqp_methods.c **** static void on_message_sender_state_changed(void* context, MESSAGE_SENDER_STATE new_state, MESSAGE_
 230:Source\azure_iot_sdk\iothub_client\src/iothubtransportamqp_methods.c **** {
 127              		.loc 1 230 0
 128              		.cfi_startproc
 129              		@ args = 0, pretend = 0, frame = 0
 130              		@ frame_needed = 0, uses_anonymous_args = 0
 131              	.LVL10:
 132 0000 10B5     		push	{r4, lr}
 133              		.cfi_def_cfa_offset 8
 134              		.cfi_offset 4, -8
 135              		.cfi_offset 14, -4
 136              	.LVL11:
 231:Source\azure_iot_sdk\iothub_client\src/iothubtransportamqp_methods.c ****     IOTHUBTRANSPORT_AMQP_METHODS_HANDLE amqp_methods_handle = (IOTHUBTRANSPORT_AMQP_METHODS_HANDLE)
 232:Source\azure_iot_sdk\iothub_client\src/iothubtransportamqp_methods.c ****     /* Codes_SRS_IOTHUBTRANSPORT_AMQP_METHODS_01_059: [ When `on_message_sender_state_changed` is c
 233:Source\azure_iot_sdk\iothub_client\src/iothubtransportamqp_methods.c ****     /* Codes_SRS_IOTHUBTRANSPORT_AMQP_METHODS_01_127: [ For the other state changes, on_message_sen
 234:Source\azure_iot_sdk\iothub_client\src/iothubtransportamqp_methods.c ****     if ((new_state != previous_state) &&
 137              		.loc 1 234 0
 138 0002 9142     		cmp	r1, r2
 139 0004 05D0     		beq	.L8
 140              		.loc 1 234 0 is_stmt 0 discriminator 1
 141 0006 0429     		cmp	r1, #4
 142 0008 03D1     		bne	.L8
 235:Source\azure_iot_sdk\iothub_client\src/iothubtransportamqp_methods.c ****         (new_state == MESSAGE_SENDER_STATE_ERROR))
 236:Source\azure_iot_sdk\iothub_client\src/iothubtransportamqp_methods.c ****     {
 237:Source\azure_iot_sdk\iothub_client\src/iothubtransportamqp_methods.c ****         /* Codes_SRS_IOTHUBTRANSPORT_AMQP_METHODS_01_120: [ When an error is indicated by calling t
 238:Source\azure_iot_sdk\iothub_client\src/iothubtransportamqp_methods.c ****         amqp_methods_handle->on_methods_error(amqp_methods_handle->on_methods_error_context);
 143              		.loc 1 238 0 is_stmt 1
 144 000a 436A     		ldr	r3, [r0, #36]
 145 000c 806A     		ldr	r0, [r0, #40]
 146              	.LVL12:
 147 000e 9847     		blx	r3
 148              	.LVL13:
 149 0010 08E0     		b	.L7
 150              	.LVL14:
 151              	.L8:
 239:Source\azure_iot_sdk\iothub_client\src/iothubtransportamqp_methods.c ****     }
 240:Source\azure_iot_sdk\iothub_client\src/iothubtransportamqp_methods.c ****     else
 241:Source\azure_iot_sdk\iothub_client\src/iothubtransportamqp_methods.c ****     {
 242:Source\azure_iot_sdk\iothub_client\src/iothubtransportamqp_methods.c ****         /* Codes_SRS_IOTHUBTRANSPORT_AMQP_METHODS_12_002: [ When `on_message_sender_state_changed` 
 243:Source\azure_iot_sdk\iothub_client\src/iothubtransportamqp_methods.c ****         if ((new_state == MESSAGE_SENDER_STATE_IDLE) && (previous_state == MESSAGE_SENDER_STATE_OPE
 152              		.loc 1 243 0
 153 0012 0029     		cmp	r1, #0
 154 0014 04D1     		bne	.L10
 155              		.loc 1 243 0 is_stmt 0 discriminator 1
 156 0016 022A     		cmp	r2, #2
ARM GAS  C:\Users\Phuong\AppData\Local\Temp\ccu7x7Ah.s 			page 8


 157 0018 02D1     		bne	.L10
 244:Source\azure_iot_sdk\iothub_client\src/iothubtransportamqp_methods.c ****         {
 245:Source\azure_iot_sdk\iothub_client\src/iothubtransportamqp_methods.c ****             amqp_methods_handle->sender_link_disconnected = true;
 158              		.loc 1 245 0 is_stmt 1
 159 001a 013A     		subs	r2, r2, #1
 160              	.LVL15:
 161 001c 4123     		movs	r3, #65
 162 001e C254     		strb	r2, [r0, r3]
 163              	.L10:
 246:Source\azure_iot_sdk\iothub_client\src/iothubtransportamqp_methods.c ****         }
 247:Source\azure_iot_sdk\iothub_client\src/iothubtransportamqp_methods.c ****         call_methods_unsubscribed_if_needed(amqp_methods_handle);
 164              		.loc 1 247 0
 165 0020 FFF7FEFF 		bl	call_methods_unsubscribed_if_needed
 166              	.LVL16:
 167              	.L7:
 248:Source\azure_iot_sdk\iothub_client\src/iothubtransportamqp_methods.c ****     }
 249:Source\azure_iot_sdk\iothub_client\src/iothubtransportamqp_methods.c **** }
 168              		.loc 1 249 0
 169              		@ sp needed
 170 0024 10BD     		pop	{r4, pc}
 171              		.cfi_endproc
 172              	.LFE6:
 173              		.size	on_message_sender_state_changed, .-on_message_sender_state_changed
 174 0026 C046     		.section	.text.on_message_send_complete,"ax",%progbits
 175              		.align	2
 176              		.code	16
 177              		.thumb_func
 178              		.type	on_message_send_complete, %function
 179              	on_message_send_complete:
 180              	.LFB7:
 250:Source\azure_iot_sdk\iothub_client\src/iothubtransportamqp_methods.c **** 
 251:Source\azure_iot_sdk\iothub_client\src/iothubtransportamqp_methods.c **** static void on_message_send_complete(void* context, MESSAGE_SEND_RESULT send_result, AMQP_VALUE del
 252:Source\azure_iot_sdk\iothub_client\src/iothubtransportamqp_methods.c **** {
 181              		.loc 1 252 0
 182              		.cfi_startproc
 183              		@ args = 0, pretend = 0, frame = 0
 184              		@ frame_needed = 0, uses_anonymous_args = 0
 185              	.LVL17:
 186 0000 10B5     		push	{r4, lr}
 187              		.cfi_def_cfa_offset 8
 188              		.cfi_offset 4, -8
 189              		.cfi_offset 14, -4
 253:Source\azure_iot_sdk\iothub_client\src/iothubtransportamqp_methods.c ****     (void)delivery_state;
 254:Source\azure_iot_sdk\iothub_client\src/iothubtransportamqp_methods.c ****     /* Codes_SRS_IOTHUBTRANSPORT_AMQP_METHODS_01_084: [ Otherwise no action shall be taken. ]*/
 255:Source\azure_iot_sdk\iothub_client\src/iothubtransportamqp_methods.c ****     if (send_result == MESSAGE_SEND_ERROR)
 190              		.loc 1 255 0
 191 0002 0129     		cmp	r1, #1
 192 0004 02D1     		bne	.L11
 193              	.LVL18:
 194              	.LBB2:
 256:Source\azure_iot_sdk\iothub_client\src/iothubtransportamqp_methods.c ****     {
 257:Source\azure_iot_sdk\iothub_client\src/iothubtransportamqp_methods.c ****         IOTHUBTRANSPORT_AMQP_METHODS_HANDLE amqp_methods_handle = (IOTHUBTRANSPORT_AMQP_METHODS_HAN
 258:Source\azure_iot_sdk\iothub_client\src/iothubtransportamqp_methods.c ****         /* Codes_SRS_IOTHUBTRANSPORT_AMQP_METHODS_01_083: [ If `send_result` is `MESSAGE_SEND_ERROR
 259:Source\azure_iot_sdk\iothub_client\src/iothubtransportamqp_methods.c ****         amqp_methods_handle->on_methods_error(amqp_methods_handle->on_methods_error_context);
 195              		.loc 1 259 0
 196 0006 436A     		ldr	r3, [r0, #36]
 197 0008 806A     		ldr	r0, [r0, #40]
ARM GAS  C:\Users\Phuong\AppData\Local\Temp\ccu7x7Ah.s 			page 9


 198              	.LVL19:
 199 000a 9847     		blx	r3
 200              	.LVL20:
 201              	.L11:
 202              	.LBE2:
 260:Source\azure_iot_sdk\iothub_client\src/iothubtransportamqp_methods.c ****     }
 261:Source\azure_iot_sdk\iothub_client\src/iothubtransportamqp_methods.c **** }
 203              		.loc 1 261 0
 204              		@ sp needed
 205 000c 10BD     		pop	{r4, pc}
 206              		.cfi_endproc
 207              	.LFE7:
 208              		.size	on_message_send_complete, .-on_message_send_complete
 209 000e C046     		.section	.text.on_message_received,"ax",%progbits
 210              		.align	2
 211              		.code	16
 212              		.thumb_func
 213              		.type	on_message_received, %function
 214              	on_message_received:
 215              	.LFB8:
 262:Source\azure_iot_sdk\iothub_client\src/iothubtransportamqp_methods.c **** 
 263:Source\azure_iot_sdk\iothub_client\src/iothubtransportamqp_methods.c **** static AMQP_VALUE on_message_received(const void* context, MESSAGE_HANDLE message)
 264:Source\azure_iot_sdk\iothub_client\src/iothubtransportamqp_methods.c **** {
 216              		.loc 1 264 0
 217              		.cfi_startproc
 218              		@ args = 0, pretend = 0, frame = 32
 219              		@ frame_needed = 0, uses_anonymous_args = 0
 220              	.LVL21:
 221 0000 F0B5     		push	{r4, r5, r6, r7, lr}
 222              		.cfi_def_cfa_offset 20
 223              		.cfi_offset 4, -20
 224              		.cfi_offset 5, -16
 225              		.cfi_offset 6, -12
 226              		.cfi_offset 7, -8
 227              		.cfi_offset 14, -4
 228 0002 4F46     		mov	r7, r9
 229 0004 80B4     		push	{r7}
 230              		.cfi_def_cfa_offset 24
 231              		.cfi_offset 9, -24
 232 0006 8AB0     		sub	sp, sp, #40
 233              		.cfi_def_cfa_offset 64
 234 0008 0500     		movs	r5, r0
 235 000a 0C1E     		subs	r4, r1, #0
 236              	.LVL22:
 265:Source\azure_iot_sdk\iothub_client\src/iothubtransportamqp_methods.c ****     PROPERTIES_HANDLE properties;
 266:Source\azure_iot_sdk\iothub_client\src/iothubtransportamqp_methods.c ****     /* VS believes this is not initialized, so have to set it to the worse case here */
 267:Source\azure_iot_sdk\iothub_client\src/iothubtransportamqp_methods.c ****     AMQP_VALUE result = NULL;
 268:Source\azure_iot_sdk\iothub_client\src/iothubtransportamqp_methods.c ****     IOTHUBTRANSPORT_AMQP_METHODS_HANDLE amqp_methods_handle = (IOTHUBTRANSPORT_AMQP_METHODS_HANDLE)
 269:Source\azure_iot_sdk\iothub_client\src/iothubtransportamqp_methods.c ****     MESSAGE_OUTCOME message_outcome;
 270:Source\azure_iot_sdk\iothub_client\src/iothubtransportamqp_methods.c **** 
 271:Source\azure_iot_sdk\iothub_client\src/iothubtransportamqp_methods.c ****     if (message == NULL)
 237              		.loc 1 271 0
 238 000c 11D1     		bne	.L14
 239              	.LBB3:
 272:Source\azure_iot_sdk\iothub_client\src/iothubtransportamqp_methods.c ****     {
 273:Source\azure_iot_sdk\iothub_client\src/iothubtransportamqp_methods.c ****         /* Codes_SRS_IOTHUBTRANSPORT_AMQP_METHODS_01_041: [ If `message` is NULL, the RELEASED outc
 274:Source\azure_iot_sdk\iothub_client\src/iothubtransportamqp_methods.c ****         LogError("NULL message");
ARM GAS  C:\Users\Phuong\AppData\Local\Temp\ccu7x7Ah.s 			page 10


 240              		.loc 1 274 0 discriminator 3
 241 000e FFF7FEFF 		bl	xlogging_get_log_function
 242              	.LVL23:
 243 0012 041E     		subs	r4, r0, #0
 244              	.LVL24:
 245 0014 00D1     		bne	.LCB213
 246 0016 C5E1     		b	.L47	@long jump
 247              	.LCB213:
 248              		.loc 1 274 0 is_stmt 0 discriminator 4
 249 0018 CF4B     		ldr	r3, .L51
 250 001a 0193     		str	r3, [sp, #4]
 251 001c 0123     		movs	r3, #1
 252 001e 0093     		str	r3, [sp]
 253 0020 1233     		adds	r3, r3, #18
 254 0022 FF33     		adds	r3, r3, #255
 255 0024 CD4A     		ldr	r2, .L51+4
 256 0026 CE49     		ldr	r1, .L51+8
 257 0028 0020     		movs	r0, #0
 258              	.LVL25:
 259 002a A047     		blx	r4
 260              	.LVL26:
 261              	.LBE3:
 275:Source\azure_iot_sdk\iothub_client\src/iothubtransportamqp_methods.c ****         message_outcome = MESSAGE_OUTCOME_RELEASED;
 262              		.loc 1 275 0 is_stmt 1 discriminator 4
 263 002c 0227     		movs	r7, #2
 267:Source\azure_iot_sdk\iothub_client\src/iothubtransportamqp_methods.c ****     IOTHUBTRANSPORT_AMQP_METHODS_HANDLE amqp_methods_handle = (IOTHUBTRANSPORT_AMQP_METHODS_HANDLE)
 264              		.loc 1 267 0 discriminator 4
 265 002e 0024     		movs	r4, #0
 266              	.LVL27:
 267 0030 BAE1     		b	.L15
 268              	.LVL28:
 269              	.L14:
 276:Source\azure_iot_sdk\iothub_client\src/iothubtransportamqp_methods.c ****     }
 277:Source\azure_iot_sdk\iothub_client\src/iothubtransportamqp_methods.c ****     else
 278:Source\azure_iot_sdk\iothub_client\src/iothubtransportamqp_methods.c ****     {
 279:Source\azure_iot_sdk\iothub_client\src/iothubtransportamqp_methods.c ****         /* Codes_SRS_IOTHUBTRANSPORT_AMQP_METHODS_01_043: [ When `on_message_received` is called (t
 280:Source\azure_iot_sdk\iothub_client\src/iothubtransportamqp_methods.c ****         /* Codes_SRS_IOTHUBTRANSPORT_AMQP_METHODS_01_044: [ - The message properties shall be obtai
 281:Source\azure_iot_sdk\iothub_client\src/iothubtransportamqp_methods.c ****         if (message_get_properties(message, &properties) != 0)
 270              		.loc 1 281 0
 271 0032 09A9     		add	r1, sp, #36
 272              	.LVL29:
 273 0034 2000     		movs	r0, r4
 274              	.LVL30:
 275 0036 FFF7FEFF 		bl	message_get_properties
 276              	.LVL31:
 277 003a 0028     		cmp	r0, #0
 278 003c 14D0     		beq	.L16
 279              	.LBB4:
 282:Source\azure_iot_sdk\iothub_client\src/iothubtransportamqp_methods.c ****         {
 283:Source\azure_iot_sdk\iothub_client\src/iothubtransportamqp_methods.c ****             /* Codes_SRS_IOTHUBTRANSPORT_AMQP_METHODS_01_045: [ If `message_get_properties` fails, 
 284:Source\azure_iot_sdk\iothub_client\src/iothubtransportamqp_methods.c ****             LogError("Cannot retrieve message properties");
 280              		.loc 1 284 0 discriminator 3
 281 003e FFF7FEFF 		bl	xlogging_get_log_function
 282              	.LVL32:
 283 0042 041E     		subs	r4, r0, #0
 284              	.LVL33:
 285 0044 09D0     		beq	.L17
ARM GAS  C:\Users\Phuong\AppData\Local\Temp\ccu7x7Ah.s 			page 11


 286              		.loc 1 284 0 is_stmt 0 discriminator 4
 287 0046 C74B     		ldr	r3, .L51+12
 288 0048 0193     		str	r3, [sp, #4]
 289 004a 0123     		movs	r3, #1
 290 004c 0093     		str	r3, [sp]
 291 004e 1C33     		adds	r3, r3, #28
 292 0050 FF33     		adds	r3, r3, #255
 293 0052 C24A     		ldr	r2, .L51+4
 294 0054 C249     		ldr	r1, .L51+8
 295 0056 0020     		movs	r0, #0
 296              	.LVL34:
 297 0058 A047     		blx	r4
 298              	.LVL35:
 299              	.L17:
 300              	.LBE4:
 285:Source\azure_iot_sdk\iothub_client\src/iothubtransportamqp_methods.c ****             message_outcome = MESSAGE_OUTCOME_REJECTED;
 286:Source\azure_iot_sdk\iothub_client\src/iothubtransportamqp_methods.c ****             result = messaging_delivery_rejected("amqp:decode-error", "Cannot retrieve message prop
 301              		.loc 1 286 0 is_stmt 1
 302 005a C249     		ldr	r1, .L51+12
 303 005c C248     		ldr	r0, .L51+16
 304 005e FFF7FEFF 		bl	messaging_delivery_rejected
 305              	.LVL36:
 306 0062 0400     		movs	r4, r0
 307              	.LVL37:
 285:Source\azure_iot_sdk\iothub_client\src/iothubtransportamqp_methods.c ****             message_outcome = MESSAGE_OUTCOME_REJECTED;
 308              		.loc 1 285 0
 309 0064 0127     		movs	r7, #1
 310 0066 9FE1     		b	.L15
 311              	.LVL38:
 312              	.L16:
 313              	.LBB5:
 287:Source\azure_iot_sdk\iothub_client\src/iothubtransportamqp_methods.c ****         }
 288:Source\azure_iot_sdk\iothub_client\src/iothubtransportamqp_methods.c ****         else
 289:Source\azure_iot_sdk\iothub_client\src/iothubtransportamqp_methods.c ****         {
 290:Source\azure_iot_sdk\iothub_client\src/iothubtransportamqp_methods.c ****             AMQP_VALUE correlation_id;
 291:Source\azure_iot_sdk\iothub_client\src/iothubtransportamqp_methods.c **** 
 292:Source\azure_iot_sdk\iothub_client\src/iothubtransportamqp_methods.c ****             /* Codes_SRS_IOTHUBTRANSPORT_AMQP_METHODS_01_046: [ - The correlation id shall be obtai
 293:Source\azure_iot_sdk\iothub_client\src/iothubtransportamqp_methods.c ****             if (properties_get_correlation_id(properties, &correlation_id) != 0)
 314              		.loc 1 293 0
 315 0068 04A9     		add	r1, sp, #16
 316 006a 0998     		ldr	r0, [sp, #36]
 317 006c FFF7FEFF 		bl	properties_get_correlation_id
 318              	.LVL39:
 319 0070 0028     		cmp	r0, #0
 320 0072 14D0     		beq	.L18
 321              	.LBB6:
 294:Source\azure_iot_sdk\iothub_client\src/iothubtransportamqp_methods.c ****             {
 295:Source\azure_iot_sdk\iothub_client\src/iothubtransportamqp_methods.c ****                 /* Codes_SRS_IOTHUBTRANSPORT_AMQP_METHODS_01_047: [ If `properties_get_correlation_
 296:Source\azure_iot_sdk\iothub_client\src/iothubtransportamqp_methods.c ****                 LogError("Cannot retrieve correlation id");
 322              		.loc 1 296 0 discriminator 3
 323 0074 FFF7FEFF 		bl	xlogging_get_log_function
 324              	.LVL40:
 325 0078 041E     		subs	r4, r0, #0
 326              	.LVL41:
 327 007a 09D0     		beq	.L19
 328              		.loc 1 296 0 is_stmt 0 discriminator 4
 329 007c BB4B     		ldr	r3, .L51+20
ARM GAS  C:\Users\Phuong\AppData\Local\Temp\ccu7x7Ah.s 			page 12


 330 007e 0193     		str	r3, [sp, #4]
 331 0080 0123     		movs	r3, #1
 332 0082 0093     		str	r3, [sp]
 333 0084 2833     		adds	r3, r3, #40
 334 0086 FF33     		adds	r3, r3, #255
 335 0088 B44A     		ldr	r2, .L51+4
 336 008a B549     		ldr	r1, .L51+8
 337 008c 0020     		movs	r0, #0
 338              	.LVL42:
 339 008e A047     		blx	r4
 340              	.LVL43:
 341              	.L19:
 342              	.LBE6:
 297:Source\azure_iot_sdk\iothub_client\src/iothubtransportamqp_methods.c ****                 message_outcome = MESSAGE_OUTCOME_REJECTED;
 298:Source\azure_iot_sdk\iothub_client\src/iothubtransportamqp_methods.c ****                 result = messaging_delivery_rejected("amqp:decode-error", "Cannot retrieve correlat
 343              		.loc 1 298 0 is_stmt 1
 344 0090 B649     		ldr	r1, .L51+20
 345 0092 B548     		ldr	r0, .L51+16
 346 0094 FFF7FEFF 		bl	messaging_delivery_rejected
 347              	.LVL44:
 348 0098 0400     		movs	r4, r0
 349              	.LVL45:
 297:Source\azure_iot_sdk\iothub_client\src/iothubtransportamqp_methods.c ****                 message_outcome = MESSAGE_OUTCOME_REJECTED;
 350              		.loc 1 297 0
 351 009a 0127     		movs	r7, #1
 352 009c 57E1     		b	.L20
 353              	.LVL46:
 354              	.L18:
 355              	.LBB7:
 299:Source\azure_iot_sdk\iothub_client\src/iothubtransportamqp_methods.c ****             }
 300:Source\azure_iot_sdk\iothub_client\src/iothubtransportamqp_methods.c ****             else
 301:Source\azure_iot_sdk\iothub_client\src/iothubtransportamqp_methods.c ****             {
 302:Source\azure_iot_sdk\iothub_client\src/iothubtransportamqp_methods.c ****                 /* Codes_SRS_IOTHUBTRANSPORT_AMQP_METHODS_01_112: [ Memory shall be allocated for t
 303:Source\azure_iot_sdk\iothub_client\src/iothubtransportamqp_methods.c ****                 IOTHUBTRANSPORT_AMQP_METHOD* method_handle = (IOTHUBTRANSPORT_AMQP_METHOD*)malloc(s
 356              		.loc 1 303 0
 357 009e 1420     		movs	r0, #20
 358 00a0 FFF7FEFF 		bl	malloc
 359              	.LVL47:
 360 00a4 071E     		subs	r7, r0, #0
 361              	.LVL48:
 304:Source\azure_iot_sdk\iothub_client\src/iothubtransportamqp_methods.c ****                 if (method_handle == NULL)
 362              		.loc 1 304 0
 363 00a6 11D1     		bne	.L21
 364              	.LBB8:
 305:Source\azure_iot_sdk\iothub_client\src/iothubtransportamqp_methods.c ****                 {
 306:Source\azure_iot_sdk\iothub_client\src/iothubtransportamqp_methods.c ****                     /* Codes_SRS_IOTHUBTRANSPORT_AMQP_METHODS_01_130: [ If allocating memory for th
 307:Source\azure_iot_sdk\iothub_client\src/iothubtransportamqp_methods.c ****                     LogError("Cannot allocate method handle");
 365              		.loc 1 307 0 discriminator 3
 366 00a8 FFF7FEFF 		bl	xlogging_get_log_function
 367              	.LVL49:
 368 00ac 041E     		subs	r4, r0, #0
 369              	.LVL50:
 370 00ae 00D1     		bne	.LCB350
 371 00b0 48E1     		b	.L48	@long jump
 372              	.LCB350:
 373              		.loc 1 307 0 is_stmt 0 discriminator 4
 374 00b2 AF4B     		ldr	r3, .L51+24
ARM GAS  C:\Users\Phuong\AppData\Local\Temp\ccu7x7Ah.s 			page 13


 375 00b4 0193     		str	r3, [sp, #4]
 376 00b6 0123     		movs	r3, #1
 377 00b8 0093     		str	r3, [sp]
 378 00ba 3423     		movs	r3, #52
 379 00bc FF33     		adds	r3, r3, #255
 380 00be A74A     		ldr	r2, .L51+4
 381 00c0 A749     		ldr	r1, .L51+8
 382 00c2 0020     		movs	r0, #0
 383              	.LVL51:
 384 00c4 A047     		blx	r4
 385              	.LVL52:
 386              	.LBE8:
 308:Source\azure_iot_sdk\iothub_client\src/iothubtransportamqp_methods.c ****                     message_outcome = MESSAGE_OUTCOME_RELEASED;
 387              		.loc 1 308 0 is_stmt 1 discriminator 4
 388 00c6 0237     		adds	r7, r7, #2
 389              	.LVL53:
 390              	.LBE7:
 391              	.LBE5:
 267:Source\azure_iot_sdk\iothub_client\src/iothubtransportamqp_methods.c ****     IOTHUBTRANSPORT_AMQP_METHODS_HANDLE amqp_methods_handle = (IOTHUBTRANSPORT_AMQP_METHODS_HANDLE)
 392              		.loc 1 267 0 discriminator 4
 393 00c8 0024     		movs	r4, #0
 394              	.LVL54:
 395 00ca 40E1     		b	.L20
 396              	.LVL55:
 397              	.L21:
 398              	.LBB42:
 399              	.LBB37:
 400              	.LBB9:
 309:Source\azure_iot_sdk\iothub_client\src/iothubtransportamqp_methods.c ****                 }
 310:Source\azure_iot_sdk\iothub_client\src/iothubtransportamqp_methods.c ****                 else
 311:Source\azure_iot_sdk\iothub_client\src/iothubtransportamqp_methods.c ****                 {
 312:Source\azure_iot_sdk\iothub_client\src/iothubtransportamqp_methods.c ****                     IOTHUBTRANSPORT_AMQP_METHOD_HANDLE* new_handles;
 313:Source\azure_iot_sdk\iothub_client\src/iothubtransportamqp_methods.c ****                     /* Codes_SRS_IOTHUBTRANSPORT_AMQP_METHODS_01_113: [ All `IOTHUBTRANSPORT_AMQP_M
 314:Source\azure_iot_sdk\iothub_client\src/iothubtransportamqp_methods.c ****                     new_handles = (IOTHUBTRANSPORT_AMQP_METHOD_HANDLE*)realloc(amqp_methods_handle-
 401              		.loc 1 314 0
 402 00cc EB6B     		ldr	r3, [r5, #60]
 403 00ce 591C     		adds	r1, r3, #1
 404 00d0 8900     		lsls	r1, r1, #2
 405 00d2 A86B     		ldr	r0, [r5, #56]
 406              	.LVL56:
 407 00d4 FFF7FEFF 		bl	realloc
 408              	.LVL57:
 315:Source\azure_iot_sdk\iothub_client\src/iothubtransportamqp_methods.c ****                     if (new_handles == NULL)
 409              		.loc 1 315 0
 410 00d8 0028     		cmp	r0, #0
 411 00da 14D1     		bne	.L22
 316:Source\azure_iot_sdk\iothub_client\src/iothubtransportamqp_methods.c ****                     {
 317:Source\azure_iot_sdk\iothub_client\src/iothubtransportamqp_methods.c ****                         /* Codes_SRS_IOTHUBTRANSPORT_AMQP_METHODS_01_138: [ If resizing the tracked
 318:Source\azure_iot_sdk\iothub_client\src/iothubtransportamqp_methods.c ****                         free(method_handle);
 412              		.loc 1 318 0
 413 00dc 3800     		movs	r0, r7
 414              	.LVL58:
 415 00de FFF7FEFF 		bl	free
 416              	.LVL59:
 417              	.LBB10:
 319:Source\azure_iot_sdk\iothub_client\src/iothubtransportamqp_methods.c ****                         LogError("Cannot grow method handles array");
 418              		.loc 1 319 0
ARM GAS  C:\Users\Phuong\AppData\Local\Temp\ccu7x7Ah.s 			page 14


 419 00e2 FFF7FEFF 		bl	xlogging_get_log_function
 420              	.LVL60:
 421 00e6 041E     		subs	r4, r0, #0
 422              	.LVL61:
 423 00e8 00D1     		bne	.LCB403
 424 00ea 2EE1     		b	.L49	@long jump
 425              	.LCB403:
 426              		.loc 1 319 0 is_stmt 0 discriminator 4
 427 00ec A14B     		ldr	r3, .L51+28
 428 00ee 0193     		str	r3, [sp, #4]
 429 00f0 0123     		movs	r3, #1
 430 00f2 0093     		str	r3, [sp]
 431 00f4 4023     		movs	r3, #64
 432 00f6 FF33     		adds	r3, r3, #255
 433 00f8 984A     		ldr	r2, .L51+4
 434 00fa 9949     		ldr	r1, .L51+8
 435 00fc 0020     		movs	r0, #0
 436              	.LVL62:
 437 00fe A047     		blx	r4
 438              	.LVL63:
 439              	.LBE10:
 320:Source\azure_iot_sdk\iothub_client\src/iothubtransportamqp_methods.c ****                         message_outcome = MESSAGE_OUTCOME_RELEASED;
 440              		.loc 1 320 0 is_stmt 1 discriminator 4
 441 0100 0227     		movs	r7, #2
 442              	.LVL64:
 443              	.LBE9:
 444              	.LBE37:
 445              	.LBE42:
 267:Source\azure_iot_sdk\iothub_client\src/iothubtransportamqp_methods.c ****     IOTHUBTRANSPORT_AMQP_METHODS_HANDLE amqp_methods_handle = (IOTHUBTRANSPORT_AMQP_METHODS_HANDLE)
 446              		.loc 1 267 0 discriminator 4
 447 0102 0024     		movs	r4, #0
 448              	.LVL65:
 449 0104 23E1     		b	.L20
 450              	.LVL66:
 451              	.L22:
 452              	.LBB43:
 453              	.LBB38:
 454              	.LBB33:
 321:Source\azure_iot_sdk\iothub_client\src/iothubtransportamqp_methods.c ****                     }
 322:Source\azure_iot_sdk\iothub_client\src/iothubtransportamqp_methods.c ****                     else
 323:Source\azure_iot_sdk\iothub_client\src/iothubtransportamqp_methods.c ****                     {
 324:Source\azure_iot_sdk\iothub_client\src/iothubtransportamqp_methods.c ****                         amqp_methods_handle->method_request_handles = new_handles;
 455              		.loc 1 324 0
 456 0106 A863     		str	r0, [r5, #56]
 325:Source\azure_iot_sdk\iothub_client\src/iothubtransportamqp_methods.c **** 
 326:Source\azure_iot_sdk\iothub_client\src/iothubtransportamqp_methods.c ****                         /* Codes_SRS_IOTHUBTRANSPORT_AMQP_METHODS_01_121: [ The uuid value for the 
 327:Source\azure_iot_sdk\iothub_client\src/iothubtransportamqp_methods.c ****                         if (amqpvalue_get_uuid(correlation_id, &method_handle->correlation_id) != 0
 457              		.loc 1 327 0
 458 0108 391D     		adds	r1, r7, #4
 459 010a 0498     		ldr	r0, [sp, #16]
 460              	.LVL67:
 461 010c FFF7FEFF 		bl	amqpvalue_get_uuid
 462              	.LVL68:
 463 0110 0028     		cmp	r0, #0
 464 0112 17D0     		beq	.L23
 328:Source\azure_iot_sdk\iothub_client\src/iothubtransportamqp_methods.c ****                         {
 329:Source\azure_iot_sdk\iothub_client\src/iothubtransportamqp_methods.c ****                             /* Codes_SRS_IOTHUBTRANSPORT_AMQP_METHODS_01_122: [ If `amqpvalue_get_u
ARM GAS  C:\Users\Phuong\AppData\Local\Temp\ccu7x7Ah.s 			page 15


 330:Source\azure_iot_sdk\iothub_client\src/iothubtransportamqp_methods.c ****                             free(method_handle);
 465              		.loc 1 330 0
 466 0114 3800     		movs	r0, r7
 467 0116 FFF7FEFF 		bl	free
 468              	.LVL69:
 469              	.LBB11:
 331:Source\azure_iot_sdk\iothub_client\src/iothubtransportamqp_methods.c ****                             LogError("Cannot get uuid value for correlation-id");
 470              		.loc 1 331 0
 471 011a FFF7FEFF 		bl	xlogging_get_log_function
 472              	.LVL70:
 473 011e 041E     		subs	r4, r0, #0
 474              	.LVL71:
 475 0120 09D0     		beq	.L24
 476              		.loc 1 331 0 is_stmt 0 discriminator 4
 477 0122 954B     		ldr	r3, .L51+32
 478 0124 0193     		str	r3, [sp, #4]
 479 0126 0123     		movs	r3, #1
 480 0128 0093     		str	r3, [sp]
 481 012a 4C23     		movs	r3, #76
 482 012c FF33     		adds	r3, r3, #255
 483 012e 8B4A     		ldr	r2, .L51+4
 484 0130 8B49     		ldr	r1, .L51+8
 485 0132 0020     		movs	r0, #0
 486              	.LVL72:
 487 0134 A047     		blx	r4
 488              	.LVL73:
 489              	.L24:
 490              	.LBE11:
 332:Source\azure_iot_sdk\iothub_client\src/iothubtransportamqp_methods.c ****                             message_outcome = MESSAGE_OUTCOME_REJECTED;
 333:Source\azure_iot_sdk\iothub_client\src/iothubtransportamqp_methods.c ****                             result = messaging_delivery_rejected("amqp:decode-error", "Cannot get u
 491              		.loc 1 333 0 is_stmt 1
 492 0136 9049     		ldr	r1, .L51+32
 493 0138 8B48     		ldr	r0, .L51+16
 494 013a FFF7FEFF 		bl	messaging_delivery_rejected
 495              	.LVL74:
 496 013e 0400     		movs	r4, r0
 497              	.LVL75:
 332:Source\azure_iot_sdk\iothub_client\src/iothubtransportamqp_methods.c ****                             message_outcome = MESSAGE_OUTCOME_REJECTED;
 498              		.loc 1 332 0
 499 0140 0127     		movs	r7, #1
 500              	.LVL76:
 501 0142 04E1     		b	.L20
 502              	.LVL77:
 503              	.L23:
 504              	.LBB12:
 334:Source\azure_iot_sdk\iothub_client\src/iothubtransportamqp_methods.c ****                         }
 335:Source\azure_iot_sdk\iothub_client\src/iothubtransportamqp_methods.c ****                         else
 336:Source\azure_iot_sdk\iothub_client\src/iothubtransportamqp_methods.c ****                         {
 337:Source\azure_iot_sdk\iothub_client\src/iothubtransportamqp_methods.c ****                             BINARY_DATA binary_data;
 338:Source\azure_iot_sdk\iothub_client\src/iothubtransportamqp_methods.c **** 
 339:Source\azure_iot_sdk\iothub_client\src/iothubtransportamqp_methods.c ****                             /* Codes_SRS_IOTHUBTRANSPORT_AMQP_METHODS_01_048: [ - The message paylo
 340:Source\azure_iot_sdk\iothub_client\src/iothubtransportamqp_methods.c ****                             if (message_get_body_amqp_data_in_place(message, 0, &binary_data) != 0)
 505              		.loc 1 340 0
 506 0144 07AA     		add	r2, sp, #28
 507 0146 0021     		movs	r1, #0
 508 0148 2000     		movs	r0, r4
 509 014a FFF7FEFF 		bl	message_get_body_amqp_data_in_place
ARM GAS  C:\Users\Phuong\AppData\Local\Temp\ccu7x7Ah.s 			page 16


 510              	.LVL78:
 511 014e 0028     		cmp	r0, #0
 512 0150 17D0     		beq	.L25
 341:Source\azure_iot_sdk\iothub_client\src/iothubtransportamqp_methods.c ****                             {
 342:Source\azure_iot_sdk\iothub_client\src/iothubtransportamqp_methods.c ****                                 /* Codes_SRS_IOTHUBTRANSPORT_AMQP_METHODS_01_049: [ If `message_get
 343:Source\azure_iot_sdk\iothub_client\src/iothubtransportamqp_methods.c ****                                 free(method_handle);
 513              		.loc 1 343 0
 514 0152 3800     		movs	r0, r7
 515 0154 FFF7FEFF 		bl	free
 516              	.LVL79:
 517              	.LBB13:
 344:Source\azure_iot_sdk\iothub_client\src/iothubtransportamqp_methods.c ****                                 LogError("Cannot get method request message payload");
 518              		.loc 1 344 0
 519 0158 FFF7FEFF 		bl	xlogging_get_log_function
 520              	.LVL80:
 521 015c 041E     		subs	r4, r0, #0
 522              	.LVL81:
 523 015e 09D0     		beq	.L26
 524              		.loc 1 344 0 is_stmt 0 discriminator 4
 525 0160 864B     		ldr	r3, .L51+36
 526 0162 0193     		str	r3, [sp, #4]
 527 0164 0123     		movs	r3, #1
 528 0166 0093     		str	r3, [sp]
 529 0168 5833     		adds	r3, r3, #88
 530 016a FF33     		adds	r3, r3, #255
 531 016c 7B4A     		ldr	r2, .L51+4
 532 016e 7C49     		ldr	r1, .L51+8
 533 0170 0020     		movs	r0, #0
 534              	.LVL82:
 535 0172 A047     		blx	r4
 536              	.LVL83:
 537              	.L26:
 538              	.LBE13:
 345:Source\azure_iot_sdk\iothub_client\src/iothubtransportamqp_methods.c ****                                 message_outcome = MESSAGE_OUTCOME_REJECTED;
 346:Source\azure_iot_sdk\iothub_client\src/iothubtransportamqp_methods.c ****                                 result = messaging_delivery_rejected("amqp:decode-error", "Cannot g
 539              		.loc 1 346 0 is_stmt 1
 540 0174 8149     		ldr	r1, .L51+36
 541 0176 7C48     		ldr	r0, .L51+16
 542 0178 FFF7FEFF 		bl	messaging_delivery_rejected
 543              	.LVL84:
 544 017c 0400     		movs	r4, r0
 545              	.LVL85:
 345:Source\azure_iot_sdk\iothub_client\src/iothubtransportamqp_methods.c ****                                 message_outcome = MESSAGE_OUTCOME_REJECTED;
 546              		.loc 1 345 0
 547 017e 0127     		movs	r7, #1
 548              	.LVL86:
 549 0180 E5E0     		b	.L20
 550              	.LVL87:
 551              	.L25:
 552              	.LBB14:
 347:Source\azure_iot_sdk\iothub_client\src/iothubtransportamqp_methods.c ****                             }
 348:Source\azure_iot_sdk\iothub_client\src/iothubtransportamqp_methods.c ****                             else
 349:Source\azure_iot_sdk\iothub_client\src/iothubtransportamqp_methods.c ****                             {
 350:Source\azure_iot_sdk\iothub_client\src/iothubtransportamqp_methods.c ****                                 AMQP_VALUE application_properties;
 351:Source\azure_iot_sdk\iothub_client\src/iothubtransportamqp_methods.c **** 
 352:Source\azure_iot_sdk\iothub_client\src/iothubtransportamqp_methods.c ****                                 /* Codes_SRS_IOTHUBTRANSPORT_AMQP_METHODS_01_099: [ The application
 353:Source\azure_iot_sdk\iothub_client\src/iothubtransportamqp_methods.c ****                                 if (message_get_application_properties(message, &application_proper
ARM GAS  C:\Users\Phuong\AppData\Local\Temp\ccu7x7Ah.s 			page 17


 553              		.loc 1 353 0
 554 0182 05A9     		add	r1, sp, #20
 555 0184 2000     		movs	r0, r4
 556 0186 FFF7FEFF 		bl	message_get_application_properties
 557              	.LVL88:
 558 018a 0028     		cmp	r0, #0
 559 018c 17D0     		beq	.L28
 560              	.LBB15:
 354:Source\azure_iot_sdk\iothub_client\src/iothubtransportamqp_methods.c ****                                 {
 355:Source\azure_iot_sdk\iothub_client\src/iothubtransportamqp_methods.c ****                                     /* Codes_SRS_IOTHUBTRANSPORT_AMQP_METHODS_01_133: [ If `message
 356:Source\azure_iot_sdk\iothub_client\src/iothubtransportamqp_methods.c ****                                     LogError("Cannot get application properties");
 561              		.loc 1 356 0 discriminator 3
 562 018e FFF7FEFF 		bl	xlogging_get_log_function
 563              	.LVL89:
 564 0192 041E     		subs	r4, r0, #0
 565              	.LVL90:
 566 0194 09D0     		beq	.L29
 567              		.loc 1 356 0 is_stmt 0 discriminator 4
 568 0196 7A4B     		ldr	r3, .L51+40
 569 0198 0193     		str	r3, [sp, #4]
 570 019a 0123     		movs	r3, #1
 571 019c 0093     		str	r3, [sp]
 572 019e 6433     		adds	r3, r3, #100
 573 01a0 FF33     		adds	r3, r3, #255
 574 01a2 6E4A     		ldr	r2, .L51+4
 575 01a4 6E49     		ldr	r1, .L51+8
 576 01a6 0020     		movs	r0, #0
 577              	.LVL91:
 578 01a8 A047     		blx	r4
 579              	.LVL92:
 580              	.L29:
 581              	.LBE15:
 357:Source\azure_iot_sdk\iothub_client\src/iothubtransportamqp_methods.c ****                                     free(method_handle);
 582              		.loc 1 357 0 is_stmt 1
 583 01aa 3800     		movs	r0, r7
 584 01ac FFF7FEFF 		bl	free
 585              	.LVL93:
 358:Source\azure_iot_sdk\iothub_client\src/iothubtransportamqp_methods.c ****                                     message_outcome = MESSAGE_OUTCOME_REJECTED;
 359:Source\azure_iot_sdk\iothub_client\src/iothubtransportamqp_methods.c ****                                     result = messaging_delivery_rejected("amqp:decode-error", "Cann
 586              		.loc 1 359 0
 587 01b0 7349     		ldr	r1, .L51+40
 588 01b2 6D48     		ldr	r0, .L51+16
 589 01b4 FFF7FEFF 		bl	messaging_delivery_rejected
 590              	.LVL94:
 591 01b8 0400     		movs	r4, r0
 592              	.LVL95:
 358:Source\azure_iot_sdk\iothub_client\src/iothubtransportamqp_methods.c ****                                     message_outcome = MESSAGE_OUTCOME_REJECTED;
 593              		.loc 1 358 0
 594 01ba 0127     		movs	r7, #1
 595              	.LVL96:
 596 01bc C7E0     		b	.L20
 597              	.LVL97:
 598              	.L28:
 599              	.LBB16:
 360:Source\azure_iot_sdk\iothub_client\src/iothubtransportamqp_methods.c ****                                 }
 361:Source\azure_iot_sdk\iothub_client\src/iothubtransportamqp_methods.c ****                                 else
 362:Source\azure_iot_sdk\iothub_client\src/iothubtransportamqp_methods.c ****                                 {
ARM GAS  C:\Users\Phuong\AppData\Local\Temp\ccu7x7Ah.s 			page 18


 363:Source\azure_iot_sdk\iothub_client\src/iothubtransportamqp_methods.c ****                                     /* Codes_SRS_IOTHUBTRANSPORT_AMQP_METHODS_01_123: [ The AMQP ma
 364:Source\azure_iot_sdk\iothub_client\src/iothubtransportamqp_methods.c ****                                     AMQP_VALUE amqp_properties_map = amqpvalue_get_inplace_describe
 600              		.loc 1 364 0
 601 01be 0598     		ldr	r0, [sp, #20]
 602 01c0 FFF7FEFF 		bl	amqpvalue_get_inplace_described_value
 603              	.LVL98:
 604 01c4 041E     		subs	r4, r0, #0
 605              	.LVL99:
 365:Source\azure_iot_sdk\iothub_client\src/iothubtransportamqp_methods.c ****                                     if (amqp_properties_map == NULL)
 606              		.loc 1 365 0
 607 01c6 13D1     		bne	.L31
 608              	.LBB17:
 366:Source\azure_iot_sdk\iothub_client\src/iothubtransportamqp_methods.c ****                                     {
 367:Source\azure_iot_sdk\iothub_client\src/iothubtransportamqp_methods.c ****                                         /* Codes_SRS_IOTHUBTRANSPORT_AMQP_METHODS_01_134: [ If `amq
 368:Source\azure_iot_sdk\iothub_client\src/iothubtransportamqp_methods.c ****                                         LogError("Cannot get application properties map");
 609              		.loc 1 368 0 discriminator 3
 610 01c8 FFF7FEFF 		bl	xlogging_get_log_function
 611              	.LVL100:
 612 01cc 041E     		subs	r4, r0, #0
 613              	.LVL101:
 614 01ce 09D0     		beq	.L32
 615              		.loc 1 368 0 is_stmt 0 discriminator 4
 616 01d0 6C4B     		ldr	r3, .L51+44
 617 01d2 0193     		str	r3, [sp, #4]
 618 01d4 0123     		movs	r3, #1
 619 01d6 0093     		str	r3, [sp]
 620 01d8 7033     		adds	r3, r3, #112
 621 01da FF33     		adds	r3, r3, #255
 622 01dc 5F4A     		ldr	r2, .L51+4
 623 01de 6049     		ldr	r1, .L51+8
 624 01e0 0020     		movs	r0, #0
 625              	.LVL102:
 626 01e2 A047     		blx	r4
 627              	.LVL103:
 628              	.L32:
 629              	.LBE17:
 369:Source\azure_iot_sdk\iothub_client\src/iothubtransportamqp_methods.c ****                                         free(method_handle);
 630              		.loc 1 369 0 is_stmt 1
 631 01e4 3800     		movs	r0, r7
 632 01e6 FFF7FEFF 		bl	free
 633              	.LVL104:
 370:Source\azure_iot_sdk\iothub_client\src/iothubtransportamqp_methods.c ****                                         message_outcome = MESSAGE_OUTCOME_RELEASED;
 634              		.loc 1 370 0
 635 01ea 0227     		movs	r7, #2
 636              	.LVL105:
 637              	.LBE16:
 638              	.LBE14:
 639              	.LBE12:
 640              	.LBE33:
 641              	.LBE38:
 642              	.LBE43:
 267:Source\azure_iot_sdk\iothub_client\src/iothubtransportamqp_methods.c ****     IOTHUBTRANSPORT_AMQP_METHODS_HANDLE amqp_methods_handle = (IOTHUBTRANSPORT_AMQP_METHODS_HANDLE)
 643              		.loc 1 267 0
 644 01ec 0024     		movs	r4, #0
 645              	.LVL106:
 646              	.LBB44:
 647              	.LBB39:
ARM GAS  C:\Users\Phuong\AppData\Local\Temp\ccu7x7Ah.s 			page 19


 648              	.LBB34:
 649              	.LBB31:
 650              	.LBB29:
 651              	.LBB27:
 652 01ee A5E0     		b	.L33
 653              	.LVL107:
 654              	.L31:
 655              	.LBB18:
 371:Source\azure_iot_sdk\iothub_client\src/iothubtransportamqp_methods.c ****                                     }
 372:Source\azure_iot_sdk\iothub_client\src/iothubtransportamqp_methods.c ****                                     else
 373:Source\azure_iot_sdk\iothub_client\src/iothubtransportamqp_methods.c ****                                     {
 374:Source\azure_iot_sdk\iothub_client\src/iothubtransportamqp_methods.c ****                                         /* Codes_SRS_IOTHUBTRANSPORT_AMQP_METHODS_01_100: [ A prope
 375:Source\azure_iot_sdk\iothub_client\src/iothubtransportamqp_methods.c ****                                         AMQP_VALUE property_key = amqpvalue_create_string("IoThub-m
 656              		.loc 1 375 0
 657 01f0 6548     		ldr	r0, .L51+48
 658              	.LVL108:
 659 01f2 FFF7FEFF 		bl	amqpvalue_create_string
 660              	.LVL109:
 661 01f6 0290     		str	r0, [sp, #8]
 662              	.LVL110:
 376:Source\azure_iot_sdk\iothub_client\src/iothubtransportamqp_methods.c ****                                         if (property_key == NULL)
 663              		.loc 1 376 0
 664 01f8 0028     		cmp	r0, #0
 665 01fa 13D1     		bne	.L34
 666              	.LBB19:
 377:Source\azure_iot_sdk\iothub_client\src/iothubtransportamqp_methods.c ****                                         {
 378:Source\azure_iot_sdk\iothub_client\src/iothubtransportamqp_methods.c ****                                             /* Codes_SRS_IOTHUBTRANSPORT_AMQP_METHODS_01_132: [ If 
 379:Source\azure_iot_sdk\iothub_client\src/iothubtransportamqp_methods.c ****                                             LogError("Cannot create the property key for method nam
 667              		.loc 1 379 0 discriminator 3
 668 01fc FFF7FEFF 		bl	xlogging_get_log_function
 669              	.LVL111:
 670 0200 041E     		subs	r4, r0, #0
 671              	.LVL112:
 672 0202 09D0     		beq	.L35
 673              		.loc 1 379 0 is_stmt 0 discriminator 4
 674 0204 614B     		ldr	r3, .L51+52
 675 0206 0193     		str	r3, [sp, #4]
 676 0208 0123     		movs	r3, #1
 677 020a 0093     		str	r3, [sp]
 678 020c 7C23     		movs	r3, #124
 679 020e FF33     		adds	r3, r3, #255
 680 0210 524A     		ldr	r2, .L51+4
 681 0212 5349     		ldr	r1, .L51+8
 682 0214 0020     		movs	r0, #0
 683              	.LVL113:
 684 0216 A047     		blx	r4
 685              	.LVL114:
 686              	.L35:
 687              	.LBE19:
 380:Source\azure_iot_sdk\iothub_client\src/iothubtransportamqp_methods.c ****                                             free(method_handle);
 688              		.loc 1 380 0 is_stmt 1
 689 0218 3800     		movs	r0, r7
 690 021a FFF7FEFF 		bl	free
 691              	.LVL115:
 381:Source\azure_iot_sdk\iothub_client\src/iothubtransportamqp_methods.c ****                                             message_outcome = MESSAGE_OUTCOME_RELEASED;
 692              		.loc 1 381 0
 693 021e 0227     		movs	r7, #2
ARM GAS  C:\Users\Phuong\AppData\Local\Temp\ccu7x7Ah.s 			page 20


 694              	.LVL116:
 695              	.LBE18:
 696              	.LBE27:
 697              	.LBE29:
 698              	.LBE31:
 699              	.LBE34:
 700              	.LBE39:
 701              	.LBE44:
 267:Source\azure_iot_sdk\iothub_client\src/iothubtransportamqp_methods.c ****     IOTHUBTRANSPORT_AMQP_METHODS_HANDLE amqp_methods_handle = (IOTHUBTRANSPORT_AMQP_METHODS_HANDLE)
 702              		.loc 1 267 0
 703 0220 0024     		movs	r4, #0
 704              	.LVL117:
 705              	.LBB45:
 706              	.LBB40:
 707              	.LBB35:
 708              	.LBB32:
 709              	.LBB30:
 710              	.LBB28:
 711              	.LBB26:
 712 0222 8BE0     		b	.L33
 713              	.LVL118:
 714              	.L34:
 715              	.LBB20:
 382:Source\azure_iot_sdk\iothub_client\src/iothubtransportamqp_methods.c ****                                         }
 383:Source\azure_iot_sdk\iothub_client\src/iothubtransportamqp_methods.c ****                                         else
 384:Source\azure_iot_sdk\iothub_client\src/iothubtransportamqp_methods.c ****                                         {
 385:Source\azure_iot_sdk\iothub_client\src/iothubtransportamqp_methods.c ****                                             /* Codes_SRS_IOTHUBTRANSPORT_AMQP_METHODS_01_101: [ The
 386:Source\azure_iot_sdk\iothub_client\src/iothubtransportamqp_methods.c ****                                             AMQP_VALUE property_value = amqpvalue_get_map_value(amq
 716              		.loc 1 386 0
 717 0224 0299     		ldr	r1, [sp, #8]
 718 0226 2000     		movs	r0, r4
 719              	.LVL119:
 720 0228 FFF7FEFF 		bl	amqpvalue_get_map_value
 721              	.LVL120:
 722 022c 0390     		str	r0, [sp, #12]
 723              	.LVL121:
 387:Source\azure_iot_sdk\iothub_client\src/iothubtransportamqp_methods.c ****                                             if (property_value == NULL)
 724              		.loc 1 387 0
 725 022e 0028     		cmp	r0, #0
 726 0230 17D1     		bne	.L36
 727              	.LBB21:
 388:Source\azure_iot_sdk\iothub_client\src/iothubtransportamqp_methods.c ****                                             {
 389:Source\azure_iot_sdk\iothub_client\src/iothubtransportamqp_methods.c ****                                                 /* Codes_SRS_IOTHUBTRANSPORT_AMQP_METHODS_01_103: [
 390:Source\azure_iot_sdk\iothub_client\src/iothubtransportamqp_methods.c ****                                                 LogError("Cannot find the IoThub-methodname propert
 728              		.loc 1 390 0 discriminator 3
 729 0232 FFF7FEFF 		bl	xlogging_get_log_function
 730              	.LVL122:
 731 0236 041E     		subs	r4, r0, #0
 732              	.LVL123:
 733 0238 09D0     		beq	.L37
 734              		.loc 1 390 0 is_stmt 0 discriminator 4
 735 023a 554B     		ldr	r3, .L51+56
 736 023c 0193     		str	r3, [sp, #4]
 737 023e 0123     		movs	r3, #1
 738 0240 0093     		str	r3, [sp]
 739 0242 8633     		adds	r3, r3, #134
 740 0244 FF33     		adds	r3, r3, #255
ARM GAS  C:\Users\Phuong\AppData\Local\Temp\ccu7x7Ah.s 			page 21


 741 0246 454A     		ldr	r2, .L51+4
 742 0248 4549     		ldr	r1, .L51+8
 743 024a 0020     		movs	r0, #0
 744              	.LVL124:
 745 024c A047     		blx	r4
 746              	.LVL125:
 747              	.L37:
 748              	.LBE21:
 391:Source\azure_iot_sdk\iothub_client\src/iothubtransportamqp_methods.c ****                                                 free(method_handle);
 749              		.loc 1 391 0 is_stmt 1
 750 024e 3800     		movs	r0, r7
 751 0250 FFF7FEFF 		bl	free
 752              	.LVL126:
 392:Source\azure_iot_sdk\iothub_client\src/iothubtransportamqp_methods.c ****                                                 message_outcome = MESSAGE_OUTCOME_REJECTED;
 393:Source\azure_iot_sdk\iothub_client\src/iothubtransportamqp_methods.c ****                                                 result = messaging_delivery_rejected("amqp:decode-e
 753              		.loc 1 393 0
 754 0254 4E49     		ldr	r1, .L51+56
 755 0256 4448     		ldr	r0, .L51+16
 756 0258 FFF7FEFF 		bl	messaging_delivery_rejected
 757              	.LVL127:
 758 025c 0400     		movs	r4, r0
 759              	.LVL128:
 392:Source\azure_iot_sdk\iothub_client\src/iothubtransportamqp_methods.c ****                                                 message_outcome = MESSAGE_OUTCOME_REJECTED;
 760              		.loc 1 392 0
 761 025e 0127     		movs	r7, #1
 762              	.LVL129:
 763 0260 69E0     		b	.L38
 764              	.LVL130:
 765              	.L36:
 766              	.LBB22:
 394:Source\azure_iot_sdk\iothub_client\src/iothubtransportamqp_methods.c ****                                             }
 395:Source\azure_iot_sdk\iothub_client\src/iothubtransportamqp_methods.c ****                                             else
 396:Source\azure_iot_sdk\iothub_client\src/iothubtransportamqp_methods.c ****                                             {
 397:Source\azure_iot_sdk\iothub_client\src/iothubtransportamqp_methods.c ****                                                 const char* method_name;
 398:Source\azure_iot_sdk\iothub_client\src/iothubtransportamqp_methods.c **** 
 399:Source\azure_iot_sdk\iothub_client\src/iothubtransportamqp_methods.c ****                                                 /* Codes_SRS_IOTHUBTRANSPORT_AMQP_METHODS_01_102: [
 400:Source\azure_iot_sdk\iothub_client\src/iothubtransportamqp_methods.c ****                                                 if (amqpvalue_get_string(property_value, &method_na
 767              		.loc 1 400 0
 768 0262 06A9     		add	r1, sp, #24
 769 0264 0398     		ldr	r0, [sp, #12]
 770              	.LVL131:
 771 0266 FFF7FEFF 		bl	amqpvalue_get_string
 772              	.LVL132:
 773 026a 0028     		cmp	r0, #0
 774 026c 17D0     		beq	.L39
 775              	.LBB23:
 401:Source\azure_iot_sdk\iothub_client\src/iothubtransportamqp_methods.c ****                                                 {
 402:Source\azure_iot_sdk\iothub_client\src/iothubtransportamqp_methods.c ****                                                     /*Codes_SRS_IOTHUBTRANSPORT_AMQP_METHODS_01_131
 403:Source\azure_iot_sdk\iothub_client\src/iothubtransportamqp_methods.c ****                                                     LogError("Cannot read the method name from the 
 776              		.loc 1 403 0 discriminator 3
 777 026e FFF7FEFF 		bl	xlogging_get_log_function
 778              	.LVL133:
 779 0272 041E     		subs	r4, r0, #0
 780              	.LVL134:
 781 0274 09D0     		beq	.L40
 782              		.loc 1 403 0 is_stmt 0 discriminator 4
 783 0276 474B     		ldr	r3, .L51+60
ARM GAS  C:\Users\Phuong\AppData\Local\Temp\ccu7x7Ah.s 			page 22


 784 0278 0193     		str	r3, [sp, #4]
 785 027a 0123     		movs	r3, #1
 786 027c 0093     		str	r3, [sp]
 787 027e 9423     		movs	r3, #148
 788 0280 FF33     		adds	r3, r3, #255
 789 0282 364A     		ldr	r2, .L51+4
 790 0284 3649     		ldr	r1, .L51+8
 791 0286 0020     		movs	r0, #0
 792              	.LVL135:
 793 0288 A047     		blx	r4
 794              	.LVL136:
 795              	.L40:
 796              	.LBE23:
 404:Source\azure_iot_sdk\iothub_client\src/iothubtransportamqp_methods.c ****                                                     free(method_handle);
 797              		.loc 1 404 0 is_stmt 1
 798 028a 3800     		movs	r0, r7
 799 028c FFF7FEFF 		bl	free
 800              	.LVL137:
 405:Source\azure_iot_sdk\iothub_client\src/iothubtransportamqp_methods.c ****                                                     message_outcome = MESSAGE_OUTCOME_REJECTED;
 406:Source\azure_iot_sdk\iothub_client\src/iothubtransportamqp_methods.c ****                                                     result = messaging_delivery_rejected("amqp:deco
 801              		.loc 1 406 0
 802 0290 4049     		ldr	r1, .L51+60
 803 0292 3548     		ldr	r0, .L51+16
 804 0294 FFF7FEFF 		bl	messaging_delivery_rejected
 805              	.LVL138:
 806 0298 0400     		movs	r4, r0
 807              	.LVL139:
 405:Source\azure_iot_sdk\iothub_client\src/iothubtransportamqp_methods.c ****                                                     message_outcome = MESSAGE_OUTCOME_REJECTED;
 808              		.loc 1 405 0
 809 029a 0127     		movs	r7, #1
 810              	.LVL140:
 811 029c 48E0     		b	.L41
 812              	.LVL141:
 813              	.L39:
 407:Source\azure_iot_sdk\iothub_client\src/iothubtransportamqp_methods.c ****                                                 }
 408:Source\azure_iot_sdk\iothub_client\src/iothubtransportamqp_methods.c ****                                                 else
 409:Source\azure_iot_sdk\iothub_client\src/iothubtransportamqp_methods.c ****                                                 {
 410:Source\azure_iot_sdk\iothub_client\src/iothubtransportamqp_methods.c ****                                                     /* Codes_SRS_IOTHUBTRANSPORT_AMQP_METHODS_01_05
 411:Source\azure_iot_sdk\iothub_client\src/iothubtransportamqp_methods.c ****                                                     result = messaging_delivery_accepted();
 814              		.loc 1 411 0
 815 029e FFF7FEFF 		bl	messaging_delivery_accepted
 816              	.LVL142:
 817 02a2 041E     		subs	r4, r0, #0
 818              	.LVL143:
 412:Source\azure_iot_sdk\iothub_client\src/iothubtransportamqp_methods.c ****                                                     if (result == NULL)
 819              		.loc 1 412 0
 820 02a4 13D1     		bne	.L42
 821              	.LBB24:
 413:Source\azure_iot_sdk\iothub_client\src/iothubtransportamqp_methods.c ****                                                     {
 414:Source\azure_iot_sdk\iothub_client\src/iothubtransportamqp_methods.c ****                                                         /* Codes_SRS_IOTHUBTRANSPORT_AMQP_METHODS_0
 415:Source\azure_iot_sdk\iothub_client\src/iothubtransportamqp_methods.c ****                                                         LogError("Cannot allocate memory for delive
 822              		.loc 1 415 0 discriminator 3
 823 02a6 FFF7FEFF 		bl	xlogging_get_log_function
 824              	.LVL144:
 825 02aa 8146     		mov	r9, r0
 826              	.LVL145:
 827 02ac 0028     		cmp	r0, #0
ARM GAS  C:\Users\Phuong\AppData\Local\Temp\ccu7x7Ah.s 			page 23


 828 02ae 09D0     		beq	.L43
 829              		.loc 1 415 0 is_stmt 0 discriminator 4
 830 02b0 394B     		ldr	r3, .L51+64
 831 02b2 0193     		str	r3, [sp, #4]
 832 02b4 0123     		movs	r3, #1
 833 02b6 0093     		str	r3, [sp]
 834 02b8 A023     		movs	r3, #160
 835 02ba FF33     		adds	r3, r3, #255
 836 02bc 274A     		ldr	r2, .L51+4
 837 02be 2849     		ldr	r1, .L51+8
 838 02c0 0020     		movs	r0, #0
 839              	.LVL146:
 840 02c2 C847     		blx	r9
 841              	.LVL147:
 842              	.L43:
 843              	.LBE24:
 416:Source\azure_iot_sdk\iothub_client\src/iothubtransportamqp_methods.c ****                                                         free(method_handle);
 844              		.loc 1 416 0 is_stmt 1
 845 02c4 3800     		movs	r0, r7
 846 02c6 FFF7FEFF 		bl	free
 847              	.LVL148:
 417:Source\azure_iot_sdk\iothub_client\src/iothubtransportamqp_methods.c ****                                                         message_outcome = MESSAGE_OUTCOME_RELEASED;
 848              		.loc 1 417 0
 849 02ca 0227     		movs	r7, #2
 850              	.LVL149:
 851 02cc 30E0     		b	.L41
 852              	.LVL150:
 853              	.L42:
 418:Source\azure_iot_sdk\iothub_client\src/iothubtransportamqp_methods.c ****                                                     }
 419:Source\azure_iot_sdk\iothub_client\src/iothubtransportamqp_methods.c ****                                                     else
 420:Source\azure_iot_sdk\iothub_client\src/iothubtransportamqp_methods.c ****                                                     {
 421:Source\azure_iot_sdk\iothub_client\src/iothubtransportamqp_methods.c ****                                                         method_handle->iothubtransport_amqp_methods
 854              		.loc 1 421 0
 855 02ce 3D60     		str	r5, [r7]
 422:Source\azure_iot_sdk\iothub_client\src/iothubtransportamqp_methods.c **** 
 423:Source\azure_iot_sdk\iothub_client\src/iothubtransportamqp_methods.c ****                                                         /* set the method request handle in the han
 424:Source\azure_iot_sdk\iothub_client\src/iothubtransportamqp_methods.c ****                                                         amqp_methods_handle->method_request_handles
 856              		.loc 1 424 0
 857 02d0 EB6B     		ldr	r3, [r5, #60]
 858 02d2 9B00     		lsls	r3, r3, #2
 859 02d4 AA6B     		ldr	r2, [r5, #56]
 860 02d6 D750     		str	r7, [r2, r3]
 425:Source\azure_iot_sdk\iothub_client\src/iothubtransportamqp_methods.c ****                                                         amqp_methods_handle->method_request_handle_
 861              		.loc 1 425 0
 862 02d8 EB6B     		ldr	r3, [r5, #60]
 863 02da 0133     		adds	r3, r3, #1
 864 02dc EB63     		str	r3, [r5, #60]
 426:Source\azure_iot_sdk\iothub_client\src/iothubtransportamqp_methods.c **** 
 427:Source\azure_iot_sdk\iothub_client\src/iothubtransportamqp_methods.c ****                                                         /* Codes_SRS_IOTHUBTRANSPORT_AMQP_METHODS_0
 428:Source\azure_iot_sdk\iothub_client\src/iothubtransportamqp_methods.c ****                                                         /* Codes_SRS_IOTHUBTRANSPORT_AMQP_METHODS_0
 429:Source\azure_iot_sdk\iothub_client\src/iothubtransportamqp_methods.c ****                                                         /* Codes_SRS_IOTHUBTRANSPORT_AMQP_METHODS_0
 430:Source\azure_iot_sdk\iothub_client\src/iothubtransportamqp_methods.c ****                                                         /* Codes_SRS_IOTHUBTRANSPORT_AMQP_METHODS_0
 431:Source\azure_iot_sdk\iothub_client\src/iothubtransportamqp_methods.c ****                                                         /* Codes_SRS_IOTHUBTRANSPORT_AMQP_METHODS_0
 432:Source\azure_iot_sdk\iothub_client\src/iothubtransportamqp_methods.c ****                                                         /* Codes_SRS_IOTHUBTRANSPORT_AMQP_METHODS_0
 433:Source\azure_iot_sdk\iothub_client\src/iothubtransportamqp_methods.c ****                                                         /* Codes_SRS_IOTHUBTRANSPORT_AMQP_METHODS_0
 434:Source\azure_iot_sdk\iothub_client\src/iothubtransportamqp_methods.c ****                                                         if (amqp_methods_handle->on_method_request_
 865              		.loc 1 434 0
ARM GAS  C:\Users\Phuong\AppData\Local\Temp\ccu7x7Ah.s 			page 24


 866 02de 0097     		str	r7, [sp]
 867 02e0 089B     		ldr	r3, [sp, #32]
 868 02e2 079A     		ldr	r2, [sp, #28]
 869 02e4 0699     		ldr	r1, [sp, #24]
 870 02e6 286A     		ldr	r0, [r5, #32]
 871              	.LVL151:
 872 02e8 EE69     		ldr	r6, [r5, #28]
 873 02ea B047     		blx	r6
 874              	.LVL152:
 875 02ec 0028     		cmp	r0, #0
 876 02ee 1ED0     		beq	.L50
 877              	.LBB25:
 435:Source\azure_iot_sdk\iothub_client\src/iothubtransportamqp_methods.c ****                                                         {
 436:Source\azure_iot_sdk\iothub_client\src/iothubtransportamqp_methods.c ****                                                             /* Codes_SRS_IOTHUBTRANSPORT_AMQP_METHO
 437:Source\azure_iot_sdk\iothub_client\src/iothubtransportamqp_methods.c ****                                                             LogError("Cannot execute the callback w
 878              		.loc 1 437 0 discriminator 3
 879 02f0 FFF7FEFF 		bl	xlogging_get_log_function
 880              	.LVL153:
 881 02f4 8146     		mov	r9, r0
 882              	.LVL154:
 883 02f6 0028     		cmp	r0, #0
 884 02f8 09D0     		beq	.L44
 885              		.loc 1 437 0 is_stmt 0 discriminator 4
 886 02fa 284B     		ldr	r3, .L51+68
 887 02fc 0193     		str	r3, [sp, #4]
 888 02fe 0123     		movs	r3, #1
 889 0300 0093     		str	r3, [sp]
 890 0302 B623     		movs	r3, #182
 891 0304 FF33     		adds	r3, r3, #255
 892 0306 154A     		ldr	r2, .L51+4
 893 0308 1549     		ldr	r1, .L51+8
 894 030a 0020     		movs	r0, #0
 895              	.LVL155:
 896 030c C847     		blx	r9
 897              	.LVL156:
 898              	.L44:
 899              	.LBE25:
 438:Source\azure_iot_sdk\iothub_client\src/iothubtransportamqp_methods.c ****                                                             amqpvalue_destroy(result);
 900              		.loc 1 438 0 is_stmt 1
 901 030e 2000     		movs	r0, r4
 902 0310 FFF7FEFF 		bl	amqpvalue_destroy
 903              	.LVL157:
 439:Source\azure_iot_sdk\iothub_client\src/iothubtransportamqp_methods.c ****                                                             free(method_handle);
 904              		.loc 1 439 0
 905 0314 3800     		movs	r0, r7
 906 0316 FFF7FEFF 		bl	free
 907              	.LVL158:
 440:Source\azure_iot_sdk\iothub_client\src/iothubtransportamqp_methods.c ****                                                             amqp_methods_handle->method_request_han
 908              		.loc 1 440 0
 909 031a EB6B     		ldr	r3, [r5, #60]
 910 031c 013B     		subs	r3, r3, #1
 911 031e EB63     		str	r3, [r5, #60]
 912              	.LVL159:
 441:Source\azure_iot_sdk\iothub_client\src/iothubtransportamqp_methods.c ****                                                             message_outcome = MESSAGE_OUTCOME_REJEC
 442:Source\azure_iot_sdk\iothub_client\src/iothubtransportamqp_methods.c ****                                                             result = messaging_delivery_rejected("a
 913              		.loc 1 442 0
 914 0320 1E49     		ldr	r1, .L51+68
ARM GAS  C:\Users\Phuong\AppData\Local\Temp\ccu7x7Ah.s 			page 25


 915 0322 1F48     		ldr	r0, .L51+72
 916 0324 FFF7FEFF 		bl	messaging_delivery_rejected
 917              	.LVL160:
 918 0328 0400     		movs	r4, r0
 919              	.LVL161:
 441:Source\azure_iot_sdk\iothub_client\src/iothubtransportamqp_methods.c ****                                                             message_outcome = MESSAGE_OUTCOME_REJEC
 920              		.loc 1 441 0
 921 032a 0127     		movs	r7, #1
 922              	.LVL162:
 923 032c 00E0     		b	.L41
 924              	.LVL163:
 925              	.L50:
 443:Source\azure_iot_sdk\iothub_client\src/iothubtransportamqp_methods.c ****                                                         }
 444:Source\azure_iot_sdk\iothub_client\src/iothubtransportamqp_methods.c ****                                                         else
 445:Source\azure_iot_sdk\iothub_client\src/iothubtransportamqp_methods.c ****                                                         {
 446:Source\azure_iot_sdk\iothub_client\src/iothubtransportamqp_methods.c ****                                                             message_outcome = MESSAGE_OUTCOME_ACCEP
 926              		.loc 1 446 0
 927 032e 0027     		movs	r7, #0
 928              	.LVL164:
 929              	.L41:
 447:Source\azure_iot_sdk\iothub_client\src/iothubtransportamqp_methods.c ****                                                         }
 448:Source\azure_iot_sdk\iothub_client\src/iothubtransportamqp_methods.c ****                                                     }
 449:Source\azure_iot_sdk\iothub_client\src/iothubtransportamqp_methods.c ****                                                 }
 450:Source\azure_iot_sdk\iothub_client\src/iothubtransportamqp_methods.c **** 
 451:Source\azure_iot_sdk\iothub_client\src/iothubtransportamqp_methods.c ****                                                 amqpvalue_destroy(property_value);
 930              		.loc 1 451 0
 931 0330 0398     		ldr	r0, [sp, #12]
 932 0332 FFF7FEFF 		bl	amqpvalue_destroy
 933              	.LVL165:
 934              	.L38:
 935              	.LBE22:
 452:Source\azure_iot_sdk\iothub_client\src/iothubtransportamqp_methods.c ****                                             }
 453:Source\azure_iot_sdk\iothub_client\src/iothubtransportamqp_methods.c **** 
 454:Source\azure_iot_sdk\iothub_client\src/iothubtransportamqp_methods.c ****                                             amqpvalue_destroy(property_key);
 936              		.loc 1 454 0
 937 0336 0298     		ldr	r0, [sp, #8]
 938 0338 FFF7FEFF 		bl	amqpvalue_destroy
 939              	.LVL166:
 940              	.L33:
 941              	.LBE20:
 942              	.LBE26:
 455:Source\azure_iot_sdk\iothub_client\src/iothubtransportamqp_methods.c ****                                         }
 456:Source\azure_iot_sdk\iothub_client\src/iothubtransportamqp_methods.c ****                                     }
 457:Source\azure_iot_sdk\iothub_client\src/iothubtransportamqp_methods.c **** 
 458:Source\azure_iot_sdk\iothub_client\src/iothubtransportamqp_methods.c ****                                     application_properties_destroy(application_properties);
 943              		.loc 1 458 0
 944 033c 0598     		ldr	r0, [sp, #20]
 945 033e FFF7FEFF 		bl	amqpvalue_destroy
 946              	.LVL167:
 947 0342 04E0     		b	.L20
 948              	.LVL168:
 949              	.L48:
 950              	.LBE28:
 951              	.LBE30:
 952              	.LBE32:
 953              	.LBE35:
 308:Source\azure_iot_sdk\iothub_client\src/iothubtransportamqp_methods.c ****                 }
ARM GAS  C:\Users\Phuong\AppData\Local\Temp\ccu7x7Ah.s 			page 26


 954              		.loc 1 308 0
 955 0344 0227     		movs	r7, #2
 956              	.LVL169:
 957              	.LBE40:
 958              	.LBE45:
 267:Source\azure_iot_sdk\iothub_client\src/iothubtransportamqp_methods.c ****     IOTHUBTRANSPORT_AMQP_METHODS_HANDLE amqp_methods_handle = (IOTHUBTRANSPORT_AMQP_METHODS_HANDLE)
 959              		.loc 1 267 0
 960 0346 0024     		movs	r4, #0
 961 0348 01E0     		b	.L20
 962              	.LVL170:
 963              	.L49:
 964              	.LBB46:
 965              	.LBB41:
 966              	.LBB36:
 320:Source\azure_iot_sdk\iothub_client\src/iothubtransportamqp_methods.c ****                     }
 967              		.loc 1 320 0
 968 034a 0227     		movs	r7, #2
 969              	.LVL171:
 970              	.LBE36:
 971              	.LBE41:
 972              	.LBE46:
 267:Source\azure_iot_sdk\iothub_client\src/iothubtransportamqp_methods.c ****     IOTHUBTRANSPORT_AMQP_METHODS_HANDLE amqp_methods_handle = (IOTHUBTRANSPORT_AMQP_METHODS_HANDLE)
 973              		.loc 1 267 0
 974 034c 0024     		movs	r4, #0
 975              	.LVL172:
 976              	.L20:
 977              	.LBB47:
 459:Source\azure_iot_sdk\iothub_client\src/iothubtransportamqp_methods.c ****                                 }
 460:Source\azure_iot_sdk\iothub_client\src/iothubtransportamqp_methods.c ****                             }
 461:Source\azure_iot_sdk\iothub_client\src/iothubtransportamqp_methods.c ****                         }
 462:Source\azure_iot_sdk\iothub_client\src/iothubtransportamqp_methods.c ****                     }
 463:Source\azure_iot_sdk\iothub_client\src/iothubtransportamqp_methods.c ****                 }
 464:Source\azure_iot_sdk\iothub_client\src/iothubtransportamqp_methods.c ****             }
 465:Source\azure_iot_sdk\iothub_client\src/iothubtransportamqp_methods.c **** 
 466:Source\azure_iot_sdk\iothub_client\src/iothubtransportamqp_methods.c ****             properties_destroy(properties);
 978              		.loc 1 466 0 discriminator 2
 979 034e 0998     		ldr	r0, [sp, #36]
 980 0350 FFF7FEFF 		bl	properties_destroy
 981              	.LVL173:
 982 0354 28E0     		b	.L15
 983              	.L52:
 984 0356 C046     		.align	2
 985              	.L51:
 986 0358 48000000 		.word	.LC3
 987 035c 00000000 		.word	.LANCHOR0
 988 0360 00000000 		.word	.LC1
 989 0364 58000000 		.word	.LC5
 990 0368 7C000000 		.word	.LC7
 991 036c 90000000 		.word	.LC9
 992 0370 B0000000 		.word	.LC11
 993 0374 D0000000 		.word	.LC13
 994 0378 F4000000 		.word	.LC15
 995 037c 20010000 		.word	.LC17
 996 0380 4C010000 		.word	.LC19
 997 0384 70010000 		.word	.LC21
 998 0388 98010000 		.word	.LC23
 999 038c AC010000 		.word	.LC25
ARM GAS  C:\Users\Phuong\AppData\Local\Temp\ccu7x7Ah.s 			page 27


 1000 0390 DC010000 		.word	.LC27
 1001 0394 20020000 		.word	.LC29
 1002 0398 54020000 		.word	.LC31
 1003 039c 80020000 		.word	.LC33
 1004 03a0 B0020000 		.word	.LC35
 1005              	.LVL174:
 1006              	.L47:
 1007              	.LBE47:
 275:Source\azure_iot_sdk\iothub_client\src/iothubtransportamqp_methods.c ****     }
 1008              		.loc 1 275 0
 1009 03a4 0227     		movs	r7, #2
 267:Source\azure_iot_sdk\iothub_client\src/iothubtransportamqp_methods.c ****     IOTHUBTRANSPORT_AMQP_METHODS_HANDLE amqp_methods_handle = (IOTHUBTRANSPORT_AMQP_METHODS_HANDLE)
 1010              		.loc 1 267 0
 1011 03a6 0024     		movs	r4, #0
 1012              	.LVL175:
 1013              	.L15:
 467:Source\azure_iot_sdk\iothub_client\src/iothubtransportamqp_methods.c ****         }
 468:Source\azure_iot_sdk\iothub_client\src/iothubtransportamqp_methods.c ****     }
 469:Source\azure_iot_sdk\iothub_client\src/iothubtransportamqp_methods.c **** 
 470:Source\azure_iot_sdk\iothub_client\src/iothubtransportamqp_methods.c ****     switch (message_outcome)
 1014              		.loc 1 470 0
 1015 03a8 022F     		cmp	r7, #2
 1016 03aa 05D1     		bne	.L45
 471:Source\azure_iot_sdk\iothub_client\src/iothubtransportamqp_methods.c ****     {
 472:Source\azure_iot_sdk\iothub_client\src/iothubtransportamqp_methods.c ****     default:
 473:Source\azure_iot_sdk\iothub_client\src/iothubtransportamqp_methods.c ****         break;
 474:Source\azure_iot_sdk\iothub_client\src/iothubtransportamqp_methods.c **** 
 475:Source\azure_iot_sdk\iothub_client\src/iothubtransportamqp_methods.c ****     case MESSAGE_OUTCOME_RELEASED:
 476:Source\azure_iot_sdk\iothub_client\src/iothubtransportamqp_methods.c ****         /* Codes_SRS_IOTHUBTRANSPORT_AMQP_METHODS_01_129: [ The released outcome shall be created b
 477:Source\azure_iot_sdk\iothub_client\src/iothubtransportamqp_methods.c ****         result = messaging_delivery_released();
 1017              		.loc 1 477 0
 1018 03ac FFF7FEFF 		bl	messaging_delivery_released
 1019              	.LVL176:
 1020 03b0 0400     		movs	r4, r0
 1021              	.LVL177:
 478:Source\azure_iot_sdk\iothub_client\src/iothubtransportamqp_methods.c **** 
 479:Source\azure_iot_sdk\iothub_client\src/iothubtransportamqp_methods.c ****         /* Codes_SRS_IOTHUBTRANSPORT_AMQP_METHODS_01_128: [ When the RELEASED outcome is returned, 
 480:Source\azure_iot_sdk\iothub_client\src/iothubtransportamqp_methods.c ****         /* Codes_SRS_IOTHUBTRANSPORT_AMQP_METHODS_01_042: [ When an error is indicated by calling t
 481:Source\azure_iot_sdk\iothub_client\src/iothubtransportamqp_methods.c ****         amqp_methods_handle->on_methods_error(amqp_methods_handle->on_methods_error_context);
 1022              		.loc 1 481 0
 1023 03b2 6B6A     		ldr	r3, [r5, #36]
 1024 03b4 A86A     		ldr	r0, [r5, #40]
 1025              	.LVL178:
 1026 03b6 9847     		blx	r3
 1027              	.LVL179:
 1028              	.L45:
 482:Source\azure_iot_sdk\iothub_client\src/iothubtransportamqp_methods.c ****         break;
 483:Source\azure_iot_sdk\iothub_client\src/iothubtransportamqp_methods.c **** 
 484:Source\azure_iot_sdk\iothub_client\src/iothubtransportamqp_methods.c ****     case MESSAGE_OUTCOME_REJECTED:
 485:Source\azure_iot_sdk\iothub_client\src/iothubtransportamqp_methods.c ****     case MESSAGE_OUTCOME_ACCEPTED:
 486:Source\azure_iot_sdk\iothub_client\src/iothubtransportamqp_methods.c ****         /* all is well */
 487:Source\azure_iot_sdk\iothub_client\src/iothubtransportamqp_methods.c ****         break;
 488:Source\azure_iot_sdk\iothub_client\src/iothubtransportamqp_methods.c ****     }
 489:Source\azure_iot_sdk\iothub_client\src/iothubtransportamqp_methods.c **** 
 490:Source\azure_iot_sdk\iothub_client\src/iothubtransportamqp_methods.c ****     return result;
 491:Source\azure_iot_sdk\iothub_client\src/iothubtransportamqp_methods.c **** }
 1029              		.loc 1 491 0
ARM GAS  C:\Users\Phuong\AppData\Local\Temp\ccu7x7Ah.s 			page 28


 1030 03b8 2000     		movs	r0, r4
 1031 03ba 0AB0     		add	sp, sp, #40
 1032              		@ sp needed
 1033              	.LVL180:
 1034              	.LVL181:
 1035              	.LVL182:
 1036 03bc 04BC     		pop	{r2}
 1037 03be 9146     		mov	r9, r2
 1038 03c0 F0BD     		pop	{r4, r5, r6, r7, pc}
 1039              		.cfi_endproc
 1040              	.LFE8:
 1041              		.size	on_message_received, .-on_message_received
 1042 03c2 C046     		.section	.text.remove_tracked_handle,"ax",%progbits
 1043              		.align	2
 1044              		.code	16
 1045              		.thumb_func
 1046              		.type	remove_tracked_handle, %function
 1047              	remove_tracked_handle:
 1048              	.LFB1:
  61:Source\azure_iot_sdk\iothub_client\src/iothubtransportamqp_methods.c ****     size_t i;
 1049              		.loc 1 61 0
 1050              		.cfi_startproc
 1051              		@ args = 0, pretend = 0, frame = 0
 1052              		@ frame_needed = 0, uses_anonymous_args = 0
 1053              	.LVL183:
 1054 0000 70B5     		push	{r4, r5, r6, lr}
 1055              		.cfi_def_cfa_offset 16
 1056              		.cfi_offset 4, -16
 1057              		.cfi_offset 5, -12
 1058              		.cfi_offset 6, -8
 1059              		.cfi_offset 14, -4
 1060 0002 0500     		movs	r5, r0
 1061 0004 0E00     		movs	r6, r1
 1062              	.LVL184:
  64:Source\azure_iot_sdk\iothub_client\src/iothubtransportamqp_methods.c ****     {
 1063              		.loc 1 64 0
 1064 0006 0024     		movs	r4, #0
 1065 0008 16E0     		b	.L54
 1066              	.LVL185:
 1067              	.L57:
  66:Source\azure_iot_sdk\iothub_client\src/iothubtransportamqp_methods.c ****         {
 1068              		.loc 1 66 0
 1069 000a AB6B     		ldr	r3, [r5, #56]
 1070 000c A000     		lsls	r0, r4, #2
 1071 000e 1818     		adds	r0, r3, r0
 1072 0010 0168     		ldr	r1, [r0]
 1073 0012 B142     		cmp	r1, r6
 1074 0014 0FD1     		bne	.L55
  68:Source\azure_iot_sdk\iothub_client\src/iothubtransportamqp_methods.c ****             {
 1075              		.loc 1 68 0
 1076 0016 121B     		subs	r2, r2, r4
 1077 0018 012A     		cmp	r2, #1
 1078 001a 08D9     		bls	.L56
  70:Source\azure_iot_sdk\iothub_client\src/iothubtransportamqp_methods.c ****                     (amqp_methods_handle->method_request_handle_count - i - 1) * sizeof(IOTHUBTRANS
 1079              		.loc 1 70 0
 1080 001c 611C     		adds	r1, r4, #1
 1081 001e 8900     		lsls	r1, r1, #2
ARM GAS  C:\Users\Phuong\AppData\Local\Temp\ccu7x7Ah.s 			page 29


 1082 0020 5918     		adds	r1, r3, r1
 1083 0022 0F4B     		ldr	r3, .L60
 1084 0024 9C46     		mov	ip, r3
 1085 0026 6244     		add	r2, r2, ip
 1086 0028 9200     		lsls	r2, r2, #2
 1087 002a FFF7FEFF 		bl	memmove
 1088              	.LVL186:
 1089              	.L56:
  74:Source\azure_iot_sdk\iothub_client\src/iothubtransportamqp_methods.c ****             i--;
 1090              		.loc 1 74 0
 1091 002e EB6B     		ldr	r3, [r5, #60]
 1092 0030 013B     		subs	r3, r3, #1
 1093 0032 EB63     		str	r3, [r5, #60]
  75:Source\azure_iot_sdk\iothub_client\src/iothubtransportamqp_methods.c ****         }
 1094              		.loc 1 75 0
 1095 0034 013C     		subs	r4, r4, #1
 1096              	.LVL187:
 1097              	.L55:
  64:Source\azure_iot_sdk\iothub_client\src/iothubtransportamqp_methods.c ****     {
 1098              		.loc 1 64 0 discriminator 2
 1099 0036 0134     		adds	r4, r4, #1
 1100              	.LVL188:
 1101              	.L54:
  64:Source\azure_iot_sdk\iothub_client\src/iothubtransportamqp_methods.c ****     {
 1102              		.loc 1 64 0 is_stmt 0 discriminator 1
 1103 0038 EA6B     		ldr	r2, [r5, #60]
 1104 003a 9442     		cmp	r4, r2
 1105 003c E5D3     		bcc	.L57
  79:Source\azure_iot_sdk\iothub_client\src/iothubtransportamqp_methods.c ****     {
 1106              		.loc 1 79 0 is_stmt 1
 1107 003e 002A     		cmp	r2, #0
 1108 0040 05D1     		bne	.L58
  81:Source\azure_iot_sdk\iothub_client\src/iothubtransportamqp_methods.c ****         amqp_methods_handle->method_request_handles = NULL;
 1109              		.loc 1 81 0
 1110 0042 A86B     		ldr	r0, [r5, #56]
 1111 0044 FFF7FEFF 		bl	free
 1112              	.LVL189:
  82:Source\azure_iot_sdk\iothub_client\src/iothubtransportamqp_methods.c ****     }
 1113              		.loc 1 82 0
 1114 0048 0023     		movs	r3, #0
 1115 004a AB63     		str	r3, [r5, #56]
 1116 004c 06E0     		b	.L53
 1117              	.L58:
 1118              	.LBB48:
  86:Source\azure_iot_sdk\iothub_client\src/iothubtransportamqp_methods.c ****         if (new_handles != NULL)
 1119              		.loc 1 86 0
 1120 004e 9100     		lsls	r1, r2, #2
 1121 0050 A86B     		ldr	r0, [r5, #56]
 1122 0052 FFF7FEFF 		bl	realloc
 1123              	.LVL190:
  87:Source\azure_iot_sdk\iothub_client\src/iothubtransportamqp_methods.c ****         {
 1124              		.loc 1 87 0
 1125 0056 0028     		cmp	r0, #0
 1126 0058 00D0     		beq	.L53
  89:Source\azure_iot_sdk\iothub_client\src/iothubtransportamqp_methods.c ****         }
 1127              		.loc 1 89 0
 1128 005a A863     		str	r0, [r5, #56]
ARM GAS  C:\Users\Phuong\AppData\Local\Temp\ccu7x7Ah.s 			page 30


 1129              	.LVL191:
 1130              	.L53:
 1131              	.LBE48:
  92:Source\azure_iot_sdk\iothub_client\src/iothubtransportamqp_methods.c **** 
 1132              		.loc 1 92 0
 1133              		@ sp needed
 1134              	.LVL192:
 1135              	.LVL193:
 1136              	.LVL194:
 1137 005c 70BD     		pop	{r4, r5, r6, pc}
 1138              	.L61:
 1139 005e C046     		.align	2
 1140              	.L60:
 1141 0060 FFFFFF3F 		.word	1073741823
 1142              		.cfi_endproc
 1143              	.LFE1:
 1144              		.size	remove_tracked_handle, .-remove_tracked_handle
 1145              		.section	.text.iothubtransportamqp_methods_create,"ax",%progbits
 1146              		.align	2
 1147              		.global	iothubtransportamqp_methods_create
 1148              		.code	16
 1149              		.thumb_func
 1150              		.type	iothubtransportamqp_methods_create, %function
 1151              	iothubtransportamqp_methods_create:
 1152              	.LFB2:
  95:Source\azure_iot_sdk\iothub_client\src/iothubtransportamqp_methods.c ****     IOTHUBTRANSPORT_AMQP_METHODS* result;
 1153              		.loc 1 95 0
 1154              		.cfi_startproc
 1155              		@ args = 0, pretend = 0, frame = 0
 1156              		@ frame_needed = 0, uses_anonymous_args = 0
 1157              	.LVL195:
 1158 0000 F0B5     		push	{r4, r5, r6, r7, lr}
 1159              		.cfi_def_cfa_offset 20
 1160              		.cfi_offset 4, -20
 1161              		.cfi_offset 5, -16
 1162              		.cfi_offset 6, -12
 1163              		.cfi_offset 7, -8
 1164              		.cfi_offset 14, -4
 1165 0002 85B0     		sub	sp, sp, #20
 1166              		.cfi_def_cfa_offset 40
 1167 0004 0500     		movs	r5, r0
 1168 0006 0E00     		movs	r6, r1
 1169 0008 1700     		movs	r7, r2
  98:Source\azure_iot_sdk\iothub_client\src/iothubtransportamqp_methods.c ****         (device_id == NULL))
 1170              		.loc 1 98 0
 1171 000a 0028     		cmp	r0, #0
 1172 000c 01D0     		beq	.L63
  98:Source\azure_iot_sdk\iothub_client\src/iothubtransportamqp_methods.c ****         (device_id == NULL))
 1173              		.loc 1 98 0 is_stmt 0 discriminator 1
 1174 000e 0029     		cmp	r1, #0
 1175 0010 12D1     		bne	.L64
 1176              	.L63:
 1177              	.LVL196:
 1178              	.LBB49:
 103:Source\azure_iot_sdk\iothub_client\src/iothubtransportamqp_methods.c ****     }
 1179              		.loc 1 103 0 is_stmt 1
 1180 0012 FFF7FEFF 		bl	xlogging_get_log_function
ARM GAS  C:\Users\Phuong\AppData\Local\Temp\ccu7x7Ah.s 			page 31


 1181              	.LVL197:
 1182 0016 041E     		subs	r4, r0, #0
 1183              	.LVL198:
 1184 0018 00D1     		bne	.LCB1269
 1185 001a 86E0     		b	.L73	@long jump
 1186              	.LCB1269:
 103:Source\azure_iot_sdk\iothub_client\src/iothubtransportamqp_methods.c ****     }
 1187              		.loc 1 103 0 is_stmt 0 discriminator 4
 1188 001c 0396     		str	r6, [sp, #12]
 1189 001e 0295     		str	r5, [sp, #8]
 1190 0020 444B     		ldr	r3, .L74
 1191 0022 0193     		str	r3, [sp, #4]
 1192 0024 0123     		movs	r3, #1
 1193 0026 0093     		str	r3, [sp]
 1194 0028 6633     		adds	r3, r3, #102
 1195 002a 434A     		ldr	r2, .L74+4
 1196 002c 1432     		adds	r2, r2, #20
 1197 002e 4349     		ldr	r1, .L74+8
 1198 0030 0020     		movs	r0, #0
 1199              	.LVL199:
 1200 0032 A047     		blx	r4
 1201              	.LVL200:
 1202              	.LBE49:
 102:Source\azure_iot_sdk\iothub_client\src/iothubtransportamqp_methods.c ****         LogError("Bad arguments: hostname=%p, device_id=%p", hostname, device_id);
 1203              		.loc 1 102 0 is_stmt 1 discriminator 4
 1204 0034 0024     		movs	r4, #0
 1205              	.LVL201:
 1206 0036 79E0     		b	.L65
 1207              	.LVL202:
 1208              	.L64:
 109:Source\azure_iot_sdk\iothub_client\src/iothubtransportamqp_methods.c ****         if (result == NULL)
 1209              		.loc 1 109 0
 1210 0038 4420     		movs	r0, #68
 1211              	.LVL203:
 1212 003a FFF7FEFF 		bl	malloc
 1213              	.LVL204:
 1214 003e 041E     		subs	r4, r0, #0
 1215              	.LVL205:
 110:Source\azure_iot_sdk\iothub_client\src/iothubtransportamqp_methods.c ****         {
 1216              		.loc 1 110 0
 1217 0040 0ED1     		bne	.L66
 1218              	.LBB50:
 113:Source\azure_iot_sdk\iothub_client\src/iothubtransportamqp_methods.c ****         }
 1219              		.loc 1 113 0 discriminator 3
 1220 0042 FFF7FEFF 		bl	xlogging_get_log_function
 1221              	.LVL206:
 1222 0046 051E     		subs	r5, r0, #0
 1223              	.LVL207:
 1224 0048 70D0     		beq	.L65
 113:Source\azure_iot_sdk\iothub_client\src/iothubtransportamqp_methods.c ****         }
 1225              		.loc 1 113 0 is_stmt 0 discriminator 4
 1226 004a 3D4B     		ldr	r3, .L74+12
 1227 004c 0193     		str	r3, [sp, #4]
 1228 004e 0123     		movs	r3, #1
 1229 0050 0093     		str	r3, [sp]
 1230 0052 7033     		adds	r3, r3, #112
 1231 0054 384A     		ldr	r2, .L74+4
ARM GAS  C:\Users\Phuong\AppData\Local\Temp\ccu7x7Ah.s 			page 32


 1232 0056 1432     		adds	r2, r2, #20
 1233 0058 3849     		ldr	r1, .L74+8
 1234 005a 0020     		movs	r0, #0
 1235              	.LVL208:
 1236 005c A847     		blx	r5
 1237              	.LVL209:
 1238 005e 65E0     		b	.L65
 1239              	.LVL210:
 1240              	.L66:
 1241              	.LBE50:
 117:Source\azure_iot_sdk\iothub_client\src/iothubtransportamqp_methods.c **** 
 1242              		.loc 1 117 0 is_stmt 1
 1243 0060 4422     		movs	r2, #68
 1244 0062 0021     		movs	r1, #0
 1245 0064 FFF7FEFF 		bl	memset
 1246              	.LVL211:
 120:Source\azure_iot_sdk\iothub_client\src/iothubtransportamqp_methods.c ****             {
 1247              		.loc 1 120 0
 1248 0068 3100     		movs	r1, r6
 1249 006a 2000     		movs	r0, r4
 1250 006c FFF7FEFF 		bl	mallocAndStrcpy_s
 1251              	.LVL212:
 1252 0070 0028     		cmp	r0, #0
 1253 0072 12D0     		beq	.L67
 1254              	.LBB51:
 123:Source\azure_iot_sdk\iothub_client\src/iothubtransportamqp_methods.c ****                 free(result);
 1255              		.loc 1 123 0 discriminator 3
 1256 0074 FFF7FEFF 		bl	xlogging_get_log_function
 1257              	.LVL213:
 1258 0078 051E     		subs	r5, r0, #0
 1259              	.LVL214:
 1260 007a 09D0     		beq	.L68
 123:Source\azure_iot_sdk\iothub_client\src/iothubtransportamqp_methods.c ****                 free(result);
 1261              		.loc 1 123 0 is_stmt 0 discriminator 4
 1262 007c 314B     		ldr	r3, .L74+16
 1263 007e 0193     		str	r3, [sp, #4]
 1264 0080 0123     		movs	r3, #1
 1265 0082 0093     		str	r3, [sp]
 1266 0084 7A33     		adds	r3, r3, #122
 1267 0086 2C4A     		ldr	r2, .L74+4
 1268 0088 1432     		adds	r2, r2, #20
 1269 008a 2C49     		ldr	r1, .L74+8
 1270 008c 0020     		movs	r0, #0
 1271              	.LVL215:
 1272 008e A847     		blx	r5
 1273              	.LVL216:
 1274              	.L68:
 1275              	.LBE51:
 124:Source\azure_iot_sdk\iothub_client\src/iothubtransportamqp_methods.c ****                 result = NULL;
 1276              		.loc 1 124 0 is_stmt 1
 1277 0090 2000     		movs	r0, r4
 1278 0092 FFF7FEFF 		bl	free
 1279              	.LVL217:
 125:Source\azure_iot_sdk\iothub_client\src/iothubtransportamqp_methods.c ****             }
 1280              		.loc 1 125 0
 1281 0096 0024     		movs	r4, #0
 1282 0098 48E0     		b	.L65
ARM GAS  C:\Users\Phuong\AppData\Local\Temp\ccu7x7Ah.s 			page 33


 1283              	.LVL218:
 1284              	.L67:
 127:Source\azure_iot_sdk\iothub_client\src/iothubtransportamqp_methods.c ****             {
 1285              		.loc 1 127 0
 1286 009a 002F     		cmp	r7, #0
 1287 009c 1BD0     		beq	.L69
 127:Source\azure_iot_sdk\iothub_client\src/iothubtransportamqp_methods.c ****             {
 1288              		.loc 1 127 0 is_stmt 0 discriminator 1
 1289 009e 201D     		adds	r0, r4, #4
 1290 00a0 3900     		movs	r1, r7
 1291 00a2 FFF7FEFF 		bl	mallocAndStrcpy_s
 1292              	.LVL219:
 1293 00a6 0028     		cmp	r0, #0
 1294 00a8 15D0     		beq	.L69
 1295              	.LBB52:
 130:Source\azure_iot_sdk\iothub_client\src/iothubtransportamqp_methods.c ****                 free(result->device_id);
 1296              		.loc 1 130 0 is_stmt 1 discriminator 3
 1297 00aa FFF7FEFF 		bl	xlogging_get_log_function
 1298              	.LVL220:
 1299 00ae 051E     		subs	r5, r0, #0
 1300              	.LVL221:
 1301 00b0 09D0     		beq	.L70
 130:Source\azure_iot_sdk\iothub_client\src/iothubtransportamqp_methods.c ****                 free(result->device_id);
 1302              		.loc 1 130 0 is_stmt 0 discriminator 4
 1303 00b2 244B     		ldr	r3, .L74+16
 1304 00b4 0193     		str	r3, [sp, #4]
 1305 00b6 0123     		movs	r3, #1
 1306 00b8 0093     		str	r3, [sp]
 1307 00ba 8133     		adds	r3, r3, #129
 1308 00bc 1E4A     		ldr	r2, .L74+4
 1309 00be 1432     		adds	r2, r2, #20
 1310 00c0 1E49     		ldr	r1, .L74+8
 1311 00c2 0020     		movs	r0, #0
 1312              	.LVL222:
 1313 00c4 A847     		blx	r5
 1314              	.LVL223:
 1315              	.L70:
 1316              	.LBE52:
 131:Source\azure_iot_sdk\iothub_client\src/iothubtransportamqp_methods.c ****                 free(result);
 1317              		.loc 1 131 0 is_stmt 1
 1318 00c6 2068     		ldr	r0, [r4]
 1319 00c8 FFF7FEFF 		bl	free
 1320              	.LVL224:
 132:Source\azure_iot_sdk\iothub_client\src/iothubtransportamqp_methods.c ****                 result = NULL;
 1321              		.loc 1 132 0
 1322 00cc 2000     		movs	r0, r4
 1323 00ce FFF7FEFF 		bl	free
 1324              	.LVL225:
 133:Source\azure_iot_sdk\iothub_client\src/iothubtransportamqp_methods.c ****             }
 1325              		.loc 1 133 0
 1326 00d2 0024     		movs	r4, #0
 1327 00d4 2AE0     		b	.L65
 1328              	.LVL226:
 1329              	.L69:
 138:Source\azure_iot_sdk\iothub_client\src/iothubtransportamqp_methods.c ****                 {
 1330              		.loc 1 138 0
 1331 00d6 2000     		movs	r0, r4
ARM GAS  C:\Users\Phuong\AppData\Local\Temp\ccu7x7Ah.s 			page 34


 1332 00d8 0830     		adds	r0, r0, #8
 1333 00da 2900     		movs	r1, r5
 1334 00dc FFF7FEFF 		bl	mallocAndStrcpy_s
 1335              	.LVL227:
 1336 00e0 0028     		cmp	r0, #0
 1337 00e2 18D0     		beq	.L71
 1338              	.LBB53:
 141:Source\azure_iot_sdk\iothub_client\src/iothubtransportamqp_methods.c ****                     free(result->device_id);
 1339              		.loc 1 141 0 discriminator 3
 1340 00e4 FFF7FEFF 		bl	xlogging_get_log_function
 1341              	.LVL228:
 1342 00e8 051E     		subs	r5, r0, #0
 1343              	.LVL229:
 1344 00ea 09D0     		beq	.L72
 141:Source\azure_iot_sdk\iothub_client\src/iothubtransportamqp_methods.c ****                     free(result->device_id);
 1345              		.loc 1 141 0 is_stmt 0 discriminator 4
 1346 00ec 164B     		ldr	r3, .L74+20
 1347 00ee 0193     		str	r3, [sp, #4]
 1348 00f0 0123     		movs	r3, #1
 1349 00f2 0093     		str	r3, [sp]
 1350 00f4 8C33     		adds	r3, r3, #140
 1351 00f6 104A     		ldr	r2, .L74+4
 1352 00f8 1432     		adds	r2, r2, #20
 1353 00fa 1049     		ldr	r1, .L74+8
 1354 00fc 0020     		movs	r0, #0
 1355              	.LVL230:
 1356 00fe A847     		blx	r5
 1357              	.LVL231:
 1358              	.L72:
 1359              	.LBE53:
 142:Source\azure_iot_sdk\iothub_client\src/iothubtransportamqp_methods.c ****                     free(result->module_id);
 1360              		.loc 1 142 0 is_stmt 1
 1361 0100 2068     		ldr	r0, [r4]
 1362 0102 FFF7FEFF 		bl	free
 1363              	.LVL232:
 143:Source\azure_iot_sdk\iothub_client\src/iothubtransportamqp_methods.c ****                     free(result);
 1364              		.loc 1 143 0
 1365 0106 6068     		ldr	r0, [r4, #4]
 1366 0108 FFF7FEFF 		bl	free
 1367              	.LVL233:
 144:Source\azure_iot_sdk\iothub_client\src/iothubtransportamqp_methods.c ****                     result = NULL;
 1368              		.loc 1 144 0
 1369 010c 2000     		movs	r0, r4
 1370 010e FFF7FEFF 		bl	free
 1371              	.LVL234:
 145:Source\azure_iot_sdk\iothub_client\src/iothubtransportamqp_methods.c ****                 }
 1372              		.loc 1 145 0
 1373 0112 0024     		movs	r4, #0
 1374 0114 0AE0     		b	.L65
 1375              	.LVL235:
 1376              	.L71:
 149:Source\azure_iot_sdk\iothub_client\src/iothubtransportamqp_methods.c ****                     result->method_request_handles = NULL;
 1377              		.loc 1 149 0
 1378 0116 0023     		movs	r3, #0
 1379 0118 3422     		movs	r2, #52
 1380 011a A354     		strb	r3, [r4, r2]
 150:Source\azure_iot_sdk\iothub_client\src/iothubtransportamqp_methods.c ****                     result->method_request_handle_count = 0;
ARM GAS  C:\Users\Phuong\AppData\Local\Temp\ccu7x7Ah.s 			page 35


 1381              		.loc 1 150 0
 1382 011c A363     		str	r3, [r4, #56]
 151:Source\azure_iot_sdk\iothub_client\src/iothubtransportamqp_methods.c ****                     result->receiver_link_disconnected = false;
 1383              		.loc 1 151 0
 1384 011e E363     		str	r3, [r4, #60]
 152:Source\azure_iot_sdk\iothub_client\src/iothubtransportamqp_methods.c ****                     result->sender_link_disconnected = false;
 1385              		.loc 1 152 0
 1386 0120 0C32     		adds	r2, r2, #12
 1387 0122 A354     		strb	r3, [r4, r2]
 153:Source\azure_iot_sdk\iothub_client\src/iothubtransportamqp_methods.c ****                 }
 1388              		.loc 1 153 0
 1389 0124 0132     		adds	r2, r2, #1
 1390 0126 A354     		strb	r3, [r4, r2]
 1391 0128 00E0     		b	.L65
 1392              	.LVL236:
 1393              	.L73:
 102:Source\azure_iot_sdk\iothub_client\src/iothubtransportamqp_methods.c ****         LogError("Bad arguments: hostname=%p, device_id=%p", hostname, device_id);
 1394              		.loc 1 102 0
 1395 012a 0024     		movs	r4, #0
 1396              	.LVL237:
 1397              	.L65:
 160:Source\azure_iot_sdk\iothub_client\src/iothubtransportamqp_methods.c **** 
 1398              		.loc 1 160 0
 1399 012c 2000     		movs	r0, r4
 1400 012e 05B0     		add	sp, sp, #20
 1401              		@ sp needed
 1402              	.LVL238:
 1403              	.LVL239:
 1404              	.LVL240:
 1405 0130 F0BD     		pop	{r4, r5, r6, r7, pc}
 1406              	.L75:
 1407 0132 C046     		.align	2
 1408              	.L74:
 1409 0134 C4020000 		.word	.LC39
 1410 0138 00000000 		.word	.LANCHOR0
 1411 013c 00000000 		.word	.LC1
 1412 0140 F0020000 		.word	.LC41
 1413 0144 24030000 		.word	.LC43
 1414 0148 3C030000 		.word	.LC45
 1415              		.cfi_endproc
 1416              	.LFE2:
 1417              		.size	iothubtransportamqp_methods_create, .-iothubtransportamqp_methods_create
 1418              		.section	.text.create_correlation_id,"ax",%progbits
 1419              		.align	2
 1420              		.global	create_correlation_id
 1421              		.code	16
 1422              		.thumb_func
 1423              		.type	create_correlation_id, %function
 1424              	create_correlation_id:
 1425              	.LFB9:
 492:Source\azure_iot_sdk\iothub_client\src/iothubtransportamqp_methods.c **** 
 493:Source\azure_iot_sdk\iothub_client\src/iothubtransportamqp_methods.c **** STRING_HANDLE create_correlation_id(IOTHUBTRANSPORT_AMQP_METHODS_HANDLE iothubtransport_amqp_method
 494:Source\azure_iot_sdk\iothub_client\src/iothubtransportamqp_methods.c **** {
 1426              		.loc 1 494 0
 1427              		.cfi_startproc
 1428              		@ args = 0, pretend = 0, frame = 0
 1429              		@ frame_needed = 0, uses_anonymous_args = 0
ARM GAS  C:\Users\Phuong\AppData\Local\Temp\ccu7x7Ah.s 			page 36


 1430              	.LVL241:
 1431 0000 10B5     		push	{r4, lr}
 1432              		.cfi_def_cfa_offset 8
 1433              		.cfi_offset 4, -8
 1434              		.cfi_offset 14, -4
 495:Source\azure_iot_sdk\iothub_client\src/iothubtransportamqp_methods.c ****     if (iothubtransport_amqp_methods_handle->module_id != NULL)
 1435              		.loc 1 495 0
 1436 0002 4268     		ldr	r2, [r0, #4]
 1437 0004 002A     		cmp	r2, #0
 1438 0006 04D0     		beq	.L77
 496:Source\azure_iot_sdk\iothub_client\src/iothubtransportamqp_methods.c ****     {
 497:Source\azure_iot_sdk\iothub_client\src/iothubtransportamqp_methods.c ****         return STRING_construct_sprintf("%s/%s", iothubtransport_amqp_methods_handle->device_id, io
 1439              		.loc 1 497 0
 1440 0008 0168     		ldr	r1, [r0]
 1441 000a 0448     		ldr	r0, .L79
 1442              	.LVL242:
 1443 000c FFF7FEFF 		bl	STRING_construct_sprintf
 1444              	.LVL243:
 1445 0010 02E0     		b	.L78
 1446              	.LVL244:
 1447              	.L77:
 498:Source\azure_iot_sdk\iothub_client\src/iothubtransportamqp_methods.c ****     }
 499:Source\azure_iot_sdk\iothub_client\src/iothubtransportamqp_methods.c ****     else
 500:Source\azure_iot_sdk\iothub_client\src/iothubtransportamqp_methods.c ****     {
 501:Source\azure_iot_sdk\iothub_client\src/iothubtransportamqp_methods.c ****         return STRING_construct(iothubtransport_amqp_methods_handle->device_id);
 1448              		.loc 1 501 0
 1449 0012 0068     		ldr	r0, [r0]
 1450              	.LVL245:
 1451 0014 FFF7FEFF 		bl	STRING_construct
 1452              	.LVL246:
 1453              	.L78:
 502:Source\azure_iot_sdk\iothub_client\src/iothubtransportamqp_methods.c ****     }
 503:Source\azure_iot_sdk\iothub_client\src/iothubtransportamqp_methods.c **** }
 1454              		.loc 1 503 0
 1455              		@ sp needed
 1456 0018 10BD     		pop	{r4, pc}
 1457              	.L80:
 1458 001a C046     		.align	2
 1459              	.L79:
 1460 001c 54030000 		.word	.LC47
 1461              		.cfi_endproc
 1462              	.LFE9:
 1463              		.size	create_correlation_id, .-create_correlation_id
 1464              		.section	.text.set_link_attach_properties,"ax",%progbits
 1465              		.align	2
 1466              		.code	16
 1467              		.thumb_func
 1468              		.type	set_link_attach_properties, %function
 1469              	set_link_attach_properties:
 1470              	.LFB13:
 504:Source\azure_iot_sdk\iothub_client\src/iothubtransportamqp_methods.c **** 
 505:Source\azure_iot_sdk\iothub_client\src/iothubtransportamqp_methods.c **** STRING_HANDLE create_peer_endpoint_name(IOTHUBTRANSPORT_AMQP_METHODS_HANDLE iothubtransport_amqp_me
 506:Source\azure_iot_sdk\iothub_client\src/iothubtransportamqp_methods.c **** {
 507:Source\azure_iot_sdk\iothub_client\src/iothubtransportamqp_methods.c ****     if (iothubtransport_amqp_methods_handle->module_id != NULL)
 508:Source\azure_iot_sdk\iothub_client\src/iothubtransportamqp_methods.c ****     {
 509:Source\azure_iot_sdk\iothub_client\src/iothubtransportamqp_methods.c ****         return STRING_construct_sprintf("amqps://%s/devices/%s/modules/%s/methods/devicebound", iot
 510:Source\azure_iot_sdk\iothub_client\src/iothubtransportamqp_methods.c ****     }
ARM GAS  C:\Users\Phuong\AppData\Local\Temp\ccu7x7Ah.s 			page 37


 511:Source\azure_iot_sdk\iothub_client\src/iothubtransportamqp_methods.c ****     else
 512:Source\azure_iot_sdk\iothub_client\src/iothubtransportamqp_methods.c ****     {
 513:Source\azure_iot_sdk\iothub_client\src/iothubtransportamqp_methods.c ****         return STRING_construct_sprintf("amqps://%s/devices/%s/methods/devicebound", iothubtranspor
 514:Source\azure_iot_sdk\iothub_client\src/iothubtransportamqp_methods.c ****     }
 515:Source\azure_iot_sdk\iothub_client\src/iothubtransportamqp_methods.c **** }
 516:Source\azure_iot_sdk\iothub_client\src/iothubtransportamqp_methods.c **** 
 517:Source\azure_iot_sdk\iothub_client\src/iothubtransportamqp_methods.c **** STRING_HANDLE create_requests_link_name(IOTHUBTRANSPORT_AMQP_METHODS_HANDLE iothubtransport_amqp_me
 518:Source\azure_iot_sdk\iothub_client\src/iothubtransportamqp_methods.c **** {
 519:Source\azure_iot_sdk\iothub_client\src/iothubtransportamqp_methods.c ****     if (iothubtransport_amqp_methods_handle->module_id != NULL)
 520:Source\azure_iot_sdk\iothub_client\src/iothubtransportamqp_methods.c ****     {
 521:Source\azure_iot_sdk\iothub_client\src/iothubtransportamqp_methods.c ****         return STRING_construct_sprintf("methods_requests_link-%s/%s", iothubtransport_amqp_methods
 522:Source\azure_iot_sdk\iothub_client\src/iothubtransportamqp_methods.c ****     }
 523:Source\azure_iot_sdk\iothub_client\src/iothubtransportamqp_methods.c ****     else
 524:Source\azure_iot_sdk\iothub_client\src/iothubtransportamqp_methods.c ****     {
 525:Source\azure_iot_sdk\iothub_client\src/iothubtransportamqp_methods.c ****         return STRING_construct_sprintf("methods_requests_link-%s", iothubtransport_amqp_methods_ha
 526:Source\azure_iot_sdk\iothub_client\src/iothubtransportamqp_methods.c ****     }
 527:Source\azure_iot_sdk\iothub_client\src/iothubtransportamqp_methods.c **** }
 528:Source\azure_iot_sdk\iothub_client\src/iothubtransportamqp_methods.c **** 
 529:Source\azure_iot_sdk\iothub_client\src/iothubtransportamqp_methods.c **** STRING_HANDLE create_responses_link_name(IOTHUBTRANSPORT_AMQP_METHODS_HANDLE iothubtransport_amqp_m
 530:Source\azure_iot_sdk\iothub_client\src/iothubtransportamqp_methods.c **** {
 531:Source\azure_iot_sdk\iothub_client\src/iothubtransportamqp_methods.c ****     if (iothubtransport_amqp_methods_handle->module_id != NULL)
 532:Source\azure_iot_sdk\iothub_client\src/iothubtransportamqp_methods.c ****     {
 533:Source\azure_iot_sdk\iothub_client\src/iothubtransportamqp_methods.c ****         return STRING_construct_sprintf("methods_responses_link-%s/%s", iothubtransport_amqp_method
 534:Source\azure_iot_sdk\iothub_client\src/iothubtransportamqp_methods.c ****     }
 535:Source\azure_iot_sdk\iothub_client\src/iothubtransportamqp_methods.c ****     else
 536:Source\azure_iot_sdk\iothub_client\src/iothubtransportamqp_methods.c ****     {
 537:Source\azure_iot_sdk\iothub_client\src/iothubtransportamqp_methods.c ****         return STRING_construct_sprintf("methods_responses_link-%s", iothubtransport_amqp_methods_h
 538:Source\azure_iot_sdk\iothub_client\src/iothubtransportamqp_methods.c ****     }
 539:Source\azure_iot_sdk\iothub_client\src/iothubtransportamqp_methods.c **** }
 540:Source\azure_iot_sdk\iothub_client\src/iothubtransportamqp_methods.c **** 
 541:Source\azure_iot_sdk\iothub_client\src/iothubtransportamqp_methods.c **** 
 542:Source\azure_iot_sdk\iothub_client\src/iothubtransportamqp_methods.c **** 
 543:Source\azure_iot_sdk\iothub_client\src/iothubtransportamqp_methods.c **** static int set_link_attach_properties(IOTHUBTRANSPORT_AMQP_METHODS_HANDLE iothubtransport_amqp_meth
 544:Source\azure_iot_sdk\iothub_client\src/iothubtransportamqp_methods.c **** {
 1471              		.loc 1 544 0
 1472              		.cfi_startproc
 1473              		@ args = 0, pretend = 0, frame = 16
 1474              		@ frame_needed = 0, uses_anonymous_args = 0
 1475              	.LVL247:
 1476 0000 F0B5     		push	{r4, r5, r6, r7, lr}
 1477              		.cfi_def_cfa_offset 20
 1478              		.cfi_offset 4, -20
 1479              		.cfi_offset 5, -16
 1480              		.cfi_offset 6, -12
 1481              		.cfi_offset 7, -8
 1482              		.cfi_offset 14, -4
 1483 0002 4746     		mov	r7, r8
 1484 0004 80B4     		push	{r7}
 1485              		.cfi_def_cfa_offset 24
 1486              		.cfi_offset 8, -24
 1487 0006 86B0     		sub	sp, sp, #24
 1488              		.cfi_def_cfa_offset 48
 1489 0008 0290     		str	r0, [sp, #8]
 1490              	.LVL248:
 545:Source\azure_iot_sdk\iothub_client\src/iothubtransportamqp_methods.c ****     int result = 0;
 546:Source\azure_iot_sdk\iothub_client\src/iothubtransportamqp_methods.c ****     fields link_attach_properties;
 547:Source\azure_iot_sdk\iothub_client\src/iothubtransportamqp_methods.c **** 
ARM GAS  C:\Users\Phuong\AppData\Local\Temp\ccu7x7Ah.s 			page 38


 548:Source\azure_iot_sdk\iothub_client\src/iothubtransportamqp_methods.c ****     /* Codes_SRS_IOTHUBTRANSPORT_AMQP_METHODS_01_140: [ A link attach properties map shall be creat
 549:Source\azure_iot_sdk\iothub_client\src/iothubtransportamqp_methods.c ****     link_attach_properties = amqpvalue_create_map();
 1491              		.loc 1 549 0
 1492 000a FFF7FEFF 		bl	amqpvalue_create_map
 1493              	.LVL249:
 1494 000e 041E     		subs	r4, r0, #0
 1495              	.LVL250:
 550:Source\azure_iot_sdk\iothub_client\src/iothubtransportamqp_methods.c ****     if (link_attach_properties == NULL)
 1496              		.loc 1 550 0
 1497 0010 11D1     		bne	.L82
 1498              	.LBB54:
 551:Source\azure_iot_sdk\iothub_client\src/iothubtransportamqp_methods.c ****     {
 552:Source\azure_iot_sdk\iothub_client\src/iothubtransportamqp_methods.c ****         /* Codes_SRS_IOTHUBTRANSPORT_AMQP_METHODS_01_145: [ If any call for creating or setting the
 553:Source\azure_iot_sdk\iothub_client\src/iothubtransportamqp_methods.c ****         LogError("Cannot create the map for link attach properties");
 1499              		.loc 1 553 0 discriminator 3
 1500 0012 FFF7FEFF 		bl	xlogging_get_log_function
 1501              	.LVL251:
 1502 0016 041E     		subs	r4, r0, #0
 1503              	.LVL252:
 1504 0018 00D1     		bne	.LCB1606
 1505 001a 22E1     		b	.L97	@long jump
 1506              	.LCB1606:
 1507              		.loc 1 553 0 is_stmt 0 discriminator 4
 1508 001c 944B     		ldr	r3, .L108
 1509 001e 0193     		str	r3, [sp, #4]
 1510 0020 0123     		movs	r3, #1
 1511 0022 0093     		str	r3, [sp]
 1512 0024 934B     		ldr	r3, .L108+4
 1513 0026 944A     		ldr	r2, .L108+8
 1514 0028 3832     		adds	r2, r2, #56
 1515 002a 9449     		ldr	r1, .L108+12
 1516 002c 0020     		movs	r0, #0
 1517              	.LVL253:
 1518 002e A047     		blx	r4
 1519              	.LVL254:
 1520              	.LBE54:
 554:Source\azure_iot_sdk\iothub_client\src/iothubtransportamqp_methods.c ****         result = __FAILURE__;
 1521              		.loc 1 554 0 is_stmt 1 discriminator 4
 1522 0030 934B     		ldr	r3, .L108+16
 1523 0032 0293     		str	r3, [sp, #8]
 1524              	.LVL255:
 1525 0034 17E1     		b	.L83
 1526              	.LVL256:
 1527              	.L82:
 1528              	.LBB55:
 555:Source\azure_iot_sdk\iothub_client\src/iothubtransportamqp_methods.c ****     }
 556:Source\azure_iot_sdk\iothub_client\src/iothubtransportamqp_methods.c ****     else
 557:Source\azure_iot_sdk\iothub_client\src/iothubtransportamqp_methods.c ****     {
 558:Source\azure_iot_sdk\iothub_client\src/iothubtransportamqp_methods.c ****         /* Codes_SRS_IOTHUBTRANSPORT_AMQP_METHODS_01_141: [ A property key which shall be a symbol 
 559:Source\azure_iot_sdk\iothub_client\src/iothubtransportamqp_methods.c ****         AMQP_VALUE channel_correlation_id_property_key = amqpvalue_create_symbol("com.microsoft:cha
 1529              		.loc 1 559 0
 1530 0036 9348     		ldr	r0, .L108+20
 1531              	.LVL257:
 1532 0038 FFF7FEFF 		bl	amqpvalue_create_symbol
 1533              	.LVL258:
 1534 003c 051E     		subs	r5, r0, #0
 1535              	.LVL259:
ARM GAS  C:\Users\Phuong\AppData\Local\Temp\ccu7x7Ah.s 			page 39


 560:Source\azure_iot_sdk\iothub_client\src/iothubtransportamqp_methods.c ****         if (channel_correlation_id_property_key == NULL)
 1536              		.loc 1 560 0
 1537 003e 12D1     		bne	.L84
 1538              	.LBB56:
 561:Source\azure_iot_sdk\iothub_client\src/iothubtransportamqp_methods.c ****         {
 562:Source\azure_iot_sdk\iothub_client\src/iothubtransportamqp_methods.c ****             /* Codes_SRS_IOTHUBTRANSPORT_AMQP_METHODS_01_145: [ If any call for creating or setting
 563:Source\azure_iot_sdk\iothub_client\src/iothubtransportamqp_methods.c ****             LogError("Cannot create the channel correlation id property key for the link attach pro
 1539              		.loc 1 563 0 discriminator 3
 1540 0040 FFF7FEFF 		bl	xlogging_get_log_function
 1541              	.LVL260:
 1542 0044 051E     		subs	r5, r0, #0
 1543              	.LVL261:
 1544 0046 00D1     		bne	.LCB1647
 1545 0048 04E1     		b	.L98	@long jump
 1546              	.LCB1647:
 1547              		.loc 1 563 0 is_stmt 0 discriminator 4
 1548 004a 8F4B     		ldr	r3, .L108+24
 1549 004c 0193     		str	r3, [sp, #4]
 1550 004e 0123     		movs	r3, #1
 1551 0050 0093     		str	r3, [sp]
 1552 0052 8E4B     		ldr	r3, .L108+28
 1553 0054 884A     		ldr	r2, .L108+8
 1554 0056 3832     		adds	r2, r2, #56
 1555 0058 8849     		ldr	r1, .L108+12
 1556 005a 0020     		movs	r0, #0
 1557              	.LVL262:
 1558 005c A847     		blx	r5
 1559              	.LVL263:
 1560              	.LBE56:
 564:Source\azure_iot_sdk\iothub_client\src/iothubtransportamqp_methods.c ****             result = __FAILURE__;
 1561              		.loc 1 564 0 is_stmt 1 discriminator 4
 1562 005e 8D23     		movs	r3, #141
 1563 0060 9B00     		lsls	r3, r3, #2
 1564 0062 0293     		str	r3, [sp, #8]
 1565              	.LVL264:
 1566 0064 F9E0     		b	.L85
 1567              	.LVL265:
 1568              	.L84:
 1569              	.LBB57:
 565:Source\azure_iot_sdk\iothub_client\src/iothubtransportamqp_methods.c ****         }
 566:Source\azure_iot_sdk\iothub_client\src/iothubtransportamqp_methods.c ****         else
 567:Source\azure_iot_sdk\iothub_client\src/iothubtransportamqp_methods.c ****         {
 568:Source\azure_iot_sdk\iothub_client\src/iothubtransportamqp_methods.c ****             /* Codes_SRS_IOTHUBTRANSPORT_AMQP_METHODS_01_142: [ A property value of type string tha
 569:Source\azure_iot_sdk\iothub_client\src/iothubtransportamqp_methods.c ****             STRING_HANDLE correlation_id = NULL;
 570:Source\azure_iot_sdk\iothub_client\src/iothubtransportamqp_methods.c ****             AMQP_VALUE channel_correlation_id_property_value = NULL;
 571:Source\azure_iot_sdk\iothub_client\src/iothubtransportamqp_methods.c **** 
 572:Source\azure_iot_sdk\iothub_client\src/iothubtransportamqp_methods.c ****             if ((correlation_id = create_correlation_id(iothubtransport_amqp_methods_handle)) == NU
 1570              		.loc 1 572 0
 1571 0066 0298     		ldr	r0, [sp, #8]
 1572              	.LVL266:
 1573 0068 FFF7FEFF 		bl	create_correlation_id
 1574              	.LVL267:
 1575 006c 061E     		subs	r6, r0, #0
 1576              	.LVL268:
 1577 006e 12D1     		bne	.L86
 1578              	.LBB58:
 573:Source\azure_iot_sdk\iothub_client\src/iothubtransportamqp_methods.c ****             {
ARM GAS  C:\Users\Phuong\AppData\Local\Temp\ccu7x7Ah.s 			page 40


 574:Source\azure_iot_sdk\iothub_client\src/iothubtransportamqp_methods.c ****                 /* Codes_SRS_IOTHUBTRANSPORT_AMQP_METHODS_01_145: [ If any call for creating or set
 575:Source\azure_iot_sdk\iothub_client\src/iothubtransportamqp_methods.c ****                 LogError("Cannot create the channel correlation id string for the link attach prope
 1579              		.loc 1 575 0 discriminator 3
 1580 0070 FFF7FEFF 		bl	xlogging_get_log_function
 1581              	.LVL269:
 1582 0074 071E     		subs	r7, r0, #0
 1583              	.LVL270:
 1584 0076 00D1     		bne	.LCB1690
 1585 0078 DFE0     		b	.L99	@long jump
 1586              	.LCB1690:
 1587              		.loc 1 575 0 is_stmt 0 discriminator 4
 1588 007a 854B     		ldr	r3, .L108+32
 1589 007c 0193     		str	r3, [sp, #4]
 1590 007e 0123     		movs	r3, #1
 1591 0080 0093     		str	r3, [sp]
 1592 0082 844B     		ldr	r3, .L108+36
 1593 0084 7C4A     		ldr	r2, .L108+8
 1594 0086 3832     		adds	r2, r2, #56
 1595 0088 7C49     		ldr	r1, .L108+12
 1596 008a 0020     		movs	r0, #0
 1597              	.LVL271:
 1598 008c B847     		blx	r7
 1599              	.LVL272:
 1600              	.LBE58:
 576:Source\azure_iot_sdk\iothub_client\src/iothubtransportamqp_methods.c ****                 result = __FAILURE__;
 1601              		.loc 1 576 0 is_stmt 1 discriminator 4
 1602 008e 9023     		movs	r3, #144
 1603 0090 9B00     		lsls	r3, r3, #2
 1604 0092 0293     		str	r3, [sp, #8]
 1605              	.LVL273:
 1606 0094 D7E0     		b	.L87
 1607              	.LVL274:
 1608              	.L86:
 577:Source\azure_iot_sdk\iothub_client\src/iothubtransportamqp_methods.c ****             }
 578:Source\azure_iot_sdk\iothub_client\src/iothubtransportamqp_methods.c ****             else if ((channel_correlation_id_property_value = amqpvalue_create_string(STRING_c_str(
 1609              		.loc 1 578 0
 1610 0096 FFF7FEFF 		bl	STRING_c_str
 1611              	.LVL275:
 1612 009a FFF7FEFF 		bl	amqpvalue_create_string
 1613              	.LVL276:
 1614 009e 071E     		subs	r7, r0, #0
 1615              	.LVL277:
 1616 00a0 11D1     		bne	.L88
 1617              	.LBB59:
 579:Source\azure_iot_sdk\iothub_client\src/iothubtransportamqp_methods.c ****             {
 580:Source\azure_iot_sdk\iothub_client\src/iothubtransportamqp_methods.c ****                 /* Codes_SRS_IOTHUBTRANSPORT_AMQP_METHODS_01_145: [ If any call for creating or set
 581:Source\azure_iot_sdk\iothub_client\src/iothubtransportamqp_methods.c ****                 LogError("Cannot create the channel correlation id property key for the link attach
 1618              		.loc 1 581 0 discriminator 3
 1619 00a2 FFF7FEFF 		bl	xlogging_get_log_function
 1620              	.LVL278:
 1621 00a6 071E     		subs	r7, r0, #0
 1622              	.LVL279:
 1623 00a8 00D1     		bne	.LCB1732
 1624 00aa CAE0     		b	.L100	@long jump
 1625              	.LCB1732:
 1626              		.loc 1 581 0 is_stmt 0 discriminator 4
 1627 00ac 764B     		ldr	r3, .L108+24
ARM GAS  C:\Users\Phuong\AppData\Local\Temp\ccu7x7Ah.s 			page 41


 1628 00ae 0193     		str	r3, [sp, #4]
 1629 00b0 0123     		movs	r3, #1
 1630 00b2 0093     		str	r3, [sp]
 1631 00b4 784B     		ldr	r3, .L108+40
 1632 00b6 704A     		ldr	r2, .L108+8
 1633 00b8 3832     		adds	r2, r2, #56
 1634 00ba 7049     		ldr	r1, .L108+12
 1635 00bc 0020     		movs	r0, #0
 1636              	.LVL280:
 1637 00be B847     		blx	r7
 1638              	.LVL281:
 1639              	.LBE59:
 582:Source\azure_iot_sdk\iothub_client\src/iothubtransportamqp_methods.c ****                 result = __FAILURE__;
 1640              		.loc 1 582 0 is_stmt 1 discriminator 4
 1641 00c0 764B     		ldr	r3, .L108+44
 1642 00c2 0293     		str	r3, [sp, #8]
 1643              	.LVL282:
 1644 00c4 BFE0     		b	.L87
 1645              	.LVL283:
 1646              	.L88:
 583:Source\azure_iot_sdk\iothub_client\src/iothubtransportamqp_methods.c ****             }
 584:Source\azure_iot_sdk\iothub_client\src/iothubtransportamqp_methods.c ****             else
 585:Source\azure_iot_sdk\iothub_client\src/iothubtransportamqp_methods.c ****             {
 586:Source\azure_iot_sdk\iothub_client\src/iothubtransportamqp_methods.c ****                 /* Codes_SRS_IOTHUBTRANSPORT_AMQP_METHODS_01_143: [ The `com.microsoft:channel-corr
 587:Source\azure_iot_sdk\iothub_client\src/iothubtransportamqp_methods.c ****                 if (amqpvalue_set_map_value(link_attach_properties, channel_correlation_id_property
 1647              		.loc 1 587 0
 1648 00c6 0200     		movs	r2, r0
 1649 00c8 2900     		movs	r1, r5
 1650 00ca 2000     		movs	r0, r4
 1651              	.LVL284:
 1652 00cc FFF7FEFF 		bl	amqpvalue_set_map_value
 1653              	.LVL285:
 1654 00d0 0028     		cmp	r0, #0
 1655 00d2 12D0     		beq	.L89
 1656              	.LBB60:
 588:Source\azure_iot_sdk\iothub_client\src/iothubtransportamqp_methods.c ****                 {
 589:Source\azure_iot_sdk\iothub_client\src/iothubtransportamqp_methods.c ****                     /* Codes_SRS_IOTHUBTRANSPORT_AMQP_METHODS_01_145: [ If any call for creating or
 590:Source\azure_iot_sdk\iothub_client\src/iothubtransportamqp_methods.c ****                     LogError("Cannot set the property for channel correlation on the link attach pr
 1657              		.loc 1 590 0 discriminator 3
 1658 00d4 FFF7FEFF 		bl	xlogging_get_log_function
 1659              	.LVL286:
 1660 00d8 8046     		mov	r8, r0
 1661              	.LVL287:
 1662 00da 0028     		cmp	r0, #0
 1663 00dc 00D1     		bne	.LCB1770
 1664 00de A3E0     		b	.L101	@long jump
 1665              	.LCB1770:
 1666              		.loc 1 590 0 is_stmt 0 discriminator 4
 1667 00e0 6F4B     		ldr	r3, .L108+48
 1668 00e2 0193     		str	r3, [sp, #4]
 1669 00e4 0123     		movs	r3, #1
 1670 00e6 0093     		str	r3, [sp]
 1671 00e8 6E4B     		ldr	r3, .L108+52
 1672 00ea 634A     		ldr	r2, .L108+8
 1673 00ec 3832     		adds	r2, r2, #56
 1674 00ee 6349     		ldr	r1, .L108+12
 1675 00f0 0020     		movs	r0, #0
ARM GAS  C:\Users\Phuong\AppData\Local\Temp\ccu7x7Ah.s 			page 42


 1676              	.LVL288:
 1677 00f2 C047     		blx	r8
 1678              	.LVL289:
 1679              	.LBE60:
 591:Source\azure_iot_sdk\iothub_client\src/iothubtransportamqp_methods.c ****                     result = __FAILURE__;
 1680              		.loc 1 591 0 is_stmt 1 discriminator 4
 1681 00f4 6C4B     		ldr	r3, .L108+56
 1682 00f6 0293     		str	r3, [sp, #8]
 1683              	.LVL290:
 1684 00f8 9BE0     		b	.L90
 1685              	.LVL291:
 1686              	.L89:
 1687              	.LBB61:
 592:Source\azure_iot_sdk\iothub_client\src/iothubtransportamqp_methods.c ****                 }
 593:Source\azure_iot_sdk\iothub_client\src/iothubtransportamqp_methods.c ****                 else
 594:Source\azure_iot_sdk\iothub_client\src/iothubtransportamqp_methods.c ****                 {
 595:Source\azure_iot_sdk\iothub_client\src/iothubtransportamqp_methods.c ****                     /* Codes_SRS_IOTHUBTRANSPORT_AMQP_METHODS_01_150: [ A property key which shall 
 596:Source\azure_iot_sdk\iothub_client\src/iothubtransportamqp_methods.c ****                     AMQP_VALUE api_version_property_key = amqpvalue_create_symbol("com.microsoft:ap
 1688              		.loc 1 596 0
 1689 00fa 6C48     		ldr	r0, .L108+60
 1690 00fc FFF7FEFF 		bl	amqpvalue_create_symbol
 1691              	.LVL292:
 1692 0100 0390     		str	r0, [sp, #12]
 1693              	.LVL293:
 597:Source\azure_iot_sdk\iothub_client\src/iothubtransportamqp_methods.c ****                     if (api_version_property_key == NULL)
 1694              		.loc 1 597 0
 1695 0102 0028     		cmp	r0, #0
 1696 0104 13D1     		bne	.L91
 1697              	.LBB62:
 598:Source\azure_iot_sdk\iothub_client\src/iothubtransportamqp_methods.c ****                     {
 599:Source\azure_iot_sdk\iothub_client\src/iothubtransportamqp_methods.c ****                         /* Codes_SRS_IOTHUBTRANSPORT_AMQP_METHODS_01_145: [ If any call for creatin
 600:Source\azure_iot_sdk\iothub_client\src/iothubtransportamqp_methods.c ****                         LogError("Cannot create the API version property key for the link attach pr
 1698              		.loc 1 600 0 discriminator 3
 1699 0106 FFF7FEFF 		bl	xlogging_get_log_function
 1700              	.LVL294:
 1701 010a 8046     		mov	r8, r0
 1702              	.LVL295:
 1703 010c 0028     		cmp	r0, #0
 1704 010e 00D1     		bne	.LCB1808
 1705 0110 8DE0     		b	.L102	@long jump
 1706              	.LCB1808:
 1707              		.loc 1 600 0 is_stmt 0 discriminator 4
 1708 0112 674B     		ldr	r3, .L108+64
 1709 0114 0193     		str	r3, [sp, #4]
 1710 0116 0123     		movs	r3, #1
 1711 0118 0093     		str	r3, [sp]
 1712 011a 9623     		movs	r3, #150
 1713 011c 9B00     		lsls	r3, r3, #2
 1714 011e 564A     		ldr	r2, .L108+8
 1715 0120 3832     		adds	r2, r2, #56
 1716 0122 5649     		ldr	r1, .L108+12
 1717 0124 0020     		movs	r0, #0
 1718              	.LVL296:
 1719 0126 C047     		blx	r8
 1720              	.LVL297:
 1721              	.LBE62:
 601:Source\azure_iot_sdk\iothub_client\src/iothubtransportamqp_methods.c ****                         result = __FAILURE__;
ARM GAS  C:\Users\Phuong\AppData\Local\Temp\ccu7x7Ah.s 			page 43


 1722              		.loc 1 601 0 is_stmt 1 discriminator 4
 1723 0128 624B     		ldr	r3, .L108+68
 1724 012a 0293     		str	r3, [sp, #8]
 1725              	.LVL298:
 1726 012c 81E0     		b	.L90
 1727              	.LVL299:
 1728              	.L91:
 1729              	.LBB63:
 602:Source\azure_iot_sdk\iothub_client\src/iothubtransportamqp_methods.c ****                     }
 603:Source\azure_iot_sdk\iothub_client\src/iothubtransportamqp_methods.c ****                     else
 604:Source\azure_iot_sdk\iothub_client\src/iothubtransportamqp_methods.c ****                     {
 605:Source\azure_iot_sdk\iothub_client\src/iothubtransportamqp_methods.c ****                         /* Codes_SRS_IOTHUBTRANSPORT_AMQP_METHODS_01_151: [ A property value of typ
 606:Source\azure_iot_sdk\iothub_client\src/iothubtransportamqp_methods.c ****                         AMQP_VALUE api_version_property_value = amqpvalue_create_string("2016-11-14
 1730              		.loc 1 606 0
 1731 012e 6248     		ldr	r0, .L108+72
 1732              	.LVL300:
 1733 0130 FFF7FEFF 		bl	amqpvalue_create_string
 1734              	.LVL301:
 1735 0134 0490     		str	r0, [sp, #16]
 1736              	.LVL302:
 607:Source\azure_iot_sdk\iothub_client\src/iothubtransportamqp_methods.c ****                         if (api_version_property_value == NULL)
 1737              		.loc 1 607 0
 1738 0136 0028     		cmp	r0, #0
 1739 0138 11D1     		bne	.L92
 1740              	.LBB64:
 608:Source\azure_iot_sdk\iothub_client\src/iothubtransportamqp_methods.c ****                         {
 609:Source\azure_iot_sdk\iothub_client\src/iothubtransportamqp_methods.c ****                             /* Codes_SRS_IOTHUBTRANSPORT_AMQP_METHODS_01_145: [ If any call for cre
 610:Source\azure_iot_sdk\iothub_client\src/iothubtransportamqp_methods.c ****                             LogError("Cannot create the API version property value for the link att
 1741              		.loc 1 610 0 discriminator 3
 1742 013a FFF7FEFF 		bl	xlogging_get_log_function
 1743              	.LVL303:
 1744 013e 8046     		mov	r8, r0
 1745              	.LVL304:
 1746 0140 0028     		cmp	r0, #0
 1747 0142 6BD0     		beq	.L103
 1748              		.loc 1 610 0 is_stmt 0 discriminator 4
 1749 0144 5D4B     		ldr	r3, .L108+76
 1750 0146 0193     		str	r3, [sp, #4]
 1751 0148 0123     		movs	r3, #1
 1752 014a 0093     		str	r3, [sp]
 1753 014c 5C4B     		ldr	r3, .L108+80
 1754 014e 4A4A     		ldr	r2, .L108+8
 1755 0150 3832     		adds	r2, r2, #56
 1756 0152 4A49     		ldr	r1, .L108+12
 1757 0154 0020     		movs	r0, #0
 1758              	.LVL305:
 1759 0156 C047     		blx	r8
 1760              	.LVL306:
 1761              	.LBE64:
 611:Source\azure_iot_sdk\iothub_client\src/iothubtransportamqp_methods.c ****                             result = __FAILURE__;
 1762              		.loc 1 611 0 is_stmt 1 discriminator 4
 1763 0158 5A4B     		ldr	r3, .L108+84
 1764 015a 0293     		str	r3, [sp, #8]
 1765              	.LVL307:
 1766 015c 60E0     		b	.L93
 1767              	.LVL308:
 1768              	.L92:
ARM GAS  C:\Users\Phuong\AppData\Local\Temp\ccu7x7Ah.s 			page 44


 612:Source\azure_iot_sdk\iothub_client\src/iothubtransportamqp_methods.c ****                         }
 613:Source\azure_iot_sdk\iothub_client\src/iothubtransportamqp_methods.c ****                         else
 614:Source\azure_iot_sdk\iothub_client\src/iothubtransportamqp_methods.c ****                         {
 615:Source\azure_iot_sdk\iothub_client\src/iothubtransportamqp_methods.c ****                             /* Codes_SRS_IOTHUBTRANSPORT_AMQP_METHODS_01_152: [ The `com.microsoft:
 616:Source\azure_iot_sdk\iothub_client\src/iothubtransportamqp_methods.c ****                             if (amqpvalue_set_map_value(link_attach_properties, api_version_propert
 1769              		.loc 1 616 0
 1770 015e 049A     		ldr	r2, [sp, #16]
 1771 0160 0399     		ldr	r1, [sp, #12]
 1772 0162 2000     		movs	r0, r4
 1773              	.LVL309:
 1774 0164 FFF7FEFF 		bl	amqpvalue_set_map_value
 1775              	.LVL310:
 1776 0168 0028     		cmp	r0, #0
 1777 016a 12D0     		beq	.L94
 1778              	.LBB65:
 617:Source\azure_iot_sdk\iothub_client\src/iothubtransportamqp_methods.c ****                             {
 618:Source\azure_iot_sdk\iothub_client\src/iothubtransportamqp_methods.c ****                                 /* Codes_SRS_IOTHUBTRANSPORT_AMQP_METHODS_01_145: [ If any call for
 619:Source\azure_iot_sdk\iothub_client\src/iothubtransportamqp_methods.c ****                                 LogError("Cannot set the property for API version on the link attac
 1779              		.loc 1 619 0 discriminator 3
 1780 016c FFF7FEFF 		bl	xlogging_get_log_function
 1781              	.LVL311:
 1782 0170 8046     		mov	r8, r0
 1783              	.LVL312:
 1784 0172 0028     		cmp	r0, #0
 1785 0174 42D0     		beq	.L104
 1786              		.loc 1 619 0 is_stmt 0 discriminator 4
 1787 0176 544B     		ldr	r3, .L108+88
 1788 0178 0193     		str	r3, [sp, #4]
 1789 017a 0123     		movs	r3, #1
 1790 017c 0093     		str	r3, [sp]
 1791 017e 534B     		ldr	r3, .L108+92
 1792 0180 3D4A     		ldr	r2, .L108+8
 1793 0182 3832     		adds	r2, r2, #56
 1794 0184 3D49     		ldr	r1, .L108+12
 1795 0186 0020     		movs	r0, #0
 1796              	.LVL313:
 1797 0188 C047     		blx	r8
 1798              	.LVL314:
 1799              	.LBE65:
 620:Source\azure_iot_sdk\iothub_client\src/iothubtransportamqp_methods.c ****                                 result = __FAILURE__;
 1800              		.loc 1 620 0 is_stmt 1 discriminator 4
 1801 018a 9B23     		movs	r3, #155
 1802 018c 9B00     		lsls	r3, r3, #2
 1803 018e 0293     		str	r3, [sp, #8]
 1804              	.LVL315:
 1805 0190 40E0     		b	.L95
 1806              	.LVL316:
 1807              	.L94:
 621:Source\azure_iot_sdk\iothub_client\src/iothubtransportamqp_methods.c ****                             }
 622:Source\azure_iot_sdk\iothub_client\src/iothubtransportamqp_methods.c ****                             /* Codes_SRS_IOTHUBTRANSPORT_AMQP_METHODS_01_144: [ The link attach pro
 623:Source\azure_iot_sdk\iothub_client\src/iothubtransportamqp_methods.c ****                             else if (link_set_attach_properties(iothubtransport_amqp_methods_handle
 1808              		.loc 1 623 0
 1809 0192 029B     		ldr	r3, [sp, #8]
 1810 0194 1B69     		ldr	r3, [r3, #16]
 1811 0196 0593     		str	r3, [sp, #20]
 1812 0198 2100     		movs	r1, r4
 1813 019a 1800     		movs	r0, r3
ARM GAS  C:\Users\Phuong\AppData\Local\Temp\ccu7x7Ah.s 			page 45


 1814 019c FFF7FEFF 		bl	link_set_attach_properties
 1815              	.LVL317:
 1816 01a0 0028     		cmp	r0, #0
 1817 01a2 11D0     		beq	.L96
 1818              	.LBB66:
 624:Source\azure_iot_sdk\iothub_client\src/iothubtransportamqp_methods.c ****                             {
 625:Source\azure_iot_sdk\iothub_client\src/iothubtransportamqp_methods.c ****                                 /* Codes_SRS_IOTHUBTRANSPORT_AMQP_METHODS_01_145: [ If any call for
 626:Source\azure_iot_sdk\iothub_client\src/iothubtransportamqp_methods.c ****                                 LogError("Cannot set the link attach properties on the sender link"
 1819              		.loc 1 626 0 discriminator 3
 1820 01a4 FFF7FEFF 		bl	xlogging_get_log_function
 1821              	.LVL318:
 1822 01a8 8046     		mov	r8, r0
 1823              	.LVL319:
 1824 01aa 0028     		cmp	r0, #0
 1825 01ac 2AD0     		beq	.L105
 1826              		.loc 1 626 0 is_stmt 0 discriminator 4
 1827 01ae 484B     		ldr	r3, .L108+96
 1828 01b0 0193     		str	r3, [sp, #4]
 1829 01b2 0123     		movs	r3, #1
 1830 01b4 0093     		str	r3, [sp]
 1831 01b6 474B     		ldr	r3, .L108+100
 1832 01b8 2F4A     		ldr	r2, .L108+8
 1833 01ba 3832     		adds	r2, r2, #56
 1834 01bc 2F49     		ldr	r1, .L108+12
 1835 01be 0020     		movs	r0, #0
 1836              	.LVL320:
 1837 01c0 C047     		blx	r8
 1838              	.LVL321:
 1839              	.LBE66:
 627:Source\azure_iot_sdk\iothub_client\src/iothubtransportamqp_methods.c ****                                 result = __FAILURE__;
 1840              		.loc 1 627 0 is_stmt 1 discriminator 4
 1841 01c2 454B     		ldr	r3, .L108+104
 1842 01c4 0293     		str	r3, [sp, #8]
 1843              	.LVL322:
 1844 01c6 25E0     		b	.L95
 1845              	.LVL323:
 1846              	.L96:
 628:Source\azure_iot_sdk\iothub_client\src/iothubtransportamqp_methods.c ****                             }
 629:Source\azure_iot_sdk\iothub_client\src/iothubtransportamqp_methods.c ****                             else if (link_set_attach_properties(iothubtransport_amqp_methods_handle
 1847              		.loc 1 629 0
 1848 01c8 029B     		ldr	r3, [sp, #8]
 1849 01ca D868     		ldr	r0, [r3, #12]
 1850 01cc 2100     		movs	r1, r4
 1851 01ce FFF7FEFF 		bl	link_set_attach_properties
 1852              	.LVL324:
 1853 01d2 0028     		cmp	r0, #0
 1854 01d4 19D0     		beq	.L106
 1855              	.LBB67:
 630:Source\azure_iot_sdk\iothub_client\src/iothubtransportamqp_methods.c ****                             {
 631:Source\azure_iot_sdk\iothub_client\src/iothubtransportamqp_methods.c ****                                 /* Codes_SRS_IOTHUBTRANSPORT_AMQP_METHODS_01_145: [ If any call for
 632:Source\azure_iot_sdk\iothub_client\src/iothubtransportamqp_methods.c ****                                 LogError("Cannot set the link attach properties on the receiver lin
 1856              		.loc 1 632 0 discriminator 3
 1857 01d6 FFF7FEFF 		bl	xlogging_get_log_function
 1858              	.LVL325:
 1859 01da 8046     		mov	r8, r0
 1860              	.LVL326:
 1861 01dc 0028     		cmp	r0, #0
ARM GAS  C:\Users\Phuong\AppData\Local\Temp\ccu7x7Ah.s 			page 46


 1862 01de 17D0     		beq	.L107
 1863              		.loc 1 632 0 is_stmt 0 discriminator 4
 1864 01e0 3E4B     		ldr	r3, .L108+108
 1865 01e2 0193     		str	r3, [sp, #4]
 1866 01e4 0123     		movs	r3, #1
 1867 01e6 0093     		str	r3, [sp]
 1868 01e8 9E23     		movs	r3, #158
 1869 01ea 9B00     		lsls	r3, r3, #2
 1870 01ec 224A     		ldr	r2, .L108+8
 1871 01ee 3832     		adds	r2, r2, #56
 1872 01f0 2249     		ldr	r1, .L108+12
 1873 01f2 0020     		movs	r0, #0
 1874              	.LVL327:
 1875 01f4 C047     		blx	r8
 1876              	.LVL328:
 1877              	.LBE67:
 633:Source\azure_iot_sdk\iothub_client\src/iothubtransportamqp_methods.c ****                                 result = __FAILURE__;
 1878              		.loc 1 633 0 is_stmt 1 discriminator 4
 1879 01f6 3A4B     		ldr	r3, .L108+112
 1880 01f8 0293     		str	r3, [sp, #8]
 1881              	.LVL329:
 1882 01fa 0BE0     		b	.L95
 1883              	.LVL330:
 1884              	.L104:
 620:Source\azure_iot_sdk\iothub_client\src/iothubtransportamqp_methods.c ****                             }
 1885              		.loc 1 620 0
 1886 01fc 9B23     		movs	r3, #155
 1887 01fe 9B00     		lsls	r3, r3, #2
 1888 0200 0293     		str	r3, [sp, #8]
 1889              	.LVL331:
 1890 0202 07E0     		b	.L95
 1891              	.LVL332:
 1892              	.L105:
 627:Source\azure_iot_sdk\iothub_client\src/iothubtransportamqp_methods.c ****                             }
 1893              		.loc 1 627 0
 1894 0204 344B     		ldr	r3, .L108+104
 1895 0206 0293     		str	r3, [sp, #8]
 1896              	.LVL333:
 1897 0208 04E0     		b	.L95
 1898              	.LVL334:
 1899              	.L106:
 634:Source\azure_iot_sdk\iothub_client\src/iothubtransportamqp_methods.c ****                             }
 635:Source\azure_iot_sdk\iothub_client\src/iothubtransportamqp_methods.c ****                             else
 636:Source\azure_iot_sdk\iothub_client\src/iothubtransportamqp_methods.c ****                             {
 637:Source\azure_iot_sdk\iothub_client\src/iothubtransportamqp_methods.c ****                                 result = 0;
 1900              		.loc 1 637 0
 1901 020a 0023     		movs	r3, #0
 1902 020c 0293     		str	r3, [sp, #8]
 1903              	.LVL335:
 1904 020e 01E0     		b	.L95
 1905              	.LVL336:
 1906              	.L107:
 633:Source\azure_iot_sdk\iothub_client\src/iothubtransportamqp_methods.c ****                             }
 1907              		.loc 1 633 0
 1908 0210 334B     		ldr	r3, .L108+112
 1909 0212 0293     		str	r3, [sp, #8]
 1910              	.LVL337:
ARM GAS  C:\Users\Phuong\AppData\Local\Temp\ccu7x7Ah.s 			page 47


 1911              	.L95:
 638:Source\azure_iot_sdk\iothub_client\src/iothubtransportamqp_methods.c ****                             }
 639:Source\azure_iot_sdk\iothub_client\src/iothubtransportamqp_methods.c **** 
 640:Source\azure_iot_sdk\iothub_client\src/iothubtransportamqp_methods.c ****                             /* Codes_SRS_IOTHUBTRANSPORT_AMQP_METHODS_01_146: [ The link attach pro
 641:Source\azure_iot_sdk\iothub_client\src/iothubtransportamqp_methods.c ****                             amqpvalue_destroy(api_version_property_value);
 1912              		.loc 1 641 0
 1913 0214 0498     		ldr	r0, [sp, #16]
 1914 0216 FFF7FEFF 		bl	amqpvalue_destroy
 1915              	.LVL338:
 1916 021a 01E0     		b	.L93
 1917              	.LVL339:
 1918              	.L103:
 611:Source\azure_iot_sdk\iothub_client\src/iothubtransportamqp_methods.c ****                         }
 1919              		.loc 1 611 0
 1920 021c 294B     		ldr	r3, .L108+84
 1921 021e 0293     		str	r3, [sp, #8]
 1922              	.LVL340:
 1923              	.L93:
 642:Source\azure_iot_sdk\iothub_client\src/iothubtransportamqp_methods.c ****                         }
 643:Source\azure_iot_sdk\iothub_client\src/iothubtransportamqp_methods.c **** 
 644:Source\azure_iot_sdk\iothub_client\src/iothubtransportamqp_methods.c ****                         /* Codes_SRS_IOTHUBTRANSPORT_AMQP_METHODS_01_146: [ The link attach propert
 645:Source\azure_iot_sdk\iothub_client\src/iothubtransportamqp_methods.c ****                         amqpvalue_destroy(api_version_property_key);
 1924              		.loc 1 645 0
 1925 0220 0398     		ldr	r0, [sp, #12]
 1926 0222 FFF7FEFF 		bl	amqpvalue_destroy
 1927              	.LVL341:
 1928 0226 04E0     		b	.L90
 1929              	.LVL342:
 1930              	.L101:
 1931              	.LBE63:
 1932              	.LBE61:
 591:Source\azure_iot_sdk\iothub_client\src/iothubtransportamqp_methods.c ****                 }
 1933              		.loc 1 591 0
 1934 0228 1F4B     		ldr	r3, .L108+56
 1935 022a 0293     		str	r3, [sp, #8]
 1936              	.LVL343:
 1937 022c 01E0     		b	.L90
 1938              	.LVL344:
 1939              	.L102:
 1940              	.LBB68:
 601:Source\azure_iot_sdk\iothub_client\src/iothubtransportamqp_methods.c ****                     }
 1941              		.loc 1 601 0
 1942 022e 214B     		ldr	r3, .L108+68
 1943 0230 0293     		str	r3, [sp, #8]
 1944              	.LVL345:
 1945              	.L90:
 1946              	.LBE68:
 646:Source\azure_iot_sdk\iothub_client\src/iothubtransportamqp_methods.c ****                     }
 647:Source\azure_iot_sdk\iothub_client\src/iothubtransportamqp_methods.c ****                 }
 648:Source\azure_iot_sdk\iothub_client\src/iothubtransportamqp_methods.c **** 
 649:Source\azure_iot_sdk\iothub_client\src/iothubtransportamqp_methods.c ****                 /* Codes_SRS_IOTHUBTRANSPORT_AMQP_METHODS_01_146: [ The link attach properties and 
 650:Source\azure_iot_sdk\iothub_client\src/iothubtransportamqp_methods.c ****                 amqpvalue_destroy(channel_correlation_id_property_value);
 1947              		.loc 1 650 0
 1948 0232 3800     		movs	r0, r7
 1949 0234 FFF7FEFF 		bl	amqpvalue_destroy
 1950              	.LVL346:
 1951 0238 05E0     		b	.L87
ARM GAS  C:\Users\Phuong\AppData\Local\Temp\ccu7x7Ah.s 			page 48


 1952              	.LVL347:
 1953              	.L99:
 576:Source\azure_iot_sdk\iothub_client\src/iothubtransportamqp_methods.c ****             }
 1954              		.loc 1 576 0
 1955 023a 9023     		movs	r3, #144
 1956 023c 9B00     		lsls	r3, r3, #2
 1957 023e 0293     		str	r3, [sp, #8]
 1958              	.LVL348:
 1959 0240 01E0     		b	.L87
 1960              	.LVL349:
 1961              	.L100:
 582:Source\azure_iot_sdk\iothub_client\src/iothubtransportamqp_methods.c ****             }
 1962              		.loc 1 582 0
 1963 0242 164B     		ldr	r3, .L108+44
 1964 0244 0293     		str	r3, [sp, #8]
 1965              	.LVL350:
 1966              	.L87:
 651:Source\azure_iot_sdk\iothub_client\src/iothubtransportamqp_methods.c ****             }
 652:Source\azure_iot_sdk\iothub_client\src/iothubtransportamqp_methods.c ****             STRING_delete(correlation_id);
 1967              		.loc 1 652 0
 1968 0246 3000     		movs	r0, r6
 1969 0248 FFF7FEFF 		bl	STRING_delete
 1970              	.LVL351:
 653:Source\azure_iot_sdk\iothub_client\src/iothubtransportamqp_methods.c **** 
 654:Source\azure_iot_sdk\iothub_client\src/iothubtransportamqp_methods.c ****             /* Codes_SRS_IOTHUBTRANSPORT_AMQP_METHODS_01_146: [ The link attach properties and all 
 655:Source\azure_iot_sdk\iothub_client\src/iothubtransportamqp_methods.c ****             amqpvalue_destroy(channel_correlation_id_property_key);
 1971              		.loc 1 655 0
 1972 024c 2800     		movs	r0, r5
 1973 024e FFF7FEFF 		bl	amqpvalue_destroy
 1974              	.LVL352:
 1975 0252 02E0     		b	.L85
 1976              	.LVL353:
 1977              	.L98:
 1978              	.LBE57:
 564:Source\azure_iot_sdk\iothub_client\src/iothubtransportamqp_methods.c ****         }
 1979              		.loc 1 564 0
 1980 0254 8D23     		movs	r3, #141
 1981 0256 9B00     		lsls	r3, r3, #2
 1982 0258 0293     		str	r3, [sp, #8]
 1983              	.LVL354:
 1984              	.L85:
 656:Source\azure_iot_sdk\iothub_client\src/iothubtransportamqp_methods.c ****         }
 657:Source\azure_iot_sdk\iothub_client\src/iothubtransportamqp_methods.c **** 
 658:Source\azure_iot_sdk\iothub_client\src/iothubtransportamqp_methods.c ****         /* Codes_SRS_IOTHUBTRANSPORT_AMQP_METHODS_01_146: [ The link attach properties and all asso
 659:Source\azure_iot_sdk\iothub_client\src/iothubtransportamqp_methods.c ****         amqpvalue_destroy(link_attach_properties);
 1985              		.loc 1 659 0
 1986 025a 2000     		movs	r0, r4
 1987 025c FFF7FEFF 		bl	amqpvalue_destroy
 1988              	.LVL355:
 1989 0260 01E0     		b	.L83
 1990              	.LVL356:
 1991              	.L97:
 1992              	.LBE55:
 554:Source\azure_iot_sdk\iothub_client\src/iothubtransportamqp_methods.c ****     }
 1993              		.loc 1 554 0
 1994 0262 074B     		ldr	r3, .L108+16
 1995 0264 0293     		str	r3, [sp, #8]
ARM GAS  C:\Users\Phuong\AppData\Local\Temp\ccu7x7Ah.s 			page 49


 1996              	.LVL357:
 1997              	.L83:
 660:Source\azure_iot_sdk\iothub_client\src/iothubtransportamqp_methods.c ****     }
 661:Source\azure_iot_sdk\iothub_client\src/iothubtransportamqp_methods.c **** 
 662:Source\azure_iot_sdk\iothub_client\src/iothubtransportamqp_methods.c ****     return result;
 663:Source\azure_iot_sdk\iothub_client\src/iothubtransportamqp_methods.c **** }
 1998              		.loc 1 663 0
 1999 0266 0298     		ldr	r0, [sp, #8]
 2000 0268 06B0     		add	sp, sp, #24
 2001              		@ sp needed
 2002 026a 04BC     		pop	{r2}
 2003 026c 9046     		mov	r8, r2
 2004 026e F0BD     		pop	{r4, r5, r6, r7, pc}
 2005              	.L109:
 2006              		.align	2
 2007              	.L108:
 2008 0270 5C030000 		.word	.LC51
 2009 0274 29020000 		.word	553
 2010 0278 00000000 		.word	.LANCHOR0
 2011 027c 00000000 		.word	.LC1
 2012 0280 2A020000 		.word	554
 2013 0284 90030000 		.word	.LC53
 2014 0288 B8030000 		.word	.LC55
 2015 028c 33020000 		.word	563
 2016 0290 10040000 		.word	.LC57
 2017 0294 3F020000 		.word	575
 2018 0298 45020000 		.word	581
 2019 029c 46020000 		.word	582
 2020 02a0 60040000 		.word	.LC59
 2021 02a4 4E020000 		.word	590
 2022 02a8 4F020000 		.word	591
 2023 02ac B0040000 		.word	.LC61
 2024 02b0 CC040000 		.word	.LC63
 2025 02b4 59020000 		.word	601
 2026 02b8 18050000 		.word	.LC65
 2027 02bc 24050000 		.word	.LC67
 2028 02c0 62020000 		.word	610
 2029 02c4 63020000 		.word	611
 2030 02c8 70050000 		.word	.LC69
 2031 02cc 6B020000 		.word	619
 2032 02d0 B8050000 		.word	.LC71
 2033 02d4 72020000 		.word	626
 2034 02d8 73020000 		.word	627
 2035 02dc F4050000 		.word	.LC73
 2036 02e0 79020000 		.word	633
 2037              		.cfi_endproc
 2038              	.LFE13:
 2039              		.size	set_link_attach_properties, .-set_link_attach_properties
 2040              		.section	.text.create_peer_endpoint_name,"ax",%progbits
 2041              		.align	2
 2042              		.global	create_peer_endpoint_name
 2043              		.code	16
 2044              		.thumb_func
 2045              		.type	create_peer_endpoint_name, %function
 2046              	create_peer_endpoint_name:
 2047              	.LFB10:
 506:Source\azure_iot_sdk\iothub_client\src/iothubtransportamqp_methods.c ****     if (iothubtransport_amqp_methods_handle->module_id != NULL)
ARM GAS  C:\Users\Phuong\AppData\Local\Temp\ccu7x7Ah.s 			page 50


 2048              		.loc 1 506 0
 2049              		.cfi_startproc
 2050              		@ args = 0, pretend = 0, frame = 0
 2051              		@ frame_needed = 0, uses_anonymous_args = 0
 2052              	.LVL358:
 2053 0000 10B5     		push	{r4, lr}
 2054              		.cfi_def_cfa_offset 8
 2055              		.cfi_offset 4, -8
 2056              		.cfi_offset 14, -4
 507:Source\azure_iot_sdk\iothub_client\src/iothubtransportamqp_methods.c ****     {
 2057              		.loc 1 507 0
 2058 0002 4368     		ldr	r3, [r0, #4]
 2059 0004 002B     		cmp	r3, #0
 2060 0006 05D0     		beq	.L111
 509:Source\azure_iot_sdk\iothub_client\src/iothubtransportamqp_methods.c ****     }
 2061              		.loc 1 509 0
 2062 0008 0268     		ldr	r2, [r0]
 2063 000a 8168     		ldr	r1, [r0, #8]
 2064 000c 0448     		ldr	r0, .L113
 2065              	.LVL359:
 2066 000e FFF7FEFF 		bl	STRING_construct_sprintf
 2067              	.LVL360:
 2068 0012 04E0     		b	.L112
 2069              	.LVL361:
 2070              	.L111:
 513:Source\azure_iot_sdk\iothub_client\src/iothubtransportamqp_methods.c ****     }
 2071              		.loc 1 513 0
 2072 0014 0268     		ldr	r2, [r0]
 2073 0016 8168     		ldr	r1, [r0, #8]
 2074 0018 0248     		ldr	r0, .L113+4
 2075              	.LVL362:
 2076 001a FFF7FEFF 		bl	STRING_construct_sprintf
 2077              	.LVL363:
 2078              	.L112:
 515:Source\azure_iot_sdk\iothub_client\src/iothubtransportamqp_methods.c **** 
 2079              		.loc 1 515 0
 2080              		@ sp needed
 2081 001e 10BD     		pop	{r4, pc}
 2082              	.L114:
 2083              		.align	2
 2084              	.L113:
 2085 0020 30060000 		.word	.LC75
 2086 0024 68060000 		.word	.LC77
 2087              		.cfi_endproc
 2088              	.LFE10:
 2089              		.size	create_peer_endpoint_name, .-create_peer_endpoint_name
 2090              		.section	.text.create_requests_link_name,"ax",%progbits
 2091              		.align	2
 2092              		.global	create_requests_link_name
 2093              		.code	16
 2094              		.thumb_func
 2095              		.type	create_requests_link_name, %function
 2096              	create_requests_link_name:
 2097              	.LFB11:
 518:Source\azure_iot_sdk\iothub_client\src/iothubtransportamqp_methods.c ****     if (iothubtransport_amqp_methods_handle->module_id != NULL)
 2098              		.loc 1 518 0
 2099              		.cfi_startproc
ARM GAS  C:\Users\Phuong\AppData\Local\Temp\ccu7x7Ah.s 			page 51


 2100              		@ args = 0, pretend = 0, frame = 0
 2101              		@ frame_needed = 0, uses_anonymous_args = 0
 2102              	.LVL364:
 2103 0000 10B5     		push	{r4, lr}
 2104              		.cfi_def_cfa_offset 8
 2105              		.cfi_offset 4, -8
 2106              		.cfi_offset 14, -4
 519:Source\azure_iot_sdk\iothub_client\src/iothubtransportamqp_methods.c ****     {
 2107              		.loc 1 519 0
 2108 0002 4268     		ldr	r2, [r0, #4]
 2109 0004 002A     		cmp	r2, #0
 2110 0006 04D0     		beq	.L116
 521:Source\azure_iot_sdk\iothub_client\src/iothubtransportamqp_methods.c ****     }
 2111              		.loc 1 521 0
 2112 0008 0168     		ldr	r1, [r0]
 2113 000a 0448     		ldr	r0, .L118
 2114              	.LVL365:
 2115 000c FFF7FEFF 		bl	STRING_construct_sprintf
 2116              	.LVL366:
 2117 0010 03E0     		b	.L117
 2118              	.LVL367:
 2119              	.L116:
 525:Source\azure_iot_sdk\iothub_client\src/iothubtransportamqp_methods.c ****     }
 2120              		.loc 1 525 0
 2121 0012 0168     		ldr	r1, [r0]
 2122 0014 0248     		ldr	r0, .L118+4
 2123              	.LVL368:
 2124 0016 FFF7FEFF 		bl	STRING_construct_sprintf
 2125              	.LVL369:
 2126              	.L117:
 527:Source\azure_iot_sdk\iothub_client\src/iothubtransportamqp_methods.c **** 
 2127              		.loc 1 527 0
 2128              		@ sp needed
 2129 001a 10BD     		pop	{r4, pc}
 2130              	.L119:
 2131              		.align	2
 2132              	.L118:
 2133 001c 94060000 		.word	.LC79
 2134 0020 B0060000 		.word	.LC81
 2135              		.cfi_endproc
 2136              	.LFE11:
 2137              		.size	create_requests_link_name, .-create_requests_link_name
 2138              		.section	.text.create_responses_link_name,"ax",%progbits
 2139              		.align	2
 2140              		.global	create_responses_link_name
 2141              		.code	16
 2142              		.thumb_func
 2143              		.type	create_responses_link_name, %function
 2144              	create_responses_link_name:
 2145              	.LFB12:
 530:Source\azure_iot_sdk\iothub_client\src/iothubtransportamqp_methods.c ****     if (iothubtransport_amqp_methods_handle->module_id != NULL)
 2146              		.loc 1 530 0
 2147              		.cfi_startproc
 2148              		@ args = 0, pretend = 0, frame = 0
 2149              		@ frame_needed = 0, uses_anonymous_args = 0
 2150              	.LVL370:
 2151 0000 10B5     		push	{r4, lr}
ARM GAS  C:\Users\Phuong\AppData\Local\Temp\ccu7x7Ah.s 			page 52


 2152              		.cfi_def_cfa_offset 8
 2153              		.cfi_offset 4, -8
 2154              		.cfi_offset 14, -4
 531:Source\azure_iot_sdk\iothub_client\src/iothubtransportamqp_methods.c ****     {
 2155              		.loc 1 531 0
 2156 0002 4268     		ldr	r2, [r0, #4]
 2157 0004 002A     		cmp	r2, #0
 2158 0006 04D0     		beq	.L121
 533:Source\azure_iot_sdk\iothub_client\src/iothubtransportamqp_methods.c ****     }
 2159              		.loc 1 533 0
 2160 0008 0168     		ldr	r1, [r0]
 2161 000a 0448     		ldr	r0, .L123
 2162              	.LVL371:
 2163 000c FFF7FEFF 		bl	STRING_construct_sprintf
 2164              	.LVL372:
 2165 0010 03E0     		b	.L122
 2166              	.LVL373:
 2167              	.L121:
 537:Source\azure_iot_sdk\iothub_client\src/iothubtransportamqp_methods.c ****     }
 2168              		.loc 1 537 0
 2169 0012 0168     		ldr	r1, [r0]
 2170 0014 0248     		ldr	r0, .L123+4
 2171              	.LVL374:
 2172 0016 FFF7FEFF 		bl	STRING_construct_sprintf
 2173              	.LVL375:
 2174              	.L122:
 539:Source\azure_iot_sdk\iothub_client\src/iothubtransportamqp_methods.c **** 
 2175              		.loc 1 539 0
 2176              		@ sp needed
 2177 001a 10BD     		pop	{r4, pc}
 2178              	.L124:
 2179              		.align	2
 2180              	.L123:
 2181 001c CC060000 		.word	.LC83
 2182 0020 EC060000 		.word	.LC85
 2183              		.cfi_endproc
 2184              	.LFE12:
 2185              		.size	create_responses_link_name, .-create_responses_link_name
 2186              		.section	.text.iothubtransportamqp_methods_subscribe,"ax",%progbits
 2187              		.align	2
 2188              		.global	iothubtransportamqp_methods_subscribe
 2189              		.code	16
 2190              		.thumb_func
 2191              		.type	iothubtransportamqp_methods_subscribe, %function
 2192              	iothubtransportamqp_methods_subscribe:
 2193              	.LFB14:
 664:Source\azure_iot_sdk\iothub_client\src/iothubtransportamqp_methods.c **** 
 665:Source\azure_iot_sdk\iothub_client\src/iothubtransportamqp_methods.c **** int iothubtransportamqp_methods_subscribe(IOTHUBTRANSPORT_AMQP_METHODS_HANDLE iothubtransport_amqp_
 666:Source\azure_iot_sdk\iothub_client\src/iothubtransportamqp_methods.c ****     SESSION_HANDLE session_handle, ON_METHODS_ERROR on_methods_error, void* on_methods_error_contex
 667:Source\azure_iot_sdk\iothub_client\src/iothubtransportamqp_methods.c ****     ON_METHOD_REQUEST_RECEIVED on_method_request_received, void* on_method_request_received_context
 668:Source\azure_iot_sdk\iothub_client\src/iothubtransportamqp_methods.c ****     ON_METHODS_UNSUBSCRIBED on_methods_unsubscribed, void* on_methods_unsubscribed_context)
 669:Source\azure_iot_sdk\iothub_client\src/iothubtransportamqp_methods.c **** {
 2194              		.loc 1 669 0
 2195              		.cfi_startproc
 2196              		@ args = 16, pretend = 0, frame = 16
 2197              		@ frame_needed = 0, uses_anonymous_args = 0
 2198              	.LVL376:
ARM GAS  C:\Users\Phuong\AppData\Local\Temp\ccu7x7Ah.s 			page 53


 2199 0000 F0B5     		push	{r4, r5, r6, r7, lr}
 2200              		.cfi_def_cfa_offset 20
 2201              		.cfi_offset 4, -20
 2202              		.cfi_offset 5, -16
 2203              		.cfi_offset 6, -12
 2204              		.cfi_offset 7, -8
 2205              		.cfi_offset 14, -4
 2206 0002 5746     		mov	r7, r10
 2207 0004 80B4     		push	{r7}
 2208              		.cfi_def_cfa_offset 24
 2209              		.cfi_offset 10, -24
 2210 0006 8CB0     		sub	sp, sp, #48
 2211              		.cfi_def_cfa_offset 72
 2212 0008 0400     		movs	r4, r0
 2213 000a 0E00     		movs	r6, r1
 2214 000c 1700     		movs	r7, r2
 2215 000e 0893     		str	r3, [sp, #32]
 670:Source\azure_iot_sdk\iothub_client\src/iothubtransportamqp_methods.c ****     int result;
 671:Source\azure_iot_sdk\iothub_client\src/iothubtransportamqp_methods.c **** 
 672:Source\azure_iot_sdk\iothub_client\src/iothubtransportamqp_methods.c ****     /* Codes_SRS_IOTHUBTRANSPORT_AMQP_METHODS_01_009: [ If any of the argument `iothubtransport_amq
 673:Source\azure_iot_sdk\iothub_client\src/iothubtransportamqp_methods.c ****     if ((iothubtransport_amqp_methods_handle == NULL) ||
 2216              		.loc 1 673 0
 2217 0010 0028     		cmp	r0, #0
 2218 0012 09D0     		beq	.L126
 2219              		.loc 1 673 0 is_stmt 0 discriminator 1
 2220 0014 0029     		cmp	r1, #0
 2221 0016 07D0     		beq	.L126
 674:Source\azure_iot_sdk\iothub_client\src/iothubtransportamqp_methods.c ****         (session_handle == NULL) ||
 2222              		.loc 1 674 0 is_stmt 1
 2223 0018 002A     		cmp	r2, #0
 2224 001a 05D0     		beq	.L126
 675:Source\azure_iot_sdk\iothub_client\src/iothubtransportamqp_methods.c ****         (on_methods_error == NULL) ||
 2225              		.loc 1 675 0
 2226 001c 129B     		ldr	r3, [sp, #72]
 2227              	.LVL377:
 2228 001e 002B     		cmp	r3, #0
 2229 0020 02D0     		beq	.L126
 676:Source\azure_iot_sdk\iothub_client\src/iothubtransportamqp_methods.c ****         (on_method_request_received == NULL) ||
 2230              		.loc 1 676 0
 2231 0022 149B     		ldr	r3, [sp, #80]
 2232 0024 002B     		cmp	r3, #0
 2233 0026 18D1     		bne	.L127
 2234              	.L126:
 2235              	.LBB69:
 677:Source\azure_iot_sdk\iothub_client\src/iothubtransportamqp_methods.c ****         (on_methods_unsubscribed == NULL))
 678:Source\azure_iot_sdk\iothub_client\src/iothubtransportamqp_methods.c ****     {
 679:Source\azure_iot_sdk\iothub_client\src/iothubtransportamqp_methods.c ****         LogError("Invalid arguments: iothubtransport_amqp_methods_handle=%p, session_handle=%p, on_
 2236              		.loc 1 679 0 discriminator 3
 2237 0028 FFF7FEFF 		bl	xlogging_get_log_function
 2238              	.LVL378:
 2239 002c 051E     		subs	r5, r0, #0
 2240              	.LVL379:
 2241 002e 00D1     		bne	.LCB2395
 2242 0030 99E1     		b	.L149	@long jump
 2243              	.LCB2395:
 2244              		.loc 1 679 0 is_stmt 0 discriminator 4
 2245 0032 149B     		ldr	r3, [sp, #80]
ARM GAS  C:\Users\Phuong\AppData\Local\Temp\ccu7x7Ah.s 			page 54


 2246 0034 0693     		str	r3, [sp, #24]
 2247 0036 129B     		ldr	r3, [sp, #72]
 2248 0038 0593     		str	r3, [sp, #20]
 2249 003a 0497     		str	r7, [sp, #16]
 2250 003c 0396     		str	r6, [sp, #12]
 2251 003e 0294     		str	r4, [sp, #8]
 2252 0040 CB4B     		ldr	r3, .L165
 2253 0042 0193     		str	r3, [sp, #4]
 2254 0044 0123     		movs	r3, #1
 2255 0046 0093     		str	r3, [sp]
 2256 0048 AA23     		movs	r3, #170
 2257 004a 9B00     		lsls	r3, r3, #2
 2258 004c C94A     		ldr	r2, .L165+4
 2259 004e 5432     		adds	r2, r2, #84
 2260 0050 C949     		ldr	r1, .L165+8
 2261 0052 0020     		movs	r0, #0
 2262              	.LVL380:
 2263 0054 A847     		blx	r5
 2264              	.LVL381:
 2265              	.LBE69:
 680:Source\azure_iot_sdk\iothub_client\src/iothubtransportamqp_methods.c ****             iothubtransport_amqp_methods_handle, session_handle, on_methods_error, on_method_reques
 681:Source\azure_iot_sdk\iothub_client\src/iothubtransportamqp_methods.c ****         result = __FAILURE__;
 2266              		.loc 1 681 0 is_stmt 1 discriminator 4
 2267 0056 C94C     		ldr	r4, .L165+12
 2268              	.LVL382:
 2269 0058 E5E1     		b	.L128
 2270              	.LVL383:
 2271              	.L127:
 682:Source\azure_iot_sdk\iothub_client\src/iothubtransportamqp_methods.c ****     }
 683:Source\azure_iot_sdk\iothub_client\src/iothubtransportamqp_methods.c ****     /* Codes_SRS_IOTHUBTRANSPORT_AMQP_METHODS_01_137: [ `iothubtransportamqp_methods_subscribe` aft
 684:Source\azure_iot_sdk\iothub_client\src/iothubtransportamqp_methods.c ****     else if (iothubtransport_amqp_methods_handle->subscribe_state != SUBSCRIBE_STATE_NOT_SUBSCRIBED
 2272              		.loc 1 684 0
 2273 005a 3423     		movs	r3, #52
 2274 005c C35C     		ldrb	r3, [r0, r3]
 2275 005e 002B     		cmp	r3, #0
 2276 0060 10D0     		beq	.L129
 2277              	.LBB70:
 685:Source\azure_iot_sdk\iothub_client\src/iothubtransportamqp_methods.c ****     {
 686:Source\azure_iot_sdk\iothub_client\src/iothubtransportamqp_methods.c ****         LogError("Already subscribed");
 2278              		.loc 1 686 0 discriminator 3
 2279 0062 FFF7FEFF 		bl	xlogging_get_log_function
 2280              	.LVL384:
 2281 0066 041E     		subs	r4, r0, #0
 2282              	.LVL385:
 2283 0068 00D1     		bne	.LCB2445
 2284 006a 7EE1     		b	.L150	@long jump
 2285              	.LCB2445:
 2286              		.loc 1 686 0 is_stmt 0 discriminator 4
 2287 006c C44B     		ldr	r3, .L165+16
 2288 006e 0193     		str	r3, [sp, #4]
 2289 0070 0123     		movs	r3, #1
 2290 0072 0093     		str	r3, [sp]
 2291 0074 C34B     		ldr	r3, .L165+20
 2292 0076 BF4A     		ldr	r2, .L165+4
 2293 0078 5432     		adds	r2, r2, #84
 2294 007a BF49     		ldr	r1, .L165+8
 2295 007c 0020     		movs	r0, #0
ARM GAS  C:\Users\Phuong\AppData\Local\Temp\ccu7x7Ah.s 			page 55


 2296              	.LVL386:
 2297 007e A047     		blx	r4
 2298              	.LVL387:
 2299              	.LBE70:
 687:Source\azure_iot_sdk\iothub_client\src/iothubtransportamqp_methods.c ****         result = __FAILURE__;
 2300              		.loc 1 687 0 is_stmt 1 discriminator 4
 2301 0080 C14C     		ldr	r4, .L165+24
 2302              	.LVL388:
 2303 0082 D0E1     		b	.L128
 2304              	.LVL389:
 2305              	.L129:
 2306              	.LBB71:
 688:Source\azure_iot_sdk\iothub_client\src/iothubtransportamqp_methods.c ****     }
 689:Source\azure_iot_sdk\iothub_client\src/iothubtransportamqp_methods.c ****     else
 690:Source\azure_iot_sdk\iothub_client\src/iothubtransportamqp_methods.c ****     {
 691:Source\azure_iot_sdk\iothub_client\src/iothubtransportamqp_methods.c ****         /* Codes_SRS_IOTHUBTRANSPORT_AMQP_METHODS_01_015: [ The address string used to create the s
 692:Source\azure_iot_sdk\iothub_client\src/iothubtransportamqp_methods.c ****         /* Codes_SRS_IOTHUBTRANSPORT_AMQP_METHODS_01_016: [ The string shall be created by using `S
 693:Source\azure_iot_sdk\iothub_client\src/iothubtransportamqp_methods.c ****         STRING_HANDLE peer_endpoint_string = create_peer_endpoint_name(iothubtransport_amqp_methods
 2307              		.loc 1 693 0
 2308 0084 FFF7FEFF 		bl	create_peer_endpoint_name
 2309              	.LVL390:
 2310 0088 051E     		subs	r5, r0, #0
 2311              	.LVL391:
 694:Source\azure_iot_sdk\iothub_client\src/iothubtransportamqp_methods.c ****         if (peer_endpoint_string == NULL)
 2312              		.loc 1 694 0
 2313 008a 00D1     		bne	.LCB2482
 2314 008c CAE1     		b	.L151	@long jump
 2315              	.LCB2482:
 2316              	.LBB72:
 695:Source\azure_iot_sdk\iothub_client\src/iothubtransportamqp_methods.c ****         {
 696:Source\azure_iot_sdk\iothub_client\src/iothubtransportamqp_methods.c ****             /* Codes_SRS_IOTHUBTRANSPORT_AMQP_METHODS_01_018: [ If `STRING_construct_sprintf` fails
 697:Source\azure_iot_sdk\iothub_client\src/iothubtransportamqp_methods.c ****             result = __FAILURE__;
 698:Source\azure_iot_sdk\iothub_client\src/iothubtransportamqp_methods.c ****         }
 699:Source\azure_iot_sdk\iothub_client\src/iothubtransportamqp_methods.c ****         else
 700:Source\azure_iot_sdk\iothub_client\src/iothubtransportamqp_methods.c ****         {
 701:Source\azure_iot_sdk\iothub_client\src/iothubtransportamqp_methods.c ****             iothubtransport_amqp_methods_handle->on_method_request_received = on_method_request_rec
 2317              		.loc 1 701 0
 2318 008e 129B     		ldr	r3, [sp, #72]
 2319 0090 E361     		str	r3, [r4, #28]
 702:Source\azure_iot_sdk\iothub_client\src/iothubtransportamqp_methods.c ****             iothubtransport_amqp_methods_handle->on_method_request_received_context = on_method_req
 2320              		.loc 1 702 0
 2321 0092 139B     		ldr	r3, [sp, #76]
 2322 0094 2362     		str	r3, [r4, #32]
 703:Source\azure_iot_sdk\iothub_client\src/iothubtransportamqp_methods.c ****             iothubtransport_amqp_methods_handle->on_methods_error = on_methods_error;
 2323              		.loc 1 703 0
 2324 0096 6762     		str	r7, [r4, #36]
 704:Source\azure_iot_sdk\iothub_client\src/iothubtransportamqp_methods.c ****             iothubtransport_amqp_methods_handle->on_methods_error_context = on_methods_error_contex
 2325              		.loc 1 704 0
 2326 0098 089B     		ldr	r3, [sp, #32]
 2327 009a A362     		str	r3, [r4, #40]
 705:Source\azure_iot_sdk\iothub_client\src/iothubtransportamqp_methods.c ****             iothubtransport_amqp_methods_handle->on_methods_unsubscribed = on_methods_unsubscribed;
 2328              		.loc 1 705 0
 2329 009c 149B     		ldr	r3, [sp, #80]
 2330 009e E362     		str	r3, [r4, #44]
 706:Source\azure_iot_sdk\iothub_client\src/iothubtransportamqp_methods.c ****             iothubtransport_amqp_methods_handle->on_methods_unsubscribed_context = on_methods_unsub
 2331              		.loc 1 706 0
 2332 00a0 159B     		ldr	r3, [sp, #84]
ARM GAS  C:\Users\Phuong\AppData\Local\Temp\ccu7x7Ah.s 			page 56


 2333 00a2 2363     		str	r3, [r4, #48]
 707:Source\azure_iot_sdk\iothub_client\src/iothubtransportamqp_methods.c **** 
 708:Source\azure_iot_sdk\iothub_client\src/iothubtransportamqp_methods.c ****             /* Codes_SRS_IOTHUBTRANSPORT_AMQP_METHODS_01_014: [ - `source` shall be the a source va
 709:Source\azure_iot_sdk\iothub_client\src/iothubtransportamqp_methods.c ****             AMQP_VALUE receiver_source = messaging_create_source(STRING_c_str(peer_endpoint_string)
 2334              		.loc 1 709 0
 2335 00a4 FFF7FEFF 		bl	STRING_c_str
 2336              	.LVL392:
 2337 00a8 FFF7FEFF 		bl	messaging_create_source
 2338              	.LVL393:
 2339 00ac 0890     		str	r0, [sp, #32]
 2340              	.LVL394:
 710:Source\azure_iot_sdk\iothub_client\src/iothubtransportamqp_methods.c ****             if (receiver_source == NULL)
 2341              		.loc 1 710 0
 2342 00ae 0028     		cmp	r0, #0
 2343 00b0 10D1     		bne	.L130
 2344              	.LBB73:
 711:Source\azure_iot_sdk\iothub_client\src/iothubtransportamqp_methods.c ****             {
 712:Source\azure_iot_sdk\iothub_client\src/iothubtransportamqp_methods.c ****                 /* Codes_SRS_IOTHUBTRANSPORT_AMQP_METHODS_01_019: [ If creating the target or sourc
 713:Source\azure_iot_sdk\iothub_client\src/iothubtransportamqp_methods.c ****                 LogError("Cannot create receiver source");
 2345              		.loc 1 713 0 discriminator 3
 2346 00b2 FFF7FEFF 		bl	xlogging_get_log_function
 2347              	.LVL395:
 2348 00b6 041E     		subs	r4, r0, #0
 2349              	.LVL396:
 2350 00b8 00D1     		bne	.LCB2515
 2351 00ba 4FE1     		b	.L152	@long jump
 2352              	.LCB2515:
 2353              		.loc 1 713 0 is_stmt 0 discriminator 4
 2354 00bc B34B     		ldr	r3, .L165+28
 2355 00be 0193     		str	r3, [sp, #4]
 2356 00c0 0123     		movs	r3, #1
 2357 00c2 0093     		str	r3, [sp]
 2358 00c4 B24B     		ldr	r3, .L165+32
 2359 00c6 AB4A     		ldr	r2, .L165+4
 2360 00c8 5432     		adds	r2, r2, #84
 2361 00ca AB49     		ldr	r1, .L165+8
 2362 00cc 0020     		movs	r0, #0
 2363              	.LVL397:
 2364 00ce A047     		blx	r4
 2365              	.LVL398:
 2366              	.LBE73:
 714:Source\azure_iot_sdk\iothub_client\src/iothubtransportamqp_methods.c ****                 result = __FAILURE__;
 2367              		.loc 1 714 0 is_stmt 1 discriminator 4
 2368 00d0 B04C     		ldr	r4, .L165+36
 2369              	.LVL399:
 2370 00d2 44E1     		b	.L131
 2371              	.LVL400:
 2372              	.L130:
 2373              	.LBB74:
 715:Source\azure_iot_sdk\iothub_client\src/iothubtransportamqp_methods.c ****             }
 716:Source\azure_iot_sdk\iothub_client\src/iothubtransportamqp_methods.c ****             else
 717:Source\azure_iot_sdk\iothub_client\src/iothubtransportamqp_methods.c ****             {
 718:Source\azure_iot_sdk\iothub_client\src/iothubtransportamqp_methods.c ****                 /* Codes_SRS_IOTHUBTRANSPORT_AMQP_METHODS_01_017: [ - `target` shall be the a targe
 719:Source\azure_iot_sdk\iothub_client\src/iothubtransportamqp_methods.c ****                 /* Codes_SRS_IOTHUBTRANSPORT_AMQP_METHODS_01_117: [ The address string used to crea
 720:Source\azure_iot_sdk\iothub_client\src/iothubtransportamqp_methods.c ****                 AMQP_VALUE receiver_target = messaging_create_target("requests");
 2374              		.loc 1 720 0
 2375 00d4 B048     		ldr	r0, .L165+40
ARM GAS  C:\Users\Phuong\AppData\Local\Temp\ccu7x7Ah.s 			page 57


 2376              	.LVL401:
 2377 00d6 FFF7FEFF 		bl	messaging_create_target
 2378              	.LVL402:
 2379 00da 071E     		subs	r7, r0, #0
 2380              	.LVL403:
 721:Source\azure_iot_sdk\iothub_client\src/iothubtransportamqp_methods.c ****                 if (receiver_target == NULL)
 2381              		.loc 1 721 0
 2382 00dc 11D1     		bne	.L132
 2383              	.LBB75:
 722:Source\azure_iot_sdk\iothub_client\src/iothubtransportamqp_methods.c ****                 {
 723:Source\azure_iot_sdk\iothub_client\src/iothubtransportamqp_methods.c ****                     /* Codes_SRS_IOTHUBTRANSPORT_AMQP_METHODS_01_019: [ If creating the target or s
 724:Source\azure_iot_sdk\iothub_client\src/iothubtransportamqp_methods.c ****                     LogError("Cannot create receiver target");
 2384              		.loc 1 724 0 discriminator 3
 2385 00de FFF7FEFF 		bl	xlogging_get_log_function
 2386              	.LVL404:
 2387 00e2 041E     		subs	r4, r0, #0
 2388              	.LVL405:
 2389 00e4 00D1     		bne	.LCB2556
 2390 00e6 34E1     		b	.L153	@long jump
 2391              	.LCB2556:
 2392              		.loc 1 724 0 is_stmt 0 discriminator 4
 2393 00e8 AC4B     		ldr	r3, .L165+44
 2394 00ea 0193     		str	r3, [sp, #4]
 2395 00ec 0123     		movs	r3, #1
 2396 00ee 0093     		str	r3, [sp]
 2397 00f0 B523     		movs	r3, #181
 2398 00f2 9B00     		lsls	r3, r3, #2
 2399 00f4 9F4A     		ldr	r2, .L165+4
 2400 00f6 5432     		adds	r2, r2, #84
 2401 00f8 9F49     		ldr	r1, .L165+8
 2402 00fa 0020     		movs	r0, #0
 2403              	.LVL406:
 2404 00fc A047     		blx	r4
 2405              	.LVL407:
 2406              	.LBE75:
 725:Source\azure_iot_sdk\iothub_client\src/iothubtransportamqp_methods.c ****                     result = __FAILURE__;
 2407              		.loc 1 725 0 is_stmt 1 discriminator 4
 2408 00fe A84C     		ldr	r4, .L165+48
 2409              	.LVL408:
 2410 0100 28E1     		b	.L133
 2411              	.LVL409:
 2412              	.L132:
 2413              	.LBB76:
 726:Source\azure_iot_sdk\iothub_client\src/iothubtransportamqp_methods.c ****                 }
 727:Source\azure_iot_sdk\iothub_client\src/iothubtransportamqp_methods.c ****                 else
 728:Source\azure_iot_sdk\iothub_client\src/iothubtransportamqp_methods.c ****                 {
 729:Source\azure_iot_sdk\iothub_client\src/iothubtransportamqp_methods.c ****                     /* Codes_SRS_IOTHUBTRANSPORT_AMQP_METHODS_01_012: [ - `name` shall be in the fo
 730:Source\azure_iot_sdk\iothub_client\src/iothubtransportamqp_methods.c ****                     STRING_HANDLE requests_link_name = create_requests_link_name(iothubtransport_am
 2414              		.loc 1 730 0
 2415 0102 2000     		movs	r0, r4
 2416              	.LVL410:
 2417 0104 FFF7FEFF 		bl	create_requests_link_name
 2418              	.LVL411:
 2419 0108 0990     		str	r0, [sp, #36]
 2420              	.LVL412:
 731:Source\azure_iot_sdk\iothub_client\src/iothubtransportamqp_methods.c ****                     if (requests_link_name == NULL)
 2421              		.loc 1 731 0
ARM GAS  C:\Users\Phuong\AppData\Local\Temp\ccu7x7Ah.s 			page 58


 2422 010a 0028     		cmp	r0, #0
 2423 010c 10D1     		bne	.L134
 2424              	.LBB77:
 732:Source\azure_iot_sdk\iothub_client\src/iothubtransportamqp_methods.c ****                     {
 733:Source\azure_iot_sdk\iothub_client\src/iothubtransportamqp_methods.c ****                         /* Codes_SRS_IOTHUBTRANSPORT_AMQP_METHODS_01_153: [ If constructing the req
 734:Source\azure_iot_sdk\iothub_client\src/iothubtransportamqp_methods.c ****                         LogError("Cannot create methods requests link name.");
 2425              		.loc 1 734 0 discriminator 3
 2426 010e FFF7FEFF 		bl	xlogging_get_log_function
 2427              	.LVL413:
 2428 0112 041E     		subs	r4, r0, #0
 2429              	.LVL414:
 2430 0114 00D1     		bne	.LCB2597
 2431 0116 17E1     		b	.L154	@long jump
 2432              	.LCB2597:
 2433              		.loc 1 734 0 is_stmt 0 discriminator 4
 2434 0118 A24B     		ldr	r3, .L165+52
 2435 011a 0193     		str	r3, [sp, #4]
 2436 011c 0123     		movs	r3, #1
 2437 011e 0093     		str	r3, [sp]
 2438 0120 A14B     		ldr	r3, .L165+56
 2439 0122 944A     		ldr	r2, .L165+4
 2440 0124 5432     		adds	r2, r2, #84
 2441 0126 9449     		ldr	r1, .L165+8
 2442 0128 0020     		movs	r0, #0
 2443              	.LVL415:
 2444 012a A047     		blx	r4
 2445              	.LVL416:
 2446              	.LBE77:
 735:Source\azure_iot_sdk\iothub_client\src/iothubtransportamqp_methods.c ****                         result = __FAILURE__;
 2447              		.loc 1 735 0 is_stmt 1 discriminator 4
 2448 012c 9F4C     		ldr	r4, .L165+60
 2449              	.LVL417:
 2450 012e 0CE1     		b	.L135
 2451              	.LVL418:
 2452              	.L134:
 736:Source\azure_iot_sdk\iothub_client\src/iothubtransportamqp_methods.c ****                     }
 737:Source\azure_iot_sdk\iothub_client\src/iothubtransportamqp_methods.c ****                     else
 738:Source\azure_iot_sdk\iothub_client\src/iothubtransportamqp_methods.c ****                     {
 739:Source\azure_iot_sdk\iothub_client\src/iothubtransportamqp_methods.c ****                         /* Codes_SRS_IOTHUBTRANSPORT_AMQP_METHODS_01_010: [ `iothubtransportamqp_me
 740:Source\azure_iot_sdk\iothub_client\src/iothubtransportamqp_methods.c ****                         /* Codes_SRS_IOTHUBTRANSPORT_AMQP_METHODS_01_011: [ - `session_handle` shal
 741:Source\azure_iot_sdk\iothub_client\src/iothubtransportamqp_methods.c ****                         /* Codes_SRS_IOTHUBTRANSPORT_AMQP_METHODS_01_013: [ - `role` shall be role_
 742:Source\azure_iot_sdk\iothub_client\src/iothubtransportamqp_methods.c ****                         iothubtransport_amqp_methods_handle->receiver_link = link_create(session_ha
 2453              		.loc 1 742 0
 2454 0130 0998     		ldr	r0, [sp, #36]
 2455              	.LVL419:
 2456 0132 FFF7FEFF 		bl	STRING_c_str
 2457              	.LVL420:
 2458 0136 0100     		movs	r1, r0
 2459 0138 0097     		str	r7, [sp]
 2460 013a 089B     		ldr	r3, [sp, #32]
 2461 013c 0122     		movs	r2, #1
 2462 013e 3000     		movs	r0, r6
 2463 0140 FFF7FEFF 		bl	link_create
 2464              	.LVL421:
 2465 0144 E060     		str	r0, [r4, #12]
 743:Source\azure_iot_sdk\iothub_client\src/iothubtransportamqp_methods.c ****                         if (iothubtransport_amqp_methods_handle->receiver_link == NULL)
 2466              		.loc 1 743 0
ARM GAS  C:\Users\Phuong\AppData\Local\Temp\ccu7x7Ah.s 			page 59


 2467 0146 0028     		cmp	r0, #0
 2468 0148 10D1     		bne	.L136
 2469              	.LBB78:
 744:Source\azure_iot_sdk\iothub_client\src/iothubtransportamqp_methods.c ****                         {
 745:Source\azure_iot_sdk\iothub_client\src/iothubtransportamqp_methods.c ****                             /* Codes_SRS_IOTHUBTRANSPORT_AMQP_METHODS_01_020: [ If creating the rec
 746:Source\azure_iot_sdk\iothub_client\src/iothubtransportamqp_methods.c ****                             LogError("Cannot create receiver link");
 2470              		.loc 1 746 0 discriminator 3
 2471 014a FFF7FEFF 		bl	xlogging_get_log_function
 2472              	.LVL422:
 2473 014e 041E     		subs	r4, r0, #0
 2474              	.LVL423:
 2475 0150 00D1     		bne	.LCB2641
 2476 0152 F2E0     		b	.L155	@long jump
 2477              	.LCB2641:
 2478              		.loc 1 746 0 is_stmt 0 discriminator 4
 2479 0154 964B     		ldr	r3, .L165+64
 2480 0156 0193     		str	r3, [sp, #4]
 2481 0158 0123     		movs	r3, #1
 2482 015a 0093     		str	r3, [sp]
 2483 015c 954B     		ldr	r3, .L165+68
 2484 015e 854A     		ldr	r2, .L165+4
 2485 0160 5432     		adds	r2, r2, #84
 2486 0162 8549     		ldr	r1, .L165+8
 2487 0164 0020     		movs	r0, #0
 2488              	.LVL424:
 2489 0166 A047     		blx	r4
 2490              	.LVL425:
 2491              	.LBE78:
 747:Source\azure_iot_sdk\iothub_client\src/iothubtransportamqp_methods.c ****                             result = __FAILURE__;
 2492              		.loc 1 747 0 is_stmt 1 discriminator 4
 2493 0168 934C     		ldr	r4, .L165+72
 2494              	.LVL426:
 2495 016a E9E0     		b	.L137
 2496              	.LVL427:
 2497              	.L136:
 2498              	.LBB79:
 748:Source\azure_iot_sdk\iothub_client\src/iothubtransportamqp_methods.c ****                         }
 749:Source\azure_iot_sdk\iothub_client\src/iothubtransportamqp_methods.c ****                         else
 750:Source\azure_iot_sdk\iothub_client\src/iothubtransportamqp_methods.c ****                         {
 751:Source\azure_iot_sdk\iothub_client\src/iothubtransportamqp_methods.c ****                             /* Codes_SRS_IOTHUBTRANSPORT_AMQP_METHODS_01_025: [ - `source` shall be
 752:Source\azure_iot_sdk\iothub_client\src/iothubtransportamqp_methods.c ****                             /* Codes_SRS_IOTHUBTRANSPORT_AMQP_METHODS_01_026: [ The address string 
 753:Source\azure_iot_sdk\iothub_client\src/iothubtransportamqp_methods.c ****                             AMQP_VALUE sender_source = messaging_create_source("responses");
 2499              		.loc 1 753 0
 2500 016c 9348     		ldr	r0, .L165+76
 2501 016e FFF7FEFF 		bl	messaging_create_source
 2502              	.LVL428:
 2503 0172 0A90     		str	r0, [sp, #40]
 2504              	.LVL429:
 754:Source\azure_iot_sdk\iothub_client\src/iothubtransportamqp_methods.c ****                             if (sender_source == NULL)
 2505              		.loc 1 754 0
 2506 0174 0028     		cmp	r0, #0
 2507 0176 10D1     		bne	.L138
 2508              	.LBB80:
 755:Source\azure_iot_sdk\iothub_client\src/iothubtransportamqp_methods.c ****                             {
 756:Source\azure_iot_sdk\iothub_client\src/iothubtransportamqp_methods.c ****                                 /* Codes_SRS_IOTHUBTRANSPORT_AMQP_METHODS_01_031: [ If creating the
 757:Source\azure_iot_sdk\iothub_client\src/iothubtransportamqp_methods.c ****                                 LogError("Cannot create sender source");
 2509              		.loc 1 757 0 discriminator 3
ARM GAS  C:\Users\Phuong\AppData\Local\Temp\ccu7x7Ah.s 			page 60


 2510 0178 FFF7FEFF 		bl	xlogging_get_log_function
 2511              	.LVL430:
 2512 017c 041E     		subs	r4, r0, #0
 2513              	.LVL431:
 2514 017e 00D1     		bne	.LCB2679
 2515 0180 DDE0     		b	.L156	@long jump
 2516              	.LCB2679:
 2517              		.loc 1 757 0 is_stmt 0 discriminator 4
 2518 0182 8F4B     		ldr	r3, .L165+80
 2519 0184 0193     		str	r3, [sp, #4]
 2520 0186 0123     		movs	r3, #1
 2521 0188 0093     		str	r3, [sp]
 2522 018a 8E4B     		ldr	r3, .L165+84
 2523 018c 794A     		ldr	r2, .L165+4
 2524 018e 5432     		adds	r2, r2, #84
 2525 0190 7949     		ldr	r1, .L165+8
 2526 0192 0020     		movs	r0, #0
 2527              	.LVL432:
 2528 0194 A047     		blx	r4
 2529              	.LVL433:
 2530              	.LBE80:
 758:Source\azure_iot_sdk\iothub_client\src/iothubtransportamqp_methods.c ****                                 result = __FAILURE__;
 2531              		.loc 1 758 0 is_stmt 1 discriminator 4
 2532 0196 8C4C     		ldr	r4, .L165+88
 2533              	.LVL434:
 2534 0198 D2E0     		b	.L137
 2535              	.LVL435:
 2536              	.L138:
 2537              	.LBB81:
 759:Source\azure_iot_sdk\iothub_client\src/iothubtransportamqp_methods.c ****                             }
 760:Source\azure_iot_sdk\iothub_client\src/iothubtransportamqp_methods.c ****                             else
 761:Source\azure_iot_sdk\iothub_client\src/iothubtransportamqp_methods.c ****                             {
 762:Source\azure_iot_sdk\iothub_client\src/iothubtransportamqp_methods.c ****                                 /* Codes_SRS_IOTHUBTRANSPORT_AMQP_METHODS_01_027: [ - `target` shal
 763:Source\azure_iot_sdk\iothub_client\src/iothubtransportamqp_methods.c ****                                 AMQP_VALUE sender_target = messaging_create_target(STRING_c_str(pee
 2538              		.loc 1 763 0
 2539 019a 2800     		movs	r0, r5
 2540              	.LVL436:
 2541 019c FFF7FEFF 		bl	STRING_c_str
 2542              	.LVL437:
 2543 01a0 FFF7FEFF 		bl	messaging_create_target
 2544              	.LVL438:
 2545 01a4 8246     		mov	r10, r0
 2546              	.LVL439:
 764:Source\azure_iot_sdk\iothub_client\src/iothubtransportamqp_methods.c ****                                 if (sender_target == NULL)
 2547              		.loc 1 764 0
 2548 01a6 0028     		cmp	r0, #0
 2549 01a8 11D1     		bne	.L139
 2550              	.LBB82:
 765:Source\azure_iot_sdk\iothub_client\src/iothubtransportamqp_methods.c ****                                 {
 766:Source\azure_iot_sdk\iothub_client\src/iothubtransportamqp_methods.c ****                                     /* Codes_SRS_IOTHUBTRANSPORT_AMQP_METHODS_01_031: [ If creating
 767:Source\azure_iot_sdk\iothub_client\src/iothubtransportamqp_methods.c ****                                     LogError("Cannot create sender target");
 2551              		.loc 1 767 0 discriminator 3
 2552 01aa FFF7FEFF 		bl	xlogging_get_log_function
 2553              	.LVL440:
 2554 01ae 041E     		subs	r4, r0, #0
 2555              	.LVL441:
 2556 01b0 00D1     		bne	.LCB2721
ARM GAS  C:\Users\Phuong\AppData\Local\Temp\ccu7x7Ah.s 			page 61


 2557 01b2 BCE0     		b	.L157	@long jump
 2558              	.LCB2721:
 2559              		.loc 1 767 0 is_stmt 0 discriminator 4
 2560 01b4 854B     		ldr	r3, .L165+92
 2561 01b6 0193     		str	r3, [sp, #4]
 2562 01b8 0123     		movs	r3, #1
 2563 01ba 0093     		str	r3, [sp]
 2564 01bc 844B     		ldr	r3, .L165+96
 2565 01be 6D4A     		ldr	r2, .L165+4
 2566 01c0 5432     		adds	r2, r2, #84
 2567 01c2 6D49     		ldr	r1, .L165+8
 2568 01c4 0020     		movs	r0, #0
 2569              	.LVL442:
 2570 01c6 A047     		blx	r4
 2571              	.LVL443:
 2572              	.LBE82:
 768:Source\azure_iot_sdk\iothub_client\src/iothubtransportamqp_methods.c ****                                     result = __FAILURE__;
 2573              		.loc 1 768 0 is_stmt 1 discriminator 4
 2574 01c8 C024     		movs	r4, #192
 2575              	.LVL444:
 2576 01ca A400     		lsls	r4, r4, #2
 2577 01cc B1E0     		b	.L140
 2578              	.LVL445:
 2579              	.L139:
 2580              	.LBB83:
 769:Source\azure_iot_sdk\iothub_client\src/iothubtransportamqp_methods.c ****                                 }
 770:Source\azure_iot_sdk\iothub_client\src/iothubtransportamqp_methods.c ****                                 else
 771:Source\azure_iot_sdk\iothub_client\src/iothubtransportamqp_methods.c ****                                 {
 772:Source\azure_iot_sdk\iothub_client\src/iothubtransportamqp_methods.c ****                                     /* Codes_SRS_IOTHUBTRANSPORT_AMQP_METHODS_01_023: [ - `name` sh
 773:Source\azure_iot_sdk\iothub_client\src/iothubtransportamqp_methods.c ****                                     STRING_HANDLE responses_link_name = create_responses_link_name(
 2581              		.loc 1 773 0
 2582 01ce 2000     		movs	r0, r4
 2583              	.LVL446:
 2584 01d0 FFF7FEFF 		bl	create_responses_link_name
 2585              	.LVL447:
 2586 01d4 0B90     		str	r0, [sp, #44]
 2587              	.LVL448:
 774:Source\azure_iot_sdk\iothub_client\src/iothubtransportamqp_methods.c ****                                     if (responses_link_name == NULL)
 2588              		.loc 1 774 0
 2589 01d6 0028     		cmp	r0, #0
 2590 01d8 10D1     		bne	.L141
 2591              	.LBB84:
 775:Source\azure_iot_sdk\iothub_client\src/iothubtransportamqp_methods.c ****                                     {
 776:Source\azure_iot_sdk\iothub_client\src/iothubtransportamqp_methods.c ****                                         /* Codes_SRS_IOTHUBTRANSPORT_AMQP_METHODS_01_154: [ If cons
 777:Source\azure_iot_sdk\iothub_client\src/iothubtransportamqp_methods.c ****                                         LogError("Cannot create methods responses link name.");
 2592              		.loc 1 777 0 discriminator 3
 2593 01da FFF7FEFF 		bl	xlogging_get_log_function
 2594              	.LVL449:
 2595 01de 041E     		subs	r4, r0, #0
 2596              	.LVL450:
 2597 01e0 00D1     		bne	.LCB2762
 2598 01e2 9FE0     		b	.L158	@long jump
 2599              	.LCB2762:
 2600              		.loc 1 777 0 is_stmt 0 discriminator 4
 2601 01e4 7B4B     		ldr	r3, .L165+100
 2602 01e6 0193     		str	r3, [sp, #4]
 2603 01e8 0123     		movs	r3, #1
ARM GAS  C:\Users\Phuong\AppData\Local\Temp\ccu7x7Ah.s 			page 62


 2604 01ea 0093     		str	r3, [sp]
 2605 01ec 7A4B     		ldr	r3, .L165+104
 2606 01ee 614A     		ldr	r2, .L165+4
 2607 01f0 5432     		adds	r2, r2, #84
 2608 01f2 6149     		ldr	r1, .L165+8
 2609 01f4 0020     		movs	r0, #0
 2610              	.LVL451:
 2611 01f6 A047     		blx	r4
 2612              	.LVL452:
 2613              	.LBE84:
 778:Source\azure_iot_sdk\iothub_client\src/iothubtransportamqp_methods.c ****                                         result = __FAILURE__;
 2614              		.loc 1 778 0 is_stmt 1 discriminator 4
 2615 01f8 784C     		ldr	r4, .L165+108
 2616              	.LVL453:
 2617 01fa 94E0     		b	.L142
 2618              	.LVL454:
 2619              	.L141:
 779:Source\azure_iot_sdk\iothub_client\src/iothubtransportamqp_methods.c ****                                     }
 780:Source\azure_iot_sdk\iothub_client\src/iothubtransportamqp_methods.c ****                                     else
 781:Source\azure_iot_sdk\iothub_client\src/iothubtransportamqp_methods.c ****                                     {
 782:Source\azure_iot_sdk\iothub_client\src/iothubtransportamqp_methods.c ****                                         /* Codes_SRS_IOTHUBTRANSPORT_AMQP_METHODS_01_021: [ `iothub
 783:Source\azure_iot_sdk\iothub_client\src/iothubtransportamqp_methods.c ****                                         /* Codes_SRS_IOTHUBTRANSPORT_AMQP_METHODS_01_022: [ - `sess
 784:Source\azure_iot_sdk\iothub_client\src/iothubtransportamqp_methods.c ****                                         /* Codes_SRS_IOTHUBTRANSPORT_AMQP_METHODS_01_024: [ - `role
 785:Source\azure_iot_sdk\iothub_client\src/iothubtransportamqp_methods.c ****                                         iothubtransport_amqp_methods_handle->sender_link = link_cre
 2620              		.loc 1 785 0
 2621 01fc 0B98     		ldr	r0, [sp, #44]
 2622              	.LVL455:
 2623 01fe FFF7FEFF 		bl	STRING_c_str
 2624              	.LVL456:
 2625 0202 0100     		movs	r1, r0
 2626 0204 5346     		mov	r3, r10
 2627 0206 0093     		str	r3, [sp]
 2628 0208 0A9B     		ldr	r3, [sp, #40]
 2629 020a 0022     		movs	r2, #0
 2630 020c 3000     		movs	r0, r6
 2631 020e FFF7FEFF 		bl	link_create
 2632              	.LVL457:
 2633 0212 2061     		str	r0, [r4, #16]
 786:Source\azure_iot_sdk\iothub_client\src/iothubtransportamqp_methods.c ****                                         if (iothubtransport_amqp_methods_handle->sender_link == NUL
 2634              		.loc 1 786 0
 2635 0214 0028     		cmp	r0, #0
 2636 0216 0FD1     		bne	.L143
 2637              	.LBB85:
 787:Source\azure_iot_sdk\iothub_client\src/iothubtransportamqp_methods.c ****                                         {
 788:Source\azure_iot_sdk\iothub_client\src/iothubtransportamqp_methods.c ****                                             /* Codes_SRS_IOTHUBTRANSPORT_AMQP_METHODS_01_032: [ If 
 789:Source\azure_iot_sdk\iothub_client\src/iothubtransportamqp_methods.c ****                                             LogError("Cannot create sender link");
 2638              		.loc 1 789 0 discriminator 3
 2639 0218 FFF7FEFF 		bl	xlogging_get_log_function
 2640              	.LVL458:
 2641 021c 041E     		subs	r4, r0, #0
 2642              	.LVL459:
 2643 021e 71D0     		beq	.L159
 2644              		.loc 1 789 0 is_stmt 0 discriminator 4
 2645 0220 6F4B     		ldr	r3, .L165+112
 2646 0222 0193     		str	r3, [sp, #4]
 2647 0224 0123     		movs	r3, #1
 2648 0226 0093     		str	r3, [sp]
ARM GAS  C:\Users\Phuong\AppData\Local\Temp\ccu7x7Ah.s 			page 63


 2649 0228 6E4B     		ldr	r3, .L165+116
 2650 022a 524A     		ldr	r2, .L165+4
 2651 022c 5432     		adds	r2, r2, #84
 2652 022e 5249     		ldr	r1, .L165+8
 2653 0230 0020     		movs	r0, #0
 2654              	.LVL460:
 2655 0232 A047     		blx	r4
 2656              	.LVL461:
 2657              	.LBE85:
 790:Source\azure_iot_sdk\iothub_client\src/iothubtransportamqp_methods.c ****                                             result = __FAILURE__;
 2658              		.loc 1 790 0 is_stmt 1 discriminator 4
 2659 0234 6C4C     		ldr	r4, .L165+120
 2660              	.LVL462:
 2661 0236 71E0     		b	.L144
 2662              	.LVL463:
 2663              	.L143:
 791:Source\azure_iot_sdk\iothub_client\src/iothubtransportamqp_methods.c ****                                         }
 792:Source\azure_iot_sdk\iothub_client\src/iothubtransportamqp_methods.c ****                                         else
 793:Source\azure_iot_sdk\iothub_client\src/iothubtransportamqp_methods.c ****                                         {
 794:Source\azure_iot_sdk\iothub_client\src/iothubtransportamqp_methods.c ****                                             if (set_link_attach_properties(iothubtransport_amqp_met
 2664              		.loc 1 794 0
 2665 0238 2000     		movs	r0, r4
 2666 023a FFF7FEFF 		bl	set_link_attach_properties
 2667              	.LVL464:
 2668 023e 0028     		cmp	r0, #0
 2669 0240 62D1     		bne	.L160
 795:Source\azure_iot_sdk\iothub_client\src/iothubtransportamqp_methods.c ****                                             {
 796:Source\azure_iot_sdk\iothub_client\src/iothubtransportamqp_methods.c ****                                                 result = __FAILURE__;
 797:Source\azure_iot_sdk\iothub_client\src/iothubtransportamqp_methods.c ****                                             }
 798:Source\azure_iot_sdk\iothub_client\src/iothubtransportamqp_methods.c ****                                             else
 799:Source\azure_iot_sdk\iothub_client\src/iothubtransportamqp_methods.c ****                                             {
 800:Source\azure_iot_sdk\iothub_client\src/iothubtransportamqp_methods.c ****                                                 /* Codes_SRS_IOTHUBTRANSPORT_AMQP_METHODS_01_033: [
 801:Source\azure_iot_sdk\iothub_client\src/iothubtransportamqp_methods.c ****                                                 /* Codes_SRS_IOTHUBTRANSPORT_AMQP_METHODS_01_118: [
 802:Source\azure_iot_sdk\iothub_client\src/iothubtransportamqp_methods.c ****                                                 iothubtransport_amqp_methods_handle->message_receiv
 2670              		.loc 1 802 0
 2671 0242 2200     		movs	r2, r4
 2672 0244 6949     		ldr	r1, .L165+124
 2673 0246 E068     		ldr	r0, [r4, #12]
 2674 0248 FFF7FEFF 		bl	messagereceiver_create
 2675              	.LVL465:
 2676 024c 6061     		str	r0, [r4, #20]
 803:Source\azure_iot_sdk\iothub_client\src/iothubtransportamqp_methods.c ****                                                 if (iothubtransport_amqp_methods_handle->message_re
 2677              		.loc 1 803 0
 2678 024e 0028     		cmp	r0, #0
 2679 0250 0FD1     		bne	.L145
 2680              	.LBB86:
 804:Source\azure_iot_sdk\iothub_client\src/iothubtransportamqp_methods.c ****                                                 {
 805:Source\azure_iot_sdk\iothub_client\src/iothubtransportamqp_methods.c ****                                                     /* Codes_SRS_IOTHUBTRANSPORT_AMQP_METHODS_01_03
 806:Source\azure_iot_sdk\iothub_client\src/iothubtransportamqp_methods.c ****                                                     LogError("Cannot create message receiver");
 2681              		.loc 1 806 0 discriminator 3
 2682 0252 FFF7FEFF 		bl	xlogging_get_log_function
 2683              	.LVL466:
 2684 0256 041E     		subs	r4, r0, #0
 2685              	.LVL467:
 2686 0258 59D0     		beq	.L161
 2687              		.loc 1 806 0 is_stmt 0 discriminator 4
 2688 025a 654B     		ldr	r3, .L165+128
ARM GAS  C:\Users\Phuong\AppData\Local\Temp\ccu7x7Ah.s 			page 64


 2689 025c 0193     		str	r3, [sp, #4]
 2690 025e 0123     		movs	r3, #1
 2691 0260 0093     		str	r3, [sp]
 2692 0262 644B     		ldr	r3, .L165+132
 2693 0264 434A     		ldr	r2, .L165+4
 2694 0266 5432     		adds	r2, r2, #84
 2695 0268 4349     		ldr	r1, .L165+8
 2696 026a 0020     		movs	r0, #0
 2697              	.LVL468:
 2698 026c A047     		blx	r4
 2699              	.LVL469:
 2700              	.LBE86:
 807:Source\azure_iot_sdk\iothub_client\src/iothubtransportamqp_methods.c ****                                                     result = __FAILURE__;
 2701              		.loc 1 807 0 is_stmt 1 discriminator 4
 2702 026e 624C     		ldr	r4, .L165+136
 2703              	.LVL470:
 2704 0270 54E0     		b	.L144
 2705              	.LVL471:
 2706              	.L145:
 808:Source\azure_iot_sdk\iothub_client\src/iothubtransportamqp_methods.c ****                                                 }
 809:Source\azure_iot_sdk\iothub_client\src/iothubtransportamqp_methods.c ****                                                 else
 810:Source\azure_iot_sdk\iothub_client\src/iothubtransportamqp_methods.c ****                                                 {
 811:Source\azure_iot_sdk\iothub_client\src/iothubtransportamqp_methods.c ****                                                     /* Codes_SRS_IOTHUBTRANSPORT_AMQP_METHODS_01_03
 812:Source\azure_iot_sdk\iothub_client\src/iothubtransportamqp_methods.c ****                                                     /* Codes_SRS_IOTHUBTRANSPORT_AMQP_METHODS_01_10
 813:Source\azure_iot_sdk\iothub_client\src/iothubtransportamqp_methods.c ****                                                     iothubtransport_amqp_methods_handle->message_se
 2707              		.loc 1 813 0
 2708 0272 2200     		movs	r2, r4
 2709 0274 6149     		ldr	r1, .L165+140
 2710 0276 2069     		ldr	r0, [r4, #16]
 2711 0278 FFF7FEFF 		bl	messagesender_create
 2712              	.LVL472:
 2713 027c A061     		str	r0, [r4, #24]
 814:Source\azure_iot_sdk\iothub_client\src/iothubtransportamqp_methods.c ****                                                     if (iothubtransport_amqp_methods_handle->messag
 2714              		.loc 1 814 0
 2715 027e 0028     		cmp	r0, #0
 2716 0280 0FD1     		bne	.L146
 2717              	.LBB87:
 815:Source\azure_iot_sdk\iothub_client\src/iothubtransportamqp_methods.c ****                                                     {
 816:Source\azure_iot_sdk\iothub_client\src/iothubtransportamqp_methods.c ****                                                         /* Codes_SRS_IOTHUBTRANSPORT_AMQP_METHODS_0
 817:Source\azure_iot_sdk\iothub_client\src/iothubtransportamqp_methods.c ****                                                         LogError("Cannot create message sender");
 2718              		.loc 1 817 0 discriminator 3
 2719 0282 FFF7FEFF 		bl	xlogging_get_log_function
 2720              	.LVL473:
 2721 0286 041E     		subs	r4, r0, #0
 2722              	.LVL474:
 2723 0288 43D0     		beq	.L162
 2724              		.loc 1 817 0 is_stmt 0 discriminator 4
 2725 028a 5D4B     		ldr	r3, .L165+144
 2726 028c 0193     		str	r3, [sp, #4]
 2727 028e 0123     		movs	r3, #1
 2728 0290 0093     		str	r3, [sp]
 2729 0292 5C4B     		ldr	r3, .L165+148
 2730 0294 374A     		ldr	r2, .L165+4
 2731 0296 5432     		adds	r2, r2, #84
 2732 0298 3749     		ldr	r1, .L165+8
 2733 029a 0020     		movs	r0, #0
 2734              	.LVL475:
ARM GAS  C:\Users\Phuong\AppData\Local\Temp\ccu7x7Ah.s 			page 65


 2735 029c A047     		blx	r4
 2736              	.LVL476:
 2737              	.LBE87:
 818:Source\azure_iot_sdk\iothub_client\src/iothubtransportamqp_methods.c ****                                                         result = __FAILURE__;
 2738              		.loc 1 818 0 is_stmt 1 discriminator 4
 2739 029e 5A4C     		ldr	r4, .L165+152
 2740              	.LVL477:
 2741 02a0 3CE0     		b	.L144
 2742              	.LVL478:
 2743              	.L146:
 819:Source\azure_iot_sdk\iothub_client\src/iothubtransportamqp_methods.c ****                                                     }
 820:Source\azure_iot_sdk\iothub_client\src/iothubtransportamqp_methods.c ****                                                     else
 821:Source\azure_iot_sdk\iothub_client\src/iothubtransportamqp_methods.c ****                                                     {
 822:Source\azure_iot_sdk\iothub_client\src/iothubtransportamqp_methods.c ****                                                         /* Codes_SRS_IOTHUBTRANSPORT_AMQP_METHODS_0
 823:Source\azure_iot_sdk\iothub_client\src/iothubtransportamqp_methods.c ****                                                         if (messagesender_open(iothubtransport_amqp
 2744              		.loc 1 823 0
 2745 02a2 FFF7FEFF 		bl	messagesender_open
 2746              	.LVL479:
 2747 02a6 0028     		cmp	r0, #0
 2748 02a8 0FD0     		beq	.L147
 2749              	.LBB88:
 824:Source\azure_iot_sdk\iothub_client\src/iothubtransportamqp_methods.c ****                                                         {
 825:Source\azure_iot_sdk\iothub_client\src/iothubtransportamqp_methods.c ****                                                             /* Codes_SRS_IOTHUBTRANSPORT_AMQP_METHO
 826:Source\azure_iot_sdk\iothub_client\src/iothubtransportamqp_methods.c ****                                                             LogError("Cannot open the message sende
 2750              		.loc 1 826 0 discriminator 3
 2751 02aa FFF7FEFF 		bl	xlogging_get_log_function
 2752              	.LVL480:
 2753 02ae 041E     		subs	r4, r0, #0
 2754              	.LVL481:
 2755 02b0 31D0     		beq	.L163
 2756              		.loc 1 826 0 is_stmt 0 discriminator 4
 2757 02b2 564B     		ldr	r3, .L165+156
 2758 02b4 0193     		str	r3, [sp, #4]
 2759 02b6 0123     		movs	r3, #1
 2760 02b8 0093     		str	r3, [sp]
 2761 02ba 554B     		ldr	r3, .L165+160
 2762 02bc 2D4A     		ldr	r2, .L165+4
 2763 02be 5432     		adds	r2, r2, #84
 2764 02c0 2D49     		ldr	r1, .L165+8
 2765 02c2 0020     		movs	r0, #0
 2766              	.LVL482:
 2767 02c4 A047     		blx	r4
 2768              	.LVL483:
 2769              	.LBE88:
 827:Source\azure_iot_sdk\iothub_client\src/iothubtransportamqp_methods.c ****                                                             result = __FAILURE__;
 2770              		.loc 1 827 0 is_stmt 1 discriminator 4
 2771 02c6 534C     		ldr	r4, .L165+164
 2772              	.LVL484:
 2773 02c8 28E0     		b	.L144
 2774              	.LVL485:
 2775              	.L147:
 828:Source\azure_iot_sdk\iothub_client\src/iothubtransportamqp_methods.c ****                                                         }
 829:Source\azure_iot_sdk\iothub_client\src/iothubtransportamqp_methods.c ****                                                         else
 830:Source\azure_iot_sdk\iothub_client\src/iothubtransportamqp_methods.c ****                                                         {
 831:Source\azure_iot_sdk\iothub_client\src/iothubtransportamqp_methods.c ****                                                             /* Codes_SRS_IOTHUBTRANSPORT_AMQP_METHO
 832:Source\azure_iot_sdk\iothub_client\src/iothubtransportamqp_methods.c ****                                                             /* Codes_SRS_IOTHUBTRANSPORT_AMQP_METHO
 833:Source\azure_iot_sdk\iothub_client\src/iothubtransportamqp_methods.c ****                                                             if (messagereceiver_open(iothubtranspor
ARM GAS  C:\Users\Phuong\AppData\Local\Temp\ccu7x7Ah.s 			page 66


 2776              		.loc 1 833 0
 2777 02ca 2200     		movs	r2, r4
 2778 02cc 5249     		ldr	r1, .L165+168
 2779 02ce 6069     		ldr	r0, [r4, #20]
 2780 02d0 FFF7FEFF 		bl	messagereceiver_open
 2781              	.LVL486:
 2782 02d4 0028     		cmp	r0, #0
 2783 02d6 10D0     		beq	.L148
 2784              	.LBB89:
 834:Source\azure_iot_sdk\iothub_client\src/iothubtransportamqp_methods.c ****                                                             {
 835:Source\azure_iot_sdk\iothub_client\src/iothubtransportamqp_methods.c ****                                                                 /* Codes_SRS_IOTHUBTRANSPORT_AMQP_M
 836:Source\azure_iot_sdk\iothub_client\src/iothubtransportamqp_methods.c ****                                                                 LogError("Cannot open the message r
 2785              		.loc 1 836 0 discriminator 3
 2786 02d8 FFF7FEFF 		bl	xlogging_get_log_function
 2787              	.LVL487:
 2788 02dc 041E     		subs	r4, r0, #0
 2789              	.LVL488:
 2790 02de 1CD0     		beq	.L164
 2791              		.loc 1 836 0 is_stmt 0 discriminator 4
 2792 02e0 4E4B     		ldr	r3, .L165+172
 2793 02e2 0193     		str	r3, [sp, #4]
 2794 02e4 0123     		movs	r3, #1
 2795 02e6 0093     		str	r3, [sp]
 2796 02e8 D123     		movs	r3, #209
 2797 02ea 9B00     		lsls	r3, r3, #2
 2798 02ec 214A     		ldr	r2, .L165+4
 2799 02ee 5432     		adds	r2, r2, #84
 2800 02f0 2149     		ldr	r1, .L165+8
 2801 02f2 0020     		movs	r0, #0
 2802              	.LVL489:
 2803 02f4 A047     		blx	r4
 2804              	.LVL490:
 2805              	.LBE89:
 837:Source\azure_iot_sdk\iothub_client\src/iothubtransportamqp_methods.c ****                                                                 result = __FAILURE__;
 2806              		.loc 1 837 0 is_stmt 1 discriminator 4
 2807 02f6 4A4C     		ldr	r4, .L165+176
 2808              	.LVL491:
 2809 02f8 10E0     		b	.L144
 2810              	.LVL492:
 2811              	.L148:
 838:Source\azure_iot_sdk\iothub_client\src/iothubtransportamqp_methods.c ****                                                             }
 839:Source\azure_iot_sdk\iothub_client\src/iothubtransportamqp_methods.c ****                                                             else
 840:Source\azure_iot_sdk\iothub_client\src/iothubtransportamqp_methods.c ****                                                             {
 841:Source\azure_iot_sdk\iothub_client\src/iothubtransportamqp_methods.c ****                                                                 iothubtransport_amqp_methods_handle
 2812              		.loc 1 841 0
 2813 02fa 0122     		movs	r2, #1
 2814 02fc 3423     		movs	r3, #52
 2815 02fe E254     		strb	r2, [r4, r3]
 2816              	.LVL493:
 842:Source\azure_iot_sdk\iothub_client\src/iothubtransportamqp_methods.c **** 
 843:Source\azure_iot_sdk\iothub_client\src/iothubtransportamqp_methods.c ****                                                                 /* Codes_SRS_IOTHUBTRANSPORT_AMQP_M
 844:Source\azure_iot_sdk\iothub_client\src/iothubtransportamqp_methods.c ****                                                                 result = 0;
 2817              		.loc 1 844 0
 2818 0300 0024     		movs	r4, #0
 2819              	.LVL494:
 2820 0302 0BE0     		b	.L144
 2821              	.LVL495:
ARM GAS  C:\Users\Phuong\AppData\Local\Temp\ccu7x7Ah.s 			page 67


 2822              	.L159:
 790:Source\azure_iot_sdk\iothub_client\src/iothubtransportamqp_methods.c ****                                         }
 2823              		.loc 1 790 0
 2824 0304 384C     		ldr	r4, .L165+120
 2825 0306 09E0     		b	.L144
 2826              	.LVL496:
 2827              	.L160:
 796:Source\azure_iot_sdk\iothub_client\src/iothubtransportamqp_methods.c ****                                             }
 2828              		.loc 1 796 0
 2829 0308 C724     		movs	r4, #199
 2830              	.LVL497:
 2831 030a A400     		lsls	r4, r4, #2
 2832 030c 06E0     		b	.L144
 2833              	.LVL498:
 2834              	.L161:
 807:Source\azure_iot_sdk\iothub_client\src/iothubtransportamqp_methods.c ****                                                 }
 2835              		.loc 1 807 0
 2836 030e 3A4C     		ldr	r4, .L165+136
 2837 0310 04E0     		b	.L144
 2838              	.LVL499:
 2839              	.L162:
 818:Source\azure_iot_sdk\iothub_client\src/iothubtransportamqp_methods.c ****                                                     }
 2840              		.loc 1 818 0
 2841 0312 3D4C     		ldr	r4, .L165+152
 2842 0314 02E0     		b	.L144
 2843              	.LVL500:
 2844              	.L163:
 827:Source\azure_iot_sdk\iothub_client\src/iothubtransportamqp_methods.c ****                                                         }
 2845              		.loc 1 827 0
 2846 0316 3F4C     		ldr	r4, .L165+164
 2847 0318 00E0     		b	.L144
 2848              	.LVL501:
 2849              	.L164:
 837:Source\azure_iot_sdk\iothub_client\src/iothubtransportamqp_methods.c ****                                                             }
 2850              		.loc 1 837 0
 2851 031a 414C     		ldr	r4, .L165+176
 2852              	.LVL502:
 2853              	.L144:
 845:Source\azure_iot_sdk\iothub_client\src/iothubtransportamqp_methods.c ****                                                             }
 846:Source\azure_iot_sdk\iothub_client\src/iothubtransportamqp_methods.c ****                                                         }
 847:Source\azure_iot_sdk\iothub_client\src/iothubtransportamqp_methods.c ****                                                     }
 848:Source\azure_iot_sdk\iothub_client\src/iothubtransportamqp_methods.c ****                                                 }
 849:Source\azure_iot_sdk\iothub_client\src/iothubtransportamqp_methods.c ****                                             }
 850:Source\azure_iot_sdk\iothub_client\src/iothubtransportamqp_methods.c ****                                         }
 851:Source\azure_iot_sdk\iothub_client\src/iothubtransportamqp_methods.c **** 
 852:Source\azure_iot_sdk\iothub_client\src/iothubtransportamqp_methods.c ****                                         STRING_delete(responses_link_name);
 2854              		.loc 1 852 0
 2855 031c 0B98     		ldr	r0, [sp, #44]
 2856 031e FFF7FEFF 		bl	STRING_delete
 2857              	.LVL503:
 2858 0322 00E0     		b	.L142
 2859              	.LVL504:
 2860              	.L158:
 778:Source\azure_iot_sdk\iothub_client\src/iothubtransportamqp_methods.c ****                                     }
 2861              		.loc 1 778 0
 2862 0324 2D4C     		ldr	r4, .L165+108
 2863              	.LVL505:
ARM GAS  C:\Users\Phuong\AppData\Local\Temp\ccu7x7Ah.s 			page 68


 2864              	.L142:
 853:Source\azure_iot_sdk\iothub_client\src/iothubtransportamqp_methods.c ****                                     }
 854:Source\azure_iot_sdk\iothub_client\src/iothubtransportamqp_methods.c **** 
 855:Source\azure_iot_sdk\iothub_client\src/iothubtransportamqp_methods.c ****                                     amqpvalue_destroy(sender_target);
 2865              		.loc 1 855 0
 2866 0326 5046     		mov	r0, r10
 2867 0328 FFF7FEFF 		bl	amqpvalue_destroy
 2868              	.LVL506:
 2869 032c 01E0     		b	.L140
 2870              	.LVL507:
 2871              	.L157:
 2872              	.LBE83:
 768:Source\azure_iot_sdk\iothub_client\src/iothubtransportamqp_methods.c ****                                 }
 2873              		.loc 1 768 0
 2874 032e C024     		movs	r4, #192
 2875 0330 A400     		lsls	r4, r4, #2
 2876              	.LVL508:
 2877              	.L140:
 856:Source\azure_iot_sdk\iothub_client\src/iothubtransportamqp_methods.c ****                                 }
 857:Source\azure_iot_sdk\iothub_client\src/iothubtransportamqp_methods.c **** 
 858:Source\azure_iot_sdk\iothub_client\src/iothubtransportamqp_methods.c ****                                 amqpvalue_destroy(sender_source);
 2878              		.loc 1 858 0
 2879 0332 0A98     		ldr	r0, [sp, #40]
 2880 0334 FFF7FEFF 		bl	amqpvalue_destroy
 2881              	.LVL509:
 2882 0338 02E0     		b	.L137
 2883              	.LVL510:
 2884              	.L155:
 2885              	.LBE81:
 2886              	.LBE79:
 747:Source\azure_iot_sdk\iothub_client\src/iothubtransportamqp_methods.c ****                         }
 2887              		.loc 1 747 0
 2888 033a 1F4C     		ldr	r4, .L165+72
 2889 033c 00E0     		b	.L137
 2890              	.LVL511:
 2891              	.L156:
 2892              	.LBB90:
 758:Source\azure_iot_sdk\iothub_client\src/iothubtransportamqp_methods.c ****                             }
 2893              		.loc 1 758 0
 2894 033e 224C     		ldr	r4, .L165+88
 2895              	.LVL512:
 2896              	.L137:
 2897              	.LBE90:
 859:Source\azure_iot_sdk\iothub_client\src/iothubtransportamqp_methods.c ****                             }
 860:Source\azure_iot_sdk\iothub_client\src/iothubtransportamqp_methods.c ****                         }
 861:Source\azure_iot_sdk\iothub_client\src/iothubtransportamqp_methods.c **** 
 862:Source\azure_iot_sdk\iothub_client\src/iothubtransportamqp_methods.c ****                         STRING_delete(requests_link_name);
 2898              		.loc 1 862 0
 2899 0340 0998     		ldr	r0, [sp, #36]
 2900 0342 FFF7FEFF 		bl	STRING_delete
 2901              	.LVL513:
 2902 0346 00E0     		b	.L135
 2903              	.LVL514:
 2904              	.L154:
 735:Source\azure_iot_sdk\iothub_client\src/iothubtransportamqp_methods.c ****                     }
 2905              		.loc 1 735 0
 2906 0348 184C     		ldr	r4, .L165+60
ARM GAS  C:\Users\Phuong\AppData\Local\Temp\ccu7x7Ah.s 			page 69


 2907              	.LVL515:
 2908              	.L135:
 863:Source\azure_iot_sdk\iothub_client\src/iothubtransportamqp_methods.c ****                     }
 864:Source\azure_iot_sdk\iothub_client\src/iothubtransportamqp_methods.c **** 
 865:Source\azure_iot_sdk\iothub_client\src/iothubtransportamqp_methods.c ****                     amqpvalue_destroy(receiver_target);
 2909              		.loc 1 865 0
 2910 034a 3800     		movs	r0, r7
 2911 034c FFF7FEFF 		bl	amqpvalue_destroy
 2912              	.LVL516:
 2913 0350 00E0     		b	.L133
 2914              	.LVL517:
 2915              	.L153:
 2916              	.LBE76:
 725:Source\azure_iot_sdk\iothub_client\src/iothubtransportamqp_methods.c ****                 }
 2917              		.loc 1 725 0
 2918 0352 134C     		ldr	r4, .L165+48
 2919              	.LVL518:
 2920              	.L133:
 866:Source\azure_iot_sdk\iothub_client\src/iothubtransportamqp_methods.c ****                 }
 867:Source\azure_iot_sdk\iothub_client\src/iothubtransportamqp_methods.c **** 
 868:Source\azure_iot_sdk\iothub_client\src/iothubtransportamqp_methods.c ****                 amqpvalue_destroy(receiver_source);
 2921              		.loc 1 868 0
 2922 0354 0898     		ldr	r0, [sp, #32]
 2923 0356 FFF7FEFF 		bl	amqpvalue_destroy
 2924              	.LVL519:
 2925 035a 00E0     		b	.L131
 2926              	.LVL520:
 2927              	.L152:
 2928              	.LBE74:
 714:Source\azure_iot_sdk\iothub_client\src/iothubtransportamqp_methods.c ****             }
 2929              		.loc 1 714 0
 2930 035c 0D4C     		ldr	r4, .L165+36
 2931              	.LVL521:
 2932              	.L131:
 869:Source\azure_iot_sdk\iothub_client\src/iothubtransportamqp_methods.c ****             }
 870:Source\azure_iot_sdk\iothub_client\src/iothubtransportamqp_methods.c **** 
 871:Source\azure_iot_sdk\iothub_client\src/iothubtransportamqp_methods.c ****             /* Codes_SRS_IOTHUBTRANSPORT_AMQP_METHODS_01_105: [ The string created in order to hold
 872:Source\azure_iot_sdk\iothub_client\src/iothubtransportamqp_methods.c ****             STRING_delete(peer_endpoint_string);
 2933              		.loc 1 872 0
 2934 035e 2800     		movs	r0, r5
 2935 0360 FFF7FEFF 		bl	STRING_delete
 2936              	.LVL522:
 2937 0364 5FE0     		b	.L128
 2938              	.LVL523:
 2939              	.L149:
 2940              	.LBE72:
 2941              	.LBE71:
 681:Source\azure_iot_sdk\iothub_client\src/iothubtransportamqp_methods.c ****     }
 2942              		.loc 1 681 0
 2943 0366 054C     		ldr	r4, .L165+12
 2944              	.LVL524:
 2945 0368 5DE0     		b	.L128
 2946              	.LVL525:
 2947              	.L150:
 687:Source\azure_iot_sdk\iothub_client\src/iothubtransportamqp_methods.c ****     }
 2948              		.loc 1 687 0
 2949 036a 074C     		ldr	r4, .L165+24
ARM GAS  C:\Users\Phuong\AppData\Local\Temp\ccu7x7Ah.s 			page 70


 2950 036c 5BE0     		b	.L128
 2951              	.L166:
 2952 036e C046     		.align	2
 2953              	.L165:
 2954 0370 08070000 		.word	.LC89
 2955 0374 00000000 		.word	.LANCHOR0
 2956 0378 00000000 		.word	.LC1
 2957 037c A9020000 		.word	681
 2958 0380 A8070000 		.word	.LC91
 2959 0384 AE020000 		.word	686
 2960 0388 AF020000 		.word	687
 2961 038c BC070000 		.word	.LC93
 2962 0390 C9020000 		.word	713
 2963 0394 CA020000 		.word	714
 2964 0398 DC070000 		.word	.LC95
 2965 039c E8070000 		.word	.LC97
 2966 03a0 D5020000 		.word	725
 2967 03a4 08080000 		.word	.LC99
 2968 03a8 DE020000 		.word	734
 2969 03ac DF020000 		.word	735
 2970 03b0 34080000 		.word	.LC101
 2971 03b4 EA020000 		.word	746
 2972 03b8 EB020000 		.word	747
 2973 03bc 50080000 		.word	.LC103
 2974 03c0 5C080000 		.word	.LC105
 2975 03c4 F5020000 		.word	757
 2976 03c8 F6020000 		.word	758
 2977 03cc 78080000 		.word	.LC107
 2978 03d0 FF020000 		.word	767
 2979 03d4 94080000 		.word	.LC109
 2980 03d8 09030000 		.word	777
 2981 03dc 0A030000 		.word	778
 2982 03e0 C0080000 		.word	.LC111
 2983 03e4 15030000 		.word	789
 2984 03e8 16030000 		.word	790
 2985 03ec 00000000 		.word	on_message_receiver_state_changed
 2986 03f0 DC080000 		.word	.LC114
 2987 03f4 26030000 		.word	806
 2988 03f8 27030000 		.word	807
 2989 03fc 00000000 		.word	on_message_sender_state_changed
 2990 0400 FC080000 		.word	.LC117
 2991 0404 31030000 		.word	817
 2992 0408 32030000 		.word	818
 2993 040c 1C090000 		.word	.LC119
 2994 0410 3A030000 		.word	826
 2995 0414 3B030000 		.word	827
 2996 0418 00000000 		.word	on_message_received
 2997 041c 3C090000 		.word	.LC122
 2998 0420 45030000 		.word	837
 2999              	.LVL526:
 3000              	.L151:
 3001              	.LBB91:
 697:Source\azure_iot_sdk\iothub_client\src/iothubtransportamqp_methods.c ****         }
 3002              		.loc 1 697 0
 3003 0424 024C     		ldr	r4, .L167
 3004              	.LVL527:
 3005              	.L128:
ARM GAS  C:\Users\Phuong\AppData\Local\Temp\ccu7x7Ah.s 			page 71


 3006              	.LBE91:
 873:Source\azure_iot_sdk\iothub_client\src/iothubtransportamqp_methods.c ****         }
 874:Source\azure_iot_sdk\iothub_client\src/iothubtransportamqp_methods.c ****     }
 875:Source\azure_iot_sdk\iothub_client\src/iothubtransportamqp_methods.c **** 
 876:Source\azure_iot_sdk\iothub_client\src/iothubtransportamqp_methods.c ****     return result;
 877:Source\azure_iot_sdk\iothub_client\src/iothubtransportamqp_methods.c **** }
 3007              		.loc 1 877 0
 3008 0426 2000     		movs	r0, r4
 3009 0428 0CB0     		add	sp, sp, #48
 3010              		@ sp needed
 3011              	.LVL528:
 3012              	.LVL529:
 3013 042a 04BC     		pop	{r2}
 3014 042c 9246     		mov	r10, r2
 3015 042e F0BD     		pop	{r4, r5, r6, r7, pc}
 3016              	.L168:
 3017              		.align	2
 3018              	.L167:
 3019 0430 B9020000 		.word	697
 3020              		.cfi_endproc
 3021              	.LFE14:
 3022              		.size	iothubtransportamqp_methods_subscribe, .-iothubtransportamqp_methods_subscribe
 3023              		.section	.text.iothubtransportamqp_methods_unsubscribe,"ax",%progbits
 3024              		.align	2
 3025              		.global	iothubtransportamqp_methods_unsubscribe
 3026              		.code	16
 3027              		.thumb_func
 3028              		.type	iothubtransportamqp_methods_unsubscribe, %function
 3029              	iothubtransportamqp_methods_unsubscribe:
 3030              	.LFB15:
 878:Source\azure_iot_sdk\iothub_client\src/iothubtransportamqp_methods.c **** 
 879:Source\azure_iot_sdk\iothub_client\src/iothubtransportamqp_methods.c **** void iothubtransportamqp_methods_unsubscribe(IOTHUBTRANSPORT_AMQP_METHODS_HANDLE iothubtransport_am
 880:Source\azure_iot_sdk\iothub_client\src/iothubtransportamqp_methods.c **** {
 3031              		.loc 1 880 0
 3032              		.cfi_startproc
 3033              		@ args = 0, pretend = 0, frame = 0
 3034              		@ frame_needed = 0, uses_anonymous_args = 0
 3035              	.LVL530:
 3036 0000 30B5     		push	{r4, r5, lr}
 3037              		.cfi_def_cfa_offset 12
 3038              		.cfi_offset 4, -12
 3039              		.cfi_offset 5, -8
 3040              		.cfi_offset 14, -4
 3041 0002 83B0     		sub	sp, sp, #12
 3042              		.cfi_def_cfa_offset 24
 3043 0004 041E     		subs	r4, r0, #0
 881:Source\azure_iot_sdk\iothub_client\src/iothubtransportamqp_methods.c ****     /* Codes_SRS_IOTHUBTRANSPORT_AMQP_METHODS_01_072: [ If the argument `iothubtransport_amqp_metho
 882:Source\azure_iot_sdk\iothub_client\src/iothubtransportamqp_methods.c ****     if (iothubtransport_amqp_methods_handle == NULL)
 3044              		.loc 1 882 0
 3045 0006 0FD1     		bne	.L170
 3046              	.LBB92:
 883:Source\azure_iot_sdk\iothub_client\src/iothubtransportamqp_methods.c ****     {
 884:Source\azure_iot_sdk\iothub_client\src/iothubtransportamqp_methods.c ****         LogError("NULL handle");
 3047              		.loc 1 884 0 discriminator 3
 3048 0008 FFF7FEFF 		bl	xlogging_get_log_function
 3049              	.LVL531:
 3050 000c 041E     		subs	r4, r0, #0
ARM GAS  C:\Users\Phuong\AppData\Local\Temp\ccu7x7Ah.s 			page 72


 3051              	.LVL532:
 3052 000e 32D0     		beq	.L169
 3053              		.loc 1 884 0 is_stmt 0 discriminator 4
 3054 0010 1A4B     		ldr	r3, .L173
 3055 0012 0193     		str	r3, [sp, #4]
 3056 0014 0123     		movs	r3, #1
 3057 0016 0093     		str	r3, [sp]
 3058 0018 DD23     		movs	r3, #221
 3059 001a 9B00     		lsls	r3, r3, #2
 3060 001c 184A     		ldr	r2, .L173+4
 3061 001e 7C32     		adds	r2, r2, #124
 3062 0020 1849     		ldr	r1, .L173+8
 3063 0022 0020     		movs	r0, #0
 3064              	.LVL533:
 3065 0024 A047     		blx	r4
 3066              	.LVL534:
 3067 0026 26E0     		b	.L169
 3068              	.LVL535:
 3069              	.L170:
 3070              	.LBE92:
 885:Source\azure_iot_sdk\iothub_client\src/iothubtransportamqp_methods.c ****     }
 886:Source\azure_iot_sdk\iothub_client\src/iothubtransportamqp_methods.c ****     else
 887:Source\azure_iot_sdk\iothub_client\src/iothubtransportamqp_methods.c ****     {
 888:Source\azure_iot_sdk\iothub_client\src/iothubtransportamqp_methods.c ****         /* Codes_SRS_IOTHUBTRANSPORT_AMQP_METHODS_01_135: [ If subscribe was not called yet, `iothu
 889:Source\azure_iot_sdk\iothub_client\src/iothubtransportamqp_methods.c ****         /* Codes_SRS_IOTHUBTRANSPORT_AMQP_METHODS_01_136: [ `iothubtransportamqp_methods_unsubscrib
 890:Source\azure_iot_sdk\iothub_client\src/iothubtransportamqp_methods.c ****         if (iothubtransport_amqp_methods_handle->subscribe_state != SUBSCRIBE_STATE_SUBSCRIBED)
 3071              		.loc 1 890 0 is_stmt 1
 3072 0028 3423     		movs	r3, #52
 3073 002a C35C     		ldrb	r3, [r0, r3]
 3074 002c 012B     		cmp	r3, #1
 3075 002e 0FD0     		beq	.L172
 3076              	.LBB93:
 891:Source\azure_iot_sdk\iothub_client\src/iothubtransportamqp_methods.c ****         {
 892:Source\azure_iot_sdk\iothub_client\src/iothubtransportamqp_methods.c ****             LogError("unsubscribe called while not subscribed");
 3077              		.loc 1 892 0 discriminator 3
 3078 0030 FFF7FEFF 		bl	xlogging_get_log_function
 3079              	.LVL536:
 3080 0034 041E     		subs	r4, r0, #0
 3081              	.LVL537:
 3082 0036 1ED0     		beq	.L169
 3083              		.loc 1 892 0 is_stmt 0 discriminator 4
 3084 0038 134B     		ldr	r3, .L173+12
 3085 003a 0193     		str	r3, [sp, #4]
 3086 003c 0123     		movs	r3, #1
 3087 003e 0093     		str	r3, [sp]
 3088 0040 DF23     		movs	r3, #223
 3089 0042 9B00     		lsls	r3, r3, #2
 3090 0044 0E4A     		ldr	r2, .L173+4
 3091 0046 7C32     		adds	r2, r2, #124
 3092 0048 0E49     		ldr	r1, .L173+8
 3093 004a 0020     		movs	r0, #0
 3094              	.LVL538:
 3095 004c A047     		blx	r4
 3096              	.LVL539:
 3097 004e 12E0     		b	.L169
 3098              	.LVL540:
 3099              	.L172:
ARM GAS  C:\Users\Phuong\AppData\Local\Temp\ccu7x7Ah.s 			page 73


 3100              	.LBE93:
 893:Source\azure_iot_sdk\iothub_client\src/iothubtransportamqp_methods.c ****         }
 894:Source\azure_iot_sdk\iothub_client\src/iothubtransportamqp_methods.c ****         else
 895:Source\azure_iot_sdk\iothub_client\src/iothubtransportamqp_methods.c ****         {
 896:Source\azure_iot_sdk\iothub_client\src/iothubtransportamqp_methods.c ****             /* Codes_SRS_IOTHUBTRANSPORT_AMQP_METHODS_01_073: [ Otherwise `iothubtransportamqp_meth
 897:Source\azure_iot_sdk\iothub_client\src/iothubtransportamqp_methods.c ****             /* Codes_SRS_IOTHUBTRANSPORT_AMQP_METHODS_01_075: [ - It shall free the message receive
 898:Source\azure_iot_sdk\iothub_client\src/iothubtransportamqp_methods.c ****             messagereceiver_destroy(iothubtransport_amqp_methods_handle->message_receiver);
 3101              		.loc 1 898 0 is_stmt 1
 3102 0050 4069     		ldr	r0, [r0, #20]
 3103              	.LVL541:
 3104 0052 FFF7FEFF 		bl	messagereceiver_destroy
 3105              	.LVL542:
 899:Source\azure_iot_sdk\iothub_client\src/iothubtransportamqp_methods.c ****             iothubtransport_amqp_methods_handle->message_receiver = NULL;
 3106              		.loc 1 899 0
 3107 0056 0025     		movs	r5, #0
 3108 0058 6561     		str	r5, [r4, #20]
 900:Source\azure_iot_sdk\iothub_client\src/iothubtransportamqp_methods.c ****             /* Codes_SRS_IOTHUBTRANSPORT_AMQP_METHODS_01_074: [ - It shall free the message sender 
 901:Source\azure_iot_sdk\iothub_client\src/iothubtransportamqp_methods.c ****             messagesender_destroy(iothubtransport_amqp_methods_handle->message_sender);
 3109              		.loc 1 901 0
 3110 005a A069     		ldr	r0, [r4, #24]
 3111 005c FFF7FEFF 		bl	messagesender_destroy
 3112              	.LVL543:
 902:Source\azure_iot_sdk\iothub_client\src/iothubtransportamqp_methods.c ****             iothubtransport_amqp_methods_handle->message_sender = NULL;
 3113              		.loc 1 902 0
 3114 0060 A561     		str	r5, [r4, #24]
 903:Source\azure_iot_sdk\iothub_client\src/iothubtransportamqp_methods.c ****             /* Codes_SRS_IOTHUBTRANSPORT_AMQP_METHODS_01_076: [ - It shall free the sender link by 
 904:Source\azure_iot_sdk\iothub_client\src/iothubtransportamqp_methods.c ****             link_destroy(iothubtransport_amqp_methods_handle->sender_link);
 3115              		.loc 1 904 0
 3116 0062 2069     		ldr	r0, [r4, #16]
 3117 0064 FFF7FEFF 		bl	link_destroy
 3118              	.LVL544:
