ARM GAS  C:\Users\Phuong\AppData\Local\Temp\ccu7x7Ah.s 			page 1


   1              		.syntax unified
   2              		.cpu cortex-m0plus
   3              		.fpu softvfp
   4              		.eabi_attribute 20, 1
   5              		.eabi_attribute 21, 1
   6              		.eabi_attribute 23, 3
   7              		.eabi_attribute 24, 1
   8              		.eabi_attribute 25, 1
   9              		.eabi_attribute 26, 1
  10              		.eabi_attribute 30, 1
  11              		.eabi_attribute 34, 0
  12              		.eabi_attribute 18, 4
  13              		.thumb
  14              		.syntax unified
  15              		.file	"iothubtransportamqp_methods.c"
  16              		.text
  17              	.Ltext0:
  18              		.cfi_sections	.debug_frame
  19              		.section	.text.call_methods_unsubscribed_if_needed,"ax",%progbits
  20              		.align	2
  21              		.code	16
  22              		.thumb_func
  23              		.type	call_methods_unsubscribed_if_needed, %function
  24              	call_methods_unsubscribed_if_needed:
  25              	.LFB4:
  26              		.file 1 "Source\\azure_iot_sdk\\iothub_client\\src\\iothubtransportamqp_methods.c"
   1:Source\azure_iot_sdk\iothub_client\src/iothubtransportamqp_methods.c **** // Copyright (c) Microsoft. All rights reserved.
   2:Source\azure_iot_sdk\iothub_client\src/iothubtransportamqp_methods.c **** // Licensed under the MIT license. See LICENSE file in the project root for full license informatio
   3:Source\azure_iot_sdk\iothub_client\src/iothubtransportamqp_methods.c **** 
   4:Source\azure_iot_sdk\iothub_client\src/iothubtransportamqp_methods.c **** #include <stdlib.h>
   5:Source\azure_iot_sdk\iothub_client\src/iothubtransportamqp_methods.c **** #include <stddef.h>
   6:Source\azure_iot_sdk\iothub_client\src/iothubtransportamqp_methods.c **** #include "azure_c_shared_utility/optimize_size.h"
   7:Source\azure_iot_sdk\iothub_client\src/iothubtransportamqp_methods.c **** #include "azure_c_shared_utility/gballoc.h"
   8:Source\azure_iot_sdk\iothub_client\src/iothubtransportamqp_methods.c **** #include "azure_c_shared_utility/crt_abstractions.h"
   9:Source\azure_iot_sdk\iothub_client\src/iothubtransportamqp_methods.c **** #include "azure_c_shared_utility/xlogging.h"
  10:Source\azure_iot_sdk\iothub_client\src/iothubtransportamqp_methods.c **** #include "azure_c_shared_utility/strings.h"
  11:Source\azure_iot_sdk\iothub_client\src/iothubtransportamqp_methods.c **** #include "azure_uamqp_c/link.h"
  12:Source\azure_iot_sdk\iothub_client\src/iothubtransportamqp_methods.c **** #include "azure_uamqp_c/messaging.h"
  13:Source\azure_iot_sdk\iothub_client\src/iothubtransportamqp_methods.c **** #include "azure_uamqp_c/message_receiver.h"
  14:Source\azure_iot_sdk\iothub_client\src/iothubtransportamqp_methods.c **** #include "azure_uamqp_c/message_sender.h"
  15:Source\azure_iot_sdk\iothub_client\src/iothubtransportamqp_methods.c **** #include "azure_uamqp_c/amqp_definitions_application_properties.h"
  16:Source\azure_iot_sdk\iothub_client\src/iothubtransportamqp_methods.c **** 
  17:Source\azure_iot_sdk\iothub_client\src/iothubtransportamqp_methods.c **** #include "internal/iothubtransportamqp_methods.h"
  18:Source\azure_iot_sdk\iothub_client\src/iothubtransportamqp_methods.c **** 
  19:Source\azure_iot_sdk\iothub_client\src/iothubtransportamqp_methods.c **** typedef enum SUBSCRIBE_STATE_TAG
  20:Source\azure_iot_sdk\iothub_client\src/iothubtransportamqp_methods.c **** {
  21:Source\azure_iot_sdk\iothub_client\src/iothubtransportamqp_methods.c ****     SUBSCRIBE_STATE_NOT_SUBSCRIBED,
  22:Source\azure_iot_sdk\iothub_client\src/iothubtransportamqp_methods.c ****     SUBSCRIBE_STATE_SUBSCRIBED
  23:Source\azure_iot_sdk\iothub_client\src/iothubtransportamqp_methods.c **** } SUBSCRIBE_STATE;
  24:Source\azure_iot_sdk\iothub_client\src/iothubtransportamqp_methods.c **** 
  25:Source\azure_iot_sdk\iothub_client\src/iothubtransportamqp_methods.c **** typedef struct IOTHUBTRANSPORT_AMQP_METHODS_TAG
  26:Source\azure_iot_sdk\iothub_client\src/iothubtransportamqp_methods.c **** {
  27:Source\azure_iot_sdk\iothub_client\src/iothubtransportamqp_methods.c ****     char* device_id;
  28:Source\azure_iot_sdk\iothub_client\src/iothubtransportamqp_methods.c ****     char* module_id;
  29:Source\azure_iot_sdk\iothub_client\src/iothubtransportamqp_methods.c ****     char* hostname;
  30:Source\azure_iot_sdk\iothub_client\src/iothubtransportamqp_methods.c ****     LINK_HANDLE receiver_link;
  31:Source\azure_iot_sdk\iothub_client\src/iothubtransportamqp_methods.c ****     LINK_HANDLE sender_link;
ARM GAS  C:\Users\Phuong\AppData\Local\Temp\ccu7x7Ah.s 			page 2


  32:Source\azure_iot_sdk\iothub_client\src/iothubtransportamqp_methods.c ****     MESSAGE_RECEIVER_HANDLE message_receiver;
  33:Source\azure_iot_sdk\iothub_client\src/iothubtransportamqp_methods.c ****     MESSAGE_SENDER_HANDLE message_sender;
  34:Source\azure_iot_sdk\iothub_client\src/iothubtransportamqp_methods.c ****     ON_METHOD_REQUEST_RECEIVED on_method_request_received;
  35:Source\azure_iot_sdk\iothub_client\src/iothubtransportamqp_methods.c ****     void* on_method_request_received_context;
  36:Source\azure_iot_sdk\iothub_client\src/iothubtransportamqp_methods.c ****     ON_METHODS_ERROR on_methods_error;
  37:Source\azure_iot_sdk\iothub_client\src/iothubtransportamqp_methods.c ****     void* on_methods_error_context;
  38:Source\azure_iot_sdk\iothub_client\src/iothubtransportamqp_methods.c ****     ON_METHODS_UNSUBSCRIBED on_methods_unsubscribed;
  39:Source\azure_iot_sdk\iothub_client\src/iothubtransportamqp_methods.c ****     void* on_methods_unsubscribed_context;
  40:Source\azure_iot_sdk\iothub_client\src/iothubtransportamqp_methods.c ****     SUBSCRIBE_STATE subscribe_state;
  41:Source\azure_iot_sdk\iothub_client\src/iothubtransportamqp_methods.c ****     IOTHUBTRANSPORT_AMQP_METHOD_HANDLE* method_request_handles;
  42:Source\azure_iot_sdk\iothub_client\src/iothubtransportamqp_methods.c ****     size_t method_request_handle_count;
  43:Source\azure_iot_sdk\iothub_client\src/iothubtransportamqp_methods.c ****     bool receiver_link_disconnected;
  44:Source\azure_iot_sdk\iothub_client\src/iothubtransportamqp_methods.c ****     bool sender_link_disconnected;
  45:Source\azure_iot_sdk\iothub_client\src/iothubtransportamqp_methods.c **** } IOTHUBTRANSPORT_AMQP_METHODS;
  46:Source\azure_iot_sdk\iothub_client\src/iothubtransportamqp_methods.c **** 
  47:Source\azure_iot_sdk\iothub_client\src/iothubtransportamqp_methods.c **** typedef enum MESSAGE_OUTCOME_TAG
  48:Source\azure_iot_sdk\iothub_client\src/iothubtransportamqp_methods.c **** {
  49:Source\azure_iot_sdk\iothub_client\src/iothubtransportamqp_methods.c ****     MESSAGE_OUTCOME_ACCEPTED,
  50:Source\azure_iot_sdk\iothub_client\src/iothubtransportamqp_methods.c ****     MESSAGE_OUTCOME_REJECTED,
  51:Source\azure_iot_sdk\iothub_client\src/iothubtransportamqp_methods.c ****     MESSAGE_OUTCOME_RELEASED
  52:Source\azure_iot_sdk\iothub_client\src/iothubtransportamqp_methods.c **** } MESSAGE_OUTCOME;
  53:Source\azure_iot_sdk\iothub_client\src/iothubtransportamqp_methods.c **** 
  54:Source\azure_iot_sdk\iothub_client\src/iothubtransportamqp_methods.c **** typedef struct IOTHUBTRANSPORT_AMQP_METHOD_TAG
  55:Source\azure_iot_sdk\iothub_client\src/iothubtransportamqp_methods.c **** {
  56:Source\azure_iot_sdk\iothub_client\src/iothubtransportamqp_methods.c ****     IOTHUBTRANSPORT_AMQP_METHODS_HANDLE iothubtransport_amqp_methods_handle;
  57:Source\azure_iot_sdk\iothub_client\src/iothubtransportamqp_methods.c ****     uuid correlation_id;
  58:Source\azure_iot_sdk\iothub_client\src/iothubtransportamqp_methods.c **** } IOTHUBTRANSPORT_AMQP_METHOD;
  59:Source\azure_iot_sdk\iothub_client\src/iothubtransportamqp_methods.c **** 
  60:Source\azure_iot_sdk\iothub_client\src/iothubtransportamqp_methods.c **** static void remove_tracked_handle(IOTHUBTRANSPORT_AMQP_METHODS* amqp_methods_handle, IOTHUBTRANSPOR
  61:Source\azure_iot_sdk\iothub_client\src/iothubtransportamqp_methods.c **** {
  62:Source\azure_iot_sdk\iothub_client\src/iothubtransportamqp_methods.c ****     size_t i;
  63:Source\azure_iot_sdk\iothub_client\src/iothubtransportamqp_methods.c **** 
  64:Source\azure_iot_sdk\iothub_client\src/iothubtransportamqp_methods.c ****     for (i = 0; i < amqp_methods_handle->method_request_handle_count; i++)
  65:Source\azure_iot_sdk\iothub_client\src/iothubtransportamqp_methods.c ****     {
  66:Source\azure_iot_sdk\iothub_client\src/iothubtransportamqp_methods.c ****         if (amqp_methods_handle->method_request_handles[i] == method_request_handle)
  67:Source\azure_iot_sdk\iothub_client\src/iothubtransportamqp_methods.c ****         {
  68:Source\azure_iot_sdk\iothub_client\src/iothubtransportamqp_methods.c ****             if (amqp_methods_handle->method_request_handle_count - i > 1)
  69:Source\azure_iot_sdk\iothub_client\src/iothubtransportamqp_methods.c ****             {
  70:Source\azure_iot_sdk\iothub_client\src/iothubtransportamqp_methods.c ****                 (void)memmove(&amqp_methods_handle->method_request_handles[i], &amqp_methods_handle
  71:Source\azure_iot_sdk\iothub_client\src/iothubtransportamqp_methods.c ****                     (amqp_methods_handle->method_request_handle_count - i - 1) * sizeof(IOTHUBTRANS
  72:Source\azure_iot_sdk\iothub_client\src/iothubtransportamqp_methods.c ****             }
  73:Source\azure_iot_sdk\iothub_client\src/iothubtransportamqp_methods.c **** 
  74:Source\azure_iot_sdk\iothub_client\src/iothubtransportamqp_methods.c ****             amqp_methods_handle->method_request_handle_count--;
  75:Source\azure_iot_sdk\iothub_client\src/iothubtransportamqp_methods.c ****             i--;
  76:Source\azure_iot_sdk\iothub_client\src/iothubtransportamqp_methods.c ****         }
  77:Source\azure_iot_sdk\iothub_client\src/iothubtransportamqp_methods.c ****     }
  78:Source\azure_iot_sdk\iothub_client\src/iothubtransportamqp_methods.c **** 
  79:Source\azure_iot_sdk\iothub_client\src/iothubtransportamqp_methods.c ****     if (amqp_methods_handle->method_request_handle_count == 0)
  80:Source\azure_iot_sdk\iothub_client\src/iothubtransportamqp_methods.c ****     {
  81:Source\azure_iot_sdk\iothub_client\src/iothubtransportamqp_methods.c ****         free(amqp_methods_handle->method_request_handles);
  82:Source\azure_iot_sdk\iothub_client\src/iothubtransportamqp_methods.c ****         amqp_methods_handle->method_request_handles = NULL;
  83:Source\azure_iot_sdk\iothub_client\src/iothubtransportamqp_methods.c ****     }
  84:Source\azure_iot_sdk\iothub_client\src/iothubtransportamqp_methods.c ****     else
  85:Source\azure_iot_sdk\iothub_client\src/iothubtransportamqp_methods.c ****     {
  86:Source\azure_iot_sdk\iothub_client\src/iothubtransportamqp_methods.c ****         IOTHUBTRANSPORT_AMQP_METHOD_HANDLE* new_handles = (IOTHUBTRANSPORT_AMQP_METHOD_HANDLE*)real
  87:Source\azure_iot_sdk\iothub_client\src/iothubtransportamqp_methods.c ****         if (new_handles != NULL)
  88:Source\azure_iot_sdk\iothub_client\src/iothubtransportamqp_methods.c ****         {
ARM GAS  C:\Users\Phuong\AppData\Local\Temp\ccu7x7Ah.s 			page 3


  89:Source\azure_iot_sdk\iothub_client\src/iothubtransportamqp_methods.c ****             amqp_methods_handle->method_request_handles = new_handles;
  90:Source\azure_iot_sdk\iothub_client\src/iothubtransportamqp_methods.c ****         }
  91:Source\azure_iot_sdk\iothub_client\src/iothubtransportamqp_methods.c ****     }
  92:Source\azure_iot_sdk\iothub_client\src/iothubtransportamqp_methods.c **** }
  93:Source\azure_iot_sdk\iothub_client\src/iothubtransportamqp_methods.c **** 
  94:Source\azure_iot_sdk\iothub_client\src/iothubtransportamqp_methods.c **** IOTHUBTRANSPORT_AMQP_METHODS_HANDLE iothubtransportamqp_methods_create(const char* hostname, const 
  95:Source\azure_iot_sdk\iothub_client\src/iothubtransportamqp_methods.c **** {
  96:Source\azure_iot_sdk\iothub_client\src/iothubtransportamqp_methods.c ****     IOTHUBTRANSPORT_AMQP_METHODS* result;
  97:Source\azure_iot_sdk\iothub_client\src/iothubtransportamqp_methods.c **** 
  98:Source\azure_iot_sdk\iothub_client\src/iothubtransportamqp_methods.c ****     if ((hostname == NULL) ||
  99:Source\azure_iot_sdk\iothub_client\src/iothubtransportamqp_methods.c ****         (device_id == NULL))
 100:Source\azure_iot_sdk\iothub_client\src/iothubtransportamqp_methods.c ****     {
 101:Source\azure_iot_sdk\iothub_client\src/iothubtransportamqp_methods.c ****         /* Codes_SRS_IOTHUBTRANSPORT_AMQP_METHODS_01_002: [ If any argument is NULL, `iothubtranspo
 102:Source\azure_iot_sdk\iothub_client\src/iothubtransportamqp_methods.c ****         result = NULL;
 103:Source\azure_iot_sdk\iothub_client\src/iothubtransportamqp_methods.c ****         LogError("Bad arguments: hostname=%p, device_id=%p", hostname, device_id);
 104:Source\azure_iot_sdk\iothub_client\src/iothubtransportamqp_methods.c ****     }
 105:Source\azure_iot_sdk\iothub_client\src/iothubtransportamqp_methods.c ****     else
 106:Source\azure_iot_sdk\iothub_client\src/iothubtransportamqp_methods.c ****     {
 107:Source\azure_iot_sdk\iothub_client\src/iothubtransportamqp_methods.c ****         /* Codes_SRS_IOTHUBTRANSPORT_AMQP_METHODS_01_001: [ `iothubtransportamqp_methods_create` sh
 108:Source\azure_iot_sdk\iothub_client\src/iothubtransportamqp_methods.c ****         /* Codes_SRS_IOTHUBTRANSPORT_AMQP_METHODS_01_003: [ `iothubtransportamqp_methods_create` sh
 109:Source\azure_iot_sdk\iothub_client\src/iothubtransportamqp_methods.c ****         result = malloc(sizeof(IOTHUBTRANSPORT_AMQP_METHODS));
 110:Source\azure_iot_sdk\iothub_client\src/iothubtransportamqp_methods.c ****         if (result == NULL)
 111:Source\azure_iot_sdk\iothub_client\src/iothubtransportamqp_methods.c ****         {
 112:Source\azure_iot_sdk\iothub_client\src/iothubtransportamqp_methods.c ****             /* Codes_SRS_IOTHUBTRANSPORT_AMQP_METHODS_01_004: [ If allocating memory fails, `iothub
 113:Source\azure_iot_sdk\iothub_client\src/iothubtransportamqp_methods.c ****             LogError("Cannot allocate memory for AMQP C2D methods handle");
 114:Source\azure_iot_sdk\iothub_client\src/iothubtransportamqp_methods.c ****         }
 115:Source\azure_iot_sdk\iothub_client\src/iothubtransportamqp_methods.c ****         else
 116:Source\azure_iot_sdk\iothub_client\src/iothubtransportamqp_methods.c ****         {
 117:Source\azure_iot_sdk\iothub_client\src/iothubtransportamqp_methods.c ****             memset(result, 0, sizeof(IOTHUBTRANSPORT_AMQP_METHODS));
 118:Source\azure_iot_sdk\iothub_client\src/iothubtransportamqp_methods.c **** 
 119:Source\azure_iot_sdk\iothub_client\src/iothubtransportamqp_methods.c ****             /* Codes_SRS_IOTHUBTRANSPORT_AMQP_METHODS_01_115: [ `iothubtransportamqp_methods_create
 120:Source\azure_iot_sdk\iothub_client\src/iothubtransportamqp_methods.c ****             if (mallocAndStrcpy_s(&result->device_id, device_id) != 0)
 121:Source\azure_iot_sdk\iothub_client\src/iothubtransportamqp_methods.c ****             {
 122:Source\azure_iot_sdk\iothub_client\src/iothubtransportamqp_methods.c ****                 /* Codes_SRS_IOTHUBTRANSPORT_AMQP_METHODS_01_116: [ If `mallocAndStrcpy_s` fails, `
 123:Source\azure_iot_sdk\iothub_client\src/iothubtransportamqp_methods.c ****                 LogError("Cannot copy device_id");
 124:Source\azure_iot_sdk\iothub_client\src/iothubtransportamqp_methods.c ****                 free(result);
 125:Source\azure_iot_sdk\iothub_client\src/iothubtransportamqp_methods.c ****                 result = NULL;
 126:Source\azure_iot_sdk\iothub_client\src/iothubtransportamqp_methods.c ****             }
 127:Source\azure_iot_sdk\iothub_client\src/iothubtransportamqp_methods.c ****             else if ((module_id != NULL) && (mallocAndStrcpy_s(&result->module_id, module_id) != 0)
 128:Source\azure_iot_sdk\iothub_client\src/iothubtransportamqp_methods.c ****             {
 129:Source\azure_iot_sdk\iothub_client\src/iothubtransportamqp_methods.c ****                 /* Codes_SRS_IOTHUBTRANSPORT_AMQP_METHODS_01_116: [ If `mallocAndStrcpy_s` fails, `
 130:Source\azure_iot_sdk\iothub_client\src/iothubtransportamqp_methods.c ****                 LogError("Cannot copy device_id");
 131:Source\azure_iot_sdk\iothub_client\src/iothubtransportamqp_methods.c ****                 free(result->device_id);
 132:Source\azure_iot_sdk\iothub_client\src/iothubtransportamqp_methods.c ****                 free(result);
 133:Source\azure_iot_sdk\iothub_client\src/iothubtransportamqp_methods.c ****                 result = NULL;
 134:Source\azure_iot_sdk\iothub_client\src/iothubtransportamqp_methods.c ****             }
 135:Source\azure_iot_sdk\iothub_client\src/iothubtransportamqp_methods.c ****             else
 136:Source\azure_iot_sdk\iothub_client\src/iothubtransportamqp_methods.c ****             {
 137:Source\azure_iot_sdk\iothub_client\src/iothubtransportamqp_methods.c ****                 /* Codes_SRS_IOTHUBTRANSPORT_AMQP_METHODS_01_139: [ `iothubtransportamqp_methods_cr
 138:Source\azure_iot_sdk\iothub_client\src/iothubtransportamqp_methods.c ****                 if (mallocAndStrcpy_s(&result->hostname, hostname) != 0)
 139:Source\azure_iot_sdk\iothub_client\src/iothubtransportamqp_methods.c ****                 {
 140:Source\azure_iot_sdk\iothub_client\src/iothubtransportamqp_methods.c ****                     /* Codes_SRS_IOTHUBTRANSPORT_AMQP_METHODS_01_116: [ If `mallocAndStrcpy_s` fail
 141:Source\azure_iot_sdk\iothub_client\src/iothubtransportamqp_methods.c ****                     LogError("Cannot copy hostname");
 142:Source\azure_iot_sdk\iothub_client\src/iothubtransportamqp_methods.c ****                     free(result->device_id);
 143:Source\azure_iot_sdk\iothub_client\src/iothubtransportamqp_methods.c ****                     free(result->module_id);
 144:Source\azure_iot_sdk\iothub_client\src/iothubtransportamqp_methods.c ****                     free(result);
 145:Source\azure_iot_sdk\iothub_client\src/iothubtransportamqp_methods.c ****                     result = NULL;
ARM GAS  C:\Users\Phuong\AppData\Local\Temp\ccu7x7Ah.s 			page 4


 146:Source\azure_iot_sdk\iothub_client\src/iothubtransportamqp_methods.c ****                 }
 147:Source\azure_iot_sdk\iothub_client\src/iothubtransportamqp_methods.c ****                 else
 148:Source\azure_iot_sdk\iothub_client\src/iothubtransportamqp_methods.c ****                 {
 149:Source\azure_iot_sdk\iothub_client\src/iothubtransportamqp_methods.c ****                     result->subscribe_state = SUBSCRIBE_STATE_NOT_SUBSCRIBED;
 150:Source\azure_iot_sdk\iothub_client\src/iothubtransportamqp_methods.c ****                     result->method_request_handles = NULL;
 151:Source\azure_iot_sdk\iothub_client\src/iothubtransportamqp_methods.c ****                     result->method_request_handle_count = 0;
 152:Source\azure_iot_sdk\iothub_client\src/iothubtransportamqp_methods.c ****                     result->receiver_link_disconnected = false;
 153:Source\azure_iot_sdk\iothub_client\src/iothubtransportamqp_methods.c ****                     result->sender_link_disconnected = false;
 154:Source\azure_iot_sdk\iothub_client\src/iothubtransportamqp_methods.c ****                 }
 155:Source\azure_iot_sdk\iothub_client\src/iothubtransportamqp_methods.c ****             }
 156:Source\azure_iot_sdk\iothub_client\src/iothubtransportamqp_methods.c ****         }
 157:Source\azure_iot_sdk\iothub_client\src/iothubtransportamqp_methods.c ****     }
 158:Source\azure_iot_sdk\iothub_client\src/iothubtransportamqp_methods.c **** 
 159:Source\azure_iot_sdk\iothub_client\src/iothubtransportamqp_methods.c ****     return result;
 160:Source\azure_iot_sdk\iothub_client\src/iothubtransportamqp_methods.c **** }
 161:Source\azure_iot_sdk\iothub_client\src/iothubtransportamqp_methods.c **** 
 162:Source\azure_iot_sdk\iothub_client\src/iothubtransportamqp_methods.c **** void iothubtransportamqp_methods_destroy(IOTHUBTRANSPORT_AMQP_METHODS_HANDLE iothubtransport_amqp_m
 163:Source\azure_iot_sdk\iothub_client\src/iothubtransportamqp_methods.c **** {
 164:Source\azure_iot_sdk\iothub_client\src/iothubtransportamqp_methods.c ****     /* Codes_SRS_IOTHUBTRANSPORT_AMQP_METHODS_01_006: [ If `iothubtransport_amqp_methods_handle` is
 165:Source\azure_iot_sdk\iothub_client\src/iothubtransportamqp_methods.c ****     if (iothubtransport_amqp_methods_handle == NULL)
 166:Source\azure_iot_sdk\iothub_client\src/iothubtransportamqp_methods.c ****     {
 167:Source\azure_iot_sdk\iothub_client\src/iothubtransportamqp_methods.c ****         LogError("NULL handle");
 168:Source\azure_iot_sdk\iothub_client\src/iothubtransportamqp_methods.c ****     }
 169:Source\azure_iot_sdk\iothub_client\src/iothubtransportamqp_methods.c ****     else
 170:Source\azure_iot_sdk\iothub_client\src/iothubtransportamqp_methods.c ****     {
 171:Source\azure_iot_sdk\iothub_client\src/iothubtransportamqp_methods.c ****         size_t i;
 172:Source\azure_iot_sdk\iothub_client\src/iothubtransportamqp_methods.c **** 
 173:Source\azure_iot_sdk\iothub_client\src/iothubtransportamqp_methods.c ****         /* Codes_SRS_IOTHUBTRANSPORT_AMQP_METHODS_01_007: [ If the instance pointed to by `iothubtr
 174:Source\azure_iot_sdk\iothub_client\src/iothubtransportamqp_methods.c ****         if (iothubtransport_amqp_methods_handle->subscribe_state == SUBSCRIBE_STATE_SUBSCRIBED)
 175:Source\azure_iot_sdk\iothub_client\src/iothubtransportamqp_methods.c ****         {
 176:Source\azure_iot_sdk\iothub_client\src/iothubtransportamqp_methods.c ****             iothubtransportamqp_methods_unsubscribe(iothubtransport_amqp_methods_handle);
 177:Source\azure_iot_sdk\iothub_client\src/iothubtransportamqp_methods.c ****         }
 178:Source\azure_iot_sdk\iothub_client\src/iothubtransportamqp_methods.c **** 
 179:Source\azure_iot_sdk\iothub_client\src/iothubtransportamqp_methods.c ****         for (i = 0; i < iothubtransport_amqp_methods_handle->method_request_handle_count; i++)
 180:Source\azure_iot_sdk\iothub_client\src/iothubtransportamqp_methods.c ****         {
 181:Source\azure_iot_sdk\iothub_client\src/iothubtransportamqp_methods.c ****             free(iothubtransport_amqp_methods_handle->method_request_handles[i]);
 182:Source\azure_iot_sdk\iothub_client\src/iothubtransportamqp_methods.c ****         }
 183:Source\azure_iot_sdk\iothub_client\src/iothubtransportamqp_methods.c **** 
 184:Source\azure_iot_sdk\iothub_client\src/iothubtransportamqp_methods.c ****         if (iothubtransport_amqp_methods_handle->method_request_handles != NULL)
 185:Source\azure_iot_sdk\iothub_client\src/iothubtransportamqp_methods.c ****         {
 186:Source\azure_iot_sdk\iothub_client\src/iothubtransportamqp_methods.c ****             free(iothubtransport_amqp_methods_handle->method_request_handles);
 187:Source\azure_iot_sdk\iothub_client\src/iothubtransportamqp_methods.c ****         }
 188:Source\azure_iot_sdk\iothub_client\src/iothubtransportamqp_methods.c **** 
 189:Source\azure_iot_sdk\iothub_client\src/iothubtransportamqp_methods.c ****         /* Codes_SRS_IOTHUBTRANSPORT_AMQP_METHODS_01_005: [ `iothubtransportamqp_methods_destroy` s
 190:Source\azure_iot_sdk\iothub_client\src/iothubtransportamqp_methods.c ****         free(iothubtransport_amqp_methods_handle->hostname);
 191:Source\azure_iot_sdk\iothub_client\src/iothubtransportamqp_methods.c ****         free(iothubtransport_amqp_methods_handle->device_id);
 192:Source\azure_iot_sdk\iothub_client\src/iothubtransportamqp_methods.c ****         free(iothubtransport_amqp_methods_handle->module_id);
 193:Source\azure_iot_sdk\iothub_client\src/iothubtransportamqp_methods.c ****         free(iothubtransport_amqp_methods_handle);
 194:Source\azure_iot_sdk\iothub_client\src/iothubtransportamqp_methods.c ****     }
 195:Source\azure_iot_sdk\iothub_client\src/iothubtransportamqp_methods.c **** }
 196:Source\azure_iot_sdk\iothub_client\src/iothubtransportamqp_methods.c **** 
 197:Source\azure_iot_sdk\iothub_client\src/iothubtransportamqp_methods.c **** static void call_methods_unsubscribed_if_needed(IOTHUBTRANSPORT_AMQP_METHODS_HANDLE amqp_methods_ha
 198:Source\azure_iot_sdk\iothub_client\src/iothubtransportamqp_methods.c **** {
  27              		.loc 1 198 0
  28              		.cfi_startproc
  29              		@ args = 0, pretend = 0, frame = 0
  30              		@ frame_needed = 0, uses_anonymous_args = 0
ARM GAS  C:\Users\Phuong\AppData\Local\Temp\ccu7x7Ah.s 			page 5


  31              	.LVL0:
  32 0000 10B5     		push	{r4, lr}
  33              		.cfi_def_cfa_offset 8
  34              		.cfi_offset 4, -8
  35              		.cfi_offset 14, -4
 199:Source\azure_iot_sdk\iothub_client\src/iothubtransportamqp_methods.c ****     if (amqp_methods_handle->receiver_link_disconnected && amqp_methods_handle->sender_link_disconn
  36              		.loc 1 199 0
  37 0002 4023     		movs	r3, #64
  38 0004 C35C     		ldrb	r3, [r0, r3]
  39 0006 002B     		cmp	r3, #0
  40 0008 0BD0     		beq	.L1
  41              		.loc 1 199 0 is_stmt 0 discriminator 1
  42 000a 4123     		movs	r3, #65
  43 000c C35C     		ldrb	r3, [r0, r3]
  44 000e 002B     		cmp	r3, #0
  45 0010 07D0     		beq	.L1
 200:Source\azure_iot_sdk\iothub_client\src/iothubtransportamqp_methods.c ****     {
 201:Source\azure_iot_sdk\iothub_client\src/iothubtransportamqp_methods.c ****         amqp_methods_handle->receiver_link_disconnected = false;
  46              		.loc 1 201 0 is_stmt 1
  47 0012 0023     		movs	r3, #0
  48 0014 4022     		movs	r2, #64
  49 0016 8354     		strb	r3, [r0, r2]
 202:Source\azure_iot_sdk\iothub_client\src/iothubtransportamqp_methods.c ****         amqp_methods_handle->sender_link_disconnected = false;
  50              		.loc 1 202 0
  51 0018 0132     		adds	r2, r2, #1
  52 001a 8354     		strb	r3, [r0, r2]
 203:Source\azure_iot_sdk\iothub_client\src/iothubtransportamqp_methods.c ****         amqp_methods_handle->on_methods_unsubscribed(amqp_methods_handle->on_methods_unsubscribed_c
  53              		.loc 1 203 0
  54 001c C36A     		ldr	r3, [r0, #44]
  55 001e 006B     		ldr	r0, [r0, #48]
  56              	.LVL1:
  57 0020 9847     		blx	r3
  58              	.LVL2:
  59              	.L1:
 204:Source\azure_iot_sdk\iothub_client\src/iothubtransportamqp_methods.c ****     }
 205:Source\azure_iot_sdk\iothub_client\src/iothubtransportamqp_methods.c **** }
  60              		.loc 1 205 0
  61              		@ sp needed
  62 0022 10BD     		pop	{r4, pc}
  63              		.cfi_endproc
  64              	.LFE4:
  65              		.size	call_methods_unsubscribed_if_needed, .-call_methods_unsubscribed_if_needed
  66              		.section	.text.on_message_receiver_state_changed,"ax",%progbits
  67              		.align	2
  68              		.code	16
  69              		.thumb_func
  70              		.type	on_message_receiver_state_changed, %function
  71              	on_message_receiver_state_changed:
  72              	.LFB5:
 206:Source\azure_iot_sdk\iothub_client\src/iothubtransportamqp_methods.c **** 
 207:Source\azure_iot_sdk\iothub_client\src/iothubtransportamqp_methods.c **** static void on_message_receiver_state_changed(const void* context, MESSAGE_RECEIVER_STATE new_state
 208:Source\azure_iot_sdk\iothub_client\src/iothubtransportamqp_methods.c **** {
  73              		.loc 1 208 0
  74              		.cfi_startproc
  75              		@ args = 0, pretend = 0, frame = 0
  76              		@ frame_needed = 0, uses_anonymous_args = 0
  77              	.LVL3:
ARM GAS  C:\Users\Phuong\AppData\Local\Temp\ccu7x7Ah.s 			page 6


  78 0000 10B5     		push	{r4, lr}
  79              		.cfi_def_cfa_offset 8
  80              		.cfi_offset 4, -8
  81              		.cfi_offset 14, -4
  82              	.LVL4:
 209:Source\azure_iot_sdk\iothub_client\src/iothubtransportamqp_methods.c ****     /* Codes_SRS_IOTHUBTRANSPORT_AMQP_METHODS_01_119: [ When `on_message_receiver_state_changed` is
 210:Source\azure_iot_sdk\iothub_client\src/iothubtransportamqp_methods.c ****     /* Codes_SRS_IOTHUBTRANSPORT_AMQP_METHODS_01_126: [ For the other state changes, on_message_rec
 211:Source\azure_iot_sdk\iothub_client\src/iothubtransportamqp_methods.c ****     IOTHUBTRANSPORT_AMQP_METHODS_HANDLE amqp_methods_handle = (IOTHUBTRANSPORT_AMQP_METHODS_HANDLE)
 212:Source\azure_iot_sdk\iothub_client\src/iothubtransportamqp_methods.c ****     if ((new_state != previous_state) &&
  83              		.loc 1 212 0
  84 0002 9142     		cmp	r1, r2
  85 0004 05D0     		beq	.L4
  86              		.loc 1 212 0 is_stmt 0 discriminator 1
  87 0006 0429     		cmp	r1, #4
  88 0008 03D1     		bne	.L4
 213:Source\azure_iot_sdk\iothub_client\src/iothubtransportamqp_methods.c ****         (new_state == MESSAGE_RECEIVER_STATE_ERROR))
 214:Source\azure_iot_sdk\iothub_client\src/iothubtransportamqp_methods.c ****     {
 215:Source\azure_iot_sdk\iothub_client\src/iothubtransportamqp_methods.c ****         /* Codes_SRS_IOTHUBTRANSPORT_AMQP_METHODS_01_120: [ When an error is indicated by calling t
 216:Source\azure_iot_sdk\iothub_client\src/iothubtransportamqp_methods.c ****         amqp_methods_handle->on_methods_error(amqp_methods_handle->on_methods_error_context);
  89              		.loc 1 216 0 is_stmt 1
  90 000a 436A     		ldr	r3, [r0, #36]
  91 000c 806A     		ldr	r0, [r0, #40]
  92              	.LVL5:
  93 000e 9847     		blx	r3
  94              	.LVL6:
  95 0010 08E0     		b	.L3
  96              	.LVL7:
  97              	.L4:
 217:Source\azure_iot_sdk\iothub_client\src/iothubtransportamqp_methods.c ****     }
 218:Source\azure_iot_sdk\iothub_client\src/iothubtransportamqp_methods.c ****     else
 219:Source\azure_iot_sdk\iothub_client\src/iothubtransportamqp_methods.c ****     {
 220:Source\azure_iot_sdk\iothub_client\src/iothubtransportamqp_methods.c ****         /* Codes_SRS_IOTHUBTRANSPORT_AMQP_METHODS_12_001: [ When `on_message_receiver_state_changed
 221:Source\azure_iot_sdk\iothub_client\src/iothubtransportamqp_methods.c ****         if ((new_state == MESSAGE_RECEIVER_STATE_IDLE) && (previous_state == MESSAGE_RECEIVER_STATE
  98              		.loc 1 221 0
  99 0012 0029     		cmp	r1, #0
 100 0014 04D1     		bne	.L6
 101              		.loc 1 221 0 is_stmt 0 discriminator 1
 102 0016 022A     		cmp	r2, #2
 103 0018 02D1     		bne	.L6
 222:Source\azure_iot_sdk\iothub_client\src/iothubtransportamqp_methods.c ****         {
 223:Source\azure_iot_sdk\iothub_client\src/iothubtransportamqp_methods.c ****             amqp_methods_handle->receiver_link_disconnected = true;
 104              		.loc 1 223 0 is_stmt 1
 105 001a 013A     		subs	r2, r2, #1
 106              	.LVL8:
 107 001c 4023     		movs	r3, #64
 108 001e C254     		strb	r2, [r0, r3]
 109              	.L6:
 224:Source\azure_iot_sdk\iothub_client\src/iothubtransportamqp_methods.c ****         }
 225:Source\azure_iot_sdk\iothub_client\src/iothubtransportamqp_methods.c ****         call_methods_unsubscribed_if_needed(amqp_methods_handle);
 110              		.loc 1 225 0
 111 0020 FFF7FEFF 		bl	call_methods_unsubscribed_if_needed
 112              	.LVL9:
 113              	.L3:
 226:Source\azure_iot_sdk\iothub_client\src/iothubtransportamqp_methods.c ****     }
 227:Source\azure_iot_sdk\iothub_client\src/iothubtransportamqp_methods.c **** }
 114              		.loc 1 227 0
 115              		@ sp needed
ARM GAS  C:\Users\Phuong\AppData\Local\Temp\ccu7x7Ah.s 			page 7


 116 0024 10BD     		pop	{r4, pc}
 117              		.cfi_endproc
 118              	.LFE5:
 119              		.size	on_message_receiver_state_changed, .-on_message_receiver_state_changed
 120 0026 C046     		.section	.text.on_message_sender_state_changed,"ax",%progbits
 121              		.align	2
 122              		.code	16
 123              		.thumb_func
 124              		.type	on_message_sender_state_changed, %function
 125              	on_message_sender_state_changed:
 126              	.LFB6:
 228:Source\azure_iot_sdk\iothub_client\src/iothubtransportamqp_methods.c **** 
 229:Source\azure_iot_sdk\iothub_client\src/iothubtransportamqp_methods.c **** static void on_message_sender_state_changed(void* context, MESSAGE_SENDER_STATE new_state, MESSAGE_
 230:Source\azure_iot_sdk\iothub_client\src/iothubtransportamqp_methods.c **** {
 127              		.loc 1 230 0
 128              		.cfi_startproc
 129              		@ args = 0, pretend = 0, frame = 0
 130              		@ frame_needed = 0, uses_anonymous_args = 0
 131              	.LVL10:
 132 0000 10B5     		push	{r4, lr}
 133              		.cfi_def_cfa_offset 8
 134              		.cfi_offset 4, -8
 135              		.cfi_offset 14, -4
 136              	.LVL11:
 231:Source\azure_iot_sdk\iothub_client\src/iothubtransportamqp_methods.c ****     IOTHUBTRANSPORT_AMQP_METHODS_HANDLE amqp_methods_handle = (IOTHUBTRANSPORT_AMQP_METHODS_HANDLE)
 232:Source\azure_iot_sdk\iothub_client\src/iothubtransportamqp_methods.c ****     /* Codes_SRS_IOTHUBTRANSPORT_AMQP_METHODS_01_059: [ When `on_message_sender_state_changed` is c
 233:Source\azure_iot_sdk\iothub_client\src/iothubtransportamqp_methods.c ****     /* Codes_SRS_IOTHUBTRANSPORT_AMQP_METHODS_01_127: [ For the other state changes, on_message_sen
 234:Source\azure_iot_sdk\iothub_client\src/iothubtransportamqp_methods.c ****     if ((new_state != previous_state) &&
 137              		.loc 1 234 0
 138 0002 9142     		cmp	r1, r2
 139 0004 05D0     		beq	.L8
 140              		.loc 1 234 0 is_stmt 0 discriminator 1
 141 0006 0429     		cmp	r1, #4
 142 0008 03D1     		bne	.L8
 235:Source\azure_iot_sdk\iothub_client\src/iothubtransportamqp_methods.c ****         (new_state == MESSAGE_SENDER_STATE_ERROR))
 236:Source\azure_iot_sdk\iothub_client\src/iothubtransportamqp_methods.c ****     {
 237:Source\azure_iot_sdk\iothub_client\src/iothubtransportamqp_methods.c ****         /* Codes_SRS_IOTHUBTRANSPORT_AMQP_METHODS_01_120: [ When an error is indicated by calling t
 238:Source\azure_iot_sdk\iothub_client\src/iothubtransportamqp_methods.c ****         amqp_methods_handle->on_methods_error(amqp_methods_handle->on_methods_error_context);
 143              		.loc 1 238 0 is_stmt 1
 144 000a 436A     		ldr	r3, [r0, #36]
 145 000c 806A     		ldr	r0, [r0, #40]
 146              	.LVL12:
 147 000e 9847     		blx	r3
 148              	.LVL13:
 149 0010 08E0     		b	.L7
 150              	.LVL14:
 151              	.L8:
 239:Source\azure_iot_sdk\iothub_client\src/iothubtransportamqp_methods.c ****     }
 240:Source\azure_iot_sdk\iothub_client\src/iothubtransportamqp_methods.c ****     else
 241:Source\azure_iot_sdk\iothub_client\src/iothubtransportamqp_methods.c ****     {
 242:Source\azure_iot_sdk\iothub_client\src/iothubtransportamqp_methods.c ****         /* Codes_SRS_IOTHUBTRANSPORT_AMQP_METHODS_12_002: [ When `on_message_sender_state_changed` 
 243:Source\azure_iot_sdk\iothub_client\src/iothubtransportamqp_methods.c ****         if ((new_state == MESSAGE_SENDER_STATE_IDLE) && (previous_state == MESSAGE_SENDER_STATE_OPE
 152              		.loc 1 243 0
 153 0012 0029     		cmp	r1, #0
 154 0014 04D1     		bne	.L10
 155              		.loc 1 243 0 is_stmt 0 discriminator 1
 156 0016 022A     		cmp	r2, #2
ARM GAS  C:\Users\Phuong\AppData\Local\Temp\ccu7x7Ah.s 			page 8


 157 0018 02D1     		bne	.L10
 244:Source\azure_iot_sdk\iothub_client\src/iothubtransportamqp_methods.c ****         {
 245:Source\azure_iot_sdk\iothub_client\src/iothubtransportamqp_methods.c ****             amqp_methods_handle->sender_link_disconnected = true;
 158              		.loc 1 245 0 is_stmt 1
 159 001a 013A     		subs	r2, r2, #1
 160              	.LVL15:
 161 001c 4123     		movs	r3, #65
 162 001e C254     		strb	r2, [r0, r3]
 163              	.L10:
 246:Source\azure_iot_sdk\iothub_client\src/iothubtransportamqp_methods.c ****         }
 247:Source\azure_iot_sdk\iothub_client\src/iothubtransportamqp_methods.c ****         call_methods_unsubscribed_if_needed(amqp_methods_handle);
 164              		.loc 1 247 0
 165 0020 FFF7FEFF 		bl	call_methods_unsubscribed_if_needed
 166              	.LVL16:
 167              	.L7:
 248:Source\azure_iot_sdk\iothub_client\src/iothubtransportamqp_methods.c ****     }
 249:Source\azure_iot_sdk\iothub_client\src/iothubtransportamqp_methods.c **** }
 168              		.loc 1 249 0
 169              		@ sp needed
 170 0024 10BD     		pop	{r4, pc}
 171              		.cfi_endproc
 172              	.LFE6:
 173              		.size	on_message_sender_state_changed, .-on_message_sender_state_changed
 174 0026 C046     		.section	.text.on_message_send_complete,"ax",%progbits
 175              		.align	2
 176              		.code	16
 177              		.thumb_func
 178              		.type	on_message_send_complete, %function
 179              	on_message_send_complete:
 180              	.LFB7:
 250:Source\azure_iot_sdk\iothub_client\src/iothubtransportamqp_methods.c **** 
 251:Source\azure_iot_sdk\iothub_client\src/iothubtransportamqp_methods.c **** static void on_message_send_complete(void* context, MESSAGE_SEND_RESULT send_result, AMQP_VALUE del
 252:Source\azure_iot_sdk\iothub_client\src/iothubtransportamqp_methods.c **** {
 181              		.loc 1 252 0
 182              		.cfi_startproc
 183              		@ args = 0, pretend = 0, frame = 0
 184              		@ frame_needed = 0, uses_anonymous_args = 0
 185              	.LVL17:
 186 0000 10B5     		push	{r4, lr}
 187              		.cfi_def_cfa_offset 8
 188              		.cfi_offset 4, -8
 189              		.cfi_offset 14, -4
 253:Source\azure_iot_sdk\iothub_client\src/iothubtransportamqp_methods.c ****     (void)delivery_state;
 254:Source\azure_iot_sdk\iothub_client\src/iothubtransportamqp_methods.c ****     /* Codes_SRS_IOTHUBTRANSPORT_AMQP_METHODS_01_084: [ Otherwise no action shall be taken. ]*/
 255:Source\azure_iot_sdk\iothub_client\src/iothubtransportamqp_methods.c ****     if (send_result == MESSAGE_SEND_ERROR)
 190              		.loc 1 255 0
 191 0002 0129     		cmp	r1, #1
 192 0004 02D1     		bne	.L11
 193              	.LVL18:
 194              	.LBB2:
 256:Source\azure_iot_sdk\iothub_client\src/iothubtransportamqp_methods.c ****     {
 257:Source\azure_iot_sdk\iothub_client\src/iothubtransportamqp_methods.c ****         IOTHUBTRANSPORT_AMQP_METHODS_HANDLE amqp_methods_handle = (IOTHUBTRANSPORT_AMQP_METHODS_HAN
 258:Source\azure_iot_sdk\iothub_client\src/iothubtransportamqp_methods.c ****         /* Codes_SRS_IOTHUBTRANSPORT_AMQP_METHODS_01_083: [ If `send_result` is `MESSAGE_SEND_ERROR
 259:Source\azure_iot_sdk\iothub_client\src/iothubtransportamqp_methods.c ****         amqp_methods_handle->on_methods_error(amqp_methods_handle->on_methods_error_context);
 195              		.loc 1 259 0
 196 0006 436A     		ldr	r3, [r0, #36]
 197 0008 806A     		ldr	r0, [r0, #40]
ARM GAS  C:\Users\Phuong\AppData\Local\Temp\ccu7x7Ah.s 			page 9


 198              	.LVL19:
 199 000a 9847     		blx	r3
 200              	.LVL20:
 201              	.L11:
 202              	.LBE2:
 260:Source\azure_iot_sdk\iothub_client\src/iothubtransportamqp_methods.c ****     }
 261:Source\azure_iot_sdk\iothub_client\src/iothubtransportamqp_methods.c **** }
 203              		.loc 1 261 0
 204              		@ sp needed
 205 000c 10BD     		pop	{r4, pc}
 206              		.cfi_endproc
 207              	.LFE7:
 208              		.size	on_message_send_complete, .-on_message_send_complete
 209 000e C046     		.section	.text.on_message_received,"ax",%progbits
 210              		.align	2
 211              		.code	16
 212              		.thumb_func
 213              		.type	on_message_received, %function
 214              	on_message_received:
 215              	.LFB8:
 262:Source\azure_iot_sdk\iothub_client\src/iothubtransportamqp_methods.c **** 
 263:Source\azure_iot_sdk\iothub_client\src/iothubtransportamqp_methods.c **** static AMQP_VALUE on_message_received(const void* context, MESSAGE_HANDLE message)
 264:Source\azure_iot_sdk\iothub_client\src/iothubtransportamqp_methods.c **** {
 216              		.loc 1 264 0
 217              		.cfi_startproc
 218              		@ args = 0, pretend = 0, frame = 32
 219              		@ frame_needed = 0, uses_anonymous_args = 0
 220              	.LVL21:
 221 0000 F0B5     		push	{r4, r5, r6, r7, lr}
 222              		.cfi_def_cfa_offset 20
 223              		.cfi_offset 4, -20
 224              		.cfi_offset 5, -16
 225              		.cfi_offset 6, -12
 226              		.cfi_offset 7, -8
 227              		.cfi_offset 14, -4
 228 0002 4F46     		mov	r7, r9
 229 0004 80B4     		push	{r7}
 230              		.cfi_def_cfa_offset 24
 231              		.cfi_offset 9, -24
 232 0006 8AB0     		sub	sp, sp, #40
 233              		.cfi_def_cfa_offset 64
 234 0008 0500     		movs	r5, r0
 235 000a 0C1E     		subs	r4, r1, #0
 236              	.LVL22:
 265:Source\azure_iot_sdk\iothub_client\src/iothubtransportamqp_methods.c ****     PROPERTIES_HANDLE properties;
 266:Source\azure_iot_sdk\iothub_client\src/iothubtransportamqp_methods.c ****     /* VS believes this is not initialized, so have to set it to the worse case here */
 267:Source\azure_iot_sdk\iothub_client\src/iothubtransportamqp_methods.c ****     AMQP_VALUE result = NULL;
 268:Source\azure_iot_sdk\iothub_client\src/iothubtransportamqp_methods.c ****     IOTHUBTRANSPORT_AMQP_METHODS_HANDLE amqp_methods_handle = (IOTHUBTRANSPORT_AMQP_METHODS_HANDLE)
 269:Source\azure_iot_sdk\iothub_client\src/iothubtransportamqp_methods.c ****     MESSAGE_OUTCOME message_outcome;
 270:Source\azure_iot_sdk\iothub_client\src/iothubtransportamqp_methods.c **** 
 271:Source\azure_iot_sdk\iothub_client\src/iothubtransportamqp_methods.c ****     if (message == NULL)
 237              		.loc 1 271 0
 238 000c 11D1     		bne	.L14
 239              	.LBB3:
 272:Source\azure_iot_sdk\iothub_client\src/iothubtransportamqp_methods.c ****     {
 273:Source\azure_iot_sdk\iothub_client\src/iothubtransportamqp_methods.c ****         /* Codes_SRS_IOTHUBTRANSPORT_AMQP_METHODS_01_041: [ If `message` is NULL, the RELEASED outc
 274:Source\azure_iot_sdk\iothub_client\src/iothubtransportamqp_methods.c ****         LogError("NULL message");
ARM GAS  C:\Users\Phuong\AppData\Local\Temp\ccu7x7Ah.s 			page 10


 240              		.loc 1 274 0 discriminator 3
 241 000e FFF7FEFF 		bl	xlogging_get_log_function
 242              	.LVL23:
 243 0012 041E     		subs	r4, r0, #0
 244              	.LVL24:
 245 0014 00D1     		bne	.LCB213
 246 0016 C5E1     		b	.L47	@long jump
 247              	.LCB213:
 248              		.loc 1 274 0 is_stmt 0 discriminator 4
 249 0018 CF4B     		ldr	r3, .L51
 250 001a 0193     		str	r3, [sp, #4]
 251 001c 0123     		movs	r3, #1
 252 001e 0093     		str	r3, [sp]
 253 0020 1233     		adds	r3, r3, #18
 254 0022 FF33     		adds	r3, r3, #255
 255 0024 CD4A     		ldr	r2, .L51+4
 256 0026 CE49     		ldr	r1, .L51+8
 257 0028 0020     		movs	r0, #0
 258              	.LVL25:
 259 002a A047     		blx	r4
 260              	.LVL26:
 261              	.LBE3:
 275:Source\azure_iot_sdk\iothub_client\src/iothubtransportamqp_methods.c ****         message_outcome = MESSAGE_OUTCOME_RELEASED;
 262              		.loc 1 275 0 is_stmt 1 discriminator 4
 263 002c 0227     		movs	r7, #2
 267:Source\azure_iot_sdk\iothub_client\src/iothubtransportamqp_methods.c ****     IOTHUBTRANSPORT_AMQP_METHODS_HANDLE amqp_methods_handle = (IOTHUBTRANSPORT_AMQP_METHODS_HANDLE)
 264              		.loc 1 267 0 discriminator 4
 265 002e 0024     		movs	r4, #0
 266              	.LVL27:
 267 0030 BAE1     		b	.L15
 268              	.LVL28:
 269              	.L14:
 276:Source\azure_iot_sdk\iothub_client\src/iothubtransportamqp_methods.c ****     }
 277:Source\azure_iot_sdk\iothub_client\src/iothubtransportamqp_methods.c ****     else
 278:Source\azure_iot_sdk\iothub_client\src/iothubtransportamqp_methods.c ****     {
 279:Source\azure_iot_sdk\iothub_client\src/iothubtransportamqp_methods.c ****         /* Codes_SRS_IOTHUBTRANSPORT_AMQP_METHODS_01_043: [ When `on_message_received` is called (t
 280:Source\azure_iot_sdk\iothub_client\src/iothubtransportamqp_methods.c ****         /* Codes_SRS_IOTHUBTRANSPORT_AMQP_METHODS_01_044: [ - The message properties shall be obtai
 281:Source\azure_iot_sdk\iothub_client\src/iothubtransportamqp_methods.c ****         if (message_get_properties(message, &properties) != 0)
 270              		.loc 1 281 0
 271 0032 09A9     		add	r1, sp, #36
 272              	.LVL29:
 273 0034 2000     		movs	r0, r4
 274              	.LVL30:
 275 0036 FFF7FEFF 		bl	message_get_properties
 276              	.LVL31:
 277 003a 0028     		cmp	r0, #0
 278 003c 14D0     		beq	.L16
 279              	.LBB4:
 282:Source\azure_iot_sdk\iothub_client\src/iothubtransportamqp_methods.c ****         {
 283:Source\azure_iot_sdk\iothub_client\src/iothubtransportamqp_methods.c ****             /* Codes_SRS_IOTHUBTRANSPORT_AMQP_METHODS_01_045: [ If `message_get_properties` fails, 
 284:Source\azure_iot_sdk\iothub_client\src/iothubtransportamqp_methods.c ****             LogError("Cannot retrieve message properties");
 280              		.loc 1 284 0 discriminator 3
 281 003e FFF7FEFF 		bl	xlogging_get_log_function
 282              	.LVL32:
 283 0042 041E     		subs	r4, r0, #0
 284              	.LVL33:
 285 0044 09D0     		beq	.L17
ARM GAS  C:\Users\Phuong\AppData\Local\Temp\ccu7x7Ah.s 			page 11


 286              		.loc 1 284 0 is_stmt 0 discriminator 4
 287 0046 C74B     		ldr	r3, .L51+12
 288 0048 0193     		str	r3, [sp, #4]
 289 004a 0123     		movs	r3, #1
 290 004c 0093     		str	r3, [sp]
 291 004e 1C33     		adds	r3, r3, #28
 292 0050 FF33     		adds	r3, r3, #255
 293 0052 C24A     		ldr	r2, .L51+4
 294 0054 C249     		ldr	r1, .L51+8
 295 0056 0020     		movs	r0, #0
 296              	.LVL34:
 297 0058 A047     		blx	r4
 298              	.LVL35:
 299              	.L17:
 300              	.LBE4:
 285:Source\azure_iot_sdk\iothub_client\src/iothubtransportamqp_methods.c ****             message_outcome = MESSAGE_OUTCOME_REJECTED;
 286:Source\azure_iot_sdk\iothub_client\src/iothubtransportamqp_methods.c ****             result = messaging_delivery_rejected("amqp:decode-error", "Cannot retrieve message prop
 301              		.loc 1 286 0 is_stmt 1
 302 005a C249     		ldr	r1, .L51+12
 303 005c C248     		ldr	r0, .L51+16
 304 005e FFF7FEFF 		bl	messaging_delivery_rejected
 305              	.LVL36:
 306 0062 0400     		movs	r4, r0
 307              	.LVL37:
 285:Source\azure_iot_sdk\iothub_client\src/iothubtransportamqp_methods.c ****             message_outcome = MESSAGE_OUTCOME_REJECTED;
 308              		.loc 1 285 0
 309 0064 0127     		movs	r7, #1
 310 0066 9FE1     		b	.L15
 311              	.LVL38:
 312              	.L16:
 313              	.LBB5:
 287:Source\azure_iot_sdk\iothub_client\src/iothubtransportamqp_methods.c ****         }
 288:Source\azure_iot_sdk\iothub_client\src/iothubtransportamqp_methods.c ****         else
 289:Source\azure_iot_sdk\iothub_client\src/iothubtransportamqp_methods.c ****         {
 290:Source\azure_iot_sdk\iothub_client\src/iothubtransportamqp_methods.c ****             AMQP_VALUE correlation_id;
 291:Source\azure_iot_sdk\iothub_client\src/iothubtransportamqp_methods.c **** 
 292:Source\azure_iot_sdk\iothub_client\src/iothubtransportamqp_methods.c ****             /* Codes_SRS_IOTHUBTRANSPORT_AMQP_METHODS_01_046: [ - The correlation id shall be obtai
 293:Source\azure_iot_sdk\iothub_client\src/iothubtransportamqp_methods.c ****             if (properties_get_correlation_id(properties, &correlation_id) != 0)
 314              		.loc 1 293 0
 315 0068 04A9     		add	r1, sp, #16
 316 006a 0998     		ldr	r0, [sp, #36]
 317 006c FFF7FEFF 		bl	properties_get_correlation_id
 318              	.LVL39:
 319 0070 0028     		cmp	r0, #0
 320 0072 14D0     		beq	.L18
 321              	.LBB6:
 294:Source\azure_iot_sdk\iothub_client\src/iothubtransportamqp_methods.c ****             {
 295:Source\azure_iot_sdk\iothub_client\src/iothubtransportamqp_methods.c ****                 /* Codes_SRS_IOTHUBTRANSPORT_AMQP_METHODS_01_047: [ If `properties_get_correlation_
 296:Source\azure_iot_sdk\iothub_client\src/iothubtransportamqp_methods.c ****                 LogError("Cannot retrieve correlation id");
 322              		.loc 1 296 0 discriminator 3
 323 0074 FFF7FEFF 		bl	xlogging_get_log_function
 324              	.LVL40:
 325 0078 041E     		subs	r4, r0, #0
 326              	.LVL41:
 327 007a 09D0     		beq	.L19
 328              		.loc 1 296 0 is_stmt 0 discriminator 4
 329 007c BB4B     		ldr	r3, .L51+20
ARM GAS  C:\Users\Phuong\AppData\Local\Temp\ccu7x7Ah.s 			page 12


 330 007e 0193     		str	r3, [sp, #4]
 331 0080 0123     		movs	r3, #1
 332 0082 0093     		str	r3, [sp]
 333 0084 2833     		adds	r3, r3, #40
 334 0086 FF33     		adds	r3, r3, #255
 335 0088 B44A     		ldr	r2, .L51+4
 336 008a B549     		ldr	r1, .L51+8
 337 008c 0020     		movs	r0, #0
 338              	.LVL42:
 339 008e A047     		blx	r4
 340              	.LVL43:
 341              	.L19:
 342              	.LBE6:
 297:Source\azure_iot_sdk\iothub_client\src/iothubtransportamqp_methods.c ****                 message_outcome = MESSAGE_OUTCOME_REJECTED;
 298:Source\azure_iot_sdk\iothub_client\src/iothubtransportamqp_methods.c ****                 result = messaging_delivery_rejected("amqp:decode-error", "Cannot retrieve correlat
 343              		.loc 1 298 0 is_stmt 1
 344 0090 B649     		ldr	r1, .L51+20
 345 0092 B548     		ldr	r0, .L51+16
 346 0094 FFF7FEFF 		bl	messaging_delivery_rejected
 347              	.LVL44:
 348 0098 0400     		movs	r4, r0
 349              	.LVL45:
 297:Source\azure_iot_sdk\iothub_client\src/iothubtransportamqp_methods.c ****                 message_outcome = MESSAGE_OUTCOME_REJECTED;
 350              		.loc 1 297 0
 351 009a 0127     		movs	r7, #1
 352 009c 57E1     		b	.L20
 353              	.LVL46:
 354              	.L18:
 355              	.LBB7:
 299:Source\azure_iot_sdk\iothub_client\src/iothubtransportamqp_methods.c ****             }
 300:Source\azure_iot_sdk\iothub_client\src/iothubtransportamqp_methods.c ****             else
 301:Source\azure_iot_sdk\iothub_client\src/iothubtransportamqp_methods.c ****             {
 302:Source\azure_iot_sdk\iothub_client\src/iothubtransportamqp_methods.c ****                 /* Codes_SRS_IOTHUBTRANSPORT_AMQP_METHODS_01_112: [ Memory shall be allocated for t
 303:Source\azure_iot_sdk\iothub_client\src/iothubtransportamqp_methods.c ****                 IOTHUBTRANSPORT_AMQP_METHOD* method_handle = (IOTHUBTRANSPORT_AMQP_METHOD*)malloc(s
 356              		.loc 1 303 0
 357 009e 1420     		movs	r0, #20
 358 00a0 FFF7FEFF 		bl	malloc
 359              	.LVL47:
 360 00a4 071E     		subs	r7, r0, #0
 361              	.LVL48:
 304:Source\azure_iot_sdk\iothub_client\src/iothubtransportamqp_methods.c ****                 if (method_handle == NULL)
 362              		.loc 1 304 0
 363 00a6 11D1     		bne	.L21
 364              	.LBB8:
 305:Source\azure_iot_sdk\iothub_client\src/iothubtransportamqp_methods.c ****                 {
 306:Source\azure_iot_sdk\iothub_client\src/iothubtransportamqp_methods.c ****                     /* Codes_SRS_IOTHUBTRANSPORT_AMQP_METHODS_01_130: [ If allocating memory for th
 307:Source\azure_iot_sdk\iothub_client\src/iothubtransportamqp_methods.c ****                     LogError("Cannot allocate method handle");
 365              		.loc 1 307 0 discriminator 3
 366 00a8 FFF7FEFF 		bl	xlogging_get_log_function
 367              	.LVL49:
 368 00ac 041E     		subs	r4, r0, #0
 369              	.LVL50:
 370 00ae 00D1     		bne	.LCB350
 371 00b0 48E1     		b	.L48	@long jump
 372              	.LCB350:
 373              		.loc 1 307 0 is_stmt 0 discriminator 4
 374 00b2 AF4B     		ldr	r3, .L51+24
ARM GAS  C:\Users\Phuong\AppData\Local\Temp\ccu7x7Ah.s 			page 13


 375 00b4 0193     		str	r3, [sp, #4]
 376 00b6 0123     		movs	r3, #1
 377 00b8 0093     		str	r3, [sp]
 378 00ba 3423     		movs	r3, #52
 379 00bc FF33     		adds	r3, r3, #255
 380 00be A74A     		ldr	r2, .L51+4
 381 00c0 A749     		ldr	r1, .L51+8
 382 00c2 0020     		movs	r0, #0
 383              	.LVL51:
 384 00c4 A047     		blx	r4
 385              	.LVL52:
 386              	.LBE8:
 308:Source\azure_iot_sdk\iothub_client\src/iothubtransportamqp_methods.c ****                     message_outcome = MESSAGE_OUTCOME_RELEASED;
 387              		.loc 1 308 0 is_stmt 1 discriminator 4
 388 00c6 0237     		adds	r7, r7, #2
 389              	.LVL53:
 390              	.LBE7:
 391              	.LBE5:
 267:Source\azure_iot_sdk\iothub_client\src/iothubtransportamqp_methods.c ****     IOTHUBTRANSPORT_AMQP_METHODS_HANDLE amqp_methods_handle = (IOTHUBTRANSPORT_AMQP_METHODS_HANDLE)
 392              		.loc 1 267 0 discriminator 4
 393 00c8 0024     		movs	r4, #0
 394              	.LVL54:
 395 00ca 40E1     		b	.L20
 396              	.LVL55:
 397              	.L21:
 398              	.LBB42:
 399              	.LBB37:
 400              	.LBB9:
 309:Source\azure_iot_sdk\iothub_client\src/iothubtransportamqp_methods.c ****                 }
 310:Source\azure_iot_sdk\iothub_client\src/iothubtransportamqp_methods.c ****                 else
 311:Source\azure_iot_sdk\iothub_client\src/iothubtransportamqp_methods.c ****                 {
 312:Source\azure_iot_sdk\iothub_client\src/iothubtransportamqp_methods.c ****                     IOTHUBTRANSPORT_AMQP_METHOD_HANDLE* new_handles;
 313:Source\azure_iot_sdk\iothub_client\src/iothubtransportamqp_methods.c ****                     /* Codes_SRS_IOTHUBTRANSPORT_AMQP_METHODS_01_113: [ All `IOTHUBTRANSPORT_AMQP_M
 314:Source\azure_iot_sdk\iothub_client\src/iothubtransportamqp_methods.c ****                     new_handles = (IOTHUBTRANSPORT_AMQP_METHOD_HANDLE*)realloc(amqp_methods_handle-
 401              		.loc 1 314 0
 402 00cc EB6B     		ldr	r3, [r5, #60]
 403 00ce 591C     		adds	r1, r3, #1
 404 00d0 8900     		lsls	r1, r1, #2
 405 00d2 A86B     		ldr	r0, [r5, #56]
 406              	.LVL56:
 407 00d4 FFF7FEFF 		bl	realloc
 408              	.LVL57:
 315:Source\azure_iot_sdk\iothub_client\src/iothubtransportamqp_methods.c ****                     if (new_handles == NULL)
 409              		.loc 1 315 0
 410 00d8 0028     		cmp	r0, #0
 411 00da 14D1     		bne	.L22
 316:Source\azure_iot_sdk\iothub_client\src/iothubtransportamqp_methods.c ****                     {
 317:Source\azure_iot_sdk\iothub_client\src/iothubtransportamqp_methods.c ****                         /* Codes_SRS_IOTHUBTRANSPORT_AMQP_METHODS_01_138: [ If resizing the tracked
 318:Source\azure_iot_sdk\iothub_client\src/iothubtransportamqp_methods.c ****                         free(method_handle);
 412              		.loc 1 318 0
 413 00dc 3800     		movs	r0, r7
 414              	.LVL58:
 415 00de FFF7FEFF 		bl	free
 416              	.LVL59:
 417              	.LBB10:
 319:Source\azure_iot_sdk\iothub_client\src/iothubtransportamqp_methods.c ****                         LogError("Cannot grow method handles array");
 418              		.loc 1 319 0
ARM GAS  C:\Users\Phuong\AppData\Local\Temp\ccu7x7Ah.s 			page 14


 419 00e2 FFF7FEFF 		bl	xlogging_get_log_function
 420              	.LVL60:
 421 00e6 041E     		subs	r4, r0, #0
 422              	.LVL61:
 423 00e8 00D1     		bne	.LCB403
 424 00ea 2EE1     		b	.L49	@long jump
 425              	.LCB403:
 426              		.loc 1 319 0 is_stmt 0 discriminator 4
 427 00ec A14B     		ldr	r3, .L51+28
 428 00ee 0193     		str	r3, [sp, #4]
 429 00f0 0123     		movs	r3, #1
 430 00f2 0093     		str	r3, [sp]
 431 00f4 4023     		movs	r3, #64
 432 00f6 FF33     		adds	r3, r3, #255
 433 00f8 984A     		ldr	r2, .L51+4
 434 00fa 9949     		ldr	r1, .L51+8
 435 00fc 0020     		movs	r0, #0
 436              	.LVL62:
 437 00fe A047     		blx	r4
 438              	.LVL63:
 439              	.LBE10:
 320:Source\azure_iot_sdk\iothub_client\src/iothubtransportamqp_methods.c ****                         message_outcome = MESSAGE_OUTCOME_RELEASED;
 440              		.loc 1 320 0 is_stmt 1 discriminator 4
 441 0100 0227     		movs	r7, #2
 442              	.LVL64:
 443              	.LBE9:
 444              	.LBE37:
 445              	.LBE42:
 267:Source\azure_iot_sdk\iothub_client\src/iothubtransportamqp_methods.c ****     IOTHUBTRANSPORT_AMQP_METHODS_HANDLE amqp_methods_handle = (IOTHUBTRANSPORT_AMQP_METHODS_HANDLE)
 446              		.loc 1 267 0 discriminator 4
 447 0102 0024     		movs	r4, #0
 448              	.LVL65:
 449 0104 23E1     		b	.L20
 450              	.LVL66:
 451              	.L22:
 452              	.LBB43:
 453              	.LBB38:
 454              	.LBB33:
 321:Source\azure_iot_sdk\iothub_client\src/iothubtransportamqp_methods.c ****                     }
 322:Source\azure_iot_sdk\iothub_client\src/iothubtransportamqp_methods.c ****                     else
 323:Source\azure_iot_sdk\iothub_client\src/iothubtransportamqp_methods.c ****                     {
 324:Source\azure_iot_sdk\iothub_client\src/iothubtransportamqp_methods.c ****                         amqp_methods_handle->method_request_handles = new_handles;
 455              		.loc 1 324 0
 456 0106 A863     		str	r0, [r5, #56]
 325:Source\azure_iot_sdk\iothub_client\src/iothubtransportamqp_methods.c **** 
 326:Source\azure_iot_sdk\iothub_client\src/iothubtransportamqp_methods.c ****                         /* Codes_SRS_IOTHUBTRANSPORT_AMQP_METHODS_01_121: [ The uuid value for the 
 327:Source\azure_iot_sdk\iothub_client\src/iothubtransportamqp_methods.c ****                         if (amqpvalue_get_uuid(correlation_id, &method_handle->correlation_id) != 0
 457              		.loc 1 327 0
 458 0108 391D     		adds	r1, r7, #4
 459 010a 0498     		ldr	r0, [sp, #16]
 460              	.LVL67:
 461 010c FFF7FEFF 		bl	amqpvalue_get_uuid
 462              	.LVL68:
 463 0110 0028     		cmp	r0, #0
 464 0112 17D0     		beq	.L23
 328:Source\azure_iot_sdk\iothub_client\src/iothubtransportamqp_methods.c ****                         {
 329:Source\azure_iot_sdk\iothub_client\src/iothubtransportamqp_methods.c ****                             /* Codes_SRS_IOTHUBTRANSPORT_AMQP_METHODS_01_122: [ If `amqpvalue_get_u
ARM GAS  C:\Users\Phuong\AppData\Local\Temp\ccu7x7Ah.s 			page 15


 330:Source\azure_iot_sdk\iothub_client\src/iothubtransportamqp_methods.c ****                             free(method_handle);
 465              		.loc 1 330 0
 466 0114 3800     		movs	r0, r7
 467 0116 FFF7FEFF 		bl	free
 468              	.LVL69:
 469              	.LBB11:
 331:Source\azure_iot_sdk\iothub_client\src/iothubtransportamqp_methods.c ****                             LogError("Cannot get uuid value for correlation-id");
 470              		.loc 1 331 0
 471 011a FFF7FEFF 		bl	xlogging_get_log_function
 472              	.LVL70:
 473 011e 041E     		subs	r4, r0, #0
 474              	.LVL71:
 475 0120 09D0     		beq	.L24
 476              		.loc 1 331 0 is_stmt 0 discriminator 4
 477 0122 954B     		ldr	r3, .L51+32
 478 0124 0193     		str	r3, [sp, #4]
 479 0126 0123     		movs	r3, #1
 480 0128 0093     		str	r3, [sp]
 481 012a 4C23     		movs	r3, #76
 482 012c FF33     		adds	r3, r3, #255
 483 012e 8B4A     		ldr	r2, .L51+4
 484 0130 8B49     		ldr	r1, .L51+8
 485 0132 0020     		movs	r0, #0
 486              	.LVL72:
 487 0134 A047     		blx	r4
 488              	.LVL73:
 489              	.L24:
 490              	.LBE11:
 332:Source\azure_iot_sdk\iothub_client\src/iothubtransportamqp_methods.c ****                             message_outcome = MESSAGE_OUTCOME_REJECTED;
 333:Source\azure_iot_sdk\iothub_client\src/iothubtransportamqp_methods.c ****                             result = messaging_delivery_rejected("amqp:decode-error", "Cannot get u
 491              		.loc 1 333 0 is_stmt 1
 492 0136 9049     		ldr	r1, .L51+32
 493 0138 8B48     		ldr	r0, .L51+16
 494 013a FFF7FEFF 		bl	messaging_delivery_rejected
 495              	.LVL74:
 496 013e 0400     		movs	r4, r0
 497              	.LVL75:
 332:Source\azure_iot_sdk\iothub_client\src/iothubtransportamqp_methods.c ****                             message_outcome = MESSAGE_OUTCOME_REJECTED;
 498              		.loc 1 332 0
 499 0140 0127     		movs	r7, #1
 500              	.LVL76:
 501 0142 04E1     		b	.L20
 502              	.LVL77:
 503              	.L23:
 504              	.LBB12:
 334:Source\azure_iot_sdk\iothub_client\src/iothubtransportamqp_methods.c ****                         }
 335:Source\azure_iot_sdk\iothub_client\src/iothubtransportamqp_methods.c ****                         else
 336:Source\azure_iot_sdk\iothub_client\src/iothubtransportamqp_methods.c ****                         {
 337:Source\azure_iot_sdk\iothub_client\src/iothubtransportamqp_methods.c ****                             BINARY_DATA binary_data;
 338:Source\azure_iot_sdk\iothub_client\src/iothubtransportamqp_methods.c **** 
 339:Source\azure_iot_sdk\iothub_client\src/iothubtransportamqp_methods.c ****                             /* Codes_SRS_IOTHUBTRANSPORT_AMQP_METHODS_01_048: [ - The message paylo
 340:Source\azure_iot_sdk\iothub_client\src/iothubtransportamqp_methods.c ****                             if (message_get_body_amqp_data_in_place(message, 0, &binary_data) != 0)
 505              		.loc 1 340 0
 506 0144 07AA     		add	r2, sp, #28
 507 0146 0021     		movs	r1, #0
 508 0148 2000     		movs	r0, r4
 509 014a FFF7FEFF 		bl	message_get_body_amqp_data_in_place
ARM GAS  C:\Users\Phuong\AppData\Local\Temp\ccu7x7Ah.s 			page 16


 510              	.LVL78:
 511 014e 0028     		cmp	r0, #0
 512 0150 17D0     		beq	.L25
 341:Source\azure_iot_sdk\iothub_client\src/iothubtransportamqp_methods.c ****                             {
 342:Source\azure_iot_sdk\iothub_client\src/iothubtransportamqp_methods.c ****                                 /* Codes_SRS_IOTHUBTRANSPORT_AMQP_METHODS_01_049: [ If `message_get
 343:Source\azure_iot_sdk\iothub_client\src/iothubtransportamqp_methods.c ****                                 free(method_handle);
 513              		.loc 1 343 0
 514 0152 3800     		movs	r0, r7
 515 0154 FFF7FEFF 		bl	free
 516              	.LVL79:
 517              	.LBB13:
 344:Source\azure_iot_sdk\iothub_client\src/iothubtransportamqp_methods.c ****                                 LogError("Cannot get method request message payload");
 518              		.loc 1 344 0
 519 0158 FFF7FEFF 		bl	xlogging_get_log_function
 520              	.LVL80:
 521 015c 041E     		subs	r4, r0, #0
 522              	.LVL81:
 523 015e 09D0     		beq	.L26
 524              		.loc 1 344 0 is_stmt 0 discriminator 4
 525 0160 864B     		ldr	r3, .L51+36
 526 0162 0193     		str	r3, [sp, #4]
 527 0164 0123     		movs	r3, #1
 528 0166 0093     		str	r3, [sp]
 529 0168 5833     		adds	r3, r3, #88
 530 016a FF33     		adds	r3, r3, #255
 531 016c 7B4A     		ldr	r2, .L51+4
 532 016e 7C49     		ldr	r1, .L51+8
 533 0170 0020     		movs	r0, #0
 534              	.LVL82:
 535 0172 A047     		blx	r4
 536              	.LVL83:
 537              	.L26:
 538              	.LBE13:
 345:Source\azure_iot_sdk\iothub_client\src/iothubtransportamqp_methods.c ****                                 message_outcome = MESSAGE_OUTCOME_REJECTED;
 346:Source\azure_iot_sdk\iothub_client\src/iothubtransportamqp_methods.c ****                                 result = messaging_delivery_rejected("amqp:decode-error", "Cannot g
 539              		.loc 1 346 0 is_stmt 1
 540 0174 8149     		ldr	r1, .L51+36
 541 0176 7C48     		ldr	r0, .L51+16
 542 0178 FFF7FEFF 		bl	messaging_delivery_rejected
 543              	.LVL84:
 544 017c 0400     		movs	r4, r0
 545              	.LVL85:
 345:Source\azure_iot_sdk\iothub_client\src/iothubtransportamqp_methods.c ****                                 message_outcome = MESSAGE_OUTCOME_REJECTED;
 546              		.loc 1 345 0
 547 017e 0127     		movs	r7, #1
 548              	.LVL86:
 549 0180 E5E0     		b	.L20
 550              	.LVL87:
 551              	.L25:
 552              	.LBB14:
 347:Source\azure_iot_sdk\iothub_client\src/iothubtransportamqp_methods.c ****                             }
 348:Source\azure_iot_sdk\iothub_client\src/iothubtransportamqp_methods.c ****                             else
 349:Source\azure_iot_sdk\iothub_client\src/iothubtransportamqp_methods.c ****                             {
 350:Source\azure_iot_sdk\iothub_client\src/iothubtransportamqp_methods.c ****                                 AMQP_VALUE application_properties;
 351:Source\azure_iot_sdk\iothub_client\src/iothubtransportamqp_methods.c **** 
 352:Source\azure_iot_sdk\iothub_client\src/iothubtransportamqp_methods.c ****                                 /* Codes_SRS_IOTHUBTRANSPORT_AMQP_METHODS_01_099: [ The application
 353:Source\azure_iot_sdk\iothub_client\src/iothubtransportamqp_methods.c ****                                 if (message_get_application_properties(message, &application_proper
ARM GAS  C:\Users\Phuong\AppData\Local\Temp\ccu7x7Ah.s 			page 17


 553              		.loc 1 353 0
 554 0182 05A9     		add	r1, sp, #20
 555 0184 2000     		movs	r0, r4
 556 0186 FFF7FEFF 		bl	message_get_application_properties
 557              	.LVL88:
 558 018a 0028     		cmp	r0, #0
 559 018c 17D0     		beq	.L28
 560              	.LBB15:
 354:Source\azure_iot_sdk\iothub_client\src/iothubtransportamqp_methods.c ****                                 {
 355:Source\azure_iot_sdk\iothub_client\src/iothubtransportamqp_methods.c ****                                     /* Codes_SRS_IOTHUBTRANSPORT_AMQP_METHODS_01_133: [ If `message
 356:Source\azure_iot_sdk\iothub_client\src/iothubtransportamqp_methods.c ****                                     LogError("Cannot get application properties");
 561              		.loc 1 356 0 discriminator 3
 562 018e FFF7FEFF 		bl	xlogging_get_log_function
 563              	.LVL89:
 564 0192 041E     		subs	r4, r0, #0
 565              	.LVL90:
 566 0194 09D0     		beq	.L29
 567              		.loc 1 356 0 is_stmt 0 discriminator 4
 568 0196 7A4B     		ldr	r3, .L51+40
 569 0198 0193     		str	r3, [sp, #4]
 570 019a 0123     		movs	r3, #1
 571 019c 0093     		str	r3, [sp]
 572 019e 6433     		adds	r3, r3, #100
 573 01a0 FF33     		adds	r3, r3, #255
 574 01a2 6E4A     		ldr	r2, .L51+4
 575 01a4 6E49     		ldr	r1, .L51+8
 576 01a6 0020     		movs	r0, #0
 577              	.LVL91:
 578 01a8 A047     		blx	r4
 579              	.LVL92:
 580              	.L29:
 581              	.LBE15:
 357:Source\azure_iot_sdk\iothub_client\src/iothubtransportamqp_methods.c ****                                     free(method_handle);
 582              		.loc 1 357 0 is_stmt 1
 583 01aa 3800     		movs	r0, r7
 584 01ac FFF7FEFF 		bl	free
 585              	.LVL93:
 358:Source\azure_iot_sdk\iothub_client\src/iothubtransportamqp_methods.c ****                                     message_outcome = MESSAGE_OUTCOME_REJECTED;
 359:Source\azure_iot_sdk\iothub_client\src/iothubtransportamqp_methods.c ****                                     result = messaging_delivery_rejected("amqp:decode-error", "Cann
 586              		.loc 1 359 0
 587 01b0 7349     		ldr	r1, .L51+40
 588 01b2 6D48     		ldr	r0, .L51+16
 589 01b4 FFF7FEFF 		bl	messaging_delivery_rejected
 590              	.LVL94:
 591 01b8 0400     		movs	r4, r0
 592              	.LVL95:
 358:Source\azure_iot_sdk\iothub_client\src/iothubtransportamqp_methods.c ****                                     message_outcome = MESSAGE_OUTCOME_REJECTED;
 593              		.loc 1 358 0
 594 01ba 0127     		movs	r7, #1
 595              	.LVL96:
 596 01bc C7E0     		b	.L20
 597              	.LVL97:
 598              	.L28:
 599              	.LBB16:
 360:Source\azure_iot_sdk\iothub_client\src/iothubtransportamqp_methods.c ****                                 }
 361:Source\azure_iot_sdk\iothub_client\src/iothubtransportamqp_methods.c ****                                 else
 362:Source\azure_iot_sdk\iothub_client\src/iothubtransportamqp_methods.c ****                                 {
ARM GAS  C:\Users\Phuong\AppData\Local\Temp\ccu7x7Ah.s 			page 18


 363:Source\azure_iot_sdk\iothub_client\src/iothubtransportamqp_methods.c ****                                     /* Codes_SRS_IOTHUBTRANSPORT_AMQP_METHODS_01_123: [ The AMQP ma
 364:Source\azure_iot_sdk\iothub_client\src/iothubtransportamqp_methods.c ****                                     AMQP_VALUE amqp_properties_map = amqpvalue_get_inplace_describe
 600              		.loc 1 364 0
 601 01be 0598     		ldr	r0, [sp, #20]
 602 01c0 FFF7FEFF 		bl	amqpvalue_get_inplace_described_value
 603              	.LVL98:
 604 01c4 041E     		subs	r4, r0, #0
 605              	.LVL99:
 365:Source\azure_iot_sdk\iothub_client\src/iothubtransportamqp_methods.c ****                                     if (amqp_properties_map == NULL)
 606              		.loc 1 365 0
 607 01c6 13D1     		bne	.L31
 608              	.LBB17:
 366:Source\azure_iot_sdk\iothub_client\src/iothubtransportamqp_methods.c ****                                     {
 367:Source\azure_iot_sdk\iothub_client\src/iothubtransportamqp_methods.c ****                                         /* Codes_SRS_IOTHUBTRANSPORT_AMQP_METHODS_01_134: [ If `amq
 368:Source\azure_iot_sdk\iothub_client\src/iothubtransportamqp_methods.c ****                                         LogError("Cannot get application properties map");
 609              		.loc 1 368 0 discriminator 3
 610 01c8 FFF7FEFF 		bl	xlogging_get_log_function
 611              	.LVL100:
 612 01cc 041E     		subs	r4, r0, #0
 613              	.LVL101:
 614 01ce 09D0     		beq	.L32
 615              		.loc 1 368 0 is_stmt 0 discriminator 4
 616 01d0 6C4B     		ldr	r3, .L51+44
 617 01d2 0193     		str	r3, [sp, #4]
 618 01d4 0123     		movs	r3, #1
 619 01d6 0093     		str	r3, [sp]
 620 01d8 7033     		adds	r3, r3, #112
 621 01da FF33     		adds	r3, r3, #255
 622 01dc 5F4A     		ldr	r2, .L51+4
 623 01de 6049     		ldr	r1, .L51+8
 624 01e0 0020     		movs	r0, #0
 625              	.LVL102:
 626 01e2 A047     		blx	r4
 627              	.LVL103:
 628              	.L32:
 629              	.LBE17:
 369:Source\azure_iot_sdk\iothub_client\src/iothubtransportamqp_methods.c ****                                         free(method_handle);
 630              		.loc 1 369 0 is_stmt 1
 631 01e4 3800     		movs	r0, r7
 632 01e6 FFF7FEFF 		bl	free
 633              	.LVL104:
 370:Source\azure_iot_sdk\iothub_client\src/iothubtransportamqp_methods.c ****                                         message_outcome = MESSAGE_OUTCOME_RELEASED;
 634              		.loc 1 370 0
 635 01ea 0227     		movs	r7, #2
 636              	.LVL105:
 637              	.LBE16:
 638              	.LBE14:
 639              	.LBE12:
 640              	.LBE33:
 641              	.LBE38:
 642              	.LBE43:
 267:Source\azure_iot_sdk\iothub_client\src/iothubtransportamqp_methods.c ****     IOTHUBTRANSPORT_AMQP_METHODS_HANDLE amqp_methods_handle = (IOTHUBTRANSPORT_AMQP_METHODS_HANDLE)
 643              		.loc 1 267 0
 644 01ec 0024     		movs	r4, #0
 645              	.LVL106:
 646              	.LBB44:
 647              	.LBB39:
ARM GAS  C:\Users\Phuong\AppData\Local\Temp\ccu7x7Ah.s 			page 19


 648              	.LBB34:
 649              	.LBB31:
 650              	.LBB29:
 651              	.LBB27:
 652 01ee A5E0     		b	.L33
 653              	.LVL107:
 654              	.L31:
 655              	.LBB18:
 371:Source\azure_iot_sdk\iothub_client\src/iothubtransportamqp_methods.c ****                                     }
 372:Source\azure_iot_sdk\iothub_client\src/iothubtransportamqp_methods.c ****                                     else
 373:Source\azure_iot_sdk\iothub_client\src/iothubtransportamqp_methods.c ****                                     {
 374:Source\azure_iot_sdk\iothub_client\src/iothubtransportamqp_methods.c ****                                         /* Codes_SRS_IOTHUBTRANSPORT_AMQP_METHODS_01_100: [ A prope
 375:Source\azure_iot_sdk\iothub_client\src/iothubtransportamqp_methods.c ****                                         AMQP_VALUE property_key = amqpvalue_create_string("IoThub-m
 656              		.loc 1 375 0
 657 01f0 6548     		ldr	r0, .L51+48
 658              	.LVL108:
 659 01f2 FFF7FEFF 		bl	amqpvalue_create_string
 660              	.LVL109:
 661 01f6 0290     		str	r0, [sp, #8]
 662              	.LVL110:
 376:Source\azure_iot_sdk\iothub_client\src/iothubtransportamqp_methods.c ****                                         if (property_key == NULL)
 663              		.loc 1 376 0
 664 01f8 0028     		cmp	r0, #0
 665 01fa 13D1     		bne	.L34
 666              	.LBB19:
 377:Source\azure_iot_sdk\iothub_client\src/iothubtransportamqp_methods.c ****                                         {
 378:Source\azure_iot_sdk\iothub_client\src/iothubtransportamqp_methods.c ****                                             /* Codes_SRS_IOTHUBTRANSPORT_AMQP_METHODS_01_132: [ If 
 379:Source\azure_iot_sdk\iothub_client\src/iothubtransportamqp_methods.c ****                                             LogError("Cannot create the property key for method nam
 667              		.loc 1 379 0 discriminator 3
 668 01fc FFF7FEFF 		bl	xlogging_get_log_function
 669              	.LVL111:
 670 0200 041E     		subs	r4, r0, #0
 671              	.LVL112:
 672 0202 09D0     		beq	.L35
 673              		.loc 1 379 0 is_stmt 0 discriminator 4
 674 0204 614B     		ldr	r3, .L51+52
 675 0206 0193     		str	r3, [sp, #4]
 676 0208 0123     		movs	r3, #1
 677 020a 0093     		str	r3, [sp]
 678 020c 7C23     		movs	r3, #124
 679 020e FF33     		adds	r3, r3, #255
 680 0210 524A     		ldr	r2, .L51+4
 681 0212 5349     		ldr	r1, .L51+8
 682 0214 0020     		movs	r0, #0
 683              	.LVL113:
 684 0216 A047     		blx	r4
 685              	.LVL114:
 686              	.L35:
 687              	.LBE19:
 380:Source\azure_iot_sdk\iothub_client\src/iothubtransportamqp_methods.c ****                                             free(method_handle);
 688              		.loc 1 380 0 is_stmt 1
 689 0218 3800     		movs	r0, r7
 690 021a FFF7FEFF 		bl	free
 691              	.LVL115:
 381:Source\azure_iot_sdk\iothub_client\src/iothubtransportamqp_methods.c ****                                             message_outcome = MESSAGE_OUTCOME_RELEASED;
 692              		.loc 1 381 0
 693 021e 0227     		movs	r7, #2
ARM GAS  C:\Users\Phuong\AppData\Local\Temp\ccu7x7Ah.s 			page 20


 694              	.LVL116:
 695              	.LBE18:
 696              	.LBE27:
 697              	.LBE29:
 698              	.LBE31:
 699              	.LBE34:
 700              	.LBE39:
 701              	.LBE44:
 267:Source\azure_iot_sdk\iothub_client\src/iothubtransportamqp_methods.c ****     IOTHUBTRANSPORT_AMQP_METHODS_HANDLE amqp_methods_handle = (IOTHUBTRANSPORT_AMQP_METHODS_HANDLE)
 702              		.loc 1 267 0
 703 0220 0024     		movs	r4, #0
 704              	.LVL117:
 705              	.LBB45:
 706              	.LBB40:
 707              	.LBB35:
 708              	.LBB32:
 709              	.LBB30:
 710              	.LBB28:
 711              	.LBB26:
 712 0222 8BE0     		b	.L33
 713              	.LVL118:
 714              	.L34:
 715              	.LBB20:
 382:Source\azure_iot_sdk\iothub_client\src/iothubtransportamqp_methods.c ****                                         }
 383:Source\azure_iot_sdk\iothub_client\src/iothubtransportamqp_methods.c ****                                         else
 384:Source\azure_iot_sdk\iothub_client\src/iothubtransportamqp_methods.c ****                                         {
 385:Source\azure_iot_sdk\iothub_client\src/iothubtransportamqp_methods.c ****                                             /* Codes_SRS_IOTHUBTRANSPORT_AMQP_METHODS_01_101: [ The
 386:Source\azure_iot_sdk\iothub_client\src/iothubtransportamqp_methods.c ****                                             AMQP_VALUE property_value = amqpvalue_get_map_value(amq
 716              		.loc 1 386 0
 717 0224 0299     		ldr	r1, [sp, #8]
 718 0226 2000     		movs	r0, r4
 719              	.LVL119:
 720 0228 FFF7FEFF 		bl	amqpvalue_get_map_value
 721              	.LVL120:
 722 022c 0390     		str	r0, [sp, #12]
 723              	.LVL121:
 387:Source\azure_iot_sdk\iothub_client\src/iothubtransportamqp_methods.c ****                                             if (property_value == NULL)
 724              		.loc 1 387 0
 725 022e 0028     		cmp	r0, #0
 726 0230 17D1     		bne	.L36
 727              	.LBB21:
 388:Source\azure_iot_sdk\iothub_client\src/iothubtransportamqp_methods.c ****                                             {
 389:Source\azure_iot_sdk\iothub_client\src/iothubtransportamqp_methods.c ****                                                 /* Codes_SRS_IOTHUBTRANSPORT_AMQP_METHODS_01_103: [
 390:Source\azure_iot_sdk\iothub_client\src/iothubtransportamqp_methods.c ****                                                 LogError("Cannot find the IoThub-methodname propert
 728              		.loc 1 390 0 discriminator 3
 729 0232 FFF7FEFF 		bl	xlogging_get_log_function
 730              	.LVL122:
 731 0236 041E     		subs	r4, r0, #0
 732              	.LVL123:
 733 0238 09D0     		beq	.L37
 734              		.loc 1 390 0 is_stmt 0 discriminator 4
 735 023a 554B     		ldr	r3, .L51+56
 736 023c 0193     		str	r3, [sp, #4]
 737 023e 0123     		movs	r3, #1
 738 0240 0093     		str	r3, [sp]
 739 0242 8633     		adds	r3, r3, #134
 740 0244 FF33     		adds	r3, r3, #255
ARM GAS  C:\Users\Phuong\AppData\Local\Temp\ccu7x7Ah.s 			page 21


 741 0246 454A     		ldr	r2, .L51+4
 742 0248 4549     		ldr	r1, .L51+8
 743 024a 0020     		movs	r0, #0
 744              	.LVL124:
 745 024c A047     		blx	r4
 746              	.LVL125:
 747              	.L37:
 748              	.LBE21:
 391:Source\azure_iot_sdk\iothub_client\src/iothubtransportamqp_methods.c ****                                                 free(method_handle);
 749              		.loc 1 391 0 is_stmt 1
 750 024e 3800     		movs	r0, r7
 751 0250 FFF7FEFF 		bl	free
 752              	.LVL126:
 392:Source\azure_iot_sdk\iothub_client\src/iothubtransportamqp_methods.c ****                                                 message_outcome = MESSAGE_OUTCOME_REJECTED;
 393:Source\azure_iot_sdk\iothub_client\src/iothubtransportamqp_methods.c ****                                                 result = messaging_delivery_rejected("amqp:decode-e
 753              		.loc 1 393 0
 754 0254 4E49     		ldr	r1, .L51+56
 755 0256 4448     		ldr	r0, .L51+16
 756 0258 FFF7FEFF 		bl	messaging_delivery_rejected
 757              	.LVL127:
 758 025c 0400     		movs	r4, r0
 759              	.LVL128:
 392:Source\azure_iot_sdk\iothub_client\src/iothubtransportamqp_methods.c ****                                                 message_outcome = MESSAGE_OUTCOME_REJECTED;
 760              		.loc 1 392 0
 761 025e 0127     		movs	r7, #1
 762              	.LVL129:
 763 0260 69E0     		b	.L38
 764              	.LVL130:
 765              	.L36:
 766              	.LBB22:
 394:Source\azure_iot_sdk\iothub_client\src/iothubtransportamqp_methods.c ****                                             }
 395:Source\azure_iot_sdk\iothub_client\src/iothubtransportamqp_methods.c ****                                             else
 396:Source\azure_iot_sdk\iothub_client\src/iothubtransportamqp_methods.c ****                                             {
 397:Source\azure_iot_sdk\iothub_client\src/iothubtransportamqp_methods.c ****                                                 const char* method_name;
 398:Source\azure_iot_sdk\iothub_client\src/iothubtransportamqp_methods.c **** 
 399:Source\azure_iot_sdk\iothub_client\src/iothubtransportamqp_methods.c ****                                                 /* Codes_SRS_IOTHUBTRANSPORT_AMQP_METHODS_01_102: [
 400:Source\azure_iot_sdk\iothub_client\src/iothubtransportamqp_methods.c ****                                                 if (amqpvalue_get_string(property_value, &method_na
 767              		.loc 1 400 0
 768 0262 06A9     		add	r1, sp, #24
 769 0264 0398     		ldr	r0, [sp, #12]
 770              	.LVL131:
 771 0266 FFF7FEFF 		bl	amqpvalue_get_string
 772              	.LVL132:
 773 026a 0028     		cmp	r0, #0
 774 026c 17D0     		beq	.L39
 775              	.LBB23:
 401:Source\azure_iot_sdk\iothub_client\src/iothubtransportamqp_methods.c ****                                                 {
 402:Source\azure_iot_sdk\iothub_client\src/iothubtransportamqp_methods.c ****                                                     /*Codes_SRS_IOTHUBTRANSPORT_AMQP_METHODS_01_131
 403:Source\azure_iot_sdk\iothub_client\src/iothubtransportamqp_methods.c ****                                                     LogError("Cannot read the method name from the 
 776              		.loc 1 403 0 discriminator 3
 777 026e FFF7FEFF 		bl	xlogging_get_log_function
 778              	.LVL133:
 779 0272 041E     		subs	r4, r0, #0
 780              	.LVL134:
 781 0274 09D0     		beq	.L40
 782              		.loc 1 403 0 is_stmt 0 discriminator 4
 783 0276 474B     		ldr	r3, .L51+60
ARM GAS  C:\Users\Phuong\AppData\Local\Temp\ccu7x7Ah.s 			page 22


 784 0278 0193     		str	r3, [sp, #4]
 785 027a 0123     		movs	r3, #1
 786 027c 0093     		str	r3, [sp]
 787 027e 9423     		movs	r3, #148
 788 0280 FF33     		adds	r3, r3, #255
 789 0282 364A     		ldr	r2, .L51+4
 790 0284 3649     		ldr	r1, .L51+8
 791 0286 0020     		movs	r0, #0
 792              	.LVL135:
 793 0288 A047     		blx	r4
 794              	.LVL136:
 795              	.L40:
 796              	.LBE23:
 404:Source\azure_iot_sdk\iothub_client\src/iothubtransportamqp_methods.c ****                                                     free(method_handle);
 797              		.loc 1 404 0 is_stmt 1
 798 028a 3800     		movs	r0, r7
 799 028c FFF7FEFF 		bl	free
 800              	.LVL137:
 405:Source\azure_iot_sdk\iothub_client\src/iothubtransportamqp_methods.c ****                                                     message_outcome = MESSAGE_OUTCOME_REJECTED;
 406:Source\azure_iot_sdk\iothub_client\src/iothubtransportamqp_methods.c ****                                                     result = messaging_delivery_rejected("amqp:deco
 801              		.loc 1 406 0
 802 0290 4049     		ldr	r1, .L51+60
 803 0292 3548     		ldr	r0, .L51+16
 804 0294 FFF7FEFF 		bl	messaging_delivery_rejected
 805              	.LVL138:
 806 0298 0400     		movs	r4, r0
 807              	.LVL139:
 405:Source\azure_iot_sdk\iothub_client\src/iothubtransportamqp_methods.c ****                                                     message_outcome = MESSAGE_OUTCOME_REJECTED;
 808              		.loc 1 405 0
 809 029a 0127     		movs	r7, #1
 810              	.LVL140:
 811 029c 48E0     		b	.L41
 812              	.LVL141:
 813              	.L39:
 407:Source\azure_iot_sdk\iothub_client\src/iothubtransportamqp_methods.c ****                                                 }
 408:Source\azure_iot_sdk\iothub_client\src/iothubtransportamqp_methods.c ****                                                 else
 409:Source\azure_iot_sdk\iothub_client\src/iothubtransportamqp_methods.c ****                                                 {
 410:Source\azure_iot_sdk\iothub_client\src/iothubtransportamqp_methods.c ****                                                     /* Codes_SRS_IOTHUBTRANSPORT_AMQP_METHODS_01_05
 411:Source\azure_iot_sdk\iothub_client\src/iothubtransportamqp_methods.c ****                                                     result = messaging_delivery_accepted();
 814              		.loc 1 411 0
 815 029e FFF7FEFF 		bl	messaging_delivery_accepted
 816              	.LVL142:
 817 02a2 041E     		subs	r4, r0, #0
 818              	.LVL143:
 412:Source\azure_iot_sdk\iothub_client\src/iothubtransportamqp_methods.c ****                                                     if (result == NULL)
 819              		.loc 1 412 0
 820 02a4 13D1     		bne	.L42
 821              	.LBB24:
 413:Source\azure_iot_sdk\iothub_client\src/iothubtransportamqp_methods.c ****                                                     {
 414:Source\azure_iot_sdk\iothub_client\src/iothubtransportamqp_methods.c ****                                                         /* Codes_SRS_IOTHUBTRANSPORT_AMQP_METHODS_0
 415:Source\azure_iot_sdk\iothub_client\src/iothubtransportamqp_methods.c ****                                                         LogError("Cannot allocate memory for delive
 822              		.loc 1 415 0 discriminator 3
 823 02a6 FFF7FEFF 		bl	xlogging_get_log_function
 824              	.LVL144:
 825 02aa 8146     		mov	r9, r0
 826              	.LVL145:
 827 02ac 0028     		cmp	r0, #0
ARM GAS  C:\Users\Phuong\AppData\Local\Temp\ccu7x7Ah.s 			page 23


 828 02ae 09D0     		beq	.L43
 829              		.loc 1 415 0 is_stmt 0 discriminator 4
 830 02b0 394B     		ldr	r3, .L51+64
 831 02b2 0193     		str	r3, [sp, #4]
 832 02b4 0123     		movs	r3, #1
 833 02b6 0093     		str	r3, [sp]
 834 02b8 A023     		movs	r3, #160
 835 02ba FF33     		adds	r3, r3, #255
 836 02bc 274A     		ldr	r2, .L51+4
 837 02be 2849     		ldr	r1, .L51+8
 838 02c0 0020     		movs	r0, #0
 839              	.LVL146:
 840 02c2 C847     		blx	r9
 841              	.LVL147:
 842              	.L43:
 843              	.LBE24:
 416:Source\azure_iot_sdk\iothub_client\src/iothubtransportamqp_methods.c ****                                                         free(method_handle);
 844              		.loc 1 416 0 is_stmt 1
 845 02c4 3800     		movs	r0, r7
 846 02c6 FFF7FEFF 		bl	free
 847              	.LVL148:
 417:Source\azure_iot_sdk\iothub_client\src/iothubtransportamqp_methods.c ****                                                         message_outcome = MESSAGE_OUTCOME_RELEASED;
 848              		.loc 1 417 0
 849 02ca 0227     		movs	r7, #2
 850              	.LVL149:
 851 02cc 30E0     		b	.L41
 852              	.LVL150:
 853              	.L42:
 418:Source\azure_iot_sdk\iothub_client\src/iothubtransportamqp_methods.c ****                                                     }
 419:Source\azure_iot_sdk\iothub_client\src/iothubtransportamqp_methods.c ****                                                     else
 420:Source\azure_iot_sdk\iothub_client\src/iothubtransportamqp_methods.c ****                                                     {
 421:Source\azure_iot_sdk\iothub_client\src/iothubtransportamqp_methods.c ****                                                         method_handle->iothubtransport_amqp_methods
 854              		.loc 1 421 0
 855 02ce 3D60     		str	r5, [r7]
 422:Source\azure_iot_sdk\iothub_client\src/iothubtransportamqp_methods.c **** 
 423:Source\azure_iot_sdk\iothub_client\src/iothubtransportamqp_methods.c ****                                                         /* set the method request handle in the han
 424:Source\azure_iot_sdk\iothub_client\src/iothubtransportamqp_methods.c ****                                                         amqp_methods_handle->method_request_handles
 856              		.loc 1 424 0
 857 02d0 EB6B     		ldr	r3, [r5, #60]
 858 02d2 9B00     		lsls	r3, r3, #2
 859 02d4 AA6B     		ldr	r2, [r5, #56]
 860 02d6 D750     		str	r7, [r2, r3]
 425:Source\azure_iot_sdk\iothub_client\src/iothubtransportamqp_methods.c ****                                                         amqp_methods_handle->method_request_handle_
 861              		.loc 1 425 0
 862 02d8 EB6B     		ldr	r3, [r5, #60]
 863 02da 0133     		adds	r3, r3, #1
 864 02dc EB63     		str	r3, [r5, #60]
 426:Source\azure_iot_sdk\iothub_client\src/iothubtransportamqp_methods.c **** 
 427:Source\azure_iot_sdk\iothub_client\src/iothubtransportamqp_methods.c ****                                                         /* Codes_SRS_IOTHUBTRANSPORT_AMQP_METHODS_0
 428:Source\azure_iot_sdk\iothub_client\src/iothubtransportamqp_methods.c ****                                                         /* Codes_SRS_IOTHUBTRANSPORT_AMQP_METHODS_0
 429:Source\azure_iot_sdk\iothub_client\src/iothubtransportamqp_methods.c ****                                                         /* Codes_SRS_IOTHUBTRANSPORT_AMQP_METHODS_0
 430:Source\azure_iot_sdk\iothub_client\src/iothubtransportamqp_methods.c ****                                                         /* Codes_SRS_IOTHUBTRANSPORT_AMQP_METHODS_0
 431:Source\azure_iot_sdk\iothub_client\src/iothubtransportamqp_methods.c ****                                                         /* Codes_SRS_IOTHUBTRANSPORT_AMQP_METHODS_0
 432:Source\azure_iot_sdk\iothub_client\src/iothubtransportamqp_methods.c ****                                                         /* Codes_SRS_IOTHUBTRANSPORT_AMQP_METHODS_0
 433:Source\azure_iot_sdk\iothub_client\src/iothubtransportamqp_methods.c ****                                                         /* Codes_SRS_IOTHUBTRANSPORT_AMQP_METHODS_0
 434:Source\azure_iot_sdk\iothub_client\src/iothubtransportamqp_methods.c ****                                                         if (amqp_methods_handle->on_method_request_
 865              		.loc 1 434 0
ARM GAS  C:\Users\Phuong\AppData\Local\Temp\ccu7x7Ah.s 			page 24


 866 02de 0097     		str	r7, [sp]
 867 02e0 089B     		ldr	r3, [sp, #32]
 868 02e2 079A     		ldr	r2, [sp, #28]
 869 02e4 0699     		ldr	r1, [sp, #24]
 870 02e6 286A     		ldr	r0, [r5, #32]
 871              	.LVL151:
 872 02e8 EE69     		ldr	r6, [r5, #28]
 873 02ea B047     		blx	r6
 874              	.LVL152:
 875 02ec 0028     		cmp	r0, #0
 876 02ee 1ED0     		beq	.L50
 877              	.LBB25:
 435:Source\azure_iot_sdk\iothub_client\src/iothubtransportamqp_methods.c ****                                                         {
 436:Source\azure_iot_sdk\iothub_client\src/iothubtransportamqp_methods.c ****                                                             /* Codes_SRS_IOTHUBTRANSPORT_AMQP_METHO
 437:Source\azure_iot_sdk\iothub_client\src/iothubtransportamqp_methods.c ****                                                             LogError("Cannot execute the callback w
 878              		.loc 1 437 0 discriminator 3
 879 02f0 FFF7FEFF 		bl	xlogging_get_log_function
 880              	.LVL153:
 881 02f4 8146     		mov	r9, r0
 882              	.LVL154:
 883 02f6 0028     		cmp	r0, #0
 884 02f8 09D0     		beq	.L44
 885              		.loc 1 437 0 is_stmt 0 discriminator 4
 886 02fa 284B     		ldr	r3, .L51+68
 887 02fc 0193     		str	r3, [sp, #4]
 888 02fe 0123     		movs	r3, #1
 889 0300 0093     		str	r3, [sp]
 890 0302 B623     		movs	r3, #182
 891 0304 FF33     		adds	r3, r3, #255
 892 0306 154A     		ldr	r2, .L51+4
 893 0308 1549     		ldr	r1, .L51+8
 894 030a 0020     		movs	r0, #0
 895              	.LVL155:
 896 030c C847     		blx	r9
 897              	.LVL156:
 898              	.L44:
 899              	.LBE25:
 438:Source\azure_iot_sdk\iothub_client\src/iothubtransportamqp_methods.c ****                                                             amqpvalue_destroy(result);
 900              		.loc 1 438 0 is_stmt 1
 901 030e 2000     		movs	r0, r4
 902 0310 FFF7FEFF 		bl	amqpvalue_destroy
 903              	.LVL157:
 439:Source\azure_iot_sdk\iothub_client\src/iothubtransportamqp_methods.c ****                                                             free(method_handle);
 904              		.loc 1 439 0
 905 0314 3800     		movs	r0, r7
 906 0316 FFF7FEFF 		bl	free
 907              	.LVL158:
 440:Source\azure_iot_sdk\iothub_client\src/iothubtransportamqp_methods.c ****                                                             amqp_methods_handle->method_request_han
 908              		.loc 1 440 0
 909 031a EB6B     		ldr	r3, [r5, #60]
 910 031c 013B     		subs	r3, r3, #1
 911 031e EB63     		str	r3, [r5, #60]
 912              	.LVL159:
 441:Source\azure_iot_sdk\iothub_client\src/iothubtransportamqp_methods.c ****                                                             message_outcome = MESSAGE_OUTCOME_REJEC
 442:Source\azure_iot_sdk\iothub_client\src/iothubtransportamqp_methods.c ****                                                             result = messaging_delivery_rejected("a
 913              		.loc 1 442 0
 914 0320 1E49     		ldr	r1, .L51+68
ARM GAS  C:\Users\Phuong\AppData\Local\Temp\ccu7x7Ah.s 			page 25


 915 0322 1F48     		ldr	r0, .L51+72
 916 0324 FFF7FEFF 		bl	messaging_delivery_rejected
 917              	.LVL160:
 918 0328 0400     		movs	r4, r0
 919              	.LVL161:
 441:Source\azure_iot_sdk\iothub_client\src/iothubtransportamqp_methods.c ****                                                             message_outcome = MESSAGE_OUTCOME_REJEC
 920              		.loc 1 441 0
 921 032a 0127     		movs	r7, #1
 922              	.LVL162:
 923 032c 00E0     		b	.L41
 924              	.LVL163:
 925              	.L50:
 443:Source\azure_iot_sdk\iothub_client\src/iothubtransportamqp_methods.c ****                                                         }
 444:Source\azure_iot_sdk\iothub_client\src/iothubtransportamqp_methods.c ****                                                         else
 445:Source\azure_iot_sdk\iothub_client\src/iothubtransportamqp_methods.c ****                                                         {
 446:Source\azure_iot_sdk\iothub_client\src/iothubtransportamqp_methods.c ****                                                             message_outcome = MESSAGE_OUTCOME_ACCEP
 926              		.loc 1 446 0
 927 032e 0027     		movs	r7, #0
 928              	.LVL164:
 929              	.L41:
 447:Source\azure_iot_sdk\iothub_client\src/iothubtransportamqp_methods.c ****                                                         }
 448:Source\azure_iot_sdk\iothub_client\src/iothubtransportamqp_methods.c ****                                                     }
 449:Source\azure_iot_sdk\iothub_client\src/iothubtransportamqp_methods.c ****                                                 }
 450:Source\azure_iot_sdk\iothub_client\src/iothubtransportamqp_methods.c **** 
 451:Source\azure_iot_sdk\iothub_client\src/iothubtransportamqp_methods.c ****                                                 amqpvalue_destroy(property_value);
 930              		.loc 1 451 0
 931 0330 0398     		ldr	r0, [sp, #12]
 932 0332 FFF7FEFF 		bl	amqpvalue_destroy
 933              	.LVL165:
 934              	.L38:
 935              	.LBE22:
 452:Source\azure_iot_sdk\iothub_client\src/iothubtransportamqp_methods.c ****                                             }
 453:Source\azure_iot_sdk\iothub_client\src/iothubtransportamqp_methods.c **** 
 454:Source\azure_iot_sdk\iothub_client\src/iothubtransportamqp_methods.c ****                                             amqpvalue_destroy(property_key);
 936              		.loc 1 454 0
 937 0336 0298     		ldr	r0, [sp, #8]
 938 0338 FFF7FEFF 		bl	amqpvalue_destroy
 939              	.LVL166:
 940              	.L33:
 941              	.LBE20:
 942              	.LBE26:
 455:Source\azure_iot_sdk\iothub_client\src/iothubtransportamqp_methods.c ****                                         }
 456:Source\azure_iot_sdk\iothub_client\src/iothubtransportamqp_methods.c ****                                     }
 457:Source\azure_iot_sdk\iothub_client\src/iothubtransportamqp_methods.c **** 
 458:Source\azure_iot_sdk\iothub_client\src/iothubtransportamqp_methods.c ****                                     application_properties_destroy(application_properties);
 943              		.loc 1 458 0
 944 033c 0598     		ldr	r0, [sp, #20]
 945 033e FFF7FEFF 		bl	amqpvalue_destroy
 946              	.LVL167:
 947 0342 04E0     		b	.L20
 948              	.LVL168:
 949              	.L48:
 950              	.LBE28:
 951              	.LBE30:
 952              	.LBE32:
 953              	.LBE35:
 308:Source\azure_iot_sdk\iothub_client\src/iothubtransportamqp_methods.c ****                 }
ARM GAS  C:\Users\Phuong\AppData\Local\Temp\ccu7x7Ah.s 			page 26


 954              		.loc 1 308 0
 955 0344 0227     		movs	r7, #2
 956              	.LVL169:
 957              	.LBE40:
 958              	.LBE45:
 267:Source\azure_iot_sdk\iothub_client\src/iothubtransportamqp_methods.c ****     IOTHUBTRANSPORT_AMQP_METHODS_HANDLE amqp_methods_handle = (IOTHUBTRANSPORT_AMQP_METHODS_HANDLE)
 959              		.loc 1 267 0
 960 0346 0024     		movs	r4, #0
 961 0348 01E0     		b	.L20
 962              	.LVL170:
 963              	.L49:
 964              	.LBB46:
 965              	.LBB41:
 966              	.LBB36:
 320:Source\azure_iot_sdk\iothub_client\src/iothubtransportamqp_methods.c ****                     }
 967              		.loc 1 320 0
 968 034a 0227     		movs	r7, #2
 969              	.LVL171:
 970              	.LBE36:
 971              	.LBE41:
 972              	.LBE46:
 267:Source\azure_iot_sdk\iothub_client\src/iothubtransportamqp_methods.c ****     IOTHUBTRANSPORT_AMQP_METHODS_HANDLE amqp_methods_handle = (IOTHUBTRANSPORT_AMQP_METHODS_HANDLE)
 973              		.loc 1 267 0
 974 034c 0024     		movs	r4, #0
 975              	.LVL172:
 976              	.L20:
 977              	.LBB47:
 459:Source\azure_iot_sdk\iothub_client\src/iothubtransportamqp_methods.c ****                                 }
 460:Source\azure_iot_sdk\iothub_client\src/iothubtransportamqp_methods.c ****                             }
 461:Source\azure_iot_sdk\iothub_client\src/iothubtransportamqp_methods.c ****                         }
 462:Source\azure_iot_sdk\iothub_client\src/iothubtransportamqp_methods.c ****                     }
 463:Source\azure_iot_sdk\iothub_client\src/iothubtransportamqp_methods.c ****                 }
 464:Source\azure_iot_sdk\iothub_client\src/iothubtransportamqp_methods.c ****             }
 465:Source\azure_iot_sdk\iothub_client\src/iothubtransportamqp_methods.c **** 
 466:Source\azure_iot_sdk\iothub_client\src/iothubtransportamqp_methods.c ****             properties_destroy(properties);
 978              		.loc 1 466 0 discriminator 2
 979 034e 0998     		ldr	r0, [sp, #36]
 980 0350 FFF7FEFF 		bl	properties_destroy
 981              	.LVL173:
 982 0354 28E0     		b	.L15
 983              	.L52:
 984 0356 C046     		.align	2
 985              	.L51:
 986 0358 48000000 		.word	.LC3
 987 035c 00000000 		.word	.LANCHOR0
 988 0360 00000000 		.word	.LC1
 989 0364 58000000 		.word	.LC5
 990 0368 7C000000 		.word	.LC7
 991 036c 90000000 		.word	.LC9
 992 0370 B0000000 		.word	.LC11
 993 0374 D0000000 		.word	.LC13
 994 0378 F4000000 		.word	.LC15
 995 037c 20010000 		.word	.LC17
 996 0380 4C010000 		.word	.LC19
 997 0384 70010000 		.word	.LC21
 998 0388 98010000 		.word	.LC23
 999 038c AC010000 		.word	.LC25
ARM GAS  C:\Users\Phuong\AppData\Local\Temp\ccu7x7Ah.s 			page 27


 1000 0390 DC010000 		.word	.LC27
 1001 0394 20020000 		.word	.LC29
 1002 0398 54020000 		.word	.LC31
 1003 039c 80020000 		.word	.LC33
 1004 03a0 B0020000 		.word	.LC35
 1005              	.LVL174:
 1006              	.L47:
 1007              	.LBE47:
 275:Source\azure_iot_sdk\iothub_client\src/iothubtransportamqp_methods.c ****     }
 1008              		.loc 1 275 0
 1009 03a4 0227     		movs	r7, #2
 267:Source\azure_iot_sdk\iothub_client\src/iothubtransportamqp_methods.c ****     IOTHUBTRANSPORT_AMQP_METHODS_HANDLE amqp_methods_handle = (IOTHUBTRANSPORT_AMQP_METHODS_HANDLE)
 1010              		.loc 1 267 0
 1011 03a6 0024     		movs	r4, #0
 1012              	.LVL175:
 1013              	.L15:
 467:Source\azure_iot_sdk\iothub_client\src/iothubtransportamqp_methods.c ****         }
 468:Source\azure_iot_sdk\iothub_client\src/iothubtransportamqp_methods.c ****     }
 469:Source\azure_iot_sdk\iothub_client\src/iothubtransportamqp_methods.c **** 
 470:Source\azure_iot_sdk\iothub_client\src/iothubtransportamqp_methods.c ****     switch (message_outcome)
 1014              		.loc 1 470 0
 1015 03a8 022F     		cmp	r7, #2
 1016 03aa 05D1     		bne	.L45
 471:Source\azure_iot_sdk\iothub_client\src/iothubtransportamqp_methods.c ****     {
 472:Source\azure_iot_sdk\iothub_client\src/iothubtransportamqp_methods.c ****     default:
 473:Source\azure_iot_sdk\iothub_client\src/iothubtransportamqp_methods.c ****         break;
 474:Source\azure_iot_sdk\iothub_client\src/iothubtransportamqp_methods.c **** 
 475:Source\azure_iot_sdk\iothub_client\src/iothubtransportamqp_methods.c ****     case MESSAGE_OUTCOME_RELEASED:
 476:Source\azure_iot_sdk\iothub_client\src/iothubtransportamqp_methods.c ****         /* Codes_SRS_IOTHUBTRANSPORT_AMQP_METHODS_01_129: [ The released outcome shall be created b
 477:Source\azure_iot_sdk\iothub_client\src/iothubtransportamqp_methods.c ****         result = messaging_delivery_released();
 1017              		.loc 1 477 0
 1018 03ac FFF7FEFF 		bl	messaging_delivery_released
 1019              	.LVL176:
 1020 03b0 0400     		movs	r4, r0
 1021              	.LVL177:
 478:Source\azure_iot_sdk\iothub_client\src/iothubtransportamqp_methods.c **** 
 479:Source\azure_iot_sdk\iothub_client\src/iothubtransportamqp_methods.c ****         /* Codes_SRS_IOTHUBTRANSPORT_AMQP_METHODS_01_128: [ When the RELEASED outcome is returned, 
 480:Source\azure_iot_sdk\iothub_client\src/iothubtransportamqp_methods.c ****         /* Codes_SRS_IOTHUBTRANSPORT_AMQP_METHODS_01_042: [ When an error is indicated by calling t
 481:Source\azure_iot_sdk\iothub_client\src/iothubtransportamqp_methods.c ****         amqp_methods_handle->on_methods_error(amqp_methods_handle->on_methods_error_context);
 1022              		.loc 1 481 0
 1023 03b2 6B6A     		ldr	r3, [r5, #36]
 1024 03b4 A86A     		ldr	r0, [r5, #40]
 1025              	.LVL178:
 1026 03b6 9847     		blx	r3
 1027              	.LVL179:
 1028              	.L45:
 482:Source\azure_iot_sdk\iothub_client\src/iothubtransportamqp_methods.c ****         break;
 483:Source\azure_iot_sdk\iothub_client\src/iothubtransportamqp_methods.c **** 
 484:Source\azure_iot_sdk\iothub_client\src/iothubtransportamqp_methods.c ****     case MESSAGE_OUTCOME_REJECTED:
 485:Source\azure_iot_sdk\iothub_client\src/iothubtransportamqp_methods.c ****     case MESSAGE_OUTCOME_ACCEPTED:
 486:Source\azure_iot_sdk\iothub_client\src/iothubtransportamqp_methods.c ****         /* all is well */
 487:Source\azure_iot_sdk\iothub_client\src/iothubtransportamqp_methods.c ****         break;
 488:Source\azure_iot_sdk\iothub_client\src/iothubtransportamqp_methods.c ****     }
 489:Source\azure_iot_sdk\iothub_client\src/iothubtransportamqp_methods.c **** 
 490:Source\azure_iot_sdk\iothub_client\src/iothubtransportamqp_methods.c ****     return result;
 491:Source\azure_iot_sdk\iothub_client\src/iothubtransportamqp_methods.c **** }
 1029              		.loc 1 491 0
ARM GAS  C:\Users\Phuong\AppData\Local\Temp\ccu7x7Ah.s 			page 28


 1030 03b8 2000     		movs	r0, r4
 1031 03ba 0AB0     		add	sp, sp, #40
 1032              		@ sp needed
 1033              	.LVL180:
 1034              	.LVL181:
 1035              	.LVL182:
 1036 03bc 04BC     		pop	{r2}
 1037 03be 9146     		mov	r9, r2
 1038 03c0 F0BD     		pop	{r4, r5, r6, r7, pc}
 1039              		.cfi_endproc
 1040              	.LFE8:
 1041              		.size	on_message_received, .-on_message_received
 1042 03c2 C046     		.section	.text.remove_tracked_handle,"ax",%progbits
 1043              		.align	2
 1044              		.code	16
 1045              		.thumb_func
 1046              		.type	remove_tracked_handle, %function
 1047              	remove_tracked_handle:
 1048              	.LFB1:
  61:Source\azure_iot_sdk\iothub_client\src/iothubtransportamqp_methods.c ****     size_t i;
 1049              		.loc 1 61 0
 1050              		.cfi_startproc
 1051              		@ args = 0, pretend = 0, frame = 0
 1052              		@ frame_needed = 0, uses_anonymous_args = 0
 1053              	.LVL183:
 1054 0000 70B5     		push	{r4, r5, r6, lr}
 1055              		.cfi_def_cfa_offset 16
 1056              		.cfi_offset 4, -16
 1057              		.cfi_offset 5, -12
 1058              		.cfi_offset 6, -8
 1059              		.cfi_offset 14, -4
 1060 0002 0500     		movs	r5, r0
 1061 0004 0E00     		movs	r6, r1
 1062              	.LVL184:
  64:Source\azure_iot_sdk\iothub_client\src/iothubtransportamqp_methods.c ****     {
 1063              		.loc 1 64 0
 1064 0006 0024     		movs	r4, #0
 1065 0008 16E0     		b	.L54
 1066              	.LVL185:
 1067              	.L57:
  66:Source\azure_iot_sdk\iothub_client\src/iothubtransportamqp_methods.c ****         {
 1068              		.loc 1 66 0
 1069 000a AB6B     		ldr	r3, [r5, #56]
 1070 000c A000     		lsls	r0, r4, #2
 1071 000e 1818     		adds	r0, r3, r0
 1072 0010 0168     		ldr	r1, [r0]
 1073 0012 B142     		cmp	r1, r6
 1074 0014 0FD1     		bne	.L55
  68:Source\azure_iot_sdk\iothub_client\src/iothubtransportamqp_methods.c ****             {
 1075              		.loc 1 68 0
 1076 0016 121B     		subs	r2, r2, r4
 1077 0018 012A     		cmp	r2, #1
 1078 001a 08D9     		bls	.L56
  70:Source\azure_iot_sdk\iothub_client\src/iothubtransportamqp_methods.c ****                     (amqp_methods_handle->method_request_handle_count - i - 1) * sizeof(IOTHUBTRANS
 1079              		.loc 1 70 0
 1080 001c 611C     		adds	r1, r4, #1
 1081 001e 8900     		lsls	r1, r1, #2
ARM GAS  C:\Users\Phuong\AppData\Local\Temp\ccu7x7Ah.s 			page 29


 1082 0020 5918     		adds	r1, r3, r1
 1083 0022 0F4B     		ldr	r3, .L60
 1084 0024 9C46     		mov	ip, r3
 1085 0026 6244     		add	r2, r2, ip
 1086 0028 9200     		lsls	r2, r2, #2
 1087 002a FFF7FEFF 		bl	memmove
 1088              	.LVL186:
 1089              	.L56:
  74:Source\azure_iot_sdk\iothub_client\src/iothubtransportamqp_methods.c ****             i--;
 1090              		.loc 1 74 0
 1091 002e EB6B     		ldr	r3, [r5, #60]
 1092 0030 013B     		subs	r3, r3, #1
 1093 0032 EB63     		str	r3, [r5, #60]
  75:Source\azure_iot_sdk\iothub_client\src/iothubtransportamqp_methods.c ****         }
 1094              		.loc 1 75 0
 1095 0034 013C     		subs	r4, r4, #1
 1096              	.LVL187:
 1097              	.L55:
  64:Source\azure_iot_sdk\iothub_client\src/iothubtransportamqp_methods.c ****     {
 1098              		.loc 1 64 0 discriminator 2
 1099 0036 0134     		adds	r4, r4, #1
 1100              	.LVL188:
 1101              	.L54:
  64:Source\azure_iot_sdk\iothub_client\src/iothubtransportamqp_methods.c ****     {
 1102              		.loc 1 64 0 is_stmt 0 discriminator 1
 1103 0038 EA6B     		ldr	r2, [r5, #60]
 1104 003a 9442     		cmp	r4, r2
 1105 003c E5D3     		bcc	.L57
  79:Source\azure_iot_sdk\iothub_client\src/iothubtransportamqp_methods.c ****     {
 1106              		.loc 1 79 0 is_stmt 1
 1107 003e 002A     		cmp	r2, #0
 1108 0040 05D1     		bne	.L58
  81:Source\azure_iot_sdk\iothub_client\src/iothubtransportamqp_methods.c ****         amqp_methods_handle->method_request_handles = NULL;
 1109              		.loc 1 81 0
 1110 0042 A86B     		ldr	r0, [r5, #56]
 1111 0044 FFF7FEFF 		bl	free
 1112              	.LVL189:
  82:Source\azure_iot_sdk\iothub_client\src/iothubtransportamqp_methods.c ****     }
 1113              		.loc 1 82 0
 1114 0048 0023     		movs	r3, #0
 1115 004a AB63     		str	r3, [r5, #56]
 1116 004c 06E0     		b	.L53
 1117              	.L58:
 1118              	.LBB48:
  86:Source\azure_iot_sdk\iothub_client\src/iothubtransportamqp_methods.c ****         if (new_handles != NULL)
 1119              		.loc 1 86 0
 1120 004e 9100     		lsls	r1, r2, #2
 1121 0050 A86B     		ldr	r0, [r5, #56]
 1122 0052 FFF7FEFF 		bl	realloc
 1123              	.LVL190:
  87:Source\azure_iot_sdk\iothub_client\src/iothubtransportamqp_methods.c ****         {
 1124              		.loc 1 87 0
 1125 0056 0028     		cmp	r0, #0
 1126 0058 00D0     		beq	.L53
  89:Source\azure_iot_sdk\iothub_client\src/iothubtransportamqp_methods.c ****         }
 1127              		.loc 1 89 0
 1128 005a A863     		str	r0, [r5, #56]
ARM GAS  C:\Users\Phuong\AppData\Local\Temp\ccu7x7Ah.s 			page 30


 1129              	.LVL191:
 1130              	.L53:
 1131              	.LBE48:
  92:Source\azure_iot_sdk\iothub_client\src/iothubtransportamqp_methods.c **** 
 1132              		.loc 1 92 0
 1133              		@ sp needed
 1134              	.LVL192:
 1135              	.LVL193:
 1136              	.LVL194:
 1137 005c 70BD     		pop	{r4, r5, r6, pc}
 1138              	.L61:
 1139 005e C046     		.align	2
 1140              	.L60:
 1141 0060 FFFFFF3F 		.word	1073741823
 1142              		.cfi_endproc
 1143              	.LFE1:
 1144              		.size	remove_tracked_handle, .-remove_tracked_handle
 1145              		.section	.text.iothubtransportamqp_methods_create,"ax",%progbits
 1146              		.align	2
 1147              		.global	iothubtransportamqp_methods_create
 1148              		.code	16
 1149              		.thumb_func
 1150              		.type	iothubtransportamqp_methods_create, %function
 1151              	iothubtransportamqp_methods_create:
 1152              	.LFB2:
  95:Source\azure_iot_sdk\iothub_client\src/iothubtransportamqp_methods.c ****     IOTHUBTRANSPORT_AMQP_METHODS* result;
 1153              		.loc 1 95 0
 1154              		.cfi_startproc
 1155              		@ args = 0, pretend = 0, frame = 0
 1156              		@ frame_needed = 0, uses_anonymous_args = 0
 1157              	.LVL195:
 1158 0000 F0B5     		push	{r4, r5, r6, r7, lr}
 1159              		.cfi_def_cfa_offset 20
 1160              		.cfi_offset 4, -20
 1161              		.cfi_offset 5, -16
 1162              		.cfi_offset 6, -12
 1163              		.cfi_offset 7, -8
 1164              		.cfi_offset 14, -4
 1165 0002 85B0     		sub	sp, sp, #20
 1166              		.cfi_def_cfa_offset 40
 1167 0004 0500     		movs	r5, r0
 1168 0006 0E00     		movs	r6, r1
 1169 0008 1700     		movs	r7, r2
  98:Source\azure_iot_sdk\iothub_client\src/iothubtransportamqp_methods.c ****         (device_id == NULL))
 1170              		.loc 1 98 0
 1171 000a 0028     		cmp	r0, #0
 1172 000c 01D0     		beq	.L63
  98:Source\azure_iot_sdk\iothub_client\src/iothubtransportamqp_methods.c ****         (device_id == NULL))
 1173              		.loc 1 98 0 is_stmt 0 discriminator 1
 1174 000e 0029     		cmp	r1, #0
 1175 0010 12D1     		bne	.L64
 1176              	.L63:
 1177              	.LVL196:
 1178              	.LBB49:
 103:Source\azure_iot_sdk\iothub_client\src/iothubtransportamqp_methods.c ****     }
 1179              		.loc 1 103 0 is_stmt 1
 1180 0012 FFF7FEFF 		bl	xlogging_get_log_function
ARM GAS  C:\Users\Phuong\AppData\Local\Temp\ccu7x7Ah.s 			page 31


 1181              	.LVL197:
 1182 0016 041E     		subs	r4, r0, #0
 1183              	.LVL198:
 1184 0018 00D1     		bne	.LCB1269
 1185 001a 86E0     		b	.L73	@long jump
 1186              	.LCB1269:
 103:Source\azure_iot_sdk\iothub_client\src/iothubtransportamqp_methods.c ****     }
 1187              		.loc 1 103 0 is_stmt 0 discriminator 4
 1188 001c 0396     		str	r6, [sp, #12]
 1189 001e 0295     		str	r5, [sp, #8]
 1190 0020 444B     		ldr	r3, .L74
 1191 0022 0193     		str	r3, [sp, #4]
 1192 0024 0123     		movs	r3, #1
 1193 0026 0093     		str	r3, [sp]
 1194 0028 6633     		adds	r3, r3, #102
 1195 002a 434A     		ldr	r2, .L74+4
 1196 002c 1432     		adds	r2, r2, #20
 1197 002e 4349     		ldr	r1, .L74+8
 1198 0030 0020     		movs	r0, #0
 1199              	.LVL199:
 1200 0032 A047     		blx	r4
 1201              	.LVL200:
 1202              	.LBE49:
 102:Source\azure_iot_sdk\iothub_client\src/iothubtransportamqp_methods.c ****         LogError("Bad arguments: hostname=%p, device_id=%p", hostname, device_id);
 1203              		.loc 1 102 0 is_stmt 1 discriminator 4
 1204 0034 0024     		movs	r4, #0
 1205              	.LVL201:
 1206 0036 79E0     		b	.L65
 1207              	.LVL202:
 1208              	.L64:
 109:Source\azure_iot_sdk\iothub_client\src/iothubtransportamqp_methods.c ****         if (result == NULL)
 1209              		.loc 1 109 0
 1210 0038 4420     		movs	r0, #68
 1211              	.LVL203:
 1212 003a FFF7FEFF 		bl	malloc
 1213              	.LVL204:
 1214 003e 041E     		subs	r4, r0, #0
 1215              	.LVL205:
 110:Source\azure_iot_sdk\iothub_client\src/iothubtransportamqp_methods.c ****         {
 1216              		.loc 1 110 0
 1217 0040 0ED1     		bne	.L66
 1218              	.LBB50:
 113:Source\azure_iot_sdk\iothub_client\src/iothubtransportamqp_methods.c ****         }
 1219              		.loc 1 113 0 discriminator 3
 1220 0042 FFF7FEFF 		bl	xlogging_get_log_function
 1221              	.LVL206:
 1222 0046 051E     		subs	r5, r0, #0
 1223              	.LVL207:
 1224 0048 70D0     		beq	.L65
 113:Source\azure_iot_sdk\iothub_client\src/iothubtransportamqp_methods.c ****         }
 1225              		.loc 1 113 0 is_stmt 0 discriminator 4
 1226 004a 3D4B     		ldr	r3, .L74+12
 1227 004c 0193     		str	r3, [sp, #4]
 1228 004e 0123     		movs	r3, #1
 1229 0050 0093     		str	r3, [sp]
 1230 0052 7033     		adds	r3, r3, #112
 1231 0054 384A     		ldr	r2, .L74+4
ARM GAS  C:\Users\Phuong\AppData\Local\Temp\ccu7x7Ah.s 			page 32


 1232 0056 1432     		adds	r2, r2, #20
 1233 0058 3849     		ldr	r1, .L74+8
 1234 005a 0020     		movs	r0, #0
 1235              	.LVL208:
 1236 005c A847     		blx	r5
 1237              	.LVL209:
 1238 005e 65E0     		b	.L65
 1239              	.LVL210:
 1240              	.L66:
 1241              	.LBE50:
 117:Source\azure_iot_sdk\iothub_client\src/iothubtransportamqp_methods.c **** 
 1242              		.loc 1 117 0 is_stmt 1
 1243 0060 4422     		movs	r2, #68
 1244 0062 0021     		movs	r1, #0
 1245 0064 FFF7FEFF 		bl	memset
 1246              	.LVL211:
 120:Source\azure_iot_sdk\iothub_client\src/iothubtransportamqp_methods.c ****             {
 1247              		.loc 1 120 0
 1248 0068 3100     		movs	r1, r6
 1249 006a 2000     		movs	r0, r4
 1250 006c FFF7FEFF 		bl	mallocAndStrcpy_s
 1251              	.LVL212:
 1252 0070 0028     		cmp	r0, #0
 1253 0072 12D0     		beq	.L67
 1254              	.LBB51:
 123:Source\azure_iot_sdk\iothub_client\src/iothubtransportamqp_methods.c ****                 free(result);
 1255              		.loc 1 123 0 discriminator 3
 1256 0074 FFF7FEFF 		bl	xlogging_get_log_function
 1257              	.LVL213:
 1258 0078 051E     		subs	r5, r0, #0
 1259              	.LVL214:
 1260 007a 09D0     		beq	.L68
 123:Source\azure_iot_sdk\iothub_client\src/iothubtransportamqp_methods.c ****                 free(result);
 1261              		.loc 1 123 0 is_stmt 0 discriminator 4
 1262 007c 314B     		ldr	r3, .L74+16
 1263 007e 0193     		str	r3, [sp, #4]
 1264 0080 0123     		movs	r3, #1
 1265 0082 0093     		str	r3, [sp]
 1266 0084 7A33     		adds	r3, r3, #122
 1267 0086 2C4A     		ldr	r2, .L74+4
 1268 0088 1432     		adds	r2, r2, #20
 1269 008a 2C49     		ldr	r1, .L74+8
 1270 008c 0020     		movs	r0, #0
 1271              	.LVL215:
 1272 008e A847     		blx	r5
 1273              	.LVL216:
 1274              	.L68:
 1275              	.LBE51:
 124:Source\azure_iot_sdk\iothub_client\src/iothubtransportamqp_methods.c ****                 result = NULL;
 1276              		.loc 1 124 0 is_stmt 1
 1277 0090 2000     		movs	r0, r4
 1278 0092 FFF7FEFF 		bl	free
 1279              	.LVL217:
 125:Source\azure_iot_sdk\iothub_client\src/iothubtransportamqp_methods.c ****             }
 1280              		.loc 1 125 0
 1281 0096 0024     		movs	r4, #0
 1282 0098 48E0     		b	.L65
ARM GAS  C:\Users\Phuong\AppData\Local\Temp\ccu7x7Ah.s 			page 33


 1283              	.LVL218:
 1284              	.L67:
 127:Source\azure_iot_sdk\iothub_client\src/iothubtransportamqp_methods.c ****             {
 1285              		.loc 1 127 0
 1286 009a 002F     		cmp	r7, #0
 1287 009c 1BD0     		beq	.L69
 127:Source\azure_iot_sdk\iothub_client\src/iothubtransportamqp_methods.c ****             {
 1288              		.loc 1 127 0 is_stmt 0 discriminator 1
 1289 009e 201D     		adds	r0, r4, #4
 1290 00a0 3900     		movs	r1, r7
 1291 00a2 FFF7FEFF 		bl	mallocAndStrcpy_s
 1292              	.LVL219:
 1293 00a6 0028     		cmp	r0, #0
 1294 00a8 15D0     		beq	.L69
 1295              	.LBB52:
 130:Source\azure_iot_sdk\iothub_client\src/iothubtransportamqp_methods.c ****                 free(result->device_id);
 1296              		.loc 1 130 0 is_stmt 1 discriminator 3
 1297 00aa FFF7FEFF 		bl	xlogging_get_log_function
 1298              	.LVL220:
 1299 00ae 051E     		subs	r5, r0, #0
 1300              	.LVL221:
 1301 00b0 09D0     		beq	.L70
 130:Source\azure_iot_sdk\iothub_client\src/iothubtransportamqp_methods.c ****                 free(result->device_id);
 1302              		.loc 1 130 0 is_stmt 0 discriminator 4
 1303 00b2 244B     		ldr	r3, .L74+16
 1304 00b4 0193     		str	r3, [sp, #4]
 1305 00b6 0123     		movs	r3, #1
 1306 00b8 0093     		str	r3, [sp]
 1307 00ba 8133     		adds	r3, r3, #129
 1308 00bc 1E4A     		ldr	r2, .L74+4
 1309 00be 1432     		adds	r2, r2, #20
 1310 00c0 1E49     		ldr	r1, .L74+8
 1311 00c2 0020     		movs	r0, #0
 1312              	.LVL222:
 1313 00c4 A847     		blx	r5
 1314              	.LVL223:
 1315              	.L70:
 1316              	.LBE52:
 131:Source\azure_iot_sdk\iothub_client\src/iothubtransportamqp_methods.c ****                 free(result);
 1317              		.loc 1 131 0 is_stmt 1
 1318 00c6 2068     		ldr	r0, [r4]
 1319 00c8 FFF7FEFF 		bl	free
 1320              	.LVL224:
 132:Source\azure_iot_sdk\iothub_client\src/iothubtransportamqp_methods.c ****                 result = NULL;
 1321              		.loc 1 132 0
 1322 00cc 2000     		movs	r0, r4
 1323 00ce FFF7FEFF 		bl	free
 1324              	.LVL225:
 133:Source\azure_iot_sdk\iothub_client\src/iothubtransportamqp_methods.c ****             }
 1325              		.loc 1 133 0
 1326 00d2 0024     		movs	r4, #0
 1327 00d4 2AE0     		b	.L65
 1328              	.LVL226:
 1329              	.L69:
 138:Source\azure_iot_sdk\iothub_client\src/iothubtransportamqp_methods.c ****                 {
 1330              		.loc 1 138 0
 1331 00d6 2000     		movs	r0, r4
ARM GAS  C:\Users\Phuong\AppData\Local\Temp\ccu7x7Ah.s 			page 34


 1332 00d8 0830     		adds	r0, r0, #8
 1333 00da 2900     		movs	r1, r5
 1334 00dc FFF7FEFF 		bl	mallocAndStrcpy_s
 1335              	.LVL227:
 1336 00e0 0028     		cmp	r0, #0
 1337 00e2 18D0     		beq	.L71
 1338              	.LBB53:
 141:Source\azure_iot_sdk\iothub_client\src/iothubtransportamqp_methods.c ****                     free(result->device_id);
 1339              		.loc 1 141 0 discriminator 3
 1340 00e4 FFF7FEFF 		bl	xlogging_get_log_function
 1341              	.LVL228:
 1342 00e8 051E     		subs	r5, r0, #0
 1343              	.LVL229:
 1344 00ea 09D0     		beq	.L72
 141:Source\azure_iot_sdk\iothub_client\src/iothubtransportamqp_methods.c ****                     free(result->device_id);
 1345              		.loc 1 141 0 is_stmt 0 discriminator 4
 1346 00ec 164B     		ldr	r3, .L74+20
 1347 00ee 0193     		str	r3, [sp, #4]
 1348 00f0 0123     		movs	r3, #1
 1349 00f2 0093     		str	r3, [sp]
 1350 00f4 8C33     		adds	r3, r3, #140
 1351 00f6 104A     		ldr	r2, .L74+4
 1352 00f8 1432     		adds	r2, r2, #20
 1353 00fa 1049     		ldr	r1, .L74+8
 1354 00fc 0020     		movs	r0, #0
 1355              	.LVL230:
 1356 00fe A847     		blx	r5
 1357              	.LVL231:
 1358              	.L72:
 1359              	.LBE53:
 142:Source\azure_iot_sdk\iothub_client\src/iothubtransportamqp_methods.c ****                     free(result->module_id);
 1360              		.loc 1 142 0 is_stmt 1
 1361 0100 2068     		ldr	r0, [r4]
 1362 0102 FFF7FEFF 		bl	free
 1363              	.LVL232:
 143:Source\azure_iot_sdk\iothub_client\src/iothubtransportamqp_methods.c ****                     free(result);
 1364              		.loc 1 143 0
 1365 0106 6068     		ldr	r0, [r4, #4]
 1366 0108 FFF7FEFF 		bl	free
 1367              	.LVL233:
 144:Source\azure_iot_sdk\iothub_client\src/iothubtransportamqp_methods.c ****                     result = NULL;
 1368              		.loc 1 144 0
 1369 010c 2000     		movs	r0, r4
 1370 010e FFF7FEFF 		bl	free
 1371              	.LVL234:
 145:Source\azure_iot_sdk\iothub_client\src/iothubtransportamqp_methods.c ****                 }
 1372              		.loc 1 145 0
 1373 0112 0024     		movs	r4, #0
 1374 0114 0AE0     		b	.L65
 1375              	.LVL235:
 1376              	.L71:
 149:Source\azure_iot_sdk\iothub_client\src/iothubtransportamqp_methods.c ****                     result->method_request_handles = NULL;
 1377              		.loc 1 149 0
 1378 0116 0023     		movs	r3, #0
 1379 0118 3422     		movs	r2, #52
 1380 011a A354     		strb	r3, [r4, r2]
 150:Source\azure_iot_sdk\iothub_client\src/iothubtransportamqp_methods.c ****                     result->method_request_handle_count = 0;
ARM GAS  C:\Users\Phuong\AppData\Local\Temp\ccu7x7Ah.s 			page 35


 1381              		.loc 1 150 0
 1382 011c A363     		str	r3, [r4, #56]
 151:Source\azure_iot_sdk\iothub_client\src/iothubtransportamqp_methods.c ****                     result->receiver_link_disconnected = false;
 1383              		.loc 1 151 0
 1384 011e E363     		str	r3, [r4, #60]
 152:Source\azure_iot_sdk\iothub_client\src/iothubtransportamqp_methods.c ****                     result->sender_link_disconnected = false;
 1385              		.loc 1 152 0
 1386 0120 0C32     		adds	r2, r2, #12
 1387 0122 A354     		strb	r3, [r4, r2]
 153:Source\azure_iot_sdk\iothub_client\src/iothubtransportamqp_methods.c ****                 }
 1388              		.loc 1 153 0
 1389 0124 0132     		adds	r2, r2, #1
 1390 0126 A354     		strb	r3, [r4, r2]
 1391 0128 00E0     		b	.L65
 1392              	.LVL236:
 1393              	.L73:
 102:Source\azure_iot_sdk\iothub_client\src/iothubtransportamqp_methods.c ****         LogError("Bad arguments: hostname=%p, device_id=%p", hostname, device_id);
 1394              		.loc 1 102 0
 1395 012a 0024     		movs	r4, #0
 1396              	.LVL237:
 1397              	.L65:
 160:Source\azure_iot_sdk\iothub_client\src/iothubtransportamqp_methods.c **** 
 1398              		.loc 1 160 0
 1399 012c 2000     		movs	r0, r4
 1400 012e 05B0     		add	sp, sp, #20
 1401              		@ sp needed
 1402              	.LVL238:
 1403              	.LVL239:
 1404              	.LVL240:
 1405 0130 F0BD     		pop	{r4, r5, r6, r7, pc}
 1406              	.L75:
 1407 0132 C046     		.align	2
 1408              	.L74:
 1409 0134 C4020000 		.word	.LC39
 1410 0138 00000000 		.word	.LANCHOR0
 1411 013c 00000000 		.word	.LC1
 1412 0140 F0020000 		.word	.LC41
 1413 0144 24030000 		.word	.LC43
 1414 0148 3C030000 		.word	.LC45
 1415              		.cfi_endproc
 1416              	.LFE2:
 1417              		.size	iothubtransportamqp_methods_create, .-iothubtransportamqp_methods_create
 1418              		.section	.text.create_correlation_id,"ax",%progbits
 1419              		.align	2
 1420              		.global	create_correlation_id
 1421              		.code	16
 1422              		.thumb_func
 1423              		.type	create_correlation_id, %function
 1424              	create_correlation_id:
 1425              	.LFB9:
 492:Source\azure_iot_sdk\iothub_client\src/iothubtransportamqp_methods.c **** 
 493:Source\azure_iot_sdk\iothub_client\src/iothubtransportamqp_methods.c **** STRING_HANDLE create_correlation_id(IOTHUBTRANSPORT_AMQP_METHODS_HANDLE iothubtransport_amqp_method
 494:Source\azure_iot_sdk\iothub_client\src/iothubtransportamqp_methods.c **** {
 1426              		.loc 1 494 0
 1427              		.cfi_startproc
 1428              		@ args = 0, pretend = 0, frame = 0
 1429              		@ frame_needed = 0, uses_anonymous_args = 0
ARM GAS  C:\Users\Phuong\AppData\Local\Temp\ccu7x7Ah.s 			page 36


 1430              	.LVL241:
 1431 0000 10B5     		push	{r4, lr}
 1432              		.cfi_def_cfa_offset 8
 1433              		.cfi_offset 4, -8
 1434              		.cfi_offset 14, -4
 495:Source\azure_iot_sdk\iothub_client\src/iothubtransportamqp_methods.c ****     if (iothubtransport_amqp_methods_handle->module_id != NULL)
 1435              		.loc 1 495 0
 1436 0002 4268     		ldr	r2, [r0, #4]
 1437 0004 002A     		cmp	r2, #0
 1438 0006 04D0     		beq	.L77
 496:Source\azure_iot_sdk\iothub_client\src/iothubtransportamqp_methods.c ****     {
 497:Source\azure_iot_sdk\iothub_client\src/iothubtransportamqp_methods.c ****         return STRING_construct_sprintf("%s/%s", iothubtransport_amqp_methods_handle->device_id, io
 1439              		.loc 1 497 0
 1440 0008 0168     		ldr	r1, [r0]
 1441 000a 0448     		ldr	r0, .L79
 1442              	.LVL242:
 1443 000c FFF7FEFF 		bl	STRING_construct_sprintf
 1444              	.LVL243:
 1445 0010 02E0     		b	.L78
 1446              	.LVL244:
 1447              	.L77:
 498:Source\azure_iot_sdk\iothub_client\src/iothubtransportamqp_methods.c ****     }
 499:Source\azure_iot_sdk\iothub_client\src/iothubtransportamqp_methods.c ****     else
 500:Source\azure_iot_sdk\iothub_client\src/iothubtransportamqp_methods.c ****     {
 501:Source\azure_iot_sdk\iothub_client\src/iothubtransportamqp_methods.c ****         return STRING_construct(iothubtransport_amqp_methods_handle->device_id);
 1448              		.loc 1 501 0
 1449 0012 0068     		ldr	r0, [r0]
 1450              	.LVL245:
 1451 0014 FFF7FEFF 		bl	STRING_construct
 1452              	.LVL246:
 1453              	.L78:
 502:Source\azure_iot_sdk\iothub_client\src/iothubtransportamqp_methods.c ****     }
 503:Source\azure_iot_sdk\iothub_client\src/iothubtransportamqp_methods.c **** }
 1454              		.loc 1 503 0
 1455              		@ sp needed
 1456 0018 10BD     		pop	{r4, pc}
 1457              	.L80:
 1458 001a C046     		.align	2
 1459              	.L79:
 1460 001c 54030000 		.word	.LC47
 1461              		.cfi_endproc
 1462              	.LFE9:
 1463              		.size	create_correlation_id, .-create_correlation_id
 1464              		.section	.text.set_link_attach_properties,"ax",%progbits
 1465              		.align	2
 1466              		.code	16
 1467              		.thumb_func
 1468              		.type	set_link_attach_properties, %function
 1469              	set_link_attach_properties:
 1470              	.LFB13:
 504:Source\azure_iot_sdk\iothub_client\src/iothubtransportamqp_methods.c **** 
 505:Source\azure_iot_sdk\iothub_client\src/iothubtransportamqp_methods.c **** STRING_HANDLE create_peer_endpoint_name(IOTHUBTRANSPORT_AMQP_METHODS_HANDLE iothubtransport_amqp_me
 506:Source\azure_iot_sdk\iothub_client\src/iothubtransportamqp_methods.c **** {
 507:Source\azure_iot_sdk\iothub_client\src/iothubtransportamqp_methods.c ****     if (iothubtransport_amqp_methods_handle->module_id != NULL)
 508:Source\azure_iot_sdk\iothub_client\src/iothubtransportamqp_methods.c ****     {
 509:Source\azure_iot_sdk\iothub_client\src/iothubtransportamqp_methods.c ****         return STRING_construct_sprintf("amqps://%s/devices/%s/modules/%s/methods/devicebound", iot
 510:Source\azure_iot_sdk\iothub_client\src/iothubtransportamqp_methods.c ****     }
ARM GAS  C:\Users\Phuong\AppData\Local\Temp\ccu7x7Ah.s 			page 37


 511:Source\azure_iot_sdk\iothub_client\src/iothubtransportamqp_methods.c ****     else
 512:Source\azure_iot_sdk\iothub_client\src/iothubtransportamqp_methods.c ****     {
 513:Source\azure_iot_sdk\iothub_client\src/iothubtransportamqp_methods.c ****         return STRING_construct_sprintf("amqps://%s/devices/%s/methods/devicebound", iothubtranspor
 514:Source\azure_iot_sdk\iothub_client\src/iothubtransportamqp_methods.c ****     }
 515:Source\azure_iot_sdk\iothub_client\src/iothubtransportamqp_methods.c **** }
 516:Source\azure_iot_sdk\iothub_client\src/iothubtransportamqp_methods.c **** 
 517:Source\azure_iot_sdk\iothub_client\src/iothubtransportamqp_methods.c **** STRING_HANDLE create_requests_link_name(IOTHUBTRANSPORT_AMQP_METHODS_HANDLE iothubtransport_amqp_me
 518:Source\azure_iot_sdk\iothub_client\src/iothubtransportamqp_methods.c **** {
 519:Source\azure_iot_sdk\iothub_client\src/iothubtransportamqp_methods.c ****     if (iothubtransport_amqp_methods_handle->module_id != NULL)
 520:Source\azure_iot_sdk\iothub_client\src/iothubtransportamqp_methods.c ****     {
 521:Source\azure_iot_sdk\iothub_client\src/iothubtransportamqp_methods.c ****         return STRING_construct_sprintf("methods_requests_link-%s/%s", iothubtransport_amqp_methods
 522:Source\azure_iot_sdk\iothub_client\src/iothubtransportamqp_methods.c ****     }
 523:Source\azure_iot_sdk\iothub_client\src/iothubtransportamqp_methods.c ****     else
 524:Source\azure_iot_sdk\iothub_client\src/iothubtransportamqp_methods.c ****     {
 525:Source\azure_iot_sdk\iothub_client\src/iothubtransportamqp_methods.c ****         return STRING_construct_sprintf("methods_requests_link-%s", iothubtransport_amqp_methods_ha
 526:Source\azure_iot_sdk\iothub_client\src/iothubtransportamqp_methods.c ****     }
 527:Source\azure_iot_sdk\iothub_client\src/iothubtransportamqp_methods.c **** }
 528:Source\azure_iot_sdk\iothub_client\src/iothubtransportamqp_methods.c **** 
 529:Source\azure_iot_sdk\iothub_client\src/iothubtransportamqp_methods.c **** STRING_HANDLE create_responses_link_name(IOTHUBTRANSPORT_AMQP_METHODS_HANDLE iothubtransport_amqp_m
 530:Source\azure_iot_sdk\iothub_client\src/iothubtransportamqp_methods.c **** {
 531:Source\azure_iot_sdk\iothub_client\src/iothubtransportamqp_methods.c ****     if (iothubtransport_amqp_methods_handle->module_id != NULL)
 532:Source\azure_iot_sdk\iothub_client\src/iothubtransportamqp_methods.c ****     {
 533:Source\azure_iot_sdk\iothub_client\src/iothubtransportamqp_methods.c ****         return STRING_construct_sprintf("methods_responses_link-%s/%s", iothubtransport_amqp_method
 534:Source\azure_iot_sdk\iothub_client\src/iothubtransportamqp_methods.c ****     }
 535:Source\azure_iot_sdk\iothub_client\src/iothubtransportamqp_methods.c ****     else
 536:Source\azure_iot_sdk\iothub_client\src/iothubtransportamqp_methods.c ****     {
 537:Source\azure_iot_sdk\iothub_client\src/iothubtransportamqp_methods.c ****         return STRING_construct_sprintf("methods_responses_link-%s", iothubtransport_amqp_methods_h
 538:Source\azure_iot_sdk\iothub_client\src/iothubtransportamqp_methods.c ****     }
 539:Source\azure_iot_sdk\iothub_client\src/iothubtransportamqp_methods.c **** }
 540:Source\azure_iot_sdk\iothub_client\src/iothubtransportamqp_methods.c **** 
 541:Source\azure_iot_sdk\iothub_client\src/iothubtransportamqp_methods.c **** 
 542:Source\azure_iot_sdk\iothub_client\src/iothubtransportamqp_methods.c **** 
 543:Source\azure_iot_sdk\iothub_client\src/iothubtransportamqp_methods.c **** static int set_link_attach_properties(IOTHUBTRANSPORT_AMQP_METHODS_HANDLE iothubtransport_amqp_meth
 544:Source\azure_iot_sdk\iothub_client\src/iothubtransportamqp_methods.c **** {
 1471              		.loc 1 544 0
 1472              		.cfi_startproc
 1473              		@ args = 0, pretend = 0, frame = 16
 1474              		@ frame_needed = 0, uses_anonymous_args = 0
 1475              	.LVL247:
 1476 0000 F0B5     		push	{r4, r5, r6, r7, lr}
 1477              		.cfi_def_cfa_offset 20
 1478              		.cfi_offset 4, -20
 1479              		.cfi_offset 5, -16
 1480              		.cfi_offset 6, -12
 1481              		.cfi_offset 7, -8
 1482              		.cfi_offset 14, -4
 1483 0002 4746     		mov	r7, r8
 1484 0004 80B4     		push	{r7}
 1485              		.cfi_def_cfa_offset 24
 1486              		.cfi_offset 8, -24
 1487 0006 86B0     		sub	sp, sp, #24
 1488              		.cfi_def_cfa_offset 48
 1489 0008 0290     		str	r0, [sp, #8]
 1490              	.LVL248:
 545:Source\azure_iot_sdk\iothub_client\src/iothubtransportamqp_methods.c ****     int result = 0;
 546:Source\azure_iot_sdk\iothub_client\src/iothubtransportamqp_methods.c ****     fields link_attach_properties;
 547:Source\azure_iot_sdk\iothub_client\src/iothubtransportamqp_methods.c **** 
ARM GAS  C:\Users\Phuong\AppData\Local\Temp\ccu7x7Ah.s 			page 38


 548:Source\azure_iot_sdk\iothub_client\src/iothubtransportamqp_methods.c ****     /* Codes_SRS_IOTHUBTRANSPORT_AMQP_METHODS_01_140: [ A link attach properties map shall be creat
 549:Source\azure_iot_sdk\iothub_client\src/iothubtransportamqp_methods.c ****     link_attach_properties = amqpvalue_create_map();
 1491              		.loc 1 549 0
 1492 000a FFF7FEFF 		bl	amqpvalue_create_map
 1493              	.LVL249:
 1494 000e 041E     		subs	r4, r0, #0
 1495              	.LVL250:
 550:Source\azure_iot_sdk\iothub_client\src/iothubtransportamqp_methods.c ****     if (link_attach_properties == NULL)
 1496              		.loc 1 550 0
 1497 0010 11D1     		bne	.L82
 1498              	.LBB54:
 551:Source\azure_iot_sdk\iothub_client\src/iothubtransportamqp_methods.c ****     {
 552:Source\azure_iot_sdk\iothub_client\src/iothubtransportamqp_methods.c ****         /* Codes_SRS_IOTHUBTRANSPORT_AMQP_METHODS_01_145: [ If any call for creating or setting the
 553:Source\azure_iot_sdk\iothub_client\src/iothubtransportamqp_methods.c ****         LogError("Cannot create the map for link attach properties");
 1499              		.loc 1 553 0 discriminator 3
 1500 0012 FFF7FEFF 		bl	xlogging_get_log_function
 1501              	.LVL251:
 1502 0016 041E     		subs	r4, r0, #0
 1503              	.LVL252:
 1504 0018 00D1     		bne	.LCB1606
 1505 001a 22E1     		b	.L97	@long jump
 1506              	.LCB1606:
 1507              		.loc 1 553 0 is_stmt 0 discriminator 4
 1508 001c 944B     		ldr	r3, .L108
 1509 001e 0193     		str	r3, [sp, #4]
 1510 0020 0123     		movs	r3, #1
 1511 0022 0093     		str	r3, [sp]
 1512 0024 934B     		ldr	r3, .L108+4
 1513 0026 944A     		ldr	r2, .L108+8
 1514 0028 3832     		adds	r2, r2, #56
 1515 002a 9449     		ldr	r1, .L108+12
 1516 002c 0020     		movs	r0, #0
 1517              	.LVL253:
 1518 002e A047     		blx	r4
 1519              	.LVL254:
 1520              	.LBE54:
 554:Source\azure_iot_sdk\iothub_client\src/iothubtransportamqp_methods.c ****         result = __FAILURE__;
 1521              		.loc 1 554 0 is_stmt 1 discriminator 4
 1522 0030 934B     		ldr	r3, .L108+16
 1523 0032 0293     		str	r3, [sp, #8]
 1524              	.LVL255:
 1525 0034 17E1     		b	.L83
 1526              	.LVL256:
 1527              	.L82:
 1528              	.LBB55:
 555:Source\azure_iot_sdk\iothub_client\src/iothubtransportamqp_methods.c ****     }
 556:Source\azure_iot_sdk\iothub_client\src/iothubtransportamqp_methods.c ****     else
 557:Source\azure_iot_sdk\iothub_client\src/iothubtransportamqp_methods.c ****     {
 558:Source\azure_iot_sdk\iothub_client\src/iothubtransportamqp_methods.c ****         /* Codes_SRS_IOTHUBTRANSPORT_AMQP_METHODS_01_141: [ A property key which shall be a symbol 
 559:Source\azure_iot_sdk\iothub_client\src/iothubtransportamqp_methods.c ****         AMQP_VALUE channel_correlation_id_property_key = amqpvalue_create_symbol("com.microsoft:cha
 1529              		.loc 1 559 0
 1530 0036 9348     		ldr	r0, .L108+20
 1531              	.LVL257:
 1532 0038 FFF7FEFF 		bl	amqpvalue_create_symbol
 1533              	.LVL258:
 1534 003c 051E     		subs	r5, r0, #0
 1535              	.LVL259:
ARM GAS  C:\Users\Phuong\AppData\Local\Temp\ccu7x7Ah.s 			page 39


 560:Source\azure_iot_sdk\iothub_client\src/iothubtransportamqp_methods.c ****         if (channel_correlation_id_property_key == NULL)
 1536              		.loc 1 560 0
 1537 003e 12D1     		bne	.L84
 1538              	.LBB56:
 561:Source\azure_iot_sdk\iothub_client\src/iothubtransportamqp_methods.c ****         {
 562:Source\azure_iot_sdk\iothub_client\src/iothubtransportamqp_methods.c ****             /* Codes_SRS_IOTHUBTRANSPORT_AMQP_METHODS_01_145: [ If any call for creating or setting
 563:Source\azure_iot_sdk\iothub_client\src/iothubtransportamqp_methods.c ****             LogError("Cannot create the channel correlation id property key for the link attach pro
 1539              		.loc 1 563 0 discriminator 3
 1540 0040 FFF7FEFF 		bl	xlogging_get_log_function
 1541              	.LVL260:
 1542 0044 051E     		subs	r5, r0, #0
 1543              	.LVL261:
 1544 0046 00D1     		bne	.LCB1647
 1545 0048 04E1     		b	.L98	@long jump
 1546              	.LCB1647:
 1547              		.loc 1 563 0 is_stmt 0 discriminator 4
 1548 004a 8F4B     		ldr	r3, .L108+24
 1549 004c 0193     		str	r3, [sp, #4]
 1550 004e 0123     		movs	r3, #1
 1551 0050 0093     		str	r3, [sp]
 1552 0052 8E4B     		ldr	r3, .L108+28
 1553 0054 884A     		ldr	r2, .L108+8
 1554 0056 3832     		adds	r2, r2, #56
 1555 0058 8849     		ldr	r1, .L108+12
 1556 005a 0020     		movs	r0, #0
 1557              	.LVL262:
 1558 005c A847     		blx	r5
 1559              	.LVL263:
 1560              	.LBE56:
 564:Source\azure_iot_sdk\iothub_client\src/iothubtransportamqp_methods.c ****             result = __FAILURE__;
 1561              		.loc 1 564 0 is_stmt 1 discriminator 4
 1562 005e 8D23     		movs	r3, #141
 1563 0060 9B00     		lsls	r3, r3, #2
 1564 0062 0293     		str	r3, [sp, #8]
 1565              	.LVL264:
 1566 0064 F9E0     		b	.L85
 1567              	.LVL265:
 1568              	.L84:
 1569              	.LBB57:
 565:Source\azure_iot_sdk\iothub_client\src/iothubtransportamqp_methods.c ****         }
 566:Source\azure_iot_sdk\iothub_client\src/iothubtransportamqp_methods.c ****         else
 567:Source\azure_iot_sdk\iothub_client\src/iothubtransportamqp_methods.c ****         {
 568:Source\azure_iot_sdk\iothub_client\src/iothubtransportamqp_methods.c ****             /* Codes_SRS_IOTHUBTRANSPORT_AMQP_METHODS_01_142: [ A property value of type string tha
 569:Source\azure_iot_sdk\iothub_client\src/iothubtransportamqp_methods.c ****             STRING_HANDLE correlation_id = NULL;
 570:Source\azure_iot_sdk\iothub_client\src/iothubtransportamqp_methods.c ****             AMQP_VALUE channel_correlation_id_property_value = NULL;
 571:Source\azure_iot_sdk\iothub_client\src/iothubtransportamqp_methods.c **** 
 572:Source\azure_iot_sdk\iothub_client\src/iothubtransportamqp_methods.c ****             if ((correlation_id = create_correlation_id(iothubtransport_amqp_methods_handle)) == NU
 1570              		.loc 1 572 0
 1571 0066 0298     		ldr	r0, [sp, #8]
 1572              	.LVL266:
 1573 0068 FFF7FEFF 		bl	create_correlation_id
 1574              	.LVL267:
 1575 006c 061E     		subs	r6, r0, #0
 1576              	.LVL268:
 1577 006e 12D1     		bne	.L86
 1578              	.LBB58:
 573:Source\azure_iot_sdk\iothub_client\src/iothubtransportamqp_methods.c ****             {
ARM GAS  C:\Users\Phuong\AppData\Local\Temp\ccu7x7Ah.s 			page 40


 574:Source\azure_iot_sdk\iothub_client\src/iothubtransportamqp_methods.c ****                 /* Codes_SRS_IOTHUBTRANSPORT_AMQP_METHODS_01_145: [ If any call for creating or set
 575:Source\azure_iot_sdk\iothub_client\src/iothubtransportamqp_methods.c ****                 LogError("Cannot create the channel correlation id string for the link attach prope
 1579              		.loc 1 575 0 discriminator 3
 1580 0070 FFF7FEFF 		bl	xlogging_get_log_function
 1581              	.LVL269:
 1582 0074 071E     		subs	r7, r0, #0
 1583              	.LVL270:
 1584 0076 00D1     		bne	.LCB1690
 1585 0078 DFE0     		b	.L99	@long jump
 1586              	.LCB1690:
 1587              		.loc 1 575 0 is_stmt 0 discriminator 4
 1588 007a 854B     		ldr	r3, .L108+32
 1589 007c 0193     		str	r3, [sp, #4]
 1590 007e 0123     		movs	r3, #1
 1591 0080 0093     		str	r3, [sp]
 1592 0082 844B     		ldr	r3, .L108+36
 1593 0084 7C4A     		ldr	r2, .L108+8
 1594 0086 3832     		adds	r2, r2, #56
 1595 0088 7C49     		ldr	r1, .L108+12
 1596 008a 0020     		movs	r0, #0
 1597              	.LVL271:
 1598 008c B847     		blx	r7
 1599              	.LVL272:
 1600              	.LBE58:
 576:Source\azure_iot_sdk\iothub_client\src/iothubtransportamqp_methods.c ****                 result = __FAILURE__;
 1601              		.loc 1 576 0 is_stmt 1 discriminator 4
 1602 008e 9023     		movs	r3, #144
 1603 0090 9B00     		lsls	r3, r3, #2
 1604 0092 0293     		str	r3, [sp, #8]
 1605              	.LVL273:
 1606 0094 D7E0     		b	.L87
 1607              	.LVL274:
 1608              	.L86:
 577:Source\azure_iot_sdk\iothub_client\src/iothubtransportamqp_methods.c ****             }
 578:Source\azure_iot_sdk\iothub_client\src/iothubtransportamqp_methods.c ****             else if ((channel_correlation_id_property_value = amqpvalue_create_string(STRING_c_str(
 1609              		.loc 1 578 0
 1610 0096 FFF7FEFF 		bl	STRING_c_str
 1611              	.LVL275:
 1612 009a FFF7FEFF 		bl	amqpvalue_create_string
 1613              	.LVL276:
 1614 009e 071E     		subs	r7, r0, #0
 1615              	.LVL277:
 1616 00a0 11D1     		bne	.L88
 1617              	.LBB59:
 579:Source\azure_iot_sdk\iothub_client\src/iothubtransportamqp_methods.c ****             {
 580:Source\azure_iot_sdk\iothub_client\src/iothubtransportamqp_methods.c ****                 /* Codes_SRS_IOTHUBTRANSPORT_AMQP_METHODS_01_145: [ If any call for creating or set
 581:Source\azure_iot_sdk\iothub_client\src/iothubtransportamqp_methods.c ****                 LogError("Cannot create the channel correlation id property key for the link attach
 1618              		.loc 1 581 0 discriminator 3
 1619 00a2 FFF7FEFF 		bl	xlogging_get_log_function
 1620              	.LVL278:
 1621 00a6 071E     		subs	r7, r0, #0
 1622              	.LVL279:
 1623 00a8 00D1     		bne	.LCB1732
 1624 00aa CAE0     		b	.L100	@long jump
 1625              	.LCB1732:
 1626              		.loc 1 581 0 is_stmt 0 discriminator 4
 1627 00ac 764B     		ldr	r3, .L108+24
ARM GAS  C:\Users\Phuong\AppData\Local\Temp\ccu7x7Ah.s 			page 41


 1628 00ae 0193     		str	r3, [sp, #4]
 1629 00b0 0123     		movs	r3, #1
 1630 00b2 0093     		str	r3, [sp]
 1631 00b4 784B     		ldr	r3, .L108+40
 1632 00b6 704A     		ldr	r2, .L108+8
 1633 00b8 3832     		adds	r2, r2, #56
 1634 00ba 7049     		ldr	r1, .L108+12
 1635 00bc 0020     		movs	r0, #0
 1636              	.LVL280:
 1637 00be B847     		blx	r7
 1638              	.LVL281:
 1639              	.LBE59:
 582:Source\azure_iot_sdk\iothub_client\src/iothubtransportamqp_methods.c ****                 result = __FAILURE__;
 1640              		.loc 1 582 0 is_stmt 1 discriminator 4
 1641 00c0 764B     		ldr	r3, .L108+44
 1642 00c2 0293     		str	r3, [sp, #8]
 1643              	.LVL282:
 1644 00c4 BFE0     		b	.L87
 1645              	.LVL283:
 1646              	.L88:
 583:Source\azure_iot_sdk\iothub_client\src/iothubtransportamqp_methods.c ****             }
 584:Source\azure_iot_sdk\iothub_client\src/iothubtransportamqp_methods.c ****             else
 585:Source\azure_iot_sdk\iothub_client\src/iothubtransportamqp_methods.c ****             {
 586:Source\azure_iot_sdk\iothub_client\src/iothubtransportamqp_methods.c ****                 /* Codes_SRS_IOTHUBTRANSPORT_AMQP_METHODS_01_143: [ The `com.microsoft:channel-corr
 587:Source\azure_iot_sdk\iothub_client\src/iothubtransportamqp_methods.c ****                 if (amqpvalue_set_map_value(link_attach_properties, channel_correlation_id_property
 1647              		.loc 1 587 0
 1648 00c6 0200     		movs	r2, r0
 1649 00c8 2900     		movs	r1, r5
 1650 00ca 2000     		movs	r0, r4
 1651              	.LVL284:
 1652 00cc FFF7FEFF 		bl	amqpvalue_set_map_value
 1653              	.LVL285:
 1654 00d0 0028     		cmp	r0, #0
 1655 00d2 12D0     		beq	.L89
 1656              	.LBB60:
 588:Source\azure_iot_sdk\iothub_client\src/iothubtransportamqp_methods.c ****                 {
 589:Source\azure_iot_sdk\iothub_client\src/iothubtransportamqp_methods.c ****                     /* Codes_SRS_IOTHUBTRANSPORT_AMQP_METHODS_01_145: [ If any call for creating or
 590:Source\azure_iot_sdk\iothub_client\src/iothubtransportamqp_methods.c ****                     LogError("Cannot set the property for channel correlation on the link attach pr
 1657              		.loc 1 590 0 discriminator 3
 1658 00d4 FFF7FEFF 		bl	xlogging_get_log_function
 1659              	.LVL286:
 1660 00d8 8046     		mov	r8, r0
 1661              	.LVL287:
 1662 00da 0028     		cmp	r0, #0
 1663 00dc 00D1     		bne	.LCB1770
 1664 00de A3E0     		b	.L101	@long jump
 1665              	.LCB1770:
 1666              		.loc 1 590 0 is_stmt 0 discriminator 4
 1667 00e0 6F4B     		ldr	r3, .L108+48
 1668 00e2 0193     		str	r3, [sp, #4]
 1669 00e4 0123     		movs	r3, #1
 1670 00e6 0093     		str	r3, [sp]
 1671 00e8 6E4B     		ldr	r3, .L108+52
 1672 00ea 634A     		ldr	r2, .L108+8
 1673 00ec 3832     		adds	r2, r2, #56
 1674 00ee 6349     		ldr	r1, .L108+12
 1675 00f0 0020     		movs	r0, #0
ARM GAS  C:\Users\Phuong\AppData\Local\Temp\ccu7x7Ah.s 			page 42


 1676              	.LVL288:
 1677 00f2 C047     		blx	r8
 1678              	.LVL289:
 1679              	.LBE60:
 591:Source\azure_iot_sdk\iothub_client\src/iothubtransportamqp_methods.c ****                     result = __FAILURE__;
 1680              		.loc 1 591 0 is_stmt 1 discriminator 4
 1681 00f4 6C4B     		ldr	r3, .L108+56
 1682 00f6 0293     		str	r3, [sp, #8]
 1683              	.LVL290:
 1684 00f8 9BE0     		b	.L90
 1685              	.LVL291:
 1686              	.L89:
 1687              	.LBB61:
 592:Source\azure_iot_sdk\iothub_client\src/iothubtransportamqp_methods.c ****                 }
 593:Source\azure_iot_sdk\iothub_client\src/iothubtransportamqp_methods.c ****                 else
 594:Source\azure_iot_sdk\iothub_client\src/iothubtransportamqp_methods.c ****                 {
 595:Source\azure_iot_sdk\iothub_client\src/iothubtransportamqp_methods.c ****                     /* Codes_SRS_IOTHUBTRANSPORT_AMQP_METHODS_01_150: [ A property key which shall 
 596:Source\azure_iot_sdk\iothub_client\src/iothubtransportamqp_methods.c ****                     AMQP_VALUE api_version_property_key = amqpvalue_create_symbol("com.microsoft:ap
 1688              		.loc 1 596 0
 1689 00fa 6C48     		ldr	r0, .L108+60
 1690 00fc FFF7FEFF 		bl	amqpvalue_create_symbol
 1691              	.LVL292:
 1692 0100 0390     		str	r0, [sp, #12]
 1693              	.LVL293:
 597:Source\azure_iot_sdk\iothub_client\src/iothubtransportamqp_methods.c ****                     if (api_version_property_key == NULL)
 1694              		.loc 1 597 0
 1695 0102 0028     		cmp	r0, #0
 1696 0104 13D1     		bne	.L91
 1697              	.LBB62:
 598:Source\azure_iot_sdk\iothub_client\src/iothubtransportamqp_methods.c ****                     {
 599:Source\azure_iot_sdk\iothub_client\src/iothubtransportamqp_methods.c ****                         /* Codes_SRS_IOTHUBTRANSPORT_AMQP_METHODS_01_145: [ If any call for creatin
 600:Source\azure_iot_sdk\iothub_client\src/iothubtransportamqp_methods.c ****                         LogError("Cannot create the API version property key for the link attach pr
 1698              		.loc 1 600 0 discriminator 3
 1699 0106 FFF7FEFF 		bl	xlogging_get_log_function
 1700              	.LVL294:
 1701 010a 8046     		mov	r8, r0
 1702              	.LVL295:
 1703 010c 0028     		cmp	r0, #0
 1704 010e 00D1     		bne	.LCB1808
 1705 0110 8DE0     		b	.L102	@long jump
 1706              	.LCB1808:
 1707              		.loc 1 600 0 is_stmt 0 discriminator 4
 1708 0112 674B     		ldr	r3, .L108+64
 1709 0114 0193     		str	r3, [sp, #4]
 1710 0116 0123     		movs	r3, #1
 1711 0118 0093     		str	r3, [sp]
 1712 011a 9623     		movs	r3, #150
 1713 011c 9B00     		lsls	r3, r3, #2
 1714 011e 564A     		ldr	r2, .L108+8
 1715 0120 3832     		adds	r2, r2, #56
 1716 0122 5649     		ldr	r1, .L108+12
 1717 0124 0020     		movs	r0, #0
 1718              	.LVL296:
 1719 0126 C047     		blx	r8
 1720              	.LVL297:
 1721              	.LBE62:
 601:Source\azure_iot_sdk\iothub_client\src/iothubtransportamqp_methods.c ****                         result = __FAILURE__;
ARM GAS  C:\Users\Phuong\AppData\Local\Temp\ccu7x7Ah.s 			page 43


 1722              		.loc 1 601 0 is_stmt 1 discriminator 4
 1723 0128 624B     		ldr	r3, .L108+68
 1724 012a 0293     		str	r3, [sp, #8]
 1725              	.LVL298:
 1726 012c 81E0     		b	.L90
 1727              	.LVL299:
 1728              	.L91:
 1729              	.LBB63:
 602:Source\azure_iot_sdk\iothub_client\src/iothubtransportamqp_methods.c ****                     }
 603:Source\azure_iot_sdk\iothub_client\src/iothubtransportamqp_methods.c ****                     else
 604:Source\azure_iot_sdk\iothub_client\src/iothubtransportamqp_methods.c ****                     {
 605:Source\azure_iot_sdk\iothub_client\src/iothubtransportamqp_methods.c ****                         /* Codes_SRS_IOTHUBTRANSPORT_AMQP_METHODS_01_151: [ A property value of typ
 606:Source\azure_iot_sdk\iothub_client\src/iothubtransportamqp_methods.c ****                         AMQP_VALUE api_version_property_value = amqpvalue_create_string("2016-11-14
 1730              		.loc 1 606 0
 1731 012e 6248     		ldr	r0, .L108+72
 1732              	.LVL300:
 1733 0130 FFF7FEFF 		bl	amqpvalue_create_string
 1734              	.LVL301:
 1735 0134 0490     		str	r0, [sp, #16]
 1736              	.LVL302:
 607:Source\azure_iot_sdk\iothub_client\src/iothubtransportamqp_methods.c ****                         if (api_version_property_value == NULL)
 1737              		.loc 1 607 0
 1738 0136 0028     		cmp	r0, #0
 1739 0138 11D1     		bne	.L92
 1740              	.LBB64:
 608:Source\azure_iot_sdk\iothub_client\src/iothubtransportamqp_methods.c ****                         {
 609:Source\azure_iot_sdk\iothub_client\src/iothubtransportamqp_methods.c ****                             /* Codes_SRS_IOTHUBTRANSPORT_AMQP_METHODS_01_145: [ If any call for cre
 610:Source\azure_iot_sdk\iothub_client\src/iothubtransportamqp_methods.c ****                             LogError("Cannot create the API version property value for the link att
 1741              		.loc 1 610 0 discriminator 3
 1742 013a FFF7FEFF 		bl	xlogging_get_log_function
 1743              	.LVL303:
 1744 013e 8046     		mov	r8, r0
 1745              	.LVL304:
 1746 0140 0028     		cmp	r0, #0
 1747 0142 6BD0     		beq	.L103
 1748              		.loc 1 610 0 is_stmt 0 discriminator 4
 1749 0144 5D4B     		ldr	r3, .L108+76
 1750 0146 0193     		str	r3, [sp, #4]
 1751 0148 0123     		movs	r3, #1
 1752 014a 0093     		str	r3, [sp]
 1753 014c 5C4B     		ldr	r3, .L108+80
 1754 014e 4A4A     		ldr	r2, .L108+8
 1755 0150 3832     		adds	r2, r2, #56
 1756 0152 4A49     		ldr	r1, .L108+12
 1757 0154 0020     		movs	r0, #0
 1758              	.LVL305:
 1759 0156 C047     		blx	r8
 1760              	.LVL306:
 1761              	.LBE64:
 611:Source\azure_iot_sdk\iothub_client\src/iothubtransportamqp_methods.c ****                             result = __FAILURE__;
 1762              		.loc 1 611 0 is_stmt 1 discriminator 4
 1763 0158 5A4B     		ldr	r3, .L108+84
 1764 015a 0293     		str	r3, [sp, #8]
 1765              	.LVL307:
 1766 015c 60E0     		b	.L93
 1767              	.LVL308:
 1768              	.L92:
ARM GAS  C:\Users\Phuong\AppData\Local\Temp\ccu7x7Ah.s 			page 44


 612:Source\azure_iot_sdk\iothub_client\src/iothubtransportamqp_methods.c ****                         }
 613:Source\azure_iot_sdk\iothub_client\src/iothubtransportamqp_methods.c ****                         else
 614:Source\azure_iot_sdk\iothub_client\src/iothubtransportamqp_methods.c ****                         {
 615:Source\azure_iot_sdk\iothub_client\src/iothubtransportamqp_methods.c ****                             /* Codes_SRS_IOTHUBTRANSPORT_AMQP_METHODS_01_152: [ The `com.microsoft:
 616:Source\azure_iot_sdk\iothub_client\src/iothubtransportamqp_methods.c ****                             if (amqpvalue_set_map_value(link_attach_properties, api_version_propert
 1769              		.loc 1 616 0
 1770 015e 049A     		ldr	r2, [sp, #16]
 1771 0160 0399     		ldr	r1, [sp, #12]
 1772 0162 2000     		movs	r0, r4
 1773              	.LVL309:
 1774 0164 FFF7FEFF 		bl	amqpvalue_set_map_value
 1775              	.LVL310:
 1776 0168 0028     		cmp	r0, #0
 1777 016a 12D0     		beq	.L94
 1778              	.LBB65:
 617:Source\azure_iot_sdk\iothub_client\src/iothubtransportamqp_methods.c ****                             {
 618:Source\azure_iot_sdk\iothub_client\src/iothubtransportamqp_methods.c ****                                 /* Codes_SRS_IOTHUBTRANSPORT_AMQP_METHODS_01_145: [ If any call for
 619:Source\azure_iot_sdk\iothub_client\src/iothubtransportamqp_methods.c ****                                 LogError("Cannot set the property for API version on the link attac
 1779              		.loc 1 619 0 discriminator 3
 1780 016c FFF7FEFF 		bl	xlogging_get_log_function
 1781              	.LVL311:
 1782 0170 8046     		mov	r8, r0
 1783              	.LVL312:
 1784 0172 0028     		cmp	r0, #0
 1785 0174 42D0     		beq	.L104
 1786              		.loc 1 619 0 is_stmt 0 discriminator 4
 1787 0176 544B     		ldr	r3, .L108+88
 1788 0178 0193     		str	r3, [sp, #4]
 1789 017a 0123     		movs	r3, #1
 1790 017c 0093     		str	r3, [sp]
 1791 017e 534B     		ldr	r3, .L108+92
 1792 0180 3D4A     		ldr	r2, .L108+8
 1793 0182 3832     		adds	r2, r2, #56
 1794 0184 3D49     		ldr	r1, .L108+12
 1795 0186 0020     		movs	r0, #0
 1796              	.LVL313:
 1797 0188 C047     		blx	r8
 1798              	.LVL314:
 1799              	.LBE65:
 620:Source\azure_iot_sdk\iothub_client\src/iothubtransportamqp_methods.c ****                                 result = __FAILURE__;
 1800              		.loc 1 620 0 is_stmt 1 discriminator 4
 1801 018a 9B23     		movs	r3, #155
 1802 018c 9B00     		lsls	r3, r3, #2
 1803 018e 0293     		str	r3, [sp, #8]
 1804              	.LVL315:
 1805 0190 40E0     		b	.L95
 1806              	.LVL316:
 1807              	.L94:
 621:Source\azure_iot_sdk\iothub_client\src/iothubtransportamqp_methods.c ****                             }
 622:Source\azure_iot_sdk\iothub_client\src/iothubtransportamqp_methods.c ****                             /* Codes_SRS_IOTHUBTRANSPORT_AMQP_METHODS_01_144: [ The link attach pro
 623:Source\azure_iot_sdk\iothub_client\src/iothubtransportamqp_methods.c ****                             else if (link_set_attach_properties(iothubtransport_amqp_methods_handle
 1808              		.loc 1 623 0
 1809 0192 029B     		ldr	r3, [sp, #8]
 1810 0194 1B69     		ldr	r3, [r3, #16]
 1811 0196 0593     		str	r3, [sp, #20]
 1812 0198 2100     		movs	r1, r4
 1813 019a 1800     		movs	r0, r3
ARM GAS  C:\Users\Phuong\AppData\Local\Temp\ccu7x7Ah.s 			page 45


 1814 019c FFF7FEFF 		bl	link_set_attach_properties
 1815              	.LVL317:
 1816 01a0 0028     		cmp	r0, #0
 1817 01a2 11D0     		beq	.L96
 1818              	.LBB66:
 624:Source\azure_iot_sdk\iothub_client\src/iothubtransportamqp_methods.c ****                             {
 625:Source\azure_iot_sdk\iothub_client\src/iothubtransportamqp_methods.c ****                                 /* Codes_SRS_IOTHUBTRANSPORT_AMQP_METHODS_01_145: [ If any call for
 626:Source\azure_iot_sdk\iothub_client\src/iothubtransportamqp_methods.c ****                                 LogError("Cannot set the link attach properties on the sender link"
 1819              		.loc 1 626 0 discriminator 3
 1820 01a4 FFF7FEFF 		bl	xlogging_get_log_function
 1821              	.LVL318:
 1822 01a8 8046     		mov	r8, r0
 1823              	.LVL319:
 1824 01aa 0028     		cmp	r0, #0
 1825 01ac 2AD0     		beq	.L105
 1826              		.loc 1 626 0 is_stmt 0 discriminator 4
 1827 01ae 484B     		ldr	r3, .L108+96
 1828 01b0 0193     		str	r3, [sp, #4]
 1829 01b2 0123     		movs	r3, #1
 1830 01b4 0093     		str	r3, [sp]
 1831 01b6 474B     		ldr	r3, .L108+100
 1832 01b8 2F4A     		ldr	r2, .L108+8
 1833 01ba 3832     		adds	r2, r2, #56
 1834 01bc 2F49     		ldr	r1, .L108+12
 1835 01be 0020     		movs	r0, #0
 1836              	.LVL320:
 1837 01c0 C047     		blx	r8
 1838              	.LVL321:
 1839              	.LBE66:
 627:Source\azure_iot_sdk\iothub_client\src/iothubtransportamqp_methods.c ****                                 result = __FAILURE__;
 1840              		.loc 1 627 0 is_stmt 1 discriminator 4
 1841 01c2 454B     		ldr	r3, .L108+104
 1842 01c4 0293     		str	r3, [sp, #8]
 1843              	.LVL322:
 1844 01c6 25E0     		b	.L95
 1845              	.LVL323:
 1846              	.L96:
 628:Source\azure_iot_sdk\iothub_client\src/iothubtransportamqp_methods.c ****                             }
 629:Source\azure_iot_sdk\iothub_client\src/iothubtransportamqp_methods.c ****                             else if (link_set_attach_properties(iothubtransport_amqp_methods_handle
 1847              		.loc 1 629 0
 1848 01c8 029B     		ldr	r3, [sp, #8]
 1849 01ca D868     		ldr	r0, [r3, #12]
 1850 01cc 2100     		movs	r1, r4
 1851 01ce FFF7FEFF 		bl	link_set_attach_properties
 1852              	.LVL324:
 1853 01d2 0028     		cmp	r0, #0
 1854 01d4 19D0     		beq	.L106
 1855              	.LBB67:
 630:Source\azure_iot_sdk\iothub_client\src/iothubtransportamqp_methods.c ****                             {
 631:Source\azure_iot_sdk\iothub_client\src/iothubtransportamqp_methods.c ****                                 /* Codes_SRS_IOTHUBTRANSPORT_AMQP_METHODS_01_145: [ If any call for
 632:Source\azure_iot_sdk\iothub_client\src/iothubtransportamqp_methods.c ****                                 LogError("Cannot set the link attach properties on the receiver lin
 1856              		.loc 1 632 0 discriminator 3
 1857 01d6 FFF7FEFF 		bl	xlogging_get_log_function
 1858              	.LVL325:
 1859 01da 8046     		mov	r8, r0
 1860              	.LVL326:
 1861 01dc 0028     		cmp	r0, #0
ARM GAS  C:\Users\Phuong\AppData\Local\Temp\ccu7x7Ah.s 			page 46


 1862 01de 17D0     		beq	.L107
 1863              		.loc 1 632 0 is_stmt 0 discriminator 4
 1864 01e0 3E4B     		ldr	r3, .L108+108
 1865 01e2 0193     		str	r3, [sp, #4]
 1866 01e4 0123     		movs	r3, #1
 1867 01e6 0093     		str	r3, [sp]
 1868 01e8 9E23     		movs	r3, #158
 1869 01ea 9B00     		lsls	r3, r3, #2
 1870 01ec 224A     		ldr	r2, .L108+8
 1871 01ee 3832     		adds	r2, r2, #56
 1872 01f0 2249     		ldr	r1, .L108+12
 1873 01f2 0020     		movs	r0, #0
 1874              	.LVL327:
 1875 01f4 C047     		blx	r8
 1876              	.LVL328:
 1877              	.LBE67:
 633:Source\azure_iot_sdk\iothub_client\src/iothubtransportamqp_methods.c ****                                 result = __FAILURE__;
 1878              		.loc 1 633 0 is_stmt 1 discriminator 4
 1879 01f6 3A4B     		ldr	r3, .L108+112
 1880 01f8 0293     		str	r3, [sp, #8]
 1881              	.LVL329:
 1882 01fa 0BE0     		b	.L95
 1883              	.LVL330:
 1884              	.L104:
 620:Source\azure_iot_sdk\iothub_client\src/iothubtransportamqp_methods.c ****                             }
 1885              		.loc 1 620 0
 1886 01fc 9B23     		movs	r3, #155
 1887 01fe 9B00     		lsls	r3, r3, #2
 1888 0200 0293     		str	r3, [sp, #8]
 1889              	.LVL331:
 1890 0202 07E0     		b	.L95
 1891              	.LVL332:
 1892              	.L105:
 627:Source\azure_iot_sdk\iothub_client\src/iothubtransportamqp_methods.c ****                             }
 1893              		.loc 1 627 0
 1894 0204 344B     		ldr	r3, .L108+104
 1895 0206 0293     		str	r3, [sp, #8]
 1896              	.LVL333:
 1897 0208 04E0     		b	.L95
 1898              	.LVL334:
 1899              	.L106:
 634:Source\azure_iot_sdk\iothub_client\src/iothubtransportamqp_methods.c ****                             }
 635:Source\azure_iot_sdk\iothub_client\src/iothubtransportamqp_methods.c ****                             else
 636:Source\azure_iot_sdk\iothub_client\src/iothubtransportamqp_methods.c ****                             {
 637:Source\azure_iot_sdk\iothub_client\src/iothubtransportamqp_methods.c ****                                 result = 0;
 1900              		.loc 1 637 0
 1901 020a 0023     		movs	r3, #0
 1902 020c 0293     		str	r3, [sp, #8]
 1903              	.LVL335:
 1904 020e 01E0     		b	.L95
 1905              	.LVL336:
 1906              	.L107:
 633:Source\azure_iot_sdk\iothub_client\src/iothubtransportamqp_methods.c ****                             }
 1907              		.loc 1 633 0
 1908 0210 334B     		ldr	r3, .L108+112
 1909 0212 0293     		str	r3, [sp, #8]
 1910              	.LVL337:
ARM GAS  C:\Users\Phuong\AppData\Local\Temp\ccu7x7Ah.s 			page 47


 1911              	.L95:
 638:Source\azure_iot_sdk\iothub_client\src/iothubtransportamqp_methods.c ****                             }
 639:Source\azure_iot_sdk\iothub_client\src/iothubtransportamqp_methods.c **** 
 640:Source\azure_iot_sdk\iothub_client\src/iothubtransportamqp_methods.c ****                             /* Codes_SRS_IOTHUBTRANSPORT_AMQP_METHODS_01_146: [ The link attach pro
 641:Source\azure_iot_sdk\iothub_client\src/iothubtransportamqp_methods.c ****                             amqpvalue_destroy(api_version_property_value);
 1912              		.loc 1 641 0
 1913 0214 0498     		ldr	r0, [sp, #16]
 1914 0216 FFF7FEFF 		bl	amqpvalue_destroy
 1915              	.LVL338:
 1916 021a 01E0     		b	.L93
 1917              	.LVL339:
 1918              	.L103:
 611:Source\azure_iot_sdk\iothub_client\src/iothubtransportamqp_methods.c ****                         }
 1919              		.loc 1 611 0
 1920 021c 294B     		ldr	r3, .L108+84
 1921 021e 0293     		str	r3, [sp, #8]
 1922              	.LVL340:
 1923              	.L93:
 642:Source\azure_iot_sdk\iothub_client\src/iothubtransportamqp_methods.c ****                         }
 643:Source\azure_iot_sdk\iothub_client\src/iothubtransportamqp_methods.c **** 
 644:Source\azure_iot_sdk\iothub_client\src/iothubtransportamqp_methods.c ****                         /* Codes_SRS_IOTHUBTRANSPORT_AMQP_METHODS_01_146: [ The link attach propert
 645:Source\azure_iot_sdk\iothub_client\src/iothubtransportamqp_methods.c ****                         amqpvalue_destroy(api_version_property_key);
 1924              		.loc 1 645 0
 1925 0220 0398     		ldr	r0, [sp, #12]
 1926 0222 FFF7FEFF 		bl	amqpvalue_destroy
 1927              	.LVL341:
 1928 0226 04E0     		b	.L90
 1929              	.LVL342:
 1930              	.L101:
 1931              	.LBE63:
 1932              	.LBE61:
 591:Source\azure_iot_sdk\iothub_client\src/iothubtransportamqp_methods.c ****                 }
 1933              		.loc 1 591 0
 1934 0228 1F4B     		ldr	r3, .L108+56
 1935 022a 0293     		str	r3, [sp, #8]
 1936              	.LVL343:
 1937 022c 01E0     		b	.L90
 1938              	.LVL344:
 1939              	.L102:
 1940              	.LBB68:
 601:Source\azure_iot_sdk\iothub_client\src/iothubtransportamqp_methods.c ****                     }
 1941              		.loc 1 601 0
 1942 022e 214B     		ldr	r3, .L108+68
 1943 0230 0293     		str	r3, [sp, #8]
 1944              	.LVL345:
 1945              	.L90:
 1946              	.LBE68:
 646:Source\azure_iot_sdk\iothub_client\src/iothubtransportamqp_methods.c ****                     }
 647:Source\azure_iot_sdk\iothub_client\src/iothubtransportamqp_methods.c ****                 }
 648:Source\azure_iot_sdk\iothub_client\src/iothubtransportamqp_methods.c **** 
 649:Source\azure_iot_sdk\iothub_client\src/iothubtransportamqp_methods.c ****                 /* Codes_SRS_IOTHUBTRANSPORT_AMQP_METHODS_01_146: [ The link attach properties and 
 650:Source\azure_iot_sdk\iothub_client\src/iothubtransportamqp_methods.c ****                 amqpvalue_destroy(channel_correlation_id_property_value);
 1947              		.loc 1 650 0
 1948 0232 3800     		movs	r0, r7
 1949 0234 FFF7FEFF 		bl	amqpvalue_destroy
 1950              	.LVL346:
 1951 0238 05E0     		b	.L87
ARM GAS  C:\Users\Phuong\AppData\Local\Temp\ccu7x7Ah.s 			page 48


 1952              	.LVL347:
 1953              	.L99:
 576:Source\azure_iot_sdk\iothub_client\src/iothubtransportamqp_methods.c ****             }
 1954              		.loc 1 576 0
 1955 023a 9023     		movs	r3, #144
 1956 023c 9B00     		lsls	r3, r3, #2
 1957 023e 0293     		str	r3, [sp, #8]
 1958              	.LVL348:
 1959 0240 01E0     		b	.L87
 1960              	.LVL349:
 1961              	.L100:
 582:Source\azure_iot_sdk\iothub_client\src/iothubtransportamqp_methods.c ****             }
 1962              		.loc 1 582 0
 1963 0242 164B     		ldr	r3, .L108+44
 1964 0244 0293     		str	r3, [sp, #8]
 1965              	.LVL350:
 1966              	.L87:
 651:Source\azure_iot_sdk\iothub_client\src/iothubtransportamqp_methods.c ****             }
 652:Source\azure_iot_sdk\iothub_client\src/iothubtransportamqp_methods.c ****             STRING_delete(correlation_id);
 1967              		.loc 1 652 0
 1968 0246 3000     		movs	r0, r6
 1969 0248 FFF7FEFF 		bl	STRING_delete
 1970              	.LVL351:
 653:Source\azure_iot_sdk\iothub_client\src/iothubtransportamqp_methods.c **** 
 654:Source\azure_iot_sdk\iothub_client\src/iothubtransportamqp_methods.c ****             /* Codes_SRS_IOTHUBTRANSPORT_AMQP_METHODS_01_146: [ The link attach properties and all 
 655:Source\azure_iot_sdk\iothub_client\src/iothubtransportamqp_methods.c ****             amqpvalue_destroy(channel_correlation_id_property_key);
 1971              		.loc 1 655 0
 1972 024c 2800     		movs	r0, r5
 1973 024e FFF7FEFF 		bl	amqpvalue_destroy
 1974              	.LVL352:
 1975 0252 02E0     		b	.L85
 1976              	.LVL353:
 1977              	.L98:
 1978              	.LBE57:
 564:Source\azure_iot_sdk\iothub_client\src/iothubtransportamqp_methods.c ****         }
 1979              		.loc 1 564 0
 1980 0254 8D23     		movs	r3, #141
 1981 0256 9B00     		lsls	r3, r3, #2
 1982 0258 0293     		str	r3, [sp, #8]
 1983              	.LVL354:
 1984              	.L85:
 656:Source\azure_iot_sdk\iothub_client\src/iothubtransportamqp_methods.c ****         }
 657:Source\azure_iot_sdk\iothub_client\src/iothubtransportamqp_methods.c **** 
 658:Source\azure_iot_sdk\iothub_client\src/iothubtransportamqp_methods.c ****         /* Codes_SRS_IOTHUBTRANSPORT_AMQP_METHODS_01_146: [ The link attach properties and all asso
 659:Source\azure_iot_sdk\iothub_client\src/iothubtransportamqp_methods.c ****         amqpvalue_destroy(link_attach_properties);
 1985              		.loc 1 659 0
 1986 025a 2000     		movs	r0, r4
 1987 025c FFF7FEFF 		bl	amqpvalue_destroy
 1988              	.LVL355:
 1989 0260 01E0     		b	.L83
 1990              	.LVL356:
 1991              	.L97:
 1992              	.LBE55:
 554:Source\azure_iot_sdk\iothub_client\src/iothubtransportamqp_methods.c ****     }
 1993              		.loc 1 554 0
 1994 0262 074B     		ldr	r3, .L108+16
 1995 0264 0293     		str	r3, [sp, #8]
ARM GAS  C:\Users\Phuong\AppData\Local\Temp\ccu7x7Ah.s 			page 49


 1996              	.LVL357:
 1997              	.L83:
 660:Source\azure_iot_sdk\iothub_client\src/iothubtransportamqp_methods.c ****     }
 661:Source\azure_iot_sdk\iothub_client\src/iothubtransportamqp_methods.c **** 
 662:Source\azure_iot_sdk\iothub_client\src/iothubtransportamqp_methods.c ****     return result;
 663:Source\azure_iot_sdk\iothub_client\src/iothubtransportamqp_methods.c **** }
 1998              		.loc 1 663 0
 1999 0266 0298     		ldr	r0, [sp, #8]
 2000 0268 06B0     		add	sp, sp, #24
 2001              		@ sp needed
 2002 026a 04BC     		pop	{r2}
 2003 026c 9046     		mov	r8, r2
 2004 026e F0BD     		pop	{r4, r5, r6, r7, pc}
 2005              	.L109:
 2006              		.align	2
 2007              	.L108:
 2008 0270 5C030000 		.word	.LC51
 2009 0274 29020000 		.word	553
 2010 0278 00000000 		.word	.LANCHOR0
 2011 027c 00000000 		.word	.LC1
 2012 0280 2A020000 		.word	554
 2013 0284 90030000 		.word	.LC53
 2014 0288 B8030000 		.word	.LC55
 2015 028c 33020000 		.word	563
 2016 0290 10040000 		.word	.LC57
 2017 0294 3F020000 		.word	575
 2018 0298 45020000 		.word	581
 2019 029c 46020000 		.word	582
 2020 02a0 60040000 		.word	.LC59
 2021 02a4 4E020000 		.word	590
 2022 02a8 4F020000 		.word	591
 2023 02ac B0040000 		.word	.LC61
 2024 02b0 CC040000 		.word	.LC63
 2025 02b4 59020000 		.word	601
 2026 02b8 18050000 		.word	.LC65
 2027 02bc 24050000 		.word	.LC67
 2028 02c0 62020000 		.word	610
 2029 02c4 63020000 		.word	611
 2030 02c8 70050000 		.word	.LC69
 2031 02cc 6B020000 		.word	619
 2032 02d0 B8050000 		.word	.LC71
 2033 02d4 72020000 		.word	626
 2034 02d8 73020000 		.word	627
 2035 02dc F4050000 		.word	.LC73
 2036 02e0 79020000 		.word	633
 2037              		.cfi_endproc
 2038              	.LFE13:
 2039              		.size	set_link_attach_properties, .-set_link_attach_properties
 2040              		.section	.text.create_peer_endpoint_name,"ax",%progbits
 2041              		.align	2
 2042              		.global	create_peer_endpoint_name
 2043              		.code	16
 2044              		.thumb_func
 2045              		.type	create_peer_endpoint_name, %function
 2046              	create_peer_endpoint_name:
 2047              	.LFB10:
 506:Source\azure_iot_sdk\iothub_client\src/iothubtransportamqp_methods.c ****     if (iothubtransport_amqp_methods_handle->module_id != NULL)
ARM GAS  C:\Users\Phuong\AppData\Local\Temp\ccu7x7Ah.s 			page 50


 2048              		.loc 1 506 0
 2049              		.cfi_startproc
 2050              		@ args = 0, pretend = 0, frame = 0
 2051              		@ frame_needed = 0, uses_anonymous_args = 0
 2052              	.LVL358:
 2053 0000 10B5     		push	{r4, lr}
 2054              		.cfi_def_cfa_offset 8
 2055              		.cfi_offset 4, -8
 2056              		.cfi_offset 14, -4
 507:Source\azure_iot_sdk\iothub_client\src/iothubtransportamqp_methods.c ****     {
 2057              		.loc 1 507 0
 2058 0002 4368     		ldr	r3, [r0, #4]
 2059 0004 002B     		cmp	r3, #0
 2060 0006 05D0     		beq	.L111
 509:Source\azure_iot_sdk\iothub_client\src/iothubtransportamqp_methods.c ****     }
 2061              		.loc 1 509 0
 2062 0008 0268     		ldr	r2, [r0]
 2063 000a 8168     		ldr	r1, [r0, #8]
 2064 000c 0448     		ldr	r0, .L113
 2065              	.LVL359:
 2066 000e FFF7FEFF 		bl	STRING_construct_sprintf
 2067              	.LVL360:
 2068 0012 04E0     		b	.L112
 2069              	.LVL361:
 2070              	.L111:
 513:Source\azure_iot_sdk\iothub_client\src/iothubtransportamqp_methods.c ****     }
 2071              		.loc 1 513 0
 2072 0014 0268     		ldr	r2, [r0]
 2073 0016 8168     		ldr	r1, [r0, #8]
 2074 0018 0248     		ldr	r0, .L113+4
 2075              	.LVL362:
 2076 001a FFF7FEFF 		bl	STRING_construct_sprintf
 2077              	.LVL363:
 2078              	.L112:
 515:Source\azure_iot_sdk\iothub_client\src/iothubtransportamqp_methods.c **** 
 2079              		.loc 1 515 0
 2080              		@ sp needed
 2081 001e 10BD     		pop	{r4, pc}
 2082              	.L114:
 2083              		.align	2
 2084              	.L113:
 2085 0020 30060000 		.word	.LC75
 2086 0024 68060000 		.word	.LC77
 2087              		.cfi_endproc
 2088              	.LFE10:
 2089              		.size	create_peer_endpoint_name, .-create_peer_endpoint_name
 2090              		.section	.text.create_requests_link_name,"ax",%progbits
 2091              		.align	2
 2092              		.global	create_requests_link_name
 2093              		.code	16
 2094              		.thumb_func
 2095              		.type	create_requests_link_name, %function
 2096              	create_requests_link_name:
 2097              	.LFB11:
 518:Source\azure_iot_sdk\iothub_client\src/iothubtransportamqp_methods.c ****     if (iothubtransport_amqp_methods_handle->module_id != NULL)
 2098              		.loc 1 518 0
 2099              		.cfi_startproc
ARM GAS  C:\Users\Phuong\AppData\Local\Temp\ccu7x7Ah.s 			page 51


 2100              		@ args = 0, pretend = 0, frame = 0
 2101              		@ frame_needed = 0, uses_anonymous_args = 0
 2102              	.LVL364:
 2103 0000 10B5     		push	{r4, lr}
 2104              		.cfi_def_cfa_offset 8
 2105              		.cfi_offset 4, -8
 2106              		.cfi_offset 14, -4
 519:Source\azure_iot_sdk\iothub_client\src/iothubtransportamqp_methods.c ****     {
 2107              		.loc 1 519 0
 2108 0002 4268     		ldr	r2, [r0, #4]
 2109 0004 002A     		cmp	r2, #0
 2110 0006 04D0     		beq	.L116
 521:Source\azure_iot_sdk\iothub_client\src/iothubtransportamqp_methods.c ****     }
 2111              		.loc 1 521 0
 2112 0008 0168     		ldr	r1, [r0]
 2113 000a 0448     		ldr	r0, .L118
 2114              	.LVL365:
 2115 000c FFF7FEFF 		bl	STRING_construct_sprintf
 2116              	.LVL366:
 2117 0010 03E0     		b	.L117
 2118              	.LVL367:
 2119              	.L116:
 525:Source\azure_iot_sdk\iothub_client\src/iothubtransportamqp_methods.c ****     }
 2120              		.loc 1 525 0
 2121 0012 0168     		ldr	r1, [r0]
 2122 0014 0248     		ldr	r0, .L118+4
 2123              	.LVL368:
 2124 0016 FFF7FEFF 		bl	STRING_construct_sprintf
 2125              	.LVL369:
 2126              	.L117:
 527:Source\azure_iot_sdk\iothub_client\src/iothubtransportamqp_methods.c **** 
 2127              		.loc 1 527 0
 2128              		@ sp needed
 2129 001a 10BD     		pop	{r4, pc}
 2130              	.L119:
 2131              		.align	2
 2132              	.L118:
 2133 001c 94060000 		.word	.LC79
 2134 0020 B0060000 		.word	.LC81
 2135              		.cfi_endproc
 2136              	.LFE11:
 2137              		.size	create_requests_link_name, .-create_requests_link_name
 2138              		.section	.text.create_responses_link_name,"ax",%progbits
 2139              		.align	2
 2140              		.global	create_responses_link_name
 2141              		.code	16
 2142              		.thumb_func
 2143              		.type	create_responses_link_name, %function
 2144              	create_responses_link_name:
 2145              	.LFB12:
 530:Source\azure_iot_sdk\iothub_client\src/iothubtransportamqp_methods.c ****     if (iothubtransport_amqp_methods_handle->module_id != NULL)
 2146              		.loc 1 530 0
 2147              		.cfi_startproc
 2148              		@ args = 0, pretend = 0, frame = 0
 2149              		@ frame_needed = 0, uses_anonymous_args = 0
 2150              	.LVL370:
 2151 0000 10B5     		push	{r4, lr}
ARM GAS  C:\Users\Phuong\AppData\Local\Temp\ccu7x7Ah.s 			page 52


 2152              		.cfi_def_cfa_offset 8
 2153              		.cfi_offset 4, -8
 2154              		.cfi_offset 14, -4
 531:Source\azure_iot_sdk\iothub_client\src/iothubtransportamqp_methods.c ****     {
 2155              		.loc 1 531 0
 2156 0002 4268     		ldr	r2, [r0, #4]
 2157 0004 002A     		cmp	r2, #0
 2158 0006 04D0     		beq	.L121
 533:Source\azure_iot_sdk\iothub_client\src/iothubtransportamqp_methods.c ****     }
 2159              		.loc 1 533 0
 2160 0008 0168     		ldr	r1, [r0]
 2161 000a 0448     		ldr	r0, .L123
 2162              	.LVL371:
 2163 000c FFF7FEFF 		bl	STRING_construct_sprintf
 2164              	.LVL372:
 2165 0010 03E0     		b	.L122
 2166              	.LVL373:
 2167              	.L121:
 537:Source\azure_iot_sdk\iothub_client\src/iothubtransportamqp_methods.c ****     }
 2168              		.loc 1 537 0
 2169 0012 0168     		ldr	r1, [r0]
 2170 0014 0248     		ldr	r0, .L123+4
 2171              	.LVL374:
 2172 0016 FFF7FEFF 		bl	STRING_construct_sprintf
 2173              	.LVL375:
 2174              	.L122:
 539:Source\azure_iot_sdk\iothub_client\src/iothubtransportamqp_methods.c **** 
 2175              		.loc 1 539 0
 2176              		@ sp needed
 2177 001a 10BD     		pop	{r4, pc}
 2178              	.L124:
 2179              		.align	2
 2180              	.L123:
 2181 001c CC060000 		.word	.LC83
 2182 0020 EC060000 		.word	.LC85
 2183              		.cfi_endproc
 2184              	.LFE12:
 2185              		.size	create_responses_link_name, .-create_responses_link_name
 2186              		.section	.text.iothubtransportamqp_methods_subscribe,"ax",%progbits
 2187              		.align	2
 2188              		.global	iothubtransportamqp_methods_subscribe
 2189              		.code	16
 2190              		.thumb_func
 2191              		.type	iothubtransportamqp_methods_subscribe, %function
 2192              	iothubtransportamqp_methods_subscribe:
 2193              	.LFB14:
 664:Source\azure_iot_sdk\iothub_client\src/iothubtransportamqp_methods.c **** 
 665:Source\azure_iot_sdk\iothub_client\src/iothubtransportamqp_methods.c **** int iothubtransportamqp_methods_subscribe(IOTHUBTRANSPORT_AMQP_METHODS_HANDLE iothubtransport_amqp_
 666:Source\azure_iot_sdk\iothub_client\src/iothubtransportamqp_methods.c ****     SESSION_HANDLE session_handle, ON_METHODS_ERROR on_methods_error, void* on_methods_error_contex
 667:Source\azure_iot_sdk\iothub_client\src/iothubtransportamqp_methods.c ****     ON_METHOD_REQUEST_RECEIVED on_method_request_received, void* on_method_request_received_context
 668:Source\azure_iot_sdk\iothub_client\src/iothubtransportamqp_methods.c ****     ON_METHODS_UNSUBSCRIBED on_methods_unsubscribed, void* on_methods_unsubscribed_context)
 669:Source\azure_iot_sdk\iothub_client\src/iothubtransportamqp_methods.c **** {
 2194              		.loc 1 669 0
 2195              		.cfi_startproc
 2196              		@ args = 16, pretend = 0, frame = 16
 2197              		@ frame_needed = 0, uses_anonymous_args = 0
 2198              	.LVL376:
ARM GAS  C:\Users\Phuong\AppData\Local\Temp\ccu7x7Ah.s 			page 53


 2199 0000 F0B5     		push	{r4, r5, r6, r7, lr}
 2200              		.cfi_def_cfa_offset 20
 2201              		.cfi_offset 4, -20
 2202              		.cfi_offset 5, -16
 2203              		.cfi_offset 6, -12
 2204              		.cfi_offset 7, -8
 2205              		.cfi_offset 14, -4
 2206 0002 5746     		mov	r7, r10
 2207 0004 80B4     		push	{r7}
 2208              		.cfi_def_cfa_offset 24
 2209              		.cfi_offset 10, -24
 2210 0006 8CB0     		sub	sp, sp, #48
 2211              		.cfi_def_cfa_offset 72
 2212 0008 0400     		movs	r4, r0
 2213 000a 0E00     		movs	r6, r1
 2214 000c 1700     		movs	r7, r2
 2215 000e 0893     		str	r3, [sp, #32]
 670:Source\azure_iot_sdk\iothub_client\src/iothubtransportamqp_methods.c ****     int result;
 671:Source\azure_iot_sdk\iothub_client\src/iothubtransportamqp_methods.c **** 
 672:Source\azure_iot_sdk\iothub_client\src/iothubtransportamqp_methods.c ****     /* Codes_SRS_IOTHUBTRANSPORT_AMQP_METHODS_01_009: [ If any of the argument `iothubtransport_amq
 673:Source\azure_iot_sdk\iothub_client\src/iothubtransportamqp_methods.c ****     if ((iothubtransport_amqp_methods_handle == NULL) ||
 2216              		.loc 1 673 0
 2217 0010 0028     		cmp	r0, #0
 2218 0012 09D0     		beq	.L126
 2219              		.loc 1 673 0 is_stmt 0 discriminator 1
 2220 0014 0029     		cmp	r1, #0
 2221 0016 07D0     		beq	.L126
 674:Source\azure_iot_sdk\iothub_client\src/iothubtransportamqp_methods.c ****         (session_handle == NULL) ||
 2222              		.loc 1 674 0 is_stmt 1
 2223 0018 002A     		cmp	r2, #0
 2224 001a 05D0     		beq	.L126
 675:Source\azure_iot_sdk\iothub_client\src/iothubtransportamqp_methods.c ****         (on_methods_error == NULL) ||
 2225              		.loc 1 675 0
 2226 001c 129B     		ldr	r3, [sp, #72]
 2227              	.LVL377:
 2228 001e 002B     		cmp	r3, #0
 2229 0020 02D0     		beq	.L126
 676:Source\azure_iot_sdk\iothub_client\src/iothubtransportamqp_methods.c ****         (on_method_request_received == NULL) ||
 2230              		.loc 1 676 0
 2231 0022 149B     		ldr	r3, [sp, #80]
 2232 0024 002B     		cmp	r3, #0
 2233 0026 18D1     		bne	.L127
 2234              	.L126:
 2235              	.LBB69:
 677:Source\azure_iot_sdk\iothub_client\src/iothubtransportamqp_methods.c ****         (on_methods_unsubscribed == NULL))
 678:Source\azure_iot_sdk\iothub_client\src/iothubtransportamqp_methods.c ****     {
 679:Source\azure_iot_sdk\iothub_client\src/iothubtransportamqp_methods.c ****         LogError("Invalid arguments: iothubtransport_amqp_methods_handle=%p, session_handle=%p, on_
 2236              		.loc 1 679 0 discriminator 3
 2237 0028 FFF7FEFF 		bl	xlogging_get_log_function
 2238              	.LVL378:
 2239 002c 051E     		subs	r5, r0, #0
 2240              	.LVL379:
 2241 002e 00D1     		bne	.LCB2395
 2242 0030 99E1     		b	.L149	@long jump
 2243              	.LCB2395:
 2244              		.loc 1 679 0 is_stmt 0 discriminator 4
 2245 0032 149B     		ldr	r3, [sp, #80]
ARM GAS  C:\Users\Phuong\AppData\Local\Temp\ccu7x7Ah.s 			page 54


 2246 0034 0693     		str	r3, [sp, #24]
 2247 0036 129B     		ldr	r3, [sp, #72]
 2248 0038 0593     		str	r3, [sp, #20]
 2249 003a 0497     		str	r7, [sp, #16]
 2250 003c 0396     		str	r6, [sp, #12]
 2251 003e 0294     		str	r4, [sp, #8]
 2252 0040 CB4B     		ldr	r3, .L165
 2253 0042 0193     		str	r3, [sp, #4]
 2254 0044 0123     		movs	r3, #1
 2255 0046 0093     		str	r3, [sp]
 2256 0048 AA23     		movs	r3, #170
 2257 004a 9B00     		lsls	r3, r3, #2
 2258 004c C94A     		ldr	r2, .L165+4
 2259 004e 5432     		adds	r2, r2, #84
 2260 0050 C949     		ldr	r1, .L165+8
 2261 0052 0020     		movs	r0, #0
 2262              	.LVL380:
 2263 0054 A847     		blx	r5
 2264              	.LVL381:
 2265              	.LBE69:
 680:Source\azure_iot_sdk\iothub_client\src/iothubtransportamqp_methods.c ****             iothubtransport_amqp_methods_handle, session_handle, on_methods_error, on_method_reques
 681:Source\azure_iot_sdk\iothub_client\src/iothubtransportamqp_methods.c ****         result = __FAILURE__;
 2266              		.loc 1 681 0 is_stmt 1 discriminator 4
 2267 0056 C94C     		ldr	r4, .L165+12
 2268              	.LVL382:
 2269 0058 E5E1     		b	.L128
 2270              	.LVL383:
 2271              	.L127:
 682:Source\azure_iot_sdk\iothub_client\src/iothubtransportamqp_methods.c ****     }
 683:Source\azure_iot_sdk\iothub_client\src/iothubtransportamqp_methods.c ****     /* Codes_SRS_IOTHUBTRANSPORT_AMQP_METHODS_01_137: [ `iothubtransportamqp_methods_subscribe` aft
 684:Source\azure_iot_sdk\iothub_client\src/iothubtransportamqp_methods.c ****     else if (iothubtransport_amqp_methods_handle->subscribe_state != SUBSCRIBE_STATE_NOT_SUBSCRIBED
 2272              		.loc 1 684 0
 2273 005a 3423     		movs	r3, #52
 2274 005c C35C     		ldrb	r3, [r0, r3]
 2275 005e 002B     		cmp	r3, #0
 2276 0060 10D0     		beq	.L129
 2277              	.LBB70:
 685:Source\azure_iot_sdk\iothub_client\src/iothubtransportamqp_methods.c ****     {
 686:Source\azure_iot_sdk\iothub_client\src/iothubtransportamqp_methods.c ****         LogError("Already subscribed");
 2278              		.loc 1 686 0 discriminator 3
 2279 0062 FFF7FEFF 		bl	xlogging_get_log_function
 2280              	.LVL384:
 2281 0066 041E     		subs	r4, r0, #0
 2282              	.LVL385:
 2283 0068 00D1     		bne	.LCB2445
 2284 006a 7EE1     		b	.L150	@long jump
 2285              	.LCB2445:
 2286              		.loc 1 686 0 is_stmt 0 discriminator 4
 2287 006c C44B     		ldr	r3, .L165+16
 2288 006e 0193     		str	r3, [sp, #4]
 2289 0070 0123     		movs	r3, #1
 2290 0072 0093     		str	r3, [sp]
 2291 0074 C34B     		ldr	r3, .L165+20
 2292 0076 BF4A     		ldr	r2, .L165+4
 2293 0078 5432     		adds	r2, r2, #84
 2294 007a BF49     		ldr	r1, .L165+8
 2295 007c 0020     		movs	r0, #0
ARM GAS  C:\Users\Phuong\AppData\Local\Temp\ccu7x7Ah.s 			page 55


 2296              	.LVL386:
 2297 007e A047     		blx	r4
 2298              	.LVL387:
 2299              	.LBE70:
 687:Source\azure_iot_sdk\iothub_client\src/iothubtransportamqp_methods.c ****         result = __FAILURE__;
 2300              		.loc 1 687 0 is_stmt 1 discriminator 4
 2301 0080 C14C     		ldr	r4, .L165+24
 2302              	.LVL388:
 2303 0082 D0E1     		b	.L128
 2304              	.LVL389:
 2305              	.L129:
 2306              	.LBB71:
 688:Source\azure_iot_sdk\iothub_client\src/iothubtransportamqp_methods.c ****     }
 689:Source\azure_iot_sdk\iothub_client\src/iothubtransportamqp_methods.c ****     else
 690:Source\azure_iot_sdk\iothub_client\src/iothubtransportamqp_methods.c ****     {
 691:Source\azure_iot_sdk\iothub_client\src/iothubtransportamqp_methods.c ****         /* Codes_SRS_IOTHUBTRANSPORT_AMQP_METHODS_01_015: [ The address string used to create the s
 692:Source\azure_iot_sdk\iothub_client\src/iothubtransportamqp_methods.c ****         /* Codes_SRS_IOTHUBTRANSPORT_AMQP_METHODS_01_016: [ The string shall be created by using `S
 693:Source\azure_iot_sdk\iothub_client\src/iothubtransportamqp_methods.c ****         STRING_HANDLE peer_endpoint_string = create_peer_endpoint_name(iothubtransport_amqp_methods
 2307              		.loc 1 693 0
 2308 0084 FFF7FEFF 		bl	create_peer_endpoint_name
 2309              	.LVL390:
 2310 0088 051E     		subs	r5, r0, #0
 2311              	.LVL391:
 694:Source\azure_iot_sdk\iothub_client\src/iothubtransportamqp_methods.c ****         if (peer_endpoint_string == NULL)
 2312              		.loc 1 694 0
 2313 008a 00D1     		bne	.LCB2482
 2314 008c CAE1     		b	.L151	@long jump
 2315              	.LCB2482:
 2316              	.LBB72:
 695:Source\azure_iot_sdk\iothub_client\src/iothubtransportamqp_methods.c ****         {
 696:Source\azure_iot_sdk\iothub_client\src/iothubtransportamqp_methods.c ****             /* Codes_SRS_IOTHUBTRANSPORT_AMQP_METHODS_01_018: [ If `STRING_construct_sprintf` fails
 697:Source\azure_iot_sdk\iothub_client\src/iothubtransportamqp_methods.c ****             result = __FAILURE__;
 698:Source\azure_iot_sdk\iothub_client\src/iothubtransportamqp_methods.c ****         }
 699:Source\azure_iot_sdk\iothub_client\src/iothubtransportamqp_methods.c ****         else
 700:Source\azure_iot_sdk\iothub_client\src/iothubtransportamqp_methods.c ****         {
 701:Source\azure_iot_sdk\iothub_client\src/iothubtransportamqp_methods.c ****             iothubtransport_amqp_methods_handle->on_method_request_received = on_method_request_rec
 2317              		.loc 1 701 0
 2318 008e 129B     		ldr	r3, [sp, #72]
 2319 0090 E361     		str	r3, [r4, #28]
 702:Source\azure_iot_sdk\iothub_client\src/iothubtransportamqp_methods.c ****             iothubtransport_amqp_methods_handle->on_method_request_received_context = on_method_req
 2320              		.loc 1 702 0
 2321 0092 139B     		ldr	r3, [sp, #76]
 2322 0094 2362     		str	r3, [r4, #32]
 703:Source\azure_iot_sdk\iothub_client\src/iothubtransportamqp_methods.c ****             iothubtransport_amqp_methods_handle->on_methods_error = on_methods_error;
 2323              		.loc 1 703 0
 2324 0096 6762     		str	r7, [r4, #36]
 704:Source\azure_iot_sdk\iothub_client\src/iothubtransportamqp_methods.c ****             iothubtransport_amqp_methods_handle->on_methods_error_context = on_methods_error_contex
 2325              		.loc 1 704 0
 2326 0098 089B     		ldr	r3, [sp, #32]
 2327 009a A362     		str	r3, [r4, #40]
 705:Source\azure_iot_sdk\iothub_client\src/iothubtransportamqp_methods.c ****             iothubtransport_amqp_methods_handle->on_methods_unsubscribed = on_methods_unsubscribed;
 2328              		.loc 1 705 0
 2329 009c 149B     		ldr	r3, [sp, #80]
 2330 009e E362     		str	r3, [r4, #44]
 706:Source\azure_iot_sdk\iothub_client\src/iothubtransportamqp_methods.c ****             iothubtransport_amqp_methods_handle->on_methods_unsubscribed_context = on_methods_unsub
 2331              		.loc 1 706 0
 2332 00a0 159B     		ldr	r3, [sp, #84]
ARM GAS  C:\Users\Phuong\AppData\Local\Temp\ccu7x7Ah.s 			page 56


 2333 00a2 2363     		str	r3, [r4, #48]
 707:Source\azure_iot_sdk\iothub_client\src/iothubtransportamqp_methods.c **** 
 708:Source\azure_iot_sdk\iothub_client\src/iothubtransportamqp_methods.c ****             /* Codes_SRS_IOTHUBTRANSPORT_AMQP_METHODS_01_014: [ - `source` shall be the a source va
 709:Source\azure_iot_sdk\iothub_client\src/iothubtransportamqp_methods.c ****             AMQP_VALUE receiver_source = messaging_create_source(STRING_c_str(peer_endpoint_string)
 2334              		.loc 1 709 0
 2335 00a4 FFF7FEFF 		bl	STRING_c_str
 2336              	.LVL392:
 2337 00a8 FFF7FEFF 		bl	messaging_create_source
 2338              	.LVL393:
 2339 00ac 0890     		str	r0, [sp, #32]
 2340              	.LVL394:
 710:Source\azure_iot_sdk\iothub_client\src/iothubtransportamqp_methods.c ****             if (receiver_source == NULL)
 2341              		.loc 1 710 0
 2342 00ae 0028     		cmp	r0, #0
 2343 00b0 10D1     		bne	.L130
 2344              	.LBB73:
 711:Source\azure_iot_sdk\iothub_client\src/iothubtransportamqp_methods.c ****             {
 712:Source\azure_iot_sdk\iothub_client\src/iothubtransportamqp_methods.c ****                 /* Codes_SRS_IOTHUBTRANSPORT_AMQP_METHODS_01_019: [ If creating the target or sourc
 713:Source\azure_iot_sdk\iothub_client\src/iothubtransportamqp_methods.c ****                 LogError("Cannot create receiver source");
 2345              		.loc 1 713 0 discriminator 3
 2346 00b2 FFF7FEFF 		bl	xlogging_get_log_function
 2347              	.LVL395:
 2348 00b6 041E     		subs	r4, r0, #0
 2349              	.LVL396:
 2350 00b8 00D1     		bne	.LCB2515
 2351 00ba 4FE1     		b	.L152	@long jump
 2352              	.LCB2515:
 2353              		.loc 1 713 0 is_stmt 0 discriminator 4
 2354 00bc B34B     		ldr	r3, .L165+28
 2355 00be 0193     		str	r3, [sp, #4]
 2356 00c0 0123     		movs	r3, #1
 2357 00c2 0093     		str	r3, [sp]
 2358 00c4 B24B     		ldr	r3, .L165+32
 2359 00c6 AB4A     		ldr	r2, .L165+4
 2360 00c8 5432     		adds	r2, r2, #84
 2361 00ca AB49     		ldr	r1, .L165+8
 2362 00cc 0020     		movs	r0, #0
 2363              	.LVL397:
 2364 00ce A047     		blx	r4
 2365              	.LVL398:
 2366              	.LBE73:
 714:Source\azure_iot_sdk\iothub_client\src/iothubtransportamqp_methods.c ****                 result = __FAILURE__;
 2367              		.loc 1 714 0 is_stmt 1 discriminator 4
 2368 00d0 B04C     		ldr	r4, .L165+36
 2369              	.LVL399:
 2370 00d2 44E1     		b	.L131
 2371              	.LVL400:
 2372              	.L130:
 2373              	.LBB74:
 715:Source\azure_iot_sdk\iothub_client\src/iothubtransportamqp_methods.c ****             }
 716:Source\azure_iot_sdk\iothub_client\src/iothubtransportamqp_methods.c ****             else
 717:Source\azure_iot_sdk\iothub_client\src/iothubtransportamqp_methods.c ****             {
 718:Source\azure_iot_sdk\iothub_client\src/iothubtransportamqp_methods.c ****                 /* Codes_SRS_IOTHUBTRANSPORT_AMQP_METHODS_01_017: [ - `target` shall be the a targe
 719:Source\azure_iot_sdk\iothub_client\src/iothubtransportamqp_methods.c ****                 /* Codes_SRS_IOTHUBTRANSPORT_AMQP_METHODS_01_117: [ The address string used to crea
 720:Source\azure_iot_sdk\iothub_client\src/iothubtransportamqp_methods.c ****                 AMQP_VALUE receiver_target = messaging_create_target("requests");
 2374              		.loc 1 720 0
 2375 00d4 B048     		ldr	r0, .L165+40
ARM GAS  C:\Users\Phuong\AppData\Local\Temp\ccu7x7Ah.s 			page 57


 2376              	.LVL401:
 2377 00d6 FFF7FEFF 		bl	messaging_create_target
 2378              	.LVL402:
 2379 00da 071E     		subs	r7, r0, #0
 2380              	.LVL403:
 721:Source\azure_iot_sdk\iothub_client\src/iothubtransportamqp_methods.c ****                 if (receiver_target == NULL)
 2381              		.loc 1 721 0
 2382 00dc 11D1     		bne	.L132
 2383              	.LBB75:
 722:Source\azure_iot_sdk\iothub_client\src/iothubtransportamqp_methods.c ****                 {
 723:Source\azure_iot_sdk\iothub_client\src/iothubtransportamqp_methods.c ****                     /* Codes_SRS_IOTHUBTRANSPORT_AMQP_METHODS_01_019: [ If creating the target or s
 724:Source\azure_iot_sdk\iothub_client\src/iothubtransportamqp_methods.c ****                     LogError("Cannot create receiver target");
 2384              		.loc 1 724 0 discriminator 3
 2385 00de FFF7FEFF 		bl	xlogging_get_log_function
 2386              	.LVL404:
 2387 00e2 041E     		subs	r4, r0, #0
 2388              	.LVL405:
 2389 00e4 00D1     		bne	.LCB2556
 2390 00e6 34E1     		b	.L153	@long jump
 2391              	.LCB2556:
 2392              		.loc 1 724 0 is_stmt 0 discriminator 4
 2393 00e8 AC4B     		ldr	r3, .L165+44
 2394 00ea 0193     		str	r3, [sp, #4]
 2395 00ec 0123     		movs	r3, #1
 2396 00ee 0093     		str	r3, [sp]
 2397 00f0 B523     		movs	r3, #181
 2398 00f2 9B00     		lsls	r3, r3, #2
 2399 00f4 9F4A     		ldr	r2, .L165+4
 2400 00f6 5432     		adds	r2, r2, #84
 2401 00f8 9F49     		ldr	r1, .L165+8
 2402 00fa 0020     		movs	r0, #0
 2403              	.LVL406:
 2404 00fc A047     		blx	r4
 2405              	.LVL407:
 2406              	.LBE75:
 725:Source\azure_iot_sdk\iothub_client\src/iothubtransportamqp_methods.c ****                     result = __FAILURE__;
 2407              		.loc 1 725 0 is_stmt 1 discriminator 4
 2408 00fe A84C     		ldr	r4, .L165+48
 2409              	.LVL408:
 2410 0100 28E1     		b	.L133
 2411              	.LVL409:
 2412              	.L132:
 2413              	.LBB76:
 726:Source\azure_iot_sdk\iothub_client\src/iothubtransportamqp_methods.c ****                 }
 727:Source\azure_iot_sdk\iothub_client\src/iothubtransportamqp_methods.c ****                 else
 728:Source\azure_iot_sdk\iothub_client\src/iothubtransportamqp_methods.c ****                 {
 729:Source\azure_iot_sdk\iothub_client\src/iothubtransportamqp_methods.c ****                     /* Codes_SRS_IOTHUBTRANSPORT_AMQP_METHODS_01_012: [ - `name` shall be in the fo
 730:Source\azure_iot_sdk\iothub_client\src/iothubtransportamqp_methods.c ****                     STRING_HANDLE requests_link_name = create_requests_link_name(iothubtransport_am
 2414              		.loc 1 730 0
 2415 0102 2000     		movs	r0, r4
 2416              	.LVL410:
 2417 0104 FFF7FEFF 		bl	create_requests_link_name
 2418              	.LVL411:
 2419 0108 0990     		str	r0, [sp, #36]
 2420              	.LVL412:
 731:Source\azure_iot_sdk\iothub_client\src/iothubtransportamqp_methods.c ****                     if (requests_link_name == NULL)
 2421              		.loc 1 731 0
ARM GAS  C:\Users\Phuong\AppData\Local\Temp\ccu7x7Ah.s 			page 58


 2422 010a 0028     		cmp	r0, #0
 2423 010c 10D1     		bne	.L134
 2424              	.LBB77:
 732:Source\azure_iot_sdk\iothub_client\src/iothubtransportamqp_methods.c ****                     {
 733:Source\azure_iot_sdk\iothub_client\src/iothubtransportamqp_methods.c ****                         /* Codes_SRS_IOTHUBTRANSPORT_AMQP_METHODS_01_153: [ If constructing the req
 734:Source\azure_iot_sdk\iothub_client\src/iothubtransportamqp_methods.c ****                         LogError("Cannot create methods requests link name.");
 2425              		.loc 1 734 0 discriminator 3
 2426 010e FFF7FEFF 		bl	xlogging_get_log_function
 2427              	.LVL413:
 2428 0112 041E     		subs	r4, r0, #0
 2429              	.LVL414:
 2430 0114 00D1     		bne	.LCB2597
 2431 0116 17E1     		b	.L154	@long jump
 2432              	.LCB2597:
 2433              		.loc 1 734 0 is_stmt 0 discriminator 4
 2434 0118 A24B     		ldr	r3, .L165+52
 2435 011a 0193     		str	r3, [sp, #4]
 2436 011c 0123     		movs	r3, #1
 2437 011e 0093     		str	r3, [sp]
 2438 0120 A14B     		ldr	r3, .L165+56
 2439 0122 944A     		ldr	r2, .L165+4
 2440 0124 5432     		adds	r2, r2, #84
 2441 0126 9449     		ldr	r1, .L165+8
 2442 0128 0020     		movs	r0, #0
 2443              	.LVL415:
 2444 012a A047     		blx	r4
 2445              	.LVL416:
 2446              	.LBE77:
 735:Source\azure_iot_sdk\iothub_client\src/iothubtransportamqp_methods.c ****                         result = __FAILURE__;
 2447              		.loc 1 735 0 is_stmt 1 discriminator 4
 2448 012c 9F4C     		ldr	r4, .L165+60
 2449              	.LVL417:
 2450 012e 0CE1     		b	.L135
 2451              	.LVL418:
 2452              	.L134:
 736:Source\azure_iot_sdk\iothub_client\src/iothubtransportamqp_methods.c ****                     }
 737:Source\azure_iot_sdk\iothub_client\src/iothubtransportamqp_methods.c ****                     else
 738:Source\azure_iot_sdk\iothub_client\src/iothubtransportamqp_methods.c ****                     {
 739:Source\azure_iot_sdk\iothub_client\src/iothubtransportamqp_methods.c ****                         /* Codes_SRS_IOTHUBTRANSPORT_AMQP_METHODS_01_010: [ `iothubtransportamqp_me
 740:Source\azure_iot_sdk\iothub_client\src/iothubtransportamqp_methods.c ****                         /* Codes_SRS_IOTHUBTRANSPORT_AMQP_METHODS_01_011: [ - `session_handle` shal
 741:Source\azure_iot_sdk\iothub_client\src/iothubtransportamqp_methods.c ****                         /* Codes_SRS_IOTHUBTRANSPORT_AMQP_METHODS_01_013: [ - `role` shall be role_
 742:Source\azure_iot_sdk\iothub_client\src/iothubtransportamqp_methods.c ****                         iothubtransport_amqp_methods_handle->receiver_link = link_create(session_ha
 2453              		.loc 1 742 0
 2454 0130 0998     		ldr	r0, [sp, #36]
 2455              	.LVL419:
 2456 0132 FFF7FEFF 		bl	STRING_c_str
 2457              	.LVL420:
 2458 0136 0100     		movs	r1, r0
 2459 0138 0097     		str	r7, [sp]
 2460 013a 089B     		ldr	r3, [sp, #32]
 2461 013c 0122     		movs	r2, #1
 2462 013e 3000     		movs	r0, r6
 2463 0140 FFF7FEFF 		bl	link_create
 2464              	.LVL421:
 2465 0144 E060     		str	r0, [r4, #12]
 743:Source\azure_iot_sdk\iothub_client\src/iothubtransportamqp_methods.c ****                         if (iothubtransport_amqp_methods_handle->receiver_link == NULL)
 2466              		.loc 1 743 0
ARM GAS  C:\Users\Phuong\AppData\Local\Temp\ccu7x7Ah.s 			page 59


 2467 0146 0028     		cmp	r0, #0
 2468 0148 10D1     		bne	.L136
 2469              	.LBB78:
 744:Source\azure_iot_sdk\iothub_client\src/iothubtransportamqp_methods.c ****                         {
 745:Source\azure_iot_sdk\iothub_client\src/iothubtransportamqp_methods.c ****                             /* Codes_SRS_IOTHUBTRANSPORT_AMQP_METHODS_01_020: [ If creating the rec
 746:Source\azure_iot_sdk\iothub_client\src/iothubtransportamqp_methods.c ****                             LogError("Cannot create receiver link");
 2470              		.loc 1 746 0 discriminator 3
 2471 014a FFF7FEFF 		bl	xlogging_get_log_function
 2472              	.LVL422:
 2473 014e 041E     		subs	r4, r0, #0
 2474              	.LVL423:
 2475 0150 00D1     		bne	.LCB2641
 2476 0152 F2E0     		b	.L155	@long jump
 2477              	.LCB2641:
 2478              		.loc 1 746 0 is_stmt 0 discriminator 4
 2479 0154 964B     		ldr	r3, .L165+64
 2480 0156 0193     		str	r3, [sp, #4]
 2481 0158 0123     		movs	r3, #1
 2482 015a 0093     		str	r3, [sp]
 2483 015c 954B     		ldr	r3, .L165+68
 2484 015e 854A     		ldr	r2, .L165+4
 2485 0160 5432     		adds	r2, r2, #84
 2486 0162 8549     		ldr	r1, .L165+8
 2487 0164 0020     		movs	r0, #0
 2488              	.LVL424:
 2489 0166 A047     		blx	r4
 2490              	.LVL425:
 2491              	.LBE78:
 747:Source\azure_iot_sdk\iothub_client\src/iothubtransportamqp_methods.c ****                             result = __FAILURE__;
 2492              		.loc 1 747 0 is_stmt 1 discriminator 4
 2493 0168 934C     		ldr	r4, .L165+72
 2494              	.LVL426:
 2495 016a E9E0     		b	.L137
 2496              	.LVL427:
 2497              	.L136:
 2498              	.LBB79:
 748:Source\azure_iot_sdk\iothub_client\src/iothubtransportamqp_methods.c ****                         }
 749:Source\azure_iot_sdk\iothub_client\src/iothubtransportamqp_methods.c ****                         else
 750:Source\azure_iot_sdk\iothub_client\src/iothubtransportamqp_methods.c ****                         {
 751:Source\azure_iot_sdk\iothub_client\src/iothubtransportamqp_methods.c ****                             /* Codes_SRS_IOTHUBTRANSPORT_AMQP_METHODS_01_025: [ - `source` shall be
 752:Source\azure_iot_sdk\iothub_client\src/iothubtransportamqp_methods.c ****                             /* Codes_SRS_IOTHUBTRANSPORT_AMQP_METHODS_01_026: [ The address string 
 753:Source\azure_iot_sdk\iothub_client\src/iothubtransportamqp_methods.c ****                             AMQP_VALUE sender_source = messaging_create_source("responses");
 2499              		.loc 1 753 0
 2500 016c 9348     		ldr	r0, .L165+76
 2501 016e FFF7FEFF 		bl	messaging_create_source
 2502              	.LVL428:
 2503 0172 0A90     		str	r0, [sp, #40]
 2504              	.LVL429:
 754:Source\azure_iot_sdk\iothub_client\src/iothubtransportamqp_methods.c ****                             if (sender_source == NULL)
 2505              		.loc 1 754 0
 2506 0174 0028     		cmp	r0, #0
 2507 0176 10D1     		bne	.L138
 2508              	.LBB80:
 755:Source\azure_iot_sdk\iothub_client\src/iothubtransportamqp_methods.c ****                             {
 756:Source\azure_iot_sdk\iothub_client\src/iothubtransportamqp_methods.c ****                                 /* Codes_SRS_IOTHUBTRANSPORT_AMQP_METHODS_01_031: [ If creating the
 757:Source\azure_iot_sdk\iothub_client\src/iothubtransportamqp_methods.c ****                                 LogError("Cannot create sender source");
 2509              		.loc 1 757 0 discriminator 3
ARM GAS  C:\Users\Phuong\AppData\Local\Temp\ccu7x7Ah.s 			page 60


 2510 0178 FFF7FEFF 		bl	xlogging_get_log_function
 2511              	.LVL430:
 2512 017c 041E     		subs	r4, r0, #0
 2513              	.LVL431:
 2514 017e 00D1     		bne	.LCB2679
 2515 0180 DDE0     		b	.L156	@long jump
 2516              	.LCB2679:
 2517              		.loc 1 757 0 is_stmt 0 discriminator 4
 2518 0182 8F4B     		ldr	r3, .L165+80
 2519 0184 0193     		str	r3, [sp, #4]
 2520 0186 0123     		movs	r3, #1
 2521 0188 0093     		str	r3, [sp]
 2522 018a 8E4B     		ldr	r3, .L165+84
 2523 018c 794A     		ldr	r2, .L165+4
 2524 018e 5432     		adds	r2, r2, #84
 2525 0190 7949     		ldr	r1, .L165+8
 2526 0192 0020     		movs	r0, #0
 2527              	.LVL432:
 2528 0194 A047     		blx	r4
 2529              	.LVL433:
 2530              	.LBE80:
 758:Source\azure_iot_sdk\iothub_client\src/iothubtransportamqp_methods.c ****                                 result = __FAILURE__;
 2531              		.loc 1 758 0 is_stmt 1 discriminator 4
 2532 0196 8C4C     		ldr	r4, .L165+88
 2533              	.LVL434:
 2534 0198 D2E0     		b	.L137
 2535              	.LVL435:
 2536              	.L138:
 2537              	.LBB81:
 759:Source\azure_iot_sdk\iothub_client\src/iothubtransportamqp_methods.c ****                             }
 760:Source\azure_iot_sdk\iothub_client\src/iothubtransportamqp_methods.c ****                             else
 761:Source\azure_iot_sdk\iothub_client\src/iothubtransportamqp_methods.c ****                             {
 762:Source\azure_iot_sdk\iothub_client\src/iothubtransportamqp_methods.c ****                                 /* Codes_SRS_IOTHUBTRANSPORT_AMQP_METHODS_01_027: [ - `target` shal
 763:Source\azure_iot_sdk\iothub_client\src/iothubtransportamqp_methods.c ****                                 AMQP_VALUE sender_target = messaging_create_target(STRING_c_str(pee
 2538              		.loc 1 763 0
 2539 019a 2800     		movs	r0, r5
 2540              	.LVL436:
 2541 019c FFF7FEFF 		bl	STRING_c_str
 2542              	.LVL437:
 2543 01a0 FFF7FEFF 		bl	messaging_create_target
 2544              	.LVL438:
 2545 01a4 8246     		mov	r10, r0
 2546              	.LVL439:
 764:Source\azure_iot_sdk\iothub_client\src/iothubtransportamqp_methods.c ****                                 if (sender_target == NULL)
 2547              		.loc 1 764 0
 2548 01a6 0028     		cmp	r0, #0
 2549 01a8 11D1     		bne	.L139
 2550              	.LBB82:
 765:Source\azure_iot_sdk\iothub_client\src/iothubtransportamqp_methods.c ****                                 {
 766:Source\azure_iot_sdk\iothub_client\src/iothubtransportamqp_methods.c ****                                     /* Codes_SRS_IOTHUBTRANSPORT_AMQP_METHODS_01_031: [ If creating
 767:Source\azure_iot_sdk\iothub_client\src/iothubtransportamqp_methods.c ****                                     LogError("Cannot create sender target");
 2551              		.loc 1 767 0 discriminator 3
 2552 01aa FFF7FEFF 		bl	xlogging_get_log_function
 2553              	.LVL440:
 2554 01ae 041E     		subs	r4, r0, #0
 2555              	.LVL441:
 2556 01b0 00D1     		bne	.LCB2721
ARM GAS  C:\Users\Phuong\AppData\Local\Temp\ccu7x7Ah.s 			page 61


 2557 01b2 BCE0     		b	.L157	@long jump
 2558              	.LCB2721:
 2559              		.loc 1 767 0 is_stmt 0 discriminator 4
 2560 01b4 854B     		ldr	r3, .L165+92
 2561 01b6 0193     		str	r3, [sp, #4]
 2562 01b8 0123     		movs	r3, #1
 2563 01ba 0093     		str	r3, [sp]
 2564 01bc 844B     		ldr	r3, .L165+96
 2565 01be 6D4A     		ldr	r2, .L165+4
 2566 01c0 5432     		adds	r2, r2, #84
 2567 01c2 6D49     		ldr	r1, .L165+8
 2568 01c4 0020     		movs	r0, #0
 2569              	.LVL442:
 2570 01c6 A047     		blx	r4
 2571              	.LVL443:
 2572              	.LBE82:
 768:Source\azure_iot_sdk\iothub_client\src/iothubtransportamqp_methods.c ****                                     result = __FAILURE__;
 2573              		.loc 1 768 0 is_stmt 1 discriminator 4
 2574 01c8 C024     		movs	r4, #192
 2575              	.LVL444:
 2576 01ca A400     		lsls	r4, r4, #2
 2577 01cc B1E0     		b	.L140
 2578              	.LVL445:
 2579              	.L139:
 2580              	.LBB83:
 769:Source\azure_iot_sdk\iothub_client\src/iothubtransportamqp_methods.c ****                                 }
 770:Source\azure_iot_sdk\iothub_client\src/iothubtransportamqp_methods.c ****                                 else
 771:Source\azure_iot_sdk\iothub_client\src/iothubtransportamqp_methods.c ****                                 {
 772:Source\azure_iot_sdk\iothub_client\src/iothubtransportamqp_methods.c ****                                     /* Codes_SRS_IOTHUBTRANSPORT_AMQP_METHODS_01_023: [ - `name` sh
 773:Source\azure_iot_sdk\iothub_client\src/iothubtransportamqp_methods.c ****                                     STRING_HANDLE responses_link_name = create_responses_link_name(
 2581              		.loc 1 773 0
 2582 01ce 2000     		movs	r0, r4
 2583              	.LVL446:
 2584 01d0 FFF7FEFF 		bl	create_responses_link_name
 2585              	.LVL447:
 2586 01d4 0B90     		str	r0, [sp, #44]
 2587              	.LVL448:
 774:Source\azure_iot_sdk\iothub_client\src/iothubtransportamqp_methods.c ****                                     if (responses_link_name == NULL)
 2588              		.loc 1 774 0
 2589 01d6 0028     		cmp	r0, #0
 2590 01d8 10D1     		bne	.L141
 2591              	.LBB84:
 775:Source\azure_iot_sdk\iothub_client\src/iothubtransportamqp_methods.c ****                                     {
 776:Source\azure_iot_sdk\iothub_client\src/iothubtransportamqp_methods.c ****                                         /* Codes_SRS_IOTHUBTRANSPORT_AMQP_METHODS_01_154: [ If cons
 777:Source\azure_iot_sdk\iothub_client\src/iothubtransportamqp_methods.c ****                                         LogError("Cannot create methods responses link name.");
 2592              		.loc 1 777 0 discriminator 3
 2593 01da FFF7FEFF 		bl	xlogging_get_log_function
 2594              	.LVL449:
 2595 01de 041E     		subs	r4, r0, #0
 2596              	.LVL450:
 2597 01e0 00D1     		bne	.LCB2762
 2598 01e2 9FE0     		b	.L158	@long jump
 2599              	.LCB2762:
 2600              		.loc 1 777 0 is_stmt 0 discriminator 4
 2601 01e4 7B4B     		ldr	r3, .L165+100
 2602 01e6 0193     		str	r3, [sp, #4]
 2603 01e8 0123     		movs	r3, #1
ARM GAS  C:\Users\Phuong\AppData\Local\Temp\ccu7x7Ah.s 			page 62


 2604 01ea 0093     		str	r3, [sp]
 2605 01ec 7A4B     		ldr	r3, .L165+104
 2606 01ee 614A     		ldr	r2, .L165+4
 2607 01f0 5432     		adds	r2, r2, #84
 2608 01f2 6149     		ldr	r1, .L165+8
 2609 01f4 0020     		movs	r0, #0
 2610              	.LVL451:
 2611 01f6 A047     		blx	r4
 2612              	.LVL452:
 2613              	.LBE84:
 778:Source\azure_iot_sdk\iothub_client\src/iothubtransportamqp_methods.c ****                                         result = __FAILURE__;
 2614              		.loc 1 778 0 is_stmt 1 discriminator 4
 2615 01f8 784C     		ldr	r4, .L165+108
 2616              	.LVL453:
 2617 01fa 94E0     		b	.L142
 2618              	.LVL454:
 2619              	.L141:
 779:Source\azure_iot_sdk\iothub_client\src/iothubtransportamqp_methods.c ****                                     }
 780:Source\azure_iot_sdk\iothub_client\src/iothubtransportamqp_methods.c ****                                     else
 781:Source\azure_iot_sdk\iothub_client\src/iothubtransportamqp_methods.c ****                                     {
 782:Source\azure_iot_sdk\iothub_client\src/iothubtransportamqp_methods.c ****                                         /* Codes_SRS_IOTHUBTRANSPORT_AMQP_METHODS_01_021: [ `iothub
 783:Source\azure_iot_sdk\iothub_client\src/iothubtransportamqp_methods.c ****                                         /* Codes_SRS_IOTHUBTRANSPORT_AMQP_METHODS_01_022: [ - `sess
 784:Source\azure_iot_sdk\iothub_client\src/iothubtransportamqp_methods.c ****                                         /* Codes_SRS_IOTHUBTRANSPORT_AMQP_METHODS_01_024: [ - `role
 785:Source\azure_iot_sdk\iothub_client\src/iothubtransportamqp_methods.c ****                                         iothubtransport_amqp_methods_handle->sender_link = link_cre
 2620              		.loc 1 785 0
 2621 01fc 0B98     		ldr	r0, [sp, #44]
 2622              	.LVL455:
 2623 01fe FFF7FEFF 		bl	STRING_c_str
 2624              	.LVL456:
 2625 0202 0100     		movs	r1, r0
 2626 0204 5346     		mov	r3, r10
 2627 0206 0093     		str	r3, [sp]
 2628 0208 0A9B     		ldr	r3, [sp, #40]
 2629 020a 0022     		movs	r2, #0
 2630 020c 3000     		movs	r0, r6
 2631 020e FFF7FEFF 		bl	link_create
 2632              	.LVL457:
 2633 0212 2061     		str	r0, [r4, #16]
 786:Source\azure_iot_sdk\iothub_client\src/iothubtransportamqp_methods.c ****                                         if (iothubtransport_amqp_methods_handle->sender_link == NUL
 2634              		.loc 1 786 0
 2635 0214 0028     		cmp	r0, #0
 2636 0216 0FD1     		bne	.L143
 2637              	.LBB85:
 787:Source\azure_iot_sdk\iothub_client\src/iothubtransportamqp_methods.c ****                                         {
 788:Source\azure_iot_sdk\iothub_client\src/iothubtransportamqp_methods.c ****                                             /* Codes_SRS_IOTHUBTRANSPORT_AMQP_METHODS_01_032: [ If 
 789:Source\azure_iot_sdk\iothub_client\src/iothubtransportamqp_methods.c ****                                             LogError("Cannot create sender link");
 2638              		.loc 1 789 0 discriminator 3
 2639 0218 FFF7FEFF 		bl	xlogging_get_log_function
 2640              	.LVL458:
 2641 021c 041E     		subs	r4, r0, #0
 2642              	.LVL459:
 2643 021e 71D0     		beq	.L159
 2644              		.loc 1 789 0 is_stmt 0 discriminator 4
 2645 0220 6F4B     		ldr	r3, .L165+112
 2646 0222 0193     		str	r3, [sp, #4]
 2647 0224 0123     		movs	r3, #1
 2648 0226 0093     		str	r3, [sp]
ARM GAS  C:\Users\Phuong\AppData\Local\Temp\ccu7x7Ah.s 			page 63


 2649 0228 6E4B     		ldr	r3, .L165+116
 2650 022a 524A     		ldr	r2, .L165+4
 2651 022c 5432     		adds	r2, r2, #84
 2652 022e 5249     		ldr	r1, .L165+8
 2653 0230 0020     		movs	r0, #0
 2654              	.LVL460:
 2655 0232 A047     		blx	r4
 2656              	.LVL461:
 2657              	.LBE85:
 790:Source\azure_iot_sdk\iothub_client\src/iothubtransportamqp_methods.c ****                                             result = __FAILURE__;
 2658              		.loc 1 790 0 is_stmt 1 discriminator 4
 2659 0234 6C4C     		ldr	r4, .L165+120
 2660              	.LVL462:
 2661 0236 71E0     		b	.L144
 2662              	.LVL463:
 2663              	.L143:
 791:Source\azure_iot_sdk\iothub_client\src/iothubtransportamqp_methods.c ****                                         }
 792:Source\azure_iot_sdk\iothub_client\src/iothubtransportamqp_methods.c ****                                         else
 793:Source\azure_iot_sdk\iothub_client\src/iothubtransportamqp_methods.c ****                                         {
 794:Source\azure_iot_sdk\iothub_client\src/iothubtransportamqp_methods.c ****                                             if (set_link_attach_properties(iothubtransport_amqp_met
 2664              		.loc 1 794 0
 2665 0238 2000     		movs	r0, r4
 2666 023a FFF7FEFF 		bl	set_link_attach_properties
 2667              	.LVL464:
 2668 023e 0028     		cmp	r0, #0
 2669 0240 62D1     		bne	.L160
 795:Source\azure_iot_sdk\iothub_client\src/iothubtransportamqp_methods.c ****                                             {
 796:Source\azure_iot_sdk\iothub_client\src/iothubtransportamqp_methods.c ****                                                 result = __FAILURE__;
 797:Source\azure_iot_sdk\iothub_client\src/iothubtransportamqp_methods.c ****                                             }
 798:Source\azure_iot_sdk\iothub_client\src/iothubtransportamqp_methods.c ****                                             else
 799:Source\azure_iot_sdk\iothub_client\src/iothubtransportamqp_methods.c ****                                             {
 800:Source\azure_iot_sdk\iothub_client\src/iothubtransportamqp_methods.c ****                                                 /* Codes_SRS_IOTHUBTRANSPORT_AMQP_METHODS_01_033: [
 801:Source\azure_iot_sdk\iothub_client\src/iothubtransportamqp_methods.c ****                                                 /* Codes_SRS_IOTHUBTRANSPORT_AMQP_METHODS_01_118: [
 802:Source\azure_iot_sdk\iothub_client\src/iothubtransportamqp_methods.c ****                                                 iothubtransport_amqp_methods_handle->message_receiv
 2670              		.loc 1 802 0
 2671 0242 2200     		movs	r2, r4
 2672 0244 6949     		ldr	r1, .L165+124
 2673 0246 E068     		ldr	r0, [r4, #12]
 2674 0248 FFF7FEFF 		bl	messagereceiver_create
 2675              	.LVL465:
 2676 024c 6061     		str	r0, [r4, #20]
 803:Source\azure_iot_sdk\iothub_client\src/iothubtransportamqp_methods.c ****                                                 if (iothubtransport_amqp_methods_handle->message_re
 2677              		.loc 1 803 0
 2678 024e 0028     		cmp	r0, #0
 2679 0250 0FD1     		bne	.L145
 2680              	.LBB86:
 804:Source\azure_iot_sdk\iothub_client\src/iothubtransportamqp_methods.c ****                                                 {
 805:Source\azure_iot_sdk\iothub_client\src/iothubtransportamqp_methods.c ****                                                     /* Codes_SRS_IOTHUBTRANSPORT_AMQP_METHODS_01_03
 806:Source\azure_iot_sdk\iothub_client\src/iothubtransportamqp_methods.c ****                                                     LogError("Cannot create message receiver");
 2681              		.loc 1 806 0 discriminator 3
 2682 0252 FFF7FEFF 		bl	xlogging_get_log_function
 2683              	.LVL466:
 2684 0256 041E     		subs	r4, r0, #0
 2685              	.LVL467:
 2686 0258 59D0     		beq	.L161
 2687              		.loc 1 806 0 is_stmt 0 discriminator 4
 2688 025a 654B     		ldr	r3, .L165+128
ARM GAS  C:\Users\Phuong\AppData\Local\Temp\ccu7x7Ah.s 			page 64


 2689 025c 0193     		str	r3, [sp, #4]
 2690 025e 0123     		movs	r3, #1
 2691 0260 0093     		str	r3, [sp]
 2692 0262 644B     		ldr	r3, .L165+132
 2693 0264 434A     		ldr	r2, .L165+4
 2694 0266 5432     		adds	r2, r2, #84
 2695 0268 4349     		ldr	r1, .L165+8
 2696 026a 0020     		movs	r0, #0
 2697              	.LVL468:
 2698 026c A047     		blx	r4
 2699              	.LVL469:
 2700              	.LBE86:
 807:Source\azure_iot_sdk\iothub_client\src/iothubtransportamqp_methods.c ****                                                     result = __FAILURE__;
 2701              		.loc 1 807 0 is_stmt 1 discriminator 4
 2702 026e 624C     		ldr	r4, .L165+136
 2703              	.LVL470:
 2704 0270 54E0     		b	.L144
 2705              	.LVL471:
 2706              	.L145:
 808:Source\azure_iot_sdk\iothub_client\src/iothubtransportamqp_methods.c ****                                                 }
 809:Source\azure_iot_sdk\iothub_client\src/iothubtransportamqp_methods.c ****                                                 else
 810:Source\azure_iot_sdk\iothub_client\src/iothubtransportamqp_methods.c ****                                                 {
 811:Source\azure_iot_sdk\iothub_client\src/iothubtransportamqp_methods.c ****                                                     /* Codes_SRS_IOTHUBTRANSPORT_AMQP_METHODS_01_03
 812:Source\azure_iot_sdk\iothub_client\src/iothubtransportamqp_methods.c ****                                                     /* Codes_SRS_IOTHUBTRANSPORT_AMQP_METHODS_01_10
 813:Source\azure_iot_sdk\iothub_client\src/iothubtransportamqp_methods.c ****                                                     iothubtransport_amqp_methods_handle->message_se
 2707              		.loc 1 813 0
 2708 0272 2200     		movs	r2, r4
 2709 0274 6149     		ldr	r1, .L165+140
 2710 0276 2069     		ldr	r0, [r4, #16]
 2711 0278 FFF7FEFF 		bl	messagesender_create
 2712              	.LVL472:
 2713 027c A061     		str	r0, [r4, #24]
 814:Source\azure_iot_sdk\iothub_client\src/iothubtransportamqp_methods.c ****                                                     if (iothubtransport_amqp_methods_handle->messag
 2714              		.loc 1 814 0
 2715 027e 0028     		cmp	r0, #0
 2716 0280 0FD1     		bne	.L146
 2717              	.LBB87:
 815:Source\azure_iot_sdk\iothub_client\src/iothubtransportamqp_methods.c ****                                                     {
 816:Source\azure_iot_sdk\iothub_client\src/iothubtransportamqp_methods.c ****                                                         /* Codes_SRS_IOTHUBTRANSPORT_AMQP_METHODS_0
 817:Source\azure_iot_sdk\iothub_client\src/iothubtransportamqp_methods.c ****                                                         LogError("Cannot create message sender");
 2718              		.loc 1 817 0 discriminator 3
 2719 0282 FFF7FEFF 		bl	xlogging_get_log_function
 2720              	.LVL473:
 2721 0286 041E     		subs	r4, r0, #0
 2722              	.LVL474:
 2723 0288 43D0     		beq	.L162
 2724              		.loc 1 817 0 is_stmt 0 discriminator 4
 2725 028a 5D4B     		ldr	r3, .L165+144
 2726 028c 0193     		str	r3, [sp, #4]
 2727 028e 0123     		movs	r3, #1
 2728 0290 0093     		str	r3, [sp]
 2729 0292 5C4B     		ldr	r3, .L165+148
 2730 0294 374A     		ldr	r2, .L165+4
 2731 0296 5432     		adds	r2, r2, #84
 2732 0298 3749     		ldr	r1, .L165+8
 2733 029a 0020     		movs	r0, #0
 2734              	.LVL475:
ARM GAS  C:\Users\Phuong\AppData\Local\Temp\ccu7x7Ah.s 			page 65


 2735 029c A047     		blx	r4
 2736              	.LVL476:
 2737              	.LBE87:
 818:Source\azure_iot_sdk\iothub_client\src/iothubtransportamqp_methods.c ****                                                         result = __FAILURE__;
 2738              		.loc 1 818 0 is_stmt 1 discriminator 4
 2739 029e 5A4C     		ldr	r4, .L165+152
 2740              	.LVL477:
 2741 02a0 3CE0     		b	.L144
 2742              	.LVL478:
 2743              	.L146:
 819:Source\azure_iot_sdk\iothub_client\src/iothubtransportamqp_methods.c ****                                                     }
 820:Source\azure_iot_sdk\iothub_client\src/iothubtransportamqp_methods.c ****                                                     else
 821:Source\azure_iot_sdk\iothub_client\src/iothubtransportamqp_methods.c ****                                                     {
 822:Source\azure_iot_sdk\iothub_client\src/iothubtransportamqp_methods.c ****                                                         /* Codes_SRS_IOTHUBTRANSPORT_AMQP_METHODS_0
 823:Source\azure_iot_sdk\iothub_client\src/iothubtransportamqp_methods.c ****                                                         if (messagesender_open(iothubtransport_amqp
 2744              		.loc 1 823 0
 2745 02a2 FFF7FEFF 		bl	messagesender_open
 2746              	.LVL479:
 2747 02a6 0028     		cmp	r0, #0
 2748 02a8 0FD0     		beq	.L147
 2749              	.LBB88:
 824:Source\azure_iot_sdk\iothub_client\src/iothubtransportamqp_methods.c ****                                                         {
 825:Source\azure_iot_sdk\iothub_client\src/iothubtransportamqp_methods.c ****                                                             /* Codes_SRS_IOTHUBTRANSPORT_AMQP_METHO
 826:Source\azure_iot_sdk\iothub_client\src/iothubtransportamqp_methods.c ****                                                             LogError("Cannot open the message sende
 2750              		.loc 1 826 0 discriminator 3
 2751 02aa FFF7FEFF 		bl	xlogging_get_log_function
 2752              	.LVL480:
 2753 02ae 041E     		subs	r4, r0, #0
 2754              	.LVL481:
 2755 02b0 31D0     		beq	.L163
 2756              		.loc 1 826 0 is_stmt 0 discriminator 4
 2757 02b2 564B     		ldr	r3, .L165+156
 2758 02b4 0193     		str	r3, [sp, #4]
 2759 02b6 0123     		movs	r3, #1
 2760 02b8 0093     		str	r3, [sp]
 2761 02ba 554B     		ldr	r3, .L165+160
 2762 02bc 2D4A     		ldr	r2, .L165+4
 2763 02be 5432     		adds	r2, r2, #84
 2764 02c0 2D49     		ldr	r1, .L165+8
 2765 02c2 0020     		movs	r0, #0
 2766              	.LVL482:
 2767 02c4 A047     		blx	r4
 2768              	.LVL483:
 2769              	.LBE88:
 827:Source\azure_iot_sdk\iothub_client\src/iothubtransportamqp_methods.c ****                                                             result = __FAILURE__;
 2770              		.loc 1 827 0 is_stmt 1 discriminator 4
 2771 02c6 534C     		ldr	r4, .L165+164
 2772              	.LVL484:
 2773 02c8 28E0     		b	.L144
 2774              	.LVL485:
 2775              	.L147:
 828:Source\azure_iot_sdk\iothub_client\src/iothubtransportamqp_methods.c ****                                                         }
 829:Source\azure_iot_sdk\iothub_client\src/iothubtransportamqp_methods.c ****                                                         else
 830:Source\azure_iot_sdk\iothub_client\src/iothubtransportamqp_methods.c ****                                                         {
 831:Source\azure_iot_sdk\iothub_client\src/iothubtransportamqp_methods.c ****                                                             /* Codes_SRS_IOTHUBTRANSPORT_AMQP_METHO
 832:Source\azure_iot_sdk\iothub_client\src/iothubtransportamqp_methods.c ****                                                             /* Codes_SRS_IOTHUBTRANSPORT_AMQP_METHO
 833:Source\azure_iot_sdk\iothub_client\src/iothubtransportamqp_methods.c ****                                                             if (messagereceiver_open(iothubtranspor
ARM GAS  C:\Users\Phuong\AppData\Local\Temp\ccu7x7Ah.s 			page 66


 2776              		.loc 1 833 0
 2777 02ca 2200     		movs	r2, r4
 2778 02cc 5249     		ldr	r1, .L165+168
 2779 02ce 6069     		ldr	r0, [r4, #20]
 2780 02d0 FFF7FEFF 		bl	messagereceiver_open
 2781              	.LVL486:
 2782 02d4 0028     		cmp	r0, #0
 2783 02d6 10D0     		beq	.L148
 2784              	.LBB89:
 834:Source\azure_iot_sdk\iothub_client\src/iothubtransportamqp_methods.c ****                                                             {
 835:Source\azure_iot_sdk\iothub_client\src/iothubtransportamqp_methods.c ****                                                                 /* Codes_SRS_IOTHUBTRANSPORT_AMQP_M
 836:Source\azure_iot_sdk\iothub_client\src/iothubtransportamqp_methods.c ****                                                                 LogError("Cannot open the message r
 2785              		.loc 1 836 0 discriminator 3
 2786 02d8 FFF7FEFF 		bl	xlogging_get_log_function
 2787              	.LVL487:
 2788 02dc 041E     		subs	r4, r0, #0
 2789              	.LVL488:
 2790 02de 1CD0     		beq	.L164
 2791              		.loc 1 836 0 is_stmt 0 discriminator 4
 2792 02e0 4E4B     		ldr	r3, .L165+172
 2793 02e2 0193     		str	r3, [sp, #4]
 2794 02e4 0123     		movs	r3, #1
 2795 02e6 0093     		str	r3, [sp]
 2796 02e8 D123     		movs	r3, #209
 2797 02ea 9B00     		lsls	r3, r3, #2
 2798 02ec 214A     		ldr	r2, .L165+4
 2799 02ee 5432     		adds	r2, r2, #84
 2800 02f0 2149     		ldr	r1, .L165+8
 2801 02f2 0020     		movs	r0, #0
 2802              	.LVL489:
 2803 02f4 A047     		blx	r4
 2804              	.LVL490:
 2805              	.LBE89:
 837:Source\azure_iot_sdk\iothub_client\src/iothubtransportamqp_methods.c ****                                                                 result = __FAILURE__;
 2806              		.loc 1 837 0 is_stmt 1 discriminator 4
 2807 02f6 4A4C     		ldr	r4, .L165+176
 2808              	.LVL491:
 2809 02f8 10E0     		b	.L144
 2810              	.LVL492:
 2811              	.L148:
 838:Source\azure_iot_sdk\iothub_client\src/iothubtransportamqp_methods.c ****                                                             }
 839:Source\azure_iot_sdk\iothub_client\src/iothubtransportamqp_methods.c ****                                                             else
 840:Source\azure_iot_sdk\iothub_client\src/iothubtransportamqp_methods.c ****                                                             {
 841:Source\azure_iot_sdk\iothub_client\src/iothubtransportamqp_methods.c ****                                                                 iothubtransport_amqp_methods_handle
 2812              		.loc 1 841 0
 2813 02fa 0122     		movs	r2, #1
 2814 02fc 3423     		movs	r3, #52
 2815 02fe E254     		strb	r2, [r4, r3]
 2816              	.LVL493:
 842:Source\azure_iot_sdk\iothub_client\src/iothubtransportamqp_methods.c **** 
 843:Source\azure_iot_sdk\iothub_client\src/iothubtransportamqp_methods.c ****                                                                 /* Codes_SRS_IOTHUBTRANSPORT_AMQP_M
 844:Source\azure_iot_sdk\iothub_client\src/iothubtransportamqp_methods.c ****                                                                 result = 0;
 2817              		.loc 1 844 0
 2818 0300 0024     		movs	r4, #0
 2819              	.LVL494:
 2820 0302 0BE0     		b	.L144
 2821              	.LVL495:
ARM GAS  C:\Users\Phuong\AppData\Local\Temp\ccu7x7Ah.s 			page 67


 2822              	.L159:
 790:Source\azure_iot_sdk\iothub_client\src/iothubtransportamqp_methods.c ****                                         }
 2823              		.loc 1 790 0
 2824 0304 384C     		ldr	r4, .L165+120
 2825 0306 09E0     		b	.L144
 2826              	.LVL496:
 2827              	.L160:
 796:Source\azure_iot_sdk\iothub_client\src/iothubtransportamqp_methods.c ****                                             }
 2828              		.loc 1 796 0
 2829 0308 C724     		movs	r4, #199
 2830              	.LVL497:
 2831 030a A400     		lsls	r4, r4, #2
 2832 030c 06E0     		b	.L144
 2833              	.LVL498:
 2834              	.L161:
 807:Source\azure_iot_sdk\iothub_client\src/iothubtransportamqp_methods.c ****                                                 }
 2835              		.loc 1 807 0
 2836 030e 3A4C     		ldr	r4, .L165+136
 2837 0310 04E0     		b	.L144
 2838              	.LVL499:
 2839              	.L162:
 818:Source\azure_iot_sdk\iothub_client\src/iothubtransportamqp_methods.c ****                                                     }
 2840              		.loc 1 818 0
 2841 0312 3D4C     		ldr	r4, .L165+152
 2842 0314 02E0     		b	.L144
 2843              	.LVL500:
 2844              	.L163:
 827:Source\azure_iot_sdk\iothub_client\src/iothubtransportamqp_methods.c ****                                                         }
 2845              		.loc 1 827 0
 2846 0316 3F4C     		ldr	r4, .L165+164
 2847 0318 00E0     		b	.L144
 2848              	.LVL501:
 2849              	.L164:
 837:Source\azure_iot_sdk\iothub_client\src/iothubtransportamqp_methods.c ****                                                             }
 2850              		.loc 1 837 0
 2851 031a 414C     		ldr	r4, .L165+176
 2852              	.LVL502:
 2853              	.L144:
 845:Source\azure_iot_sdk\iothub_client\src/iothubtransportamqp_methods.c ****                                                             }
 846:Source\azure_iot_sdk\iothub_client\src/iothubtransportamqp_methods.c ****                                                         }
 847:Source\azure_iot_sdk\iothub_client\src/iothubtransportamqp_methods.c ****                                                     }
 848:Source\azure_iot_sdk\iothub_client\src/iothubtransportamqp_methods.c ****                                                 }
 849:Source\azure_iot_sdk\iothub_client\src/iothubtransportamqp_methods.c ****                                             }
 850:Source\azure_iot_sdk\iothub_client\src/iothubtransportamqp_methods.c ****                                         }
 851:Source\azure_iot_sdk\iothub_client\src/iothubtransportamqp_methods.c **** 
 852:Source\azure_iot_sdk\iothub_client\src/iothubtransportamqp_methods.c ****                                         STRING_delete(responses_link_name);
 2854              		.loc 1 852 0
 2855 031c 0B98     		ldr	r0, [sp, #44]
 2856 031e FFF7FEFF 		bl	STRING_delete
 2857              	.LVL503:
 2858 0322 00E0     		b	.L142
 2859              	.LVL504:
 2860              	.L158:
 778:Source\azure_iot_sdk\iothub_client\src/iothubtransportamqp_methods.c ****                                     }
 2861              		.loc 1 778 0
 2862 0324 2D4C     		ldr	r4, .L165+108
 2863              	.LVL505:
ARM GAS  C:\Users\Phuong\AppData\Local\Temp\ccu7x7Ah.s 			page 68


 2864              	.L142:
 853:Source\azure_iot_sdk\iothub_client\src/iothubtransportamqp_methods.c ****                                     }
 854:Source\azure_iot_sdk\iothub_client\src/iothubtransportamqp_methods.c **** 
 855:Source\azure_iot_sdk\iothub_client\src/iothubtransportamqp_methods.c ****                                     amqpvalue_destroy(sender_target);
 2865              		.loc 1 855 0
 2866 0326 5046     		mov	r0, r10
 2867 0328 FFF7FEFF 		bl	amqpvalue_destroy
 2868              	.LVL506:
 2869 032c 01E0     		b	.L140
 2870              	.LVL507:
 2871              	.L157:
 2872              	.LBE83:
 768:Source\azure_iot_sdk\iothub_client\src/iothubtransportamqp_methods.c ****                                 }
 2873              		.loc 1 768 0
 2874 032e C024     		movs	r4, #192
 2875 0330 A400     		lsls	r4, r4, #2
 2876              	.LVL508:
 2877              	.L140:
 856:Source\azure_iot_sdk\iothub_client\src/iothubtransportamqp_methods.c ****                                 }
 857:Source\azure_iot_sdk\iothub_client\src/iothubtransportamqp_methods.c **** 
 858:Source\azure_iot_sdk\iothub_client\src/iothubtransportamqp_methods.c ****                                 amqpvalue_destroy(sender_source);
 2878              		.loc 1 858 0
 2879 0332 0A98     		ldr	r0, [sp, #40]
 2880 0334 FFF7FEFF 		bl	amqpvalue_destroy
 2881              	.LVL509:
 2882 0338 02E0     		b	.L137
 2883              	.LVL510:
 2884              	.L155:
 2885              	.LBE81:
 2886              	.LBE79:
 747:Source\azure_iot_sdk\iothub_client\src/iothubtransportamqp_methods.c ****                         }
 2887              		.loc 1 747 0
 2888 033a 1F4C     		ldr	r4, .L165+72
 2889 033c 00E0     		b	.L137
 2890              	.LVL511:
 2891              	.L156:
 2892              	.LBB90:
 758:Source\azure_iot_sdk\iothub_client\src/iothubtransportamqp_methods.c ****                             }
 2893              		.loc 1 758 0
 2894 033e 224C     		ldr	r4, .L165+88
 2895              	.LVL512:
 2896              	.L137:
 2897              	.LBE90:
 859:Source\azure_iot_sdk\iothub_client\src/iothubtransportamqp_methods.c ****                             }
 860:Source\azure_iot_sdk\iothub_client\src/iothubtransportamqp_methods.c ****                         }
 861:Source\azure_iot_sdk\iothub_client\src/iothubtransportamqp_methods.c **** 
 862:Source\azure_iot_sdk\iothub_client\src/iothubtransportamqp_methods.c ****                         STRING_delete(requests_link_name);
 2898              		.loc 1 862 0
 2899 0340 0998     		ldr	r0, [sp, #36]
 2900 0342 FFF7FEFF 		bl	STRING_delete
 2901              	.LVL513:
 2902 0346 00E0     		b	.L135
 2903              	.LVL514:
 2904              	.L154:
 735:Source\azure_iot_sdk\iothub_client\src/iothubtransportamqp_methods.c ****                     }
 2905              		.loc 1 735 0
 2906 0348 184C     		ldr	r4, .L165+60
ARM GAS  C:\Users\Phuong\AppData\Local\Temp\ccu7x7Ah.s 			page 69


 2907              	.LVL515:
 2908              	.L135:
 863:Source\azure_iot_sdk\iothub_client\src/iothubtransportamqp_methods.c ****                     }
 864:Source\azure_iot_sdk\iothub_client\src/iothubtransportamqp_methods.c **** 
 865:Source\azure_iot_sdk\iothub_client\src/iothubtransportamqp_methods.c ****                     amqpvalue_destroy(receiver_target);
 2909              		.loc 1 865 0
 2910 034a 3800     		movs	r0, r7
 2911 034c FFF7FEFF 		bl	amqpvalue_destroy
 2912              	.LVL516:
 2913 0350 00E0     		b	.L133
 2914              	.LVL517:
 2915              	.L153:
 2916              	.LBE76:
 725:Source\azure_iot_sdk\iothub_client\src/iothubtransportamqp_methods.c ****                 }
 2917              		.loc 1 725 0
 2918 0352 134C     		ldr	r4, .L165+48
 2919              	.LVL518:
 2920              	.L133:
 866:Source\azure_iot_sdk\iothub_client\src/iothubtransportamqp_methods.c ****                 }
 867:Source\azure_iot_sdk\iothub_client\src/iothubtransportamqp_methods.c **** 
 868:Source\azure_iot_sdk\iothub_client\src/iothubtransportamqp_methods.c ****                 amqpvalue_destroy(receiver_source);
 2921              		.loc 1 868 0
 2922 0354 0898     		ldr	r0, [sp, #32]
 2923 0356 FFF7FEFF 		bl	amqpvalue_destroy
 2924              	.LVL519:
 2925 035a 00E0     		b	.L131
 2926              	.LVL520:
 2927              	.L152:
 2928              	.LBE74:
 714:Source\azure_iot_sdk\iothub_client\src/iothubtransportamqp_methods.c ****             }
 2929              		.loc 1 714 0
 2930 035c 0D4C     		ldr	r4, .L165+36
 2931              	.LVL521:
 2932              	.L131:
 869:Source\azure_iot_sdk\iothub_client\src/iothubtransportamqp_methods.c ****             }
 870:Source\azure_iot_sdk\iothub_client\src/iothubtransportamqp_methods.c **** 
 871:Source\azure_iot_sdk\iothub_client\src/iothubtransportamqp_methods.c ****             /* Codes_SRS_IOTHUBTRANSPORT_AMQP_METHODS_01_105: [ The string created in order to hold
 872:Source\azure_iot_sdk\iothub_client\src/iothubtransportamqp_methods.c ****             STRING_delete(peer_endpoint_string);
 2933              		.loc 1 872 0
 2934 035e 2800     		movs	r0, r5
 2935 0360 FFF7FEFF 		bl	STRING_delete
 2936              	.LVL522:
 2937 0364 5FE0     		b	.L128
 2938              	.LVL523:
 2939              	.L149:
 2940              	.LBE72:
 2941              	.LBE71:
 681:Source\azure_iot_sdk\iothub_client\src/iothubtransportamqp_methods.c ****     }
 2942              		.loc 1 681 0
 2943 0366 054C     		ldr	r4, .L165+12
 2944              	.LVL524:
 2945 0368 5DE0     		b	.L128
 2946              	.LVL525:
 2947              	.L150:
 687:Source\azure_iot_sdk\iothub_client\src/iothubtransportamqp_methods.c ****     }
 2948              		.loc 1 687 0
 2949 036a 074C     		ldr	r4, .L165+24
ARM GAS  C:\Users\Phuong\AppData\Local\Temp\ccu7x7Ah.s 			page 70


 2950 036c 5BE0     		b	.L128
 2951              	.L166:
 2952 036e C046     		.align	2
 2953              	.L165:
 2954 0370 08070000 		.word	.LC89
 2955 0374 00000000 		.word	.LANCHOR0
 2956 0378 00000000 		.word	.LC1
 2957 037c A9020000 		.word	681
 2958 0380 A8070000 		.word	.LC91
 2959 0384 AE020000 		.word	686
 2960 0388 AF020000 		.word	687
 2961 038c BC070000 		.word	.LC93
 2962 0390 C9020000 		.word	713
 2963 0394 CA020000 		.word	714
 2964 0398 DC070000 		.word	.LC95
 2965 039c E8070000 		.word	.LC97
 2966 03a0 D5020000 		.word	725
 2967 03a4 08080000 		.word	.LC99
 2968 03a8 DE020000 		.word	734
 2969 03ac DF020000 		.word	735
 2970 03b0 34080000 		.word	.LC101
 2971 03b4 EA020000 		.word	746
 2972 03b8 EB020000 		.word	747
 2973 03bc 50080000 		.word	.LC103
 2974 03c0 5C080000 		.word	.LC105
 2975 03c4 F5020000 		.word	757
 2976 03c8 F6020000 		.word	758
 2977 03cc 78080000 		.word	.LC107
 2978 03d0 FF020000 		.word	767
 2979 03d4 94080000 		.word	.LC109
 2980 03d8 09030000 		.word	777
 2981 03dc 0A030000 		.word	778
 2982 03e0 C0080000 		.word	.LC111
 2983 03e4 15030000 		.word	789
 2984 03e8 16030000 		.word	790
 2985 03ec 00000000 		.word	on_message_receiver_state_changed
 2986 03f0 DC080000 		.word	.LC114
 2987 03f4 26030000 		.word	806
 2988 03f8 27030000 		.word	807
 2989 03fc 00000000 		.word	on_message_sender_state_changed
 2990 0400 FC080000 		.word	.LC117
 2991 0404 31030000 		.word	817
 2992 0408 32030000 		.word	818
 2993 040c 1C090000 		.word	.LC119
 2994 0410 3A030000 		.word	826
 2995 0414 3B030000 		.word	827
 2996 0418 00000000 		.word	on_message_received
 2997 041c 3C090000 		.word	.LC122
 2998 0420 45030000 		.word	837
 2999              	.LVL526:
 3000              	.L151:
 3001              	.LBB91:
 697:Source\azure_iot_sdk\iothub_client\src/iothubtransportamqp_methods.c ****         }
 3002              		.loc 1 697 0
 3003 0424 024C     		ldr	r4, .L167
 3004              	.LVL527:
 3005              	.L128:
ARM GAS  C:\Users\Phuong\AppData\Local\Temp\ccu7x7Ah.s 			page 71


 3006              	.LBE91:
 873:Source\azure_iot_sdk\iothub_client\src/iothubtransportamqp_methods.c ****         }
 874:Source\azure_iot_sdk\iothub_client\src/iothubtransportamqp_methods.c ****     }
 875:Source\azure_iot_sdk\iothub_client\src/iothubtransportamqp_methods.c **** 
 876:Source\azure_iot_sdk\iothub_client\src/iothubtransportamqp_methods.c ****     return result;
 877:Source\azure_iot_sdk\iothub_client\src/iothubtransportamqp_methods.c **** }
 3007              		.loc 1 877 0
 3008 0426 2000     		movs	r0, r4
 3009 0428 0CB0     		add	sp, sp, #48
 3010              		@ sp needed
 3011              	.LVL528:
 3012              	.LVL529:
 3013 042a 04BC     		pop	{r2}
 3014 042c 9246     		mov	r10, r2
 3015 042e F0BD     		pop	{r4, r5, r6, r7, pc}
 3016              	.L168:
 3017              		.align	2
 3018              	.L167:
 3019 0430 B9020000 		.word	697
 3020              		.cfi_endproc
 3021              	.LFE14:
 3022              		.size	iothubtransportamqp_methods_subscribe, .-iothubtransportamqp_methods_subscribe
 3023              		.section	.text.iothubtransportamqp_methods_unsubscribe,"ax",%progbits
 3024              		.align	2
 3025              		.global	iothubtransportamqp_methods_unsubscribe
 3026              		.code	16
 3027              		.thumb_func
 3028              		.type	iothubtransportamqp_methods_unsubscribe, %function
 3029              	iothubtransportamqp_methods_unsubscribe:
 3030              	.LFB15:
 878:Source\azure_iot_sdk\iothub_client\src/iothubtransportamqp_methods.c **** 
 879:Source\azure_iot_sdk\iothub_client\src/iothubtransportamqp_methods.c **** void iothubtransportamqp_methods_unsubscribe(IOTHUBTRANSPORT_AMQP_METHODS_HANDLE iothubtransport_am
 880:Source\azure_iot_sdk\iothub_client\src/iothubtransportamqp_methods.c **** {
 3031              		.loc 1 880 0
 3032              		.cfi_startproc
 3033              		@ args = 0, pretend = 0, frame = 0
 3034              		@ frame_needed = 0, uses_anonymous_args = 0
 3035              	.LVL530:
 3036 0000 30B5     		push	{r4, r5, lr}
 3037              		.cfi_def_cfa_offset 12
 3038              		.cfi_offset 4, -12
 3039              		.cfi_offset 5, -8
 3040              		.cfi_offset 14, -4
 3041 0002 83B0     		sub	sp, sp, #12
 3042              		.cfi_def_cfa_offset 24
 3043 0004 041E     		subs	r4, r0, #0
 881:Source\azure_iot_sdk\iothub_client\src/iothubtransportamqp_methods.c ****     /* Codes_SRS_IOTHUBTRANSPORT_AMQP_METHODS_01_072: [ If the argument `iothubtransport_amqp_metho
 882:Source\azure_iot_sdk\iothub_client\src/iothubtransportamqp_methods.c ****     if (iothubtransport_amqp_methods_handle == NULL)
 3044              		.loc 1 882 0
 3045 0006 0FD1     		bne	.L170
 3046              	.LBB92:
 883:Source\azure_iot_sdk\iothub_client\src/iothubtransportamqp_methods.c ****     {
 884:Source\azure_iot_sdk\iothub_client\src/iothubtransportamqp_methods.c ****         LogError("NULL handle");
 3047              		.loc 1 884 0 discriminator 3
 3048 0008 FFF7FEFF 		bl	xlogging_get_log_function
 3049              	.LVL531:
 3050 000c 041E     		subs	r4, r0, #0
ARM GAS  C:\Users\Phuong\AppData\Local\Temp\ccu7x7Ah.s 			page 72


 3051              	.LVL532:
 3052 000e 32D0     		beq	.L169
 3053              		.loc 1 884 0 is_stmt 0 discriminator 4
 3054 0010 1A4B     		ldr	r3, .L173
 3055 0012 0193     		str	r3, [sp, #4]
 3056 0014 0123     		movs	r3, #1
 3057 0016 0093     		str	r3, [sp]
 3058 0018 DD23     		movs	r3, #221
 3059 001a 9B00     		lsls	r3, r3, #2
 3060 001c 184A     		ldr	r2, .L173+4
 3061 001e 7C32     		adds	r2, r2, #124
 3062 0020 1849     		ldr	r1, .L173+8
 3063 0022 0020     		movs	r0, #0
 3064              	.LVL533:
 3065 0024 A047     		blx	r4
 3066              	.LVL534:
 3067 0026 26E0     		b	.L169
 3068              	.LVL535:
 3069              	.L170:
 3070              	.LBE92:
 885:Source\azure_iot_sdk\iothub_client\src/iothubtransportamqp_methods.c ****     }
 886:Source\azure_iot_sdk\iothub_client\src/iothubtransportamqp_methods.c ****     else
 887:Source\azure_iot_sdk\iothub_client\src/iothubtransportamqp_methods.c ****     {
 888:Source\azure_iot_sdk\iothub_client\src/iothubtransportamqp_methods.c ****         /* Codes_SRS_IOTHUBTRANSPORT_AMQP_METHODS_01_135: [ If subscribe was not called yet, `iothu
 889:Source\azure_iot_sdk\iothub_client\src/iothubtransportamqp_methods.c ****         /* Codes_SRS_IOTHUBTRANSPORT_AMQP_METHODS_01_136: [ `iothubtransportamqp_methods_unsubscrib
 890:Source\azure_iot_sdk\iothub_client\src/iothubtransportamqp_methods.c ****         if (iothubtransport_amqp_methods_handle->subscribe_state != SUBSCRIBE_STATE_SUBSCRIBED)
 3071              		.loc 1 890 0 is_stmt 1
 3072 0028 3423     		movs	r3, #52
 3073 002a C35C     		ldrb	r3, [r0, r3]
 3074 002c 012B     		cmp	r3, #1
 3075 002e 0FD0     		beq	.L172
 3076              	.LBB93:
 891:Source\azure_iot_sdk\iothub_client\src/iothubtransportamqp_methods.c ****         {
 892:Source\azure_iot_sdk\iothub_client\src/iothubtransportamqp_methods.c ****             LogError("unsubscribe called while not subscribed");
 3077              		.loc 1 892 0 discriminator 3
 3078 0030 FFF7FEFF 		bl	xlogging_get_log_function
 3079              	.LVL536:
 3080 0034 041E     		subs	r4, r0, #0
 3081              	.LVL537:
 3082 0036 1ED0     		beq	.L169
 3083              		.loc 1 892 0 is_stmt 0 discriminator 4
 3084 0038 134B     		ldr	r3, .L173+12
 3085 003a 0193     		str	r3, [sp, #4]
 3086 003c 0123     		movs	r3, #1
 3087 003e 0093     		str	r3, [sp]
 3088 0040 DF23     		movs	r3, #223
 3089 0042 9B00     		lsls	r3, r3, #2
 3090 0044 0E4A     		ldr	r2, .L173+4
 3091 0046 7C32     		adds	r2, r2, #124
 3092 0048 0E49     		ldr	r1, .L173+8
 3093 004a 0020     		movs	r0, #0
 3094              	.LVL538:
 3095 004c A047     		blx	r4
 3096              	.LVL539:
 3097 004e 12E0     		b	.L169
 3098              	.LVL540:
 3099              	.L172:
ARM GAS  C:\Users\Phuong\AppData\Local\Temp\ccu7x7Ah.s 			page 73


 3100              	.LBE93:
 893:Source\azure_iot_sdk\iothub_client\src/iothubtransportamqp_methods.c ****         }
 894:Source\azure_iot_sdk\iothub_client\src/iothubtransportamqp_methods.c ****         else
 895:Source\azure_iot_sdk\iothub_client\src/iothubtransportamqp_methods.c ****         {
 896:Source\azure_iot_sdk\iothub_client\src/iothubtransportamqp_methods.c ****             /* Codes_SRS_IOTHUBTRANSPORT_AMQP_METHODS_01_073: [ Otherwise `iothubtransportamqp_meth
 897:Source\azure_iot_sdk\iothub_client\src/iothubtransportamqp_methods.c ****             /* Codes_SRS_IOTHUBTRANSPORT_AMQP_METHODS_01_075: [ - It shall free the message receive
 898:Source\azure_iot_sdk\iothub_client\src/iothubtransportamqp_methods.c ****             messagereceiver_destroy(iothubtransport_amqp_methods_handle->message_receiver);
 3101              		.loc 1 898 0 is_stmt 1
 3102 0050 4069     		ldr	r0, [r0, #20]
 3103              	.LVL541:
 3104 0052 FFF7FEFF 		bl	messagereceiver_destroy
 3105              	.LVL542:
 899:Source\azure_iot_sdk\iothub_client\src/iothubtransportamqp_methods.c ****             iothubtransport_amqp_methods_handle->message_receiver = NULL;
 3106              		.loc 1 899 0
 3107 0056 0025     		movs	r5, #0
 3108 0058 6561     		str	r5, [r4, #20]
 900:Source\azure_iot_sdk\iothub_client\src/iothubtransportamqp_methods.c ****             /* Codes_SRS_IOTHUBTRANSPORT_AMQP_METHODS_01_074: [ - It shall free the message sender 
 901:Source\azure_iot_sdk\iothub_client\src/iothubtransportamqp_methods.c ****             messagesender_destroy(iothubtransport_amqp_methods_handle->message_sender);
 3109              		.loc 1 901 0
 3110 005a A069     		ldr	r0, [r4, #24]
 3111 005c FFF7FEFF 		bl	messagesender_destroy
 3112              	.LVL543:
 902:Source\azure_iot_sdk\iothub_client\src/iothubtransportamqp_methods.c ****             iothubtransport_amqp_methods_handle->message_sender = NULL;
 3113              		.loc 1 902 0
 3114 0060 A561     		str	r5, [r4, #24]
 903:Source\azure_iot_sdk\iothub_client\src/iothubtransportamqp_methods.c ****             /* Codes_SRS_IOTHUBTRANSPORT_AMQP_METHODS_01_076: [ - It shall free the sender link by 
 904:Source\azure_iot_sdk\iothub_client\src/iothubtransportamqp_methods.c ****             link_destroy(iothubtransport_amqp_methods_handle->sender_link);
 3115              		.loc 1 904 0
 3116 0062 2069     		ldr	r0, [r4, #16]
 3117 0064 FFF7FEFF 		bl	link_destroy
 3118              	.LVL544:
 905:Source\azure_iot_sdk\iothub_client\src/iothubtransportamqp_methods.c ****             iothubtransport_amqp_methods_handle->sender_link = NULL;
 3119              		.loc 1 905 0
 3120 0068 2561     		str	r5, [r4, #16]
 906:Source\azure_iot_sdk\iothub_client\src/iothubtransportamqp_methods.c ****             /* Codes_SRS_IOTHUBTRANSPORT_AMQP_METHODS_01_077: [ - It shall free the receiver link b
 907:Source\azure_iot_sdk\iothub_client\src/iothubtransportamqp_methods.c ****             link_destroy(iothubtransport_amqp_methods_handle->receiver_link);
 3121              		.loc 1 907 0
 3122 006a E068     		ldr	r0, [r4, #12]
 3123 006c FFF7FEFF 		bl	link_destroy
 3124              	.LVL545:
 908:Source\azure_iot_sdk\iothub_client\src/iothubtransportamqp_methods.c ****             iothubtransport_amqp_methods_handle->receiver_link = NULL;
 3125              		.loc 1 908 0
 3126 0070 E560     		str	r5, [r4, #12]
 909:Source\azure_iot_sdk\iothub_client\src/iothubtransportamqp_methods.c **** 
 910:Source\azure_iot_sdk\iothub_client\src/iothubtransportamqp_methods.c ****             iothubtransport_amqp_methods_handle->subscribe_state = SUBSCRIBE_STATE_NOT_SUBSCRIBED;
 3127              		.loc 1 910 0
 3128 0072 3423     		movs	r3, #52
 3129 0074 E554     		strb	r5, [r4, r3]
 3130              	.LVL546:
 3131              	.L169:
 911:Source\azure_iot_sdk\iothub_client\src/iothubtransportamqp_methods.c ****         }
 912:Source\azure_iot_sdk\iothub_client\src/iothubtransportamqp_methods.c ****     }
 913:Source\azure_iot_sdk\iothub_client\src/iothubtransportamqp_methods.c **** }
 3132              		.loc 1 913 0
 3133 0076 03B0     		add	sp, sp, #12
 3134              		@ sp needed
 3135 0078 30BD     		pop	{r4, r5, pc}
ARM GAS  C:\Users\Phuong\AppData\Local\Temp\ccu7x7Ah.s 			page 74


 3136              	.L174:
 3137 007a C046     		.align	2
 3138              	.L173:
 3139 007c 60090000 		.word	.LC126
 3140 0080 00000000 		.word	.LANCHOR0
 3141 0084 00000000 		.word	.LC1
 3142 0088 6C090000 		.word	.LC128
 3143              		.cfi_endproc
 3144              	.LFE15:
 3145              		.size	iothubtransportamqp_methods_unsubscribe, .-iothubtransportamqp_methods_unsubscribe
 3146              		.section	.text.iothubtransportamqp_methods_destroy,"ax",%progbits
 3147              		.align	2
 3148              		.global	iothubtransportamqp_methods_destroy
 3149              		.code	16
 3150              		.thumb_func
 3151              		.type	iothubtransportamqp_methods_destroy, %function
 3152              	iothubtransportamqp_methods_destroy:
 3153              	.LFB3:
 163:Source\azure_iot_sdk\iothub_client\src/iothubtransportamqp_methods.c ****     /* Codes_SRS_IOTHUBTRANSPORT_AMQP_METHODS_01_006: [ If `iothubtransport_amqp_methods_handle` is
 3154              		.loc 1 163 0
 3155              		.cfi_startproc
 3156              		@ args = 0, pretend = 0, frame = 0
 3157              		@ frame_needed = 0, uses_anonymous_args = 0
 3158              	.LVL547:
 3159 0000 30B5     		push	{r4, r5, lr}
 3160              		.cfi_def_cfa_offset 12
 3161              		.cfi_offset 4, -12
 3162              		.cfi_offset 5, -8
 3163              		.cfi_offset 14, -4
 3164 0002 83B0     		sub	sp, sp, #12
 3165              		.cfi_def_cfa_offset 24
 3166 0004 051E     		subs	r5, r0, #0
 165:Source\azure_iot_sdk\iothub_client\src/iothubtransportamqp_methods.c ****     {
 3167              		.loc 1 165 0
 3168 0006 0ED1     		bne	.L176
 3169              	.LBB94:
 167:Source\azure_iot_sdk\iothub_client\src/iothubtransportamqp_methods.c ****     }
 3170              		.loc 1 167 0 discriminator 3
 3171 0008 FFF7FEFF 		bl	xlogging_get_log_function
 3172              	.LVL548:
 3173 000c 041E     		subs	r4, r0, #0
 3174              	.LVL549:
 3175 000e 2CD0     		beq	.L175
 167:Source\azure_iot_sdk\iothub_client\src/iothubtransportamqp_methods.c ****     }
 3176              		.loc 1 167 0 is_stmt 0 discriminator 4
 3177 0010 174B     		ldr	r3, .L182
 3178 0012 0193     		str	r3, [sp, #4]
 3179 0014 0123     		movs	r3, #1
 3180 0016 0093     		str	r3, [sp]
 3181 0018 A633     		adds	r3, r3, #166
 3182 001a 164A     		ldr	r2, .L182+4
 3183 001c 2432     		adds	r2, r2, #36
 3184 001e 1649     		ldr	r1, .L182+8
 3185 0020 0020     		movs	r0, #0
 3186              	.LVL550:
 3187 0022 A047     		blx	r4
 3188              	.LVL551:
ARM GAS  C:\Users\Phuong\AppData\Local\Temp\ccu7x7Ah.s 			page 75


 3189 0024 21E0     		b	.L175
 3190              	.LVL552:
 3191              	.L176:
 3192              	.LBE94:
 3193              	.LBB95:
 174:Source\azure_iot_sdk\iothub_client\src/iothubtransportamqp_methods.c ****         {
 3194              		.loc 1 174 0 is_stmt 1
 3195 0026 3423     		movs	r3, #52
 3196 0028 C35C     		ldrb	r3, [r0, r3]
 3197 002a 012B     		cmp	r3, #1
 3198 002c 01D1     		bne	.L178
 176:Source\azure_iot_sdk\iothub_client\src/iothubtransportamqp_methods.c ****         }
 3199              		.loc 1 176 0
 3200 002e FFF7FEFF 		bl	iothubtransportamqp_methods_unsubscribe
 3201              	.LVL553:
 3202              	.L178:
 3203              	.LBE95:
 163:Source\azure_iot_sdk\iothub_client\src/iothubtransportamqp_methods.c ****     /* Codes_SRS_IOTHUBTRANSPORT_AMQP_METHODS_01_006: [ If `iothubtransport_amqp_methods_handle` is
 3204              		.loc 1 163 0 discriminator 1
 3205 0032 0024     		movs	r4, #0
 3206 0034 05E0     		b	.L179
 3207              	.LVL554:
 3208              	.L180:
 3209              	.LBB96:
 181:Source\azure_iot_sdk\iothub_client\src/iothubtransportamqp_methods.c ****         }
 3210              		.loc 1 181 0 discriminator 3
 3211 0036 A300     		lsls	r3, r4, #2
 3212 0038 AA6B     		ldr	r2, [r5, #56]
 3213 003a D058     		ldr	r0, [r2, r3]
 3214 003c FFF7FEFF 		bl	free
 3215              	.LVL555:
 179:Source\azure_iot_sdk\iothub_client\src/iothubtransportamqp_methods.c ****         {
 3216              		.loc 1 179 0 discriminator 3
 3217 0040 0134     		adds	r4, r4, #1
 3218              	.LVL556:
 3219              	.L179:
 179:Source\azure_iot_sdk\iothub_client\src/iothubtransportamqp_methods.c ****         {
 3220              		.loc 1 179 0 is_stmt 0 discriminator 1
 3221 0042 EB6B     		ldr	r3, [r5, #60]
 3222 0044 9C42     		cmp	r4, r3
 3223 0046 F6D3     		bcc	.L180
 184:Source\azure_iot_sdk\iothub_client\src/iothubtransportamqp_methods.c ****         {
 3224              		.loc 1 184 0 is_stmt 1
 3225 0048 A86B     		ldr	r0, [r5, #56]
 3226 004a 0028     		cmp	r0, #0
 3227 004c 01D0     		beq	.L181
 186:Source\azure_iot_sdk\iothub_client\src/iothubtransportamqp_methods.c ****         }
 3228              		.loc 1 186 0
 3229 004e FFF7FEFF 		bl	free
 3230              	.LVL557:
 3231              	.L181:
 190:Source\azure_iot_sdk\iothub_client\src/iothubtransportamqp_methods.c ****         free(iothubtransport_amqp_methods_handle->device_id);
 3232              		.loc 1 190 0
 3233 0052 A868     		ldr	r0, [r5, #8]
 3234 0054 FFF7FEFF 		bl	free
 3235              	.LVL558:
 191:Source\azure_iot_sdk\iothub_client\src/iothubtransportamqp_methods.c ****         free(iothubtransport_amqp_methods_handle->module_id);
ARM GAS  C:\Users\Phuong\AppData\Local\Temp\ccu7x7Ah.s 			page 76


 3236              		.loc 1 191 0
 3237 0058 2868     		ldr	r0, [r5]
 3238 005a FFF7FEFF 		bl	free
 3239              	.LVL559:
 192:Source\azure_iot_sdk\iothub_client\src/iothubtransportamqp_methods.c ****         free(iothubtransport_amqp_methods_handle);
 3240              		.loc 1 192 0
 3241 005e 6868     		ldr	r0, [r5, #4]
 3242 0060 FFF7FEFF 		bl	free
 3243              	.LVL560:
 193:Source\azure_iot_sdk\iothub_client\src/iothubtransportamqp_methods.c ****     }
 3244              		.loc 1 193 0
 3245 0064 2800     		movs	r0, r5
 3246 0066 FFF7FEFF 		bl	free
 3247              	.LVL561:
 3248              	.L175:
 3249              	.LBE96:
 195:Source\azure_iot_sdk\iothub_client\src/iothubtransportamqp_methods.c **** 
 3250              		.loc 1 195 0
 3251 006a 03B0     		add	sp, sp, #12
 3252              		@ sp needed
 3253              	.LVL562:
 3254 006c 30BD     		pop	{r4, r5, pc}
 3255              	.L183:
 3256 006e C046     		.align	2
 3257              	.L182:
 3258 0070 60090000 		.word	.LC126
 3259 0074 80000000 		.word	.LANCHOR1
 3260 0078 00000000 		.word	.LC1
 3261              		.cfi_endproc
 3262              	.LFE3:
 3263              		.size	iothubtransportamqp_methods_destroy, .-iothubtransportamqp_methods_destroy
 3264              		.section	.text.iothubtransportamqp_methods_respond,"ax",%progbits
 3265              		.align	2
 3266              		.global	iothubtransportamqp_methods_respond
 3267              		.code	16
 3268              		.thumb_func
 3269              		.type	iothubtransportamqp_methods_respond, %function
 3270              	iothubtransportamqp_methods_respond:
 3271              	.LFB16:
 914:Source\azure_iot_sdk\iothub_client\src/iothubtransportamqp_methods.c **** 
 915:Source\azure_iot_sdk\iothub_client\src/iothubtransportamqp_methods.c **** int iothubtransportamqp_methods_respond(IOTHUBTRANSPORT_AMQP_METHOD_HANDLE method_handle, const uns
 916:Source\azure_iot_sdk\iothub_client\src/iothubtransportamqp_methods.c **** {
 3272              		.loc 1 916 0
 3273              		.cfi_startproc
 3274              		@ args = 0, pretend = 0, frame = 32
 3275              		@ frame_needed = 0, uses_anonymous_args = 0
 3276              	.LVL563:
 3277 0000 F0B5     		push	{r4, r5, r6, r7, lr}
 3278              		.cfi_def_cfa_offset 20
 3279              		.cfi_offset 4, -20
 3280              		.cfi_offset 5, -16
 3281              		.cfi_offset 6, -12
 3282              		.cfi_offset 7, -8
 3283              		.cfi_offset 14, -4
 3284 0002 8BB0     		sub	sp, sp, #44
 3285              		.cfi_def_cfa_offset 64
 3286 0004 0700     		movs	r7, r0
ARM GAS  C:\Users\Phuong\AppData\Local\Temp\ccu7x7Ah.s 			page 77


 3287 0006 0E00     		movs	r6, r1
 3288 0008 0492     		str	r2, [sp, #16]
 3289 000a 0593     		str	r3, [sp, #20]
 917:Source\azure_iot_sdk\iothub_client\src/iothubtransportamqp_methods.c ****     int result;
 918:Source\azure_iot_sdk\iothub_client\src/iothubtransportamqp_methods.c **** 
 919:Source\azure_iot_sdk\iothub_client\src/iothubtransportamqp_methods.c ****     /* Codes_SRS_IOTHUBTRANSPORT_AMQP_METHODS_01_107: [ If the argument `method_handle` is NULL, `i
 920:Source\azure_iot_sdk\iothub_client\src/iothubtransportamqp_methods.c ****     if (method_handle == NULL)
 3290              		.loc 1 920 0
 3291 000c 0028     		cmp	r0, #0
 3292 000e 10D1     		bne	.L185
 3293              	.LBB97:
 921:Source\azure_iot_sdk\iothub_client\src/iothubtransportamqp_methods.c ****     {
 922:Source\azure_iot_sdk\iothub_client\src/iothubtransportamqp_methods.c ****         LogError("NULL method handle");
 3294              		.loc 1 922 0 discriminator 3
 3295 0010 FFF7FEFF 		bl	xlogging_get_log_function
 3296              	.LVL564:
 3297 0014 041E     		subs	r4, r0, #0
 3298              	.LVL565:
 3299 0016 00D1     		bne	.LCB3553
 3300 0018 6CE1     		b	.L207	@long jump
 3301              	.LCB3553:
 3302              		.loc 1 922 0 is_stmt 0 discriminator 4
 3303 001a BA4B     		ldr	r3, .L221
 3304 001c 0193     		str	r3, [sp, #4]
 3305 001e 0123     		movs	r3, #1
 3306 0020 0093     		str	r3, [sp]
 3307 0022 B94B     		ldr	r3, .L221+4
 3308 0024 B94A     		ldr	r2, .L221+8
 3309 0026 4832     		adds	r2, r2, #72
 3310 0028 B949     		ldr	r1, .L221+12
 3311 002a 0020     		movs	r0, #0
 3312              	.LVL566:
 3313 002c A047     		blx	r4
 3314              	.LVL567:
 3315              	.LBE97:
 923:Source\azure_iot_sdk\iothub_client\src/iothubtransportamqp_methods.c ****         result = __FAILURE__;
 3316              		.loc 1 923 0 is_stmt 1 discriminator 4
 3317 002e B94F     		ldr	r7, .L221+16
 3318              	.LVL568:
 3319 0030 65E1     		b	.L186
 3320              	.LVL569:
 3321              	.L185:
 924:Source\azure_iot_sdk\iothub_client\src/iothubtransportamqp_methods.c ****     }
 925:Source\azure_iot_sdk\iothub_client\src/iothubtransportamqp_methods.c ****     /* Codes_SRS_IOTHUBTRANSPORT_AMQP_METHODS_01_108: [ If `response_size` is greater than zero and
 926:Source\azure_iot_sdk\iothub_client\src/iothubtransportamqp_methods.c ****     else if ((response == NULL) && (response_size > 0))
 3322              		.loc 1 926 0
 3323 0032 0029     		cmp	r1, #0
 3324 0034 14D1     		bne	.L187
 3325              		.loc 1 926 0 is_stmt 0 discriminator 1
 3326 0036 049B     		ldr	r3, [sp, #16]
 3327              	.LVL570:
 3328 0038 002B     		cmp	r3, #0
 3329 003a 11D0     		beq	.L187
 3330              	.LBB98:
 927:Source\azure_iot_sdk\iothub_client\src/iothubtransportamqp_methods.c ****     {
 928:Source\azure_iot_sdk\iothub_client\src/iothubtransportamqp_methods.c ****         LogError("NULL response buffer with > 0 response payload size");
 3331              		.loc 1 928 0 is_stmt 1 discriminator 3
ARM GAS  C:\Users\Phuong\AppData\Local\Temp\ccu7x7Ah.s 			page 78


 3332 003c FFF7FEFF 		bl	xlogging_get_log_function
 3333              	.LVL571:
 3334 0040 041E     		subs	r4, r0, #0
 3335              	.LVL572:
 3336 0042 00D1     		bne	.LCB3593
 3337 0044 58E1     		b	.L208	@long jump
 3338              	.LCB3593:
 3339              		.loc 1 928 0 is_stmt 0 discriminator 4
 3340 0046 B44B     		ldr	r3, .L221+20
 3341 0048 0193     		str	r3, [sp, #4]
 3342 004a 0123     		movs	r3, #1
 3343 004c 0093     		str	r3, [sp]
 3344 004e E823     		movs	r3, #232
 3345 0050 9B00     		lsls	r3, r3, #2
 3346 0052 AE4A     		ldr	r2, .L221+8
 3347 0054 4832     		adds	r2, r2, #72
 3348 0056 AE49     		ldr	r1, .L221+12
 3349 0058 0020     		movs	r0, #0
 3350              	.LVL573:
 3351 005a A047     		blx	r4
 3352              	.LVL574:
 3353              	.LBE98:
 929:Source\azure_iot_sdk\iothub_client\src/iothubtransportamqp_methods.c ****         result = __FAILURE__;
 3354              		.loc 1 929 0 is_stmt 1 discriminator 4
 3355 005c AF4F     		ldr	r7, .L221+24
 3356              	.LVL575:
 3357 005e 4EE1     		b	.L186
 3358              	.LVL576:
 3359              	.L187:
 3360              	.LBB99:
 930:Source\azure_iot_sdk\iothub_client\src/iothubtransportamqp_methods.c ****     }
 931:Source\azure_iot_sdk\iothub_client\src/iothubtransportamqp_methods.c ****     else
 932:Source\azure_iot_sdk\iothub_client\src/iothubtransportamqp_methods.c ****     {
 933:Source\azure_iot_sdk\iothub_client\src/iothubtransportamqp_methods.c ****         /* Codes_SRS_IOTHUBTRANSPORT_AMQP_METHODS_01_061: [ - A new uAMQP message shall be created 
 934:Source\azure_iot_sdk\iothub_client\src/iothubtransportamqp_methods.c ****         MESSAGE_HANDLE message = message_create();
 3361              		.loc 1 934 0
 3362 0060 FFF7FEFF 		bl	message_create
 3363              	.LVL577:
 3364 0064 051E     		subs	r5, r0, #0
 3365              	.LVL578:
 935:Source\azure_iot_sdk\iothub_client\src/iothubtransportamqp_methods.c ****         if (message == NULL)
 3366              		.loc 1 935 0
 3367 0066 10D1     		bne	.L188
 3368              	.LBB100:
 936:Source\azure_iot_sdk\iothub_client\src/iothubtransportamqp_methods.c ****         {
 937:Source\azure_iot_sdk\iothub_client\src/iothubtransportamqp_methods.c ****             /* Codes_SRS_IOTHUBTRANSPORT_AMQP_METHODS_01_062: [ If the `message_create` call fails,
 938:Source\azure_iot_sdk\iothub_client\src/iothubtransportamqp_methods.c ****             LogError("Cannot create message");
 3369              		.loc 1 938 0 discriminator 3
 3370 0068 FFF7FEFF 		bl	xlogging_get_log_function
 3371              	.LVL579:
 3372 006c 041E     		subs	r4, r0, #0
 3373              	.LVL580:
 3374 006e 00D1     		bne	.LCB3635
 3375 0070 44E1     		b	.L209	@long jump
 3376              	.LCB3635:
 3377              		.loc 1 938 0 is_stmt 0 discriminator 4
 3378 0072 AB4B     		ldr	r3, .L221+28
ARM GAS  C:\Users\Phuong\AppData\Local\Temp\ccu7x7Ah.s 			page 79


 3379 0074 0193     		str	r3, [sp, #4]
 3380 0076 0123     		movs	r3, #1
 3381 0078 0093     		str	r3, [sp]
 3382 007a AA4B     		ldr	r3, .L221+32
 3383 007c A34A     		ldr	r2, .L221+8
 3384 007e 4832     		adds	r2, r2, #72
 3385 0080 A349     		ldr	r1, .L221+12
 3386 0082 0020     		movs	r0, #0
 3387              	.LVL581:
 3388 0084 A047     		blx	r4
 3389              	.LVL582:
 3390              	.LBE100:
 939:Source\azure_iot_sdk\iothub_client\src/iothubtransportamqp_methods.c ****             result = __FAILURE__;
 3391              		.loc 1 939 0 is_stmt 1 discriminator 4
 3392 0086 A84F     		ldr	r7, .L221+36
 3393              	.LVL583:
 3394 0088 39E1     		b	.L186
 3395              	.LVL584:
 3396              	.L188:
 3397              	.LBB101:
 940:Source\azure_iot_sdk\iothub_client\src/iothubtransportamqp_methods.c ****         }
 941:Source\azure_iot_sdk\iothub_client\src/iothubtransportamqp_methods.c ****         else
 942:Source\azure_iot_sdk\iothub_client\src/iothubtransportamqp_methods.c ****         {
 943:Source\azure_iot_sdk\iothub_client\src/iothubtransportamqp_methods.c ****             /* Codes_SRS_IOTHUBTRANSPORT_AMQP_METHODS_01_063: [ - A new properties handle shall be 
 944:Source\azure_iot_sdk\iothub_client\src/iothubtransportamqp_methods.c ****             PROPERTIES_HANDLE properties = properties_create();
 3398              		.loc 1 944 0
 3399 008a FFF7FEFF 		bl	properties_create
 3400              	.LVL585:
 3401 008e 041E     		subs	r4, r0, #0
 3402              	.LVL586:
 945:Source\azure_iot_sdk\iothub_client\src/iothubtransportamqp_methods.c ****             if (properties == NULL)
 3403              		.loc 1 945 0
 3404 0090 11D1     		bne	.L189
 3405              	.LBB102:
 946:Source\azure_iot_sdk\iothub_client\src/iothubtransportamqp_methods.c ****             {
 947:Source\azure_iot_sdk\iothub_client\src/iothubtransportamqp_methods.c ****                 /* Codes_SRS_IOTHUBTRANSPORT_AMQP_METHODS_01_064: [ If the `properties_create call`
 948:Source\azure_iot_sdk\iothub_client\src/iothubtransportamqp_methods.c ****                 LogError("Cannot create properties");
 3406              		.loc 1 948 0 discriminator 3
 3407 0092 FFF7FEFF 		bl	xlogging_get_log_function
 3408              	.LVL587:
 3409 0096 041E     		subs	r4, r0, #0
 3410              	.LVL588:
 3411 0098 00D1     		bne	.LCB3674
 3412 009a 26E1     		b	.L210	@long jump
 3413              	.LCB3674:
 3414              		.loc 1 948 0 is_stmt 0 discriminator 4
 3415 009c A34B     		ldr	r3, .L221+40
 3416 009e 0193     		str	r3, [sp, #4]
 3417 00a0 0123     		movs	r3, #1
 3418 00a2 0093     		str	r3, [sp]
 3419 00a4 ED23     		movs	r3, #237
 3420 00a6 9B00     		lsls	r3, r3, #2
 3421 00a8 984A     		ldr	r2, .L221+8
 3422 00aa 4832     		adds	r2, r2, #72
 3423 00ac 9849     		ldr	r1, .L221+12
 3424 00ae 0020     		movs	r0, #0
 3425              	.LVL589:
ARM GAS  C:\Users\Phuong\AppData\Local\Temp\ccu7x7Ah.s 			page 80


 3426 00b0 A047     		blx	r4
 3427              	.LVL590:
 3428              	.LBE102:
 949:Source\azure_iot_sdk\iothub_client\src/iothubtransportamqp_methods.c ****                 result = __FAILURE__;
 3429              		.loc 1 949 0 is_stmt 1 discriminator 4
 3430 00b2 9F4F     		ldr	r7, .L221+44
 3431              	.LVL591:
 3432 00b4 1AE1     		b	.L190
 3433              	.LVL592:
 3434              	.L189:
 3435              	.LBB103:
 950:Source\azure_iot_sdk\iothub_client\src/iothubtransportamqp_methods.c ****             }
 951:Source\azure_iot_sdk\iothub_client\src/iothubtransportamqp_methods.c ****             else
 952:Source\azure_iot_sdk\iothub_client\src/iothubtransportamqp_methods.c ****             {
 953:Source\azure_iot_sdk\iothub_client\src/iothubtransportamqp_methods.c ****                 /* Codes_SRS_IOTHUBTRANSPORT_AMQP_METHODS_01_124: [ - An AMQP value holding the cor
 954:Source\azure_iot_sdk\iothub_client\src/iothubtransportamqp_methods.c ****                 AMQP_VALUE correlation_id = amqpvalue_create_uuid(method_handle->correlation_id);
 3436              		.loc 1 954 0
 3437 00b6 381D     		adds	r0, r7, #4
 3438              	.LVL593:
 3439 00b8 FFF7FEFF 		bl	amqpvalue_create_uuid
 3440              	.LVL594:
 3441 00bc 0390     		str	r0, [sp, #12]
 3442              	.LVL595:
 955:Source\azure_iot_sdk\iothub_client\src/iothubtransportamqp_methods.c ****                 if (correlation_id == NULL)
 3443              		.loc 1 955 0
 3444 00be 0028     		cmp	r0, #0
 3445 00c0 10D1     		bne	.L191
 3446              	.LBB104:
 956:Source\azure_iot_sdk\iothub_client\src/iothubtransportamqp_methods.c ****                 {
 957:Source\azure_iot_sdk\iothub_client\src/iothubtransportamqp_methods.c ****                     /* Codes_SRS_IOTHUBTRANSPORT_AMQP_METHODS_01_125: [ If `amqpvalue_create_uuid` 
 958:Source\azure_iot_sdk\iothub_client\src/iothubtransportamqp_methods.c ****                     LogError("Cannot create correlation_id value");
 3447              		.loc 1 958 0 discriminator 3
 3448 00c2 FFF7FEFF 		bl	xlogging_get_log_function
 3449              	.LVL596:
 3450 00c6 061E     		subs	r6, r0, #0
 3451              	.LVL597:
 3452 00c8 00D1     		bne	.LCB3715
 3453 00ca 09E1     		b	.L211	@long jump
 3454              	.LCB3715:
 3455              		.loc 1 958 0 is_stmt 0 discriminator 4
 3456 00cc 994B     		ldr	r3, .L221+48
 3457 00ce 0193     		str	r3, [sp, #4]
 3458 00d0 0123     		movs	r3, #1
 3459 00d2 0093     		str	r3, [sp]
 3460 00d4 984B     		ldr	r3, .L221+52
 3461 00d6 8D4A     		ldr	r2, .L221+8
 3462 00d8 4832     		adds	r2, r2, #72
 3463 00da 8D49     		ldr	r1, .L221+12
 3464 00dc 0020     		movs	r0, #0
 3465              	.LVL598:
 3466 00de B047     		blx	r6
 3467              	.LVL599:
 3468              	.LBE104:
 959:Source\azure_iot_sdk\iothub_client\src/iothubtransportamqp_methods.c ****                     result = __FAILURE__;
 3469              		.loc 1 959 0 is_stmt 1 discriminator 4
 3470 00e0 964F     		ldr	r7, .L221+56
 3471              	.LVL600:
ARM GAS  C:\Users\Phuong\AppData\Local\Temp\ccu7x7Ah.s 			page 81


 3472 00e2 FEE0     		b	.L192
 3473              	.LVL601:
 3474              	.L191:
 960:Source\azure_iot_sdk\iothub_client\src/iothubtransportamqp_methods.c ****                 }
 961:Source\azure_iot_sdk\iothub_client\src/iothubtransportamqp_methods.c ****                 else
 962:Source\azure_iot_sdk\iothub_client\src/iothubtransportamqp_methods.c ****                 {
 963:Source\azure_iot_sdk\iothub_client\src/iothubtransportamqp_methods.c ****                     /* Codes_SRS_IOTHUBTRANSPORT_AMQP_METHODS_01_065: [ - The correlation id on the
 964:Source\azure_iot_sdk\iothub_client\src/iothubtransportamqp_methods.c ****                     if (properties_set_correlation_id(properties, correlation_id) != 0)
 3475              		.loc 1 964 0
 3476 00e4 0399     		ldr	r1, [sp, #12]
 3477 00e6 2000     		movs	r0, r4
 3478              	.LVL602:
 3479 00e8 FFF7FEFF 		bl	properties_set_correlation_id
 3480              	.LVL603:
 3481 00ec 0028     		cmp	r0, #0
 3482 00ee 11D0     		beq	.L193
 3483              	.LBB105:
 965:Source\azure_iot_sdk\iothub_client\src/iothubtransportamqp_methods.c ****                     {
 966:Source\azure_iot_sdk\iothub_client\src/iothubtransportamqp_methods.c ****                         /* Codes_SRS_IOTHUBTRANSPORT_AMQP_METHODS_01_066: [ If the `properties_set_
 967:Source\azure_iot_sdk\iothub_client\src/iothubtransportamqp_methods.c ****                         LogError("Cannot set correlation_id on the properties");
 3484              		.loc 1 967 0 discriminator 3
 3485 00f0 FFF7FEFF 		bl	xlogging_get_log_function
 3486              	.LVL604:
 3487 00f4 071E     		subs	r7, r0, #0
 3488              	.LVL605:
 3489 00f6 00D1     		bne	.LCB3753
 3490 00f8 E8E0     		b	.L212	@long jump
 3491              	.LCB3753:
 3492              		.loc 1 967 0 is_stmt 0 discriminator 4
 3493 00fa 914B     		ldr	r3, .L221+60
 3494 00fc 0193     		str	r3, [sp, #4]
 3495 00fe 0123     		movs	r3, #1
 3496 0100 0093     		str	r3, [sp]
 3497 0102 904B     		ldr	r3, .L221+64
 3498 0104 814A     		ldr	r2, .L221+8
 3499 0106 4832     		adds	r2, r2, #72
 3500 0108 8149     		ldr	r1, .L221+12
 3501 010a 0020     		movs	r0, #0
 3502              	.LVL606:
 3503 010c B847     		blx	r7
 3504              	.LVL607:
 3505              	.LBE105:
 968:Source\azure_iot_sdk\iothub_client\src/iothubtransportamqp_methods.c ****                         result = __FAILURE__;
 3506              		.loc 1 968 0 is_stmt 1 discriminator 4
 3507 010e F227     		movs	r7, #242
 3508              	.LVL608:
 3509 0110 BF00     		lsls	r7, r7, #2
 3510 0112 E1E0     		b	.L194
 3511              	.LVL609:
 3512              	.L193:
 969:Source\azure_iot_sdk\iothub_client\src/iothubtransportamqp_methods.c ****                     }
 970:Source\azure_iot_sdk\iothub_client\src/iothubtransportamqp_methods.c ****                     /* Codes_SRS_IOTHUBTRANSPORT_AMQP_METHODS_01_148: [ The properties shall be set
 971:Source\azure_iot_sdk\iothub_client\src/iothubtransportamqp_methods.c ****                     else if (message_set_properties(message, properties) != 0)
 3513              		.loc 1 971 0
 3514 0114 2100     		movs	r1, r4
 3515 0116 2800     		movs	r0, r5
 3516 0118 FFF7FEFF 		bl	message_set_properties
ARM GAS  C:\Users\Phuong\AppData\Local\Temp\ccu7x7Ah.s 			page 82


 3517              	.LVL610:
 3518 011c 0028     		cmp	r0, #0
 3519 011e 10D0     		beq	.L195
 3520              	.LBB106:
 972:Source\azure_iot_sdk\iothub_client\src/iothubtransportamqp_methods.c ****                     {
 973:Source\azure_iot_sdk\iothub_client\src/iothubtransportamqp_methods.c ****                         /* Codes_SRS_IOTHUBTRANSPORT_AMQP_METHODS_01_149: [ If `message_set_propert
 974:Source\azure_iot_sdk\iothub_client\src/iothubtransportamqp_methods.c ****                         LogError("Cannot set properties on the response message");
 3521              		.loc 1 974 0 discriminator 3
 3522 0120 FFF7FEFF 		bl	xlogging_get_log_function
 3523              	.LVL611:
 3524 0124 071E     		subs	r7, r0, #0
 3525              	.LVL612:
 3526 0126 00D1     		bne	.LCB3789
 3527 0128 D3E0     		b	.L213	@long jump
 3528              	.LCB3789:
 3529              		.loc 1 974 0 is_stmt 0 discriminator 4
 3530 012a 874B     		ldr	r3, .L221+68
 3531 012c 0193     		str	r3, [sp, #4]
 3532 012e 0123     		movs	r3, #1
 3533 0130 0093     		str	r3, [sp]
 3534 0132 864B     		ldr	r3, .L221+72
 3535 0134 754A     		ldr	r2, .L221+8
 3536 0136 4832     		adds	r2, r2, #72
 3537 0138 7549     		ldr	r1, .L221+12
 3538 013a 0020     		movs	r0, #0
 3539              	.LVL613:
 3540 013c B847     		blx	r7
 3541              	.LVL614:
 3542              	.LBE106:
 975:Source\azure_iot_sdk\iothub_client\src/iothubtransportamqp_methods.c ****                         result = __FAILURE__;
 3543              		.loc 1 975 0 is_stmt 1 discriminator 4
 3544 013e 844F     		ldr	r7, .L221+76
 3545              	.LVL615:
 3546 0140 CAE0     		b	.L194
 3547              	.LVL616:
 3548              	.L195:
 3549              	.LBB107:
 976:Source\azure_iot_sdk\iothub_client\src/iothubtransportamqp_methods.c ****                     }
 977:Source\azure_iot_sdk\iothub_client\src/iothubtransportamqp_methods.c ****                     else
 978:Source\azure_iot_sdk\iothub_client\src/iothubtransportamqp_methods.c ****                     {
 979:Source\azure_iot_sdk\iothub_client\src/iothubtransportamqp_methods.c ****                         /* Codes_SRS_IOTHUBTRANSPORT_AMQP_METHODS_01_090: [ An AMQP map shall be cr
 980:Source\azure_iot_sdk\iothub_client\src/iothubtransportamqp_methods.c ****                         AMQP_VALUE application_properties_map = amqpvalue_create_map();
 3550              		.loc 1 980 0
 3551 0142 FFF7FEFF 		bl	amqpvalue_create_map
 3552              	.LVL617:
 3553 0146 0690     		str	r0, [sp, #24]
 3554              	.LVL618:
 981:Source\azure_iot_sdk\iothub_client\src/iothubtransportamqp_methods.c ****                         if (application_properties_map == NULL)
 3555              		.loc 1 981 0
 3556 0148 0028     		cmp	r0, #0
 3557 014a 11D1     		bne	.L196
 3558              	.LBB108:
 982:Source\azure_iot_sdk\iothub_client\src/iothubtransportamqp_methods.c ****                         {
 983:Source\azure_iot_sdk\iothub_client\src/iothubtransportamqp_methods.c ****                             /* Codes_SRS_IOTHUBTRANSPORT_AMQP_METHODS_01_096: [ If any of the calls
 984:Source\azure_iot_sdk\iothub_client\src/iothubtransportamqp_methods.c ****                             LogError("Cannot create map for application properties");
 3559              		.loc 1 984 0 discriminator 3
 3560 014c FFF7FEFF 		bl	xlogging_get_log_function
ARM GAS  C:\Users\Phuong\AppData\Local\Temp\ccu7x7Ah.s 			page 83


 3561              	.LVL619:
 3562 0150 071E     		subs	r7, r0, #0
 3563              	.LVL620:
 3564 0152 00D1     		bne	.LCB3826
 3565 0154 BFE0     		b	.L214	@long jump
 3566              	.LCB3826:
 3567              		.loc 1 984 0 is_stmt 0 discriminator 4
 3568 0156 7F4B     		ldr	r3, .L221+80
 3569 0158 0193     		str	r3, [sp, #4]
 3570 015a 0123     		movs	r3, #1
 3571 015c 0093     		str	r3, [sp]
 3572 015e F623     		movs	r3, #246
 3573 0160 9B00     		lsls	r3, r3, #2
 3574 0162 6A4A     		ldr	r2, .L221+8
 3575 0164 4832     		adds	r2, r2, #72
 3576 0166 6A49     		ldr	r1, .L221+12
 3577 0168 0020     		movs	r0, #0
 3578              	.LVL621:
 3579 016a B847     		blx	r7
 3580              	.LVL622:
 3581              	.LBE108:
 985:Source\azure_iot_sdk\iothub_client\src/iothubtransportamqp_methods.c ****                             result = __FAILURE__;
 3582              		.loc 1 985 0 is_stmt 1 discriminator 4
 3583 016c 7A4F     		ldr	r7, .L221+84
 3584              	.LVL623:
 3585 016e B3E0     		b	.L194
 3586              	.LVL624:
 3587              	.L196:
 3588              	.LBB109:
 986:Source\azure_iot_sdk\iothub_client\src/iothubtransportamqp_methods.c ****                         }
 987:Source\azure_iot_sdk\iothub_client\src/iothubtransportamqp_methods.c ****                         else
 988:Source\azure_iot_sdk\iothub_client\src/iothubtransportamqp_methods.c ****                         {
 989:Source\azure_iot_sdk\iothub_client\src/iothubtransportamqp_methods.c ****                             /* Codes_SRS_IOTHUBTRANSPORT_AMQP_METHODS_01_091: [ A property key `IoT
 990:Source\azure_iot_sdk\iothub_client\src/iothubtransportamqp_methods.c ****                             AMQP_VALUE property_key_status = amqpvalue_create_string("IoThub-status
 3589              		.loc 1 990 0
 3590 0170 7A48     		ldr	r0, .L221+88
 3591              	.LVL625:
 3592 0172 FFF7FEFF 		bl	amqpvalue_create_string
 3593              	.LVL626:
 3594 0176 0790     		str	r0, [sp, #28]
 3595              	.LVL627:
 991:Source\azure_iot_sdk\iothub_client\src/iothubtransportamqp_methods.c ****                             if (property_key_status == NULL)
 3596              		.loc 1 991 0
 3597 0178 0028     		cmp	r0, #0
 3598 017a 10D1     		bne	.L197
 3599              	.LBB110:
 992:Source\azure_iot_sdk\iothub_client\src/iothubtransportamqp_methods.c ****                             {
 993:Source\azure_iot_sdk\iothub_client\src/iothubtransportamqp_methods.c ****                                 /* Codes_SRS_IOTHUBTRANSPORT_AMQP_METHODS_01_096: [ If any of the c
 994:Source\azure_iot_sdk\iothub_client\src/iothubtransportamqp_methods.c ****                                 LogError("Cannot create the property key for the status property");
 3600              		.loc 1 994 0 discriminator 3
 3601 017c FFF7FEFF 		bl	xlogging_get_log_function
 3602              	.LVL628:
 3603 0180 071E     		subs	r7, r0, #0
 3604              	.LVL629:
 3605 0182 00D1     		bne	.LCB3867
 3606 0184 9DE0     		b	.L215	@long jump
 3607              	.LCB3867:
ARM GAS  C:\Users\Phuong\AppData\Local\Temp\ccu7x7Ah.s 			page 84


 3608              		.loc 1 994 0 is_stmt 0 discriminator 4
 3609 0186 764B     		ldr	r3, .L221+92
 3610 0188 0193     		str	r3, [sp, #4]
 3611 018a 0123     		movs	r3, #1
 3612 018c 0093     		str	r3, [sp]
 3613 018e 754B     		ldr	r3, .L221+96
 3614 0190 5E4A     		ldr	r2, .L221+8
 3615 0192 4832     		adds	r2, r2, #72
 3616 0194 5E49     		ldr	r1, .L221+12
 3617 0196 0020     		movs	r0, #0
 3618              	.LVL630:
 3619 0198 B847     		blx	r7
 3620              	.LVL631:
 3621              	.LBE110:
 995:Source\azure_iot_sdk\iothub_client\src/iothubtransportamqp_methods.c ****                                 result = __FAILURE__;
 3622              		.loc 1 995 0 is_stmt 1 discriminator 4
 3623 019a 734F     		ldr	r7, .L221+100
 3624              	.LVL632:
 3625 019c 92E0     		b	.L198
 3626              	.LVL633:
 3627              	.L197:
 3628              	.LBB111:
 996:Source\azure_iot_sdk\iothub_client\src/iothubtransportamqp_methods.c ****                             }
 997:Source\azure_iot_sdk\iothub_client\src/iothubtransportamqp_methods.c ****                             else
 998:Source\azure_iot_sdk\iothub_client\src/iothubtransportamqp_methods.c ****                             {
 999:Source\azure_iot_sdk\iothub_client\src/iothubtransportamqp_methods.c ****                                 /* Codes_SRS_IOTHUBTRANSPORT_AMQP_METHODS_01_097: [ A property valu
1000:Source\azure_iot_sdk\iothub_client\src/iothubtransportamqp_methods.c ****                                 AMQP_VALUE property_value_status = amqpvalue_create_int(status_code
 3629              		.loc 1 1000 0
 3630 019e 0598     		ldr	r0, [sp, #20]
 3631              	.LVL634:
 3632 01a0 FFF7FEFF 		bl	amqpvalue_create_int
 3633              	.LVL635:
 3634 01a4 0590     		str	r0, [sp, #20]
 3635              	.LVL636:
1001:Source\azure_iot_sdk\iothub_client\src/iothubtransportamqp_methods.c ****                                 if (property_value_status == NULL)
 3636              		.loc 1 1001 0
 3637 01a6 0028     		cmp	r0, #0
 3638 01a8 11D1     		bne	.L199
 3639              	.LBB112:
1002:Source\azure_iot_sdk\iothub_client\src/iothubtransportamqp_methods.c ****                                 {
1003:Source\azure_iot_sdk\iothub_client\src/iothubtransportamqp_methods.c ****                                     /* Codes_SRS_IOTHUBTRANSPORT_AMQP_METHODS_01_096: [ If any of t
1004:Source\azure_iot_sdk\iothub_client\src/iothubtransportamqp_methods.c ****                                     LogError("Cannot create the status code property value for the 
 3640              		.loc 1 1004 0 discriminator 3
 3641 01aa FFF7FEFF 		bl	xlogging_get_log_function
 3642              	.LVL637:
 3643 01ae 071E     		subs	r7, r0, #0
 3644              	.LVL638:
 3645 01b0 00D1     		bne	.LCB3908
 3646 01b2 81E0     		b	.L216	@long jump
 3647              	.LCB3908:
 3648              		.loc 1 1004 0 is_stmt 0 discriminator 4
 3649 01b4 6D4B     		ldr	r3, .L221+104
 3650 01b6 0193     		str	r3, [sp, #4]
 3651 01b8 0123     		movs	r3, #1
 3652 01ba 0093     		str	r3, [sp]
 3653 01bc FB23     		movs	r3, #251
 3654 01be 9B00     		lsls	r3, r3, #2
ARM GAS  C:\Users\Phuong\AppData\Local\Temp\ccu7x7Ah.s 			page 85


 3655 01c0 524A     		ldr	r2, .L221+8
 3656 01c2 4832     		adds	r2, r2, #72
 3657 01c4 5249     		ldr	r1, .L221+12
 3658 01c6 0020     		movs	r0, #0
 3659              	.LVL639:
 3660 01c8 B847     		blx	r7
 3661              	.LVL640:
 3662              	.LBE112:
1005:Source\azure_iot_sdk\iothub_client\src/iothubtransportamqp_methods.c ****                                     result = __FAILURE__;
 3663              		.loc 1 1005 0 is_stmt 1 discriminator 4
 3664 01ca 694F     		ldr	r7, .L221+108
 3665              	.LVL641:
 3666 01cc 75E0     		b	.L200
 3667              	.LVL642:
 3668              	.L199:
1006:Source\azure_iot_sdk\iothub_client\src/iothubtransportamqp_methods.c ****                                 }
1007:Source\azure_iot_sdk\iothub_client\src/iothubtransportamqp_methods.c ****                                 else
1008:Source\azure_iot_sdk\iothub_client\src/iothubtransportamqp_methods.c ****                                 {
1009:Source\azure_iot_sdk\iothub_client\src/iothubtransportamqp_methods.c ****                                     /* Cdoes_SRS_IOTHUBTRANSPORT_AMQP_METHODS_01_093: [ A new entry
1010:Source\azure_iot_sdk\iothub_client\src/iothubtransportamqp_methods.c ****                                     if (amqpvalue_set_map_value(application_properties_map, propert
 3669              		.loc 1 1010 0
 3670 01ce 059A     		ldr	r2, [sp, #20]
 3671 01d0 0799     		ldr	r1, [sp, #28]
 3672 01d2 0698     		ldr	r0, [sp, #24]
 3673              	.LVL643:
 3674 01d4 FFF7FEFF 		bl	amqpvalue_set_map_value
 3675              	.LVL644:
 3676 01d8 0028     		cmp	r0, #0
 3677 01da 0FD0     		beq	.L201
 3678              	.LBB113:
1011:Source\azure_iot_sdk\iothub_client\src/iothubtransportamqp_methods.c ****                                     {
1012:Source\azure_iot_sdk\iothub_client\src/iothubtransportamqp_methods.c ****                                         /* Codes_SRS_IOTHUBTRANSPORT_AMQP_METHODS_01_096: [ If any 
1013:Source\azure_iot_sdk\iothub_client\src/iothubtransportamqp_methods.c ****                                         LogError("Cannot add the status property to the application
 3679              		.loc 1 1013 0 discriminator 3
 3680 01dc FFF7FEFF 		bl	xlogging_get_log_function
 3681              	.LVL645:
 3682 01e0 071E     		subs	r7, r0, #0
 3683              	.LVL646:
 3684 01e2 62D0     		beq	.L217
 3685              		.loc 1 1013 0 is_stmt 0 discriminator 4
 3686 01e4 634B     		ldr	r3, .L221+112
 3687 01e6 0193     		str	r3, [sp, #4]
 3688 01e8 0123     		movs	r3, #1
 3689 01ea 0093     		str	r3, [sp]
 3690 01ec 624B     		ldr	r3, .L221+116
 3691 01ee 474A     		ldr	r2, .L221+8
 3692 01f0 4832     		adds	r2, r2, #72
 3693 01f2 4749     		ldr	r1, .L221+12
 3694 01f4 0020     		movs	r0, #0
 3695              	.LVL647:
 3696 01f6 B847     		blx	r7
 3697              	.LVL648:
 3698              	.LBE113:
1014:Source\azure_iot_sdk\iothub_client\src/iothubtransportamqp_methods.c ****                                         result = __FAILURE__;
 3699              		.loc 1 1014 0 is_stmt 1 discriminator 4
 3700 01f8 604F     		ldr	r7, .L221+120
 3701              	.LVL649:
ARM GAS  C:\Users\Phuong\AppData\Local\Temp\ccu7x7Ah.s 			page 86


 3702 01fa 59E0     		b	.L202
 3703              	.LVL650:
 3704              	.L201:
1015:Source\azure_iot_sdk\iothub_client\src/iothubtransportamqp_methods.c ****                                     }
1016:Source\azure_iot_sdk\iothub_client\src/iothubtransportamqp_methods.c ****                                     else
1017:Source\azure_iot_sdk\iothub_client\src/iothubtransportamqp_methods.c ****                                     {
1018:Source\azure_iot_sdk\iothub_client\src/iothubtransportamqp_methods.c ****                                         /* Codes_SRS_IOTHUBTRANSPORT_AMQP_METHODS_01_094: [ The app
1019:Source\azure_iot_sdk\iothub_client\src/iothubtransportamqp_methods.c ****                                         if (message_set_application_properties(message, application
 3705              		.loc 1 1019 0
 3706 01fc 0699     		ldr	r1, [sp, #24]
 3707 01fe 2800     		movs	r0, r5
 3708 0200 FFF7FEFF 		bl	message_set_application_properties
 3709              	.LVL651:
 3710 0204 0028     		cmp	r0, #0
 3711 0206 0FD0     		beq	.L203
 3712              	.LBB114:
1020:Source\azure_iot_sdk\iothub_client\src/iothubtransportamqp_methods.c ****                                         {
1021:Source\azure_iot_sdk\iothub_client\src/iothubtransportamqp_methods.c ****                                             /* Codes_SRS_IOTHUBTRANSPORT_AMQP_METHODS_01_096: [ If 
1022:Source\azure_iot_sdk\iothub_client\src/iothubtransportamqp_methods.c ****                                             LogError("Cannot set the application properties on the 
 3713              		.loc 1 1022 0 discriminator 3
 3714 0208 FFF7FEFF 		bl	xlogging_get_log_function
 3715              	.LVL652:
 3716 020c 071E     		subs	r7, r0, #0
 3717              	.LVL653:
 3718 020e 4ED0     		beq	.L218
 3719              		.loc 1 1022 0 is_stmt 0 discriminator 4
 3720 0210 5B4B     		ldr	r3, .L221+124
 3721 0212 0193     		str	r3, [sp, #4]
 3722 0214 0123     		movs	r3, #1
 3723 0216 0093     		str	r3, [sp]
 3724 0218 5A4B     		ldr	r3, .L221+128
 3725 021a 3C4A     		ldr	r2, .L221+8
 3726 021c 4832     		adds	r2, r2, #72
 3727 021e 3C49     		ldr	r1, .L221+12
 3728 0220 0020     		movs	r0, #0
 3729              	.LVL654:
 3730 0222 B847     		blx	r7
 3731              	.LVL655:
 3732              	.LBE114:
1023:Source\azure_iot_sdk\iothub_client\src/iothubtransportamqp_methods.c ****                                             result = __FAILURE__;
 3733              		.loc 1 1023 0 is_stmt 1 discriminator 4
 3734 0224 584F     		ldr	r7, .L221+132
 3735              	.LVL656:
 3736 0226 43E0     		b	.L202
 3737              	.LVL657:
 3738              	.L203:
 3739              	.LBB115:
1024:Source\azure_iot_sdk\iothub_client\src/iothubtransportamqp_methods.c ****                                         }
1025:Source\azure_iot_sdk\iothub_client\src/iothubtransportamqp_methods.c ****                                         else
1026:Source\azure_iot_sdk\iothub_client\src/iothubtransportamqp_methods.c ****                                         {
1027:Source\azure_iot_sdk\iothub_client\src/iothubtransportamqp_methods.c ****                                             BINARY_DATA binary_data;
1028:Source\azure_iot_sdk\iothub_client\src/iothubtransportamqp_methods.c **** 
1029:Source\azure_iot_sdk\iothub_client\src/iothubtransportamqp_methods.c ****                                             /* Codes_SRS_IOTHUBTRANSPORT_AMQP_METHODS_01_079: [ The
1030:Source\azure_iot_sdk\iothub_client\src/iothubtransportamqp_methods.c ****                                             /* Codes_SRS_IOTHUBTRANSPORT_AMQP_METHODS_01_080: [ The
1031:Source\azure_iot_sdk\iothub_client\src/iothubtransportamqp_methods.c ****                                             binary_data.bytes = response;
 3740              		.loc 1 1031 0
 3741 0228 0896     		str	r6, [sp, #32]
ARM GAS  C:\Users\Phuong\AppData\Local\Temp\ccu7x7Ah.s 			page 87


1032:Source\azure_iot_sdk\iothub_client\src/iothubtransportamqp_methods.c ****                                             binary_data.length = response_size;
 3742              		.loc 1 1032 0
 3743 022a 049B     		ldr	r3, [sp, #16]
 3744 022c 0993     		str	r3, [sp, #36]
1033:Source\azure_iot_sdk\iothub_client\src/iothubtransportamqp_methods.c **** 
1034:Source\azure_iot_sdk\iothub_client\src/iothubtransportamqp_methods.c ****                                             /* Codes_SRS_IOTHUBTRANSPORT_AMQP_METHODS_01_078: [ The
1035:Source\azure_iot_sdk\iothub_client\src/iothubtransportamqp_methods.c ****                                             if (message_add_body_amqp_data(message, binary_data) !=
 3745              		.loc 1 1035 0
 3746 022e 3100     		movs	r1, r6
 3747 0230 1A00     		movs	r2, r3
 3748 0232 2800     		movs	r0, r5
 3749 0234 FFF7FEFF 		bl	message_add_body_amqp_data
 3750              	.LVL658:
 3751 0238 0028     		cmp	r0, #0
 3752 023a 0FD0     		beq	.L204
 3753              	.LBB116:
1036:Source\azure_iot_sdk\iothub_client\src/iothubtransportamqp_methods.c ****                                             {
1037:Source\azure_iot_sdk\iothub_client\src/iothubtransportamqp_methods.c ****                                                 /* Codes_SRS_IOTHUBTRANSPORT_AMQP_METHODS_01_081: [
1038:Source\azure_iot_sdk\iothub_client\src/iothubtransportamqp_methods.c ****                                                 LogError("Cannot set the response payload on the re
 3754              		.loc 1 1038 0 discriminator 3
 3755 023c FFF7FEFF 		bl	xlogging_get_log_function
 3756              	.LVL659:
 3757 0240 071E     		subs	r7, r0, #0
 3758              	.LVL660:
 3759 0242 2ED0     		beq	.L219
 3760              		.loc 1 1038 0 is_stmt 0 discriminator 4
 3761 0244 514B     		ldr	r3, .L221+136
 3762 0246 0193     		str	r3, [sp, #4]
 3763 0248 0123     		movs	r3, #1
 3764 024a 0093     		str	r3, [sp]
 3765 024c 504B     		ldr	r3, .L221+140
 3766 024e 2F4A     		ldr	r2, .L221+8
 3767 0250 4832     		adds	r2, r2, #72
 3768 0252 2F49     		ldr	r1, .L221+12
 3769 0254 0020     		movs	r0, #0
 3770              	.LVL661:
 3771 0256 B847     		blx	r7
 3772              	.LVL662:
 3773              	.LBE116:
1039:Source\azure_iot_sdk\iothub_client\src/iothubtransportamqp_methods.c ****                                                 result = __FAILURE__;
 3774              		.loc 1 1039 0 is_stmt 1 discriminator 4
 3775 0258 4E4F     		ldr	r7, .L221+144
 3776              	.LVL663:
 3777 025a 29E0     		b	.L202
 3778              	.LVL664:
 3779              	.L204:
1040:Source\azure_iot_sdk\iothub_client\src/iothubtransportamqp_methods.c ****                                             }
1041:Source\azure_iot_sdk\iothub_client\src/iothubtransportamqp_methods.c ****                                             else
1042:Source\azure_iot_sdk\iothub_client\src/iothubtransportamqp_methods.c ****                                             {
1043:Source\azure_iot_sdk\iothub_client\src/iothubtransportamqp_methods.c ****                                                 /* Codes_SRS_IOTHUBTRANSPORT_AMQP_METHODS_01_067: [
1044:Source\azure_iot_sdk\iothub_client\src/iothubtransportamqp_methods.c ****                                                 /* Codes_SRS_IOTHUBTRANSPORT_AMQP_METHODS_01_068: [
1045:Source\azure_iot_sdk\iothub_client\src/iothubtransportamqp_methods.c ****                                                 /* Codes_SRS_IOTHUBTRANSPORT_AMQP_METHODS_01_069: [
1046:Source\azure_iot_sdk\iothub_client\src/iothubtransportamqp_methods.c ****                                                 if (messagesender_send_async(method_handle->iothubt
 3780              		.loc 1 1046 0
 3781 025c 3B68     		ldr	r3, [r7]
 3782 025e 9869     		ldr	r0, [r3, #24]
 3783 0260 0022     		movs	r2, #0
ARM GAS  C:\Users\Phuong\AppData\Local\Temp\ccu7x7Ah.s 			page 88


 3784 0262 0092     		str	r2, [sp]
 3785 0264 4C4A     		ldr	r2, .L221+148
 3786 0266 2900     		movs	r1, r5
 3787 0268 FFF7FEFF 		bl	messagesender_send_async
 3788              	.LVL665:
 3789 026c 0028     		cmp	r0, #0
 3790 026e 0FD1     		bne	.L206
 3791              	.LBB117:
1047:Source\azure_iot_sdk\iothub_client\src/iothubtransportamqp_methods.c ****                                                 {
1048:Source\azure_iot_sdk\iothub_client\src/iothubtransportamqp_methods.c ****                                                     /* Codes_SRS_IOTHUBTRANSPORT_AMQP_METHODS_01_07
1049:Source\azure_iot_sdk\iothub_client\src/iothubtransportamqp_methods.c ****                                                     LogError("Cannot send response message");
 3792              		.loc 1 1049 0 discriminator 3
 3793 0270 FFF7FEFF 		bl	xlogging_get_log_function
 3794              	.LVL666:
 3795 0274 071E     		subs	r7, r0, #0
 3796              	.LVL667:
 3797 0276 16D0     		beq	.L220
 3798              		.loc 1 1049 0 is_stmt 0 discriminator 4
 3799 0278 484B     		ldr	r3, .L221+152
 3800 027a 0193     		str	r3, [sp, #4]
 3801 027c 0123     		movs	r3, #1
 3802 027e 0093     		str	r3, [sp]
 3803 0280 474B     		ldr	r3, .L221+156
 3804 0282 224A     		ldr	r2, .L221+8
 3805 0284 4832     		adds	r2, r2, #72
 3806 0286 2249     		ldr	r1, .L221+12
 3807 0288 0020     		movs	r0, #0
 3808              	.LVL668:
 3809 028a B847     		blx	r7
 3810              	.LVL669:
 3811              	.LBE117:
1050:Source\azure_iot_sdk\iothub_client\src/iothubtransportamqp_methods.c ****                                                     result = __FAILURE__;
 3812              		.loc 1 1050 0 is_stmt 1 discriminator 4
 3813 028c 454F     		ldr	r7, .L221+160
 3814              	.LVL670:
 3815 028e 0FE0     		b	.L202
 3816              	.LVL671:
 3817              	.L206:
1051:Source\azure_iot_sdk\iothub_client\src/iothubtransportamqp_methods.c ****                                                 }
1052:Source\azure_iot_sdk\iothub_client\src/iothubtransportamqp_methods.c ****                                                 else
1053:Source\azure_iot_sdk\iothub_client\src/iothubtransportamqp_methods.c ****                                                 {
1054:Source\azure_iot_sdk\iothub_client\src/iothubtransportamqp_methods.c ****                                                     /* Codes_SRS_IOTHUBTRANSPORT_AMQP_METHODS_01_11
1055:Source\azure_iot_sdk\iothub_client\src/iothubtransportamqp_methods.c ****                                                     remove_tracked_handle(method_handle->iothubtran
 3818              		.loc 1 1055 0
 3819 0290 3900     		movs	r1, r7
 3820 0292 3868     		ldr	r0, [r7]
 3821 0294 FFF7FEFF 		bl	remove_tracked_handle
 3822              	.LVL672:
1056:Source\azure_iot_sdk\iothub_client\src/iothubtransportamqp_methods.c **** 
1057:Source\azure_iot_sdk\iothub_client\src/iothubtransportamqp_methods.c ****                                                     /* Codes_SRS_IOTHUBTRANSPORT_AMQP_METHODS_01_11
1058:Source\azure_iot_sdk\iothub_client\src/iothubtransportamqp_methods.c ****                                                     free(method_handle);
 3823              		.loc 1 1058 0
 3824 0298 3800     		movs	r0, r7
 3825 029a FFF7FEFF 		bl	free
 3826              	.LVL673:
1059:Source\azure_iot_sdk\iothub_client\src/iothubtransportamqp_methods.c **** 
1060:Source\azure_iot_sdk\iothub_client\src/iothubtransportamqp_methods.c ****                                                     /* Codes_SRS_IOTHUBTRANSPORT_AMQP_METHODS_01_06
ARM GAS  C:\Users\Phuong\AppData\Local\Temp\ccu7x7Ah.s 			page 89


1061:Source\azure_iot_sdk\iothub_client\src/iothubtransportamqp_methods.c ****                                                     result = 0;
 3827              		.loc 1 1061 0
 3828 029e 0027     		movs	r7, #0
 3829              	.LVL674:
 3830 02a0 06E0     		b	.L202
 3831              	.LVL675:
 3832              	.L219:
1039:Source\azure_iot_sdk\iothub_client\src/iothubtransportamqp_methods.c ****                                             }
 3833              		.loc 1 1039 0
 3834 02a2 3C4F     		ldr	r7, .L221+144
 3835 02a4 04E0     		b	.L202
 3836              	.LVL676:
 3837              	.L220:
1050:Source\azure_iot_sdk\iothub_client\src/iothubtransportamqp_methods.c ****                                                 }
 3838              		.loc 1 1050 0
 3839 02a6 3F4F     		ldr	r7, .L221+160
 3840              	.LVL677:
 3841 02a8 02E0     		b	.L202
 3842              	.LVL678:
 3843              	.L217:
 3844              	.LBE115:
1014:Source\azure_iot_sdk\iothub_client\src/iothubtransportamqp_methods.c ****                                     }
 3845              		.loc 1 1014 0
 3846 02aa 344F     		ldr	r7, .L221+120
 3847 02ac 00E0     		b	.L202
 3848              	.LVL679:
 3849              	.L218:
1023:Source\azure_iot_sdk\iothub_client\src/iothubtransportamqp_methods.c ****                                         }
 3850              		.loc 1 1023 0
 3851 02ae 364F     		ldr	r7, .L221+132
 3852              	.LVL680:
 3853              	.L202:
1062:Source\azure_iot_sdk\iothub_client\src/iothubtransportamqp_methods.c ****                                                 }
1063:Source\azure_iot_sdk\iothub_client\src/iothubtransportamqp_methods.c ****                                             }
1064:Source\azure_iot_sdk\iothub_client\src/iothubtransportamqp_methods.c ****                                         }
1065:Source\azure_iot_sdk\iothub_client\src/iothubtransportamqp_methods.c ****                                     }
1066:Source\azure_iot_sdk\iothub_client\src/iothubtransportamqp_methods.c **** 
1067:Source\azure_iot_sdk\iothub_client\src/iothubtransportamqp_methods.c ****                                     /* Codes_SRS_IOTHUBTRANSPORT_AMQP_METHODS_01_095: [ The applica
1068:Source\azure_iot_sdk\iothub_client\src/iothubtransportamqp_methods.c ****                                     amqpvalue_destroy(property_value_status);
 3854              		.loc 1 1068 0
 3855 02b0 0598     		ldr	r0, [sp, #20]
 3856 02b2 FFF7FEFF 		bl	amqpvalue_destroy
 3857              	.LVL681:
 3858 02b6 00E0     		b	.L200
 3859              	.LVL682:
 3860              	.L216:
1005:Source\azure_iot_sdk\iothub_client\src/iothubtransportamqp_methods.c ****                                 }
 3861              		.loc 1 1005 0
 3862 02b8 2D4F     		ldr	r7, .L221+108
 3863              	.LVL683:
 3864              	.L200:
1069:Source\azure_iot_sdk\iothub_client\src/iothubtransportamqp_methods.c ****                                 }
1070:Source\azure_iot_sdk\iothub_client\src/iothubtransportamqp_methods.c **** 
1071:Source\azure_iot_sdk\iothub_client\src/iothubtransportamqp_methods.c ****                                 /* Codes_SRS_IOTHUBTRANSPORT_AMQP_METHODS_01_095: [ The application
1072:Source\azure_iot_sdk\iothub_client\src/iothubtransportamqp_methods.c ****                                 amqpvalue_destroy(property_key_status);
 3865              		.loc 1 1072 0
 3866 02ba 0798     		ldr	r0, [sp, #28]
ARM GAS  C:\Users\Phuong\AppData\Local\Temp\ccu7x7Ah.s 			page 90


 3867 02bc FFF7FEFF 		bl	amqpvalue_destroy
 3868              	.LVL684:
 3869 02c0 00E0     		b	.L198
 3870              	.LVL685:
 3871              	.L215:
 3872              	.LBE111:
 995:Source\azure_iot_sdk\iothub_client\src/iothubtransportamqp_methods.c ****                             }
 3873              		.loc 1 995 0
 3874 02c2 294F     		ldr	r7, .L221+100
 3875              	.LVL686:
 3876              	.L198:
1073:Source\azure_iot_sdk\iothub_client\src/iothubtransportamqp_methods.c ****                             }
1074:Source\azure_iot_sdk\iothub_client\src/iothubtransportamqp_methods.c **** 
1075:Source\azure_iot_sdk\iothub_client\src/iothubtransportamqp_methods.c ****                             /* Codes_SRS_IOTHUBTRANSPORT_AMQP_METHODS_01_095: [ The application pro
1076:Source\azure_iot_sdk\iothub_client\src/iothubtransportamqp_methods.c ****                             amqpvalue_destroy(application_properties_map);
 3877              		.loc 1 1076 0
 3878 02c4 0698     		ldr	r0, [sp, #24]
 3879 02c6 FFF7FEFF 		bl	amqpvalue_destroy
 3880              	.LVL687:
 3881 02ca 05E0     		b	.L194
 3882              	.LVL688:
 3883              	.L212:
 3884              	.LBE109:
 3885              	.LBE107:
 968:Source\azure_iot_sdk\iothub_client\src/iothubtransportamqp_methods.c ****                     }
 3886              		.loc 1 968 0
 3887 02cc F227     		movs	r7, #242
 3888 02ce BF00     		lsls	r7, r7, #2
 3889 02d0 02E0     		b	.L194
 3890              	.LVL689:
 3891              	.L213:
 975:Source\azure_iot_sdk\iothub_client\src/iothubtransportamqp_methods.c ****                     }
 3892              		.loc 1 975 0
 3893 02d2 1F4F     		ldr	r7, .L221+76
 3894 02d4 00E0     		b	.L194
 3895              	.LVL690:
 3896              	.L214:
 3897              	.LBB118:
 985:Source\azure_iot_sdk\iothub_client\src/iothubtransportamqp_methods.c ****                         }
 3898              		.loc 1 985 0
 3899 02d6 204F     		ldr	r7, .L221+84
 3900              	.LVL691:
 3901              	.L194:
 3902              	.LBE118:
1077:Source\azure_iot_sdk\iothub_client\src/iothubtransportamqp_methods.c ****                         }
1078:Source\azure_iot_sdk\iothub_client\src/iothubtransportamqp_methods.c ****                     }
1079:Source\azure_iot_sdk\iothub_client\src/iothubtransportamqp_methods.c **** 
1080:Source\azure_iot_sdk\iothub_client\src/iothubtransportamqp_methods.c ****                     /* Codes_SRS_IOTHUBTRANSPORT_AMQP_METHODS_01_095: [ The application property ma
1081:Source\azure_iot_sdk\iothub_client\src/iothubtransportamqp_methods.c ****                     amqpvalue_destroy(correlation_id);
 3903              		.loc 1 1081 0
 3904 02d8 0398     		ldr	r0, [sp, #12]
 3905 02da FFF7FEFF 		bl	amqpvalue_destroy
 3906              	.LVL692:
 3907 02de 00E0     		b	.L192
 3908              	.LVL693:
 3909              	.L211:
 959:Source\azure_iot_sdk\iothub_client\src/iothubtransportamqp_methods.c ****                 }
ARM GAS  C:\Users\Phuong\AppData\Local\Temp\ccu7x7Ah.s 			page 91


 3910              		.loc 1 959 0
 3911 02e0 164F     		ldr	r7, .L221+56
 3912              	.LVL694:
 3913              	.L192:
1082:Source\azure_iot_sdk\iothub_client\src/iothubtransportamqp_methods.c ****                 }
1083:Source\azure_iot_sdk\iothub_client\src/iothubtransportamqp_methods.c **** 
1084:Source\azure_iot_sdk\iothub_client\src/iothubtransportamqp_methods.c ****                 /* Codes_SRS_IOTHUBTRANSPORT_AMQP_METHODS_01_095: [ The application property map an
1085:Source\azure_iot_sdk\iothub_client\src/iothubtransportamqp_methods.c ****                 properties_destroy(properties);
 3914              		.loc 1 1085 0
 3915 02e2 2000     		movs	r0, r4
 3916 02e4 FFF7FEFF 		bl	properties_destroy
 3917              	.LVL695:
 3918 02e8 00E0     		b	.L190
 3919              	.LVL696:
 3920              	.L210:
 3921              	.LBE103:
 949:Source\azure_iot_sdk\iothub_client\src/iothubtransportamqp_methods.c ****             }
 3922              		.loc 1 949 0
 3923 02ea 114F     		ldr	r7, .L221+44
 3924              	.LVL697:
 3925              	.L190:
1086:Source\azure_iot_sdk\iothub_client\src/iothubtransportamqp_methods.c ****             }
1087:Source\azure_iot_sdk\iothub_client\src/iothubtransportamqp_methods.c **** 
1088:Source\azure_iot_sdk\iothub_client\src/iothubtransportamqp_methods.c ****             /* Codes_SRS_IOTHUBTRANSPORT_AMQP_METHODS_01_095: [ The application property map and al
1089:Source\azure_iot_sdk\iothub_client\src/iothubtransportamqp_methods.c ****             message_destroy(message);
 3926              		.loc 1 1089 0
 3927 02ec 2800     		movs	r0, r5
 3928 02ee FFF7FEFF 		bl	message_destroy
 3929              	.LVL698:
 3930 02f2 04E0     		b	.L186
 3931              	.LVL699:
 3932              	.L207:
 3933              	.LBE101:
 3934              	.LBE99:
 923:Source\azure_iot_sdk\iothub_client\src/iothubtransportamqp_methods.c ****     }
 3935              		.loc 1 923 0
 3936 02f4 074F     		ldr	r7, .L221+16
 3937              	.LVL700:
 3938 02f6 02E0     		b	.L186
 3939              	.LVL701:
 3940              	.L208:
 929:Source\azure_iot_sdk\iothub_client\src/iothubtransportamqp_methods.c ****     }
 3941              		.loc 1 929 0
 3942 02f8 084F     		ldr	r7, .L221+24
 3943              	.LVL702:
 3944 02fa 00E0     		b	.L186
 3945              	.LVL703:
 3946              	.L209:
 3947              	.LBB119:
 939:Source\azure_iot_sdk\iothub_client\src/iothubtransportamqp_methods.c ****         }
 3948              		.loc 1 939 0
 3949 02fc 0A4F     		ldr	r7, .L221+36
 3950              	.LVL704:
 3951              	.L186:
 3952              	.LBE119:
1090:Source\azure_iot_sdk\iothub_client\src/iothubtransportamqp_methods.c ****         }
1091:Source\azure_iot_sdk\iothub_client\src/iothubtransportamqp_methods.c ****     }
ARM GAS  C:\Users\Phuong\AppData\Local\Temp\ccu7x7Ah.s 			page 92


1092:Source\azure_iot_sdk\iothub_client\src/iothubtransportamqp_methods.c **** 
1093:Source\azure_iot_sdk\iothub_client\src/iothubtransportamqp_methods.c ****     return result;
1094:Source\azure_iot_sdk\iothub_client\src/iothubtransportamqp_methods.c **** }
 3953              		.loc 1 1094 0
 3954 02fe 3800     		movs	r0, r7
 3955 0300 0BB0     		add	sp, sp, #44
 3956              		@ sp needed
 3957              	.LVL705:
 3958 0302 F0BD     		pop	{r4, r5, r6, r7, pc}
 3959              	.L222:
 3960              		.align	2
 3961              	.L221:
 3962 0304 94090000 		.word	.LC135
 3963 0308 9A030000 		.word	922
 3964 030c 80000000 		.word	.LANCHOR1
 3965 0310 00000000 		.word	.LC1
 3966 0314 9B030000 		.word	923
 3967 0318 A8090000 		.word	.LC137
 3968 031c A1030000 		.word	929
 3969 0320 DC090000 		.word	.LC139
 3970 0324 AA030000 		.word	938
 3971 0328 AB030000 		.word	939
 3972 032c F4090000 		.word	.LC141
 3973 0330 B5030000 		.word	949
 3974 0334 100A0000 		.word	.LC143
 3975 0338 BE030000 		.word	958
 3976 033c BF030000 		.word	959
 3977 0340 340A0000 		.word	.LC145
 3978 0344 C7030000 		.word	967
 3979 0348 600A0000 		.word	.LC147
 3980 034c CE030000 		.word	974
 3981 0350 CF030000 		.word	975
 3982 0354 900A0000 		.word	.LC149
 3983 0358 D9030000 		.word	985
 3984 035c C00A0000 		.word	.LC151
 3985 0360 D00A0000 		.word	.LC153
 3986 0364 E2030000 		.word	994
 3987 0368 E3030000 		.word	995
 3988 036c 080B0000 		.word	.LC155
 3989 0370 ED030000 		.word	1005
 3990 0374 580B0000 		.word	.LC157
 3991 0378 F5030000 		.word	1013
 3992 037c F6030000 		.word	1014
 3993 0380 980B0000 		.word	.LC159
 3994 0384 FE030000 		.word	1022
 3995 0388 FF030000 		.word	1023
 3996 038c D00B0000 		.word	.LC161
 3997 0390 0E040000 		.word	1038
 3998 0394 0F040000 		.word	1039
 3999 0398 00000000 		.word	on_message_send_complete
 4000 039c 080C0000 		.word	.LC164
 4001 03a0 19040000 		.word	1049
 4002 03a4 1A040000 		.word	1050
 4003              		.cfi_endproc
 4004              	.LFE16:
 4005              		.size	iothubtransportamqp_methods_respond, .-iothubtransportamqp_methods_respond
 4006              		.section	.rodata
ARM GAS  C:\Users\Phuong\AppData\Local\Temp\ccu7x7Ah.s 			page 93


 4007              		.align	2
 4008              		.set	.LANCHOR0,. + 0
 4009              		.set	.LANCHOR1,. + 128
 4010              		.type	__func__.7790, %object
 4011              		.size	__func__.7790, 20
 4012              	__func__.7790:
 4013 0000 6F6E5F6D 		.ascii	"on_message_received\000"
 4013      65737361 
 4013      67655F72 
 4013      65636569 
 4013      76656400 
 4014              		.type	__func__.7734, %object
 4015              		.size	__func__.7734, 35
 4016              	__func__.7734:
 4017 0014 696F7468 		.ascii	"iothubtransportamqp_methods_create\000"
 4017      75627472 
 4017      616E7370 
 4017      6F727461 
 4017      6D71705F 
 4018 0037 00       		.space	1
 4019              		.type	__func__.7864, %object
 4020              		.size	__func__.7864, 27
 4021              	__func__.7864:
 4022 0038 7365745F 		.ascii	"set_link_attach_properties\000"
 4022      6C696E6B 
 4022      5F617474 
 4022      6163685F 
 4022      70726F70 
 4023 0053 00       		.space	1
 4024              		.type	__func__.7911, %object
 4025              		.size	__func__.7911, 38
 4026              	__func__.7911:
 4027 0054 696F7468 		.ascii	"iothubtransportamqp_methods_subscribe\000"
 4027      75627472 
 4027      616E7370 
 4027      6F727461 
 4027      6D71705F 
 4028 007a 0000     		.space	2
 4029              		.type	__func__.7964, %object
 4030              		.size	__func__.7964, 40
 4031              	__func__.7964:
 4032 007c 696F7468 		.ascii	"iothubtransportamqp_methods_unsubscribe\000"
 4032      75627472 
 4032      616E7370 
 4032      6F727461 
 4032      6D71705F 
 4033              		.type	__func__.7753, %object
 4034              		.size	__func__.7753, 36
 4035              	__func__.7753:
 4036 00a4 696F7468 		.ascii	"iothubtransportamqp_methods_destroy\000"
 4036      75627472 
 4036      616E7370 
 4036      6F727461 
 4036      6D71705F 
 4037              		.type	__func__.7978, %object
 4038              		.size	__func__.7978, 36
 4039              	__func__.7978:
ARM GAS  C:\Users\Phuong\AppData\Local\Temp\ccu7x7Ah.s 			page 94


 4040 00c8 696F7468 		.ascii	"iothubtransportamqp_methods_respond\000"
 4040      75627472 
 4040      616E7370 
 4040      6F727461 
 4040      6D71705F 
 4041              		.section	.rodata.str1.4,"aMS",%progbits,1
 4042              		.align	2
 4043              	.LC1:
 4044 0000 536F7572 		.ascii	"Source\\azure_iot_sdk\\iothub_client\\src\\iothubtr"
 4044      63655C61 
 4044      7A757265 
 4044      5F696F74 
 4044      5F73646B 
 4045 002f 616E7370 		.ascii	"ansportamqp_methods.c\000"
 4045      6F727461 
 4045      6D71705F 
 4045      6D657468 
 4045      6F64732E 
 4046 0045 000000   		.space	3
 4047              	.LC3:
 4048 0048 4E554C4C 		.ascii	"NULL message\000"
 4048      206D6573 
 4048      73616765 
 4048      00
 4049 0055 000000   		.space	3
 4050              	.LC5:
 4051 0058 43616E6E 		.ascii	"Cannot retrieve message properties\000"
 4051      6F742072 
 4051      65747269 
 4051      65766520 
 4051      6D657373 
 4052 007b 00       		.space	1
 4053              	.LC7:
 4054 007c 616D7170 		.ascii	"amqp:decode-error\000"
 4054      3A646563 
 4054      6F64652D 
 4054      6572726F 
 4054      7200
 4055 008e 0000     		.space	2
 4056              	.LC9:
 4057 0090 43616E6E 		.ascii	"Cannot retrieve correlation id\000"
 4057      6F742072 
 4057      65747269 
 4057      65766520 
 4057      636F7272 
 4058 00af 00       		.space	1
 4059              	.LC11:
 4060 00b0 43616E6E 		.ascii	"Cannot allocate method handle\000"
 4060      6F742061 
 4060      6C6C6F63 
 4060      61746520 
 4060      6D657468 
 4061 00ce 0000     		.space	2
 4062              	.LC13:
 4063 00d0 43616E6E 		.ascii	"Cannot grow method handles array\000"
 4063      6F742067 
 4063      726F7720 
ARM GAS  C:\Users\Phuong\AppData\Local\Temp\ccu7x7Ah.s 			page 95


 4063      6D657468 
 4063      6F642068 
 4064 00f1 000000   		.space	3
 4065              	.LC15:
 4066 00f4 43616E6E 		.ascii	"Cannot get uuid value for correlation-id\000"
 4066      6F742067 
 4066      65742075 
 4066      75696420 
 4066      76616C75 
 4067 011d 000000   		.space	3
 4068              	.LC17:
 4069 0120 43616E6E 		.ascii	"Cannot get method request message payload\000"
 4069      6F742067 
 4069      6574206D 
 4069      6574686F 
 4069      64207265 
 4070 014a 0000     		.space	2
 4071              	.LC19:
 4072 014c 43616E6E 		.ascii	"Cannot get application properties\000"
 4072      6F742067 
 4072      65742061 
 4072      70706C69 
 4072      63617469 
 4073 016e 0000     		.space	2
 4074              	.LC21:
 4075 0170 43616E6E 		.ascii	"Cannot get application properties map\000"
 4075      6F742067 
 4075      65742061 
 4075      70706C69 
 4075      63617469 
 4076 0196 0000     		.space	2
 4077              	.LC23:
 4078 0198 496F5468 		.ascii	"IoThub-methodname\000"
 4078      75622D6D 
 4078      6574686F 
 4078      646E616D 
 4078      6500
 4079 01aa 0000     		.space	2
 4080              	.LC25:
 4081 01ac 43616E6E 		.ascii	"Cannot create the property key for method name\000"
 4081      6F742063 
 4081      72656174 
 4081      65207468 
 4081      65207072 
 4082 01db 00       		.space	1
 4083              	.LC27:
 4084 01dc 43616E6E 		.ascii	"Cannot find the IoThub-methodname property in the p"
 4084      6F742066 
 4084      696E6420 
 4084      74686520 
 4084      496F5468 
 4085 020f 726F7065 		.ascii	"roperties map\000"
 4085      72746965 
 4085      73206D61 
 4085      7000
 4086 021d 000000   		.space	3
 4087              	.LC29:
ARM GAS  C:\Users\Phuong\AppData\Local\Temp\ccu7x7Ah.s 			page 96


 4088 0220 43616E6E 		.ascii	"Cannot read the method name from the property value"
 4088      6F742072 
 4088      65616420 
 4088      74686520 
 4088      6D657468 
 4089 0253 00       		.ascii	"\000"
 4090              	.LC31:
 4091 0254 43616E6E 		.ascii	"Cannot allocate memory for delivery state\000"
 4091      6F742061 
 4091      6C6C6F63 
 4091      61746520 
 4091      6D656D6F 
 4092 027e 0000     		.space	2
 4093              	.LC33:
 4094 0280 43616E6E 		.ascii	"Cannot execute the callback with the given data\000"
 4094      6F742065 
 4094      78656375 
 4094      74652074 
 4094      68652063 
 4095              	.LC35:
 4096 02b0 616D7170 		.ascii	"amqp:internal-error\000"
 4096      3A696E74 
 4096      65726E61 
 4096      6C2D6572 
 4096      726F7200 
 4097              	.LC39:
 4098 02c4 42616420 		.ascii	"Bad arguments: hostname=%p, device_id=%p\000"
 4098      61726775 
 4098      6D656E74 
 4098      733A2068 
 4098      6F73746E 
 4099 02ed 000000   		.space	3
 4100              	.LC41:
 4101 02f0 43616E6E 		.ascii	"Cannot allocate memory for AMQP C2D methods handle\000"
 4101      6F742061 
 4101      6C6C6F63 
 4101      61746520 
 4101      6D656D6F 
 4102 0323 00       		.space	1
 4103              	.LC43:
 4104 0324 43616E6E 		.ascii	"Cannot copy device_id\000"
 4104      6F742063 
 4104      6F707920 
 4104      64657669 
 4104      63655F69 
 4105 033a 0000     		.space	2
 4106              	.LC45:
 4107 033c 43616E6E 		.ascii	"Cannot copy hostname\000"
 4107      6F742063 
 4107      6F707920 
 4107      686F7374 
 4107      6E616D65 
 4108 0351 000000   		.space	3
 4109              	.LC47:
 4110 0354 25732F25 		.ascii	"%s/%s\000"
 4110      7300
 4111 035a 0000     		.space	2
ARM GAS  C:\Users\Phuong\AppData\Local\Temp\ccu7x7Ah.s 			page 97


 4112              	.LC51:
 4113 035c 43616E6E 		.ascii	"Cannot create the map for link attach properties\000"
 4113      6F742063 
 4113      72656174 
 4113      65207468 
 4113      65206D61 
 4114 038d 000000   		.space	3
 4115              	.LC53:
 4116 0390 636F6D2E 		.ascii	"com.microsoft:channel-correlation-id\000"
 4116      6D696372 
 4116      6F736F66 
 4116      743A6368 
 4116      616E6E65 
 4117 03b5 000000   		.space	3
 4118              	.LC55:
 4119 03b8 43616E6E 		.ascii	"Cannot create the channel correlation id property k"
 4119      6F742063 
 4119      72656174 
 4119      65207468 
 4119      65206368 
 4120 03eb 65792066 		.ascii	"ey for the link attach properties\000"
 4120      6F722074 
 4120      6865206C 
 4120      696E6B20 
 4120      61747461 
 4121 040d 000000   		.space	3
 4122              	.LC57:
 4123 0410 43616E6E 		.ascii	"Cannot create the channel correlation id string for"
 4123      6F742063 
 4123      72656174 
 4123      65207468 
 4123      65206368 
 4124 0443 20746865 		.ascii	" the link attach properties\000"
 4124      206C696E 
 4124      6B206174 
 4124      74616368 
 4124      2070726F 
 4125 045f 00       		.space	1
 4126              	.LC59:
 4127 0460 43616E6E 		.ascii	"Cannot set the property for channel correlation on "
 4127      6F742073 
 4127      65742074 
 4127      68652070 
 4127      726F7065 
 4128 0493 74686520 		.ascii	"the link attach properties\000"
 4128      6C696E6B 
 4128      20617474 
 4128      61636820 
 4128      70726F70 
 4129 04ae 0000     		.space	2
 4130              	.LC61:
 4131 04b0 636F6D2E 		.ascii	"com.microsoft:api-version\000"
 4131      6D696372 
 4131      6F736F66 
 4131      743A6170 
 4131      692D7665 
 4132 04ca 0000     		.space	2
ARM GAS  C:\Users\Phuong\AppData\Local\Temp\ccu7x7Ah.s 			page 98


 4133              	.LC63:
 4134 04cc 43616E6E 		.ascii	"Cannot create the API version property key for the "
 4134      6F742063 
 4134      72656174 
 4134      65207468 
 4134      65204150 
 4135 04ff 6C696E6B 		.ascii	"link attach properties\000"
 4135      20617474 
 4135      61636820 
 4135      70726F70 
 4135      65727469 
 4136 0516 0000     		.space	2
 4137              	.LC65:
 4138 0518 32303136 		.ascii	"2016-11-14\000"
 4138      2D31312D 
 4138      313400
 4139 0523 00       		.space	1
 4140              	.LC67:
 4141 0524 43616E6E 		.ascii	"Cannot create the API version property value for th"
 4141      6F742063 
 4141      72656174 
 4141      65207468 
 4141      65204150 
 4142 0557 65206C69 		.ascii	"e link attach properties\000"
 4142      6E6B2061 
 4142      74746163 
 4142      68207072 
 4142      6F706572 
 4143              	.LC69:
 4144 0570 43616E6E 		.ascii	"Cannot set the property for API version on the link"
 4144      6F742073 
 4144      65742074 
 4144      68652070 
 4144      726F7065 
 4145 05a3 20617474 		.ascii	" attach properties\000"
 4145      61636820 
 4145      70726F70 
 4145      65727469 
 4145      657300
 4146 05b6 0000     		.space	2
 4147              	.LC71:
 4148 05b8 43616E6E 		.ascii	"Cannot set the link attach properties on the sender"
 4148      6F742073 
 4148      65742074 
 4148      6865206C 
 4148      696E6B20 
 4149 05eb 206C696E 		.ascii	" link\000"
 4149      6B00
 4150 05f1 000000   		.space	3
 4151              	.LC73:
 4152 05f4 43616E6E 		.ascii	"Cannot set the link attach properties on the receiv"
 4152      6F742073 
 4152      65742074 
 4152      6865206C 
 4152      696E6B20 
 4153 0627 6572206C 		.ascii	"er link\000"
 4153      696E6B00 
ARM GAS  C:\Users\Phuong\AppData\Local\Temp\ccu7x7Ah.s 			page 99


 4154 062f 00       		.space	1
 4155              	.LC75:
 4156 0630 616D7170 		.ascii	"amqps://%s/devices/%s/modules/%s/methods/deviceboun"
 4156      733A2F2F 
 4156      25732F64 
 4156      65766963 
 4156      65732F25 
 4157 0663 6400     		.ascii	"d\000"
 4158 0665 000000   		.space	3
 4159              	.LC77:
 4160 0668 616D7170 		.ascii	"amqps://%s/devices/%s/methods/devicebound\000"
 4160      733A2F2F 
 4160      25732F64 
 4160      65766963 
 4160      65732F25 
 4161 0692 0000     		.space	2
 4162              	.LC79:
 4163 0694 6D657468 		.ascii	"methods_requests_link-%s/%s\000"
 4163      6F64735F 
 4163      72657175 
 4163      65737473 
 4163      5F6C696E 
 4164              	.LC81:
 4165 06b0 6D657468 		.ascii	"methods_requests_link-%s\000"
 4165      6F64735F 
 4165      72657175 
 4165      65737473 
 4165      5F6C696E 
 4166 06c9 000000   		.space	3
 4167              	.LC83:
 4168 06cc 6D657468 		.ascii	"methods_responses_link-%s/%s\000"
 4168      6F64735F 
 4168      72657370 
 4168      6F6E7365 
 4168      735F6C69 
 4169 06e9 000000   		.space	3
 4170              	.LC85:
 4171 06ec 6D657468 		.ascii	"methods_responses_link-%s\000"
 4171      6F64735F 
 4171      72657370 
 4171      6F6E7365 
 4171      735F6C69 
 4172 0706 0000     		.space	2
 4173              	.LC89:
 4174 0708 496E7661 		.ascii	"Invalid arguments: iothubtransport_amqp_methods_han"
 4174      6C696420 
 4174      61726775 
 4174      6D656E74 
 4174      733A2069 
 4175 073b 646C653D 		.ascii	"dle=%p, session_handle=%p, on_methods_error=%p, on_"
 4175      25702C20 
 4175      73657373 
 4175      696F6E5F 
 4175      68616E64 
 4176 076e 6D657468 		.ascii	"method_request_received=%p, on_methods_unsubscribed"
 4176      6F645F72 
 4176      65717565 
ARM GAS  C:\Users\Phuong\AppData\Local\Temp\ccu7x7Ah.s 			page 100


 4176      73745F72 
 4176      65636569 
 4177 07a1 3D257000 		.ascii	"=%p\000"
 4178 07a5 000000   		.space	3
 4179              	.LC91:
 4180 07a8 416C7265 		.ascii	"Already subscribed\000"
 4180      61647920 
 4180      73756273 
 4180      63726962 
 4180      656400
 4181 07bb 00       		.space	1
 4182              	.LC93:
 4183 07bc 43616E6E 		.ascii	"Cannot create receiver source\000"
 4183      6F742063 
 4183      72656174 
 4183      65207265 
 4183      63656976 
 4184 07da 0000     		.space	2
 4185              	.LC95:
 4186 07dc 72657175 		.ascii	"requests\000"
 4186      65737473 
 4186      00
 4187 07e5 000000   		.space	3
 4188              	.LC97:
 4189 07e8 43616E6E 		.ascii	"Cannot create receiver target\000"
 4189      6F742063 
 4189      72656174 
 4189      65207265 
 4189      63656976 
 4190 0806 0000     		.space	2
 4191              	.LC99:
 4192 0808 43616E6E 		.ascii	"Cannot create methods requests link name.\000"
 4192      6F742063 
 4192      72656174 
 4192      65206D65 
 4192      74686F64 
 4193 0832 0000     		.space	2
 4194              	.LC101:
 4195 0834 43616E6E 		.ascii	"Cannot create receiver link\000"
 4195      6F742063 
 4195      72656174 
 4195      65207265 
 4195      63656976 
 4196              	.LC103:
 4197 0850 72657370 		.ascii	"responses\000"
 4197      6F6E7365 
 4197      7300
 4198 085a 0000     		.space	2
 4199              	.LC105:
 4200 085c 43616E6E 		.ascii	"Cannot create sender source\000"
 4200      6F742063 
 4200      72656174 
 4200      65207365 
 4200      6E646572 
 4201              	.LC107:
 4202 0878 43616E6E 		.ascii	"Cannot create sender target\000"
 4202      6F742063 
ARM GAS  C:\Users\Phuong\AppData\Local\Temp\ccu7x7Ah.s 			page 101


 4202      72656174 
 4202      65207365 
 4202      6E646572 
 4203              	.LC109:
 4204 0894 43616E6E 		.ascii	"Cannot create methods responses link name.\000"
 4204      6F742063 
 4204      72656174 
 4204      65206D65 
 4204      74686F64 
 4205 08bf 00       		.space	1
 4206              	.LC111:
 4207 08c0 43616E6E 		.ascii	"Cannot create sender link\000"
 4207      6F742063 
 4207      72656174 
 4207      65207365 
 4207      6E646572 
 4208 08da 0000     		.space	2
 4209              	.LC114:
 4210 08dc 43616E6E 		.ascii	"Cannot create message receiver\000"
 4210      6F742063 
 4210      72656174 
 4210      65206D65 
 4210      73736167 
 4211 08fb 00       		.space	1
 4212              	.LC117:
 4213 08fc 43616E6E 		.ascii	"Cannot create message sender\000"
 4213      6F742063 
 4213      72656174 
 4213      65206D65 
 4213      73736167 
 4214 0919 000000   		.space	3
 4215              	.LC119:
 4216 091c 43616E6E 		.ascii	"Cannot open the message sender\000"
 4216      6F74206F 
 4216      70656E20 
 4216      74686520 
 4216      6D657373 
 4217 093b 00       		.space	1
 4218              	.LC122:
 4219 093c 43616E6E 		.ascii	"Cannot open the message receiver\000"
 4219      6F74206F 
 4219      70656E20 
 4219      74686520 
 4219      6D657373 
 4220 095d 000000   		.space	3
 4221              	.LC126:
 4222 0960 4E554C4C 		.ascii	"NULL handle\000"
 4222      2068616E 
 4222      646C6500 
 4223              	.LC128:
 4224 096c 756E7375 		.ascii	"unsubscribe called while not subscribed\000"
 4224      62736372 
 4224      69626520 
 4224      63616C6C 
 4224      65642077 
 4225              	.LC135:
 4226 0994 4E554C4C 		.ascii	"NULL method handle\000"
ARM GAS  C:\Users\Phuong\AppData\Local\Temp\ccu7x7Ah.s 			page 102


 4226      206D6574 
 4226      686F6420 
 4226      68616E64 
 4226      6C6500
 4227 09a7 00       		.space	1
 4228              	.LC137:
 4229 09a8 4E554C4C 		.ascii	"NULL response buffer with > 0 response payload size"
 4229      20726573 
 4229      706F6E73 
 4229      65206275 
 4229      66666572 
 4230 09db 00       		.ascii	"\000"
 4231              	.LC139:
 4232 09dc 43616E6E 		.ascii	"Cannot create message\000"
 4232      6F742063 
 4232      72656174 
 4232      65206D65 
 4232      73736167 
 4233 09f2 0000     		.space	2
 4234              	.LC141:
 4235 09f4 43616E6E 		.ascii	"Cannot create properties\000"
 4235      6F742063 
 4235      72656174 
 4235      65207072 
 4235      6F706572 
 4236 0a0d 000000   		.space	3
 4237              	.LC143:
 4238 0a10 43616E6E 		.ascii	"Cannot create correlation_id value\000"
 4238      6F742063 
 4238      72656174 
 4238      6520636F 
 4238      7272656C 
 4239 0a33 00       		.space	1
 4240              	.LC145:
 4241 0a34 43616E6E 		.ascii	"Cannot set correlation_id on the properties\000"
 4241      6F742073 
 4241      65742063 
 4241      6F727265 
 4241      6C617469 
 4242              	.LC147:
 4243 0a60 43616E6E 		.ascii	"Cannot set properties on the response message\000"
 4243      6F742073 
 4243      65742070 
 4243      726F7065 
 4243      72746965 
 4244 0a8e 0000     		.space	2
 4245              	.LC149:
 4246 0a90 43616E6E 		.ascii	"Cannot create map for application properties\000"
 4246      6F742063 
 4246      72656174 
 4246      65206D61 
 4246      7020666F 
 4247 0abd 000000   		.space	3
 4248              	.LC151:
 4249 0ac0 496F5468 		.ascii	"IoThub-status\000"
 4249      75622D73 
 4249      74617475 
ARM GAS  C:\Users\Phuong\AppData\Local\Temp\ccu7x7Ah.s 			page 103


 4249      7300
 4250 0ace 0000     		.space	2
 4251              	.LC153:
 4252 0ad0 43616E6E 		.ascii	"Cannot create the property key for the status prope"
 4252      6F742063 
 4252      72656174 
 4252      65207468 
 4252      65207072 
 4253 0b03 72747900 		.ascii	"rty\000"
 4254 0b07 00       		.space	1
 4255              	.LC155:
 4256 0b08 43616E6E 		.ascii	"Cannot create the status code property value for th"
 4256      6F742063 
 4256      72656174 
 4256      65207468 
 4256      65207374 
 4257 0b3b 65206170 		.ascii	"e application properties map\000"
 4257      706C6963 
 4257      6174696F 
 4257      6E207072 
 4257      6F706572 
 4258              	.LC157:
 4259 0b58 43616E6E 		.ascii	"Cannot add the status property to the application p"
 4259      6F742061 
 4259      64642074 
 4259      68652073 
 4259      74617475 
 4260 0b8b 726F7065 		.ascii	"roperties\000"
 4260      72746965 
 4260      7300
 4261 0b95 000000   		.space	3
 4262              	.LC159:
 4263 0b98 43616E6E 		.ascii	"Cannot set the application properties on the messag"
 4263      6F742073 
 4263      65742074 
 4263      68652061 
 4263      70706C69 
 4264 0bcb 6500     		.ascii	"e\000"
 4265 0bcd 000000   		.space	3
 4266              	.LC161:
 4267 0bd0 43616E6E 		.ascii	"Cannot set the response payload on the reponse mess"
 4267      6F742073 
 4267      65742074 
 4267      68652072 
 4267      6573706F 
 4268 0c03 61676500 		.ascii	"age\000"
 4269 0c07 00       		.space	1
 4270              	.LC164:
 4271 0c08 43616E6E 		.ascii	"Cannot send response message\000"
 4271      6F742073 
 4271      656E6420 
 4271      72657370 
 4271      6F6E7365 
 4272              		.text
 4273              	.Letext0:
 4274              		.file 2 "c:\\program files (x86)\\cypress\\psoc creator\\4.2\\psoc creator\\import\\gnu\\arm\\5.4.
 4275              		.file 3 ".\\Source\\azure_iot_sdk\\c-utility\\inc/azure_c_shared_utility/xlogging.h"
ARM GAS  C:\Users\Phuong\AppData\Local\Temp\ccu7x7Ah.s 			page 104


 4276              		.file 4 ".\\Source\\azure_iot_sdk\\c-utility\\inc/azure_c_shared_utility/strings_types.h"
 4277              		.file 5 ".\\Source\\azure_iot_sdk\\uamqp\\inc/azure_uamqp_c/amqpvalue.h"
 4278              		.file 6 ".\\Source\\azure_iot_sdk\\uamqp\\inc/azure_uamqp_c/amqp_definitions_fields.h"
 4279              		.file 7 ".\\Source\\azure_iot_sdk\\uamqp\\inc/azure_uamqp_c/session.h"
 4280              		.file 8 ".\\Source\\azure_iot_sdk\\uamqp\\inc/azure_uamqp_c/link.h"
 4281              		.file 9 ".\\Source\\azure_iot_sdk\\uamqp\\inc/azure_uamqp_c/amqp_definitions_properties.h"
 4282              		.file 10 ".\\Source\\azure_iot_sdk\\uamqp\\inc/azure_uamqp_c/message.h"
 4283              		.file 11 ".\\Source\\azure_iot_sdk\\uamqp\\inc/azure_uamqp_c/message_receiver.h"
 4284              		.file 12 ".\\Source\\azure_iot_sdk\\uamqp\\inc/azure_uamqp_c/message_sender.h"
 4285              		.file 13 ".\\Source\\azure_iot_sdk\\iothub_client\\inc/internal/iothubtransportamqp_methods.h"
 4286              		.file 14 "c:\\program files (x86)\\cypress\\psoc creator\\4.2\\psoc creator\\import\\gnu\\arm\\5.4
 4287              		.file 15 ".\\Source\\azure_iot_sdk\\uamqp\\inc/azure_uamqp_c/messaging.h"
 4288              		.file 16 "c:\\program files (x86)\\cypress\\psoc creator\\4.2\\psoc creator\\import\\gnu\\arm\\5.4
 4289              		.file 17 ".\\Source\\azure_iot_sdk\\c-utility\\inc/azure_c_shared_utility/crt_abstractions.h"
 4290              		.file 18 ".\\Source\\azure_iot_sdk\\c-utility\\inc/azure_c_shared_utility/strings.h"
 4291              		.section	.debug_info,"",%progbits
 4292              	.Ldebug_info0:
 4293 0000 3F2F0000 		.4byte	0x2f3f
 4294 0004 0400     		.2byte	0x4
 4295 0006 00000000 		.4byte	.Ldebug_abbrev0
 4296 000a 04       		.byte	0x4
 4297 000b 01       		.uleb128 0x1
 4298 000c CB030000 		.4byte	.LASF203
 4299 0010 0C       		.byte	0xc
 4300 0011 CC0F0000 		.4byte	.LASF204
 4301 0015 9A050000 		.4byte	.LASF205
 4302 0019 B0010000 		.4byte	.Ldebug_ranges0+0x1b0
 4303 001d 00000000 		.4byte	0
 4304 0021 00000000 		.4byte	.Ldebug_line0
 4305 0025 02       		.uleb128 0x2
 4306 0026 28070000 		.4byte	.LASF15
 4307 002a 02       		.byte	0x2
 4308 002b D8       		.byte	0xd8
 4309 002c 30000000 		.4byte	0x30
 4310 0030 03       		.uleb128 0x3
 4311 0031 04       		.byte	0x4
 4312 0032 07       		.byte	0x7
 4313 0033 15010000 		.4byte	.LASF0
 4314 0037 04       		.uleb128 0x4
 4315 0038 04       		.byte	0x4
 4316 0039 05       		.byte	0x5
 4317 003a 696E7400 		.ascii	"int\000"
 4318 003e 03       		.uleb128 0x3
 4319 003f 08       		.byte	0x8
 4320 0040 05       		.byte	0x5
 4321 0041 60090000 		.4byte	.LASF1
 4322 0045 03       		.uleb128 0x3
 4323 0046 08       		.byte	0x8
 4324 0047 04       		.byte	0x4
 4325 0048 B00B0000 		.4byte	.LASF2
 4326 004c 03       		.uleb128 0x3
 4327 004d 01       		.byte	0x1
 4328 004e 06       		.byte	0x6
 4329 004f D1100000 		.4byte	.LASF3
 4330 0053 03       		.uleb128 0x3
 4331 0054 01       		.byte	0x1
 4332 0055 08       		.byte	0x8
ARM GAS  C:\Users\Phuong\AppData\Local\Temp\ccu7x7Ah.s 			page 105


 4333 0056 FF0E0000 		.4byte	.LASF4
 4334 005a 03       		.uleb128 0x3
 4335 005b 02       		.byte	0x2
 4336 005c 05       		.byte	0x5
 4337 005d A20C0000 		.4byte	.LASF5
 4338 0061 03       		.uleb128 0x3
 4339 0062 02       		.byte	0x2
 4340 0063 07       		.byte	0x7
 4341 0064 01110000 		.4byte	.LASF6
 4342 0068 03       		.uleb128 0x3
 4343 0069 04       		.byte	0x4
 4344 006a 05       		.byte	0x5
 4345 006b DC0C0000 		.4byte	.LASF7
 4346 006f 03       		.uleb128 0x3
 4347 0070 04       		.byte	0x4
 4348 0071 07       		.byte	0x7
 4349 0072 260E0000 		.4byte	.LASF8
 4350 0076 03       		.uleb128 0x3
 4351 0077 08       		.byte	0x8
 4352 0078 07       		.byte	0x7
 4353 0079 09050000 		.4byte	.LASF9
 4354 007d 03       		.uleb128 0x3
 4355 007e 04       		.byte	0x4
 4356 007f 07       		.byte	0x7
 4357 0080 1D0E0000 		.4byte	.LASF10
 4358 0084 05       		.uleb128 0x5
 4359 0085 04       		.byte	0x4
 4360 0086 06       		.uleb128 0x6
 4361 0087 04       		.byte	0x4
 4362 0088 8C000000 		.4byte	0x8c
 4363 008c 03       		.uleb128 0x3
 4364 008d 01       		.byte	0x1
 4365 008e 08       		.byte	0x8
 4366 008f DB070000 		.4byte	.LASF11
 4367 0093 06       		.uleb128 0x6
 4368 0094 04       		.byte	0x4
 4369 0095 99000000 		.4byte	0x99
 4370 0099 07       		.uleb128 0x7
 4371 009a 8C000000 		.4byte	0x8c
 4372 009e 06       		.uleb128 0x6
 4373 009f 04       		.byte	0x4
 4374 00a0 A4000000 		.4byte	0xa4
 4375 00a4 08       		.uleb128 0x8
 4376 00a5 09       		.uleb128 0x9
 4377 00a6 970F0000 		.4byte	.LASF36
 4378 00aa 01       		.byte	0x1
 4379 00ab 53000000 		.4byte	0x53
 4380 00af 03       		.byte	0x3
 4381 00b0 22       		.byte	0x22
 4382 00b1 C8000000 		.4byte	0xc8
 4383 00b5 0A       		.uleb128 0xa
 4384 00b6 2D0C0000 		.4byte	.LASF12
 4385 00ba 00       		.byte	0
 4386 00bb 0A       		.uleb128 0xa
 4387 00bc 25080000 		.4byte	.LASF13
 4388 00c0 01       		.byte	0x1
 4389 00c1 0A       		.uleb128 0xa
ARM GAS  C:\Users\Phuong\AppData\Local\Temp\ccu7x7Ah.s 			page 106


 4390 00c2 84100000 		.4byte	.LASF14
 4391 00c6 02       		.byte	0x2
 4392 00c7 00       		.byte	0
 4393 00c8 02       		.uleb128 0x2
 4394 00c9 280A0000 		.4byte	.LASF16
 4395 00cd 03       		.byte	0x3
 4396 00ce 27       		.byte	0x27
 4397 00cf A5000000 		.4byte	0xa5
 4398 00d3 02       		.uleb128 0x2
 4399 00d4 E30D0000 		.4byte	.LASF17
 4400 00d8 03       		.byte	0x3
 4401 00d9 2F       		.byte	0x2f
 4402 00da DE000000 		.4byte	0xde
 4403 00de 06       		.uleb128 0x6
 4404 00df 04       		.byte	0x4
 4405 00e0 E4000000 		.4byte	0xe4
 4406 00e4 0B       		.uleb128 0xb
 4407 00e5 09010000 		.4byte	0x109
 4408 00e9 0C       		.uleb128 0xc
 4409 00ea C8000000 		.4byte	0xc8
 4410 00ee 0C       		.uleb128 0xc
 4411 00ef 93000000 		.4byte	0x93
 4412 00f3 0C       		.uleb128 0xc
 4413 00f4 93000000 		.4byte	0x93
 4414 00f8 0C       		.uleb128 0xc
 4415 00f9 37000000 		.4byte	0x37
 4416 00fd 0C       		.uleb128 0xc
 4417 00fe 30000000 		.4byte	0x30
 4418 0102 0C       		.uleb128 0xc
 4419 0103 93000000 		.4byte	0x93
 4420 0107 0D       		.uleb128 0xd
 4421 0108 00       		.byte	0
 4422 0109 02       		.uleb128 0x2
 4423 010a 6B030000 		.4byte	.LASF18
 4424 010e 04       		.byte	0x4
 4425 010f 07       		.byte	0x7
 4426 0110 14010000 		.4byte	0x114
 4427 0114 06       		.uleb128 0x6
 4428 0115 04       		.byte	0x4
 4429 0116 1A010000 		.4byte	0x11a
 4430 011a 0E       		.uleb128 0xe
 4431 011b 85080000 		.4byte	.LASF20
 4432 011f 02       		.uleb128 0x2
 4433 0120 550C0000 		.4byte	.LASF19
 4434 0124 05       		.byte	0x5
 4435 0125 15       		.byte	0x15
 4436 0126 2A010000 		.4byte	0x12a
 4437 012a 06       		.uleb128 0x6
 4438 012b 04       		.byte	0x4
 4439 012c 30010000 		.4byte	0x130
 4440 0130 0E       		.uleb128 0xe
 4441 0131 5D040000 		.4byte	.LASF21
 4442 0135 02       		.uleb128 0x2
 4443 0136 67070000 		.4byte	.LASF22
 4444 013a 05       		.byte	0x5
 4445 013b 16       		.byte	0x16
 4446 013c 40010000 		.4byte	0x140
ARM GAS  C:\Users\Phuong\AppData\Local\Temp\ccu7x7Ah.s 			page 107


 4447 0140 0F       		.uleb128 0xf
 4448 0141 53000000 		.4byte	0x53
 4449 0145 50010000 		.4byte	0x150
 4450 0149 10       		.uleb128 0x10
 4451 014a 7D000000 		.4byte	0x7d
 4452 014e 0F       		.byte	0xf
 4453 014f 00       		.byte	0
 4454 0150 06       		.uleb128 0x6
 4455 0151 04       		.byte	0x4
 4456 0152 56010000 		.4byte	0x156
 4457 0156 07       		.uleb128 0x7
 4458 0157 53000000 		.4byte	0x53
 4459 015b 06       		.uleb128 0x6
 4460 015c 04       		.byte	0x4
 4461 015d 61010000 		.4byte	0x161
 4462 0161 0B       		.uleb128 0xb
 4463 0162 6C010000 		.4byte	0x16c
 4464 0166 0C       		.uleb128 0xc
 4465 0167 84000000 		.4byte	0x84
 4466 016b 00       		.byte	0
 4467 016c 03       		.uleb128 0x3
 4468 016d 01       		.byte	0x1
 4469 016e 02       		.byte	0x2
 4470 016f 45070000 		.4byte	.LASF23
 4471 0173 02       		.uleb128 0x2
 4472 0174 E0070000 		.4byte	.LASF24
 4473 0178 06       		.byte	0x6
 4474 0179 19       		.byte	0x19
 4475 017a 1F010000 		.4byte	0x11f
 4476 017e 02       		.uleb128 0x2
 4477 017f 84000000 		.4byte	.LASF25
 4478 0183 07       		.byte	0x7
 4479 0184 26       		.byte	0x26
 4480 0185 89010000 		.4byte	0x189
 4481 0189 06       		.uleb128 0x6
 4482 018a 04       		.byte	0x4
 4483 018b 8F010000 		.4byte	0x18f
 4484 018f 0E       		.uleb128 0xe
 4485 0190 78040000 		.4byte	.LASF26
 4486 0194 02       		.uleb128 0x2
 4487 0195 9E0A0000 		.4byte	.LASF27
 4488 0199 08       		.byte	0x8
 4489 019a 17       		.byte	0x17
 4490 019b 9F010000 		.4byte	0x19f
 4491 019f 06       		.uleb128 0x6
 4492 01a0 04       		.byte	0x4
 4493 01a1 A5010000 		.4byte	0x1a5
 4494 01a5 0E       		.uleb128 0xe
 4495 01a6 72100000 		.4byte	.LASF28
 4496 01aa 02       		.uleb128 0x2
 4497 01ab BC0B0000 		.4byte	.LASF29
 4498 01af 09       		.byte	0x9
 4499 01b0 18       		.byte	0x18
 4500 01b1 B5010000 		.4byte	0x1b5
 4501 01b5 06       		.uleb128 0x6
 4502 01b6 04       		.byte	0x4
 4503 01b7 BB010000 		.4byte	0x1bb
ARM GAS  C:\Users\Phuong\AppData\Local\Temp\ccu7x7Ah.s 			page 108


 4504 01bb 0E       		.uleb128 0xe
 4505 01bc 500A0000 		.4byte	.LASF30
 4506 01c0 02       		.uleb128 0x2
 4507 01c1 600C0000 		.4byte	.LASF31
 4508 01c5 0A       		.byte	0xa
 4509 01c6 24       		.byte	0x24
 4510 01c7 CB010000 		.4byte	0x1cb
 4511 01cb 06       		.uleb128 0x6
 4512 01cc 04       		.byte	0x4
 4513 01cd D1010000 		.4byte	0x1d1
 4514 01d1 0E       		.uleb128 0xe
 4515 01d2 520D0000 		.4byte	.LASF32
 4516 01d6 11       		.uleb128 0x11
 4517 01d7 C1100000 		.4byte	.LASF62
 4518 01db 08       		.byte	0x8
 4519 01dc 0A       		.byte	0xa
 4520 01dd 25       		.byte	0x25
 4521 01de FB010000 		.4byte	0x1fb
 4522 01e2 12       		.uleb128 0x12
 4523 01e3 61070000 		.4byte	.LASF33
 4524 01e7 0A       		.byte	0xa
 4525 01e8 27       		.byte	0x27
 4526 01e9 50010000 		.4byte	0x150
 4527 01ed 00       		.byte	0
 4528 01ee 12       		.uleb128 0x12
 4529 01ef 130D0000 		.4byte	.LASF34
 4530 01f3 0A       		.byte	0xa
 4531 01f4 28       		.byte	0x28
 4532 01f5 25000000 		.4byte	0x25
 4533 01f9 04       		.byte	0x4
 4534 01fa 00       		.byte	0
 4535 01fb 02       		.uleb128 0x2
 4536 01fc A80F0000 		.4byte	.LASF35
 4537 0200 0A       		.byte	0xa
 4538 0201 29       		.byte	0x29
 4539 0202 D6010000 		.4byte	0x1d6
 4540 0206 09       		.uleb128 0x9
 4541 0207 DE010000 		.4byte	.LASF37
 4542 020b 01       		.byte	0x1
 4543 020c 53000000 		.4byte	0x53
 4544 0210 0B       		.byte	0xb
 4545 0211 1A       		.byte	0x1a
 4546 0212 35020000 		.4byte	0x235
 4547 0216 0A       		.uleb128 0xa
 4548 0217 44000000 		.4byte	.LASF38
 4549 021b 00       		.byte	0
 4550 021c 0A       		.uleb128 0xa
 4551 021d 66080000 		.4byte	.LASF39
 4552 0221 01       		.byte	0x1
 4553 0222 0A       		.uleb128 0xa
 4554 0223 380E0000 		.4byte	.LASF40
 4555 0227 02       		.byte	0x2
 4556 0228 0A       		.uleb128 0xa
 4557 0229 F7020000 		.4byte	.LASF41
 4558 022d 03       		.byte	0x3
 4559 022e 0A       		.uleb128 0xa
 4560 022f 350D0000 		.4byte	.LASF42
ARM GAS  C:\Users\Phuong\AppData\Local\Temp\ccu7x7Ah.s 			page 109


 4561 0233 04       		.byte	0x4
 4562 0234 00       		.byte	0
 4563 0235 02       		.uleb128 0x2
 4564 0236 870A0000 		.4byte	.LASF43
 4565 023a 0B       		.byte	0xb
 4566 023b 1A       		.byte	0x1a
 4567 023c 06020000 		.4byte	0x206
 4568 0240 02       		.uleb128 0x2
 4569 0241 150C0000 		.4byte	.LASF44
 4570 0245 0B       		.byte	0xb
 4571 0246 1C       		.byte	0x1c
 4572 0247 4B020000 		.4byte	0x24b
 4573 024b 06       		.uleb128 0x6
 4574 024c 04       		.byte	0x4
 4575 024d 51020000 		.4byte	0x251
 4576 0251 0E       		.uleb128 0xe
 4577 0252 5F060000 		.4byte	.LASF45
 4578 0256 09       		.uleb128 0x9
 4579 0257 3C110000 		.4byte	.LASF46
 4580 025b 01       		.byte	0x1
 4581 025c 53000000 		.4byte	0x53
 4582 0260 0C       		.byte	0xc
 4583 0261 1A       		.byte	0x1a
 4584 0262 7F020000 		.4byte	0x27f
 4585 0266 0A       		.uleb128 0xa
 4586 0267 B3030000 		.4byte	.LASF47
 4587 026b 00       		.byte	0
 4588 026c 0A       		.uleb128 0xa
 4589 026d 350F0000 		.4byte	.LASF48
 4590 0271 01       		.byte	0x1
 4591 0272 0A       		.uleb128 0xa
 4592 0273 D3080000 		.4byte	.LASF49
 4593 0277 02       		.byte	0x2
 4594 0278 0A       		.uleb128 0xa
 4595 0279 11070000 		.4byte	.LASF50
 4596 027d 03       		.byte	0x3
 4597 027e 00       		.byte	0
 4598 027f 02       		.uleb128 0x2
 4599 0280 B90A0000 		.4byte	.LASF51
 4600 0284 0C       		.byte	0xc
 4601 0285 1A       		.byte	0x1a
 4602 0286 56020000 		.4byte	0x256
 4603 028a 09       		.uleb128 0x9
 4604 028b C10E0000 		.4byte	.LASF52
 4605 028f 01       		.byte	0x1
 4606 0290 53000000 		.4byte	0x53
 4607 0294 0C       		.byte	0xc
 4608 0295 23       		.byte	0x23
 4609 0296 B9020000 		.4byte	0x2b9
 4610 029a 0A       		.uleb128 0xa
 4611 029b 8B0D0000 		.4byte	.LASF53
 4612 029f 00       		.byte	0
 4613 02a0 0A       		.uleb128 0xa
 4614 02a1 9E020000 		.4byte	.LASF54
 4615 02a5 01       		.byte	0x1
 4616 02a6 0A       		.uleb128 0xa
 4617 02a7 EC090000 		.4byte	.LASF55
ARM GAS  C:\Users\Phuong\AppData\Local\Temp\ccu7x7Ah.s 			page 110


 4618 02ab 02       		.byte	0x2
 4619 02ac 0A       		.uleb128 0xa
 4620 02ad 36030000 		.4byte	.LASF56
 4621 02b1 03       		.byte	0x3
 4622 02b2 0A       		.uleb128 0xa
 4623 02b3 05090000 		.4byte	.LASF57
 4624 02b7 04       		.byte	0x4
 4625 02b8 00       		.byte	0
 4626 02b9 02       		.uleb128 0x2
 4627 02ba 3F020000 		.4byte	.LASF58
 4628 02be 0C       		.byte	0xc
 4629 02bf 23       		.byte	0x23
 4630 02c0 8A020000 		.4byte	0x28a
 4631 02c4 02       		.uleb128 0x2
 4632 02c5 E50C0000 		.4byte	.LASF59
 4633 02c9 0C       		.byte	0xc
 4634 02ca 25       		.byte	0x25
 4635 02cb CF020000 		.4byte	0x2cf
 4636 02cf 06       		.uleb128 0x6
 4637 02d0 04       		.byte	0x4
 4638 02d1 D5020000 		.4byte	0x2d5
 4639 02d5 0E       		.uleb128 0xe
 4640 02d6 F9010000 		.4byte	.LASF60
 4641 02da 02       		.uleb128 0x2
 4642 02db F20B0000 		.4byte	.LASF61
 4643 02df 0D       		.byte	0xd
 4644 02e0 14       		.byte	0x14
 4645 02e1 E5020000 		.4byte	0x2e5
 4646 02e5 06       		.uleb128 0x6
 4647 02e6 04       		.byte	0x4
 4648 02e7 EB020000 		.4byte	0x2eb
 4649 02eb 11       		.uleb128 0x11
 4650 02ec 16030000 		.4byte	.LASF63
 4651 02f0 14       		.byte	0x14
 4652 02f1 01       		.byte	0x1
 4653 02f2 36       		.byte	0x36
 4654 02f3 10030000 		.4byte	0x310
 4655 02f7 12       		.uleb128 0x12
 4656 02f8 7D060000 		.4byte	.LASF64
 4657 02fc 01       		.byte	0x1
 4658 02fd 38       		.byte	0x38
 4659 02fe 10030000 		.4byte	0x310
 4660 0302 00       		.byte	0
 4661 0303 12       		.uleb128 0x12
 4662 0304 57080000 		.4byte	.LASF65
 4663 0308 01       		.byte	0x1
 4664 0309 39       		.byte	0x39
 4665 030a 35010000 		.4byte	0x135
 4666 030e 04       		.byte	0x4
 4667 030f 00       		.byte	0
 4668 0310 02       		.uleb128 0x2
 4669 0311 93000000 		.4byte	.LASF66
 4670 0315 0D       		.byte	0xd
 4671 0316 15       		.byte	0x15
 4672 0317 1B030000 		.4byte	0x31b
 4673 031b 06       		.uleb128 0x6
 4674 031c 04       		.byte	0x4
ARM GAS  C:\Users\Phuong\AppData\Local\Temp\ccu7x7Ah.s 			page 111


 4675 031d 21030000 		.4byte	0x321
 4676 0321 11       		.uleb128 0x11
 4677 0322 6B0E0000 		.4byte	.LASF67
 4678 0326 44       		.byte	0x44
 4679 0327 01       		.byte	0x1
 4680 0328 19       		.byte	0x19
 4681 0329 06040000 		.4byte	0x406
 4682 032d 12       		.uleb128 0x12
 4683 032e D5020000 		.4byte	.LASF68
 4684 0332 01       		.byte	0x1
 4685 0333 1B       		.byte	0x1b
 4686 0334 86000000 		.4byte	0x86
 4687 0338 00       		.byte	0
 4688 0339 12       		.uleb128 0x12
 4689 033a D0000000 		.4byte	.LASF69
 4690 033e 01       		.byte	0x1
 4691 033f 1C       		.byte	0x1c
 4692 0340 86000000 		.4byte	0x86
 4693 0344 04       		.byte	0x4
 4694 0345 12       		.uleb128 0x12
 4695 0346 20090000 		.4byte	.LASF70
 4696 034a 01       		.byte	0x1
 4697 034b 1D       		.byte	0x1d
 4698 034c 86000000 		.4byte	0x86
 4699 0350 08       		.byte	0x8
 4700 0351 12       		.uleb128 0x12
 4701 0352 CD070000 		.4byte	.LASF71
 4702 0356 01       		.byte	0x1
 4703 0357 1E       		.byte	0x1e
 4704 0358 94010000 		.4byte	0x194
 4705 035c 0C       		.byte	0xc
 4706 035d 12       		.uleb128 0x12
 4707 035e 22000000 		.4byte	.LASF72
 4708 0362 01       		.byte	0x1
 4709 0363 1F       		.byte	0x1f
 4710 0364 94010000 		.4byte	0x194
 4711 0368 10       		.byte	0x10
 4712 0369 12       		.uleb128 0x12
 4713 036a B00E0000 		.4byte	.LASF73
 4714 036e 01       		.byte	0x1
 4715 036f 20       		.byte	0x20
 4716 0370 40020000 		.4byte	0x240
 4717 0374 14       		.byte	0x14
 4718 0375 12       		.uleb128 0x12
 4719 0376 9D030000 		.4byte	.LASF74
 4720 037a 01       		.byte	0x1
 4721 037b 21       		.byte	0x21
 4722 037c C4020000 		.4byte	0x2c4
 4723 0380 18       		.byte	0x18
 4724 0381 12       		.uleb128 0x12
 4725 0382 350A0000 		.4byte	.LASF75
 4726 0386 01       		.byte	0x1
 4727 0387 22       		.byte	0x22
 4728 0388 11040000 		.4byte	0x411
 4729 038c 1C       		.byte	0x1c
 4730 038d 12       		.uleb128 0x12
 4731 038e B0080000 		.4byte	.LASF76
ARM GAS  C:\Users\Phuong\AppData\Local\Temp\ccu7x7Ah.s 			page 112


 4732 0392 01       		.byte	0x1
 4733 0393 23       		.byte	0x23
 4734 0394 84000000 		.4byte	0x84
 4735 0398 20       		.byte	0x20
 4736 0399 12       		.uleb128 0x12
 4737 039a CD010000 		.4byte	.LASF77
 4738 039e 01       		.byte	0x1
 4739 039f 24       		.byte	0x24
 4740 03a0 06040000 		.4byte	0x406
 4741 03a4 24       		.byte	0x24
 4742 03a5 12       		.uleb128 0x12
 4743 03a6 6F0C0000 		.4byte	.LASF78
 4744 03aa 01       		.byte	0x1
 4745 03ab 25       		.byte	0x25
 4746 03ac 84000000 		.4byte	0x84
 4747 03b0 28       		.byte	0x28
 4748 03b1 12       		.uleb128 0x12
 4749 03b2 B3110000 		.4byte	.LASF79
 4750 03b6 01       		.byte	0x1
 4751 03b7 26       		.byte	0x26
 4752 03b8 45040000 		.4byte	0x445
 4753 03bc 2C       		.byte	0x2c
 4754 03bd 12       		.uleb128 0x12
 4755 03be DA000000 		.4byte	.LASF80
 4756 03c2 01       		.byte	0x1
 4757 03c3 27       		.byte	0x27
 4758 03c4 84000000 		.4byte	0x84
 4759 03c8 30       		.byte	0x30
 4760 03c9 12       		.uleb128 0x12
 4761 03ca E7070000 		.4byte	.LASF81
 4762 03ce 01       		.byte	0x1
 4763 03cf 28       		.byte	0x28
 4764 03d0 6D040000 		.4byte	0x46d
 4765 03d4 34       		.byte	0x34
 4766 03d5 12       		.uleb128 0x12
 4767 03d6 29100000 		.4byte	.LASF82
 4768 03da 01       		.byte	0x1
 4769 03db 29       		.byte	0x29
 4770 03dc 78040000 		.4byte	0x478
 4771 03e0 38       		.byte	0x38
 4772 03e1 12       		.uleb128 0x12
 4773 03e2 7E050000 		.4byte	.LASF83
 4774 03e6 01       		.byte	0x1
 4775 03e7 2A       		.byte	0x2a
 4776 03e8 25000000 		.4byte	0x25
 4777 03ec 3C       		.byte	0x3c
 4778 03ed 12       		.uleb128 0x12
 4779 03ee B2010000 		.4byte	.LASF84
 4780 03f2 01       		.byte	0x1
 4781 03f3 2B       		.byte	0x2b
 4782 03f4 6C010000 		.4byte	0x16c
 4783 03f8 40       		.byte	0x40
 4784 03f9 12       		.uleb128 0x12
 4785 03fa B9060000 		.4byte	.LASF85
 4786 03fe 01       		.byte	0x1
 4787 03ff 2C       		.byte	0x2c
 4788 0400 6C010000 		.4byte	0x16c
ARM GAS  C:\Users\Phuong\AppData\Local\Temp\ccu7x7Ah.s 			page 113


 4789 0404 41       		.byte	0x41
 4790 0405 00       		.byte	0
 4791 0406 02       		.uleb128 0x2
 4792 0407 90080000 		.4byte	.LASF86
 4793 040b 0D       		.byte	0xd
 4794 040c 16       		.byte	0x16
 4795 040d 5B010000 		.4byte	0x15b
 4796 0411 02       		.uleb128 0x2
 4797 0412 B2070000 		.4byte	.LASF87
 4798 0416 0D       		.byte	0xd
 4799 0417 17       		.byte	0x17
 4800 0418 1C040000 		.4byte	0x41c
 4801 041c 06       		.uleb128 0x6
 4802 041d 04       		.byte	0x4
 4803 041e 22040000 		.4byte	0x422
 4804 0422 13       		.uleb128 0x13
 4805 0423 37000000 		.4byte	0x37
 4806 0427 45040000 		.4byte	0x445
 4807 042b 0C       		.uleb128 0xc
 4808 042c 84000000 		.4byte	0x84
 4809 0430 0C       		.uleb128 0xc
 4810 0431 93000000 		.4byte	0x93
 4811 0435 0C       		.uleb128 0xc
 4812 0436 50010000 		.4byte	0x150
 4813 043a 0C       		.uleb128 0xc
 4814 043b 25000000 		.4byte	0x25
 4815 043f 0C       		.uleb128 0xc
 4816 0440 DA020000 		.4byte	0x2da
 4817 0444 00       		.byte	0
 4818 0445 02       		.uleb128 0x2
 4819 0446 FB0C0000 		.4byte	.LASF88
 4820 044a 0D       		.byte	0xd
 4821 044b 18       		.byte	0x18
 4822 044c 5B010000 		.4byte	0x15b
 4823 0450 09       		.uleb128 0x9
 4824 0451 88110000 		.4byte	.LASF89
 4825 0455 01       		.byte	0x1
 4826 0456 53000000 		.4byte	0x53
 4827 045a 01       		.byte	0x1
 4828 045b 13       		.byte	0x13
 4829 045c 6D040000 		.4byte	0x46d
 4830 0460 0A       		.uleb128 0xa
 4831 0461 54010000 		.4byte	.LASF90
 4832 0465 00       		.byte	0
 4833 0466 0A       		.uleb128 0xa
 4834 0467 480F0000 		.4byte	.LASF91
 4835 046b 01       		.byte	0x1
 4836 046c 00       		.byte	0
 4837 046d 02       		.uleb128 0x2
 4838 046e 65110000 		.4byte	.LASF92
 4839 0472 01       		.byte	0x1
 4840 0473 17       		.byte	0x17
 4841 0474 50040000 		.4byte	0x450
 4842 0478 06       		.uleb128 0x6
 4843 0479 04       		.byte	0x4
 4844 047a DA020000 		.4byte	0x2da
 4845 047e 02       		.uleb128 0x2
ARM GAS  C:\Users\Phuong\AppData\Local\Temp\ccu7x7Ah.s 			page 114


 4846 047f E8080000 		.4byte	.LASF93
 4847 0483 01       		.byte	0x1
 4848 0484 2D       		.byte	0x2d
 4849 0485 21030000 		.4byte	0x321
 4850 0489 09       		.uleb128 0x9
 4851 048a 8D040000 		.4byte	.LASF94
 4852 048e 01       		.byte	0x1
 4853 048f 53000000 		.4byte	0x53
 4854 0493 01       		.byte	0x1
 4855 0494 2F       		.byte	0x2f
 4856 0495 AC040000 		.4byte	0x4ac
 4857 0499 0A       		.uleb128 0xa
 4858 049a 7E0B0000 		.4byte	.LASF95
 4859 049e 00       		.byte	0
 4860 049f 0A       		.uleb128 0xa
 4861 04a0 AC0C0000 		.4byte	.LASF96
 4862 04a4 01       		.byte	0x1
 4863 04a5 0A       		.uleb128 0xa
 4864 04a6 BA0D0000 		.4byte	.LASF97
 4865 04aa 02       		.byte	0x2
 4866 04ab 00       		.byte	0
 4867 04ac 02       		.uleb128 0x2
 4868 04ad 8C090000 		.4byte	.LASF98
 4869 04b1 01       		.byte	0x1
 4870 04b2 34       		.byte	0x34
 4871 04b3 89040000 		.4byte	0x489
 4872 04b7 02       		.uleb128 0x2
 4873 04b8 54020000 		.4byte	.LASF99
 4874 04bc 01       		.byte	0x1
 4875 04bd 3A       		.byte	0x3a
 4876 04be EB020000 		.4byte	0x2eb
 4877 04c2 14       		.uleb128 0x14
 4878 04c3 D2060000 		.4byte	.LASF100
 4879 04c7 01       		.byte	0x1
 4880 04c8 C5       		.byte	0xc5
 4881 04c9 00000000 		.4byte	.LFB4
 4882 04cd 24000000 		.4byte	.LFE4-.LFB4
 4883 04d1 01       		.uleb128 0x1
 4884 04d2 9C       		.byte	0x9c
 4885 04d3 E7040000 		.4byte	0x4e7
 4886 04d7 15       		.uleb128 0x15
 4887 04d8 73010000 		.4byte	.LASF102
 4888 04dc 01       		.byte	0x1
 4889 04dd C5       		.byte	0xc5
 4890 04de 10030000 		.4byte	0x310
 4891 04e2 00000000 		.4byte	.LLST0
 4892 04e6 00       		.byte	0
 4893 04e7 14       		.uleb128 0x14
 4894 04e8 C7040000 		.4byte	.LASF101
 4895 04ec 01       		.byte	0x1
 4896 04ed CF       		.byte	0xcf
 4897 04ee 00000000 		.4byte	.LFB5
 4898 04f2 26000000 		.4byte	.LFE5-.LFB5
 4899 04f6 01       		.uleb128 0x1
 4900 04f7 9C       		.byte	0x9c
 4901 04f8 42050000 		.4byte	0x542
 4902 04fc 15       		.uleb128 0x15
ARM GAS  C:\Users\Phuong\AppData\Local\Temp\ccu7x7Ah.s 			page 115


 4903 04fd D5090000 		.4byte	.LASF103
 4904 0501 01       		.byte	0x1
 4905 0502 CF       		.byte	0xcf
 4906 0503 9E000000 		.4byte	0x9e
 4907 0507 21000000 		.4byte	.LLST1
 4908 050b 15       		.uleb128 0x15
 4909 050c 15020000 		.4byte	.LASF104
 4910 0510 01       		.byte	0x1
 4911 0511 CF       		.byte	0xcf
 4912 0512 35020000 		.4byte	0x235
 4913 0516 5B000000 		.4byte	.LLST2
 4914 051a 15       		.uleb128 0x15
 4915 051b 190A0000 		.4byte	.LASF105
 4916 051f 01       		.byte	0x1
 4917 0520 CF       		.byte	0xcf
 4918 0521 35020000 		.4byte	0x235
 4919 0525 95000000 		.4byte	.LLST3
 4920 0529 16       		.uleb128 0x16
 4921 052a 73010000 		.4byte	.LASF102
 4922 052e 01       		.byte	0x1
 4923 052f D3       		.byte	0xd3
 4924 0530 10030000 		.4byte	0x310
 4925 0534 CF000000 		.4byte	.LLST4
 4926 0538 17       		.uleb128 0x17
 4927 0539 24000000 		.4byte	.LVL9
 4928 053d C2040000 		.4byte	0x4c2
 4929 0541 00       		.byte	0
 4930 0542 14       		.uleb128 0x14
 4931 0543 3F060000 		.4byte	.LASF106
 4932 0547 01       		.byte	0x1
 4933 0548 E5       		.byte	0xe5
 4934 0549 00000000 		.4byte	.LFB6
 4935 054d 26000000 		.4byte	.LFE6-.LFB6
 4936 0551 01       		.uleb128 0x1
 4937 0552 9C       		.byte	0x9c
 4938 0553 9D050000 		.4byte	0x59d
 4939 0557 15       		.uleb128 0x15
 4940 0558 D5090000 		.4byte	.LASF103
 4941 055c 01       		.byte	0x1
 4942 055d E5       		.byte	0xe5
 4943 055e 84000000 		.4byte	0x84
 4944 0562 09010000 		.4byte	.LLST5
 4945 0566 15       		.uleb128 0x15
 4946 0567 15020000 		.4byte	.LASF104
 4947 056b 01       		.byte	0x1
 4948 056c E5       		.byte	0xe5
 4949 056d B9020000 		.4byte	0x2b9
 4950 0571 43010000 		.4byte	.LLST6
 4951 0575 15       		.uleb128 0x15
 4952 0576 190A0000 		.4byte	.LASF105
 4953 057a 01       		.byte	0x1
 4954 057b E5       		.byte	0xe5
 4955 057c B9020000 		.4byte	0x2b9
 4956 0580 7D010000 		.4byte	.LLST7
 4957 0584 16       		.uleb128 0x16
 4958 0585 73010000 		.4byte	.LASF102
 4959 0589 01       		.byte	0x1
ARM GAS  C:\Users\Phuong\AppData\Local\Temp\ccu7x7Ah.s 			page 116


 4960 058a E7       		.byte	0xe7
 4961 058b 10030000 		.4byte	0x310
 4962 058f B7010000 		.4byte	.LLST8
 4963 0593 17       		.uleb128 0x17
 4964 0594 24000000 		.4byte	.LVL16
 4965 0598 C2040000 		.4byte	0x4c2
 4966 059c 00       		.byte	0
 4967 059d 14       		.uleb128 0x14
 4968 059e B7000000 		.4byte	.LASF107
 4969 05a2 01       		.byte	0x1
 4970 05a3 FB       		.byte	0xfb
 4971 05a4 00000000 		.4byte	.LFB7
 4972 05a8 0E000000 		.4byte	.LFE7-.LFB7
 4973 05ac 01       		.uleb128 0x1
 4974 05ad 9C       		.byte	0x9c
 4975 05ae FA050000 		.4byte	0x5fa
 4976 05b2 15       		.uleb128 0x15
 4977 05b3 D5090000 		.4byte	.LASF103
 4978 05b7 01       		.byte	0x1
 4979 05b8 FB       		.byte	0xfb
 4980 05b9 84000000 		.4byte	0x84
 4981 05bd F1010000 		.4byte	.LLST9
 4982 05c1 15       		.uleb128 0x15
 4983 05c2 19080000 		.4byte	.LASF108
 4984 05c6 01       		.byte	0x1
 4985 05c7 FB       		.byte	0xfb
 4986 05c8 7F020000 		.4byte	0x27f
 4987 05cc 12020000 		.4byte	.LLST10
 4988 05d0 15       		.uleb128 0x15
 4989 05d1 DD090000 		.4byte	.LASF109
 4990 05d5 01       		.byte	0x1
 4991 05d6 FB       		.byte	0xfb
 4992 05d7 1F010000 		.4byte	0x11f
 4993 05db 33020000 		.4byte	.LLST11
 4994 05df 18       		.uleb128 0x18
 4995 05e0 06000000 		.4byte	.LBB2
 4996 05e4 06000000 		.4byte	.LBE2-.LBB2
 4997 05e8 19       		.uleb128 0x19
 4998 05e9 73010000 		.4byte	.LASF102
 4999 05ed 01       		.byte	0x1
 5000 05ee 0101     		.2byte	0x101
 5001 05f0 10030000 		.4byte	0x310
 5002 05f4 54020000 		.4byte	.LLST12
 5003 05f8 00       		.byte	0
 5004 05f9 00       		.byte	0
 5005 05fa 1A       		.uleb128 0x1a
 5006 05fb 87010000 		.4byte	.LASF127
 5007 05ff 01       		.byte	0x1
 5008 0600 0701     		.2byte	0x107
 5009 0602 1F010000 		.4byte	0x11f
 5010 0606 00000000 		.4byte	.LFB8
 5011 060a C2030000 		.4byte	.LFE8-.LFB8
 5012 060e 01       		.uleb128 0x1
 5013 060f 9C       		.byte	0x9c
 5014 0610 880F0000 		.4byte	0xf88
 5015 0614 1B       		.uleb128 0x1b
 5016 0615 D5090000 		.4byte	.LASF103
ARM GAS  C:\Users\Phuong\AppData\Local\Temp\ccu7x7Ah.s 			page 117


 5017 0619 01       		.byte	0x1
 5018 061a 0701     		.2byte	0x107
 5019 061c 9E000000 		.4byte	0x9e
 5020 0620 75020000 		.4byte	.LLST13
 5021 0624 1B       		.uleb128 0x1b
 5022 0625 95030000 		.4byte	.LASF110
 5023 0629 01       		.byte	0x1
 5024 062a 0701     		.2byte	0x107
 5025 062c C0010000 		.4byte	0x1c0
 5026 0630 B7020000 		.4byte	.LLST14
 5027 0634 1C       		.uleb128 0x1c
 5028 0635 14110000 		.4byte	.LASF111
 5029 0639 01       		.byte	0x1
 5030 063a 0901     		.2byte	0x109
 5031 063c AA010000 		.4byte	0x1aa
 5032 0640 02       		.uleb128 0x2
 5033 0641 91       		.byte	0x91
 5034 0642 64       		.sleb128 -28
 5035 0643 19       		.uleb128 0x19
 5036 0644 AC030000 		.4byte	.LASF112
 5037 0648 01       		.byte	0x1
 5038 0649 0B01     		.2byte	0x10b
 5039 064b 1F010000 		.4byte	0x11f
 5040 064f B6030000 		.4byte	.LLST15
 5041 0653 19       		.uleb128 0x19
 5042 0654 73010000 		.4byte	.LASF102
 5043 0658 01       		.byte	0x1
 5044 0659 0C01     		.2byte	0x10c
 5045 065b 10030000 		.4byte	0x310
 5046 065f FC040000 		.4byte	.LLST16
 5047 0663 19       		.uleb128 0x19
 5048 0664 D30D0000 		.4byte	.LASF113
 5049 0668 01       		.byte	0x1
 5050 0669 0D01     		.2byte	0x10d
 5051 066b AC040000 		.4byte	0x4ac
 5052 066f 3E050000 		.4byte	.LLST17
 5053 0673 1D       		.uleb128 0x1d
 5054 0674 1F110000 		.4byte	.LASF124
 5055 0678 980F0000 		.4byte	0xf98
 5056 067c 05       		.uleb128 0x5
 5057 067d 03       		.byte	0x3
 5058 067e 00000000 		.4byte	__func__.7790
 5059 0682 1E       		.uleb128 0x1e
 5060 0683 0E000000 		.4byte	.LBB3
 5061 0687 1E000000 		.4byte	.LBE3-.LBB3
 5062 068b DE060000 		.4byte	0x6de
 5063 068f 1F       		.uleb128 0x1f
 5064 0690 6C00     		.ascii	"l\000"
 5065 0692 01       		.byte	0x1
 5066 0693 1201     		.2byte	0x112
 5067 0695 D3000000 		.4byte	0xd3
 5068 0699 EB050000 		.4byte	.LLST18
 5069 069d 17       		.uleb128 0x17
 5070 069e 12000000 		.4byte	.LVL23
 5071 06a2 292D0000 		.4byte	0x2d29
 5072 06a6 20       		.uleb128 0x20
 5073 06a7 2C000000 		.4byte	.LVL26
ARM GAS  C:\Users\Phuong\AppData\Local\Temp\ccu7x7Ah.s 			page 118


 5074 06ab 02       		.uleb128 0x2
 5075 06ac 74       		.byte	0x74
 5076 06ad 00       		.sleb128 0
 5077 06ae 21       		.uleb128 0x21
 5078 06af 01       		.uleb128 0x1
 5079 06b0 50       		.byte	0x50
 5080 06b1 01       		.uleb128 0x1
 5081 06b2 30       		.byte	0x30
 5082 06b3 21       		.uleb128 0x21
 5083 06b4 01       		.uleb128 0x1
 5084 06b5 51       		.byte	0x51
 5085 06b6 05       		.uleb128 0x5
 5086 06b7 03       		.byte	0x3
 5087 06b8 00000000 		.4byte	.LC1
 5088 06bc 21       		.uleb128 0x21
 5089 06bd 01       		.uleb128 0x1
 5090 06be 52       		.byte	0x52
 5091 06bf 05       		.uleb128 0x5
 5092 06c0 03       		.byte	0x3
 5093 06c1 00000000 		.4byte	.LANCHOR0
 5094 06c5 21       		.uleb128 0x21
 5095 06c6 01       		.uleb128 0x1
 5096 06c7 53       		.byte	0x53
 5097 06c8 03       		.uleb128 0x3
 5098 06c9 0A       		.byte	0xa
 5099 06ca 1201     		.2byte	0x112
 5100 06cc 21       		.uleb128 0x21
 5101 06cd 02       		.uleb128 0x2
 5102 06ce 7D       		.byte	0x7d
 5103 06cf 00       		.sleb128 0
 5104 06d0 01       		.uleb128 0x1
 5105 06d1 31       		.byte	0x31
 5106 06d2 21       		.uleb128 0x21
 5107 06d3 02       		.uleb128 0x2
 5108 06d4 7D       		.byte	0x7d
 5109 06d5 04       		.sleb128 4
 5110 06d6 05       		.uleb128 0x5
 5111 06d7 03       		.byte	0x3
 5112 06d8 48000000 		.4byte	.LC3
 5113 06dc 00       		.byte	0
 5114 06dd 00       		.byte	0
 5115 06de 1E       		.uleb128 0x1e
 5116 06df 3E000000 		.4byte	.LBB4
 5117 06e3 1C000000 		.4byte	.LBE4-.LBB4
 5118 06e7 3A070000 		.4byte	0x73a
 5119 06eb 1F       		.uleb128 0x1f
 5120 06ec 6C00     		.ascii	"l\000"
 5121 06ee 01       		.byte	0x1
 5122 06ef 1C01     		.2byte	0x11c
 5123 06f1 D3000000 		.4byte	0xd3
 5124 06f5 14060000 		.4byte	.LLST19
 5125 06f9 17       		.uleb128 0x17
 5126 06fa 42000000 		.4byte	.LVL32
 5127 06fe 292D0000 		.4byte	0x2d29
 5128 0702 20       		.uleb128 0x20
 5129 0703 5A000000 		.4byte	.LVL35
 5130 0707 02       		.uleb128 0x2
ARM GAS  C:\Users\Phuong\AppData\Local\Temp\ccu7x7Ah.s 			page 119


 5131 0708 74       		.byte	0x74
 5132 0709 00       		.sleb128 0
 5133 070a 21       		.uleb128 0x21
 5134 070b 01       		.uleb128 0x1
 5135 070c 50       		.byte	0x50
 5136 070d 01       		.uleb128 0x1
 5137 070e 30       		.byte	0x30
 5138 070f 21       		.uleb128 0x21
 5139 0710 01       		.uleb128 0x1
 5140 0711 51       		.byte	0x51
 5141 0712 05       		.uleb128 0x5
 5142 0713 03       		.byte	0x3
 5143 0714 00000000 		.4byte	.LC1
 5144 0718 21       		.uleb128 0x21
 5145 0719 01       		.uleb128 0x1
 5146 071a 52       		.byte	0x52
 5147 071b 05       		.uleb128 0x5
 5148 071c 03       		.byte	0x3
 5149 071d 00000000 		.4byte	.LANCHOR0
 5150 0721 21       		.uleb128 0x21
 5151 0722 01       		.uleb128 0x1
 5152 0723 53       		.byte	0x53
 5153 0724 03       		.uleb128 0x3
 5154 0725 0A       		.byte	0xa
 5155 0726 1C01     		.2byte	0x11c
 5156 0728 21       		.uleb128 0x21
 5157 0729 02       		.uleb128 0x2
 5158 072a 7D       		.byte	0x7d
 5159 072b 00       		.sleb128 0
 5160 072c 01       		.uleb128 0x1
 5161 072d 31       		.byte	0x31
 5162 072e 21       		.uleb128 0x21
 5163 072f 02       		.uleb128 0x2
 5164 0730 7D       		.byte	0x7d
 5165 0731 04       		.sleb128 4
 5166 0732 05       		.uleb128 0x5
 5167 0733 03       		.byte	0x3
 5168 0734 58000000 		.4byte	.LC5
 5169 0738 00       		.byte	0
 5170 0739 00       		.byte	0
 5171 073a 22       		.uleb128 0x22
 5172 073b 00000000 		.4byte	.Ldebug_ranges0+0
 5173 073f 440F0000 		.4byte	0xf44
 5174 0743 1C       		.uleb128 0x1c
 5175 0744 57080000 		.4byte	.LASF65
 5176 0748 01       		.byte	0x1
 5177 0749 2201     		.2byte	0x122
 5178 074b 1F010000 		.4byte	0x11f
 5179 074f 02       		.uleb128 0x2
 5180 0750 91       		.byte	0x91
 5181 0751 50       		.sleb128 -48
 5182 0752 1E       		.uleb128 0x1e
 5183 0753 74000000 		.4byte	.LBB6
 5184 0757 1C000000 		.4byte	.LBE6-.LBB6
 5185 075b AE070000 		.4byte	0x7ae
 5186 075f 1F       		.uleb128 0x1f
 5187 0760 6C00     		.ascii	"l\000"
ARM GAS  C:\Users\Phuong\AppData\Local\Temp\ccu7x7Ah.s 			page 120


 5188 0762 01       		.byte	0x1
 5189 0763 2801     		.2byte	0x128
 5190 0765 D3000000 		.4byte	0xd3
 5191 0769 32060000 		.4byte	.LLST20
 5192 076d 17       		.uleb128 0x17
 5193 076e 78000000 		.4byte	.LVL40
 5194 0772 292D0000 		.4byte	0x2d29
 5195 0776 20       		.uleb128 0x20
 5196 0777 90000000 		.4byte	.LVL43
 5197 077b 02       		.uleb128 0x2
 5198 077c 74       		.byte	0x74
 5199 077d 00       		.sleb128 0
 5200 077e 21       		.uleb128 0x21
 5201 077f 01       		.uleb128 0x1
 5202 0780 50       		.byte	0x50
 5203 0781 01       		.uleb128 0x1
 5204 0782 30       		.byte	0x30
 5205 0783 21       		.uleb128 0x21
 5206 0784 01       		.uleb128 0x1
 5207 0785 51       		.byte	0x51
 5208 0786 05       		.uleb128 0x5
 5209 0787 03       		.byte	0x3
 5210 0788 00000000 		.4byte	.LC1
 5211 078c 21       		.uleb128 0x21
 5212 078d 01       		.uleb128 0x1
 5213 078e 52       		.byte	0x52
 5214 078f 05       		.uleb128 0x5
 5215 0790 03       		.byte	0x3
 5216 0791 00000000 		.4byte	.LANCHOR0
 5217 0795 21       		.uleb128 0x21
 5218 0796 01       		.uleb128 0x1
 5219 0797 53       		.byte	0x53
 5220 0798 03       		.uleb128 0x3
 5221 0799 0A       		.byte	0xa
 5222 079a 2801     		.2byte	0x128
 5223 079c 21       		.uleb128 0x21
 5224 079d 02       		.uleb128 0x2
 5225 079e 7D       		.byte	0x7d
 5226 079f 00       		.sleb128 0
 5227 07a0 01       		.uleb128 0x1
 5228 07a1 31       		.byte	0x31
 5229 07a2 21       		.uleb128 0x21
 5230 07a3 02       		.uleb128 0x2
 5231 07a4 7D       		.byte	0x7d
 5232 07a5 04       		.sleb128 4
 5233 07a6 05       		.uleb128 0x5
 5234 07a7 03       		.byte	0x3
 5235 07a8 90000000 		.4byte	.LC9
 5236 07ac 00       		.byte	0
 5237 07ad 00       		.byte	0
 5238 07ae 22       		.uleb128 0x22
 5239 07af 40000000 		.4byte	.Ldebug_ranges0+0x40
 5240 07b3 060F0000 		.4byte	0xf06
 5241 07b7 19       		.uleb128 0x19
 5242 07b8 FC0D0000 		.4byte	.LASF114
 5243 07bc 01       		.byte	0x1
 5244 07bd 2F01     		.2byte	0x12f
ARM GAS  C:\Users\Phuong\AppData\Local\Temp\ccu7x7Ah.s 			page 121


 5245 07bf 9D0F0000 		.4byte	0xf9d
 5246 07c3 50060000 		.4byte	.LLST21
 5247 07c7 1E       		.uleb128 0x1e
 5248 07c8 A8000000 		.4byte	.LBB8
 5249 07cc 1E000000 		.4byte	.LBE8-.LBB8
 5250 07d0 23080000 		.4byte	0x823
 5251 07d4 1F       		.uleb128 0x1f
 5252 07d5 6C00     		.ascii	"l\000"
 5253 07d7 01       		.byte	0x1
 5254 07d8 3301     		.2byte	0x133
 5255 07da D3000000 		.4byte	0xd3
 5256 07de 15070000 		.4byte	.LLST22
 5257 07e2 17       		.uleb128 0x17
 5258 07e3 AC000000 		.4byte	.LVL49
 5259 07e7 292D0000 		.4byte	0x2d29
 5260 07eb 20       		.uleb128 0x20
 5261 07ec C6000000 		.4byte	.LVL52
 5262 07f0 02       		.uleb128 0x2
 5263 07f1 74       		.byte	0x74
 5264 07f2 00       		.sleb128 0
 5265 07f3 21       		.uleb128 0x21
 5266 07f4 01       		.uleb128 0x1
 5267 07f5 50       		.byte	0x50
 5268 07f6 01       		.uleb128 0x1
 5269 07f7 30       		.byte	0x30
 5270 07f8 21       		.uleb128 0x21
 5271 07f9 01       		.uleb128 0x1
 5272 07fa 51       		.byte	0x51
 5273 07fb 05       		.uleb128 0x5
 5274 07fc 03       		.byte	0x3
 5275 07fd 00000000 		.4byte	.LC1
 5276 0801 21       		.uleb128 0x21
 5277 0802 01       		.uleb128 0x1
 5278 0803 52       		.byte	0x52
 5279 0804 05       		.uleb128 0x5
 5280 0805 03       		.byte	0x3
 5281 0806 00000000 		.4byte	.LANCHOR0
 5282 080a 21       		.uleb128 0x21
 5283 080b 01       		.uleb128 0x1
 5284 080c 53       		.byte	0x53
 5285 080d 03       		.uleb128 0x3
 5286 080e 0A       		.byte	0xa
 5287 080f 3301     		.2byte	0x133
 5288 0811 21       		.uleb128 0x21
 5289 0812 02       		.uleb128 0x2
 5290 0813 7D       		.byte	0x7d
 5291 0814 00       		.sleb128 0
 5292 0815 01       		.uleb128 0x1
 5293 0816 31       		.byte	0x31
 5294 0817 21       		.uleb128 0x21
 5295 0818 02       		.uleb128 0x2
 5296 0819 7D       		.byte	0x7d
 5297 081a 04       		.sleb128 4
 5298 081b 05       		.uleb128 0x5
 5299 081c 03       		.byte	0x3
 5300 081d B0000000 		.4byte	.LC11
 5301 0821 00       		.byte	0
ARM GAS  C:\Users\Phuong\AppData\Local\Temp\ccu7x7Ah.s 			page 122


 5302 0822 00       		.byte	0
 5303 0823 22       		.uleb128 0x22
 5304 0824 78000000 		.4byte	.Ldebug_ranges0+0x78
 5305 0828 F60E0000 		.4byte	0xef6
 5306 082c 19       		.uleb128 0x19
 5307 082d CB110000 		.4byte	.LASF115
 5308 0831 01       		.byte	0x1
 5309 0832 3801     		.2byte	0x138
 5310 0834 78040000 		.4byte	0x478
 5311 0838 3E070000 		.4byte	.LLST23
 5312 083c 1E       		.uleb128 0x1e
 5313 083d E2000000 		.4byte	.LBB10
 5314 0841 1E000000 		.4byte	.LBE10-.LBB10
 5315 0845 98080000 		.4byte	0x898
 5316 0849 1F       		.uleb128 0x1f
 5317 084a 6C00     		.ascii	"l\000"
 5318 084c 01       		.byte	0x1
 5319 084d 3F01     		.2byte	0x13f
 5320 084f D3000000 		.4byte	0xd3
 5321 0853 68070000 		.4byte	.LLST24
 5322 0857 17       		.uleb128 0x17
 5323 0858 E6000000 		.4byte	.LVL60
 5324 085c 292D0000 		.4byte	0x2d29
 5325 0860 20       		.uleb128 0x20
 5326 0861 00010000 		.4byte	.LVL63
 5327 0865 02       		.uleb128 0x2
 5328 0866 74       		.byte	0x74
 5329 0867 00       		.sleb128 0
 5330 0868 21       		.uleb128 0x21
 5331 0869 01       		.uleb128 0x1
 5332 086a 50       		.byte	0x50
 5333 086b 01       		.uleb128 0x1
 5334 086c 30       		.byte	0x30
 5335 086d 21       		.uleb128 0x21
 5336 086e 01       		.uleb128 0x1
 5337 086f 51       		.byte	0x51
 5338 0870 05       		.uleb128 0x5
 5339 0871 03       		.byte	0x3
 5340 0872 00000000 		.4byte	.LC1
 5341 0876 21       		.uleb128 0x21
 5342 0877 01       		.uleb128 0x1
 5343 0878 52       		.byte	0x52
 5344 0879 05       		.uleb128 0x5
 5345 087a 03       		.byte	0x3
 5346 087b 00000000 		.4byte	.LANCHOR0
 5347 087f 21       		.uleb128 0x21
 5348 0880 01       		.uleb128 0x1
 5349 0881 53       		.byte	0x53
 5350 0882 03       		.uleb128 0x3
 5351 0883 0A       		.byte	0xa
 5352 0884 3F01     		.2byte	0x13f
 5353 0886 21       		.uleb128 0x21
 5354 0887 02       		.uleb128 0x2
 5355 0888 7D       		.byte	0x7d
 5356 0889 00       		.sleb128 0
 5357 088a 01       		.uleb128 0x1
 5358 088b 31       		.byte	0x31
ARM GAS  C:\Users\Phuong\AppData\Local\Temp\ccu7x7Ah.s 			page 123


 5359 088c 21       		.uleb128 0x21
 5360 088d 02       		.uleb128 0x2
 5361 088e 7D       		.byte	0x7d
 5362 088f 04       		.sleb128 4
 5363 0890 05       		.uleb128 0x5
 5364 0891 03       		.byte	0x3
 5365 0892 D0000000 		.4byte	.LC13
 5366 0896 00       		.byte	0
 5367 0897 00       		.byte	0
 5368 0898 1E       		.uleb128 0x1e
 5369 0899 1A010000 		.4byte	.LBB11
 5370 089d 1C000000 		.4byte	.LBE11-.LBB11
 5371 08a1 F4080000 		.4byte	0x8f4
 5372 08a5 1F       		.uleb128 0x1f
 5373 08a6 6C00     		.ascii	"l\000"
 5374 08a8 01       		.byte	0x1
 5375 08a9 4B01     		.2byte	0x14b
 5376 08ab D3000000 		.4byte	0xd3
 5377 08af 91070000 		.4byte	.LLST25
 5378 08b3 17       		.uleb128 0x17
 5379 08b4 1E010000 		.4byte	.LVL70
 5380 08b8 292D0000 		.4byte	0x2d29
 5381 08bc 20       		.uleb128 0x20
 5382 08bd 36010000 		.4byte	.LVL73
 5383 08c1 02       		.uleb128 0x2
 5384 08c2 74       		.byte	0x74
 5385 08c3 00       		.sleb128 0
 5386 08c4 21       		.uleb128 0x21
 5387 08c5 01       		.uleb128 0x1
 5388 08c6 50       		.byte	0x50
 5389 08c7 01       		.uleb128 0x1
 5390 08c8 30       		.byte	0x30
 5391 08c9 21       		.uleb128 0x21
 5392 08ca 01       		.uleb128 0x1
 5393 08cb 51       		.byte	0x51
 5394 08cc 05       		.uleb128 0x5
 5395 08cd 03       		.byte	0x3
 5396 08ce 00000000 		.4byte	.LC1
 5397 08d2 21       		.uleb128 0x21
 5398 08d3 01       		.uleb128 0x1
 5399 08d4 52       		.byte	0x52
 5400 08d5 05       		.uleb128 0x5
 5401 08d6 03       		.byte	0x3
 5402 08d7 00000000 		.4byte	.LANCHOR0
 5403 08db 21       		.uleb128 0x21
 5404 08dc 01       		.uleb128 0x1
 5405 08dd 53       		.byte	0x53
 5406 08de 03       		.uleb128 0x3
 5407 08df 0A       		.byte	0xa
 5408 08e0 4B01     		.2byte	0x14b
 5409 08e2 21       		.uleb128 0x21
 5410 08e3 02       		.uleb128 0x2
 5411 08e4 7D       		.byte	0x7d
 5412 08e5 00       		.sleb128 0
 5413 08e6 01       		.uleb128 0x1
 5414 08e7 31       		.byte	0x31
 5415 08e8 21       		.uleb128 0x21
ARM GAS  C:\Users\Phuong\AppData\Local\Temp\ccu7x7Ah.s 			page 124


 5416 08e9 02       		.uleb128 0x2
 5417 08ea 7D       		.byte	0x7d
 5418 08eb 04       		.sleb128 4
 5419 08ec 05       		.uleb128 0x5
 5420 08ed 03       		.byte	0x3
 5421 08ee F4000000 		.4byte	.LC15
 5422 08f2 00       		.byte	0
 5423 08f3 00       		.byte	0
 5424 08f4 22       		.uleb128 0x22
 5425 08f5 A8000000 		.4byte	.Ldebug_ranges0+0xa8
 5426 08f9 940E0000 		.4byte	0xe94
 5427 08fd 1C       		.uleb128 0x1c
 5428 08fe 1F020000 		.4byte	.LASF116
 5429 0902 01       		.byte	0x1
 5430 0903 5101     		.2byte	0x151
 5431 0905 FB010000 		.4byte	0x1fb
 5432 0909 02       		.uleb128 0x2
 5433 090a 91       		.byte	0x91
 5434 090b 5C       		.sleb128 -36
 5435 090c 1E       		.uleb128 0x1e
 5436 090d 58010000 		.4byte	.LBB13
 5437 0911 1C000000 		.4byte	.LBE13-.LBB13
 5438 0915 68090000 		.4byte	0x968
 5439 0919 1F       		.uleb128 0x1f
 5440 091a 6C00     		.ascii	"l\000"
 5441 091c 01       		.byte	0x1
 5442 091d 5801     		.2byte	0x158
 5443 091f D3000000 		.4byte	0xd3
 5444 0923 AF070000 		.4byte	.LLST26
 5445 0927 17       		.uleb128 0x17
 5446 0928 5C010000 		.4byte	.LVL80
 5447 092c 292D0000 		.4byte	0x2d29
 5448 0930 20       		.uleb128 0x20
 5449 0931 74010000 		.4byte	.LVL83
 5450 0935 02       		.uleb128 0x2
 5451 0936 74       		.byte	0x74
 5452 0937 00       		.sleb128 0
 5453 0938 21       		.uleb128 0x21
 5454 0939 01       		.uleb128 0x1
 5455 093a 50       		.byte	0x50
 5456 093b 01       		.uleb128 0x1
 5457 093c 30       		.byte	0x30
 5458 093d 21       		.uleb128 0x21
 5459 093e 01       		.uleb128 0x1
 5460 093f 51       		.byte	0x51
 5461 0940 05       		.uleb128 0x5
 5462 0941 03       		.byte	0x3
 5463 0942 00000000 		.4byte	.LC1
 5464 0946 21       		.uleb128 0x21
 5465 0947 01       		.uleb128 0x1
 5466 0948 52       		.byte	0x52
 5467 0949 05       		.uleb128 0x5
 5468 094a 03       		.byte	0x3
 5469 094b 00000000 		.4byte	.LANCHOR0
 5470 094f 21       		.uleb128 0x21
 5471 0950 01       		.uleb128 0x1
 5472 0951 53       		.byte	0x53
ARM GAS  C:\Users\Phuong\AppData\Local\Temp\ccu7x7Ah.s 			page 125


 5473 0952 03       		.uleb128 0x3
 5474 0953 0A       		.byte	0xa
 5475 0954 5801     		.2byte	0x158
 5476 0956 21       		.uleb128 0x21
 5477 0957 02       		.uleb128 0x2
 5478 0958 7D       		.byte	0x7d
 5479 0959 00       		.sleb128 0
 5480 095a 01       		.uleb128 0x1
 5481 095b 31       		.byte	0x31
 5482 095c 21       		.uleb128 0x21
 5483 095d 02       		.uleb128 0x2
 5484 095e 7D       		.byte	0x7d
 5485 095f 04       		.sleb128 4
 5486 0960 05       		.uleb128 0x5
 5487 0961 03       		.byte	0x3
 5488 0962 20010000 		.4byte	.LC17
 5489 0966 00       		.byte	0
 5490 0967 00       		.byte	0
 5491 0968 22       		.uleb128 0x22
 5492 0969 C8000000 		.4byte	.Ldebug_ranges0+0xc8
 5493 096d 440E0000 		.4byte	0xe44
 5494 0971 1C       		.uleb128 0x1c
 5495 0972 9B010000 		.4byte	.LASF117
 5496 0976 01       		.byte	0x1
 5497 0977 5E01     		.2byte	0x15e
 5498 0979 1F010000 		.4byte	0x11f
 5499 097d 02       		.uleb128 0x2
 5500 097e 91       		.byte	0x91
 5501 097f 54       		.sleb128 -44
 5502 0980 1E       		.uleb128 0x1e
 5503 0981 8E010000 		.4byte	.LBB15
 5504 0985 1C000000 		.4byte	.LBE15-.LBB15
 5505 0989 DC090000 		.4byte	0x9dc
 5506 098d 1F       		.uleb128 0x1f
 5507 098e 6C00     		.ascii	"l\000"
 5508 0990 01       		.byte	0x1
 5509 0991 6401     		.2byte	0x164
 5510 0993 D3000000 		.4byte	0xd3
 5511 0997 CD070000 		.4byte	.LLST27
 5512 099b 17       		.uleb128 0x17
 5513 099c 92010000 		.4byte	.LVL89
 5514 09a0 292D0000 		.4byte	0x2d29
 5515 09a4 20       		.uleb128 0x20
 5516 09a5 AA010000 		.4byte	.LVL92
 5517 09a9 02       		.uleb128 0x2
 5518 09aa 74       		.byte	0x74
 5519 09ab 00       		.sleb128 0
 5520 09ac 21       		.uleb128 0x21
 5521 09ad 01       		.uleb128 0x1
 5522 09ae 50       		.byte	0x50
 5523 09af 01       		.uleb128 0x1
 5524 09b0 30       		.byte	0x30
 5525 09b1 21       		.uleb128 0x21
 5526 09b2 01       		.uleb128 0x1
 5527 09b3 51       		.byte	0x51
 5528 09b4 05       		.uleb128 0x5
 5529 09b5 03       		.byte	0x3
ARM GAS  C:\Users\Phuong\AppData\Local\Temp\ccu7x7Ah.s 			page 126


 5530 09b6 00000000 		.4byte	.LC1
 5531 09ba 21       		.uleb128 0x21
 5532 09bb 01       		.uleb128 0x1
 5533 09bc 52       		.byte	0x52
 5534 09bd 05       		.uleb128 0x5
 5535 09be 03       		.byte	0x3
 5536 09bf 00000000 		.4byte	.LANCHOR0
 5537 09c3 21       		.uleb128 0x21
 5538 09c4 01       		.uleb128 0x1
 5539 09c5 53       		.byte	0x53
 5540 09c6 03       		.uleb128 0x3
 5541 09c7 0A       		.byte	0xa
 5542 09c8 6401     		.2byte	0x164
 5543 09ca 21       		.uleb128 0x21
 5544 09cb 02       		.uleb128 0x2
 5545 09cc 7D       		.byte	0x7d
 5546 09cd 00       		.sleb128 0
 5547 09ce 01       		.uleb128 0x1
 5548 09cf 31       		.byte	0x31
 5549 09d0 21       		.uleb128 0x21
 5550 09d1 02       		.uleb128 0x2
 5551 09d2 7D       		.byte	0x7d
 5552 09d3 04       		.sleb128 4
 5553 09d4 05       		.uleb128 0x5
 5554 09d5 03       		.byte	0x3
 5555 09d6 4C010000 		.4byte	.LC19
 5556 09da 00       		.byte	0
 5557 09db 00       		.byte	0
 5558 09dc 22       		.uleb128 0x22
 5559 09dd E8000000 		.4byte	.Ldebug_ranges0+0xe8
 5560 09e1 F90D0000 		.4byte	0xdf9
 5561 09e5 19       		.uleb128 0x19
 5562 09e6 28110000 		.4byte	.LASF118
 5563 09ea 01       		.byte	0x1
 5564 09eb 6C01     		.2byte	0x16c
 5565 09ed 1F010000 		.4byte	0x11f
 5566 09f1 EB070000 		.4byte	.LLST28
 5567 09f5 1E       		.uleb128 0x1e
 5568 09f6 C8010000 		.4byte	.LBB17
 5569 09fa 1C000000 		.4byte	.LBE17-.LBB17
 5570 09fe 510A0000 		.4byte	0xa51
 5571 0a02 1F       		.uleb128 0x1f
 5572 0a03 6C00     		.ascii	"l\000"
 5573 0a05 01       		.byte	0x1
 5574 0a06 7001     		.2byte	0x170
 5575 0a08 D3000000 		.4byte	0xd3
 5576 0a0c 40080000 		.4byte	.LLST29
 5577 0a10 17       		.uleb128 0x17
 5578 0a11 CC010000 		.4byte	.LVL100
 5579 0a15 292D0000 		.4byte	0x2d29
 5580 0a19 20       		.uleb128 0x20
 5581 0a1a E4010000 		.4byte	.LVL103
 5582 0a1e 02       		.uleb128 0x2
 5583 0a1f 74       		.byte	0x74
 5584 0a20 00       		.sleb128 0
 5585 0a21 21       		.uleb128 0x21
 5586 0a22 01       		.uleb128 0x1
ARM GAS  C:\Users\Phuong\AppData\Local\Temp\ccu7x7Ah.s 			page 127


 5587 0a23 50       		.byte	0x50
 5588 0a24 01       		.uleb128 0x1
 5589 0a25 30       		.byte	0x30
 5590 0a26 21       		.uleb128 0x21
 5591 0a27 01       		.uleb128 0x1
 5592 0a28 51       		.byte	0x51
 5593 0a29 05       		.uleb128 0x5
 5594 0a2a 03       		.byte	0x3
 5595 0a2b 00000000 		.4byte	.LC1
 5596 0a2f 21       		.uleb128 0x21
 5597 0a30 01       		.uleb128 0x1
 5598 0a31 52       		.byte	0x52
 5599 0a32 05       		.uleb128 0x5
 5600 0a33 03       		.byte	0x3
 5601 0a34 00000000 		.4byte	.LANCHOR0
 5602 0a38 21       		.uleb128 0x21
 5603 0a39 01       		.uleb128 0x1
 5604 0a3a 53       		.byte	0x53
 5605 0a3b 03       		.uleb128 0x3
 5606 0a3c 0A       		.byte	0xa
 5607 0a3d 7001     		.2byte	0x170
 5608 0a3f 21       		.uleb128 0x21
 5609 0a40 02       		.uleb128 0x2
 5610 0a41 7D       		.byte	0x7d
 5611 0a42 00       		.sleb128 0
 5612 0a43 01       		.uleb128 0x1
 5613 0a44 31       		.byte	0x31
 5614 0a45 21       		.uleb128 0x21
 5615 0a46 02       		.uleb128 0x2
 5616 0a47 7D       		.byte	0x7d
 5617 0a48 04       		.sleb128 4
 5618 0a49 05       		.uleb128 0x5
 5619 0a4a 03       		.byte	0x3
 5620 0a4b 70010000 		.4byte	.LC21
 5621 0a4f 00       		.byte	0
 5622 0a50 00       		.byte	0
 5623 0a51 22       		.uleb128 0x22
 5624 0a52 08010000 		.4byte	.Ldebug_ranges0+0x108
 5625 0a56 D20D0000 		.4byte	0xdd2
 5626 0a5a 19       		.uleb128 0x19
 5627 0a5b F7070000 		.4byte	.LASF119
 5628 0a5f 01       		.byte	0x1
 5629 0a60 7701     		.2byte	0x177
 5630 0a62 1F010000 		.4byte	0x11f
 5631 0a66 5E080000 		.4byte	.LLST30
 5632 0a6a 1E       		.uleb128 0x1e
 5633 0a6b FC010000 		.4byte	.LBB19
 5634 0a6f 1C000000 		.4byte	.LBE19-.LBB19
 5635 0a73 C60A0000 		.4byte	0xac6
 5636 0a77 1F       		.uleb128 0x1f
 5637 0a78 6C00     		.ascii	"l\000"
 5638 0a7a 01       		.byte	0x1
 5639 0a7b 7B01     		.2byte	0x17b
 5640 0a7d D3000000 		.4byte	0xd3
 5641 0a81 94080000 		.4byte	.LLST31
 5642 0a85 17       		.uleb128 0x17
 5643 0a86 00020000 		.4byte	.LVL111
ARM GAS  C:\Users\Phuong\AppData\Local\Temp\ccu7x7Ah.s 			page 128


 5644 0a8a 292D0000 		.4byte	0x2d29
 5645 0a8e 20       		.uleb128 0x20
 5646 0a8f 18020000 		.4byte	.LVL114
 5647 0a93 02       		.uleb128 0x2
 5648 0a94 74       		.byte	0x74
 5649 0a95 00       		.sleb128 0
 5650 0a96 21       		.uleb128 0x21
 5651 0a97 01       		.uleb128 0x1
 5652 0a98 50       		.byte	0x50
 5653 0a99 01       		.uleb128 0x1
 5654 0a9a 30       		.byte	0x30
 5655 0a9b 21       		.uleb128 0x21
 5656 0a9c 01       		.uleb128 0x1
 5657 0a9d 51       		.byte	0x51
 5658 0a9e 05       		.uleb128 0x5
 5659 0a9f 03       		.byte	0x3
 5660 0aa0 00000000 		.4byte	.LC1
 5661 0aa4 21       		.uleb128 0x21
 5662 0aa5 01       		.uleb128 0x1
 5663 0aa6 52       		.byte	0x52
 5664 0aa7 05       		.uleb128 0x5
 5665 0aa8 03       		.byte	0x3
 5666 0aa9 00000000 		.4byte	.LANCHOR0
 5667 0aad 21       		.uleb128 0x21
 5668 0aae 01       		.uleb128 0x1
 5669 0aaf 53       		.byte	0x53
 5670 0ab0 03       		.uleb128 0x3
 5671 0ab1 0A       		.byte	0xa
 5672 0ab2 7B01     		.2byte	0x17b
 5673 0ab4 21       		.uleb128 0x21
 5674 0ab5 02       		.uleb128 0x2
 5675 0ab6 7D       		.byte	0x7d
 5676 0ab7 00       		.sleb128 0
 5677 0ab8 01       		.uleb128 0x1
 5678 0ab9 31       		.byte	0x31
 5679 0aba 21       		.uleb128 0x21
 5680 0abb 02       		.uleb128 0x2
 5681 0abc 7D       		.byte	0x7d
 5682 0abd 04       		.sleb128 4
 5683 0abe 05       		.uleb128 0x5
 5684 0abf 03       		.byte	0x3
 5685 0ac0 AC010000 		.4byte	.LC25
 5686 0ac4 00       		.byte	0
 5687 0ac5 00       		.byte	0
 5688 0ac6 1E       		.uleb128 0x1e
 5689 0ac7 24020000 		.4byte	.LBB20
 5690 0acb 18010000 		.4byte	.LBE20-.LBB20
 5691 0acf AA0D0000 		.4byte	0xdaa
 5692 0ad3 19       		.uleb128 0x19
 5693 0ad4 A1080000 		.4byte	.LASF120
 5694 0ad8 01       		.byte	0x1
 5695 0ad9 8201     		.2byte	0x182
 5696 0adb 1F010000 		.4byte	0x11f
 5697 0adf B2080000 		.4byte	.LLST32
 5698 0ae3 1E       		.uleb128 0x1e
 5699 0ae4 32020000 		.4byte	.LBB21
 5700 0ae8 1C000000 		.4byte	.LBE21-.LBB21
ARM GAS  C:\Users\Phuong\AppData\Local\Temp\ccu7x7Ah.s 			page 129


 5701 0aec 3F0B0000 		.4byte	0xb3f
 5702 0af0 1F       		.uleb128 0x1f
 5703 0af1 6C00     		.ascii	"l\000"
 5704 0af3 01       		.byte	0x1
 5705 0af4 8601     		.2byte	0x186
 5706 0af6 D3000000 		.4byte	0xd3
 5707 0afa E8080000 		.4byte	.LLST33
 5708 0afe 17       		.uleb128 0x17
 5709 0aff 36020000 		.4byte	.LVL122
 5710 0b03 292D0000 		.4byte	0x2d29
 5711 0b07 20       		.uleb128 0x20
 5712 0b08 4E020000 		.4byte	.LVL125
 5713 0b0c 02       		.uleb128 0x2
 5714 0b0d 74       		.byte	0x74
 5715 0b0e 00       		.sleb128 0
 5716 0b0f 21       		.uleb128 0x21
 5717 0b10 01       		.uleb128 0x1
 5718 0b11 50       		.byte	0x50
 5719 0b12 01       		.uleb128 0x1
 5720 0b13 30       		.byte	0x30
 5721 0b14 21       		.uleb128 0x21
 5722 0b15 01       		.uleb128 0x1
 5723 0b16 51       		.byte	0x51
 5724 0b17 05       		.uleb128 0x5
 5725 0b18 03       		.byte	0x3
 5726 0b19 00000000 		.4byte	.LC1
 5727 0b1d 21       		.uleb128 0x21
 5728 0b1e 01       		.uleb128 0x1
 5729 0b1f 52       		.byte	0x52
 5730 0b20 05       		.uleb128 0x5
 5731 0b21 03       		.byte	0x3
 5732 0b22 00000000 		.4byte	.LANCHOR0
 5733 0b26 21       		.uleb128 0x21
 5734 0b27 01       		.uleb128 0x1
 5735 0b28 53       		.byte	0x53
 5736 0b29 03       		.uleb128 0x3
 5737 0b2a 0A       		.byte	0xa
 5738 0b2b 8601     		.2byte	0x186
 5739 0b2d 21       		.uleb128 0x21
 5740 0b2e 02       		.uleb128 0x2
 5741 0b2f 7D       		.byte	0x7d
 5742 0b30 00       		.sleb128 0
 5743 0b31 01       		.uleb128 0x1
 5744 0b32 31       		.byte	0x31
 5745 0b33 21       		.uleb128 0x21
 5746 0b34 02       		.uleb128 0x2
 5747 0b35 7D       		.byte	0x7d
 5748 0b36 04       		.sleb128 4
 5749 0b37 05       		.uleb128 0x5
 5750 0b38 03       		.byte	0x3
 5751 0b39 DC010000 		.4byte	.LC27
 5752 0b3d 00       		.byte	0
 5753 0b3e 00       		.byte	0
 5754 0b3f 1E       		.uleb128 0x1e
 5755 0b40 62020000 		.4byte	.LBB22
 5756 0b44 D4000000 		.4byte	.LBE22-.LBB22
 5757 0b48 490D0000 		.4byte	0xd49
ARM GAS  C:\Users\Phuong\AppData\Local\Temp\ccu7x7Ah.s 			page 130


 5758 0b4c 1C       		.uleb128 0x1c
 5759 0b4d 31080000 		.4byte	.LASF121
 5760 0b51 01       		.byte	0x1
 5761 0b52 8D01     		.2byte	0x18d
 5762 0b54 93000000 		.4byte	0x93
 5763 0b58 02       		.uleb128 0x2
 5764 0b59 91       		.byte	0x91
 5765 0b5a 58       		.sleb128 -40
 5766 0b5b 1E       		.uleb128 0x1e
 5767 0b5c 6E020000 		.4byte	.LBB23
 5768 0b60 1C000000 		.4byte	.LBE23-.LBB23
 5769 0b64 B70B0000 		.4byte	0xbb7
 5770 0b68 1F       		.uleb128 0x1f
 5771 0b69 6C00     		.ascii	"l\000"
 5772 0b6b 01       		.byte	0x1
 5773 0b6c 9301     		.2byte	0x193
 5774 0b6e D3000000 		.4byte	0xd3
 5775 0b72 06090000 		.4byte	.LLST34
 5776 0b76 17       		.uleb128 0x17
 5777 0b77 72020000 		.4byte	.LVL133
 5778 0b7b 292D0000 		.4byte	0x2d29
 5779 0b7f 20       		.uleb128 0x20
 5780 0b80 8A020000 		.4byte	.LVL136
 5781 0b84 02       		.uleb128 0x2
 5782 0b85 74       		.byte	0x74
 5783 0b86 00       		.sleb128 0
 5784 0b87 21       		.uleb128 0x21
 5785 0b88 01       		.uleb128 0x1
 5786 0b89 50       		.byte	0x50
 5787 0b8a 01       		.uleb128 0x1
 5788 0b8b 30       		.byte	0x30
 5789 0b8c 21       		.uleb128 0x21
 5790 0b8d 01       		.uleb128 0x1
 5791 0b8e 51       		.byte	0x51
 5792 0b8f 05       		.uleb128 0x5
 5793 0b90 03       		.byte	0x3
 5794 0b91 00000000 		.4byte	.LC1
 5795 0b95 21       		.uleb128 0x21
 5796 0b96 01       		.uleb128 0x1
 5797 0b97 52       		.byte	0x52
 5798 0b98 05       		.uleb128 0x5
 5799 0b99 03       		.byte	0x3
 5800 0b9a 00000000 		.4byte	.LANCHOR0
 5801 0b9e 21       		.uleb128 0x21
 5802 0b9f 01       		.uleb128 0x1
 5803 0ba0 53       		.byte	0x53
 5804 0ba1 03       		.uleb128 0x3
 5805 0ba2 0A       		.byte	0xa
 5806 0ba3 9301     		.2byte	0x193
 5807 0ba5 21       		.uleb128 0x21
 5808 0ba6 02       		.uleb128 0x2
 5809 0ba7 7D       		.byte	0x7d
 5810 0ba8 00       		.sleb128 0
 5811 0ba9 01       		.uleb128 0x1
 5812 0baa 31       		.byte	0x31
 5813 0bab 21       		.uleb128 0x21
 5814 0bac 02       		.uleb128 0x2
ARM GAS  C:\Users\Phuong\AppData\Local\Temp\ccu7x7Ah.s 			page 131


 5815 0bad 7D       		.byte	0x7d
 5816 0bae 04       		.sleb128 4
 5817 0baf 05       		.uleb128 0x5
 5818 0bb0 03       		.byte	0x3
 5819 0bb1 20020000 		.4byte	.LC29
 5820 0bb5 00       		.byte	0
 5821 0bb6 00       		.byte	0
 5822 0bb7 1E       		.uleb128 0x1e
 5823 0bb8 A6020000 		.4byte	.LBB24
 5824 0bbc 1E000000 		.4byte	.LBE24-.LBB24
 5825 0bc0 130C0000 		.4byte	0xc13
 5826 0bc4 1F       		.uleb128 0x1f
 5827 0bc5 6C00     		.ascii	"l\000"
 5828 0bc7 01       		.byte	0x1
 5829 0bc8 9F01     		.2byte	0x19f
 5830 0bca D3000000 		.4byte	0xd3
 5831 0bce 24090000 		.4byte	.LLST35
 5832 0bd2 17       		.uleb128 0x17
 5833 0bd3 AA020000 		.4byte	.LVL144
 5834 0bd7 292D0000 		.4byte	0x2d29
 5835 0bdb 20       		.uleb128 0x20
 5836 0bdc C4020000 		.4byte	.LVL147
 5837 0be0 02       		.uleb128 0x2
 5838 0be1 79       		.byte	0x79
 5839 0be2 00       		.sleb128 0
 5840 0be3 21       		.uleb128 0x21
 5841 0be4 01       		.uleb128 0x1
 5842 0be5 50       		.byte	0x50
 5843 0be6 01       		.uleb128 0x1
 5844 0be7 30       		.byte	0x30
 5845 0be8 21       		.uleb128 0x21
 5846 0be9 01       		.uleb128 0x1
 5847 0bea 51       		.byte	0x51
 5848 0beb 05       		.uleb128 0x5
 5849 0bec 03       		.byte	0x3
 5850 0bed 00000000 		.4byte	.LC1
 5851 0bf1 21       		.uleb128 0x21
 5852 0bf2 01       		.uleb128 0x1
 5853 0bf3 52       		.byte	0x52
 5854 0bf4 05       		.uleb128 0x5
 5855 0bf5 03       		.byte	0x3
 5856 0bf6 00000000 		.4byte	.LANCHOR0
 5857 0bfa 21       		.uleb128 0x21
 5858 0bfb 01       		.uleb128 0x1
 5859 0bfc 53       		.byte	0x53
 5860 0bfd 03       		.uleb128 0x3
 5861 0bfe 0A       		.byte	0xa
 5862 0bff 9F01     		.2byte	0x19f
 5863 0c01 21       		.uleb128 0x21
 5864 0c02 02       		.uleb128 0x2
 5865 0c03 7D       		.byte	0x7d
 5866 0c04 00       		.sleb128 0
 5867 0c05 01       		.uleb128 0x1
 5868 0c06 31       		.byte	0x31
 5869 0c07 21       		.uleb128 0x21
 5870 0c08 02       		.uleb128 0x2
 5871 0c09 7D       		.byte	0x7d
ARM GAS  C:\Users\Phuong\AppData\Local\Temp\ccu7x7Ah.s 			page 132


 5872 0c0a 04       		.sleb128 4
 5873 0c0b 05       		.uleb128 0x5
 5874 0c0c 03       		.byte	0x3
 5875 0c0d 54020000 		.4byte	.LC31
 5876 0c11 00       		.byte	0
 5877 0c12 00       		.byte	0
 5878 0c13 1E       		.uleb128 0x1e
 5879 0c14 F0020000 		.4byte	.LBB25
 5880 0c18 1E000000 		.4byte	.LBE25-.LBB25
 5881 0c1c 6F0C0000 		.4byte	0xc6f
 5882 0c20 1F       		.uleb128 0x1f
 5883 0c21 6C00     		.ascii	"l\000"
 5884 0c23 01       		.byte	0x1
 5885 0c24 B501     		.2byte	0x1b5
 5886 0c26 D3000000 		.4byte	0xd3
 5887 0c2a 42090000 		.4byte	.LLST36
 5888 0c2e 17       		.uleb128 0x17
 5889 0c2f F4020000 		.4byte	.LVL153
 5890 0c33 292D0000 		.4byte	0x2d29
 5891 0c37 20       		.uleb128 0x20
 5892 0c38 0E030000 		.4byte	.LVL156
 5893 0c3c 02       		.uleb128 0x2
 5894 0c3d 79       		.byte	0x79
 5895 0c3e 00       		.sleb128 0
 5896 0c3f 21       		.uleb128 0x21
 5897 0c40 01       		.uleb128 0x1
 5898 0c41 50       		.byte	0x50
 5899 0c42 01       		.uleb128 0x1
 5900 0c43 30       		.byte	0x30
 5901 0c44 21       		.uleb128 0x21
 5902 0c45 01       		.uleb128 0x1
 5903 0c46 51       		.byte	0x51
 5904 0c47 05       		.uleb128 0x5
 5905 0c48 03       		.byte	0x3
 5906 0c49 00000000 		.4byte	.LC1
 5907 0c4d 21       		.uleb128 0x21
 5908 0c4e 01       		.uleb128 0x1
 5909 0c4f 52       		.byte	0x52
 5910 0c50 05       		.uleb128 0x5
 5911 0c51 03       		.byte	0x3
 5912 0c52 00000000 		.4byte	.LANCHOR0
 5913 0c56 21       		.uleb128 0x21
 5914 0c57 01       		.uleb128 0x1
 5915 0c58 53       		.byte	0x53
 5916 0c59 03       		.uleb128 0x3
 5917 0c5a 0A       		.byte	0xa
 5918 0c5b B501     		.2byte	0x1b5
 5919 0c5d 21       		.uleb128 0x21
 5920 0c5e 02       		.uleb128 0x2
 5921 0c5f 7D       		.byte	0x7d
 5922 0c60 00       		.sleb128 0
 5923 0c61 01       		.uleb128 0x1
 5924 0c62 31       		.byte	0x31
 5925 0c63 21       		.uleb128 0x21
 5926 0c64 02       		.uleb128 0x2
 5927 0c65 7D       		.byte	0x7d
 5928 0c66 04       		.sleb128 4
ARM GAS  C:\Users\Phuong\AppData\Local\Temp\ccu7x7Ah.s 			page 133


 5929 0c67 05       		.uleb128 0x5
 5930 0c68 03       		.byte	0x3
 5931 0c69 80020000 		.4byte	.LC33
 5932 0c6d 00       		.byte	0
 5933 0c6e 00       		.byte	0
 5934 0c6f 23       		.uleb128 0x23
 5935 0c70 6A020000 		.4byte	.LVL132
 5936 0c74 342D0000 		.4byte	0x2d34
 5937 0c78 8A0C0000 		.4byte	0xc8a
 5938 0c7c 21       		.uleb128 0x21
 5939 0c7d 01       		.uleb128 0x1
 5940 0c7e 50       		.byte	0x50
 5941 0c7f 03       		.uleb128 0x3
 5942 0c80 91       		.byte	0x91
 5943 0c81 4C       		.sleb128 -52
 5944 0c82 06       		.byte	0x6
 5945 0c83 21       		.uleb128 0x21
 5946 0c84 01       		.uleb128 0x1
 5947 0c85 51       		.byte	0x51
 5948 0c86 02       		.uleb128 0x2
 5949 0c87 91       		.byte	0x91
 5950 0c88 58       		.sleb128 -40
 5951 0c89 00       		.byte	0
 5952 0c8a 23       		.uleb128 0x23
 5953 0c8b 90020000 		.4byte	.LVL137
 5954 0c8f 3F2D0000 		.4byte	0x2d3f
 5955 0c93 9E0C0000 		.4byte	0xc9e
 5956 0c97 21       		.uleb128 0x21
 5957 0c98 01       		.uleb128 0x1
 5958 0c99 50       		.byte	0x50
 5959 0c9a 02       		.uleb128 0x2
 5960 0c9b 77       		.byte	0x77
 5961 0c9c 00       		.sleb128 0
 5962 0c9d 00       		.byte	0
 5963 0c9e 23       		.uleb128 0x23
 5964 0c9f 98020000 		.4byte	.LVL138
 5965 0ca3 4A2D0000 		.4byte	0x2d4a
 5966 0ca7 BE0C0000 		.4byte	0xcbe
 5967 0cab 21       		.uleb128 0x21
 5968 0cac 01       		.uleb128 0x1
 5969 0cad 50       		.byte	0x50
 5970 0cae 05       		.uleb128 0x5
 5971 0caf 03       		.byte	0x3
 5972 0cb0 7C000000 		.4byte	.LC7
 5973 0cb4 21       		.uleb128 0x21
 5974 0cb5 01       		.uleb128 0x1
 5975 0cb6 51       		.byte	0x51
 5976 0cb7 05       		.uleb128 0x5
 5977 0cb8 03       		.byte	0x3
 5978 0cb9 20020000 		.4byte	.LC29
 5979 0cbd 00       		.byte	0
 5980 0cbe 17       		.uleb128 0x17
 5981 0cbf A2020000 		.4byte	.LVL142
 5982 0cc3 552D0000 		.4byte	0x2d55
 5983 0cc7 23       		.uleb128 0x23
 5984 0cc8 CA020000 		.4byte	.LVL148
 5985 0ccc 3F2D0000 		.4byte	0x2d3f
ARM GAS  C:\Users\Phuong\AppData\Local\Temp\ccu7x7Ah.s 			page 134


 5986 0cd0 DB0C0000 		.4byte	0xcdb
 5987 0cd4 21       		.uleb128 0x21
 5988 0cd5 01       		.uleb128 0x1
 5989 0cd6 50       		.byte	0x50
 5990 0cd7 02       		.uleb128 0x2
 5991 0cd8 77       		.byte	0x77
 5992 0cd9 00       		.sleb128 0
 5993 0cda 00       		.byte	0
 5994 0cdb 24       		.uleb128 0x24
 5995 0cdc EC020000 		.4byte	.LVL152
 5996 0ce0 02       		.uleb128 0x2
 5997 0ce1 76       		.byte	0x76
 5998 0ce2 00       		.sleb128 0
 5999 0ce3 EF0C0000 		.4byte	0xcef
 6000 0ce7 21       		.uleb128 0x21
 6001 0ce8 02       		.uleb128 0x2
 6002 0ce9 7D       		.byte	0x7d
 6003 0cea 00       		.sleb128 0
 6004 0ceb 02       		.uleb128 0x2
 6005 0cec 77       		.byte	0x77
 6006 0ced 00       		.sleb128 0
 6007 0cee 00       		.byte	0
 6008 0cef 23       		.uleb128 0x23
 6009 0cf0 14030000 		.4byte	.LVL157
 6010 0cf4 602D0000 		.4byte	0x2d60
 6011 0cf8 030D0000 		.4byte	0xd03
 6012 0cfc 21       		.uleb128 0x21
 6013 0cfd 01       		.uleb128 0x1
 6014 0cfe 50       		.byte	0x50
 6015 0cff 02       		.uleb128 0x2
 6016 0d00 74       		.byte	0x74
 6017 0d01 00       		.sleb128 0
 6018 0d02 00       		.byte	0
 6019 0d03 23       		.uleb128 0x23
 6020 0d04 1A030000 		.4byte	.LVL158
 6021 0d08 3F2D0000 		.4byte	0x2d3f
 6022 0d0c 170D0000 		.4byte	0xd17
 6023 0d10 21       		.uleb128 0x21
 6024 0d11 01       		.uleb128 0x1
 6025 0d12 50       		.byte	0x50
 6026 0d13 02       		.uleb128 0x2
 6027 0d14 77       		.byte	0x77
 6028 0d15 00       		.sleb128 0
 6029 0d16 00       		.byte	0
 6030 0d17 23       		.uleb128 0x23
 6031 0d18 28030000 		.4byte	.LVL160
 6032 0d1c 4A2D0000 		.4byte	0x2d4a
 6033 0d20 370D0000 		.4byte	0xd37
 6034 0d24 21       		.uleb128 0x21
 6035 0d25 01       		.uleb128 0x1
 6036 0d26 50       		.byte	0x50
 6037 0d27 05       		.uleb128 0x5
 6038 0d28 03       		.byte	0x3
 6039 0d29 B0020000 		.4byte	.LC35
 6040 0d2d 21       		.uleb128 0x21
 6041 0d2e 01       		.uleb128 0x1
 6042 0d2f 51       		.byte	0x51
ARM GAS  C:\Users\Phuong\AppData\Local\Temp\ccu7x7Ah.s 			page 135


 6043 0d30 05       		.uleb128 0x5
 6044 0d31 03       		.byte	0x3
 6045 0d32 80020000 		.4byte	.LC33
 6046 0d36 00       		.byte	0
 6047 0d37 25       		.uleb128 0x25
 6048 0d38 36030000 		.4byte	.LVL165
 6049 0d3c 602D0000 		.4byte	0x2d60
 6050 0d40 21       		.uleb128 0x21
 6051 0d41 01       		.uleb128 0x1
 6052 0d42 50       		.byte	0x50
 6053 0d43 03       		.uleb128 0x3
 6054 0d44 91       		.byte	0x91
 6055 0d45 4C       		.sleb128 -52
 6056 0d46 06       		.byte	0x6
 6057 0d47 00       		.byte	0
 6058 0d48 00       		.byte	0
 6059 0d49 23       		.uleb128 0x23
 6060 0d4a 2C020000 		.4byte	.LVL120
 6061 0d4e 6B2D0000 		.4byte	0x2d6b
 6062 0d52 640D0000 		.4byte	0xd64
 6063 0d56 21       		.uleb128 0x21
 6064 0d57 01       		.uleb128 0x1
 6065 0d58 50       		.byte	0x50
 6066 0d59 02       		.uleb128 0x2
 6067 0d5a 74       		.byte	0x74
 6068 0d5b 00       		.sleb128 0
 6069 0d5c 21       		.uleb128 0x21
 6070 0d5d 01       		.uleb128 0x1
 6071 0d5e 51       		.byte	0x51
 6072 0d5f 03       		.uleb128 0x3
 6073 0d60 91       		.byte	0x91
 6074 0d61 48       		.sleb128 -56
 6075 0d62 06       		.byte	0x6
 6076 0d63 00       		.byte	0
 6077 0d64 23       		.uleb128 0x23
 6078 0d65 54020000 		.4byte	.LVL126
 6079 0d69 3F2D0000 		.4byte	0x2d3f
 6080 0d6d 780D0000 		.4byte	0xd78
 6081 0d71 21       		.uleb128 0x21
 6082 0d72 01       		.uleb128 0x1
 6083 0d73 50       		.byte	0x50
 6084 0d74 02       		.uleb128 0x2
 6085 0d75 77       		.byte	0x77
 6086 0d76 00       		.sleb128 0
 6087 0d77 00       		.byte	0
 6088 0d78 23       		.uleb128 0x23
 6089 0d79 5C020000 		.4byte	.LVL127
 6090 0d7d 4A2D0000 		.4byte	0x2d4a
 6091 0d81 980D0000 		.4byte	0xd98
 6092 0d85 21       		.uleb128 0x21
 6093 0d86 01       		.uleb128 0x1
 6094 0d87 50       		.byte	0x50
 6095 0d88 05       		.uleb128 0x5
 6096 0d89 03       		.byte	0x3
 6097 0d8a 7C000000 		.4byte	.LC7
 6098 0d8e 21       		.uleb128 0x21
 6099 0d8f 01       		.uleb128 0x1
ARM GAS  C:\Users\Phuong\AppData\Local\Temp\ccu7x7Ah.s 			page 136


 6100 0d90 51       		.byte	0x51
 6101 0d91 05       		.uleb128 0x5
 6102 0d92 03       		.byte	0x3
 6103 0d93 DC010000 		.4byte	.LC27
 6104 0d97 00       		.byte	0
 6105 0d98 25       		.uleb128 0x25
 6106 0d99 3C030000 		.4byte	.LVL166
 6107 0d9d 602D0000 		.4byte	0x2d60
 6108 0da1 21       		.uleb128 0x21
 6109 0da2 01       		.uleb128 0x1
 6110 0da3 50       		.byte	0x50
 6111 0da4 03       		.uleb128 0x3
 6112 0da5 91       		.byte	0x91
 6113 0da6 48       		.sleb128 -56
 6114 0da7 06       		.byte	0x6
 6115 0da8 00       		.byte	0
 6116 0da9 00       		.byte	0
 6117 0daa 23       		.uleb128 0x23
 6118 0dab F6010000 		.4byte	.LVL109
 6119 0daf 762D0000 		.4byte	0x2d76
 6120 0db3 C10D0000 		.4byte	0xdc1
 6121 0db7 21       		.uleb128 0x21
 6122 0db8 01       		.uleb128 0x1
 6123 0db9 50       		.byte	0x50
 6124 0dba 05       		.uleb128 0x5
 6125 0dbb 03       		.byte	0x3
 6126 0dbc 98010000 		.4byte	.LC23
 6127 0dc0 00       		.byte	0
 6128 0dc1 25       		.uleb128 0x25
 6129 0dc2 1E020000 		.4byte	.LVL115
 6130 0dc6 3F2D0000 		.4byte	0x2d3f
 6131 0dca 21       		.uleb128 0x21
 6132 0dcb 01       		.uleb128 0x1
 6133 0dcc 50       		.byte	0x50
 6134 0dcd 02       		.uleb128 0x2
 6135 0dce 77       		.byte	0x77
 6136 0dcf 00       		.sleb128 0
 6137 0dd0 00       		.byte	0
 6138 0dd1 00       		.byte	0
 6139 0dd2 17       		.uleb128 0x17
 6140 0dd3 C4010000 		.4byte	.LVL98
 6141 0dd7 812D0000 		.4byte	0x2d81
 6142 0ddb 23       		.uleb128 0x23
 6143 0ddc EA010000 		.4byte	.LVL104
 6144 0de0 3F2D0000 		.4byte	0x2d3f
 6145 0de4 EF0D0000 		.4byte	0xdef
 6146 0de8 21       		.uleb128 0x21
 6147 0de9 01       		.uleb128 0x1
 6148 0dea 50       		.byte	0x50
 6149 0deb 02       		.uleb128 0x2
 6150 0dec 77       		.byte	0x77
 6151 0ded 00       		.sleb128 0
 6152 0dee 00       		.byte	0
 6153 0def 17       		.uleb128 0x17
 6154 0df0 42030000 		.4byte	.LVL167
 6155 0df4 602D0000 		.4byte	0x2d60
 6156 0df8 00       		.byte	0
ARM GAS  C:\Users\Phuong\AppData\Local\Temp\ccu7x7Ah.s 			page 137


 6157 0df9 23       		.uleb128 0x23
 6158 0dfa 8A010000 		.4byte	.LVL88
 6159 0dfe 8C2D0000 		.4byte	0x2d8c
 6160 0e02 130E0000 		.4byte	0xe13
 6161 0e06 21       		.uleb128 0x21
 6162 0e07 01       		.uleb128 0x1
 6163 0e08 50       		.byte	0x50
 6164 0e09 02       		.uleb128 0x2
 6165 0e0a 74       		.byte	0x74
 6166 0e0b 00       		.sleb128 0
 6167 0e0c 21       		.uleb128 0x21
 6168 0e0d 01       		.uleb128 0x1
 6169 0e0e 51       		.byte	0x51
 6170 0e0f 02       		.uleb128 0x2
 6171 0e10 91       		.byte	0x91
 6172 0e11 54       		.sleb128 -44
 6173 0e12 00       		.byte	0
 6174 0e13 23       		.uleb128 0x23
 6175 0e14 B0010000 		.4byte	.LVL93
 6176 0e18 3F2D0000 		.4byte	0x2d3f
 6177 0e1c 270E0000 		.4byte	0xe27
 6178 0e20 21       		.uleb128 0x21
 6179 0e21 01       		.uleb128 0x1
 6180 0e22 50       		.byte	0x50
 6181 0e23 02       		.uleb128 0x2
 6182 0e24 77       		.byte	0x77
 6183 0e25 00       		.sleb128 0
 6184 0e26 00       		.byte	0
 6185 0e27 25       		.uleb128 0x25
 6186 0e28 B8010000 		.4byte	.LVL94
 6187 0e2c 4A2D0000 		.4byte	0x2d4a
 6188 0e30 21       		.uleb128 0x21
 6189 0e31 01       		.uleb128 0x1
 6190 0e32 50       		.byte	0x50
 6191 0e33 05       		.uleb128 0x5
 6192 0e34 03       		.byte	0x3
 6193 0e35 7C000000 		.4byte	.LC7
 6194 0e39 21       		.uleb128 0x21
 6195 0e3a 01       		.uleb128 0x1
 6196 0e3b 51       		.byte	0x51
 6197 0e3c 05       		.uleb128 0x5
 6198 0e3d 03       		.byte	0x3
 6199 0e3e 4C010000 		.4byte	.LC19
 6200 0e42 00       		.byte	0
 6201 0e43 00       		.byte	0
 6202 0e44 23       		.uleb128 0x23
 6203 0e45 4E010000 		.4byte	.LVL78
 6204 0e49 972D0000 		.4byte	0x2d97
 6205 0e4d 630E0000 		.4byte	0xe63
 6206 0e51 21       		.uleb128 0x21
 6207 0e52 01       		.uleb128 0x1
 6208 0e53 50       		.byte	0x50
 6209 0e54 02       		.uleb128 0x2
 6210 0e55 74       		.byte	0x74
 6211 0e56 00       		.sleb128 0
 6212 0e57 21       		.uleb128 0x21
 6213 0e58 01       		.uleb128 0x1
ARM GAS  C:\Users\Phuong\AppData\Local\Temp\ccu7x7Ah.s 			page 138


 6214 0e59 51       		.byte	0x51
 6215 0e5a 01       		.uleb128 0x1
 6216 0e5b 30       		.byte	0x30
 6217 0e5c 21       		.uleb128 0x21
 6218 0e5d 01       		.uleb128 0x1
 6219 0e5e 52       		.byte	0x52
 6220 0e5f 02       		.uleb128 0x2
 6221 0e60 91       		.byte	0x91
 6222 0e61 5C       		.sleb128 -36
 6223 0e62 00       		.byte	0
 6224 0e63 23       		.uleb128 0x23
 6225 0e64 58010000 		.4byte	.LVL79
 6226 0e68 3F2D0000 		.4byte	0x2d3f
 6227 0e6c 770E0000 		.4byte	0xe77
 6228 0e70 21       		.uleb128 0x21
 6229 0e71 01       		.uleb128 0x1
 6230 0e72 50       		.byte	0x50
 6231 0e73 02       		.uleb128 0x2
 6232 0e74 77       		.byte	0x77
 6233 0e75 00       		.sleb128 0
 6234 0e76 00       		.byte	0
 6235 0e77 25       		.uleb128 0x25
 6236 0e78 7C010000 		.4byte	.LVL84
 6237 0e7c 4A2D0000 		.4byte	0x2d4a
 6238 0e80 21       		.uleb128 0x21
 6239 0e81 01       		.uleb128 0x1
 6240 0e82 50       		.byte	0x50
 6241 0e83 05       		.uleb128 0x5
 6242 0e84 03       		.byte	0x3
 6243 0e85 7C000000 		.4byte	.LC7
 6244 0e89 21       		.uleb128 0x21
 6245 0e8a 01       		.uleb128 0x1
 6246 0e8b 51       		.byte	0x51
 6247 0e8c 05       		.uleb128 0x5
 6248 0e8d 03       		.byte	0x3
 6249 0e8e 20010000 		.4byte	.LC17
 6250 0e92 00       		.byte	0
 6251 0e93 00       		.byte	0
 6252 0e94 17       		.uleb128 0x17
 6253 0e95 D8000000 		.4byte	.LVL57
 6254 0e99 A22D0000 		.4byte	0x2da2
 6255 0e9d 23       		.uleb128 0x23
 6256 0e9e E2000000 		.4byte	.LVL59
 6257 0ea2 3F2D0000 		.4byte	0x2d3f
 6258 0ea6 B10E0000 		.4byte	0xeb1
 6259 0eaa 21       		.uleb128 0x21
 6260 0eab 01       		.uleb128 0x1
 6261 0eac 50       		.byte	0x50
 6262 0ead 02       		.uleb128 0x2
 6263 0eae 77       		.byte	0x77
 6264 0eaf 00       		.sleb128 0
 6265 0eb0 00       		.byte	0
 6266 0eb1 23       		.uleb128 0x23
 6267 0eb2 10010000 		.4byte	.LVL68
 6268 0eb6 AD2D0000 		.4byte	0x2dad
 6269 0eba C50E0000 		.4byte	0xec5
 6270 0ebe 21       		.uleb128 0x21
ARM GAS  C:\Users\Phuong\AppData\Local\Temp\ccu7x7Ah.s 			page 139


 6271 0ebf 01       		.uleb128 0x1
 6272 0ec0 51       		.byte	0x51
 6273 0ec1 02       		.uleb128 0x2
 6274 0ec2 77       		.byte	0x77
 6275 0ec3 04       		.sleb128 4
 6276 0ec4 00       		.byte	0
 6277 0ec5 23       		.uleb128 0x23
 6278 0ec6 1A010000 		.4byte	.LVL69
 6279 0eca 3F2D0000 		.4byte	0x2d3f
 6280 0ece D90E0000 		.4byte	0xed9
 6281 0ed2 21       		.uleb128 0x21
 6282 0ed3 01       		.uleb128 0x1
 6283 0ed4 50       		.byte	0x50
 6284 0ed5 02       		.uleb128 0x2
 6285 0ed6 77       		.byte	0x77
 6286 0ed7 00       		.sleb128 0
 6287 0ed8 00       		.byte	0
 6288 0ed9 25       		.uleb128 0x25
 6289 0eda 3E010000 		.4byte	.LVL74
 6290 0ede 4A2D0000 		.4byte	0x2d4a
 6291 0ee2 21       		.uleb128 0x21
 6292 0ee3 01       		.uleb128 0x1
 6293 0ee4 50       		.byte	0x50
 6294 0ee5 05       		.uleb128 0x5
 6295 0ee6 03       		.byte	0x3
 6296 0ee7 7C000000 		.4byte	.LC7
 6297 0eeb 21       		.uleb128 0x21
 6298 0eec 01       		.uleb128 0x1
 6299 0eed 51       		.byte	0x51
 6300 0eee 05       		.uleb128 0x5
 6301 0eef 03       		.byte	0x3
 6302 0ef0 F4000000 		.4byte	.LC15
 6303 0ef4 00       		.byte	0
 6304 0ef5 00       		.byte	0
 6305 0ef6 25       		.uleb128 0x25
 6306 0ef7 A4000000 		.4byte	.LVL47
 6307 0efb B82D0000 		.4byte	0x2db8
 6308 0eff 21       		.uleb128 0x21
 6309 0f00 01       		.uleb128 0x1
 6310 0f01 50       		.byte	0x50
 6311 0f02 01       		.uleb128 0x1
 6312 0f03 44       		.byte	0x44
 6313 0f04 00       		.byte	0
 6314 0f05 00       		.byte	0
 6315 0f06 23       		.uleb128 0x23
 6316 0f07 70000000 		.4byte	.LVL39
 6317 0f0b C32D0000 		.4byte	0x2dc3
 6318 0f0f 1A0F0000 		.4byte	0xf1a
 6319 0f13 21       		.uleb128 0x21
 6320 0f14 01       		.uleb128 0x1
 6321 0f15 51       		.byte	0x51
 6322 0f16 02       		.uleb128 0x2
 6323 0f17 91       		.byte	0x91
 6324 0f18 50       		.sleb128 -48
 6325 0f19 00       		.byte	0
 6326 0f1a 23       		.uleb128 0x23
 6327 0f1b 98000000 		.4byte	.LVL44
ARM GAS  C:\Users\Phuong\AppData\Local\Temp\ccu7x7Ah.s 			page 140


 6328 0f1f 4A2D0000 		.4byte	0x2d4a
 6329 0f23 3A0F0000 		.4byte	0xf3a
 6330 0f27 21       		.uleb128 0x21
 6331 0f28 01       		.uleb128 0x1
 6332 0f29 50       		.byte	0x50
 6333 0f2a 05       		.uleb128 0x5
 6334 0f2b 03       		.byte	0x3
 6335 0f2c 7C000000 		.4byte	.LC7
 6336 0f30 21       		.uleb128 0x21
 6337 0f31 01       		.uleb128 0x1
 6338 0f32 51       		.byte	0x51
 6339 0f33 05       		.uleb128 0x5
 6340 0f34 03       		.byte	0x3
 6341 0f35 90000000 		.4byte	.LC9
 6342 0f39 00       		.byte	0
 6343 0f3a 17       		.uleb128 0x17
 6344 0f3b 54030000 		.4byte	.LVL173
 6345 0f3f CE2D0000 		.4byte	0x2dce
 6346 0f43 00       		.byte	0
 6347 0f44 23       		.uleb128 0x23
 6348 0f45 3A000000 		.4byte	.LVL31
 6349 0f49 D92D0000 		.4byte	0x2dd9
 6350 0f4d 5E0F0000 		.4byte	0xf5e
 6351 0f51 21       		.uleb128 0x21
 6352 0f52 01       		.uleb128 0x1
 6353 0f53 50       		.byte	0x50
 6354 0f54 02       		.uleb128 0x2
 6355 0f55 74       		.byte	0x74
 6356 0f56 00       		.sleb128 0
 6357 0f57 21       		.uleb128 0x21
 6358 0f58 01       		.uleb128 0x1
 6359 0f59 51       		.byte	0x51
 6360 0f5a 02       		.uleb128 0x2
 6361 0f5b 91       		.byte	0x91
 6362 0f5c 64       		.sleb128 -28
 6363 0f5d 00       		.byte	0
 6364 0f5e 23       		.uleb128 0x23
 6365 0f5f 62000000 		.4byte	.LVL36
 6366 0f63 4A2D0000 		.4byte	0x2d4a
 6367 0f67 7E0F0000 		.4byte	0xf7e
 6368 0f6b 21       		.uleb128 0x21
 6369 0f6c 01       		.uleb128 0x1
 6370 0f6d 50       		.byte	0x50
 6371 0f6e 05       		.uleb128 0x5
 6372 0f6f 03       		.byte	0x3
 6373 0f70 7C000000 		.4byte	.LC7
 6374 0f74 21       		.uleb128 0x21
 6375 0f75 01       		.uleb128 0x1
 6376 0f76 51       		.byte	0x51
 6377 0f77 05       		.uleb128 0x5
 6378 0f78 03       		.byte	0x3
 6379 0f79 58000000 		.4byte	.LC5
 6380 0f7d 00       		.byte	0
 6381 0f7e 17       		.uleb128 0x17
 6382 0f7f B0030000 		.4byte	.LVL176
 6383 0f83 E42D0000 		.4byte	0x2de4
 6384 0f87 00       		.byte	0
ARM GAS  C:\Users\Phuong\AppData\Local\Temp\ccu7x7Ah.s 			page 141


 6385 0f88 0F       		.uleb128 0xf
 6386 0f89 99000000 		.4byte	0x99
 6387 0f8d 980F0000 		.4byte	0xf98
 6388 0f91 10       		.uleb128 0x10
 6389 0f92 7D000000 		.4byte	0x7d
 6390 0f96 13       		.byte	0x13
 6391 0f97 00       		.byte	0
 6392 0f98 07       		.uleb128 0x7
 6393 0f99 880F0000 		.4byte	0xf88
 6394 0f9d 06       		.uleb128 0x6
 6395 0f9e 04       		.byte	0x4
 6396 0f9f B7040000 		.4byte	0x4b7
 6397 0fa3 26       		.uleb128 0x26
 6398 0fa4 4B070000 		.4byte	.LASF122
 6399 0fa8 01       		.byte	0x1
 6400 0fa9 3C       		.byte	0x3c
 6401 0faa 00000000 		.4byte	.LFB1
 6402 0fae 64000000 		.4byte	.LFE1-.LFB1
 6403 0fb2 01       		.uleb128 0x1
 6404 0fb3 9C       		.byte	0x9c
 6405 0fb4 1C100000 		.4byte	0x101c
 6406 0fb8 15       		.uleb128 0x15
 6407 0fb9 73010000 		.4byte	.LASF102
 6408 0fbd 01       		.byte	0x1
 6409 0fbe 3C       		.byte	0x3c
 6410 0fbf 1C100000 		.4byte	0x101c
 6411 0fc3 60090000 		.4byte	.LLST37
 6412 0fc7 15       		.uleb128 0x15
 6413 0fc8 2E000000 		.4byte	.LASF123
 6414 0fcc 01       		.byte	0x1
 6415 0fcd 3C       		.byte	0x3c
 6416 0fce DA020000 		.4byte	0x2da
 6417 0fd2 8C090000 		.4byte	.LLST38
 6418 0fd6 27       		.uleb128 0x27
 6419 0fd7 6900     		.ascii	"i\000"
 6420 0fd9 01       		.byte	0x1
 6421 0fda 3E       		.byte	0x3e
 6422 0fdb 25000000 		.4byte	0x25
 6423 0fdf B8090000 		.4byte	.LLST39
 6424 0fe3 1E       		.uleb128 0x1e
 6425 0fe4 4E000000 		.4byte	.LBB48
 6426 0fe8 0E000000 		.4byte	.LBE48-.LBB48
 6427 0fec 09100000 		.4byte	0x1009
 6428 0ff0 16       		.uleb128 0x16
 6429 0ff1 CB110000 		.4byte	.LASF115
 6430 0ff5 01       		.byte	0x1
 6431 0ff6 56       		.byte	0x56
 6432 0ff7 78040000 		.4byte	0x478
 6433 0ffb D7090000 		.4byte	.LLST40
 6434 0fff 17       		.uleb128 0x17
 6435 1000 56000000 		.4byte	.LVL190
 6436 1004 A22D0000 		.4byte	0x2da2
 6437 1008 00       		.byte	0
 6438 1009 17       		.uleb128 0x17
 6439 100a 2E000000 		.4byte	.LVL186
 6440 100e EF2D0000 		.4byte	0x2def
 6441 1012 17       		.uleb128 0x17
ARM GAS  C:\Users\Phuong\AppData\Local\Temp\ccu7x7Ah.s 			page 142


 6442 1013 48000000 		.4byte	.LVL189
 6443 1017 3F2D0000 		.4byte	0x2d3f
 6444 101b 00       		.byte	0
 6445 101c 06       		.uleb128 0x6
 6446 101d 04       		.byte	0x4
 6447 101e 7E040000 		.4byte	0x47e
 6448 1022 28       		.uleb128 0x28
 6449 1023 B2090000 		.4byte	.LASF125
 6450 1027 01       		.byte	0x1
 6451 1028 5E       		.byte	0x5e
 6452 1029 10030000 		.4byte	0x310
 6453 102d 00000000 		.4byte	.LFB2
 6454 1031 4C010000 		.4byte	.LFE2-.LFB2
 6455 1035 01       		.uleb128 0x1
 6456 1036 9C       		.byte	0x9c
 6457 1037 25130000 		.4byte	0x1325
 6458 103b 15       		.uleb128 0x15
 6459 103c 20090000 		.4byte	.LASF70
 6460 1040 01       		.byte	0x1
 6461 1041 5E       		.byte	0x5e
 6462 1042 93000000 		.4byte	0x93
 6463 1046 EA090000 		.4byte	.LLST41
 6464 104a 15       		.uleb128 0x15
 6465 104b D5020000 		.4byte	.LASF68
 6466 104f 01       		.byte	0x1
 6467 1050 5E       		.byte	0x5e
 6468 1051 93000000 		.4byte	0x93
 6469 1055 900A0000 		.4byte	.LLST42
 6470 1059 15       		.uleb128 0x15
 6471 105a D0000000 		.4byte	.LASF69
 6472 105e 01       		.byte	0x1
 6473 105f 5E       		.byte	0x5e
 6474 1060 93000000 		.4byte	0x93
 6475 1064 D20A0000 		.4byte	.LLST43
 6476 1068 16       		.uleb128 0x16
 6477 1069 AC030000 		.4byte	.LASF112
 6478 106d 01       		.byte	0x1
 6479 106e 60       		.byte	0x60
 6480 106f 1C100000 		.4byte	0x101c
 6481 1073 140B0000 		.4byte	.LLST44
 6482 1077 1D       		.uleb128 0x1d
 6483 1078 1F110000 		.4byte	.LASF124
 6484 107c 35130000 		.4byte	0x1335
 6485 1080 05       		.uleb128 0x5
 6486 1081 03       		.byte	0x3
 6487 1082 14000000 		.4byte	__func__.7734
 6488 1086 1E       		.uleb128 0x1e
 6489 1087 12000000 		.4byte	.LBB49
 6490 108b 22000000 		.4byte	.LBE49-.LBB49
 6491 108f EE100000 		.4byte	0x10ee
 6492 1093 27       		.uleb128 0x27
 6493 1094 6C00     		.ascii	"l\000"
 6494 1096 01       		.byte	0x1
 6495 1097 67       		.byte	0x67
 6496 1098 D3000000 		.4byte	0xd3
 6497 109c BB0B0000 		.4byte	.LLST45
 6498 10a0 17       		.uleb128 0x17
ARM GAS  C:\Users\Phuong\AppData\Local\Temp\ccu7x7Ah.s 			page 143


 6499 10a1 16000000 		.4byte	.LVL197
 6500 10a5 292D0000 		.4byte	0x2d29
 6501 10a9 20       		.uleb128 0x20
 6502 10aa 34000000 		.4byte	.LVL200
 6503 10ae 02       		.uleb128 0x2
 6504 10af 74       		.byte	0x74
 6505 10b0 00       		.sleb128 0
 6506 10b1 21       		.uleb128 0x21
 6507 10b2 01       		.uleb128 0x1
 6508 10b3 50       		.byte	0x50
 6509 10b4 01       		.uleb128 0x1
 6510 10b5 30       		.byte	0x30
 6511 10b6 21       		.uleb128 0x21
 6512 10b7 01       		.uleb128 0x1
 6513 10b8 51       		.byte	0x51
 6514 10b9 05       		.uleb128 0x5
 6515 10ba 03       		.byte	0x3
 6516 10bb 00000000 		.4byte	.LC1
 6517 10bf 21       		.uleb128 0x21
 6518 10c0 01       		.uleb128 0x1
 6519 10c1 52       		.byte	0x52
 6520 10c2 05       		.uleb128 0x5
 6521 10c3 03       		.byte	0x3
 6522 10c4 14000000 		.4byte	.LANCHOR0+20
 6523 10c8 21       		.uleb128 0x21
 6524 10c9 01       		.uleb128 0x1
 6525 10ca 53       		.byte	0x53
 6526 10cb 02       		.uleb128 0x2
 6527 10cc 08       		.byte	0x8
 6528 10cd 67       		.byte	0x67
 6529 10ce 21       		.uleb128 0x21
 6530 10cf 02       		.uleb128 0x2
 6531 10d0 7D       		.byte	0x7d
 6532 10d1 00       		.sleb128 0
 6533 10d2 01       		.uleb128 0x1
 6534 10d3 31       		.byte	0x31
 6535 10d4 21       		.uleb128 0x21
 6536 10d5 02       		.uleb128 0x2
 6537 10d6 7D       		.byte	0x7d
 6538 10d7 04       		.sleb128 4
 6539 10d8 05       		.uleb128 0x5
 6540 10d9 03       		.byte	0x3
 6541 10da C4020000 		.4byte	.LC39
 6542 10de 21       		.uleb128 0x21
 6543 10df 02       		.uleb128 0x2
 6544 10e0 7D       		.byte	0x7d
 6545 10e1 08       		.sleb128 8
 6546 10e2 02       		.uleb128 0x2
 6547 10e3 75       		.byte	0x75
 6548 10e4 00       		.sleb128 0
 6549 10e5 21       		.uleb128 0x21
 6550 10e6 02       		.uleb128 0x2
 6551 10e7 7D       		.byte	0x7d
 6552 10e8 0C       		.sleb128 12
 6553 10e9 02       		.uleb128 0x2
 6554 10ea 76       		.byte	0x76
 6555 10eb 00       		.sleb128 0
ARM GAS  C:\Users\Phuong\AppData\Local\Temp\ccu7x7Ah.s 			page 144


 6556 10ec 00       		.byte	0
 6557 10ed 00       		.byte	0
 6558 10ee 1E       		.uleb128 0x1e
 6559 10ef 42000000 		.4byte	.LBB50
 6560 10f3 1E000000 		.4byte	.LBE50-.LBB50
 6561 10f7 48110000 		.4byte	0x1148
 6562 10fb 27       		.uleb128 0x27
 6563 10fc 6C00     		.ascii	"l\000"
 6564 10fe 01       		.byte	0x1
 6565 10ff 71       		.byte	0x71
 6566 1100 D3000000 		.4byte	0xd3
 6567 1104 E40B0000 		.4byte	.LLST46
 6568 1108 17       		.uleb128 0x17
 6569 1109 46000000 		.4byte	.LVL206
 6570 110d 292D0000 		.4byte	0x2d29
 6571 1111 20       		.uleb128 0x20
 6572 1112 5E000000 		.4byte	.LVL209
 6573 1116 02       		.uleb128 0x2
 6574 1117 75       		.byte	0x75
 6575 1118 00       		.sleb128 0
 6576 1119 21       		.uleb128 0x21
 6577 111a 01       		.uleb128 0x1
 6578 111b 50       		.byte	0x50
 6579 111c 01       		.uleb128 0x1
 6580 111d 30       		.byte	0x30
 6581 111e 21       		.uleb128 0x21
 6582 111f 01       		.uleb128 0x1
 6583 1120 51       		.byte	0x51
 6584 1121 05       		.uleb128 0x5
 6585 1122 03       		.byte	0x3
 6586 1123 00000000 		.4byte	.LC1
 6587 1127 21       		.uleb128 0x21
 6588 1128 01       		.uleb128 0x1
 6589 1129 52       		.byte	0x52
 6590 112a 05       		.uleb128 0x5
 6591 112b 03       		.byte	0x3
 6592 112c 14000000 		.4byte	.LANCHOR0+20
 6593 1130 21       		.uleb128 0x21
 6594 1131 01       		.uleb128 0x1
 6595 1132 53       		.byte	0x53
 6596 1133 02       		.uleb128 0x2
 6597 1134 08       		.byte	0x8
 6598 1135 71       		.byte	0x71
 6599 1136 21       		.uleb128 0x21
 6600 1137 02       		.uleb128 0x2
 6601 1138 7D       		.byte	0x7d
 6602 1139 00       		.sleb128 0
 6603 113a 01       		.uleb128 0x1
 6604 113b 31       		.byte	0x31
 6605 113c 21       		.uleb128 0x21
 6606 113d 02       		.uleb128 0x2
 6607 113e 7D       		.byte	0x7d
 6608 113f 04       		.sleb128 4
 6609 1140 05       		.uleb128 0x5
 6610 1141 03       		.byte	0x3
 6611 1142 F0020000 		.4byte	.LC41
 6612 1146 00       		.byte	0
ARM GAS  C:\Users\Phuong\AppData\Local\Temp\ccu7x7Ah.s 			page 145


 6613 1147 00       		.byte	0
 6614 1148 1E       		.uleb128 0x1e
 6615 1149 74000000 		.4byte	.LBB51
 6616 114d 1C000000 		.4byte	.LBE51-.LBB51
 6617 1151 A2110000 		.4byte	0x11a2
 6618 1155 27       		.uleb128 0x27
 6619 1156 6C00     		.ascii	"l\000"
 6620 1158 01       		.byte	0x1
 6621 1159 7B       		.byte	0x7b
 6622 115a D3000000 		.4byte	0xd3
 6623 115e 020C0000 		.4byte	.LLST47
 6624 1162 17       		.uleb128 0x17
 6625 1163 78000000 		.4byte	.LVL213
 6626 1167 292D0000 		.4byte	0x2d29
 6627 116b 20       		.uleb128 0x20
 6628 116c 90000000 		.4byte	.LVL216
 6629 1170 02       		.uleb128 0x2
 6630 1171 75       		.byte	0x75
 6631 1172 00       		.sleb128 0
 6632 1173 21       		.uleb128 0x21
 6633 1174 01       		.uleb128 0x1
 6634 1175 50       		.byte	0x50
 6635 1176 01       		.uleb128 0x1
 6636 1177 30       		.byte	0x30
 6637 1178 21       		.uleb128 0x21
 6638 1179 01       		.uleb128 0x1
 6639 117a 51       		.byte	0x51
 6640 117b 05       		.uleb128 0x5
 6641 117c 03       		.byte	0x3
 6642 117d 00000000 		.4byte	.LC1
 6643 1181 21       		.uleb128 0x21
 6644 1182 01       		.uleb128 0x1
 6645 1183 52       		.byte	0x52
 6646 1184 05       		.uleb128 0x5
 6647 1185 03       		.byte	0x3
 6648 1186 14000000 		.4byte	.LANCHOR0+20
 6649 118a 21       		.uleb128 0x21
 6650 118b 01       		.uleb128 0x1
 6651 118c 53       		.byte	0x53
 6652 118d 02       		.uleb128 0x2
 6653 118e 08       		.byte	0x8
 6654 118f 7B       		.byte	0x7b
 6655 1190 21       		.uleb128 0x21
 6656 1191 02       		.uleb128 0x2
 6657 1192 7D       		.byte	0x7d
 6658 1193 00       		.sleb128 0
 6659 1194 01       		.uleb128 0x1
 6660 1195 31       		.byte	0x31
 6661 1196 21       		.uleb128 0x21
 6662 1197 02       		.uleb128 0x2
 6663 1198 7D       		.byte	0x7d
 6664 1199 04       		.sleb128 4
 6665 119a 05       		.uleb128 0x5
 6666 119b 03       		.byte	0x3
 6667 119c 24030000 		.4byte	.LC43
 6668 11a0 00       		.byte	0
 6669 11a1 00       		.byte	0
ARM GAS  C:\Users\Phuong\AppData\Local\Temp\ccu7x7Ah.s 			page 146


 6670 11a2 1E       		.uleb128 0x1e
 6671 11a3 AA000000 		.4byte	.LBB52
 6672 11a7 1C000000 		.4byte	.LBE52-.LBB52
 6673 11ab FC110000 		.4byte	0x11fc
 6674 11af 27       		.uleb128 0x27
 6675 11b0 6C00     		.ascii	"l\000"
 6676 11b2 01       		.byte	0x1
 6677 11b3 82       		.byte	0x82
 6678 11b4 D3000000 		.4byte	0xd3
 6679 11b8 200C0000 		.4byte	.LLST48
 6680 11bc 17       		.uleb128 0x17
 6681 11bd AE000000 		.4byte	.LVL220
 6682 11c1 292D0000 		.4byte	0x2d29
 6683 11c5 20       		.uleb128 0x20
 6684 11c6 C6000000 		.4byte	.LVL223
 6685 11ca 02       		.uleb128 0x2
 6686 11cb 75       		.byte	0x75
 6687 11cc 00       		.sleb128 0
 6688 11cd 21       		.uleb128 0x21
 6689 11ce 01       		.uleb128 0x1
 6690 11cf 50       		.byte	0x50
 6691 11d0 01       		.uleb128 0x1
 6692 11d1 30       		.byte	0x30
 6693 11d2 21       		.uleb128 0x21
 6694 11d3 01       		.uleb128 0x1
 6695 11d4 51       		.byte	0x51
 6696 11d5 05       		.uleb128 0x5
 6697 11d6 03       		.byte	0x3
 6698 11d7 00000000 		.4byte	.LC1
 6699 11db 21       		.uleb128 0x21
 6700 11dc 01       		.uleb128 0x1
 6701 11dd 52       		.byte	0x52
 6702 11de 05       		.uleb128 0x5
 6703 11df 03       		.byte	0x3
 6704 11e0 14000000 		.4byte	.LANCHOR0+20
 6705 11e4 21       		.uleb128 0x21
 6706 11e5 01       		.uleb128 0x1
 6707 11e6 53       		.byte	0x53
 6708 11e7 02       		.uleb128 0x2
 6709 11e8 08       		.byte	0x8
 6710 11e9 82       		.byte	0x82
 6711 11ea 21       		.uleb128 0x21
 6712 11eb 02       		.uleb128 0x2
 6713 11ec 7D       		.byte	0x7d
 6714 11ed 00       		.sleb128 0
 6715 11ee 01       		.uleb128 0x1
 6716 11ef 31       		.byte	0x31
 6717 11f0 21       		.uleb128 0x21
 6718 11f1 02       		.uleb128 0x2
 6719 11f2 7D       		.byte	0x7d
 6720 11f3 04       		.sleb128 4
 6721 11f4 05       		.uleb128 0x5
 6722 11f5 03       		.byte	0x3
 6723 11f6 24030000 		.4byte	.LC43
 6724 11fa 00       		.byte	0
 6725 11fb 00       		.byte	0
 6726 11fc 1E       		.uleb128 0x1e
ARM GAS  C:\Users\Phuong\AppData\Local\Temp\ccu7x7Ah.s 			page 147


 6727 11fd E4000000 		.4byte	.LBB53
 6728 1201 1C000000 		.4byte	.LBE53-.LBB53
 6729 1205 56120000 		.4byte	0x1256
 6730 1209 27       		.uleb128 0x27
 6731 120a 6C00     		.ascii	"l\000"
 6732 120c 01       		.byte	0x1
 6733 120d 8D       		.byte	0x8d
 6734 120e D3000000 		.4byte	0xd3
 6735 1212 3E0C0000 		.4byte	.LLST49
 6736 1216 17       		.uleb128 0x17
 6737 1217 E8000000 		.4byte	.LVL228
 6738 121b 292D0000 		.4byte	0x2d29
 6739 121f 20       		.uleb128 0x20
 6740 1220 00010000 		.4byte	.LVL231
 6741 1224 02       		.uleb128 0x2
 6742 1225 75       		.byte	0x75
 6743 1226 00       		.sleb128 0
 6744 1227 21       		.uleb128 0x21
 6745 1228 01       		.uleb128 0x1
 6746 1229 50       		.byte	0x50
 6747 122a 01       		.uleb128 0x1
 6748 122b 30       		.byte	0x30
 6749 122c 21       		.uleb128 0x21
 6750 122d 01       		.uleb128 0x1
 6751 122e 51       		.byte	0x51
 6752 122f 05       		.uleb128 0x5
 6753 1230 03       		.byte	0x3
 6754 1231 00000000 		.4byte	.LC1
 6755 1235 21       		.uleb128 0x21
 6756 1236 01       		.uleb128 0x1
 6757 1237 52       		.byte	0x52
 6758 1238 05       		.uleb128 0x5
 6759 1239 03       		.byte	0x3
 6760 123a 14000000 		.4byte	.LANCHOR0+20
 6761 123e 21       		.uleb128 0x21
 6762 123f 01       		.uleb128 0x1
 6763 1240 53       		.byte	0x53
 6764 1241 02       		.uleb128 0x2
 6765 1242 08       		.byte	0x8
 6766 1243 8D       		.byte	0x8d
 6767 1244 21       		.uleb128 0x21
 6768 1245 02       		.uleb128 0x2
 6769 1246 7D       		.byte	0x7d
 6770 1247 00       		.sleb128 0
 6771 1248 01       		.uleb128 0x1
 6772 1249 31       		.byte	0x31
 6773 124a 21       		.uleb128 0x21
 6774 124b 02       		.uleb128 0x2
 6775 124c 7D       		.byte	0x7d
 6776 124d 04       		.sleb128 4
 6777 124e 05       		.uleb128 0x5
 6778 124f 03       		.byte	0x3
 6779 1250 3C030000 		.4byte	.LC45
 6780 1254 00       		.byte	0
 6781 1255 00       		.byte	0
 6782 1256 23       		.uleb128 0x23
 6783 1257 3E000000 		.4byte	.LVL204
ARM GAS  C:\Users\Phuong\AppData\Local\Temp\ccu7x7Ah.s 			page 148


 6784 125b B82D0000 		.4byte	0x2db8
 6785 125f 6A120000 		.4byte	0x126a
 6786 1263 21       		.uleb128 0x21
 6787 1264 01       		.uleb128 0x1
 6788 1265 50       		.byte	0x50
 6789 1266 02       		.uleb128 0x2
 6790 1267 08       		.byte	0x8
 6791 1268 44       		.byte	0x44
 6792 1269 00       		.byte	0
 6793 126a 23       		.uleb128 0x23
 6794 126b 68000000 		.4byte	.LVL211
 6795 126f FA2D0000 		.4byte	0x2dfa
 6796 1273 83120000 		.4byte	0x1283
 6797 1277 21       		.uleb128 0x21
 6798 1278 01       		.uleb128 0x1
 6799 1279 51       		.byte	0x51
 6800 127a 01       		.uleb128 0x1
 6801 127b 30       		.byte	0x30
 6802 127c 21       		.uleb128 0x21
 6803 127d 01       		.uleb128 0x1
 6804 127e 52       		.byte	0x52
 6805 127f 02       		.uleb128 0x2
 6806 1280 08       		.byte	0x8
 6807 1281 44       		.byte	0x44
 6808 1282 00       		.byte	0
 6809 1283 23       		.uleb128 0x23
 6810 1284 70000000 		.4byte	.LVL212
 6811 1288 032E0000 		.4byte	0x2e03
 6812 128c 9D120000 		.4byte	0x129d
 6813 1290 21       		.uleb128 0x21
 6814 1291 01       		.uleb128 0x1
 6815 1292 50       		.byte	0x50
 6816 1293 02       		.uleb128 0x2
 6817 1294 74       		.byte	0x74
 6818 1295 00       		.sleb128 0
 6819 1296 21       		.uleb128 0x21
 6820 1297 01       		.uleb128 0x1
 6821 1298 51       		.byte	0x51
 6822 1299 02       		.uleb128 0x2
 6823 129a 76       		.byte	0x76
 6824 129b 00       		.sleb128 0
 6825 129c 00       		.byte	0
 6826 129d 23       		.uleb128 0x23
 6827 129e 96000000 		.4byte	.LVL217
 6828 12a2 3F2D0000 		.4byte	0x2d3f
 6829 12a6 B1120000 		.4byte	0x12b1
 6830 12aa 21       		.uleb128 0x21
 6831 12ab 01       		.uleb128 0x1
 6832 12ac 50       		.byte	0x50
 6833 12ad 02       		.uleb128 0x2
 6834 12ae 74       		.byte	0x74
 6835 12af 00       		.sleb128 0
 6836 12b0 00       		.byte	0
 6837 12b1 23       		.uleb128 0x23
 6838 12b2 A6000000 		.4byte	.LVL219
 6839 12b6 032E0000 		.4byte	0x2e03
 6840 12ba CB120000 		.4byte	0x12cb
ARM GAS  C:\Users\Phuong\AppData\Local\Temp\ccu7x7Ah.s 			page 149


 6841 12be 21       		.uleb128 0x21
 6842 12bf 01       		.uleb128 0x1
 6843 12c0 50       		.byte	0x50
 6844 12c1 02       		.uleb128 0x2
 6845 12c2 74       		.byte	0x74
 6846 12c3 04       		.sleb128 4
 6847 12c4 21       		.uleb128 0x21
 6848 12c5 01       		.uleb128 0x1
 6849 12c6 51       		.byte	0x51
 6850 12c7 02       		.uleb128 0x2
 6851 12c8 77       		.byte	0x77
 6852 12c9 00       		.sleb128 0
 6853 12ca 00       		.byte	0
 6854 12cb 17       		.uleb128 0x17
 6855 12cc CC000000 		.4byte	.LVL224
 6856 12d0 3F2D0000 		.4byte	0x2d3f
 6857 12d4 23       		.uleb128 0x23
 6858 12d5 D2000000 		.4byte	.LVL225
 6859 12d9 3F2D0000 		.4byte	0x2d3f
 6860 12dd E8120000 		.4byte	0x12e8
 6861 12e1 21       		.uleb128 0x21
 6862 12e2 01       		.uleb128 0x1
 6863 12e3 50       		.byte	0x50
 6864 12e4 02       		.uleb128 0x2
 6865 12e5 74       		.byte	0x74
 6866 12e6 00       		.sleb128 0
 6867 12e7 00       		.byte	0
 6868 12e8 23       		.uleb128 0x23
 6869 12e9 E0000000 		.4byte	.LVL227
 6870 12ed 032E0000 		.4byte	0x2e03
 6871 12f1 02130000 		.4byte	0x1302
 6872 12f5 21       		.uleb128 0x21
 6873 12f6 01       		.uleb128 0x1
 6874 12f7 50       		.byte	0x50
 6875 12f8 02       		.uleb128 0x2
 6876 12f9 74       		.byte	0x74
 6877 12fa 08       		.sleb128 8
 6878 12fb 21       		.uleb128 0x21
 6879 12fc 01       		.uleb128 0x1
 6880 12fd 51       		.byte	0x51
 6881 12fe 02       		.uleb128 0x2
 6882 12ff 75       		.byte	0x75
 6883 1300 00       		.sleb128 0
 6884 1301 00       		.byte	0
 6885 1302 17       		.uleb128 0x17
 6886 1303 06010000 		.4byte	.LVL232
 6887 1307 3F2D0000 		.4byte	0x2d3f
 6888 130b 17       		.uleb128 0x17
 6889 130c 0C010000 		.4byte	.LVL233
 6890 1310 3F2D0000 		.4byte	0x2d3f
 6891 1314 25       		.uleb128 0x25
 6892 1315 12010000 		.4byte	.LVL234
 6893 1319 3F2D0000 		.4byte	0x2d3f
 6894 131d 21       		.uleb128 0x21
 6895 131e 01       		.uleb128 0x1
 6896 131f 50       		.byte	0x50
 6897 1320 02       		.uleb128 0x2
ARM GAS  C:\Users\Phuong\AppData\Local\Temp\ccu7x7Ah.s 			page 150


 6898 1321 74       		.byte	0x74
 6899 1322 00       		.sleb128 0
 6900 1323 00       		.byte	0
 6901 1324 00       		.byte	0
 6902 1325 0F       		.uleb128 0xf
 6903 1326 99000000 		.4byte	0x99
 6904 132a 35130000 		.4byte	0x1335
 6905 132e 10       		.uleb128 0x10
 6906 132f 7D000000 		.4byte	0x7d
 6907 1333 22       		.byte	0x22
 6908 1334 00       		.byte	0
 6909 1335 07       		.uleb128 0x7
 6910 1336 25130000 		.4byte	0x1325
 6911 133a 29       		.uleb128 0x29
 6912 133b 9C090000 		.4byte	.LASF126
 6913 133f 01       		.byte	0x1
 6914 1340 ED01     		.2byte	0x1ed
 6915 1342 09010000 		.4byte	0x109
 6916 1346 00000000 		.4byte	.LFB9
 6917 134a 20000000 		.4byte	.LFE9-.LFB9
 6918 134e 01       		.uleb128 0x1
 6919 134f 9C       		.byte	0x9c
 6920 1350 85130000 		.4byte	0x1385
 6921 1354 1B       		.uleb128 0x1b
 6922 1355 7D060000 		.4byte	.LASF64
 6923 1359 01       		.byte	0x1
 6924 135a ED01     		.2byte	0x1ed
 6925 135c 10030000 		.4byte	0x310
 6926 1360 5C0C0000 		.4byte	.LLST50
 6927 1364 23       		.uleb128 0x23
 6928 1365 10000000 		.4byte	.LVL243
 6929 1369 0E2E0000 		.4byte	0x2e0e
 6930 136d 7B130000 		.4byte	0x137b
 6931 1371 21       		.uleb128 0x21
 6932 1372 01       		.uleb128 0x1
 6933 1373 50       		.byte	0x50
 6934 1374 05       		.uleb128 0x5
 6935 1375 03       		.byte	0x3
 6936 1376 54030000 		.4byte	.LC47
 6937 137a 00       		.byte	0
 6938 137b 17       		.uleb128 0x17
 6939 137c 18000000 		.4byte	.LVL246
 6940 1380 192E0000 		.4byte	0x2e19
 6941 1384 00       		.byte	0
 6942 1385 2A       		.uleb128 0x2a
 6943 1386 3A0C0000 		.4byte	.LASF128
 6944 138a 01       		.byte	0x1
 6945 138b 1F02     		.2byte	0x21f
 6946 138d 37000000 		.4byte	0x37
 6947 1391 00000000 		.4byte	.LFB13
 6948 1395 E4020000 		.4byte	.LFE13-.LFB13
 6949 1399 01       		.uleb128 0x1
 6950 139a 9C       		.byte	0x9c
 6951 139b 4B190000 		.4byte	0x194b
 6952 139f 1B       		.uleb128 0x1b
 6953 13a0 7D060000 		.4byte	.LASF64
 6954 13a4 01       		.byte	0x1
ARM GAS  C:\Users\Phuong\AppData\Local\Temp\ccu7x7Ah.s 			page 151


 6955 13a5 1F02     		.2byte	0x21f
 6956 13a7 10030000 		.4byte	0x310
 6957 13ab 960C0000 		.4byte	.LLST51
 6958 13af 19       		.uleb128 0x19
 6959 13b0 AC030000 		.4byte	.LASF112
 6960 13b4 01       		.byte	0x1
 6961 13b5 2102     		.2byte	0x221
 6962 13b7 37000000 		.4byte	0x37
 6963 13bb CB0E0000 		.4byte	.LLST52
 6964 13bf 19       		.uleb128 0x19
 6965 13c0 E20A0000 		.4byte	.LASF129
 6966 13c4 01       		.byte	0x1
 6967 13c5 2202     		.2byte	0x222
 6968 13c7 73010000 		.4byte	0x173
 6969 13cb 630F0000 		.4byte	.LLST53
 6970 13cf 1D       		.uleb128 0x1d
 6971 13d0 1F110000 		.4byte	.LASF124
 6972 13d4 5B190000 		.4byte	0x195b
 6973 13d8 05       		.uleb128 0x5
 6974 13d9 03       		.byte	0x3
 6975 13da 38000000 		.4byte	__func__.7864
 6976 13de 1E       		.uleb128 0x1e
 6977 13df 12000000 		.4byte	.LBB54
 6978 13e3 1E000000 		.4byte	.LBE54-.LBB54
 6979 13e7 3A140000 		.4byte	0x143a
 6980 13eb 1F       		.uleb128 0x1f
 6981 13ec 6C00     		.ascii	"l\000"
 6982 13ee 01       		.byte	0x1
 6983 13ef 2902     		.2byte	0x229
 6984 13f1 D3000000 		.4byte	0xd3
 6985 13f5 970F0000 		.4byte	.LLST54
 6986 13f9 17       		.uleb128 0x17
 6987 13fa 16000000 		.4byte	.LVL251
 6988 13fe 292D0000 		.4byte	0x2d29
 6989 1402 20       		.uleb128 0x20
 6990 1403 30000000 		.4byte	.LVL254
 6991 1407 02       		.uleb128 0x2
 6992 1408 74       		.byte	0x74
 6993 1409 00       		.sleb128 0
 6994 140a 21       		.uleb128 0x21
 6995 140b 01       		.uleb128 0x1
 6996 140c 50       		.byte	0x50
 6997 140d 01       		.uleb128 0x1
 6998 140e 30       		.byte	0x30
 6999 140f 21       		.uleb128 0x21
 7000 1410 01       		.uleb128 0x1
 7001 1411 51       		.byte	0x51
 7002 1412 05       		.uleb128 0x5
 7003 1413 03       		.byte	0x3
 7004 1414 00000000 		.4byte	.LC1
 7005 1418 21       		.uleb128 0x21
 7006 1419 01       		.uleb128 0x1
 7007 141a 52       		.byte	0x52
 7008 141b 05       		.uleb128 0x5
 7009 141c 03       		.byte	0x3
 7010 141d 38000000 		.4byte	.LANCHOR0+56
 7011 1421 21       		.uleb128 0x21
ARM GAS  C:\Users\Phuong\AppData\Local\Temp\ccu7x7Ah.s 			page 152


 7012 1422 01       		.uleb128 0x1
 7013 1423 53       		.byte	0x53
 7014 1424 03       		.uleb128 0x3
 7015 1425 0A       		.byte	0xa
 7016 1426 2902     		.2byte	0x229
 7017 1428 21       		.uleb128 0x21
 7018 1429 02       		.uleb128 0x2
 7019 142a 7D       		.byte	0x7d
 7020 142b 00       		.sleb128 0
 7021 142c 01       		.uleb128 0x1
 7022 142d 31       		.byte	0x31
 7023 142e 21       		.uleb128 0x21
 7024 142f 02       		.uleb128 0x2
 7025 1430 7D       		.byte	0x7d
 7026 1431 04       		.sleb128 4
 7027 1432 05       		.uleb128 0x5
 7028 1433 03       		.byte	0x3
 7029 1434 5C030000 		.4byte	.LC51
 7030 1438 00       		.byte	0
 7031 1439 00       		.byte	0
 7032 143a 1E       		.uleb128 0x1e
 7033 143b 36000000 		.4byte	.LBB55
 7034 143f 2C020000 		.4byte	.LBE55-.LBB55
 7035 1443 41190000 		.4byte	0x1941
 7036 1447 19       		.uleb128 0x19
 7037 1448 9D100000 		.4byte	.LASF130
 7038 144c 01       		.byte	0x1
 7039 144d 2F02     		.2byte	0x22f
 7040 144f 1F010000 		.4byte	0x11f
 7041 1453 C00F0000 		.4byte	.LLST55
 7042 1457 1E       		.uleb128 0x1e
 7043 1458 40000000 		.4byte	.LBB56
 7044 145c 1E000000 		.4byte	.LBE56-.LBB56
 7045 1460 B3140000 		.4byte	0x14b3
 7046 1464 1F       		.uleb128 0x1f
 7047 1465 6C00     		.ascii	"l\000"
 7048 1467 01       		.byte	0x1
 7049 1468 3302     		.2byte	0x233
 7050 146a D3000000 		.4byte	0xd3
 7051 146e F40F0000 		.4byte	.LLST56
 7052 1472 17       		.uleb128 0x17
 7053 1473 44000000 		.4byte	.LVL260
 7054 1477 292D0000 		.4byte	0x2d29
 7055 147b 20       		.uleb128 0x20
 7056 147c 5E000000 		.4byte	.LVL263
 7057 1480 02       		.uleb128 0x2
 7058 1481 75       		.byte	0x75
 7059 1482 00       		.sleb128 0
 7060 1483 21       		.uleb128 0x21
 7061 1484 01       		.uleb128 0x1
 7062 1485 50       		.byte	0x50
 7063 1486 01       		.uleb128 0x1
 7064 1487 30       		.byte	0x30
 7065 1488 21       		.uleb128 0x21
 7066 1489 01       		.uleb128 0x1
 7067 148a 51       		.byte	0x51
 7068 148b 05       		.uleb128 0x5
ARM GAS  C:\Users\Phuong\AppData\Local\Temp\ccu7x7Ah.s 			page 153


 7069 148c 03       		.byte	0x3
 7070 148d 00000000 		.4byte	.LC1
 7071 1491 21       		.uleb128 0x21
 7072 1492 01       		.uleb128 0x1
 7073 1493 52       		.byte	0x52
 7074 1494 05       		.uleb128 0x5
 7075 1495 03       		.byte	0x3
 7076 1496 38000000 		.4byte	.LANCHOR0+56
 7077 149a 21       		.uleb128 0x21
 7078 149b 01       		.uleb128 0x1
 7079 149c 53       		.byte	0x53
 7080 149d 03       		.uleb128 0x3
 7081 149e 0A       		.byte	0xa
 7082 149f 3302     		.2byte	0x233
 7083 14a1 21       		.uleb128 0x21
 7084 14a2 02       		.uleb128 0x2
 7085 14a3 7D       		.byte	0x7d
 7086 14a4 00       		.sleb128 0
 7087 14a5 01       		.uleb128 0x1
 7088 14a6 31       		.byte	0x31
 7089 14a7 21       		.uleb128 0x21
 7090 14a8 02       		.uleb128 0x2
 7091 14a9 7D       		.byte	0x7d
 7092 14aa 04       		.sleb128 4
 7093 14ab 05       		.uleb128 0x5
 7094 14ac 03       		.byte	0x3
 7095 14ad B8030000 		.4byte	.LC55
 7096 14b1 00       		.byte	0
 7097 14b2 00       		.byte	0
 7098 14b3 1E       		.uleb128 0x1e
 7099 14b4 66000000 		.4byte	.LBB57
 7100 14b8 EE010000 		.4byte	.LBE57-.LBB57
 7101 14bc 19190000 		.4byte	0x1919
 7102 14c0 19       		.uleb128 0x19
 7103 14c1 57080000 		.4byte	.LASF65
 7104 14c5 01       		.byte	0x1
 7105 14c6 3902     		.2byte	0x239
 7106 14c8 09010000 		.4byte	0x109
 7107 14cc 1D100000 		.4byte	.LLST57
 7108 14d0 19       		.uleb128 0x19
 7109 14d1 580B0000 		.4byte	.LASF131
 7110 14d5 01       		.byte	0x1
 7111 14d6 3A02     		.2byte	0x23a
 7112 14d8 1F010000 		.4byte	0x11f
 7113 14dc 5D100000 		.4byte	.LLST58
 7114 14e0 1E       		.uleb128 0x1e
 7115 14e1 70000000 		.4byte	.LBB58
 7116 14e5 1E000000 		.4byte	.LBE58-.LBB58
 7117 14e9 3C150000 		.4byte	0x153c
 7118 14ed 1F       		.uleb128 0x1f
 7119 14ee 6C00     		.ascii	"l\000"
 7120 14f0 01       		.byte	0x1
 7121 14f1 3F02     		.2byte	0x23f
 7122 14f3 D3000000 		.4byte	0xd3
 7123 14f7 A9100000 		.4byte	.LLST59
 7124 14fb 17       		.uleb128 0x17
 7125 14fc 74000000 		.4byte	.LVL269
ARM GAS  C:\Users\Phuong\AppData\Local\Temp\ccu7x7Ah.s 			page 154


 7126 1500 292D0000 		.4byte	0x2d29
 7127 1504 20       		.uleb128 0x20
 7128 1505 8E000000 		.4byte	.LVL272
 7129 1509 02       		.uleb128 0x2
 7130 150a 77       		.byte	0x77
 7131 150b 00       		.sleb128 0
 7132 150c 21       		.uleb128 0x21
 7133 150d 01       		.uleb128 0x1
 7134 150e 50       		.byte	0x50
 7135 150f 01       		.uleb128 0x1
 7136 1510 30       		.byte	0x30
 7137 1511 21       		.uleb128 0x21
 7138 1512 01       		.uleb128 0x1
 7139 1513 51       		.byte	0x51
 7140 1514 05       		.uleb128 0x5
 7141 1515 03       		.byte	0x3
 7142 1516 00000000 		.4byte	.LC1
 7143 151a 21       		.uleb128 0x21
 7144 151b 01       		.uleb128 0x1
 7145 151c 52       		.byte	0x52
 7146 151d 05       		.uleb128 0x5
 7147 151e 03       		.byte	0x3
 7148 151f 38000000 		.4byte	.LANCHOR0+56
 7149 1523 21       		.uleb128 0x21
 7150 1524 01       		.uleb128 0x1
 7151 1525 53       		.byte	0x53
 7152 1526 03       		.uleb128 0x3
 7153 1527 0A       		.byte	0xa
 7154 1528 3F02     		.2byte	0x23f
 7155 152a 21       		.uleb128 0x21
 7156 152b 02       		.uleb128 0x2
 7157 152c 7D       		.byte	0x7d
 7158 152d 00       		.sleb128 0
 7159 152e 01       		.uleb128 0x1
 7160 152f 31       		.byte	0x31
 7161 1530 21       		.uleb128 0x21
 7162 1531 02       		.uleb128 0x2
 7163 1532 7D       		.byte	0x7d
 7164 1533 04       		.sleb128 4
 7165 1534 05       		.uleb128 0x5
 7166 1535 03       		.byte	0x3
 7167 1536 10040000 		.4byte	.LC57
 7168 153a 00       		.byte	0
 7169 153b 00       		.byte	0
 7170 153c 1E       		.uleb128 0x1e
 7171 153d A2000000 		.4byte	.LBB59
 7172 1541 1E000000 		.4byte	.LBE59-.LBB59
 7173 1545 98150000 		.4byte	0x1598
 7174 1549 1F       		.uleb128 0x1f
 7175 154a 6C00     		.ascii	"l\000"
 7176 154c 01       		.byte	0x1
 7177 154d 4502     		.2byte	0x245
 7178 154f D3000000 		.4byte	0xd3
 7179 1553 D2100000 		.4byte	.LLST60
 7180 1557 17       		.uleb128 0x17
 7181 1558 A6000000 		.4byte	.LVL278
 7182 155c 292D0000 		.4byte	0x2d29
ARM GAS  C:\Users\Phuong\AppData\Local\Temp\ccu7x7Ah.s 			page 155


 7183 1560 20       		.uleb128 0x20
 7184 1561 C0000000 		.4byte	.LVL281
 7185 1565 02       		.uleb128 0x2
 7186 1566 77       		.byte	0x77
 7187 1567 00       		.sleb128 0
 7188 1568 21       		.uleb128 0x21
 7189 1569 01       		.uleb128 0x1
 7190 156a 50       		.byte	0x50
 7191 156b 01       		.uleb128 0x1
 7192 156c 30       		.byte	0x30
 7193 156d 21       		.uleb128 0x21
 7194 156e 01       		.uleb128 0x1
 7195 156f 51       		.byte	0x51
 7196 1570 05       		.uleb128 0x5
 7197 1571 03       		.byte	0x3
 7198 1572 00000000 		.4byte	.LC1
 7199 1576 21       		.uleb128 0x21
 7200 1577 01       		.uleb128 0x1
 7201 1578 52       		.byte	0x52
 7202 1579 05       		.uleb128 0x5
 7203 157a 03       		.byte	0x3
 7204 157b 38000000 		.4byte	.LANCHOR0+56
 7205 157f 21       		.uleb128 0x21
 7206 1580 01       		.uleb128 0x1
 7207 1581 53       		.byte	0x53
 7208 1582 03       		.uleb128 0x3
 7209 1583 0A       		.byte	0xa
 7210 1584 4502     		.2byte	0x245
 7211 1586 21       		.uleb128 0x21
 7212 1587 02       		.uleb128 0x2
 7213 1588 7D       		.byte	0x7d
 7214 1589 00       		.sleb128 0
 7215 158a 01       		.uleb128 0x1
 7216 158b 31       		.byte	0x31
 7217 158c 21       		.uleb128 0x21
 7218 158d 02       		.uleb128 0x2
 7219 158e 7D       		.byte	0x7d
 7220 158f 04       		.sleb128 4
 7221 1590 05       		.uleb128 0x5
 7222 1591 03       		.byte	0x3
 7223 1592 B8030000 		.4byte	.LC55
 7224 1596 00       		.byte	0
 7225 1597 00       		.byte	0
 7226 1598 1E       		.uleb128 0x1e
 7227 1599 D4000000 		.4byte	.LBB60
 7228 159d 20000000 		.4byte	.LBE60-.LBB60
 7229 15a1 F4150000 		.4byte	0x15f4
 7230 15a5 1F       		.uleb128 0x1f
 7231 15a6 6C00     		.ascii	"l\000"
 7232 15a8 01       		.byte	0x1
 7233 15a9 4E02     		.2byte	0x24e
 7234 15ab D3000000 		.4byte	0xd3
 7235 15af FB100000 		.4byte	.LLST61
 7236 15b3 17       		.uleb128 0x17
 7237 15b4 D8000000 		.4byte	.LVL286
 7238 15b8 292D0000 		.4byte	0x2d29
 7239 15bc 20       		.uleb128 0x20
ARM GAS  C:\Users\Phuong\AppData\Local\Temp\ccu7x7Ah.s 			page 156


 7240 15bd F4000000 		.4byte	.LVL289
 7241 15c1 02       		.uleb128 0x2
 7242 15c2 78       		.byte	0x78
 7243 15c3 00       		.sleb128 0
 7244 15c4 21       		.uleb128 0x21
 7245 15c5 01       		.uleb128 0x1
 7246 15c6 50       		.byte	0x50
 7247 15c7 01       		.uleb128 0x1
 7248 15c8 30       		.byte	0x30
 7249 15c9 21       		.uleb128 0x21
 7250 15ca 01       		.uleb128 0x1
 7251 15cb 51       		.byte	0x51
 7252 15cc 05       		.uleb128 0x5
 7253 15cd 03       		.byte	0x3
 7254 15ce 00000000 		.4byte	.LC1
 7255 15d2 21       		.uleb128 0x21
 7256 15d3 01       		.uleb128 0x1
 7257 15d4 52       		.byte	0x52
 7258 15d5 05       		.uleb128 0x5
 7259 15d6 03       		.byte	0x3
 7260 15d7 38000000 		.4byte	.LANCHOR0+56
 7261 15db 21       		.uleb128 0x21
 7262 15dc 01       		.uleb128 0x1
 7263 15dd 53       		.byte	0x53
 7264 15de 03       		.uleb128 0x3
 7265 15df 0A       		.byte	0xa
 7266 15e0 4E02     		.2byte	0x24e
 7267 15e2 21       		.uleb128 0x21
 7268 15e3 02       		.uleb128 0x2
 7269 15e4 7D       		.byte	0x7d
 7270 15e5 00       		.sleb128 0
 7271 15e6 01       		.uleb128 0x1
 7272 15e7 31       		.byte	0x31
 7273 15e8 21       		.uleb128 0x21
 7274 15e9 02       		.uleb128 0x2
 7275 15ea 7D       		.byte	0x7d
 7276 15eb 04       		.sleb128 4
 7277 15ec 05       		.uleb128 0x5
 7278 15ed 03       		.byte	0x3
 7279 15ee 60040000 		.4byte	.LC59
 7280 15f2 00       		.byte	0
 7281 15f3 00       		.byte	0
 7282 15f4 22       		.uleb128 0x22
 7283 15f5 20010000 		.4byte	.Ldebug_ranges0+0x120
 7284 15f9 99180000 		.4byte	0x1899
 7285 15fd 19       		.uleb128 0x19
 7286 15fe 630F0000 		.4byte	.LASF132
 7287 1602 01       		.byte	0x1
 7288 1603 5402     		.2byte	0x254
 7289 1605 1F010000 		.4byte	0x11f
 7290 1609 24110000 		.4byte	.LLST62
 7291 160d 1E       		.uleb128 0x1e
 7292 160e 06010000 		.4byte	.LBB62
 7293 1612 22000000 		.4byte	.LBE62-.LBB62
 7294 1616 69160000 		.4byte	0x1669
 7295 161a 1F       		.uleb128 0x1f
 7296 161b 6C00     		.ascii	"l\000"
ARM GAS  C:\Users\Phuong\AppData\Local\Temp\ccu7x7Ah.s 			page 157


 7297 161d 01       		.byte	0x1
 7298 161e 5802     		.2byte	0x258
 7299 1620 D3000000 		.4byte	0xd3
 7300 1624 66110000 		.4byte	.LLST63
 7301 1628 17       		.uleb128 0x17
 7302 1629 0A010000 		.4byte	.LVL294
 7303 162d 292D0000 		.4byte	0x2d29
 7304 1631 20       		.uleb128 0x20
 7305 1632 28010000 		.4byte	.LVL297
 7306 1636 02       		.uleb128 0x2
 7307 1637 78       		.byte	0x78
 7308 1638 00       		.sleb128 0
 7309 1639 21       		.uleb128 0x21
 7310 163a 01       		.uleb128 0x1
 7311 163b 50       		.byte	0x50
 7312 163c 01       		.uleb128 0x1
 7313 163d 30       		.byte	0x30
 7314 163e 21       		.uleb128 0x21
 7315 163f 01       		.uleb128 0x1
 7316 1640 51       		.byte	0x51
 7317 1641 05       		.uleb128 0x5
 7318 1642 03       		.byte	0x3
 7319 1643 00000000 		.4byte	.LC1
 7320 1647 21       		.uleb128 0x21
 7321 1648 01       		.uleb128 0x1
 7322 1649 52       		.byte	0x52
 7323 164a 05       		.uleb128 0x5
 7324 164b 03       		.byte	0x3
 7325 164c 38000000 		.4byte	.LANCHOR0+56
 7326 1650 21       		.uleb128 0x21
 7327 1651 01       		.uleb128 0x1
 7328 1652 53       		.byte	0x53
 7329 1653 03       		.uleb128 0x3
 7330 1654 0A       		.byte	0xa
 7331 1655 5802     		.2byte	0x258
 7332 1657 21       		.uleb128 0x21
 7333 1658 02       		.uleb128 0x2
 7334 1659 7D       		.byte	0x7d
 7335 165a 00       		.sleb128 0
 7336 165b 01       		.uleb128 0x1
 7337 165c 31       		.byte	0x31
 7338 165d 21       		.uleb128 0x21
 7339 165e 02       		.uleb128 0x2
 7340 165f 7D       		.byte	0x7d
 7341 1660 04       		.sleb128 4
 7342 1661 05       		.uleb128 0x5
 7343 1662 03       		.byte	0x3
 7344 1663 CC040000 		.4byte	.LC63
 7345 1667 00       		.byte	0
 7346 1668 00       		.byte	0
 7347 1669 1E       		.uleb128 0x1e
 7348 166a 2E010000 		.4byte	.LBB63
 7349 166e FA000000 		.4byte	.LBE63-.LBB63
 7350 1672 85180000 		.4byte	0x1885
 7351 1676 19       		.uleb128 0x19
 7352 1677 63050000 		.4byte	.LASF133
 7353 167b 01       		.byte	0x1
ARM GAS  C:\Users\Phuong\AppData\Local\Temp\ccu7x7Ah.s 			page 158


 7354 167c 5E02     		.2byte	0x25e
 7355 167e 1F010000 		.4byte	0x11f
 7356 1682 8F110000 		.4byte	.LLST64
 7357 1686 1E       		.uleb128 0x1e
 7358 1687 3A010000 		.4byte	.LBB64
 7359 168b 1E000000 		.4byte	.LBE64-.LBB64
 7360 168f E2160000 		.4byte	0x16e2
 7361 1693 1F       		.uleb128 0x1f
 7362 1694 6C00     		.ascii	"l\000"
 7363 1696 01       		.byte	0x1
 7364 1697 6202     		.2byte	0x262
 7365 1699 D3000000 		.4byte	0xd3
 7366 169d C5110000 		.4byte	.LLST65
 7367 16a1 17       		.uleb128 0x17
 7368 16a2 3E010000 		.4byte	.LVL303
 7369 16a6 292D0000 		.4byte	0x2d29
 7370 16aa 20       		.uleb128 0x20
 7371 16ab 58010000 		.4byte	.LVL306
 7372 16af 02       		.uleb128 0x2
 7373 16b0 78       		.byte	0x78
 7374 16b1 00       		.sleb128 0
 7375 16b2 21       		.uleb128 0x21
 7376 16b3 01       		.uleb128 0x1
 7377 16b4 50       		.byte	0x50
 7378 16b5 01       		.uleb128 0x1
 7379 16b6 30       		.byte	0x30
 7380 16b7 21       		.uleb128 0x21
 7381 16b8 01       		.uleb128 0x1
 7382 16b9 51       		.byte	0x51
 7383 16ba 05       		.uleb128 0x5
 7384 16bb 03       		.byte	0x3
 7385 16bc 00000000 		.4byte	.LC1
 7386 16c0 21       		.uleb128 0x21
 7387 16c1 01       		.uleb128 0x1
 7388 16c2 52       		.byte	0x52
 7389 16c3 05       		.uleb128 0x5
 7390 16c4 03       		.byte	0x3
 7391 16c5 38000000 		.4byte	.LANCHOR0+56
 7392 16c9 21       		.uleb128 0x21
 7393 16ca 01       		.uleb128 0x1
 7394 16cb 53       		.byte	0x53
 7395 16cc 03       		.uleb128 0x3
 7396 16cd 0A       		.byte	0xa
 7397 16ce 6202     		.2byte	0x262
 7398 16d0 21       		.uleb128 0x21
 7399 16d1 02       		.uleb128 0x2
 7400 16d2 7D       		.byte	0x7d
 7401 16d3 00       		.sleb128 0
 7402 16d4 01       		.uleb128 0x1
 7403 16d5 31       		.byte	0x31
 7404 16d6 21       		.uleb128 0x21
 7405 16d7 02       		.uleb128 0x2
 7406 16d8 7D       		.byte	0x7d
 7407 16d9 04       		.sleb128 4
 7408 16da 05       		.uleb128 0x5
 7409 16db 03       		.byte	0x3
 7410 16dc 24050000 		.4byte	.LC67
ARM GAS  C:\Users\Phuong\AppData\Local\Temp\ccu7x7Ah.s 			page 159


 7411 16e0 00       		.byte	0
 7412 16e1 00       		.byte	0
 7413 16e2 1E       		.uleb128 0x1e
 7414 16e3 6C010000 		.4byte	.LBB65
 7415 16e7 1E000000 		.4byte	.LBE65-.LBB65
 7416 16eb 3E170000 		.4byte	0x173e
 7417 16ef 1F       		.uleb128 0x1f
 7418 16f0 6C00     		.ascii	"l\000"
 7419 16f2 01       		.byte	0x1
 7420 16f3 6B02     		.2byte	0x26b
 7421 16f5 D3000000 		.4byte	0xd3
 7422 16f9 EE110000 		.4byte	.LLST66
 7423 16fd 17       		.uleb128 0x17
 7424 16fe 70010000 		.4byte	.LVL311
 7425 1702 292D0000 		.4byte	0x2d29
 7426 1706 20       		.uleb128 0x20
 7427 1707 8A010000 		.4byte	.LVL314
 7428 170b 02       		.uleb128 0x2
 7429 170c 78       		.byte	0x78
 7430 170d 00       		.sleb128 0
 7431 170e 21       		.uleb128 0x21
 7432 170f 01       		.uleb128 0x1
 7433 1710 50       		.byte	0x50
 7434 1711 01       		.uleb128 0x1
 7435 1712 30       		.byte	0x30
 7436 1713 21       		.uleb128 0x21
 7437 1714 01       		.uleb128 0x1
 7438 1715 51       		.byte	0x51
 7439 1716 05       		.uleb128 0x5
 7440 1717 03       		.byte	0x3
 7441 1718 00000000 		.4byte	.LC1
 7442 171c 21       		.uleb128 0x21
 7443 171d 01       		.uleb128 0x1
 7444 171e 52       		.byte	0x52
 7445 171f 05       		.uleb128 0x5
 7446 1720 03       		.byte	0x3
 7447 1721 38000000 		.4byte	.LANCHOR0+56
 7448 1725 21       		.uleb128 0x21
 7449 1726 01       		.uleb128 0x1
 7450 1727 53       		.byte	0x53
 7451 1728 03       		.uleb128 0x3
 7452 1729 0A       		.byte	0xa
 7453 172a 6B02     		.2byte	0x26b
 7454 172c 21       		.uleb128 0x21
 7455 172d 02       		.uleb128 0x2
 7456 172e 7D       		.byte	0x7d
 7457 172f 00       		.sleb128 0
 7458 1730 01       		.uleb128 0x1
 7459 1731 31       		.byte	0x31
 7460 1732 21       		.uleb128 0x21
 7461 1733 02       		.uleb128 0x2
 7462 1734 7D       		.byte	0x7d
 7463 1735 04       		.sleb128 4
 7464 1736 05       		.uleb128 0x5
 7465 1737 03       		.byte	0x3
 7466 1738 70050000 		.4byte	.LC69
 7467 173c 00       		.byte	0
ARM GAS  C:\Users\Phuong\AppData\Local\Temp\ccu7x7Ah.s 			page 160


 7468 173d 00       		.byte	0
 7469 173e 1E       		.uleb128 0x1e
 7470 173f A4010000 		.4byte	.LBB66
 7471 1743 1E000000 		.4byte	.LBE66-.LBB66
 7472 1747 9A170000 		.4byte	0x179a
 7473 174b 1F       		.uleb128 0x1f
 7474 174c 6C00     		.ascii	"l\000"
 7475 174e 01       		.byte	0x1
 7476 174f 7202     		.2byte	0x272
 7477 1751 D3000000 		.4byte	0xd3
 7478 1755 17120000 		.4byte	.LLST67
 7479 1759 17       		.uleb128 0x17
 7480 175a A8010000 		.4byte	.LVL318
 7481 175e 292D0000 		.4byte	0x2d29
 7482 1762 20       		.uleb128 0x20
 7483 1763 C2010000 		.4byte	.LVL321
 7484 1767 02       		.uleb128 0x2
 7485 1768 78       		.byte	0x78
 7486 1769 00       		.sleb128 0
 7487 176a 21       		.uleb128 0x21
 7488 176b 01       		.uleb128 0x1
 7489 176c 50       		.byte	0x50
 7490 176d 01       		.uleb128 0x1
 7491 176e 30       		.byte	0x30
 7492 176f 21       		.uleb128 0x21
 7493 1770 01       		.uleb128 0x1
 7494 1771 51       		.byte	0x51
 7495 1772 05       		.uleb128 0x5
 7496 1773 03       		.byte	0x3
 7497 1774 00000000 		.4byte	.LC1
 7498 1778 21       		.uleb128 0x21
 7499 1779 01       		.uleb128 0x1
 7500 177a 52       		.byte	0x52
 7501 177b 05       		.uleb128 0x5
 7502 177c 03       		.byte	0x3
 7503 177d 38000000 		.4byte	.LANCHOR0+56
 7504 1781 21       		.uleb128 0x21
 7505 1782 01       		.uleb128 0x1
 7506 1783 53       		.byte	0x53
 7507 1784 03       		.uleb128 0x3
 7508 1785 0A       		.byte	0xa
 7509 1786 7202     		.2byte	0x272
 7510 1788 21       		.uleb128 0x21
 7511 1789 02       		.uleb128 0x2
 7512 178a 7D       		.byte	0x7d
 7513 178b 00       		.sleb128 0
 7514 178c 01       		.uleb128 0x1
 7515 178d 31       		.byte	0x31
 7516 178e 21       		.uleb128 0x21
 7517 178f 02       		.uleb128 0x2
 7518 1790 7D       		.byte	0x7d
 7519 1791 04       		.sleb128 4
 7520 1792 05       		.uleb128 0x5
 7521 1793 03       		.byte	0x3
 7522 1794 B8050000 		.4byte	.LC71
 7523 1798 00       		.byte	0
 7524 1799 00       		.byte	0
ARM GAS  C:\Users\Phuong\AppData\Local\Temp\ccu7x7Ah.s 			page 161


 7525 179a 1E       		.uleb128 0x1e
 7526 179b D6010000 		.4byte	.LBB67
 7527 179f 20000000 		.4byte	.LBE67-.LBB67
 7528 17a3 F6170000 		.4byte	0x17f6
 7529 17a7 1F       		.uleb128 0x1f
 7530 17a8 6C00     		.ascii	"l\000"
 7531 17aa 01       		.byte	0x1
 7532 17ab 7802     		.2byte	0x278
 7533 17ad D3000000 		.4byte	0xd3
 7534 17b1 40120000 		.4byte	.LLST68
 7535 17b5 17       		.uleb128 0x17
 7536 17b6 DA010000 		.4byte	.LVL325
 7537 17ba 292D0000 		.4byte	0x2d29
 7538 17be 20       		.uleb128 0x20
 7539 17bf F6010000 		.4byte	.LVL328
 7540 17c3 02       		.uleb128 0x2
 7541 17c4 78       		.byte	0x78
 7542 17c5 00       		.sleb128 0
 7543 17c6 21       		.uleb128 0x21
 7544 17c7 01       		.uleb128 0x1
 7545 17c8 50       		.byte	0x50
 7546 17c9 01       		.uleb128 0x1
 7547 17ca 30       		.byte	0x30
 7548 17cb 21       		.uleb128 0x21
 7549 17cc 01       		.uleb128 0x1
 7550 17cd 51       		.byte	0x51
 7551 17ce 05       		.uleb128 0x5
 7552 17cf 03       		.byte	0x3
 7553 17d0 00000000 		.4byte	.LC1
 7554 17d4 21       		.uleb128 0x21
 7555 17d5 01       		.uleb128 0x1
 7556 17d6 52       		.byte	0x52
 7557 17d7 05       		.uleb128 0x5
 7558 17d8 03       		.byte	0x3
 7559 17d9 38000000 		.4byte	.LANCHOR0+56
 7560 17dd 21       		.uleb128 0x21
 7561 17de 01       		.uleb128 0x1
 7562 17df 53       		.byte	0x53
 7563 17e0 03       		.uleb128 0x3
 7564 17e1 0A       		.byte	0xa
 7565 17e2 7802     		.2byte	0x278
 7566 17e4 21       		.uleb128 0x21
 7567 17e5 02       		.uleb128 0x2
 7568 17e6 7D       		.byte	0x7d
 7569 17e7 00       		.sleb128 0
 7570 17e8 01       		.uleb128 0x1
 7571 17e9 31       		.byte	0x31
 7572 17ea 21       		.uleb128 0x21
 7573 17eb 02       		.uleb128 0x2
 7574 17ec 7D       		.byte	0x7d
 7575 17ed 04       		.sleb128 4
 7576 17ee 05       		.uleb128 0x5
 7577 17ef 03       		.byte	0x3
 7578 17f0 F4050000 		.4byte	.LC73
 7579 17f4 00       		.byte	0
 7580 17f5 00       		.byte	0
 7581 17f6 23       		.uleb128 0x23
ARM GAS  C:\Users\Phuong\AppData\Local\Temp\ccu7x7Ah.s 			page 162


 7582 17f7 34010000 		.4byte	.LVL301
 7583 17fb 762D0000 		.4byte	0x2d76
 7584 17ff 0D180000 		.4byte	0x180d
 7585 1803 21       		.uleb128 0x21
 7586 1804 01       		.uleb128 0x1
 7587 1805 50       		.byte	0x50
 7588 1806 05       		.uleb128 0x5
 7589 1807 03       		.byte	0x3
 7590 1808 18050000 		.4byte	.LC65
 7591 180c 00       		.byte	0
 7592 180d 23       		.uleb128 0x23
 7593 180e 68010000 		.4byte	.LVL310
 7594 1812 242E0000 		.4byte	0x2e24
 7595 1816 2F180000 		.4byte	0x182f
 7596 181a 21       		.uleb128 0x21
 7597 181b 01       		.uleb128 0x1
 7598 181c 50       		.byte	0x50
 7599 181d 02       		.uleb128 0x2
 7600 181e 74       		.byte	0x74
 7601 181f 00       		.sleb128 0
 7602 1820 21       		.uleb128 0x21
 7603 1821 01       		.uleb128 0x1
 7604 1822 51       		.byte	0x51
 7605 1823 03       		.uleb128 0x3
 7606 1824 91       		.byte	0x91
 7607 1825 5C       		.sleb128 -36
 7608 1826 06       		.byte	0x6
 7609 1827 21       		.uleb128 0x21
 7610 1828 01       		.uleb128 0x1
 7611 1829 52       		.byte	0x52
 7612 182a 03       		.uleb128 0x3
 7613 182b 91       		.byte	0x91
 7614 182c 60       		.sleb128 -32
 7615 182d 06       		.byte	0x6
 7616 182e 00       		.byte	0
 7617 182f 23       		.uleb128 0x23
 7618 1830 A0010000 		.4byte	.LVL317
 7619 1834 2F2E0000 		.4byte	0x2e2f
 7620 1838 4A180000 		.4byte	0x184a
 7621 183c 21       		.uleb128 0x21
 7622 183d 01       		.uleb128 0x1
 7623 183e 50       		.byte	0x50
 7624 183f 03       		.uleb128 0x3
 7625 1840 91       		.byte	0x91
 7626 1841 64       		.sleb128 -28
 7627 1842 06       		.byte	0x6
 7628 1843 21       		.uleb128 0x21
 7629 1844 01       		.uleb128 0x1
 7630 1845 51       		.byte	0x51
 7631 1846 02       		.uleb128 0x2
 7632 1847 74       		.byte	0x74
 7633 1848 00       		.sleb128 0
 7634 1849 00       		.byte	0
 7635 184a 23       		.uleb128 0x23
 7636 184b D2010000 		.4byte	.LVL324
 7637 184f 2F2E0000 		.4byte	0x2e2f
 7638 1853 5E180000 		.4byte	0x185e
ARM GAS  C:\Users\Phuong\AppData\Local\Temp\ccu7x7Ah.s 			page 163


 7639 1857 21       		.uleb128 0x21
 7640 1858 01       		.uleb128 0x1
 7641 1859 51       		.byte	0x51
 7642 185a 02       		.uleb128 0x2
 7643 185b 74       		.byte	0x74
 7644 185c 00       		.sleb128 0
 7645 185d 00       		.byte	0
 7646 185e 23       		.uleb128 0x23
 7647 185f 1A020000 		.4byte	.LVL338
 7648 1863 602D0000 		.4byte	0x2d60
 7649 1867 73180000 		.4byte	0x1873
 7650 186b 21       		.uleb128 0x21
 7651 186c 01       		.uleb128 0x1
 7652 186d 50       		.byte	0x50
 7653 186e 03       		.uleb128 0x3
 7654 186f 91       		.byte	0x91
 7655 1870 60       		.sleb128 -32
 7656 1871 06       		.byte	0x6
 7657 1872 00       		.byte	0
 7658 1873 25       		.uleb128 0x25
 7659 1874 26020000 		.4byte	.LVL341
 7660 1878 602D0000 		.4byte	0x2d60
 7661 187c 21       		.uleb128 0x21
 7662 187d 01       		.uleb128 0x1
 7663 187e 50       		.byte	0x50
 7664 187f 03       		.uleb128 0x3
 7665 1880 91       		.byte	0x91
 7666 1881 5C       		.sleb128 -36
 7667 1882 06       		.byte	0x6
 7668 1883 00       		.byte	0
 7669 1884 00       		.byte	0
 7670 1885 25       		.uleb128 0x25
 7671 1886 00010000 		.4byte	.LVL292
 7672 188a 3A2E0000 		.4byte	0x2e3a
 7673 188e 21       		.uleb128 0x21
 7674 188f 01       		.uleb128 0x1
 7675 1890 50       		.byte	0x50
 7676 1891 05       		.uleb128 0x5
 7677 1892 03       		.byte	0x3
 7678 1893 B0040000 		.4byte	.LC61
 7679 1897 00       		.byte	0
 7680 1898 00       		.byte	0
 7681 1899 23       		.uleb128 0x23
 7682 189a 6C000000 		.4byte	.LVL267
 7683 189e 3A130000 		.4byte	0x133a
 7684 18a2 AE180000 		.4byte	0x18ae
 7685 18a6 21       		.uleb128 0x21
 7686 18a7 01       		.uleb128 0x1
 7687 18a8 50       		.byte	0x50
 7688 18a9 03       		.uleb128 0x3
 7689 18aa 91       		.byte	0x91
 7690 18ab 58       		.sleb128 -40
 7691 18ac 06       		.byte	0x6
 7692 18ad 00       		.byte	0
 7693 18ae 17       		.uleb128 0x17
 7694 18af 9A000000 		.4byte	.LVL275
 7695 18b3 452E0000 		.4byte	0x2e45
ARM GAS  C:\Users\Phuong\AppData\Local\Temp\ccu7x7Ah.s 			page 164


 7696 18b7 17       		.uleb128 0x17
 7697 18b8 9E000000 		.4byte	.LVL276
 7698 18bc 762D0000 		.4byte	0x2d76
 7699 18c0 23       		.uleb128 0x23
 7700 18c1 D0000000 		.4byte	.LVL285
 7701 18c5 242E0000 		.4byte	0x2e24
 7702 18c9 E0180000 		.4byte	0x18e0
 7703 18cd 21       		.uleb128 0x21
 7704 18ce 01       		.uleb128 0x1
 7705 18cf 50       		.byte	0x50
 7706 18d0 02       		.uleb128 0x2
 7707 18d1 74       		.byte	0x74
 7708 18d2 00       		.sleb128 0
 7709 18d3 21       		.uleb128 0x21
 7710 18d4 01       		.uleb128 0x1
 7711 18d5 51       		.byte	0x51
 7712 18d6 02       		.uleb128 0x2
 7713 18d7 75       		.byte	0x75
 7714 18d8 00       		.sleb128 0
 7715 18d9 21       		.uleb128 0x21
 7716 18da 01       		.uleb128 0x1
 7717 18db 52       		.byte	0x52
 7718 18dc 02       		.uleb128 0x2
 7719 18dd 77       		.byte	0x77
 7720 18de 00       		.sleb128 0
 7721 18df 00       		.byte	0
 7722 18e0 23       		.uleb128 0x23
 7723 18e1 38020000 		.4byte	.LVL346
 7724 18e5 602D0000 		.4byte	0x2d60
 7725 18e9 F4180000 		.4byte	0x18f4
 7726 18ed 21       		.uleb128 0x21
 7727 18ee 01       		.uleb128 0x1
 7728 18ef 50       		.byte	0x50
 7729 18f0 02       		.uleb128 0x2
 7730 18f1 77       		.byte	0x77
 7731 18f2 00       		.sleb128 0
 7732 18f3 00       		.byte	0
 7733 18f4 23       		.uleb128 0x23
 7734 18f5 4C020000 		.4byte	.LVL351
 7735 18f9 502E0000 		.4byte	0x2e50
 7736 18fd 08190000 		.4byte	0x1908
 7737 1901 21       		.uleb128 0x21
 7738 1902 01       		.uleb128 0x1
 7739 1903 50       		.byte	0x50
 7740 1904 02       		.uleb128 0x2
 7741 1905 76       		.byte	0x76
 7742 1906 00       		.sleb128 0
 7743 1907 00       		.byte	0
 7744 1908 25       		.uleb128 0x25
 7745 1909 52020000 		.4byte	.LVL352
 7746 190d 602D0000 		.4byte	0x2d60
 7747 1911 21       		.uleb128 0x21
 7748 1912 01       		.uleb128 0x1
 7749 1913 50       		.byte	0x50
 7750 1914 02       		.uleb128 0x2
 7751 1915 75       		.byte	0x75
 7752 1916 00       		.sleb128 0
ARM GAS  C:\Users\Phuong\AppData\Local\Temp\ccu7x7Ah.s 			page 165


 7753 1917 00       		.byte	0
 7754 1918 00       		.byte	0
 7755 1919 23       		.uleb128 0x23
 7756 191a 3C000000 		.4byte	.LVL258
 7757 191e 3A2E0000 		.4byte	0x2e3a
 7758 1922 30190000 		.4byte	0x1930
 7759 1926 21       		.uleb128 0x21
 7760 1927 01       		.uleb128 0x1
 7761 1928 50       		.byte	0x50
 7762 1929 05       		.uleb128 0x5
 7763 192a 03       		.byte	0x3
 7764 192b 90030000 		.4byte	.LC53
 7765 192f 00       		.byte	0
 7766 1930 25       		.uleb128 0x25
 7767 1931 60020000 		.4byte	.LVL355
 7768 1935 602D0000 		.4byte	0x2d60
 7769 1939 21       		.uleb128 0x21
 7770 193a 01       		.uleb128 0x1
 7771 193b 50       		.byte	0x50
 7772 193c 02       		.uleb128 0x2
 7773 193d 74       		.byte	0x74
 7774 193e 00       		.sleb128 0
 7775 193f 00       		.byte	0
 7776 1940 00       		.byte	0
 7777 1941 17       		.uleb128 0x17
 7778 1942 0E000000 		.4byte	.LVL249
 7779 1946 5B2E0000 		.4byte	0x2e5b
 7780 194a 00       		.byte	0
 7781 194b 0F       		.uleb128 0xf
 7782 194c 99000000 		.4byte	0x99
 7783 1950 5B190000 		.4byte	0x195b
 7784 1954 10       		.uleb128 0x10
 7785 1955 7D000000 		.4byte	0x7d
 7786 1959 1A       		.byte	0x1a
 7787 195a 00       		.byte	0
 7788 195b 07       		.uleb128 0x7
 7789 195c 4B190000 		.4byte	0x194b
 7790 1960 29       		.uleb128 0x29
 7791 1961 880C0000 		.4byte	.LASF134
 7792 1965 01       		.byte	0x1
 7793 1966 F901     		.2byte	0x1f9
 7794 1968 09010000 		.4byte	0x109
 7795 196c 00000000 		.4byte	.LFB10
 7796 1970 28000000 		.4byte	.LFE10-.LFB10
 7797 1974 01       		.uleb128 0x1
 7798 1975 9C       		.byte	0x9c
 7799 1976 B5190000 		.4byte	0x19b5
 7800 197a 1B       		.uleb128 0x1b
 7801 197b 7D060000 		.4byte	.LASF64
 7802 197f 01       		.byte	0x1
 7803 1980 F901     		.2byte	0x1f9
 7804 1982 10030000 		.4byte	0x310
 7805 1986 69120000 		.4byte	.LLST69
 7806 198a 23       		.uleb128 0x23
 7807 198b 12000000 		.4byte	.LVL360
 7808 198f 0E2E0000 		.4byte	0x2e0e
 7809 1993 A1190000 		.4byte	0x19a1
ARM GAS  C:\Users\Phuong\AppData\Local\Temp\ccu7x7Ah.s 			page 166


 7810 1997 21       		.uleb128 0x21
 7811 1998 01       		.uleb128 0x1
 7812 1999 50       		.byte	0x50
 7813 199a 05       		.uleb128 0x5
 7814 199b 03       		.byte	0x3
 7815 199c 30060000 		.4byte	.LC75
 7816 19a0 00       		.byte	0
 7817 19a1 25       		.uleb128 0x25
 7818 19a2 1E000000 		.4byte	.LVL363
 7819 19a6 0E2E0000 		.4byte	0x2e0e
 7820 19aa 21       		.uleb128 0x21
 7821 19ab 01       		.uleb128 0x1
 7822 19ac 50       		.byte	0x50
 7823 19ad 05       		.uleb128 0x5
 7824 19ae 03       		.byte	0x3
 7825 19af 68060000 		.4byte	.LC77
 7826 19b3 00       		.byte	0
 7827 19b4 00       		.byte	0
 7828 19b5 29       		.uleb128 0x29
 7829 19b6 3D080000 		.4byte	.LASF135
 7830 19ba 01       		.byte	0x1
 7831 19bb 0502     		.2byte	0x205
 7832 19bd 09010000 		.4byte	0x109
 7833 19c1 00000000 		.4byte	.LFB11
 7834 19c5 24000000 		.4byte	.LFE11-.LFB11
 7835 19c9 01       		.uleb128 0x1
 7836 19ca 9C       		.byte	0x9c
 7837 19cb 0A1A0000 		.4byte	0x1a0a
 7838 19cf 1B       		.uleb128 0x1b
 7839 19d0 7D060000 		.4byte	.LASF64
 7840 19d4 01       		.byte	0x1
 7841 19d5 0502     		.2byte	0x205
 7842 19d7 10030000 		.4byte	0x310
 7843 19db A3120000 		.4byte	.LLST70
 7844 19df 23       		.uleb128 0x23
 7845 19e0 10000000 		.4byte	.LVL366
 7846 19e4 0E2E0000 		.4byte	0x2e0e
 7847 19e8 F6190000 		.4byte	0x19f6
 7848 19ec 21       		.uleb128 0x21
 7849 19ed 01       		.uleb128 0x1
 7850 19ee 50       		.byte	0x50
 7851 19ef 05       		.uleb128 0x5
 7852 19f0 03       		.byte	0x3
 7853 19f1 94060000 		.4byte	.LC79
 7854 19f5 00       		.byte	0
 7855 19f6 25       		.uleb128 0x25
 7856 19f7 1A000000 		.4byte	.LVL369
 7857 19fb 0E2E0000 		.4byte	0x2e0e
 7858 19ff 21       		.uleb128 0x21
 7859 1a00 01       		.uleb128 0x1
 7860 1a01 50       		.byte	0x50
 7861 1a02 05       		.uleb128 0x5
 7862 1a03 03       		.byte	0x3
 7863 1a04 B0060000 		.4byte	.LC81
 7864 1a08 00       		.byte	0
 7865 1a09 00       		.byte	0
 7866 1a0a 29       		.uleb128 0x29
ARM GAS  C:\Users\Phuong\AppData\Local\Temp\ccu7x7Ah.s 			page 167


 7867 1a0b 1A0D0000 		.4byte	.LASF136
 7868 1a0f 01       		.byte	0x1
 7869 1a10 1102     		.2byte	0x211
 7870 1a12 09010000 		.4byte	0x109
 7871 1a16 00000000 		.4byte	.LFB12
 7872 1a1a 24000000 		.4byte	.LFE12-.LFB12
 7873 1a1e 01       		.uleb128 0x1
 7874 1a1f 9C       		.byte	0x9c
 7875 1a20 5F1A0000 		.4byte	0x1a5f
 7876 1a24 1B       		.uleb128 0x1b
 7877 1a25 7D060000 		.4byte	.LASF64
 7878 1a29 01       		.byte	0x1
 7879 1a2a 1102     		.2byte	0x211
 7880 1a2c 10030000 		.4byte	0x310
 7881 1a30 DD120000 		.4byte	.LLST71
 7882 1a34 23       		.uleb128 0x23
 7883 1a35 10000000 		.4byte	.LVL372
 7884 1a39 0E2E0000 		.4byte	0x2e0e
 7885 1a3d 4B1A0000 		.4byte	0x1a4b
 7886 1a41 21       		.uleb128 0x21
 7887 1a42 01       		.uleb128 0x1
 7888 1a43 50       		.byte	0x50
 7889 1a44 05       		.uleb128 0x5
 7890 1a45 03       		.byte	0x3
 7891 1a46 CC060000 		.4byte	.LC83
 7892 1a4a 00       		.byte	0
 7893 1a4b 25       		.uleb128 0x25
 7894 1a4c 1A000000 		.4byte	.LVL375
 7895 1a50 0E2E0000 		.4byte	0x2e0e
 7896 1a54 21       		.uleb128 0x21
 7897 1a55 01       		.uleb128 0x1
 7898 1a56 50       		.byte	0x50
 7899 1a57 05       		.uleb128 0x5
 7900 1a58 03       		.byte	0x3
 7901 1a59 EC060000 		.4byte	.LC85
 7902 1a5d 00       		.byte	0
 7903 1a5e 00       		.byte	0
 7904 1a5f 29       		.uleb128 0x29
 7905 1a60 2E010000 		.4byte	.LASF137
 7906 1a64 01       		.byte	0x1
 7907 1a65 9902     		.2byte	0x299
 7908 1a67 37000000 		.4byte	0x37
 7909 1a6b 00000000 		.4byte	.LFB14
 7910 1a6f 34040000 		.4byte	.LFE14-.LFB14
 7911 1a73 01       		.uleb128 0x1
 7912 1a74 9C       		.byte	0x9c
 7913 1a75 05230000 		.4byte	0x2305
 7914 1a79 1B       		.uleb128 0x1b
 7915 1a7a 7D060000 		.4byte	.LASF64
 7916 1a7e 01       		.byte	0x1
 7917 1a7f 9902     		.2byte	0x299
 7918 1a81 10030000 		.4byte	0x310
 7919 1a85 17130000 		.4byte	.LLST72
 7920 1a89 1B       		.uleb128 0x1b
 7921 1a8a DA0E0000 		.4byte	.LASF138
 7922 1a8e 01       		.byte	0x1
 7923 1a8f 9A02     		.2byte	0x29a
ARM GAS  C:\Users\Phuong\AppData\Local\Temp\ccu7x7Ah.s 			page 168


 7924 1a91 7E010000 		.4byte	0x17e
 7925 1a95 02150000 		.4byte	.LLST73
 7926 1a99 1B       		.uleb128 0x1b
 7927 1a9a CD010000 		.4byte	.LASF77
 7928 1a9e 01       		.byte	0x1
 7929 1a9f 9A02     		.2byte	0x29a
 7930 1aa1 06040000 		.4byte	0x406
 7931 1aa5 5A150000 		.4byte	.LLST74
 7932 1aa9 1B       		.uleb128 0x1b
 7933 1aaa 6F0C0000 		.4byte	.LASF78
 7934 1aae 01       		.byte	0x1
 7935 1aaf 9A02     		.2byte	0x29a
 7936 1ab1 84000000 		.4byte	0x84
 7937 1ab5 E4150000 		.4byte	.LLST75
 7938 1ab9 2B       		.uleb128 0x2b
 7939 1aba 350A0000 		.4byte	.LASF75
 7940 1abe 01       		.byte	0x1
 7941 1abf 9B02     		.2byte	0x29b
 7942 1ac1 11040000 		.4byte	0x411
 7943 1ac5 02       		.uleb128 0x2
 7944 1ac6 91       		.byte	0x91
 7945 1ac7 00       		.sleb128 0
 7946 1ac8 2B       		.uleb128 0x2b
 7947 1ac9 B0080000 		.4byte	.LASF76
 7948 1acd 01       		.byte	0x1
 7949 1ace 9B02     		.2byte	0x29b
 7950 1ad0 84000000 		.4byte	0x84
 7951 1ad4 02       		.uleb128 0x2
 7952 1ad5 91       		.byte	0x91
 7953 1ad6 04       		.sleb128 4
 7954 1ad7 2B       		.uleb128 0x2b
 7955 1ad8 B3110000 		.4byte	.LASF79
 7956 1adc 01       		.byte	0x1
 7957 1add 9C02     		.2byte	0x29c
 7958 1adf 45040000 		.4byte	0x445
 7959 1ae3 02       		.uleb128 0x2
 7960 1ae4 91       		.byte	0x91
 7961 1ae5 08       		.sleb128 8
 7962 1ae6 2B       		.uleb128 0x2b
 7963 1ae7 DA000000 		.4byte	.LASF80
 7964 1aeb 01       		.byte	0x1
 7965 1aec 9C02     		.2byte	0x29c
 7966 1aee 84000000 		.4byte	0x84
 7967 1af2 02       		.uleb128 0x2
 7968 1af3 91       		.byte	0x91
 7969 1af4 0C       		.sleb128 12
 7970 1af5 19       		.uleb128 0x19
 7971 1af6 AC030000 		.4byte	.LASF112
 7972 1afa 01       		.byte	0x1
 7973 1afb 9E02     		.2byte	0x29e
 7974 1afd 37000000 		.4byte	0x37
 7975 1b01 2B160000 		.4byte	.LLST76
 7976 1b05 1D       		.uleb128 0x1d
 7977 1b06 1F110000 		.4byte	.LASF124
 7978 1b0a 15230000 		.4byte	0x2315
 7979 1b0e 05       		.uleb128 0x5
 7980 1b0f 03       		.byte	0x3
ARM GAS  C:\Users\Phuong\AppData\Local\Temp\ccu7x7Ah.s 			page 169


 7981 1b10 54000000 		.4byte	__func__.7911
 7982 1b14 1E       		.uleb128 0x1e
 7983 1b15 28000000 		.4byte	.LBB69
 7984 1b19 2E000000 		.4byte	.LBE69-.LBB69
 7985 1b1d 951B0000 		.4byte	0x1b95
 7986 1b21 1F       		.uleb128 0x1f
 7987 1b22 6C00     		.ascii	"l\000"
 7988 1b24 01       		.byte	0x1
 7989 1b25 A702     		.2byte	0x2a7
 7990 1b27 D3000000 		.4byte	0xd3
 7991 1b2b A2160000 		.4byte	.LLST77
 7992 1b2f 17       		.uleb128 0x17
 7993 1b30 2C000000 		.4byte	.LVL378
 7994 1b34 292D0000 		.4byte	0x2d29
 7995 1b38 20       		.uleb128 0x20
 7996 1b39 56000000 		.4byte	.LVL381
 7997 1b3d 02       		.uleb128 0x2
 7998 1b3e 75       		.byte	0x75
 7999 1b3f 00       		.sleb128 0
 8000 1b40 21       		.uleb128 0x21
 8001 1b41 01       		.uleb128 0x1
 8002 1b42 50       		.byte	0x50
 8003 1b43 01       		.uleb128 0x1
 8004 1b44 30       		.byte	0x30
 8005 1b45 21       		.uleb128 0x21
 8006 1b46 01       		.uleb128 0x1
 8007 1b47 51       		.byte	0x51
 8008 1b48 05       		.uleb128 0x5
 8009 1b49 03       		.byte	0x3
 8010 1b4a 00000000 		.4byte	.LC1
 8011 1b4e 21       		.uleb128 0x21
 8012 1b4f 01       		.uleb128 0x1
 8013 1b50 52       		.byte	0x52
 8014 1b51 05       		.uleb128 0x5
 8015 1b52 03       		.byte	0x3
 8016 1b53 54000000 		.4byte	.LANCHOR0+84
 8017 1b57 21       		.uleb128 0x21
 8018 1b58 01       		.uleb128 0x1
 8019 1b59 53       		.byte	0x53
 8020 1b5a 03       		.uleb128 0x3
 8021 1b5b 0A       		.byte	0xa
 8022 1b5c A802     		.2byte	0x2a8
 8023 1b5e 21       		.uleb128 0x21
 8024 1b5f 02       		.uleb128 0x2
 8025 1b60 7D       		.byte	0x7d
 8026 1b61 00       		.sleb128 0
 8027 1b62 01       		.uleb128 0x1
 8028 1b63 31       		.byte	0x31
 8029 1b64 21       		.uleb128 0x21
 8030 1b65 02       		.uleb128 0x2
 8031 1b66 7D       		.byte	0x7d
 8032 1b67 04       		.sleb128 4
 8033 1b68 05       		.uleb128 0x5
 8034 1b69 03       		.byte	0x3
 8035 1b6a 08070000 		.4byte	.LC89
 8036 1b6e 21       		.uleb128 0x21
 8037 1b6f 02       		.uleb128 0x2
ARM GAS  C:\Users\Phuong\AppData\Local\Temp\ccu7x7Ah.s 			page 170


 8038 1b70 7D       		.byte	0x7d
 8039 1b71 08       		.sleb128 8
 8040 1b72 02       		.uleb128 0x2
 8041 1b73 74       		.byte	0x74
 8042 1b74 00       		.sleb128 0
 8043 1b75 21       		.uleb128 0x21
 8044 1b76 02       		.uleb128 0x2
 8045 1b77 7D       		.byte	0x7d
 8046 1b78 0C       		.sleb128 12
 8047 1b79 02       		.uleb128 0x2
 8048 1b7a 76       		.byte	0x76
 8049 1b7b 00       		.sleb128 0
 8050 1b7c 21       		.uleb128 0x21
 8051 1b7d 02       		.uleb128 0x2
 8052 1b7e 7D       		.byte	0x7d
 8053 1b7f 10       		.sleb128 16
 8054 1b80 02       		.uleb128 0x2
 8055 1b81 77       		.byte	0x77
 8056 1b82 00       		.sleb128 0
 8057 1b83 21       		.uleb128 0x21
 8058 1b84 02       		.uleb128 0x2
 8059 1b85 7D       		.byte	0x7d
 8060 1b86 14       		.sleb128 20
 8061 1b87 03       		.uleb128 0x3
 8062 1b88 91       		.byte	0x91
 8063 1b89 00       		.sleb128 0
 8064 1b8a 06       		.byte	0x6
 8065 1b8b 21       		.uleb128 0x21
 8066 1b8c 02       		.uleb128 0x2
 8067 1b8d 7D       		.byte	0x7d
 8068 1b8e 18       		.sleb128 24
 8069 1b8f 03       		.uleb128 0x3
 8070 1b90 91       		.byte	0x91
 8071 1b91 08       		.sleb128 8
 8072 1b92 06       		.byte	0x6
 8073 1b93 00       		.byte	0
 8074 1b94 00       		.byte	0
 8075 1b95 1E       		.uleb128 0x1e
 8076 1b96 62000000 		.4byte	.LBB70
 8077 1b9a 1E000000 		.4byte	.LBE70-.LBB70
 8078 1b9e F11B0000 		.4byte	0x1bf1
 8079 1ba2 1F       		.uleb128 0x1f
 8080 1ba3 6C00     		.ascii	"l\000"
 8081 1ba5 01       		.byte	0x1
 8082 1ba6 AE02     		.2byte	0x2ae
 8083 1ba8 D3000000 		.4byte	0xd3
 8084 1bac CB160000 		.4byte	.LLST78
 8085 1bb0 17       		.uleb128 0x17
 8086 1bb1 66000000 		.4byte	.LVL384
 8087 1bb5 292D0000 		.4byte	0x2d29
 8088 1bb9 20       		.uleb128 0x20
 8089 1bba 80000000 		.4byte	.LVL387
 8090 1bbe 02       		.uleb128 0x2
 8091 1bbf 74       		.byte	0x74
 8092 1bc0 00       		.sleb128 0
 8093 1bc1 21       		.uleb128 0x21
 8094 1bc2 01       		.uleb128 0x1
ARM GAS  C:\Users\Phuong\AppData\Local\Temp\ccu7x7Ah.s 			page 171


 8095 1bc3 50       		.byte	0x50
 8096 1bc4 01       		.uleb128 0x1
 8097 1bc5 30       		.byte	0x30
 8098 1bc6 21       		.uleb128 0x21
 8099 1bc7 01       		.uleb128 0x1
 8100 1bc8 51       		.byte	0x51
 8101 1bc9 05       		.uleb128 0x5
 8102 1bca 03       		.byte	0x3
 8103 1bcb 00000000 		.4byte	.LC1
 8104 1bcf 21       		.uleb128 0x21
 8105 1bd0 01       		.uleb128 0x1
 8106 1bd1 52       		.byte	0x52
 8107 1bd2 05       		.uleb128 0x5
 8108 1bd3 03       		.byte	0x3
 8109 1bd4 54000000 		.4byte	.LANCHOR0+84
 8110 1bd8 21       		.uleb128 0x21
 8111 1bd9 01       		.uleb128 0x1
 8112 1bda 53       		.byte	0x53
 8113 1bdb 03       		.uleb128 0x3
 8114 1bdc 0A       		.byte	0xa
 8115 1bdd AE02     		.2byte	0x2ae
 8116 1bdf 21       		.uleb128 0x21
 8117 1be0 02       		.uleb128 0x2
 8118 1be1 7D       		.byte	0x7d
 8119 1be2 00       		.sleb128 0
 8120 1be3 01       		.uleb128 0x1
 8121 1be4 31       		.byte	0x31
 8122 1be5 21       		.uleb128 0x21
 8123 1be6 02       		.uleb128 0x2
 8124 1be7 7D       		.byte	0x7d
 8125 1be8 04       		.sleb128 4
 8126 1be9 05       		.uleb128 0x5
 8127 1bea 03       		.byte	0x3
 8128 1beb A8070000 		.4byte	.LC91
 8129 1bef 00       		.byte	0
 8130 1bf0 00       		.byte	0
 8131 1bf1 2C       		.uleb128 0x2c
 8132 1bf2 38010000 		.4byte	.Ldebug_ranges0+0x138
 8133 1bf6 19       		.uleb128 0x19
 8134 1bf7 1C0B0000 		.4byte	.LASF139
 8135 1bfb 01       		.byte	0x1
 8136 1bfc B502     		.2byte	0x2b5
 8137 1bfe 09010000 		.4byte	0x109
 8138 1c02 F4160000 		.4byte	.LLST79
 8139 1c06 1E       		.uleb128 0x1e
 8140 1c07 8E000000 		.4byte	.LBB72
 8141 1c0b D8020000 		.4byte	.LBE72-.LBB72
 8142 1c0f FA220000 		.4byte	0x22fa
 8143 1c13 19       		.uleb128 0x19
 8144 1c14 8E020000 		.4byte	.LASF140
 8145 1c18 01       		.byte	0x1
 8146 1c19 C502     		.2byte	0x2c5
 8147 1c1b 1F010000 		.4byte	0x11f
 8148 1c1f 1D170000 		.4byte	.LLST80
 8149 1c23 1E       		.uleb128 0x1e
 8150 1c24 B2000000 		.4byte	.LBB73
 8151 1c28 1E000000 		.4byte	.LBE73-.LBB73
ARM GAS  C:\Users\Phuong\AppData\Local\Temp\ccu7x7Ah.s 			page 172


 8152 1c2c 7F1C0000 		.4byte	0x1c7f
 8153 1c30 1F       		.uleb128 0x1f
 8154 1c31 6C00     		.ascii	"l\000"
 8155 1c33 01       		.byte	0x1
 8156 1c34 C902     		.2byte	0x2c9
 8157 1c36 D3000000 		.4byte	0xd3
 8158 1c3a 53170000 		.4byte	.LLST81
 8159 1c3e 17       		.uleb128 0x17
 8160 1c3f B6000000 		.4byte	.LVL395
 8161 1c43 292D0000 		.4byte	0x2d29
 8162 1c47 20       		.uleb128 0x20
 8163 1c48 D0000000 		.4byte	.LVL398
 8164 1c4c 02       		.uleb128 0x2
 8165 1c4d 74       		.byte	0x74
 8166 1c4e 00       		.sleb128 0
 8167 1c4f 21       		.uleb128 0x21
 8168 1c50 01       		.uleb128 0x1
 8169 1c51 50       		.byte	0x50
 8170 1c52 01       		.uleb128 0x1
 8171 1c53 30       		.byte	0x30
 8172 1c54 21       		.uleb128 0x21
 8173 1c55 01       		.uleb128 0x1
 8174 1c56 51       		.byte	0x51
 8175 1c57 05       		.uleb128 0x5
 8176 1c58 03       		.byte	0x3
 8177 1c59 00000000 		.4byte	.LC1
 8178 1c5d 21       		.uleb128 0x21
 8179 1c5e 01       		.uleb128 0x1
 8180 1c5f 52       		.byte	0x52
 8181 1c60 05       		.uleb128 0x5
 8182 1c61 03       		.byte	0x3
 8183 1c62 54000000 		.4byte	.LANCHOR0+84
 8184 1c66 21       		.uleb128 0x21
 8185 1c67 01       		.uleb128 0x1
 8186 1c68 53       		.byte	0x53
 8187 1c69 03       		.uleb128 0x3
 8188 1c6a 0A       		.byte	0xa
 8189 1c6b C902     		.2byte	0x2c9
 8190 1c6d 21       		.uleb128 0x21
 8191 1c6e 02       		.uleb128 0x2
 8192 1c6f 7D       		.byte	0x7d
 8193 1c70 00       		.sleb128 0
 8194 1c71 01       		.uleb128 0x1
 8195 1c72 31       		.byte	0x31
 8196 1c73 21       		.uleb128 0x21
 8197 1c74 02       		.uleb128 0x2
 8198 1c75 7D       		.byte	0x7d
 8199 1c76 04       		.sleb128 4
 8200 1c77 05       		.uleb128 0x5
 8201 1c78 03       		.byte	0x3
 8202 1c79 BC070000 		.4byte	.LC93
 8203 1c7d 00       		.byte	0
 8204 1c7e 00       		.byte	0
 8205 1c7f 1E       		.uleb128 0x1e
 8206 1c80 D4000000 		.4byte	.LBB74
 8207 1c84 88020000 		.4byte	.LBE74-.LBB74
 8208 1c88 CC220000 		.4byte	0x22cc
ARM GAS  C:\Users\Phuong\AppData\Local\Temp\ccu7x7Ah.s 			page 173


 8209 1c8c 19       		.uleb128 0x19
 8210 1c8d 7B0D0000 		.4byte	.LASF141
 8211 1c91 01       		.byte	0x1
 8212 1c92 D002     		.2byte	0x2d0
 8213 1c94 1F010000 		.4byte	0x11f
 8214 1c98 7C170000 		.4byte	.LLST82
 8215 1c9c 1E       		.uleb128 0x1e
 8216 1c9d DE000000 		.4byte	.LBB75
 8217 1ca1 20000000 		.4byte	.LBE75-.LBB75
 8218 1ca5 F81C0000 		.4byte	0x1cf8
 8219 1ca9 1F       		.uleb128 0x1f
 8220 1caa 6C00     		.ascii	"l\000"
 8221 1cac 01       		.byte	0x1
 8222 1cad D402     		.2byte	0x2d4
 8223 1caf D3000000 		.4byte	0xd3
 8224 1cb3 B0170000 		.4byte	.LLST83
 8225 1cb7 17       		.uleb128 0x17
 8226 1cb8 E2000000 		.4byte	.LVL404
 8227 1cbc 292D0000 		.4byte	0x2d29
 8228 1cc0 20       		.uleb128 0x20
 8229 1cc1 FE000000 		.4byte	.LVL407
 8230 1cc5 02       		.uleb128 0x2
 8231 1cc6 74       		.byte	0x74
 8232 1cc7 00       		.sleb128 0
 8233 1cc8 21       		.uleb128 0x21
 8234 1cc9 01       		.uleb128 0x1
 8235 1cca 50       		.byte	0x50
 8236 1ccb 01       		.uleb128 0x1
 8237 1ccc 30       		.byte	0x30
 8238 1ccd 21       		.uleb128 0x21
 8239 1cce 01       		.uleb128 0x1
 8240 1ccf 51       		.byte	0x51
 8241 1cd0 05       		.uleb128 0x5
 8242 1cd1 03       		.byte	0x3
 8243 1cd2 00000000 		.4byte	.LC1
 8244 1cd6 21       		.uleb128 0x21
 8245 1cd7 01       		.uleb128 0x1
 8246 1cd8 52       		.byte	0x52
 8247 1cd9 05       		.uleb128 0x5
 8248 1cda 03       		.byte	0x3
 8249 1cdb 54000000 		.4byte	.LANCHOR0+84
 8250 1cdf 21       		.uleb128 0x21
 8251 1ce0 01       		.uleb128 0x1
 8252 1ce1 53       		.byte	0x53
 8253 1ce2 03       		.uleb128 0x3
 8254 1ce3 0A       		.byte	0xa
 8255 1ce4 D402     		.2byte	0x2d4
 8256 1ce6 21       		.uleb128 0x21
 8257 1ce7 02       		.uleb128 0x2
 8258 1ce8 7D       		.byte	0x7d
 8259 1ce9 00       		.sleb128 0
 8260 1cea 01       		.uleb128 0x1
 8261 1ceb 31       		.byte	0x31
 8262 1cec 21       		.uleb128 0x21
 8263 1ced 02       		.uleb128 0x2
 8264 1cee 7D       		.byte	0x7d
 8265 1cef 04       		.sleb128 4
ARM GAS  C:\Users\Phuong\AppData\Local\Temp\ccu7x7Ah.s 			page 174


 8266 1cf0 05       		.uleb128 0x5
 8267 1cf1 03       		.byte	0x3
 8268 1cf2 E8070000 		.4byte	.LC97
 8269 1cf6 00       		.byte	0
 8270 1cf7 00       		.byte	0
 8271 1cf8 1E       		.uleb128 0x1e
 8272 1cf9 02010000 		.4byte	.LBB76
 8273 1cfd 50020000 		.4byte	.LBE76-.LBB76
 8274 1d01 A3220000 		.4byte	0x22a3
 8275 1d05 19       		.uleb128 0x19
 8276 1d06 060A0000 		.4byte	.LASF142
 8277 1d0a 01       		.byte	0x1
 8278 1d0b DA02     		.2byte	0x2da
 8279 1d0d 09010000 		.4byte	0x109
 8280 1d11 D9170000 		.4byte	.LLST84
 8281 1d15 1E       		.uleb128 0x1e
 8282 1d16 0E010000 		.4byte	.LBB77
 8283 1d1a 1E000000 		.4byte	.LBE77-.LBB77
 8284 1d1e 711D0000 		.4byte	0x1d71
 8285 1d22 1F       		.uleb128 0x1f
 8286 1d23 6C00     		.ascii	"l\000"
 8287 1d25 01       		.byte	0x1
 8288 1d26 DE02     		.2byte	0x2de
 8289 1d28 D3000000 		.4byte	0xd3
 8290 1d2c 0F180000 		.4byte	.LLST85
 8291 1d30 17       		.uleb128 0x17
 8292 1d31 12010000 		.4byte	.LVL413
 8293 1d35 292D0000 		.4byte	0x2d29
 8294 1d39 20       		.uleb128 0x20
 8295 1d3a 2C010000 		.4byte	.LVL416
 8296 1d3e 02       		.uleb128 0x2
 8297 1d3f 74       		.byte	0x74
 8298 1d40 00       		.sleb128 0
 8299 1d41 21       		.uleb128 0x21
 8300 1d42 01       		.uleb128 0x1
 8301 1d43 50       		.byte	0x50
 8302 1d44 01       		.uleb128 0x1
 8303 1d45 30       		.byte	0x30
 8304 1d46 21       		.uleb128 0x21
 8305 1d47 01       		.uleb128 0x1
 8306 1d48 51       		.byte	0x51
 8307 1d49 05       		.uleb128 0x5
 8308 1d4a 03       		.byte	0x3
 8309 1d4b 00000000 		.4byte	.LC1
 8310 1d4f 21       		.uleb128 0x21
 8311 1d50 01       		.uleb128 0x1
 8312 1d51 52       		.byte	0x52
 8313 1d52 05       		.uleb128 0x5
 8314 1d53 03       		.byte	0x3
 8315 1d54 54000000 		.4byte	.LANCHOR0+84
 8316 1d58 21       		.uleb128 0x21
 8317 1d59 01       		.uleb128 0x1
 8318 1d5a 53       		.byte	0x53
 8319 1d5b 03       		.uleb128 0x3
 8320 1d5c 0A       		.byte	0xa
 8321 1d5d DE02     		.2byte	0x2de
 8322 1d5f 21       		.uleb128 0x21
ARM GAS  C:\Users\Phuong\AppData\Local\Temp\ccu7x7Ah.s 			page 175


 8323 1d60 02       		.uleb128 0x2
 8324 1d61 7D       		.byte	0x7d
 8325 1d62 00       		.sleb128 0
 8326 1d63 01       		.uleb128 0x1
 8327 1d64 31       		.byte	0x31
 8328 1d65 21       		.uleb128 0x21
 8329 1d66 02       		.uleb128 0x2
 8330 1d67 7D       		.byte	0x7d
 8331 1d68 04       		.sleb128 4
 8332 1d69 05       		.uleb128 0x5
 8333 1d6a 03       		.byte	0x3
 8334 1d6b 08080000 		.4byte	.LC99
 8335 1d6f 00       		.byte	0
 8336 1d70 00       		.byte	0
 8337 1d71 1E       		.uleb128 0x1e
 8338 1d72 4A010000 		.4byte	.LBB78
 8339 1d76 1E000000 		.4byte	.LBE78-.LBB78
 8340 1d7a CD1D0000 		.4byte	0x1dcd
 8341 1d7e 1F       		.uleb128 0x1f
 8342 1d7f 6C00     		.ascii	"l\000"
 8343 1d81 01       		.byte	0x1
 8344 1d82 EA02     		.2byte	0x2ea
 8345 1d84 D3000000 		.4byte	0xd3
 8346 1d88 38180000 		.4byte	.LLST86
 8347 1d8c 17       		.uleb128 0x17
 8348 1d8d 4E010000 		.4byte	.LVL422
 8349 1d91 292D0000 		.4byte	0x2d29
 8350 1d95 20       		.uleb128 0x20
 8351 1d96 68010000 		.4byte	.LVL425
 8352 1d9a 02       		.uleb128 0x2
 8353 1d9b 74       		.byte	0x74
 8354 1d9c 00       		.sleb128 0
 8355 1d9d 21       		.uleb128 0x21
 8356 1d9e 01       		.uleb128 0x1
 8357 1d9f 50       		.byte	0x50
 8358 1da0 01       		.uleb128 0x1
 8359 1da1 30       		.byte	0x30
 8360 1da2 21       		.uleb128 0x21
 8361 1da3 01       		.uleb128 0x1
 8362 1da4 51       		.byte	0x51
 8363 1da5 05       		.uleb128 0x5
 8364 1da6 03       		.byte	0x3
 8365 1da7 00000000 		.4byte	.LC1
 8366 1dab 21       		.uleb128 0x21
 8367 1dac 01       		.uleb128 0x1
 8368 1dad 52       		.byte	0x52
 8369 1dae 05       		.uleb128 0x5
 8370 1daf 03       		.byte	0x3
 8371 1db0 54000000 		.4byte	.LANCHOR0+84
 8372 1db4 21       		.uleb128 0x21
 8373 1db5 01       		.uleb128 0x1
 8374 1db6 53       		.byte	0x53
 8375 1db7 03       		.uleb128 0x3
 8376 1db8 0A       		.byte	0xa
 8377 1db9 EA02     		.2byte	0x2ea
 8378 1dbb 21       		.uleb128 0x21
 8379 1dbc 02       		.uleb128 0x2
ARM GAS  C:\Users\Phuong\AppData\Local\Temp\ccu7x7Ah.s 			page 176


 8380 1dbd 7D       		.byte	0x7d
 8381 1dbe 00       		.sleb128 0
 8382 1dbf 01       		.uleb128 0x1
 8383 1dc0 31       		.byte	0x31
 8384 1dc1 21       		.uleb128 0x21
 8385 1dc2 02       		.uleb128 0x2
 8386 1dc3 7D       		.byte	0x7d
 8387 1dc4 04       		.sleb128 4
 8388 1dc5 05       		.uleb128 0x5
 8389 1dc6 03       		.byte	0x3
 8390 1dc7 34080000 		.4byte	.LC101
 8391 1dcb 00       		.byte	0
 8392 1dcc 00       		.byte	0
 8393 1dcd 22       		.uleb128 0x22
 8394 1dce 50010000 		.4byte	.Ldebug_ranges0+0x150
 8395 1dd2 2D220000 		.4byte	0x222d
 8396 1dd6 19       		.uleb128 0x19
 8397 1dd7 64100000 		.4byte	.LASF143
 8398 1ddb 01       		.byte	0x1
 8399 1ddc F102     		.2byte	0x2f1
 8400 1dde 1F010000 		.4byte	0x11f
 8401 1de2 61180000 		.4byte	.LLST87
 8402 1de6 1E       		.uleb128 0x1e
 8403 1de7 78010000 		.4byte	.LBB80
 8404 1deb 1E000000 		.4byte	.LBE80-.LBB80
 8405 1def 421E0000 		.4byte	0x1e42
 8406 1df3 1F       		.uleb128 0x1f
 8407 1df4 6C00     		.ascii	"l\000"
 8408 1df6 01       		.byte	0x1
 8409 1df7 F502     		.2byte	0x2f5
 8410 1df9 D3000000 		.4byte	0xd3
 8411 1dfd A3180000 		.4byte	.LLST88
 8412 1e01 17       		.uleb128 0x17
 8413 1e02 7C010000 		.4byte	.LVL430
 8414 1e06 292D0000 		.4byte	0x2d29
 8415 1e0a 20       		.uleb128 0x20
 8416 1e0b 96010000 		.4byte	.LVL433
 8417 1e0f 02       		.uleb128 0x2
 8418 1e10 74       		.byte	0x74
 8419 1e11 00       		.sleb128 0
 8420 1e12 21       		.uleb128 0x21
 8421 1e13 01       		.uleb128 0x1
 8422 1e14 50       		.byte	0x50
 8423 1e15 01       		.uleb128 0x1
 8424 1e16 30       		.byte	0x30
 8425 1e17 21       		.uleb128 0x21
 8426 1e18 01       		.uleb128 0x1
 8427 1e19 51       		.byte	0x51
 8428 1e1a 05       		.uleb128 0x5
 8429 1e1b 03       		.byte	0x3
 8430 1e1c 00000000 		.4byte	.LC1
 8431 1e20 21       		.uleb128 0x21
 8432 1e21 01       		.uleb128 0x1
 8433 1e22 52       		.byte	0x52
 8434 1e23 05       		.uleb128 0x5
 8435 1e24 03       		.byte	0x3
 8436 1e25 54000000 		.4byte	.LANCHOR0+84
ARM GAS  C:\Users\Phuong\AppData\Local\Temp\ccu7x7Ah.s 			page 177


 8437 1e29 21       		.uleb128 0x21
 8438 1e2a 01       		.uleb128 0x1
 8439 1e2b 53       		.byte	0x53
 8440 1e2c 03       		.uleb128 0x3
 8441 1e2d 0A       		.byte	0xa
 8442 1e2e F502     		.2byte	0x2f5
 8443 1e30 21       		.uleb128 0x21
 8444 1e31 02       		.uleb128 0x2
 8445 1e32 7D       		.byte	0x7d
 8446 1e33 00       		.sleb128 0
 8447 1e34 01       		.uleb128 0x1
 8448 1e35 31       		.byte	0x31
 8449 1e36 21       		.uleb128 0x21
 8450 1e37 02       		.uleb128 0x2
 8451 1e38 7D       		.byte	0x7d
 8452 1e39 04       		.sleb128 4
 8453 1e3a 05       		.uleb128 0x5
 8454 1e3b 03       		.byte	0x3
 8455 1e3c 5C080000 		.4byte	.LC105
 8456 1e40 00       		.byte	0
 8457 1e41 00       		.byte	0
 8458 1e42 1E       		.uleb128 0x1e
 8459 1e43 9A010000 		.4byte	.LBB81
 8460 1e47 A0010000 		.4byte	.LBE81-.LBB81
 8461 1e4b 19220000 		.4byte	0x2219
 8462 1e4f 19       		.uleb128 0x19
 8463 1e50 94070000 		.4byte	.LASF144
 8464 1e54 01       		.byte	0x1
 8465 1e55 FB02     		.2byte	0x2fb
 8466 1e57 1F010000 		.4byte	0x11f
 8467 1e5b CC180000 		.4byte	.LLST89
 8468 1e5f 1E       		.uleb128 0x1e
 8469 1e60 AA010000 		.4byte	.LBB82
 8470 1e64 1E000000 		.4byte	.LBE82-.LBB82
 8471 1e68 BB1E0000 		.4byte	0x1ebb
 8472 1e6c 1F       		.uleb128 0x1f
 8473 1e6d 6C00     		.ascii	"l\000"
 8474 1e6f 01       		.byte	0x1
 8475 1e70 FF02     		.2byte	0x2ff
 8476 1e72 D3000000 		.4byte	0xd3
 8477 1e76 00190000 		.4byte	.LLST90
 8478 1e7a 17       		.uleb128 0x17
 8479 1e7b AE010000 		.4byte	.LVL440
 8480 1e7f 292D0000 		.4byte	0x2d29
 8481 1e83 20       		.uleb128 0x20
 8482 1e84 C8010000 		.4byte	.LVL443
 8483 1e88 02       		.uleb128 0x2
 8484 1e89 74       		.byte	0x74
 8485 1e8a 00       		.sleb128 0
 8486 1e8b 21       		.uleb128 0x21
 8487 1e8c 01       		.uleb128 0x1
 8488 1e8d 50       		.byte	0x50
 8489 1e8e 01       		.uleb128 0x1
 8490 1e8f 30       		.byte	0x30
 8491 1e90 21       		.uleb128 0x21
 8492 1e91 01       		.uleb128 0x1
 8493 1e92 51       		.byte	0x51
ARM GAS  C:\Users\Phuong\AppData\Local\Temp\ccu7x7Ah.s 			page 178


 8494 1e93 05       		.uleb128 0x5
 8495 1e94 03       		.byte	0x3
 8496 1e95 00000000 		.4byte	.LC1
 8497 1e99 21       		.uleb128 0x21
 8498 1e9a 01       		.uleb128 0x1
 8499 1e9b 52       		.byte	0x52
 8500 1e9c 05       		.uleb128 0x5
 8501 1e9d 03       		.byte	0x3
 8502 1e9e 54000000 		.4byte	.LANCHOR0+84
 8503 1ea2 21       		.uleb128 0x21
 8504 1ea3 01       		.uleb128 0x1
 8505 1ea4 53       		.byte	0x53
 8506 1ea5 03       		.uleb128 0x3
 8507 1ea6 0A       		.byte	0xa
 8508 1ea7 FF02     		.2byte	0x2ff
 8509 1ea9 21       		.uleb128 0x21
 8510 1eaa 02       		.uleb128 0x2
 8511 1eab 7D       		.byte	0x7d
 8512 1eac 00       		.sleb128 0
 8513 1ead 01       		.uleb128 0x1
 8514 1eae 31       		.byte	0x31
 8515 1eaf 21       		.uleb128 0x21
 8516 1eb0 02       		.uleb128 0x2
 8517 1eb1 7D       		.byte	0x7d
 8518 1eb2 04       		.sleb128 4
 8519 1eb3 05       		.uleb128 0x5
 8520 1eb4 03       		.byte	0x3
 8521 1eb5 78080000 		.4byte	.LC107
 8522 1eb9 00       		.byte	0
 8523 1eba 00       		.byte	0
 8524 1ebb 1E       		.uleb128 0x1e
 8525 1ebc CE010000 		.4byte	.LBB83
 8526 1ec0 60010000 		.4byte	.LBE83-.LBB83
 8527 1ec4 EA210000 		.4byte	0x21ea
 8528 1ec8 19       		.uleb128 0x19
 8529 1ec9 2B020000 		.4byte	.LASF145
 8530 1ecd 01       		.byte	0x1
 8531 1ece 0503     		.2byte	0x305
 8532 1ed0 09010000 		.4byte	0x109
 8533 1ed4 29190000 		.4byte	.LLST91
 8534 1ed8 1E       		.uleb128 0x1e
 8535 1ed9 DA010000 		.4byte	.LBB84
 8536 1edd 1E000000 		.4byte	.LBE84-.LBB84
 8537 1ee1 341F0000 		.4byte	0x1f34
 8538 1ee5 1F       		.uleb128 0x1f
 8539 1ee6 6C00     		.ascii	"l\000"
 8540 1ee8 01       		.byte	0x1
 8541 1ee9 0903     		.2byte	0x309
 8542 1eeb D3000000 		.4byte	0xd3
 8543 1eef 5F190000 		.4byte	.LLST92
 8544 1ef3 17       		.uleb128 0x17
 8545 1ef4 DE010000 		.4byte	.LVL449
 8546 1ef8 292D0000 		.4byte	0x2d29
 8547 1efc 20       		.uleb128 0x20
 8548 1efd F8010000 		.4byte	.LVL452
 8549 1f01 02       		.uleb128 0x2
 8550 1f02 74       		.byte	0x74
ARM GAS  C:\Users\Phuong\AppData\Local\Temp\ccu7x7Ah.s 			page 179


 8551 1f03 00       		.sleb128 0
 8552 1f04 21       		.uleb128 0x21
 8553 1f05 01       		.uleb128 0x1
 8554 1f06 50       		.byte	0x50
 8555 1f07 01       		.uleb128 0x1
 8556 1f08 30       		.byte	0x30
 8557 1f09 21       		.uleb128 0x21
 8558 1f0a 01       		.uleb128 0x1
 8559 1f0b 51       		.byte	0x51
 8560 1f0c 05       		.uleb128 0x5
 8561 1f0d 03       		.byte	0x3
 8562 1f0e 00000000 		.4byte	.LC1
 8563 1f12 21       		.uleb128 0x21
 8564 1f13 01       		.uleb128 0x1
 8565 1f14 52       		.byte	0x52
 8566 1f15 05       		.uleb128 0x5
 8567 1f16 03       		.byte	0x3
 8568 1f17 54000000 		.4byte	.LANCHOR0+84
 8569 1f1b 21       		.uleb128 0x21
 8570 1f1c 01       		.uleb128 0x1
 8571 1f1d 53       		.byte	0x53
 8572 1f1e 03       		.uleb128 0x3
 8573 1f1f 0A       		.byte	0xa
 8574 1f20 0903     		.2byte	0x309
 8575 1f22 21       		.uleb128 0x21
 8576 1f23 02       		.uleb128 0x2
 8577 1f24 7D       		.byte	0x7d
 8578 1f25 00       		.sleb128 0
 8579 1f26 01       		.uleb128 0x1
 8580 1f27 31       		.byte	0x31
 8581 1f28 21       		.uleb128 0x21
 8582 1f29 02       		.uleb128 0x2
 8583 1f2a 7D       		.byte	0x7d
 8584 1f2b 04       		.sleb128 4
 8585 1f2c 05       		.uleb128 0x5
 8586 1f2d 03       		.byte	0x3
 8587 1f2e 94080000 		.4byte	.LC109
 8588 1f32 00       		.byte	0
 8589 1f33 00       		.byte	0
 8590 1f34 1E       		.uleb128 0x1e
 8591 1f35 18020000 		.4byte	.LBB85
 8592 1f39 1C000000 		.4byte	.LBE85-.LBB85
 8593 1f3d 901F0000 		.4byte	0x1f90
 8594 1f41 1F       		.uleb128 0x1f
 8595 1f42 6C00     		.ascii	"l\000"
 8596 1f44 01       		.byte	0x1
 8597 1f45 1503     		.2byte	0x315
 8598 1f47 D3000000 		.4byte	0xd3
 8599 1f4b 88190000 		.4byte	.LLST93
 8600 1f4f 17       		.uleb128 0x17
 8601 1f50 1C020000 		.4byte	.LVL458
 8602 1f54 292D0000 		.4byte	0x2d29
 8603 1f58 20       		.uleb128 0x20
 8604 1f59 34020000 		.4byte	.LVL461
 8605 1f5d 02       		.uleb128 0x2
 8606 1f5e 74       		.byte	0x74
 8607 1f5f 00       		.sleb128 0
ARM GAS  C:\Users\Phuong\AppData\Local\Temp\ccu7x7Ah.s 			page 180


 8608 1f60 21       		.uleb128 0x21
 8609 1f61 01       		.uleb128 0x1
 8610 1f62 50       		.byte	0x50
 8611 1f63 01       		.uleb128 0x1
 8612 1f64 30       		.byte	0x30
 8613 1f65 21       		.uleb128 0x21
 8614 1f66 01       		.uleb128 0x1
 8615 1f67 51       		.byte	0x51
 8616 1f68 05       		.uleb128 0x5
 8617 1f69 03       		.byte	0x3
 8618 1f6a 00000000 		.4byte	.LC1
 8619 1f6e 21       		.uleb128 0x21
 8620 1f6f 01       		.uleb128 0x1
 8621 1f70 52       		.byte	0x52
 8622 1f71 05       		.uleb128 0x5
 8623 1f72 03       		.byte	0x3
 8624 1f73 54000000 		.4byte	.LANCHOR0+84
 8625 1f77 21       		.uleb128 0x21
 8626 1f78 01       		.uleb128 0x1
 8627 1f79 53       		.byte	0x53
 8628 1f7a 03       		.uleb128 0x3
 8629 1f7b 0A       		.byte	0xa
 8630 1f7c 1503     		.2byte	0x315
 8631 1f7e 21       		.uleb128 0x21
 8632 1f7f 02       		.uleb128 0x2
 8633 1f80 7D       		.byte	0x7d
 8634 1f81 00       		.sleb128 0
 8635 1f82 01       		.uleb128 0x1
 8636 1f83 31       		.byte	0x31
 8637 1f84 21       		.uleb128 0x21
 8638 1f85 02       		.uleb128 0x2
 8639 1f86 7D       		.byte	0x7d
 8640 1f87 04       		.sleb128 4
 8641 1f88 05       		.uleb128 0x5
 8642 1f89 03       		.byte	0x3
 8643 1f8a C0080000 		.4byte	.LC111
 8644 1f8e 00       		.byte	0
 8645 1f8f 00       		.byte	0
 8646 1f90 1E       		.uleb128 0x1e
 8647 1f91 52020000 		.4byte	.LBB86
 8648 1f95 1C000000 		.4byte	.LBE86-.LBB86
 8649 1f99 EC1F0000 		.4byte	0x1fec
 8650 1f9d 1F       		.uleb128 0x1f
 8651 1f9e 6C00     		.ascii	"l\000"
 8652 1fa0 01       		.byte	0x1
 8653 1fa1 2603     		.2byte	0x326
 8654 1fa3 D3000000 		.4byte	0xd3
 8655 1fa7 B1190000 		.4byte	.LLST94
 8656 1fab 17       		.uleb128 0x17
 8657 1fac 56020000 		.4byte	.LVL466
 8658 1fb0 292D0000 		.4byte	0x2d29
 8659 1fb4 20       		.uleb128 0x20
 8660 1fb5 6E020000 		.4byte	.LVL469
 8661 1fb9 02       		.uleb128 0x2
 8662 1fba 74       		.byte	0x74
 8663 1fbb 00       		.sleb128 0
 8664 1fbc 21       		.uleb128 0x21
ARM GAS  C:\Users\Phuong\AppData\Local\Temp\ccu7x7Ah.s 			page 181


 8665 1fbd 01       		.uleb128 0x1
 8666 1fbe 50       		.byte	0x50
 8667 1fbf 01       		.uleb128 0x1
 8668 1fc0 30       		.byte	0x30
 8669 1fc1 21       		.uleb128 0x21
 8670 1fc2 01       		.uleb128 0x1
 8671 1fc3 51       		.byte	0x51
 8672 1fc4 05       		.uleb128 0x5
 8673 1fc5 03       		.byte	0x3
 8674 1fc6 00000000 		.4byte	.LC1
 8675 1fca 21       		.uleb128 0x21
 8676 1fcb 01       		.uleb128 0x1
 8677 1fcc 52       		.byte	0x52
 8678 1fcd 05       		.uleb128 0x5
 8679 1fce 03       		.byte	0x3
 8680 1fcf 54000000 		.4byte	.LANCHOR0+84
 8681 1fd3 21       		.uleb128 0x21
 8682 1fd4 01       		.uleb128 0x1
 8683 1fd5 53       		.byte	0x53
 8684 1fd6 03       		.uleb128 0x3
 8685 1fd7 0A       		.byte	0xa
 8686 1fd8 2603     		.2byte	0x326
 8687 1fda 21       		.uleb128 0x21
 8688 1fdb 02       		.uleb128 0x2
 8689 1fdc 7D       		.byte	0x7d
 8690 1fdd 00       		.sleb128 0
 8691 1fde 01       		.uleb128 0x1
 8692 1fdf 31       		.byte	0x31
 8693 1fe0 21       		.uleb128 0x21
 8694 1fe1 02       		.uleb128 0x2
 8695 1fe2 7D       		.byte	0x7d
 8696 1fe3 04       		.sleb128 4
 8697 1fe4 05       		.uleb128 0x5
 8698 1fe5 03       		.byte	0x3
 8699 1fe6 DC080000 		.4byte	.LC114
 8700 1fea 00       		.byte	0
 8701 1feb 00       		.byte	0
 8702 1fec 1E       		.uleb128 0x1e
 8703 1fed 82020000 		.4byte	.LBB87
 8704 1ff1 1C000000 		.4byte	.LBE87-.LBB87
 8705 1ff5 48200000 		.4byte	0x2048
 8706 1ff9 1F       		.uleb128 0x1f
 8707 1ffa 6C00     		.ascii	"l\000"
 8708 1ffc 01       		.byte	0x1
 8709 1ffd 3103     		.2byte	0x331
 8710 1fff D3000000 		.4byte	0xd3
 8711 2003 DA190000 		.4byte	.LLST95
 8712 2007 17       		.uleb128 0x17
 8713 2008 86020000 		.4byte	.LVL473
 8714 200c 292D0000 		.4byte	0x2d29
 8715 2010 20       		.uleb128 0x20
 8716 2011 9E020000 		.4byte	.LVL476
 8717 2015 02       		.uleb128 0x2
 8718 2016 74       		.byte	0x74
 8719 2017 00       		.sleb128 0
 8720 2018 21       		.uleb128 0x21
 8721 2019 01       		.uleb128 0x1
ARM GAS  C:\Users\Phuong\AppData\Local\Temp\ccu7x7Ah.s 			page 182


 8722 201a 50       		.byte	0x50
 8723 201b 01       		.uleb128 0x1
 8724 201c 30       		.byte	0x30
 8725 201d 21       		.uleb128 0x21
 8726 201e 01       		.uleb128 0x1
 8727 201f 51       		.byte	0x51
 8728 2020 05       		.uleb128 0x5
 8729 2021 03       		.byte	0x3
 8730 2022 00000000 		.4byte	.LC1
 8731 2026 21       		.uleb128 0x21
 8732 2027 01       		.uleb128 0x1
 8733 2028 52       		.byte	0x52
 8734 2029 05       		.uleb128 0x5
 8735 202a 03       		.byte	0x3
 8736 202b 54000000 		.4byte	.LANCHOR0+84
 8737 202f 21       		.uleb128 0x21
 8738 2030 01       		.uleb128 0x1
 8739 2031 53       		.byte	0x53
 8740 2032 03       		.uleb128 0x3
 8741 2033 0A       		.byte	0xa
 8742 2034 3103     		.2byte	0x331
 8743 2036 21       		.uleb128 0x21
 8744 2037 02       		.uleb128 0x2
 8745 2038 7D       		.byte	0x7d
 8746 2039 00       		.sleb128 0
 8747 203a 01       		.uleb128 0x1
 8748 203b 31       		.byte	0x31
 8749 203c 21       		.uleb128 0x21
 8750 203d 02       		.uleb128 0x2
 8751 203e 7D       		.byte	0x7d
 8752 203f 04       		.sleb128 4
 8753 2040 05       		.uleb128 0x5
 8754 2041 03       		.byte	0x3
 8755 2042 FC080000 		.4byte	.LC117
 8756 2046 00       		.byte	0
 8757 2047 00       		.byte	0
 8758 2048 1E       		.uleb128 0x1e
 8759 2049 AA020000 		.4byte	.LBB88
 8760 204d 1C000000 		.4byte	.LBE88-.LBB88
 8761 2051 A4200000 		.4byte	0x20a4
 8762 2055 1F       		.uleb128 0x1f
 8763 2056 6C00     		.ascii	"l\000"
 8764 2058 01       		.byte	0x1
 8765 2059 3A03     		.2byte	0x33a
 8766 205b D3000000 		.4byte	0xd3
 8767 205f 031A0000 		.4byte	.LLST96
 8768 2063 17       		.uleb128 0x17
 8769 2064 AE020000 		.4byte	.LVL480
 8770 2068 292D0000 		.4byte	0x2d29
 8771 206c 20       		.uleb128 0x20
 8772 206d C6020000 		.4byte	.LVL483
 8773 2071 02       		.uleb128 0x2
 8774 2072 74       		.byte	0x74
 8775 2073 00       		.sleb128 0
 8776 2074 21       		.uleb128 0x21
 8777 2075 01       		.uleb128 0x1
 8778 2076 50       		.byte	0x50
ARM GAS  C:\Users\Phuong\AppData\Local\Temp\ccu7x7Ah.s 			page 183


 8779 2077 01       		.uleb128 0x1
 8780 2078 30       		.byte	0x30
 8781 2079 21       		.uleb128 0x21
 8782 207a 01       		.uleb128 0x1
 8783 207b 51       		.byte	0x51
 8784 207c 05       		.uleb128 0x5
 8785 207d 03       		.byte	0x3
 8786 207e 00000000 		.4byte	.LC1
 8787 2082 21       		.uleb128 0x21
 8788 2083 01       		.uleb128 0x1
 8789 2084 52       		.byte	0x52
 8790 2085 05       		.uleb128 0x5
 8791 2086 03       		.byte	0x3
 8792 2087 54000000 		.4byte	.LANCHOR0+84
 8793 208b 21       		.uleb128 0x21
 8794 208c 01       		.uleb128 0x1
 8795 208d 53       		.byte	0x53
 8796 208e 03       		.uleb128 0x3
 8797 208f 0A       		.byte	0xa
 8798 2090 3A03     		.2byte	0x33a
 8799 2092 21       		.uleb128 0x21
 8800 2093 02       		.uleb128 0x2
 8801 2094 7D       		.byte	0x7d
 8802 2095 00       		.sleb128 0
 8803 2096 01       		.uleb128 0x1
 8804 2097 31       		.byte	0x31
 8805 2098 21       		.uleb128 0x21
 8806 2099 02       		.uleb128 0x2
 8807 209a 7D       		.byte	0x7d
 8808 209b 04       		.sleb128 4
 8809 209c 05       		.uleb128 0x5
 8810 209d 03       		.byte	0x3
 8811 209e 1C090000 		.4byte	.LC119
 8812 20a2 00       		.byte	0
 8813 20a3 00       		.byte	0
 8814 20a4 1E       		.uleb128 0x1e
 8815 20a5 D8020000 		.4byte	.LBB89
 8816 20a9 1E000000 		.4byte	.LBE89-.LBB89
 8817 20ad 00210000 		.4byte	0x2100
 8818 20b1 1F       		.uleb128 0x1f
 8819 20b2 6C00     		.ascii	"l\000"
 8820 20b4 01       		.byte	0x1
 8821 20b5 4403     		.2byte	0x344
 8822 20b7 D3000000 		.4byte	0xd3
 8823 20bb 2C1A0000 		.4byte	.LLST97
 8824 20bf 17       		.uleb128 0x17
 8825 20c0 DC020000 		.4byte	.LVL487
 8826 20c4 292D0000 		.4byte	0x2d29
 8827 20c8 20       		.uleb128 0x20
 8828 20c9 F6020000 		.4byte	.LVL490
 8829 20cd 02       		.uleb128 0x2
 8830 20ce 74       		.byte	0x74
 8831 20cf 00       		.sleb128 0
 8832 20d0 21       		.uleb128 0x21
 8833 20d1 01       		.uleb128 0x1
 8834 20d2 50       		.byte	0x50
 8835 20d3 01       		.uleb128 0x1
ARM GAS  C:\Users\Phuong\AppData\Local\Temp\ccu7x7Ah.s 			page 184


 8836 20d4 30       		.byte	0x30
 8837 20d5 21       		.uleb128 0x21
 8838 20d6 01       		.uleb128 0x1
 8839 20d7 51       		.byte	0x51
 8840 20d8 05       		.uleb128 0x5
 8841 20d9 03       		.byte	0x3
 8842 20da 00000000 		.4byte	.LC1
 8843 20de 21       		.uleb128 0x21
 8844 20df 01       		.uleb128 0x1
 8845 20e0 52       		.byte	0x52
 8846 20e1 05       		.uleb128 0x5
 8847 20e2 03       		.byte	0x3
 8848 20e3 54000000 		.4byte	.LANCHOR0+84
 8849 20e7 21       		.uleb128 0x21
 8850 20e8 01       		.uleb128 0x1
 8851 20e9 53       		.byte	0x53
 8852 20ea 03       		.uleb128 0x3
 8853 20eb 0A       		.byte	0xa
 8854 20ec 4403     		.2byte	0x344
 8855 20ee 21       		.uleb128 0x21
 8856 20ef 02       		.uleb128 0x2
 8857 20f0 7D       		.byte	0x7d
 8858 20f1 00       		.sleb128 0
 8859 20f2 01       		.uleb128 0x1
 8860 20f3 31       		.byte	0x31
 8861 20f4 21       		.uleb128 0x21
 8862 20f5 02       		.uleb128 0x2
 8863 20f6 7D       		.byte	0x7d
 8864 20f7 04       		.sleb128 4
 8865 20f8 05       		.uleb128 0x5
 8866 20f9 03       		.byte	0x3
 8867 20fa 3C090000 		.4byte	.LC122
 8868 20fe 00       		.byte	0
 8869 20ff 00       		.byte	0
 8870 2100 23       		.uleb128 0x23
 8871 2101 D4010000 		.4byte	.LVL447
 8872 2105 0A1A0000 		.4byte	0x1a0a
 8873 2109 14210000 		.4byte	0x2114
 8874 210d 21       		.uleb128 0x21
 8875 210e 01       		.uleb128 0x1
 8876 210f 50       		.byte	0x50
 8877 2110 02       		.uleb128 0x2
 8878 2111 74       		.byte	0x74
 8879 2112 00       		.sleb128 0
 8880 2113 00       		.byte	0
 8881 2114 23       		.uleb128 0x23
 8882 2115 02020000 		.4byte	.LVL456
 8883 2119 452E0000 		.4byte	0x2e45
 8884 211d 29210000 		.4byte	0x2129
 8885 2121 21       		.uleb128 0x21
 8886 2122 01       		.uleb128 0x1
 8887 2123 50       		.byte	0x50
 8888 2124 03       		.uleb128 0x3
 8889 2125 91       		.byte	0x91
 8890 2126 64       		.sleb128 -28
 8891 2127 06       		.byte	0x6
 8892 2128 00       		.byte	0
ARM GAS  C:\Users\Phuong\AppData\Local\Temp\ccu7x7Ah.s 			page 185


 8893 2129 23       		.uleb128 0x23
 8894 212a 12020000 		.4byte	.LVL457
 8895 212e 662E0000 		.4byte	0x2e66
 8896 2132 50210000 		.4byte	0x2150
 8897 2136 21       		.uleb128 0x21
 8898 2137 01       		.uleb128 0x1
 8899 2138 50       		.byte	0x50
 8900 2139 02       		.uleb128 0x2
 8901 213a 76       		.byte	0x76
 8902 213b 00       		.sleb128 0
 8903 213c 21       		.uleb128 0x21
 8904 213d 01       		.uleb128 0x1
 8905 213e 52       		.byte	0x52
 8906 213f 01       		.uleb128 0x1
 8907 2140 30       		.byte	0x30
 8908 2141 21       		.uleb128 0x21
 8909 2142 01       		.uleb128 0x1
 8910 2143 53       		.byte	0x53
 8911 2144 03       		.uleb128 0x3
 8912 2145 91       		.byte	0x91
 8913 2146 60       		.sleb128 -32
 8914 2147 06       		.byte	0x6
 8915 2148 21       		.uleb128 0x21
 8916 2149 02       		.uleb128 0x2
 8917 214a 7D       		.byte	0x7d
 8918 214b 00       		.sleb128 0
 8919 214c 02       		.uleb128 0x2
 8920 214d 7A       		.byte	0x7a
 8921 214e 00       		.sleb128 0
 8922 214f 00       		.byte	0
 8923 2150 23       		.uleb128 0x23
 8924 2151 3E020000 		.4byte	.LVL464
 8925 2155 85130000 		.4byte	0x1385
 8926 2159 64210000 		.4byte	0x2164
 8927 215d 21       		.uleb128 0x21
 8928 215e 01       		.uleb128 0x1
 8929 215f 50       		.byte	0x50
 8930 2160 02       		.uleb128 0x2
 8931 2161 74       		.byte	0x74
 8932 2162 00       		.sleb128 0
 8933 2163 00       		.byte	0
 8934 2164 23       		.uleb128 0x23
 8935 2165 4C020000 		.4byte	.LVL465
 8936 2169 712E0000 		.4byte	0x2e71
 8937 216d 81210000 		.4byte	0x2181
 8938 2171 21       		.uleb128 0x21
 8939 2172 01       		.uleb128 0x1
 8940 2173 51       		.byte	0x51
 8941 2174 05       		.uleb128 0x5
 8942 2175 03       		.byte	0x3
 8943 2176 00000000 		.4byte	on_message_receiver_state_changed
 8944 217a 21       		.uleb128 0x21
 8945 217b 01       		.uleb128 0x1
 8946 217c 52       		.byte	0x52
 8947 217d 02       		.uleb128 0x2
 8948 217e 74       		.byte	0x74
 8949 217f 00       		.sleb128 0
ARM GAS  C:\Users\Phuong\AppData\Local\Temp\ccu7x7Ah.s 			page 186


 8950 2180 00       		.byte	0
 8951 2181 23       		.uleb128 0x23
 8952 2182 7C020000 		.4byte	.LVL472
 8953 2186 7C2E0000 		.4byte	0x2e7c
 8954 218a 9E210000 		.4byte	0x219e
 8955 218e 21       		.uleb128 0x21
 8956 218f 01       		.uleb128 0x1
 8957 2190 51       		.byte	0x51
 8958 2191 05       		.uleb128 0x5
 8959 2192 03       		.byte	0x3
 8960 2193 00000000 		.4byte	on_message_sender_state_changed
 8961 2197 21       		.uleb128 0x21
 8962 2198 01       		.uleb128 0x1
 8963 2199 52       		.byte	0x52
 8964 219a 02       		.uleb128 0x2
 8965 219b 74       		.byte	0x74
 8966 219c 00       		.sleb128 0
 8967 219d 00       		.byte	0
 8968 219e 17       		.uleb128 0x17
 8969 219f A6020000 		.4byte	.LVL479
 8970 21a3 872E0000 		.4byte	0x2e87
 8971 21a7 23       		.uleb128 0x23
 8972 21a8 D4020000 		.4byte	.LVL486
 8973 21ac 922E0000 		.4byte	0x2e92
 8974 21b0 C4210000 		.4byte	0x21c4
 8975 21b4 21       		.uleb128 0x21
 8976 21b5 01       		.uleb128 0x1
 8977 21b6 51       		.byte	0x51
 8978 21b7 05       		.uleb128 0x5
 8979 21b8 03       		.byte	0x3
 8980 21b9 00000000 		.4byte	on_message_received
 8981 21bd 21       		.uleb128 0x21
 8982 21be 01       		.uleb128 0x1
 8983 21bf 52       		.byte	0x52
 8984 21c0 02       		.uleb128 0x2
 8985 21c1 74       		.byte	0x74
 8986 21c2 00       		.sleb128 0
 8987 21c3 00       		.byte	0
 8988 21c4 23       		.uleb128 0x23
 8989 21c5 22030000 		.4byte	.LVL503
 8990 21c9 502E0000 		.4byte	0x2e50
 8991 21cd D9210000 		.4byte	0x21d9
 8992 21d1 21       		.uleb128 0x21
 8993 21d2 01       		.uleb128 0x1
 8994 21d3 50       		.byte	0x50
 8995 21d4 03       		.uleb128 0x3
 8996 21d5 91       		.byte	0x91
 8997 21d6 64       		.sleb128 -28
 8998 21d7 06       		.byte	0x6
 8999 21d8 00       		.byte	0
 9000 21d9 25       		.uleb128 0x25
 9001 21da 2C030000 		.4byte	.LVL506
 9002 21de 602D0000 		.4byte	0x2d60
 9003 21e2 21       		.uleb128 0x21
 9004 21e3 01       		.uleb128 0x1
 9005 21e4 50       		.byte	0x50
 9006 21e5 02       		.uleb128 0x2
ARM GAS  C:\Users\Phuong\AppData\Local\Temp\ccu7x7Ah.s 			page 187


 9007 21e6 7A       		.byte	0x7a
 9008 21e7 00       		.sleb128 0
 9009 21e8 00       		.byte	0
 9010 21e9 00       		.byte	0
 9011 21ea 23       		.uleb128 0x23
 9012 21eb A0010000 		.4byte	.LVL437
 9013 21ef 452E0000 		.4byte	0x2e45
 9014 21f3 FE210000 		.4byte	0x21fe
 9015 21f7 21       		.uleb128 0x21
 9016 21f8 01       		.uleb128 0x1
 9017 21f9 50       		.byte	0x50
 9018 21fa 02       		.uleb128 0x2
 9019 21fb 75       		.byte	0x75
 9020 21fc 00       		.sleb128 0
 9021 21fd 00       		.byte	0
 9022 21fe 17       		.uleb128 0x17
 9023 21ff A4010000 		.4byte	.LVL438
 9024 2203 9D2E0000 		.4byte	0x2e9d
 9025 2207 25       		.uleb128 0x25
 9026 2208 38030000 		.4byte	.LVL509
 9027 220c 602D0000 		.4byte	0x2d60
 9028 2210 21       		.uleb128 0x21
 9029 2211 01       		.uleb128 0x1
 9030 2212 50       		.byte	0x50
 9031 2213 03       		.uleb128 0x3
 9032 2214 91       		.byte	0x91
 9033 2215 60       		.sleb128 -32
 9034 2216 06       		.byte	0x6
 9035 2217 00       		.byte	0
 9036 2218 00       		.byte	0
 9037 2219 25       		.uleb128 0x25
 9038 221a 72010000 		.4byte	.LVL428
 9039 221e A82E0000 		.4byte	0x2ea8
 9040 2222 21       		.uleb128 0x21
 9041 2223 01       		.uleb128 0x1
 9042 2224 50       		.byte	0x50
 9043 2225 05       		.uleb128 0x5
 9044 2226 03       		.byte	0x3
 9045 2227 50080000 		.4byte	.LC103
 9046 222b 00       		.byte	0
 9047 222c 00       		.byte	0
 9048 222d 23       		.uleb128 0x23
 9049 222e 08010000 		.4byte	.LVL411
 9050 2232 B5190000 		.4byte	0x19b5
 9051 2236 41220000 		.4byte	0x2241
 9052 223a 21       		.uleb128 0x21
 9053 223b 01       		.uleb128 0x1
 9054 223c 50       		.byte	0x50
 9055 223d 02       		.uleb128 0x2
 9056 223e 74       		.byte	0x74
 9057 223f 00       		.sleb128 0
 9058 2240 00       		.byte	0
 9059 2241 23       		.uleb128 0x23
 9060 2242 36010000 		.4byte	.LVL420
 9061 2246 452E0000 		.4byte	0x2e45
 9062 224a 56220000 		.4byte	0x2256
 9063 224e 21       		.uleb128 0x21
ARM GAS  C:\Users\Phuong\AppData\Local\Temp\ccu7x7Ah.s 			page 188


 9064 224f 01       		.uleb128 0x1
 9065 2250 50       		.byte	0x50
 9066 2251 03       		.uleb128 0x3
 9067 2252 91       		.byte	0x91
 9068 2253 5C       		.sleb128 -36
 9069 2254 06       		.byte	0x6
 9070 2255 00       		.byte	0
 9071 2256 23       		.uleb128 0x23
 9072 2257 44010000 		.4byte	.LVL421
 9073 225b 662E0000 		.4byte	0x2e66
 9074 225f 7D220000 		.4byte	0x227d
 9075 2263 21       		.uleb128 0x21
 9076 2264 01       		.uleb128 0x1
 9077 2265 50       		.byte	0x50
 9078 2266 02       		.uleb128 0x2
 9079 2267 76       		.byte	0x76
 9080 2268 00       		.sleb128 0
 9081 2269 21       		.uleb128 0x21
 9082 226a 01       		.uleb128 0x1
 9083 226b 52       		.byte	0x52
 9084 226c 01       		.uleb128 0x1
 9085 226d 31       		.byte	0x31
 9086 226e 21       		.uleb128 0x21
 9087 226f 01       		.uleb128 0x1
 9088 2270 53       		.byte	0x53
 9089 2271 03       		.uleb128 0x3
 9090 2272 91       		.byte	0x91
 9091 2273 58       		.sleb128 -40
 9092 2274 06       		.byte	0x6
 9093 2275 21       		.uleb128 0x21
 9094 2276 02       		.uleb128 0x2
 9095 2277 7D       		.byte	0x7d
 9096 2278 00       		.sleb128 0
 9097 2279 02       		.uleb128 0x2
 9098 227a 77       		.byte	0x77
 9099 227b 00       		.sleb128 0
 9100 227c 00       		.byte	0
 9101 227d 23       		.uleb128 0x23
 9102 227e 46030000 		.4byte	.LVL513
 9103 2282 502E0000 		.4byte	0x2e50
 9104 2286 92220000 		.4byte	0x2292
 9105 228a 21       		.uleb128 0x21
 9106 228b 01       		.uleb128 0x1
 9107 228c 50       		.byte	0x50
 9108 228d 03       		.uleb128 0x3
 9109 228e 91       		.byte	0x91
 9110 228f 5C       		.sleb128 -36
 9111 2290 06       		.byte	0x6
 9112 2291 00       		.byte	0
 9113 2292 25       		.uleb128 0x25
 9114 2293 50030000 		.4byte	.LVL516
 9115 2297 602D0000 		.4byte	0x2d60
 9116 229b 21       		.uleb128 0x21
 9117 229c 01       		.uleb128 0x1
 9118 229d 50       		.byte	0x50
 9119 229e 02       		.uleb128 0x2
 9120 229f 77       		.byte	0x77
ARM GAS  C:\Users\Phuong\AppData\Local\Temp\ccu7x7Ah.s 			page 189


 9121 22a0 00       		.sleb128 0
 9122 22a1 00       		.byte	0
 9123 22a2 00       		.byte	0
 9124 22a3 23       		.uleb128 0x23
 9125 22a4 DA000000 		.4byte	.LVL402
 9126 22a8 9D2E0000 		.4byte	0x2e9d
 9127 22ac BA220000 		.4byte	0x22ba
 9128 22b0 21       		.uleb128 0x21
 9129 22b1 01       		.uleb128 0x1
 9130 22b2 50       		.byte	0x50
 9131 22b3 05       		.uleb128 0x5
 9132 22b4 03       		.byte	0x3
 9133 22b5 DC070000 		.4byte	.LC95
 9134 22b9 00       		.byte	0
 9135 22ba 25       		.uleb128 0x25
 9136 22bb 5A030000 		.4byte	.LVL519
 9137 22bf 602D0000 		.4byte	0x2d60
 9138 22c3 21       		.uleb128 0x21
 9139 22c4 01       		.uleb128 0x1
 9140 22c5 50       		.byte	0x50
 9141 22c6 03       		.uleb128 0x3
 9142 22c7 91       		.byte	0x91
 9143 22c8 58       		.sleb128 -40
 9144 22c9 06       		.byte	0x6
 9145 22ca 00       		.byte	0
 9146 22cb 00       		.byte	0
 9147 22cc 23       		.uleb128 0x23
 9148 22cd A8000000 		.4byte	.LVL392
 9149 22d1 452E0000 		.4byte	0x2e45
 9150 22d5 E0220000 		.4byte	0x22e0
 9151 22d9 21       		.uleb128 0x21
 9152 22da 01       		.uleb128 0x1
 9153 22db 50       		.byte	0x50
 9154 22dc 02       		.uleb128 0x2
 9155 22dd 75       		.byte	0x75
 9156 22de 00       		.sleb128 0
 9157 22df 00       		.byte	0
 9158 22e0 17       		.uleb128 0x17
 9159 22e1 AC000000 		.4byte	.LVL393
 9160 22e5 A82E0000 		.4byte	0x2ea8
 9161 22e9 25       		.uleb128 0x25
 9162 22ea 64030000 		.4byte	.LVL522
 9163 22ee 502E0000 		.4byte	0x2e50
 9164 22f2 21       		.uleb128 0x21
 9165 22f3 01       		.uleb128 0x1
 9166 22f4 50       		.byte	0x50
 9167 22f5 02       		.uleb128 0x2
 9168 22f6 75       		.byte	0x75
 9169 22f7 00       		.sleb128 0
 9170 22f8 00       		.byte	0
 9171 22f9 00       		.byte	0
 9172 22fa 17       		.uleb128 0x17
 9173 22fb 88000000 		.4byte	.LVL390
 9174 22ff 60190000 		.4byte	0x1960
 9175 2303 00       		.byte	0
 9176 2304 00       		.byte	0
 9177 2305 0F       		.uleb128 0xf
ARM GAS  C:\Users\Phuong\AppData\Local\Temp\ccu7x7Ah.s 			page 190


 9178 2306 99000000 		.4byte	0x99
 9179 230a 15230000 		.4byte	0x2315
 9180 230e 10       		.uleb128 0x10
 9181 230f 7D000000 		.4byte	0x7d
 9182 2313 25       		.byte	0x25
 9183 2314 00       		.byte	0
 9184 2315 07       		.uleb128 0x7
 9185 2316 05230000 		.4byte	0x2305
 9186 231a 2D       		.uleb128 0x2d
 9187 231b 0D0F0000 		.4byte	.LASF146
 9188 231f 01       		.byte	0x1
 9189 2320 6F03     		.2byte	0x36f
 9190 2322 00000000 		.4byte	.LFB15
 9191 2326 8C000000 		.4byte	.LFE15-.LFB15
 9192 232a 01       		.uleb128 0x1
 9193 232b 9C       		.byte	0x9c
 9194 232c 2C240000 		.4byte	0x242c
 9195 2330 1B       		.uleb128 0x1b
 9196 2331 7D060000 		.4byte	.LASF64
 9197 2335 01       		.byte	0x1
 9198 2336 6F03     		.2byte	0x36f
 9199 2338 10030000 		.4byte	0x310
 9200 233c 551A0000 		.4byte	.LLST98
 9201 2340 1D       		.uleb128 0x1d
 9202 2341 1F110000 		.4byte	.LASF124
 9203 2345 3C240000 		.4byte	0x243c
 9204 2349 05       		.uleb128 0x5
 9205 234a 03       		.byte	0x3
 9206 234b 7C000000 		.4byte	__func__.7964
 9207 234f 1E       		.uleb128 0x1e
 9208 2350 08000000 		.4byte	.LBB92
 9209 2354 20000000 		.4byte	.LBE92-.LBB92
 9210 2358 AB230000 		.4byte	0x23ab
 9211 235c 1F       		.uleb128 0x1f
 9212 235d 6C00     		.ascii	"l\000"
 9213 235f 01       		.byte	0x1
 9214 2360 7403     		.2byte	0x374
 9215 2362 D3000000 		.4byte	0xd3
 9216 2366 C91A0000 		.4byte	.LLST99
 9217 236a 17       		.uleb128 0x17
 9218 236b 0C000000 		.4byte	.LVL531
 9219 236f 292D0000 		.4byte	0x2d29
 9220 2373 20       		.uleb128 0x20
 9221 2374 26000000 		.4byte	.LVL534
 9222 2378 02       		.uleb128 0x2
 9223 2379 74       		.byte	0x74
 9224 237a 00       		.sleb128 0
 9225 237b 21       		.uleb128 0x21
 9226 237c 01       		.uleb128 0x1
 9227 237d 50       		.byte	0x50
 9228 237e 01       		.uleb128 0x1
 9229 237f 30       		.byte	0x30
 9230 2380 21       		.uleb128 0x21
 9231 2381 01       		.uleb128 0x1
 9232 2382 51       		.byte	0x51
 9233 2383 05       		.uleb128 0x5
 9234 2384 03       		.byte	0x3
ARM GAS  C:\Users\Phuong\AppData\Local\Temp\ccu7x7Ah.s 			page 191


 9235 2385 00000000 		.4byte	.LC1
 9236 2389 21       		.uleb128 0x21
 9237 238a 01       		.uleb128 0x1
 9238 238b 52       		.byte	0x52
 9239 238c 05       		.uleb128 0x5
 9240 238d 03       		.byte	0x3
 9241 238e 7C000000 		.4byte	.LANCHOR0+124
 9242 2392 21       		.uleb128 0x21
 9243 2393 01       		.uleb128 0x1
 9244 2394 53       		.byte	0x53
 9245 2395 03       		.uleb128 0x3
 9246 2396 0A       		.byte	0xa
 9247 2397 7403     		.2byte	0x374
 9248 2399 21       		.uleb128 0x21
 9249 239a 02       		.uleb128 0x2
 9250 239b 7D       		.byte	0x7d
 9251 239c 00       		.sleb128 0
 9252 239d 01       		.uleb128 0x1
 9253 239e 31       		.byte	0x31
 9254 239f 21       		.uleb128 0x21
 9255 23a0 02       		.uleb128 0x2
 9256 23a1 7D       		.byte	0x7d
 9257 23a2 04       		.sleb128 4
 9258 23a3 05       		.uleb128 0x5
 9259 23a4 03       		.byte	0x3
 9260 23a5 60090000 		.4byte	.LC126
 9261 23a9 00       		.byte	0
 9262 23aa 00       		.byte	0
 9263 23ab 1E       		.uleb128 0x1e
 9264 23ac 30000000 		.4byte	.LBB93
 9265 23b0 20000000 		.4byte	.LBE93-.LBB93
 9266 23b4 07240000 		.4byte	0x2407
 9267 23b8 1F       		.uleb128 0x1f
 9268 23b9 6C00     		.ascii	"l\000"
 9269 23bb 01       		.byte	0x1
 9270 23bc 7C03     		.2byte	0x37c
 9271 23be D3000000 		.4byte	0xd3
 9272 23c2 E71A0000 		.4byte	.LLST100
 9273 23c6 17       		.uleb128 0x17
 9274 23c7 34000000 		.4byte	.LVL536
 9275 23cb 292D0000 		.4byte	0x2d29
 9276 23cf 20       		.uleb128 0x20
 9277 23d0 4E000000 		.4byte	.LVL539
 9278 23d4 02       		.uleb128 0x2
 9279 23d5 74       		.byte	0x74
 9280 23d6 00       		.sleb128 0
 9281 23d7 21       		.uleb128 0x21
 9282 23d8 01       		.uleb128 0x1
 9283 23d9 50       		.byte	0x50
 9284 23da 01       		.uleb128 0x1
 9285 23db 30       		.byte	0x30
 9286 23dc 21       		.uleb128 0x21
 9287 23dd 01       		.uleb128 0x1
 9288 23de 51       		.byte	0x51
 9289 23df 05       		.uleb128 0x5
 9290 23e0 03       		.byte	0x3
 9291 23e1 00000000 		.4byte	.LC1
ARM GAS  C:\Users\Phuong\AppData\Local\Temp\ccu7x7Ah.s 			page 192


 9292 23e5 21       		.uleb128 0x21
 9293 23e6 01       		.uleb128 0x1
 9294 23e7 52       		.byte	0x52
 9295 23e8 05       		.uleb128 0x5
 9296 23e9 03       		.byte	0x3
 9297 23ea 7C000000 		.4byte	.LANCHOR0+124
 9298 23ee 21       		.uleb128 0x21
 9299 23ef 01       		.uleb128 0x1
 9300 23f0 53       		.byte	0x53
 9301 23f1 03       		.uleb128 0x3
 9302 23f2 0A       		.byte	0xa
 9303 23f3 7C03     		.2byte	0x37c
 9304 23f5 21       		.uleb128 0x21
 9305 23f6 02       		.uleb128 0x2
 9306 23f7 7D       		.byte	0x7d
 9307 23f8 00       		.sleb128 0
 9308 23f9 01       		.uleb128 0x1
 9309 23fa 31       		.byte	0x31
 9310 23fb 21       		.uleb128 0x21
 9311 23fc 02       		.uleb128 0x2
 9312 23fd 7D       		.byte	0x7d
 9313 23fe 04       		.sleb128 4
 9314 23ff 05       		.uleb128 0x5
 9315 2400 03       		.byte	0x3
 9316 2401 6C090000 		.4byte	.LC128
 9317 2405 00       		.byte	0
 9318 2406 00       		.byte	0
 9319 2407 17       		.uleb128 0x17
 9320 2408 56000000 		.4byte	.LVL542
 9321 240c B32E0000 		.4byte	0x2eb3
 9322 2410 17       		.uleb128 0x17
 9323 2411 60000000 		.4byte	.LVL543
 9324 2415 BE2E0000 		.4byte	0x2ebe
 9325 2419 17       		.uleb128 0x17
 9326 241a 68000000 		.4byte	.LVL544
 9327 241e C92E0000 		.4byte	0x2ec9
 9328 2422 17       		.uleb128 0x17
 9329 2423 70000000 		.4byte	.LVL545
 9330 2427 C92E0000 		.4byte	0x2ec9
 9331 242b 00       		.byte	0
 9332 242c 0F       		.uleb128 0xf
 9333 242d 99000000 		.4byte	0x99
 9334 2431 3C240000 		.4byte	0x243c
 9335 2435 10       		.uleb128 0x10
 9336 2436 7D000000 		.4byte	0x7d
 9337 243a 27       		.byte	0x27
 9338 243b 00       		.byte	0
 9339 243c 07       		.uleb128 0x7
 9340 243d 2C240000 		.4byte	0x242c
 9341 2441 2E       		.uleb128 0x2e
 9342 2442 8C0E0000 		.4byte	.LASF147
 9343 2446 01       		.byte	0x1
 9344 2447 A2       		.byte	0xa2
 9345 2448 00000000 		.4byte	.LFB3
 9346 244c 7C000000 		.4byte	.LFE3-.LFB3
 9347 2450 01       		.uleb128 0x1
 9348 2451 9C       		.byte	0x9c
ARM GAS  C:\Users\Phuong\AppData\Local\Temp\ccu7x7Ah.s 			page 193


 9349 2452 33250000 		.4byte	0x2533
 9350 2456 15       		.uleb128 0x15
 9351 2457 7D060000 		.4byte	.LASF64
 9352 245b 01       		.byte	0x1
 9353 245c A2       		.byte	0xa2
 9354 245d 10030000 		.4byte	0x310
 9355 2461 051B0000 		.4byte	.LLST101
 9356 2465 1D       		.uleb128 0x1d
 9357 2466 1F110000 		.4byte	.LASF124
 9358 246a 43250000 		.4byte	0x2543
 9359 246e 05       		.uleb128 0x5
 9360 246f 03       		.byte	0x3
 9361 2470 A4000000 		.4byte	__func__.7753
 9362 2474 1E       		.uleb128 0x1e
 9363 2475 08000000 		.4byte	.LBB94
 9364 2479 1E000000 		.4byte	.LBE94-.LBB94
 9365 247d CE240000 		.4byte	0x24ce
 9366 2481 27       		.uleb128 0x27
 9367 2482 6C00     		.ascii	"l\000"
 9368 2484 01       		.byte	0x1
 9369 2485 A7       		.byte	0xa7
 9370 2486 D3000000 		.4byte	0xd3
 9371 248a 471B0000 		.4byte	.LLST102
 9372 248e 17       		.uleb128 0x17
 9373 248f 0C000000 		.4byte	.LVL548
 9374 2493 292D0000 		.4byte	0x2d29
 9375 2497 20       		.uleb128 0x20
 9376 2498 24000000 		.4byte	.LVL551
 9377 249c 02       		.uleb128 0x2
 9378 249d 74       		.byte	0x74
 9379 249e 00       		.sleb128 0
 9380 249f 21       		.uleb128 0x21
 9381 24a0 01       		.uleb128 0x1
 9382 24a1 50       		.byte	0x50
 9383 24a2 01       		.uleb128 0x1
 9384 24a3 30       		.byte	0x30
 9385 24a4 21       		.uleb128 0x21
 9386 24a5 01       		.uleb128 0x1
 9387 24a6 51       		.byte	0x51
 9388 24a7 05       		.uleb128 0x5
 9389 24a8 03       		.byte	0x3
 9390 24a9 00000000 		.4byte	.LC1
 9391 24ad 21       		.uleb128 0x21
 9392 24ae 01       		.uleb128 0x1
 9393 24af 52       		.byte	0x52
 9394 24b0 05       		.uleb128 0x5
 9395 24b1 03       		.byte	0x3
 9396 24b2 A4000000 		.4byte	.LANCHOR1+36
 9397 24b6 21       		.uleb128 0x21
 9398 24b7 01       		.uleb128 0x1
 9399 24b8 53       		.byte	0x53
 9400 24b9 02       		.uleb128 0x2
 9401 24ba 08       		.byte	0x8
 9402 24bb A7       		.byte	0xa7
 9403 24bc 21       		.uleb128 0x21
 9404 24bd 02       		.uleb128 0x2
 9405 24be 7D       		.byte	0x7d
ARM GAS  C:\Users\Phuong\AppData\Local\Temp\ccu7x7Ah.s 			page 194


 9406 24bf 00       		.sleb128 0
 9407 24c0 01       		.uleb128 0x1
 9408 24c1 31       		.byte	0x31
 9409 24c2 21       		.uleb128 0x21
 9410 24c3 02       		.uleb128 0x2
 9411 24c4 7D       		.byte	0x7d
 9412 24c5 04       		.sleb128 4
 9413 24c6 05       		.uleb128 0x5
 9414 24c7 03       		.byte	0x3
 9415 24c8 60090000 		.4byte	.LC126
 9416 24cc 00       		.byte	0
 9417 24cd 00       		.byte	0
 9418 24ce 2C       		.uleb128 0x2c
 9419 24cf 68010000 		.4byte	.Ldebug_ranges0+0x168
 9420 24d3 27       		.uleb128 0x27
 9421 24d4 6900     		.ascii	"i\000"
 9422 24d6 01       		.byte	0x1
 9423 24d7 AB       		.byte	0xab
 9424 24d8 25000000 		.4byte	0x25
 9425 24dc 651B0000 		.4byte	.LLST103
 9426 24e0 23       		.uleb128 0x23
 9427 24e1 32000000 		.4byte	.LVL553
 9428 24e5 1A230000 		.4byte	0x231a
 9429 24e9 F4240000 		.4byte	0x24f4
 9430 24ed 21       		.uleb128 0x21
 9431 24ee 01       		.uleb128 0x1
 9432 24ef 50       		.byte	0x50
 9433 24f0 02       		.uleb128 0x2
 9434 24f1 75       		.byte	0x75
 9435 24f2 00       		.sleb128 0
 9436 24f3 00       		.byte	0
 9437 24f4 17       		.uleb128 0x17
 9438 24f5 40000000 		.4byte	.LVL555
 9439 24f9 3F2D0000 		.4byte	0x2d3f
 9440 24fd 17       		.uleb128 0x17
 9441 24fe 52000000 		.4byte	.LVL557
 9442 2502 3F2D0000 		.4byte	0x2d3f
 9443 2506 17       		.uleb128 0x17
 9444 2507 58000000 		.4byte	.LVL558
 9445 250b 3F2D0000 		.4byte	0x2d3f
 9446 250f 17       		.uleb128 0x17
 9447 2510 5E000000 		.4byte	.LVL559
 9448 2514 3F2D0000 		.4byte	0x2d3f
 9449 2518 17       		.uleb128 0x17
 9450 2519 64000000 		.4byte	.LVL560
 9451 251d 3F2D0000 		.4byte	0x2d3f
 9452 2521 25       		.uleb128 0x25
 9453 2522 6A000000 		.4byte	.LVL561
 9454 2526 3F2D0000 		.4byte	0x2d3f
 9455 252a 21       		.uleb128 0x21
 9456 252b 01       		.uleb128 0x1
 9457 252c 50       		.byte	0x50
 9458 252d 02       		.uleb128 0x2
 9459 252e 75       		.byte	0x75
 9460 252f 00       		.sleb128 0
 9461 2530 00       		.byte	0
 9462 2531 00       		.byte	0
ARM GAS  C:\Users\Phuong\AppData\Local\Temp\ccu7x7Ah.s 			page 195


 9463 2532 00       		.byte	0
 9464 2533 0F       		.uleb128 0xf
 9465 2534 99000000 		.4byte	0x99
 9466 2538 43250000 		.4byte	0x2543
 9467 253c 10       		.uleb128 0x10
 9468 253d 7D000000 		.4byte	0x7d
 9469 2541 23       		.byte	0x23
 9470 2542 00       		.byte	0
 9471 2543 07       		.uleb128 0x7
 9472 2544 33250000 		.4byte	0x2533
 9473 2548 29       		.uleb128 0x29
 9474 2549 60000000 		.4byte	.LASF148
 9475 254d 01       		.byte	0x1
 9476 254e 9303     		.2byte	0x393
 9477 2550 37000000 		.4byte	0x37
 9478 2554 00000000 		.4byte	.LFB16
 9479 2558 A8030000 		.4byte	.LFE16-.LFB16
 9480 255c 01       		.uleb128 0x1
 9481 255d 9C       		.byte	0x9c
 9482 255e 242D0000 		.4byte	0x2d24
 9483 2562 1B       		.uleb128 0x1b
 9484 2563 FC0D0000 		.4byte	.LASF114
 9485 2567 01       		.byte	0x1
 9486 2568 9303     		.2byte	0x393
 9487 256a DA020000 		.4byte	0x2da
 9488 256e 781B0000 		.4byte	.LLST104
 9489 2572 1B       		.uleb128 0x1b
 9490 2573 19000000 		.4byte	.LASF149
 9491 2577 01       		.byte	0x1
 9492 2578 9303     		.2byte	0x393
 9493 257a 50010000 		.4byte	0x150
 9494 257e 951D0000 		.4byte	.LLST105
 9495 2582 1B       		.uleb128 0x1b
 9496 2583 EE0D0000 		.4byte	.LASF150
 9497 2587 01       		.byte	0x1
 9498 2588 9303     		.2byte	0x393
 9499 258a 25000000 		.4byte	0x25
 9500 258e 381E0000 		.4byte	.LLST106
 9501 2592 1B       		.uleb128 0x1b
 9502 2593 91100000 		.4byte	.LASF151
 9503 2597 01       		.byte	0x1
 9504 2598 9303     		.2byte	0x393
 9505 259a 37000000 		.4byte	0x37
 9506 259e 851E0000 		.4byte	.LLST107
 9507 25a2 19       		.uleb128 0x19
 9508 25a3 AC030000 		.4byte	.LASF112
 9509 25a7 01       		.byte	0x1
 9510 25a8 9503     		.2byte	0x395
 9511 25aa 37000000 		.4byte	0x37
 9512 25ae 4B1F0000 		.4byte	.LLST108
 9513 25b2 1D       		.uleb128 0x1d
 9514 25b3 1F110000 		.4byte	.LASF124
 9515 25b7 242D0000 		.4byte	0x2d24
 9516 25bb 05       		.uleb128 0x5
 9517 25bc 03       		.byte	0x3
 9518 25bd C8000000 		.4byte	__func__.7978
 9519 25c1 1E       		.uleb128 0x1e
ARM GAS  C:\Users\Phuong\AppData\Local\Temp\ccu7x7Ah.s 			page 196


 9520 25c2 10000000 		.4byte	.LBB97
 9521 25c6 1E000000 		.4byte	.LBE97-.LBB97
 9522 25ca 1D260000 		.4byte	0x261d
 9523 25ce 1F       		.uleb128 0x1f
 9524 25cf 6C00     		.ascii	"l\000"
 9525 25d1 01       		.byte	0x1
 9526 25d2 9A03     		.2byte	0x39a
 9527 25d4 D3000000 		.4byte	0xd3
 9528 25d8 C51F0000 		.4byte	.LLST109
 9529 25dc 17       		.uleb128 0x17
 9530 25dd 14000000 		.4byte	.LVL564
 9531 25e1 292D0000 		.4byte	0x2d29
 9532 25e5 20       		.uleb128 0x20
 9533 25e6 2E000000 		.4byte	.LVL567
 9534 25ea 02       		.uleb128 0x2
 9535 25eb 74       		.byte	0x74
 9536 25ec 00       		.sleb128 0
 9537 25ed 21       		.uleb128 0x21
 9538 25ee 01       		.uleb128 0x1
 9539 25ef 50       		.byte	0x50
 9540 25f0 01       		.uleb128 0x1
 9541 25f1 30       		.byte	0x30
 9542 25f2 21       		.uleb128 0x21
 9543 25f3 01       		.uleb128 0x1
 9544 25f4 51       		.byte	0x51
 9545 25f5 05       		.uleb128 0x5
 9546 25f6 03       		.byte	0x3
 9547 25f7 00000000 		.4byte	.LC1
 9548 25fb 21       		.uleb128 0x21
 9549 25fc 01       		.uleb128 0x1
 9550 25fd 52       		.byte	0x52
 9551 25fe 05       		.uleb128 0x5
 9552 25ff 03       		.byte	0x3
 9553 2600 C8000000 		.4byte	.LANCHOR1+72
 9554 2604 21       		.uleb128 0x21
 9555 2605 01       		.uleb128 0x1
 9556 2606 53       		.byte	0x53
 9557 2607 03       		.uleb128 0x3
 9558 2608 0A       		.byte	0xa
 9559 2609 9A03     		.2byte	0x39a
 9560 260b 21       		.uleb128 0x21
 9561 260c 02       		.uleb128 0x2
 9562 260d 7D       		.byte	0x7d
 9563 260e 00       		.sleb128 0
 9564 260f 01       		.uleb128 0x1
 9565 2610 31       		.byte	0x31
 9566 2611 21       		.uleb128 0x21
 9567 2612 02       		.uleb128 0x2
 9568 2613 7D       		.byte	0x7d
 9569 2614 04       		.sleb128 4
 9570 2615 05       		.uleb128 0x5
 9571 2616 03       		.byte	0x3
 9572 2617 94090000 		.4byte	.LC135
 9573 261b 00       		.byte	0
 9574 261c 00       		.byte	0
 9575 261d 1E       		.uleb128 0x1e
 9576 261e 3C000000 		.4byte	.LBB98
ARM GAS  C:\Users\Phuong\AppData\Local\Temp\ccu7x7Ah.s 			page 197


 9577 2622 20000000 		.4byte	.LBE98-.LBB98
 9578 2626 79260000 		.4byte	0x2679
 9579 262a 1F       		.uleb128 0x1f
 9580 262b 6C00     		.ascii	"l\000"
 9581 262d 01       		.byte	0x1
 9582 262e A003     		.2byte	0x3a0
 9583 2630 D3000000 		.4byte	0xd3
 9584 2634 EE1F0000 		.4byte	.LLST110
 9585 2638 17       		.uleb128 0x17
 9586 2639 40000000 		.4byte	.LVL571
 9587 263d 292D0000 		.4byte	0x2d29
 9588 2641 20       		.uleb128 0x20
 9589 2642 5C000000 		.4byte	.LVL574
 9590 2646 02       		.uleb128 0x2
 9591 2647 74       		.byte	0x74
 9592 2648 00       		.sleb128 0
 9593 2649 21       		.uleb128 0x21
 9594 264a 01       		.uleb128 0x1
 9595 264b 50       		.byte	0x50
 9596 264c 01       		.uleb128 0x1
 9597 264d 30       		.byte	0x30
 9598 264e 21       		.uleb128 0x21
 9599 264f 01       		.uleb128 0x1
 9600 2650 51       		.byte	0x51
 9601 2651 05       		.uleb128 0x5
 9602 2652 03       		.byte	0x3
 9603 2653 00000000 		.4byte	.LC1
 9604 2657 21       		.uleb128 0x21
 9605 2658 01       		.uleb128 0x1
 9606 2659 52       		.byte	0x52
 9607 265a 05       		.uleb128 0x5
 9608 265b 03       		.byte	0x3
 9609 265c C8000000 		.4byte	.LANCHOR1+72
 9610 2660 21       		.uleb128 0x21
 9611 2661 01       		.uleb128 0x1
 9612 2662 53       		.byte	0x53
 9613 2663 03       		.uleb128 0x3
 9614 2664 0A       		.byte	0xa
 9615 2665 A003     		.2byte	0x3a0
 9616 2667 21       		.uleb128 0x21
 9617 2668 02       		.uleb128 0x2
 9618 2669 7D       		.byte	0x7d
 9619 266a 00       		.sleb128 0
 9620 266b 01       		.uleb128 0x1
 9621 266c 31       		.byte	0x31
 9622 266d 21       		.uleb128 0x21
 9623 266e 02       		.uleb128 0x2
 9624 266f 7D       		.byte	0x7d
 9625 2670 04       		.sleb128 4
 9626 2671 05       		.uleb128 0x5
 9627 2672 03       		.byte	0x3
 9628 2673 A8090000 		.4byte	.LC137
 9629 2677 00       		.byte	0
 9630 2678 00       		.byte	0
 9631 2679 2C       		.uleb128 0x2c
 9632 267a 80010000 		.4byte	.Ldebug_ranges0+0x180
 9633 267e 19       		.uleb128 0x19
ARM GAS  C:\Users\Phuong\AppData\Local\Temp\ccu7x7Ah.s 			page 198


 9634 267f 95030000 		.4byte	.LASF110
 9635 2683 01       		.byte	0x1
 9636 2684 A603     		.2byte	0x3a6
 9637 2686 C0010000 		.4byte	0x1c0
 9638 268a 17200000 		.4byte	.LLST111
 9639 268e 1E       		.uleb128 0x1e
 9640 268f 68000000 		.4byte	.LBB100
 9641 2693 1E000000 		.4byte	.LBE100-.LBB100
 9642 2697 EA260000 		.4byte	0x26ea
 9643 269b 1F       		.uleb128 0x1f
 9644 269c 6C00     		.ascii	"l\000"
 9645 269e 01       		.byte	0x1
 9646 269f AA03     		.2byte	0x3aa
 9647 26a1 D3000000 		.4byte	0xd3
 9648 26a5 56200000 		.4byte	.LLST112
 9649 26a9 17       		.uleb128 0x17
 9650 26aa 6C000000 		.4byte	.LVL579
 9651 26ae 292D0000 		.4byte	0x2d29
 9652 26b2 20       		.uleb128 0x20
 9653 26b3 86000000 		.4byte	.LVL582
 9654 26b7 02       		.uleb128 0x2
 9655 26b8 74       		.byte	0x74
 9656 26b9 00       		.sleb128 0
 9657 26ba 21       		.uleb128 0x21
 9658 26bb 01       		.uleb128 0x1
 9659 26bc 50       		.byte	0x50
 9660 26bd 01       		.uleb128 0x1
 9661 26be 30       		.byte	0x30
 9662 26bf 21       		.uleb128 0x21
 9663 26c0 01       		.uleb128 0x1
 9664 26c1 51       		.byte	0x51
 9665 26c2 05       		.uleb128 0x5
 9666 26c3 03       		.byte	0x3
 9667 26c4 00000000 		.4byte	.LC1
 9668 26c8 21       		.uleb128 0x21
 9669 26c9 01       		.uleb128 0x1
 9670 26ca 52       		.byte	0x52
 9671 26cb 05       		.uleb128 0x5
 9672 26cc 03       		.byte	0x3
 9673 26cd C8000000 		.4byte	.LANCHOR1+72
 9674 26d1 21       		.uleb128 0x21
 9675 26d2 01       		.uleb128 0x1
 9676 26d3 53       		.byte	0x53
 9677 26d4 03       		.uleb128 0x3
 9678 26d5 0A       		.byte	0xa
 9679 26d6 AA03     		.2byte	0x3aa
 9680 26d8 21       		.uleb128 0x21
 9681 26d9 02       		.uleb128 0x2
 9682 26da 7D       		.byte	0x7d
 9683 26db 00       		.sleb128 0
 9684 26dc 01       		.uleb128 0x1
 9685 26dd 31       		.byte	0x31
 9686 26de 21       		.uleb128 0x21
 9687 26df 02       		.uleb128 0x2
 9688 26e0 7D       		.byte	0x7d
 9689 26e1 04       		.sleb128 4
 9690 26e2 05       		.uleb128 0x5
ARM GAS  C:\Users\Phuong\AppData\Local\Temp\ccu7x7Ah.s 			page 199


 9691 26e3 03       		.byte	0x3
 9692 26e4 DC090000 		.4byte	.LC139
 9693 26e8 00       		.byte	0
 9694 26e9 00       		.byte	0
 9695 26ea 1E       		.uleb128 0x1e
 9696 26eb 8A000000 		.4byte	.LBB101
 9697 26ef 6A020000 		.4byte	.LBE101-.LBB101
 9698 26f3 192D0000 		.4byte	0x2d19
 9699 26f7 19       		.uleb128 0x19
 9700 26f8 14110000 		.4byte	.LASF111
 9701 26fc 01       		.byte	0x1
 9702 26fd B003     		.2byte	0x3b0
 9703 26ff AA010000 		.4byte	0x1aa
 9704 2703 7F200000 		.4byte	.LLST113
 9705 2707 1E       		.uleb128 0x1e
 9706 2708 92000000 		.4byte	.LBB102
 9707 270c 20000000 		.4byte	.LBE102-.LBB102
 9708 2710 63270000 		.4byte	0x2763
 9709 2714 1F       		.uleb128 0x1f
 9710 2715 6C00     		.ascii	"l\000"
 9711 2717 01       		.byte	0x1
 9712 2718 B403     		.2byte	0x3b4
 9713 271a D3000000 		.4byte	0xd3
 9714 271e B3200000 		.4byte	.LLST114
 9715 2722 17       		.uleb128 0x17
 9716 2723 96000000 		.4byte	.LVL587
 9717 2727 292D0000 		.4byte	0x2d29
 9718 272b 20       		.uleb128 0x20
 9719 272c B2000000 		.4byte	.LVL590
 9720 2730 02       		.uleb128 0x2
 9721 2731 74       		.byte	0x74
 9722 2732 00       		.sleb128 0
 9723 2733 21       		.uleb128 0x21
 9724 2734 01       		.uleb128 0x1
 9725 2735 50       		.byte	0x50
 9726 2736 01       		.uleb128 0x1
 9727 2737 30       		.byte	0x30
 9728 2738 21       		.uleb128 0x21
 9729 2739 01       		.uleb128 0x1
 9730 273a 51       		.byte	0x51
 9731 273b 05       		.uleb128 0x5
 9732 273c 03       		.byte	0x3
 9733 273d 00000000 		.4byte	.LC1
 9734 2741 21       		.uleb128 0x21
 9735 2742 01       		.uleb128 0x1
 9736 2743 52       		.byte	0x52
 9737 2744 05       		.uleb128 0x5
 9738 2745 03       		.byte	0x3
 9739 2746 C8000000 		.4byte	.LANCHOR1+72
 9740 274a 21       		.uleb128 0x21
 9741 274b 01       		.uleb128 0x1
 9742 274c 53       		.byte	0x53
 9743 274d 03       		.uleb128 0x3
 9744 274e 0A       		.byte	0xa
 9745 274f B403     		.2byte	0x3b4
 9746 2751 21       		.uleb128 0x21
 9747 2752 02       		.uleb128 0x2
ARM GAS  C:\Users\Phuong\AppData\Local\Temp\ccu7x7Ah.s 			page 200


 9748 2753 7D       		.byte	0x7d
 9749 2754 00       		.sleb128 0
 9750 2755 01       		.uleb128 0x1
 9751 2756 31       		.byte	0x31
 9752 2757 21       		.uleb128 0x21
 9753 2758 02       		.uleb128 0x2
 9754 2759 7D       		.byte	0x7d
 9755 275a 04       		.sleb128 4
 9756 275b 05       		.uleb128 0x5
 9757 275c 03       		.byte	0x3
 9758 275d F4090000 		.4byte	.LC141
 9759 2761 00       		.byte	0
 9760 2762 00       		.byte	0
 9761 2763 1E       		.uleb128 0x1e
 9762 2764 B6000000 		.4byte	.LBB103
 9763 2768 34020000 		.4byte	.LBE103-.LBB103
 9764 276c FF2C0000 		.4byte	0x2cff
 9765 2770 19       		.uleb128 0x19
 9766 2771 57080000 		.4byte	.LASF65
 9767 2775 01       		.byte	0x1
 9768 2776 BA03     		.2byte	0x3ba
 9769 2778 1F010000 		.4byte	0x11f
 9770 277c DC200000 		.4byte	.LLST115
 9771 2780 1E       		.uleb128 0x1e
 9772 2781 C2000000 		.4byte	.LBB104
 9773 2785 1E000000 		.4byte	.LBE104-.LBB104
 9774 2789 DC270000 		.4byte	0x27dc
 9775 278d 1F       		.uleb128 0x1f
 9776 278e 6C00     		.ascii	"l\000"
 9777 2790 01       		.byte	0x1
 9778 2791 BE03     		.2byte	0x3be
 9779 2793 D3000000 		.4byte	0xd3
 9780 2797 12210000 		.4byte	.LLST116
 9781 279b 17       		.uleb128 0x17
 9782 279c C6000000 		.4byte	.LVL596
 9783 27a0 292D0000 		.4byte	0x2d29
 9784 27a4 20       		.uleb128 0x20
 9785 27a5 E0000000 		.4byte	.LVL599
 9786 27a9 02       		.uleb128 0x2
 9787 27aa 76       		.byte	0x76
 9788 27ab 00       		.sleb128 0
 9789 27ac 21       		.uleb128 0x21
 9790 27ad 01       		.uleb128 0x1
 9791 27ae 50       		.byte	0x50
 9792 27af 01       		.uleb128 0x1
 9793 27b0 30       		.byte	0x30
 9794 27b1 21       		.uleb128 0x21
 9795 27b2 01       		.uleb128 0x1
 9796 27b3 51       		.byte	0x51
 9797 27b4 05       		.uleb128 0x5
 9798 27b5 03       		.byte	0x3
 9799 27b6 00000000 		.4byte	.LC1
 9800 27ba 21       		.uleb128 0x21
 9801 27bb 01       		.uleb128 0x1
 9802 27bc 52       		.byte	0x52
 9803 27bd 05       		.uleb128 0x5
 9804 27be 03       		.byte	0x3
ARM GAS  C:\Users\Phuong\AppData\Local\Temp\ccu7x7Ah.s 			page 201


 9805 27bf C8000000 		.4byte	.LANCHOR1+72
 9806 27c3 21       		.uleb128 0x21
 9807 27c4 01       		.uleb128 0x1
 9808 27c5 53       		.byte	0x53
 9809 27c6 03       		.uleb128 0x3
 9810 27c7 0A       		.byte	0xa
 9811 27c8 BE03     		.2byte	0x3be
 9812 27ca 21       		.uleb128 0x21
 9813 27cb 02       		.uleb128 0x2
 9814 27cc 7D       		.byte	0x7d
 9815 27cd 00       		.sleb128 0
 9816 27ce 01       		.uleb128 0x1
 9817 27cf 31       		.byte	0x31
 9818 27d0 21       		.uleb128 0x21
 9819 27d1 02       		.uleb128 0x2
 9820 27d2 7D       		.byte	0x7d
 9821 27d3 04       		.sleb128 4
 9822 27d4 05       		.uleb128 0x5
 9823 27d5 03       		.byte	0x3
 9824 27d6 100A0000 		.4byte	.LC143
 9825 27da 00       		.byte	0
 9826 27db 00       		.byte	0
 9827 27dc 1E       		.uleb128 0x1e
 9828 27dd F0000000 		.4byte	.LBB105
 9829 27e1 1E000000 		.4byte	.LBE105-.LBB105
 9830 27e5 38280000 		.4byte	0x2838
 9831 27e9 1F       		.uleb128 0x1f
 9832 27ea 6C00     		.ascii	"l\000"
 9833 27ec 01       		.byte	0x1
 9834 27ed C703     		.2byte	0x3c7
 9835 27ef D3000000 		.4byte	0xd3
 9836 27f3 3B210000 		.4byte	.LLST117
 9837 27f7 17       		.uleb128 0x17
 9838 27f8 F4000000 		.4byte	.LVL604
 9839 27fc 292D0000 		.4byte	0x2d29
 9840 2800 20       		.uleb128 0x20
 9841 2801 0E010000 		.4byte	.LVL607
 9842 2805 02       		.uleb128 0x2
 9843 2806 77       		.byte	0x77
 9844 2807 00       		.sleb128 0
 9845 2808 21       		.uleb128 0x21
 9846 2809 01       		.uleb128 0x1
 9847 280a 50       		.byte	0x50
 9848 280b 01       		.uleb128 0x1
 9849 280c 30       		.byte	0x30
 9850 280d 21       		.uleb128 0x21
 9851 280e 01       		.uleb128 0x1
 9852 280f 51       		.byte	0x51
 9853 2810 05       		.uleb128 0x5
 9854 2811 03       		.byte	0x3
 9855 2812 00000000 		.4byte	.LC1
 9856 2816 21       		.uleb128 0x21
 9857 2817 01       		.uleb128 0x1
 9858 2818 52       		.byte	0x52
 9859 2819 05       		.uleb128 0x5
 9860 281a 03       		.byte	0x3
 9861 281b C8000000 		.4byte	.LANCHOR1+72
ARM GAS  C:\Users\Phuong\AppData\Local\Temp\ccu7x7Ah.s 			page 202


 9862 281f 21       		.uleb128 0x21
 9863 2820 01       		.uleb128 0x1
 9864 2821 53       		.byte	0x53
 9865 2822 03       		.uleb128 0x3
 9866 2823 0A       		.byte	0xa
 9867 2824 C703     		.2byte	0x3c7
 9868 2826 21       		.uleb128 0x21
 9869 2827 02       		.uleb128 0x2
 9870 2828 7D       		.byte	0x7d
 9871 2829 00       		.sleb128 0
 9872 282a 01       		.uleb128 0x1
 9873 282b 31       		.byte	0x31
 9874 282c 21       		.uleb128 0x21
 9875 282d 02       		.uleb128 0x2
 9876 282e 7D       		.byte	0x7d
 9877 282f 04       		.sleb128 4
 9878 2830 05       		.uleb128 0x5
 9879 2831 03       		.byte	0x3
 9880 2832 340A0000 		.4byte	.LC145
 9881 2836 00       		.byte	0
 9882 2837 00       		.byte	0
 9883 2838 1E       		.uleb128 0x1e
 9884 2839 20010000 		.4byte	.LBB106
 9885 283d 1E000000 		.4byte	.LBE106-.LBB106
 9886 2841 94280000 		.4byte	0x2894
 9887 2845 1F       		.uleb128 0x1f
 9888 2846 6C00     		.ascii	"l\000"
 9889 2848 01       		.byte	0x1
 9890 2849 CE03     		.2byte	0x3ce
 9891 284b D3000000 		.4byte	0xd3
 9892 284f 64210000 		.4byte	.LLST118
 9893 2853 17       		.uleb128 0x17
 9894 2854 24010000 		.4byte	.LVL611
 9895 2858 292D0000 		.4byte	0x2d29
 9896 285c 20       		.uleb128 0x20
 9897 285d 3E010000 		.4byte	.LVL614
 9898 2861 02       		.uleb128 0x2
 9899 2862 77       		.byte	0x77
 9900 2863 00       		.sleb128 0
 9901 2864 21       		.uleb128 0x21
 9902 2865 01       		.uleb128 0x1
 9903 2866 50       		.byte	0x50
 9904 2867 01       		.uleb128 0x1
 9905 2868 30       		.byte	0x30
 9906 2869 21       		.uleb128 0x21
 9907 286a 01       		.uleb128 0x1
 9908 286b 51       		.byte	0x51
 9909 286c 05       		.uleb128 0x5
 9910 286d 03       		.byte	0x3
 9911 286e 00000000 		.4byte	.LC1
 9912 2872 21       		.uleb128 0x21
 9913 2873 01       		.uleb128 0x1
 9914 2874 52       		.byte	0x52
 9915 2875 05       		.uleb128 0x5
 9916 2876 03       		.byte	0x3
 9917 2877 C8000000 		.4byte	.LANCHOR1+72
 9918 287b 21       		.uleb128 0x21
ARM GAS  C:\Users\Phuong\AppData\Local\Temp\ccu7x7Ah.s 			page 203


 9919 287c 01       		.uleb128 0x1
 9920 287d 53       		.byte	0x53
 9921 287e 03       		.uleb128 0x3
 9922 287f 0A       		.byte	0xa
 9923 2880 CE03     		.2byte	0x3ce
 9924 2882 21       		.uleb128 0x21
 9925 2883 02       		.uleb128 0x2
 9926 2884 7D       		.byte	0x7d
 9927 2885 00       		.sleb128 0
 9928 2886 01       		.uleb128 0x1
 9929 2887 31       		.byte	0x31
 9930 2888 21       		.uleb128 0x21
 9931 2889 02       		.uleb128 0x2
 9932 288a 7D       		.byte	0x7d
 9933 288b 04       		.sleb128 4
 9934 288c 05       		.uleb128 0x5
 9935 288d 03       		.byte	0x3
 9936 288e 600A0000 		.4byte	.LC147
 9937 2892 00       		.byte	0
 9938 2893 00       		.byte	0
 9939 2894 22       		.uleb128 0x22
 9940 2895 98010000 		.4byte	.Ldebug_ranges0+0x198
 9941 2899 902C0000 		.4byte	0x2c90
 9942 289d 19       		.uleb128 0x19
 9943 289e 7C0F0000 		.4byte	.LASF152
 9944 28a2 01       		.byte	0x1
 9945 28a3 D403     		.2byte	0x3d4
 9946 28a5 1F010000 		.4byte	0x11f
 9947 28a9 8D210000 		.4byte	.LLST119
 9948 28ad 1E       		.uleb128 0x1e
 9949 28ae 4C010000 		.4byte	.LBB108
 9950 28b2 20000000 		.4byte	.LBE108-.LBB108
 9951 28b6 09290000 		.4byte	0x2909
 9952 28ba 1F       		.uleb128 0x1f
 9953 28bb 6C00     		.ascii	"l\000"
 9954 28bd 01       		.byte	0x1
 9955 28be D803     		.2byte	0x3d8
 9956 28c0 D3000000 		.4byte	0xd3
 9957 28c4 CF210000 		.4byte	.LLST120
 9958 28c8 17       		.uleb128 0x17
 9959 28c9 50010000 		.4byte	.LVL619
 9960 28cd 292D0000 		.4byte	0x2d29
 9961 28d1 20       		.uleb128 0x20
 9962 28d2 6C010000 		.4byte	.LVL622
 9963 28d6 02       		.uleb128 0x2
 9964 28d7 77       		.byte	0x77
 9965 28d8 00       		.sleb128 0
 9966 28d9 21       		.uleb128 0x21
 9967 28da 01       		.uleb128 0x1
 9968 28db 50       		.byte	0x50
 9969 28dc 01       		.uleb128 0x1
 9970 28dd 30       		.byte	0x30
 9971 28de 21       		.uleb128 0x21
 9972 28df 01       		.uleb128 0x1
 9973 28e0 51       		.byte	0x51
 9974 28e1 05       		.uleb128 0x5
 9975 28e2 03       		.byte	0x3
ARM GAS  C:\Users\Phuong\AppData\Local\Temp\ccu7x7Ah.s 			page 204


 9976 28e3 00000000 		.4byte	.LC1
 9977 28e7 21       		.uleb128 0x21
 9978 28e8 01       		.uleb128 0x1
 9979 28e9 52       		.byte	0x52
 9980 28ea 05       		.uleb128 0x5
 9981 28eb 03       		.byte	0x3
 9982 28ec C8000000 		.4byte	.LANCHOR1+72
 9983 28f0 21       		.uleb128 0x21
 9984 28f1 01       		.uleb128 0x1
 9985 28f2 53       		.byte	0x53
 9986 28f3 03       		.uleb128 0x3
 9987 28f4 0A       		.byte	0xa
 9988 28f5 D803     		.2byte	0x3d8
 9989 28f7 21       		.uleb128 0x21
 9990 28f8 02       		.uleb128 0x2
 9991 28f9 7D       		.byte	0x7d
 9992 28fa 00       		.sleb128 0
 9993 28fb 01       		.uleb128 0x1
 9994 28fc 31       		.byte	0x31
 9995 28fd 21       		.uleb128 0x21
 9996 28fe 02       		.uleb128 0x2
 9997 28ff 7D       		.byte	0x7d
 9998 2900 04       		.sleb128 4
 9999 2901 05       		.uleb128 0x5
 10000 2902 03       		.byte	0x3
 10001 2903 900A0000 		.4byte	.LC149
 10002 2907 00       		.byte	0
 10003 2908 00       		.byte	0
 10004 2909 1E       		.uleb128 0x1e
 10005 290a 70010000 		.4byte	.LBB109
 10006 290e 5C010000 		.4byte	.LBE109-.LBB109
 10007 2912 862C0000 		.4byte	0x2c86
 10008 2916 19       		.uleb128 0x19
 10009 2917 670D0000 		.4byte	.LASF153
 10010 291b 01       		.byte	0x1
 10011 291c DE03     		.2byte	0x3de
 10012 291e 1F010000 		.4byte	0x11f
 10013 2922 F8210000 		.4byte	.LLST121
 10014 2926 1E       		.uleb128 0x1e
 10015 2927 7C010000 		.4byte	.LBB110
 10016 292b 1E000000 		.4byte	.LBE110-.LBB110
 10017 292f 82290000 		.4byte	0x2982
 10018 2933 1F       		.uleb128 0x1f
 10019 2934 6C00     		.ascii	"l\000"
 10020 2936 01       		.byte	0x1
 10021 2937 E203     		.2byte	0x3e2
 10022 2939 D3000000 		.4byte	0xd3
 10023 293d 2E220000 		.4byte	.LLST122
 10024 2941 17       		.uleb128 0x17
 10025 2942 80010000 		.4byte	.LVL628
 10026 2946 292D0000 		.4byte	0x2d29
 10027 294a 20       		.uleb128 0x20
 10028 294b 9A010000 		.4byte	.LVL631
 10029 294f 02       		.uleb128 0x2
 10030 2950 77       		.byte	0x77
 10031 2951 00       		.sleb128 0
 10032 2952 21       		.uleb128 0x21
ARM GAS  C:\Users\Phuong\AppData\Local\Temp\ccu7x7Ah.s 			page 205


 10033 2953 01       		.uleb128 0x1
 10034 2954 50       		.byte	0x50
 10035 2955 01       		.uleb128 0x1
 10036 2956 30       		.byte	0x30
 10037 2957 21       		.uleb128 0x21
 10038 2958 01       		.uleb128 0x1
 10039 2959 51       		.byte	0x51
 10040 295a 05       		.uleb128 0x5
 10041 295b 03       		.byte	0x3
 10042 295c 00000000 		.4byte	.LC1
 10043 2960 21       		.uleb128 0x21
 10044 2961 01       		.uleb128 0x1
 10045 2962 52       		.byte	0x52
 10046 2963 05       		.uleb128 0x5
 10047 2964 03       		.byte	0x3
 10048 2965 C8000000 		.4byte	.LANCHOR1+72
 10049 2969 21       		.uleb128 0x21
 10050 296a 01       		.uleb128 0x1
 10051 296b 53       		.byte	0x53
 10052 296c 03       		.uleb128 0x3
 10053 296d 0A       		.byte	0xa
 10054 296e E203     		.2byte	0x3e2
 10055 2970 21       		.uleb128 0x21
 10056 2971 02       		.uleb128 0x2
 10057 2972 7D       		.byte	0x7d
 10058 2973 00       		.sleb128 0
 10059 2974 01       		.uleb128 0x1
 10060 2975 31       		.byte	0x31
 10061 2976 21       		.uleb128 0x21
 10062 2977 02       		.uleb128 0x2
 10063 2978 7D       		.byte	0x7d
 10064 2979 04       		.sleb128 4
 10065 297a 05       		.uleb128 0x5
 10066 297b 03       		.byte	0x3
 10067 297c D00A0000 		.4byte	.LC153
 10068 2980 00       		.byte	0
 10069 2981 00       		.byte	0
 10070 2982 1E       		.uleb128 0x1e
 10071 2983 9E010000 		.4byte	.LBB111
 10072 2987 24010000 		.4byte	.LBE111-.LBB111
 10073 298b 5D2C0000 		.4byte	0x2c5d
 10074 298f 19       		.uleb128 0x19
 10075 2990 E90E0000 		.4byte	.LASF154
 10076 2994 01       		.byte	0x1
 10077 2995 E803     		.2byte	0x3e8
 10078 2997 1F010000 		.4byte	0x11f
 10079 299b 57220000 		.4byte	.LLST123
 10080 299f 1E       		.uleb128 0x1e
 10081 29a0 AA010000 		.4byte	.LBB112
 10082 29a4 20000000 		.4byte	.LBE112-.LBB112
 10083 29a8 FB290000 		.4byte	0x29fb
 10084 29ac 1F       		.uleb128 0x1f
 10085 29ad 6C00     		.ascii	"l\000"
 10086 29af 01       		.byte	0x1
 10087 29b0 EC03     		.2byte	0x3ec
 10088 29b2 D3000000 		.4byte	0xd3
 10089 29b6 8D220000 		.4byte	.LLST124
ARM GAS  C:\Users\Phuong\AppData\Local\Temp\ccu7x7Ah.s 			page 206


 10090 29ba 17       		.uleb128 0x17
 10091 29bb AE010000 		.4byte	.LVL637
 10092 29bf 292D0000 		.4byte	0x2d29
 10093 29c3 20       		.uleb128 0x20
 10094 29c4 CA010000 		.4byte	.LVL640
 10095 29c8 02       		.uleb128 0x2
 10096 29c9 77       		.byte	0x77
 10097 29ca 00       		.sleb128 0
 10098 29cb 21       		.uleb128 0x21
 10099 29cc 01       		.uleb128 0x1
 10100 29cd 50       		.byte	0x50
 10101 29ce 01       		.uleb128 0x1
 10102 29cf 30       		.byte	0x30
 10103 29d0 21       		.uleb128 0x21
 10104 29d1 01       		.uleb128 0x1
 10105 29d2 51       		.byte	0x51
 10106 29d3 05       		.uleb128 0x5
 10107 29d4 03       		.byte	0x3
 10108 29d5 00000000 		.4byte	.LC1
 10109 29d9 21       		.uleb128 0x21
 10110 29da 01       		.uleb128 0x1
 10111 29db 52       		.byte	0x52
 10112 29dc 05       		.uleb128 0x5
 10113 29dd 03       		.byte	0x3
 10114 29de C8000000 		.4byte	.LANCHOR1+72
 10115 29e2 21       		.uleb128 0x21
 10116 29e3 01       		.uleb128 0x1
 10117 29e4 53       		.byte	0x53
 10118 29e5 03       		.uleb128 0x3
 10119 29e6 0A       		.byte	0xa
 10120 29e7 EC03     		.2byte	0x3ec
 10121 29e9 21       		.uleb128 0x21
 10122 29ea 02       		.uleb128 0x2
 10123 29eb 7D       		.byte	0x7d
 10124 29ec 00       		.sleb128 0
 10125 29ed 01       		.uleb128 0x1
 10126 29ee 31       		.byte	0x31
 10127 29ef 21       		.uleb128 0x21
 10128 29f0 02       		.uleb128 0x2
 10129 29f1 7D       		.byte	0x7d
 10130 29f2 04       		.sleb128 4
 10131 29f3 05       		.uleb128 0x5
 10132 29f4 03       		.byte	0x3
 10133 29f5 080B0000 		.4byte	.LC155
 10134 29f9 00       		.byte	0
 10135 29fa 00       		.byte	0
 10136 29fb 1E       		.uleb128 0x1e
 10137 29fc DC010000 		.4byte	.LBB113
 10138 2a00 1C000000 		.4byte	.LBE113-.LBB113
 10139 2a04 572A0000 		.4byte	0x2a57
 10140 2a08 1F       		.uleb128 0x1f
 10141 2a09 6C00     		.ascii	"l\000"
 10142 2a0b 01       		.byte	0x1
 10143 2a0c F503     		.2byte	0x3f5
 10144 2a0e D3000000 		.4byte	0xd3
 10145 2a12 B6220000 		.4byte	.LLST125
 10146 2a16 17       		.uleb128 0x17
ARM GAS  C:\Users\Phuong\AppData\Local\Temp\ccu7x7Ah.s 			page 207


 10147 2a17 E0010000 		.4byte	.LVL645
 10148 2a1b 292D0000 		.4byte	0x2d29
 10149 2a1f 20       		.uleb128 0x20
 10150 2a20 F8010000 		.4byte	.LVL648
 10151 2a24 02       		.uleb128 0x2
 10152 2a25 77       		.byte	0x77
 10153 2a26 00       		.sleb128 0
 10154 2a27 21       		.uleb128 0x21
 10155 2a28 01       		.uleb128 0x1
 10156 2a29 50       		.byte	0x50
 10157 2a2a 01       		.uleb128 0x1
 10158 2a2b 30       		.byte	0x30
 10159 2a2c 21       		.uleb128 0x21
 10160 2a2d 01       		.uleb128 0x1
 10161 2a2e 51       		.byte	0x51
 10162 2a2f 05       		.uleb128 0x5
 10163 2a30 03       		.byte	0x3
 10164 2a31 00000000 		.4byte	.LC1
 10165 2a35 21       		.uleb128 0x21
 10166 2a36 01       		.uleb128 0x1
 10167 2a37 52       		.byte	0x52
 10168 2a38 05       		.uleb128 0x5
 10169 2a39 03       		.byte	0x3
 10170 2a3a C8000000 		.4byte	.LANCHOR1+72
 10171 2a3e 21       		.uleb128 0x21
 10172 2a3f 01       		.uleb128 0x1
 10173 2a40 53       		.byte	0x53
 10174 2a41 03       		.uleb128 0x3
 10175 2a42 0A       		.byte	0xa
 10176 2a43 F503     		.2byte	0x3f5
 10177 2a45 21       		.uleb128 0x21
 10178 2a46 02       		.uleb128 0x2
 10179 2a47 7D       		.byte	0x7d
 10180 2a48 00       		.sleb128 0
 10181 2a49 01       		.uleb128 0x1
 10182 2a4a 31       		.byte	0x31
 10183 2a4b 21       		.uleb128 0x21
 10184 2a4c 02       		.uleb128 0x2
 10185 2a4d 7D       		.byte	0x7d
 10186 2a4e 04       		.sleb128 4
 10187 2a4f 05       		.uleb128 0x5
 10188 2a50 03       		.byte	0x3
 10189 2a51 580B0000 		.4byte	.LC157
 10190 2a55 00       		.byte	0
 10191 2a56 00       		.byte	0
 10192 2a57 1E       		.uleb128 0x1e
 10193 2a58 08020000 		.4byte	.LBB114
 10194 2a5c 1C000000 		.4byte	.LBE114-.LBB114
 10195 2a60 B32A0000 		.4byte	0x2ab3
 10196 2a64 1F       		.uleb128 0x1f
 10197 2a65 6C00     		.ascii	"l\000"
 10198 2a67 01       		.byte	0x1
 10199 2a68 FE03     		.2byte	0x3fe
 10200 2a6a D3000000 		.4byte	0xd3
 10201 2a6e DF220000 		.4byte	.LLST126
 10202 2a72 17       		.uleb128 0x17
 10203 2a73 0C020000 		.4byte	.LVL652
ARM GAS  C:\Users\Phuong\AppData\Local\Temp\ccu7x7Ah.s 			page 208


 10204 2a77 292D0000 		.4byte	0x2d29
 10205 2a7b 20       		.uleb128 0x20
 10206 2a7c 24020000 		.4byte	.LVL655
 10207 2a80 02       		.uleb128 0x2
 10208 2a81 77       		.byte	0x77
 10209 2a82 00       		.sleb128 0
 10210 2a83 21       		.uleb128 0x21
 10211 2a84 01       		.uleb128 0x1
 10212 2a85 50       		.byte	0x50
 10213 2a86 01       		.uleb128 0x1
 10214 2a87 30       		.byte	0x30
 10215 2a88 21       		.uleb128 0x21
 10216 2a89 01       		.uleb128 0x1
 10217 2a8a 51       		.byte	0x51
 10218 2a8b 05       		.uleb128 0x5
 10219 2a8c 03       		.byte	0x3
 10220 2a8d 00000000 		.4byte	.LC1
 10221 2a91 21       		.uleb128 0x21
 10222 2a92 01       		.uleb128 0x1
 10223 2a93 52       		.byte	0x52
 10224 2a94 05       		.uleb128 0x5
 10225 2a95 03       		.byte	0x3
 10226 2a96 C8000000 		.4byte	.LANCHOR1+72
 10227 2a9a 21       		.uleb128 0x21
 10228 2a9b 01       		.uleb128 0x1
 10229 2a9c 53       		.byte	0x53
 10230 2a9d 03       		.uleb128 0x3
 10231 2a9e 0A       		.byte	0xa
 10232 2a9f FE03     		.2byte	0x3fe
 10233 2aa1 21       		.uleb128 0x21
 10234 2aa2 02       		.uleb128 0x2
 10235 2aa3 7D       		.byte	0x7d
 10236 2aa4 00       		.sleb128 0
 10237 2aa5 01       		.uleb128 0x1
 10238 2aa6 31       		.byte	0x31
 10239 2aa7 21       		.uleb128 0x21
 10240 2aa8 02       		.uleb128 0x2
 10241 2aa9 7D       		.byte	0x7d
 10242 2aaa 04       		.sleb128 4
 10243 2aab 05       		.uleb128 0x5
 10244 2aac 03       		.byte	0x3
 10245 2aad 980B0000 		.4byte	.LC159
 10246 2ab1 00       		.byte	0
 10247 2ab2 00       		.byte	0
 10248 2ab3 1E       		.uleb128 0x1e
 10249 2ab4 28020000 		.4byte	.LBB115
 10250 2ab8 82000000 		.4byte	.LBE115-.LBB115
 10251 2abc E32B0000 		.4byte	0x2be3
 10252 2ac0 1C       		.uleb128 0x1c
 10253 2ac1 1F020000 		.4byte	.LASF116
 10254 2ac5 01       		.byte	0x1
 10255 2ac6 0304     		.2byte	0x403
 10256 2ac8 FB010000 		.4byte	0x1fb
 10257 2acc 02       		.uleb128 0x2
 10258 2acd 91       		.byte	0x91
 10259 2ace 60       		.sleb128 -32
 10260 2acf 1E       		.uleb128 0x1e
ARM GAS  C:\Users\Phuong\AppData\Local\Temp\ccu7x7Ah.s 			page 209


 10261 2ad0 3C020000 		.4byte	.LBB116
 10262 2ad4 1C000000 		.4byte	.LBE116-.LBB116
 10263 2ad8 2B2B0000 		.4byte	0x2b2b
 10264 2adc 1F       		.uleb128 0x1f
 10265 2add 6C00     		.ascii	"l\000"
 10266 2adf 01       		.byte	0x1
 10267 2ae0 0E04     		.2byte	0x40e
 10268 2ae2 D3000000 		.4byte	0xd3
 10269 2ae6 08230000 		.4byte	.LLST127
 10270 2aea 17       		.uleb128 0x17
 10271 2aeb 40020000 		.4byte	.LVL659
 10272 2aef 292D0000 		.4byte	0x2d29
 10273 2af3 20       		.uleb128 0x20
 10274 2af4 58020000 		.4byte	.LVL662
 10275 2af8 02       		.uleb128 0x2
 10276 2af9 77       		.byte	0x77
 10277 2afa 00       		.sleb128 0
 10278 2afb 21       		.uleb128 0x21
 10279 2afc 01       		.uleb128 0x1
 10280 2afd 50       		.byte	0x50
 10281 2afe 01       		.uleb128 0x1
 10282 2aff 30       		.byte	0x30
 10283 2b00 21       		.uleb128 0x21
 10284 2b01 01       		.uleb128 0x1
 10285 2b02 51       		.byte	0x51
 10286 2b03 05       		.uleb128 0x5
 10287 2b04 03       		.byte	0x3
 10288 2b05 00000000 		.4byte	.LC1
 10289 2b09 21       		.uleb128 0x21
 10290 2b0a 01       		.uleb128 0x1
 10291 2b0b 52       		.byte	0x52
 10292 2b0c 05       		.uleb128 0x5
 10293 2b0d 03       		.byte	0x3
 10294 2b0e C8000000 		.4byte	.LANCHOR1+72
 10295 2b12 21       		.uleb128 0x21
 10296 2b13 01       		.uleb128 0x1
 10297 2b14 53       		.byte	0x53
 10298 2b15 03       		.uleb128 0x3
 10299 2b16 0A       		.byte	0xa
 10300 2b17 0E04     		.2byte	0x40e
 10301 2b19 21       		.uleb128 0x21
 10302 2b1a 02       		.uleb128 0x2
 10303 2b1b 7D       		.byte	0x7d
 10304 2b1c 00       		.sleb128 0
 10305 2b1d 01       		.uleb128 0x1
 10306 2b1e 31       		.byte	0x31
 10307 2b1f 21       		.uleb128 0x21
 10308 2b20 02       		.uleb128 0x2
 10309 2b21 7D       		.byte	0x7d
 10310 2b22 04       		.sleb128 4
 10311 2b23 05       		.uleb128 0x5
 10312 2b24 03       		.byte	0x3
 10313 2b25 D00B0000 		.4byte	.LC161
 10314 2b29 00       		.byte	0
 10315 2b2a 00       		.byte	0
 10316 2b2b 1E       		.uleb128 0x1e
 10317 2b2c 70020000 		.4byte	.LBB117
ARM GAS  C:\Users\Phuong\AppData\Local\Temp\ccu7x7Ah.s 			page 210


 10318 2b30 1C000000 		.4byte	.LBE117-.LBB117
 10319 2b34 872B0000 		.4byte	0x2b87
 10320 2b38 1F       		.uleb128 0x1f
 10321 2b39 6C00     		.ascii	"l\000"
 10322 2b3b 01       		.byte	0x1
 10323 2b3c 1904     		.2byte	0x419
 10324 2b3e D3000000 		.4byte	0xd3
 10325 2b42 31230000 		.4byte	.LLST128
 10326 2b46 17       		.uleb128 0x17
 10327 2b47 74020000 		.4byte	.LVL666
 10328 2b4b 292D0000 		.4byte	0x2d29
 10329 2b4f 20       		.uleb128 0x20
 10330 2b50 8C020000 		.4byte	.LVL669
 10331 2b54 02       		.uleb128 0x2
 10332 2b55 77       		.byte	0x77
 10333 2b56 00       		.sleb128 0
 10334 2b57 21       		.uleb128 0x21
 10335 2b58 01       		.uleb128 0x1
 10336 2b59 50       		.byte	0x50
 10337 2b5a 01       		.uleb128 0x1
 10338 2b5b 30       		.byte	0x30
 10339 2b5c 21       		.uleb128 0x21
 10340 2b5d 01       		.uleb128 0x1
 10341 2b5e 51       		.byte	0x51
 10342 2b5f 05       		.uleb128 0x5
 10343 2b60 03       		.byte	0x3
 10344 2b61 00000000 		.4byte	.LC1
 10345 2b65 21       		.uleb128 0x21
 10346 2b66 01       		.uleb128 0x1
 10347 2b67 52       		.byte	0x52
 10348 2b68 05       		.uleb128 0x5
 10349 2b69 03       		.byte	0x3
 10350 2b6a C8000000 		.4byte	.LANCHOR1+72
 10351 2b6e 21       		.uleb128 0x21
 10352 2b6f 01       		.uleb128 0x1
 10353 2b70 53       		.byte	0x53
 10354 2b71 03       		.uleb128 0x3
 10355 2b72 0A       		.byte	0xa
 10356 2b73 1904     		.2byte	0x419
 10357 2b75 21       		.uleb128 0x21
 10358 2b76 02       		.uleb128 0x2
 10359 2b77 7D       		.byte	0x7d
 10360 2b78 00       		.sleb128 0
 10361 2b79 01       		.uleb128 0x1
 10362 2b7a 31       		.byte	0x31
 10363 2b7b 21       		.uleb128 0x21
 10364 2b7c 02       		.uleb128 0x2
 10365 2b7d 7D       		.byte	0x7d
 10366 2b7e 04       		.sleb128 4
 10367 2b7f 05       		.uleb128 0x5
 10368 2b80 03       		.byte	0x3
 10369 2b81 080C0000 		.4byte	.LC164
 10370 2b85 00       		.byte	0
 10371 2b86 00       		.byte	0
 10372 2b87 23       		.uleb128 0x23
 10373 2b88 38020000 		.4byte	.LVL658
 10374 2b8c D42E0000 		.4byte	0x2ed4
ARM GAS  C:\Users\Phuong\AppData\Local\Temp\ccu7x7Ah.s 			page 211


 10375 2b90 9B2B0000 		.4byte	0x2b9b
 10376 2b94 21       		.uleb128 0x21
 10377 2b95 01       		.uleb128 0x1
 10378 2b96 50       		.byte	0x50
 10379 2b97 02       		.uleb128 0x2
 10380 2b98 75       		.byte	0x75
 10381 2b99 00       		.sleb128 0
 10382 2b9a 00       		.byte	0
 10383 2b9b 23       		.uleb128 0x23
 10384 2b9c 6C020000 		.4byte	.LVL665
 10385 2ba0 DF2E0000 		.4byte	0x2edf
 10386 2ba4 BE2B0000 		.4byte	0x2bbe
 10387 2ba8 21       		.uleb128 0x21
 10388 2ba9 01       		.uleb128 0x1
 10389 2baa 51       		.byte	0x51
 10390 2bab 02       		.uleb128 0x2
 10391 2bac 75       		.byte	0x75
 10392 2bad 00       		.sleb128 0
 10393 2bae 21       		.uleb128 0x21
 10394 2baf 01       		.uleb128 0x1
 10395 2bb0 52       		.byte	0x52
 10396 2bb1 05       		.uleb128 0x5
 10397 2bb2 03       		.byte	0x3
 10398 2bb3 00000000 		.4byte	on_message_send_complete
 10399 2bb7 21       		.uleb128 0x21
 10400 2bb8 02       		.uleb128 0x2
 10401 2bb9 7D       		.byte	0x7d
 10402 2bba 00       		.sleb128 0
 10403 2bbb 01       		.uleb128 0x1
 10404 2bbc 30       		.byte	0x30
 10405 2bbd 00       		.byte	0
 10406 2bbe 23       		.uleb128 0x23
 10407 2bbf 98020000 		.4byte	.LVL672
 10408 2bc3 A30F0000 		.4byte	0xfa3
 10409 2bc7 D22B0000 		.4byte	0x2bd2
 10410 2bcb 21       		.uleb128 0x21
 10411 2bcc 01       		.uleb128 0x1
 10412 2bcd 51       		.byte	0x51
 10413 2bce 02       		.uleb128 0x2
 10414 2bcf 77       		.byte	0x77
 10415 2bd0 00       		.sleb128 0
 10416 2bd1 00       		.byte	0
 10417 2bd2 25       		.uleb128 0x25
 10418 2bd3 9E020000 		.4byte	.LVL673
 10419 2bd7 3F2D0000 		.4byte	0x2d3f
 10420 2bdb 21       		.uleb128 0x21
 10421 2bdc 01       		.uleb128 0x1
 10422 2bdd 50       		.byte	0x50
 10423 2bde 02       		.uleb128 0x2
 10424 2bdf 77       		.byte	0x77
 10425 2be0 00       		.sleb128 0
 10426 2be1 00       		.byte	0
 10427 2be2 00       		.byte	0
 10428 2be3 23       		.uleb128 0x23
 10429 2be4 A4010000 		.4byte	.LVL635
 10430 2be8 EA2E0000 		.4byte	0x2eea
 10431 2bec F82B0000 		.4byte	0x2bf8
ARM GAS  C:\Users\Phuong\AppData\Local\Temp\ccu7x7Ah.s 			page 212


 10432 2bf0 21       		.uleb128 0x21
 10433 2bf1 01       		.uleb128 0x1
 10434 2bf2 50       		.byte	0x50
 10435 2bf3 03       		.uleb128 0x3
 10436 2bf4 91       		.byte	0x91
 10437 2bf5 54       		.sleb128 -44
 10438 2bf6 06       		.byte	0x6
 10439 2bf7 00       		.byte	0
 10440 2bf8 23       		.uleb128 0x23
 10441 2bf9 D8010000 		.4byte	.LVL644
 10442 2bfd 242E0000 		.4byte	0x2e24
 10443 2c01 1B2C0000 		.4byte	0x2c1b
 10444 2c05 21       		.uleb128 0x21
 10445 2c06 01       		.uleb128 0x1
 10446 2c07 50       		.byte	0x50
 10447 2c08 03       		.uleb128 0x3
 10448 2c09 91       		.byte	0x91
 10449 2c0a 58       		.sleb128 -40
 10450 2c0b 06       		.byte	0x6
 10451 2c0c 21       		.uleb128 0x21
 10452 2c0d 01       		.uleb128 0x1
 10453 2c0e 51       		.byte	0x51
 10454 2c0f 03       		.uleb128 0x3
 10455 2c10 91       		.byte	0x91
 10456 2c11 5C       		.sleb128 -36
 10457 2c12 06       		.byte	0x6
 10458 2c13 21       		.uleb128 0x21
 10459 2c14 01       		.uleb128 0x1
 10460 2c15 52       		.byte	0x52
 10461 2c16 03       		.uleb128 0x3
 10462 2c17 91       		.byte	0x91
 10463 2c18 54       		.sleb128 -44
 10464 2c19 06       		.byte	0x6
 10465 2c1a 00       		.byte	0
 10466 2c1b 23       		.uleb128 0x23
 10467 2c1c 04020000 		.4byte	.LVL651
 10468 2c20 F52E0000 		.4byte	0x2ef5
 10469 2c24 362C0000 		.4byte	0x2c36
 10470 2c28 21       		.uleb128 0x21
 10471 2c29 01       		.uleb128 0x1
 10472 2c2a 50       		.byte	0x50
 10473 2c2b 02       		.uleb128 0x2
 10474 2c2c 75       		.byte	0x75
 10475 2c2d 00       		.sleb128 0
 10476 2c2e 21       		.uleb128 0x21
 10477 2c2f 01       		.uleb128 0x1
 10478 2c30 51       		.byte	0x51
 10479 2c31 03       		.uleb128 0x3
 10480 2c32 91       		.byte	0x91
 10481 2c33 58       		.sleb128 -40
 10482 2c34 06       		.byte	0x6
 10483 2c35 00       		.byte	0
 10484 2c36 23       		.uleb128 0x23
 10485 2c37 B6020000 		.4byte	.LVL681
 10486 2c3b 602D0000 		.4byte	0x2d60
 10487 2c3f 4B2C0000 		.4byte	0x2c4b
 10488 2c43 21       		.uleb128 0x21
ARM GAS  C:\Users\Phuong\AppData\Local\Temp\ccu7x7Ah.s 			page 213


 10489 2c44 01       		.uleb128 0x1
 10490 2c45 50       		.byte	0x50
 10491 2c46 03       		.uleb128 0x3
 10492 2c47 91       		.byte	0x91
 10493 2c48 54       		.sleb128 -44
 10494 2c49 06       		.byte	0x6
 10495 2c4a 00       		.byte	0
 10496 2c4b 25       		.uleb128 0x25
 10497 2c4c C0020000 		.4byte	.LVL684
 10498 2c50 602D0000 		.4byte	0x2d60
 10499 2c54 21       		.uleb128 0x21
 10500 2c55 01       		.uleb128 0x1
 10501 2c56 50       		.byte	0x50
 10502 2c57 03       		.uleb128 0x3
 10503 2c58 91       		.byte	0x91
 10504 2c59 5C       		.sleb128 -36
 10505 2c5a 06       		.byte	0x6
 10506 2c5b 00       		.byte	0
 10507 2c5c 00       		.byte	0
 10508 2c5d 23       		.uleb128 0x23
 10509 2c5e 76010000 		.4byte	.LVL626
 10510 2c62 762D0000 		.4byte	0x2d76
 10511 2c66 742C0000 		.4byte	0x2c74
 10512 2c6a 21       		.uleb128 0x21
 10513 2c6b 01       		.uleb128 0x1
 10514 2c6c 50       		.byte	0x50
 10515 2c6d 05       		.uleb128 0x5
 10516 2c6e 03       		.byte	0x3
 10517 2c6f C00A0000 		.4byte	.LC151
 10518 2c73 00       		.byte	0
 10519 2c74 25       		.uleb128 0x25
 10520 2c75 CA020000 		.4byte	.LVL687
 10521 2c79 602D0000 		.4byte	0x2d60
 10522 2c7d 21       		.uleb128 0x21
 10523 2c7e 01       		.uleb128 0x1
 10524 2c7f 50       		.byte	0x50
 10525 2c80 03       		.uleb128 0x3
 10526 2c81 91       		.byte	0x91
 10527 2c82 58       		.sleb128 -40
 10528 2c83 06       		.byte	0x6
 10529 2c84 00       		.byte	0
 10530 2c85 00       		.byte	0
 10531 2c86 17       		.uleb128 0x17
 10532 2c87 46010000 		.4byte	.LVL617
 10533 2c8b 5B2E0000 		.4byte	0x2e5b
 10534 2c8f 00       		.byte	0
 10535 2c90 23       		.uleb128 0x23
 10536 2c91 BC000000 		.4byte	.LVL594
 10537 2c95 002F0000 		.4byte	0x2f00
 10538 2c99 A42C0000 		.4byte	0x2ca4
 10539 2c9d 21       		.uleb128 0x21
 10540 2c9e 01       		.uleb128 0x1
 10541 2c9f 50       		.byte	0x50
 10542 2ca0 02       		.uleb128 0x2
 10543 2ca1 77       		.byte	0x77
 10544 2ca2 04       		.sleb128 4
 10545 2ca3 00       		.byte	0
ARM GAS  C:\Users\Phuong\AppData\Local\Temp\ccu7x7Ah.s 			page 214


 10546 2ca4 23       		.uleb128 0x23
 10547 2ca5 EC000000 		.4byte	.LVL603
 10548 2ca9 0B2F0000 		.4byte	0x2f0b
 10549 2cad BF2C0000 		.4byte	0x2cbf
 10550 2cb1 21       		.uleb128 0x21
 10551 2cb2 01       		.uleb128 0x1
 10552 2cb3 50       		.byte	0x50
 10553 2cb4 02       		.uleb128 0x2
 10554 2cb5 74       		.byte	0x74
 10555 2cb6 00       		.sleb128 0
 10556 2cb7 21       		.uleb128 0x21
 10557 2cb8 01       		.uleb128 0x1
 10558 2cb9 51       		.byte	0x51
 10559 2cba 03       		.uleb128 0x3
 10560 2cbb 91       		.byte	0x91
 10561 2cbc 4C       		.sleb128 -52
 10562 2cbd 06       		.byte	0x6
 10563 2cbe 00       		.byte	0
 10564 2cbf 23       		.uleb128 0x23
 10565 2cc0 1C010000 		.4byte	.LVL610
 10566 2cc4 162F0000 		.4byte	0x2f16
 10567 2cc8 D92C0000 		.4byte	0x2cd9
 10568 2ccc 21       		.uleb128 0x21
 10569 2ccd 01       		.uleb128 0x1
 10570 2cce 50       		.byte	0x50
 10571 2ccf 02       		.uleb128 0x2
 10572 2cd0 75       		.byte	0x75
 10573 2cd1 00       		.sleb128 0
 10574 2cd2 21       		.uleb128 0x21
 10575 2cd3 01       		.uleb128 0x1
 10576 2cd4 51       		.byte	0x51
 10577 2cd5 02       		.uleb128 0x2
 10578 2cd6 74       		.byte	0x74
 10579 2cd7 00       		.sleb128 0
 10580 2cd8 00       		.byte	0
 10581 2cd9 23       		.uleb128 0x23
 10582 2cda DE020000 		.4byte	.LVL692
 10583 2cde 602D0000 		.4byte	0x2d60
 10584 2ce2 EE2C0000 		.4byte	0x2cee
 10585 2ce6 21       		.uleb128 0x21
 10586 2ce7 01       		.uleb128 0x1
 10587 2ce8 50       		.byte	0x50
 10588 2ce9 03       		.uleb128 0x3
 10589 2cea 91       		.byte	0x91
 10590 2ceb 4C       		.sleb128 -52
 10591 2cec 06       		.byte	0x6
 10592 2ced 00       		.byte	0
 10593 2cee 25       		.uleb128 0x25
 10594 2cef E8020000 		.4byte	.LVL695
 10595 2cf3 CE2D0000 		.4byte	0x2dce
 10596 2cf7 21       		.uleb128 0x21
 10597 2cf8 01       		.uleb128 0x1
 10598 2cf9 50       		.byte	0x50
 10599 2cfa 02       		.uleb128 0x2
 10600 2cfb 74       		.byte	0x74
 10601 2cfc 00       		.sleb128 0
 10602 2cfd 00       		.byte	0
ARM GAS  C:\Users\Phuong\AppData\Local\Temp\ccu7x7Ah.s 			page 215


 10603 2cfe 00       		.byte	0
 10604 2cff 17       		.uleb128 0x17
 10605 2d00 8E000000 		.4byte	.LVL585
 10606 2d04 212F0000 		.4byte	0x2f21
 10607 2d08 25       		.uleb128 0x25
 10608 2d09 F2020000 		.4byte	.LVL698
 10609 2d0d 2C2F0000 		.4byte	0x2f2c
 10610 2d11 21       		.uleb128 0x21
 10611 2d12 01       		.uleb128 0x1
 10612 2d13 50       		.byte	0x50
 10613 2d14 02       		.uleb128 0x2
 10614 2d15 75       		.byte	0x75
 10615 2d16 00       		.sleb128 0
 10616 2d17 00       		.byte	0
 10617 2d18 00       		.byte	0
 10618 2d19 17       		.uleb128 0x17
 10619 2d1a 64000000 		.4byte	.LVL577
 10620 2d1e 372F0000 		.4byte	0x2f37
 10621 2d22 00       		.byte	0
 10622 2d23 00       		.byte	0
 10623 2d24 07       		.uleb128 0x7
 10624 2d25 33250000 		.4byte	0x2533
 10625 2d29 2F       		.uleb128 0x2f
 10626 2d2a BB020000 		.4byte	.LASF155
 10627 2d2e BB020000 		.4byte	.LASF155
 10628 2d32 03       		.byte	0x3
 10629 2d33 9D       		.byte	0x9d
 10630 2d34 2F       		.uleb128 0x2f
 10631 2d35 04080000 		.4byte	.LASF156
 10632 2d39 04080000 		.4byte	.LASF156
 10633 2d3d 05       		.byte	0x5
 10634 2d3e 40       		.byte	0x40
 10635 2d3f 2F       		.uleb128 0x2f
 10636 2d40 6C070000 		.4byte	.LASF157
 10637 2d44 6C070000 		.4byte	.LASF157
 10638 2d48 0E       		.byte	0xe
 10639 2d49 59       		.byte	0x59
 10640 2d4a 2F       		.uleb128 0x2f
 10641 2d4b 47050000 		.4byte	.LASF158
 10642 2d4f 47050000 		.4byte	.LASF158
 10643 2d53 0F       		.byte	0xf
 10644 2d54 17       		.byte	0x17
 10645 2d55 2F       		.uleb128 0x2f
 10646 2d56 79030000 		.4byte	.LASF159
 10647 2d5a 79030000 		.4byte	.LASF159
 10648 2d5e 0F       		.byte	0xf
 10649 2d5f 16       		.byte	0x16
 10650 2d60 2F       		.uleb128 0x2f
 10651 2d61 460B0000 		.4byte	.LASF160
 10652 2d65 460B0000 		.4byte	.LASF160
 10653 2d69 05       		.byte	0x5
 10654 2d6a 55       		.byte	0x55
 10655 2d6b 2F       		.uleb128 0x2f
 10656 2d6c A1060000 		.4byte	.LASF161
 10657 2d70 A1060000 		.4byte	.LASF161
 10658 2d74 05       		.byte	0x5
 10659 2d75 4A       		.byte	0x4a
ARM GAS  C:\Users\Phuong\AppData\Local\Temp\ccu7x7Ah.s 			page 216


 10660 2d76 2F       		.uleb128 0x2f
 10661 2d77 53030000 		.4byte	.LASF162
 10662 2d7b 53030000 		.4byte	.LASF162
 10663 2d7f 05       		.byte	0x5
 10664 2d80 3F       		.byte	0x3f
 10665 2d81 2F       		.uleb128 0x2f
 10666 2d82 A1040000 		.4byte	.LASF163
 10667 2d86 A1040000 		.4byte	.LASF163
 10668 2d8a 05       		.byte	0x5
 10669 2d8b 6A       		.byte	0x6a
 10670 2d8c 2F       		.uleb128 0x2f
 10671 2d8d F90A0000 		.4byte	.LASF164
 10672 2d91 F90A0000 		.4byte	.LASF164
 10673 2d95 0A       		.byte	0xa
 10674 2d96 37       		.byte	0x37
 10675 2d97 2F       		.uleb128 0x2f
 10676 2d98 DD100000 		.4byte	.LASF165
 10677 2d9c DD100000 		.4byte	.LASF165
 10678 2da0 0A       		.byte	0xa
 10679 2da1 3B       		.byte	0x3b
 10680 2da2 2F       		.uleb128 0x2f
 10681 2da3 5C100000 		.4byte	.LASF166
 10682 2da7 5C100000 		.4byte	.LASF166
 10683 2dab 0E       		.byte	0xe
 10684 2dac 89       		.byte	0x89
 10685 2dad 2F       		.uleb128 0x2f
 10686 2dae 75110000 		.4byte	.LASF167
 10687 2db2 75110000 		.4byte	.LASF167
 10688 2db6 05       		.byte	0x5
 10689 2db7 3C       		.byte	0x3c
 10690 2db8 2F       		.uleb128 0x2f
 10691 2db9 71040000 		.4byte	.LASF168
 10692 2dbd 71040000 		.4byte	.LASF168
 10693 2dc1 0E       		.byte	0xe
 10694 2dc2 64       		.byte	0x64
 10695 2dc3 2F       		.uleb128 0x2f
 10696 2dc4 6E090000 		.4byte	.LASF169
 10697 2dc8 6E090000 		.4byte	.LASF169
 10698 2dcc 09       		.byte	0x9
 10699 2dcd 2B       		.byte	0x2b
 10700 2dce 2F       		.uleb128 0x2f
 10701 2dcf 0A0E0000 		.4byte	.LASF170
 10702 2dd3 0A0E0000 		.4byte	.LASF170
 10703 2dd7 09       		.byte	0x9
 10704 2dd8 1C       		.byte	0x1c
 10705 2dd9 2F       		.uleb128 0x2f
 10706 2dda 540E0000 		.4byte	.LASF171
 10707 2dde 540E0000 		.4byte	.LASF171
 10708 2de2 0A       		.byte	0xa
 10709 2de3 35       		.byte	0x35
 10710 2de4 2F       		.uleb128 0x2f
 10711 2de5 40100000 		.4byte	.LASF172
 10712 2de9 40100000 		.4byte	.LASF172
 10713 2ded 0F       		.byte	0xf
 10714 2dee 18       		.byte	0x18
 10715 2def 2F       		.uleb128 0x2f
 10716 2df0 C3030000 		.4byte	.LASF173
ARM GAS  C:\Users\Phuong\AppData\Local\Temp\ccu7x7Ah.s 			page 217


 10717 2df4 C3030000 		.4byte	.LASF173
 10718 2df8 10       		.byte	0x10
 10719 2df9 18       		.byte	0x18
 10720 2dfa 30       		.uleb128 0x30
 10721 2dfb 680A0000 		.4byte	.LASF206
 10722 2dff 680A0000 		.4byte	.LASF206
 10723 2e03 2F       		.uleb128 0x2f
 10724 2e04 20050000 		.4byte	.LASF174
 10725 2e08 20050000 		.4byte	.LASF174
 10726 2e0c 11       		.byte	0x11
 10727 2e0d 6E       		.byte	0x6e
 10728 2e0e 2F       		.uleb128 0x2f
 10729 2e0f 970B0000 		.4byte	.LASF175
 10730 2e13 970B0000 		.4byte	.LASF175
 10731 2e17 12       		.byte	0x12
 10732 2e18 26       		.byte	0x26
 10733 2e19 2F       		.uleb128 0x2f
 10734 2e1a 54110000 		.4byte	.LASF176
 10735 2e1e 54110000 		.4byte	.LASF176
 10736 2e22 12       		.byte	0x12
 10737 2e23 14       		.byte	0x14
 10738 2e24 2F       		.uleb128 0x2f
 10739 2e25 6F0A0000 		.4byte	.LASF177
 10740 2e29 6F0A0000 		.4byte	.LASF177
 10741 2e2d 05       		.byte	0x5
 10742 2e2e 49       		.byte	0x49
 10743 2e2f 2F       		.uleb128 0x2f
 10744 2e30 F6060000 		.4byte	.LASF178
 10745 2e34 F6060000 		.4byte	.LASF178
 10746 2e38 08       		.byte	0x8
 10747 2e39 45       		.byte	0x45
 10748 2e3a 2F       		.uleb128 0x2f
 10749 2e3b 11100000 		.4byte	.LASF179
 10750 2e3f 11100000 		.4byte	.LASF179
 10751 2e43 05       		.byte	0x5
 10752 2e44 41       		.byte	0x41
 10753 2e45 2F       		.uleb128 0x2f
 10754 2e46 FC040000 		.4byte	.LASF180
 10755 2e4a FC040000 		.4byte	.LASF180
 10756 2e4e 12       		.byte	0x12
 10757 2e4f 20       		.byte	0x20
 10758 2e50 2F       		.uleb128 0x2f
 10759 2e51 E40B0000 		.4byte	.LASF181
 10760 2e55 E40B0000 		.4byte	.LASF181
 10761 2e59 12       		.byte	0x12
 10762 2e5a 1A       		.byte	0x1a
 10763 2e5b 2F       		.uleb128 0x2f
 10764 2e5c A50D0000 		.4byte	.LASF182
 10765 2e60 A50D0000 		.4byte	.LASF182
 10766 2e64 05       		.byte	0x5
 10767 2e65 48       		.byte	0x48
 10768 2e66 2F       		.uleb128 0x2f
 10769 2e67 22010000 		.4byte	.LASF183
 10770 2e6b 22010000 		.4byte	.LASF183
 10771 2e6f 08       		.byte	0x8
 10772 2e70 39       		.byte	0x39
 10773 2e71 2F       		.uleb128 0x2f
ARM GAS  C:\Users\Phuong\AppData\Local\Temp\ccu7x7Ah.s 			page 218


 10774 2e72 9C110000 		.4byte	.LASF184
 10775 2e76 9C110000 		.4byte	.LASF184
 10776 2e7a 0B       		.byte	0xb
 10777 2e7b 20       		.byte	0x20
 10778 2e7c 2F       		.uleb128 0x2f
 10779 2e7d CD0A0000 		.4byte	.LASF185
 10780 2e81 CD0A0000 		.4byte	.LASF185
 10781 2e85 0C       		.byte	0xc
 10782 2e86 29       		.byte	0x29
 10783 2e87 2F       		.uleb128 0x2f
 10784 2e88 E9040000 		.4byte	.LASF186
 10785 2e8c E9040000 		.4byte	.LASF186
 10786 2e90 0C       		.byte	0xc
 10787 2e91 2B       		.byte	0x2b
 10788 2e92 2F       		.uleb128 0x2f
 10789 2e93 310B0000 		.4byte	.LASF187
 10790 2e97 310B0000 		.4byte	.LASF187
 10791 2e9b 0B       		.byte	0xb
 10792 2e9c 22       		.byte	0x22
 10793 2e9d 2F       		.uleb128 0x2f
 10794 2e9e 29090000 		.4byte	.LASF188
 10795 2ea2 29090000 		.4byte	.LASF188
 10796 2ea6 0F       		.byte	0xf
 10797 2ea7 13       		.byte	0x13
 10798 2ea8 2F       		.uleb128 0x2f
 10799 2ea9 B40F0000 		.4byte	.LASF189
 10800 2ead B40F0000 		.4byte	.LASF189
 10801 2eb1 0F       		.byte	0xf
 10802 2eb2 12       		.byte	0x12
 10803 2eb3 2F       		.uleb128 0x2f
 10804 2eb4 DF020000 		.4byte	.LASF190
 10805 2eb8 DF020000 		.4byte	.LASF190
 10806 2ebc 0B       		.byte	0xb
 10807 2ebd 21       		.byte	0x21
 10808 2ebe 2F       		.uleb128 0x2f
 10809 2ebf CE0B0000 		.4byte	.LASF191
 10810 2ec3 CE0B0000 		.4byte	.LASF191
 10811 2ec7 0C       		.byte	0xc
 10812 2ec8 2A       		.byte	0x2a
 10813 2ec9 2F       		.uleb128 0x2f
 10814 2eca 41090000 		.4byte	.LASF192
 10815 2ece 41090000 		.4byte	.LASF192
 10816 2ed2 08       		.byte	0x8
 10817 2ed3 3B       		.byte	0x3b
 10818 2ed4 2F       		.uleb128 0x2f
 10819 2ed5 FA000000 		.4byte	.LASF193
 10820 2ed9 FA000000 		.4byte	.LASF193
 10821 2edd 0A       		.byte	0xa
 10822 2ede 3A       		.byte	0x3a
 10823 2edf 2F       		.uleb128 0x2f
 10824 2ee0 00000000 		.4byte	.LASF194
 10825 2ee4 00000000 		.4byte	.LASF194
 10826 2ee8 0C       		.byte	0xc
 10827 2ee9 2D       		.byte	0x2d
 10828 2eea 2F       		.uleb128 0x2f
 10829 2eeb 32050000 		.4byte	.LASF195
 10830 2eef 32050000 		.4byte	.LASF195
ARM GAS  C:\Users\Phuong\AppData\Local\Temp\ccu7x7Ah.s 			page 219


 10831 2ef3 05       		.byte	0x5
 10832 2ef4 2F       		.byte	0x2f
 10833 2ef5 2F       		.uleb128 0x2f
 10834 2ef6 71070000 		.4byte	.LASF196
 10835 2efa 71070000 		.4byte	.LASF196
 10836 2efe 0A       		.byte	0xa
 10837 2eff 36       		.byte	0x36
 10838 2f00 2F       		.uleb128 0x2f
 10839 2f01 2F070000 		.4byte	.LASF197
 10840 2f05 2F070000 		.4byte	.LASF197
 10841 2f09 05       		.byte	0x5
 10842 2f0a 3B       		.byte	0x3b
 10843 2f0b 2F       		.uleb128 0x2f
 10844 2f0c 70020000 		.4byte	.LASF198
 10845 2f10 70020000 		.4byte	.LASF198
 10846 2f14 09       		.byte	0x9
 10847 2f15 2C       		.byte	0x2c
 10848 2f16 2F       		.uleb128 0x2f
 10849 2f17 C50C0000 		.4byte	.LASF199
 10850 2f1b C50C0000 		.4byte	.LASF199
 10851 2f1f 0A       		.byte	0xa
 10852 2f20 34       		.byte	0x34
 10853 2f21 2F       		.uleb128 0x2f
 10854 2f22 4E090000 		.4byte	.LASF200
 10855 2f26 4E090000 		.4byte	.LASF200
 10856 2f2a 09       		.byte	0x9
 10857 2f2b 1A       		.byte	0x1a
 10858 2f2c 2F       		.uleb128 0x2f
 10859 2f2d A2070000 		.4byte	.LASF201
 10860 2f31 A2070000 		.4byte	.LASF201
 10861 2f35 0A       		.byte	0xa
 10862 2f36 2D       		.byte	0x2d
 10863 2f37 2F       		.uleb128 0x2f
 10864 2f38 AA0A0000 		.4byte	.LASF202
 10865 2f3c AA0A0000 		.4byte	.LASF202
 10866 2f40 0A       		.byte	0xa
 10867 2f41 2B       		.byte	0x2b
 10868 2f42 00       		.byte	0
 10869              		.section	.debug_abbrev,"",%progbits
 10870              	.Ldebug_abbrev0:
 10871 0000 01       		.uleb128 0x1
 10872 0001 11       		.uleb128 0x11
 10873 0002 01       		.byte	0x1
 10874 0003 25       		.uleb128 0x25
 10875 0004 0E       		.uleb128 0xe
 10876 0005 13       		.uleb128 0x13
 10877 0006 0B       		.uleb128 0xb
 10878 0007 03       		.uleb128 0x3
 10879 0008 0E       		.uleb128 0xe
 10880 0009 1B       		.uleb128 0x1b
 10881 000a 0E       		.uleb128 0xe
 10882 000b 55       		.uleb128 0x55
 10883 000c 17       		.uleb128 0x17
 10884 000d 11       		.uleb128 0x11
 10885 000e 01       		.uleb128 0x1
 10886 000f 10       		.uleb128 0x10
 10887 0010 17       		.uleb128 0x17
ARM GAS  C:\Users\Phuong\AppData\Local\Temp\ccu7x7Ah.s 			page 220


 10888 0011 00       		.byte	0
 10889 0012 00       		.byte	0
 10890 0013 02       		.uleb128 0x2
 10891 0014 16       		.uleb128 0x16
 10892 0015 00       		.byte	0
 10893 0016 03       		.uleb128 0x3
 10894 0017 0E       		.uleb128 0xe
 10895 0018 3A       		.uleb128 0x3a
 10896 0019 0B       		.uleb128 0xb
 10897 001a 3B       		.uleb128 0x3b
 10898 001b 0B       		.uleb128 0xb
 10899 001c 49       		.uleb128 0x49
 10900 001d 13       		.uleb128 0x13
 10901 001e 00       		.byte	0
 10902 001f 00       		.byte	0
 10903 0020 03       		.uleb128 0x3
 10904 0021 24       		.uleb128 0x24
 10905 0022 00       		.byte	0
 10906 0023 0B       		.uleb128 0xb
 10907 0024 0B       		.uleb128 0xb
 10908 0025 3E       		.uleb128 0x3e
 10909 0026 0B       		.uleb128 0xb
 10910 0027 03       		.uleb128 0x3
 10911 0028 0E       		.uleb128 0xe
 10912 0029 00       		.byte	0
 10913 002a 00       		.byte	0
 10914 002b 04       		.uleb128 0x4
 10915 002c 24       		.uleb128 0x24
 10916 002d 00       		.byte	0
 10917 002e 0B       		.uleb128 0xb
 10918 002f 0B       		.uleb128 0xb
 10919 0030 3E       		.uleb128 0x3e
 10920 0031 0B       		.uleb128 0xb
 10921 0032 03       		.uleb128 0x3
 10922 0033 08       		.uleb128 0x8
 10923 0034 00       		.byte	0
 10924 0035 00       		.byte	0
 10925 0036 05       		.uleb128 0x5
 10926 0037 0F       		.uleb128 0xf
 10927 0038 00       		.byte	0
 10928 0039 0B       		.uleb128 0xb
 10929 003a 0B       		.uleb128 0xb
 10930 003b 00       		.byte	0
 10931 003c 00       		.byte	0
 10932 003d 06       		.uleb128 0x6
 10933 003e 0F       		.uleb128 0xf
 10934 003f 00       		.byte	0
 10935 0040 0B       		.uleb128 0xb
 10936 0041 0B       		.uleb128 0xb
 10937 0042 49       		.uleb128 0x49
 10938 0043 13       		.uleb128 0x13
 10939 0044 00       		.byte	0
 10940 0045 00       		.byte	0
 10941 0046 07       		.uleb128 0x7
 10942 0047 26       		.uleb128 0x26
 10943 0048 00       		.byte	0
 10944 0049 49       		.uleb128 0x49
ARM GAS  C:\Users\Phuong\AppData\Local\Temp\ccu7x7Ah.s 			page 221


 10945 004a 13       		.uleb128 0x13
 10946 004b 00       		.byte	0
 10947 004c 00       		.byte	0
 10948 004d 08       		.uleb128 0x8
 10949 004e 26       		.uleb128 0x26
 10950 004f 00       		.byte	0
 10951 0050 00       		.byte	0
 10952 0051 00       		.byte	0
 10953 0052 09       		.uleb128 0x9
 10954 0053 04       		.uleb128 0x4
 10955 0054 01       		.byte	0x1
 10956 0055 03       		.uleb128 0x3
 10957 0056 0E       		.uleb128 0xe
 10958 0057 0B       		.uleb128 0xb
 10959 0058 0B       		.uleb128 0xb
 10960 0059 49       		.uleb128 0x49
 10961 005a 13       		.uleb128 0x13
 10962 005b 3A       		.uleb128 0x3a
 10963 005c 0B       		.uleb128 0xb
 10964 005d 3B       		.uleb128 0x3b
 10965 005e 0B       		.uleb128 0xb
 10966 005f 01       		.uleb128 0x1
 10967 0060 13       		.uleb128 0x13
 10968 0061 00       		.byte	0
 10969 0062 00       		.byte	0
 10970 0063 0A       		.uleb128 0xa
 10971 0064 28       		.uleb128 0x28
 10972 0065 00       		.byte	0
 10973 0066 03       		.uleb128 0x3
 10974 0067 0E       		.uleb128 0xe
 10975 0068 1C       		.uleb128 0x1c
 10976 0069 0B       		.uleb128 0xb
 10977 006a 00       		.byte	0
 10978 006b 00       		.byte	0
 10979 006c 0B       		.uleb128 0xb
 10980 006d 15       		.uleb128 0x15
 10981 006e 01       		.byte	0x1
 10982 006f 27       		.uleb128 0x27
 10983 0070 19       		.uleb128 0x19
 10984 0071 01       		.uleb128 0x1
 10985 0072 13       		.uleb128 0x13
 10986 0073 00       		.byte	0
 10987 0074 00       		.byte	0
 10988 0075 0C       		.uleb128 0xc
 10989 0076 05       		.uleb128 0x5
 10990 0077 00       		.byte	0
 10991 0078 49       		.uleb128 0x49
 10992 0079 13       		.uleb128 0x13
 10993 007a 00       		.byte	0
 10994 007b 00       		.byte	0
 10995 007c 0D       		.uleb128 0xd
 10996 007d 18       		.uleb128 0x18
 10997 007e 00       		.byte	0
 10998 007f 00       		.byte	0
 10999 0080 00       		.byte	0
 11000 0081 0E       		.uleb128 0xe
 11001 0082 13       		.uleb128 0x13
ARM GAS  C:\Users\Phuong\AppData\Local\Temp\ccu7x7Ah.s 			page 222


 11002 0083 00       		.byte	0
 11003 0084 03       		.uleb128 0x3
 11004 0085 0E       		.uleb128 0xe
 11005 0086 3C       		.uleb128 0x3c
 11006 0087 19       		.uleb128 0x19
 11007 0088 00       		.byte	0
 11008 0089 00       		.byte	0
 11009 008a 0F       		.uleb128 0xf
 11010 008b 01       		.uleb128 0x1
 11011 008c 01       		.byte	0x1
 11012 008d 49       		.uleb128 0x49
 11013 008e 13       		.uleb128 0x13
 11014 008f 01       		.uleb128 0x1
 11015 0090 13       		.uleb128 0x13
 11016 0091 00       		.byte	0
 11017 0092 00       		.byte	0
 11018 0093 10       		.uleb128 0x10
 11019 0094 21       		.uleb128 0x21
 11020 0095 00       		.byte	0
 11021 0096 49       		.uleb128 0x49
 11022 0097 13       		.uleb128 0x13
 11023 0098 2F       		.uleb128 0x2f
 11024 0099 0B       		.uleb128 0xb
 11025 009a 00       		.byte	0
 11026 009b 00       		.byte	0
 11027 009c 11       		.uleb128 0x11
 11028 009d 13       		.uleb128 0x13
 11029 009e 01       		.byte	0x1
 11030 009f 03       		.uleb128 0x3
 11031 00a0 0E       		.uleb128 0xe
 11032 00a1 0B       		.uleb128 0xb
 11033 00a2 0B       		.uleb128 0xb
 11034 00a3 3A       		.uleb128 0x3a
 11035 00a4 0B       		.uleb128 0xb
 11036 00a5 3B       		.uleb128 0x3b
 11037 00a6 0B       		.uleb128 0xb
 11038 00a7 01       		.uleb128 0x1
 11039 00a8 13       		.uleb128 0x13
 11040 00a9 00       		.byte	0
 11041 00aa 00       		.byte	0
 11042 00ab 12       		.uleb128 0x12
 11043 00ac 0D       		.uleb128 0xd
 11044 00ad 00       		.byte	0
 11045 00ae 03       		.uleb128 0x3
 11046 00af 0E       		.uleb128 0xe
 11047 00b0 3A       		.uleb128 0x3a
 11048 00b1 0B       		.uleb128 0xb
 11049 00b2 3B       		.uleb128 0x3b
 11050 00b3 0B       		.uleb128 0xb
 11051 00b4 49       		.uleb128 0x49
 11052 00b5 13       		.uleb128 0x13
 11053 00b6 38       		.uleb128 0x38
 11054 00b7 0B       		.uleb128 0xb
 11055 00b8 00       		.byte	0
 11056 00b9 00       		.byte	0
 11057 00ba 13       		.uleb128 0x13
 11058 00bb 15       		.uleb128 0x15
ARM GAS  C:\Users\Phuong\AppData\Local\Temp\ccu7x7Ah.s 			page 223


 11059 00bc 01       		.byte	0x1
 11060 00bd 27       		.uleb128 0x27
 11061 00be 19       		.uleb128 0x19
 11062 00bf 49       		.uleb128 0x49
 11063 00c0 13       		.uleb128 0x13
 11064 00c1 01       		.uleb128 0x1
 11065 00c2 13       		.uleb128 0x13
 11066 00c3 00       		.byte	0
 11067 00c4 00       		.byte	0
 11068 00c5 14       		.uleb128 0x14
 11069 00c6 2E       		.uleb128 0x2e
 11070 00c7 01       		.byte	0x1
 11071 00c8 03       		.uleb128 0x3
 11072 00c9 0E       		.uleb128 0xe
 11073 00ca 3A       		.uleb128 0x3a
 11074 00cb 0B       		.uleb128 0xb
 11075 00cc 3B       		.uleb128 0x3b
 11076 00cd 0B       		.uleb128 0xb
 11077 00ce 27       		.uleb128 0x27
 11078 00cf 19       		.uleb128 0x19
 11079 00d0 11       		.uleb128 0x11
 11080 00d1 01       		.uleb128 0x1
 11081 00d2 12       		.uleb128 0x12
 11082 00d3 06       		.uleb128 0x6
 11083 00d4 40       		.uleb128 0x40
 11084 00d5 18       		.uleb128 0x18
 11085 00d6 9642     		.uleb128 0x2116
 11086 00d8 19       		.uleb128 0x19
 11087 00d9 01       		.uleb128 0x1
 11088 00da 13       		.uleb128 0x13
 11089 00db 00       		.byte	0
 11090 00dc 00       		.byte	0
 11091 00dd 15       		.uleb128 0x15
 11092 00de 05       		.uleb128 0x5
 11093 00df 00       		.byte	0
 11094 00e0 03       		.uleb128 0x3
 11095 00e1 0E       		.uleb128 0xe
 11096 00e2 3A       		.uleb128 0x3a
 11097 00e3 0B       		.uleb128 0xb
 11098 00e4 3B       		.uleb128 0x3b
 11099 00e5 0B       		.uleb128 0xb
 11100 00e6 49       		.uleb128 0x49
 11101 00e7 13       		.uleb128 0x13
 11102 00e8 02       		.uleb128 0x2
 11103 00e9 17       		.uleb128 0x17
 11104 00ea 00       		.byte	0
 11105 00eb 00       		.byte	0
 11106 00ec 16       		.uleb128 0x16
 11107 00ed 34       		.uleb128 0x34
 11108 00ee 00       		.byte	0
 11109 00ef 03       		.uleb128 0x3
 11110 00f0 0E       		.uleb128 0xe
 11111 00f1 3A       		.uleb128 0x3a
 11112 00f2 0B       		.uleb128 0xb
 11113 00f3 3B       		.uleb128 0x3b
 11114 00f4 0B       		.uleb128 0xb
 11115 00f5 49       		.uleb128 0x49
ARM GAS  C:\Users\Phuong\AppData\Local\Temp\ccu7x7Ah.s 			page 224


 11116 00f6 13       		.uleb128 0x13
 11117 00f7 02       		.uleb128 0x2
 11118 00f8 17       		.uleb128 0x17
 11119 00f9 00       		.byte	0
 11120 00fa 00       		.byte	0
 11121 00fb 17       		.uleb128 0x17
 11122 00fc 898201   		.uleb128 0x4109
 11123 00ff 00       		.byte	0
 11124 0100 11       		.uleb128 0x11
 11125 0101 01       		.uleb128 0x1
 11126 0102 31       		.uleb128 0x31
 11127 0103 13       		.uleb128 0x13
 11128 0104 00       		.byte	0
 11129 0105 00       		.byte	0
 11130 0106 18       		.uleb128 0x18
 11131 0107 0B       		.uleb128 0xb
 11132 0108 01       		.byte	0x1
 11133 0109 11       		.uleb128 0x11
 11134 010a 01       		.uleb128 0x1
 11135 010b 12       		.uleb128 0x12
 11136 010c 06       		.uleb128 0x6
 11137 010d 00       		.byte	0
 11138 010e 00       		.byte	0
 11139 010f 19       		.uleb128 0x19
 11140 0110 34       		.uleb128 0x34
 11141 0111 00       		.byte	0
 11142 0112 03       		.uleb128 0x3
 11143 0113 0E       		.uleb128 0xe
 11144 0114 3A       		.uleb128 0x3a
 11145 0115 0B       		.uleb128 0xb
 11146 0116 3B       		.uleb128 0x3b
 11147 0117 05       		.uleb128 0x5
 11148 0118 49       		.uleb128 0x49
 11149 0119 13       		.uleb128 0x13
 11150 011a 02       		.uleb128 0x2
 11151 011b 17       		.uleb128 0x17
 11152 011c 00       		.byte	0
 11153 011d 00       		.byte	0
 11154 011e 1A       		.uleb128 0x1a
 11155 011f 2E       		.uleb128 0x2e
 11156 0120 01       		.byte	0x1
 11157 0121 03       		.uleb128 0x3
 11158 0122 0E       		.uleb128 0xe
 11159 0123 3A       		.uleb128 0x3a
 11160 0124 0B       		.uleb128 0xb
 11161 0125 3B       		.uleb128 0x3b
 11162 0126 05       		.uleb128 0x5
 11163 0127 27       		.uleb128 0x27
 11164 0128 19       		.uleb128 0x19
 11165 0129 49       		.uleb128 0x49
 11166 012a 13       		.uleb128 0x13
 11167 012b 11       		.uleb128 0x11
 11168 012c 01       		.uleb128 0x1
 11169 012d 12       		.uleb128 0x12
 11170 012e 06       		.uleb128 0x6
 11171 012f 40       		.uleb128 0x40
 11172 0130 18       		.uleb128 0x18
ARM GAS  C:\Users\Phuong\AppData\Local\Temp\ccu7x7Ah.s 			page 225


 11173 0131 9642     		.uleb128 0x2116
 11174 0133 19       		.uleb128 0x19
 11175 0134 01       		.uleb128 0x1
 11176 0135 13       		.uleb128 0x13
 11177 0136 00       		.byte	0
 11178 0137 00       		.byte	0
 11179 0138 1B       		.uleb128 0x1b
 11180 0139 05       		.uleb128 0x5
 11181 013a 00       		.byte	0
 11182 013b 03       		.uleb128 0x3
 11183 013c 0E       		.uleb128 0xe
 11184 013d 3A       		.uleb128 0x3a
 11185 013e 0B       		.uleb128 0xb
 11186 013f 3B       		.uleb128 0x3b
 11187 0140 05       		.uleb128 0x5
 11188 0141 49       		.uleb128 0x49
 11189 0142 13       		.uleb128 0x13
 11190 0143 02       		.uleb128 0x2
 11191 0144 17       		.uleb128 0x17
 11192 0145 00       		.byte	0
 11193 0146 00       		.byte	0
 11194 0147 1C       		.uleb128 0x1c
 11195 0148 34       		.uleb128 0x34
 11196 0149 00       		.byte	0
 11197 014a 03       		.uleb128 0x3
 11198 014b 0E       		.uleb128 0xe
 11199 014c 3A       		.uleb128 0x3a
 11200 014d 0B       		.uleb128 0xb
 11201 014e 3B       		.uleb128 0x3b
 11202 014f 05       		.uleb128 0x5
 11203 0150 49       		.uleb128 0x49
 11204 0151 13       		.uleb128 0x13
 11205 0152 02       		.uleb128 0x2
 11206 0153 18       		.uleb128 0x18
 11207 0154 00       		.byte	0
 11208 0155 00       		.byte	0
 11209 0156 1D       		.uleb128 0x1d
 11210 0157 34       		.uleb128 0x34
 11211 0158 00       		.byte	0
 11212 0159 03       		.uleb128 0x3
 11213 015a 0E       		.uleb128 0xe
 11214 015b 49       		.uleb128 0x49
 11215 015c 13       		.uleb128 0x13
 11216 015d 34       		.uleb128 0x34
 11217 015e 19       		.uleb128 0x19
 11218 015f 02       		.uleb128 0x2
 11219 0160 18       		.uleb128 0x18
 11220 0161 00       		.byte	0
 11221 0162 00       		.byte	0
 11222 0163 1E       		.uleb128 0x1e
 11223 0164 0B       		.uleb128 0xb
 11224 0165 01       		.byte	0x1
 11225 0166 11       		.uleb128 0x11
 11226 0167 01       		.uleb128 0x1
 11227 0168 12       		.uleb128 0x12
 11228 0169 06       		.uleb128 0x6
 11229 016a 01       		.uleb128 0x1
ARM GAS  C:\Users\Phuong\AppData\Local\Temp\ccu7x7Ah.s 			page 226


 11230 016b 13       		.uleb128 0x13
 11231 016c 00       		.byte	0
 11232 016d 00       		.byte	0
 11233 016e 1F       		.uleb128 0x1f
 11234 016f 34       		.uleb128 0x34
 11235 0170 00       		.byte	0
 11236 0171 03       		.uleb128 0x3
 11237 0172 08       		.uleb128 0x8
 11238 0173 3A       		.uleb128 0x3a
 11239 0174 0B       		.uleb128 0xb
 11240 0175 3B       		.uleb128 0x3b
 11241 0176 05       		.uleb128 0x5
 11242 0177 49       		.uleb128 0x49
 11243 0178 13       		.uleb128 0x13
 11244 0179 02       		.uleb128 0x2
 11245 017a 17       		.uleb128 0x17
 11246 017b 00       		.byte	0
 11247 017c 00       		.byte	0
 11248 017d 20       		.uleb128 0x20
 11249 017e 898201   		.uleb128 0x4109
 11250 0181 01       		.byte	0x1
 11251 0182 11       		.uleb128 0x11
 11252 0183 01       		.uleb128 0x1
 11253 0184 9342     		.uleb128 0x2113
 11254 0186 18       		.uleb128 0x18
 11255 0187 00       		.byte	0
 11256 0188 00       		.byte	0
 11257 0189 21       		.uleb128 0x21
 11258 018a 8A8201   		.uleb128 0x410a
 11259 018d 00       		.byte	0
 11260 018e 02       		.uleb128 0x2
 11261 018f 18       		.uleb128 0x18
 11262 0190 9142     		.uleb128 0x2111
 11263 0192 18       		.uleb128 0x18
 11264 0193 00       		.byte	0
 11265 0194 00       		.byte	0
 11266 0195 22       		.uleb128 0x22
 11267 0196 0B       		.uleb128 0xb
 11268 0197 01       		.byte	0x1
 11269 0198 55       		.uleb128 0x55
 11270 0199 17       		.uleb128 0x17
 11271 019a 01       		.uleb128 0x1
 11272 019b 13       		.uleb128 0x13
 11273 019c 00       		.byte	0
 11274 019d 00       		.byte	0
 11275 019e 23       		.uleb128 0x23
 11276 019f 898201   		.uleb128 0x4109
 11277 01a2 01       		.byte	0x1
 11278 01a3 11       		.uleb128 0x11
 11279 01a4 01       		.uleb128 0x1
 11280 01a5 31       		.uleb128 0x31
 11281 01a6 13       		.uleb128 0x13
 11282 01a7 01       		.uleb128 0x1
 11283 01a8 13       		.uleb128 0x13
 11284 01a9 00       		.byte	0
 11285 01aa 00       		.byte	0
 11286 01ab 24       		.uleb128 0x24
ARM GAS  C:\Users\Phuong\AppData\Local\Temp\ccu7x7Ah.s 			page 227


 11287 01ac 898201   		.uleb128 0x4109
 11288 01af 01       		.byte	0x1
 11289 01b0 11       		.uleb128 0x11
 11290 01b1 01       		.uleb128 0x1
 11291 01b2 9342     		.uleb128 0x2113
 11292 01b4 18       		.uleb128 0x18
 11293 01b5 01       		.uleb128 0x1
 11294 01b6 13       		.uleb128 0x13
 11295 01b7 00       		.byte	0
 11296 01b8 00       		.byte	0
 11297 01b9 25       		.uleb128 0x25
 11298 01ba 898201   		.uleb128 0x4109
 11299 01bd 01       		.byte	0x1
 11300 01be 11       		.uleb128 0x11
 11301 01bf 01       		.uleb128 0x1
 11302 01c0 31       		.uleb128 0x31
 11303 01c1 13       		.uleb128 0x13
 11304 01c2 00       		.byte	0
 11305 01c3 00       		.byte	0
 11306 01c4 26       		.uleb128 0x26
 11307 01c5 2E       		.uleb128 0x2e
 11308 01c6 01       		.byte	0x1
 11309 01c7 03       		.uleb128 0x3
 11310 01c8 0E       		.uleb128 0xe
 11311 01c9 3A       		.uleb128 0x3a
 11312 01ca 0B       		.uleb128 0xb
 11313 01cb 3B       		.uleb128 0x3b
 11314 01cc 0B       		.uleb128 0xb
 11315 01cd 27       		.uleb128 0x27
 11316 01ce 19       		.uleb128 0x19
 11317 01cf 11       		.uleb128 0x11
 11318 01d0 01       		.uleb128 0x1
 11319 01d1 12       		.uleb128 0x12
 11320 01d2 06       		.uleb128 0x6
 11321 01d3 40       		.uleb128 0x40
 11322 01d4 18       		.uleb128 0x18
 11323 01d5 9742     		.uleb128 0x2117
 11324 01d7 19       		.uleb128 0x19
 11325 01d8 01       		.uleb128 0x1
 11326 01d9 13       		.uleb128 0x13
 11327 01da 00       		.byte	0
 11328 01db 00       		.byte	0
 11329 01dc 27       		.uleb128 0x27
 11330 01dd 34       		.uleb128 0x34
 11331 01de 00       		.byte	0
 11332 01df 03       		.uleb128 0x3
 11333 01e0 08       		.uleb128 0x8
 11334 01e1 3A       		.uleb128 0x3a
 11335 01e2 0B       		.uleb128 0xb
 11336 01e3 3B       		.uleb128 0x3b
 11337 01e4 0B       		.uleb128 0xb
 11338 01e5 49       		.uleb128 0x49
 11339 01e6 13       		.uleb128 0x13
 11340 01e7 02       		.uleb128 0x2
 11341 01e8 17       		.uleb128 0x17
 11342 01e9 00       		.byte	0
 11343 01ea 00       		.byte	0
ARM GAS  C:\Users\Phuong\AppData\Local\Temp\ccu7x7Ah.s 			page 228


 11344 01eb 28       		.uleb128 0x28
 11345 01ec 2E       		.uleb128 0x2e
 11346 01ed 01       		.byte	0x1
 11347 01ee 3F       		.uleb128 0x3f
 11348 01ef 19       		.uleb128 0x19
 11349 01f0 03       		.uleb128 0x3
 11350 01f1 0E       		.uleb128 0xe
 11351 01f2 3A       		.uleb128 0x3a
 11352 01f3 0B       		.uleb128 0xb
 11353 01f4 3B       		.uleb128 0x3b
 11354 01f5 0B       		.uleb128 0xb
 11355 01f6 27       		.uleb128 0x27
 11356 01f7 19       		.uleb128 0x19
 11357 01f8 49       		.uleb128 0x49
 11358 01f9 13       		.uleb128 0x13
 11359 01fa 11       		.uleb128 0x11
 11360 01fb 01       		.uleb128 0x1
 11361 01fc 12       		.uleb128 0x12
 11362 01fd 06       		.uleb128 0x6
 11363 01fe 40       		.uleb128 0x40
 11364 01ff 18       		.uleb128 0x18
 11365 0200 9742     		.uleb128 0x2117
 11366 0202 19       		.uleb128 0x19
 11367 0203 01       		.uleb128 0x1
 11368 0204 13       		.uleb128 0x13
 11369 0205 00       		.byte	0
 11370 0206 00       		.byte	0
 11371 0207 29       		.uleb128 0x29
 11372 0208 2E       		.uleb128 0x2e
 11373 0209 01       		.byte	0x1
 11374 020a 3F       		.uleb128 0x3f
 11375 020b 19       		.uleb128 0x19
 11376 020c 03       		.uleb128 0x3
 11377 020d 0E       		.uleb128 0xe
 11378 020e 3A       		.uleb128 0x3a
 11379 020f 0B       		.uleb128 0xb
 11380 0210 3B       		.uleb128 0x3b
 11381 0211 05       		.uleb128 0x5
 11382 0212 27       		.uleb128 0x27
 11383 0213 19       		.uleb128 0x19
 11384 0214 49       		.uleb128 0x49
 11385 0215 13       		.uleb128 0x13
 11386 0216 11       		.uleb128 0x11
 11387 0217 01       		.uleb128 0x1
 11388 0218 12       		.uleb128 0x12
 11389 0219 06       		.uleb128 0x6
 11390 021a 40       		.uleb128 0x40
 11391 021b 18       		.uleb128 0x18
 11392 021c 9742     		.uleb128 0x2117
 11393 021e 19       		.uleb128 0x19
 11394 021f 01       		.uleb128 0x1
 11395 0220 13       		.uleb128 0x13
 11396 0221 00       		.byte	0
 11397 0222 00       		.byte	0
 11398 0223 2A       		.uleb128 0x2a
 11399 0224 2E       		.uleb128 0x2e
 11400 0225 01       		.byte	0x1
ARM GAS  C:\Users\Phuong\AppData\Local\Temp\ccu7x7Ah.s 			page 229


 11401 0226 03       		.uleb128 0x3
 11402 0227 0E       		.uleb128 0xe
 11403 0228 3A       		.uleb128 0x3a
 11404 0229 0B       		.uleb128 0xb
 11405 022a 3B       		.uleb128 0x3b
 11406 022b 05       		.uleb128 0x5
 11407 022c 27       		.uleb128 0x27
 11408 022d 19       		.uleb128 0x19
 11409 022e 49       		.uleb128 0x49
 11410 022f 13       		.uleb128 0x13
 11411 0230 11       		.uleb128 0x11
 11412 0231 01       		.uleb128 0x1
 11413 0232 12       		.uleb128 0x12
 11414 0233 06       		.uleb128 0x6
 11415 0234 40       		.uleb128 0x40
 11416 0235 18       		.uleb128 0x18
 11417 0236 9742     		.uleb128 0x2117
 11418 0238 19       		.uleb128 0x19
 11419 0239 01       		.uleb128 0x1
 11420 023a 13       		.uleb128 0x13
 11421 023b 00       		.byte	0
 11422 023c 00       		.byte	0
 11423 023d 2B       		.uleb128 0x2b
 11424 023e 05       		.uleb128 0x5
 11425 023f 00       		.byte	0
 11426 0240 03       		.uleb128 0x3
 11427 0241 0E       		.uleb128 0xe
 11428 0242 3A       		.uleb128 0x3a
 11429 0243 0B       		.uleb128 0xb
 11430 0244 3B       		.uleb128 0x3b
 11431 0245 05       		.uleb128 0x5
 11432 0246 49       		.uleb128 0x49
 11433 0247 13       		.uleb128 0x13
 11434 0248 02       		.uleb128 0x2
 11435 0249 18       		.uleb128 0x18
 11436 024a 00       		.byte	0
 11437 024b 00       		.byte	0
 11438 024c 2C       		.uleb128 0x2c
 11439 024d 0B       		.uleb128 0xb
 11440 024e 01       		.byte	0x1
 11441 024f 55       		.uleb128 0x55
 11442 0250 17       		.uleb128 0x17
 11443 0251 00       		.byte	0
 11444 0252 00       		.byte	0
 11445 0253 2D       		.uleb128 0x2d
 11446 0254 2E       		.uleb128 0x2e
 11447 0255 01       		.byte	0x1
 11448 0256 3F       		.uleb128 0x3f
 11449 0257 19       		.uleb128 0x19
 11450 0258 03       		.uleb128 0x3
 11451 0259 0E       		.uleb128 0xe
 11452 025a 3A       		.uleb128 0x3a
 11453 025b 0B       		.uleb128 0xb
 11454 025c 3B       		.uleb128 0x3b
 11455 025d 05       		.uleb128 0x5
 11456 025e 27       		.uleb128 0x27
 11457 025f 19       		.uleb128 0x19
ARM GAS  C:\Users\Phuong\AppData\Local\Temp\ccu7x7Ah.s 			page 230


 11458 0260 11       		.uleb128 0x11
 11459 0261 01       		.uleb128 0x1
 11460 0262 12       		.uleb128 0x12
 11461 0263 06       		.uleb128 0x6
 11462 0264 40       		.uleb128 0x40
 11463 0265 18       		.uleb128 0x18
 11464 0266 9742     		.uleb128 0x2117
 11465 0268 19       		.uleb128 0x19
 11466 0269 01       		.uleb128 0x1
 11467 026a 13       		.uleb128 0x13
 11468 026b 00       		.byte	0
 11469 026c 00       		.byte	0
 11470 026d 2E       		.uleb128 0x2e
 11471 026e 2E       		.uleb128 0x2e
 11472 026f 01       		.byte	0x1
 11473 0270 3F       		.uleb128 0x3f
 11474 0271 19       		.uleb128 0x19
 11475 0272 03       		.uleb128 0x3
 11476 0273 0E       		.uleb128 0xe
 11477 0274 3A       		.uleb128 0x3a
 11478 0275 0B       		.uleb128 0xb
 11479 0276 3B       		.uleb128 0x3b
 11480 0277 0B       		.uleb128 0xb
 11481 0278 27       		.uleb128 0x27
 11482 0279 19       		.uleb128 0x19
 11483 027a 11       		.uleb128 0x11
 11484 027b 01       		.uleb128 0x1
 11485 027c 12       		.uleb128 0x12
 11486 027d 06       		.uleb128 0x6
 11487 027e 40       		.uleb128 0x40
 11488 027f 18       		.uleb128 0x18
 11489 0280 9742     		.uleb128 0x2117
 11490 0282 19       		.uleb128 0x19
 11491 0283 01       		.uleb128 0x1
 11492 0284 13       		.uleb128 0x13
 11493 0285 00       		.byte	0
 11494 0286 00       		.byte	0
 11495 0287 2F       		.uleb128 0x2f
 11496 0288 2E       		.uleb128 0x2e
 11497 0289 00       		.byte	0
 11498 028a 3F       		.uleb128 0x3f
 11499 028b 19       		.uleb128 0x19
 11500 028c 3C       		.uleb128 0x3c
 11501 028d 19       		.uleb128 0x19
 11502 028e 6E       		.uleb128 0x6e
 11503 028f 0E       		.uleb128 0xe
 11504 0290 03       		.uleb128 0x3
 11505 0291 0E       		.uleb128 0xe
 11506 0292 3A       		.uleb128 0x3a
 11507 0293 0B       		.uleb128 0xb
 11508 0294 3B       		.uleb128 0x3b
 11509 0295 0B       		.uleb128 0xb
 11510 0296 00       		.byte	0
 11511 0297 00       		.byte	0
 11512 0298 30       		.uleb128 0x30
 11513 0299 2E       		.uleb128 0x2e
 11514 029a 00       		.byte	0
ARM GAS  C:\Users\Phuong\AppData\Local\Temp\ccu7x7Ah.s 			page 231


 11515 029b 3F       		.uleb128 0x3f
 11516 029c 19       		.uleb128 0x19
 11517 029d 3C       		.uleb128 0x3c
 11518 029e 19       		.uleb128 0x19
 11519 029f 6E       		.uleb128 0x6e
 11520 02a0 0E       		.uleb128 0xe
 11521 02a1 03       		.uleb128 0x3
 11522 02a2 0E       		.uleb128 0xe
 11523 02a3 00       		.byte	0
 11524 02a4 00       		.byte	0
 11525 02a5 00       		.byte	0
 11526              		.section	.debug_loc,"",%progbits
 11527              	.Ldebug_loc0:
 11528              	.LLST0:
 11529 0000 00000000 		.4byte	.LVL0
 11530 0004 20000000 		.4byte	.LVL1
 11531 0008 0100     		.2byte	0x1
 11532 000a 50       		.byte	0x50
 11533 000b 20000000 		.4byte	.LVL1
 11534 000f 24000000 		.4byte	.LFE4
 11535 0013 0400     		.2byte	0x4
 11536 0015 F3       		.byte	0xf3
 11537 0016 01       		.uleb128 0x1
 11538 0017 50       		.byte	0x50
 11539 0018 9F       		.byte	0x9f
 11540 0019 00000000 		.4byte	0
 11541 001d 00000000 		.4byte	0
 11542              	.LLST1:
 11543 0021 00000000 		.4byte	.LVL3
 11544 0025 0E000000 		.4byte	.LVL5
 11545 0029 0100     		.2byte	0x1
 11546 002b 50       		.byte	0x50
 11547 002c 0E000000 		.4byte	.LVL5
 11548 0030 12000000 		.4byte	.LVL7
 11549 0034 0400     		.2byte	0x4
 11550 0036 F3       		.byte	0xf3
 11551 0037 01       		.uleb128 0x1
 11552 0038 50       		.byte	0x50
 11553 0039 9F       		.byte	0x9f
 11554 003a 12000000 		.4byte	.LVL7
 11555 003e 23000000 		.4byte	.LVL9-1
 11556 0042 0100     		.2byte	0x1
 11557 0044 50       		.byte	0x50
 11558 0045 23000000 		.4byte	.LVL9-1
 11559 0049 26000000 		.4byte	.LFE5
 11560 004d 0400     		.2byte	0x4
 11561 004f F3       		.byte	0xf3
 11562 0050 01       		.uleb128 0x1
 11563 0051 50       		.byte	0x50
 11564 0052 9F       		.byte	0x9f
 11565 0053 00000000 		.4byte	0
 11566 0057 00000000 		.4byte	0
 11567              	.LLST2:
 11568 005b 00000000 		.4byte	.LVL3
 11569 005f 0F000000 		.4byte	.LVL6-1
 11570 0063 0100     		.2byte	0x1
 11571 0065 51       		.byte	0x51
ARM GAS  C:\Users\Phuong\AppData\Local\Temp\ccu7x7Ah.s 			page 232


 11572 0066 0F000000 		.4byte	.LVL6-1
 11573 006a 12000000 		.4byte	.LVL7
 11574 006e 0400     		.2byte	0x4
 11575 0070 F3       		.byte	0xf3
 11576 0071 01       		.uleb128 0x1
 11577 0072 51       		.byte	0x51
 11578 0073 9F       		.byte	0x9f
 11579 0074 12000000 		.4byte	.LVL7
 11580 0078 23000000 		.4byte	.LVL9-1
 11581 007c 0100     		.2byte	0x1
 11582 007e 51       		.byte	0x51
 11583 007f 23000000 		.4byte	.LVL9-1
 11584 0083 26000000 		.4byte	.LFE5
 11585 0087 0400     		.2byte	0x4
 11586 0089 F3       		.byte	0xf3
 11587 008a 01       		.uleb128 0x1
 11588 008b 51       		.byte	0x51
 11589 008c 9F       		.byte	0x9f
 11590 008d 00000000 		.4byte	0
 11591 0091 00000000 		.4byte	0
 11592              	.LLST3:
 11593 0095 00000000 		.4byte	.LVL3
 11594 0099 0F000000 		.4byte	.LVL6-1
 11595 009d 0100     		.2byte	0x1
 11596 009f 52       		.byte	0x52
 11597 00a0 0F000000 		.4byte	.LVL6-1
 11598 00a4 12000000 		.4byte	.LVL7
 11599 00a8 0400     		.2byte	0x4
 11600 00aa F3       		.byte	0xf3
 11601 00ab 01       		.uleb128 0x1
 11602 00ac 52       		.byte	0x52
 11603 00ad 9F       		.byte	0x9f
 11604 00ae 12000000 		.4byte	.LVL7
 11605 00b2 1C000000 		.4byte	.LVL8
 11606 00b6 0100     		.2byte	0x1
 11607 00b8 52       		.byte	0x52
 11608 00b9 1C000000 		.4byte	.LVL8
 11609 00bd 26000000 		.4byte	.LFE5
 11610 00c1 0400     		.2byte	0x4
 11611 00c3 F3       		.byte	0xf3
 11612 00c4 01       		.uleb128 0x1
 11613 00c5 52       		.byte	0x52
 11614 00c6 9F       		.byte	0x9f
 11615 00c7 00000000 		.4byte	0
 11616 00cb 00000000 		.4byte	0
 11617              	.LLST4:
 11618 00cf 02000000 		.4byte	.LVL4
 11619 00d3 0E000000 		.4byte	.LVL5
 11620 00d7 0100     		.2byte	0x1
 11621 00d9 50       		.byte	0x50
 11622 00da 0E000000 		.4byte	.LVL5
 11623 00de 12000000 		.4byte	.LVL7
 11624 00e2 0400     		.2byte	0x4
 11625 00e4 F3       		.byte	0xf3
 11626 00e5 01       		.uleb128 0x1
 11627 00e6 50       		.byte	0x50
 11628 00e7 9F       		.byte	0x9f
ARM GAS  C:\Users\Phuong\AppData\Local\Temp\ccu7x7Ah.s 			page 233


 11629 00e8 12000000 		.4byte	.LVL7
 11630 00ec 23000000 		.4byte	.LVL9-1
 11631 00f0 0100     		.2byte	0x1
 11632 00f2 50       		.byte	0x50
 11633 00f3 23000000 		.4byte	.LVL9-1
 11634 00f7 26000000 		.4byte	.LFE5
 11635 00fb 0400     		.2byte	0x4
 11636 00fd F3       		.byte	0xf3
 11637 00fe 01       		.uleb128 0x1
 11638 00ff 50       		.byte	0x50
 11639 0100 9F       		.byte	0x9f
 11640 0101 00000000 		.4byte	0
 11641 0105 00000000 		.4byte	0
 11642              	.LLST5:
 11643 0109 00000000 		.4byte	.LVL10
 11644 010d 0E000000 		.4byte	.LVL12
 11645 0111 0100     		.2byte	0x1
 11646 0113 50       		.byte	0x50
 11647 0114 0E000000 		.4byte	.LVL12
 11648 0118 12000000 		.4byte	.LVL14
 11649 011c 0400     		.2byte	0x4
 11650 011e F3       		.byte	0xf3
 11651 011f 01       		.uleb128 0x1
 11652 0120 50       		.byte	0x50
 11653 0121 9F       		.byte	0x9f
 11654 0122 12000000 		.4byte	.LVL14
 11655 0126 23000000 		.4byte	.LVL16-1
 11656 012a 0100     		.2byte	0x1
 11657 012c 50       		.byte	0x50
 11658 012d 23000000 		.4byte	.LVL16-1
 11659 0131 26000000 		.4byte	.LFE6
 11660 0135 0400     		.2byte	0x4
 11661 0137 F3       		.byte	0xf3
 11662 0138 01       		.uleb128 0x1
 11663 0139 50       		.byte	0x50
 11664 013a 9F       		.byte	0x9f
 11665 013b 00000000 		.4byte	0
 11666 013f 00000000 		.4byte	0
 11667              	.LLST6:
 11668 0143 00000000 		.4byte	.LVL10
 11669 0147 0F000000 		.4byte	.LVL13-1
 11670 014b 0100     		.2byte	0x1
 11671 014d 51       		.byte	0x51
 11672 014e 0F000000 		.4byte	.LVL13-1
 11673 0152 12000000 		.4byte	.LVL14
 11674 0156 0400     		.2byte	0x4
 11675 0158 F3       		.byte	0xf3
 11676 0159 01       		.uleb128 0x1
 11677 015a 51       		.byte	0x51
 11678 015b 9F       		.byte	0x9f
 11679 015c 12000000 		.4byte	.LVL14
 11680 0160 23000000 		.4byte	.LVL16-1
 11681 0164 0100     		.2byte	0x1
 11682 0166 51       		.byte	0x51
 11683 0167 23000000 		.4byte	.LVL16-1
 11684 016b 26000000 		.4byte	.LFE6
 11685 016f 0400     		.2byte	0x4
ARM GAS  C:\Users\Phuong\AppData\Local\Temp\ccu7x7Ah.s 			page 234


 11686 0171 F3       		.byte	0xf3
 11687 0172 01       		.uleb128 0x1
 11688 0173 51       		.byte	0x51
 11689 0174 9F       		.byte	0x9f
 11690 0175 00000000 		.4byte	0
 11691 0179 00000000 		.4byte	0
 11692              	.LLST7:
 11693 017d 00000000 		.4byte	.LVL10
 11694 0181 0F000000 		.4byte	.LVL13-1
 11695 0185 0100     		.2byte	0x1
 11696 0187 52       		.byte	0x52
 11697 0188 0F000000 		.4byte	.LVL13-1
 11698 018c 12000000 		.4byte	.LVL14
 11699 0190 0400     		.2byte	0x4
 11700 0192 F3       		.byte	0xf3
 11701 0193 01       		.uleb128 0x1
 11702 0194 52       		.byte	0x52
 11703 0195 9F       		.byte	0x9f
 11704 0196 12000000 		.4byte	.LVL14
 11705 019a 1C000000 		.4byte	.LVL15
 11706 019e 0100     		.2byte	0x1
 11707 01a0 52       		.byte	0x52
 11708 01a1 1C000000 		.4byte	.LVL15
 11709 01a5 26000000 		.4byte	.LFE6
 11710 01a9 0400     		.2byte	0x4
 11711 01ab F3       		.byte	0xf3
 11712 01ac 01       		.uleb128 0x1
 11713 01ad 52       		.byte	0x52
 11714 01ae 9F       		.byte	0x9f
 11715 01af 00000000 		.4byte	0
 11716 01b3 00000000 		.4byte	0
 11717              	.LLST8:
 11718 01b7 02000000 		.4byte	.LVL11
 11719 01bb 0E000000 		.4byte	.LVL12
 11720 01bf 0100     		.2byte	0x1
 11721 01c1 50       		.byte	0x50
 11722 01c2 0E000000 		.4byte	.LVL12
 11723 01c6 12000000 		.4byte	.LVL14
 11724 01ca 0400     		.2byte	0x4
 11725 01cc F3       		.byte	0xf3
 11726 01cd 01       		.uleb128 0x1
 11727 01ce 50       		.byte	0x50
 11728 01cf 9F       		.byte	0x9f
 11729 01d0 12000000 		.4byte	.LVL14
 11730 01d4 23000000 		.4byte	.LVL16-1
 11731 01d8 0100     		.2byte	0x1
 11732 01da 50       		.byte	0x50
 11733 01db 23000000 		.4byte	.LVL16-1
 11734 01df 26000000 		.4byte	.LFE6
 11735 01e3 0400     		.2byte	0x4
 11736 01e5 F3       		.byte	0xf3
 11737 01e6 01       		.uleb128 0x1
 11738 01e7 50       		.byte	0x50
 11739 01e8 9F       		.byte	0x9f
 11740 01e9 00000000 		.4byte	0
 11741 01ed 00000000 		.4byte	0
 11742              	.LLST9:
ARM GAS  C:\Users\Phuong\AppData\Local\Temp\ccu7x7Ah.s 			page 235


 11743 01f1 00000000 		.4byte	.LVL17
 11744 01f5 0A000000 		.4byte	.LVL19
 11745 01f9 0100     		.2byte	0x1
 11746 01fb 50       		.byte	0x50
 11747 01fc 0A000000 		.4byte	.LVL19
 11748 0200 0E000000 		.4byte	.LFE7
 11749 0204 0400     		.2byte	0x4
 11750 0206 F3       		.byte	0xf3
 11751 0207 01       		.uleb128 0x1
 11752 0208 50       		.byte	0x50
 11753 0209 9F       		.byte	0x9f
 11754 020a 00000000 		.4byte	0
 11755 020e 00000000 		.4byte	0
 11756              	.LLST10:
 11757 0212 00000000 		.4byte	.LVL17
 11758 0216 0B000000 		.4byte	.LVL20-1
 11759 021a 0100     		.2byte	0x1
 11760 021c 51       		.byte	0x51
 11761 021d 0B000000 		.4byte	.LVL20-1
 11762 0221 0E000000 		.4byte	.LFE7
 11763 0225 0400     		.2byte	0x4
 11764 0227 F3       		.byte	0xf3
 11765 0228 01       		.uleb128 0x1
 11766 0229 51       		.byte	0x51
 11767 022a 9F       		.byte	0x9f
 11768 022b 00000000 		.4byte	0
 11769 022f 00000000 		.4byte	0
 11770              	.LLST11:
 11771 0233 00000000 		.4byte	.LVL17
 11772 0237 0B000000 		.4byte	.LVL20-1
 11773 023b 0100     		.2byte	0x1
 11774 023d 52       		.byte	0x52
 11775 023e 0B000000 		.4byte	.LVL20-1
 11776 0242 0E000000 		.4byte	.LFE7
 11777 0246 0400     		.2byte	0x4
 11778 0248 F3       		.byte	0xf3
 11779 0249 01       		.uleb128 0x1
 11780 024a 52       		.byte	0x52
 11781 024b 9F       		.byte	0x9f
 11782 024c 00000000 		.4byte	0
 11783 0250 00000000 		.4byte	0
 11784              	.LLST12:
 11785 0254 06000000 		.4byte	.LVL18
 11786 0258 0A000000 		.4byte	.LVL19
 11787 025c 0100     		.2byte	0x1
 11788 025e 50       		.byte	0x50
 11789 025f 0A000000 		.4byte	.LVL19
 11790 0263 0C000000 		.4byte	.LVL20
 11791 0267 0400     		.2byte	0x4
 11792 0269 F3       		.byte	0xf3
 11793 026a 01       		.uleb128 0x1
 11794 026b 50       		.byte	0x50
 11795 026c 9F       		.byte	0x9f
 11796 026d 00000000 		.4byte	0
 11797 0271 00000000 		.4byte	0
 11798              	.LLST13:
 11799 0275 00000000 		.4byte	.LVL21
ARM GAS  C:\Users\Phuong\AppData\Local\Temp\ccu7x7Ah.s 			page 236


 11800 0279 11000000 		.4byte	.LVL23-1
 11801 027d 0100     		.2byte	0x1
 11802 027f 50       		.byte	0x50
 11803 0280 11000000 		.4byte	.LVL23-1
 11804 0284 32000000 		.4byte	.LVL28
 11805 0288 0100     		.2byte	0x1
 11806 028a 55       		.byte	0x55
 11807 028b 32000000 		.4byte	.LVL28
 11808 028f 36000000 		.4byte	.LVL30
 11809 0293 0100     		.2byte	0x1
 11810 0295 50       		.byte	0x50
 11811 0296 36000000 		.4byte	.LVL30
 11812 029a BC030000 		.4byte	.LVL181
 11813 029e 0100     		.2byte	0x1
 11814 02a0 55       		.byte	0x55
 11815 02a1 BC030000 		.4byte	.LVL181
 11816 02a5 C2030000 		.4byte	.LFE8
 11817 02a9 0400     		.2byte	0x4
 11818 02ab F3       		.byte	0xf3
 11819 02ac 01       		.uleb128 0x1
 11820 02ad 50       		.byte	0x50
 11821 02ae 9F       		.byte	0x9f
 11822 02af 00000000 		.4byte	0
 11823 02b3 00000000 		.4byte	0
 11824              	.LLST14:
 11825 02b7 00000000 		.4byte	.LVL21
 11826 02bb 11000000 		.4byte	.LVL23-1
 11827 02bf 0100     		.2byte	0x1
 11828 02c1 51       		.byte	0x51
 11829 02c2 11000000 		.4byte	.LVL23-1
 11830 02c6 14000000 		.4byte	.LVL24
 11831 02ca 0100     		.2byte	0x1
 11832 02cc 54       		.byte	0x54
 11833 02cd 14000000 		.4byte	.LVL24
 11834 02d1 32000000 		.4byte	.LVL28
 11835 02d5 0400     		.2byte	0x4
 11836 02d7 F3       		.byte	0xf3
 11837 02d8 01       		.uleb128 0x1
 11838 02d9 51       		.byte	0x51
 11839 02da 9F       		.byte	0x9f
 11840 02db 32000000 		.4byte	.LVL28
 11841 02df 34000000 		.4byte	.LVL29
 11842 02e3 0100     		.2byte	0x1
 11843 02e5 51       		.byte	0x51
 11844 02e6 34000000 		.4byte	.LVL29
 11845 02ea 44000000 		.4byte	.LVL33
 11846 02ee 0100     		.2byte	0x1
 11847 02f0 54       		.byte	0x54
 11848 02f1 44000000 		.4byte	.LVL33
 11849 02f5 68000000 		.4byte	.LVL38
 11850 02f9 0400     		.2byte	0x4
 11851 02fb F3       		.byte	0xf3
 11852 02fc 01       		.uleb128 0x1
 11853 02fd 51       		.byte	0x51
 11854 02fe 9F       		.byte	0x9f
 11855 02ff 68000000 		.4byte	.LVL38
 11856 0303 7A000000 		.4byte	.LVL41
ARM GAS  C:\Users\Phuong\AppData\Local\Temp\ccu7x7Ah.s 			page 237


 11857 0307 0100     		.2byte	0x1
 11858 0309 54       		.byte	0x54
 11859 030a 7A000000 		.4byte	.LVL41
 11860 030e 9E000000 		.4byte	.LVL46
 11861 0312 0400     		.2byte	0x4
 11862 0314 F3       		.byte	0xf3
 11863 0315 01       		.uleb128 0x1
 11864 0316 51       		.byte	0x51
 11865 0317 9F       		.byte	0x9f
 11866 0318 9E000000 		.4byte	.LVL46
 11867 031c AE000000 		.4byte	.LVL50
 11868 0320 0100     		.2byte	0x1
 11869 0322 54       		.byte	0x54
 11870 0323 AE000000 		.4byte	.LVL50
 11871 0327 CC000000 		.4byte	.LVL55
 11872 032b 0400     		.2byte	0x4
 11873 032d F3       		.byte	0xf3
 11874 032e 01       		.uleb128 0x1
 11875 032f 51       		.byte	0x51
 11876 0330 9F       		.byte	0x9f
 11877 0331 CC000000 		.4byte	.LVL55
 11878 0335 E8000000 		.4byte	.LVL61
 11879 0339 0100     		.2byte	0x1
 11880 033b 54       		.byte	0x54
 11881 033c E8000000 		.4byte	.LVL61
 11882 0340 06010000 		.4byte	.LVL66
 11883 0344 0400     		.2byte	0x4
 11884 0346 F3       		.byte	0xf3
 11885 0347 01       		.uleb128 0x1
 11886 0348 51       		.byte	0x51
 11887 0349 9F       		.byte	0x9f
 11888 034a 06010000 		.4byte	.LVL66
 11889 034e 20010000 		.4byte	.LVL71
 11890 0352 0100     		.2byte	0x1
 11891 0354 54       		.byte	0x54
 11892 0355 20010000 		.4byte	.LVL71
 11893 0359 44010000 		.4byte	.LVL77
 11894 035d 0400     		.2byte	0x4
 11895 035f F3       		.byte	0xf3
 11896 0360 01       		.uleb128 0x1
 11897 0361 51       		.byte	0x51
 11898 0362 9F       		.byte	0x9f
 11899 0363 44010000 		.4byte	.LVL77
 11900 0367 5E010000 		.4byte	.LVL81
 11901 036b 0100     		.2byte	0x1
 11902 036d 54       		.byte	0x54
 11903 036e 5E010000 		.4byte	.LVL81
 11904 0372 82010000 		.4byte	.LVL87
 11905 0376 0400     		.2byte	0x4
 11906 0378 F3       		.byte	0xf3
 11907 0379 01       		.uleb128 0x1
 11908 037a 51       		.byte	0x51
 11909 037b 9F       		.byte	0x9f
 11910 037c 82010000 		.4byte	.LVL87
 11911 0380 94010000 		.4byte	.LVL90
 11912 0384 0100     		.2byte	0x1
 11913 0386 54       		.byte	0x54
ARM GAS  C:\Users\Phuong\AppData\Local\Temp\ccu7x7Ah.s 			page 238


 11914 0387 94010000 		.4byte	.LVL90
 11915 038b BE010000 		.4byte	.LVL97
 11916 038f 0400     		.2byte	0x4
 11917 0391 F3       		.byte	0xf3
 11918 0392 01       		.uleb128 0x1
 11919 0393 51       		.byte	0x51
 11920 0394 9F       		.byte	0x9f
 11921 0395 BE010000 		.4byte	.LVL97
 11922 0399 C6010000 		.4byte	.LVL99
 11923 039d 0100     		.2byte	0x1
 11924 039f 54       		.byte	0x54
 11925 03a0 C6010000 		.4byte	.LVL99
 11926 03a4 C2030000 		.4byte	.LFE8
 11927 03a8 0400     		.2byte	0x4
 11928 03aa F3       		.byte	0xf3
 11929 03ab 01       		.uleb128 0x1
 11930 03ac 51       		.byte	0x51
 11931 03ad 9F       		.byte	0x9f
 11932 03ae 00000000 		.4byte	0
 11933 03b2 00000000 		.4byte	0
 11934              	.LLST15:
 11935 03b6 0C000000 		.4byte	.LVL22
 11936 03ba 64000000 		.4byte	.LVL37
 11937 03be 0200     		.2byte	0x2
 11938 03c0 30       		.byte	0x30
 11939 03c1 9F       		.byte	0x9f
 11940 03c2 64000000 		.4byte	.LVL37
 11941 03c6 68000000 		.4byte	.LVL38
 11942 03ca 0100     		.2byte	0x1
 11943 03cc 50       		.byte	0x50
 11944 03cd 68000000 		.4byte	.LVL38
 11945 03d1 9A000000 		.4byte	.LVL45
 11946 03d5 0200     		.2byte	0x2
 11947 03d7 30       		.byte	0x30
 11948 03d8 9F       		.byte	0x9f
 11949 03d9 9A000000 		.4byte	.LVL45
 11950 03dd 9E000000 		.4byte	.LVL46
 11951 03e1 0100     		.2byte	0x1
 11952 03e3 50       		.byte	0x50
 11953 03e4 9E000000 		.4byte	.LVL46
 11954 03e8 40010000 		.4byte	.LVL75
 11955 03ec 0200     		.2byte	0x2
 11956 03ee 30       		.byte	0x30
 11957 03ef 9F       		.byte	0x9f
 11958 03f0 40010000 		.4byte	.LVL75
 11959 03f4 44010000 		.4byte	.LVL77
 11960 03f8 0100     		.2byte	0x1
 11961 03fa 50       		.byte	0x50
 11962 03fb 44010000 		.4byte	.LVL77
 11963 03ff 7E010000 		.4byte	.LVL85
 11964 0403 0200     		.2byte	0x2
 11965 0405 30       		.byte	0x30
 11966 0406 9F       		.byte	0x9f
 11967 0407 7E010000 		.4byte	.LVL85
 11968 040b 82010000 		.4byte	.LVL87
 11969 040f 0100     		.2byte	0x1
 11970 0411 50       		.byte	0x50
ARM GAS  C:\Users\Phuong\AppData\Local\Temp\ccu7x7Ah.s 			page 239


 11971 0412 82010000 		.4byte	.LVL87
 11972 0416 BA010000 		.4byte	.LVL95
 11973 041a 0200     		.2byte	0x2
 11974 041c 30       		.byte	0x30
 11975 041d 9F       		.byte	0x9f
 11976 041e BA010000 		.4byte	.LVL95
 11977 0422 BE010000 		.4byte	.LVL97
 11978 0426 0100     		.2byte	0x1
 11979 0428 50       		.byte	0x50
 11980 0429 BE010000 		.4byte	.LVL97
 11981 042d 5E020000 		.4byte	.LVL128
 11982 0431 0200     		.2byte	0x2
 11983 0433 30       		.byte	0x30
 11984 0434 9F       		.byte	0x9f
 11985 0435 5E020000 		.4byte	.LVL128
 11986 0439 62020000 		.4byte	.LVL130
 11987 043d 0100     		.2byte	0x1
 11988 043f 50       		.byte	0x50
 11989 0440 62020000 		.4byte	.LVL130
 11990 0444 9A020000 		.4byte	.LVL139
 11991 0448 0200     		.2byte	0x2
 11992 044a 30       		.byte	0x30
 11993 044b 9F       		.byte	0x9f
 11994 044c 9A020000 		.4byte	.LVL139
 11995 0450 9E020000 		.4byte	.LVL141
 11996 0454 0100     		.2byte	0x1
 11997 0456 50       		.byte	0x50
 11998 0457 9E020000 		.4byte	.LVL141
 11999 045b A4020000 		.4byte	.LVL143
 12000 045f 0200     		.2byte	0x2
 12001 0461 30       		.byte	0x30
 12002 0462 9F       		.byte	0x9f
 12003 0463 A4020000 		.4byte	.LVL143
 12004 0467 A9020000 		.4byte	.LVL144-1
 12005 046b 0100     		.2byte	0x1
 12006 046d 50       		.byte	0x50
 12007 046e A9020000 		.4byte	.LVL144-1
 12008 0472 CE020000 		.4byte	.LVL150
 12009 0476 0100     		.2byte	0x1
 12010 0478 54       		.byte	0x54
 12011 0479 CE020000 		.4byte	.LVL150
 12012 047d E8020000 		.4byte	.LVL151
 12013 0481 0100     		.2byte	0x1
 12014 0483 50       		.byte	0x50
 12015 0484 E8020000 		.4byte	.LVL151
 12016 0488 2A030000 		.4byte	.LVL161
 12017 048c 0100     		.2byte	0x1
 12018 048e 54       		.byte	0x54
 12019 048f 2A030000 		.4byte	.LVL161
 12020 0493 2E030000 		.4byte	.LVL163
 12021 0497 0100     		.2byte	0x1
 12022 0499 50       		.byte	0x50
 12023 049a 2E030000 		.4byte	.LVL163
 12024 049e 44030000 		.4byte	.LVL168
 12025 04a2 0100     		.2byte	0x1
 12026 04a4 54       		.byte	0x54
 12027 04a5 44030000 		.4byte	.LVL168
ARM GAS  C:\Users\Phuong\AppData\Local\Temp\ccu7x7Ah.s 			page 240


 12028 04a9 4E030000 		.4byte	.LVL172
 12029 04ad 0200     		.2byte	0x2
 12030 04af 30       		.byte	0x30
 12031 04b0 9F       		.byte	0x9f
 12032 04b1 4E030000 		.4byte	.LVL172
 12033 04b5 A4030000 		.4byte	.LVL174
 12034 04b9 0100     		.2byte	0x1
 12035 04bb 54       		.byte	0x54
 12036 04bc A4030000 		.4byte	.LVL174
 12037 04c0 A8030000 		.4byte	.LVL175
 12038 04c4 0200     		.2byte	0x2
 12039 04c6 30       		.byte	0x30
 12040 04c7 9F       		.byte	0x9f
 12041 04c8 A8030000 		.4byte	.LVL175
 12042 04cc B2030000 		.4byte	.LVL177
 12043 04d0 0100     		.2byte	0x1
 12044 04d2 54       		.byte	0x54
 12045 04d3 B2030000 		.4byte	.LVL177
 12046 04d7 B6030000 		.4byte	.LVL178
 12047 04db 0100     		.2byte	0x1
 12048 04dd 50       		.byte	0x50
 12049 04de B6030000 		.4byte	.LVL178
 12050 04e2 BC030000 		.4byte	.LVL180
 12051 04e6 0100     		.2byte	0x1
 12052 04e8 54       		.byte	0x54
 12053 04e9 BC030000 		.4byte	.LVL180
 12054 04ed C2030000 		.4byte	.LFE8
 12055 04f1 0100     		.2byte	0x1
 12056 04f3 50       		.byte	0x50
 12057 04f4 00000000 		.4byte	0
 12058 04f8 00000000 		.4byte	0
 12059              	.LLST16:
 12060 04fc 0C000000 		.4byte	.LVL22
 12061 0500 11000000 		.4byte	.LVL23-1
 12062 0504 0100     		.2byte	0x1
 12063 0506 50       		.byte	0x50
 12064 0507 11000000 		.4byte	.LVL23-1
 12065 050b 32000000 		.4byte	.LVL28
 12066 050f 0100     		.2byte	0x1
 12067 0511 55       		.byte	0x55
 12068 0512 32000000 		.4byte	.LVL28
 12069 0516 36000000 		.4byte	.LVL30
 12070 051a 0100     		.2byte	0x1
 12071 051c 50       		.byte	0x50
 12072 051d 36000000 		.4byte	.LVL30
 12073 0521 BC030000 		.4byte	.LVL181
 12074 0525 0100     		.2byte	0x1
 12075 0527 55       		.byte	0x55
 12076 0528 BC030000 		.4byte	.LVL181
 12077 052c C2030000 		.4byte	.LFE8
 12078 0530 0400     		.2byte	0x4
 12079 0532 F3       		.byte	0xf3
 12080 0533 01       		.uleb128 0x1
 12081 0534 50       		.byte	0x50
 12082 0535 9F       		.byte	0x9f
 12083 0536 00000000 		.4byte	0
 12084 053a 00000000 		.4byte	0
ARM GAS  C:\Users\Phuong\AppData\Local\Temp\ccu7x7Ah.s 			page 241


 12085              	.LLST17:
 12086 053e 5A000000 		.4byte	.LVL35
 12087 0542 68000000 		.4byte	.LVL38
 12088 0546 0200     		.2byte	0x2
 12089 0548 31       		.byte	0x31
 12090 0549 9F       		.byte	0x9f
 12091 054a 90000000 		.4byte	.LVL43
 12092 054e 9E000000 		.4byte	.LVL46
 12093 0552 0200     		.2byte	0x2
 12094 0554 31       		.byte	0x31
 12095 0555 9F       		.byte	0x9f
 12096 0556 36010000 		.4byte	.LVL73
 12097 055a 44010000 		.4byte	.LVL77
 12098 055e 0200     		.2byte	0x2
 12099 0560 31       		.byte	0x31
 12100 0561 9F       		.byte	0x9f
 12101 0562 74010000 		.4byte	.LVL83
 12102 0566 82010000 		.4byte	.LVL87
 12103 056a 0200     		.2byte	0x2
 12104 056c 31       		.byte	0x31
 12105 056d 9F       		.byte	0x9f
 12106 056e B0010000 		.4byte	.LVL93
 12107 0572 BE010000 		.4byte	.LVL97
 12108 0576 0200     		.2byte	0x2
 12109 0578 31       		.byte	0x31
 12110 0579 9F       		.byte	0x9f
 12111 057a EA010000 		.4byte	.LVL104
 12112 057e F0010000 		.4byte	.LVL107
 12113 0582 0200     		.2byte	0x2
 12114 0584 32       		.byte	0x32
 12115 0585 9F       		.byte	0x9f
 12116 0586 1E020000 		.4byte	.LVL115
 12117 058a 24020000 		.4byte	.LVL118
 12118 058e 0200     		.2byte	0x2
 12119 0590 32       		.byte	0x32
 12120 0591 9F       		.byte	0x9f
 12121 0592 54020000 		.4byte	.LVL126
 12122 0596 62020000 		.4byte	.LVL130
 12123 059a 0200     		.2byte	0x2
 12124 059c 31       		.byte	0x31
 12125 059d 9F       		.byte	0x9f
 12126 059e 90020000 		.4byte	.LVL137
 12127 05a2 9E020000 		.4byte	.LVL141
 12128 05a6 0200     		.2byte	0x2
 12129 05a8 31       		.byte	0x31
 12130 05a9 9F       		.byte	0x9f
 12131 05aa CA020000 		.4byte	.LVL148
 12132 05ae CE020000 		.4byte	.LVL150
 12133 05b2 0200     		.2byte	0x2
 12134 05b4 32       		.byte	0x32
 12135 05b5 9F       		.byte	0x9f
 12136 05b6 20030000 		.4byte	.LVL159
 12137 05ba 2E030000 		.4byte	.LVL163
 12138 05be 0200     		.2byte	0x2
 12139 05c0 31       		.byte	0x31
 12140 05c1 9F       		.byte	0x9f
 12141 05c2 30030000 		.4byte	.LVL164
ARM GAS  C:\Users\Phuong\AppData\Local\Temp\ccu7x7Ah.s 			page 242


 12142 05c6 44030000 		.4byte	.LVL168
 12143 05ca 0100     		.2byte	0x1
 12144 05cc 57       		.byte	0x57
 12145 05cd 4E030000 		.4byte	.LVL172
 12146 05d1 A4030000 		.4byte	.LVL174
 12147 05d5 0100     		.2byte	0x1
 12148 05d7 57       		.byte	0x57
 12149 05d8 A8030000 		.4byte	.LVL175
 12150 05dc BC030000 		.4byte	.LVL182
 12151 05e0 0100     		.2byte	0x1
 12152 05e2 57       		.byte	0x57
 12153 05e3 00000000 		.4byte	0
 12154 05e7 00000000 		.4byte	0
 12155              	.LLST18:
 12156 05eb 14000000 		.4byte	.LVL24
 12157 05ef 2A000000 		.4byte	.LVL25
 12158 05f3 0100     		.2byte	0x1
 12159 05f5 50       		.byte	0x50
 12160 05f6 2A000000 		.4byte	.LVL25
 12161 05fa 30000000 		.4byte	.LVL27
 12162 05fe 0100     		.2byte	0x1
 12163 0600 54       		.byte	0x54
 12164 0601 A4030000 		.4byte	.LVL174
 12165 0605 A8030000 		.4byte	.LVL175
 12166 0609 0100     		.2byte	0x1
 12167 060b 50       		.byte	0x50
 12168 060c 00000000 		.4byte	0
 12169 0610 00000000 		.4byte	0
 12170              	.LLST19:
 12171 0614 44000000 		.4byte	.LVL33
 12172 0618 58000000 		.4byte	.LVL34
 12173 061c 0100     		.2byte	0x1
 12174 061e 50       		.byte	0x50
 12175 061f 58000000 		.4byte	.LVL34
 12176 0623 64000000 		.4byte	.LVL37
 12177 0627 0100     		.2byte	0x1
 12178 0629 54       		.byte	0x54
 12179 062a 00000000 		.4byte	0
 12180 062e 00000000 		.4byte	0
 12181              	.LLST20:
 12182 0632 7A000000 		.4byte	.LVL41
 12183 0636 8E000000 		.4byte	.LVL42
 12184 063a 0100     		.2byte	0x1
 12185 063c 50       		.byte	0x50
 12186 063d 8E000000 		.4byte	.LVL42
 12187 0641 9A000000 		.4byte	.LVL45
 12188 0645 0100     		.2byte	0x1
 12189 0647 54       		.byte	0x54
 12190 0648 00000000 		.4byte	0
 12191 064c 00000000 		.4byte	0
 12192              	.LLST21:
 12193 0650 A6000000 		.4byte	.LVL48
 12194 0654 AB000000 		.4byte	.LVL49-1
 12195 0658 0100     		.2byte	0x1
 12196 065a 50       		.byte	0x50
 12197 065b AB000000 		.4byte	.LVL49-1
 12198 065f C8000000 		.4byte	.LVL53
ARM GAS  C:\Users\Phuong\AppData\Local\Temp\ccu7x7Ah.s 			page 243


 12199 0663 0100     		.2byte	0x1
 12200 0665 57       		.byte	0x57
 12201 0666 C8000000 		.4byte	.LVL53
 12202 066a CC000000 		.4byte	.LVL55
 12203 066e 0300     		.2byte	0x3
 12204 0670 77       		.byte	0x77
 12205 0671 7E       		.sleb128 -2
 12206 0672 9F       		.byte	0x9f
 12207 0673 CC000000 		.4byte	.LVL55
 12208 0677 D4000000 		.4byte	.LVL56
 12209 067b 0100     		.2byte	0x1
 12210 067d 50       		.byte	0x50
 12211 067e D4000000 		.4byte	.LVL56
 12212 0682 02010000 		.4byte	.LVL64
 12213 0686 0100     		.2byte	0x1
 12214 0688 57       		.byte	0x57
 12215 0689 06010000 		.4byte	.LVL66
 12216 068d 42010000 		.4byte	.LVL76
 12217 0691 0100     		.2byte	0x1
 12218 0693 57       		.byte	0x57
 12219 0694 44010000 		.4byte	.LVL77
 12220 0698 80010000 		.4byte	.LVL86
 12221 069c 0100     		.2byte	0x1
 12222 069e 57       		.byte	0x57
 12223 069f 82010000 		.4byte	.LVL87
 12224 06a3 BC010000 		.4byte	.LVL96
 12225 06a7 0100     		.2byte	0x1
 12226 06a9 57       		.byte	0x57
 12227 06aa BE010000 		.4byte	.LVL97
 12228 06ae EC010000 		.4byte	.LVL105
 12229 06b2 0100     		.2byte	0x1
 12230 06b4 57       		.byte	0x57
 12231 06b5 F0010000 		.4byte	.LVL107
 12232 06b9 20020000 		.4byte	.LVL116
 12233 06bd 0100     		.2byte	0x1
 12234 06bf 57       		.byte	0x57
 12235 06c0 24020000 		.4byte	.LVL118
 12236 06c4 60020000 		.4byte	.LVL129
 12237 06c8 0100     		.2byte	0x1
 12238 06ca 57       		.byte	0x57
 12239 06cb 62020000 		.4byte	.LVL130
 12240 06cf 9C020000 		.4byte	.LVL140
 12241 06d3 0100     		.2byte	0x1
 12242 06d5 57       		.byte	0x57
 12243 06d6 9E020000 		.4byte	.LVL141
 12244 06da CC020000 		.4byte	.LVL149
 12245 06de 0100     		.2byte	0x1
 12246 06e0 57       		.byte	0x57
 12247 06e1 CE020000 		.4byte	.LVL150
 12248 06e5 2C030000 		.4byte	.LVL162
 12249 06e9 0100     		.2byte	0x1
 12250 06eb 57       		.byte	0x57
 12251 06ec 2E030000 		.4byte	.LVL163
 12252 06f0 30030000 		.4byte	.LVL164
 12253 06f4 0100     		.2byte	0x1
 12254 06f6 57       		.byte	0x57
 12255 06f7 44030000 		.4byte	.LVL168
ARM GAS  C:\Users\Phuong\AppData\Local\Temp\ccu7x7Ah.s 			page 244


 12256 06fb 46030000 		.4byte	.LVL169
 12257 06ff 0100     		.2byte	0x1
 12258 0701 57       		.byte	0x57
 12259 0702 4A030000 		.4byte	.LVL170
 12260 0706 4C030000 		.4byte	.LVL171
 12261 070a 0100     		.2byte	0x1
 12262 070c 57       		.byte	0x57
 12263 070d 00000000 		.4byte	0
 12264 0711 00000000 		.4byte	0
 12265              	.LLST22:
 12266 0715 AE000000 		.4byte	.LVL50
 12267 0719 C4000000 		.4byte	.LVL51
 12268 071d 0100     		.2byte	0x1
 12269 071f 50       		.byte	0x50
 12270 0720 C4000000 		.4byte	.LVL51
 12271 0724 CA000000 		.4byte	.LVL54
 12272 0728 0100     		.2byte	0x1
 12273 072a 54       		.byte	0x54
 12274 072b 44030000 		.4byte	.LVL168
 12275 072f 4A030000 		.4byte	.LVL170
 12276 0733 0100     		.2byte	0x1
 12277 0735 50       		.byte	0x50
 12278 0736 00000000 		.4byte	0
 12279 073a 00000000 		.4byte	0
 12280              	.LLST23:
 12281 073e D8000000 		.4byte	.LVL57
 12282 0742 DE000000 		.4byte	.LVL58
 12283 0746 0100     		.2byte	0x1
 12284 0748 50       		.byte	0x50
 12285 0749 06010000 		.4byte	.LVL66
 12286 074d 0C010000 		.4byte	.LVL67
 12287 0751 0100     		.2byte	0x1
 12288 0753 50       		.byte	0x50
 12289 0754 0C010000 		.4byte	.LVL67
 12290 0758 0F010000 		.4byte	.LVL68-1
 12291 075c 0200     		.2byte	0x2
 12292 075e 75       		.byte	0x75
 12293 075f 38       		.sleb128 56
 12294 0760 00000000 		.4byte	0
 12295 0764 00000000 		.4byte	0
 12296              	.LLST24:
 12297 0768 E8000000 		.4byte	.LVL61
 12298 076c FE000000 		.4byte	.LVL62
 12299 0770 0100     		.2byte	0x1
 12300 0772 50       		.byte	0x50
 12301 0773 FE000000 		.4byte	.LVL62
 12302 0777 04010000 		.4byte	.LVL65
 12303 077b 0100     		.2byte	0x1
 12304 077d 54       		.byte	0x54
 12305 077e 4A030000 		.4byte	.LVL170
 12306 0782 4E030000 		.4byte	.LVL172
 12307 0786 0100     		.2byte	0x1
 12308 0788 50       		.byte	0x50
 12309 0789 00000000 		.4byte	0
 12310 078d 00000000 		.4byte	0
 12311              	.LLST25:
 12312 0791 20010000 		.4byte	.LVL71
ARM GAS  C:\Users\Phuong\AppData\Local\Temp\ccu7x7Ah.s 			page 245


 12313 0795 34010000 		.4byte	.LVL72
 12314 0799 0100     		.2byte	0x1
 12315 079b 50       		.byte	0x50
 12316 079c 34010000 		.4byte	.LVL72
 12317 07a0 40010000 		.4byte	.LVL75
 12318 07a4 0100     		.2byte	0x1
 12319 07a6 54       		.byte	0x54
 12320 07a7 00000000 		.4byte	0
 12321 07ab 00000000 		.4byte	0
 12322              	.LLST26:
 12323 07af 5E010000 		.4byte	.LVL81
 12324 07b3 72010000 		.4byte	.LVL82
 12325 07b7 0100     		.2byte	0x1
 12326 07b9 50       		.byte	0x50
 12327 07ba 72010000 		.4byte	.LVL82
 12328 07be 7E010000 		.4byte	.LVL85
 12329 07c2 0100     		.2byte	0x1
 12330 07c4 54       		.byte	0x54
 12331 07c5 00000000 		.4byte	0
 12332 07c9 00000000 		.4byte	0
 12333              	.LLST27:
 12334 07cd 94010000 		.4byte	.LVL90
 12335 07d1 A8010000 		.4byte	.LVL91
 12336 07d5 0100     		.2byte	0x1
 12337 07d7 50       		.byte	0x50
 12338 07d8 A8010000 		.4byte	.LVL91
 12339 07dc BA010000 		.4byte	.LVL95
 12340 07e0 0100     		.2byte	0x1
 12341 07e2 54       		.byte	0x54
 12342 07e3 00000000 		.4byte	0
 12343 07e7 00000000 		.4byte	0
 12344              	.LLST28:
 12345 07eb C6010000 		.4byte	.LVL99
 12346 07ef CB010000 		.4byte	.LVL100-1
 12347 07f3 0100     		.2byte	0x1
 12348 07f5 50       		.byte	0x50
 12349 07f6 CB010000 		.4byte	.LVL100-1
 12350 07fa CE010000 		.4byte	.LVL101
 12351 07fe 0100     		.2byte	0x1
 12352 0800 54       		.byte	0x54
 12353 0801 F0010000 		.4byte	.LVL107
 12354 0805 F2010000 		.4byte	.LVL108
 12355 0809 0100     		.2byte	0x1
 12356 080b 50       		.byte	0x50
 12357 080c F2010000 		.4byte	.LVL108
 12358 0810 02020000 		.4byte	.LVL112
 12359 0814 0100     		.2byte	0x1
 12360 0816 54       		.byte	0x54
 12361 0817 24020000 		.4byte	.LVL118
 12362 081b 38020000 		.4byte	.LVL123
 12363 081f 0100     		.2byte	0x1
 12364 0821 54       		.byte	0x54
 12365 0822 62020000 		.4byte	.LVL130
 12366 0826 74020000 		.4byte	.LVL134
 12367 082a 0100     		.2byte	0x1
 12368 082c 54       		.byte	0x54
 12369 082d 9E020000 		.4byte	.LVL141
ARM GAS  C:\Users\Phuong\AppData\Local\Temp\ccu7x7Ah.s 			page 246


 12370 0831 A4020000 		.4byte	.LVL143
 12371 0835 0100     		.2byte	0x1
 12372 0837 54       		.byte	0x54
 12373 0838 00000000 		.4byte	0
 12374 083c 00000000 		.4byte	0
 12375              	.LLST29:
 12376 0840 CE010000 		.4byte	.LVL101
 12377 0844 E2010000 		.4byte	.LVL102
 12378 0848 0100     		.2byte	0x1
 12379 084a 50       		.byte	0x50
 12380 084b E2010000 		.4byte	.LVL102
 12381 084f EE010000 		.4byte	.LVL106
 12382 0853 0100     		.2byte	0x1
 12383 0855 54       		.byte	0x54
 12384 0856 00000000 		.4byte	0
 12385 085a 00000000 		.4byte	0
 12386              	.LLST30:
 12387 085e F8010000 		.4byte	.LVL110
 12388 0862 FF010000 		.4byte	.LVL111-1
 12389 0866 0100     		.2byte	0x1
 12390 0868 50       		.byte	0x50
 12391 0869 FF010000 		.4byte	.LVL111-1
 12392 086d 24020000 		.4byte	.LVL118
 12393 0871 0200     		.2byte	0x2
 12394 0873 91       		.byte	0x91
 12395 0874 48       		.sleb128 -56
 12396 0875 24020000 		.4byte	.LVL118
 12397 0879 28020000 		.4byte	.LVL119
 12398 087d 0100     		.2byte	0x1
 12399 087f 50       		.byte	0x50
 12400 0880 28020000 		.4byte	.LVL119
 12401 0884 3C030000 		.4byte	.LVL166
 12402 0888 0200     		.2byte	0x2
 12403 088a 91       		.byte	0x91
 12404 088b 48       		.sleb128 -56
 12405 088c 00000000 		.4byte	0
 12406 0890 00000000 		.4byte	0
 12407              	.LLST31:
 12408 0894 02020000 		.4byte	.LVL112
 12409 0898 16020000 		.4byte	.LVL113
 12410 089c 0100     		.2byte	0x1
 12411 089e 50       		.byte	0x50
 12412 089f 16020000 		.4byte	.LVL113
 12413 08a3 22020000 		.4byte	.LVL117
 12414 08a7 0100     		.2byte	0x1
 12415 08a9 54       		.byte	0x54
 12416 08aa 00000000 		.4byte	0
 12417 08ae 00000000 		.4byte	0
 12418              	.LLST32:
 12419 08b2 2E020000 		.4byte	.LVL121
 12420 08b6 35020000 		.4byte	.LVL122-1
 12421 08ba 0100     		.2byte	0x1
 12422 08bc 50       		.byte	0x50
 12423 08bd 35020000 		.4byte	.LVL122-1
 12424 08c1 62020000 		.4byte	.LVL130
 12425 08c5 0200     		.2byte	0x2
 12426 08c7 91       		.byte	0x91
ARM GAS  C:\Users\Phuong\AppData\Local\Temp\ccu7x7Ah.s 			page 247


 12427 08c8 4C       		.sleb128 -52
 12428 08c9 62020000 		.4byte	.LVL130
 12429 08cd 66020000 		.4byte	.LVL131
 12430 08d1 0100     		.2byte	0x1
 12431 08d3 50       		.byte	0x50
 12432 08d4 66020000 		.4byte	.LVL131
 12433 08d8 3C030000 		.4byte	.LVL166
 12434 08dc 0200     		.2byte	0x2
 12435 08de 91       		.byte	0x91
 12436 08df 4C       		.sleb128 -52
 12437 08e0 00000000 		.4byte	0
 12438 08e4 00000000 		.4byte	0
 12439              	.LLST33:
 12440 08e8 38020000 		.4byte	.LVL123
 12441 08ec 4C020000 		.4byte	.LVL124
 12442 08f0 0100     		.2byte	0x1
 12443 08f2 50       		.byte	0x50
 12444 08f3 4C020000 		.4byte	.LVL124
 12445 08f7 5E020000 		.4byte	.LVL128
 12446 08fb 0100     		.2byte	0x1
 12447 08fd 54       		.byte	0x54
 12448 08fe 00000000 		.4byte	0
 12449 0902 00000000 		.4byte	0
 12450              	.LLST34:
 12451 0906 74020000 		.4byte	.LVL134
 12452 090a 88020000 		.4byte	.LVL135
 12453 090e 0100     		.2byte	0x1
 12454 0910 50       		.byte	0x50
 12455 0911 88020000 		.4byte	.LVL135
 12456 0915 9A020000 		.4byte	.LVL139
 12457 0919 0100     		.2byte	0x1
 12458 091b 54       		.byte	0x54
 12459 091c 00000000 		.4byte	0
 12460 0920 00000000 		.4byte	0
 12461              	.LLST35:
 12462 0924 AC020000 		.4byte	.LVL145
 12463 0928 C2020000 		.4byte	.LVL146
 12464 092c 0100     		.2byte	0x1
 12465 092e 50       		.byte	0x50
 12466 092f C2020000 		.4byte	.LVL146
 12467 0933 CE020000 		.4byte	.LVL150
 12468 0937 0100     		.2byte	0x1
 12469 0939 59       		.byte	0x59
 12470 093a 00000000 		.4byte	0
 12471 093e 00000000 		.4byte	0
 12472              	.LLST36:
 12473 0942 F6020000 		.4byte	.LVL154
 12474 0946 0C030000 		.4byte	.LVL155
 12475 094a 0100     		.2byte	0x1
 12476 094c 50       		.byte	0x50
 12477 094d 0C030000 		.4byte	.LVL155
 12478 0951 2E030000 		.4byte	.LVL163
 12479 0955 0100     		.2byte	0x1
 12480 0957 59       		.byte	0x59
 12481 0958 00000000 		.4byte	0
 12482 095c 00000000 		.4byte	0
 12483              	.LLST37:
ARM GAS  C:\Users\Phuong\AppData\Local\Temp\ccu7x7Ah.s 			page 248


 12484 0960 00000000 		.4byte	.LVL183
 12485 0964 0A000000 		.4byte	.LVL185
 12486 0968 0100     		.2byte	0x1
 12487 096a 50       		.byte	0x50
 12488 096b 0A000000 		.4byte	.LVL185
 12489 096f 5C000000 		.4byte	.LVL193
 12490 0973 0100     		.2byte	0x1
 12491 0975 55       		.byte	0x55
 12492 0976 5C000000 		.4byte	.LVL193
 12493 097a 64000000 		.4byte	.LFE1
 12494 097e 0400     		.2byte	0x4
 12495 0980 F3       		.byte	0xf3
 12496 0981 01       		.uleb128 0x1
 12497 0982 50       		.byte	0x50
 12498 0983 9F       		.byte	0x9f
 12499 0984 00000000 		.4byte	0
 12500 0988 00000000 		.4byte	0
 12501              	.LLST38:
 12502 098c 00000000 		.4byte	.LVL183
 12503 0990 0A000000 		.4byte	.LVL185
 12504 0994 0100     		.2byte	0x1
 12505 0996 51       		.byte	0x51
 12506 0997 0A000000 		.4byte	.LVL185
 12507 099b 5C000000 		.4byte	.LVL194
 12508 099f 0100     		.2byte	0x1
 12509 09a1 56       		.byte	0x56
 12510 09a2 5C000000 		.4byte	.LVL194
 12511 09a6 64000000 		.4byte	.LFE1
 12512 09aa 0400     		.2byte	0x4
 12513 09ac F3       		.byte	0xf3
 12514 09ad 01       		.uleb128 0x1
 12515 09ae 51       		.byte	0x51
 12516 09af 9F       		.byte	0x9f
 12517 09b0 00000000 		.4byte	0
 12518 09b4 00000000 		.4byte	0
 12519              	.LLST39:
 12520 09b8 06000000 		.4byte	.LVL184
 12521 09bc 0A000000 		.4byte	.LVL185
 12522 09c0 0200     		.2byte	0x2
 12523 09c2 30       		.byte	0x30
 12524 09c3 9F       		.byte	0x9f
 12525 09c4 0A000000 		.4byte	.LVL185
 12526 09c8 5C000000 		.4byte	.LVL192
 12527 09cc 0100     		.2byte	0x1
 12528 09ce 54       		.byte	0x54
 12529 09cf 00000000 		.4byte	0
 12530 09d3 00000000 		.4byte	0
 12531              	.LLST40:
 12532 09d7 56000000 		.4byte	.LVL190
 12533 09db 5C000000 		.4byte	.LVL191
 12534 09df 0100     		.2byte	0x1
 12535 09e1 50       		.byte	0x50
 12536 09e2 00000000 		.4byte	0
 12537 09e6 00000000 		.4byte	0
 12538              	.LLST41:
 12539 09ea 00000000 		.4byte	.LVL195
 12540 09ee 15000000 		.4byte	.LVL197-1
ARM GAS  C:\Users\Phuong\AppData\Local\Temp\ccu7x7Ah.s 			page 249


 12541 09f2 0100     		.2byte	0x1
 12542 09f4 50       		.byte	0x50
 12543 09f5 15000000 		.4byte	.LVL197-1
 12544 09f9 38000000 		.4byte	.LVL202
 12545 09fd 0100     		.2byte	0x1
 12546 09ff 55       		.byte	0x55
 12547 0a00 38000000 		.4byte	.LVL202
 12548 0a04 3A000000 		.4byte	.LVL203
 12549 0a08 0100     		.2byte	0x1
 12550 0a0a 50       		.byte	0x50
 12551 0a0b 3A000000 		.4byte	.LVL203
 12552 0a0f 48000000 		.4byte	.LVL207
 12553 0a13 0100     		.2byte	0x1
 12554 0a15 55       		.byte	0x55
 12555 0a16 48000000 		.4byte	.LVL207
 12556 0a1a 60000000 		.4byte	.LVL210
 12557 0a1e 0400     		.2byte	0x4
 12558 0a20 F3       		.byte	0xf3
 12559 0a21 01       		.uleb128 0x1
 12560 0a22 50       		.byte	0x50
 12561 0a23 9F       		.byte	0x9f
 12562 0a24 60000000 		.4byte	.LVL210
 12563 0a28 7A000000 		.4byte	.LVL214
 12564 0a2c 0100     		.2byte	0x1
 12565 0a2e 55       		.byte	0x55
 12566 0a2f 7A000000 		.4byte	.LVL214
 12567 0a33 9A000000 		.4byte	.LVL218
 12568 0a37 0400     		.2byte	0x4
 12569 0a39 F3       		.byte	0xf3
 12570 0a3a 01       		.uleb128 0x1
 12571 0a3b 50       		.byte	0x50
 12572 0a3c 9F       		.byte	0x9f
 12573 0a3d 9A000000 		.4byte	.LVL218
 12574 0a41 B0000000 		.4byte	.LVL221
 12575 0a45 0100     		.2byte	0x1
 12576 0a47 55       		.byte	0x55
 12577 0a48 B0000000 		.4byte	.LVL221
 12578 0a4c D6000000 		.4byte	.LVL226
 12579 0a50 0400     		.2byte	0x4
 12580 0a52 F3       		.byte	0xf3
 12581 0a53 01       		.uleb128 0x1
 12582 0a54 50       		.byte	0x50
 12583 0a55 9F       		.byte	0x9f
 12584 0a56 D6000000 		.4byte	.LVL226
 12585 0a5a EA000000 		.4byte	.LVL229
 12586 0a5e 0100     		.2byte	0x1
 12587 0a60 55       		.byte	0x55
 12588 0a61 EA000000 		.4byte	.LVL229
 12589 0a65 16010000 		.4byte	.LVL235
 12590 0a69 0400     		.2byte	0x4
 12591 0a6b F3       		.byte	0xf3
 12592 0a6c 01       		.uleb128 0x1
 12593 0a6d 50       		.byte	0x50
 12594 0a6e 9F       		.byte	0x9f
 12595 0a6f 16010000 		.4byte	.LVL235
 12596 0a73 2C010000 		.4byte	.LVL237
 12597 0a77 0100     		.2byte	0x1
ARM GAS  C:\Users\Phuong\AppData\Local\Temp\ccu7x7Ah.s 			page 250


 12598 0a79 55       		.byte	0x55
 12599 0a7a 2C010000 		.4byte	.LVL237
 12600 0a7e 4C010000 		.4byte	.LFE2
 12601 0a82 0400     		.2byte	0x4
 12602 0a84 F3       		.byte	0xf3
 12603 0a85 01       		.uleb128 0x1
 12604 0a86 50       		.byte	0x50
 12605 0a87 9F       		.byte	0x9f
 12606 0a88 00000000 		.4byte	0
 12607 0a8c 00000000 		.4byte	0
 12608              	.LLST42:
 12609 0a90 00000000 		.4byte	.LVL195
 12610 0a94 15000000 		.4byte	.LVL197-1
 12611 0a98 0100     		.2byte	0x1
 12612 0a9a 51       		.byte	0x51
 12613 0a9b 15000000 		.4byte	.LVL197-1
 12614 0a9f 38000000 		.4byte	.LVL202
 12615 0aa3 0100     		.2byte	0x1
 12616 0aa5 56       		.byte	0x56
 12617 0aa6 38000000 		.4byte	.LVL202
 12618 0aaa 3D000000 		.4byte	.LVL204-1
 12619 0aae 0100     		.2byte	0x1
 12620 0ab0 51       		.byte	0x51
 12621 0ab1 3D000000 		.4byte	.LVL204-1
 12622 0ab5 30010000 		.4byte	.LVL239
 12623 0ab9 0100     		.2byte	0x1
 12624 0abb 56       		.byte	0x56
 12625 0abc 30010000 		.4byte	.LVL239
 12626 0ac0 4C010000 		.4byte	.LFE2
 12627 0ac4 0400     		.2byte	0x4
 12628 0ac6 F3       		.byte	0xf3
 12629 0ac7 01       		.uleb128 0x1
 12630 0ac8 51       		.byte	0x51
 12631 0ac9 9F       		.byte	0x9f
 12632 0aca 00000000 		.4byte	0
 12633 0ace 00000000 		.4byte	0
 12634              	.LLST43:
 12635 0ad2 00000000 		.4byte	.LVL195
 12636 0ad6 15000000 		.4byte	.LVL197-1
 12637 0ada 0100     		.2byte	0x1
 12638 0adc 52       		.byte	0x52
 12639 0add 15000000 		.4byte	.LVL197-1
 12640 0ae1 38000000 		.4byte	.LVL202
 12641 0ae5 0100     		.2byte	0x1
 12642 0ae7 57       		.byte	0x57
 12643 0ae8 38000000 		.4byte	.LVL202
 12644 0aec 3D000000 		.4byte	.LVL204-1
 12645 0af0 0100     		.2byte	0x1
 12646 0af2 52       		.byte	0x52
 12647 0af3 3D000000 		.4byte	.LVL204-1
 12648 0af7 30010000 		.4byte	.LVL240
 12649 0afb 0100     		.2byte	0x1
 12650 0afd 57       		.byte	0x57
 12651 0afe 30010000 		.4byte	.LVL240
 12652 0b02 4C010000 		.4byte	.LFE2
 12653 0b06 0400     		.2byte	0x4
 12654 0b08 F3       		.byte	0xf3
ARM GAS  C:\Users\Phuong\AppData\Local\Temp\ccu7x7Ah.s 			page 251


 12655 0b09 01       		.uleb128 0x1
 12656 0b0a 52       		.byte	0x52
 12657 0b0b 9F       		.byte	0x9f
 12658 0b0c 00000000 		.4byte	0
 12659 0b10 00000000 		.4byte	0
 12660              	.LLST44:
 12661 0b14 12000000 		.4byte	.LVL196
 12662 0b18 38000000 		.4byte	.LVL202
 12663 0b1c 0200     		.2byte	0x2
 12664 0b1e 30       		.byte	0x30
 12665 0b1f 9F       		.byte	0x9f
 12666 0b20 40000000 		.4byte	.LVL205
 12667 0b24 45000000 		.4byte	.LVL206-1
 12668 0b28 0100     		.2byte	0x1
 12669 0b2a 50       		.byte	0x50
 12670 0b2b 45000000 		.4byte	.LVL206-1
 12671 0b2f 60000000 		.4byte	.LVL210
 12672 0b33 0100     		.2byte	0x1
 12673 0b35 54       		.byte	0x54
 12674 0b36 60000000 		.4byte	.LVL210
 12675 0b3a 67000000 		.4byte	.LVL211-1
 12676 0b3e 0100     		.2byte	0x1
 12677 0b40 50       		.byte	0x50
 12678 0b41 67000000 		.4byte	.LVL211-1
 12679 0b45 96000000 		.4byte	.LVL217
 12680 0b49 0100     		.2byte	0x1
 12681 0b4b 54       		.byte	0x54
 12682 0b4c 96000000 		.4byte	.LVL217
 12683 0b50 9A000000 		.4byte	.LVL218
 12684 0b54 0200     		.2byte	0x2
 12685 0b56 30       		.byte	0x30
 12686 0b57 9F       		.byte	0x9f
 12687 0b58 9A000000 		.4byte	.LVL218
 12688 0b5c D2000000 		.4byte	.LVL225
 12689 0b60 0100     		.2byte	0x1
 12690 0b62 54       		.byte	0x54
 12691 0b63 D2000000 		.4byte	.LVL225
 12692 0b67 D6000000 		.4byte	.LVL226
 12693 0b6b 0200     		.2byte	0x2
 12694 0b6d 30       		.byte	0x30
 12695 0b6e 9F       		.byte	0x9f
 12696 0b6f D6000000 		.4byte	.LVL226
 12697 0b73 12010000 		.4byte	.LVL234
 12698 0b77 0100     		.2byte	0x1
 12699 0b79 54       		.byte	0x54
 12700 0b7a 12010000 		.4byte	.LVL234
 12701 0b7e 16010000 		.4byte	.LVL235
 12702 0b82 0200     		.2byte	0x2
 12703 0b84 30       		.byte	0x30
 12704 0b85 9F       		.byte	0x9f
 12705 0b86 16010000 		.4byte	.LVL235
 12706 0b8a 2A010000 		.4byte	.LVL236
 12707 0b8e 0100     		.2byte	0x1
 12708 0b90 54       		.byte	0x54
 12709 0b91 2A010000 		.4byte	.LVL236
 12710 0b95 2C010000 		.4byte	.LVL237
 12711 0b99 0200     		.2byte	0x2
ARM GAS  C:\Users\Phuong\AppData\Local\Temp\ccu7x7Ah.s 			page 252


 12712 0b9b 30       		.byte	0x30
 12713 0b9c 9F       		.byte	0x9f
 12714 0b9d 2C010000 		.4byte	.LVL237
 12715 0ba1 30010000 		.4byte	.LVL238
 12716 0ba5 0100     		.2byte	0x1
 12717 0ba7 54       		.byte	0x54
 12718 0ba8 30010000 		.4byte	.LVL238
 12719 0bac 4C010000 		.4byte	.LFE2
 12720 0bb0 0100     		.2byte	0x1
 12721 0bb2 50       		.byte	0x50
 12722 0bb3 00000000 		.4byte	0
 12723 0bb7 00000000 		.4byte	0
 12724              	.LLST45:
 12725 0bbb 18000000 		.4byte	.LVL198
 12726 0bbf 32000000 		.4byte	.LVL199
 12727 0bc3 0100     		.2byte	0x1
 12728 0bc5 50       		.byte	0x50
 12729 0bc6 32000000 		.4byte	.LVL199
 12730 0bca 36000000 		.4byte	.LVL201
 12731 0bce 0100     		.2byte	0x1
 12732 0bd0 54       		.byte	0x54
 12733 0bd1 2A010000 		.4byte	.LVL236
 12734 0bd5 2C010000 		.4byte	.LVL237
 12735 0bd9 0100     		.2byte	0x1
 12736 0bdb 50       		.byte	0x50
 12737 0bdc 00000000 		.4byte	0
 12738 0be0 00000000 		.4byte	0
 12739              	.LLST46:
 12740 0be4 48000000 		.4byte	.LVL207
 12741 0be8 5C000000 		.4byte	.LVL208
 12742 0bec 0100     		.2byte	0x1
 12743 0bee 50       		.byte	0x50
 12744 0bef 5C000000 		.4byte	.LVL208
 12745 0bf3 60000000 		.4byte	.LVL210
 12746 0bf7 0100     		.2byte	0x1
 12747 0bf9 55       		.byte	0x55
 12748 0bfa 00000000 		.4byte	0
 12749 0bfe 00000000 		.4byte	0
 12750              	.LLST47:
 12751 0c02 7A000000 		.4byte	.LVL214
 12752 0c06 8E000000 		.4byte	.LVL215
 12753 0c0a 0100     		.2byte	0x1
 12754 0c0c 50       		.byte	0x50
 12755 0c0d 8E000000 		.4byte	.LVL215
 12756 0c11 9A000000 		.4byte	.LVL218
 12757 0c15 0100     		.2byte	0x1
 12758 0c17 55       		.byte	0x55
 12759 0c18 00000000 		.4byte	0
 12760 0c1c 00000000 		.4byte	0
 12761              	.LLST48:
 12762 0c20 B0000000 		.4byte	.LVL221
 12763 0c24 C4000000 		.4byte	.LVL222
 12764 0c28 0100     		.2byte	0x1
 12765 0c2a 50       		.byte	0x50
 12766 0c2b C4000000 		.4byte	.LVL222
 12767 0c2f D6000000 		.4byte	.LVL226
 12768 0c33 0100     		.2byte	0x1
ARM GAS  C:\Users\Phuong\AppData\Local\Temp\ccu7x7Ah.s 			page 253


 12769 0c35 55       		.byte	0x55
 12770 0c36 00000000 		.4byte	0
 12771 0c3a 00000000 		.4byte	0
 12772              	.LLST49:
 12773 0c3e EA000000 		.4byte	.LVL229
 12774 0c42 FE000000 		.4byte	.LVL230
 12775 0c46 0100     		.2byte	0x1
 12776 0c48 50       		.byte	0x50
 12777 0c49 FE000000 		.4byte	.LVL230
 12778 0c4d 16010000 		.4byte	.LVL235
 12779 0c51 0100     		.2byte	0x1
 12780 0c53 55       		.byte	0x55
 12781 0c54 00000000 		.4byte	0
 12782 0c58 00000000 		.4byte	0
 12783              	.LLST50:
 12784 0c5c 00000000 		.4byte	.LVL241
 12785 0c60 0C000000 		.4byte	.LVL242
 12786 0c64 0100     		.2byte	0x1
 12787 0c66 50       		.byte	0x50
 12788 0c67 0C000000 		.4byte	.LVL242
 12789 0c6b 12000000 		.4byte	.LVL244
 12790 0c6f 0400     		.2byte	0x4
 12791 0c71 F3       		.byte	0xf3
 12792 0c72 01       		.uleb128 0x1
 12793 0c73 50       		.byte	0x50
 12794 0c74 9F       		.byte	0x9f
 12795 0c75 12000000 		.4byte	.LVL244
 12796 0c79 14000000 		.4byte	.LVL245
 12797 0c7d 0100     		.2byte	0x1
 12798 0c7f 50       		.byte	0x50
 12799 0c80 14000000 		.4byte	.LVL245
 12800 0c84 20000000 		.4byte	.LFE9
 12801 0c88 0400     		.2byte	0x4
 12802 0c8a F3       		.byte	0xf3
 12803 0c8b 01       		.uleb128 0x1
 12804 0c8c 50       		.byte	0x50
 12805 0c8d 9F       		.byte	0x9f
 12806 0c8e 00000000 		.4byte	0
 12807 0c92 00000000 		.4byte	0
 12808              	.LLST51:
 12809 0c96 00000000 		.4byte	.LVL247
 12810 0c9a 0D000000 		.4byte	.LVL249-1
 12811 0c9e 0100     		.2byte	0x1
 12812 0ca0 50       		.byte	0x50
 12813 0ca1 0D000000 		.4byte	.LVL249-1
 12814 0ca5 34000000 		.4byte	.LVL255
 12815 0ca9 0200     		.2byte	0x2
 12816 0cab 91       		.byte	0x91
 12817 0cac 58       		.sleb128 -40
 12818 0cad 34000000 		.4byte	.LVL255
 12819 0cb1 36000000 		.4byte	.LVL256
 12820 0cb5 0400     		.2byte	0x4
 12821 0cb7 F3       		.byte	0xf3
 12822 0cb8 01       		.uleb128 0x1
 12823 0cb9 50       		.byte	0x50
 12824 0cba 9F       		.byte	0x9f
 12825 0cbb 36000000 		.4byte	.LVL256
ARM GAS  C:\Users\Phuong\AppData\Local\Temp\ccu7x7Ah.s 			page 254


 12826 0cbf 64000000 		.4byte	.LVL264
 12827 0cc3 0200     		.2byte	0x2
 12828 0cc5 91       		.byte	0x91
 12829 0cc6 58       		.sleb128 -40
 12830 0cc7 64000000 		.4byte	.LVL264
 12831 0ccb 66000000 		.4byte	.LVL265
 12832 0ccf 0400     		.2byte	0x4
 12833 0cd1 F3       		.byte	0xf3
 12834 0cd2 01       		.uleb128 0x1
 12835 0cd3 50       		.byte	0x50
 12836 0cd4 9F       		.byte	0x9f
 12837 0cd5 66000000 		.4byte	.LVL265
 12838 0cd9 94000000 		.4byte	.LVL273
 12839 0cdd 0200     		.2byte	0x2
 12840 0cdf 91       		.byte	0x91
 12841 0ce0 58       		.sleb128 -40
 12842 0ce1 94000000 		.4byte	.LVL273
 12843 0ce5 96000000 		.4byte	.LVL274
 12844 0ce9 0400     		.2byte	0x4
 12845 0ceb F3       		.byte	0xf3
 12846 0cec 01       		.uleb128 0x1
 12847 0ced 50       		.byte	0x50
 12848 0cee 9F       		.byte	0x9f
 12849 0cef 96000000 		.4byte	.LVL274
 12850 0cf3 C4000000 		.4byte	.LVL282
 12851 0cf7 0200     		.2byte	0x2
 12852 0cf9 91       		.byte	0x91
 12853 0cfa 58       		.sleb128 -40
 12854 0cfb C4000000 		.4byte	.LVL282
 12855 0cff C6000000 		.4byte	.LVL283
 12856 0d03 0400     		.2byte	0x4
 12857 0d05 F3       		.byte	0xf3
 12858 0d06 01       		.uleb128 0x1
 12859 0d07 50       		.byte	0x50
 12860 0d08 9F       		.byte	0x9f
 12861 0d09 C6000000 		.4byte	.LVL283
 12862 0d0d F8000000 		.4byte	.LVL290
 12863 0d11 0200     		.2byte	0x2
 12864 0d13 91       		.byte	0x91
 12865 0d14 58       		.sleb128 -40
 12866 0d15 F8000000 		.4byte	.LVL290
 12867 0d19 FA000000 		.4byte	.LVL291
 12868 0d1d 0400     		.2byte	0x4
 12869 0d1f F3       		.byte	0xf3
 12870 0d20 01       		.uleb128 0x1
 12871 0d21 50       		.byte	0x50
 12872 0d22 9F       		.byte	0x9f
 12873 0d23 FA000000 		.4byte	.LVL291
 12874 0d27 2C010000 		.4byte	.LVL298
 12875 0d2b 0200     		.2byte	0x2
 12876 0d2d 91       		.byte	0x91
 12877 0d2e 58       		.sleb128 -40
 12878 0d2f 2C010000 		.4byte	.LVL298
 12879 0d33 2E010000 		.4byte	.LVL299
 12880 0d37 0400     		.2byte	0x4
 12881 0d39 F3       		.byte	0xf3
 12882 0d3a 01       		.uleb128 0x1
ARM GAS  C:\Users\Phuong\AppData\Local\Temp\ccu7x7Ah.s 			page 255


 12883 0d3b 50       		.byte	0x50
 12884 0d3c 9F       		.byte	0x9f
 12885 0d3d 2E010000 		.4byte	.LVL299
 12886 0d41 5C010000 		.4byte	.LVL307
 12887 0d45 0200     		.2byte	0x2
 12888 0d47 91       		.byte	0x91
 12889 0d48 58       		.sleb128 -40
 12890 0d49 5C010000 		.4byte	.LVL307
 12891 0d4d 5E010000 		.4byte	.LVL308
 12892 0d51 0400     		.2byte	0x4
 12893 0d53 F3       		.byte	0xf3
 12894 0d54 01       		.uleb128 0x1
 12895 0d55 50       		.byte	0x50
 12896 0d56 9F       		.byte	0x9f
 12897 0d57 5E010000 		.4byte	.LVL308
 12898 0d5b 90010000 		.4byte	.LVL315
 12899 0d5f 0200     		.2byte	0x2
 12900 0d61 91       		.byte	0x91
 12901 0d62 58       		.sleb128 -40
 12902 0d63 90010000 		.4byte	.LVL315
 12903 0d67 92010000 		.4byte	.LVL316
 12904 0d6b 0400     		.2byte	0x4
 12905 0d6d F3       		.byte	0xf3
 12906 0d6e 01       		.uleb128 0x1
 12907 0d6f 50       		.byte	0x50
 12908 0d70 9F       		.byte	0x9f
 12909 0d71 92010000 		.4byte	.LVL316
 12910 0d75 C6010000 		.4byte	.LVL322
 12911 0d79 0200     		.2byte	0x2
 12912 0d7b 91       		.byte	0x91
 12913 0d7c 58       		.sleb128 -40
 12914 0d7d C6010000 		.4byte	.LVL322
 12915 0d81 C8010000 		.4byte	.LVL323
 12916 0d85 0400     		.2byte	0x4
 12917 0d87 F3       		.byte	0xf3
 12918 0d88 01       		.uleb128 0x1
 12919 0d89 50       		.byte	0x50
 12920 0d8a 9F       		.byte	0x9f
 12921 0d8b C8010000 		.4byte	.LVL323
 12922 0d8f FA010000 		.4byte	.LVL329
 12923 0d93 0200     		.2byte	0x2
 12924 0d95 91       		.byte	0x91
 12925 0d96 58       		.sleb128 -40
 12926 0d97 FA010000 		.4byte	.LVL329
 12927 0d9b FC010000 		.4byte	.LVL330
 12928 0d9f 0400     		.2byte	0x4
 12929 0da1 F3       		.byte	0xf3
 12930 0da2 01       		.uleb128 0x1
 12931 0da3 50       		.byte	0x50
 12932 0da4 9F       		.byte	0x9f
 12933 0da5 FC010000 		.4byte	.LVL330
 12934 0da9 02020000 		.4byte	.LVL331
 12935 0dad 0200     		.2byte	0x2
 12936 0daf 91       		.byte	0x91
 12937 0db0 58       		.sleb128 -40
 12938 0db1 02020000 		.4byte	.LVL331
 12939 0db5 04020000 		.4byte	.LVL332
ARM GAS  C:\Users\Phuong\AppData\Local\Temp\ccu7x7Ah.s 			page 256


 12940 0db9 0400     		.2byte	0x4
 12941 0dbb F3       		.byte	0xf3
 12942 0dbc 01       		.uleb128 0x1
 12943 0dbd 50       		.byte	0x50
 12944 0dbe 9F       		.byte	0x9f
 12945 0dbf 04020000 		.4byte	.LVL332
 12946 0dc3 08020000 		.4byte	.LVL333
 12947 0dc7 0200     		.2byte	0x2
 12948 0dc9 91       		.byte	0x91
 12949 0dca 58       		.sleb128 -40
 12950 0dcb 08020000 		.4byte	.LVL333
 12951 0dcf 0A020000 		.4byte	.LVL334
 12952 0dd3 0400     		.2byte	0x4
 12953 0dd5 F3       		.byte	0xf3
 12954 0dd6 01       		.uleb128 0x1
 12955 0dd7 50       		.byte	0x50
 12956 0dd8 9F       		.byte	0x9f
 12957 0dd9 0A020000 		.4byte	.LVL334
 12958 0ddd 0E020000 		.4byte	.LVL335
 12959 0de1 0200     		.2byte	0x2
 12960 0de3 91       		.byte	0x91
 12961 0de4 58       		.sleb128 -40
 12962 0de5 0E020000 		.4byte	.LVL335
 12963 0de9 10020000 		.4byte	.LVL336
 12964 0ded 0400     		.2byte	0x4
 12965 0def F3       		.byte	0xf3
 12966 0df0 01       		.uleb128 0x1
 12967 0df1 50       		.byte	0x50
 12968 0df2 9F       		.byte	0x9f
 12969 0df3 10020000 		.4byte	.LVL336
 12970 0df7 14020000 		.4byte	.LVL337
 12971 0dfb 0200     		.2byte	0x2
 12972 0dfd 91       		.byte	0x91
 12973 0dfe 58       		.sleb128 -40
 12974 0dff 14020000 		.4byte	.LVL337
 12975 0e03 1C020000 		.4byte	.LVL339
 12976 0e07 0400     		.2byte	0x4
 12977 0e09 F3       		.byte	0xf3
 12978 0e0a 01       		.uleb128 0x1
 12979 0e0b 50       		.byte	0x50
 12980 0e0c 9F       		.byte	0x9f
 12981 0e0d 1C020000 		.4byte	.LVL339
 12982 0e11 20020000 		.4byte	.LVL340
 12983 0e15 0200     		.2byte	0x2
 12984 0e17 91       		.byte	0x91
 12985 0e18 58       		.sleb128 -40
 12986 0e19 20020000 		.4byte	.LVL340
 12987 0e1d 28020000 		.4byte	.LVL342
 12988 0e21 0400     		.2byte	0x4
 12989 0e23 F3       		.byte	0xf3
 12990 0e24 01       		.uleb128 0x1
 12991 0e25 50       		.byte	0x50
 12992 0e26 9F       		.byte	0x9f
 12993 0e27 28020000 		.4byte	.LVL342
 12994 0e2b 2C020000 		.4byte	.LVL343
 12995 0e2f 0200     		.2byte	0x2
 12996 0e31 91       		.byte	0x91
ARM GAS  C:\Users\Phuong\AppData\Local\Temp\ccu7x7Ah.s 			page 257


 12997 0e32 58       		.sleb128 -40
 12998 0e33 2C020000 		.4byte	.LVL343
 12999 0e37 2E020000 		.4byte	.LVL344
 13000 0e3b 0400     		.2byte	0x4
 13001 0e3d F3       		.byte	0xf3
 13002 0e3e 01       		.uleb128 0x1
 13003 0e3f 50       		.byte	0x50
 13004 0e40 9F       		.byte	0x9f
 13005 0e41 2E020000 		.4byte	.LVL344
 13006 0e45 32020000 		.4byte	.LVL345
 13007 0e49 0200     		.2byte	0x2
 13008 0e4b 91       		.byte	0x91
 13009 0e4c 58       		.sleb128 -40
 13010 0e4d 32020000 		.4byte	.LVL345
 13011 0e51 3A020000 		.4byte	.LVL347
 13012 0e55 0400     		.2byte	0x4
 13013 0e57 F3       		.byte	0xf3
 13014 0e58 01       		.uleb128 0x1
 13015 0e59 50       		.byte	0x50
 13016 0e5a 9F       		.byte	0x9f
 13017 0e5b 3A020000 		.4byte	.LVL347
 13018 0e5f 40020000 		.4byte	.LVL348
 13019 0e63 0200     		.2byte	0x2
 13020 0e65 91       		.byte	0x91
 13021 0e66 58       		.sleb128 -40
 13022 0e67 40020000 		.4byte	.LVL348
 13023 0e6b 42020000 		.4byte	.LVL349
 13024 0e6f 0400     		.2byte	0x4
 13025 0e71 F3       		.byte	0xf3
 13026 0e72 01       		.uleb128 0x1
 13027 0e73 50       		.byte	0x50
 13028 0e74 9F       		.byte	0x9f
 13029 0e75 42020000 		.4byte	.LVL349
 13030 0e79 46020000 		.4byte	.LVL350
 13031 0e7d 0200     		.2byte	0x2
 13032 0e7f 91       		.byte	0x91
 13033 0e80 58       		.sleb128 -40
 13034 0e81 46020000 		.4byte	.LVL350
 13035 0e85 54020000 		.4byte	.LVL353
 13036 0e89 0400     		.2byte	0x4
 13037 0e8b F3       		.byte	0xf3
 13038 0e8c 01       		.uleb128 0x1
 13039 0e8d 50       		.byte	0x50
 13040 0e8e 9F       		.byte	0x9f
 13041 0e8f 54020000 		.4byte	.LVL353
 13042 0e93 5A020000 		.4byte	.LVL354
 13043 0e97 0200     		.2byte	0x2
 13044 0e99 91       		.byte	0x91
 13045 0e9a 58       		.sleb128 -40
 13046 0e9b 5A020000 		.4byte	.LVL354
 13047 0e9f 62020000 		.4byte	.LVL356
 13048 0ea3 0400     		.2byte	0x4
 13049 0ea5 F3       		.byte	0xf3
 13050 0ea6 01       		.uleb128 0x1
 13051 0ea7 50       		.byte	0x50
 13052 0ea8 9F       		.byte	0x9f
 13053 0ea9 62020000 		.4byte	.LVL356
ARM GAS  C:\Users\Phuong\AppData\Local\Temp\ccu7x7Ah.s 			page 258


 13054 0ead 66020000 		.4byte	.LVL357
 13055 0eb1 0200     		.2byte	0x2
 13056 0eb3 91       		.byte	0x91
 13057 0eb4 58       		.sleb128 -40
 13058 0eb5 66020000 		.4byte	.LVL357
 13059 0eb9 E4020000 		.4byte	.LFE13
 13060 0ebd 0400     		.2byte	0x4
 13061 0ebf F3       		.byte	0xf3
 13062 0ec0 01       		.uleb128 0x1
 13063 0ec1 50       		.byte	0x50
 13064 0ec2 9F       		.byte	0x9f
 13065 0ec3 00000000 		.4byte	0
 13066 0ec7 00000000 		.4byte	0
 13067              	.LLST52:
 13068 0ecb 0A000000 		.4byte	.LVL248
 13069 0ecf 14020000 		.4byte	.LVL337
 13070 0ed3 0200     		.2byte	0x2
 13071 0ed5 30       		.byte	0x30
 13072 0ed6 9F       		.byte	0x9f
 13073 0ed7 14020000 		.4byte	.LVL337
 13074 0edb 1C020000 		.4byte	.LVL339
 13075 0edf 0200     		.2byte	0x2
 13076 0ee1 91       		.byte	0x91
 13077 0ee2 58       		.sleb128 -40
 13078 0ee3 1C020000 		.4byte	.LVL339
 13079 0ee7 20020000 		.4byte	.LVL340
 13080 0eeb 0200     		.2byte	0x2
 13081 0eed 30       		.byte	0x30
 13082 0eee 9F       		.byte	0x9f
 13083 0eef 20020000 		.4byte	.LVL340
 13084 0ef3 28020000 		.4byte	.LVL342
 13085 0ef7 0200     		.2byte	0x2
 13086 0ef9 91       		.byte	0x91
 13087 0efa 58       		.sleb128 -40
 13088 0efb 28020000 		.4byte	.LVL342
 13089 0eff 32020000 		.4byte	.LVL345
 13090 0f03 0200     		.2byte	0x2
 13091 0f05 30       		.byte	0x30
 13092 0f06 9F       		.byte	0x9f
 13093 0f07 32020000 		.4byte	.LVL345
 13094 0f0b 3A020000 		.4byte	.LVL347
 13095 0f0f 0200     		.2byte	0x2
 13096 0f11 91       		.byte	0x91
 13097 0f12 58       		.sleb128 -40
 13098 0f13 3A020000 		.4byte	.LVL347
 13099 0f17 46020000 		.4byte	.LVL350
 13100 0f1b 0200     		.2byte	0x2
 13101 0f1d 30       		.byte	0x30
 13102 0f1e 9F       		.byte	0x9f
 13103 0f1f 46020000 		.4byte	.LVL350
 13104 0f23 54020000 		.4byte	.LVL353
 13105 0f27 0200     		.2byte	0x2
 13106 0f29 91       		.byte	0x91
 13107 0f2a 58       		.sleb128 -40
 13108 0f2b 54020000 		.4byte	.LVL353
 13109 0f2f 5A020000 		.4byte	.LVL354
 13110 0f33 0200     		.2byte	0x2
ARM GAS  C:\Users\Phuong\AppData\Local\Temp\ccu7x7Ah.s 			page 259


 13111 0f35 30       		.byte	0x30
 13112 0f36 9F       		.byte	0x9f
 13113 0f37 5A020000 		.4byte	.LVL354
 13114 0f3b 62020000 		.4byte	.LVL356
 13115 0f3f 0200     		.2byte	0x2
 13116 0f41 91       		.byte	0x91
 13117 0f42 58       		.sleb128 -40
 13118 0f43 62020000 		.4byte	.LVL356
 13119 0f47 66020000 		.4byte	.LVL357
 13120 0f4b 0200     		.2byte	0x2
 13121 0f4d 30       		.byte	0x30
 13122 0f4e 9F       		.byte	0x9f
 13123 0f4f 66020000 		.4byte	.LVL357
 13124 0f53 E4020000 		.4byte	.LFE13
 13125 0f57 0200     		.2byte	0x2
 13126 0f59 91       		.byte	0x91
 13127 0f5a 58       		.sleb128 -40
 13128 0f5b 00000000 		.4byte	0
 13129 0f5f 00000000 		.4byte	0
 13130              	.LLST53:
 13131 0f63 10000000 		.4byte	.LVL250
 13132 0f67 15000000 		.4byte	.LVL251-1
 13133 0f6b 0100     		.2byte	0x1
 13134 0f6d 50       		.byte	0x50
 13135 0f6e 15000000 		.4byte	.LVL251-1
 13136 0f72 18000000 		.4byte	.LVL252
 13137 0f76 0100     		.2byte	0x1
 13138 0f78 54       		.byte	0x54
 13139 0f79 36000000 		.4byte	.LVL256
 13140 0f7d 38000000 		.4byte	.LVL257
 13141 0f81 0100     		.2byte	0x1
 13142 0f83 50       		.byte	0x50
 13143 0f84 38000000 		.4byte	.LVL257
 13144 0f88 62020000 		.4byte	.LVL356
 13145 0f8c 0100     		.2byte	0x1
 13146 0f8e 54       		.byte	0x54
 13147 0f8f 00000000 		.4byte	0
 13148 0f93 00000000 		.4byte	0
 13149              	.LLST54:
 13150 0f97 18000000 		.4byte	.LVL252
 13151 0f9b 2E000000 		.4byte	.LVL253
 13152 0f9f 0100     		.2byte	0x1
 13153 0fa1 50       		.byte	0x50
 13154 0fa2 2E000000 		.4byte	.LVL253
 13155 0fa6 36000000 		.4byte	.LVL256
 13156 0faa 0100     		.2byte	0x1
 13157 0fac 54       		.byte	0x54
 13158 0fad 62020000 		.4byte	.LVL356
 13159 0fb1 66020000 		.4byte	.LVL357
 13160 0fb5 0100     		.2byte	0x1
 13161 0fb7 50       		.byte	0x50
 13162 0fb8 00000000 		.4byte	0
 13163 0fbc 00000000 		.4byte	0
 13164              	.LLST55:
 13165 0fc0 3E000000 		.4byte	.LVL259
 13166 0fc4 43000000 		.4byte	.LVL260-1
 13167 0fc8 0100     		.2byte	0x1
ARM GAS  C:\Users\Phuong\AppData\Local\Temp\ccu7x7Ah.s 			page 260


 13168 0fca 50       		.byte	0x50
 13169 0fcb 43000000 		.4byte	.LVL260-1
 13170 0fcf 46000000 		.4byte	.LVL261
 13171 0fd3 0100     		.2byte	0x1
 13172 0fd5 55       		.byte	0x55
 13173 0fd6 66000000 		.4byte	.LVL265
 13174 0fda 68000000 		.4byte	.LVL266
 13175 0fde 0100     		.2byte	0x1
 13176 0fe0 50       		.byte	0x50
 13177 0fe1 68000000 		.4byte	.LVL266
 13178 0fe5 54020000 		.4byte	.LVL353
 13179 0fe9 0100     		.2byte	0x1
 13180 0feb 55       		.byte	0x55
 13181 0fec 00000000 		.4byte	0
 13182 0ff0 00000000 		.4byte	0
 13183              	.LLST56:
 13184 0ff4 46000000 		.4byte	.LVL261
 13185 0ff8 5C000000 		.4byte	.LVL262
 13186 0ffc 0100     		.2byte	0x1
 13187 0ffe 50       		.byte	0x50
 13188 0fff 5C000000 		.4byte	.LVL262
 13189 1003 66000000 		.4byte	.LVL265
 13190 1007 0100     		.2byte	0x1
 13191 1009 55       		.byte	0x55
 13192 100a 54020000 		.4byte	.LVL353
 13193 100e 5A020000 		.4byte	.LVL354
 13194 1012 0100     		.2byte	0x1
 13195 1014 50       		.byte	0x50
 13196 1015 00000000 		.4byte	0
 13197 1019 00000000 		.4byte	0
 13198              	.LLST57:
 13199 101d 66000000 		.4byte	.LVL265
 13200 1021 6E000000 		.4byte	.LVL268
 13201 1025 0200     		.2byte	0x2
 13202 1027 30       		.byte	0x30
 13203 1028 9F       		.byte	0x9f
 13204 1029 6E000000 		.4byte	.LVL268
 13205 102d 73000000 		.4byte	.LVL269-1
 13206 1031 0100     		.2byte	0x1
 13207 1033 50       		.byte	0x50
 13208 1034 73000000 		.4byte	.LVL269-1
 13209 1038 96000000 		.4byte	.LVL274
 13210 103c 0100     		.2byte	0x1
 13211 103e 56       		.byte	0x56
 13212 103f 96000000 		.4byte	.LVL274
 13213 1043 99000000 		.4byte	.LVL275-1
 13214 1047 0100     		.2byte	0x1
 13215 1049 50       		.byte	0x50
 13216 104a 99000000 		.4byte	.LVL275-1
 13217 104e 54020000 		.4byte	.LVL353
 13218 1052 0100     		.2byte	0x1
 13219 1054 56       		.byte	0x56
 13220 1055 00000000 		.4byte	0
 13221 1059 00000000 		.4byte	0
 13222              	.LLST58:
 13223 105d 66000000 		.4byte	.LVL265
 13224 1061 A0000000 		.4byte	.LVL277
ARM GAS  C:\Users\Phuong\AppData\Local\Temp\ccu7x7Ah.s 			page 261


 13225 1065 0200     		.2byte	0x2
 13226 1067 30       		.byte	0x30
 13227 1068 9F       		.byte	0x9f
 13228 1069 A0000000 		.4byte	.LVL277
 13229 106d A5000000 		.4byte	.LVL278-1
 13230 1071 0100     		.2byte	0x1
 13231 1073 50       		.byte	0x50
 13232 1074 A5000000 		.4byte	.LVL278-1
 13233 1078 A8000000 		.4byte	.LVL279
 13234 107c 0100     		.2byte	0x1
 13235 107e 57       		.byte	0x57
 13236 107f C6000000 		.4byte	.LVL283
 13237 1083 CC000000 		.4byte	.LVL284
 13238 1087 0100     		.2byte	0x1
 13239 1089 50       		.byte	0x50
 13240 108a CC000000 		.4byte	.LVL284
 13241 108e 3A020000 		.4byte	.LVL347
 13242 1092 0100     		.2byte	0x1
 13243 1094 57       		.byte	0x57
 13244 1095 3A020000 		.4byte	.LVL347
 13245 1099 42020000 		.4byte	.LVL349
 13246 109d 0200     		.2byte	0x2
 13247 109f 30       		.byte	0x30
 13248 10a0 9F       		.byte	0x9f
 13249 10a1 00000000 		.4byte	0
 13250 10a5 00000000 		.4byte	0
 13251              	.LLST59:
 13252 10a9 76000000 		.4byte	.LVL270
 13253 10ad 8C000000 		.4byte	.LVL271
 13254 10b1 0100     		.2byte	0x1
 13255 10b3 50       		.byte	0x50
 13256 10b4 8C000000 		.4byte	.LVL271
 13257 10b8 96000000 		.4byte	.LVL274
 13258 10bc 0100     		.2byte	0x1
 13259 10be 57       		.byte	0x57
 13260 10bf 3A020000 		.4byte	.LVL347
 13261 10c3 42020000 		.4byte	.LVL349
 13262 10c7 0100     		.2byte	0x1
 13263 10c9 50       		.byte	0x50
 13264 10ca 00000000 		.4byte	0
 13265 10ce 00000000 		.4byte	0
 13266              	.LLST60:
 13267 10d2 A8000000 		.4byte	.LVL279
 13268 10d6 BE000000 		.4byte	.LVL280
 13269 10da 0100     		.2byte	0x1
 13270 10dc 50       		.byte	0x50
 13271 10dd BE000000 		.4byte	.LVL280
 13272 10e1 C6000000 		.4byte	.LVL283
 13273 10e5 0100     		.2byte	0x1
 13274 10e7 57       		.byte	0x57
 13275 10e8 42020000 		.4byte	.LVL349
 13276 10ec 46020000 		.4byte	.LVL350
 13277 10f0 0100     		.2byte	0x1
 13278 10f2 50       		.byte	0x50
 13279 10f3 00000000 		.4byte	0
 13280 10f7 00000000 		.4byte	0
 13281              	.LLST61:
ARM GAS  C:\Users\Phuong\AppData\Local\Temp\ccu7x7Ah.s 			page 262


 13282 10fb DA000000 		.4byte	.LVL287
 13283 10ff F2000000 		.4byte	.LVL288
 13284 1103 0100     		.2byte	0x1
 13285 1105 50       		.byte	0x50
 13286 1106 F2000000 		.4byte	.LVL288
 13287 110a FA000000 		.4byte	.LVL291
 13288 110e 0100     		.2byte	0x1
 13289 1110 58       		.byte	0x58
 13290 1111 28020000 		.4byte	.LVL342
 13291 1115 2E020000 		.4byte	.LVL344
 13292 1119 0100     		.2byte	0x1
 13293 111b 50       		.byte	0x50
 13294 111c 00000000 		.4byte	0
 13295 1120 00000000 		.4byte	0
 13296              	.LLST62:
 13297 1124 02010000 		.4byte	.LVL293
 13298 1128 09010000 		.4byte	.LVL294-1
 13299 112c 0100     		.2byte	0x1
 13300 112e 50       		.byte	0x50
 13301 112f 09010000 		.4byte	.LVL294-1
 13302 1133 2E010000 		.4byte	.LVL299
 13303 1137 0200     		.2byte	0x2
 13304 1139 91       		.byte	0x91
 13305 113a 5C       		.sleb128 -36
 13306 113b 2E010000 		.4byte	.LVL299
 13307 113f 30010000 		.4byte	.LVL300
 13308 1143 0100     		.2byte	0x1
 13309 1145 50       		.byte	0x50
 13310 1146 30010000 		.4byte	.LVL300
 13311 114a 28020000 		.4byte	.LVL342
 13312 114e 0200     		.2byte	0x2
 13313 1150 91       		.byte	0x91
 13314 1151 5C       		.sleb128 -36
 13315 1152 2E020000 		.4byte	.LVL344
 13316 1156 32020000 		.4byte	.LVL345
 13317 115a 0200     		.2byte	0x2
 13318 115c 91       		.byte	0x91
 13319 115d 5C       		.sleb128 -36
 13320 115e 00000000 		.4byte	0
 13321 1162 00000000 		.4byte	0
 13322              	.LLST63:
 13323 1166 0C010000 		.4byte	.LVL295
 13324 116a 26010000 		.4byte	.LVL296
 13325 116e 0100     		.2byte	0x1
 13326 1170 50       		.byte	0x50
 13327 1171 26010000 		.4byte	.LVL296
 13328 1175 2E010000 		.4byte	.LVL299
 13329 1179 0100     		.2byte	0x1
 13330 117b 58       		.byte	0x58
 13331 117c 2E020000 		.4byte	.LVL344
 13332 1180 32020000 		.4byte	.LVL345
 13333 1184 0100     		.2byte	0x1
 13334 1186 50       		.byte	0x50
 13335 1187 00000000 		.4byte	0
 13336 118b 00000000 		.4byte	0
 13337              	.LLST64:
 13338 118f 36010000 		.4byte	.LVL302
ARM GAS  C:\Users\Phuong\AppData\Local\Temp\ccu7x7Ah.s 			page 263


 13339 1193 3D010000 		.4byte	.LVL303-1
 13340 1197 0100     		.2byte	0x1
 13341 1199 50       		.byte	0x50
 13342 119a 3D010000 		.4byte	.LVL303-1
 13343 119e 5E010000 		.4byte	.LVL308
 13344 11a2 0200     		.2byte	0x2
 13345 11a4 91       		.byte	0x91
 13346 11a5 60       		.sleb128 -32
 13347 11a6 5E010000 		.4byte	.LVL308
 13348 11aa 64010000 		.4byte	.LVL309
 13349 11ae 0100     		.2byte	0x1
 13350 11b0 50       		.byte	0x50
 13351 11b1 64010000 		.4byte	.LVL309
 13352 11b5 28020000 		.4byte	.LVL342
 13353 11b9 0200     		.2byte	0x2
 13354 11bb 91       		.byte	0x91
 13355 11bc 60       		.sleb128 -32
 13356 11bd 00000000 		.4byte	0
 13357 11c1 00000000 		.4byte	0
 13358              	.LLST65:
 13359 11c5 40010000 		.4byte	.LVL304
 13360 11c9 56010000 		.4byte	.LVL305
 13361 11cd 0100     		.2byte	0x1
 13362 11cf 50       		.byte	0x50
 13363 11d0 56010000 		.4byte	.LVL305
 13364 11d4 5E010000 		.4byte	.LVL308
 13365 11d8 0100     		.2byte	0x1
 13366 11da 58       		.byte	0x58
 13367 11db 1C020000 		.4byte	.LVL339
 13368 11df 20020000 		.4byte	.LVL340
 13369 11e3 0100     		.2byte	0x1
 13370 11e5 50       		.byte	0x50
 13371 11e6 00000000 		.4byte	0
 13372 11ea 00000000 		.4byte	0
 13373              	.LLST66:
 13374 11ee 72010000 		.4byte	.LVL312
 13375 11f2 88010000 		.4byte	.LVL313
 13376 11f6 0100     		.2byte	0x1
 13377 11f8 50       		.byte	0x50
 13378 11f9 88010000 		.4byte	.LVL313
 13379 11fd 92010000 		.4byte	.LVL316
 13380 1201 0100     		.2byte	0x1
 13381 1203 58       		.byte	0x58
 13382 1204 FC010000 		.4byte	.LVL330
 13383 1208 04020000 		.4byte	.LVL332
 13384 120c 0100     		.2byte	0x1
 13385 120e 50       		.byte	0x50
 13386 120f 00000000 		.4byte	0
 13387 1213 00000000 		.4byte	0
 13388              	.LLST67:
 13389 1217 AA010000 		.4byte	.LVL319
 13390 121b C0010000 		.4byte	.LVL320
 13391 121f 0100     		.2byte	0x1
 13392 1221 50       		.byte	0x50
 13393 1222 C0010000 		.4byte	.LVL320
 13394 1226 C8010000 		.4byte	.LVL323
 13395 122a 0100     		.2byte	0x1
ARM GAS  C:\Users\Phuong\AppData\Local\Temp\ccu7x7Ah.s 			page 264


 13396 122c 58       		.byte	0x58
 13397 122d 04020000 		.4byte	.LVL332
 13398 1231 0A020000 		.4byte	.LVL334
 13399 1235 0100     		.2byte	0x1
 13400 1237 50       		.byte	0x50
 13401 1238 00000000 		.4byte	0
 13402 123c 00000000 		.4byte	0
 13403              	.LLST68:
 13404 1240 DC010000 		.4byte	.LVL326
 13405 1244 F4010000 		.4byte	.LVL327
 13406 1248 0100     		.2byte	0x1
 13407 124a 50       		.byte	0x50
 13408 124b F4010000 		.4byte	.LVL327
 13409 124f FC010000 		.4byte	.LVL330
 13410 1253 0100     		.2byte	0x1
 13411 1255 58       		.byte	0x58
 13412 1256 10020000 		.4byte	.LVL336
 13413 125a 14020000 		.4byte	.LVL337
 13414 125e 0100     		.2byte	0x1
 13415 1260 50       		.byte	0x50
 13416 1261 00000000 		.4byte	0
 13417 1265 00000000 		.4byte	0
 13418              	.LLST69:
 13419 1269 00000000 		.4byte	.LVL358
 13420 126d 0E000000 		.4byte	.LVL359
 13421 1271 0100     		.2byte	0x1
 13422 1273 50       		.byte	0x50
 13423 1274 0E000000 		.4byte	.LVL359
 13424 1278 14000000 		.4byte	.LVL361
 13425 127c 0400     		.2byte	0x4
 13426 127e F3       		.byte	0xf3
 13427 127f 01       		.uleb128 0x1
 13428 1280 50       		.byte	0x50
 13429 1281 9F       		.byte	0x9f
 13430 1282 14000000 		.4byte	.LVL361
 13431 1286 1A000000 		.4byte	.LVL362
 13432 128a 0100     		.2byte	0x1
 13433 128c 50       		.byte	0x50
 13434 128d 1A000000 		.4byte	.LVL362
 13435 1291 28000000 		.4byte	.LFE10
 13436 1295 0400     		.2byte	0x4
 13437 1297 F3       		.byte	0xf3
 13438 1298 01       		.uleb128 0x1
 13439 1299 50       		.byte	0x50
 13440 129a 9F       		.byte	0x9f
 13441 129b 00000000 		.4byte	0
 13442 129f 00000000 		.4byte	0
 13443              	.LLST70:
 13444 12a3 00000000 		.4byte	.LVL364
 13445 12a7 0C000000 		.4byte	.LVL365
 13446 12ab 0100     		.2byte	0x1
 13447 12ad 50       		.byte	0x50
 13448 12ae 0C000000 		.4byte	.LVL365
 13449 12b2 12000000 		.4byte	.LVL367
 13450 12b6 0400     		.2byte	0x4
 13451 12b8 F3       		.byte	0xf3
 13452 12b9 01       		.uleb128 0x1
ARM GAS  C:\Users\Phuong\AppData\Local\Temp\ccu7x7Ah.s 			page 265


 13453 12ba 50       		.byte	0x50
 13454 12bb 9F       		.byte	0x9f
 13455 12bc 12000000 		.4byte	.LVL367
 13456 12c0 16000000 		.4byte	.LVL368
 13457 12c4 0100     		.2byte	0x1
 13458 12c6 50       		.byte	0x50
 13459 12c7 16000000 		.4byte	.LVL368
 13460 12cb 24000000 		.4byte	.LFE11
 13461 12cf 0400     		.2byte	0x4
 13462 12d1 F3       		.byte	0xf3
 13463 12d2 01       		.uleb128 0x1
 13464 12d3 50       		.byte	0x50
 13465 12d4 9F       		.byte	0x9f
 13466 12d5 00000000 		.4byte	0
 13467 12d9 00000000 		.4byte	0
 13468              	.LLST71:
 13469 12dd 00000000 		.4byte	.LVL370
 13470 12e1 0C000000 		.4byte	.LVL371
 13471 12e5 0100     		.2byte	0x1
 13472 12e7 50       		.byte	0x50
 13473 12e8 0C000000 		.4byte	.LVL371
 13474 12ec 12000000 		.4byte	.LVL373
 13475 12f0 0400     		.2byte	0x4
 13476 12f2 F3       		.byte	0xf3
 13477 12f3 01       		.uleb128 0x1
 13478 12f4 50       		.byte	0x50
 13479 12f5 9F       		.byte	0x9f
 13480 12f6 12000000 		.4byte	.LVL373
 13481 12fa 16000000 		.4byte	.LVL374
 13482 12fe 0100     		.2byte	0x1
 13483 1300 50       		.byte	0x50
 13484 1301 16000000 		.4byte	.LVL374
 13485 1305 24000000 		.4byte	.LFE12
 13486 1309 0400     		.2byte	0x4
 13487 130b F3       		.byte	0xf3
 13488 130c 01       		.uleb128 0x1
 13489 130d 50       		.byte	0x50
 13490 130e 9F       		.byte	0x9f
 13491 130f 00000000 		.4byte	0
 13492 1313 00000000 		.4byte	0
 13493              	.LLST72:
 13494 1317 00000000 		.4byte	.LVL376
 13495 131b 2B000000 		.4byte	.LVL378-1
 13496 131f 0100     		.2byte	0x1
 13497 1321 50       		.byte	0x50
 13498 1322 2B000000 		.4byte	.LVL378-1
 13499 1326 58000000 		.4byte	.LVL382
 13500 132a 0100     		.2byte	0x1
 13501 132c 54       		.byte	0x54
 13502 132d 58000000 		.4byte	.LVL382
 13503 1331 5A000000 		.4byte	.LVL383
 13504 1335 0400     		.2byte	0x4
 13505 1337 F3       		.byte	0xf3
 13506 1338 01       		.uleb128 0x1
 13507 1339 50       		.byte	0x50
 13508 133a 9F       		.byte	0x9f
 13509 133b 5A000000 		.4byte	.LVL383
ARM GAS  C:\Users\Phuong\AppData\Local\Temp\ccu7x7Ah.s 			page 266


 13510 133f 65000000 		.4byte	.LVL384-1
 13511 1343 0100     		.2byte	0x1
 13512 1345 50       		.byte	0x50
 13513 1346 65000000 		.4byte	.LVL384-1
 13514 134a 68000000 		.4byte	.LVL385
 13515 134e 0100     		.2byte	0x1
 13516 1350 54       		.byte	0x54
 13517 1351 68000000 		.4byte	.LVL385
 13518 1355 84000000 		.4byte	.LVL389
 13519 1359 0400     		.2byte	0x4
 13520 135b F3       		.byte	0xf3
 13521 135c 01       		.uleb128 0x1
 13522 135d 50       		.byte	0x50
 13523 135e 9F       		.byte	0x9f
 13524 135f 84000000 		.4byte	.LVL389
 13525 1363 87000000 		.4byte	.LVL390-1
 13526 1367 0100     		.2byte	0x1
 13527 1369 50       		.byte	0x50
 13528 136a 87000000 		.4byte	.LVL390-1
 13529 136e B8000000 		.4byte	.LVL396
 13530 1372 0100     		.2byte	0x1
 13531 1374 54       		.byte	0x54
 13532 1375 B8000000 		.4byte	.LVL396
 13533 1379 D4000000 		.4byte	.LVL400
 13534 137d 0400     		.2byte	0x4
 13535 137f F3       		.byte	0xf3
 13536 1380 01       		.uleb128 0x1
 13537 1381 50       		.byte	0x50
 13538 1382 9F       		.byte	0x9f
 13539 1383 D4000000 		.4byte	.LVL400
 13540 1387 E4000000 		.4byte	.LVL405
 13541 138b 0100     		.2byte	0x1
 13542 138d 54       		.byte	0x54
 13543 138e E4000000 		.4byte	.LVL405
 13544 1392 02010000 		.4byte	.LVL409
 13545 1396 0400     		.2byte	0x4
 13546 1398 F3       		.byte	0xf3
 13547 1399 01       		.uleb128 0x1
 13548 139a 50       		.byte	0x50
 13549 139b 9F       		.byte	0x9f
 13550 139c 02010000 		.4byte	.LVL409
 13551 13a0 14010000 		.4byte	.LVL414
 13552 13a4 0100     		.2byte	0x1
 13553 13a6 54       		.byte	0x54
 13554 13a7 14010000 		.4byte	.LVL414
 13555 13ab 30010000 		.4byte	.LVL418
 13556 13af 0400     		.2byte	0x4
 13557 13b1 F3       		.byte	0xf3
 13558 13b2 01       		.uleb128 0x1
 13559 13b3 50       		.byte	0x50
 13560 13b4 9F       		.byte	0x9f
 13561 13b5 30010000 		.4byte	.LVL418
 13562 13b9 50010000 		.4byte	.LVL423
 13563 13bd 0100     		.2byte	0x1
 13564 13bf 54       		.byte	0x54
 13565 13c0 50010000 		.4byte	.LVL423
 13566 13c4 6C010000 		.4byte	.LVL427
ARM GAS  C:\Users\Phuong\AppData\Local\Temp\ccu7x7Ah.s 			page 267


 13567 13c8 0400     		.2byte	0x4
 13568 13ca F3       		.byte	0xf3
 13569 13cb 01       		.uleb128 0x1
 13570 13cc 50       		.byte	0x50
 13571 13cd 9F       		.byte	0x9f
 13572 13ce 6C010000 		.4byte	.LVL427
 13573 13d2 7E010000 		.4byte	.LVL431
 13574 13d6 0100     		.2byte	0x1
 13575 13d8 54       		.byte	0x54
 13576 13d9 7E010000 		.4byte	.LVL431
 13577 13dd 9A010000 		.4byte	.LVL435
 13578 13e1 0400     		.2byte	0x4
 13579 13e3 F3       		.byte	0xf3
 13580 13e4 01       		.uleb128 0x1
 13581 13e5 50       		.byte	0x50
 13582 13e6 9F       		.byte	0x9f
 13583 13e7 9A010000 		.4byte	.LVL435
 13584 13eb B0010000 		.4byte	.LVL441
 13585 13ef 0100     		.2byte	0x1
 13586 13f1 54       		.byte	0x54
 13587 13f2 B0010000 		.4byte	.LVL441
 13588 13f6 CE010000 		.4byte	.LVL445
 13589 13fa 0400     		.2byte	0x4
 13590 13fc F3       		.byte	0xf3
 13591 13fd 01       		.uleb128 0x1
 13592 13fe 50       		.byte	0x50
 13593 13ff 9F       		.byte	0x9f
 13594 1400 CE010000 		.4byte	.LVL445
 13595 1404 E0010000 		.4byte	.LVL450
 13596 1408 0100     		.2byte	0x1
 13597 140a 54       		.byte	0x54
 13598 140b E0010000 		.4byte	.LVL450
 13599 140f FC010000 		.4byte	.LVL454
 13600 1413 0400     		.2byte	0x4
 13601 1415 F3       		.byte	0xf3
 13602 1416 01       		.uleb128 0x1
 13603 1417 50       		.byte	0x50
 13604 1418 9F       		.byte	0x9f
 13605 1419 FC010000 		.4byte	.LVL454
 13606 141d 1E020000 		.4byte	.LVL459
 13607 1421 0100     		.2byte	0x1
 13608 1423 54       		.byte	0x54
 13609 1424 1E020000 		.4byte	.LVL459
 13610 1428 38020000 		.4byte	.LVL463
 13611 142c 0400     		.2byte	0x4
 13612 142e F3       		.byte	0xf3
 13613 142f 01       		.uleb128 0x1
 13614 1430 50       		.byte	0x50
 13615 1431 9F       		.byte	0x9f
 13616 1432 38020000 		.4byte	.LVL463
 13617 1436 58020000 		.4byte	.LVL467
 13618 143a 0100     		.2byte	0x1
 13619 143c 54       		.byte	0x54
 13620 143d 58020000 		.4byte	.LVL467
 13621 1441 72020000 		.4byte	.LVL471
 13622 1445 0400     		.2byte	0x4
 13623 1447 F3       		.byte	0xf3
ARM GAS  C:\Users\Phuong\AppData\Local\Temp\ccu7x7Ah.s 			page 268


 13624 1448 01       		.uleb128 0x1
 13625 1449 50       		.byte	0x50
 13626 144a 9F       		.byte	0x9f
 13627 144b 72020000 		.4byte	.LVL471
 13628 144f 88020000 		.4byte	.LVL474
 13629 1453 0100     		.2byte	0x1
 13630 1455 54       		.byte	0x54
 13631 1456 88020000 		.4byte	.LVL474
 13632 145a A2020000 		.4byte	.LVL478
 13633 145e 0400     		.2byte	0x4
 13634 1460 F3       		.byte	0xf3
 13635 1461 01       		.uleb128 0x1
 13636 1462 50       		.byte	0x50
 13637 1463 9F       		.byte	0x9f
 13638 1464 A2020000 		.4byte	.LVL478
 13639 1468 B0020000 		.4byte	.LVL481
 13640 146c 0100     		.2byte	0x1
 13641 146e 54       		.byte	0x54
 13642 146f B0020000 		.4byte	.LVL481
 13643 1473 CA020000 		.4byte	.LVL485
 13644 1477 0400     		.2byte	0x4
 13645 1479 F3       		.byte	0xf3
 13646 147a 01       		.uleb128 0x1
 13647 147b 50       		.byte	0x50
 13648 147c 9F       		.byte	0x9f
 13649 147d CA020000 		.4byte	.LVL485
 13650 1481 DE020000 		.4byte	.LVL488
 13651 1485 0100     		.2byte	0x1
 13652 1487 54       		.byte	0x54
 13653 1488 DE020000 		.4byte	.LVL488
 13654 148c FA020000 		.4byte	.LVL492
 13655 1490 0400     		.2byte	0x4
 13656 1492 F3       		.byte	0xf3
 13657 1493 01       		.uleb128 0x1
 13658 1494 50       		.byte	0x50
 13659 1495 9F       		.byte	0x9f
 13660 1496 FA020000 		.4byte	.LVL492
 13661 149a 02030000 		.4byte	.LVL494
 13662 149e 0100     		.2byte	0x1
 13663 14a0 54       		.byte	0x54
 13664 14a1 02030000 		.4byte	.LVL494
 13665 14a5 08030000 		.4byte	.LVL496
 13666 14a9 0400     		.2byte	0x4
 13667 14ab F3       		.byte	0xf3
 13668 14ac 01       		.uleb128 0x1
 13669 14ad 50       		.byte	0x50
 13670 14ae 9F       		.byte	0x9f
 13671 14af 08030000 		.4byte	.LVL496
 13672 14b3 0A030000 		.4byte	.LVL497
 13673 14b7 0100     		.2byte	0x1
 13674 14b9 54       		.byte	0x54
 13675 14ba 0A030000 		.4byte	.LVL497
 13676 14be 66030000 		.4byte	.LVL523
 13677 14c2 0400     		.2byte	0x4
 13678 14c4 F3       		.byte	0xf3
 13679 14c5 01       		.uleb128 0x1
 13680 14c6 50       		.byte	0x50
ARM GAS  C:\Users\Phuong\AppData\Local\Temp\ccu7x7Ah.s 			page 269


 13681 14c7 9F       		.byte	0x9f
 13682 14c8 66030000 		.4byte	.LVL523
 13683 14cc 68030000 		.4byte	.LVL524
 13684 14d0 0100     		.2byte	0x1
 13685 14d2 54       		.byte	0x54
 13686 14d3 68030000 		.4byte	.LVL524
 13687 14d7 24040000 		.4byte	.LVL526
 13688 14db 0400     		.2byte	0x4
 13689 14dd F3       		.byte	0xf3
 13690 14de 01       		.uleb128 0x1
 13691 14df 50       		.byte	0x50
 13692 14e0 9F       		.byte	0x9f
 13693 14e1 24040000 		.4byte	.LVL526
 13694 14e5 26040000 		.4byte	.LVL527
 13695 14e9 0100     		.2byte	0x1
 13696 14eb 54       		.byte	0x54
 13697 14ec 26040000 		.4byte	.LVL527
 13698 14f0 34040000 		.4byte	.LFE14
 13699 14f4 0400     		.2byte	0x4
 13700 14f6 F3       		.byte	0xf3
 13701 14f7 01       		.uleb128 0x1
 13702 14f8 50       		.byte	0x50
 13703 14f9 9F       		.byte	0x9f
 13704 14fa 00000000 		.4byte	0
 13705 14fe 00000000 		.4byte	0
 13706              	.LLST73:
 13707 1502 00000000 		.4byte	.LVL376
 13708 1506 2B000000 		.4byte	.LVL378-1
 13709 150a 0100     		.2byte	0x1
 13710 150c 51       		.byte	0x51
 13711 150d 2B000000 		.4byte	.LVL378-1
 13712 1511 5A000000 		.4byte	.LVL383
 13713 1515 0100     		.2byte	0x1
 13714 1517 56       		.byte	0x56
 13715 1518 5A000000 		.4byte	.LVL383
 13716 151c 65000000 		.4byte	.LVL384-1
 13717 1520 0100     		.2byte	0x1
 13718 1522 51       		.byte	0x51
 13719 1523 65000000 		.4byte	.LVL384-1
 13720 1527 84000000 		.4byte	.LVL389
 13721 152b 0100     		.2byte	0x1
 13722 152d 56       		.byte	0x56
 13723 152e 84000000 		.4byte	.LVL389
 13724 1532 87000000 		.4byte	.LVL390-1
 13725 1536 0100     		.2byte	0x1
 13726 1538 51       		.byte	0x51
 13727 1539 87000000 		.4byte	.LVL390-1
 13728 153d 2A040000 		.4byte	.LVL529
 13729 1541 0100     		.2byte	0x1
 13730 1543 56       		.byte	0x56
 13731 1544 2A040000 		.4byte	.LVL529
 13732 1548 34040000 		.4byte	.LFE14
 13733 154c 0400     		.2byte	0x4
 13734 154e F3       		.byte	0xf3
 13735 154f 01       		.uleb128 0x1
 13736 1550 51       		.byte	0x51
 13737 1551 9F       		.byte	0x9f
ARM GAS  C:\Users\Phuong\AppData\Local\Temp\ccu7x7Ah.s 			page 270


 13738 1552 00000000 		.4byte	0
 13739 1556 00000000 		.4byte	0
 13740              	.LLST74:
 13741 155a 00000000 		.4byte	.LVL376
 13742 155e 2B000000 		.4byte	.LVL378-1
 13743 1562 0100     		.2byte	0x1
 13744 1564 52       		.byte	0x52
 13745 1565 2B000000 		.4byte	.LVL378-1
 13746 1569 5A000000 		.4byte	.LVL383
 13747 156d 0100     		.2byte	0x1
 13748 156f 57       		.byte	0x57
 13749 1570 5A000000 		.4byte	.LVL383
 13750 1574 65000000 		.4byte	.LVL384-1
 13751 1578 0100     		.2byte	0x1
 13752 157a 52       		.byte	0x52
 13753 157b 65000000 		.4byte	.LVL384-1
 13754 157f 84000000 		.4byte	.LVL389
 13755 1583 0100     		.2byte	0x1
 13756 1585 57       		.byte	0x57
 13757 1586 84000000 		.4byte	.LVL389
 13758 158a 87000000 		.4byte	.LVL390-1
 13759 158e 0100     		.2byte	0x1
 13760 1590 52       		.byte	0x52
 13761 1591 87000000 		.4byte	.LVL390-1
 13762 1595 DC000000 		.4byte	.LVL403
 13763 1599 0100     		.2byte	0x1
 13764 159b 57       		.byte	0x57
 13765 159c DC000000 		.4byte	.LVL403
 13766 15a0 5C030000 		.4byte	.LVL520
 13767 15a4 0400     		.2byte	0x4
 13768 15a6 F3       		.byte	0xf3
 13769 15a7 01       		.uleb128 0x1
 13770 15a8 52       		.byte	0x52
 13771 15a9 9F       		.byte	0x9f
 13772 15aa 5C030000 		.4byte	.LVL520
 13773 15ae 5E030000 		.4byte	.LVL521
 13774 15b2 0100     		.2byte	0x1
 13775 15b4 57       		.byte	0x57
 13776 15b5 5E030000 		.4byte	.LVL521
 13777 15b9 66030000 		.4byte	.LVL523
 13778 15bd 0400     		.2byte	0x4
 13779 15bf F3       		.byte	0xf3
 13780 15c0 01       		.uleb128 0x1
 13781 15c1 52       		.byte	0x52
 13782 15c2 9F       		.byte	0x9f
 13783 15c3 66030000 		.4byte	.LVL523
 13784 15c7 26040000 		.4byte	.LVL527
 13785 15cb 0100     		.2byte	0x1
 13786 15cd 57       		.byte	0x57
 13787 15ce 26040000 		.4byte	.LVL527
 13788 15d2 34040000 		.4byte	.LFE14
 13789 15d6 0400     		.2byte	0x4
 13790 15d8 F3       		.byte	0xf3
 13791 15d9 01       		.uleb128 0x1
 13792 15da 52       		.byte	0x52
 13793 15db 9F       		.byte	0x9f
 13794 15dc 00000000 		.4byte	0
ARM GAS  C:\Users\Phuong\AppData\Local\Temp\ccu7x7Ah.s 			page 271


 13795 15e0 00000000 		.4byte	0
 13796              	.LLST75:
 13797 15e4 00000000 		.4byte	.LVL376
 13798 15e8 1E000000 		.4byte	.LVL377
 13799 15ec 0100     		.2byte	0x1
 13800 15ee 53       		.byte	0x53
 13801 15ef 1E000000 		.4byte	.LVL377
 13802 15f3 AE000000 		.4byte	.LVL394
 13803 15f7 0200     		.2byte	0x2
 13804 15f9 91       		.byte	0x91
 13805 15fa 58       		.sleb128 -40
 13806 15fb AE000000 		.4byte	.LVL394
 13807 15ff 66030000 		.4byte	.LVL523
 13808 1603 0400     		.2byte	0x4
 13809 1605 F3       		.byte	0xf3
 13810 1606 01       		.uleb128 0x1
 13811 1607 53       		.byte	0x53
 13812 1608 9F       		.byte	0x9f
 13813 1609 66030000 		.4byte	.LVL523
 13814 160d 26040000 		.4byte	.LVL527
 13815 1611 0200     		.2byte	0x2
 13816 1613 91       		.byte	0x91
 13817 1614 58       		.sleb128 -40
 13818 1615 26040000 		.4byte	.LVL527
 13819 1619 34040000 		.4byte	.LFE14
 13820 161d 0400     		.2byte	0x4
 13821 161f F3       		.byte	0xf3
 13822 1620 01       		.uleb128 0x1
 13823 1621 53       		.byte	0x53
 13824 1622 9F       		.byte	0x9f
 13825 1623 00000000 		.4byte	0
 13826 1627 00000000 		.4byte	0
 13827              	.LLST76:
 13828 162b 00030000 		.4byte	.LVL493
 13829 162f 04030000 		.4byte	.LVL495
 13830 1633 0200     		.2byte	0x2
 13831 1635 30       		.byte	0x30
 13832 1636 9F       		.byte	0x9f
 13833 1637 1C030000 		.4byte	.LVL502
 13834 163b 24030000 		.4byte	.LVL504
 13835 163f 0100     		.2byte	0x1
 13836 1641 54       		.byte	0x54
 13837 1642 26030000 		.4byte	.LVL505
 13838 1646 2E030000 		.4byte	.LVL507
 13839 164a 0100     		.2byte	0x1
 13840 164c 54       		.byte	0x54
 13841 164d 32030000 		.4byte	.LVL508
 13842 1651 3A030000 		.4byte	.LVL510
 13843 1655 0100     		.2byte	0x1
 13844 1657 54       		.byte	0x54
 13845 1658 40030000 		.4byte	.LVL512
 13846 165c 48030000 		.4byte	.LVL514
 13847 1660 0100     		.2byte	0x1
 13848 1662 54       		.byte	0x54
 13849 1663 4A030000 		.4byte	.LVL515
 13850 1667 52030000 		.4byte	.LVL517
 13851 166b 0100     		.2byte	0x1
ARM GAS  C:\Users\Phuong\AppData\Local\Temp\ccu7x7Ah.s 			page 272


 13852 166d 54       		.byte	0x54
 13853 166e 54030000 		.4byte	.LVL518
 13854 1672 5C030000 		.4byte	.LVL520
 13855 1676 0100     		.2byte	0x1
 13856 1678 54       		.byte	0x54
 13857 1679 5E030000 		.4byte	.LVL521
 13858 167d 66030000 		.4byte	.LVL523
 13859 1681 0100     		.2byte	0x1
 13860 1683 54       		.byte	0x54
 13861 1684 26040000 		.4byte	.LVL527
 13862 1688 2A040000 		.4byte	.LVL528
 13863 168c 0100     		.2byte	0x1
 13864 168e 54       		.byte	0x54
 13865 168f 2A040000 		.4byte	.LVL528
 13866 1693 34040000 		.4byte	.LFE14
 13867 1697 0100     		.2byte	0x1
 13868 1699 50       		.byte	0x50
 13869 169a 00000000 		.4byte	0
 13870 169e 00000000 		.4byte	0
 13871              	.LLST77:
 13872 16a2 2E000000 		.4byte	.LVL379
 13873 16a6 54000000 		.4byte	.LVL380
 13874 16aa 0100     		.2byte	0x1
 13875 16ac 50       		.byte	0x50
 13876 16ad 54000000 		.4byte	.LVL380
 13877 16b1 5A000000 		.4byte	.LVL383
 13878 16b5 0100     		.2byte	0x1
 13879 16b7 55       		.byte	0x55
 13880 16b8 66030000 		.4byte	.LVL523
 13881 16bc 6A030000 		.4byte	.LVL525
 13882 16c0 0100     		.2byte	0x1
 13883 16c2 50       		.byte	0x50
 13884 16c3 00000000 		.4byte	0
 13885 16c7 00000000 		.4byte	0
 13886              	.LLST78:
 13887 16cb 68000000 		.4byte	.LVL385
 13888 16cf 7E000000 		.4byte	.LVL386
 13889 16d3 0100     		.2byte	0x1
 13890 16d5 50       		.byte	0x50
 13891 16d6 7E000000 		.4byte	.LVL386
 13892 16da 82000000 		.4byte	.LVL388
 13893 16de 0100     		.2byte	0x1
 13894 16e0 54       		.byte	0x54
 13895 16e1 6A030000 		.4byte	.LVL525
 13896 16e5 24040000 		.4byte	.LVL526
 13897 16e9 0100     		.2byte	0x1
 13898 16eb 50       		.byte	0x50
 13899 16ec 00000000 		.4byte	0
 13900 16f0 00000000 		.4byte	0
 13901              	.LLST79:
 13902 16f4 8A000000 		.4byte	.LVL391
 13903 16f8 A7000000 		.4byte	.LVL392-1
 13904 16fc 0100     		.2byte	0x1
 13905 16fe 50       		.byte	0x50
 13906 16ff A7000000 		.4byte	.LVL392-1
 13907 1703 66030000 		.4byte	.LVL523
 13908 1707 0100     		.2byte	0x1
ARM GAS  C:\Users\Phuong\AppData\Local\Temp\ccu7x7Ah.s 			page 273


 13909 1709 55       		.byte	0x55
 13910 170a 24040000 		.4byte	.LVL526
 13911 170e 26040000 		.4byte	.LVL527
 13912 1712 0100     		.2byte	0x1
 13913 1714 50       		.byte	0x50
 13914 1715 00000000 		.4byte	0
 13915 1719 00000000 		.4byte	0
 13916              	.LLST80:
 13917 171d AE000000 		.4byte	.LVL394
 13918 1721 B5000000 		.4byte	.LVL395-1
 13919 1725 0100     		.2byte	0x1
 13920 1727 50       		.byte	0x50
 13921 1728 B5000000 		.4byte	.LVL395-1
 13922 172c D4000000 		.4byte	.LVL400
 13923 1730 0200     		.2byte	0x2
 13924 1732 91       		.byte	0x91
 13925 1733 58       		.sleb128 -40
 13926 1734 D4000000 		.4byte	.LVL400
 13927 1738 D6000000 		.4byte	.LVL401
 13928 173c 0100     		.2byte	0x1
 13929 173e 50       		.byte	0x50
 13930 173f D6000000 		.4byte	.LVL401
 13931 1743 66030000 		.4byte	.LVL523
 13932 1747 0200     		.2byte	0x2
 13933 1749 91       		.byte	0x91
 13934 174a 58       		.sleb128 -40
 13935 174b 00000000 		.4byte	0
 13936 174f 00000000 		.4byte	0
 13937              	.LLST81:
 13938 1753 B8000000 		.4byte	.LVL396
 13939 1757 CE000000 		.4byte	.LVL397
 13940 175b 0100     		.2byte	0x1
 13941 175d 50       		.byte	0x50
 13942 175e CE000000 		.4byte	.LVL397
 13943 1762 D2000000 		.4byte	.LVL399
 13944 1766 0100     		.2byte	0x1
 13945 1768 54       		.byte	0x54
 13946 1769 5C030000 		.4byte	.LVL520
 13947 176d 5E030000 		.4byte	.LVL521
 13948 1771 0100     		.2byte	0x1
 13949 1773 50       		.byte	0x50
 13950 1774 00000000 		.4byte	0
 13951 1778 00000000 		.4byte	0
 13952              	.LLST82:
 13953 177c DC000000 		.4byte	.LVL403
 13954 1780 E1000000 		.4byte	.LVL404-1
 13955 1784 0100     		.2byte	0x1
 13956 1786 50       		.byte	0x50
 13957 1787 E1000000 		.4byte	.LVL404-1
 13958 178b 02010000 		.4byte	.LVL409
 13959 178f 0100     		.2byte	0x1
 13960 1791 57       		.byte	0x57
 13961 1792 02010000 		.4byte	.LVL409
 13962 1796 04010000 		.4byte	.LVL410
 13963 179a 0100     		.2byte	0x1
 13964 179c 50       		.byte	0x50
 13965 179d 04010000 		.4byte	.LVL410
ARM GAS  C:\Users\Phuong\AppData\Local\Temp\ccu7x7Ah.s 			page 274


 13966 17a1 5C030000 		.4byte	.LVL520
 13967 17a5 0100     		.2byte	0x1
 13968 17a7 57       		.byte	0x57
 13969 17a8 00000000 		.4byte	0
 13970 17ac 00000000 		.4byte	0
 13971              	.LLST83:
 13972 17b0 E4000000 		.4byte	.LVL405
 13973 17b4 FC000000 		.4byte	.LVL406
 13974 17b8 0100     		.2byte	0x1
 13975 17ba 50       		.byte	0x50
 13976 17bb FC000000 		.4byte	.LVL406
 13977 17bf 00010000 		.4byte	.LVL408
 13978 17c3 0100     		.2byte	0x1
 13979 17c5 54       		.byte	0x54
 13980 17c6 52030000 		.4byte	.LVL517
 13981 17ca 54030000 		.4byte	.LVL518
 13982 17ce 0100     		.2byte	0x1
 13983 17d0 50       		.byte	0x50
 13984 17d1 00000000 		.4byte	0
 13985 17d5 00000000 		.4byte	0
 13986              	.LLST84:
 13987 17d9 0A010000 		.4byte	.LVL412
 13988 17dd 11010000 		.4byte	.LVL413-1
 13989 17e1 0100     		.2byte	0x1
 13990 17e3 50       		.byte	0x50
 13991 17e4 11010000 		.4byte	.LVL413-1
 13992 17e8 30010000 		.4byte	.LVL418
 13993 17ec 0200     		.2byte	0x2
 13994 17ee 91       		.byte	0x91
 13995 17ef 5C       		.sleb128 -36
 13996 17f0 30010000 		.4byte	.LVL418
 13997 17f4 32010000 		.4byte	.LVL419
 13998 17f8 0100     		.2byte	0x1
 13999 17fa 50       		.byte	0x50
 14000 17fb 32010000 		.4byte	.LVL419
 14001 17ff 52030000 		.4byte	.LVL517
 14002 1803 0200     		.2byte	0x2
 14003 1805 91       		.byte	0x91
 14004 1806 5C       		.sleb128 -36
 14005 1807 00000000 		.4byte	0
 14006 180b 00000000 		.4byte	0
 14007              	.LLST85:
 14008 180f 14010000 		.4byte	.LVL414
 14009 1813 2A010000 		.4byte	.LVL415
 14010 1817 0100     		.2byte	0x1
 14011 1819 50       		.byte	0x50
 14012 181a 2A010000 		.4byte	.LVL415
 14013 181e 2E010000 		.4byte	.LVL417
 14014 1822 0100     		.2byte	0x1
 14015 1824 54       		.byte	0x54
 14016 1825 48030000 		.4byte	.LVL514
 14017 1829 4A030000 		.4byte	.LVL515
 14018 182d 0100     		.2byte	0x1
 14019 182f 50       		.byte	0x50
 14020 1830 00000000 		.4byte	0
 14021 1834 00000000 		.4byte	0
 14022              	.LLST86:
ARM GAS  C:\Users\Phuong\AppData\Local\Temp\ccu7x7Ah.s 			page 275


 14023 1838 50010000 		.4byte	.LVL423
 14024 183c 66010000 		.4byte	.LVL424
 14025 1840 0100     		.2byte	0x1
 14026 1842 50       		.byte	0x50
 14027 1843 66010000 		.4byte	.LVL424
 14028 1847 6A010000 		.4byte	.LVL426
 14029 184b 0100     		.2byte	0x1
 14030 184d 54       		.byte	0x54
 14031 184e 3A030000 		.4byte	.LVL510
 14032 1852 3E030000 		.4byte	.LVL511
 14033 1856 0100     		.2byte	0x1
 14034 1858 50       		.byte	0x50
 14035 1859 00000000 		.4byte	0
 14036 185d 00000000 		.4byte	0
 14037              	.LLST87:
 14038 1861 74010000 		.4byte	.LVL429
 14039 1865 7B010000 		.4byte	.LVL430-1
 14040 1869 0100     		.2byte	0x1
 14041 186b 50       		.byte	0x50
 14042 186c 7B010000 		.4byte	.LVL430-1
 14043 1870 9A010000 		.4byte	.LVL435
 14044 1874 0200     		.2byte	0x2
 14045 1876 91       		.byte	0x91
 14046 1877 60       		.sleb128 -32
 14047 1878 9A010000 		.4byte	.LVL435
 14048 187c 9C010000 		.4byte	.LVL436
 14049 1880 0100     		.2byte	0x1
 14050 1882 50       		.byte	0x50
 14051 1883 9C010000 		.4byte	.LVL436
 14052 1887 3A030000 		.4byte	.LVL510
 14053 188b 0200     		.2byte	0x2
 14054 188d 91       		.byte	0x91
 14055 188e 60       		.sleb128 -32
 14056 188f 3E030000 		.4byte	.LVL511
 14057 1893 40030000 		.4byte	.LVL512
 14058 1897 0200     		.2byte	0x2
 14059 1899 91       		.byte	0x91
 14060 189a 60       		.sleb128 -32
 14061 189b 00000000 		.4byte	0
 14062 189f 00000000 		.4byte	0
 14063              	.LLST88:
 14064 18a3 7E010000 		.4byte	.LVL431
 14065 18a7 94010000 		.4byte	.LVL432
 14066 18ab 0100     		.2byte	0x1
 14067 18ad 50       		.byte	0x50
 14068 18ae 94010000 		.4byte	.LVL432
 14069 18b2 98010000 		.4byte	.LVL434
 14070 18b6 0100     		.2byte	0x1
 14071 18b8 54       		.byte	0x54
 14072 18b9 3E030000 		.4byte	.LVL511
 14073 18bd 40030000 		.4byte	.LVL512
 14074 18c1 0100     		.2byte	0x1
 14075 18c3 50       		.byte	0x50
 14076 18c4 00000000 		.4byte	0
 14077 18c8 00000000 		.4byte	0
 14078              	.LLST89:
 14079 18cc A6010000 		.4byte	.LVL439
ARM GAS  C:\Users\Phuong\AppData\Local\Temp\ccu7x7Ah.s 			page 276


 14080 18d0 AD010000 		.4byte	.LVL440-1
 14081 18d4 0100     		.2byte	0x1
 14082 18d6 50       		.byte	0x50
 14083 18d7 AD010000 		.4byte	.LVL440-1
 14084 18db CE010000 		.4byte	.LVL445
 14085 18df 0100     		.2byte	0x1
 14086 18e1 5A       		.byte	0x5a
 14087 18e2 CE010000 		.4byte	.LVL445
 14088 18e6 D0010000 		.4byte	.LVL446
 14089 18ea 0100     		.2byte	0x1
 14090 18ec 50       		.byte	0x50
 14091 18ed D0010000 		.4byte	.LVL446
 14092 18f1 3A030000 		.4byte	.LVL510
 14093 18f5 0100     		.2byte	0x1
 14094 18f7 5A       		.byte	0x5a
 14095 18f8 00000000 		.4byte	0
 14096 18fc 00000000 		.4byte	0
 14097              	.LLST90:
 14098 1900 B0010000 		.4byte	.LVL441
 14099 1904 C6010000 		.4byte	.LVL442
 14100 1908 0100     		.2byte	0x1
 14101 190a 50       		.byte	0x50
 14102 190b C6010000 		.4byte	.LVL442
 14103 190f CA010000 		.4byte	.LVL444
 14104 1913 0100     		.2byte	0x1
 14105 1915 54       		.byte	0x54
 14106 1916 2E030000 		.4byte	.LVL507
 14107 191a 32030000 		.4byte	.LVL508
 14108 191e 0100     		.2byte	0x1
 14109 1920 50       		.byte	0x50
 14110 1921 00000000 		.4byte	0
 14111 1925 00000000 		.4byte	0
 14112              	.LLST91:
 14113 1929 D6010000 		.4byte	.LVL448
 14114 192d DD010000 		.4byte	.LVL449-1
 14115 1931 0100     		.2byte	0x1
 14116 1933 50       		.byte	0x50
 14117 1934 DD010000 		.4byte	.LVL449-1
 14118 1938 FC010000 		.4byte	.LVL454
 14119 193c 0200     		.2byte	0x2
 14120 193e 91       		.byte	0x91
 14121 193f 64       		.sleb128 -28
 14122 1940 FC010000 		.4byte	.LVL454
 14123 1944 FE010000 		.4byte	.LVL455
 14124 1948 0100     		.2byte	0x1
 14125 194a 50       		.byte	0x50
 14126 194b FE010000 		.4byte	.LVL455
 14127 194f 2E030000 		.4byte	.LVL507
 14128 1953 0200     		.2byte	0x2
 14129 1955 91       		.byte	0x91
 14130 1956 64       		.sleb128 -28
 14131 1957 00000000 		.4byte	0
 14132 195b 00000000 		.4byte	0
 14133              	.LLST92:
 14134 195f E0010000 		.4byte	.LVL450
 14135 1963 F6010000 		.4byte	.LVL451
 14136 1967 0100     		.2byte	0x1
ARM GAS  C:\Users\Phuong\AppData\Local\Temp\ccu7x7Ah.s 			page 277


 14137 1969 50       		.byte	0x50
 14138 196a F6010000 		.4byte	.LVL451
 14139 196e FA010000 		.4byte	.LVL453
 14140 1972 0100     		.2byte	0x1
 14141 1974 54       		.byte	0x54
 14142 1975 24030000 		.4byte	.LVL504
 14143 1979 26030000 		.4byte	.LVL505
 14144 197d 0100     		.2byte	0x1
 14145 197f 50       		.byte	0x50
 14146 1980 00000000 		.4byte	0
 14147 1984 00000000 		.4byte	0
 14148              	.LLST93:
 14149 1988 1E020000 		.4byte	.LVL459
 14150 198c 32020000 		.4byte	.LVL460
 14151 1990 0100     		.2byte	0x1
 14152 1992 50       		.byte	0x50
 14153 1993 32020000 		.4byte	.LVL460
 14154 1997 36020000 		.4byte	.LVL462
 14155 199b 0100     		.2byte	0x1
 14156 199d 54       		.byte	0x54
 14157 199e 04030000 		.4byte	.LVL495
 14158 19a2 08030000 		.4byte	.LVL496
 14159 19a6 0100     		.2byte	0x1
 14160 19a8 50       		.byte	0x50
 14161 19a9 00000000 		.4byte	0
 14162 19ad 00000000 		.4byte	0
 14163              	.LLST94:
 14164 19b1 58020000 		.4byte	.LVL467
 14165 19b5 6C020000 		.4byte	.LVL468
 14166 19b9 0100     		.2byte	0x1
 14167 19bb 50       		.byte	0x50
 14168 19bc 6C020000 		.4byte	.LVL468
 14169 19c0 70020000 		.4byte	.LVL470
 14170 19c4 0100     		.2byte	0x1
 14171 19c6 54       		.byte	0x54
 14172 19c7 0E030000 		.4byte	.LVL498
 14173 19cb 12030000 		.4byte	.LVL499
 14174 19cf 0100     		.2byte	0x1
 14175 19d1 50       		.byte	0x50
 14176 19d2 00000000 		.4byte	0
 14177 19d6 00000000 		.4byte	0
 14178              	.LLST95:
 14179 19da 88020000 		.4byte	.LVL474
 14180 19de 9C020000 		.4byte	.LVL475
 14181 19e2 0100     		.2byte	0x1
 14182 19e4 50       		.byte	0x50
 14183 19e5 9C020000 		.4byte	.LVL475
 14184 19e9 A0020000 		.4byte	.LVL477
 14185 19ed 0100     		.2byte	0x1
 14186 19ef 54       		.byte	0x54
 14187 19f0 12030000 		.4byte	.LVL499
 14188 19f4 16030000 		.4byte	.LVL500
 14189 19f8 0100     		.2byte	0x1
 14190 19fa 50       		.byte	0x50
 14191 19fb 00000000 		.4byte	0
 14192 19ff 00000000 		.4byte	0
 14193              	.LLST96:
ARM GAS  C:\Users\Phuong\AppData\Local\Temp\ccu7x7Ah.s 			page 278


 14194 1a03 B0020000 		.4byte	.LVL481
 14195 1a07 C4020000 		.4byte	.LVL482
 14196 1a0b 0100     		.2byte	0x1
 14197 1a0d 50       		.byte	0x50
 14198 1a0e C4020000 		.4byte	.LVL482
 14199 1a12 C8020000 		.4byte	.LVL484
 14200 1a16 0100     		.2byte	0x1
 14201 1a18 54       		.byte	0x54
 14202 1a19 16030000 		.4byte	.LVL500
 14203 1a1d 1A030000 		.4byte	.LVL501
 14204 1a21 0100     		.2byte	0x1
 14205 1a23 50       		.byte	0x50
 14206 1a24 00000000 		.4byte	0
 14207 1a28 00000000 		.4byte	0
 14208              	.LLST97:
 14209 1a2c DE020000 		.4byte	.LVL488
 14210 1a30 F4020000 		.4byte	.LVL489
 14211 1a34 0100     		.2byte	0x1
 14212 1a36 50       		.byte	0x50
 14213 1a37 F4020000 		.4byte	.LVL489
 14214 1a3b F8020000 		.4byte	.LVL491
 14215 1a3f 0100     		.2byte	0x1
 14216 1a41 54       		.byte	0x54
 14217 1a42 1A030000 		.4byte	.LVL501
 14218 1a46 1C030000 		.4byte	.LVL502
 14219 1a4a 0100     		.2byte	0x1
 14220 1a4c 50       		.byte	0x50
 14221 1a4d 00000000 		.4byte	0
 14222 1a51 00000000 		.4byte	0
 14223              	.LLST98:
 14224 1a55 00000000 		.4byte	.LVL530
 14225 1a59 0B000000 		.4byte	.LVL531-1
 14226 1a5d 0100     		.2byte	0x1
 14227 1a5f 50       		.byte	0x50
 14228 1a60 0B000000 		.4byte	.LVL531-1
 14229 1a64 0E000000 		.4byte	.LVL532
 14230 1a68 0100     		.2byte	0x1
 14231 1a6a 54       		.byte	0x54
 14232 1a6b 0E000000 		.4byte	.LVL532
 14233 1a6f 28000000 		.4byte	.LVL535
 14234 1a73 0400     		.2byte	0x4
 14235 1a75 F3       		.byte	0xf3
 14236 1a76 01       		.uleb128 0x1
 14237 1a77 50       		.byte	0x50
 14238 1a78 9F       		.byte	0x9f
 14239 1a79 28000000 		.4byte	.LVL535
 14240 1a7d 33000000 		.4byte	.LVL536-1
 14241 1a81 0100     		.2byte	0x1
 14242 1a83 50       		.byte	0x50
 14243 1a84 33000000 		.4byte	.LVL536-1
 14244 1a88 36000000 		.4byte	.LVL537
 14245 1a8c 0100     		.2byte	0x1
 14246 1a8e 54       		.byte	0x54
 14247 1a8f 36000000 		.4byte	.LVL537
 14248 1a93 50000000 		.4byte	.LVL540
 14249 1a97 0400     		.2byte	0x4
 14250 1a99 F3       		.byte	0xf3
ARM GAS  C:\Users\Phuong\AppData\Local\Temp\ccu7x7Ah.s 			page 279


 14251 1a9a 01       		.uleb128 0x1
 14252 1a9b 50       		.byte	0x50
 14253 1a9c 9F       		.byte	0x9f
 14254 1a9d 50000000 		.4byte	.LVL540
 14255 1aa1 52000000 		.4byte	.LVL541
 14256 1aa5 0100     		.2byte	0x1
 14257 1aa7 50       		.byte	0x50
 14258 1aa8 52000000 		.4byte	.LVL541
 14259 1aac 76000000 		.4byte	.LVL546
 14260 1ab0 0100     		.2byte	0x1
 14261 1ab2 54       		.byte	0x54
 14262 1ab3 76000000 		.4byte	.LVL546
 14263 1ab7 8C000000 		.4byte	.LFE15
 14264 1abb 0400     		.2byte	0x4
 14265 1abd F3       		.byte	0xf3
 14266 1abe 01       		.uleb128 0x1
 14267 1abf 50       		.byte	0x50
 14268 1ac0 9F       		.byte	0x9f
 14269 1ac1 00000000 		.4byte	0
 14270 1ac5 00000000 		.4byte	0
 14271              	.LLST99:
 14272 1ac9 0E000000 		.4byte	.LVL532
 14273 1acd 24000000 		.4byte	.LVL533
 14274 1ad1 0100     		.2byte	0x1
 14275 1ad3 50       		.byte	0x50
 14276 1ad4 24000000 		.4byte	.LVL533
 14277 1ad8 28000000 		.4byte	.LVL535
 14278 1adc 0100     		.2byte	0x1
 14279 1ade 54       		.byte	0x54
 14280 1adf 00000000 		.4byte	0
 14281 1ae3 00000000 		.4byte	0
 14282              	.LLST100:
 14283 1ae7 36000000 		.4byte	.LVL537
 14284 1aeb 4C000000 		.4byte	.LVL538
 14285 1aef 0100     		.2byte	0x1
 14286 1af1 50       		.byte	0x50
 14287 1af2 4C000000 		.4byte	.LVL538
 14288 1af6 50000000 		.4byte	.LVL540
 14289 1afa 0100     		.2byte	0x1
 14290 1afc 54       		.byte	0x54
 14291 1afd 00000000 		.4byte	0
 14292 1b01 00000000 		.4byte	0
 14293              	.LLST101:
 14294 1b05 00000000 		.4byte	.LVL547
 14295 1b09 0B000000 		.4byte	.LVL548-1
 14296 1b0d 0100     		.2byte	0x1
 14297 1b0f 50       		.byte	0x50
 14298 1b10 0B000000 		.4byte	.LVL548-1
 14299 1b14 26000000 		.4byte	.LVL552
 14300 1b18 0100     		.2byte	0x1
 14301 1b1a 55       		.byte	0x55
 14302 1b1b 26000000 		.4byte	.LVL552
 14303 1b1f 31000000 		.4byte	.LVL553-1
 14304 1b23 0100     		.2byte	0x1
 14305 1b25 50       		.byte	0x50
 14306 1b26 31000000 		.4byte	.LVL553-1
 14307 1b2a 6C000000 		.4byte	.LVL562
ARM GAS  C:\Users\Phuong\AppData\Local\Temp\ccu7x7Ah.s 			page 280


 14308 1b2e 0100     		.2byte	0x1
 14309 1b30 55       		.byte	0x55
 14310 1b31 6C000000 		.4byte	.LVL562
 14311 1b35 7C000000 		.4byte	.LFE3
 14312 1b39 0400     		.2byte	0x4
 14313 1b3b F3       		.byte	0xf3
 14314 1b3c 01       		.uleb128 0x1
 14315 1b3d 50       		.byte	0x50
 14316 1b3e 9F       		.byte	0x9f
 14317 1b3f 00000000 		.4byte	0
 14318 1b43 00000000 		.4byte	0
 14319              	.LLST102:
 14320 1b47 0E000000 		.4byte	.LVL549
 14321 1b4b 22000000 		.4byte	.LVL550
 14322 1b4f 0100     		.2byte	0x1
 14323 1b51 50       		.byte	0x50
 14324 1b52 22000000 		.4byte	.LVL550
 14325 1b56 26000000 		.4byte	.LVL552
 14326 1b5a 0100     		.2byte	0x1
 14327 1b5c 54       		.byte	0x54
 14328 1b5d 00000000 		.4byte	0
 14329 1b61 00000000 		.4byte	0
 14330              	.LLST103:
 14331 1b65 36000000 		.4byte	.LVL554
 14332 1b69 6A000000 		.4byte	.LVL561
 14333 1b6d 0100     		.2byte	0x1
 14334 1b6f 54       		.byte	0x54
 14335 1b70 00000000 		.4byte	0
 14336 1b74 00000000 		.4byte	0
 14337              	.LLST104:
 14338 1b78 00000000 		.4byte	.LVL563
 14339 1b7c 13000000 		.4byte	.LVL564-1
 14340 1b80 0100     		.2byte	0x1
 14341 1b82 50       		.byte	0x50
 14342 1b83 13000000 		.4byte	.LVL564-1
 14343 1b87 30000000 		.4byte	.LVL568
 14344 1b8b 0100     		.2byte	0x1
 14345 1b8d 57       		.byte	0x57
 14346 1b8e 30000000 		.4byte	.LVL568
 14347 1b92 32000000 		.4byte	.LVL569
 14348 1b96 0400     		.2byte	0x4
 14349 1b98 F3       		.byte	0xf3
 14350 1b99 01       		.uleb128 0x1
 14351 1b9a 50       		.byte	0x50
 14352 1b9b 9F       		.byte	0x9f
 14353 1b9c 32000000 		.4byte	.LVL569
 14354 1ba0 3F000000 		.4byte	.LVL571-1
 14355 1ba4 0100     		.2byte	0x1
 14356 1ba6 50       		.byte	0x50
 14357 1ba7 3F000000 		.4byte	.LVL571-1
 14358 1bab 5E000000 		.4byte	.LVL575
 14359 1baf 0100     		.2byte	0x1
 14360 1bb1 57       		.byte	0x57
 14361 1bb2 5E000000 		.4byte	.LVL575
 14362 1bb6 60000000 		.4byte	.LVL576
 14363 1bba 0400     		.2byte	0x4
 14364 1bbc F3       		.byte	0xf3
ARM GAS  C:\Users\Phuong\AppData\Local\Temp\ccu7x7Ah.s 			page 281


 14365 1bbd 01       		.uleb128 0x1
 14366 1bbe 50       		.byte	0x50
 14367 1bbf 9F       		.byte	0x9f
 14368 1bc0 60000000 		.4byte	.LVL576
 14369 1bc4 63000000 		.4byte	.LVL577-1
 14370 1bc8 0100     		.2byte	0x1
 14371 1bca 50       		.byte	0x50
 14372 1bcb 63000000 		.4byte	.LVL577-1
 14373 1bcf 88000000 		.4byte	.LVL583
 14374 1bd3 0100     		.2byte	0x1
 14375 1bd5 57       		.byte	0x57
 14376 1bd6 88000000 		.4byte	.LVL583
 14377 1bda 8A000000 		.4byte	.LVL584
 14378 1bde 0400     		.2byte	0x4
 14379 1be0 F3       		.byte	0xf3
 14380 1be1 01       		.uleb128 0x1
 14381 1be2 50       		.byte	0x50
 14382 1be3 9F       		.byte	0x9f
 14383 1be4 8A000000 		.4byte	.LVL584
 14384 1be8 B4000000 		.4byte	.LVL591
 14385 1bec 0100     		.2byte	0x1
 14386 1bee 57       		.byte	0x57
 14387 1bef B4000000 		.4byte	.LVL591
 14388 1bf3 B6000000 		.4byte	.LVL592
 14389 1bf7 0400     		.2byte	0x4
 14390 1bf9 F3       		.byte	0xf3
 14391 1bfa 01       		.uleb128 0x1
 14392 1bfb 50       		.byte	0x50
 14393 1bfc 9F       		.byte	0x9f
 14394 1bfd B6000000 		.4byte	.LVL592
 14395 1c01 E2000000 		.4byte	.LVL600
 14396 1c05 0100     		.2byte	0x1
 14397 1c07 57       		.byte	0x57
 14398 1c08 E2000000 		.4byte	.LVL600
 14399 1c0c E4000000 		.4byte	.LVL601
 14400 1c10 0400     		.2byte	0x4
 14401 1c12 F3       		.byte	0xf3
 14402 1c13 01       		.uleb128 0x1
 14403 1c14 50       		.byte	0x50
 14404 1c15 9F       		.byte	0x9f
 14405 1c16 E4000000 		.4byte	.LVL601
 14406 1c1a F6000000 		.4byte	.LVL605
 14407 1c1e 0100     		.2byte	0x1
 14408 1c20 57       		.byte	0x57
 14409 1c21 F6000000 		.4byte	.LVL605
 14410 1c25 14010000 		.4byte	.LVL609
 14411 1c29 0400     		.2byte	0x4
 14412 1c2b F3       		.byte	0xf3
 14413 1c2c 01       		.uleb128 0x1
 14414 1c2d 50       		.byte	0x50
 14415 1c2e 9F       		.byte	0x9f
 14416 1c2f 14010000 		.4byte	.LVL609
 14417 1c33 26010000 		.4byte	.LVL612
 14418 1c37 0100     		.2byte	0x1
 14419 1c39 57       		.byte	0x57
 14420 1c3a 26010000 		.4byte	.LVL612
 14421 1c3e 42010000 		.4byte	.LVL616
ARM GAS  C:\Users\Phuong\AppData\Local\Temp\ccu7x7Ah.s 			page 282


 14422 1c42 0400     		.2byte	0x4
 14423 1c44 F3       		.byte	0xf3
 14424 1c45 01       		.uleb128 0x1
 14425 1c46 50       		.byte	0x50
 14426 1c47 9F       		.byte	0x9f
 14427 1c48 42010000 		.4byte	.LVL616
 14428 1c4c 52010000 		.4byte	.LVL620
 14429 1c50 0100     		.2byte	0x1
 14430 1c52 57       		.byte	0x57
 14431 1c53 52010000 		.4byte	.LVL620
 14432 1c57 70010000 		.4byte	.LVL624
 14433 1c5b 0400     		.2byte	0x4
 14434 1c5d F3       		.byte	0xf3
 14435 1c5e 01       		.uleb128 0x1
 14436 1c5f 50       		.byte	0x50
 14437 1c60 9F       		.byte	0x9f
 14438 1c61 70010000 		.4byte	.LVL624
 14439 1c65 82010000 		.4byte	.LVL629
 14440 1c69 0100     		.2byte	0x1
 14441 1c6b 57       		.byte	0x57
 14442 1c6c 82010000 		.4byte	.LVL629
 14443 1c70 9E010000 		.4byte	.LVL633
 14444 1c74 0400     		.2byte	0x4
 14445 1c76 F3       		.byte	0xf3
 14446 1c77 01       		.uleb128 0x1
 14447 1c78 50       		.byte	0x50
 14448 1c79 9F       		.byte	0x9f
 14449 1c7a 9E010000 		.4byte	.LVL633
 14450 1c7e B0010000 		.4byte	.LVL638
 14451 1c82 0100     		.2byte	0x1
 14452 1c84 57       		.byte	0x57
 14453 1c85 B0010000 		.4byte	.LVL638
 14454 1c89 CE010000 		.4byte	.LVL642
 14455 1c8d 0400     		.2byte	0x4
 14456 1c8f F3       		.byte	0xf3
 14457 1c90 01       		.uleb128 0x1
 14458 1c91 50       		.byte	0x50
 14459 1c92 9F       		.byte	0x9f
 14460 1c93 CE010000 		.4byte	.LVL642
 14461 1c97 E2010000 		.4byte	.LVL646
 14462 1c9b 0100     		.2byte	0x1
 14463 1c9d 57       		.byte	0x57
 14464 1c9e E2010000 		.4byte	.LVL646
 14465 1ca2 FC010000 		.4byte	.LVL650
 14466 1ca6 0400     		.2byte	0x4
 14467 1ca8 F3       		.byte	0xf3
 14468 1ca9 01       		.uleb128 0x1
 14469 1caa 50       		.byte	0x50
 14470 1cab 9F       		.byte	0x9f
 14471 1cac FC010000 		.4byte	.LVL650
 14472 1cb0 0E020000 		.4byte	.LVL653
 14473 1cb4 0100     		.2byte	0x1
 14474 1cb6 57       		.byte	0x57
 14475 1cb7 0E020000 		.4byte	.LVL653
 14476 1cbb 28020000 		.4byte	.LVL657
 14477 1cbf 0400     		.2byte	0x4
 14478 1cc1 F3       		.byte	0xf3
ARM GAS  C:\Users\Phuong\AppData\Local\Temp\ccu7x7Ah.s 			page 283


 14479 1cc2 01       		.uleb128 0x1
 14480 1cc3 50       		.byte	0x50
 14481 1cc4 9F       		.byte	0x9f
 14482 1cc5 28020000 		.4byte	.LVL657
 14483 1cc9 42020000 		.4byte	.LVL660
 14484 1ccd 0100     		.2byte	0x1
 14485 1ccf 57       		.byte	0x57
 14486 1cd0 42020000 		.4byte	.LVL660
 14487 1cd4 5C020000 		.4byte	.LVL664
 14488 1cd8 0400     		.2byte	0x4
 14489 1cda F3       		.byte	0xf3
 14490 1cdb 01       		.uleb128 0x1
 14491 1cdc 50       		.byte	0x50
 14492 1cdd 9F       		.byte	0x9f
 14493 1cde 5C020000 		.4byte	.LVL664
 14494 1ce2 76020000 		.4byte	.LVL667
 14495 1ce6 0100     		.2byte	0x1
 14496 1ce8 57       		.byte	0x57
 14497 1ce9 76020000 		.4byte	.LVL667
 14498 1ced 90020000 		.4byte	.LVL671
 14499 1cf1 0400     		.2byte	0x4
 14500 1cf3 F3       		.byte	0xf3
 14501 1cf4 01       		.uleb128 0x1
 14502 1cf5 50       		.byte	0x50
 14503 1cf6 9F       		.byte	0x9f
 14504 1cf7 90020000 		.4byte	.LVL671
 14505 1cfb A0020000 		.4byte	.LVL674
 14506 1cff 0100     		.2byte	0x1
 14507 1d01 57       		.byte	0x57
 14508 1d02 A0020000 		.4byte	.LVL674
 14509 1d06 E0020000 		.4byte	.LVL693
 14510 1d0a 0400     		.2byte	0x4
 14511 1d0c F3       		.byte	0xf3
 14512 1d0d 01       		.uleb128 0x1
 14513 1d0e 50       		.byte	0x50
 14514 1d0f 9F       		.byte	0x9f
 14515 1d10 E0020000 		.4byte	.LVL693
 14516 1d14 E2020000 		.4byte	.LVL694
 14517 1d18 0100     		.2byte	0x1
 14518 1d1a 57       		.byte	0x57
 14519 1d1b E2020000 		.4byte	.LVL694
 14520 1d1f EA020000 		.4byte	.LVL696
 14521 1d23 0400     		.2byte	0x4
 14522 1d25 F3       		.byte	0xf3
 14523 1d26 01       		.uleb128 0x1
 14524 1d27 50       		.byte	0x50
 14525 1d28 9F       		.byte	0x9f
 14526 1d29 EA020000 		.4byte	.LVL696
 14527 1d2d EC020000 		.4byte	.LVL697
 14528 1d31 0100     		.2byte	0x1
 14529 1d33 57       		.byte	0x57
 14530 1d34 EC020000 		.4byte	.LVL697
 14531 1d38 F4020000 		.4byte	.LVL699
 14532 1d3c 0400     		.2byte	0x4
 14533 1d3e F3       		.byte	0xf3
 14534 1d3f 01       		.uleb128 0x1
 14535 1d40 50       		.byte	0x50
ARM GAS  C:\Users\Phuong\AppData\Local\Temp\ccu7x7Ah.s 			page 284


 14536 1d41 9F       		.byte	0x9f
 14537 1d42 F4020000 		.4byte	.LVL699
 14538 1d46 F6020000 		.4byte	.LVL700
 14539 1d4a 0100     		.2byte	0x1
 14540 1d4c 57       		.byte	0x57
 14541 1d4d F6020000 		.4byte	.LVL700
 14542 1d51 F8020000 		.4byte	.LVL701
 14543 1d55 0400     		.2byte	0x4
 14544 1d57 F3       		.byte	0xf3
 14545 1d58 01       		.uleb128 0x1
 14546 1d59 50       		.byte	0x50
 14547 1d5a 9F       		.byte	0x9f
 14548 1d5b F8020000 		.4byte	.LVL701
 14549 1d5f FA020000 		.4byte	.LVL702
 14550 1d63 0100     		.2byte	0x1
 14551 1d65 57       		.byte	0x57
 14552 1d66 FA020000 		.4byte	.LVL702
 14553 1d6a FC020000 		.4byte	.LVL703
 14554 1d6e 0400     		.2byte	0x4
 14555 1d70 F3       		.byte	0xf3
 14556 1d71 01       		.uleb128 0x1
 14557 1d72 50       		.byte	0x50
 14558 1d73 9F       		.byte	0x9f
 14559 1d74 FC020000 		.4byte	.LVL703
 14560 1d78 FE020000 		.4byte	.LVL704
 14561 1d7c 0100     		.2byte	0x1
 14562 1d7e 57       		.byte	0x57
 14563 1d7f FE020000 		.4byte	.LVL704
 14564 1d83 A8030000 		.4byte	.LFE16
 14565 1d87 0400     		.2byte	0x4
 14566 1d89 F3       		.byte	0xf3
 14567 1d8a 01       		.uleb128 0x1
 14568 1d8b 50       		.byte	0x50
 14569 1d8c 9F       		.byte	0x9f
 14570 1d8d 00000000 		.4byte	0
 14571 1d91 00000000 		.4byte	0
 14572              	.LLST105:
 14573 1d95 00000000 		.4byte	.LVL563
 14574 1d99 13000000 		.4byte	.LVL564-1
 14575 1d9d 0100     		.2byte	0x1
 14576 1d9f 51       		.byte	0x51
 14577 1da0 13000000 		.4byte	.LVL564-1
 14578 1da4 32000000 		.4byte	.LVL569
 14579 1da8 0100     		.2byte	0x1
 14580 1daa 56       		.byte	0x56
 14581 1dab 32000000 		.4byte	.LVL569
 14582 1daf 3F000000 		.4byte	.LVL571-1
 14583 1db3 0100     		.2byte	0x1
 14584 1db5 51       		.byte	0x51
 14585 1db6 3F000000 		.4byte	.LVL571-1
 14586 1dba 60000000 		.4byte	.LVL576
 14587 1dbe 0100     		.2byte	0x1
 14588 1dc0 56       		.byte	0x56
 14589 1dc1 60000000 		.4byte	.LVL576
 14590 1dc5 63000000 		.4byte	.LVL577-1
 14591 1dc9 0100     		.2byte	0x1
 14592 1dcb 51       		.byte	0x51
ARM GAS  C:\Users\Phuong\AppData\Local\Temp\ccu7x7Ah.s 			page 285


 14593 1dcc 63000000 		.4byte	.LVL577-1
 14594 1dd0 C8000000 		.4byte	.LVL597
 14595 1dd4 0100     		.2byte	0x1
 14596 1dd6 56       		.byte	0x56
 14597 1dd7 C8000000 		.4byte	.LVL597
 14598 1ddb E4000000 		.4byte	.LVL601
 14599 1ddf 0400     		.2byte	0x4
 14600 1de1 F3       		.byte	0xf3
 14601 1de2 01       		.uleb128 0x1
 14602 1de3 51       		.byte	0x51
 14603 1de4 9F       		.byte	0x9f
 14604 1de5 E4000000 		.4byte	.LVL601
 14605 1de9 E0020000 		.4byte	.LVL693
 14606 1ded 0100     		.2byte	0x1
 14607 1def 56       		.byte	0x56
 14608 1df0 E0020000 		.4byte	.LVL693
 14609 1df4 EA020000 		.4byte	.LVL696
 14610 1df8 0400     		.2byte	0x4
 14611 1dfa F3       		.byte	0xf3
 14612 1dfb 01       		.uleb128 0x1
 14613 1dfc 51       		.byte	0x51
 14614 1dfd 9F       		.byte	0x9f
 14615 1dfe EA020000 		.4byte	.LVL696
 14616 1e02 EC020000 		.4byte	.LVL697
 14617 1e06 0100     		.2byte	0x1
 14618 1e08 56       		.byte	0x56
 14619 1e09 EC020000 		.4byte	.LVL697
 14620 1e0d F4020000 		.4byte	.LVL699
 14621 1e11 0400     		.2byte	0x4
 14622 1e13 F3       		.byte	0xf3
 14623 1e14 01       		.uleb128 0x1
 14624 1e15 51       		.byte	0x51
 14625 1e16 9F       		.byte	0x9f
 14626 1e17 F4020000 		.4byte	.LVL699
 14627 1e1b FE020000 		.4byte	.LVL704
 14628 1e1f 0100     		.2byte	0x1
 14629 1e21 56       		.byte	0x56
 14630 1e22 FE020000 		.4byte	.LVL704
 14631 1e26 A8030000 		.4byte	.LFE16
 14632 1e2a 0400     		.2byte	0x4
 14633 1e2c F3       		.byte	0xf3
 14634 1e2d 01       		.uleb128 0x1
 14635 1e2e 51       		.byte	0x51
 14636 1e2f 9F       		.byte	0x9f
 14637 1e30 00000000 		.4byte	0
 14638 1e34 00000000 		.4byte	0
 14639              	.LLST106:
 14640 1e38 00000000 		.4byte	.LVL563
 14641 1e3c 13000000 		.4byte	.LVL564-1
 14642 1e40 0100     		.2byte	0x1
 14643 1e42 52       		.byte	0x52
 14644 1e43 13000000 		.4byte	.LVL564-1
 14645 1e47 32000000 		.4byte	.LVL569
 14646 1e4b 0200     		.2byte	0x2
 14647 1e4d 91       		.byte	0x91
 14648 1e4e 50       		.sleb128 -48
 14649 1e4f 32000000 		.4byte	.LVL569
ARM GAS  C:\Users\Phuong\AppData\Local\Temp\ccu7x7Ah.s 			page 286


 14650 1e53 3F000000 		.4byte	.LVL571-1
 14651 1e57 0100     		.2byte	0x1
 14652 1e59 52       		.byte	0x52
 14653 1e5a 3F000000 		.4byte	.LVL571-1
 14654 1e5e 60000000 		.4byte	.LVL576
 14655 1e62 0200     		.2byte	0x2
 14656 1e64 91       		.byte	0x91
 14657 1e65 50       		.sleb128 -48
 14658 1e66 60000000 		.4byte	.LVL576
 14659 1e6a 63000000 		.4byte	.LVL577-1
 14660 1e6e 0100     		.2byte	0x1
 14661 1e70 52       		.byte	0x52
 14662 1e71 63000000 		.4byte	.LVL577-1
 14663 1e75 A8030000 		.4byte	.LFE16
 14664 1e79 0200     		.2byte	0x2
 14665 1e7b 91       		.byte	0x91
 14666 1e7c 50       		.sleb128 -48
 14667 1e7d 00000000 		.4byte	0
 14668 1e81 00000000 		.4byte	0
 14669              	.LLST107:
 14670 1e85 00000000 		.4byte	.LVL563
 14671 1e89 13000000 		.4byte	.LVL564-1
 14672 1e8d 0100     		.2byte	0x1
 14673 1e8f 53       		.byte	0x53
 14674 1e90 13000000 		.4byte	.LVL564-1
 14675 1e94 32000000 		.4byte	.LVL569
 14676 1e98 0200     		.2byte	0x2
 14677 1e9a 91       		.byte	0x91
 14678 1e9b 54       		.sleb128 -44
 14679 1e9c 32000000 		.4byte	.LVL569
 14680 1ea0 38000000 		.4byte	.LVL570
 14681 1ea4 0100     		.2byte	0x1
 14682 1ea6 53       		.byte	0x53
 14683 1ea7 38000000 		.4byte	.LVL570
 14684 1eab A6010000 		.4byte	.LVL636
 14685 1eaf 0200     		.2byte	0x2
 14686 1eb1 91       		.byte	0x91
 14687 1eb2 54       		.sleb128 -44
 14688 1eb3 A6010000 		.4byte	.LVL636
 14689 1eb7 C2020000 		.4byte	.LVL685
 14690 1ebb 0400     		.2byte	0x4
 14691 1ebd F3       		.byte	0xf3
 14692 1ebe 01       		.uleb128 0x1
 14693 1ebf 53       		.byte	0x53
 14694 1ec0 9F       		.byte	0x9f
 14695 1ec1 C2020000 		.4byte	.LVL685
 14696 1ec5 C4020000 		.4byte	.LVL686
 14697 1ec9 0200     		.2byte	0x2
 14698 1ecb 91       		.byte	0x91
 14699 1ecc 54       		.sleb128 -44
 14700 1ecd C4020000 		.4byte	.LVL686
 14701 1ed1 CC020000 		.4byte	.LVL688
 14702 1ed5 0400     		.2byte	0x4
 14703 1ed7 F3       		.byte	0xf3
 14704 1ed8 01       		.uleb128 0x1
 14705 1ed9 53       		.byte	0x53
 14706 1eda 9F       		.byte	0x9f
ARM GAS  C:\Users\Phuong\AppData\Local\Temp\ccu7x7Ah.s 			page 287


 14707 1edb CC020000 		.4byte	.LVL688
 14708 1edf D8020000 		.4byte	.LVL691
 14709 1ee3 0200     		.2byte	0x2
 14710 1ee5 91       		.byte	0x91
 14711 1ee6 54       		.sleb128 -44
 14712 1ee7 D8020000 		.4byte	.LVL691
 14713 1eeb E0020000 		.4byte	.LVL693
 14714 1eef 0400     		.2byte	0x4
 14715 1ef1 F3       		.byte	0xf3
 14716 1ef2 01       		.uleb128 0x1
 14717 1ef3 53       		.byte	0x53
 14718 1ef4 9F       		.byte	0x9f
 14719 1ef5 E0020000 		.4byte	.LVL693
 14720 1ef9 E2020000 		.4byte	.LVL694
 14721 1efd 0200     		.2byte	0x2
 14722 1eff 91       		.byte	0x91
 14723 1f00 54       		.sleb128 -44
 14724 1f01 E2020000 		.4byte	.LVL694
 14725 1f05 EA020000 		.4byte	.LVL696
 14726 1f09 0400     		.2byte	0x4
 14727 1f0b F3       		.byte	0xf3
 14728 1f0c 01       		.uleb128 0x1
 14729 1f0d 53       		.byte	0x53
 14730 1f0e 9F       		.byte	0x9f
 14731 1f0f EA020000 		.4byte	.LVL696
 14732 1f13 EC020000 		.4byte	.LVL697
 14733 1f17 0200     		.2byte	0x2
 14734 1f19 91       		.byte	0x91
 14735 1f1a 54       		.sleb128 -44
 14736 1f1b EC020000 		.4byte	.LVL697
 14737 1f1f F4020000 		.4byte	.LVL699
 14738 1f23 0400     		.2byte	0x4
 14739 1f25 F3       		.byte	0xf3
 14740 1f26 01       		.uleb128 0x1
 14741 1f27 53       		.byte	0x53
 14742 1f28 9F       		.byte	0x9f
 14743 1f29 F4020000 		.4byte	.LVL699
 14744 1f2d FE020000 		.4byte	.LVL704
 14745 1f31 0200     		.2byte	0x2
 14746 1f33 91       		.byte	0x91
 14747 1f34 54       		.sleb128 -44
 14748 1f35 FE020000 		.4byte	.LVL704
 14749 1f39 A8030000 		.4byte	.LFE16
 14750 1f3d 0400     		.2byte	0x4
 14751 1f3f F3       		.byte	0xf3
 14752 1f40 01       		.uleb128 0x1
 14753 1f41 53       		.byte	0x53
 14754 1f42 9F       		.byte	0x9f
 14755 1f43 00000000 		.4byte	0
 14756 1f47 00000000 		.4byte	0
 14757              	.LLST108:
 14758 1f4b 9E020000 		.4byte	.LVL673
 14759 1f4f A2020000 		.4byte	.LVL675
 14760 1f53 0200     		.2byte	0x2
 14761 1f55 30       		.byte	0x30
 14762 1f56 9F       		.byte	0x9f
 14763 1f57 A8020000 		.4byte	.LVL677
ARM GAS  C:\Users\Phuong\AppData\Local\Temp\ccu7x7Ah.s 			page 288


 14764 1f5b AA020000 		.4byte	.LVL678
 14765 1f5f 0400     		.2byte	0x4
 14766 1f61 0A       		.byte	0xa
 14767 1f62 1A04     		.2byte	0x41a
 14768 1f64 9F       		.byte	0x9f
 14769 1f65 B0020000 		.4byte	.LVL680
 14770 1f69 B8020000 		.4byte	.LVL682
 14771 1f6d 0100     		.2byte	0x1
 14772 1f6f 57       		.byte	0x57
 14773 1f70 BA020000 		.4byte	.LVL683
 14774 1f74 C2020000 		.4byte	.LVL685
 14775 1f78 0100     		.2byte	0x1
 14776 1f7a 57       		.byte	0x57
 14777 1f7b C4020000 		.4byte	.LVL686
 14778 1f7f CC020000 		.4byte	.LVL688
 14779 1f83 0100     		.2byte	0x1
 14780 1f85 57       		.byte	0x57
 14781 1f86 D8020000 		.4byte	.LVL691
 14782 1f8a E0020000 		.4byte	.LVL693
 14783 1f8e 0100     		.2byte	0x1
 14784 1f90 57       		.byte	0x57
 14785 1f91 E2020000 		.4byte	.LVL694
 14786 1f95 EA020000 		.4byte	.LVL696
 14787 1f99 0100     		.2byte	0x1
 14788 1f9b 57       		.byte	0x57
 14789 1f9c EC020000 		.4byte	.LVL697
 14790 1fa0 F4020000 		.4byte	.LVL699
 14791 1fa4 0100     		.2byte	0x1
 14792 1fa6 57       		.byte	0x57
 14793 1fa7 FE020000 		.4byte	.LVL704
 14794 1fab 02030000 		.4byte	.LVL705
 14795 1faf 0100     		.2byte	0x1
 14796 1fb1 57       		.byte	0x57
 14797 1fb2 02030000 		.4byte	.LVL705
 14798 1fb6 A8030000 		.4byte	.LFE16
 14799 1fba 0100     		.2byte	0x1
 14800 1fbc 50       		.byte	0x50
 14801 1fbd 00000000 		.4byte	0
 14802 1fc1 00000000 		.4byte	0
 14803              	.LLST109:
 14804 1fc5 16000000 		.4byte	.LVL565
 14805 1fc9 2C000000 		.4byte	.LVL566
 14806 1fcd 0100     		.2byte	0x1
 14807 1fcf 50       		.byte	0x50
 14808 1fd0 2C000000 		.4byte	.LVL566
 14809 1fd4 32000000 		.4byte	.LVL569
 14810 1fd8 0100     		.2byte	0x1
 14811 1fda 54       		.byte	0x54
 14812 1fdb F4020000 		.4byte	.LVL699
 14813 1fdf F8020000 		.4byte	.LVL701
 14814 1fe3 0100     		.2byte	0x1
 14815 1fe5 50       		.byte	0x50
 14816 1fe6 00000000 		.4byte	0
 14817 1fea 00000000 		.4byte	0
 14818              	.LLST110:
 14819 1fee 42000000 		.4byte	.LVL572
 14820 1ff2 5A000000 		.4byte	.LVL573
ARM GAS  C:\Users\Phuong\AppData\Local\Temp\ccu7x7Ah.s 			page 289


 14821 1ff6 0100     		.2byte	0x1
 14822 1ff8 50       		.byte	0x50
 14823 1ff9 5A000000 		.4byte	.LVL573
 14824 1ffd 60000000 		.4byte	.LVL576
 14825 2001 0100     		.2byte	0x1
 14826 2003 54       		.byte	0x54
 14827 2004 F8020000 		.4byte	.LVL701
 14828 2008 FC020000 		.4byte	.LVL703
 14829 200c 0100     		.2byte	0x1
 14830 200e 50       		.byte	0x50
 14831 200f 00000000 		.4byte	0
 14832 2013 00000000 		.4byte	0
 14833              	.LLST111:
 14834 2017 66000000 		.4byte	.LVL578
 14835 201b 6B000000 		.4byte	.LVL579-1
 14836 201f 0100     		.2byte	0x1
 14837 2021 50       		.byte	0x50
 14838 2022 6B000000 		.4byte	.LVL579-1
 14839 2026 8A000000 		.4byte	.LVL584
 14840 202a 0100     		.2byte	0x1
 14841 202c 55       		.byte	0x55
 14842 202d 8A000000 		.4byte	.LVL584
 14843 2031 8D000000 		.4byte	.LVL585-1
 14844 2035 0100     		.2byte	0x1
 14845 2037 50       		.byte	0x50
 14846 2038 8D000000 		.4byte	.LVL585-1
 14847 203c F4020000 		.4byte	.LVL699
 14848 2040 0100     		.2byte	0x1
 14849 2042 55       		.byte	0x55
 14850 2043 FC020000 		.4byte	.LVL703
 14851 2047 FE020000 		.4byte	.LVL704
 14852 204b 0100     		.2byte	0x1
 14853 204d 55       		.byte	0x55
 14854 204e 00000000 		.4byte	0
 14855 2052 00000000 		.4byte	0
 14856              	.LLST112:
 14857 2056 6E000000 		.4byte	.LVL580
 14858 205a 84000000 		.4byte	.LVL581
 14859 205e 0100     		.2byte	0x1
 14860 2060 50       		.byte	0x50
 14861 2061 84000000 		.4byte	.LVL581
 14862 2065 8A000000 		.4byte	.LVL584
 14863 2069 0100     		.2byte	0x1
 14864 206b 54       		.byte	0x54
 14865 206c FC020000 		.4byte	.LVL703
 14866 2070 FE020000 		.4byte	.LVL704
 14867 2074 0100     		.2byte	0x1
 14868 2076 50       		.byte	0x50
 14869 2077 00000000 		.4byte	0
 14870 207b 00000000 		.4byte	0
 14871              	.LLST113:
 14872 207f 90000000 		.4byte	.LVL586
 14873 2083 95000000 		.4byte	.LVL587-1
 14874 2087 0100     		.2byte	0x1
 14875 2089 50       		.byte	0x50
 14876 208a 95000000 		.4byte	.LVL587-1
 14877 208e 98000000 		.4byte	.LVL588
ARM GAS  C:\Users\Phuong\AppData\Local\Temp\ccu7x7Ah.s 			page 290


 14878 2092 0100     		.2byte	0x1
 14879 2094 54       		.byte	0x54
 14880 2095 B6000000 		.4byte	.LVL592
 14881 2099 B8000000 		.4byte	.LVL593
 14882 209d 0100     		.2byte	0x1
 14883 209f 50       		.byte	0x50
 14884 20a0 B8000000 		.4byte	.LVL593
 14885 20a4 EA020000 		.4byte	.LVL696
 14886 20a8 0100     		.2byte	0x1
 14887 20aa 54       		.byte	0x54
 14888 20ab 00000000 		.4byte	0
 14889 20af 00000000 		.4byte	0
 14890              	.LLST114:
 14891 20b3 98000000 		.4byte	.LVL588
 14892 20b7 B0000000 		.4byte	.LVL589
 14893 20bb 0100     		.2byte	0x1
 14894 20bd 50       		.byte	0x50
 14895 20be B0000000 		.4byte	.LVL589
 14896 20c2 B6000000 		.4byte	.LVL592
 14897 20c6 0100     		.2byte	0x1
 14898 20c8 54       		.byte	0x54
 14899 20c9 EA020000 		.4byte	.LVL696
 14900 20cd EC020000 		.4byte	.LVL697
 14901 20d1 0100     		.2byte	0x1
 14902 20d3 50       		.byte	0x50
 14903 20d4 00000000 		.4byte	0
 14904 20d8 00000000 		.4byte	0
 14905              	.LLST115:
 14906 20dc BE000000 		.4byte	.LVL595
 14907 20e0 C5000000 		.4byte	.LVL596-1
 14908 20e4 0100     		.2byte	0x1
 14909 20e6 50       		.byte	0x50
 14910 20e7 C5000000 		.4byte	.LVL596-1
 14911 20eb E4000000 		.4byte	.LVL601
 14912 20ef 0200     		.2byte	0x2
 14913 20f1 91       		.byte	0x91
 14914 20f2 4C       		.sleb128 -52
 14915 20f3 E4000000 		.4byte	.LVL601
 14916 20f7 E8000000 		.4byte	.LVL602
 14917 20fb 0100     		.2byte	0x1
 14918 20fd 50       		.byte	0x50
 14919 20fe E8000000 		.4byte	.LVL602
 14920 2102 EA020000 		.4byte	.LVL696
 14921 2106 0200     		.2byte	0x2
 14922 2108 91       		.byte	0x91
 14923 2109 4C       		.sleb128 -52
 14924 210a 00000000 		.4byte	0
 14925 210e 00000000 		.4byte	0
 14926              	.LLST116:
 14927 2112 C8000000 		.4byte	.LVL597
 14928 2116 DE000000 		.4byte	.LVL598
 14929 211a 0100     		.2byte	0x1
 14930 211c 50       		.byte	0x50
 14931 211d DE000000 		.4byte	.LVL598
 14932 2121 E4000000 		.4byte	.LVL601
 14933 2125 0100     		.2byte	0x1
 14934 2127 56       		.byte	0x56
ARM GAS  C:\Users\Phuong\AppData\Local\Temp\ccu7x7Ah.s 			page 291


 14935 2128 E0020000 		.4byte	.LVL693
 14936 212c E2020000 		.4byte	.LVL694
 14937 2130 0100     		.2byte	0x1
 14938 2132 50       		.byte	0x50
 14939 2133 00000000 		.4byte	0
 14940 2137 00000000 		.4byte	0
 14941              	.LLST117:
 14942 213b F6000000 		.4byte	.LVL605
 14943 213f 0C010000 		.4byte	.LVL606
 14944 2143 0100     		.2byte	0x1
 14945 2145 50       		.byte	0x50
 14946 2146 0C010000 		.4byte	.LVL606
 14947 214a 10010000 		.4byte	.LVL608
 14948 214e 0100     		.2byte	0x1
 14949 2150 57       		.byte	0x57
 14950 2151 CC020000 		.4byte	.LVL688
 14951 2155 D2020000 		.4byte	.LVL689
 14952 2159 0100     		.2byte	0x1
 14953 215b 50       		.byte	0x50
 14954 215c 00000000 		.4byte	0
 14955 2160 00000000 		.4byte	0
 14956              	.LLST118:
 14957 2164 26010000 		.4byte	.LVL612
 14958 2168 3C010000 		.4byte	.LVL613
 14959 216c 0100     		.2byte	0x1
 14960 216e 50       		.byte	0x50
 14961 216f 3C010000 		.4byte	.LVL613
 14962 2173 40010000 		.4byte	.LVL615
 14963 2177 0100     		.2byte	0x1
 14964 2179 57       		.byte	0x57
 14965 217a D2020000 		.4byte	.LVL689
 14966 217e D6020000 		.4byte	.LVL690
 14967 2182 0100     		.2byte	0x1
 14968 2184 50       		.byte	0x50
 14969 2185 00000000 		.4byte	0
 14970 2189 00000000 		.4byte	0
 14971              	.LLST119:
 14972 218d 48010000 		.4byte	.LVL618
 14973 2191 4F010000 		.4byte	.LVL619-1
 14974 2195 0100     		.2byte	0x1
 14975 2197 50       		.byte	0x50
 14976 2198 4F010000 		.4byte	.LVL619-1
 14977 219c 70010000 		.4byte	.LVL624
 14978 21a0 0200     		.2byte	0x2
 14979 21a2 91       		.byte	0x91
 14980 21a3 58       		.sleb128 -40
 14981 21a4 70010000 		.4byte	.LVL624
 14982 21a8 72010000 		.4byte	.LVL625
 14983 21ac 0100     		.2byte	0x1
 14984 21ae 50       		.byte	0x50
 14985 21af 72010000 		.4byte	.LVL625
 14986 21b3 CC020000 		.4byte	.LVL688
 14987 21b7 0200     		.2byte	0x2
 14988 21b9 91       		.byte	0x91
 14989 21ba 58       		.sleb128 -40
 14990 21bb D6020000 		.4byte	.LVL690
 14991 21bf D8020000 		.4byte	.LVL691
ARM GAS  C:\Users\Phuong\AppData\Local\Temp\ccu7x7Ah.s 			page 292


 14992 21c3 0200     		.2byte	0x2
 14993 21c5 91       		.byte	0x91
 14994 21c6 58       		.sleb128 -40
 14995 21c7 00000000 		.4byte	0
 14996 21cb 00000000 		.4byte	0
 14997              	.LLST120:
 14998 21cf 52010000 		.4byte	.LVL620
 14999 21d3 6A010000 		.4byte	.LVL621
 15000 21d7 0100     		.2byte	0x1
 15001 21d9 50       		.byte	0x50
 15002 21da 6A010000 		.4byte	.LVL621
 15003 21de 6E010000 		.4byte	.LVL623
 15004 21e2 0100     		.2byte	0x1
 15005 21e4 57       		.byte	0x57
 15006 21e5 D6020000 		.4byte	.LVL690
 15007 21e9 D8020000 		.4byte	.LVL691
 15008 21ed 0100     		.2byte	0x1
 15009 21ef 50       		.byte	0x50
 15010 21f0 00000000 		.4byte	0
 15011 21f4 00000000 		.4byte	0
 15012              	.LLST121:
 15013 21f8 78010000 		.4byte	.LVL627
 15014 21fc 7F010000 		.4byte	.LVL628-1
 15015 2200 0100     		.2byte	0x1
 15016 2202 50       		.byte	0x50
 15017 2203 7F010000 		.4byte	.LVL628-1
 15018 2207 9E010000 		.4byte	.LVL633
 15019 220b 0200     		.2byte	0x2
 15020 220d 91       		.byte	0x91
 15021 220e 5C       		.sleb128 -36
 15022 220f 9E010000 		.4byte	.LVL633
 15023 2213 A0010000 		.4byte	.LVL634
 15024 2217 0100     		.2byte	0x1
 15025 2219 50       		.byte	0x50
 15026 221a A0010000 		.4byte	.LVL634
 15027 221e CC020000 		.4byte	.LVL688
 15028 2222 0200     		.2byte	0x2
 15029 2224 91       		.byte	0x91
 15030 2225 5C       		.sleb128 -36
 15031 2226 00000000 		.4byte	0
 15032 222a 00000000 		.4byte	0
 15033              	.LLST122:
 15034 222e 82010000 		.4byte	.LVL629
 15035 2232 98010000 		.4byte	.LVL630
 15036 2236 0100     		.2byte	0x1
 15037 2238 50       		.byte	0x50
 15038 2239 98010000 		.4byte	.LVL630
 15039 223d 9C010000 		.4byte	.LVL632
 15040 2241 0100     		.2byte	0x1
 15041 2243 57       		.byte	0x57
 15042 2244 C2020000 		.4byte	.LVL685
 15043 2248 C4020000 		.4byte	.LVL686
 15044 224c 0100     		.2byte	0x1
 15045 224e 50       		.byte	0x50
 15046 224f 00000000 		.4byte	0
 15047 2253 00000000 		.4byte	0
 15048              	.LLST123:
ARM GAS  C:\Users\Phuong\AppData\Local\Temp\ccu7x7Ah.s 			page 293


 15049 2257 A6010000 		.4byte	.LVL636
 15050 225b AD010000 		.4byte	.LVL637-1
 15051 225f 0100     		.2byte	0x1
 15052 2261 50       		.byte	0x50
 15053 2262 AD010000 		.4byte	.LVL637-1
 15054 2266 CE010000 		.4byte	.LVL642
 15055 226a 0200     		.2byte	0x2
 15056 226c 91       		.byte	0x91
 15057 226d 54       		.sleb128 -44
 15058 226e CE010000 		.4byte	.LVL642
 15059 2272 D4010000 		.4byte	.LVL643
 15060 2276 0100     		.2byte	0x1
 15061 2278 50       		.byte	0x50
 15062 2279 D4010000 		.4byte	.LVL643
 15063 227d C2020000 		.4byte	.LVL685
 15064 2281 0200     		.2byte	0x2
 15065 2283 91       		.byte	0x91
 15066 2284 54       		.sleb128 -44
 15067 2285 00000000 		.4byte	0
 15068 2289 00000000 		.4byte	0
 15069              	.LLST124:
 15070 228d B0010000 		.4byte	.LVL638
 15071 2291 C8010000 		.4byte	.LVL639
 15072 2295 0100     		.2byte	0x1
 15073 2297 50       		.byte	0x50
 15074 2298 C8010000 		.4byte	.LVL639
 15075 229c CC010000 		.4byte	.LVL641
 15076 22a0 0100     		.2byte	0x1
 15077 22a2 57       		.byte	0x57
 15078 22a3 B8020000 		.4byte	.LVL682
 15079 22a7 BA020000 		.4byte	.LVL683
 15080 22ab 0100     		.2byte	0x1
 15081 22ad 50       		.byte	0x50
 15082 22ae 00000000 		.4byte	0
 15083 22b2 00000000 		.4byte	0
 15084              	.LLST125:
 15085 22b6 E2010000 		.4byte	.LVL646
 15086 22ba F6010000 		.4byte	.LVL647
 15087 22be 0100     		.2byte	0x1
 15088 22c0 50       		.byte	0x50
 15089 22c1 F6010000 		.4byte	.LVL647
 15090 22c5 FA010000 		.4byte	.LVL649
 15091 22c9 0100     		.2byte	0x1
 15092 22cb 57       		.byte	0x57
 15093 22cc AA020000 		.4byte	.LVL678
 15094 22d0 AE020000 		.4byte	.LVL679
 15095 22d4 0100     		.2byte	0x1
 15096 22d6 50       		.byte	0x50
 15097 22d7 00000000 		.4byte	0
 15098 22db 00000000 		.4byte	0
 15099              	.LLST126:
 15100 22df 0E020000 		.4byte	.LVL653
 15101 22e3 22020000 		.4byte	.LVL654
 15102 22e7 0100     		.2byte	0x1
 15103 22e9 50       		.byte	0x50
 15104 22ea 22020000 		.4byte	.LVL654
 15105 22ee 26020000 		.4byte	.LVL656
ARM GAS  C:\Users\Phuong\AppData\Local\Temp\ccu7x7Ah.s 			page 294


 15106 22f2 0100     		.2byte	0x1
 15107 22f4 57       		.byte	0x57
 15108 22f5 AE020000 		.4byte	.LVL679
 15109 22f9 B0020000 		.4byte	.LVL680
 15110 22fd 0100     		.2byte	0x1
 15111 22ff 50       		.byte	0x50
 15112 2300 00000000 		.4byte	0
 15113 2304 00000000 		.4byte	0
 15114              	.LLST127:
 15115 2308 42020000 		.4byte	.LVL660
 15116 230c 56020000 		.4byte	.LVL661
 15117 2310 0100     		.2byte	0x1
 15118 2312 50       		.byte	0x50
 15119 2313 56020000 		.4byte	.LVL661
 15120 2317 5A020000 		.4byte	.LVL663
 15121 231b 0100     		.2byte	0x1
 15122 231d 57       		.byte	0x57
 15123 231e A2020000 		.4byte	.LVL675
 15124 2322 A6020000 		.4byte	.LVL676
 15125 2326 0100     		.2byte	0x1
 15126 2328 50       		.byte	0x50
 15127 2329 00000000 		.4byte	0
 15128 232d 00000000 		.4byte	0
 15129              	.LLST128:
 15130 2331 76020000 		.4byte	.LVL667
 15131 2335 8A020000 		.4byte	.LVL668
 15132 2339 0100     		.2byte	0x1
 15133 233b 50       		.byte	0x50
 15134 233c 8A020000 		.4byte	.LVL668
 15135 2340 8E020000 		.4byte	.LVL670
 15136 2344 0100     		.2byte	0x1
 15137 2346 57       		.byte	0x57
 15138 2347 A6020000 		.4byte	.LVL676
 15139 234b AA020000 		.4byte	.LVL678
 15140 234f 0100     		.2byte	0x1
 15141 2351 50       		.byte	0x50
 15142 2352 00000000 		.4byte	0
 15143 2356 00000000 		.4byte	0
 15144              		.section	.debug_aranges,"",%progbits
 15145 0000 94000000 		.4byte	0x94
 15146 0004 0200     		.2byte	0x2
 15147 0006 00000000 		.4byte	.Ldebug_info0
 15148 000a 04       		.byte	0x4
 15149 000b 00       		.byte	0
 15150 000c 0000     		.2byte	0
 15151 000e 0000     		.2byte	0
 15152 0010 00000000 		.4byte	.LFB4
 15153 0014 24000000 		.4byte	.LFE4-.LFB4
 15154 0018 00000000 		.4byte	.LFB5
 15155 001c 26000000 		.4byte	.LFE5-.LFB5
 15156 0020 00000000 		.4byte	.LFB6
 15157 0024 26000000 		.4byte	.LFE6-.LFB6
 15158 0028 00000000 		.4byte	.LFB7
 15159 002c 0E000000 		.4byte	.LFE7-.LFB7
 15160 0030 00000000 		.4byte	.LFB8
 15161 0034 C2030000 		.4byte	.LFE8-.LFB8
 15162 0038 00000000 		.4byte	.LFB1
ARM GAS  C:\Users\Phuong\AppData\Local\Temp\ccu7x7Ah.s 			page 295


 15163 003c 64000000 		.4byte	.LFE1-.LFB1
 15164 0040 00000000 		.4byte	.LFB2
 15165 0044 4C010000 		.4byte	.LFE2-.LFB2
 15166 0048 00000000 		.4byte	.LFB9
 15167 004c 20000000 		.4byte	.LFE9-.LFB9
 15168 0050 00000000 		.4byte	.LFB13
 15169 0054 E4020000 		.4byte	.LFE13-.LFB13
 15170 0058 00000000 		.4byte	.LFB10
 15171 005c 28000000 		.4byte	.LFE10-.LFB10
 15172 0060 00000000 		.4byte	.LFB11
 15173 0064 24000000 		.4byte	.LFE11-.LFB11
 15174 0068 00000000 		.4byte	.LFB12
 15175 006c 24000000 		.4byte	.LFE12-.LFB12
 15176 0070 00000000 		.4byte	.LFB14
 15177 0074 34040000 		.4byte	.LFE14-.LFB14
 15178 0078 00000000 		.4byte	.LFB15
 15179 007c 8C000000 		.4byte	.LFE15-.LFB15
 15180 0080 00000000 		.4byte	.LFB3
 15181 0084 7C000000 		.4byte	.LFE3-.LFB3
 15182 0088 00000000 		.4byte	.LFB16
 15183 008c A8030000 		.4byte	.LFE16-.LFB16
 15184 0090 00000000 		.4byte	0
 15185 0094 00000000 		.4byte	0
 15186              		.section	.debug_ranges,"",%progbits
 15187              	.Ldebug_ranges0:
 15188 0000 68000000 		.4byte	.LBB5
 15189 0004 C8000000 		.4byte	.LBE5
 15190 0008 CC000000 		.4byte	.LBB42
 15191 000c 02010000 		.4byte	.LBE42
 15192 0010 06010000 		.4byte	.LBB43
 15193 0014 EC010000 		.4byte	.LBE43
 15194 0018 EE010000 		.4byte	.LBB44
 15195 001c 20020000 		.4byte	.LBE44
 15196 0020 22020000 		.4byte	.LBB45
 15197 0024 46030000 		.4byte	.LBE45
 15198 0028 4A030000 		.4byte	.LBB46
 15199 002c 4C030000 		.4byte	.LBE46
 15200 0030 4E030000 		.4byte	.LBB47
 15201 0034 A4030000 		.4byte	.LBE47
 15202 0038 00000000 		.4byte	0
 15203 003c 00000000 		.4byte	0
 15204 0040 9E000000 		.4byte	.LBB7
 15205 0044 C8000000 		.4byte	.LBE7
 15206 0048 CC000000 		.4byte	.LBB37
 15207 004c 02010000 		.4byte	.LBE37
 15208 0050 06010000 		.4byte	.LBB38
 15209 0054 EC010000 		.4byte	.LBE38
 15210 0058 EE010000 		.4byte	.LBB39
 15211 005c 20020000 		.4byte	.LBE39
 15212 0060 22020000 		.4byte	.LBB40
 15213 0064 46030000 		.4byte	.LBE40
 15214 0068 4A030000 		.4byte	.LBB41
 15215 006c 4C030000 		.4byte	.LBE41
 15216 0070 00000000 		.4byte	0
 15217 0074 00000000 		.4byte	0
 15218 0078 CC000000 		.4byte	.LBB9
 15219 007c 02010000 		.4byte	.LBE9
ARM GAS  C:\Users\Phuong\AppData\Local\Temp\ccu7x7Ah.s 			page 296


 15220 0080 06010000 		.4byte	.LBB33
 15221 0084 EC010000 		.4byte	.LBE33
 15222 0088 EE010000 		.4byte	.LBB34
 15223 008c 20020000 		.4byte	.LBE34
 15224 0090 22020000 		.4byte	.LBB35
 15225 0094 44030000 		.4byte	.LBE35
 15226 0098 4A030000 		.4byte	.LBB36
 15227 009c 4C030000 		.4byte	.LBE36
 15228 00a0 00000000 		.4byte	0
 15229 00a4 00000000 		.4byte	0
 15230 00a8 44010000 		.4byte	.LBB12
 15231 00ac EC010000 		.4byte	.LBE12
 15232 00b0 EE010000 		.4byte	.LBB31
 15233 00b4 20020000 		.4byte	.LBE31
 15234 00b8 22020000 		.4byte	.LBB32
 15235 00bc 44030000 		.4byte	.LBE32
 15236 00c0 00000000 		.4byte	0
 15237 00c4 00000000 		.4byte	0
 15238 00c8 82010000 		.4byte	.LBB14
 15239 00cc EC010000 		.4byte	.LBE14
 15240 00d0 EE010000 		.4byte	.LBB29
 15241 00d4 20020000 		.4byte	.LBE29
 15242 00d8 22020000 		.4byte	.LBB30
 15243 00dc 44030000 		.4byte	.LBE30
 15244 00e0 00000000 		.4byte	0
 15245 00e4 00000000 		.4byte	0
 15246 00e8 BE010000 		.4byte	.LBB16
 15247 00ec EC010000 		.4byte	.LBE16
 15248 00f0 EE010000 		.4byte	.LBB27
 15249 00f4 20020000 		.4byte	.LBE27
 15250 00f8 22020000 		.4byte	.LBB28
 15251 00fc 44030000 		.4byte	.LBE28
 15252 0100 00000000 		.4byte	0
 15253 0104 00000000 		.4byte	0
 15254 0108 F0010000 		.4byte	.LBB18
 15255 010c 20020000 		.4byte	.LBE18
 15256 0110 22020000 		.4byte	.LBB26
 15257 0114 3C030000 		.4byte	.LBE26
 15258 0118 00000000 		.4byte	0
 15259 011c 00000000 		.4byte	0
 15260 0120 FA000000 		.4byte	.LBB61
 15261 0124 28020000 		.4byte	.LBE61
 15262 0128 2E020000 		.4byte	.LBB68
 15263 012c 32020000 		.4byte	.LBE68
 15264 0130 00000000 		.4byte	0
 15265 0134 00000000 		.4byte	0
 15266 0138 84000000 		.4byte	.LBB71
 15267 013c 66030000 		.4byte	.LBE71
 15268 0140 24040000 		.4byte	.LBB91
 15269 0144 26040000 		.4byte	.LBE91
 15270 0148 00000000 		.4byte	0
 15271 014c 00000000 		.4byte	0
 15272 0150 6C010000 		.4byte	.LBB79
 15273 0154 3A030000 		.4byte	.LBE79
 15274 0158 3E030000 		.4byte	.LBB90
 15275 015c 40030000 		.4byte	.LBE90
 15276 0160 00000000 		.4byte	0
ARM GAS  C:\Users\Phuong\AppData\Local\Temp\ccu7x7Ah.s 			page 297


 15277 0164 00000000 		.4byte	0
 15278 0168 26000000 		.4byte	.LBB95
 15279 016c 32000000 		.4byte	.LBE95
 15280 0170 36000000 		.4byte	.LBB96
 15281 0174 6A000000 		.4byte	.LBE96
 15282 0178 00000000 		.4byte	0
 15283 017c 00000000 		.4byte	0
 15284 0180 60000000 		.4byte	.LBB99
 15285 0184 F4020000 		.4byte	.LBE99
 15286 0188 FC020000 		.4byte	.LBB119
 15287 018c FE020000 		.4byte	.LBE119
 15288 0190 00000000 		.4byte	0
 15289 0194 00000000 		.4byte	0
 15290 0198 42010000 		.4byte	.LBB107
 15291 019c CC020000 		.4byte	.LBE107
 15292 01a0 D6020000 		.4byte	.LBB118
 15293 01a4 D8020000 		.4byte	.LBE118
 15294 01a8 00000000 		.4byte	0
 15295 01ac 00000000 		.4byte	0
 15296 01b0 00000000 		.4byte	.LFB4
 15297 01b4 24000000 		.4byte	.LFE4
 15298 01b8 00000000 		.4byte	.LFB5
 15299 01bc 26000000 		.4byte	.LFE5
 15300 01c0 00000000 		.4byte	.LFB6
 15301 01c4 26000000 		.4byte	.LFE6
 15302 01c8 00000000 		.4byte	.LFB7
 15303 01cc 0E000000 		.4byte	.LFE7
 15304 01d0 00000000 		.4byte	.LFB8
 15305 01d4 C2030000 		.4byte	.LFE8
 15306 01d8 00000000 		.4byte	.LFB1
 15307 01dc 64000000 		.4byte	.LFE1
 15308 01e0 00000000 		.4byte	.LFB2
 15309 01e4 4C010000 		.4byte	.LFE2
 15310 01e8 00000000 		.4byte	.LFB9
 15311 01ec 20000000 		.4byte	.LFE9
 15312 01f0 00000000 		.4byte	.LFB13
 15313 01f4 E4020000 		.4byte	.LFE13
 15314 01f8 00000000 		.4byte	.LFB10
 15315 01fc 28000000 		.4byte	.LFE10
 15316 0200 00000000 		.4byte	.LFB11
 15317 0204 24000000 		.4byte	.LFE11
 15318 0208 00000000 		.4byte	.LFB12
 15319 020c 24000000 		.4byte	.LFE12
 15320 0210 00000000 		.4byte	.LFB14
 15321 0214 34040000 		.4byte	.LFE14
 15322 0218 00000000 		.4byte	.LFB15
 15323 021c 8C000000 		.4byte	.LFE15
 15324 0220 00000000 		.4byte	.LFB3
 15325 0224 7C000000 		.4byte	.LFE3
 15326 0228 00000000 		.4byte	.LFB16
 15327 022c A8030000 		.4byte	.LFE16
 15328 0230 00000000 		.4byte	0
 15329 0234 00000000 		.4byte	0
 15330              		.section	.debug_line,"",%progbits
 15331              	.Ldebug_line0:
 15332 0000 120A0000 		.section	.debug_str,"MS",%progbits,1
 15332      02000903 
ARM GAS  C:\Users\Phuong\AppData\Local\Temp\ccu7x7Ah.s 			page 298


 15332      00000201 
 15332      FB0E0D00 
 15332      01010101 
 15333              	.LASF194:
 15334 0000 6D657373 		.ascii	"messagesender_send_async\000"
 15334      61676573 
 15334      656E6465 
 15334      725F7365 
 15334      6E645F61 
 15335              	.LASF149:
 15336 0019 72657370 		.ascii	"response\000"
 15336      6F6E7365 
 15336      00
 15337              	.LASF72:
 15338 0022 73656E64 		.ascii	"sender_link\000"
 15338      65725F6C 
 15338      696E6B00 
 15339              	.LASF123:
 15340 002e 6D657468 		.ascii	"method_request_handle\000"
 15340      6F645F72 
 15340      65717565 
 15340      73745F68 
 15340      616E646C 
 15341              	.LASF38:
 15342 0044 4D455353 		.ascii	"MESSAGE_RECEIVER_STATE_IDLE\000"
 15342      4147455F 
 15342      52454345 
 15342      49564552 
 15342      5F535441 
 15343              	.LASF148:
 15344 0060 696F7468 		.ascii	"iothubtransportamqp_methods_respond\000"
 15344      75627472 
 15344      616E7370 
 15344      6F727461 
 15344      6D71705F 
 15345              	.LASF25:
 15346 0084 53455353 		.ascii	"SESSION_HANDLE\000"
 15346      494F4E5F 
 15346      48414E44 
 15346      4C4500
 15347              	.LASF66:
 15348 0093 494F5448 		.ascii	"IOTHUBTRANSPORT_AMQP_METHODS_HANDLE\000"
 15348      55425452 
 15348      414E5350 
 15348      4F52545F 
 15348      414D5150 
 15349              	.LASF107:
 15350 00b7 6F6E5F6D 		.ascii	"on_message_send_complete\000"
 15350      65737361 
 15350      67655F73 
 15350      656E645F 
 15350      636F6D70 
 15351              	.LASF69:
 15352 00d0 6D6F6475 		.ascii	"module_id\000"
 15352      6C655F69 
 15352      6400
 15353              	.LASF80:
ARM GAS  C:\Users\Phuong\AppData\Local\Temp\ccu7x7Ah.s 			page 299


 15354 00da 6F6E5F6D 		.ascii	"on_methods_unsubscribed_context\000"
 15354      6574686F 
 15354      64735F75 
 15354      6E737562 
 15354      73637269 
 15355              	.LASF193:
 15356 00fa 6D657373 		.ascii	"message_add_body_amqp_data\000"
 15356      6167655F 
 15356      6164645F 
 15356      626F6479 
 15356      5F616D71 
 15357              	.LASF0:
 15358 0115 756E7369 		.ascii	"unsigned int\000"
 15358      676E6564 
 15358      20696E74 
 15358      00
 15359              	.LASF183:
 15360 0122 6C696E6B 		.ascii	"link_create\000"
 15360      5F637265 
 15360      61746500 
 15361              	.LASF137:
 15362 012e 696F7468 		.ascii	"iothubtransportamqp_methods_subscribe\000"
 15362      75627472 
 15362      616E7370 
 15362      6F727461 
 15362      6D71705F 
 15363              	.LASF90:
 15364 0154 53554253 		.ascii	"SUBSCRIBE_STATE_NOT_SUBSCRIBED\000"
 15364      43524942 
 15364      455F5354 
 15364      4154455F 
 15364      4E4F545F 
 15365              	.LASF102:
 15366 0173 616D7170 		.ascii	"amqp_methods_handle\000"
 15366      5F6D6574 
 15366      686F6473 
 15366      5F68616E 
 15366      646C6500 
 15367              	.LASF127:
 15368 0187 6F6E5F6D 		.ascii	"on_message_received\000"
 15368      65737361 
 15368      67655F72 
 15368      65636569 
 15368      76656400 
 15369              	.LASF117:
 15370 019b 6170706C 		.ascii	"application_properties\000"
 15370      69636174 
 15370      696F6E5F 
 15370      70726F70 
 15370      65727469 
 15371              	.LASF84:
 15372 01b2 72656365 		.ascii	"receiver_link_disconnected\000"
 15372      69766572 
 15372      5F6C696E 
 15372      6B5F6469 
 15372      73636F6E 
 15373              	.LASF77:
ARM GAS  C:\Users\Phuong\AppData\Local\Temp\ccu7x7Ah.s 			page 300


 15374 01cd 6F6E5F6D 		.ascii	"on_methods_error\000"
 15374      6574686F 
 15374      64735F65 
 15374      72726F72 
 15374      00
 15375              	.LASF37:
 15376 01de 4D455353 		.ascii	"MESSAGE_RECEIVER_STATE_TAG\000"
 15376      4147455F 
 15376      52454345 
 15376      49564552 
 15376      5F535441 
 15377              	.LASF60:
 15378 01f9 4D455353 		.ascii	"MESSAGE_SENDER_INSTANCE_TAG\000"
 15378      4147455F 
 15378      53454E44 
 15378      45525F49 
 15378      4E535441 
 15379              	.LASF104:
 15380 0215 6E65775F 		.ascii	"new_state\000"
 15380      73746174 
 15380      6500
 15381              	.LASF116:
 15382 021f 62696E61 		.ascii	"binary_data\000"
 15382      72795F64 
 15382      61746100 
 15383              	.LASF145:
 15384 022b 72657370 		.ascii	"responses_link_name\000"
 15384      6F6E7365 
 15384      735F6C69 
 15384      6E6B5F6E 
 15384      616D6500 
 15385              	.LASF58:
 15386 023f 4D455353 		.ascii	"MESSAGE_SENDER_STATE\000"
 15386      4147455F 
 15386      53454E44 
 15386      45525F53 
 15386      54415445 
 15387              	.LASF99:
 15388 0254 494F5448 		.ascii	"IOTHUBTRANSPORT_AMQP_METHOD\000"
 15388      55425452 
 15388      414E5350 
 15388      4F52545F 
 15388      414D5150 
 15389              	.LASF198:
 15390 0270 70726F70 		.ascii	"properties_set_correlation_id\000"
 15390      65727469 
 15390      65735F73 
 15390      65745F63 
 15390      6F727265 
 15391              	.LASF140:
 15392 028e 72656365 		.ascii	"receiver_source\000"
 15392      69766572 
 15392      5F736F75 
 15392      72636500 
 15393              	.LASF54:
 15394 029e 4D455353 		.ascii	"MESSAGE_SENDER_STATE_OPENING\000"
 15394      4147455F 
ARM GAS  C:\Users\Phuong\AppData\Local\Temp\ccu7x7Ah.s 			page 301


 15394      53454E44 
 15394      45525F53 
 15394      54415445 
 15395              	.LASF155:
 15396 02bb 786C6F67 		.ascii	"xlogging_get_log_function\000"
 15396      67696E67 
 15396      5F676574 
 15396      5F6C6F67 
 15396      5F66756E 
 15397              	.LASF68:
 15398 02d5 64657669 		.ascii	"device_id\000"
 15398      63655F69 
 15398      6400
 15399              	.LASF190:
 15400 02df 6D657373 		.ascii	"messagereceiver_destroy\000"
 15400      61676572 
 15400      65636569 
 15400      7665725F 
 15400      64657374 
 15401              	.LASF41:
 15402 02f7 4D455353 		.ascii	"MESSAGE_RECEIVER_STATE_CLOSING\000"
 15402      4147455F 
 15402      52454345 
 15402      49564552 
 15402      5F535441 
 15403              	.LASF63:
 15404 0316 494F5448 		.ascii	"IOTHUBTRANSPORT_AMQP_METHOD_TAG\000"
 15404      55425452 
 15404      414E5350 
 15404      4F52545F 
 15404      414D5150 
 15405              	.LASF56:
 15406 0336 4D455353 		.ascii	"MESSAGE_SENDER_STATE_CLOSING\000"
 15406      4147455F 
 15406      53454E44 
 15406      45525F53 
 15406      54415445 
 15407              	.LASF162:
 15408 0353 616D7170 		.ascii	"amqpvalue_create_string\000"
 15408      76616C75 
 15408      655F6372 
 15408      65617465 
 15408      5F737472 
 15409              	.LASF18:
 15410 036b 53545249 		.ascii	"STRING_HANDLE\000"
 15410      4E475F48 
 15410      414E444C 
 15410      4500
 15411              	.LASF159:
 15412 0379 6D657373 		.ascii	"messaging_delivery_accepted\000"
 15412      6167696E 
 15412      675F6465 
 15412      6C697665 
 15412      72795F61 
 15413              	.LASF110:
 15414 0395 6D657373 		.ascii	"message\000"
 15414      61676500 
ARM GAS  C:\Users\Phuong\AppData\Local\Temp\ccu7x7Ah.s 			page 302


 15415              	.LASF74:
 15416 039d 6D657373 		.ascii	"message_sender\000"
 15416      6167655F 
 15416      73656E64 
 15416      657200
 15417              	.LASF112:
 15418 03ac 72657375 		.ascii	"result\000"
 15418      6C7400
 15419              	.LASF47:
 15420 03b3 4D455353 		.ascii	"MESSAGE_SEND_OK\000"
 15420      4147455F 
 15420      53454E44 
 15420      5F4F4B00 
 15421              	.LASF173:
 15422 03c3 6D656D6D 		.ascii	"memmove\000"
 15422      6F766500 
 15423              	.LASF203:
 15424 03cb 474E5520 		.ascii	"GNU C11 5.4.1 20160609 (release) [ARM/embedded-5-br"
 15424      43313120 
 15424      352E342E 
 15424      31203230 
 15424      31363036 
 15425 03fe 616E6368 		.ascii	"anch revision 237715] -mcpu=cortex-m0plus -mthumb -"
 15425      20726576 
 15425      6973696F 
 15425      6E203233 
 15425      37373135 
 15426 0431 67202D4F 		.ascii	"g -Og -ffunction-sections -ffat-lto-objects\000"
 15426      67202D66 
 15426      66756E63 
 15426      74696F6E 
 15426      2D736563 
 15427              	.LASF21:
 15428 045d 414D5150 		.ascii	"AMQP_VALUE_DATA_TAG\000"
 15428      5F56414C 
 15428      55455F44 
 15428      4154415F 
 15428      54414700 
 15429              	.LASF168:
 15430 0471 6D616C6C 		.ascii	"malloc\000"
 15430      6F6300
 15431              	.LASF26:
 15432 0478 53455353 		.ascii	"SESSION_INSTANCE_TAG\000"
 15432      494F4E5F 
 15432      494E5354 
 15432      414E4345 
 15432      5F544147 
 15433              	.LASF94:
 15434 048d 4D455353 		.ascii	"MESSAGE_OUTCOME_TAG\000"
 15434      4147455F 
 15434      4F555443 
 15434      4F4D455F 
 15434      54414700 
 15435              	.LASF163:
 15436 04a1 616D7170 		.ascii	"amqpvalue_get_inplace_described_value\000"
 15436      76616C75 
 15436      655F6765 
ARM GAS  C:\Users\Phuong\AppData\Local\Temp\ccu7x7Ah.s 			page 303


 15436      745F696E 
 15436      706C6163 
 15437              	.LASF101:
 15438 04c7 6F6E5F6D 		.ascii	"on_message_receiver_state_changed\000"
 15438      65737361 
 15438      67655F72 
 15438      65636569 
 15438      7665725F 
 15439              	.LASF186:
 15440 04e9 6D657373 		.ascii	"messagesender_open\000"
 15440      61676573 
 15440      656E6465 
 15440      725F6F70 
 15440      656E00
 15441              	.LASF180:
 15442 04fc 53545249 		.ascii	"STRING_c_str\000"
 15442      4E475F63 
 15442      5F737472 
 15442      00
 15443              	.LASF9:
 15444 0509 6C6F6E67 		.ascii	"long long unsigned int\000"
 15444      206C6F6E 
 15444      6720756E 
 15444      7369676E 
 15444      65642069 
 15445              	.LASF174:
 15446 0520 6D616C6C 		.ascii	"mallocAndStrcpy_s\000"
 15446      6F63416E 
 15446      64537472 
 15446      6370795F 
 15446      7300
 15447              	.LASF195:
 15448 0532 616D7170 		.ascii	"amqpvalue_create_int\000"
 15448      76616C75 
 15448      655F6372 
 15448      65617465 
 15448      5F696E74 
 15449              	.LASF158:
 15450 0547 6D657373 		.ascii	"messaging_delivery_rejected\000"
 15450      6167696E 
 15450      675F6465 
 15450      6C697665 
 15450      72795F72 
 15451              	.LASF133:
 15452 0563 6170695F 		.ascii	"api_version_property_value\000"
 15452      76657273 
 15452      696F6E5F 
 15452      70726F70 
 15452      65727479 
 15453              	.LASF83:
 15454 057e 6D657468 		.ascii	"method_request_handle_count\000"
 15454      6F645F72 
 15454      65717565 
 15454      73745F68 
 15454      616E646C 
 15455              	.LASF205:
 15456 059a 433A5C55 		.ascii	"C:\\Users\\Phuong\\Documents\\PSoC Creator\\Dec0820"
ARM GAS  C:\Users\Phuong\AppData\Local\Temp\ccu7x7Ah.s 			page 304


 15456      73657273 
 15456      5C506875 
 15456      6F6E675C 
 15456      446F6375 
 15457 05c8 31385C69 		.ascii	"18\\iot-sdk-iot-dev\\PSOC6_FreeRTOS+LwIP+MbedTLS_Az"
 15457      6F742D73 
 15457      646B2D69 
 15457      6F742D64 
 15457      65765C50 
 15458 05f9 7572652D 		.ascii	"ure-IOT-Hub-Demo\\PSOC6_FreeRTOS+LwIP+MbedTLS_Azure"
 15458      494F542D 
 15458      4875622D 
 15458      44656D6F 
 15458      5C50534F 
 15459 062b 2D494F54 		.ascii	"-IOT-Hub-Demo.cydsn\000"
 15459      2D487562 
 15459      2D44656D 
 15459      6F2E6379 
 15459      64736E00 
 15460              	.LASF106:
 15461 063f 6F6E5F6D 		.ascii	"on_message_sender_state_changed\000"
 15461      65737361 
 15461      67655F73 
 15461      656E6465 
 15461      725F7374 
 15462              	.LASF45:
 15463 065f 4D455353 		.ascii	"MESSAGE_RECEIVER_INSTANCE_TAG\000"
 15463      4147455F 
 15463      52454345 
 15463      49564552 
 15463      5F494E53 
 15464              	.LASF64:
 15465 067d 696F7468 		.ascii	"iothubtransport_amqp_methods_handle\000"
 15465      75627472 
 15465      616E7370 
 15465      6F72745F 
 15465      616D7170 
 15466              	.LASF161:
 15467 06a1 616D7170 		.ascii	"amqpvalue_get_map_value\000"
 15467      76616C75 
 15467      655F6765 
 15467      745F6D61 
 15467      705F7661 
 15468              	.LASF85:
 15469 06b9 73656E64 		.ascii	"sender_link_disconnected\000"
 15469      65725F6C 
 15469      696E6B5F 
 15469      64697363 
 15469      6F6E6E65 
 15470              	.LASF100:
 15471 06d2 63616C6C 		.ascii	"call_methods_unsubscribed_if_needed\000"
 15471      5F6D6574 
 15471      686F6473 
 15471      5F756E73 
 15471      75627363 
 15472              	.LASF178:
 15473 06f6 6C696E6B 		.ascii	"link_set_attach_properties\000"
ARM GAS  C:\Users\Phuong\AppData\Local\Temp\ccu7x7Ah.s 			page 305


 15473      5F736574 
 15473      5F617474 
 15473      6163685F 
 15473      70726F70 
 15474              	.LASF50:
 15475 0711 4D455353 		.ascii	"MESSAGE_SEND_CANCELLED\000"
 15475      4147455F 
 15475      53454E44 
 15475      5F43414E 
 15475      43454C4C 
 15476              	.LASF15:
 15477 0728 73697A65 		.ascii	"size_t\000"
 15477      5F7400
 15478              	.LASF197:
 15479 072f 616D7170 		.ascii	"amqpvalue_create_uuid\000"
 15479      76616C75 
 15479      655F6372 
 15479      65617465 
 15479      5F757569 
 15480              	.LASF23:
 15481 0745 5F426F6F 		.ascii	"_Bool\000"
 15481      6C00
 15482              	.LASF122:
 15483 074b 72656D6F 		.ascii	"remove_tracked_handle\000"
 15483      76655F74 
 15483      7261636B 
 15483      65645F68 
 15483      616E646C 
 15484              	.LASF33:
 15485 0761 62797465 		.ascii	"bytes\000"
 15485      7300
 15486              	.LASF22:
 15487 0767 75756964 		.ascii	"uuid\000"
 15487      00
 15488              	.LASF157:
 15489 076c 66726565 		.ascii	"free\000"
 15489      00
 15490              	.LASF196:
 15491 0771 6D657373 		.ascii	"message_set_application_properties\000"
 15491      6167655F 
 15491      7365745F 
 15491      6170706C 
 15491      69636174 
 15492              	.LASF144:
 15493 0794 73656E64 		.ascii	"sender_target\000"
 15493      65725F74 
 15493      61726765 
 15493      7400
 15494              	.LASF201:
 15495 07a2 6D657373 		.ascii	"message_destroy\000"
 15495      6167655F 
 15495      64657374 
 15495      726F7900 
 15496              	.LASF87:
 15497 07b2 4F4E5F4D 		.ascii	"ON_METHOD_REQUEST_RECEIVED\000"
 15497      4554484F 
 15497      445F5245 
ARM GAS  C:\Users\Phuong\AppData\Local\Temp\ccu7x7Ah.s 			page 306


 15497      51554553 
 15497      545F5245 
 15498              	.LASF71:
 15499 07cd 72656365 		.ascii	"receiver_link\000"
 15499      69766572 
 15499      5F6C696E 
 15499      6B00
 15500              	.LASF11:
 15501 07db 63686172 		.ascii	"char\000"
 15501      00
 15502              	.LASF24:
 15503 07e0 6669656C 		.ascii	"fields\000"
 15503      647300
 15504              	.LASF81:
 15505 07e7 73756273 		.ascii	"subscribe_state\000"
 15505      63726962 
 15505      655F7374 
 15505      61746500 
 15506              	.LASF119:
 15507 07f7 70726F70 		.ascii	"property_key\000"
 15507      65727479 
 15507      5F6B6579 
 15507      00
 15508              	.LASF156:
 15509 0804 616D7170 		.ascii	"amqpvalue_get_string\000"
 15509      76616C75 
 15509      655F6765 
 15509      745F7374 
 15509      72696E67 
 15510              	.LASF108:
 15511 0819 73656E64 		.ascii	"send_result\000"
 15511      5F726573 
 15511      756C7400 
 15512              	.LASF13:
 15513 0825 415A5F4C 		.ascii	"AZ_LOG_INFO\000"
 15513      4F475F49 
 15513      4E464F00 
 15514              	.LASF121:
 15515 0831 6D657468 		.ascii	"method_name\000"
 15515      6F645F6E 
 15515      616D6500 
 15516              	.LASF135:
 15517 083d 63726561 		.ascii	"create_requests_link_name\000"
 15517      74655F72 
 15517      65717565 
 15517      7374735F 
 15517      6C696E6B 
 15518              	.LASF65:
 15519 0857 636F7272 		.ascii	"correlation_id\000"
 15519      656C6174 
 15519      696F6E5F 
 15519      696400
 15520              	.LASF39:
 15521 0866 4D455353 		.ascii	"MESSAGE_RECEIVER_STATE_OPENING\000"
 15521      4147455F 
 15521      52454345 
 15521      49564552 
ARM GAS  C:\Users\Phuong\AppData\Local\Temp\ccu7x7Ah.s 			page 307


 15521      5F535441 
 15522              	.LASF20:
 15523 0885 53545249 		.ascii	"STRING_TAG\000"
 15523      4E475F54 
 15523      414700
 15524              	.LASF86:
 15525 0890 4F4E5F4D 		.ascii	"ON_METHODS_ERROR\000"
 15525      4554484F 
 15525      44535F45 
 15525      52524F52 
 15525      00
 15526              	.LASF120:
 15527 08a1 70726F70 		.ascii	"property_value\000"
 15527      65727479 
 15527      5F76616C 
 15527      756500
 15528              	.LASF76:
 15529 08b0 6F6E5F6D 		.ascii	"on_method_request_received_context\000"
 15529      6574686F 
 15529      645F7265 
 15529      71756573 
 15529      745F7265 
 15530              	.LASF49:
 15531 08d3 4D455353 		.ascii	"MESSAGE_SEND_TIMEOUT\000"
 15531      4147455F 
 15531      53454E44 
 15531      5F54494D 
 15531      454F5554 
 15532              	.LASF93:
 15533 08e8 494F5448 		.ascii	"IOTHUBTRANSPORT_AMQP_METHODS\000"
 15533      55425452 
 15533      414E5350 
 15533      4F52545F 
 15533      414D5150 
 15534              	.LASF57:
 15535 0905 4D455353 		.ascii	"MESSAGE_SENDER_STATE_ERROR\000"
 15535      4147455F 
 15535      53454E44 
 15535      45525F53 
 15535      54415445 
 15536              	.LASF70:
 15537 0920 686F7374 		.ascii	"hostname\000"
 15537      6E616D65 
 15537      00
 15538              	.LASF188:
 15539 0929 6D657373 		.ascii	"messaging_create_target\000"
 15539      6167696E 
 15539      675F6372 
 15539      65617465 
 15539      5F746172 
 15540              	.LASF192:
 15541 0941 6C696E6B 		.ascii	"link_destroy\000"
 15541      5F646573 
 15541      74726F79 
 15541      00
 15542              	.LASF200:
 15543 094e 70726F70 		.ascii	"properties_create\000"
ARM GAS  C:\Users\Phuong\AppData\Local\Temp\ccu7x7Ah.s 			page 308


 15543      65727469 
 15543      65735F63 
 15543      72656174 
 15543      6500
 15544              	.LASF1:
 15545 0960 6C6F6E67 		.ascii	"long long int\000"
 15545      206C6F6E 
 15545      6720696E 
 15545      7400
 15546              	.LASF169:
 15547 096e 70726F70 		.ascii	"properties_get_correlation_id\000"
 15547      65727469 
 15547      65735F67 
 15547      65745F63 
 15547      6F727265 
 15548              	.LASF98:
 15549 098c 4D455353 		.ascii	"MESSAGE_OUTCOME\000"
 15549      4147455F 
 15549      4F555443 
 15549      4F4D4500 
 15550              	.LASF126:
 15551 099c 63726561 		.ascii	"create_correlation_id\000"
 15551      74655F63 
 15551      6F727265 
 15551      6C617469 
 15551      6F6E5F69 
 15552              	.LASF125:
 15553 09b2 696F7468 		.ascii	"iothubtransportamqp_methods_create\000"
 15553      75627472 
 15553      616E7370 
 15553      6F727461 
 15553      6D71705F 
 15554              	.LASF103:
 15555 09d5 636F6E74 		.ascii	"context\000"
 15555      65787400 
 15556              	.LASF109:
 15557 09dd 64656C69 		.ascii	"delivery_state\000"
 15557      76657279 
 15557      5F737461 
 15557      746500
 15558              	.LASF55:
 15559 09ec 4D455353 		.ascii	"MESSAGE_SENDER_STATE_OPEN\000"
 15559      4147455F 
 15559      53454E44 
 15559      45525F53 
 15559      54415445 
 15560              	.LASF142:
 15561 0a06 72657175 		.ascii	"requests_link_name\000"
 15561      65737473 
 15561      5F6C696E 
 15561      6B5F6E61 
 15561      6D6500
 15562              	.LASF105:
 15563 0a19 70726576 		.ascii	"previous_state\000"
 15563      696F7573 
 15563      5F737461 
 15563      746500
ARM GAS  C:\Users\Phuong\AppData\Local\Temp\ccu7x7Ah.s 			page 309


 15564              	.LASF16:
 15565 0a28 4C4F475F 		.ascii	"LOG_CATEGORY\000"
 15565      43415445 
 15565      474F5259 
 15565      00
 15566              	.LASF75:
 15567 0a35 6F6E5F6D 		.ascii	"on_method_request_received\000"
 15567      6574686F 
 15567      645F7265 
 15567      71756573 
 15567      745F7265 
 15568              	.LASF30:
 15569 0a50 50524F50 		.ascii	"PROPERTIES_INSTANCE_TAG\000"
 15569      45525449 
 15569      45535F49 
 15569      4E535441 
 15569      4E43455F 
 15570              	.LASF206:
 15571 0a68 6D656D73 		.ascii	"memset\000"
 15571      657400
 15572              	.LASF177:
 15573 0a6f 616D7170 		.ascii	"amqpvalue_set_map_value\000"
 15573      76616C75 
 15573      655F7365 
 15573      745F6D61 
 15573      705F7661 
 15574              	.LASF43:
 15575 0a87 4D455353 		.ascii	"MESSAGE_RECEIVER_STATE\000"
 15575      4147455F 
 15575      52454345 
 15575      49564552 
 15575      5F535441 
 15576              	.LASF27:
 15577 0a9e 4C494E4B 		.ascii	"LINK_HANDLE\000"
 15577      5F48414E 
 15577      444C4500 
 15578              	.LASF202:
 15579 0aaa 6D657373 		.ascii	"message_create\000"
 15579      6167655F 
 15579      63726561 
 15579      746500
 15580              	.LASF51:
 15581 0ab9 4D455353 		.ascii	"MESSAGE_SEND_RESULT\000"
 15581      4147455F 
 15581      53454E44 
 15581      5F524553 
 15581      554C5400 
 15582              	.LASF185:
 15583 0acd 6D657373 		.ascii	"messagesender_create\000"
 15583      61676573 
 15583      656E6465 
 15583      725F6372 
 15583      65617465 
 15584              	.LASF129:
 15585 0ae2 6C696E6B 		.ascii	"link_attach_properties\000"
 15585      5F617474 
 15585      6163685F 
ARM GAS  C:\Users\Phuong\AppData\Local\Temp\ccu7x7Ah.s 			page 310


 15585      70726F70 
 15585      65727469 
 15586              	.LASF164:
 15587 0af9 6D657373 		.ascii	"message_get_application_properties\000"
 15587      6167655F 
 15587      6765745F 
 15587      6170706C 
 15587      69636174 
 15588              	.LASF139:
 15589 0b1c 70656572 		.ascii	"peer_endpoint_string\000"
 15589      5F656E64 
 15589      706F696E 
 15589      745F7374 
 15589      72696E67 
 15590              	.LASF187:
 15591 0b31 6D657373 		.ascii	"messagereceiver_open\000"
 15591      61676572 
 15591      65636569 
 15591      7665725F 
 15591      6F70656E 
 15592              	.LASF160:
 15593 0b46 616D7170 		.ascii	"amqpvalue_destroy\000"
 15593      76616C75 
 15593      655F6465 
 15593      7374726F 
 15593      7900
 15594              	.LASF131:
 15595 0b58 6368616E 		.ascii	"channel_correlation_id_property_value\000"
 15595      6E656C5F 
 15595      636F7272 
 15595      656C6174 
 15595      696F6E5F 
 15596              	.LASF95:
 15597 0b7e 4D455353 		.ascii	"MESSAGE_OUTCOME_ACCEPTED\000"
 15597      4147455F 
 15597      4F555443 
 15597      4F4D455F 
 15597      41434345 
 15598              	.LASF175:
 15599 0b97 53545249 		.ascii	"STRING_construct_sprintf\000"
 15599      4E475F63 
 15599      6F6E7374 
 15599      72756374 
 15599      5F737072 
 15600              	.LASF2:
 15601 0bb0 6C6F6E67 		.ascii	"long double\000"
 15601      20646F75 
 15601      626C6500 
 15602              	.LASF29:
 15603 0bbc 50524F50 		.ascii	"PROPERTIES_HANDLE\000"
 15603      45525449 
 15603      45535F48 
 15603      414E444C 
 15603      4500
 15604              	.LASF191:
 15605 0bce 6D657373 		.ascii	"messagesender_destroy\000"
 15605      61676573 
ARM GAS  C:\Users\Phuong\AppData\Local\Temp\ccu7x7Ah.s 			page 311


 15605      656E6465 
 15605      725F6465 
 15605      7374726F 
 15606              	.LASF181:
 15607 0be4 53545249 		.ascii	"STRING_delete\000"
 15607      4E475F64 
 15607      656C6574 
 15607      6500
 15608              	.LASF61:
 15609 0bf2 494F5448 		.ascii	"IOTHUBTRANSPORT_AMQP_METHOD_HANDLE\000"
 15609      55425452 
 15609      414E5350 
 15609      4F52545F 
 15609      414D5150 
 15610              	.LASF44:
 15611 0c15 4D455353 		.ascii	"MESSAGE_RECEIVER_HANDLE\000"
 15611      4147455F 
 15611      52454345 
 15611      49564552 
 15611      5F48414E 
 15612              	.LASF12:
 15613 0c2d 415A5F4C 		.ascii	"AZ_LOG_ERROR\000"
 15613      4F475F45 
 15613      52524F52 
 15613      00
 15614              	.LASF128:
 15615 0c3a 7365745F 		.ascii	"set_link_attach_properties\000"
 15615      6C696E6B 
 15615      5F617474 
 15615      6163685F 
 15615      70726F70 
 15616              	.LASF19:
 15617 0c55 414D5150 		.ascii	"AMQP_VALUE\000"
 15617      5F56414C 
 15617      554500
 15618              	.LASF31:
 15619 0c60 4D455353 		.ascii	"MESSAGE_HANDLE\000"
 15619      4147455F 
 15619      48414E44 
 15619      4C4500
 15620              	.LASF78:
 15621 0c6f 6F6E5F6D 		.ascii	"on_methods_error_context\000"
 15621      6574686F 
 15621      64735F65 
 15621      72726F72 
 15621      5F636F6E 
 15622              	.LASF134:
 15623 0c88 63726561 		.ascii	"create_peer_endpoint_name\000"
 15623      74655F70 
 15623      6565725F 
 15623      656E6470 
 15623      6F696E74 
 15624              	.LASF5:
 15625 0ca2 73686F72 		.ascii	"short int\000"
 15625      7420696E 
 15625      7400
 15626              	.LASF96:
ARM GAS  C:\Users\Phuong\AppData\Local\Temp\ccu7x7Ah.s 			page 312


 15627 0cac 4D455353 		.ascii	"MESSAGE_OUTCOME_REJECTED\000"
 15627      4147455F 
 15627      4F555443 
 15627      4F4D455F 
 15627      52454A45 
 15628              	.LASF199:
 15629 0cc5 6D657373 		.ascii	"message_set_properties\000"
 15629      6167655F 
 15629      7365745F 
 15629      70726F70 
 15629      65727469 
 15630              	.LASF7:
 15631 0cdc 6C6F6E67 		.ascii	"long int\000"
 15631      20696E74 
 15631      00
 15632              	.LASF59:
 15633 0ce5 4D455353 		.ascii	"MESSAGE_SENDER_HANDLE\000"
 15633      4147455F 
 15633      53454E44 
 15633      45525F48 
 15633      414E444C 
 15634              	.LASF88:
 15635 0cfb 4F4E5F4D 		.ascii	"ON_METHODS_UNSUBSCRIBED\000"
 15635      4554484F 
 15635      44535F55 
 15635      4E535542 
 15635      53435249 
 15636              	.LASF34:
 15637 0d13 6C656E67 		.ascii	"length\000"
 15637      746800
 15638              	.LASF136:
 15639 0d1a 63726561 		.ascii	"create_responses_link_name\000"
 15639      74655F72 
 15639      6573706F 
 15639      6E736573 
 15639      5F6C696E 
 15640              	.LASF42:
 15641 0d35 4D455353 		.ascii	"MESSAGE_RECEIVER_STATE_ERROR\000"
 15641      4147455F 
 15641      52454345 
 15641      49564552 
 15641      5F535441 
 15642              	.LASF32:
 15643 0d52 4D455353 		.ascii	"MESSAGE_INSTANCE_TAG\000"
 15643      4147455F 
 15643      494E5354 
 15643      414E4345 
 15643      5F544147 
 15644              	.LASF153:
 15645 0d67 70726F70 		.ascii	"property_key_status\000"
 15645      65727479 
 15645      5F6B6579 
 15645      5F737461 
 15645      74757300 
 15646              	.LASF141:
 15647 0d7b 72656365 		.ascii	"receiver_target\000"
 15647      69766572 
ARM GAS  C:\Users\Phuong\AppData\Local\Temp\ccu7x7Ah.s 			page 313


 15647      5F746172 
 15647      67657400 
 15648              	.LASF53:
 15649 0d8b 4D455353 		.ascii	"MESSAGE_SENDER_STATE_IDLE\000"
 15649      4147455F 
 15649      53454E44 
 15649      45525F53 
 15649      54415445 
 15650              	.LASF182:
 15651 0da5 616D7170 		.ascii	"amqpvalue_create_map\000"
 15651      76616C75 
 15651      655F6372 
 15651      65617465 
 15651      5F6D6170 
 15652              	.LASF97:
 15653 0dba 4D455353 		.ascii	"MESSAGE_OUTCOME_RELEASED\000"
 15653      4147455F 
 15653      4F555443 
 15653      4F4D455F 
 15653      52454C45 
 15654              	.LASF113:
 15655 0dd3 6D657373 		.ascii	"message_outcome\000"
 15655      6167655F 
 15655      6F757463 
 15655      6F6D6500 
 15656              	.LASF17:
 15657 0de3 4C4F4747 		.ascii	"LOGGER_LOG\000"
 15657      45525F4C 
 15657      4F4700
 15658              	.LASF150:
 15659 0dee 72657370 		.ascii	"response_size\000"
 15659      6F6E7365 
 15659      5F73697A 
 15659      6500
 15660              	.LASF114:
 15661 0dfc 6D657468 		.ascii	"method_handle\000"
 15661      6F645F68 
 15661      616E646C 
 15661      6500
 15662              	.LASF170:
 15663 0e0a 70726F70 		.ascii	"properties_destroy\000"
 15663      65727469 
 15663      65735F64 
 15663      65737472 
 15663      6F7900
 15664              	.LASF10:
 15665 0e1d 73697A65 		.ascii	"sizetype\000"
 15665      74797065 
 15665      00
 15666              	.LASF8:
 15667 0e26 6C6F6E67 		.ascii	"long unsigned int\000"
 15667      20756E73 
 15667      69676E65 
 15667      6420696E 
 15667      7400
 15668              	.LASF40:
 15669 0e38 4D455353 		.ascii	"MESSAGE_RECEIVER_STATE_OPEN\000"
ARM GAS  C:\Users\Phuong\AppData\Local\Temp\ccu7x7Ah.s 			page 314


 15669      4147455F 
 15669      52454345 
 15669      49564552 
 15669      5F535441 
 15670              	.LASF171:
 15671 0e54 6D657373 		.ascii	"message_get_properties\000"
 15671      6167655F 
 15671      6765745F 
 15671      70726F70 
 15671      65727469 
 15672              	.LASF67:
 15673 0e6b 494F5448 		.ascii	"IOTHUBTRANSPORT_AMQP_METHODS_TAG\000"
 15673      55425452 
 15673      414E5350 
 15673      4F52545F 
 15673      414D5150 
 15674              	.LASF147:
 15675 0e8c 696F7468 		.ascii	"iothubtransportamqp_methods_destroy\000"
 15675      75627472 
 15675      616E7370 
 15675      6F727461 
 15675      6D71705F 
 15676              	.LASF73:
 15677 0eb0 6D657373 		.ascii	"message_receiver\000"
 15677      6167655F 
 15677      72656365 
 15677      69766572 
 15677      00
 15678              	.LASF52:
 15679 0ec1 4D455353 		.ascii	"MESSAGE_SENDER_STATE_TAG\000"
 15679      4147455F 
 15679      53454E44 
 15679      45525F53 
 15679      54415445 
 15680              	.LASF138:
 15681 0eda 73657373 		.ascii	"session_handle\000"
 15681      696F6E5F 
 15681      68616E64 
 15681      6C6500
 15682              	.LASF154:
 15683 0ee9 70726F70 		.ascii	"property_value_status\000"
 15683      65727479 
 15683      5F76616C 
 15683      75655F73 
 15683      74617475 
 15684              	.LASF4:
 15685 0eff 756E7369 		.ascii	"unsigned char\000"
 15685      676E6564 
 15685      20636861 
 15685      7200
 15686              	.LASF146:
 15687 0f0d 696F7468 		.ascii	"iothubtransportamqp_methods_unsubscribe\000"
 15687      75627472 
 15687      616E7370 
 15687      6F727461 
 15687      6D71705F 
 15688              	.LASF48:
ARM GAS  C:\Users\Phuong\AppData\Local\Temp\ccu7x7Ah.s 			page 315


 15689 0f35 4D455353 		.ascii	"MESSAGE_SEND_ERROR\000"
 15689      4147455F 
 15689      53454E44 
 15689      5F455252 
 15689      4F5200
 15690              	.LASF91:
 15691 0f48 53554253 		.ascii	"SUBSCRIBE_STATE_SUBSCRIBED\000"
 15691      43524942 
 15691      455F5354 
 15691      4154455F 
 15691      53554253 
 15692              	.LASF132:
 15693 0f63 6170695F 		.ascii	"api_version_property_key\000"
 15693      76657273 
 15693      696F6E5F 
 15693      70726F70 
 15693      65727479 
 15694              	.LASF152:
 15695 0f7c 6170706C 		.ascii	"application_properties_map\000"
 15695      69636174 
 15695      696F6E5F 
 15695      70726F70 
 15695      65727469 
 15696              	.LASF36:
 15697 0f97 4C4F475F 		.ascii	"LOG_CATEGORY_TAG\000"
 15697      43415445 
 15697      474F5259 
 15697      5F544147 
 15697      00
 15698              	.LASF35:
 15699 0fa8 42494E41 		.ascii	"BINARY_DATA\000"
 15699      52595F44 
 15699      41544100 
 15700              	.LASF189:
 15701 0fb4 6D657373 		.ascii	"messaging_create_source\000"
 15701      6167696E 
 15701      675F6372 
 15701      65617465 
 15701      5F736F75 
 15702              	.LASF204:
 15703 0fcc 536F7572 		.ascii	"Source\\azure_iot_sdk\\iothub_client\\src\\iothubtr"
 15703      63655C61 
 15703      7A757265 
 15703      5F696F74 
 15703      5F73646B 
 15704 0ffb 616E7370 		.ascii	"ansportamqp_methods.c\000"
 15704      6F727461 
 15704      6D71705F 
 15704      6D657468 
 15704      6F64732E 
 15705              	.LASF179:
 15706 1011 616D7170 		.ascii	"amqpvalue_create_symbol\000"
 15706      76616C75 
 15706      655F6372 
 15706      65617465 
 15706      5F73796D 
 15707              	.LASF82:
ARM GAS  C:\Users\Phuong\AppData\Local\Temp\ccu7x7Ah.s 			page 316


 15708 1029 6D657468 		.ascii	"method_request_handles\000"
 15708      6F645F72 
 15708      65717565 
 15708      73745F68 
 15708      616E646C 
 15709              	.LASF172:
 15710 1040 6D657373 		.ascii	"messaging_delivery_released\000"
 15710      6167696E 
 15710      675F6465 
 15710      6C697665 
 15710      72795F72 
 15711              	.LASF166:
 15712 105c 7265616C 		.ascii	"realloc\000"
 15712      6C6F6300 
 15713              	.LASF143:
 15714 1064 73656E64 		.ascii	"sender_source\000"
 15714      65725F73 
 15714      6F757263 
 15714      6500
 15715              	.LASF28:
 15716 1072 4C494E4B 		.ascii	"LINK_INSTANCE_TAG\000"
 15716      5F494E53 
 15716      54414E43 
 15716      455F5441 
 15716      4700
 15717              	.LASF14:
 15718 1084 415A5F4C 		.ascii	"AZ_LOG_TRACE\000"
 15718      4F475F54 
 15718      52414345 
 15718      00
 15719              	.LASF151:
 15720 1091 73746174 		.ascii	"status_code\000"
 15720      75735F63 
 15720      6F646500 
 15721              	.LASF130:
 15722 109d 6368616E 		.ascii	"channel_correlation_id_property_key\000"
 15722      6E656C5F 
 15722      636F7272 
 15722      656C6174 
 15722      696F6E5F 
 15723              	.LASF62:
 15724 10c1 42494E41 		.ascii	"BINARY_DATA_TAG\000"
 15724      52595F44 
 15724      4154415F 
 15724      54414700 
 15725              	.LASF3:
 15726 10d1 7369676E 		.ascii	"signed char\000"
 15726      65642063 
 15726      68617200 
 15727              	.LASF165:
 15728 10dd 6D657373 		.ascii	"message_get_body_amqp_data_in_place\000"
 15728      6167655F 
 15728      6765745F 
 15728      626F6479 
 15728      5F616D71 
 15729              	.LASF6:
 15730 1101 73686F72 		.ascii	"short unsigned int\000"
ARM GAS  C:\Users\Phuong\AppData\Local\Temp\ccu7x7Ah.s 			page 317


 15730      7420756E 
 15730      7369676E 
 15730      65642069 
 15730      6E7400
 15731              	.LASF111:
 15732 1114 70726F70 		.ascii	"properties\000"
 15732      65727469 
 15732      657300
 15733              	.LASF124:
 15734 111f 5F5F6675 		.ascii	"__func__\000"
 15734      6E635F5F 
 15734      00
 15735              	.LASF118:
 15736 1128 616D7170 		.ascii	"amqp_properties_map\000"
 15736      5F70726F 
 15736      70657274 
 15736      6965735F 
 15736      6D617000 
 15737              	.LASF46:
 15738 113c 4D455353 		.ascii	"MESSAGE_SEND_RESULT_TAG\000"
 15738      4147455F 
 15738      53454E44 
 15738      5F524553 
 15738      554C545F 
 15739              	.LASF176:
 15740 1154 53545249 		.ascii	"STRING_construct\000"
 15740      4E475F63 
 15740      6F6E7374 
 15740      72756374 
 15740      00
 15741              	.LASF92:
 15742 1165 53554253 		.ascii	"SUBSCRIBE_STATE\000"
 15742      43524942 
 15742      455F5354 
 15742      41544500 
 15743              	.LASF167:
 15744 1175 616D7170 		.ascii	"amqpvalue_get_uuid\000"
 15744      76616C75 
 15744      655F6765 
 15744      745F7575 
 15744      696400
 15745              	.LASF89:
 15746 1188 53554253 		.ascii	"SUBSCRIBE_STATE_TAG\000"
 15746      43524942 
 15746      455F5354 
 15746      4154455F 
 15746      54414700 
 15747              	.LASF184:
 15748 119c 6D657373 		.ascii	"messagereceiver_create\000"
 15748      61676572 
 15748      65636569 
 15748      7665725F 
 15748      63726561 
 15749              	.LASF79:
 15750 11b3 6F6E5F6D 		.ascii	"on_methods_unsubscribed\000"
 15750      6574686F 
 15750      64735F75 
ARM GAS  C:\Users\Phuong\AppData\Local\Temp\ccu7x7Ah.s 			page 318


 15750      6E737562 
 15750      73637269 
 15751              	.LASF115:
 15752 11cb 6E65775F 		.ascii	"new_handles\000"
 15752      68616E64 
 15752      6C657300 
 15753              		.ident	"GCC: (GNU Tools for ARM Embedded Processors) 5.4.1 20160609 (release) [ARM/embedded-5-bran
