ARM GAS  C:\Users\Phuong\AppData\Local\Temp\cc4zbCpa.s 			page 1


   1              		.syntax unified
   2              		.cpu cortex-m0plus
   3              		.fpu softvfp
   4              		.eabi_attribute 20, 1
   5              		.eabi_attribute 21, 1
   6              		.eabi_attribute 23, 3
   7              		.eabi_attribute 24, 1
   8              		.eabi_attribute 25, 1
   9              		.eabi_attribute 26, 1
  10              		.eabi_attribute 30, 1
  11              		.eabi_attribute 34, 0
  12              		.eabi_attribute 18, 4
  13              		.thumb
  14              		.syntax unified
  15              		.file	"iothub_message.c"
  16              		.text
  17              	.Ltext0:
  18              		.cfi_sections	.debug_frame
  19              		.section	.text.ContainsOnlyUsAscii,"ax",%progbits
  20              		.align	2
  21              		.code	16
  22              		.thumb_func
  23              		.type	ContainsOnlyUsAscii, %function
  24              	ContainsOnlyUsAscii:
  25              	.LFB5:
  26              		.file 1 "Source\\azure_iot_sdk\\iothub_client\\src\\iothub_message.c"
   1:Source\azure_iot_sdk\iothub_client\src/iothub_message.c **** // Copyright (c) Microsoft. All rights reserved.
   2:Source\azure_iot_sdk\iothub_client\src/iothub_message.c **** // Licensed under the MIT license. See LICENSE file in the project root for full license informatio
   3:Source\azure_iot_sdk\iothub_client\src/iothub_message.c **** 
   4:Source\azure_iot_sdk\iothub_client\src/iothub_message.c **** #include <stdlib.h>
   5:Source\azure_iot_sdk\iothub_client\src/iothub_message.c **** #include "azure_c_shared_utility/optimize_size.h"
   6:Source\azure_iot_sdk\iothub_client\src/iothub_message.c **** #include "azure_c_shared_utility/gballoc.h"
   7:Source\azure_iot_sdk\iothub_client\src/iothub_message.c **** #include "azure_c_shared_utility/xlogging.h"
   8:Source\azure_iot_sdk\iothub_client\src/iothub_message.c **** #include "azure_c_shared_utility/buffer_.h"
   9:Source\azure_iot_sdk\iothub_client\src/iothub_message.c **** 
  10:Source\azure_iot_sdk\iothub_client\src/iothub_message.c **** #include "iothub_message.h"
  11:Source\azure_iot_sdk\iothub_client\src/iothub_message.c **** 
  12:Source\azure_iot_sdk\iothub_client\src/iothub_message.c **** DEFINE_ENUM_STRINGS(IOTHUB_MESSAGE_RESULT, IOTHUB_MESSAGE_RESULT_VALUES);
  13:Source\azure_iot_sdk\iothub_client\src/iothub_message.c **** DEFINE_ENUM_STRINGS(IOTHUBMESSAGE_CONTENT_TYPE, IOTHUBMESSAGE_CONTENT_TYPE_VALUES);
  14:Source\azure_iot_sdk\iothub_client\src/iothub_message.c **** 
  15:Source\azure_iot_sdk\iothub_client\src/iothub_message.c **** #define LOG_IOTHUB_MESSAGE_ERROR() \
  16:Source\azure_iot_sdk\iothub_client\src/iothub_message.c ****     LogError("(result = %s)", ENUM_TO_STRING(IOTHUB_MESSAGE_RESULT, result));
  17:Source\azure_iot_sdk\iothub_client\src/iothub_message.c **** 
  18:Source\azure_iot_sdk\iothub_client\src/iothub_message.c **** typedef struct IOTHUB_MESSAGE_HANDLE_DATA_TAG
  19:Source\azure_iot_sdk\iothub_client\src/iothub_message.c **** {
  20:Source\azure_iot_sdk\iothub_client\src/iothub_message.c ****     IOTHUBMESSAGE_CONTENT_TYPE contentType;
  21:Source\azure_iot_sdk\iothub_client\src/iothub_message.c ****     union
  22:Source\azure_iot_sdk\iothub_client\src/iothub_message.c ****     {
  23:Source\azure_iot_sdk\iothub_client\src/iothub_message.c ****         BUFFER_HANDLE byteArray;
  24:Source\azure_iot_sdk\iothub_client\src/iothub_message.c ****         STRING_HANDLE string;
  25:Source\azure_iot_sdk\iothub_client\src/iothub_message.c ****     } value;
  26:Source\azure_iot_sdk\iothub_client\src/iothub_message.c ****     MAP_HANDLE properties;
  27:Source\azure_iot_sdk\iothub_client\src/iothub_message.c ****     char* messageId;
  28:Source\azure_iot_sdk\iothub_client\src/iothub_message.c ****     char* correlationId;
  29:Source\azure_iot_sdk\iothub_client\src/iothub_message.c ****     char* userDefinedContentType;
  30:Source\azure_iot_sdk\iothub_client\src/iothub_message.c ****     char* contentEncoding;
  31:Source\azure_iot_sdk\iothub_client\src/iothub_message.c ****     char* outputName;
ARM GAS  C:\Users\Phuong\AppData\Local\Temp\cc4zbCpa.s 			page 2


  32:Source\azure_iot_sdk\iothub_client\src/iothub_message.c ****     char* inputName;
  33:Source\azure_iot_sdk\iothub_client\src/iothub_message.c ****     char* connectionModuleId;
  34:Source\azure_iot_sdk\iothub_client\src/iothub_message.c ****     char* connectionDeviceId;
  35:Source\azure_iot_sdk\iothub_client\src/iothub_message.c ****     IOTHUB_MESSAGE_DIAGNOSTIC_PROPERTY_DATA_HANDLE diagnosticData;
  36:Source\azure_iot_sdk\iothub_client\src/iothub_message.c **** }IOTHUB_MESSAGE_HANDLE_DATA;
  37:Source\azure_iot_sdk\iothub_client\src/iothub_message.c **** 
  38:Source\azure_iot_sdk\iothub_client\src/iothub_message.c **** static bool ContainsOnlyUsAscii(const char* asciiValue)
  39:Source\azure_iot_sdk\iothub_client\src/iothub_message.c **** {
  27              		.loc 1 39 0
  28              		.cfi_startproc
  29              		@ args = 0, pretend = 0, frame = 0
  30              		@ frame_needed = 0, uses_anonymous_args = 0
  31              		@ link register save eliminated.
  32              	.LVL0:
  40:Source\azure_iot_sdk\iothub_client\src/iothub_message.c ****     bool result = true;
  41:Source\azure_iot_sdk\iothub_client\src/iothub_message.c ****     const char* iterator = asciiValue;
  42:Source\azure_iot_sdk\iothub_client\src/iothub_message.c ****     while (iterator != NULL && *iterator != '\0')
  33              		.loc 1 42 0
  34 0000 04E0     		b	.L2
  35              	.LVL1:
  36              	.L4:
  43:Source\azure_iot_sdk\iothub_client\src/iothub_message.c ****     {
  44:Source\azure_iot_sdk\iothub_client\src/iothub_message.c ****         // Allow only printable ascii char
  45:Source\azure_iot_sdk\iothub_client\src/iothub_message.c ****         if (*iterator < ' ' || *iterator > '~')
  37              		.loc 1 45 0
  38 0002 203B     		subs	r3, r3, #32
  39 0004 DBB2     		uxtb	r3, r3
  40 0006 5E2B     		cmp	r3, #94
  41 0008 07D8     		bhi	.L5
  46:Source\azure_iot_sdk\iothub_client\src/iothub_message.c ****         {
  47:Source\azure_iot_sdk\iothub_client\src/iothub_message.c ****             result = false;
  48:Source\azure_iot_sdk\iothub_client\src/iothub_message.c ****             break;
  49:Source\azure_iot_sdk\iothub_client\src/iothub_message.c ****         }
  50:Source\azure_iot_sdk\iothub_client\src/iothub_message.c ****         iterator++;
  42              		.loc 1 50 0
  43 000a 0130     		adds	r0, r0, #1
  44              	.LVL2:
  45              	.L2:
  42:Source\azure_iot_sdk\iothub_client\src/iothub_message.c ****     {
  46              		.loc 1 42 0
  47 000c 0028     		cmp	r0, #0
  48 000e 06D0     		beq	.L6
  42:Source\azure_iot_sdk\iothub_client\src/iothub_message.c ****     {
  49              		.loc 1 42 0 is_stmt 0 discriminator 1
  50 0010 0378     		ldrb	r3, [r0]
  51 0012 002B     		cmp	r3, #0
  52 0014 F5D1     		bne	.L4
  40:Source\azure_iot_sdk\iothub_client\src/iothub_message.c ****     const char* iterator = asciiValue;
  53              		.loc 1 40 0 is_stmt 1
  54 0016 0120     		movs	r0, #1
  55              	.LVL3:
  56 0018 02E0     		b	.L3
  57              	.LVL4:
  58              	.L5:
  47:Source\azure_iot_sdk\iothub_client\src/iothub_message.c ****             break;
  59              		.loc 1 47 0
  60 001a 0020     		movs	r0, #0
ARM GAS  C:\Users\Phuong\AppData\Local\Temp\cc4zbCpa.s 			page 3


  61              	.LVL5:
  62 001c 00E0     		b	.L3
  63              	.LVL6:
  64              	.L6:
  40:Source\azure_iot_sdk\iothub_client\src/iothub_message.c ****     const char* iterator = asciiValue;
  65              		.loc 1 40 0
  66 001e 0120     		movs	r0, #1
  67              	.LVL7:
  68              	.L3:
  51:Source\azure_iot_sdk\iothub_client\src/iothub_message.c ****     }
  52:Source\azure_iot_sdk\iothub_client\src/iothub_message.c ****     return result;
  53:Source\azure_iot_sdk\iothub_client\src/iothub_message.c **** }
  69              		.loc 1 53 0
  70              		@ sp needed
  71 0020 7047     		bx	lr
  72              		.cfi_endproc
  73              	.LFE5:
  74              		.size	ContainsOnlyUsAscii, .-ContainsOnlyUsAscii
  75 0022 C046     		.section	.text.ValidateAsciiCharactersFilter,"ax",%progbits
  76              		.align	2
  77              		.code	16
  78              		.thumb_func
  79              		.type	ValidateAsciiCharactersFilter, %function
  80              	ValidateAsciiCharactersFilter:
  81              	.LFB6:
  54:Source\azure_iot_sdk\iothub_client\src/iothub_message.c **** 
  55:Source\azure_iot_sdk\iothub_client\src/iothub_message.c **** /* Codes_SRS_IOTHUBMESSAGE_07_008: [ValidateAsciiCharactersFilter shall loop through the mapKey and
  56:Source\azure_iot_sdk\iothub_client\src/iothub_message.c **** static int ValidateAsciiCharactersFilter(const char* mapKey, const char* mapValue)
  57:Source\azure_iot_sdk\iothub_client\src/iothub_message.c **** {
  82              		.loc 1 57 0
  83              		.cfi_startproc
  84              		@ args = 0, pretend = 0, frame = 0
  85              		@ frame_needed = 0, uses_anonymous_args = 0
  86              	.LVL8:
  87 0000 10B5     		push	{r4, lr}
  88              		.cfi_def_cfa_offset 8
  89              		.cfi_offset 4, -8
  90              		.cfi_offset 14, -4
  91 0002 0C00     		movs	r4, r1
  58:Source\azure_iot_sdk\iothub_client\src/iothub_message.c ****     int result;
  59:Source\azure_iot_sdk\iothub_client\src/iothub_message.c ****     if (!ContainsOnlyUsAscii(mapKey) || !ContainsOnlyUsAscii(mapValue))
  92              		.loc 1 59 0
  93 0004 FFF7FEFF 		bl	ContainsOnlyUsAscii
  94              	.LVL9:
  95 0008 0028     		cmp	r0, #0
  96 000a 06D0     		beq	.L9
  97              		.loc 1 59 0 is_stmt 0 discriminator 1
  98 000c 2000     		movs	r0, r4
  99 000e FFF7FEFF 		bl	ContainsOnlyUsAscii
 100              	.LVL10:
 101 0012 0028     		cmp	r0, #0
 102 0014 03D0     		beq	.L10
  60:Source\azure_iot_sdk\iothub_client\src/iothub_message.c ****     {
  61:Source\azure_iot_sdk\iothub_client\src/iothub_message.c ****         result = __FAILURE__;
  62:Source\azure_iot_sdk\iothub_client\src/iothub_message.c ****     }
  63:Source\azure_iot_sdk\iothub_client\src/iothub_message.c ****     else
  64:Source\azure_iot_sdk\iothub_client\src/iothub_message.c ****     {
ARM GAS  C:\Users\Phuong\AppData\Local\Temp\cc4zbCpa.s 			page 4


  65:Source\azure_iot_sdk\iothub_client\src/iothub_message.c ****         result = 0;
 103              		.loc 1 65 0 is_stmt 1
 104 0016 0020     		movs	r0, #0
 105 0018 02E0     		b	.L8
 106              	.L9:
  61:Source\azure_iot_sdk\iothub_client\src/iothub_message.c ****     }
 107              		.loc 1 61 0
 108 001a 3D20     		movs	r0, #61
 109 001c 00E0     		b	.L8
 110              	.L10:
 111 001e 3D20     		movs	r0, #61
 112              	.L8:
 113              	.LVL11:
  66:Source\azure_iot_sdk\iothub_client\src/iothub_message.c ****     }
  67:Source\azure_iot_sdk\iothub_client\src/iothub_message.c ****     return result;
  68:Source\azure_iot_sdk\iothub_client\src/iothub_message.c **** }
 114              		.loc 1 68 0
 115              		@ sp needed
 116              	.LVL12:
 117 0020 10BD     		pop	{r4, pc}
 118              		.cfi_endproc
 119              	.LFE6:
 120              		.size	ValidateAsciiCharactersFilter, .-ValidateAsciiCharactersFilter
 121 0022 C046     		.section	.text.DestroyDiagnosticPropertyData,"ax",%progbits
 122              		.align	2
 123              		.code	16
 124              		.thumb_func
 125              		.type	DestroyDiagnosticPropertyData, %function
 126              	DestroyDiagnosticPropertyData:
 127              	.LFB7:
  69:Source\azure_iot_sdk\iothub_client\src/iothub_message.c **** 
  70:Source\azure_iot_sdk\iothub_client\src/iothub_message.c **** static void DestroyDiagnosticPropertyData(IOTHUB_MESSAGE_DIAGNOSTIC_PROPERTY_DATA_HANDLE diagnostic
  71:Source\azure_iot_sdk\iothub_client\src/iothub_message.c **** {
 128              		.loc 1 71 0
 129              		.cfi_startproc
 130              		@ args = 0, pretend = 0, frame = 0
 131              		@ frame_needed = 0, uses_anonymous_args = 0
 132              	.LVL13:
 133 0000 10B5     		push	{r4, lr}
 134              		.cfi_def_cfa_offset 8
 135              		.cfi_offset 4, -8
 136              		.cfi_offset 14, -4
 137 0002 041E     		subs	r4, r0, #0
  72:Source\azure_iot_sdk\iothub_client\src/iothub_message.c ****     if (diagnosticHandle != NULL)
 138              		.loc 1 72 0
 139 0004 05D0     		beq	.L12
  73:Source\azure_iot_sdk\iothub_client\src/iothub_message.c ****     {
  74:Source\azure_iot_sdk\iothub_client\src/iothub_message.c ****         free(diagnosticHandle->diagnosticId);
 140              		.loc 1 74 0
 141 0006 0068     		ldr	r0, [r0]
 142              	.LVL14:
 143 0008 FFF7FEFF 		bl	free
 144              	.LVL15:
  75:Source\azure_iot_sdk\iothub_client\src/iothub_message.c ****         free(diagnosticHandle->diagnosticCreationTimeUtc);
 145              		.loc 1 75 0
 146 000c 6068     		ldr	r0, [r4, #4]
 147 000e FFF7FEFF 		bl	free
ARM GAS  C:\Users\Phuong\AppData\Local\Temp\cc4zbCpa.s 			page 5


 148              	.LVL16:
 149              	.L12:
  76:Source\azure_iot_sdk\iothub_client\src/iothub_message.c ****     }
  77:Source\azure_iot_sdk\iothub_client\src/iothub_message.c ****     free(diagnosticHandle);
 150              		.loc 1 77 0
 151 0012 2000     		movs	r0, r4
 152 0014 FFF7FEFF 		bl	free
 153              	.LVL17:
  78:Source\azure_iot_sdk\iothub_client\src/iothub_message.c **** }
 154              		.loc 1 78 0
 155              		@ sp needed
 156              	.LVL18:
 157 0018 10BD     		pop	{r4, pc}
 158              		.cfi_endproc
 159              	.LFE7:
 160              		.size	DestroyDiagnosticPropertyData, .-DestroyDiagnosticPropertyData
 161 001a C046     		.section	.text.DestroyMessageData,"ax",%progbits
 162              		.align	2
 163              		.code	16
 164              		.thumb_func
 165              		.type	DestroyMessageData, %function
 166              	DestroyMessageData:
 167              	.LFB8:
  79:Source\azure_iot_sdk\iothub_client\src/iothub_message.c **** 
  80:Source\azure_iot_sdk\iothub_client\src/iothub_message.c **** static void DestroyMessageData(IOTHUB_MESSAGE_HANDLE_DATA* handleData)
  81:Source\azure_iot_sdk\iothub_client\src/iothub_message.c **** {
 168              		.loc 1 81 0
 169              		.cfi_startproc
 170              		@ args = 0, pretend = 0, frame = 0
 171              		@ frame_needed = 0, uses_anonymous_args = 0
 172              	.LVL19:
 173 0000 70B5     		push	{r4, r5, r6, lr}
 174              		.cfi_def_cfa_offset 16
 175              		.cfi_offset 4, -16
 176              		.cfi_offset 5, -12
 177              		.cfi_offset 6, -8
 178              		.cfi_offset 14, -4
 179 0002 0400     		movs	r4, r0
  82:Source\azure_iot_sdk\iothub_client\src/iothub_message.c ****     if (handleData->contentType == IOTHUBMESSAGE_BYTEARRAY)
 180              		.loc 1 82 0
 181 0004 0378     		ldrb	r3, [r0]
 182 0006 002B     		cmp	r3, #0
 183 0008 03D1     		bne	.L14
  83:Source\azure_iot_sdk\iothub_client\src/iothub_message.c ****     {
  84:Source\azure_iot_sdk\iothub_client\src/iothub_message.c ****         BUFFER_delete(handleData->value.byteArray);
 184              		.loc 1 84 0
 185 000a 4068     		ldr	r0, [r0, #4]
 186              	.LVL20:
 187 000c FFF7FEFF 		bl	BUFFER_delete
 188              	.LVL21:
 189 0010 04E0     		b	.L15
 190              	.LVL22:
 191              	.L14:
  85:Source\azure_iot_sdk\iothub_client\src/iothub_message.c ****     }
  86:Source\azure_iot_sdk\iothub_client\src/iothub_message.c ****     else if (handleData->contentType == IOTHUBMESSAGE_STRING)
 192              		.loc 1 86 0
 193 0012 012B     		cmp	r3, #1
ARM GAS  C:\Users\Phuong\AppData\Local\Temp\cc4zbCpa.s 			page 6


 194 0014 02D1     		bne	.L15
  87:Source\azure_iot_sdk\iothub_client\src/iothub_message.c ****     {
  88:Source\azure_iot_sdk\iothub_client\src/iothub_message.c ****         STRING_delete(handleData->value.string);
 195              		.loc 1 88 0
 196 0016 4068     		ldr	r0, [r0, #4]
 197              	.LVL23:
 198 0018 FFF7FEFF 		bl	STRING_delete
 199              	.LVL24:
 200              	.L15:
  89:Source\azure_iot_sdk\iothub_client\src/iothub_message.c ****     }
  90:Source\azure_iot_sdk\iothub_client\src/iothub_message.c **** 
  91:Source\azure_iot_sdk\iothub_client\src/iothub_message.c ****     Map_Destroy(handleData->properties);
 201              		.loc 1 91 0
 202 001c A068     		ldr	r0, [r4, #8]
 203 001e FFF7FEFF 		bl	Map_Destroy
 204              	.LVL25:
  92:Source\azure_iot_sdk\iothub_client\src/iothub_message.c ****     free(handleData->messageId);
 205              		.loc 1 92 0
 206 0022 E068     		ldr	r0, [r4, #12]
 207 0024 FFF7FEFF 		bl	free
 208              	.LVL26:
  93:Source\azure_iot_sdk\iothub_client\src/iothub_message.c ****     handleData->messageId = NULL;
 209              		.loc 1 93 0
 210 0028 0025     		movs	r5, #0
 211 002a E560     		str	r5, [r4, #12]
  94:Source\azure_iot_sdk\iothub_client\src/iothub_message.c ****     free(handleData->correlationId);
 212              		.loc 1 94 0
 213 002c 2069     		ldr	r0, [r4, #16]
 214 002e FFF7FEFF 		bl	free
 215              	.LVL27:
  95:Source\azure_iot_sdk\iothub_client\src/iothub_message.c ****     handleData->correlationId = NULL;
 216              		.loc 1 95 0
 217 0032 2561     		str	r5, [r4, #16]
  96:Source\azure_iot_sdk\iothub_client\src/iothub_message.c ****     free(handleData->userDefinedContentType);
 218              		.loc 1 96 0
 219 0034 6069     		ldr	r0, [r4, #20]
 220 0036 FFF7FEFF 		bl	free
 221              	.LVL28:
  97:Source\azure_iot_sdk\iothub_client\src/iothub_message.c ****     free(handleData->contentEncoding);
 222              		.loc 1 97 0
 223 003a A069     		ldr	r0, [r4, #24]
 224 003c FFF7FEFF 		bl	free
 225              	.LVL29:
  98:Source\azure_iot_sdk\iothub_client\src/iothub_message.c ****     DestroyDiagnosticPropertyData(handleData->diagnosticData);
 226              		.loc 1 98 0
 227 0040 E06A     		ldr	r0, [r4, #44]
 228 0042 FFF7FEFF 		bl	DestroyDiagnosticPropertyData
 229              	.LVL30:
  99:Source\azure_iot_sdk\iothub_client\src/iothub_message.c ****     free(handleData->outputName);
 230              		.loc 1 99 0
 231 0046 E069     		ldr	r0, [r4, #28]
 232 0048 FFF7FEFF 		bl	free
 233              	.LVL31:
 100:Source\azure_iot_sdk\iothub_client\src/iothub_message.c ****     free(handleData->inputName);
 234              		.loc 1 100 0
 235 004c 206A     		ldr	r0, [r4, #32]
 236 004e FFF7FEFF 		bl	free
ARM GAS  C:\Users\Phuong\AppData\Local\Temp\cc4zbCpa.s 			page 7


 237              	.LVL32:
 101:Source\azure_iot_sdk\iothub_client\src/iothub_message.c ****     free(handleData->connectionModuleId);
 238              		.loc 1 101 0
 239 0052 606A     		ldr	r0, [r4, #36]
 240 0054 FFF7FEFF 		bl	free
 241              	.LVL33:
 102:Source\azure_iot_sdk\iothub_client\src/iothub_message.c ****     free(handleData->connectionDeviceId);
 242              		.loc 1 102 0
 243 0058 A06A     		ldr	r0, [r4, #40]
 244 005a FFF7FEFF 		bl	free
 245              	.LVL34:
 103:Source\azure_iot_sdk\iothub_client\src/iothub_message.c ****     free(handleData);
 246              		.loc 1 103 0
 247 005e 2000     		movs	r0, r4
 248 0060 FFF7FEFF 		bl	free
 249              	.LVL35:
 104:Source\azure_iot_sdk\iothub_client\src/iothub_message.c **** }
 250              		.loc 1 104 0
 251              		@ sp needed
 252              	.LVL36:
 253 0064 70BD     		pop	{r4, r5, r6, pc}
 254              		.cfi_endproc
 255              	.LFE8:
 256              		.size	DestroyMessageData, .-DestroyMessageData
 257 0066 C046     		.section	.text.CloneDiagnosticPropertyData,"ax",%progbits
 258              		.align	2
 259              		.code	16
 260              		.thumb_func
 261              		.type	CloneDiagnosticPropertyData, %function
 262              	CloneDiagnosticPropertyData:
 263              	.LFB9:
 105:Source\azure_iot_sdk\iothub_client\src/iothub_message.c **** 
 106:Source\azure_iot_sdk\iothub_client\src/iothub_message.c **** static IOTHUB_MESSAGE_DIAGNOSTIC_PROPERTY_DATA_HANDLE CloneDiagnosticPropertyData(const IOTHUB_MESS
 107:Source\azure_iot_sdk\iothub_client\src/iothub_message.c **** {
 264              		.loc 1 107 0
 265              		.cfi_startproc
 266              		@ args = 0, pretend = 0, frame = 0
 267              		@ frame_needed = 0, uses_anonymous_args = 0
 268              	.LVL37:
 269 0000 30B5     		push	{r4, r5, lr}
 270              		.cfi_def_cfa_offset 12
 271              		.cfi_offset 4, -12
 272              		.cfi_offset 5, -8
 273              		.cfi_offset 14, -4
 274 0002 83B0     		sub	sp, sp, #12
 275              		.cfi_def_cfa_offset 24
 276 0004 051E     		subs	r5, r0, #0
 277              	.LVL38:
 108:Source\azure_iot_sdk\iothub_client\src/iothub_message.c ****     IOTHUB_MESSAGE_DIAGNOSTIC_PROPERTY_DATA_HANDLE result = NULL;
 109:Source\azure_iot_sdk\iothub_client\src/iothub_message.c ****     if (source == NULL)
 278              		.loc 1 109 0
 279 0006 0ED1     		bne	.L17
 280              	.LBB2:
 110:Source\azure_iot_sdk\iothub_client\src/iothub_message.c ****     {
 111:Source\azure_iot_sdk\iothub_client\src/iothub_message.c ****         LogError("Invalid argument - source is NULL");
 281              		.loc 1 111 0 discriminator 3
 282 0008 FFF7FEFF 		bl	xlogging_get_log_function
ARM GAS  C:\Users\Phuong\AppData\Local\Temp\cc4zbCpa.s 			page 8


 283              	.LVL39:
 284 000c 041E     		subs	r4, r0, #0
 285              	.LVL40:
 286 000e 57D0     		beq	.L23
 287              		.loc 1 111 0 is_stmt 0 discriminator 4
 288 0010 2D4B     		ldr	r3, .L24
 289 0012 0193     		str	r3, [sp, #4]
 290 0014 0123     		movs	r3, #1
 291 0016 0093     		str	r3, [sp]
 292 0018 6E33     		adds	r3, r3, #110
 293 001a 2C4A     		ldr	r2, .L24+4
 294 001c 2C49     		ldr	r1, .L24+8
 295 001e 0020     		movs	r0, #0
 296              	.LVL41:
 297 0020 A047     		blx	r4
 298              	.LVL42:
 299              	.LBE2:
 108:Source\azure_iot_sdk\iothub_client\src/iothub_message.c ****     IOTHUB_MESSAGE_DIAGNOSTIC_PROPERTY_DATA_HANDLE result = NULL;
 300              		.loc 1 108 0 is_stmt 1 discriminator 4
 301 0022 0024     		movs	r4, #0
 302              	.LVL43:
 303 0024 4DE0     		b	.L18
 304              	.LVL44:
 305              	.L17:
 112:Source\azure_iot_sdk\iothub_client\src/iothub_message.c ****     }
 113:Source\azure_iot_sdk\iothub_client\src/iothub_message.c ****     else
 114:Source\azure_iot_sdk\iothub_client\src/iothub_message.c ****     {
 115:Source\azure_iot_sdk\iothub_client\src/iothub_message.c ****         result = (IOTHUB_MESSAGE_DIAGNOSTIC_PROPERTY_DATA_HANDLE)malloc(sizeof(IOTHUB_MESSAGE_DIAGN
 306              		.loc 1 115 0
 307 0026 0820     		movs	r0, #8
 308              	.LVL45:
 309 0028 FFF7FEFF 		bl	malloc
 310              	.LVL46:
 311 002c 041E     		subs	r4, r0, #0
 312              	.LVL47:
 116:Source\azure_iot_sdk\iothub_client\src/iothub_message.c ****         if (result == NULL)
 313              		.loc 1 116 0
 314 002e 0DD1     		bne	.L19
 315              	.LBB3:
 117:Source\azure_iot_sdk\iothub_client\src/iothub_message.c ****         {
 118:Source\azure_iot_sdk\iothub_client\src/iothub_message.c ****             LogError("malloc failed");
 316              		.loc 1 118 0 discriminator 3
 317 0030 FFF7FEFF 		bl	xlogging_get_log_function
 318              	.LVL48:
 319 0034 051E     		subs	r5, r0, #0
 320              	.LVL49:
 321 0036 44D0     		beq	.L18
 322              		.loc 1 118 0 is_stmt 0 discriminator 4
 323 0038 264B     		ldr	r3, .L24+12
 324 003a 0193     		str	r3, [sp, #4]
 325 003c 0123     		movs	r3, #1
 326 003e 0093     		str	r3, [sp]
 327 0040 7533     		adds	r3, r3, #117
 328 0042 224A     		ldr	r2, .L24+4
 329 0044 2249     		ldr	r1, .L24+8
 330 0046 0020     		movs	r0, #0
 331              	.LVL50:
ARM GAS  C:\Users\Phuong\AppData\Local\Temp\cc4zbCpa.s 			page 9


 332 0048 A847     		blx	r5
 333              	.LVL51:
 334 004a 3AE0     		b	.L18
 335              	.LVL52:
 336              	.L19:
 337              	.LBE3:
 119:Source\azure_iot_sdk\iothub_client\src/iothub_message.c ****         }
 120:Source\azure_iot_sdk\iothub_client\src/iothub_message.c ****         else
 121:Source\azure_iot_sdk\iothub_client\src/iothub_message.c ****         {
 122:Source\azure_iot_sdk\iothub_client\src/iothub_message.c ****             result->diagnosticCreationTimeUtc = NULL;
 338              		.loc 1 122 0 is_stmt 1
 339 004c 0023     		movs	r3, #0
 340 004e 4360     		str	r3, [r0, #4]
 123:Source\azure_iot_sdk\iothub_client\src/iothub_message.c ****             result->diagnosticId = NULL;
 341              		.loc 1 123 0
 342 0050 0360     		str	r3, [r0]
 124:Source\azure_iot_sdk\iothub_client\src/iothub_message.c ****             if (source->diagnosticCreationTimeUtc != NULL && mallocAndStrcpy_s(&result->diagnosticC
 343              		.loc 1 124 0
 344 0052 6968     		ldr	r1, [r5, #4]
 345 0054 0029     		cmp	r1, #0
 346 0056 16D0     		beq	.L20
 347              		.loc 1 124 0 is_stmt 0 discriminator 1
 348 0058 0430     		adds	r0, r0, #4
 349              	.LVL53:
 350 005a FFF7FEFF 		bl	mallocAndStrcpy_s
 351              	.LVL54:
 352 005e 0028     		cmp	r0, #0
 353 0060 11D0     		beq	.L20
 354              	.LBB4:
 125:Source\azure_iot_sdk\iothub_client\src/iothub_message.c ****             {
 126:Source\azure_iot_sdk\iothub_client\src/iothub_message.c ****                 LogError("mallocAndStrcpy_s for diagnosticCreationTimeUtc failed");
 355              		.loc 1 126 0 is_stmt 1 discriminator 3
 356 0062 FFF7FEFF 		bl	xlogging_get_log_function
 357              	.LVL55:
 358 0066 051E     		subs	r5, r0, #0
 359              	.LVL56:
 360 0068 08D0     		beq	.L21
 361              		.loc 1 126 0 is_stmt 0 discriminator 4
 362 006a 1B4B     		ldr	r3, .L24+16
 363 006c 0193     		str	r3, [sp, #4]
 364 006e 0123     		movs	r3, #1
 365 0070 0093     		str	r3, [sp]
 366 0072 7D33     		adds	r3, r3, #125
 367 0074 154A     		ldr	r2, .L24+4
 368 0076 1649     		ldr	r1, .L24+8
 369 0078 0020     		movs	r0, #0
 370              	.LVL57:
 371 007a A847     		blx	r5
 372              	.LVL58:
 373              	.L21:
 374              	.LBE4:
 127:Source\azure_iot_sdk\iothub_client\src/iothub_message.c ****                 free(result);
 375              		.loc 1 127 0 is_stmt 1
 376 007c 2000     		movs	r0, r4
 377 007e FFF7FEFF 		bl	free
 378              	.LVL59:
 128:Source\azure_iot_sdk\iothub_client\src/iothub_message.c ****                 result = NULL;
ARM GAS  C:\Users\Phuong\AppData\Local\Temp\cc4zbCpa.s 			page 10


 379              		.loc 1 128 0
 380 0082 0024     		movs	r4, #0
 381 0084 1DE0     		b	.L18
 382              	.LVL60:
 383              	.L20:
 129:Source\azure_iot_sdk\iothub_client\src/iothub_message.c ****             }
 130:Source\azure_iot_sdk\iothub_client\src/iothub_message.c ****             else if (source->diagnosticId != NULL && mallocAndStrcpy_s(&result->diagnosticId, sourc
 384              		.loc 1 130 0
 385 0086 2968     		ldr	r1, [r5]
 386 0088 0029     		cmp	r1, #0
 387 008a 1AD0     		beq	.L18
 388              		.loc 1 130 0 is_stmt 0 discriminator 1
 389 008c 2000     		movs	r0, r4
 390 008e FFF7FEFF 		bl	mallocAndStrcpy_s
 391              	.LVL61:
 392 0092 0028     		cmp	r0, #0
 393 0094 15D0     		beq	.L18
 394              	.LBB5:
 131:Source\azure_iot_sdk\iothub_client\src/iothub_message.c ****             {
 132:Source\azure_iot_sdk\iothub_client\src/iothub_message.c ****                 LogError("mallocAndStrcpy_s for diagnosticId failed");
 395              		.loc 1 132 0 is_stmt 1 discriminator 3
 396 0096 FFF7FEFF 		bl	xlogging_get_log_function
 397              	.LVL62:
 398 009a 051E     		subs	r5, r0, #0
 399              	.LVL63:
 400 009c 08D0     		beq	.L22
 401              		.loc 1 132 0 is_stmt 0 discriminator 4
 402 009e 0F4B     		ldr	r3, .L24+20
 403 00a0 0193     		str	r3, [sp, #4]
 404 00a2 0123     		movs	r3, #1
 405 00a4 0093     		str	r3, [sp]
 406 00a6 8333     		adds	r3, r3, #131
 407 00a8 084A     		ldr	r2, .L24+4
 408 00aa 0949     		ldr	r1, .L24+8
 409 00ac 0020     		movs	r0, #0
 410              	.LVL64:
 411 00ae A847     		blx	r5
 412              	.LVL65:
 413              	.L22:
 414              	.LBE5:
 133:Source\azure_iot_sdk\iothub_client\src/iothub_message.c ****                 free(result->diagnosticCreationTimeUtc);
 415              		.loc 1 133 0 is_stmt 1
 416 00b0 6068     		ldr	r0, [r4, #4]
 417 00b2 FFF7FEFF 		bl	free
 418              	.LVL66:
 134:Source\azure_iot_sdk\iothub_client\src/iothub_message.c ****                 free(result);
 419              		.loc 1 134 0
 420 00b6 2000     		movs	r0, r4
 421 00b8 FFF7FEFF 		bl	free
 422              	.LVL67:
 135:Source\azure_iot_sdk\iothub_client\src/iothub_message.c ****                 result = NULL;
 423              		.loc 1 135 0
 424 00bc 0024     		movs	r4, #0
 425 00be 00E0     		b	.L18
 426              	.LVL68:
 427              	.L23:
 108:Source\azure_iot_sdk\iothub_client\src/iothub_message.c ****     if (source == NULL)
ARM GAS  C:\Users\Phuong\AppData\Local\Temp\cc4zbCpa.s 			page 11


 428              		.loc 1 108 0
 429 00c0 0024     		movs	r4, #0
 430              	.LVL69:
 431              	.L18:
 136:Source\azure_iot_sdk\iothub_client\src/iothub_message.c ****             }
 137:Source\azure_iot_sdk\iothub_client\src/iothub_message.c ****         }
 138:Source\azure_iot_sdk\iothub_client\src/iothub_message.c ****     }
 139:Source\azure_iot_sdk\iothub_client\src/iothub_message.c ****     return result;
 140:Source\azure_iot_sdk\iothub_client\src/iothub_message.c **** }
 432              		.loc 1 140 0
 433 00c2 2000     		movs	r0, r4
 434 00c4 03B0     		add	sp, sp, #12
 435              		@ sp needed
 436              	.LVL70:
 437 00c6 30BD     		pop	{r4, r5, pc}
 438              	.L25:
 439              		.align	2
 440              	.L24:
 441 00c8 38000000 		.word	.LC3
 442 00cc 00000000 		.word	.LANCHOR0
 443 00d0 00000000 		.word	.LC1
 444 00d4 5C000000 		.word	.LC5
 445 00d8 6C000000 		.word	.LC7
 446 00dc A4000000 		.word	.LC9
 447              		.cfi_endproc
 448              	.LFE9:
 449              		.size	CloneDiagnosticPropertyData, .-CloneDiagnosticPropertyData
 450              		.section	.text.IOTHUB_MESSAGE_RESULTStrings,"ax",%progbits
 451              		.align	2
 452              		.global	IOTHUB_MESSAGE_RESULTStrings
 453              		.code	16
 454              		.thumb_func
 455              		.type	IOTHUB_MESSAGE_RESULTStrings, %function
 456              	IOTHUB_MESSAGE_RESULTStrings:
 457              	.LFB1:
  12:Source\azure_iot_sdk\iothub_client\src/iothub_message.c **** DEFINE_ENUM_STRINGS(IOTHUBMESSAGE_CONTENT_TYPE, IOTHUBMESSAGE_CONTENT_TYPE_VALUES);
 458              		.loc 1 12 0
 459              		.cfi_startproc
 460              		@ args = 0, pretend = 0, frame = 0
 461              		@ frame_needed = 0, uses_anonymous_args = 0
 462              		@ link register save eliminated.
 463              	.LVL71:
  12:Source\azure_iot_sdk\iothub_client\src/iothub_message.c **** DEFINE_ENUM_STRINGS(IOTHUBMESSAGE_CONTENT_TYPE, IOTHUBMESSAGE_CONTENT_TYPE_VALUES);
 464              		.loc 1 12 0
 465 0000 0328     		cmp	r0, #3
 466 0002 03D8     		bhi	.L28
  12:Source\azure_iot_sdk\iothub_client\src/iothub_message.c **** DEFINE_ENUM_STRINGS(IOTHUBMESSAGE_CONTENT_TYPE, IOTHUBMESSAGE_CONTENT_TYPE_VALUES);
 467              		.loc 1 12 0 is_stmt 0 discriminator 2
 468 0004 8000     		lsls	r0, r0, #2
 469              	.LVL72:
 470 0006 024B     		ldr	r3, .L29
 471 0008 C058     		ldr	r0, [r0, r3]
 472 000a 00E0     		b	.L27
 473              	.LVL73:
 474              	.L28:
  12:Source\azure_iot_sdk\iothub_client\src/iothub_message.c **** DEFINE_ENUM_STRINGS(IOTHUBMESSAGE_CONTENT_TYPE, IOTHUBMESSAGE_CONTENT_TYPE_VALUES);
 475              		.loc 1 12 0
ARM GAS  C:\Users\Phuong\AppData\Local\Temp\cc4zbCpa.s 			page 12


 476 000c 0020     		movs	r0, #0
 477              	.LVL74:
 478              	.L27:
 479              		@ sp needed
 480 000e 7047     		bx	lr
 481              	.L30:
 482              		.align	2
 483              	.L29:
 484 0010 00000000 		.word	.LANCHOR1
 485              		.cfi_endproc
 486              	.LFE1:
 487              		.size	IOTHUB_MESSAGE_RESULTStrings, .-IOTHUB_MESSAGE_RESULTStrings
 488              		.section	.text.IOTHUB_MESSAGE_RESULT_FromString,"ax",%progbits
 489              		.align	2
 490              		.global	IOTHUB_MESSAGE_RESULT_FromString
 491              		.code	16
 492              		.thumb_func
 493              		.type	IOTHUB_MESSAGE_RESULT_FromString, %function
 494              	IOTHUB_MESSAGE_RESULT_FromString:
 495              	.LFB2:
  12:Source\azure_iot_sdk\iothub_client\src/iothub_message.c **** DEFINE_ENUM_STRINGS(IOTHUBMESSAGE_CONTENT_TYPE, IOTHUBMESSAGE_CONTENT_TYPE_VALUES);
 496              		.loc 1 12 0 is_stmt 1
 497              		.cfi_startproc
 498              		@ args = 0, pretend = 0, frame = 0
 499              		@ frame_needed = 0, uses_anonymous_args = 0
 500              	.LVL75:
 501 0000 70B5     		push	{r4, r5, r6, lr}
 502              		.cfi_def_cfa_offset 16
 503              		.cfi_offset 4, -16
 504              		.cfi_offset 5, -12
 505              		.cfi_offset 6, -8
 506              		.cfi_offset 14, -4
 507 0002 0500     		movs	r5, r0
 508 0004 0E00     		movs	r6, r1
  12:Source\azure_iot_sdk\iothub_client\src/iothub_message.c **** DEFINE_ENUM_STRINGS(IOTHUBMESSAGE_CONTENT_TYPE, IOTHUBMESSAGE_CONTENT_TYPE_VALUES);
 509              		.loc 1 12 0
 510 0006 0028     		cmp	r0, #0
 511 0008 12D0     		beq	.L36
  12:Source\azure_iot_sdk\iothub_client\src/iothub_message.c **** DEFINE_ENUM_STRINGS(IOTHUBMESSAGE_CONTENT_TYPE, IOTHUBMESSAGE_CONTENT_TYPE_VALUES);
 512              		.loc 1 12 0 is_stmt 0 discriminator 2
 513 000a 0029     		cmp	r1, #0
 514 000c 12D0     		beq	.L37
 515 000e 0024     		movs	r4, #0
 516 0010 0AE0     		b	.L33
 517              	.LVL76:
 518              	.L35:
 519              	.LBB6:
  12:Source\azure_iot_sdk\iothub_client\src/iothub_message.c **** DEFINE_ENUM_STRINGS(IOTHUBMESSAGE_CONTENT_TYPE, IOTHUBMESSAGE_CONTENT_TYPE_VALUES);
 520              		.loc 1 12 0 discriminator 9
 521 0012 A300     		lsls	r3, r4, #2
 522 0014 084A     		ldr	r2, .L38
 523 0016 9958     		ldr	r1, [r3, r2]
 524 0018 2800     		movs	r0, r5
 525 001a FFF7FEFF 		bl	strcmp
 526              	.LVL77:
 527 001e 0028     		cmp	r0, #0
 528 0020 01D1     		bne	.L34
ARM GAS  C:\Users\Phuong\AppData\Local\Temp\cc4zbCpa.s 			page 13


  12:Source\azure_iot_sdk\iothub_client\src/iothub_message.c **** DEFINE_ENUM_STRINGS(IOTHUBMESSAGE_CONTENT_TYPE, IOTHUBMESSAGE_CONTENT_TYPE_VALUES);
 529              		.loc 1 12 0 discriminator 6
 530 0022 3470     		strb	r4, [r6]
 531 0024 07E0     		b	.L32
 532              	.L34:
  12:Source\azure_iot_sdk\iothub_client\src/iothub_message.c **** DEFINE_ENUM_STRINGS(IOTHUBMESSAGE_CONTENT_TYPE, IOTHUBMESSAGE_CONTENT_TYPE_VALUES);
 533              		.loc 1 12 0 discriminator 7
 534 0026 0134     		adds	r4, r4, #1
 535              	.LVL78:
 536              	.L33:
  12:Source\azure_iot_sdk\iothub_client\src/iothub_message.c **** DEFINE_ENUM_STRINGS(IOTHUBMESSAGE_CONTENT_TYPE, IOTHUBMESSAGE_CONTENT_TYPE_VALUES);
 537              		.loc 1 12 0 discriminator 8
 538 0028 032C     		cmp	r4, #3
 539 002a F2D9     		bls	.L35
  12:Source\azure_iot_sdk\iothub_client\src/iothub_message.c **** DEFINE_ENUM_STRINGS(IOTHUBMESSAGE_CONTENT_TYPE, IOTHUBMESSAGE_CONTENT_TYPE_VALUES);
 540              		.loc 1 12 0
 541 002c 0C20     		movs	r0, #12
 542 002e 02E0     		b	.L32
 543              	.LVL79:
 544              	.L36:
 545              	.LBE6:
 546 0030 0C20     		movs	r0, #12
 547              	.LVL80:
 548 0032 00E0     		b	.L32
 549              	.LVL81:
 550              	.L37:
 551 0034 0C20     		movs	r0, #12
 552              	.LVL82:
 553              	.L32:
 554              		@ sp needed
 555              	.LVL83:
 556              	.LVL84:
 557 0036 70BD     		pop	{r4, r5, r6, pc}
 558              	.L39:
 559              		.align	2
 560              	.L38:
 561 0038 00000000 		.word	.LANCHOR1
 562              		.cfi_endproc
 563              	.LFE2:
 564              		.size	IOTHUB_MESSAGE_RESULT_FromString, .-IOTHUB_MESSAGE_RESULT_FromString
 565              		.section	.text.IOTHUBMESSAGE_CONTENT_TYPEStrings,"ax",%progbits
 566              		.align	2
 567              		.global	IOTHUBMESSAGE_CONTENT_TYPEStrings
 568              		.code	16
 569              		.thumb_func
 570              		.type	IOTHUBMESSAGE_CONTENT_TYPEStrings, %function
 571              	IOTHUBMESSAGE_CONTENT_TYPEStrings:
 572              	.LFB3:
  13:Source\azure_iot_sdk\iothub_client\src/iothub_message.c **** 
 573              		.loc 1 13 0 is_stmt 1
 574              		.cfi_startproc
 575              		@ args = 0, pretend = 0, frame = 0
 576              		@ frame_needed = 0, uses_anonymous_args = 0
 577              		@ link register save eliminated.
 578              	.LVL85:
  13:Source\azure_iot_sdk\iothub_client\src/iothub_message.c **** 
 579              		.loc 1 13 0
ARM GAS  C:\Users\Phuong\AppData\Local\Temp\cc4zbCpa.s 			page 14


 580 0000 0228     		cmp	r0, #2
 581 0002 04D8     		bhi	.L42
  13:Source\azure_iot_sdk\iothub_client\src/iothub_message.c **** 
 582              		.loc 1 13 0 is_stmt 0 discriminator 2
 583 0004 8000     		lsls	r0, r0, #2
 584              	.LVL86:
 585 0006 034B     		ldr	r3, .L43
 586 0008 1818     		adds	r0, r3, r0
 587 000a 0069     		ldr	r0, [r0, #16]
 588 000c 00E0     		b	.L41
 589              	.LVL87:
 590              	.L42:
  13:Source\azure_iot_sdk\iothub_client\src/iothub_message.c **** 
 591              		.loc 1 13 0
 592 000e 0020     		movs	r0, #0
 593              	.LVL88:
 594              	.L41:
 595              		@ sp needed
 596 0010 7047     		bx	lr
 597              	.L44:
 598 0012 C046     		.align	2
 599              	.L43:
 600 0014 00000000 		.word	.LANCHOR1
 601              		.cfi_endproc
 602              	.LFE3:
 603              		.size	IOTHUBMESSAGE_CONTENT_TYPEStrings, .-IOTHUBMESSAGE_CONTENT_TYPEStrings
 604              		.section	.text.IOTHUBMESSAGE_CONTENT_TYPE_FromString,"ax",%progbits
 605              		.align	2
 606              		.global	IOTHUBMESSAGE_CONTENT_TYPE_FromString
 607              		.code	16
 608              		.thumb_func
 609              		.type	IOTHUBMESSAGE_CONTENT_TYPE_FromString, %function
 610              	IOTHUBMESSAGE_CONTENT_TYPE_FromString:
 611              	.LFB4:
  13:Source\azure_iot_sdk\iothub_client\src/iothub_message.c **** 
 612              		.loc 1 13 0 is_stmt 1
 613              		.cfi_startproc
 614              		@ args = 0, pretend = 0, frame = 0
 615              		@ frame_needed = 0, uses_anonymous_args = 0
 616              	.LVL89:
 617 0000 70B5     		push	{r4, r5, r6, lr}
 618              		.cfi_def_cfa_offset 16
 619              		.cfi_offset 4, -16
 620              		.cfi_offset 5, -12
 621              		.cfi_offset 6, -8
 622              		.cfi_offset 14, -4
 623 0002 0400     		movs	r4, r0
 624 0004 0E00     		movs	r6, r1
  13:Source\azure_iot_sdk\iothub_client\src/iothub_message.c **** 
 625              		.loc 1 13 0
 626 0006 0028     		cmp	r0, #0
 627 0008 13D0     		beq	.L50
  13:Source\azure_iot_sdk\iothub_client\src/iothub_message.c **** 
 628              		.loc 1 13 0 is_stmt 0 discriminator 2
 629 000a 0029     		cmp	r1, #0
 630 000c 13D0     		beq	.L51
 631 000e 0025     		movs	r5, #0
ARM GAS  C:\Users\Phuong\AppData\Local\Temp\cc4zbCpa.s 			page 15


 632 0010 0BE0     		b	.L47
 633              	.LVL90:
 634              	.L49:
 635              	.LBB7:
  13:Source\azure_iot_sdk\iothub_client\src/iothub_message.c **** 
 636              		.loc 1 13 0 discriminator 9
 637 0012 AB00     		lsls	r3, r5, #2
 638 0014 094A     		ldr	r2, .L52
 639 0016 D318     		adds	r3, r2, r3
 640 0018 1969     		ldr	r1, [r3, #16]
 641 001a 2000     		movs	r0, r4
 642 001c FFF7FEFF 		bl	strcmp
 643              	.LVL91:
 644 0020 0028     		cmp	r0, #0
 645 0022 01D1     		bne	.L48
  13:Source\azure_iot_sdk\iothub_client\src/iothub_message.c **** 
 646              		.loc 1 13 0 discriminator 6
 647 0024 3570     		strb	r5, [r6]
 648 0026 07E0     		b	.L46
 649              	.L48:
  13:Source\azure_iot_sdk\iothub_client\src/iothub_message.c **** 
 650              		.loc 1 13 0 discriminator 7
 651 0028 0135     		adds	r5, r5, #1
 652              	.LVL92:
 653              	.L47:
  13:Source\azure_iot_sdk\iothub_client\src/iothub_message.c **** 
 654              		.loc 1 13 0 discriminator 8
 655 002a 022D     		cmp	r5, #2
 656 002c F1D9     		bls	.L49
  13:Source\azure_iot_sdk\iothub_client\src/iothub_message.c **** 
 657              		.loc 1 13 0
 658 002e 0D20     		movs	r0, #13
 659 0030 02E0     		b	.L46
 660              	.LVL93:
 661              	.L50:
 662              	.LBE7:
 663 0032 0D20     		movs	r0, #13
 664              	.LVL94:
 665 0034 00E0     		b	.L46
 666              	.LVL95:
 667              	.L51:
 668 0036 0D20     		movs	r0, #13
 669              	.LVL96:
 670              	.L46:
 671              		@ sp needed
 672              	.LVL97:
 673              	.LVL98:
 674 0038 70BD     		pop	{r4, r5, r6, pc}
 675              	.L53:
 676 003a C046     		.align	2
 677              	.L52:
 678 003c 00000000 		.word	.LANCHOR1
 679              		.cfi_endproc
 680              	.LFE4:
 681              		.size	IOTHUBMESSAGE_CONTENT_TYPE_FromString, .-IOTHUBMESSAGE_CONTENT_TYPE_FromString
 682              		.section	.text.IoTHubMessage_CreateFromByteArray,"ax",%progbits
 683              		.align	2
ARM GAS  C:\Users\Phuong\AppData\Local\Temp\cc4zbCpa.s 			page 16


 684              		.global	IoTHubMessage_CreateFromByteArray
 685              		.code	16
 686              		.thumb_func
 687              		.type	IoTHubMessage_CreateFromByteArray, %function
 688              	IoTHubMessage_CreateFromByteArray:
 689              	.LFB10:
 141:Source\azure_iot_sdk\iothub_client\src/iothub_message.c **** 
 142:Source\azure_iot_sdk\iothub_client\src/iothub_message.c **** IOTHUB_MESSAGE_HANDLE IoTHubMessage_CreateFromByteArray(const unsigned char* byteArray, size_t size
 143:Source\azure_iot_sdk\iothub_client\src/iothub_message.c **** {
 690              		.loc 1 143 0 is_stmt 1
 691              		.cfi_startproc
 692              		@ args = 0, pretend = 0, frame = 8
 693              		@ frame_needed = 0, uses_anonymous_args = 0
 694              	.LVL99:
 695 0000 F0B5     		push	{r4, r5, r6, r7, lr}
 696              		.cfi_def_cfa_offset 20
 697              		.cfi_offset 4, -20
 698              		.cfi_offset 5, -16
 699              		.cfi_offset 6, -12
 700              		.cfi_offset 7, -8
 701              		.cfi_offset 14, -4
 702 0002 85B0     		sub	sp, sp, #20
 703              		.cfi_def_cfa_offset 40
 704 0004 0500     		movs	r5, r0
 705 0006 0E00     		movs	r6, r1
 144:Source\azure_iot_sdk\iothub_client\src/iothub_message.c ****     IOTHUB_MESSAGE_HANDLE_DATA* result;
 145:Source\azure_iot_sdk\iothub_client\src/iothub_message.c ****     if ((byteArray == NULL) && (size != 0))
 706              		.loc 1 145 0
 707 0008 0028     		cmp	r0, #0
 708 000a 11D1     		bne	.L55
 709              		.loc 1 145 0 is_stmt 0 discriminator 1
 710 000c 0029     		cmp	r1, #0
 711 000e 0FD0     		beq	.L55
 712              	.LBB8:
 146:Source\azure_iot_sdk\iothub_client\src/iothub_message.c ****     {
 147:Source\azure_iot_sdk\iothub_client\src/iothub_message.c ****         LogError("Invalid argument - byteArray is NULL");
 713              		.loc 1 147 0 is_stmt 1 discriminator 3
 714 0010 FFF7FEFF 		bl	xlogging_get_log_function
 715              	.LVL100:
 716 0014 041E     		subs	r4, r0, #0
 717              	.LVL101:
 718 0016 76D0     		beq	.L64
 719              		.loc 1 147 0 is_stmt 0 discriminator 4
 720 0018 3D4B     		ldr	r3, .L66
 721 001a 0193     		str	r3, [sp, #4]
 722 001c 0123     		movs	r3, #1
 723 001e 0093     		str	r3, [sp]
 724 0020 9233     		adds	r3, r3, #146
 725 0022 3C4A     		ldr	r2, .L66+4
 726 0024 1C32     		adds	r2, r2, #28
 727 0026 3C49     		ldr	r1, .L66+8
 728 0028 0020     		movs	r0, #0
 729              	.LVL102:
 730 002a A047     		blx	r4
 731              	.LVL103:
 732              	.LBE8:
 148:Source\azure_iot_sdk\iothub_client\src/iothub_message.c ****         result = NULL;
ARM GAS  C:\Users\Phuong\AppData\Local\Temp\cc4zbCpa.s 			page 17


 733              		.loc 1 148 0 is_stmt 1 discriminator 4
 734 002c 0024     		movs	r4, #0
 735              	.LVL104:
 736 002e 6BE0     		b	.L56
 737              	.LVL105:
 738              	.L55:
 149:Source\azure_iot_sdk\iothub_client\src/iothub_message.c ****     }
 150:Source\azure_iot_sdk\iothub_client\src/iothub_message.c ****     else
 151:Source\azure_iot_sdk\iothub_client\src/iothub_message.c ****     {
 152:Source\azure_iot_sdk\iothub_client\src/iothub_message.c ****         result = (IOTHUB_MESSAGE_HANDLE_DATA*)malloc(sizeof(IOTHUB_MESSAGE_HANDLE_DATA));
 739              		.loc 1 152 0
 740 0030 3020     		movs	r0, #48
 741              	.LVL106:
 742 0032 FFF7FEFF 		bl	malloc
 743              	.LVL107:
 744 0036 041E     		subs	r4, r0, #0
 745              	.LVL108:
 153:Source\azure_iot_sdk\iothub_client\src/iothub_message.c ****         if (result == NULL)
 746              		.loc 1 153 0
 747 0038 0ED1     		bne	.L57
 748              	.LBB9:
 154:Source\azure_iot_sdk\iothub_client\src/iothub_message.c ****         {
 155:Source\azure_iot_sdk\iothub_client\src/iothub_message.c ****             LogError("unable to malloc");
 749              		.loc 1 155 0 discriminator 3
 750 003a FFF7FEFF 		bl	xlogging_get_log_function
 751              	.LVL109:
 752 003e 051E     		subs	r5, r0, #0
 753              	.LVL110:
 754 0040 62D0     		beq	.L56
 755              		.loc 1 155 0 is_stmt 0 discriminator 4
 756 0042 364B     		ldr	r3, .L66+12
 757 0044 0193     		str	r3, [sp, #4]
 758 0046 0123     		movs	r3, #1
 759 0048 0093     		str	r3, [sp]
 760 004a 9A33     		adds	r3, r3, #154
 761 004c 314A     		ldr	r2, .L66+4
 762 004e 1C32     		adds	r2, r2, #28
 763 0050 3149     		ldr	r1, .L66+8
 764 0052 0020     		movs	r0, #0
 765              	.LVL111:
 766 0054 A847     		blx	r5
 767              	.LVL112:
 768 0056 57E0     		b	.L56
 769              	.LVL113:
 770              	.L57:
 771              	.LBE9:
 772              	.LBB10:
 156:Source\azure_iot_sdk\iothub_client\src/iothub_message.c ****             /*Codes_SRS_IOTHUBMESSAGE_02_024: [If there are any errors then IoTHubMessage_CreateFro
 157:Source\azure_iot_sdk\iothub_client\src/iothub_message.c ****             /*let it go through*/
 158:Source\azure_iot_sdk\iothub_client\src/iothub_message.c ****         }
 159:Source\azure_iot_sdk\iothub_client\src/iothub_message.c ****         else
 160:Source\azure_iot_sdk\iothub_client\src/iothub_message.c ****         {
 161:Source\azure_iot_sdk\iothub_client\src/iothub_message.c ****             const unsigned char* source;
 162:Source\azure_iot_sdk\iothub_client\src/iothub_message.c ****             unsigned char temp = 0x00;
 773              		.loc 1 162 0 is_stmt 1
 774 0058 0027     		movs	r7, #0
 775 005a 0F23     		movs	r3, #15
ARM GAS  C:\Users\Phuong\AppData\Local\Temp\cc4zbCpa.s 			page 18


 776 005c 6B44     		add	r3, r3, sp
 777 005e 1F70     		strb	r7, [r3]
 163:Source\azure_iot_sdk\iothub_client\src/iothub_message.c **** 
 164:Source\azure_iot_sdk\iothub_client\src/iothub_message.c ****             memset(result, 0, sizeof(*result));
 778              		.loc 1 164 0
 779 0060 3022     		movs	r2, #48
 780 0062 0021     		movs	r1, #0
 781 0064 FFF7FEFF 		bl	memset
 782              	.LVL114:
 165:Source\azure_iot_sdk\iothub_client\src/iothub_message.c ****             /*Codes_SRS_IOTHUBMESSAGE_02_026: [The type of the new message shall be IOTHUBMESSAGE_B
 166:Source\azure_iot_sdk\iothub_client\src/iothub_message.c ****             result->contentType = IOTHUBMESSAGE_BYTEARRAY;
 783              		.loc 1 166 0
 784 0068 2770     		strb	r7, [r4]
 167:Source\azure_iot_sdk\iothub_client\src/iothub_message.c **** 
 168:Source\azure_iot_sdk\iothub_client\src/iothub_message.c ****             if (size != 0)
 785              		.loc 1 168 0
 786 006a 002E     		cmp	r6, #0
 787 006c 14D0     		beq	.L65
 169:Source\azure_iot_sdk\iothub_client\src/iothub_message.c ****             {
 170:Source\azure_iot_sdk\iothub_client\src/iothub_message.c ****                 /*Codes_SRS_IOTHUBMESSAGE_06_002: [If size is NOT zero then byteArray MUST NOT be N
 171:Source\azure_iot_sdk\iothub_client\src/iothub_message.c ****                 if (byteArray == NULL)
 788              		.loc 1 171 0
 789 006e 002D     		cmp	r5, #0
 790 0070 14D1     		bne	.L58
 791              	.LBB11:
 172:Source\azure_iot_sdk\iothub_client\src/iothub_message.c ****                 {
 173:Source\azure_iot_sdk\iothub_client\src/iothub_message.c ****                     LogError("Attempted to create a Hub Message from a NULL pointer!");
 792              		.loc 1 173 0 discriminator 3
 793 0072 FFF7FEFF 		bl	xlogging_get_log_function
 794              	.LVL115:
 795 0076 071E     		subs	r7, r0, #0
 796              	.LVL116:
 797 0078 09D0     		beq	.L59
 798              		.loc 1 173 0 is_stmt 0 discriminator 4
 799 007a 294B     		ldr	r3, .L66+16
 800 007c 0193     		str	r3, [sp, #4]
 801 007e 0123     		movs	r3, #1
 802 0080 0093     		str	r3, [sp]
 803 0082 AC33     		adds	r3, r3, #172
 804 0084 234A     		ldr	r2, .L66+4
 805 0086 1C32     		adds	r2, r2, #28
 806 0088 2349     		ldr	r1, .L66+8
 807 008a 0020     		movs	r0, #0
 808              	.LVL117:
 809 008c B847     		blx	r7
 810              	.LVL118:
 811              	.L59:
 812              	.LBE11:
 174:Source\azure_iot_sdk\iothub_client\src/iothub_message.c ****                     DestroyMessageData(result);
 813              		.loc 1 174 0 is_stmt 1
 814 008e 2000     		movs	r0, r4
 815 0090 FFF7FEFF 		bl	DestroyMessageData
 816              	.LVL119:
 175:Source\azure_iot_sdk\iothub_client\src/iothub_message.c ****                     result = NULL;
 817              		.loc 1 175 0
 818 0094 0024     		movs	r4, #0
 819 0096 01E0     		b	.L58
ARM GAS  C:\Users\Phuong\AppData\Local\Temp\cc4zbCpa.s 			page 19


 820              	.LVL120:
 821              	.L65:
 176:Source\azure_iot_sdk\iothub_client\src/iothub_message.c ****                     source = NULL;
 177:Source\azure_iot_sdk\iothub_client\src/iothub_message.c ****                 }
 178:Source\azure_iot_sdk\iothub_client\src/iothub_message.c ****                 else
 179:Source\azure_iot_sdk\iothub_client\src/iothub_message.c ****                 {
 180:Source\azure_iot_sdk\iothub_client\src/iothub_message.c ****                     source = byteArray;
 181:Source\azure_iot_sdk\iothub_client\src/iothub_message.c ****                 }
 182:Source\azure_iot_sdk\iothub_client\src/iothub_message.c ****             }
 183:Source\azure_iot_sdk\iothub_client\src/iothub_message.c ****             else
 184:Source\azure_iot_sdk\iothub_client\src/iothub_message.c ****             {
 185:Source\azure_iot_sdk\iothub_client\src/iothub_message.c ****                 /*Codes_SRS_IOTHUBMESSAGE_06_001: [If size is zero then byteArray may be NULL.]*/
 186:Source\azure_iot_sdk\iothub_client\src/iothub_message.c ****                 source = &temp;
 822              		.loc 1 186 0
 823 0098 0F25     		movs	r5, #15
 824              	.LVL121:
 825 009a 6D44     		add	r5, r5, sp
 826              	.LVL122:
 827              	.L58:
 187:Source\azure_iot_sdk\iothub_client\src/iothub_message.c ****             }
 188:Source\azure_iot_sdk\iothub_client\src/iothub_message.c ****             if (result != NULL)
 828              		.loc 1 188 0
 829 009c 002C     		cmp	r4, #0
 830 009e 33D0     		beq	.L56
 189:Source\azure_iot_sdk\iothub_client\src/iothub_message.c ****             {
 190:Source\azure_iot_sdk\iothub_client\src/iothub_message.c ****                 /*Codes_SRS_IOTHUBMESSAGE_02_022: [IoTHubMessage_CreateFromByteArray shall call BUF
 191:Source\azure_iot_sdk\iothub_client\src/iothub_message.c ****                 if ((result->value.byteArray = BUFFER_create(source, size)) == NULL)
 831              		.loc 1 191 0
 832 00a0 3100     		movs	r1, r6
 833 00a2 2800     		movs	r0, r5
 834 00a4 FFF7FEFF 		bl	BUFFER_create
 835              	.LVL123:
 836 00a8 6060     		str	r0, [r4, #4]
 837 00aa 0028     		cmp	r0, #0
 838 00ac 12D1     		bne	.L61
 839              	.LBB12:
 192:Source\azure_iot_sdk\iothub_client\src/iothub_message.c ****                 {
 193:Source\azure_iot_sdk\iothub_client\src/iothub_message.c ****                     LogError("BUFFER_create failed");
 840              		.loc 1 193 0 discriminator 3
 841 00ae FFF7FEFF 		bl	xlogging_get_log_function
 842              	.LVL124:
 843 00b2 051E     		subs	r5, r0, #0
 844              	.LVL125:
 845 00b4 09D0     		beq	.L62
 846              		.loc 1 193 0 is_stmt 0 discriminator 4
 847 00b6 1B4B     		ldr	r3, .L66+20
 848 00b8 0193     		str	r3, [sp, #4]
 849 00ba 0123     		movs	r3, #1
 850 00bc 0093     		str	r3, [sp]
 851 00be C033     		adds	r3, r3, #192
 852 00c0 144A     		ldr	r2, .L66+4
 853 00c2 1C32     		adds	r2, r2, #28
 854 00c4 1449     		ldr	r1, .L66+8
 855 00c6 0020     		movs	r0, #0
 856              	.LVL126:
 857 00c8 A847     		blx	r5
 858              	.LVL127:
ARM GAS  C:\Users\Phuong\AppData\Local\Temp\cc4zbCpa.s 			page 20


 859              	.L62:
 860              	.LBE12:
 194:Source\azure_iot_sdk\iothub_client\src/iothub_message.c ****                     /*Codes_SRS_IOTHUBMESSAGE_02_024: [If there are any errors then IoTHubMessage_C
 195:Source\azure_iot_sdk\iothub_client\src/iothub_message.c ****                     DestroyMessageData(result);
 861              		.loc 1 195 0 is_stmt 1
 862 00ca 2000     		movs	r0, r4
 863 00cc FFF7FEFF 		bl	DestroyMessageData
 864              	.LVL128:
 196:Source\azure_iot_sdk\iothub_client\src/iothub_message.c ****                     result = NULL;
 865              		.loc 1 196 0
 866 00d0 0024     		movs	r4, #0
 867 00d2 19E0     		b	.L56
 868              	.LVL129:
 869              	.L61:
 197:Source\azure_iot_sdk\iothub_client\src/iothub_message.c ****                 }
 198:Source\azure_iot_sdk\iothub_client\src/iothub_message.c ****                 /*Codes_SRS_IOTHUBMESSAGE_02_023: [IoTHubMessage_CreateFromByteArray shall call Map
 199:Source\azure_iot_sdk\iothub_client\src/iothub_message.c ****                 else if ((result->properties = Map_Create(ValidateAsciiCharactersFilter)) == NULL)
 870              		.loc 1 199 0
 871 00d4 1448     		ldr	r0, .L66+24
 872 00d6 FFF7FEFF 		bl	Map_Create
 873              	.LVL130:
 874 00da A060     		str	r0, [r4, #8]
 875 00dc 0028     		cmp	r0, #0
 876 00de 13D1     		bne	.L56
 877              	.LBB13:
 200:Source\azure_iot_sdk\iothub_client\src/iothub_message.c ****                 {
 201:Source\azure_iot_sdk\iothub_client\src/iothub_message.c ****                     LogError("Map_Create for properties failed");
 878              		.loc 1 201 0 discriminator 3
 879 00e0 FFF7FEFF 		bl	xlogging_get_log_function
 880              	.LVL131:
 881 00e4 051E     		subs	r5, r0, #0
 882              	.LVL132:
 883 00e6 09D0     		beq	.L63
 884              		.loc 1 201 0 is_stmt 0 discriminator 4
 885 00e8 104B     		ldr	r3, .L66+28
 886 00ea 0193     		str	r3, [sp, #4]
 887 00ec 0123     		movs	r3, #1
 888 00ee 0093     		str	r3, [sp]
 889 00f0 C833     		adds	r3, r3, #200
 890 00f2 084A     		ldr	r2, .L66+4
 891 00f4 1C32     		adds	r2, r2, #28
 892 00f6 0849     		ldr	r1, .L66+8
 893 00f8 0020     		movs	r0, #0
 894              	.LVL133:
 895 00fa A847     		blx	r5
 896              	.LVL134:
 897              	.L63:
 898              	.LBE13:
 202:Source\azure_iot_sdk\iothub_client\src/iothub_message.c ****                     /*Codes_SRS_IOTHUBMESSAGE_02_024: [If there are any errors then IoTHubMessage_C
 203:Source\azure_iot_sdk\iothub_client\src/iothub_message.c ****                     DestroyMessageData(result);
 899              		.loc 1 203 0 is_stmt 1
 900 00fc 2000     		movs	r0, r4
 901 00fe FFF7FEFF 		bl	DestroyMessageData
 902              	.LVL135:
 204:Source\azure_iot_sdk\iothub_client\src/iothub_message.c ****                     result = NULL;
 903              		.loc 1 204 0
 904 0102 0024     		movs	r4, #0
ARM GAS  C:\Users\Phuong\AppData\Local\Temp\cc4zbCpa.s 			page 21


 905 0104 00E0     		b	.L56
 906              	.LVL136:
 907              	.L64:
 908              	.LBE10:
 148:Source\azure_iot_sdk\iothub_client\src/iothub_message.c ****     }
 909              		.loc 1 148 0
 910 0106 0024     		movs	r4, #0
 911              	.LVL137:
 912              	.L56:
 205:Source\azure_iot_sdk\iothub_client\src/iothub_message.c ****                 }
 206:Source\azure_iot_sdk\iothub_client\src/iothub_message.c ****                 /*Codes_SRS_IOTHUBMESSAGE_02_025: [Otherwise, IoTHubMessage_CreateFromByteArray sha
 207:Source\azure_iot_sdk\iothub_client\src/iothub_message.c ****             }
 208:Source\azure_iot_sdk\iothub_client\src/iothub_message.c ****         }
 209:Source\azure_iot_sdk\iothub_client\src/iothub_message.c ****     }
 210:Source\azure_iot_sdk\iothub_client\src/iothub_message.c ****     return result;
 211:Source\azure_iot_sdk\iothub_client\src/iothub_message.c **** }
 913              		.loc 1 211 0
 914 0108 2000     		movs	r0, r4
 915 010a 05B0     		add	sp, sp, #20
 916              		@ sp needed
 917              	.LVL138:
 918              	.LVL139:
 919 010c F0BD     		pop	{r4, r5, r6, r7, pc}
 920              	.L67:
 921 010e C046     		.align	2
 922              	.L66:
 923 0110 D0000000 		.word	.LC17
 924 0114 00000000 		.word	.LANCHOR0
 925 0118 00000000 		.word	.LC1
 926 011c F8000000 		.word	.LC19
 927 0120 0C010000 		.word	.LC21
 928 0124 44010000 		.word	.LC23
 929 0128 00000000 		.word	ValidateAsciiCharactersFilter
 930 012c 5C010000 		.word	.LC26
 931              		.cfi_endproc
 932              	.LFE10:
 933              		.size	IoTHubMessage_CreateFromByteArray, .-IoTHubMessage_CreateFromByteArray
 934              		.section	.text.IoTHubMessage_CreateFromString,"ax",%progbits
 935              		.align	2
 936              		.global	IoTHubMessage_CreateFromString
 937              		.code	16
 938              		.thumb_func
 939              		.type	IoTHubMessage_CreateFromString, %function
 940              	IoTHubMessage_CreateFromString:
 941              	.LFB11:
 212:Source\azure_iot_sdk\iothub_client\src/iothub_message.c **** 
 213:Source\azure_iot_sdk\iothub_client\src/iothub_message.c **** IOTHUB_MESSAGE_HANDLE IoTHubMessage_CreateFromString(const char* source)
 214:Source\azure_iot_sdk\iothub_client\src/iothub_message.c **** {
 942              		.loc 1 214 0
 943              		.cfi_startproc
 944              		@ args = 0, pretend = 0, frame = 0
 945              		@ frame_needed = 0, uses_anonymous_args = 0
 946              	.LVL140:
 947 0000 30B5     		push	{r4, r5, lr}
 948              		.cfi_def_cfa_offset 12
 949              		.cfi_offset 4, -12
 950              		.cfi_offset 5, -8
ARM GAS  C:\Users\Phuong\AppData\Local\Temp\cc4zbCpa.s 			page 22


 951              		.cfi_offset 14, -4
 952 0002 83B0     		sub	sp, sp, #12
 953              		.cfi_def_cfa_offset 24
 954 0004 051E     		subs	r5, r0, #0
 215:Source\azure_iot_sdk\iothub_client\src/iothub_message.c ****     IOTHUB_MESSAGE_HANDLE_DATA* result;
 216:Source\azure_iot_sdk\iothub_client\src/iothub_message.c ****     if (source == NULL)
 955              		.loc 1 216 0
 956 0006 0FD1     		bne	.L69
 957              	.LBB14:
 217:Source\azure_iot_sdk\iothub_client\src/iothub_message.c ****     {
 218:Source\azure_iot_sdk\iothub_client\src/iothub_message.c ****         LogError("Invalid argument - source is NULL");
 958              		.loc 1 218 0 discriminator 3
 959 0008 FFF7FEFF 		bl	xlogging_get_log_function
 960              	.LVL141:
 961 000c 041E     		subs	r4, r0, #0
 962              	.LVL142:
 963 000e 57D0     		beq	.L75
 964              		.loc 1 218 0 is_stmt 0 discriminator 4
 965 0010 2D4B     		ldr	r3, .L76
 966 0012 0193     		str	r3, [sp, #4]
 967 0014 0123     		movs	r3, #1
 968 0016 0093     		str	r3, [sp]
 969 0018 D933     		adds	r3, r3, #217
 970 001a 2C4A     		ldr	r2, .L76+4
 971 001c 4032     		adds	r2, r2, #64
 972 001e 2C49     		ldr	r1, .L76+8
 973 0020 0020     		movs	r0, #0
 974              	.LVL143:
 975 0022 A047     		blx	r4
 976              	.LVL144:
 977              	.LBE14:
 219:Source\azure_iot_sdk\iothub_client\src/iothub_message.c ****         result = NULL;
 978              		.loc 1 219 0 is_stmt 1 discriminator 4
 979 0024 0024     		movs	r4, #0
 980              	.LVL145:
 981 0026 4CE0     		b	.L70
 982              	.LVL146:
 983              	.L69:
 220:Source\azure_iot_sdk\iothub_client\src/iothub_message.c ****     }
 221:Source\azure_iot_sdk\iothub_client\src/iothub_message.c ****     else
 222:Source\azure_iot_sdk\iothub_client\src/iothub_message.c ****     {
 223:Source\azure_iot_sdk\iothub_client\src/iothub_message.c ****         result = (IOTHUB_MESSAGE_HANDLE_DATA*)malloc(sizeof(IOTHUB_MESSAGE_HANDLE_DATA));
 984              		.loc 1 223 0
 985 0028 3020     		movs	r0, #48
 986              	.LVL147:
 987 002a FFF7FEFF 		bl	malloc
 988              	.LVL148:
 989 002e 041E     		subs	r4, r0, #0
 990              	.LVL149:
 224:Source\azure_iot_sdk\iothub_client\src/iothub_message.c ****         if (result == NULL)
 991              		.loc 1 224 0
 992 0030 0ED1     		bne	.L71
 993              	.LBB15:
 225:Source\azure_iot_sdk\iothub_client\src/iothub_message.c ****         {
 226:Source\azure_iot_sdk\iothub_client\src/iothub_message.c ****             LogError("malloc failed");
 994              		.loc 1 226 0 discriminator 3
 995 0032 FFF7FEFF 		bl	xlogging_get_log_function
ARM GAS  C:\Users\Phuong\AppData\Local\Temp\cc4zbCpa.s 			page 23


 996              	.LVL150:
 997 0036 051E     		subs	r5, r0, #0
 998              	.LVL151:
 999 0038 43D0     		beq	.L70
 1000              		.loc 1 226 0 is_stmt 0 discriminator 4
 1001 003a 264B     		ldr	r3, .L76+12
 1002 003c 0193     		str	r3, [sp, #4]
 1003 003e 0123     		movs	r3, #1
 1004 0040 0093     		str	r3, [sp]
 1005 0042 E133     		adds	r3, r3, #225
 1006 0044 214A     		ldr	r2, .L76+4
 1007 0046 4032     		adds	r2, r2, #64
 1008 0048 2149     		ldr	r1, .L76+8
 1009 004a 0020     		movs	r0, #0
 1010              	.LVL152:
 1011 004c A847     		blx	r5
 1012              	.LVL153:
 1013 004e 38E0     		b	.L70
 1014              	.LVL154:
 1015              	.L71:
 1016              	.LBE15:
 227:Source\azure_iot_sdk\iothub_client\src/iothub_message.c ****             /*Codes_SRS_IOTHUBMESSAGE_02_029: [If there are any encountered in the execution of IoT
 228:Source\azure_iot_sdk\iothub_client\src/iothub_message.c ****             /*let it go through*/
 229:Source\azure_iot_sdk\iothub_client\src/iothub_message.c ****         }
 230:Source\azure_iot_sdk\iothub_client\src/iothub_message.c ****         else
 231:Source\azure_iot_sdk\iothub_client\src/iothub_message.c ****         {
 232:Source\azure_iot_sdk\iothub_client\src/iothub_message.c ****             memset(result, 0, sizeof(*result));
 1017              		.loc 1 232 0 is_stmt 1
 1018 0050 3022     		movs	r2, #48
 1019 0052 0021     		movs	r1, #0
 1020 0054 FFF7FEFF 		bl	memset
 1021              	.LVL155:
 233:Source\azure_iot_sdk\iothub_client\src/iothub_message.c ****             /*Codes_SRS_IOTHUBMESSAGE_02_032: [The type of the new message shall be IOTHUBMESSAGE_S
 234:Source\azure_iot_sdk\iothub_client\src/iothub_message.c ****             result->contentType = IOTHUBMESSAGE_STRING;
 1022              		.loc 1 234 0
 1023 0058 0123     		movs	r3, #1
 1024 005a 2370     		strb	r3, [r4]
 235:Source\azure_iot_sdk\iothub_client\src/iothub_message.c **** 
 236:Source\azure_iot_sdk\iothub_client\src/iothub_message.c ****             /*Codes_SRS_IOTHUBMESSAGE_02_027: [IoTHubMessage_CreateFromString shall call STRING_con
 237:Source\azure_iot_sdk\iothub_client\src/iothub_message.c ****             if ((result->value.string = STRING_construct(source)) == NULL)
 1025              		.loc 1 237 0
 1026 005c 2800     		movs	r0, r5
 1027 005e FFF7FEFF 		bl	STRING_construct
 1028              	.LVL156:
 1029 0062 6060     		str	r0, [r4, #4]
 1030 0064 0028     		cmp	r0, #0
 1031 0066 12D1     		bne	.L72
 1032              	.LBB16:
 238:Source\azure_iot_sdk\iothub_client\src/iothub_message.c ****             {
 239:Source\azure_iot_sdk\iothub_client\src/iothub_message.c ****                 LogError("STRING_construct failed");
 1033              		.loc 1 239 0 discriminator 3
 1034 0068 FFF7FEFF 		bl	xlogging_get_log_function
 1035              	.LVL157:
 1036 006c 051E     		subs	r5, r0, #0
 1037              	.LVL158:
 1038 006e 09D0     		beq	.L73
 1039              		.loc 1 239 0 is_stmt 0 discriminator 4
ARM GAS  C:\Users\Phuong\AppData\Local\Temp\cc4zbCpa.s 			page 24


 1040 0070 194B     		ldr	r3, .L76+16
 1041 0072 0193     		str	r3, [sp, #4]
 1042 0074 0123     		movs	r3, #1
 1043 0076 0093     		str	r3, [sp]
 1044 0078 EE33     		adds	r3, r3, #238
 1045 007a 144A     		ldr	r2, .L76+4
 1046 007c 4032     		adds	r2, r2, #64
 1047 007e 1449     		ldr	r1, .L76+8
 1048 0080 0020     		movs	r0, #0
 1049              	.LVL159:
 1050 0082 A847     		blx	r5
 1051              	.LVL160:
 1052              	.L73:
 1053              	.LBE16:
 240:Source\azure_iot_sdk\iothub_client\src/iothub_message.c ****                 /*Codes_SRS_IOTHUBMESSAGE_02_029: [If there are any encountered in the execution of
 241:Source\azure_iot_sdk\iothub_client\src/iothub_message.c ****                 DestroyMessageData(result);
 1054              		.loc 1 241 0 is_stmt 1
 1055 0084 2000     		movs	r0, r4
 1056 0086 FFF7FEFF 		bl	DestroyMessageData
 1057              	.LVL161:
 242:Source\azure_iot_sdk\iothub_client\src/iothub_message.c ****                 result = NULL;
 1058              		.loc 1 242 0
 1059 008a 0024     		movs	r4, #0
 1060 008c 19E0     		b	.L70
 1061              	.LVL162:
 1062              	.L72:
 243:Source\azure_iot_sdk\iothub_client\src/iothub_message.c ****             }
 244:Source\azure_iot_sdk\iothub_client\src/iothub_message.c ****             /*Codes_SRS_IOTHUBMESSAGE_02_028: [IoTHubMessage_CreateFromString shall call Map_Create
 245:Source\azure_iot_sdk\iothub_client\src/iothub_message.c ****             else if ((result->properties = Map_Create(ValidateAsciiCharactersFilter)) == NULL)
 1063              		.loc 1 245 0
 1064 008e 1348     		ldr	r0, .L76+20
 1065 0090 FFF7FEFF 		bl	Map_Create
 1066              	.LVL163:
 1067 0094 A060     		str	r0, [r4, #8]
 1068 0096 0028     		cmp	r0, #0
 1069 0098 13D1     		bne	.L70
 1070              	.LBB17:
 246:Source\azure_iot_sdk\iothub_client\src/iothub_message.c ****             {
 247:Source\azure_iot_sdk\iothub_client\src/iothub_message.c ****                 LogError("Map_Create for properties failed");
 1071              		.loc 1 247 0 discriminator 3
 1072 009a FFF7FEFF 		bl	xlogging_get_log_function
 1073              	.LVL164:
 1074 009e 051E     		subs	r5, r0, #0
 1075              	.LVL165:
 1076 00a0 09D0     		beq	.L74
 1077              		.loc 1 247 0 is_stmt 0 discriminator 4
 1078 00a2 0F4B     		ldr	r3, .L76+24
 1079 00a4 0193     		str	r3, [sp, #4]
 1080 00a6 0123     		movs	r3, #1
 1081 00a8 0093     		str	r3, [sp]
 1082 00aa F633     		adds	r3, r3, #246
 1083 00ac 074A     		ldr	r2, .L76+4
 1084 00ae 4032     		adds	r2, r2, #64
 1085 00b0 0749     		ldr	r1, .L76+8
 1086 00b2 0020     		movs	r0, #0
 1087              	.LVL166:
 1088 00b4 A847     		blx	r5
ARM GAS  C:\Users\Phuong\AppData\Local\Temp\cc4zbCpa.s 			page 25


 1089              	.LVL167:
 1090              	.L74:
 1091              	.LBE17:
 248:Source\azure_iot_sdk\iothub_client\src/iothub_message.c ****                 /*Codes_SRS_IOTHUBMESSAGE_02_029: [If there are any encountered in the execution of
 249:Source\azure_iot_sdk\iothub_client\src/iothub_message.c ****                 DestroyMessageData(result);
 1092              		.loc 1 249 0 is_stmt 1
 1093 00b6 2000     		movs	r0, r4
 1094 00b8 FFF7FEFF 		bl	DestroyMessageData
 1095              	.LVL168:
 250:Source\azure_iot_sdk\iothub_client\src/iothub_message.c ****                 result = NULL;
 1096              		.loc 1 250 0
 1097 00bc 0024     		movs	r4, #0
 1098 00be 00E0     		b	.L70
 1099              	.LVL169:
 1100              	.L75:
 219:Source\azure_iot_sdk\iothub_client\src/iothub_message.c ****     }
 1101              		.loc 1 219 0
 1102 00c0 0024     		movs	r4, #0
 1103              	.LVL170:
 1104              	.L70:
 251:Source\azure_iot_sdk\iothub_client\src/iothub_message.c ****             }
 252:Source\azure_iot_sdk\iothub_client\src/iothub_message.c ****             /*Codes_SRS_IOTHUBMESSAGE_02_031: [Otherwise, IoTHubMessage_CreateFromString shall retu
 253:Source\azure_iot_sdk\iothub_client\src/iothub_message.c ****         }
 254:Source\azure_iot_sdk\iothub_client\src/iothub_message.c ****     }
 255:Source\azure_iot_sdk\iothub_client\src/iothub_message.c ****     return result;
 256:Source\azure_iot_sdk\iothub_client\src/iothub_message.c **** }
 1105              		.loc 1 256 0
 1106 00c2 2000     		movs	r0, r4
 1107 00c4 03B0     		add	sp, sp, #12
 1108              		@ sp needed
 1109              	.LVL171:
 1110 00c6 30BD     		pop	{r4, r5, pc}
 1111              	.L77:
 1112              		.align	2
 1113              	.L76:
 1114 00c8 38000000 		.word	.LC3
 1115 00cc 00000000 		.word	.LANCHOR0
 1116 00d0 00000000 		.word	.LC1
 1117 00d4 5C000000 		.word	.LC5
 1118 00d8 80010000 		.word	.LC32
 1119 00dc 00000000 		.word	ValidateAsciiCharactersFilter
 1120 00e0 5C010000 		.word	.LC26
 1121              		.cfi_endproc
 1122              	.LFE11:
 1123              		.size	IoTHubMessage_CreateFromString, .-IoTHubMessage_CreateFromString
 1124              		.section	.text.IoTHubMessage_Clone,"ax",%progbits
 1125              		.align	2
 1126              		.global	IoTHubMessage_Clone
 1127              		.code	16
 1128              		.thumb_func
 1129              		.type	IoTHubMessage_Clone, %function
 1130              	IoTHubMessage_Clone:
 1131              	.LFB12:
 257:Source\azure_iot_sdk\iothub_client\src/iothub_message.c **** 
 258:Source\azure_iot_sdk\iothub_client\src/iothub_message.c **** /*Codes_SRS_IOTHUBMESSAGE_03_001: [IoTHubMessage_Clone shall create a new IoT hub message with data
 259:Source\azure_iot_sdk\iothub_client\src/iothub_message.c **** IOTHUB_MESSAGE_HANDLE IoTHubMessage_Clone(IOTHUB_MESSAGE_HANDLE iotHubMessageHandle)
 260:Source\azure_iot_sdk\iothub_client\src/iothub_message.c **** {
ARM GAS  C:\Users\Phuong\AppData\Local\Temp\cc4zbCpa.s 			page 26


 1132              		.loc 1 260 0
 1133              		.cfi_startproc
 1134              		@ args = 0, pretend = 0, frame = 0
 1135              		@ frame_needed = 0, uses_anonymous_args = 0
 1136              	.LVL172:
 1137 0000 30B5     		push	{r4, r5, lr}
 1138              		.cfi_def_cfa_offset 12
 1139              		.cfi_offset 4, -12
 1140              		.cfi_offset 5, -8
 1141              		.cfi_offset 14, -4
 1142 0002 83B0     		sub	sp, sp, #12
 1143              		.cfi_def_cfa_offset 24
 1144 0004 041E     		subs	r4, r0, #0
 1145              	.LVL173:
 261:Source\azure_iot_sdk\iothub_client\src/iothub_message.c ****     IOTHUB_MESSAGE_HANDLE_DATA* result;
 262:Source\azure_iot_sdk\iothub_client\src/iothub_message.c ****     const IOTHUB_MESSAGE_HANDLE_DATA* source = (const IOTHUB_MESSAGE_HANDLE_DATA*)iotHubMessageHand
 263:Source\azure_iot_sdk\iothub_client\src/iothub_message.c ****     /* Codes_SRS_IOTHUBMESSAGE_03_005: [IoTHubMessage_Clone shall return NULL if iotHubMessageHandl
 264:Source\azure_iot_sdk\iothub_client\src/iothub_message.c ****     if (source == NULL)
 1146              		.loc 1 264 0
 1147 0006 11D1     		bne	.L79
 1148              	.LVL174:
 1149              	.LBB18:
 265:Source\azure_iot_sdk\iothub_client\src/iothub_message.c ****     {
 266:Source\azure_iot_sdk\iothub_client\src/iothub_message.c ****         result = NULL;
 267:Source\azure_iot_sdk\iothub_client\src/iothub_message.c ****         LogError("iotHubMessageHandle parameter cannot be NULL for IoTHubMessage_Clone");
 1150              		.loc 1 267 0
 1151 0008 FFF7FEFF 		bl	xlogging_get_log_function
 1152              	.LVL175:
 1153 000c 041E     		subs	r4, r0, #0
 1154              	.LVL176:
 1155 000e 00D1     		bne	.LCB1174
 1156 0010 B4E1     		b	.L107	@long jump
 1157              	.LCB1174:
 1158              		.loc 1 267 0 is_stmt 0 discriminator 4
 1159 0012 BF4B     		ldr	r3, .L108
 1160 0014 0193     		str	r3, [sp, #4]
 1161 0016 0123     		movs	r3, #1
 1162 0018 0093     		str	r3, [sp]
 1163 001a 0C23     		movs	r3, #12
 1164 001c FF33     		adds	r3, r3, #255
 1165 001e BD4A     		ldr	r2, .L108+4
 1166 0020 6032     		adds	r2, r2, #96
 1167 0022 BD49     		ldr	r1, .L108+8
 1168 0024 0020     		movs	r0, #0
 1169              	.LVL177:
 1170 0026 A047     		blx	r4
 1171              	.LVL178:
 1172              	.LBE18:
 266:Source\azure_iot_sdk\iothub_client\src/iothub_message.c ****         LogError("iotHubMessageHandle parameter cannot be NULL for IoTHubMessage_Clone");
 1173              		.loc 1 266 0 is_stmt 1 discriminator 4
 1174 0028 0025     		movs	r5, #0
 1175 002a A8E1     		b	.L80
 1176              	.LVL179:
 1177              	.L79:
 268:Source\azure_iot_sdk\iothub_client\src/iothub_message.c ****     }
 269:Source\azure_iot_sdk\iothub_client\src/iothub_message.c ****     else
 270:Source\azure_iot_sdk\iothub_client\src/iothub_message.c ****     {
ARM GAS  C:\Users\Phuong\AppData\Local\Temp\cc4zbCpa.s 			page 27


 271:Source\azure_iot_sdk\iothub_client\src/iothub_message.c ****         result = (IOTHUB_MESSAGE_HANDLE_DATA*)malloc(sizeof(IOTHUB_MESSAGE_HANDLE_DATA));
 1178              		.loc 1 271 0
 1179 002c 3020     		movs	r0, #48
 1180              	.LVL180:
 1181 002e FFF7FEFF 		bl	malloc
 1182              	.LVL181:
 1183 0032 051E     		subs	r5, r0, #0
 1184              	.LVL182:
 272:Source\azure_iot_sdk\iothub_client\src/iothub_message.c ****         /*Codes_SRS_IOTHUBMESSAGE_03_004: [IoTHubMessage_Clone shall return NULL if it fails for an
 273:Source\azure_iot_sdk\iothub_client\src/iothub_message.c ****         if (result == NULL)
 1185              		.loc 1 273 0
 1186 0034 10D1     		bne	.L81
 1187              	.LBB19:
 274:Source\azure_iot_sdk\iothub_client\src/iothub_message.c ****         {
 275:Source\azure_iot_sdk\iothub_client\src/iothub_message.c ****             /*Codes_SRS_IOTHUBMESSAGE_03_004: [IoTHubMessage_Clone shall return NULL if it fails fo
 276:Source\azure_iot_sdk\iothub_client\src/iothub_message.c ****             /*do nothing and return as is*/
 277:Source\azure_iot_sdk\iothub_client\src/iothub_message.c ****             LogError("unable to malloc");
 1188              		.loc 1 277 0 discriminator 3
 1189 0036 FFF7FEFF 		bl	xlogging_get_log_function
 1190              	.LVL183:
 1191 003a 041E     		subs	r4, r0, #0
 1192              	.LVL184:
 1193 003c 00D1     		bne	.LCB1216
 1194 003e 9EE1     		b	.L80	@long jump
 1195              	.LCB1216:
 1196              		.loc 1 277 0 is_stmt 0 discriminator 4
 1197 0040 B64B     		ldr	r3, .L108+12
 1198 0042 0193     		str	r3, [sp, #4]
 1199 0044 0123     		movs	r3, #1
 1200 0046 0093     		str	r3, [sp]
 1201 0048 1623     		movs	r3, #22
 1202 004a FF33     		adds	r3, r3, #255
 1203 004c B14A     		ldr	r2, .L108+4
 1204 004e 6032     		adds	r2, r2, #96
 1205 0050 B149     		ldr	r1, .L108+8
 1206 0052 0020     		movs	r0, #0
 1207              	.LVL185:
 1208 0054 A047     		blx	r4
 1209              	.LVL186:
 1210 0056 92E1     		b	.L80
 1211              	.LVL187:
 1212              	.L81:
 1213              	.LBE19:
 278:Source\azure_iot_sdk\iothub_client\src/iothub_message.c ****         }
 279:Source\azure_iot_sdk\iothub_client\src/iothub_message.c ****         else
 280:Source\azure_iot_sdk\iothub_client\src/iothub_message.c ****         {
 281:Source\azure_iot_sdk\iothub_client\src/iothub_message.c ****             memset(result, 0, sizeof(*result));
 1214              		.loc 1 281 0 is_stmt 1
 1215 0058 3022     		movs	r2, #48
 1216 005a 0021     		movs	r1, #0
 1217 005c FFF7FEFF 		bl	memset
 1218              	.LVL188:
 282:Source\azure_iot_sdk\iothub_client\src/iothub_message.c ****             result->contentType = source->contentType;
 1219              		.loc 1 282 0
 1220 0060 2378     		ldrb	r3, [r4]
 1221 0062 2B70     		strb	r3, [r5]
 283:Source\azure_iot_sdk\iothub_client\src/iothub_message.c **** 
ARM GAS  C:\Users\Phuong\AppData\Local\Temp\cc4zbCpa.s 			page 28


 284:Source\azure_iot_sdk\iothub_client\src/iothub_message.c ****             if (source->messageId != NULL && mallocAndStrcpy_s(&result->messageId, source->messageI
 1222              		.loc 1 284 0
 1223 0064 E168     		ldr	r1, [r4, #12]
 1224 0066 0029     		cmp	r1, #0
 1225 0068 19D0     		beq	.L82
 1226              		.loc 1 284 0 is_stmt 0 discriminator 1
 1227 006a 2800     		movs	r0, r5
 1228 006c 0C30     		adds	r0, r0, #12
 1229 006e FFF7FEFF 		bl	mallocAndStrcpy_s
 1230              	.LVL189:
 1231 0072 0028     		cmp	r0, #0
 1232 0074 13D0     		beq	.L82
 1233              	.LBB20:
 285:Source\azure_iot_sdk\iothub_client\src/iothub_message.c ****             {
 286:Source\azure_iot_sdk\iothub_client\src/iothub_message.c ****                 LogError("unable to Copy messageId");
 1234              		.loc 1 286 0 is_stmt 1 discriminator 3
 1235 0076 FFF7FEFF 		bl	xlogging_get_log_function
 1236              	.LVL190:
 1237 007a 041E     		subs	r4, r0, #0
 1238              	.LVL191:
 1239 007c 0AD0     		beq	.L83
 1240              		.loc 1 286 0 is_stmt 0 discriminator 4
 1241 007e A84B     		ldr	r3, .L108+16
 1242 0080 0193     		str	r3, [sp, #4]
 1243 0082 0123     		movs	r3, #1
 1244 0084 0093     		str	r3, [sp]
 1245 0086 1E33     		adds	r3, r3, #30
 1246 0088 FF33     		adds	r3, r3, #255
 1247 008a A24A     		ldr	r2, .L108+4
 1248 008c 6032     		adds	r2, r2, #96
 1249 008e A249     		ldr	r1, .L108+8
 1250 0090 0020     		movs	r0, #0
 1251              	.LVL192:
 1252 0092 A047     		blx	r4
 1253              	.LVL193:
 1254              	.L83:
 1255              	.LBE20:
 287:Source\azure_iot_sdk\iothub_client\src/iothub_message.c ****                 DestroyMessageData(result);
 1256              		.loc 1 287 0 is_stmt 1
 1257 0094 2800     		movs	r0, r5
 1258 0096 FFF7FEFF 		bl	DestroyMessageData
 1259              	.LVL194:
 288:Source\azure_iot_sdk\iothub_client\src/iothub_message.c ****                 result = NULL;
 1260              		.loc 1 288 0
 1261 009a 0025     		movs	r5, #0
 1262 009c 6FE1     		b	.L80
 1263              	.LVL195:
 1264              	.L82:
 289:Source\azure_iot_sdk\iothub_client\src/iothub_message.c ****             }
 290:Source\azure_iot_sdk\iothub_client\src/iothub_message.c ****             else if (source->correlationId != NULL && mallocAndStrcpy_s(&result->correlationId, sou
 1265              		.loc 1 290 0
 1266 009e 2169     		ldr	r1, [r4, #16]
 1267 00a0 0029     		cmp	r1, #0
 1268 00a2 19D0     		beq	.L84
 1269              		.loc 1 290 0 is_stmt 0 discriminator 1
 1270 00a4 2800     		movs	r0, r5
 1271 00a6 1030     		adds	r0, r0, #16
ARM GAS  C:\Users\Phuong\AppData\Local\Temp\cc4zbCpa.s 			page 29


 1272 00a8 FFF7FEFF 		bl	mallocAndStrcpy_s
 1273              	.LVL196:
 1274 00ac 0028     		cmp	r0, #0
 1275 00ae 13D0     		beq	.L84
 1276              	.LBB21:
 291:Source\azure_iot_sdk\iothub_client\src/iothub_message.c ****             {
 292:Source\azure_iot_sdk\iothub_client\src/iothub_message.c ****                 LogError("unable to Copy correlationId");
 1277              		.loc 1 292 0 is_stmt 1 discriminator 3
 1278 00b0 FFF7FEFF 		bl	xlogging_get_log_function
 1279              	.LVL197:
 1280 00b4 041E     		subs	r4, r0, #0
 1281              	.LVL198:
 1282 00b6 0AD0     		beq	.L85
 1283              		.loc 1 292 0 is_stmt 0 discriminator 4
 1284 00b8 9A4B     		ldr	r3, .L108+20
 1285 00ba 0193     		str	r3, [sp, #4]
 1286 00bc 0123     		movs	r3, #1
 1287 00be 0093     		str	r3, [sp]
 1288 00c0 2433     		adds	r3, r3, #36
 1289 00c2 FF33     		adds	r3, r3, #255
 1290 00c4 934A     		ldr	r2, .L108+4
 1291 00c6 6032     		adds	r2, r2, #96
 1292 00c8 9349     		ldr	r1, .L108+8
 1293 00ca 0020     		movs	r0, #0
 1294              	.LVL199:
 1295 00cc A047     		blx	r4
 1296              	.LVL200:
 1297              	.L85:
 1298              	.LBE21:
 293:Source\azure_iot_sdk\iothub_client\src/iothub_message.c ****                 DestroyMessageData(result);
 1299              		.loc 1 293 0 is_stmt 1
 1300 00ce 2800     		movs	r0, r5
 1301 00d0 FFF7FEFF 		bl	DestroyMessageData
 1302              	.LVL201:
 294:Source\azure_iot_sdk\iothub_client\src/iothub_message.c ****                 result = NULL;
 1303              		.loc 1 294 0
 1304 00d4 0025     		movs	r5, #0
 1305 00d6 52E1     		b	.L80
 1306              	.LVL202:
 1307              	.L84:
 295:Source\azure_iot_sdk\iothub_client\src/iothub_message.c ****             }
 296:Source\azure_iot_sdk\iothub_client\src/iothub_message.c ****             else if (source->userDefinedContentType != NULL && mallocAndStrcpy_s(&result->userDefin
 1308              		.loc 1 296 0
 1309 00d8 6169     		ldr	r1, [r4, #20]
 1310 00da 0029     		cmp	r1, #0
 1311 00dc 19D0     		beq	.L86
 1312              		.loc 1 296 0 is_stmt 0 discriminator 1
 1313 00de 2800     		movs	r0, r5
 1314 00e0 1430     		adds	r0, r0, #20
 1315 00e2 FFF7FEFF 		bl	mallocAndStrcpy_s
 1316              	.LVL203:
 1317 00e6 0028     		cmp	r0, #0
 1318 00e8 13D0     		beq	.L86
 1319              	.LBB22:
 297:Source\azure_iot_sdk\iothub_client\src/iothub_message.c ****             {
 298:Source\azure_iot_sdk\iothub_client\src/iothub_message.c ****                 LogError("unable to copy contentType");
 1320              		.loc 1 298 0 is_stmt 1 discriminator 3
ARM GAS  C:\Users\Phuong\AppData\Local\Temp\cc4zbCpa.s 			page 30


 1321 00ea FFF7FEFF 		bl	xlogging_get_log_function
 1322              	.LVL204:
 1323 00ee 041E     		subs	r4, r0, #0
 1324              	.LVL205:
 1325 00f0 0AD0     		beq	.L87
 1326              		.loc 1 298 0 is_stmt 0 discriminator 4
 1327 00f2 8D4B     		ldr	r3, .L108+24
 1328 00f4 0193     		str	r3, [sp, #4]
 1329 00f6 0123     		movs	r3, #1
 1330 00f8 0093     		str	r3, [sp]
 1331 00fa 2A33     		adds	r3, r3, #42
 1332 00fc FF33     		adds	r3, r3, #255
 1333 00fe 854A     		ldr	r2, .L108+4
 1334 0100 6032     		adds	r2, r2, #96
 1335 0102 8549     		ldr	r1, .L108+8
 1336 0104 0020     		movs	r0, #0
 1337              	.LVL206:
 1338 0106 A047     		blx	r4
 1339              	.LVL207:
 1340              	.L87:
 1341              	.LBE22:
 299:Source\azure_iot_sdk\iothub_client\src/iothub_message.c ****                 DestroyMessageData(result);
 1342              		.loc 1 299 0 is_stmt 1
 1343 0108 2800     		movs	r0, r5
 1344 010a FFF7FEFF 		bl	DestroyMessageData
 1345              	.LVL208:
 300:Source\azure_iot_sdk\iothub_client\src/iothub_message.c ****                 result = NULL;
 1346              		.loc 1 300 0
 1347 010e 0025     		movs	r5, #0
 1348 0110 35E1     		b	.L80
 1349              	.LVL209:
 1350              	.L86:
 301:Source\azure_iot_sdk\iothub_client\src/iothub_message.c ****             }
 302:Source\azure_iot_sdk\iothub_client\src/iothub_message.c ****             else if (source->contentEncoding != NULL && mallocAndStrcpy_s(&result->contentEncoding,
 1351              		.loc 1 302 0
 1352 0112 A169     		ldr	r1, [r4, #24]
 1353 0114 0029     		cmp	r1, #0
 1354 0116 19D0     		beq	.L88
 1355              		.loc 1 302 0 is_stmt 0 discriminator 1
 1356 0118 2800     		movs	r0, r5
 1357 011a 1830     		adds	r0, r0, #24
 1358 011c FFF7FEFF 		bl	mallocAndStrcpy_s
 1359              	.LVL210:
 1360 0120 0028     		cmp	r0, #0
 1361 0122 13D0     		beq	.L88
 1362              	.LBB23:
 303:Source\azure_iot_sdk\iothub_client\src/iothub_message.c ****             {
 304:Source\azure_iot_sdk\iothub_client\src/iothub_message.c ****                 LogError("unable to copy contentEncoding");
 1363              		.loc 1 304 0 is_stmt 1 discriminator 3
 1364 0124 FFF7FEFF 		bl	xlogging_get_log_function
 1365              	.LVL211:
 1366 0128 041E     		subs	r4, r0, #0
 1367              	.LVL212:
 1368 012a 0AD0     		beq	.L89
 1369              		.loc 1 304 0 is_stmt 0 discriminator 4
 1370 012c 7F4B     		ldr	r3, .L108+28
 1371 012e 0193     		str	r3, [sp, #4]
ARM GAS  C:\Users\Phuong\AppData\Local\Temp\cc4zbCpa.s 			page 31


 1372 0130 0123     		movs	r3, #1
 1373 0132 0093     		str	r3, [sp]
 1374 0134 3033     		adds	r3, r3, #48
 1375 0136 FF33     		adds	r3, r3, #255
 1376 0138 764A     		ldr	r2, .L108+4
 1377 013a 6032     		adds	r2, r2, #96
 1378 013c 7649     		ldr	r1, .L108+8
 1379 013e 0020     		movs	r0, #0
 1380              	.LVL213:
 1381 0140 A047     		blx	r4
 1382              	.LVL214:
 1383              	.L89:
 1384              	.LBE23:
 305:Source\azure_iot_sdk\iothub_client\src/iothub_message.c ****                 DestroyMessageData(result);
 1385              		.loc 1 305 0 is_stmt 1
 1386 0142 2800     		movs	r0, r5
 1387 0144 FFF7FEFF 		bl	DestroyMessageData
 1388              	.LVL215:
 306:Source\azure_iot_sdk\iothub_client\src/iothub_message.c ****                 result = NULL;
 1389              		.loc 1 306 0
 1390 0148 0025     		movs	r5, #0
 1391 014a 18E1     		b	.L80
 1392              	.LVL216:
 1393              	.L88:
 307:Source\azure_iot_sdk\iothub_client\src/iothub_message.c ****             }
 308:Source\azure_iot_sdk\iothub_client\src/iothub_message.c ****             else if (source->diagnosticData != NULL && (result->diagnosticData = CloneDiagnosticPro
 1394              		.loc 1 308 0
 1395 014c E06A     		ldr	r0, [r4, #44]
 1396 014e 0028     		cmp	r0, #0
 1397 0150 18D0     		beq	.L90
 1398              		.loc 1 308 0 is_stmt 0 discriminator 1
 1399 0152 FFF7FEFF 		bl	CloneDiagnosticPropertyData
 1400              	.LVL217:
 1401 0156 E862     		str	r0, [r5, #44]
 1402 0158 0028     		cmp	r0, #0
 1403 015a 13D1     		bne	.L90
 1404              	.LBB24:
 309:Source\azure_iot_sdk\iothub_client\src/iothub_message.c ****             {
 310:Source\azure_iot_sdk\iothub_client\src/iothub_message.c ****                 LogError("unable to copy CloneDiagnosticPropertyData");
 1405              		.loc 1 310 0 is_stmt 1 discriminator 3
 1406 015c FFF7FEFF 		bl	xlogging_get_log_function
 1407              	.LVL218:
 1408 0160 041E     		subs	r4, r0, #0
 1409              	.LVL219:
 1410 0162 0AD0     		beq	.L91
 1411              		.loc 1 310 0 is_stmt 0 discriminator 4
 1412 0164 724B     		ldr	r3, .L108+32
 1413 0166 0193     		str	r3, [sp, #4]
 1414 0168 0123     		movs	r3, #1
 1415 016a 0093     		str	r3, [sp]
 1416 016c 3633     		adds	r3, r3, #54
 1417 016e FF33     		adds	r3, r3, #255
 1418 0170 684A     		ldr	r2, .L108+4
 1419 0172 6032     		adds	r2, r2, #96
 1420 0174 6849     		ldr	r1, .L108+8
 1421 0176 0020     		movs	r0, #0
 1422              	.LVL220:
ARM GAS  C:\Users\Phuong\AppData\Local\Temp\cc4zbCpa.s 			page 32


 1423 0178 A047     		blx	r4
 1424              	.LVL221:
 1425              	.L91:
 1426              	.LBE24:
 311:Source\azure_iot_sdk\iothub_client\src/iothub_message.c ****                 DestroyMessageData(result);
 1427              		.loc 1 311 0 is_stmt 1
 1428 017a 2800     		movs	r0, r5
 1429 017c FFF7FEFF 		bl	DestroyMessageData
 1430              	.LVL222:
 312:Source\azure_iot_sdk\iothub_client\src/iothub_message.c ****                 result = NULL;
 1431              		.loc 1 312 0
 1432 0180 0025     		movs	r5, #0
 1433 0182 FCE0     		b	.L80
 1434              	.LVL223:
 1435              	.L90:
 313:Source\azure_iot_sdk\iothub_client\src/iothub_message.c ****             }
 314:Source\azure_iot_sdk\iothub_client\src/iothub_message.c ****             else if (source->outputName != NULL && mallocAndStrcpy_s(&result->outputName, source->o
 1436              		.loc 1 314 0
 1437 0184 E169     		ldr	r1, [r4, #28]
 1438 0186 0029     		cmp	r1, #0
 1439 0188 19D0     		beq	.L92
 1440              		.loc 1 314 0 is_stmt 0 discriminator 1
 1441 018a 2800     		movs	r0, r5
 1442 018c 1C30     		adds	r0, r0, #28
 1443 018e FFF7FEFF 		bl	mallocAndStrcpy_s
 1444              	.LVL224:
 1445 0192 0028     		cmp	r0, #0
 1446 0194 13D0     		beq	.L92
 1447              	.LBB25:
 315:Source\azure_iot_sdk\iothub_client\src/iothub_message.c ****             {
 316:Source\azure_iot_sdk\iothub_client\src/iothub_message.c ****                 LogError("unable to copy outputName");
 1448              		.loc 1 316 0 is_stmt 1 discriminator 3
 1449 0196 FFF7FEFF 		bl	xlogging_get_log_function
 1450              	.LVL225:
 1451 019a 041E     		subs	r4, r0, #0
 1452              	.LVL226:
 1453 019c 0AD0     		beq	.L93
 1454              		.loc 1 316 0 is_stmt 0 discriminator 4
 1455 019e 654B     		ldr	r3, .L108+36
 1456 01a0 0193     		str	r3, [sp, #4]
 1457 01a2 0123     		movs	r3, #1
 1458 01a4 0093     		str	r3, [sp]
 1459 01a6 3C33     		adds	r3, r3, #60
 1460 01a8 FF33     		adds	r3, r3, #255
 1461 01aa 5A4A     		ldr	r2, .L108+4
 1462 01ac 6032     		adds	r2, r2, #96
 1463 01ae 5A49     		ldr	r1, .L108+8
 1464 01b0 0020     		movs	r0, #0
 1465              	.LVL227:
 1466 01b2 A047     		blx	r4
 1467              	.LVL228:
 1468              	.L93:
 1469              	.LBE25:
 317:Source\azure_iot_sdk\iothub_client\src/iothub_message.c ****                 DestroyMessageData(result);
 1470              		.loc 1 317 0 is_stmt 1
 1471 01b4 2800     		movs	r0, r5
 1472 01b6 FFF7FEFF 		bl	DestroyMessageData
ARM GAS  C:\Users\Phuong\AppData\Local\Temp\cc4zbCpa.s 			page 33


 1473              	.LVL229:
 318:Source\azure_iot_sdk\iothub_client\src/iothub_message.c ****                 result = NULL;
 1474              		.loc 1 318 0
 1475 01ba 0025     		movs	r5, #0
 1476 01bc DFE0     		b	.L80
 1477              	.LVL230:
 1478              	.L92:
 319:Source\azure_iot_sdk\iothub_client\src/iothub_message.c ****             }
 320:Source\azure_iot_sdk\iothub_client\src/iothub_message.c ****             else if (source->inputName != NULL && mallocAndStrcpy_s(&result->inputName, source->inp
 1479              		.loc 1 320 0
 1480 01be 216A     		ldr	r1, [r4, #32]
 1481 01c0 0029     		cmp	r1, #0
 1482 01c2 19D0     		beq	.L94
 1483              		.loc 1 320 0 is_stmt 0 discriminator 1
 1484 01c4 2800     		movs	r0, r5
 1485 01c6 2030     		adds	r0, r0, #32
 1486 01c8 FFF7FEFF 		bl	mallocAndStrcpy_s
 1487              	.LVL231:
 1488 01cc 0028     		cmp	r0, #0
 1489 01ce 13D0     		beq	.L94
 1490              	.LBB26:
 321:Source\azure_iot_sdk\iothub_client\src/iothub_message.c ****             {
 322:Source\azure_iot_sdk\iothub_client\src/iothub_message.c ****                 LogError("unable to copy inputName");
 1491              		.loc 1 322 0 is_stmt 1 discriminator 3
 1492 01d0 FFF7FEFF 		bl	xlogging_get_log_function
 1493              	.LVL232:
 1494 01d4 041E     		subs	r4, r0, #0
 1495              	.LVL233:
 1496 01d6 0AD0     		beq	.L95
 1497              		.loc 1 322 0 is_stmt 0 discriminator 4
 1498 01d8 574B     		ldr	r3, .L108+40
 1499 01da 0193     		str	r3, [sp, #4]
 1500 01dc 0123     		movs	r3, #1
 1501 01de 0093     		str	r3, [sp]
 1502 01e0 4233     		adds	r3, r3, #66
 1503 01e2 FF33     		adds	r3, r3, #255
 1504 01e4 4B4A     		ldr	r2, .L108+4
 1505 01e6 6032     		adds	r2, r2, #96
 1506 01e8 4B49     		ldr	r1, .L108+8
 1507 01ea 0020     		movs	r0, #0
 1508              	.LVL234:
 1509 01ec A047     		blx	r4
 1510              	.LVL235:
 1511              	.L95:
 1512              	.LBE26:
 323:Source\azure_iot_sdk\iothub_client\src/iothub_message.c ****                 DestroyMessageData(result);
 1513              		.loc 1 323 0 is_stmt 1
 1514 01ee 2800     		movs	r0, r5
 1515 01f0 FFF7FEFF 		bl	DestroyMessageData
 1516              	.LVL236:
 324:Source\azure_iot_sdk\iothub_client\src/iothub_message.c ****                 result = NULL;
 1517              		.loc 1 324 0
 1518 01f4 0025     		movs	r5, #0
 1519 01f6 C2E0     		b	.L80
 1520              	.LVL237:
 1521              	.L94:
 325:Source\azure_iot_sdk\iothub_client\src/iothub_message.c ****             }
ARM GAS  C:\Users\Phuong\AppData\Local\Temp\cc4zbCpa.s 			page 34


 326:Source\azure_iot_sdk\iothub_client\src/iothub_message.c ****             else if (source->connectionModuleId != NULL && mallocAndStrcpy_s(&result->connectionMod
 1522              		.loc 1 326 0
 1523 01f8 616A     		ldr	r1, [r4, #36]
 1524 01fa 0029     		cmp	r1, #0
 1525 01fc 19D0     		beq	.L96
 1526              		.loc 1 326 0 is_stmt 0 discriminator 1
 1527 01fe 2800     		movs	r0, r5
 1528 0200 2430     		adds	r0, r0, #36
 1529 0202 FFF7FEFF 		bl	mallocAndStrcpy_s
 1530              	.LVL238:
 1531 0206 0028     		cmp	r0, #0
 1532 0208 13D0     		beq	.L96
 1533              	.LBB27:
 327:Source\azure_iot_sdk\iothub_client\src/iothub_message.c ****             {
 328:Source\azure_iot_sdk\iothub_client\src/iothub_message.c ****                 LogError("unable to copy inputName");
 1534              		.loc 1 328 0 is_stmt 1 discriminator 3
 1535 020a FFF7FEFF 		bl	xlogging_get_log_function
 1536              	.LVL239:
 1537 020e 041E     		subs	r4, r0, #0
 1538              	.LVL240:
 1539 0210 0AD0     		beq	.L97
 1540              		.loc 1 328 0 is_stmt 0 discriminator 4
 1541 0212 494B     		ldr	r3, .L108+40
 1542 0214 0193     		str	r3, [sp, #4]
 1543 0216 0123     		movs	r3, #1
 1544 0218 0093     		str	r3, [sp]
 1545 021a 4833     		adds	r3, r3, #72
 1546 021c FF33     		adds	r3, r3, #255
 1547 021e 3D4A     		ldr	r2, .L108+4
 1548 0220 6032     		adds	r2, r2, #96
 1549 0222 3D49     		ldr	r1, .L108+8
 1550 0224 0020     		movs	r0, #0
 1551              	.LVL241:
 1552 0226 A047     		blx	r4
 1553              	.LVL242:
 1554              	.L97:
 1555              	.LBE27:
 329:Source\azure_iot_sdk\iothub_client\src/iothub_message.c ****                 DestroyMessageData(result);
 1556              		.loc 1 329 0 is_stmt 1
 1557 0228 2800     		movs	r0, r5
 1558 022a FFF7FEFF 		bl	DestroyMessageData
 1559              	.LVL243:
 330:Source\azure_iot_sdk\iothub_client\src/iothub_message.c ****                 result = NULL;
 1560              		.loc 1 330 0
 1561 022e 0025     		movs	r5, #0
 1562 0230 A5E0     		b	.L80
 1563              	.LVL244:
 1564              	.L96:
 331:Source\azure_iot_sdk\iothub_client\src/iothub_message.c ****             }
 332:Source\azure_iot_sdk\iothub_client\src/iothub_message.c ****             else if (source->connectionDeviceId != NULL && mallocAndStrcpy_s(&result->connectionDev
 1565              		.loc 1 332 0
 1566 0232 A16A     		ldr	r1, [r4, #40]
 1567 0234 0029     		cmp	r1, #0
 1568 0236 19D0     		beq	.L98
 1569              		.loc 1 332 0 is_stmt 0 discriminator 1
 1570 0238 2800     		movs	r0, r5
 1571 023a 2830     		adds	r0, r0, #40
ARM GAS  C:\Users\Phuong\AppData\Local\Temp\cc4zbCpa.s 			page 35


 1572 023c FFF7FEFF 		bl	mallocAndStrcpy_s
 1573              	.LVL245:
 1574 0240 0028     		cmp	r0, #0
 1575 0242 13D0     		beq	.L98
 1576              	.LBB28:
 333:Source\azure_iot_sdk\iothub_client\src/iothub_message.c ****             {
 334:Source\azure_iot_sdk\iothub_client\src/iothub_message.c ****                 LogError("unable to copy inputName");
 1577              		.loc 1 334 0 is_stmt 1 discriminator 3
 1578 0244 FFF7FEFF 		bl	xlogging_get_log_function
 1579              	.LVL246:
 1580 0248 041E     		subs	r4, r0, #0
 1581              	.LVL247:
 1582 024a 0AD0     		beq	.L99
 1583              		.loc 1 334 0 is_stmt 0 discriminator 4
 1584 024c 3A4B     		ldr	r3, .L108+40
 1585 024e 0193     		str	r3, [sp, #4]
 1586 0250 0123     		movs	r3, #1
 1587 0252 0093     		str	r3, [sp]
 1588 0254 4E33     		adds	r3, r3, #78
 1589 0256 FF33     		adds	r3, r3, #255
 1590 0258 2E4A     		ldr	r2, .L108+4
 1591 025a 6032     		adds	r2, r2, #96
 1592 025c 2E49     		ldr	r1, .L108+8
 1593 025e 0020     		movs	r0, #0
 1594              	.LVL248:
 1595 0260 A047     		blx	r4
 1596              	.LVL249:
 1597              	.L99:
 1598              	.LBE28:
 335:Source\azure_iot_sdk\iothub_client\src/iothub_message.c ****                 DestroyMessageData(result);
 1599              		.loc 1 335 0 is_stmt 1
 1600 0262 2800     		movs	r0, r5
 1601 0264 FFF7FEFF 		bl	DestroyMessageData
 1602              	.LVL250:
 336:Source\azure_iot_sdk\iothub_client\src/iothub_message.c ****                 result = NULL;
 1603              		.loc 1 336 0
 1604 0268 0025     		movs	r5, #0
 1605 026a 88E0     		b	.L80
 1606              	.LVL251:
 1607              	.L98:
 337:Source\azure_iot_sdk\iothub_client\src/iothub_message.c ****             }
 338:Source\azure_iot_sdk\iothub_client\src/iothub_message.c ****             else if (source->contentType == IOTHUBMESSAGE_BYTEARRAY)
 1608              		.loc 1 338 0
 1609 026c 2378     		ldrb	r3, [r4]
 1610 026e 002B     		cmp	r3, #0
 1611 0270 33D1     		bne	.L100
 339:Source\azure_iot_sdk\iothub_client\src/iothub_message.c ****             {
 340:Source\azure_iot_sdk\iothub_client\src/iothub_message.c ****                 /*Codes_SRS_IOTHUBMESSAGE_02_006: [IoTHubMessage_Clone shall clone to content by a 
 341:Source\azure_iot_sdk\iothub_client\src/iothub_message.c ****                 if ((result->value.byteArray = BUFFER_clone(source->value.byteArray)) == NULL)
 1612              		.loc 1 341 0
 1613 0272 6068     		ldr	r0, [r4, #4]
 1614 0274 FFF7FEFF 		bl	BUFFER_clone
 1615              	.LVL252:
 1616 0278 6860     		str	r0, [r5, #4]
 1617 027a 0028     		cmp	r0, #0
 1618 027c 13D1     		bne	.L101
 1619              	.LBB29:
ARM GAS  C:\Users\Phuong\AppData\Local\Temp\cc4zbCpa.s 			page 36


 342:Source\azure_iot_sdk\iothub_client\src/iothub_message.c ****                 {
 343:Source\azure_iot_sdk\iothub_client\src/iothub_message.c ****                     /*Codes_SRS_IOTHUBMESSAGE_03_004: [IoTHubMessage_Clone shall return NULL if it 
 344:Source\azure_iot_sdk\iothub_client\src/iothub_message.c ****                     LogError("unable to BUFFER_clone");
 1620              		.loc 1 344 0 discriminator 3
 1621 027e FFF7FEFF 		bl	xlogging_get_log_function
 1622              	.LVL253:
 1623 0282 041E     		subs	r4, r0, #0
 1624              	.LVL254:
 1625 0284 0AD0     		beq	.L102
 1626              		.loc 1 344 0 is_stmt 0 discriminator 4
 1627 0286 2D4B     		ldr	r3, .L108+44
 1628 0288 0193     		str	r3, [sp, #4]
 1629 028a 0123     		movs	r3, #1
 1630 028c 0093     		str	r3, [sp]
 1631 028e 5833     		adds	r3, r3, #88
 1632 0290 FF33     		adds	r3, r3, #255
 1633 0292 204A     		ldr	r2, .L108+4
 1634 0294 6032     		adds	r2, r2, #96
 1635 0296 2049     		ldr	r1, .L108+8
 1636 0298 0020     		movs	r0, #0
 1637              	.LVL255:
 1638 029a A047     		blx	r4
 1639              	.LVL256:
 1640              	.L102:
 1641              	.LBE29:
 345:Source\azure_iot_sdk\iothub_client\src/iothub_message.c ****                     DestroyMessageData(result);
 1642              		.loc 1 345 0 is_stmt 1
 1643 029c 2800     		movs	r0, r5
 1644 029e FFF7FEFF 		bl	DestroyMessageData
 1645              	.LVL257:
 346:Source\azure_iot_sdk\iothub_client\src/iothub_message.c ****                     result = NULL;
 1646              		.loc 1 346 0
 1647 02a2 0025     		movs	r5, #0
 1648 02a4 6BE0     		b	.L80
 1649              	.LVL258:
 1650              	.L101:
 347:Source\azure_iot_sdk\iothub_client\src/iothub_message.c ****                 }
 348:Source\azure_iot_sdk\iothub_client\src/iothub_message.c ****                 /*Codes_SRS_IOTHUBMESSAGE_02_005: [IoTHubMessage_Clone shall clone the properties m
 349:Source\azure_iot_sdk\iothub_client\src/iothub_message.c ****                 else if ((result->properties = Map_Clone(source->properties)) == NULL)
 1651              		.loc 1 349 0
 1652 02a6 A068     		ldr	r0, [r4, #8]
 1653 02a8 FFF7FEFF 		bl	Map_Clone
 1654              	.LVL259:
 1655 02ac A860     		str	r0, [r5, #8]
 1656 02ae 0028     		cmp	r0, #0
 1657 02b0 65D1     		bne	.L80
 1658              	.LBB30:
 350:Source\azure_iot_sdk\iothub_client\src/iothub_message.c ****                 {
 351:Source\azure_iot_sdk\iothub_client\src/iothub_message.c ****                     /*Codes_SRS_IOTHUBMESSAGE_03_004: [IoTHubMessage_Clone shall return NULL if it 
 352:Source\azure_iot_sdk\iothub_client\src/iothub_message.c ****                     LogError("unable to Map_Clone");
 1659              		.loc 1 352 0 discriminator 3
 1660 02b2 FFF7FEFF 		bl	xlogging_get_log_function
 1661              	.LVL260:
 1662 02b6 041E     		subs	r4, r0, #0
 1663              	.LVL261:
 1664 02b8 0AD0     		beq	.L103
 1665              		.loc 1 352 0 is_stmt 0 discriminator 4
ARM GAS  C:\Users\Phuong\AppData\Local\Temp\cc4zbCpa.s 			page 37


 1666 02ba 214B     		ldr	r3, .L108+48
 1667 02bc 0193     		str	r3, [sp, #4]
 1668 02be 0123     		movs	r3, #1
 1669 02c0 0093     		str	r3, [sp]
 1670 02c2 6033     		adds	r3, r3, #96
 1671 02c4 FF33     		adds	r3, r3, #255
 1672 02c6 134A     		ldr	r2, .L108+4
 1673 02c8 6032     		adds	r2, r2, #96
 1674 02ca 1349     		ldr	r1, .L108+8
 1675 02cc 0020     		movs	r0, #0
 1676              	.LVL262:
 1677 02ce A047     		blx	r4
 1678              	.LVL263:
 1679              	.L103:
 1680              	.LBE30:
 353:Source\azure_iot_sdk\iothub_client\src/iothub_message.c ****                     DestroyMessageData(result);
 1681              		.loc 1 353 0 is_stmt 1
 1682 02d0 2800     		movs	r0, r5
 1683 02d2 FFF7FEFF 		bl	DestroyMessageData
 1684              	.LVL264:
 354:Source\azure_iot_sdk\iothub_client\src/iothub_message.c ****                     result = NULL;
 1685              		.loc 1 354 0
 1686 02d6 0025     		movs	r5, #0
 1687 02d8 51E0     		b	.L80
 1688              	.LVL265:
 1689              	.L100:
 355:Source\azure_iot_sdk\iothub_client\src/iothub_message.c ****                 }
 356:Source\azure_iot_sdk\iothub_client\src/iothub_message.c ****                 /*Codes_SRS_IOTHUBMESSAGE_03_002: [IoTHubMessage_Clone shall return upon success a 
 357:Source\azure_iot_sdk\iothub_client\src/iothub_message.c ****             }
 358:Source\azure_iot_sdk\iothub_client\src/iothub_message.c ****             else /*can only be STRING*/
 359:Source\azure_iot_sdk\iothub_client\src/iothub_message.c ****             {
 360:Source\azure_iot_sdk\iothub_client\src/iothub_message.c ****                 /*Codes_SRS_IOTHUBMESSAGE_02_006: [IoTHubMessage_Clone shall clone the content by a
 361:Source\azure_iot_sdk\iothub_client\src/iothub_message.c ****                 if ((result->value.string = STRING_clone(source->value.string)) == NULL)
 1690              		.loc 1 361 0
 1691 02da 6068     		ldr	r0, [r4, #4]
 1692 02dc FFF7FEFF 		bl	STRING_clone
 1693              	.LVL266:
 1694 02e0 6860     		str	r0, [r5, #4]
 1695 02e2 0028     		cmp	r0, #0
 1696 02e4 30D1     		bne	.L104
 1697              	.LBB31:
 362:Source\azure_iot_sdk\iothub_client\src/iothub_message.c ****                 {
 363:Source\azure_iot_sdk\iothub_client\src/iothub_message.c ****                     /*Codes_SRS_IOTHUBMESSAGE_03_004: [IoTHubMessage_Clone shall return NULL if it 
 364:Source\azure_iot_sdk\iothub_client\src/iothub_message.c ****                     LogError("failed to STRING_clone");
 1698              		.loc 1 364 0 discriminator 3
 1699 02e6 FFF7FEFF 		bl	xlogging_get_log_function
 1700              	.LVL267:
 1701 02ea 041E     		subs	r4, r0, #0
 1702              	.LVL268:
 1703 02ec 0AD0     		beq	.L105
 1704              		.loc 1 364 0 is_stmt 0 discriminator 4
 1705 02ee 154B     		ldr	r3, .L108+52
 1706 02f0 0193     		str	r3, [sp, #4]
 1707 02f2 0123     		movs	r3, #1
 1708 02f4 0093     		str	r3, [sp]
 1709 02f6 6C33     		adds	r3, r3, #108
 1710 02f8 FF33     		adds	r3, r3, #255
ARM GAS  C:\Users\Phuong\AppData\Local\Temp\cc4zbCpa.s 			page 38


 1711 02fa 064A     		ldr	r2, .L108+4
 1712 02fc 6032     		adds	r2, r2, #96
 1713 02fe 0649     		ldr	r1, .L108+8
 1714 0300 0020     		movs	r0, #0
 1715              	.LVL269:
 1716 0302 A047     		blx	r4
 1717              	.LVL270:
 1718              	.L105:
 1719              	.LBE31:
 365:Source\azure_iot_sdk\iothub_client\src/iothub_message.c ****                     DestroyMessageData(result);
 1720              		.loc 1 365 0 is_stmt 1
 1721 0304 2800     		movs	r0, r5
 1722 0306 FFF7FEFF 		bl	DestroyMessageData
 1723              	.LVL271:
 366:Source\azure_iot_sdk\iothub_client\src/iothub_message.c ****                     result = NULL;
 1724              		.loc 1 366 0
 1725 030a 0025     		movs	r5, #0
 1726 030c 37E0     		b	.L80
 1727              	.L109:
 1728 030e C046     		.align	2
 1729              	.L108:
 1730 0310 98010000 		.word	.LC38
 1731 0314 00000000 		.word	.LANCHOR0
 1732 0318 00000000 		.word	.LC1
 1733 031c F8000000 		.word	.LC19
 1734 0320 E0010000 		.word	.LC41
 1735 0324 FC010000 		.word	.LC43
 1736 0328 1C020000 		.word	.LC45
 1737 032c 38020000 		.word	.LC47
 1738 0330 58020000 		.word	.LC49
 1739 0334 84020000 		.word	.LC51
 1740 0338 A0020000 		.word	.LC53
 1741 033c BC020000 		.word	.LC55
 1742 0340 D4020000 		.word	.LC57
 1743 0344 E8020000 		.word	.LC59
 1744              	.LVL272:
 1745              	.L104:
 367:Source\azure_iot_sdk\iothub_client\src/iothub_message.c ****                 }
 368:Source\azure_iot_sdk\iothub_client\src/iothub_message.c ****                 /*Codes_SRS_IOTHUBMESSAGE_02_005: [IoTHubMessage_Clone shall clone the properties m
 369:Source\azure_iot_sdk\iothub_client\src/iothub_message.c ****                 else if ((result->properties = Map_Clone(source->properties)) == NULL)
 1746              		.loc 1 369 0
 1747 0348 A068     		ldr	r0, [r4, #8]
 1748 034a FFF7FEFF 		bl	Map_Clone
 1749              	.LVL273:
 1750 034e A860     		str	r0, [r5, #8]
 1751 0350 0028     		cmp	r0, #0
 1752 0352 14D1     		bne	.L80
 1753              	.LBB32:
 370:Source\azure_iot_sdk\iothub_client\src/iothub_message.c ****                 {
 371:Source\azure_iot_sdk\iothub_client\src/iothub_message.c ****                     /*Codes_SRS_IOTHUBMESSAGE_03_004: [IoTHubMessage_Clone shall return NULL if it 
 372:Source\azure_iot_sdk\iothub_client\src/iothub_message.c ****                     LogError("unable to Map_Clone");
 1754              		.loc 1 372 0 discriminator 3
 1755 0354 FFF7FEFF 		bl	xlogging_get_log_function
 1756              	.LVL274:
 1757 0358 041E     		subs	r4, r0, #0
 1758              	.LVL275:
 1759 035a 0AD0     		beq	.L106
ARM GAS  C:\Users\Phuong\AppData\Local\Temp\cc4zbCpa.s 			page 39


 1760              		.loc 1 372 0 is_stmt 0 discriminator 4
 1761 035c 094B     		ldr	r3, .L110
 1762 035e 0193     		str	r3, [sp, #4]
 1763 0360 0123     		movs	r3, #1
 1764 0362 0093     		str	r3, [sp]
 1765 0364 7433     		adds	r3, r3, #116
 1766 0366 FF33     		adds	r3, r3, #255
 1767 0368 074A     		ldr	r2, .L110+4
 1768 036a 6032     		adds	r2, r2, #96
 1769 036c 0749     		ldr	r1, .L110+8
 1770 036e 0020     		movs	r0, #0
 1771              	.LVL276:
 1772 0370 A047     		blx	r4
 1773              	.LVL277:
 1774              	.L106:
 1775              	.LBE32:
 373:Source\azure_iot_sdk\iothub_client\src/iothub_message.c ****                     DestroyMessageData(result);
 1776              		.loc 1 373 0 is_stmt 1
 1777 0372 2800     		movs	r0, r5
 1778 0374 FFF7FEFF 		bl	DestroyMessageData
 1779              	.LVL278:
 374:Source\azure_iot_sdk\iothub_client\src/iothub_message.c ****                     result = NULL;
 1780              		.loc 1 374 0
 1781 0378 0025     		movs	r5, #0
 1782 037a 00E0     		b	.L80
 1783              	.LVL279:
 1784              	.L107:
 266:Source\azure_iot_sdk\iothub_client\src/iothub_message.c ****         LogError("iotHubMessageHandle parameter cannot be NULL for IoTHubMessage_Clone");
 1785              		.loc 1 266 0
 1786 037c 0025     		movs	r5, #0
 1787              	.LVL280:
 1788              	.L80:
 375:Source\azure_iot_sdk\iothub_client\src/iothub_message.c ****                 }
 376:Source\azure_iot_sdk\iothub_client\src/iothub_message.c ****             }
 377:Source\azure_iot_sdk\iothub_client\src/iothub_message.c ****         }
 378:Source\azure_iot_sdk\iothub_client\src/iothub_message.c ****     }
 379:Source\azure_iot_sdk\iothub_client\src/iothub_message.c ****     return result;
 380:Source\azure_iot_sdk\iothub_client\src/iothub_message.c **** }
 1789              		.loc 1 380 0
 1790 037e 2800     		movs	r0, r5
 1791 0380 03B0     		add	sp, sp, #12
 1792              		@ sp needed
 1793              	.LVL281:
 1794 0382 30BD     		pop	{r4, r5, pc}
 1795              	.L111:
 1796              		.align	2
 1797              	.L110:
 1798 0384 D4020000 		.word	.LC57
 1799 0388 00000000 		.word	.LANCHOR0
 1800 038c 00000000 		.word	.LC1
 1801              		.cfi_endproc
 1802              	.LFE12:
 1803              		.size	IoTHubMessage_Clone, .-IoTHubMessage_Clone
 1804              		.section	.text.IoTHubMessage_GetByteArray,"ax",%progbits
 1805              		.align	2
 1806              		.global	IoTHubMessage_GetByteArray
 1807              		.code	16
ARM GAS  C:\Users\Phuong\AppData\Local\Temp\cc4zbCpa.s 			page 40


 1808              		.thumb_func
 1809              		.type	IoTHubMessage_GetByteArray, %function
 1810              	IoTHubMessage_GetByteArray:
 1811              	.LFB13:
 381:Source\azure_iot_sdk\iothub_client\src/iothub_message.c **** 
 382:Source\azure_iot_sdk\iothub_client\src/iothub_message.c **** IOTHUB_MESSAGE_RESULT IoTHubMessage_GetByteArray(IOTHUB_MESSAGE_HANDLE iotHubMessageHandle, const u
 383:Source\azure_iot_sdk\iothub_client\src/iothub_message.c **** {
 1812              		.loc 1 383 0
 1813              		.cfi_startproc
 1814              		@ args = 0, pretend = 0, frame = 0
 1815              		@ frame_needed = 0, uses_anonymous_args = 0
 1816              	.LVL282:
 1817 0000 F0B5     		push	{r4, r5, r6, r7, lr}
 1818              		.cfi_def_cfa_offset 20
 1819              		.cfi_offset 4, -20
 1820              		.cfi_offset 5, -16
 1821              		.cfi_offset 6, -12
 1822              		.cfi_offset 7, -8
 1823              		.cfi_offset 14, -4
 1824 0002 87B0     		sub	sp, sp, #28
 1825              		.cfi_def_cfa_offset 48
 1826 0004 0400     		movs	r4, r0
 1827 0006 0D00     		movs	r5, r1
 1828 0008 1600     		movs	r6, r2
 384:Source\azure_iot_sdk\iothub_client\src/iothub_message.c ****     IOTHUB_MESSAGE_RESULT result;
 385:Source\azure_iot_sdk\iothub_client\src/iothub_message.c ****     if (
 1829              		.loc 1 385 0
 1830 000a 0028     		cmp	r0, #0
 1831 000c 03D0     		beq	.L113
 386:Source\azure_iot_sdk\iothub_client\src/iothub_message.c ****         (iotHubMessageHandle == NULL) ||
 1832              		.loc 1 386 0
 1833 000e 0029     		cmp	r1, #0
 1834 0010 01D0     		beq	.L113
 387:Source\azure_iot_sdk\iothub_client\src/iothub_message.c ****         (buffer == NULL) ||
 1835              		.loc 1 387 0
 1836 0012 002A     		cmp	r2, #0
 1837 0014 13D1     		bne	.L114
 1838              	.L113:
 1839              	.LBB33:
 388:Source\azure_iot_sdk\iothub_client\src/iothub_message.c ****         (size == NULL)
 389:Source\azure_iot_sdk\iothub_client\src/iothub_message.c ****         )
 390:Source\azure_iot_sdk\iothub_client\src/iothub_message.c ****     {
 391:Source\azure_iot_sdk\iothub_client\src/iothub_message.c ****         /*Codes_SRS_IOTHUBMESSAGE_01_014: [If any of the arguments passed to IoTHubMessage_GetByteA
 392:Source\azure_iot_sdk\iothub_client\src/iothub_message.c ****         LogError("invalid parameter (NULL) to IoTHubMessage_GetByteArray IOTHUB_MESSAGE_HANDLE iotH
 1840              		.loc 1 392 0 discriminator 3
 1841 0016 FFF7FEFF 		bl	xlogging_get_log_function
 1842              	.LVL283:
 1843 001a 071E     		subs	r7, r0, #0
 1844              	.LVL284:
 1845 001c 31D0     		beq	.L117
 1846              		.loc 1 392 0 is_stmt 0 discriminator 4
 1847 001e 0496     		str	r6, [sp, #16]
 1848 0020 0395     		str	r5, [sp, #12]
 1849 0022 0294     		str	r4, [sp, #8]
 1850 0024 194B     		ldr	r3, .L119
 1851 0026 0193     		str	r3, [sp, #4]
 1852 0028 0123     		movs	r3, #1
ARM GAS  C:\Users\Phuong\AppData\Local\Temp\cc4zbCpa.s 			page 41


 1853 002a 0093     		str	r3, [sp]
 1854 002c 8833     		adds	r3, r3, #136
 1855 002e FF33     		adds	r3, r3, #255
 1856 0030 174A     		ldr	r2, .L119+4
 1857 0032 7432     		adds	r2, r2, #116
 1858 0034 1749     		ldr	r1, .L119+8
 1859 0036 0020     		movs	r0, #0
 1860              	.LVL285:
 1861 0038 B847     		blx	r7
 1862              	.LVL286:
 1863              	.LBE33:
 393:Source\azure_iot_sdk\iothub_client\src/iothub_message.c ****         result = IOTHUB_MESSAGE_INVALID_ARG;
 1864              		.loc 1 393 0 is_stmt 1 discriminator 4
 1865 003a 0120     		movs	r0, #1
 1866 003c 24E0     		b	.L115
 1867              	.LVL287:
 1868              	.L114:
 1869              	.LBB34:
 394:Source\azure_iot_sdk\iothub_client\src/iothub_message.c ****     }
 395:Source\azure_iot_sdk\iothub_client\src/iothub_message.c ****     else
 396:Source\azure_iot_sdk\iothub_client\src/iothub_message.c ****     {
 397:Source\azure_iot_sdk\iothub_client\src/iothub_message.c ****         IOTHUB_MESSAGE_HANDLE_DATA* handleData = iotHubMessageHandle;
 398:Source\azure_iot_sdk\iothub_client\src/iothub_message.c ****         if (handleData->contentType != IOTHUBMESSAGE_BYTEARRAY)
 1870              		.loc 1 398 0
 1871 003e 0378     		ldrb	r3, [r0]
 1872 0040 002B     		cmp	r3, #0
 1873 0042 14D0     		beq	.L116
 1874              	.LVL288:
 1875              	.LBB35:
 399:Source\azure_iot_sdk\iothub_client\src/iothub_message.c ****         {
 400:Source\azure_iot_sdk\iothub_client\src/iothub_message.c ****             /*Codes_SRS_IOTHUBMESSAGE_02_021: [If iotHubMessageHandle is not a iothubmessage contai
 401:Source\azure_iot_sdk\iothub_client\src/iothub_message.c ****             result = IOTHUB_MESSAGE_INVALID_ARG;
 402:Source\azure_iot_sdk\iothub_client\src/iothub_message.c ****             LogError("invalid type of message %s", ENUM_TO_STRING(IOTHUBMESSAGE_CONTENT_TYPE, handl
 1876              		.loc 1 402 0
 1877 0044 FFF7FEFF 		bl	xlogging_get_log_function
 1878              	.LVL289:
 1879 0048 051E     		subs	r5, r0, #0
 1880              	.LVL290:
 1881 004a 1CD0     		beq	.L118
 1882              		.loc 1 402 0 is_stmt 0 discriminator 4
 1883 004c 2078     		ldrb	r0, [r4]
 1884              	.LVL291:
 1885 004e FFF7FEFF 		bl	IOTHUBMESSAGE_CONTENT_TYPEStrings
 1886              	.LVL292:
 1887 0052 0290     		str	r0, [sp, #8]
 1888 0054 104B     		ldr	r3, .L119+12
 1889 0056 0193     		str	r3, [sp, #4]
 1890 0058 0123     		movs	r3, #1
 1891 005a 0093     		str	r3, [sp]
 1892 005c 9233     		adds	r3, r3, #146
 1893 005e FF33     		adds	r3, r3, #255
 1894 0060 0B4A     		ldr	r2, .L119+4
 1895 0062 7432     		adds	r2, r2, #116
 1896 0064 0B49     		ldr	r1, .L119+8
 1897 0066 0020     		movs	r0, #0
 1898 0068 A847     		blx	r5
 1899              	.LVL293:
ARM GAS  C:\Users\Phuong\AppData\Local\Temp\cc4zbCpa.s 			page 42


 1900              	.LBE35:
 401:Source\azure_iot_sdk\iothub_client\src/iothub_message.c ****             LogError("invalid type of message %s", ENUM_TO_STRING(IOTHUBMESSAGE_CONTENT_TYPE, handl
 1901              		.loc 1 401 0 is_stmt 1 discriminator 4
 1902 006a 0120     		movs	r0, #1
 1903 006c 0CE0     		b	.L115
 1904              	.LVL294:
 1905              	.L116:
 403:Source\azure_iot_sdk\iothub_client\src/iothub_message.c ****         }
 404:Source\azure_iot_sdk\iothub_client\src/iothub_message.c ****         else
 405:Source\azure_iot_sdk\iothub_client\src/iothub_message.c ****         {
 406:Source\azure_iot_sdk\iothub_client\src/iothub_message.c ****             /*Codes_SRS_IOTHUBMESSAGE_01_011: [The pointer shall be obtained by using BUFFER_u_char
 407:Source\azure_iot_sdk\iothub_client\src/iothub_message.c ****             *buffer = BUFFER_u_char(handleData->value.byteArray);
 1906              		.loc 1 407 0
 1907 006e 4068     		ldr	r0, [r0, #4]
 1908              	.LVL295:
 1909 0070 FFF7FEFF 		bl	BUFFER_u_char
 1910              	.LVL296:
 1911 0074 2860     		str	r0, [r5]
 408:Source\azure_iot_sdk\iothub_client\src/iothub_message.c ****             /*Codes_SRS_IOTHUBMESSAGE_01_012: [The size of the associated data shall be obtained by
 409:Source\azure_iot_sdk\iothub_client\src/iothub_message.c ****             *size = BUFFER_length(handleData->value.byteArray);
 1912              		.loc 1 409 0
 1913 0076 6068     		ldr	r0, [r4, #4]
 1914 0078 FFF7FEFF 		bl	BUFFER_length
 1915              	.LVL297:
 1916 007c 3060     		str	r0, [r6]
 1917              	.LVL298:
 410:Source\azure_iot_sdk\iothub_client\src/iothub_message.c ****             result = IOTHUB_MESSAGE_OK;
 1918              		.loc 1 410 0
 1919 007e 0020     		movs	r0, #0
 1920 0080 02E0     		b	.L115
 1921              	.LVL299:
 1922              	.L117:
 1923              	.LBE34:
 393:Source\azure_iot_sdk\iothub_client\src/iothub_message.c ****     }
 1924              		.loc 1 393 0
 1925 0082 0120     		movs	r0, #1
 1926              	.LVL300:
 1927 0084 00E0     		b	.L115
 1928              	.LVL301:
 1929              	.L118:
 1930              	.LBB36:
 401:Source\azure_iot_sdk\iothub_client\src/iothub_message.c ****             LogError("invalid type of message %s", ENUM_TO_STRING(IOTHUBMESSAGE_CONTENT_TYPE, handl
 1931              		.loc 1 401 0
 1932 0086 0120     		movs	r0, #1
 1933              	.LVL302:
 1934              	.L115:
 1935              	.LBE36:
 411:Source\azure_iot_sdk\iothub_client\src/iothub_message.c ****         }
 412:Source\azure_iot_sdk\iothub_client\src/iothub_message.c ****     }
 413:Source\azure_iot_sdk\iothub_client\src/iothub_message.c ****     return result;
 414:Source\azure_iot_sdk\iothub_client\src/iothub_message.c **** }
 1936              		.loc 1 414 0
 1937 0088 07B0     		add	sp, sp, #28
 1938              		@ sp needed
 1939              	.LVL303:
 1940              	.LVL304:
 1941 008a F0BD     		pop	{r4, r5, r6, r7, pc}
ARM GAS  C:\Users\Phuong\AppData\Local\Temp\cc4zbCpa.s 			page 43


 1942              	.L120:
 1943              		.align	2
 1944              	.L119:
 1945 008c 00030000 		.word	.LC63
 1946 0090 00000000 		.word	.LANCHOR0
 1947 0094 00000000 		.word	.LC1
 1948 0098 98030000 		.word	.LC65
 1949              		.cfi_endproc
 1950              	.LFE13:
 1951              		.size	IoTHubMessage_GetByteArray, .-IoTHubMessage_GetByteArray
 1952              		.section	.text.IoTHubMessage_GetString,"ax",%progbits
 1953              		.align	2
 1954              		.global	IoTHubMessage_GetString
 1955              		.code	16
 1956              		.thumb_func
 1957              		.type	IoTHubMessage_GetString, %function
 1958              	IoTHubMessage_GetString:
 1959              	.LFB14:
 415:Source\azure_iot_sdk\iothub_client\src/iothub_message.c **** 
 416:Source\azure_iot_sdk\iothub_client\src/iothub_message.c **** const char* IoTHubMessage_GetString(IOTHUB_MESSAGE_HANDLE iotHubMessageHandle)
 417:Source\azure_iot_sdk\iothub_client\src/iothub_message.c **** {
 1960              		.loc 1 417 0
 1961              		.cfi_startproc
 1962              		@ args = 0, pretend = 0, frame = 0
 1963              		@ frame_needed = 0, uses_anonymous_args = 0
 1964              	.LVL305:
 1965 0000 10B5     		push	{r4, lr}
 1966              		.cfi_def_cfa_offset 8
 1967              		.cfi_offset 4, -8
 1968              		.cfi_offset 14, -4
 418:Source\azure_iot_sdk\iothub_client\src/iothub_message.c ****     const char* result;
 419:Source\azure_iot_sdk\iothub_client\src/iothub_message.c ****     if (iotHubMessageHandle == NULL)
 1969              		.loc 1 419 0
 1970 0002 0028     		cmp	r0, #0
 1971 0004 06D0     		beq	.L123
 1972              	.LVL306:
 1973              	.LBB37:
 420:Source\azure_iot_sdk\iothub_client\src/iothub_message.c ****     {
 421:Source\azure_iot_sdk\iothub_client\src/iothub_message.c ****         /*Codes_SRS_IOTHUBMESSAGE_02_016: [If any parameter is NULL then IoTHubMessage_GetString  s
 422:Source\azure_iot_sdk\iothub_client\src/iothub_message.c ****         result = NULL;
 423:Source\azure_iot_sdk\iothub_client\src/iothub_message.c ****     }
 424:Source\azure_iot_sdk\iothub_client\src/iothub_message.c ****     else
 425:Source\azure_iot_sdk\iothub_client\src/iothub_message.c ****     {
 426:Source\azure_iot_sdk\iothub_client\src/iothub_message.c ****         IOTHUB_MESSAGE_HANDLE_DATA* handleData = iotHubMessageHandle;
 427:Source\azure_iot_sdk\iothub_client\src/iothub_message.c ****         if (handleData->contentType != IOTHUBMESSAGE_STRING)
 1974              		.loc 1 427 0
 1975 0006 0378     		ldrb	r3, [r0]
 1976 0008 012B     		cmp	r3, #1
 1977 000a 05D1     		bne	.L124
 428:Source\azure_iot_sdk\iothub_client\src/iothub_message.c ****         {
 429:Source\azure_iot_sdk\iothub_client\src/iothub_message.c ****             /*Codes_SRS_IOTHUBMESSAGE_02_017: [IoTHubMessage_GetString shall return NULL if the iot
 430:Source\azure_iot_sdk\iothub_client\src/iothub_message.c ****             result = NULL;
 431:Source\azure_iot_sdk\iothub_client\src/iothub_message.c ****         }
 432:Source\azure_iot_sdk\iothub_client\src/iothub_message.c ****         else
 433:Source\azure_iot_sdk\iothub_client\src/iothub_message.c ****         {
 434:Source\azure_iot_sdk\iothub_client\src/iothub_message.c ****             /*Codes_SRS_IOTHUBMESSAGE_02_018: [IoTHubMessage_GetStringData shall return the current
 435:Source\azure_iot_sdk\iothub_client\src/iothub_message.c ****             result = STRING_c_str(handleData->value.string);
ARM GAS  C:\Users\Phuong\AppData\Local\Temp\cc4zbCpa.s 			page 44


 1978              		.loc 1 435 0
 1979 000c 4068     		ldr	r0, [r0, #4]
 1980              	.LVL307:
 1981 000e FFF7FEFF 		bl	STRING_c_str
 1982              	.LVL308:
 1983 0012 02E0     		b	.L122
 1984              	.LVL309:
 1985              	.L123:
 1986              	.LBE37:
 422:Source\azure_iot_sdk\iothub_client\src/iothub_message.c ****     }
 1987              		.loc 1 422 0
 1988 0014 0020     		movs	r0, #0
 1989              	.LVL310:
 1990 0016 00E0     		b	.L122
 1991              	.LVL311:
 1992              	.L124:
 1993              	.LBB38:
 430:Source\azure_iot_sdk\iothub_client\src/iothub_message.c ****         }
 1994              		.loc 1 430 0
 1995 0018 0020     		movs	r0, #0
 1996              	.LVL312:
 1997              	.L122:
 1998              	.LBE38:
 436:Source\azure_iot_sdk\iothub_client\src/iothub_message.c ****         }
 437:Source\azure_iot_sdk\iothub_client\src/iothub_message.c ****     }
 438:Source\azure_iot_sdk\iothub_client\src/iothub_message.c ****     return result;
 439:Source\azure_iot_sdk\iothub_client\src/iothub_message.c **** }
 1999              		.loc 1 439 0
 2000              		@ sp needed
 2001 001a 10BD     		pop	{r4, pc}
 2002              		.cfi_endproc
 2003              	.LFE14:
 2004              		.size	IoTHubMessage_GetString, .-IoTHubMessage_GetString
 2005              		.section	.text.IoTHubMessage_GetContentType,"ax",%progbits
 2006              		.align	2
 2007              		.global	IoTHubMessage_GetContentType
 2008              		.code	16
 2009              		.thumb_func
 2010              		.type	IoTHubMessage_GetContentType, %function
 2011              	IoTHubMessage_GetContentType:
 2012              	.LFB15:
 440:Source\azure_iot_sdk\iothub_client\src/iothub_message.c **** 
 441:Source\azure_iot_sdk\iothub_client\src/iothub_message.c **** IOTHUBMESSAGE_CONTENT_TYPE IoTHubMessage_GetContentType(IOTHUB_MESSAGE_HANDLE iotHubMessageHandle)
 442:Source\azure_iot_sdk\iothub_client\src/iothub_message.c **** {
 2013              		.loc 1 442 0
 2014              		.cfi_startproc
 2015              		@ args = 0, pretend = 0, frame = 0
 2016              		@ frame_needed = 0, uses_anonymous_args = 0
 2017              		@ link register save eliminated.
 2018              	.LVL313:
 443:Source\azure_iot_sdk\iothub_client\src/iothub_message.c ****     IOTHUBMESSAGE_CONTENT_TYPE result;
 444:Source\azure_iot_sdk\iothub_client\src/iothub_message.c ****     /*Codes_SRS_IOTHUBMESSAGE_02_008: [If any parameter is NULL then IoTHubMessage_GetContentType s
 445:Source\azure_iot_sdk\iothub_client\src/iothub_message.c ****     if (iotHubMessageHandle == NULL)
 2019              		.loc 1 445 0
 2020 0000 0028     		cmp	r0, #0
 2021 0002 01D0     		beq	.L127
 2022              	.LVL314:
ARM GAS  C:\Users\Phuong\AppData\Local\Temp\cc4zbCpa.s 			page 45


 2023              	.LBB39:
 446:Source\azure_iot_sdk\iothub_client\src/iothub_message.c ****     {
 447:Source\azure_iot_sdk\iothub_client\src/iothub_message.c ****         result = IOTHUBMESSAGE_UNKNOWN;
 448:Source\azure_iot_sdk\iothub_client\src/iothub_message.c ****     }
 449:Source\azure_iot_sdk\iothub_client\src/iothub_message.c ****     else
 450:Source\azure_iot_sdk\iothub_client\src/iothub_message.c ****     {
 451:Source\azure_iot_sdk\iothub_client\src/iothub_message.c ****         /*Codes_SRS_IOTHUBMESSAGE_02_009: [Otherwise IoTHubMessage_GetContentType shall return the 
 452:Source\azure_iot_sdk\iothub_client\src/iothub_message.c ****         IOTHUB_MESSAGE_HANDLE_DATA* handleData = iotHubMessageHandle;
 453:Source\azure_iot_sdk\iothub_client\src/iothub_message.c ****         result = handleData->contentType;
 2024              		.loc 1 453 0
 2025 0004 0078     		ldrb	r0, [r0]
 2026              	.LVL315:
 2027 0006 00E0     		b	.L126
 2028              	.LVL316:
 2029              	.L127:
 2030              	.LBE39:
 447:Source\azure_iot_sdk\iothub_client\src/iothub_message.c ****     }
 2031              		.loc 1 447 0
 2032 0008 0220     		movs	r0, #2
 2033              	.LVL317:
 2034              	.L126:
 454:Source\azure_iot_sdk\iothub_client\src/iothub_message.c ****     }
 455:Source\azure_iot_sdk\iothub_client\src/iothub_message.c ****     return result;
 456:Source\azure_iot_sdk\iothub_client\src/iothub_message.c **** }
 2035              		.loc 1 456 0
 2036              		@ sp needed
 2037 000a 7047     		bx	lr
 2038              		.cfi_endproc
 2039              	.LFE15:
 2040              		.size	IoTHubMessage_GetContentType, .-IoTHubMessage_GetContentType
 2041              		.section	.text.IoTHubMessage_Properties,"ax",%progbits
 2042              		.align	2
 2043              		.global	IoTHubMessage_Properties
 2044              		.code	16
 2045              		.thumb_func
 2046              		.type	IoTHubMessage_Properties, %function
 2047              	IoTHubMessage_Properties:
 2048              	.LFB16:
 457:Source\azure_iot_sdk\iothub_client\src/iothub_message.c **** 
 458:Source\azure_iot_sdk\iothub_client\src/iothub_message.c **** MAP_HANDLE IoTHubMessage_Properties(IOTHUB_MESSAGE_HANDLE iotHubMessageHandle)
 459:Source\azure_iot_sdk\iothub_client\src/iothub_message.c **** {
 2049              		.loc 1 459 0
 2050              		.cfi_startproc
 2051              		@ args = 0, pretend = 0, frame = 0
 2052              		@ frame_needed = 0, uses_anonymous_args = 0
 2053              	.LVL318:
 2054 0000 10B5     		push	{r4, lr}
 2055              		.cfi_def_cfa_offset 8
 2056              		.cfi_offset 4, -8
 2057              		.cfi_offset 14, -4
 2058 0002 82B0     		sub	sp, sp, #8
 2059              		.cfi_def_cfa_offset 16
 460:Source\azure_iot_sdk\iothub_client\src/iothub_message.c ****     MAP_HANDLE result;
 461:Source\azure_iot_sdk\iothub_client\src/iothub_message.c ****     /*Codes_SRS_IOTHUBMESSAGE_02_001: [If iotHubMessageHandle is NULL then IoTHubMessage_Properties
 462:Source\azure_iot_sdk\iothub_client\src/iothub_message.c ****     if (iotHubMessageHandle == NULL)
 2060              		.loc 1 462 0
 2061 0004 0028     		cmp	r0, #0
ARM GAS  C:\Users\Phuong\AppData\Local\Temp\cc4zbCpa.s 			page 46


 2062 0006 10D1     		bne	.L129
 2063              	.LBB40:
 463:Source\azure_iot_sdk\iothub_client\src/iothub_message.c ****     {
 464:Source\azure_iot_sdk\iothub_client\src/iothub_message.c ****         LogError("invalid arg (NULL) passed to IoTHubMessage_Properties");
 2064              		.loc 1 464 0 discriminator 3
 2065 0008 FFF7FEFF 		bl	xlogging_get_log_function
 2066              	.LVL319:
 2067 000c 041E     		subs	r4, r0, #0
 2068              	.LVL320:
 2069 000e 0ED0     		beq	.L131
 2070              		.loc 1 464 0 is_stmt 0 discriminator 4
 2071 0010 084B     		ldr	r3, .L132
 2072 0012 0193     		str	r3, [sp, #4]
 2073 0014 0123     		movs	r3, #1
 2074 0016 0093     		str	r3, [sp]
 2075 0018 D033     		adds	r3, r3, #208
 2076 001a FF33     		adds	r3, r3, #255
 2077 001c 064A     		ldr	r2, .L132+4
 2078 001e 1032     		adds	r2, r2, #16
 2079 0020 0649     		ldr	r1, .L132+8
 2080 0022 0020     		movs	r0, #0
 2081              	.LVL321:
 2082 0024 A047     		blx	r4
 2083              	.LVL322:
 2084              	.LBE40:
 465:Source\azure_iot_sdk\iothub_client\src/iothub_message.c ****         result = NULL;
 2085              		.loc 1 465 0 is_stmt 1 discriminator 4
 2086 0026 0020     		movs	r0, #0
 2087 0028 02E0     		b	.L130
 2088              	.LVL323:
 2089              	.L129:
 2090              	.LBB41:
 466:Source\azure_iot_sdk\iothub_client\src/iothub_message.c ****     }
 467:Source\azure_iot_sdk\iothub_client\src/iothub_message.c ****     else
 468:Source\azure_iot_sdk\iothub_client\src/iothub_message.c ****     {
 469:Source\azure_iot_sdk\iothub_client\src/iothub_message.c ****         /*Codes_SRS_IOTHUBMESSAGE_02_002: [Otherwise, for any non-NULL iotHubMessageHandle it shall
 470:Source\azure_iot_sdk\iothub_client\src/iothub_message.c ****         IOTHUB_MESSAGE_HANDLE_DATA* handleData = (IOTHUB_MESSAGE_HANDLE_DATA*)iotHubMessageHandle;
 471:Source\azure_iot_sdk\iothub_client\src/iothub_message.c ****         result = handleData->properties;
 2091              		.loc 1 471 0
 2092 002a 8068     		ldr	r0, [r0, #8]
 2093              	.LVL324:
 2094 002c 00E0     		b	.L130
 2095              	.LVL325:
 2096              	.L131:
 2097              	.LBE41:
 465:Source\azure_iot_sdk\iothub_client\src/iothub_message.c ****         result = NULL;
 2098              		.loc 1 465 0
 2099 002e 0020     		movs	r0, #0
 2100              	.LVL326:
 2101              	.L130:
 472:Source\azure_iot_sdk\iothub_client\src/iothub_message.c ****     }
 473:Source\azure_iot_sdk\iothub_client\src/iothub_message.c ****     return result;
 474:Source\azure_iot_sdk\iothub_client\src/iothub_message.c **** }
 2102              		.loc 1 474 0
 2103 0030 02B0     		add	sp, sp, #8
 2104              		@ sp needed
 2105 0032 10BD     		pop	{r4, pc}
ARM GAS  C:\Users\Phuong\AppData\Local\Temp\cc4zbCpa.s 			page 47


 2106              	.L133:
 2107              		.align	2
 2108              	.L132:
 2109 0034 B4030000 		.word	.LC69
 2110 0038 80000000 		.word	.LANCHOR2
 2111 003c 00000000 		.word	.LC1
 2112              		.cfi_endproc
 2113              	.LFE16:
 2114              		.size	IoTHubMessage_Properties, .-IoTHubMessage_Properties
 2115              		.section	.text.IoTHubMessage_SetProperty,"ax",%progbits
 2116              		.align	2
 2117              		.global	IoTHubMessage_SetProperty
 2118              		.code	16
 2119              		.thumb_func
 2120              		.type	IoTHubMessage_SetProperty, %function
 2121              	IoTHubMessage_SetProperty:
 2122              	.LFB17:
 475:Source\azure_iot_sdk\iothub_client\src/iothub_message.c **** 
 476:Source\azure_iot_sdk\iothub_client\src/iothub_message.c **** IOTHUB_MESSAGE_RESULT IoTHubMessage_SetProperty(IOTHUB_MESSAGE_HANDLE msg_handle, const char* key, 
 477:Source\azure_iot_sdk\iothub_client\src/iothub_message.c **** {
 2123              		.loc 1 477 0
 2124              		.cfi_startproc
 2125              		@ args = 0, pretend = 0, frame = 0
 2126              		@ frame_needed = 0, uses_anonymous_args = 0
 2127              	.LVL327:
 2128 0000 F0B5     		push	{r4, r5, r6, r7, lr}
 2129              		.cfi_def_cfa_offset 20
 2130              		.cfi_offset 4, -20
 2131              		.cfi_offset 5, -16
 2132              		.cfi_offset 6, -12
 2133              		.cfi_offset 7, -8
 2134              		.cfi_offset 14, -4
 2135 0002 87B0     		sub	sp, sp, #28
 2136              		.cfi_def_cfa_offset 48
 2137 0004 0400     		movs	r4, r0
 2138 0006 0D00     		movs	r5, r1
 2139 0008 1600     		movs	r6, r2
 478:Source\azure_iot_sdk\iothub_client\src/iothub_message.c ****     IOTHUB_MESSAGE_RESULT result;
 479:Source\azure_iot_sdk\iothub_client\src/iothub_message.c ****     if (msg_handle == NULL || key == NULL || value == NULL)
 2140              		.loc 1 479 0
 2141 000a 0028     		cmp	r0, #0
 2142 000c 03D0     		beq	.L135
 2143              		.loc 1 479 0 is_stmt 0 discriminator 1
 2144 000e 0029     		cmp	r1, #0
 2145 0010 01D0     		beq	.L135
 2146              		.loc 1 479 0 discriminator 2
 2147 0012 002A     		cmp	r2, #0
 2148 0014 13D1     		bne	.L136
 2149              	.L135:
 2150              	.LBB42:
 480:Source\azure_iot_sdk\iothub_client\src/iothub_message.c ****     {
 481:Source\azure_iot_sdk\iothub_client\src/iothub_message.c ****         LogError("invalid parameter (NULL) to IoTHubMessage_SetProperty iotHubMessageHandle=%p, key
 2151              		.loc 1 481 0 is_stmt 1 discriminator 3
 2152 0016 FFF7FEFF 		bl	xlogging_get_log_function
 2153              	.LVL328:
 2154 001a 071E     		subs	r7, r0, #0
 2155              	.LVL329:
ARM GAS  C:\Users\Phuong\AppData\Local\Temp\cc4zbCpa.s 			page 48


 2156 001c 25D0     		beq	.L138
 2157              		.loc 1 481 0 is_stmt 0 discriminator 4
 2158 001e 0496     		str	r6, [sp, #16]
 2159 0020 0395     		str	r5, [sp, #12]
 2160 0022 0294     		str	r4, [sp, #8]
 2161 0024 144B     		ldr	r3, .L141
 2162 0026 0193     		str	r3, [sp, #4]
 2163 0028 0123     		movs	r3, #1
 2164 002a 0093     		str	r3, [sp]
 2165 002c E223     		movs	r3, #226
 2166 002e FF33     		adds	r3, r3, #255
 2167 0030 124A     		ldr	r2, .L141+4
 2168 0032 2C32     		adds	r2, r2, #44
 2169 0034 1249     		ldr	r1, .L141+8
 2170 0036 0020     		movs	r0, #0
 2171              	.LVL330:
 2172 0038 B847     		blx	r7
 2173              	.LVL331:
 2174              	.LBE42:
 482:Source\azure_iot_sdk\iothub_client\src/iothub_message.c ****         result = IOTHUB_MESSAGE_INVALID_ARG;
 2175              		.loc 1 482 0 is_stmt 1 discriminator 4
 2176 003a 0120     		movs	r0, #1
 2177 003c 1AE0     		b	.L137
 2178              	.LVL332:
 2179              	.L136:
 483:Source\azure_iot_sdk\iothub_client\src/iothub_message.c ****     }
 484:Source\azure_iot_sdk\iothub_client\src/iothub_message.c ****     else
 485:Source\azure_iot_sdk\iothub_client\src/iothub_message.c ****     {
 486:Source\azure_iot_sdk\iothub_client\src/iothub_message.c ****         if (Map_AddOrUpdate(msg_handle->properties, key, value) != MAP_OK)
 2180              		.loc 1 486 0
 2181 003e 8068     		ldr	r0, [r0, #8]
 2182              	.LVL333:
 2183 0040 FFF7FEFF 		bl	Map_AddOrUpdate
 2184              	.LVL334:
 2185 0044 0028     		cmp	r0, #0
 2186 0046 12D0     		beq	.L139
 2187              	.LBB43:
 487:Source\azure_iot_sdk\iothub_client\src/iothub_message.c ****         {
 488:Source\azure_iot_sdk\iothub_client\src/iothub_message.c ****             LogError("Failure adding property to internal map");
 2188              		.loc 1 488 0 discriminator 3
 2189 0048 FFF7FEFF 		bl	xlogging_get_log_function
 2190              	.LVL335:
 2191 004c 041E     		subs	r4, r0, #0
 2192              	.LVL336:
 2193 004e 10D0     		beq	.L140
 2194              		.loc 1 488 0 is_stmt 0 discriminator 4
 2195 0050 0C4B     		ldr	r3, .L141+12
 2196 0052 0193     		str	r3, [sp, #4]
 2197 0054 0123     		movs	r3, #1
 2198 0056 0093     		str	r3, [sp]
 2199 0058 E833     		adds	r3, r3, #232
 2200 005a FF33     		adds	r3, r3, #255
 2201 005c 074A     		ldr	r2, .L141+4
 2202 005e 2C32     		adds	r2, r2, #44
 2203 0060 0749     		ldr	r1, .L141+8
 2204 0062 0020     		movs	r0, #0
 2205              	.LVL337:
ARM GAS  C:\Users\Phuong\AppData\Local\Temp\cc4zbCpa.s 			page 49


 2206 0064 A047     		blx	r4
 2207              	.LVL338:
 2208              	.LBE43:
 489:Source\azure_iot_sdk\iothub_client\src/iothub_message.c ****             result = IOTHUB_MESSAGE_ERROR;
 2209              		.loc 1 489 0 is_stmt 1 discriminator 4
 2210 0066 0320     		movs	r0, #3
 2211 0068 04E0     		b	.L137
 2212              	.LVL339:
 2213              	.L138:
 482:Source\azure_iot_sdk\iothub_client\src/iothub_message.c ****     }
 2214              		.loc 1 482 0
 2215 006a 0120     		movs	r0, #1
 2216              	.LVL340:
 2217 006c 02E0     		b	.L137
 2218              	.LVL341:
 2219              	.L139:
 490:Source\azure_iot_sdk\iothub_client\src/iothub_message.c ****         }
 491:Source\azure_iot_sdk\iothub_client\src/iothub_message.c ****         else
 492:Source\azure_iot_sdk\iothub_client\src/iothub_message.c ****         {
 493:Source\azure_iot_sdk\iothub_client\src/iothub_message.c ****             result = IOTHUB_MESSAGE_OK;
 2220              		.loc 1 493 0
 2221 006e 0020     		movs	r0, #0
 2222 0070 00E0     		b	.L137
 2223              	.LVL342:
 2224              	.L140:
 489:Source\azure_iot_sdk\iothub_client\src/iothub_message.c ****         }
 2225              		.loc 1 489 0
 2226 0072 0320     		movs	r0, #3
 2227              	.LVL343:
 2228              	.L137:
 494:Source\azure_iot_sdk\iothub_client\src/iothub_message.c ****         }
 495:Source\azure_iot_sdk\iothub_client\src/iothub_message.c ****     }
 496:Source\azure_iot_sdk\iothub_client\src/iothub_message.c ****     return result;
 497:Source\azure_iot_sdk\iothub_client\src/iothub_message.c **** }
 2229              		.loc 1 497 0
 2230 0074 07B0     		add	sp, sp, #28
 2231              		@ sp needed
 2232              	.LVL344:
 2233              	.LVL345:
 2234 0076 F0BD     		pop	{r4, r5, r6, r7, pc}
 2235              	.L142:
 2236              		.align	2
 2237              	.L141:
 2238 0078 EC030000 		.word	.LC73
 2239 007c 80000000 		.word	.LANCHOR2
 2240 0080 00000000 		.word	.LC1
 2241 0084 4C040000 		.word	.LC75
 2242              		.cfi_endproc
 2243              	.LFE17:
 2244              		.size	IoTHubMessage_SetProperty, .-IoTHubMessage_SetProperty
 2245              		.section	.text.IoTHubMessage_GetProperty,"ax",%progbits
 2246              		.align	2
 2247              		.global	IoTHubMessage_GetProperty
 2248              		.code	16
 2249              		.thumb_func
 2250              		.type	IoTHubMessage_GetProperty, %function
 2251              	IoTHubMessage_GetProperty:
ARM GAS  C:\Users\Phuong\AppData\Local\Temp\cc4zbCpa.s 			page 50


 2252              	.LFB18:
 498:Source\azure_iot_sdk\iothub_client\src/iothub_message.c **** 
 499:Source\azure_iot_sdk\iothub_client\src/iothub_message.c **** const char* IoTHubMessage_GetProperty(IOTHUB_MESSAGE_HANDLE msg_handle, const char* key)
 500:Source\azure_iot_sdk\iothub_client\src/iothub_message.c **** {
 2253              		.loc 1 500 0
 2254              		.cfi_startproc
 2255              		@ args = 0, pretend = 0, frame = 8
 2256              		@ frame_needed = 0, uses_anonymous_args = 0
 2257              	.LVL346:
 2258 0000 70B5     		push	{r4, r5, r6, lr}
 2259              		.cfi_def_cfa_offset 16
 2260              		.cfi_offset 4, -16
 2261              		.cfi_offset 5, -12
 2262              		.cfi_offset 6, -8
 2263              		.cfi_offset 14, -4
 2264 0002 86B0     		sub	sp, sp, #24
 2265              		.cfi_def_cfa_offset 40
 2266 0004 0400     		movs	r4, r0
 2267 0006 0D00     		movs	r5, r1
 501:Source\azure_iot_sdk\iothub_client\src/iothub_message.c ****     const char* result;
 502:Source\azure_iot_sdk\iothub_client\src/iothub_message.c ****     if (msg_handle == NULL || key == NULL)
 2268              		.loc 1 502 0
 2269 0008 0028     		cmp	r0, #0
 2270 000a 01D0     		beq	.L144
 2271              		.loc 1 502 0 is_stmt 0 discriminator 1
 2272 000c 0029     		cmp	r1, #0
 2273 000e 12D1     		bne	.L145
 2274              	.L144:
 2275              	.LBB44:
 503:Source\azure_iot_sdk\iothub_client\src/iothub_message.c ****     {
 504:Source\azure_iot_sdk\iothub_client\src/iothub_message.c ****         LogError("invalid parameter (NULL) to IoTHubMessage_GetProperty iotHubMessageHandle=%p, key
 2276              		.loc 1 504 0 is_stmt 1 discriminator 3
 2277 0010 FFF7FEFF 		bl	xlogging_get_log_function
 2278              	.LVL347:
 2279 0014 061E     		subs	r6, r0, #0
 2280              	.LVL348:
 2281 0016 25D0     		beq	.L148
 2282              		.loc 1 504 0 is_stmt 0 discriminator 4
 2283 0018 0395     		str	r5, [sp, #12]
 2284 001a 0294     		str	r4, [sp, #8]
 2285 001c 134B     		ldr	r3, .L151
 2286 001e 0193     		str	r3, [sp, #4]
 2287 0020 0123     		movs	r3, #1
 2288 0022 0093     		str	r3, [sp]
 2289 0024 F833     		adds	r3, r3, #248
 2290 0026 FF33     		adds	r3, r3, #255
 2291 0028 114A     		ldr	r2, .L151+4
 2292 002a 4832     		adds	r2, r2, #72
 2293 002c 1149     		ldr	r1, .L151+8
 2294 002e 0020     		movs	r0, #0
 2295              	.LVL349:
 2296 0030 B047     		blx	r6
 2297              	.LVL350:
 2298              	.LBE44:
 505:Source\azure_iot_sdk\iothub_client\src/iothub_message.c ****         result = NULL;
 2299              		.loc 1 505 0 is_stmt 1 discriminator 4
 2300 0032 0020     		movs	r0, #0
ARM GAS  C:\Users\Phuong\AppData\Local\Temp\cc4zbCpa.s 			page 51


 2301 0034 17E0     		b	.L146
 2302              	.LVL351:
 2303              	.L145:
 2304              	.LBB45:
 506:Source\azure_iot_sdk\iothub_client\src/iothub_message.c ****     }
 507:Source\azure_iot_sdk\iothub_client\src/iothub_message.c ****     else
 508:Source\azure_iot_sdk\iothub_client\src/iothub_message.c ****     {
 509:Source\azure_iot_sdk\iothub_client\src/iothub_message.c ****         bool key_exists = false;
 2305              		.loc 1 509 0
 2306 0036 1722     		movs	r2, #23
 2307 0038 6A44     		add	r2, r2, sp
 2308 003a 0023     		movs	r3, #0
 2309 003c 1370     		strb	r3, [r2]
 510:Source\azure_iot_sdk\iothub_client\src/iothub_message.c ****         // The return value is not neccessary, just check the key_exist variable
 511:Source\azure_iot_sdk\iothub_client\src/iothub_message.c ****         if ((Map_ContainsKey(msg_handle->properties, key, &key_exists) == MAP_OK) && key_exists)
 2310              		.loc 1 511 0
 2311 003e 8068     		ldr	r0, [r0, #8]
 2312              	.LVL352:
 2313 0040 FFF7FEFF 		bl	Map_ContainsKey
 2314              	.LVL353:
 2315 0044 0028     		cmp	r0, #0
 2316 0046 09D1     		bne	.L149
 2317              		.loc 1 511 0 is_stmt 0 discriminator 1
 2318 0048 1723     		movs	r3, #23
 2319 004a 6B44     		add	r3, r3, sp
 2320 004c 1B78     		ldrb	r3, [r3]
 2321 004e 002B     		cmp	r3, #0
 2322 0050 06D0     		beq	.L150
 512:Source\azure_iot_sdk\iothub_client\src/iothub_message.c ****         {
 513:Source\azure_iot_sdk\iothub_client\src/iothub_message.c ****             result = Map_GetValueFromKey(msg_handle->properties, key);
 2323              		.loc 1 513 0 is_stmt 1
 2324 0052 A068     		ldr	r0, [r4, #8]
 2325 0054 2900     		movs	r1, r5
 2326 0056 FFF7FEFF 		bl	Map_GetValueFromKey
 2327              	.LVL354:
 2328 005a 04E0     		b	.L146
 2329              	.LVL355:
 2330              	.L149:
 514:Source\azure_iot_sdk\iothub_client\src/iothub_message.c ****         }
 515:Source\azure_iot_sdk\iothub_client\src/iothub_message.c ****         else
 516:Source\azure_iot_sdk\iothub_client\src/iothub_message.c ****         {
 517:Source\azure_iot_sdk\iothub_client\src/iothub_message.c ****             result = NULL;
 2331              		.loc 1 517 0
 2332 005c 0020     		movs	r0, #0
 2333 005e 02E0     		b	.L146
 2334              	.L150:
 2335 0060 0020     		movs	r0, #0
 2336              	.LVL356:
 2337 0062 00E0     		b	.L146
 2338              	.LVL357:
 2339              	.L148:
 2340              	.LBE45:
 505:Source\azure_iot_sdk\iothub_client\src/iothub_message.c ****     }
 2341              		.loc 1 505 0
 2342 0064 0020     		movs	r0, #0
 2343              	.LVL358:
 2344              	.L146:
ARM GAS  C:\Users\Phuong\AppData\Local\Temp\cc4zbCpa.s 			page 52


 518:Source\azure_iot_sdk\iothub_client\src/iothub_message.c ****         }
 519:Source\azure_iot_sdk\iothub_client\src/iothub_message.c ****     }
 520:Source\azure_iot_sdk\iothub_client\src/iothub_message.c ****     return result;
 521:Source\azure_iot_sdk\iothub_client\src/iothub_message.c **** }
 2345              		.loc 1 521 0
 2346 0066 06B0     		add	sp, sp, #24
 2347              		@ sp needed
 2348              	.LVL359:
 2349              	.LVL360:
 2350 0068 70BD     		pop	{r4, r5, r6, pc}
 2351              	.L152:
 2352 006a C046     		.align	2
 2353              	.L151:
 2354 006c 74040000 		.word	.LC79
 2355 0070 80000000 		.word	.LANCHOR2
 2356 0074 00000000 		.word	.LC1
 2357              		.cfi_endproc
 2358              	.LFE18:
 2359              		.size	IoTHubMessage_GetProperty, .-IoTHubMessage_GetProperty
 2360              		.section	.text.IoTHubMessage_GetCorrelationId,"ax",%progbits
 2361              		.align	2
 2362              		.global	IoTHubMessage_GetCorrelationId
 2363              		.code	16
 2364              		.thumb_func
 2365              		.type	IoTHubMessage_GetCorrelationId, %function
 2366              	IoTHubMessage_GetCorrelationId:
 2367              	.LFB19:
 522:Source\azure_iot_sdk\iothub_client\src/iothub_message.c **** 
 523:Source\azure_iot_sdk\iothub_client\src/iothub_message.c **** const char* IoTHubMessage_GetCorrelationId(IOTHUB_MESSAGE_HANDLE iotHubMessageHandle)
 524:Source\azure_iot_sdk\iothub_client\src/iothub_message.c **** {
 2368              		.loc 1 524 0
 2369              		.cfi_startproc
 2370              		@ args = 0, pretend = 0, frame = 0
 2371              		@ frame_needed = 0, uses_anonymous_args = 0
 2372              	.LVL361:
 2373 0000 10B5     		push	{r4, lr}
 2374              		.cfi_def_cfa_offset 8
 2375              		.cfi_offset 4, -8
 2376              		.cfi_offset 14, -4
 2377 0002 82B0     		sub	sp, sp, #8
 2378              		.cfi_def_cfa_offset 16
 525:Source\azure_iot_sdk\iothub_client\src/iothub_message.c ****     const char* result;
 526:Source\azure_iot_sdk\iothub_client\src/iothub_message.c ****     /* Codes_SRS_IOTHUBMESSAGE_07_016: [if the iotHubMessageHandle parameter is NULL then IoTHubMes
 527:Source\azure_iot_sdk\iothub_client\src/iothub_message.c ****     if (iotHubMessageHandle == NULL)
 2379              		.loc 1 527 0
 2380 0004 0028     		cmp	r0, #0
 2381 0006 0FD1     		bne	.L154
 2382              	.LBB46:
 528:Source\azure_iot_sdk\iothub_client\src/iothub_message.c ****     {
 529:Source\azure_iot_sdk\iothub_client\src/iothub_message.c ****         LogError("invalid arg (NULL) passed to IoTHubMessage_GetCorrelationId");
 2383              		.loc 1 529 0 discriminator 3
 2384 0008 FFF7FEFF 		bl	xlogging_get_log_function
 2385              	.LVL362:
 2386 000c 041E     		subs	r4, r0, #0
 2387              	.LVL363:
 2388 000e 0DD0     		beq	.L156
 2389              		.loc 1 529 0 is_stmt 0 discriminator 4
ARM GAS  C:\Users\Phuong\AppData\Local\Temp\cc4zbCpa.s 			page 53


 2390 0010 084B     		ldr	r3, .L157
 2391 0012 0193     		str	r3, [sp, #4]
 2392 0014 0123     		movs	r3, #1
 2393 0016 0093     		str	r3, [sp]
 2394 0018 074B     		ldr	r3, .L157+4
 2395 001a 084A     		ldr	r2, .L157+8
 2396 001c 6432     		adds	r2, r2, #100
 2397 001e 0849     		ldr	r1, .L157+12
 2398 0020 0020     		movs	r0, #0
 2399              	.LVL364:
 2400 0022 A047     		blx	r4
 2401              	.LVL365:
 2402              	.LBE46:
 530:Source\azure_iot_sdk\iothub_client\src/iothub_message.c ****         result = NULL;
 2403              		.loc 1 530 0 is_stmt 1 discriminator 4
 2404 0024 0020     		movs	r0, #0
 2405 0026 02E0     		b	.L155
 2406              	.LVL366:
 2407              	.L154:
 2408              	.LBB47:
 531:Source\azure_iot_sdk\iothub_client\src/iothub_message.c ****     }
 532:Source\azure_iot_sdk\iothub_client\src/iothub_message.c ****     else
 533:Source\azure_iot_sdk\iothub_client\src/iothub_message.c ****     {
 534:Source\azure_iot_sdk\iothub_client\src/iothub_message.c ****         /* Codes_SRS_IOTHUBMESSAGE_07_017: [IoTHubMessage_GetCorrelationId shall return the correla
 535:Source\azure_iot_sdk\iothub_client\src/iothub_message.c ****         IOTHUB_MESSAGE_HANDLE_DATA* handleData = iotHubMessageHandle;
 536:Source\azure_iot_sdk\iothub_client\src/iothub_message.c ****         result = handleData->correlationId;
 2409              		.loc 1 536 0
 2410 0028 0069     		ldr	r0, [r0, #16]
 2411              	.LVL367:
 2412 002a 00E0     		b	.L155
 2413              	.LVL368:
 2414              	.L156:
 2415              	.LBE47:
 530:Source\azure_iot_sdk\iothub_client\src/iothub_message.c ****         result = NULL;
 2416              		.loc 1 530 0
 2417 002c 0020     		movs	r0, #0
 2418              	.LVL369:
 2419              	.L155:
 537:Source\azure_iot_sdk\iothub_client\src/iothub_message.c ****     }
 538:Source\azure_iot_sdk\iothub_client\src/iothub_message.c ****     return result;
 539:Source\azure_iot_sdk\iothub_client\src/iothub_message.c **** }
 2420              		.loc 1 539 0
 2421 002e 02B0     		add	sp, sp, #8
 2422              		@ sp needed
 2423 0030 10BD     		pop	{r4, pc}
 2424              	.L158:
 2425 0032 C046     		.align	2
 2426              	.L157:
 2427 0034 CC040000 		.word	.LC83
 2428 0038 11020000 		.word	529
 2429 003c 80000000 		.word	.LANCHOR2
 2430 0040 00000000 		.word	.LC1
 2431              		.cfi_endproc
 2432              	.LFE19:
 2433              		.size	IoTHubMessage_GetCorrelationId, .-IoTHubMessage_GetCorrelationId
 2434              		.section	.text.IoTHubMessage_SetCorrelationId,"ax",%progbits
 2435              		.align	2
ARM GAS  C:\Users\Phuong\AppData\Local\Temp\cc4zbCpa.s 			page 54


 2436              		.global	IoTHubMessage_SetCorrelationId
 2437              		.code	16
 2438              		.thumb_func
 2439              		.type	IoTHubMessage_SetCorrelationId, %function
 2440              	IoTHubMessage_SetCorrelationId:
 2441              	.LFB20:
 540:Source\azure_iot_sdk\iothub_client\src/iothub_message.c **** 
 541:Source\azure_iot_sdk\iothub_client\src/iothub_message.c **** IOTHUB_MESSAGE_RESULT IoTHubMessage_SetCorrelationId(IOTHUB_MESSAGE_HANDLE iotHubMessageHandle, con
 542:Source\azure_iot_sdk\iothub_client\src/iothub_message.c **** {
 2442              		.loc 1 542 0
 2443              		.cfi_startproc
 2444              		@ args = 0, pretend = 0, frame = 0
 2445              		@ frame_needed = 0, uses_anonymous_args = 0
 2446              	.LVL370:
 2447 0000 30B5     		push	{r4, r5, lr}
 2448              		.cfi_def_cfa_offset 12
 2449              		.cfi_offset 4, -12
 2450              		.cfi_offset 5, -8
 2451              		.cfi_offset 14, -4
 2452 0002 83B0     		sub	sp, sp, #12
 2453              		.cfi_def_cfa_offset 24
 2454 0004 0400     		movs	r4, r0
 2455 0006 0D00     		movs	r5, r1
 543:Source\azure_iot_sdk\iothub_client\src/iothub_message.c ****     IOTHUB_MESSAGE_RESULT result;
 544:Source\azure_iot_sdk\iothub_client\src/iothub_message.c ****     /* Codes_SRS_IOTHUBMESSAGE_07_018: [if any of the parameters are NULL then IoTHubMessage_SetCor
 545:Source\azure_iot_sdk\iothub_client\src/iothub_message.c ****     if (iotHubMessageHandle == NULL || correlationId == NULL)
 2456              		.loc 1 545 0
 2457 0008 0028     		cmp	r0, #0
 2458 000a 01D0     		beq	.L160
 2459              		.loc 1 545 0 is_stmt 0 discriminator 1
 2460 000c 0029     		cmp	r1, #0
 2461 000e 0FD1     		bne	.L161
 2462              	.L160:
 2463              	.LBB48:
 546:Source\azure_iot_sdk\iothub_client\src/iothub_message.c ****     {
 547:Source\azure_iot_sdk\iothub_client\src/iothub_message.c ****         LogError("invalid arg (NULL) passed to IoTHubMessage_SetCorrelationId");
 2464              		.loc 1 547 0 is_stmt 1 discriminator 3
 2465 0010 FFF7FEFF 		bl	xlogging_get_log_function
 2466              	.LVL371:
 2467 0014 041E     		subs	r4, r0, #0
 2468              	.LVL372:
 2469 0016 1BD0     		beq	.L164
 2470              		.loc 1 547 0 is_stmt 0 discriminator 4
 2471 0018 104B     		ldr	r3, .L166
 2472 001a 0193     		str	r3, [sp, #4]
 2473 001c 0123     		movs	r3, #1
 2474 001e 0093     		str	r3, [sp]
 2475 0020 0F4B     		ldr	r3, .L166+4
 2476 0022 104A     		ldr	r2, .L166+8
 2477 0024 0432     		adds	r2, r2, #4
 2478 0026 1049     		ldr	r1, .L166+12
 2479 0028 0020     		movs	r0, #0
 2480              	.LVL373:
 2481 002a A047     		blx	r4
 2482              	.LVL374:
 2483              	.LBE48:
 548:Source\azure_iot_sdk\iothub_client\src/iothub_message.c ****         result = IOTHUB_MESSAGE_INVALID_ARG;
ARM GAS  C:\Users\Phuong\AppData\Local\Temp\cc4zbCpa.s 			page 55


 2484              		.loc 1 548 0 is_stmt 1 discriminator 4
 2485 002c 0120     		movs	r0, #1
 2486 002e 12E0     		b	.L162
 2487              	.LVL375:
 2488              	.L161:
 2489              	.LBB49:
 549:Source\azure_iot_sdk\iothub_client\src/iothub_message.c ****     }
 550:Source\azure_iot_sdk\iothub_client\src/iothub_message.c ****     else
 551:Source\azure_iot_sdk\iothub_client\src/iothub_message.c ****     {
 552:Source\azure_iot_sdk\iothub_client\src/iothub_message.c ****         IOTHUB_MESSAGE_HANDLE_DATA* handleData = iotHubMessageHandle;
 553:Source\azure_iot_sdk\iothub_client\src/iothub_message.c ****         /* Codes_SRS_IOTHUBMESSAGE_07_019: [If the IOTHUB_MESSAGE_HANDLE correlationId is not NULL,
 554:Source\azure_iot_sdk\iothub_client\src/iothub_message.c ****         if (handleData->correlationId != NULL)
 2490              		.loc 1 554 0
 2491 0030 0069     		ldr	r0, [r0, #16]
 2492              	.LVL376:
 2493 0032 0028     		cmp	r0, #0
 2494 0034 03D0     		beq	.L163
 555:Source\azure_iot_sdk\iothub_client\src/iothub_message.c ****         {
 556:Source\azure_iot_sdk\iothub_client\src/iothub_message.c ****             free(handleData->correlationId);
 2495              		.loc 1 556 0
 2496 0036 FFF7FEFF 		bl	free
 2497              	.LVL377:
 557:Source\azure_iot_sdk\iothub_client\src/iothub_message.c ****             handleData->correlationId = NULL;
 2498              		.loc 1 557 0
 2499 003a 0023     		movs	r3, #0
 2500 003c 2361     		str	r3, [r4, #16]
 2501              	.L163:
 558:Source\azure_iot_sdk\iothub_client\src/iothub_message.c ****         }
 559:Source\azure_iot_sdk\iothub_client\src/iothub_message.c **** 
 560:Source\azure_iot_sdk\iothub_client\src/iothub_message.c ****         if (mallocAndStrcpy_s(&handleData->correlationId, correlationId) != 0)
 2502              		.loc 1 560 0
 2503 003e 2000     		movs	r0, r4
 2504 0040 1030     		adds	r0, r0, #16
 2505 0042 2900     		movs	r1, r5
 2506 0044 FFF7FEFF 		bl	mallocAndStrcpy_s
 2507              	.LVL378:
 2508 0048 0028     		cmp	r0, #0
 2509 004a 03D0     		beq	.L165
 561:Source\azure_iot_sdk\iothub_client\src/iothub_message.c ****         {
 562:Source\azure_iot_sdk\iothub_client\src/iothub_message.c ****             /* Codes_SRS_IOTHUBMESSAGE_07_020: [If the allocation or the copying of the correlation
 563:Source\azure_iot_sdk\iothub_client\src/iothub_message.c ****             result = IOTHUB_MESSAGE_ERROR;
 2510              		.loc 1 563 0
 2511 004c 0320     		movs	r0, #3
 2512 004e 02E0     		b	.L162
 2513              	.LVL379:
 2514              	.L164:
 2515              	.LBE49:
 548:Source\azure_iot_sdk\iothub_client\src/iothub_message.c ****     }
 2516              		.loc 1 548 0
 2517 0050 0120     		movs	r0, #1
 2518              	.LVL380:
 2519 0052 00E0     		b	.L162
 2520              	.LVL381:
 2521              	.L165:
 2522              	.LBB50:
 564:Source\azure_iot_sdk\iothub_client\src/iothub_message.c ****         }
 565:Source\azure_iot_sdk\iothub_client\src/iothub_message.c ****         else
ARM GAS  C:\Users\Phuong\AppData\Local\Temp\cc4zbCpa.s 			page 56


 566:Source\azure_iot_sdk\iothub_client\src/iothub_message.c ****         {
 567:Source\azure_iot_sdk\iothub_client\src/iothub_message.c ****             /* Codes_SRS_IOTHUBMESSAGE_07_021: [IoTHubMessage_SetCorrelationId finishes successfull
 568:Source\azure_iot_sdk\iothub_client\src/iothub_message.c ****             result = IOTHUB_MESSAGE_OK;
 2523              		.loc 1 568 0
 2524 0054 0020     		movs	r0, #0
 2525              	.LVL382:
 2526              	.L162:
 2527              	.LBE50:
 569:Source\azure_iot_sdk\iothub_client\src/iothub_message.c ****         }
 570:Source\azure_iot_sdk\iothub_client\src/iothub_message.c ****     }
 571:Source\azure_iot_sdk\iothub_client\src/iothub_message.c ****     return result;
 572:Source\azure_iot_sdk\iothub_client\src/iothub_message.c **** }
 2528              		.loc 1 572 0
 2529 0056 03B0     		add	sp, sp, #12
 2530              		@ sp needed
 2531              	.LVL383:
 2532 0058 30BD     		pop	{r4, r5, pc}
 2533              	.L167:
 2534 005a C046     		.align	2
 2535              	.L166:
 2536 005c 08050000 		.word	.LC87
 2537 0060 23020000 		.word	547
 2538 0064 00010000 		.word	.LANCHOR3
 2539 0068 00000000 		.word	.LC1
 2540              		.cfi_endproc
 2541              	.LFE20:
 2542              		.size	IoTHubMessage_SetCorrelationId, .-IoTHubMessage_SetCorrelationId
 2543              		.section	.text.IoTHubMessage_SetMessageId,"ax",%progbits
 2544              		.align	2
 2545              		.global	IoTHubMessage_SetMessageId
 2546              		.code	16
 2547              		.thumb_func
 2548              		.type	IoTHubMessage_SetMessageId, %function
 2549              	IoTHubMessage_SetMessageId:
 2550              	.LFB21:
 573:Source\azure_iot_sdk\iothub_client\src/iothub_message.c **** 
 574:Source\azure_iot_sdk\iothub_client\src/iothub_message.c **** IOTHUB_MESSAGE_RESULT IoTHubMessage_SetMessageId(IOTHUB_MESSAGE_HANDLE iotHubMessageHandle, const c
 575:Source\azure_iot_sdk\iothub_client\src/iothub_message.c **** {
 2551              		.loc 1 575 0
 2552              		.cfi_startproc
 2553              		@ args = 0, pretend = 0, frame = 0
 2554              		@ frame_needed = 0, uses_anonymous_args = 0
 2555              	.LVL384:
 2556 0000 30B5     		push	{r4, r5, lr}
 2557              		.cfi_def_cfa_offset 12
 2558              		.cfi_offset 4, -12
 2559              		.cfi_offset 5, -8
 2560              		.cfi_offset 14, -4
 2561 0002 83B0     		sub	sp, sp, #12
 2562              		.cfi_def_cfa_offset 24
 2563 0004 0400     		movs	r4, r0
 2564 0006 0D00     		movs	r5, r1
 576:Source\azure_iot_sdk\iothub_client\src/iothub_message.c ****     IOTHUB_MESSAGE_RESULT result;
 577:Source\azure_iot_sdk\iothub_client\src/iothub_message.c ****     /* Codes_SRS_IOTHUBMESSAGE_07_012: [if any of the parameters are NULL then IoTHubMessage_SetMes
 578:Source\azure_iot_sdk\iothub_client\src/iothub_message.c ****     if (iotHubMessageHandle == NULL || messageId == NULL)
 2565              		.loc 1 578 0
 2566 0008 0028     		cmp	r0, #0
ARM GAS  C:\Users\Phuong\AppData\Local\Temp\cc4zbCpa.s 			page 57


 2567 000a 01D0     		beq	.L169
 2568              		.loc 1 578 0 is_stmt 0 discriminator 1
 2569 000c 0029     		cmp	r1, #0
 2570 000e 10D1     		bne	.L170
 2571              	.L169:
 2572              	.LBB51:
 579:Source\azure_iot_sdk\iothub_client\src/iothub_message.c ****     {
 580:Source\azure_iot_sdk\iothub_client\src/iothub_message.c ****         LogError("invalid arg (NULL) passed to IoTHubMessage_SetMessageId");
 2573              		.loc 1 580 0 is_stmt 1 discriminator 3
 2574 0010 FFF7FEFF 		bl	xlogging_get_log_function
 2575              	.LVL385:
 2576 0014 041E     		subs	r4, r0, #0
 2577              	.LVL386:
 2578 0016 1CD0     		beq	.L173
 2579              		.loc 1 580 0 is_stmt 0 discriminator 4
 2580 0018 104B     		ldr	r3, .L175
 2581 001a 0193     		str	r3, [sp, #4]
 2582 001c 0123     		movs	r3, #1
 2583 001e 0093     		str	r3, [sp]
 2584 0020 9123     		movs	r3, #145
 2585 0022 9B00     		lsls	r3, r3, #2
 2586 0024 0E4A     		ldr	r2, .L175+4
 2587 0026 2432     		adds	r2, r2, #36
 2588 0028 0E49     		ldr	r1, .L175+8
 2589 002a 0020     		movs	r0, #0
 2590              	.LVL387:
 2591 002c A047     		blx	r4
 2592              	.LVL388:
 2593              	.LBE51:
 581:Source\azure_iot_sdk\iothub_client\src/iothub_message.c ****         result = IOTHUB_MESSAGE_INVALID_ARG;
 2594              		.loc 1 581 0 is_stmt 1 discriminator 4
 2595 002e 0120     		movs	r0, #1
 2596 0030 12E0     		b	.L171
 2597              	.LVL389:
 2598              	.L170:
 2599              	.LBB52:
 582:Source\azure_iot_sdk\iothub_client\src/iothub_message.c ****     }
 583:Source\azure_iot_sdk\iothub_client\src/iothub_message.c ****     else
 584:Source\azure_iot_sdk\iothub_client\src/iothub_message.c ****     {
 585:Source\azure_iot_sdk\iothub_client\src/iothub_message.c ****         IOTHUB_MESSAGE_HANDLE_DATA* handleData = iotHubMessageHandle;
 586:Source\azure_iot_sdk\iothub_client\src/iothub_message.c ****         /* Codes_SRS_IOTHUBMESSAGE_07_013: [If the IOTHUB_MESSAGE_HANDLE messageId is not NULL, the
 587:Source\azure_iot_sdk\iothub_client\src/iothub_message.c ****         if (handleData->messageId != NULL)
 2600              		.loc 1 587 0
 2601 0032 C068     		ldr	r0, [r0, #12]
 2602              	.LVL390:
 2603 0034 0028     		cmp	r0, #0
 2604 0036 03D0     		beq	.L172
 588:Source\azure_iot_sdk\iothub_client\src/iothub_message.c ****         {
 589:Source\azure_iot_sdk\iothub_client\src/iothub_message.c ****             free(handleData->messageId);
 2605              		.loc 1 589 0
 2606 0038 FFF7FEFF 		bl	free
 2607              	.LVL391:
 590:Source\azure_iot_sdk\iothub_client\src/iothub_message.c ****             handleData->messageId = NULL;
 2608              		.loc 1 590 0
 2609 003c 0023     		movs	r3, #0
 2610 003e E360     		str	r3, [r4, #12]
 2611              	.L172:
ARM GAS  C:\Users\Phuong\AppData\Local\Temp\cc4zbCpa.s 			page 58


 591:Source\azure_iot_sdk\iothub_client\src/iothub_message.c ****         }
 592:Source\azure_iot_sdk\iothub_client\src/iothub_message.c **** 
 593:Source\azure_iot_sdk\iothub_client\src/iothub_message.c ****         /* Codes_SRS_IOTHUBMESSAGE_07_014: [If the allocation or the copying of the messageId fails
 594:Source\azure_iot_sdk\iothub_client\src/iothub_message.c ****         if (mallocAndStrcpy_s(&handleData->messageId, messageId) != 0)
 2612              		.loc 1 594 0
 2613 0040 2000     		movs	r0, r4
 2614 0042 0C30     		adds	r0, r0, #12
 2615 0044 2900     		movs	r1, r5
 2616 0046 FFF7FEFF 		bl	mallocAndStrcpy_s
 2617              	.LVL392:
 2618 004a 0028     		cmp	r0, #0
 2619 004c 03D0     		beq	.L174
 595:Source\azure_iot_sdk\iothub_client\src/iothub_message.c ****         {
 596:Source\azure_iot_sdk\iothub_client\src/iothub_message.c ****             result = IOTHUB_MESSAGE_ERROR;
 2620              		.loc 1 596 0
 2621 004e 0320     		movs	r0, #3
 2622 0050 02E0     		b	.L171
 2623              	.LVL393:
 2624              	.L173:
 2625              	.LBE52:
 581:Source\azure_iot_sdk\iothub_client\src/iothub_message.c ****     }
 2626              		.loc 1 581 0
 2627 0052 0120     		movs	r0, #1
 2628              	.LVL394:
 2629 0054 00E0     		b	.L171
 2630              	.LVL395:
 2631              	.L174:
 2632              	.LBB53:
 597:Source\azure_iot_sdk\iothub_client\src/iothub_message.c ****         }
 598:Source\azure_iot_sdk\iothub_client\src/iothub_message.c ****         else
 599:Source\azure_iot_sdk\iothub_client\src/iothub_message.c ****         {
 600:Source\azure_iot_sdk\iothub_client\src/iothub_message.c ****             result = IOTHUB_MESSAGE_OK;
 2633              		.loc 1 600 0
 2634 0056 0020     		movs	r0, #0
 2635              	.LVL396:
 2636              	.L171:
 2637              	.LBE53:
 601:Source\azure_iot_sdk\iothub_client\src/iothub_message.c ****         }
 602:Source\azure_iot_sdk\iothub_client\src/iothub_message.c ****     }
 603:Source\azure_iot_sdk\iothub_client\src/iothub_message.c ****     return result;
 604:Source\azure_iot_sdk\iothub_client\src/iothub_message.c **** }
 2638              		.loc 1 604 0
 2639 0058 03B0     		add	sp, sp, #12
 2640              		@ sp needed
 2641              	.LVL397:
 2642 005a 30BD     		pop	{r4, r5, pc}
 2643              	.L176:
 2644              		.align	2
 2645              	.L175:
 2646 005c 44050000 		.word	.LC91
 2647 0060 00010000 		.word	.LANCHOR3
 2648 0064 00000000 		.word	.LC1
 2649              		.cfi_endproc
 2650              	.LFE21:
 2651              		.size	IoTHubMessage_SetMessageId, .-IoTHubMessage_SetMessageId
 2652              		.section	.text.IoTHubMessage_GetMessageId,"ax",%progbits
 2653              		.align	2
ARM GAS  C:\Users\Phuong\AppData\Local\Temp\cc4zbCpa.s 			page 59


 2654              		.global	IoTHubMessage_GetMessageId
 2655              		.code	16
 2656              		.thumb_func
 2657              		.type	IoTHubMessage_GetMessageId, %function
 2658              	IoTHubMessage_GetMessageId:
 2659              	.LFB22:
 605:Source\azure_iot_sdk\iothub_client\src/iothub_message.c **** 
 606:Source\azure_iot_sdk\iothub_client\src/iothub_message.c **** const char* IoTHubMessage_GetMessageId(IOTHUB_MESSAGE_HANDLE iotHubMessageHandle)
 607:Source\azure_iot_sdk\iothub_client\src/iothub_message.c **** {
 2660              		.loc 1 607 0
 2661              		.cfi_startproc
 2662              		@ args = 0, pretend = 0, frame = 0
 2663              		@ frame_needed = 0, uses_anonymous_args = 0
 2664              	.LVL398:
 2665 0000 10B5     		push	{r4, lr}
 2666              		.cfi_def_cfa_offset 8
 2667              		.cfi_offset 4, -8
 2668              		.cfi_offset 14, -4
 2669 0002 82B0     		sub	sp, sp, #8
 2670              		.cfi_def_cfa_offset 16
 608:Source\azure_iot_sdk\iothub_client\src/iothub_message.c ****     const char* result;
 609:Source\azure_iot_sdk\iothub_client\src/iothub_message.c ****     /* Codes_SRS_IOTHUBMESSAGE_07_010: [if the iotHubMessageHandle parameter is NULL then IoTHubMes
 610:Source\azure_iot_sdk\iothub_client\src/iothub_message.c ****     if (iotHubMessageHandle == NULL)
 2671              		.loc 1 610 0
 2672 0004 0028     		cmp	r0, #0
 2673 0006 10D1     		bne	.L178
 2674              	.LBB54:
 611:Source\azure_iot_sdk\iothub_client\src/iothub_message.c ****     {
 612:Source\azure_iot_sdk\iothub_client\src/iothub_message.c ****         LogError("invalid arg (NULL) passed to IoTHubMessage_GetMessageId");
 2675              		.loc 1 612 0 discriminator 3
 2676 0008 FFF7FEFF 		bl	xlogging_get_log_function
 2677              	.LVL399:
 2678 000c 041E     		subs	r4, r0, #0
 2679              	.LVL400:
 2680 000e 0ED0     		beq	.L180
 2681              		.loc 1 612 0 is_stmt 0 discriminator 4
 2682 0010 084B     		ldr	r3, .L181
 2683 0012 0193     		str	r3, [sp, #4]
 2684 0014 0123     		movs	r3, #1
 2685 0016 0093     		str	r3, [sp]
 2686 0018 9923     		movs	r3, #153
 2687 001a 9B00     		lsls	r3, r3, #2
 2688 001c 064A     		ldr	r2, .L181+4
 2689 001e 4032     		adds	r2, r2, #64
 2690 0020 0649     		ldr	r1, .L181+8
 2691 0022 0020     		movs	r0, #0
 2692              	.LVL401:
 2693 0024 A047     		blx	r4
 2694              	.LVL402:
 2695              	.LBE54:
 613:Source\azure_iot_sdk\iothub_client\src/iothub_message.c ****         result = NULL;
 2696              		.loc 1 613 0 is_stmt 1 discriminator 4
 2697 0026 0020     		movs	r0, #0
 2698 0028 02E0     		b	.L179
 2699              	.LVL403:
 2700              	.L178:
 2701              	.LBB55:
ARM GAS  C:\Users\Phuong\AppData\Local\Temp\cc4zbCpa.s 			page 60


 614:Source\azure_iot_sdk\iothub_client\src/iothub_message.c ****     }
 615:Source\azure_iot_sdk\iothub_client\src/iothub_message.c ****     else
 616:Source\azure_iot_sdk\iothub_client\src/iothub_message.c ****     {
 617:Source\azure_iot_sdk\iothub_client\src/iothub_message.c ****         /* Codes_SRS_IOTHUBMESSAGE_07_011: [IoTHubMessage_MessageId shall return the messageId as a
 618:Source\azure_iot_sdk\iothub_client\src/iothub_message.c ****         IOTHUB_MESSAGE_HANDLE_DATA* handleData = iotHubMessageHandle;
 619:Source\azure_iot_sdk\iothub_client\src/iothub_message.c ****         result = handleData->messageId;
 2702              		.loc 1 619 0
 2703 002a C068     		ldr	r0, [r0, #12]
 2704              	.LVL404:
 2705 002c 00E0     		b	.L179
 2706              	.LVL405:
 2707              	.L180:
 2708              	.LBE55:
 613:Source\azure_iot_sdk\iothub_client\src/iothub_message.c ****         result = NULL;
 2709              		.loc 1 613 0
 2710 002e 0020     		movs	r0, #0
 2711              	.LVL406:
 2712              	.L179:
 620:Source\azure_iot_sdk\iothub_client\src/iothub_message.c ****     }
 621:Source\azure_iot_sdk\iothub_client\src/iothub_message.c ****     return result;
 622:Source\azure_iot_sdk\iothub_client\src/iothub_message.c **** }
 2713              		.loc 1 622 0
 2714 0030 02B0     		add	sp, sp, #8
 2715              		@ sp needed
 2716 0032 10BD     		pop	{r4, pc}
 2717              	.L182:
 2718              		.align	2
 2719              	.L181:
 2720 0034 7C050000 		.word	.LC95
 2721 0038 00010000 		.word	.LANCHOR3
 2722 003c 00000000 		.word	.LC1
 2723              		.cfi_endproc
 2724              	.LFE22:
 2725              		.size	IoTHubMessage_GetMessageId, .-IoTHubMessage_GetMessageId
 2726              		.section	.text.IoTHubMessage_SetContentTypeSystemProperty,"ax",%progbits
 2727              		.align	2
 2728              		.global	IoTHubMessage_SetContentTypeSystemProperty
 2729              		.code	16
 2730              		.thumb_func
 2731              		.type	IoTHubMessage_SetContentTypeSystemProperty, %function
 2732              	IoTHubMessage_SetContentTypeSystemProperty:
 2733              	.LFB23:
 623:Source\azure_iot_sdk\iothub_client\src/iothub_message.c **** 
 624:Source\azure_iot_sdk\iothub_client\src/iothub_message.c **** IOTHUB_MESSAGE_RESULT IoTHubMessage_SetContentTypeSystemProperty(IOTHUB_MESSAGE_HANDLE iotHubMessag
 625:Source\azure_iot_sdk\iothub_client\src/iothub_message.c **** {
 2734              		.loc 1 625 0
 2735              		.cfi_startproc
 2736              		@ args = 0, pretend = 0, frame = 0
 2737              		@ frame_needed = 0, uses_anonymous_args = 0
 2738              	.LVL407:
 2739 0000 70B5     		push	{r4, r5, r6, lr}
 2740              		.cfi_def_cfa_offset 16
 2741              		.cfi_offset 4, -16
 2742              		.cfi_offset 5, -12
 2743              		.cfi_offset 6, -8
 2744              		.cfi_offset 14, -4
 2745 0002 84B0     		sub	sp, sp, #16
ARM GAS  C:\Users\Phuong\AppData\Local\Temp\cc4zbCpa.s 			page 61


 2746              		.cfi_def_cfa_offset 32
 2747 0004 0400     		movs	r4, r0
 2748 0006 0D00     		movs	r5, r1
 626:Source\azure_iot_sdk\iothub_client\src/iothub_message.c ****     IOTHUB_MESSAGE_RESULT result;
 627:Source\azure_iot_sdk\iothub_client\src/iothub_message.c **** 
 628:Source\azure_iot_sdk\iothub_client\src/iothub_message.c ****     // Codes_SRS_IOTHUBMESSAGE_09_001: [If any of the parameters are NULL then IoTHubMessage_SetCon
 629:Source\azure_iot_sdk\iothub_client\src/iothub_message.c ****     if (iotHubMessageHandle == NULL || contentType == NULL)
 2749              		.loc 1 629 0
 2750 0008 0028     		cmp	r0, #0
 2751 000a 01D0     		beq	.L184
 2752              		.loc 1 629 0 is_stmt 0 discriminator 1
 2753 000c 0029     		cmp	r1, #0
 2754 000e 11D1     		bne	.L185
 2755              	.L184:
 2756              	.LBB56:
 630:Source\azure_iot_sdk\iothub_client\src/iothub_message.c ****     {
 631:Source\azure_iot_sdk\iothub_client\src/iothub_message.c ****         LogError("Invalid argument (iotHubMessageHandle=%p, contentType=%p)", iotHubMessageHandle, 
 2757              		.loc 1 631 0 is_stmt 1 discriminator 3
 2758 0010 FFF7FEFF 		bl	xlogging_get_log_function
 2759              	.LVL408:
 2760 0014 061E     		subs	r6, r0, #0
 2761              	.LVL409:
 2762 0016 2BD0     		beq	.L188
 2763              		.loc 1 631 0 is_stmt 0 discriminator 4
 2764 0018 0395     		str	r5, [sp, #12]
 2765 001a 0294     		str	r4, [sp, #8]
 2766 001c 184B     		ldr	r3, .L191
 2767 001e 0193     		str	r3, [sp, #4]
 2768 0020 0123     		movs	r3, #1
 2769 0022 0093     		str	r3, [sp]
 2770 0024 174B     		ldr	r3, .L191+4
 2771 0026 184A     		ldr	r2, .L191+8
 2772 0028 5C32     		adds	r2, r2, #92
 2773 002a 1849     		ldr	r1, .L191+12
 2774 002c 0020     		movs	r0, #0
 2775              	.LVL410:
 2776 002e B047     		blx	r6
 2777              	.LVL411:
 2778              	.LBE56:
 632:Source\azure_iot_sdk\iothub_client\src/iothub_message.c ****         result = IOTHUB_MESSAGE_INVALID_ARG;
 2779              		.loc 1 632 0 is_stmt 1 discriminator 4
 2780 0030 0120     		movs	r0, #1
 2781 0032 22E0     		b	.L186
 2782              	.LVL412:
 2783              	.L185:
 2784              	.LBB57:
 633:Source\azure_iot_sdk\iothub_client\src/iothub_message.c ****     }
 634:Source\azure_iot_sdk\iothub_client\src/iothub_message.c ****     else
 635:Source\azure_iot_sdk\iothub_client\src/iothub_message.c ****     {
 636:Source\azure_iot_sdk\iothub_client\src/iothub_message.c ****         IOTHUB_MESSAGE_HANDLE_DATA* handleData = (IOTHUB_MESSAGE_HANDLE_DATA*)iotHubMessageHandle;
 637:Source\azure_iot_sdk\iothub_client\src/iothub_message.c **** 
 638:Source\azure_iot_sdk\iothub_client\src/iothub_message.c ****         // Codes_SRS_IOTHUBMESSAGE_09_002: [If the IOTHUB_MESSAGE_HANDLE `contentType` is not NULL 
 639:Source\azure_iot_sdk\iothub_client\src/iothub_message.c ****         if (handleData->userDefinedContentType != NULL)
 2785              		.loc 1 639 0
 2786 0034 4069     		ldr	r0, [r0, #20]
 2787              	.LVL413:
 2788 0036 0028     		cmp	r0, #0
ARM GAS  C:\Users\Phuong\AppData\Local\Temp\cc4zbCpa.s 			page 62


 2789 0038 03D0     		beq	.L187
 640:Source\azure_iot_sdk\iothub_client\src/iothub_message.c ****         {
 641:Source\azure_iot_sdk\iothub_client\src/iothub_message.c ****             free(handleData->userDefinedContentType);
 2790              		.loc 1 641 0
 2791 003a FFF7FEFF 		bl	free
 2792              	.LVL414:
 642:Source\azure_iot_sdk\iothub_client\src/iothub_message.c ****             handleData->userDefinedContentType = NULL;
 2793              		.loc 1 642 0
 2794 003e 0023     		movs	r3, #0
 2795 0040 6361     		str	r3, [r4, #20]
 2796              	.L187:
 643:Source\azure_iot_sdk\iothub_client\src/iothub_message.c ****         }
 644:Source\azure_iot_sdk\iothub_client\src/iothub_message.c **** 
 645:Source\azure_iot_sdk\iothub_client\src/iothub_message.c ****         if (mallocAndStrcpy_s(&handleData->userDefinedContentType, contentType) != 0)
 2797              		.loc 1 645 0
 2798 0042 2000     		movs	r0, r4
 2799 0044 1430     		adds	r0, r0, #20
 2800 0046 2900     		movs	r1, r5
 2801 0048 FFF7FEFF 		bl	mallocAndStrcpy_s
 2802              	.LVL415:
 2803 004c 0028     		cmp	r0, #0
 2804 004e 11D0     		beq	.L189
 2805              	.LBB58:
 646:Source\azure_iot_sdk\iothub_client\src/iothub_message.c ****         {
 647:Source\azure_iot_sdk\iothub_client\src/iothub_message.c ****             LogError("Failed saving a copy of contentType");
 2806              		.loc 1 647 0 discriminator 3
 2807 0050 FFF7FEFF 		bl	xlogging_get_log_function
 2808              	.LVL416:
 2809 0054 041E     		subs	r4, r0, #0
 2810              	.LVL417:
 2811 0056 0FD0     		beq	.L190
 2812              		.loc 1 647 0 is_stmt 0 discriminator 4
 2813 0058 0D4B     		ldr	r3, .L191+16
 2814 005a 0193     		str	r3, [sp, #4]
 2815 005c 0123     		movs	r3, #1
 2816 005e 0093     		str	r3, [sp]
 2817 0060 0C4B     		ldr	r3, .L191+20
 2818 0062 094A     		ldr	r2, .L191+8
 2819 0064 5C32     		adds	r2, r2, #92
 2820 0066 0949     		ldr	r1, .L191+12
 2821 0068 0020     		movs	r0, #0
 2822              	.LVL418:
 2823 006a A047     		blx	r4
 2824              	.LVL419:
 2825              	.LBE58:
 648:Source\azure_iot_sdk\iothub_client\src/iothub_message.c ****             // Codes_SRS_IOTHUBMESSAGE_09_003: [If the allocation or the copying of `contentType` f
 649:Source\azure_iot_sdk\iothub_client\src/iothub_message.c ****             result = IOTHUB_MESSAGE_ERROR;
 2826              		.loc 1 649 0 is_stmt 1 discriminator 4
 2827 006c 0320     		movs	r0, #3
 2828 006e 04E0     		b	.L186
 2829              	.LVL420:
 2830              	.L188:
 2831              	.LBE57:
 632:Source\azure_iot_sdk\iothub_client\src/iothub_message.c ****     }
 2832              		.loc 1 632 0
 2833 0070 0120     		movs	r0, #1
 2834              	.LVL421:
ARM GAS  C:\Users\Phuong\AppData\Local\Temp\cc4zbCpa.s 			page 63


 2835 0072 02E0     		b	.L186
 2836              	.LVL422:
 2837              	.L189:
 2838              	.LBB59:
 650:Source\azure_iot_sdk\iothub_client\src/iothub_message.c ****         }
 651:Source\azure_iot_sdk\iothub_client\src/iothub_message.c ****         else
 652:Source\azure_iot_sdk\iothub_client\src/iothub_message.c ****         {
 653:Source\azure_iot_sdk\iothub_client\src/iothub_message.c ****             // Codes_SRS_IOTHUBMESSAGE_09_004: [If IoTHubMessage_SetContentTypeSystemProperty finis
 654:Source\azure_iot_sdk\iothub_client\src/iothub_message.c ****             result = IOTHUB_MESSAGE_OK;
 2839              		.loc 1 654 0
 2840 0074 0020     		movs	r0, #0
 2841 0076 00E0     		b	.L186
 2842              	.LVL423:
 2843              	.L190:
 649:Source\azure_iot_sdk\iothub_client\src/iothub_message.c ****         }
 2844              		.loc 1 649 0
 2845 0078 0320     		movs	r0, #3
 2846              	.LVL424:
 2847              	.L186:
 2848              	.LBE59:
 655:Source\azure_iot_sdk\iothub_client\src/iothub_message.c ****         }
 656:Source\azure_iot_sdk\iothub_client\src/iothub_message.c ****     }
 657:Source\azure_iot_sdk\iothub_client\src/iothub_message.c **** 
 658:Source\azure_iot_sdk\iothub_client\src/iothub_message.c ****     return result;
 659:Source\azure_iot_sdk\iothub_client\src/iothub_message.c **** }
 2849              		.loc 1 659 0
 2850 007a 04B0     		add	sp, sp, #16
 2851              		@ sp needed
 2852              	.LVL425:
 2853 007c 70BD     		pop	{r4, r5, r6, pc}
 2854              	.L192:
 2855 007e C046     		.align	2
 2856              	.L191:
 2857 0080 B4050000 		.word	.LC99
 2858 0084 77020000 		.word	631
 2859 0088 00010000 		.word	.LANCHOR3
 2860 008c 00000000 		.word	.LC1
 2861 0090 F0050000 		.word	.LC101
 2862 0094 87020000 		.word	647
 2863              		.cfi_endproc
 2864              	.LFE23:
 2865              		.size	IoTHubMessage_SetContentTypeSystemProperty, .-IoTHubMessage_SetContentTypeSystemProperty
 2866              		.section	.text.IoTHubMessage_GetContentTypeSystemProperty,"ax",%progbits
 2867              		.align	2
 2868              		.global	IoTHubMessage_GetContentTypeSystemProperty
 2869              		.code	16
 2870              		.thumb_func
 2871              		.type	IoTHubMessage_GetContentTypeSystemProperty, %function
 2872              	IoTHubMessage_GetContentTypeSystemProperty:
 2873              	.LFB24:
 660:Source\azure_iot_sdk\iothub_client\src/iothub_message.c **** 
 661:Source\azure_iot_sdk\iothub_client\src/iothub_message.c **** const char* IoTHubMessage_GetContentTypeSystemProperty(IOTHUB_MESSAGE_HANDLE iotHubMessageHandle)
 662:Source\azure_iot_sdk\iothub_client\src/iothub_message.c **** {
 2874              		.loc 1 662 0
 2875              		.cfi_startproc
 2876              		@ args = 0, pretend = 0, frame = 0
 2877              		@ frame_needed = 0, uses_anonymous_args = 0
ARM GAS  C:\Users\Phuong\AppData\Local\Temp\cc4zbCpa.s 			page 64


 2878              	.LVL426:
 2879 0000 10B5     		push	{r4, lr}
 2880              		.cfi_def_cfa_offset 8
 2881              		.cfi_offset 4, -8
 2882              		.cfi_offset 14, -4
 2883 0002 82B0     		sub	sp, sp, #8
 2884              		.cfi_def_cfa_offset 16
 663:Source\azure_iot_sdk\iothub_client\src/iothub_message.c ****     const char* result;
 664:Source\azure_iot_sdk\iothub_client\src/iothub_message.c **** 
 665:Source\azure_iot_sdk\iothub_client\src/iothub_message.c ****     // Codes_SRS_IOTHUBMESSAGE_09_005: [If any of the parameters are NULL then IoTHubMessage_GetCon
 666:Source\azure_iot_sdk\iothub_client\src/iothub_message.c ****     if (iotHubMessageHandle == NULL)
 2885              		.loc 1 666 0
 2886 0004 0028     		cmp	r0, #0
 2887 0006 10D1     		bne	.L194
 2888              	.LBB60:
 667:Source\azure_iot_sdk\iothub_client\src/iothub_message.c ****     {
 668:Source\azure_iot_sdk\iothub_client\src/iothub_message.c ****         LogError("Invalid argument (iotHubMessageHandle is NULL)");
 2889              		.loc 1 668 0 discriminator 3
 2890 0008 FFF7FEFF 		bl	xlogging_get_log_function
 2891              	.LVL427:
 2892 000c 041E     		subs	r4, r0, #0
 2893              	.LVL428:
 2894 000e 0ED0     		beq	.L196
 2895              		.loc 1 668 0 is_stmt 0 discriminator 4
 2896 0010 084B     		ldr	r3, .L197
 2897 0012 0193     		str	r3, [sp, #4]
 2898 0014 0123     		movs	r3, #1
 2899 0016 0093     		str	r3, [sp]
 2900 0018 A723     		movs	r3, #167
 2901 001a 9B00     		lsls	r3, r3, #2
 2902 001c 064A     		ldr	r2, .L197+4
 2903 001e 0832     		adds	r2, r2, #8
 2904 0020 0649     		ldr	r1, .L197+8
 2905 0022 0020     		movs	r0, #0
 2906              	.LVL429:
 2907 0024 A047     		blx	r4
 2908              	.LVL430:
 2909              	.LBE60:
 669:Source\azure_iot_sdk\iothub_client\src/iothub_message.c ****         result = NULL;
 2910              		.loc 1 669 0 is_stmt 1 discriminator 4
 2911 0026 0020     		movs	r0, #0
 2912 0028 02E0     		b	.L195
 2913              	.LVL431:
 2914              	.L194:
 2915              	.LBB61:
 670:Source\azure_iot_sdk\iothub_client\src/iothub_message.c ****     }
 671:Source\azure_iot_sdk\iothub_client\src/iothub_message.c ****     else
 672:Source\azure_iot_sdk\iothub_client\src/iothub_message.c ****     {
 673:Source\azure_iot_sdk\iothub_client\src/iothub_message.c ****         IOTHUB_MESSAGE_HANDLE_DATA* handleData = iotHubMessageHandle;
 674:Source\azure_iot_sdk\iothub_client\src/iothub_message.c **** 
 675:Source\azure_iot_sdk\iothub_client\src/iothub_message.c ****         // Codes_SRS_IOTHUBMESSAGE_09_006: [IoTHubMessage_GetContentTypeSystemProperty shall return
 676:Source\azure_iot_sdk\iothub_client\src/iothub_message.c ****         result = (const char*)handleData->userDefinedContentType;
 2916              		.loc 1 676 0
 2917 002a 4069     		ldr	r0, [r0, #20]
 2918              	.LVL432:
 2919 002c 00E0     		b	.L195
 2920              	.LVL433:
ARM GAS  C:\Users\Phuong\AppData\Local\Temp\cc4zbCpa.s 			page 65


 2921              	.L196:
 2922              	.LBE61:
 669:Source\azure_iot_sdk\iothub_client\src/iothub_message.c ****         result = NULL;
 2923              		.loc 1 669 0
 2924 002e 0020     		movs	r0, #0
 2925              	.LVL434:
 2926              	.L195:
 677:Source\azure_iot_sdk\iothub_client\src/iothub_message.c ****     }
 678:Source\azure_iot_sdk\iothub_client\src/iothub_message.c **** 
 679:Source\azure_iot_sdk\iothub_client\src/iothub_message.c ****     return result;
 680:Source\azure_iot_sdk\iothub_client\src/iothub_message.c **** }
 2927              		.loc 1 680 0
 2928 0030 02B0     		add	sp, sp, #8
 2929              		@ sp needed
 2930 0032 10BD     		pop	{r4, pc}
 2931              	.L198:
 2932              		.align	2
 2933              	.L197:
 2934 0034 14060000 		.word	.LC105
 2935 0038 80010000 		.word	.LANCHOR4
 2936 003c 00000000 		.word	.LC1
 2937              		.cfi_endproc
 2938              	.LFE24:
 2939              		.size	IoTHubMessage_GetContentTypeSystemProperty, .-IoTHubMessage_GetContentTypeSystemProperty
 2940              		.section	.text.IoTHubMessage_SetContentEncodingSystemProperty,"ax",%progbits
 2941              		.align	2
 2942              		.global	IoTHubMessage_SetContentEncodingSystemProperty
 2943              		.code	16
 2944              		.thumb_func
 2945              		.type	IoTHubMessage_SetContentEncodingSystemProperty, %function
 2946              	IoTHubMessage_SetContentEncodingSystemProperty:
 2947              	.LFB25:
 681:Source\azure_iot_sdk\iothub_client\src/iothub_message.c **** 
 682:Source\azure_iot_sdk\iothub_client\src/iothub_message.c **** IOTHUB_MESSAGE_RESULT IoTHubMessage_SetContentEncodingSystemProperty(IOTHUB_MESSAGE_HANDLE iotHubMe
 683:Source\azure_iot_sdk\iothub_client\src/iothub_message.c **** {
 2948              		.loc 1 683 0
 2949              		.cfi_startproc
 2950              		@ args = 0, pretend = 0, frame = 0
 2951              		@ frame_needed = 0, uses_anonymous_args = 0
 2952              	.LVL435:
 2953 0000 70B5     		push	{r4, r5, r6, lr}
 2954              		.cfi_def_cfa_offset 16
 2955              		.cfi_offset 4, -16
 2956              		.cfi_offset 5, -12
 2957              		.cfi_offset 6, -8
 2958              		.cfi_offset 14, -4
 2959 0002 84B0     		sub	sp, sp, #16
 2960              		.cfi_def_cfa_offset 32
 2961 0004 0400     		movs	r4, r0
 2962 0006 0D00     		movs	r5, r1
 684:Source\azure_iot_sdk\iothub_client\src/iothub_message.c ****     IOTHUB_MESSAGE_RESULT result;
 685:Source\azure_iot_sdk\iothub_client\src/iothub_message.c **** 
 686:Source\azure_iot_sdk\iothub_client\src/iothub_message.c ****     // Codes_SRS_IOTHUBMESSAGE_09_006: [If any of the parameters are NULL then IoTHubMessage_SetCon
 687:Source\azure_iot_sdk\iothub_client\src/iothub_message.c ****     if (iotHubMessageHandle == NULL || contentEncoding == NULL)
 2963              		.loc 1 687 0
 2964 0008 0028     		cmp	r0, #0
 2965 000a 01D0     		beq	.L200
ARM GAS  C:\Users\Phuong\AppData\Local\Temp\cc4zbCpa.s 			page 66


 2966              		.loc 1 687 0 is_stmt 0 discriminator 1
 2967 000c 0029     		cmp	r1, #0
 2968 000e 11D1     		bne	.L201
 2969              	.L200:
 2970              	.LBB62:
 688:Source\azure_iot_sdk\iothub_client\src/iothub_message.c ****     {
 689:Source\azure_iot_sdk\iothub_client\src/iothub_message.c ****         LogError("Invalid argument (iotHubMessageHandle=%p, contentEncoding=%p)", iotHubMessageHand
 2971              		.loc 1 689 0 is_stmt 1 discriminator 3
 2972 0010 FFF7FEFF 		bl	xlogging_get_log_function
 2973              	.LVL436:
 2974 0014 061E     		subs	r6, r0, #0
 2975              	.LVL437:
 2976 0016 2BD0     		beq	.L204
 2977              		.loc 1 689 0 is_stmt 0 discriminator 4
 2978 0018 0395     		str	r5, [sp, #12]
 2979 001a 0294     		str	r4, [sp, #8]
 2980 001c 184B     		ldr	r3, .L207
 2981 001e 0193     		str	r3, [sp, #4]
 2982 0020 0123     		movs	r3, #1
 2983 0022 0093     		str	r3, [sp]
 2984 0024 174B     		ldr	r3, .L207+4
 2985 0026 184A     		ldr	r2, .L207+8
 2986 0028 3432     		adds	r2, r2, #52
 2987 002a 1849     		ldr	r1, .L207+12
 2988 002c 0020     		movs	r0, #0
 2989              	.LVL438:
 2990 002e B047     		blx	r6
 2991              	.LVL439:
 2992              	.LBE62:
 690:Source\azure_iot_sdk\iothub_client\src/iothub_message.c ****         result = IOTHUB_MESSAGE_INVALID_ARG;
 2993              		.loc 1 690 0 is_stmt 1 discriminator 4
 2994 0030 0120     		movs	r0, #1
 2995 0032 22E0     		b	.L202
 2996              	.LVL440:
 2997              	.L201:
 2998              	.LBB63:
 691:Source\azure_iot_sdk\iothub_client\src/iothub_message.c ****     }
 692:Source\azure_iot_sdk\iothub_client\src/iothub_message.c ****     else
 693:Source\azure_iot_sdk\iothub_client\src/iothub_message.c ****     {
 694:Source\azure_iot_sdk\iothub_client\src/iothub_message.c ****         IOTHUB_MESSAGE_HANDLE_DATA* handleData = (IOTHUB_MESSAGE_HANDLE_DATA*)iotHubMessageHandle;
 695:Source\azure_iot_sdk\iothub_client\src/iothub_message.c **** 
 696:Source\azure_iot_sdk\iothub_client\src/iothub_message.c ****         // Codes_SRS_IOTHUBMESSAGE_09_007: [If the IOTHUB_MESSAGE_HANDLE `contentEncoding` is not N
 697:Source\azure_iot_sdk\iothub_client\src/iothub_message.c ****         if (handleData->contentEncoding != NULL)
 2999              		.loc 1 697 0
 3000 0034 8069     		ldr	r0, [r0, #24]
 3001              	.LVL441:
 3002 0036 0028     		cmp	r0, #0
 3003 0038 03D0     		beq	.L203
 698:Source\azure_iot_sdk\iothub_client\src/iothub_message.c ****         {
 699:Source\azure_iot_sdk\iothub_client\src/iothub_message.c ****             free(handleData->contentEncoding);
 3004              		.loc 1 699 0
 3005 003a FFF7FEFF 		bl	free
 3006              	.LVL442:
 700:Source\azure_iot_sdk\iothub_client\src/iothub_message.c ****             handleData->contentEncoding = NULL;
 3007              		.loc 1 700 0
 3008 003e 0023     		movs	r3, #0
 3009 0040 A361     		str	r3, [r4, #24]
ARM GAS  C:\Users\Phuong\AppData\Local\Temp\cc4zbCpa.s 			page 67


 3010              	.L203:
 701:Source\azure_iot_sdk\iothub_client\src/iothub_message.c ****         }
 702:Source\azure_iot_sdk\iothub_client\src/iothub_message.c **** 
 703:Source\azure_iot_sdk\iothub_client\src/iothub_message.c ****         if (mallocAndStrcpy_s(&handleData->contentEncoding, contentEncoding) != 0)
 3011              		.loc 1 703 0
 3012 0042 2000     		movs	r0, r4
 3013 0044 1830     		adds	r0, r0, #24
 3014 0046 2900     		movs	r1, r5
 3015 0048 FFF7FEFF 		bl	mallocAndStrcpy_s
 3016              	.LVL443:
 3017 004c 0028     		cmp	r0, #0
 3018 004e 11D0     		beq	.L205
 3019              	.LBB64:
 704:Source\azure_iot_sdk\iothub_client\src/iothub_message.c ****         {
 705:Source\azure_iot_sdk\iothub_client\src/iothub_message.c ****             LogError("Failed saving a copy of contentEncoding");
 3020              		.loc 1 705 0 discriminator 3
 3021 0050 FFF7FEFF 		bl	xlogging_get_log_function
 3022              	.LVL444:
 3023 0054 041E     		subs	r4, r0, #0
 3024              	.LVL445:
 3025 0056 0FD0     		beq	.L206
 3026              		.loc 1 705 0 is_stmt 0 discriminator 4
 3027 0058 0D4B     		ldr	r3, .L207+16
 3028 005a 0193     		str	r3, [sp, #4]
 3029 005c 0123     		movs	r3, #1
 3030 005e 0093     		str	r3, [sp]
 3031 0060 0C4B     		ldr	r3, .L207+20
 3032 0062 094A     		ldr	r2, .L207+8
 3033 0064 3432     		adds	r2, r2, #52
 3034 0066 0949     		ldr	r1, .L207+12
 3035 0068 0020     		movs	r0, #0
 3036              	.LVL446:
 3037 006a A047     		blx	r4
 3038              	.LVL447:
 3039              	.LBE64:
 706:Source\azure_iot_sdk\iothub_client\src/iothub_message.c ****             // Codes_SRS_IOTHUBMESSAGE_09_008: [If the allocation or the copying of `contentEncodin
 707:Source\azure_iot_sdk\iothub_client\src/iothub_message.c ****             result = IOTHUB_MESSAGE_ERROR;
 3040              		.loc 1 707 0 is_stmt 1 discriminator 4
 3041 006c 0320     		movs	r0, #3
 3042 006e 04E0     		b	.L202
 3043              	.LVL448:
 3044              	.L204:
 3045              	.LBE63:
 690:Source\azure_iot_sdk\iothub_client\src/iothub_message.c ****     }
 3046              		.loc 1 690 0
 3047 0070 0120     		movs	r0, #1
 3048              	.LVL449:
 3049 0072 02E0     		b	.L202
 3050              	.LVL450:
 3051              	.L205:
 3052              	.LBB65:
 708:Source\azure_iot_sdk\iothub_client\src/iothub_message.c ****         }
 709:Source\azure_iot_sdk\iothub_client\src/iothub_message.c ****         else
 710:Source\azure_iot_sdk\iothub_client\src/iothub_message.c ****         {
 711:Source\azure_iot_sdk\iothub_client\src/iothub_message.c ****             // Codes_SRS_IOTHUBMESSAGE_09_009: [If IoTHubMessage_SetContentEncodingSystemProperty f
 712:Source\azure_iot_sdk\iothub_client\src/iothub_message.c ****             result = IOTHUB_MESSAGE_OK;
 3053              		.loc 1 712 0
ARM GAS  C:\Users\Phuong\AppData\Local\Temp\cc4zbCpa.s 			page 68


 3054 0074 0020     		movs	r0, #0
 3055 0076 00E0     		b	.L202
 3056              	.LVL451:
 3057              	.L206:
 707:Source\azure_iot_sdk\iothub_client\src/iothub_message.c ****         }
 3058              		.loc 1 707 0
 3059 0078 0320     		movs	r0, #3
 3060              	.LVL452:
 3061              	.L202:
 3062              	.LBE65:
 713:Source\azure_iot_sdk\iothub_client\src/iothub_message.c ****         }
 714:Source\azure_iot_sdk\iothub_client\src/iothub_message.c ****     }
 715:Source\azure_iot_sdk\iothub_client\src/iothub_message.c **** 
 716:Source\azure_iot_sdk\iothub_client\src/iothub_message.c ****     return result;
 717:Source\azure_iot_sdk\iothub_client\src/iothub_message.c **** }
 3063              		.loc 1 717 0
 3064 007a 04B0     		add	sp, sp, #16
 3065              		@ sp needed
 3066              	.LVL453:
 3067 007c 70BD     		pop	{r4, r5, r6, pc}
 3068              	.L208:
 3069 007e C046     		.align	2
 3070              	.L207:
 3071 0080 44060000 		.word	.LC109
 3072 0084 B1020000 		.word	689
 3073 0088 80010000 		.word	.LANCHOR4
 3074 008c 00000000 		.word	.LC1
 3075 0090 84060000 		.word	.LC111
 3076 0094 C1020000 		.word	705
 3077              		.cfi_endproc
 3078              	.LFE25:
 3079              		.size	IoTHubMessage_SetContentEncodingSystemProperty, .-IoTHubMessage_SetContentEncodingSystemProp
 3080              		.section	.text.IoTHubMessage_GetContentEncodingSystemProperty,"ax",%progbits
 3081              		.align	2
 3082              		.global	IoTHubMessage_GetContentEncodingSystemProperty
 3083              		.code	16
 3084              		.thumb_func
 3085              		.type	IoTHubMessage_GetContentEncodingSystemProperty, %function
 3086              	IoTHubMessage_GetContentEncodingSystemProperty:
 3087              	.LFB26:
 718:Source\azure_iot_sdk\iothub_client\src/iothub_message.c **** 
 719:Source\azure_iot_sdk\iothub_client\src/iothub_message.c **** const char* IoTHubMessage_GetContentEncodingSystemProperty(IOTHUB_MESSAGE_HANDLE iotHubMessageHandl
 720:Source\azure_iot_sdk\iothub_client\src/iothub_message.c **** {
 3088              		.loc 1 720 0
 3089              		.cfi_startproc
 3090              		@ args = 0, pretend = 0, frame = 0
 3091              		@ frame_needed = 0, uses_anonymous_args = 0
 3092              	.LVL454:
 3093 0000 10B5     		push	{r4, lr}
 3094              		.cfi_def_cfa_offset 8
 3095              		.cfi_offset 4, -8
 3096              		.cfi_offset 14, -4
 3097 0002 82B0     		sub	sp, sp, #8
 3098              		.cfi_def_cfa_offset 16
 721:Source\azure_iot_sdk\iothub_client\src/iothub_message.c ****     const char* result;
 722:Source\azure_iot_sdk\iothub_client\src/iothub_message.c **** 
 723:Source\azure_iot_sdk\iothub_client\src/iothub_message.c ****     // Codes_SRS_IOTHUBMESSAGE_09_010: [If any of the parameters are NULL then IoTHubMessage_GetCon
ARM GAS  C:\Users\Phuong\AppData\Local\Temp\cc4zbCpa.s 			page 69


 724:Source\azure_iot_sdk\iothub_client\src/iothub_message.c ****     if (iotHubMessageHandle == NULL)
 3099              		.loc 1 724 0
 3100 0004 0028     		cmp	r0, #0
 3101 0006 0FD1     		bne	.L210
 3102              	.LBB66:
 725:Source\azure_iot_sdk\iothub_client\src/iothub_message.c ****     {
 726:Source\azure_iot_sdk\iothub_client\src/iothub_message.c ****         LogError("Invalid argument (iotHubMessageHandle is NULL)");
 3103              		.loc 1 726 0 discriminator 3
 3104 0008 FFF7FEFF 		bl	xlogging_get_log_function
 3105              	.LVL455:
 3106 000c 041E     		subs	r4, r0, #0
 3107              	.LVL456:
 3108 000e 0DD0     		beq	.L212
 3109              		.loc 1 726 0 is_stmt 0 discriminator 4
 3110 0010 084B     		ldr	r3, .L213
 3111 0012 0193     		str	r3, [sp, #4]
 3112 0014 0123     		movs	r3, #1
 3113 0016 0093     		str	r3, [sp]
 3114 0018 074B     		ldr	r3, .L213+4
 3115 001a 084A     		ldr	r2, .L213+8
 3116 001c 6432     		adds	r2, r2, #100
 3117 001e 0849     		ldr	r1, .L213+12
 3118 0020 0020     		movs	r0, #0
 3119              	.LVL457:
 3120 0022 A047     		blx	r4
 3121              	.LVL458:
 3122              	.LBE66:
 727:Source\azure_iot_sdk\iothub_client\src/iothub_message.c ****         result = NULL;
 3123              		.loc 1 727 0 is_stmt 1 discriminator 4
 3124 0024 0020     		movs	r0, #0
 3125 0026 02E0     		b	.L211
 3126              	.LVL459:
 3127              	.L210:
 3128              	.LBB67:
 728:Source\azure_iot_sdk\iothub_client\src/iothub_message.c ****     }
 729:Source\azure_iot_sdk\iothub_client\src/iothub_message.c ****     else
 730:Source\azure_iot_sdk\iothub_client\src/iothub_message.c ****     {
 731:Source\azure_iot_sdk\iothub_client\src/iothub_message.c ****         IOTHUB_MESSAGE_HANDLE_DATA* handleData = iotHubMessageHandle;
 732:Source\azure_iot_sdk\iothub_client\src/iothub_message.c **** 
 733:Source\azure_iot_sdk\iothub_client\src/iothub_message.c ****         // Codes_SRS_IOTHUBMESSAGE_09_011: [IoTHubMessage_GetContentEncodingSystemProperty shall re
 734:Source\azure_iot_sdk\iothub_client\src/iothub_message.c ****         result = (const char*)handleData->contentEncoding;
 3129              		.loc 1 734 0
 3130 0028 8069     		ldr	r0, [r0, #24]
 3131              	.LVL460:
 3132 002a 00E0     		b	.L211
 3133              	.LVL461:
 3134              	.L212:
 3135              	.LBE67:
 727:Source\azure_iot_sdk\iothub_client\src/iothub_message.c ****         result = NULL;
 3136              		.loc 1 727 0
 3137 002c 0020     		movs	r0, #0
 3138              	.LVL462:
 3139              	.L211:
 735:Source\azure_iot_sdk\iothub_client\src/iothub_message.c ****     }
 736:Source\azure_iot_sdk\iothub_client\src/iothub_message.c **** 
 737:Source\azure_iot_sdk\iothub_client\src/iothub_message.c ****     return result;
 738:Source\azure_iot_sdk\iothub_client\src/iothub_message.c **** }
ARM GAS  C:\Users\Phuong\AppData\Local\Temp\cc4zbCpa.s 			page 70


 3140              		.loc 1 738 0
 3141 002e 02B0     		add	sp, sp, #8
 3142              		@ sp needed
 3143 0030 10BD     		pop	{r4, pc}
 3144              	.L214:
 3145 0032 C046     		.align	2
 3146              	.L213:
 3147 0034 14060000 		.word	.LC105
 3148 0038 D6020000 		.word	726
 3149 003c 80010000 		.word	.LANCHOR4
 3150 0040 00000000 		.word	.LC1
 3151              		.cfi_endproc
 3152              	.LFE26:
 3153              		.size	IoTHubMessage_GetContentEncodingSystemProperty, .-IoTHubMessage_GetContentEncodingSystemProp
 3154              		.section	.text.IoTHubMessage_GetDiagnosticPropertyData,"ax",%progbits
 3155              		.align	2
 3156              		.global	IoTHubMessage_GetDiagnosticPropertyData
 3157              		.code	16
 3158              		.thumb_func
 3159              		.type	IoTHubMessage_GetDiagnosticPropertyData, %function
 3160              	IoTHubMessage_GetDiagnosticPropertyData:
 3161              	.LFB27:
 739:Source\azure_iot_sdk\iothub_client\src/iothub_message.c **** 
 740:Source\azure_iot_sdk\iothub_client\src/iothub_message.c **** const IOTHUB_MESSAGE_DIAGNOSTIC_PROPERTY_DATA* IoTHubMessage_GetDiagnosticPropertyData(IOTHUB_MESSA
 741:Source\azure_iot_sdk\iothub_client\src/iothub_message.c **** {
 3162              		.loc 1 741 0
 3163              		.cfi_startproc
 3164              		@ args = 0, pretend = 0, frame = 0
 3165              		@ frame_needed = 0, uses_anonymous_args = 0
 3166              	.LVL463:
 3167 0000 10B5     		push	{r4, lr}
 3168              		.cfi_def_cfa_offset 8
 3169              		.cfi_offset 4, -8
 3170              		.cfi_offset 14, -4
 3171 0002 82B0     		sub	sp, sp, #8
 3172              		.cfi_def_cfa_offset 16
 742:Source\azure_iot_sdk\iothub_client\src/iothub_message.c ****     const IOTHUB_MESSAGE_DIAGNOSTIC_PROPERTY_DATA* result;
 743:Source\azure_iot_sdk\iothub_client\src/iothub_message.c ****     // Codes_SRS_IOTHUBMESSAGE_10_001: [If any of the parameters are NULL then IoTHubMessage_GetDia
 744:Source\azure_iot_sdk\iothub_client\src/iothub_message.c ****     if (iotHubMessageHandle == NULL)
 3173              		.loc 1 744 0
 3174 0004 0028     		cmp	r0, #0
 3175 0006 0FD1     		bne	.L216
 3176              	.LBB68:
 745:Source\azure_iot_sdk\iothub_client\src/iothub_message.c ****     {
 746:Source\azure_iot_sdk\iothub_client\src/iothub_message.c ****         LogError("Invalid argument (iotHubMessageHandle is NULL)");
 3177              		.loc 1 746 0 discriminator 3
 3178 0008 FFF7FEFF 		bl	xlogging_get_log_function
 3179              	.LVL464:
 3180 000c 041E     		subs	r4, r0, #0
 3181              	.LVL465:
 3182 000e 0DD0     		beq	.L218
 3183              		.loc 1 746 0 is_stmt 0 discriminator 4
 3184 0010 084B     		ldr	r3, .L219
 3185 0012 0193     		str	r3, [sp, #4]
 3186 0014 0123     		movs	r3, #1
 3187 0016 0093     		str	r3, [sp]
 3188 0018 074B     		ldr	r3, .L219+4
ARM GAS  C:\Users\Phuong\AppData\Local\Temp\cc4zbCpa.s 			page 71


 3189 001a 084A     		ldr	r2, .L219+8
 3190 001c 1432     		adds	r2, r2, #20
 3191 001e 0849     		ldr	r1, .L219+12
 3192 0020 0020     		movs	r0, #0
 3193              	.LVL466:
 3194 0022 A047     		blx	r4
 3195              	.LVL467:
 3196              	.LBE68:
 747:Source\azure_iot_sdk\iothub_client\src/iothub_message.c ****         result = NULL;
 3197              		.loc 1 747 0 is_stmt 1 discriminator 4
 3198 0024 0020     		movs	r0, #0
 3199 0026 02E0     		b	.L217
 3200              	.LVL468:
 3201              	.L216:
 748:Source\azure_iot_sdk\iothub_client\src/iothub_message.c ****     }
 749:Source\azure_iot_sdk\iothub_client\src/iothub_message.c ****     else
 750:Source\azure_iot_sdk\iothub_client\src/iothub_message.c ****     {
 751:Source\azure_iot_sdk\iothub_client\src/iothub_message.c ****         /* Codes_SRS_IOTHUBMESSAGE_10_002: [IoTHubMessage_GetDiagnosticPropertyData shall return th
 752:Source\azure_iot_sdk\iothub_client\src/iothub_message.c ****         result = iotHubMessageHandle->diagnosticData;
 3202              		.loc 1 752 0
 3203 0028 C06A     		ldr	r0, [r0, #44]
 3204              	.LVL469:
 3205 002a 00E0     		b	.L217
 3206              	.LVL470:
 3207              	.L218:
 747:Source\azure_iot_sdk\iothub_client\src/iothub_message.c ****         result = NULL;
 3208              		.loc 1 747 0
 3209 002c 0020     		movs	r0, #0
 3210              	.LVL471:
 3211              	.L217:
 753:Source\azure_iot_sdk\iothub_client\src/iothub_message.c ****     }
 754:Source\azure_iot_sdk\iothub_client\src/iothub_message.c ****     return result;
 755:Source\azure_iot_sdk\iothub_client\src/iothub_message.c **** }
 3212              		.loc 1 755 0
 3213 002e 02B0     		add	sp, sp, #8
 3214              		@ sp needed
 3215 0030 10BD     		pop	{r4, pc}
 3216              	.L220:
 3217 0032 C046     		.align	2
 3218              	.L219:
 3219 0034 14060000 		.word	.LC105
 3220 0038 EA020000 		.word	746
 3221 003c 00020000 		.word	.LANCHOR5
 3222 0040 00000000 		.word	.LC1
 3223              		.cfi_endproc
 3224              	.LFE27:
 3225              		.size	IoTHubMessage_GetDiagnosticPropertyData, .-IoTHubMessage_GetDiagnosticPropertyData
 3226              		.section	.text.IoTHubMessage_SetDiagnosticPropertyData,"ax",%progbits
 3227              		.align	2
 3228              		.global	IoTHubMessage_SetDiagnosticPropertyData
 3229              		.code	16
 3230              		.thumb_func
 3231              		.type	IoTHubMessage_SetDiagnosticPropertyData, %function
 3232              	IoTHubMessage_SetDiagnosticPropertyData:
 3233              	.LFB28:
 756:Source\azure_iot_sdk\iothub_client\src/iothub_message.c **** 
 757:Source\azure_iot_sdk\iothub_client\src/iothub_message.c **** IOTHUB_MESSAGE_RESULT IoTHubMessage_SetDiagnosticPropertyData(IOTHUB_MESSAGE_HANDLE iotHubMessageHa
ARM GAS  C:\Users\Phuong\AppData\Local\Temp\cc4zbCpa.s 			page 72


 758:Source\azure_iot_sdk\iothub_client\src/iothub_message.c **** {
 3234              		.loc 1 758 0
 3235              		.cfi_startproc
 3236              		@ args = 0, pretend = 0, frame = 0
 3237              		@ frame_needed = 0, uses_anonymous_args = 0
 3238              	.LVL472:
 3239 0000 70B5     		push	{r4, r5, r6, lr}
 3240              		.cfi_def_cfa_offset 16
 3241              		.cfi_offset 4, -16
 3242              		.cfi_offset 5, -12
 3243              		.cfi_offset 6, -8
 3244              		.cfi_offset 14, -4
 3245 0002 86B0     		sub	sp, sp, #24
 3246              		.cfi_def_cfa_offset 40
 3247 0004 0500     		movs	r5, r0
 3248 0006 0C00     		movs	r4, r1
 759:Source\azure_iot_sdk\iothub_client\src/iothub_message.c ****     IOTHUB_MESSAGE_RESULT result;
 760:Source\azure_iot_sdk\iothub_client\src/iothub_message.c ****     // Codes_SRS_IOTHUBMESSAGE_10_003: [If any of the parameters are NULL then IoTHubMessage_SetDia
 761:Source\azure_iot_sdk\iothub_client\src/iothub_message.c ****     if (iotHubMessageHandle == NULL ||
 3249              		.loc 1 761 0
 3250 0008 0028     		cmp	r0, #0
 3251 000a 07D0     		beq	.L222
 3252              		.loc 1 761 0 is_stmt 0 discriminator 1
 3253 000c 0029     		cmp	r1, #0
 3254 000e 05D0     		beq	.L222
 762:Source\azure_iot_sdk\iothub_client\src/iothub_message.c ****         diagnosticData == NULL ||
 3255              		.loc 1 762 0 is_stmt 1
 3256 0010 4B68     		ldr	r3, [r1, #4]
 3257 0012 002B     		cmp	r3, #0
 3258 0014 02D0     		beq	.L222
 763:Source\azure_iot_sdk\iothub_client\src/iothub_message.c ****         diagnosticData->diagnosticCreationTimeUtc == NULL ||
 3259              		.loc 1 763 0
 3260 0016 0B68     		ldr	r3, [r1]
 3261 0018 002B     		cmp	r3, #0
 3262 001a 1DD1     		bne	.L223
 3263              	.L222:
 3264              	.LBB69:
 764:Source\azure_iot_sdk\iothub_client\src/iothub_message.c ****         diagnosticData->diagnosticId == NULL)
 765:Source\azure_iot_sdk\iothub_client\src/iothub_message.c ****     {
 766:Source\azure_iot_sdk\iothub_client\src/iothub_message.c ****         LogError("Invalid argument (iotHubMessageHandle=%p, diagnosticData=%p, diagnosticData->diag
 3265              		.loc 1 766 0 discriminator 11
 3266 001c FFF7FEFF 		bl	xlogging_get_log_function
 3267              	.LVL473:
 3268 0020 061E     		subs	r6, r0, #0
 3269              	.LVL474:
 3270 0022 37D0     		beq	.L228
 3271              		.loc 1 766 0 is_stmt 0 discriminator 12
 3272 0024 002C     		cmp	r4, #0
 3273 0026 01D0     		beq	.L229
 3274              		.loc 1 766 0 discriminator 14
 3275 0028 2368     		ldr	r3, [r4]
 3276 002a 00E0     		b	.L225
 3277              	.L229:
 3278              		.loc 1 766 0
 3279 002c 0023     		movs	r3, #0
 3280              	.L225:
 3281              		.loc 1 766 0 discriminator 17
ARM GAS  C:\Users\Phuong\AppData\Local\Temp\cc4zbCpa.s 			page 73


 3282 002e 002C     		cmp	r4, #0
 3283 0030 01D0     		beq	.L230
 3284              		.loc 1 766 0 discriminator 18
 3285 0032 6268     		ldr	r2, [r4, #4]
 3286 0034 00E0     		b	.L226
 3287              	.L230:
 3288              		.loc 1 766 0
 3289 0036 0022     		movs	r2, #0
 3290              	.L226:
 3291              		.loc 1 766 0 discriminator 21
 3292 0038 0592     		str	r2, [sp, #20]
 3293 003a 0493     		str	r3, [sp, #16]
 3294 003c 0394     		str	r4, [sp, #12]
 3295 003e 0295     		str	r5, [sp, #8]
 3296 0040 184B     		ldr	r3, .L233
 3297 0042 0193     		str	r3, [sp, #4]
 3298 0044 0123     		movs	r3, #1
 3299 0046 0093     		str	r3, [sp]
 3300 0048 174B     		ldr	r3, .L233+4
 3301 004a 184A     		ldr	r2, .L233+8
 3302 004c 3C32     		adds	r2, r2, #60
 3303 004e 1849     		ldr	r1, .L233+12
 3304 0050 0020     		movs	r0, #0
 3305              	.LVL475:
 3306 0052 B047     		blx	r6
 3307              	.LVL476:
 3308              	.LBE69:
 767:Source\azure_iot_sdk\iothub_client\src/iothub_message.c ****             iotHubMessageHandle, diagnosticData,
 768:Source\azure_iot_sdk\iothub_client\src/iothub_message.c ****             diagnosticData == NULL ? NULL : diagnosticData->diagnosticId,
 769:Source\azure_iot_sdk\iothub_client\src/iothub_message.c ****             diagnosticData == NULL ? NULL : diagnosticData->diagnosticCreationTimeUtc);
 770:Source\azure_iot_sdk\iothub_client\src/iothub_message.c ****         result = IOTHUB_MESSAGE_INVALID_ARG;
 3309              		.loc 1 770 0 is_stmt 1 discriminator 21
 3310 0054 0120     		movs	r0, #1
 3311 0056 22E0     		b	.L224
 3312              	.LVL477:
 3313              	.L223:
 771:Source\azure_iot_sdk\iothub_client\src/iothub_message.c ****     }
 772:Source\azure_iot_sdk\iothub_client\src/iothub_message.c ****     else
 773:Source\azure_iot_sdk\iothub_client\src/iothub_message.c ****     {
 774:Source\azure_iot_sdk\iothub_client\src/iothub_message.c ****         // Codes_SRS_IOTHUBMESSAGE_10_004: [If the IOTHUB_MESSAGE_HANDLE `diagnosticData` is not NU
 775:Source\azure_iot_sdk\iothub_client\src/iothub_message.c ****         if (iotHubMessageHandle->diagnosticData != NULL)
 3314              		.loc 1 775 0
 3315 0058 C06A     		ldr	r0, [r0, #44]
 3316              	.LVL478:
 3317 005a 0028     		cmp	r0, #0
 3318 005c 03D0     		beq	.L227
 776:Source\azure_iot_sdk\iothub_client\src/iothub_message.c ****         {
 777:Source\azure_iot_sdk\iothub_client\src/iothub_message.c ****             DestroyDiagnosticPropertyData(iotHubMessageHandle->diagnosticData);
 3319              		.loc 1 777 0
 3320 005e FFF7FEFF 		bl	DestroyDiagnosticPropertyData
 3321              	.LVL479:
 778:Source\azure_iot_sdk\iothub_client\src/iothub_message.c ****             iotHubMessageHandle->diagnosticData = NULL;
 3322              		.loc 1 778 0
 3323 0062 0023     		movs	r3, #0
 3324 0064 EB62     		str	r3, [r5, #44]
 3325              	.L227:
 779:Source\azure_iot_sdk\iothub_client\src/iothub_message.c ****         }
ARM GAS  C:\Users\Phuong\AppData\Local\Temp\cc4zbCpa.s 			page 74


 780:Source\azure_iot_sdk\iothub_client\src/iothub_message.c **** 
 781:Source\azure_iot_sdk\iothub_client\src/iothub_message.c ****         // Codes_SRS_IOTHUBMESSAGE_10_005: [If the allocation or the copying of `diagnosticData` fa
 782:Source\azure_iot_sdk\iothub_client\src/iothub_message.c ****         if ((iotHubMessageHandle->diagnosticData = CloneDiagnosticPropertyData(diagnosticData)) == 
 3326              		.loc 1 782 0
 3327 0066 2000     		movs	r0, r4
 3328 0068 FFF7FEFF 		bl	CloneDiagnosticPropertyData
 3329              	.LVL480:
 3330 006c E862     		str	r0, [r5, #44]
 3331 006e 0028     		cmp	r0, #0
 3332 0070 12D1     		bne	.L231
 3333              	.LBB70:
 783:Source\azure_iot_sdk\iothub_client\src/iothub_message.c ****         {
 784:Source\azure_iot_sdk\iothub_client\src/iothub_message.c ****             LogError("Failed saving a copy of diagnosticData");
 3334              		.loc 1 784 0 discriminator 3
 3335 0072 FFF7FEFF 		bl	xlogging_get_log_function
 3336              	.LVL481:
 3337 0076 041E     		subs	r4, r0, #0
 3338              	.LVL482:
 3339 0078 10D0     		beq	.L232
 3340              		.loc 1 784 0 is_stmt 0 discriminator 4
 3341 007a 0E4B     		ldr	r3, .L233+16
 3342 007c 0193     		str	r3, [sp, #4]
 3343 007e 0123     		movs	r3, #1
 3344 0080 0093     		str	r3, [sp]
 3345 0082 C423     		movs	r3, #196
 3346 0084 9B00     		lsls	r3, r3, #2
 3347 0086 094A     		ldr	r2, .L233+8
 3348 0088 3C32     		adds	r2, r2, #60
 3349 008a 0949     		ldr	r1, .L233+12
 3350 008c 0020     		movs	r0, #0
 3351              	.LVL483:
 3352 008e A047     		blx	r4
 3353              	.LVL484:
 3354              	.LBE70:
 785:Source\azure_iot_sdk\iothub_client\src/iothub_message.c ****             result = IOTHUB_MESSAGE_ERROR;
 3355              		.loc 1 785 0 is_stmt 1 discriminator 4
 3356 0090 0320     		movs	r0, #3
 3357 0092 04E0     		b	.L224
 3358              	.LVL485:
 3359              	.L228:
 770:Source\azure_iot_sdk\iothub_client\src/iothub_message.c ****     }
 3360              		.loc 1 770 0
 3361 0094 0120     		movs	r0, #1
 3362              	.LVL486:
 3363 0096 02E0     		b	.L224
 3364              	.LVL487:
 3365              	.L231:
 786:Source\azure_iot_sdk\iothub_client\src/iothub_message.c ****         }
 787:Source\azure_iot_sdk\iothub_client\src/iothub_message.c ****         else
 788:Source\azure_iot_sdk\iothub_client\src/iothub_message.c ****         {
 789:Source\azure_iot_sdk\iothub_client\src/iothub_message.c ****             // Codes_SRS_IOTHUBMESSAGE_10_006: [If IoTHubMessage_SetDiagnosticPropertyData finishes
 790:Source\azure_iot_sdk\iothub_client\src/iothub_message.c ****             result = IOTHUB_MESSAGE_OK;
 3366              		.loc 1 790 0
 3367 0098 0020     		movs	r0, #0
 3368 009a 00E0     		b	.L224
 3369              	.LVL488:
 3370              	.L232:
ARM GAS  C:\Users\Phuong\AppData\Local\Temp\cc4zbCpa.s 			page 75


 785:Source\azure_iot_sdk\iothub_client\src/iothub_message.c ****         }
 3371              		.loc 1 785 0
 3372 009c 0320     		movs	r0, #3
 3373              	.LVL489:
 3374              	.L224:
 791:Source\azure_iot_sdk\iothub_client\src/iothub_message.c ****         }
 792:Source\azure_iot_sdk\iothub_client\src/iothub_message.c ****     }
 793:Source\azure_iot_sdk\iothub_client\src/iothub_message.c ****     return result;
 794:Source\azure_iot_sdk\iothub_client\src/iothub_message.c **** }
 3375              		.loc 1 794 0
 3376 009e 06B0     		add	sp, sp, #24
 3377              		@ sp needed
 3378              	.LVL490:
 3379 00a0 70BD     		pop	{r4, r5, r6, pc}
 3380              	.L234:
 3381 00a2 C046     		.align	2
 3382              	.L233:
 3383 00a4 AC060000 		.word	.LC121
 3384 00a8 01030000 		.word	769
 3385 00ac 00020000 		.word	.LANCHOR5
 3386 00b0 00000000 		.word	.LC1
 3387 00b4 38070000 		.word	.LC123
 3388              		.cfi_endproc
 3389              	.LFE28:
 3390              		.size	IoTHubMessage_SetDiagnosticPropertyData, .-IoTHubMessage_SetDiagnosticPropertyData
 3391              		.section	.text.IoTHubMessage_GetOutputName,"ax",%progbits
 3392              		.align	2
 3393              		.global	IoTHubMessage_GetOutputName
 3394              		.code	16
 3395              		.thumb_func
 3396              		.type	IoTHubMessage_GetOutputName, %function
 3397              	IoTHubMessage_GetOutputName:
 3398              	.LFB29:
 795:Source\azure_iot_sdk\iothub_client\src/iothub_message.c **** 
 796:Source\azure_iot_sdk\iothub_client\src/iothub_message.c **** 
 797:Source\azure_iot_sdk\iothub_client\src/iothub_message.c **** const char* IoTHubMessage_GetOutputName(IOTHUB_MESSAGE_HANDLE iotHubMessageHandle)
 798:Source\azure_iot_sdk\iothub_client\src/iothub_message.c **** {
 3399              		.loc 1 798 0
 3400              		.cfi_startproc
 3401              		@ args = 0, pretend = 0, frame = 0
 3402              		@ frame_needed = 0, uses_anonymous_args = 0
 3403              	.LVL491:
 3404 0000 10B5     		push	{r4, lr}
 3405              		.cfi_def_cfa_offset 8
 3406              		.cfi_offset 4, -8
 3407              		.cfi_offset 14, -4
 3408 0002 82B0     		sub	sp, sp, #8
 3409              		.cfi_def_cfa_offset 16
 799:Source\azure_iot_sdk\iothub_client\src/iothub_message.c ****     const char* result;
 800:Source\azure_iot_sdk\iothub_client\src/iothub_message.c ****     // Codes_SRS_IOTHUBMESSAGE_31_034: [If the iotHubMessageHandle parameter is NULL then IoTHubMes
 801:Source\azure_iot_sdk\iothub_client\src/iothub_message.c ****     if (iotHubMessageHandle == NULL)
 3410              		.loc 1 801 0
 3411 0004 0028     		cmp	r0, #0
 3412 0006 0FD1     		bne	.L236
 3413              	.LBB71:
 802:Source\azure_iot_sdk\iothub_client\src/iothub_message.c ****     {
 803:Source\azure_iot_sdk\iothub_client\src/iothub_message.c ****         LogError("Invalid argument (iotHubMessageHandle is NULL)");
ARM GAS  C:\Users\Phuong\AppData\Local\Temp\cc4zbCpa.s 			page 76


 3414              		.loc 1 803 0 discriminator 3
 3415 0008 FFF7FEFF 		bl	xlogging_get_log_function
 3416              	.LVL492:
 3417 000c 041E     		subs	r4, r0, #0
 3418              	.LVL493:
 3419 000e 0DD0     		beq	.L238
 3420              		.loc 1 803 0 is_stmt 0 discriminator 4
 3421 0010 084B     		ldr	r3, .L239
 3422 0012 0193     		str	r3, [sp, #4]
 3423 0014 0123     		movs	r3, #1
 3424 0016 0093     		str	r3, [sp]
 3425 0018 074B     		ldr	r3, .L239+4
 3426 001a 084A     		ldr	r2, .L239+8
 3427 001c 6432     		adds	r2, r2, #100
 3428 001e 0849     		ldr	r1, .L239+12
 3429 0020 0020     		movs	r0, #0
 3430              	.LVL494:
 3431 0022 A047     		blx	r4
 3432              	.LVL495:
 3433              	.LBE71:
 804:Source\azure_iot_sdk\iothub_client\src/iothub_message.c ****         result = NULL;
 3434              		.loc 1 804 0 is_stmt 1 discriminator 4
 3435 0024 0020     		movs	r0, #0
 3436 0026 02E0     		b	.L237
 3437              	.LVL496:
 3438              	.L236:
 805:Source\azure_iot_sdk\iothub_client\src/iothub_message.c ****     }
 806:Source\azure_iot_sdk\iothub_client\src/iothub_message.c ****     else
 807:Source\azure_iot_sdk\iothub_client\src/iothub_message.c ****     {
 808:Source\azure_iot_sdk\iothub_client\src/iothub_message.c ****         // Codes_SRS_IOTHUBMESSAGE_31_035: [IoTHubMessage_GetOutputName shall return the OutputName
 809:Source\azure_iot_sdk\iothub_client\src/iothub_message.c ****         result = iotHubMessageHandle->outputName;
 3439              		.loc 1 809 0
 3440 0028 C069     		ldr	r0, [r0, #28]
 3441              	.LVL497:
 3442 002a 00E0     		b	.L237
 3443              	.LVL498:
 3444              	.L238:
 804:Source\azure_iot_sdk\iothub_client\src/iothub_message.c ****         result = NULL;
 3445              		.loc 1 804 0
 3446 002c 0020     		movs	r0, #0
 3447              	.LVL499:
 3448              	.L237:
 810:Source\azure_iot_sdk\iothub_client\src/iothub_message.c ****     }
 811:Source\azure_iot_sdk\iothub_client\src/iothub_message.c ****     return result;
 812:Source\azure_iot_sdk\iothub_client\src/iothub_message.c **** }
 3449              		.loc 1 812 0
 3450 002e 02B0     		add	sp, sp, #8
 3451              		@ sp needed
 3452 0030 10BD     		pop	{r4, pc}
 3453              	.L240:
 3454 0032 C046     		.align	2
 3455              	.L239:
 3456 0034 14060000 		.word	.LC105
 3457 0038 23030000 		.word	803
 3458 003c 00020000 		.word	.LANCHOR5
 3459 0040 00000000 		.word	.LC1
 3460              		.cfi_endproc
ARM GAS  C:\Users\Phuong\AppData\Local\Temp\cc4zbCpa.s 			page 77


 3461              	.LFE29:
 3462              		.size	IoTHubMessage_GetOutputName, .-IoTHubMessage_GetOutputName
 3463              		.section	.text.IoTHubMessage_SetOutputName,"ax",%progbits
 3464              		.align	2
 3465              		.global	IoTHubMessage_SetOutputName
 3466              		.code	16
 3467              		.thumb_func
 3468              		.type	IoTHubMessage_SetOutputName, %function
 3469              	IoTHubMessage_SetOutputName:
 3470              	.LFB30:
 813:Source\azure_iot_sdk\iothub_client\src/iothub_message.c **** 
 814:Source\azure_iot_sdk\iothub_client\src/iothub_message.c **** IOTHUB_MESSAGE_RESULT IoTHubMessage_SetOutputName(IOTHUB_MESSAGE_HANDLE iotHubMessageHandle, const 
 815:Source\azure_iot_sdk\iothub_client\src/iothub_message.c **** {
 3471              		.loc 1 815 0
 3472              		.cfi_startproc
 3473              		@ args = 0, pretend = 0, frame = 0
 3474              		@ frame_needed = 0, uses_anonymous_args = 0
 3475              	.LVL500:
 3476 0000 70B5     		push	{r4, r5, r6, lr}
 3477              		.cfi_def_cfa_offset 16
 3478              		.cfi_offset 4, -16
 3479              		.cfi_offset 5, -12
 3480              		.cfi_offset 6, -8
 3481              		.cfi_offset 14, -4
 3482 0002 84B0     		sub	sp, sp, #16
 3483              		.cfi_def_cfa_offset 32
 3484 0004 0400     		movs	r4, r0
 3485 0006 0D00     		movs	r5, r1
 816:Source\azure_iot_sdk\iothub_client\src/iothub_message.c ****     IOTHUB_MESSAGE_RESULT result;
 817:Source\azure_iot_sdk\iothub_client\src/iothub_message.c **** 
 818:Source\azure_iot_sdk\iothub_client\src/iothub_message.c ****     // Codes_SRS_IOTHUBMESSAGE_31_036: [If any of the parameters are NULL then IoTHubMessage_SetOut
 819:Source\azure_iot_sdk\iothub_client\src/iothub_message.c ****     if ((iotHubMessageHandle == NULL) || (outputName == NULL))
 3486              		.loc 1 819 0
 3487 0008 0028     		cmp	r0, #0
 3488 000a 01D0     		beq	.L242
 3489              		.loc 1 819 0 is_stmt 0 discriminator 1
 3490 000c 0029     		cmp	r1, #0
 3491 000e 10D1     		bne	.L243
 3492              	.L242:
 3493              	.LBB72:
 820:Source\azure_iot_sdk\iothub_client\src/iothub_message.c ****     {
 821:Source\azure_iot_sdk\iothub_client\src/iothub_message.c ****         LogError("Invalid argument (iotHubMessageHandle=%p, outputName=%p)", iotHubMessageHandle, o
 3494              		.loc 1 821 0 is_stmt 1 discriminator 3
 3495 0010 FFF7FEFF 		bl	xlogging_get_log_function
 3496              	.LVL501:
 3497 0014 061E     		subs	r6, r0, #0
 3498              	.LVL502:
 3499 0016 29D0     		beq	.L246
 3500              		.loc 1 821 0 is_stmt 0 discriminator 4
 3501 0018 0395     		str	r5, [sp, #12]
 3502 001a 0294     		str	r4, [sp, #8]
 3503 001c 174B     		ldr	r3, .L249
 3504 001e 0193     		str	r3, [sp, #4]
 3505 0020 0123     		movs	r3, #1
 3506 0022 0093     		str	r3, [sp]
 3507 0024 164B     		ldr	r3, .L249+4
 3508 0026 174A     		ldr	r2, .L249+8
ARM GAS  C:\Users\Phuong\AppData\Local\Temp\cc4zbCpa.s 			page 78


 3509 0028 1749     		ldr	r1, .L249+12
 3510 002a 0020     		movs	r0, #0
 3511              	.LVL503:
 3512 002c B047     		blx	r6
 3513              	.LVL504:
 3514              	.LBE72:
 822:Source\azure_iot_sdk\iothub_client\src/iothub_message.c ****         result = IOTHUB_MESSAGE_INVALID_ARG;
 3515              		.loc 1 822 0 is_stmt 1 discriminator 4
 3516 002e 0120     		movs	r0, #1
 3517 0030 21E0     		b	.L244
 3518              	.LVL505:
 3519              	.L243:
 3520              	.LBB73:
 823:Source\azure_iot_sdk\iothub_client\src/iothub_message.c ****     }
 824:Source\azure_iot_sdk\iothub_client\src/iothub_message.c ****     else
 825:Source\azure_iot_sdk\iothub_client\src/iothub_message.c ****     {
 826:Source\azure_iot_sdk\iothub_client\src/iothub_message.c ****         IOTHUB_MESSAGE_HANDLE_DATA* handleData = (IOTHUB_MESSAGE_HANDLE_DATA*)iotHubMessageHandle;
 827:Source\azure_iot_sdk\iothub_client\src/iothub_message.c **** 
 828:Source\azure_iot_sdk\iothub_client\src/iothub_message.c ****         // Codes_SRS_IOTHUBMESSAGE_31_037: [If the IOTHUB_MESSAGE_HANDLE OutputName is not NULL, th
 829:Source\azure_iot_sdk\iothub_client\src/iothub_message.c ****         if (handleData->outputName != NULL)
 3521              		.loc 1 829 0
 3522 0032 C069     		ldr	r0, [r0, #28]
 3523              	.LVL506:
 3524 0034 0028     		cmp	r0, #0
 3525 0036 03D0     		beq	.L245
 830:Source\azure_iot_sdk\iothub_client\src/iothub_message.c ****         {
 831:Source\azure_iot_sdk\iothub_client\src/iothub_message.c ****             free(handleData->outputName);
 3526              		.loc 1 831 0
 3527 0038 FFF7FEFF 		bl	free
 3528              	.LVL507:
 832:Source\azure_iot_sdk\iothub_client\src/iothub_message.c ****             handleData->outputName = NULL;
 3529              		.loc 1 832 0
 3530 003c 0023     		movs	r3, #0
 3531 003e E361     		str	r3, [r4, #28]
 3532              	.L245:
 833:Source\azure_iot_sdk\iothub_client\src/iothub_message.c ****         }
 834:Source\azure_iot_sdk\iothub_client\src/iothub_message.c **** 
 835:Source\azure_iot_sdk\iothub_client\src/iothub_message.c ****         if (mallocAndStrcpy_s(&handleData->outputName, outputName) != 0)
 3533              		.loc 1 835 0
 3534 0040 2000     		movs	r0, r4
 3535 0042 1C30     		adds	r0, r0, #28
 3536 0044 2900     		movs	r1, r5
 3537 0046 FFF7FEFF 		bl	mallocAndStrcpy_s
 3538              	.LVL508:
 3539 004a 0028     		cmp	r0, #0
 3540 004c 10D0     		beq	.L247
 3541              	.LBB74:
 836:Source\azure_iot_sdk\iothub_client\src/iothub_message.c ****         {
 837:Source\azure_iot_sdk\iothub_client\src/iothub_message.c ****             // Codes_SRS_IOTHUBMESSAGE_31_038: [If the allocation or the copying of the OutputName 
 838:Source\azure_iot_sdk\iothub_client\src/iothub_message.c ****             LogError("Failed saving a copy of outputName");
 3542              		.loc 1 838 0 discriminator 3
 3543 004e FFF7FEFF 		bl	xlogging_get_log_function
 3544              	.LVL509:
 3545 0052 041E     		subs	r4, r0, #0
 3546              	.LVL510:
 3547 0054 0ED0     		beq	.L248
 3548              		.loc 1 838 0 is_stmt 0 discriminator 4
ARM GAS  C:\Users\Phuong\AppData\Local\Temp\cc4zbCpa.s 			page 79


 3549 0056 0D4B     		ldr	r3, .L249+16
 3550 0058 0193     		str	r3, [sp, #4]
 3551 005a 0123     		movs	r3, #1
 3552 005c 0093     		str	r3, [sp]
 3553 005e 0C4B     		ldr	r3, .L249+20
 3554 0060 084A     		ldr	r2, .L249+8
 3555 0062 0949     		ldr	r1, .L249+12
 3556 0064 0020     		movs	r0, #0
 3557              	.LVL511:
 3558 0066 A047     		blx	r4
 3559              	.LVL512:
 3560              	.LBE74:
 839:Source\azure_iot_sdk\iothub_client\src/iothub_message.c ****             result = IOTHUB_MESSAGE_ERROR;
 3561              		.loc 1 839 0 is_stmt 1 discriminator 4
 3562 0068 0320     		movs	r0, #3
 3563 006a 04E0     		b	.L244
 3564              	.LVL513:
 3565              	.L246:
 3566              	.LBE73:
 822:Source\azure_iot_sdk\iothub_client\src/iothub_message.c ****     }
 3567              		.loc 1 822 0
 3568 006c 0120     		movs	r0, #1
 3569              	.LVL514:
 3570 006e 02E0     		b	.L244
 3571              	.LVL515:
 3572              	.L247:
 3573              	.LBB75:
 840:Source\azure_iot_sdk\iothub_client\src/iothub_message.c ****         }
 841:Source\azure_iot_sdk\iothub_client\src/iothub_message.c ****         else
 842:Source\azure_iot_sdk\iothub_client\src/iothub_message.c ****         {
 843:Source\azure_iot_sdk\iothub_client\src/iothub_message.c ****             // Codes_SRS_IOTHUBMESSAGE_31_039: [IoTHubMessage_SetOutputName finishes successfully i
 844:Source\azure_iot_sdk\iothub_client\src/iothub_message.c ****             result = IOTHUB_MESSAGE_OK;
 3574              		.loc 1 844 0
 3575 0070 0020     		movs	r0, #0
 3576 0072 00E0     		b	.L244
 3577              	.LVL516:
 3578              	.L248:
 839:Source\azure_iot_sdk\iothub_client\src/iothub_message.c ****         }
 3579              		.loc 1 839 0
 3580 0074 0320     		movs	r0, #3
 3581              	.LVL517:
 3582              	.L244:
 3583              	.LBE75:
 845:Source\azure_iot_sdk\iothub_client\src/iothub_message.c ****         }
 846:Source\azure_iot_sdk\iothub_client\src/iothub_message.c **** 
 847:Source\azure_iot_sdk\iothub_client\src/iothub_message.c ****     }
 848:Source\azure_iot_sdk\iothub_client\src/iothub_message.c **** 
 849:Source\azure_iot_sdk\iothub_client\src/iothub_message.c ****     return result;
 850:Source\azure_iot_sdk\iothub_client\src/iothub_message.c **** }
 3584              		.loc 1 850 0
 3585 0076 04B0     		add	sp, sp, #16
 3586              		@ sp needed
 3587              	.LVL518:
 3588 0078 70BD     		pop	{r4, r5, r6, pc}
 3589              	.L250:
 3590 007a C046     		.align	2
 3591              	.L249:
ARM GAS  C:\Users\Phuong\AppData\Local\Temp\cc4zbCpa.s 			page 80


 3592 007c 60070000 		.word	.LC130
 3593 0080 35030000 		.word	821
 3594 0084 80020000 		.word	.LANCHOR6
 3595 0088 00000000 		.word	.LC1
 3596 008c 9C070000 		.word	.LC132
 3597 0090 46030000 		.word	838
 3598              		.cfi_endproc
 3599              	.LFE30:
 3600              		.size	IoTHubMessage_SetOutputName, .-IoTHubMessage_SetOutputName
 3601              		.section	.text.IoTHubMessage_GetInputName,"ax",%progbits
 3602              		.align	2
 3603              		.global	IoTHubMessage_GetInputName
 3604              		.code	16
 3605              		.thumb_func
 3606              		.type	IoTHubMessage_GetInputName, %function
 3607              	IoTHubMessage_GetInputName:
 3608              	.LFB31:
 851:Source\azure_iot_sdk\iothub_client\src/iothub_message.c **** 
 852:Source\azure_iot_sdk\iothub_client\src/iothub_message.c **** const char* IoTHubMessage_GetInputName(IOTHUB_MESSAGE_HANDLE iotHubMessageHandle)
 853:Source\azure_iot_sdk\iothub_client\src/iothub_message.c **** {
 3609              		.loc 1 853 0
 3610              		.cfi_startproc
 3611              		@ args = 0, pretend = 0, frame = 0
 3612              		@ frame_needed = 0, uses_anonymous_args = 0
 3613              	.LVL519:
 3614 0000 10B5     		push	{r4, lr}
 3615              		.cfi_def_cfa_offset 8
 3616              		.cfi_offset 4, -8
 3617              		.cfi_offset 14, -4
 3618 0002 82B0     		sub	sp, sp, #8
 3619              		.cfi_def_cfa_offset 16
 854:Source\azure_iot_sdk\iothub_client\src/iothub_message.c ****     const char* result;
 855:Source\azure_iot_sdk\iothub_client\src/iothub_message.c ****     // Codes_SRS_IOTHUBMESSAGE_31_040: [if the iotHubMessageHandle parameter is NULL then IoTHubMes
 856:Source\azure_iot_sdk\iothub_client\src/iothub_message.c ****     if (iotHubMessageHandle == NULL)
 3620              		.loc 1 856 0
 3621 0004 0028     		cmp	r0, #0
 3622 0006 0FD1     		bne	.L252
 3623              	.LBB76:
 857:Source\azure_iot_sdk\iothub_client\src/iothub_message.c ****     {
 858:Source\azure_iot_sdk\iothub_client\src/iothub_message.c ****         LogError("Invalid argument (iotHubMessageHandle is NULL)");
 3624              		.loc 1 858 0 discriminator 3
 3625 0008 FFF7FEFF 		bl	xlogging_get_log_function
 3626              	.LVL520:
 3627 000c 041E     		subs	r4, r0, #0
 3628              	.LVL521:
 3629 000e 0DD0     		beq	.L254
 3630              		.loc 1 858 0 is_stmt 0 discriminator 4
 3631 0010 084B     		ldr	r3, .L255
 3632 0012 0193     		str	r3, [sp, #4]
 3633 0014 0123     		movs	r3, #1
 3634 0016 0093     		str	r3, [sp]
 3635 0018 074B     		ldr	r3, .L255+4
 3636 001a 084A     		ldr	r2, .L255+8
 3637 001c 1C32     		adds	r2, r2, #28
 3638 001e 0849     		ldr	r1, .L255+12
 3639 0020 0020     		movs	r0, #0
 3640              	.LVL522:
ARM GAS  C:\Users\Phuong\AppData\Local\Temp\cc4zbCpa.s 			page 81


 3641 0022 A047     		blx	r4
 3642              	.LVL523:
 3643              	.LBE76:
 859:Source\azure_iot_sdk\iothub_client\src/iothub_message.c ****         result = NULL;
 3644              		.loc 1 859 0 is_stmt 1 discriminator 4
 3645 0024 0020     		movs	r0, #0
 3646 0026 02E0     		b	.L253
 3647              	.LVL524:
 3648              	.L252:
 860:Source\azure_iot_sdk\iothub_client\src/iothub_message.c ****     }
 861:Source\azure_iot_sdk\iothub_client\src/iothub_message.c ****     else
 862:Source\azure_iot_sdk\iothub_client\src/iothub_message.c ****     {
 863:Source\azure_iot_sdk\iothub_client\src/iothub_message.c ****         // Codes_SRS_IOTHUBMESSAGE_31_041: [IoTHubMessage_GetInputName shall return the InputName a
 864:Source\azure_iot_sdk\iothub_client\src/iothub_message.c ****         result = iotHubMessageHandle->inputName;
 3649              		.loc 1 864 0
 3650 0028 006A     		ldr	r0, [r0, #32]
 3651              	.LVL525:
 3652 002a 00E0     		b	.L253
 3653              	.LVL526:
 3654              	.L254:
 859:Source\azure_iot_sdk\iothub_client\src/iothub_message.c ****         result = NULL;
 3655              		.loc 1 859 0
 3656 002c 0020     		movs	r0, #0
 3657              	.LVL527:
 3658              	.L253:
 865:Source\azure_iot_sdk\iothub_client\src/iothub_message.c ****     }
 866:Source\azure_iot_sdk\iothub_client\src/iothub_message.c ****     return result;
 867:Source\azure_iot_sdk\iothub_client\src/iothub_message.c **** }
 3659              		.loc 1 867 0
 3660 002e 02B0     		add	sp, sp, #8
 3661              		@ sp needed
 3662 0030 10BD     		pop	{r4, pc}
 3663              	.L256:
 3664 0032 C046     		.align	2
 3665              	.L255:
 3666 0034 14060000 		.word	.LC105
 3667 0038 5A030000 		.word	858
 3668 003c 80020000 		.word	.LANCHOR6
 3669 0040 00000000 		.word	.LC1
 3670              		.cfi_endproc
 3671              	.LFE31:
 3672              		.size	IoTHubMessage_GetInputName, .-IoTHubMessage_GetInputName
 3673              		.section	.text.IoTHubMessage_SetInputName,"ax",%progbits
 3674              		.align	2
 3675              		.global	IoTHubMessage_SetInputName
 3676              		.code	16
 3677              		.thumb_func
 3678              		.type	IoTHubMessage_SetInputName, %function
 3679              	IoTHubMessage_SetInputName:
 3680              	.LFB32:
 868:Source\azure_iot_sdk\iothub_client\src/iothub_message.c **** 
 869:Source\azure_iot_sdk\iothub_client\src/iothub_message.c **** IOTHUB_MESSAGE_RESULT IoTHubMessage_SetInputName(IOTHUB_MESSAGE_HANDLE iotHubMessageHandle, const c
 870:Source\azure_iot_sdk\iothub_client\src/iothub_message.c **** {
 3681              		.loc 1 870 0
 3682              		.cfi_startproc
 3683              		@ args = 0, pretend = 0, frame = 0
 3684              		@ frame_needed = 0, uses_anonymous_args = 0
ARM GAS  C:\Users\Phuong\AppData\Local\Temp\cc4zbCpa.s 			page 82


 3685              	.LVL528:
 3686 0000 70B5     		push	{r4, r5, r6, lr}
 3687              		.cfi_def_cfa_offset 16
 3688              		.cfi_offset 4, -16
 3689              		.cfi_offset 5, -12
 3690              		.cfi_offset 6, -8
 3691              		.cfi_offset 14, -4
 3692 0002 84B0     		sub	sp, sp, #16
 3693              		.cfi_def_cfa_offset 32
 3694 0004 0400     		movs	r4, r0
 3695 0006 0D00     		movs	r5, r1
 871:Source\azure_iot_sdk\iothub_client\src/iothub_message.c ****     IOTHUB_MESSAGE_RESULT result;
 872:Source\azure_iot_sdk\iothub_client\src/iothub_message.c **** 
 873:Source\azure_iot_sdk\iothub_client\src/iothub_message.c ****     // Codes_SRS_IOTHUBMESSAGE_31_042: [if any of the parameters are NULL then IoTHubMessage_SetInp
 874:Source\azure_iot_sdk\iothub_client\src/iothub_message.c ****     if ((iotHubMessageHandle == NULL) || (inputName == NULL))
 3696              		.loc 1 874 0
 3697 0008 0028     		cmp	r0, #0
 3698 000a 01D0     		beq	.L258
 3699              		.loc 1 874 0 is_stmt 0 discriminator 1
 3700 000c 0029     		cmp	r1, #0
 3701 000e 12D1     		bne	.L259
 3702              	.L258:
 3703              	.LBB77:
 875:Source\azure_iot_sdk\iothub_client\src/iothub_message.c ****     {
 876:Source\azure_iot_sdk\iothub_client\src/iothub_message.c ****         LogError("Invalid argument (iotHubMessageHandle=%p, inputName=%p)", iotHubMessageHandle, in
 3704              		.loc 1 876 0 is_stmt 1 discriminator 3
 3705 0010 FFF7FEFF 		bl	xlogging_get_log_function
 3706              	.LVL529:
 3707 0014 061E     		subs	r6, r0, #0
 3708              	.LVL530:
 3709 0016 2CD0     		beq	.L262
 3710              		.loc 1 876 0 is_stmt 0 discriminator 4
 3711 0018 0395     		str	r5, [sp, #12]
 3712 001a 0294     		str	r4, [sp, #8]
 3713 001c 184B     		ldr	r3, .L265
 3714 001e 0193     		str	r3, [sp, #4]
 3715 0020 0123     		movs	r3, #1
 3716 0022 0093     		str	r3, [sp]
 3717 0024 DB23     		movs	r3, #219
 3718 0026 9B00     		lsls	r3, r3, #2
 3719 0028 164A     		ldr	r2, .L265+4
 3720 002a 3832     		adds	r2, r2, #56
 3721 002c 1649     		ldr	r1, .L265+8
 3722 002e 0020     		movs	r0, #0
 3723              	.LVL531:
 3724 0030 B047     		blx	r6
 3725              	.LVL532:
 3726              	.LBE77:
 877:Source\azure_iot_sdk\iothub_client\src/iothub_message.c ****         result = IOTHUB_MESSAGE_INVALID_ARG;
 3727              		.loc 1 877 0 is_stmt 1 discriminator 4
 3728 0032 0120     		movs	r0, #1
 3729 0034 22E0     		b	.L260
 3730              	.LVL533:
 3731              	.L259:
 3732              	.LBB78:
 878:Source\azure_iot_sdk\iothub_client\src/iothub_message.c ****     }
 879:Source\azure_iot_sdk\iothub_client\src/iothub_message.c ****     else
ARM GAS  C:\Users\Phuong\AppData\Local\Temp\cc4zbCpa.s 			page 83


 880:Source\azure_iot_sdk\iothub_client\src/iothub_message.c ****     {
 881:Source\azure_iot_sdk\iothub_client\src/iothub_message.c ****         IOTHUB_MESSAGE_HANDLE_DATA* handleData = (IOTHUB_MESSAGE_HANDLE_DATA*)iotHubMessageHandle;
 882:Source\azure_iot_sdk\iothub_client\src/iothub_message.c **** 
 883:Source\azure_iot_sdk\iothub_client\src/iothub_message.c ****         // Codes_SRS_IOTHUBMESSAGE_31_043: [If the IOTHUB_MESSAGE_HANDLE InputName is not NULL, the
 884:Source\azure_iot_sdk\iothub_client\src/iothub_message.c ****         if (handleData->inputName != NULL)
 3733              		.loc 1 884 0
 3734 0036 006A     		ldr	r0, [r0, #32]
 3735              	.LVL534:
 3736 0038 0028     		cmp	r0, #0
 3737 003a 03D0     		beq	.L261
 885:Source\azure_iot_sdk\iothub_client\src/iothub_message.c ****         {
 886:Source\azure_iot_sdk\iothub_client\src/iothub_message.c ****             free(handleData->inputName);
 3738              		.loc 1 886 0
 3739 003c FFF7FEFF 		bl	free
 3740              	.LVL535:
 887:Source\azure_iot_sdk\iothub_client\src/iothub_message.c ****             handleData->inputName = NULL;
 3741              		.loc 1 887 0
 3742 0040 0023     		movs	r3, #0
 3743 0042 2362     		str	r3, [r4, #32]
 3744              	.L261:
 888:Source\azure_iot_sdk\iothub_client\src/iothub_message.c ****         }
 889:Source\azure_iot_sdk\iothub_client\src/iothub_message.c **** 
 890:Source\azure_iot_sdk\iothub_client\src/iothub_message.c ****         if (mallocAndStrcpy_s(&handleData->inputName, inputName) != 0)
 3745              		.loc 1 890 0
 3746 0044 2000     		movs	r0, r4
 3747 0046 2030     		adds	r0, r0, #32
 3748 0048 2900     		movs	r1, r5
 3749 004a FFF7FEFF 		bl	mallocAndStrcpy_s
 3750              	.LVL536:
 3751 004e 0028     		cmp	r0, #0
 3752 0050 11D0     		beq	.L263
 3753              	.LBB79:
 891:Source\azure_iot_sdk\iothub_client\src/iothub_message.c ****         {
 892:Source\azure_iot_sdk\iothub_client\src/iothub_message.c ****             // Codes_SRS_IOTHUBMESSAGE_31_044: [If the allocation or the copying of the InputName f
 893:Source\azure_iot_sdk\iothub_client\src/iothub_message.c ****             LogError("Failed saving a copy of inputName");
 3754              		.loc 1 893 0 discriminator 3
 3755 0052 FFF7FEFF 		bl	xlogging_get_log_function
 3756              	.LVL537:
 3757 0056 041E     		subs	r4, r0, #0
 3758              	.LVL538:
 3759 0058 0FD0     		beq	.L264
 3760              		.loc 1 893 0 is_stmt 0 discriminator 4
 3761 005a 0C4B     		ldr	r3, .L265+12
 3762 005c 0193     		str	r3, [sp, #4]
 3763 005e 0123     		movs	r3, #1
 3764 0060 0093     		str	r3, [sp]
 3765 0062 0B4B     		ldr	r3, .L265+16
 3766 0064 074A     		ldr	r2, .L265+4
 3767 0066 3832     		adds	r2, r2, #56
 3768 0068 0749     		ldr	r1, .L265+8
 3769 006a 0020     		movs	r0, #0
 3770              	.LVL539:
 3771 006c A047     		blx	r4
 3772              	.LVL540:
 3773              	.LBE79:
 894:Source\azure_iot_sdk\iothub_client\src/iothub_message.c ****             result = IOTHUB_MESSAGE_ERROR;
 3774              		.loc 1 894 0 is_stmt 1 discriminator 4
ARM GAS  C:\Users\Phuong\AppData\Local\Temp\cc4zbCpa.s 			page 84


 3775 006e 0320     		movs	r0, #3
 3776 0070 04E0     		b	.L260
 3777              	.LVL541:
 3778              	.L262:
 3779              	.LBE78:
 877:Source\azure_iot_sdk\iothub_client\src/iothub_message.c ****     }
 3780              		.loc 1 877 0
 3781 0072 0120     		movs	r0, #1
 3782              	.LVL542:
 3783 0074 02E0     		b	.L260
 3784              	.LVL543:
 3785              	.L263:
 3786              	.LBB80:
 895:Source\azure_iot_sdk\iothub_client\src/iothub_message.c ****         }
 896:Source\azure_iot_sdk\iothub_client\src/iothub_message.c ****         else
 897:Source\azure_iot_sdk\iothub_client\src/iothub_message.c ****         {
 898:Source\azure_iot_sdk\iothub_client\src/iothub_message.c ****             // Codes_SRS_IOTHUBMESSAGE_31_045: [IoTHubMessage_SetInputName finishes successfully it
 899:Source\azure_iot_sdk\iothub_client\src/iothub_message.c ****             result = IOTHUB_MESSAGE_OK;
 3787              		.loc 1 899 0
 3788 0076 0020     		movs	r0, #0
 3789 0078 00E0     		b	.L260
 3790              	.LVL544:
 3791              	.L264:
 894:Source\azure_iot_sdk\iothub_client\src/iothub_message.c ****         }
 3792              		.loc 1 894 0
 3793 007a 0320     		movs	r0, #3
 3794              	.LVL545:
 3795              	.L260:
 3796              	.LBE80:
 900:Source\azure_iot_sdk\iothub_client\src/iothub_message.c ****         }
 901:Source\azure_iot_sdk\iothub_client\src/iothub_message.c **** 
 902:Source\azure_iot_sdk\iothub_client\src/iothub_message.c ****     }
 903:Source\azure_iot_sdk\iothub_client\src/iothub_message.c **** 
 904:Source\azure_iot_sdk\iothub_client\src/iothub_message.c ****     return result;
 905:Source\azure_iot_sdk\iothub_client\src/iothub_message.c **** }
 3797              		.loc 1 905 0
 3798 007c 04B0     		add	sp, sp, #16
 3799              		@ sp needed
 3800              	.LVL546:
 3801 007e 70BD     		pop	{r4, r5, r6, pc}
 3802              	.L266:
 3803              		.align	2
 3804              	.L265:
 3805 0080 C0070000 		.word	.LC139
 3806 0084 80020000 		.word	.LANCHOR6
 3807 0088 00000000 		.word	.LC1
 3808 008c F8070000 		.word	.LC141
 3809 0090 7D030000 		.word	893
 3810              		.cfi_endproc
 3811              	.LFE32:
 3812              		.size	IoTHubMessage_SetInputName, .-IoTHubMessage_SetInputName
 3813              		.section	.text.IoTHubMessage_GetConnectionModuleId,"ax",%progbits
 3814              		.align	2
 3815              		.global	IoTHubMessage_GetConnectionModuleId
 3816              		.code	16
 3817              		.thumb_func
 3818              		.type	IoTHubMessage_GetConnectionModuleId, %function
ARM GAS  C:\Users\Phuong\AppData\Local\Temp\cc4zbCpa.s 			page 85


 3819              	IoTHubMessage_GetConnectionModuleId:
 3820              	.LFB33:
 906:Source\azure_iot_sdk\iothub_client\src/iothub_message.c **** 
 907:Source\azure_iot_sdk\iothub_client\src/iothub_message.c **** 
 908:Source\azure_iot_sdk\iothub_client\src/iothub_message.c **** const char* IoTHubMessage_GetConnectionModuleId(IOTHUB_MESSAGE_HANDLE iotHubMessageHandle)
 909:Source\azure_iot_sdk\iothub_client\src/iothub_message.c **** {
 3821              		.loc 1 909 0
 3822              		.cfi_startproc
 3823              		@ args = 0, pretend = 0, frame = 0
 3824              		@ frame_needed = 0, uses_anonymous_args = 0
 3825              	.LVL547:
 3826 0000 10B5     		push	{r4, lr}
 3827              		.cfi_def_cfa_offset 8
 3828              		.cfi_offset 4, -8
 3829              		.cfi_offset 14, -4
 3830 0002 82B0     		sub	sp, sp, #8
 3831              		.cfi_def_cfa_offset 16
 910:Source\azure_iot_sdk\iothub_client\src/iothub_message.c ****     const char* result;
 911:Source\azure_iot_sdk\iothub_client\src/iothub_message.c ****     // Codes_SRS_IOTHUBMESSAGE_31_046: [if the iotHubMessageHandle parameter is NULL then IoTHubMes
 912:Source\azure_iot_sdk\iothub_client\src/iothub_message.c ****     if (iotHubMessageHandle == NULL)
 3832              		.loc 1 912 0
 3833 0004 0028     		cmp	r0, #0
 3834 0006 0FD1     		bne	.L268
 3835              	.LBB81:
 913:Source\azure_iot_sdk\iothub_client\src/iothub_message.c ****     {
 914:Source\azure_iot_sdk\iothub_client\src/iothub_message.c ****         LogError("Invalid argument (iotHubMessageHandle is NULL)");
 3836              		.loc 1 914 0 discriminator 3
 3837 0008 FFF7FEFF 		bl	xlogging_get_log_function
 3838              	.LVL548:
 3839 000c 041E     		subs	r4, r0, #0
 3840              	.LVL549:
 3841 000e 0DD0     		beq	.L270
 3842              		.loc 1 914 0 is_stmt 0 discriminator 4
 3843 0010 084B     		ldr	r3, .L271
 3844 0012 0193     		str	r3, [sp, #4]
 3845 0014 0123     		movs	r3, #1
 3846 0016 0093     		str	r3, [sp]
 3847 0018 074B     		ldr	r3, .L271+4
 3848 001a 084A     		ldr	r2, .L271+8
 3849 001c 5432     		adds	r2, r2, #84
 3850 001e 0849     		ldr	r1, .L271+12
 3851 0020 0020     		movs	r0, #0
 3852              	.LVL550:
 3853 0022 A047     		blx	r4
 3854              	.LVL551:
 3855              	.LBE81:
 915:Source\azure_iot_sdk\iothub_client\src/iothub_message.c ****         result = NULL;
 3856              		.loc 1 915 0 is_stmt 1 discriminator 4
 3857 0024 0020     		movs	r0, #0
 3858 0026 02E0     		b	.L269
 3859              	.LVL552:
 3860              	.L268:
 916:Source\azure_iot_sdk\iothub_client\src/iothub_message.c ****     }
 917:Source\azure_iot_sdk\iothub_client\src/iothub_message.c ****     else
 918:Source\azure_iot_sdk\iothub_client\src/iothub_message.c ****     {
 919:Source\azure_iot_sdk\iothub_client\src/iothub_message.c ****         // Codes_SRS_IOTHUBMESSAGE_31_047: [IoTHubMessage_GetConnectionModuleId shall return the Co
 920:Source\azure_iot_sdk\iothub_client\src/iothub_message.c ****         result = iotHubMessageHandle->connectionModuleId;
ARM GAS  C:\Users\Phuong\AppData\Local\Temp\cc4zbCpa.s 			page 86


 3861              		.loc 1 920 0
 3862 0028 406A     		ldr	r0, [r0, #36]
 3863              	.LVL553:
 3864 002a 00E0     		b	.L269
 3865              	.LVL554:
 3866              	.L270:
 915:Source\azure_iot_sdk\iothub_client\src/iothub_message.c ****         result = NULL;
 3867              		.loc 1 915 0
 3868 002c 0020     		movs	r0, #0
 3869              	.LVL555:
 3870              	.L269:
 921:Source\azure_iot_sdk\iothub_client\src/iothub_message.c ****     }
 922:Source\azure_iot_sdk\iothub_client\src/iothub_message.c ****     return result;
 923:Source\azure_iot_sdk\iothub_client\src/iothub_message.c **** }
 3871              		.loc 1 923 0
 3872 002e 02B0     		add	sp, sp, #8
 3873              		@ sp needed
 3874 0030 10BD     		pop	{r4, pc}
 3875              	.L272:
 3876 0032 C046     		.align	2
 3877              	.L271:
 3878 0034 14060000 		.word	.LC105
 3879 0038 92030000 		.word	914
 3880 003c 80020000 		.word	.LANCHOR6
 3881 0040 00000000 		.word	.LC1
 3882              		.cfi_endproc
 3883              	.LFE33:
 3884              		.size	IoTHubMessage_GetConnectionModuleId, .-IoTHubMessage_GetConnectionModuleId
 3885              		.section	.text.IoTHubMessage_SetConnectionModuleId,"ax",%progbits
 3886              		.align	2
 3887              		.global	IoTHubMessage_SetConnectionModuleId
 3888              		.code	16
 3889              		.thumb_func
 3890              		.type	IoTHubMessage_SetConnectionModuleId, %function
 3891              	IoTHubMessage_SetConnectionModuleId:
 3892              	.LFB34:
 924:Source\azure_iot_sdk\iothub_client\src/iothub_message.c **** 
 925:Source\azure_iot_sdk\iothub_client\src/iothub_message.c **** IOTHUB_MESSAGE_RESULT IoTHubMessage_SetConnectionModuleId(IOTHUB_MESSAGE_HANDLE iotHubMessageHandle
 926:Source\azure_iot_sdk\iothub_client\src/iothub_message.c **** {
 3893              		.loc 1 926 0
 3894              		.cfi_startproc
 3895              		@ args = 0, pretend = 0, frame = 0
 3896              		@ frame_needed = 0, uses_anonymous_args = 0
 3897              	.LVL556:
 3898 0000 70B5     		push	{r4, r5, r6, lr}
 3899              		.cfi_def_cfa_offset 16
 3900              		.cfi_offset 4, -16
 3901              		.cfi_offset 5, -12
 3902              		.cfi_offset 6, -8
 3903              		.cfi_offset 14, -4
 3904 0002 84B0     		sub	sp, sp, #16
 3905              		.cfi_def_cfa_offset 32
 3906 0004 0400     		movs	r4, r0
 3907 0006 0D00     		movs	r5, r1
 927:Source\azure_iot_sdk\iothub_client\src/iothub_message.c ****     IOTHUB_MESSAGE_RESULT result;
 928:Source\azure_iot_sdk\iothub_client\src/iothub_message.c **** 
 929:Source\azure_iot_sdk\iothub_client\src/iothub_message.c ****     // Codes_SRS_IOTHUBMESSAGE_31_048: [if any of the parameters are NULL then IoTHubMessage_SetCon
ARM GAS  C:\Users\Phuong\AppData\Local\Temp\cc4zbCpa.s 			page 87


 930:Source\azure_iot_sdk\iothub_client\src/iothub_message.c ****     if ((iotHubMessageHandle == NULL) || (connectionModuleId == NULL))
 3908              		.loc 1 930 0
 3909 0008 0028     		cmp	r0, #0
 3910 000a 01D0     		beq	.L274
 3911              		.loc 1 930 0 is_stmt 0 discriminator 1
 3912 000c 0029     		cmp	r1, #0
 3913 000e 12D1     		bne	.L275
 3914              	.L274:
 3915              	.LBB82:
 931:Source\azure_iot_sdk\iothub_client\src/iothub_message.c ****     {
 932:Source\azure_iot_sdk\iothub_client\src/iothub_message.c ****         LogError("Invalid argument (iotHubMessageHandle=%p, connectionModuleId=%p)", iotHubMessageH
 3916              		.loc 1 932 0 is_stmt 1 discriminator 3
 3917 0010 FFF7FEFF 		bl	xlogging_get_log_function
 3918              	.LVL557:
 3919 0014 061E     		subs	r6, r0, #0
 3920              	.LVL558:
 3921 0016 2CD0     		beq	.L278
 3922              		.loc 1 932 0 is_stmt 0 discriminator 4
 3923 0018 0395     		str	r5, [sp, #12]
 3924 001a 0294     		str	r4, [sp, #8]
 3925 001c 184B     		ldr	r3, .L281
 3926 001e 0193     		str	r3, [sp, #4]
 3927 0020 0123     		movs	r3, #1
 3928 0022 0093     		str	r3, [sp]
 3929 0024 E923     		movs	r3, #233
 3930 0026 9B00     		lsls	r3, r3, #2
 3931 0028 164A     		ldr	r2, .L281+4
 3932 002a 7832     		adds	r2, r2, #120
 3933 002c 1649     		ldr	r1, .L281+8
 3934 002e 0020     		movs	r0, #0
 3935              	.LVL559:
 3936 0030 B047     		blx	r6
 3937              	.LVL560:
 3938              	.LBE82:
 933:Source\azure_iot_sdk\iothub_client\src/iothub_message.c ****         result = IOTHUB_MESSAGE_INVALID_ARG;
 3939              		.loc 1 933 0 is_stmt 1 discriminator 4
 3940 0032 0120     		movs	r0, #1
 3941 0034 22E0     		b	.L276
 3942              	.LVL561:
 3943              	.L275:
 3944              	.LBB83:
 934:Source\azure_iot_sdk\iothub_client\src/iothub_message.c ****     }
 935:Source\azure_iot_sdk\iothub_client\src/iothub_message.c ****     else
 936:Source\azure_iot_sdk\iothub_client\src/iothub_message.c ****     {
 937:Source\azure_iot_sdk\iothub_client\src/iothub_message.c ****         IOTHUB_MESSAGE_HANDLE_DATA* handleData = (IOTHUB_MESSAGE_HANDLE_DATA*)iotHubMessageHandle;
 938:Source\azure_iot_sdk\iothub_client\src/iothub_message.c **** 
 939:Source\azure_iot_sdk\iothub_client\src/iothub_message.c ****         // Codes_SRS_IOTHUBMESSAGE_31_049: [If the IOTHUB_MESSAGE_HANDLE ConnectionModuleId is not 
 940:Source\azure_iot_sdk\iothub_client\src/iothub_message.c ****         if (handleData->connectionModuleId != NULL)
 3945              		.loc 1 940 0
 3946 0036 406A     		ldr	r0, [r0, #36]
 3947              	.LVL562:
 3948 0038 0028     		cmp	r0, #0
 3949 003a 03D0     		beq	.L277
 941:Source\azure_iot_sdk\iothub_client\src/iothub_message.c ****         {
 942:Source\azure_iot_sdk\iothub_client\src/iothub_message.c ****             free(handleData->connectionModuleId);
 3950              		.loc 1 942 0
 3951 003c FFF7FEFF 		bl	free
ARM GAS  C:\Users\Phuong\AppData\Local\Temp\cc4zbCpa.s 			page 88


 3952              	.LVL563:
 943:Source\azure_iot_sdk\iothub_client\src/iothub_message.c ****             handleData->connectionModuleId = NULL;
 3953              		.loc 1 943 0
 3954 0040 0023     		movs	r3, #0
 3955 0042 6362     		str	r3, [r4, #36]
 3956              	.L277:
 944:Source\azure_iot_sdk\iothub_client\src/iothub_message.c ****         }
 945:Source\azure_iot_sdk\iothub_client\src/iothub_message.c **** 
 946:Source\azure_iot_sdk\iothub_client\src/iothub_message.c ****         if (mallocAndStrcpy_s(&handleData->connectionModuleId, connectionModuleId) != 0)
 3957              		.loc 1 946 0
 3958 0044 2000     		movs	r0, r4
 3959 0046 2430     		adds	r0, r0, #36
 3960 0048 2900     		movs	r1, r5
 3961 004a FFF7FEFF 		bl	mallocAndStrcpy_s
 3962              	.LVL564:
 3963 004e 0028     		cmp	r0, #0
 3964 0050 11D0     		beq	.L279
 3965              	.LBB84:
 947:Source\azure_iot_sdk\iothub_client\src/iothub_message.c ****         {
 948:Source\azure_iot_sdk\iothub_client\src/iothub_message.c ****             // Codes_SRS_IOTHUBMESSAGE_31_050: [If the allocation or the copying of the ConnectionM
 949:Source\azure_iot_sdk\iothub_client\src/iothub_message.c ****             LogError("Failed saving a copy of connectionModuleId");
 3966              		.loc 1 949 0 discriminator 3
 3967 0052 FFF7FEFF 		bl	xlogging_get_log_function
 3968              	.LVL565:
 3969 0056 041E     		subs	r4, r0, #0
 3970              	.LVL566:
 3971 0058 0FD0     		beq	.L280
 3972              		.loc 1 949 0 is_stmt 0 discriminator 4
 3973 005a 0C4B     		ldr	r3, .L281+12
 3974 005c 0193     		str	r3, [sp, #4]
 3975 005e 0123     		movs	r3, #1
 3976 0060 0093     		str	r3, [sp]
 3977 0062 0B4B     		ldr	r3, .L281+16
 3978 0064 074A     		ldr	r2, .L281+4
 3979 0066 7832     		adds	r2, r2, #120
 3980 0068 0749     		ldr	r1, .L281+8
 3981 006a 0020     		movs	r0, #0
 3982              	.LVL567:
 3983 006c A047     		blx	r4
 3984              	.LVL568:
 3985              	.LBE84:
 950:Source\azure_iot_sdk\iothub_client\src/iothub_message.c ****             result = IOTHUB_MESSAGE_ERROR;
 3986              		.loc 1 950 0 is_stmt 1 discriminator 4
 3987 006e 0320     		movs	r0, #3
 3988 0070 04E0     		b	.L276
 3989              	.LVL569:
 3990              	.L278:
 3991              	.LBE83:
 933:Source\azure_iot_sdk\iothub_client\src/iothub_message.c ****     }
 3992              		.loc 1 933 0
 3993 0072 0120     		movs	r0, #1
 3994              	.LVL570:
 3995 0074 02E0     		b	.L276
 3996              	.LVL571:
 3997              	.L279:
 3998              	.LBB85:
 951:Source\azure_iot_sdk\iothub_client\src/iothub_message.c ****         }
ARM GAS  C:\Users\Phuong\AppData\Local\Temp\cc4zbCpa.s 			page 89


 952:Source\azure_iot_sdk\iothub_client\src/iothub_message.c ****         else
 953:Source\azure_iot_sdk\iothub_client\src/iothub_message.c ****         {
 954:Source\azure_iot_sdk\iothub_client\src/iothub_message.c ****             // Codes_SRS_IOTHUBMESSAGE_31_051: [IoTHubMessage_SetConnectionModuleId finishes succes
 955:Source\azure_iot_sdk\iothub_client\src/iothub_message.c ****             result = IOTHUB_MESSAGE_OK;
 3999              		.loc 1 955 0
 4000 0076 0020     		movs	r0, #0
 4001 0078 00E0     		b	.L276
 4002              	.LVL572:
 4003              	.L280:
 950:Source\azure_iot_sdk\iothub_client\src/iothub_message.c ****         }
 4004              		.loc 1 950 0
 4005 007a 0320     		movs	r0, #3
 4006              	.LVL573:
 4007              	.L276:
 4008              	.LBE85:
 956:Source\azure_iot_sdk\iothub_client\src/iothub_message.c ****         }
 957:Source\azure_iot_sdk\iothub_client\src/iothub_message.c **** 
 958:Source\azure_iot_sdk\iothub_client\src/iothub_message.c ****     }
 959:Source\azure_iot_sdk\iothub_client\src/iothub_message.c **** 
 960:Source\azure_iot_sdk\iothub_client\src/iothub_message.c ****     return result;
 961:Source\azure_iot_sdk\iothub_client\src/iothub_message.c **** }
 4009              		.loc 1 961 0
 4010 007c 04B0     		add	sp, sp, #16
 4011              		@ sp needed
 4012              	.LVL574:
 4013 007e 70BD     		pop	{r4, r5, r6, pc}
 4014              	.L282:
 4015              		.align	2
 4016              	.L281:
 4017 0080 1C080000 		.word	.LC148
 4018 0084 80020000 		.word	.LANCHOR6
 4019 0088 00000000 		.word	.LC1
 4020 008c 60080000 		.word	.LC150
 4021 0090 B5030000 		.word	949
 4022              		.cfi_endproc
 4023              	.LFE34:
 4024              		.size	IoTHubMessage_SetConnectionModuleId, .-IoTHubMessage_SetConnectionModuleId
 4025              		.section	.text.IoTHubMessage_GetConnectionDeviceId,"ax",%progbits
 4026              		.align	2
 4027              		.global	IoTHubMessage_GetConnectionDeviceId
 4028              		.code	16
 4029              		.thumb_func
 4030              		.type	IoTHubMessage_GetConnectionDeviceId, %function
 4031              	IoTHubMessage_GetConnectionDeviceId:
 4032              	.LFB35:
 962:Source\azure_iot_sdk\iothub_client\src/iothub_message.c **** 
 963:Source\azure_iot_sdk\iothub_client\src/iothub_message.c **** 
 964:Source\azure_iot_sdk\iothub_client\src/iothub_message.c **** const char* IoTHubMessage_GetConnectionDeviceId(IOTHUB_MESSAGE_HANDLE iotHubMessageHandle)
 965:Source\azure_iot_sdk\iothub_client\src/iothub_message.c **** {
 4033              		.loc 1 965 0
 4034              		.cfi_startproc
 4035              		@ args = 0, pretend = 0, frame = 0
 4036              		@ frame_needed = 0, uses_anonymous_args = 0
 4037              	.LVL575:
 4038 0000 10B5     		push	{r4, lr}
 4039              		.cfi_def_cfa_offset 8
 4040              		.cfi_offset 4, -8
ARM GAS  C:\Users\Phuong\AppData\Local\Temp\cc4zbCpa.s 			page 90


 4041              		.cfi_offset 14, -4
 4042 0002 82B0     		sub	sp, sp, #8
 4043              		.cfi_def_cfa_offset 16
 966:Source\azure_iot_sdk\iothub_client\src/iothub_message.c ****     const char* result;
 967:Source\azure_iot_sdk\iothub_client\src/iothub_message.c ****     // Codes_SRS_IOTHUBMESSAGE_31_052: [if the iotHubMessageHandle parameter is NULL then IoTHubMes
 968:Source\azure_iot_sdk\iothub_client\src/iothub_message.c ****     if (iotHubMessageHandle == NULL)
 4044              		.loc 1 968 0
 4045 0004 0028     		cmp	r0, #0
 4046 0006 0FD1     		bne	.L284
 4047              	.LBB86:
 969:Source\azure_iot_sdk\iothub_client\src/iothub_message.c ****     {
 970:Source\azure_iot_sdk\iothub_client\src/iothub_message.c ****         LogError("Invalid argument (iotHubMessageHandle is NULL)");
 4048              		.loc 1 970 0 discriminator 3
 4049 0008 FFF7FEFF 		bl	xlogging_get_log_function
 4050              	.LVL576:
 4051 000c 041E     		subs	r4, r0, #0
 4052              	.LVL577:
 4053 000e 0DD0     		beq	.L286
 4054              		.loc 1 970 0 is_stmt 0 discriminator 4
 4055 0010 084B     		ldr	r3, .L287
 4056 0012 0193     		str	r3, [sp, #4]
 4057 0014 0123     		movs	r3, #1
 4058 0016 0093     		str	r3, [sp]
 4059 0018 074B     		ldr	r3, .L287+4
 4060 001a 084A     		ldr	r2, .L287+8
 4061 001c 1C32     		adds	r2, r2, #28
 4062 001e 0849     		ldr	r1, .L287+12
 4063 0020 0020     		movs	r0, #0
 4064              	.LVL578:
 4065 0022 A047     		blx	r4
 4066              	.LVL579:
 4067              	.LBE86:
 971:Source\azure_iot_sdk\iothub_client\src/iothub_message.c ****         result = NULL;
 4068              		.loc 1 971 0 is_stmt 1 discriminator 4
 4069 0024 0020     		movs	r0, #0
 4070 0026 02E0     		b	.L285
 4071              	.LVL580:
 4072              	.L284:
 972:Source\azure_iot_sdk\iothub_client\src/iothub_message.c ****     }
 973:Source\azure_iot_sdk\iothub_client\src/iothub_message.c ****     else
 974:Source\azure_iot_sdk\iothub_client\src/iothub_message.c ****     {
 975:Source\azure_iot_sdk\iothub_client\src/iothub_message.c ****         // Codes_SRS_IOTHUBMESSAGE_31_053: [IoTHubMessage_GetConnectionDeviceId shall return the Co
 976:Source\azure_iot_sdk\iothub_client\src/iothub_message.c ****         result = iotHubMessageHandle->connectionDeviceId;
 4073              		.loc 1 976 0
 4074 0028 806A     		ldr	r0, [r0, #40]
 4075              	.LVL581:
 4076 002a 00E0     		b	.L285
 4077              	.LVL582:
 4078              	.L286:
 971:Source\azure_iot_sdk\iothub_client\src/iothub_message.c ****         result = NULL;
 4079              		.loc 1 971 0
 4080 002c 0020     		movs	r0, #0
 4081              	.LVL583:
 4082              	.L285:
 977:Source\azure_iot_sdk\iothub_client\src/iothub_message.c ****     }
 978:Source\azure_iot_sdk\iothub_client\src/iothub_message.c ****     return result;
 979:Source\azure_iot_sdk\iothub_client\src/iothub_message.c **** }
ARM GAS  C:\Users\Phuong\AppData\Local\Temp\cc4zbCpa.s 			page 91


 4083              		.loc 1 979 0
 4084 002e 02B0     		add	sp, sp, #8
 4085              		@ sp needed
 4086 0030 10BD     		pop	{r4, pc}
 4087              	.L288:
 4088 0032 C046     		.align	2
 4089              	.L287:
 4090 0034 14060000 		.word	.LC105
 4091 0038 CA030000 		.word	970
 4092 003c 00030000 		.word	.LANCHOR7
 4093 0040 00000000 		.word	.LC1
 4094              		.cfi_endproc
 4095              	.LFE35:
 4096              		.size	IoTHubMessage_GetConnectionDeviceId, .-IoTHubMessage_GetConnectionDeviceId
 4097              		.section	.text.IoTHubMessage_SetConnectionDeviceId,"ax",%progbits
 4098              		.align	2
 4099              		.global	IoTHubMessage_SetConnectionDeviceId
 4100              		.code	16
 4101              		.thumb_func
 4102              		.type	IoTHubMessage_SetConnectionDeviceId, %function
 4103              	IoTHubMessage_SetConnectionDeviceId:
 4104              	.LFB36:
 980:Source\azure_iot_sdk\iothub_client\src/iothub_message.c **** 
 981:Source\azure_iot_sdk\iothub_client\src/iothub_message.c **** IOTHUB_MESSAGE_RESULT IoTHubMessage_SetConnectionDeviceId(IOTHUB_MESSAGE_HANDLE iotHubMessageHandle
 982:Source\azure_iot_sdk\iothub_client\src/iothub_message.c **** {
 4105              		.loc 1 982 0
 4106              		.cfi_startproc
 4107              		@ args = 0, pretend = 0, frame = 0
 4108              		@ frame_needed = 0, uses_anonymous_args = 0
 4109              	.LVL584:
 4110 0000 70B5     		push	{r4, r5, r6, lr}
 4111              		.cfi_def_cfa_offset 16
 4112              		.cfi_offset 4, -16
 4113              		.cfi_offset 5, -12
 4114              		.cfi_offset 6, -8
 4115              		.cfi_offset 14, -4
 4116 0002 84B0     		sub	sp, sp, #16
 4117              		.cfi_def_cfa_offset 32
 4118 0004 0400     		movs	r4, r0
 4119 0006 0D00     		movs	r5, r1
 983:Source\azure_iot_sdk\iothub_client\src/iothub_message.c ****     IOTHUB_MESSAGE_RESULT result;
 984:Source\azure_iot_sdk\iothub_client\src/iothub_message.c **** 
 985:Source\azure_iot_sdk\iothub_client\src/iothub_message.c ****     // Codes_SRS_IOTHUBMESSAGE_31_054: [if any of the parameters are NULL then IoTHubMessage_SetCon
 986:Source\azure_iot_sdk\iothub_client\src/iothub_message.c ****     if ((iotHubMessageHandle == NULL) || (connectionDeviceId == NULL))
 4120              		.loc 1 986 0
 4121 0008 0028     		cmp	r0, #0
 4122 000a 01D0     		beq	.L290
 4123              		.loc 1 986 0 is_stmt 0 discriminator 1
 4124 000c 0029     		cmp	r1, #0
 4125 000e 12D1     		bne	.L291
 4126              	.L290:
 4127              	.LBB87:
 987:Source\azure_iot_sdk\iothub_client\src/iothub_message.c ****     {
 988:Source\azure_iot_sdk\iothub_client\src/iothub_message.c ****         LogError("Invalid argument (iotHubMessageHandle=%p, connectionDeviceId=%p)", iotHubMessageH
 4128              		.loc 1 988 0 is_stmt 1 discriminator 3
 4129 0010 FFF7FEFF 		bl	xlogging_get_log_function
 4130              	.LVL585:
ARM GAS  C:\Users\Phuong\AppData\Local\Temp\cc4zbCpa.s 			page 92


 4131 0014 061E     		subs	r6, r0, #0
 4132              	.LVL586:
 4133 0016 2CD0     		beq	.L294
 4134              		.loc 1 988 0 is_stmt 0 discriminator 4
 4135 0018 0395     		str	r5, [sp, #12]
 4136 001a 0294     		str	r4, [sp, #8]
 4137 001c 184B     		ldr	r3, .L297
 4138 001e 0193     		str	r3, [sp, #4]
 4139 0020 0123     		movs	r3, #1
 4140 0022 0093     		str	r3, [sp]
 4141 0024 F723     		movs	r3, #247
 4142 0026 9B00     		lsls	r3, r3, #2
 4143 0028 164A     		ldr	r2, .L297+4
 4144 002a 4032     		adds	r2, r2, #64
 4145 002c 1649     		ldr	r1, .L297+8
 4146 002e 0020     		movs	r0, #0
 4147              	.LVL587:
 4148 0030 B047     		blx	r6
 4149              	.LVL588:
 4150              	.LBE87:
 989:Source\azure_iot_sdk\iothub_client\src/iothub_message.c ****         result = IOTHUB_MESSAGE_INVALID_ARG;
 4151              		.loc 1 989 0 is_stmt 1 discriminator 4
 4152 0032 0120     		movs	r0, #1
 4153 0034 22E0     		b	.L292
 4154              	.LVL589:
 4155              	.L291:
 4156              	.LBB88:
 990:Source\azure_iot_sdk\iothub_client\src/iothub_message.c ****     }
 991:Source\azure_iot_sdk\iothub_client\src/iothub_message.c ****     else
 992:Source\azure_iot_sdk\iothub_client\src/iothub_message.c ****     {
 993:Source\azure_iot_sdk\iothub_client\src/iothub_message.c ****         IOTHUB_MESSAGE_HANDLE_DATA* handleData = (IOTHUB_MESSAGE_HANDLE_DATA*)iotHubMessageHandle;
 994:Source\azure_iot_sdk\iothub_client\src/iothub_message.c **** 
 995:Source\azure_iot_sdk\iothub_client\src/iothub_message.c ****         // Codes_SRS_IOTHUBMESSAGE_31_055: [If the IOTHUB_MESSAGE_HANDLE ConnectionDeviceId is not 
 996:Source\azure_iot_sdk\iothub_client\src/iothub_message.c ****         if (handleData->connectionDeviceId != NULL)
 4157              		.loc 1 996 0
 4158 0036 806A     		ldr	r0, [r0, #40]
 4159              	.LVL590:
 4160 0038 0028     		cmp	r0, #0
 4161 003a 03D0     		beq	.L293
 997:Source\azure_iot_sdk\iothub_client\src/iothub_message.c ****         {
 998:Source\azure_iot_sdk\iothub_client\src/iothub_message.c ****             free(handleData->connectionDeviceId);
 4162              		.loc 1 998 0
 4163 003c FFF7FEFF 		bl	free
 4164              	.LVL591:
 999:Source\azure_iot_sdk\iothub_client\src/iothub_message.c ****             handleData->connectionDeviceId = NULL;
 4165              		.loc 1 999 0
 4166 0040 0023     		movs	r3, #0
 4167 0042 A362     		str	r3, [r4, #40]
 4168              	.L293:
1000:Source\azure_iot_sdk\iothub_client\src/iothub_message.c ****         }
1001:Source\azure_iot_sdk\iothub_client\src/iothub_message.c **** 
1002:Source\azure_iot_sdk\iothub_client\src/iothub_message.c ****         if (mallocAndStrcpy_s(&handleData->connectionDeviceId, connectionDeviceId) != 0)
 4169              		.loc 1 1002 0
 4170 0044 2000     		movs	r0, r4
 4171 0046 2830     		adds	r0, r0, #40
 4172 0048 2900     		movs	r1, r5
 4173 004a FFF7FEFF 		bl	mallocAndStrcpy_s
ARM GAS  C:\Users\Phuong\AppData\Local\Temp\cc4zbCpa.s 			page 93


 4174              	.LVL592:
 4175 004e 0028     		cmp	r0, #0
 4176 0050 11D0     		beq	.L295
 4177              	.LBB89:
1003:Source\azure_iot_sdk\iothub_client\src/iothub_message.c ****         {
1004:Source\azure_iot_sdk\iothub_client\src/iothub_message.c ****             // Codes_SRS_IOTHUBMESSAGE_31_056: [If the allocation or the copying of the ConnectionD
1005:Source\azure_iot_sdk\iothub_client\src/iothub_message.c ****             LogError("Failed saving a copy of connectionDeviceId");
 4178              		.loc 1 1005 0 discriminator 3
 4179 0052 FFF7FEFF 		bl	xlogging_get_log_function
 4180              	.LVL593:
 4181 0056 041E     		subs	r4, r0, #0
 4182              	.LVL594:
 4183 0058 0FD0     		beq	.L296
 4184              		.loc 1 1005 0 is_stmt 0 discriminator 4
 4185 005a 0C4B     		ldr	r3, .L297+12
 4186 005c 0193     		str	r3, [sp, #4]
 4187 005e 0123     		movs	r3, #1
 4188 0060 0093     		str	r3, [sp]
 4189 0062 0B4B     		ldr	r3, .L297+16
 4190 0064 074A     		ldr	r2, .L297+4
 4191 0066 4032     		adds	r2, r2, #64
 4192 0068 0749     		ldr	r1, .L297+8
 4193 006a 0020     		movs	r0, #0
 4194              	.LVL595:
 4195 006c A047     		blx	r4
 4196              	.LVL596:
 4197              	.LBE89:
1006:Source\azure_iot_sdk\iothub_client\src/iothub_message.c ****             result = IOTHUB_MESSAGE_ERROR;
 4198              		.loc 1 1006 0 is_stmt 1 discriminator 4
 4199 006e 0320     		movs	r0, #3
 4200 0070 04E0     		b	.L292
 4201              	.LVL597:
 4202              	.L294:
 4203              	.LBE88:
 989:Source\azure_iot_sdk\iothub_client\src/iothub_message.c ****     }
 4204              		.loc 1 989 0
 4205 0072 0120     		movs	r0, #1
 4206              	.LVL598:
 4207 0074 02E0     		b	.L292
 4208              	.LVL599:
 4209              	.L295:
 4210              	.LBB90:
1007:Source\azure_iot_sdk\iothub_client\src/iothub_message.c ****         }
1008:Source\azure_iot_sdk\iothub_client\src/iothub_message.c ****         else
1009:Source\azure_iot_sdk\iothub_client\src/iothub_message.c ****         {
1010:Source\azure_iot_sdk\iothub_client\src/iothub_message.c ****             // Codes_SRS_IOTHUBMESSAGE_31_057: [IoTHubMessage_SetConnectionDeviceId finishes succes
1011:Source\azure_iot_sdk\iothub_client\src/iothub_message.c ****             result = IOTHUB_MESSAGE_OK;
 4211              		.loc 1 1011 0
 4212 0076 0020     		movs	r0, #0
 4213 0078 00E0     		b	.L292
 4214              	.LVL600:
 4215              	.L296:
1006:Source\azure_iot_sdk\iothub_client\src/iothub_message.c ****         }
 4216              		.loc 1 1006 0
 4217 007a 0320     		movs	r0, #3
 4218              	.LVL601:
 4219              	.L292:
ARM GAS  C:\Users\Phuong\AppData\Local\Temp\cc4zbCpa.s 			page 94


 4220              	.LBE90:
1012:Source\azure_iot_sdk\iothub_client\src/iothub_message.c ****         }
1013:Source\azure_iot_sdk\iothub_client\src/iothub_message.c **** 
1014:Source\azure_iot_sdk\iothub_client\src/iothub_message.c ****     }
1015:Source\azure_iot_sdk\iothub_client\src/iothub_message.c **** 
1016:Source\azure_iot_sdk\iothub_client\src/iothub_message.c ****     return result;
1017:Source\azure_iot_sdk\iothub_client\src/iothub_message.c **** }
 4221              		.loc 1 1017 0
 4222 007c 04B0     		add	sp, sp, #16
 4223              		@ sp needed
 4224              	.LVL602:
 4225 007e 70BD     		pop	{r4, r5, r6, pc}
 4226              	.L298:
 4227              		.align	2
 4228              	.L297:
 4229 0080 8C080000 		.word	.LC157
 4230 0084 00030000 		.word	.LANCHOR7
 4231 0088 00000000 		.word	.LC1
 4232 008c D0080000 		.word	.LC159
 4233 0090 ED030000 		.word	1005
 4234              		.cfi_endproc
 4235              	.LFE36:
 4236              		.size	IoTHubMessage_SetConnectionDeviceId, .-IoTHubMessage_SetConnectionDeviceId
 4237              		.section	.text.IoTHubMessage_Destroy,"ax",%progbits
 4238              		.align	2
 4239              		.global	IoTHubMessage_Destroy
 4240              		.code	16
 4241              		.thumb_func
 4242              		.type	IoTHubMessage_Destroy, %function
 4243              	IoTHubMessage_Destroy:
 4244              	.LFB37:
1018:Source\azure_iot_sdk\iothub_client\src/iothub_message.c **** 
1019:Source\azure_iot_sdk\iothub_client\src/iothub_message.c **** void IoTHubMessage_Destroy(IOTHUB_MESSAGE_HANDLE iotHubMessageHandle)
1020:Source\azure_iot_sdk\iothub_client\src/iothub_message.c **** {
 4245              		.loc 1 1020 0
 4246              		.cfi_startproc
 4247              		@ args = 0, pretend = 0, frame = 0
 4248              		@ frame_needed = 0, uses_anonymous_args = 0
 4249              	.LVL603:
 4250 0000 10B5     		push	{r4, lr}
 4251              		.cfi_def_cfa_offset 8
 4252              		.cfi_offset 4, -8
 4253              		.cfi_offset 14, -4
1021:Source\azure_iot_sdk\iothub_client\src/iothub_message.c ****     /*Codes_SRS_IOTHUBMESSAGE_01_004: [If iotHubMessageHandle is NULL, IoTHubMessage_Destroy shall 
1022:Source\azure_iot_sdk\iothub_client\src/iothub_message.c ****     if (iotHubMessageHandle != NULL)
 4254              		.loc 1 1022 0
 4255 0002 0028     		cmp	r0, #0
 4256 0004 01D0     		beq	.L299
1023:Source\azure_iot_sdk\iothub_client\src/iothub_message.c ****     {
1024:Source\azure_iot_sdk\iothub_client\src/iothub_message.c ****         /*Codes_SRS_IOTHUBMESSAGE_01_003: [IoTHubMessage_Destroy shall free all resources associate
1025:Source\azure_iot_sdk\iothub_client\src/iothub_message.c ****         DestroyMessageData((IOTHUB_MESSAGE_HANDLE_DATA* )iotHubMessageHandle);
 4257              		.loc 1 1025 0
 4258 0006 FFF7FEFF 		bl	DestroyMessageData
 4259              	.LVL604:
 4260              	.L299:
1026:Source\azure_iot_sdk\iothub_client\src/iothub_message.c ****     }
1027:Source\azure_iot_sdk\iothub_client\src/iothub_message.c **** }
ARM GAS  C:\Users\Phuong\AppData\Local\Temp\cc4zbCpa.s 			page 95


 4261              		.loc 1 1027 0
 4262              		@ sp needed
 4263 000a 10BD     		pop	{r4, pc}
 4264              		.cfi_endproc
 4265              	.LFE37:
 4266              		.size	IoTHubMessage_Destroy, .-IoTHubMessage_Destroy
 4267              		.global	IOTHUBMESSAGE_CONTENT_TYPEStringStorage
 4268              		.global	IOTHUB_MESSAGE_RESULTStringStorage
 4269              		.section	.rodata
 4270              		.align	2
 4271              		.set	.LANCHOR0,. + 0
 4272              		.set	.LANCHOR2,. + 128
 4273              		.set	.LANCHOR3,. + 256
 4274              		.set	.LANCHOR4,. + 384
 4275              		.set	.LANCHOR5,. + 512
 4276              		.set	.LANCHOR6,. + 640
 4277              		.set	.LANCHOR7,. + 768
 4278              		.type	__func__.6199, %object
 4279              		.size	__func__.6199, 28
 4280              	__func__.6199:
 4281 0000 436C6F6E 		.ascii	"CloneDiagnosticPropertyData\000"
 4281      65446961 
 4281      676E6F73 
 4281      74696350 
 4281      726F7065 
 4282              		.type	__func__.6217, %object
 4283              		.size	__func__.6217, 34
 4284              	__func__.6217:
 4285 001c 496F5448 		.ascii	"IoTHubMessage_CreateFromByteArray\000"
 4285      75624D65 
 4285      73736167 
 4285      655F4372 
 4285      65617465 
 4286 003e 0000     		.space	2
 4287              		.type	__func__.6239, %object
 4288              		.size	__func__.6239, 31
 4289              	__func__.6239:
 4290 0040 496F5448 		.ascii	"IoTHubMessage_CreateFromString\000"
 4290      75624D65 
 4290      73736167 
 4290      655F4372 
 4290      65617465 
 4291 005f 00       		.space	1
 4292              		.type	__func__.6257, %object
 4293              		.size	__func__.6257, 20
 4294              	__func__.6257:
 4295 0060 496F5448 		.ascii	"IoTHubMessage_Clone\000"
 4295      75624D65 
 4295      73736167 
 4295      655F436C 
 4295      6F6E6500 
 4296              		.type	__func__.6309, %object
 4297              		.size	__func__.6309, 27
 4298              	__func__.6309:
 4299 0074 496F5448 		.ascii	"IoTHubMessage_GetByteArray\000"
 4299      75624D65 
 4299      73736167 
ARM GAS  C:\Users\Phuong\AppData\Local\Temp\cc4zbCpa.s 			page 96


 4299      655F4765 
 4299      74427974 
 4300 008f 00       		.space	1
 4301              		.type	__func__.6331, %object
 4302              		.size	__func__.6331, 25
 4303              	__func__.6331:
 4304 0090 496F5448 		.ascii	"IoTHubMessage_Properties\000"
 4304      75624D65 
 4304      73736167 
 4304      655F5072 
 4304      6F706572 
 4305 00a9 000000   		.space	3
 4306              		.type	__func__.6342, %object
 4307              		.size	__func__.6342, 26
 4308              	__func__.6342:
 4309 00ac 496F5448 		.ascii	"IoTHubMessage_SetProperty\000"
 4309      75624D65 
 4309      73736167 
 4309      655F5365 
 4309      7450726F 
 4310 00c6 0000     		.space	2
 4311              		.type	__func__.6354, %object
 4312              		.size	__func__.6354, 26
 4313              	__func__.6354:
 4314 00c8 496F5448 		.ascii	"IoTHubMessage_GetProperty\000"
 4314      75624D65 
 4314      73736167 
 4314      655F4765 
 4314      7450726F 
 4315 00e2 0000     		.space	2
 4316              		.type	__func__.6363, %object
 4317              		.size	__func__.6363, 31
 4318              	__func__.6363:
 4319 00e4 496F5448 		.ascii	"IoTHubMessage_GetCorrelationId\000"
 4319      75624D65 
 4319      73736167 
 4319      655F4765 
 4319      74436F72 
 4320 0103 00       		.space	1
 4321              		.type	__func__.6373, %object
 4322              		.size	__func__.6373, 31
 4323              	__func__.6373:
 4324 0104 496F5448 		.ascii	"IoTHubMessage_SetCorrelationId\000"
 4324      75624D65 
 4324      73736167 
 4324      655F5365 
 4324      74436F72 
 4325 0123 00       		.space	1
 4326              		.type	__func__.6383, %object
 4327              		.size	__func__.6383, 27
 4328              	__func__.6383:
 4329 0124 496F5448 		.ascii	"IoTHubMessage_SetMessageId\000"
 4329      75624D65 
 4329      73736167 
 4329      655F5365 
 4329      744D6573 
 4330 013f 00       		.space	1
ARM GAS  C:\Users\Phuong\AppData\Local\Temp\cc4zbCpa.s 			page 97


 4331              		.type	__func__.6392, %object
 4332              		.size	__func__.6392, 27
 4333              	__func__.6392:
 4334 0140 496F5448 		.ascii	"IoTHubMessage_GetMessageId\000"
 4334      75624D65 
 4334      73736167 
 4334      655F4765 
 4334      744D6573 
 4335 015b 00       		.space	1
 4336              		.type	__func__.6402, %object
 4337              		.size	__func__.6402, 43
 4338              	__func__.6402:
 4339 015c 496F5448 		.ascii	"IoTHubMessage_SetContentTypeSystemProperty\000"
 4339      75624D65 
 4339      73736167 
 4339      655F5365 
 4339      74436F6E 
 4340 0187 00       		.space	1
 4341              		.type	__func__.6414, %object
 4342              		.size	__func__.6414, 43
 4343              	__func__.6414:
 4344 0188 496F5448 		.ascii	"IoTHubMessage_GetContentTypeSystemProperty\000"
 4344      75624D65 
 4344      73736167 
 4344      655F4765 
 4344      74436F6E 
 4345 01b3 00       		.space	1
 4346              		.type	__func__.6424, %object
 4347              		.size	__func__.6424, 47
 4348              	__func__.6424:
 4349 01b4 496F5448 		.ascii	"IoTHubMessage_SetContentEncodingSystemProperty\000"
 4349      75624D65 
 4349      73736167 
 4349      655F5365 
 4349      74436F6E 
 4350 01e3 00       		.space	1
 4351              		.type	__func__.6436, %object
 4352              		.size	__func__.6436, 47
 4353              	__func__.6436:
 4354 01e4 496F5448 		.ascii	"IoTHubMessage_GetContentEncodingSystemProperty\000"
 4354      75624D65 
 4354      73736167 
 4354      655F4765 
 4354      74436F6E 
 4355 0213 00       		.space	1
 4356              		.type	__func__.6445, %object
 4357              		.size	__func__.6445, 40
 4358              	__func__.6445:
 4359 0214 496F5448 		.ascii	"IoTHubMessage_GetDiagnosticPropertyData\000"
 4359      75624D65 
 4359      73736167 
 4359      655F4765 
 4359      74446961 
 4360              		.type	__func__.6454, %object
 4361              		.size	__func__.6454, 40
 4362              	__func__.6454:
 4363 023c 496F5448 		.ascii	"IoTHubMessage_SetDiagnosticPropertyData\000"
ARM GAS  C:\Users\Phuong\AppData\Local\Temp\cc4zbCpa.s 			page 98


 4363      75624D65 
 4363      73736167 
 4363      655F5365 
 4363      74446961 
 4364              		.type	__func__.6465, %object
 4365              		.size	__func__.6465, 28
 4366              	__func__.6465:
 4367 0264 496F5448 		.ascii	"IoTHubMessage_GetOutputName\000"
 4367      75624D65 
 4367      73736167 
 4367      655F4765 
 4367      744F7574 
 4368              		.type	__func__.6474, %object
 4369              		.size	__func__.6474, 28
 4370              	__func__.6474:
 4371 0280 496F5448 		.ascii	"IoTHubMessage_SetOutputName\000"
 4371      75624D65 
 4371      73736167 
 4371      655F5365 
 4371      744F7574 
 4372              		.type	__func__.6486, %object
 4373              		.size	__func__.6486, 27
 4374              	__func__.6486:
 4375 029c 496F5448 		.ascii	"IoTHubMessage_GetInputName\000"
 4375      75624D65 
 4375      73736167 
 4375      655F4765 
 4375      74496E70 
 4376 02b7 00       		.space	1
 4377              		.type	__func__.6495, %object
 4378              		.size	__func__.6495, 27
 4379              	__func__.6495:
 4380 02b8 496F5448 		.ascii	"IoTHubMessage_SetInputName\000"
 4380      75624D65 
 4380      73736167 
 4380      655F5365 
 4380      74496E70 
 4381 02d3 00       		.space	1
 4382              		.type	__func__.6507, %object
 4383              		.size	__func__.6507, 36
 4384              	__func__.6507:
 4385 02d4 496F5448 		.ascii	"IoTHubMessage_GetConnectionModuleId\000"
 4385      75624D65 
 4385      73736167 
 4385      655F4765 
 4385      74436F6E 
 4386              		.type	__func__.6516, %object
 4387              		.size	__func__.6516, 36
 4388              	__func__.6516:
 4389 02f8 496F5448 		.ascii	"IoTHubMessage_SetConnectionModuleId\000"
 4389      75624D65 
 4389      73736167 
 4389      655F5365 
 4389      74436F6E 
 4390              		.type	__func__.6528, %object
 4391              		.size	__func__.6528, 36
 4392              	__func__.6528:
ARM GAS  C:\Users\Phuong\AppData\Local\Temp\cc4zbCpa.s 			page 99


 4393 031c 496F5448 		.ascii	"IoTHubMessage_GetConnectionDeviceId\000"
 4393      75624D65 
 4393      73736167 
 4393      655F4765 
 4393      74436F6E 
 4394              		.type	__func__.6537, %object
 4395              		.size	__func__.6537, 36
 4396              	__func__.6537:
 4397 0340 496F5448 		.ascii	"IoTHubMessage_SetConnectionDeviceId\000"
 4397      75624D65 
 4397      73736167 
 4397      655F5365 
 4397      74436F6E 
 4398              		.data
 4399              		.align	2
 4400              		.set	.LANCHOR1,. + 0
 4401              		.type	IOTHUB_MESSAGE_RESULTStringStorage, %object
 4402              		.size	IOTHUB_MESSAGE_RESULTStringStorage, 16
 4403              	IOTHUB_MESSAGE_RESULTStringStorage:
 4404 0000 44090000 		.word	.LC164
 4405 0004 58090000 		.word	.LC165
 4406 0008 74090000 		.word	.LC166
 4407 000c 90090000 		.word	.LC167
 4408              		.type	IOTHUBMESSAGE_CONTENT_TYPEStringStorage, %object
 4409              		.size	IOTHUBMESSAGE_CONTENT_TYPEStringStorage, 12
 4410              	IOTHUBMESSAGE_CONTENT_TYPEStringStorage:
 4411 0010 FC080000 		.word	.LC161
 4412 0014 14090000 		.word	.LC162
 4413 0018 2C090000 		.word	.LC163
 4414              		.section	.rodata.str1.4,"aMS",%progbits,1
 4415              		.align	2
 4416              	.LC1:
 4417 0000 536F7572 		.ascii	"Source\\azure_iot_sdk\\iothub_client\\src\\iothub_m"
 4417      63655C61 
 4417      7A757265 
 4417      5F696F74 
 4417      5F73646B 
 4418 002f 65737361 		.ascii	"essage.c\000"
 4418      67652E63 
 4418      00
 4419              	.LC3:
 4420 0038 496E7661 		.ascii	"Invalid argument - source is NULL\000"
 4420      6C696420 
 4420      61726775 
 4420      6D656E74 
 4420      202D2073 
 4421 005a 0000     		.space	2
 4422              	.LC5:
 4423 005c 6D616C6C 		.ascii	"malloc failed\000"
 4423      6F632066 
 4423      61696C65 
 4423      6400
 4424 006a 0000     		.space	2
 4425              	.LC7:
 4426 006c 6D616C6C 		.ascii	"mallocAndStrcpy_s for diagnosticCreationTimeUtc fai"
 4426      6F63416E 
 4426      64537472 
ARM GAS  C:\Users\Phuong\AppData\Local\Temp\cc4zbCpa.s 			page 100


 4426      6370795F 
 4426      7320666F 
 4427 009f 6C656400 		.ascii	"led\000"
 4428 00a3 00       		.space	1
 4429              	.LC9:
 4430 00a4 6D616C6C 		.ascii	"mallocAndStrcpy_s for diagnosticId failed\000"
 4430      6F63416E 
 4430      64537472 
 4430      6370795F 
 4430      7320666F 
 4431 00ce 0000     		.space	2
 4432              	.LC17:
 4433 00d0 496E7661 		.ascii	"Invalid argument - byteArray is NULL\000"
 4433      6C696420 
 4433      61726775 
 4433      6D656E74 
 4433      202D2062 
 4434 00f5 000000   		.space	3
 4435              	.LC19:
 4436 00f8 756E6162 		.ascii	"unable to malloc\000"
 4436      6C652074 
 4436      6F206D61 
 4436      6C6C6F63 
 4436      00
 4437 0109 000000   		.space	3
 4438              	.LC21:
 4439 010c 41747465 		.ascii	"Attempted to create a Hub Message from a NULL point"
 4439      6D707465 
 4439      6420746F 
 4439      20637265 
 4439      61746520 
 4440 013f 65722100 		.ascii	"er!\000"
 4441 0143 00       		.space	1
 4442              	.LC23:
 4443 0144 42554646 		.ascii	"BUFFER_create failed\000"
 4443      45525F63 
 4443      72656174 
 4443      65206661 
 4443      696C6564 
 4444 0159 000000   		.space	3
 4445              	.LC26:
 4446 015c 4D61705F 		.ascii	"Map_Create for properties failed\000"
 4446      43726561 
 4446      74652066 
 4446      6F722070 
 4446      726F7065 
 4447 017d 000000   		.space	3
 4448              	.LC32:
 4449 0180 53545249 		.ascii	"STRING_construct failed\000"
 4449      4E475F63 
 4449      6F6E7374 
 4449      72756374 
 4449      20666169 
 4450              	.LC38:
 4451 0198 696F7448 		.ascii	"iotHubMessageHandle parameter cannot be NULL for Io"
 4451      75624D65 
 4451      73736167 
ARM GAS  C:\Users\Phuong\AppData\Local\Temp\cc4zbCpa.s 			page 101


 4451      6548616E 
 4451      646C6520 
 4452 01cb 54487562 		.ascii	"THubMessage_Clone\000"
 4452      4D657373 
 4452      6167655F 
 4452      436C6F6E 
 4452      6500
 4453 01dd 000000   		.space	3
 4454              	.LC41:
 4455 01e0 756E6162 		.ascii	"unable to Copy messageId\000"
 4455      6C652074 
 4455      6F20436F 
 4455      7079206D 
 4455      65737361 
 4456 01f9 000000   		.space	3
 4457              	.LC43:
 4458 01fc 756E6162 		.ascii	"unable to Copy correlationId\000"
 4458      6C652074 
 4458      6F20436F 
 4458      70792063 
 4458      6F727265 
 4459 0219 000000   		.space	3
 4460              	.LC45:
 4461 021c 756E6162 		.ascii	"unable to copy contentType\000"
 4461      6C652074 
 4461      6F20636F 
 4461      70792063 
 4461      6F6E7465 
 4462 0237 00       		.space	1
 4463              	.LC47:
 4464 0238 756E6162 		.ascii	"unable to copy contentEncoding\000"
 4464      6C652074 
 4464      6F20636F 
 4464      70792063 
 4464      6F6E7465 
 4465 0257 00       		.space	1
 4466              	.LC49:
 4467 0258 756E6162 		.ascii	"unable to copy CloneDiagnosticPropertyData\000"
 4467      6C652074 
 4467      6F20636F 
 4467      70792043 
 4467      6C6F6E65 
 4468 0283 00       		.space	1
 4469              	.LC51:
 4470 0284 756E6162 		.ascii	"unable to copy outputName\000"
 4470      6C652074 
 4470      6F20636F 
 4470      7079206F 
 4470      75747075 
 4471 029e 0000     		.space	2
 4472              	.LC53:
 4473 02a0 756E6162 		.ascii	"unable to copy inputName\000"
 4473      6C652074 
 4473      6F20636F 
 4473      70792069 
 4473      6E707574 
 4474 02b9 000000   		.space	3
ARM GAS  C:\Users\Phuong\AppData\Local\Temp\cc4zbCpa.s 			page 102


 4475              	.LC55:
 4476 02bc 756E6162 		.ascii	"unable to BUFFER_clone\000"
 4476      6C652074 
 4476      6F204255 
 4476      46464552 
 4476      5F636C6F 
 4477 02d3 00       		.space	1
 4478              	.LC57:
 4479 02d4 756E6162 		.ascii	"unable to Map_Clone\000"
 4479      6C652074 
 4479      6F204D61 
 4479      705F436C 
 4479      6F6E6500 
 4480              	.LC59:
 4481 02e8 6661696C 		.ascii	"failed to STRING_clone\000"
 4481      65642074 
 4481      6F205354 
 4481      52494E47 
 4481      5F636C6F 
 4482 02ff 00       		.space	1
 4483              	.LC63:
 4484 0300 696E7661 		.ascii	"invalid parameter (NULL) to IoTHubMessage_GetByteAr"
 4484      6C696420 
 4484      70617261 
 4484      6D657465 
 4484      7220284E 
 4485 0333 72617920 		.ascii	"ray IOTHUB_MESSAGE_HANDLE iotHubMessageHandle=%p, c"
 4485      494F5448 
 4485      55425F4D 
 4485      45535341 
 4485      47455F48 
 4486 0366 6F6E7374 		.ascii	"onst unsigned char** buffer=%p, size_t* size=%p\000"
 4486      20756E73 
 4486      69676E65 
 4486      64206368 
 4486      61722A2A 
 4487 0396 0000     		.space	2
 4488              	.LC65:
 4489 0398 696E7661 		.ascii	"invalid type of message %s\000"
 4489      6C696420 
 4489      74797065 
 4489      206F6620 
 4489      6D657373 
 4490 03b3 00       		.space	1
 4491              	.LC69:
 4492 03b4 696E7661 		.ascii	"invalid arg (NULL) passed to IoTHubMessage_Properti"
 4492      6C696420 
 4492      61726720 
 4492      284E554C 
 4492      4C292070 
 4493 03e7 657300   		.ascii	"es\000"
 4494 03ea 0000     		.space	2
 4495              	.LC73:
 4496 03ec 696E7661 		.ascii	"invalid parameter (NULL) to IoTHubMessage_SetProper"
 4496      6C696420 
 4496      70617261 
 4496      6D657465 
ARM GAS  C:\Users\Phuong\AppData\Local\Temp\cc4zbCpa.s 			page 103


 4496      7220284E 
 4497 041f 74792069 		.ascii	"ty iotHubMessageHandle=%p, key=%p, value=%p\000"
 4497      6F744875 
 4497      624D6573 
 4497      73616765 
 4497      48616E64 
 4498 044b 00       		.space	1
 4499              	.LC75:
 4500 044c 4661696C 		.ascii	"Failure adding property to internal map\000"
 4500      75726520 
 4500      61646469 
 4500      6E672070 
 4500      726F7065 
 4501              	.LC79:
 4502 0474 696E7661 		.ascii	"invalid parameter (NULL) to IoTHubMessage_GetProper"
 4502      6C696420 
 4502      70617261 
 4502      6D657465 
 4502      7220284E 
 4503 04a7 74792069 		.ascii	"ty iotHubMessageHandle=%p, key=%p\000"
 4503      6F744875 
 4503      624D6573 
 4503      73616765 
 4503      48616E64 
 4504 04c9 000000   		.space	3
 4505              	.LC83:
 4506 04cc 696E7661 		.ascii	"invalid arg (NULL) passed to IoTHubMessage_GetCorre"
 4506      6C696420 
 4506      61726720 
 4506      284E554C 
 4506      4C292070 
 4507 04ff 6C617469 		.ascii	"lationId\000"
 4507      6F6E4964 
 4507      00
 4508              	.LC87:
 4509 0508 696E7661 		.ascii	"invalid arg (NULL) passed to IoTHubMessage_SetCorre"
 4509      6C696420 
 4509      61726720 
 4509      284E554C 
 4509      4C292070 
 4510 053b 6C617469 		.ascii	"lationId\000"
 4510      6F6E4964 
 4510      00
 4511              	.LC91:
 4512 0544 696E7661 		.ascii	"invalid arg (NULL) passed to IoTHubMessage_SetMessa"
 4512      6C696420 
 4512      61726720 
 4512      284E554C 
 4512      4C292070 
 4513 0577 67654964 		.ascii	"geId\000"
 4513      00
 4514              	.LC95:
 4515 057c 696E7661 		.ascii	"invalid arg (NULL) passed to IoTHubMessage_GetMessa"
 4515      6C696420 
 4515      61726720 
 4515      284E554C 
 4515      4C292070 
ARM GAS  C:\Users\Phuong\AppData\Local\Temp\cc4zbCpa.s 			page 104


 4516 05af 67654964 		.ascii	"geId\000"
 4516      00
 4517              	.LC99:
 4518 05b4 496E7661 		.ascii	"Invalid argument (iotHubMessageHandle=%p, contentTy"
 4518      6C696420 
 4518      61726775 
 4518      6D656E74 
 4518      2028696F 
 4519 05e7 70653D25 		.ascii	"pe=%p)\000"
 4519      702900
 4520 05ee 0000     		.space	2
 4521              	.LC101:
 4522 05f0 4661696C 		.ascii	"Failed saving a copy of contentType\000"
 4522      65642073 
 4522      6176696E 
 4522      67206120 
 4522      636F7079 
 4523              	.LC105:
 4524 0614 496E7661 		.ascii	"Invalid argument (iotHubMessageHandle is NULL)\000"
 4524      6C696420 
 4524      61726775 
 4524      6D656E74 
 4524      2028696F 
 4525 0643 00       		.space	1
 4526              	.LC109:
 4527 0644 496E7661 		.ascii	"Invalid argument (iotHubMessageHandle=%p, contentEn"
 4527      6C696420 
 4527      61726775 
 4527      6D656E74 
 4527      2028696F 
 4528 0677 636F6469 		.ascii	"coding=%p)\000"
 4528      6E673D25 
 4528      702900
 4529 0682 0000     		.space	2
 4530              	.LC111:
 4531 0684 4661696C 		.ascii	"Failed saving a copy of contentEncoding\000"
 4531      65642073 
 4531      6176696E 
 4531      67206120 
 4531      636F7079 
 4532              	.LC121:
 4533 06ac 496E7661 		.ascii	"Invalid argument (iotHubMessageHandle=%p, diagnosti"
 4533      6C696420 
 4533      61726775 
 4533      6D656E74 
 4533      2028696F 
 4534 06df 63446174 		.ascii	"cData=%p, diagnosticData->diagnosticId=%p, diagnost"
 4534      613D2570 
 4534      2C206469 
 4534      61676E6F 
 4534      73746963 
 4535 0712 69634461 		.ascii	"icData->diagnosticCreationTimeUtc=%p)\000"
 4535      74612D3E 
 4535      64696167 
 4535      6E6F7374 
 4535      69634372 
 4536              	.LC123:
ARM GAS  C:\Users\Phuong\AppData\Local\Temp\cc4zbCpa.s 			page 105


 4537 0738 4661696C 		.ascii	"Failed saving a copy of diagnosticData\000"
 4537      65642073 
 4537      6176696E 
 4537      67206120 
 4537      636F7079 
 4538 075f 00       		.space	1
 4539              	.LC130:
 4540 0760 496E7661 		.ascii	"Invalid argument (iotHubMessageHandle=%p, outputNam"
 4540      6C696420 
 4540      61726775 
 4540      6D656E74 
 4540      2028696F 
 4541 0793 653D2570 		.ascii	"e=%p)\000"
 4541      2900
 4542 0799 000000   		.space	3
 4543              	.LC132:
 4544 079c 4661696C 		.ascii	"Failed saving a copy of outputName\000"
 4544      65642073 
 4544      6176696E 
 4544      67206120 
 4544      636F7079 
 4545 07bf 00       		.space	1
 4546              	.LC139:
 4547 07c0 496E7661 		.ascii	"Invalid argument (iotHubMessageHandle=%p, inputName"
 4547      6C696420 
 4547      61726775 
 4547      6D656E74 
 4547      2028696F 
 4548 07f3 3D257029 		.ascii	"=%p)\000"
 4548      00
 4549              	.LC141:
 4550 07f8 4661696C 		.ascii	"Failed saving a copy of inputName\000"
 4550      65642073 
 4550      6176696E 
 4550      67206120 
 4550      636F7079 
 4551 081a 0000     		.space	2
 4552              	.LC148:
 4553 081c 496E7661 		.ascii	"Invalid argument (iotHubMessageHandle=%p, connectio"
 4553      6C696420 
 4553      61726775 
 4553      6D656E74 
 4553      2028696F 
 4554 084f 6E4D6F64 		.ascii	"nModuleId=%p)\000"
 4554      756C6549 
 4554      643D2570 
 4554      2900
 4555 085d 000000   		.space	3
 4556              	.LC150:
 4557 0860 4661696C 		.ascii	"Failed saving a copy of connectionModuleId\000"
 4557      65642073 
 4557      6176696E 
 4557      67206120 
 4557      636F7079 
 4558 088b 00       		.space	1
 4559              	.LC157:
 4560 088c 496E7661 		.ascii	"Invalid argument (iotHubMessageHandle=%p, connectio"
ARM GAS  C:\Users\Phuong\AppData\Local\Temp\cc4zbCpa.s 			page 106


 4560      6C696420 
 4560      61726775 
 4560      6D656E74 
 4560      2028696F 
 4561 08bf 6E446576 		.ascii	"nDeviceId=%p)\000"
 4561      69636549 
 4561      643D2570 
 4561      2900
 4562 08cd 000000   		.space	3
 4563              	.LC159:
 4564 08d0 4661696C 		.ascii	"Failed saving a copy of connectionDeviceId\000"
 4564      65642073 
 4564      6176696E 
 4564      67206120 
 4564      636F7079 
 4565 08fb 00       		.space	1
 4566              	.LC161:
 4567 08fc 494F5448 		.ascii	"IOTHUBMESSAGE_BYTEARRAY\000"
 4567      55424D45 
 4567      53534147 
 4567      455F4259 
 4567      54454152 
 4568              	.LC162:
 4569 0914 494F5448 		.ascii	"IOTHUBMESSAGE_STRING\000"
 4569      55424D45 
 4569      53534147 
 4569      455F5354 
 4569      52494E47 
 4570 0929 000000   		.space	3
 4571              	.LC163:
 4572 092c 494F5448 		.ascii	"IOTHUBMESSAGE_UNKNOWN\000"
 4572      55424D45 
 4572      53534147 
 4572      455F554E 
 4572      4B4E4F57 
 4573 0942 0000     		.space	2
 4574              	.LC164:
 4575 0944 494F5448 		.ascii	"IOTHUB_MESSAGE_OK\000"
 4575      55425F4D 
 4575      45535341 
 4575      47455F4F 
 4575      4B00
 4576 0956 0000     		.space	2
 4577              	.LC165:
 4578 0958 494F5448 		.ascii	"IOTHUB_MESSAGE_INVALID_ARG\000"
 4578      55425F4D 
 4578      45535341 
 4578      47455F49 
 4578      4E56414C 
 4579 0973 00       		.space	1
 4580              	.LC166:
 4581 0974 494F5448 		.ascii	"IOTHUB_MESSAGE_INVALID_TYPE\000"
 4581      55425F4D 
 4581      45535341 
 4581      47455F49 
 4581      4E56414C 
 4582              	.LC167:
ARM GAS  C:\Users\Phuong\AppData\Local\Temp\cc4zbCpa.s 			page 107


 4583 0990 494F5448 		.ascii	"IOTHUB_MESSAGE_ERROR\000"
 4583      55425F4D 
 4583      45535341 
 4583      47455F45 
 4583      52524F52 
 4584              		.text
 4585              	.Letext0:
 4586              		.file 2 "c:\\program files (x86)\\cypress\\psoc creator\\4.2\\psoc creator\\import\\gnu\\arm\\5.4.
 4587              		.file 3 ".\\Source\\azure_iot_sdk\\c-utility\\inc/azure_c_shared_utility/xlogging.h"
 4588              		.file 4 ".\\Source\\azure_iot_sdk\\c-utility\\inc/azure_c_shared_utility/buffer_.h"
 4589              		.file 5 ".\\Source\\azure_iot_sdk\\c-utility\\inc/azure_c_shared_utility/strings_types.h"
 4590              		.file 6 ".\\Source\\azure_iot_sdk\\c-utility\\inc/azure_c_shared_utility/map.h"
 4591              		.file 7 ".\\Source\\azure_iot_sdk\\iothub_client\\inc/iothub_message.h"
 4592              		.file 8 "c:\\program files (x86)\\cypress\\psoc creator\\4.2\\psoc creator\\import\\gnu\\arm\\5.4.
 4593              		.file 9 ".\\Source\\azure_iot_sdk\\c-utility\\inc/azure_c_shared_utility/strings.h"
 4594              		.file 10 ".\\Source\\azure_iot_sdk\\c-utility\\inc/azure_c_shared_utility/crt_abstractions.h"
 4595              		.file 11 "c:\\program files (x86)\\cypress\\psoc creator\\4.2\\psoc creator\\import\\gnu\\arm\\5.4
 4596              		.section	.debug_info,"",%progbits
 4597              	.Ldebug_info0:
 4598 0000 972D0000 		.4byte	0x2d97
 4599 0004 0400     		.2byte	0x4
 4600 0006 00000000 		.4byte	.Ldebug_abbrev0
 4601 000a 04       		.byte	0x4
 4602 000b 01       		.uleb128 0x1
 4603 000c FC010000 		.4byte	.LASF142
 4604 0010 0C       		.byte	0xc
 4605 0011 A30B0000 		.4byte	.LASF143
 4606 0015 83030000 		.4byte	.LASF144
 4607 0019 F0000000 		.4byte	.Ldebug_ranges0+0xf0
 4608 001d 00000000 		.4byte	0
 4609 0021 00000000 		.4byte	.Ldebug_line0
 4610 0025 02       		.uleb128 0x2
 4611 0026 66040000 		.4byte	.LASF15
 4612 002a 02       		.byte	0x2
 4613 002b D8       		.byte	0xd8
 4614 002c 30000000 		.4byte	0x30
 4615 0030 03       		.uleb128 0x3
 4616 0031 04       		.byte	0x4
 4617 0032 07       		.byte	0x7
 4618 0033 C3000000 		.4byte	.LASF0
 4619 0037 04       		.uleb128 0x4
 4620 0038 04       		.byte	0x4
 4621 0039 05       		.byte	0x5
 4622 003a 696E7400 		.ascii	"int\000"
 4623 003e 03       		.uleb128 0x3
 4624 003f 08       		.byte	0x8
 4625 0040 05       		.byte	0x5
 4626 0041 12060000 		.4byte	.LASF1
 4627 0045 03       		.uleb128 0x3
 4628 0046 08       		.byte	0x8
 4629 0047 04       		.byte	0x4
 4630 0048 C1070000 		.4byte	.LASF2
 4631 004c 03       		.uleb128 0x3
 4632 004d 01       		.byte	0x1
 4633 004e 06       		.byte	0x6
 4634 004f D30A0000 		.4byte	.LASF3
 4635 0053 03       		.uleb128 0x3
ARM GAS  C:\Users\Phuong\AppData\Local\Temp\cc4zbCpa.s 			page 108


 4636 0054 01       		.byte	0x1
 4637 0055 08       		.byte	0x8
 4638 0056 010A0000 		.4byte	.LASF4
 4639 005a 03       		.uleb128 0x3
 4640 005b 02       		.byte	0x2
 4641 005c 05       		.byte	0x5
 4642 005d 3E080000 		.4byte	.LASF5
 4643 0061 03       		.uleb128 0x3
 4644 0062 02       		.byte	0x2
 4645 0063 07       		.byte	0x7
 4646 0064 2D0B0000 		.4byte	.LASF6
 4647 0068 03       		.uleb128 0x3
 4648 0069 04       		.byte	0x4
 4649 006a 05       		.byte	0x5
 4650 006b 60080000 		.4byte	.LASF7
 4651 006f 03       		.uleb128 0x3
 4652 0070 04       		.byte	0x4
 4653 0071 07       		.byte	0x7
 4654 0072 70090000 		.4byte	.LASF8
 4655 0076 03       		.uleb128 0x3
 4656 0077 08       		.byte	0x8
 4657 0078 07       		.byte	0x7
 4658 0079 FE020000 		.4byte	.LASF9
 4659 007d 03       		.uleb128 0x3
 4660 007e 04       		.byte	0x4
 4661 007f 07       		.byte	0x7
 4662 0080 67090000 		.4byte	.LASF10
 4663 0084 05       		.uleb128 0x5
 4664 0085 04       		.byte	0x4
 4665 0086 8A000000 		.4byte	0x8a
 4666 008a 03       		.uleb128 0x3
 4667 008b 01       		.byte	0x1
 4668 008c 08       		.byte	0x8
 4669 008d 0C050000 		.4byte	.LASF11
 4670 0091 05       		.uleb128 0x5
 4671 0092 04       		.byte	0x4
 4672 0093 97000000 		.4byte	0x97
 4673 0097 06       		.uleb128 0x6
 4674 0098 8A000000 		.4byte	0x8a
 4675 009c 07       		.uleb128 0x7
 4676 009d 460A0000 		.4byte	.LASF22
 4677 00a1 01       		.byte	0x1
 4678 00a2 53000000 		.4byte	0x53
 4679 00a6 03       		.byte	0x3
 4680 00a7 22       		.byte	0x22
 4681 00a8 BF000000 		.4byte	0xbf
 4682 00ac 08       		.uleb128 0x8
 4683 00ad F6070000 		.4byte	.LASF12
 4684 00b1 00       		.byte	0
 4685 00b2 08       		.uleb128 0x8
 4686 00b3 A9050000 		.4byte	.LASF13
 4687 00b7 01       		.byte	0x1
 4688 00b8 08       		.uleb128 0x8
 4689 00b9 990A0000 		.4byte	.LASF14
 4690 00bd 02       		.byte	0x2
 4691 00be 00       		.byte	0
 4692 00bf 02       		.uleb128 0x2
ARM GAS  C:\Users\Phuong\AppData\Local\Temp\cc4zbCpa.s 			page 109


 4693 00c0 57060000 		.4byte	.LASF16
 4694 00c4 03       		.byte	0x3
 4695 00c5 27       		.byte	0x27
 4696 00c6 9C000000 		.4byte	0x9c
 4697 00ca 02       		.uleb128 0x2
 4698 00cb 5C090000 		.4byte	.LASF17
 4699 00cf 03       		.byte	0x3
 4700 00d0 2F       		.byte	0x2f
 4701 00d1 D5000000 		.4byte	0xd5
 4702 00d5 05       		.uleb128 0x5
 4703 00d6 04       		.byte	0x4
 4704 00d7 DB000000 		.4byte	0xdb
 4705 00db 09       		.uleb128 0x9
 4706 00dc 00010000 		.4byte	0x100
 4707 00e0 0A       		.uleb128 0xa
 4708 00e1 BF000000 		.4byte	0xbf
 4709 00e5 0A       		.uleb128 0xa
 4710 00e6 91000000 		.4byte	0x91
 4711 00ea 0A       		.uleb128 0xa
 4712 00eb 91000000 		.4byte	0x91
 4713 00ef 0A       		.uleb128 0xa
 4714 00f0 37000000 		.4byte	0x37
 4715 00f4 0A       		.uleb128 0xa
 4716 00f5 30000000 		.4byte	0x30
 4717 00f9 0A       		.uleb128 0xa
 4718 00fa 91000000 		.4byte	0x91
 4719 00fe 0B       		.uleb128 0xb
 4720 00ff 00       		.byte	0
 4721 0100 02       		.uleb128 0x2
 4722 0101 680B0000 		.4byte	.LASF18
 4723 0105 04       		.byte	0x4
 4724 0106 12       		.byte	0x12
 4725 0107 0B010000 		.4byte	0x10b
 4726 010b 05       		.uleb128 0x5
 4727 010c 04       		.byte	0x4
 4728 010d 11010000 		.4byte	0x111
 4729 0111 0C       		.uleb128 0xc
 4730 0112 67050000 		.4byte	.LASF20
 4731 0116 02       		.uleb128 0x2
 4732 0117 D9010000 		.4byte	.LASF19
 4733 011b 05       		.byte	0x5
 4734 011c 07       		.byte	0x7
 4735 011d 21010000 		.4byte	0x121
 4736 0121 05       		.uleb128 0x5
 4737 0122 04       		.byte	0x4
 4738 0123 27010000 		.4byte	0x127
 4739 0127 0C       		.uleb128 0xc
 4740 0128 B5050000 		.4byte	.LASF21
 4741 012c 07       		.uleb128 0x7
 4742 012d 73080000 		.4byte	.LASF23
 4743 0131 01       		.byte	0x1
 4744 0132 53000000 		.4byte	0x53
 4745 0136 06       		.byte	0x6
 4746 0137 24       		.byte	0x24
 4747 0138 61010000 		.4byte	0x161
 4748 013c 08       		.uleb128 0x8
 4749 013d 7E070000 		.4byte	.LASF24
ARM GAS  C:\Users\Phuong\AppData\Local\Temp\cc4zbCpa.s 			page 110


 4750 0141 00       		.byte	0
 4751 0142 08       		.uleb128 0x8
 4752 0143 69080000 		.4byte	.LASF25
 4753 0147 01       		.byte	0x1
 4754 0148 08       		.uleb128 0x8
 4755 0149 34000000 		.4byte	.LASF26
 4756 014d 02       		.byte	0x2
 4757 014e 08       		.uleb128 0x8
 4758 014f DB0B0000 		.4byte	.LASF27
 4759 0153 03       		.byte	0x3
 4760 0154 08       		.uleb128 0x8
 4761 0155 6D040000 		.4byte	.LASF28
 4762 0159 04       		.byte	0x4
 4763 015a 08       		.uleb128 0x8
 4764 015b CB060000 		.4byte	.LASF29
 4765 015f 05       		.byte	0x5
 4766 0160 00       		.byte	0
 4767 0161 02       		.uleb128 0x2
 4768 0162 15030000 		.4byte	.LASF30
 4769 0166 06       		.byte	0x6
 4770 0167 26       		.byte	0x26
 4771 0168 6C010000 		.4byte	0x16c
 4772 016c 05       		.uleb128 0x5
 4773 016d 04       		.byte	0x4
 4774 016e 72010000 		.4byte	0x172
 4775 0172 0C       		.uleb128 0xc
 4776 0173 E90B0000 		.4byte	.LASF31
 4777 0177 07       		.uleb128 0x7
 4778 0178 7D040000 		.4byte	.LASF32
 4779 017c 01       		.byte	0x1
 4780 017d 53000000 		.4byte	0x53
 4781 0181 07       		.byte	0x7
 4782 0182 21       		.byte	0x21
 4783 0183 A0010000 		.4byte	0x1a0
 4784 0187 08       		.uleb128 0x8
 4785 0188 7A0C0000 		.4byte	.LASF33
 4786 018c 00       		.byte	0
 4787 018d 08       		.uleb128 0x8
 4788 018e 120B0000 		.4byte	.LASF34
 4789 0192 01       		.byte	0x1
 4790 0193 08       		.uleb128 0x8
 4791 0194 1A070000 		.4byte	.LASF35
 4792 0198 02       		.byte	0x2
 4793 0199 08       		.uleb128 0x8
 4794 019a 570A0000 		.4byte	.LASF36
 4795 019e 03       		.byte	0x3
 4796 019f 00       		.byte	0
 4797 01a0 02       		.uleb128 0x2
 4798 01a1 A60A0000 		.4byte	.LASF37
 4799 01a5 07       		.byte	0x7
 4800 01a6 21       		.byte	0x21
 4801 01a7 77010000 		.4byte	0x177
 4802 01ab 07       		.uleb128 0x7
 4803 01ac FB060000 		.4byte	.LASF38
 4804 01b0 01       		.byte	0x1
 4805 01b1 53000000 		.4byte	0x53
 4806 01b5 07       		.byte	0x7
ARM GAS  C:\Users\Phuong\AppData\Local\Temp\cc4zbCpa.s 			page 111


 4807 01b6 2B       		.byte	0x2b
 4808 01b7 CE010000 		.4byte	0x1ce
 4809 01bb 08       		.uleb128 0x8
 4810 01bc 48080000 		.4byte	.LASF39
 4811 01c0 00       		.byte	0
 4812 01c1 08       		.uleb128 0x8
 4813 01c2 E7010000 		.4byte	.LASF40
 4814 01c6 01       		.byte	0x1
 4815 01c7 08       		.uleb128 0x8
 4816 01c8 85070000 		.4byte	.LASF41
 4817 01cc 02       		.byte	0x2
 4818 01cd 00       		.byte	0
 4819 01ce 02       		.uleb128 0x2
 4820 01cf C0050000 		.4byte	.LASF42
 4821 01d3 07       		.byte	0x7
 4822 01d4 2B       		.byte	0x2b
 4823 01d5 AB010000 		.4byte	0x1ab
 4824 01d9 02       		.uleb128 0x2
 4825 01da 5A070000 		.4byte	.LASF43
 4826 01de 07       		.byte	0x7
 4827 01df 2D       		.byte	0x2d
 4828 01e0 E4010000 		.4byte	0x1e4
 4829 01e4 05       		.uleb128 0x5
 4830 01e5 04       		.byte	0x4
 4831 01e6 EA010000 		.4byte	0x1ea
 4832 01ea 0D       		.uleb128 0xd
 4833 01eb 1C0A0000 		.4byte	.LASF56
 4834 01ef 30       		.byte	0x30
 4835 01f0 01       		.byte	0x1
 4836 01f1 12       		.byte	0x12
 4837 01f2 87020000 		.4byte	0x287
 4838 01f6 0E       		.uleb128 0xe
 4839 01f7 66000000 		.4byte	.LASF44
 4840 01fb 01       		.byte	0x1
 4841 01fc 14       		.byte	0x14
 4842 01fd CE010000 		.4byte	0x1ce
 4843 0201 00       		.byte	0
 4844 0202 0E       		.uleb128 0xe
 4845 0203 7D030000 		.4byte	.LASF45
 4846 0207 01       		.byte	0x1
 4847 0208 19       		.byte	0x19
 4848 0209 C8020000 		.4byte	0x2c8
 4849 020d 04       		.byte	0x4
 4850 020e 0E       		.uleb128 0xe
 4851 020f 540B0000 		.4byte	.LASF46
 4852 0213 01       		.byte	0x1
 4853 0214 1A       		.byte	0x1a
 4854 0215 61010000 		.4byte	0x161
 4855 0219 08       		.byte	0x8
 4856 021a 0E       		.uleb128 0xe
 4857 021b 51030000 		.4byte	.LASF47
 4858 021f 01       		.byte	0x1
 4859 0220 1B       		.byte	0x1b
 4860 0221 84000000 		.4byte	0x84
 4861 0225 0C       		.byte	0xc
 4862 0226 0E       		.uleb128 0xe
 4863 0227 C1020000 		.4byte	.LASF48
ARM GAS  C:\Users\Phuong\AppData\Local\Temp\cc4zbCpa.s 			page 112


 4864 022b 01       		.byte	0x1
 4865 022c 1C       		.byte	0x1c
 4866 022d 84000000 		.4byte	0x84
 4867 0231 10       		.byte	0x10
 4868 0232 0E       		.uleb128 0xe
 4869 0233 D1080000 		.4byte	.LASF49
 4870 0237 01       		.byte	0x1
 4871 0238 1D       		.byte	0x1d
 4872 0239 84000000 		.4byte	0x84
 4873 023d 14       		.byte	0x14
 4874 023e 0E       		.uleb128 0xe
 4875 023f 25050000 		.4byte	.LASF50
 4876 0243 01       		.byte	0x1
 4877 0244 1E       		.byte	0x1e
 4878 0245 84000000 		.4byte	0x84
 4879 0249 18       		.byte	0x18
 4880 024a 0E       		.uleb128 0xe
 4881 024b 3B0A0000 		.4byte	.LASF51
 4882 024f 01       		.byte	0x1
 4883 0250 1F       		.byte	0x1f
 4884 0251 84000000 		.4byte	0x84
 4885 0255 1C       		.byte	0x1c
 4886 0256 0E       		.uleb128 0xe
 4887 0257 C7080000 		.4byte	.LASF52
 4888 025b 01       		.byte	0x1
 4889 025c 20       		.byte	0x20
 4890 025d 84000000 		.4byte	0x84
 4891 0261 20       		.byte	0x20
 4892 0262 0E       		.uleb128 0xe
 4893 0263 DB050000 		.4byte	.LASF53
 4894 0267 01       		.byte	0x1
 4895 0268 21       		.byte	0x21
 4896 0269 84000000 		.4byte	0x84
 4897 026d 24       		.byte	0x24
 4898 026e 0E       		.uleb128 0xe
 4899 026f 44060000 		.4byte	.LASF54
 4900 0273 01       		.byte	0x1
 4901 0274 22       		.byte	0x22
 4902 0275 84000000 		.4byte	0x84
 4903 0279 28       		.byte	0x28
 4904 027a 0E       		.uleb128 0xe
 4905 027b 9A050000 		.4byte	.LASF55
 4906 027f 01       		.byte	0x1
 4907 0280 23       		.byte	0x23
 4908 0281 B7020000 		.4byte	0x2b7
 4909 0285 2C       		.byte	0x2c
 4910 0286 00       		.byte	0
 4911 0287 0D       		.uleb128 0xd
 4912 0288 95020000 		.4byte	.LASF57
 4913 028c 08       		.byte	0x8
 4914 028d 07       		.byte	0x7
 4915 028e 30       		.byte	0x30
 4916 028f AC020000 		.4byte	0x2ac
 4917 0293 0E       		.uleb128 0xe
 4918 0294 17090000 		.4byte	.LASF58
 4919 0298 07       		.byte	0x7
 4920 0299 32       		.byte	0x32
ARM GAS  C:\Users\Phuong\AppData\Local\Temp\cc4zbCpa.s 			page 113


 4921 029a 84000000 		.4byte	0x84
 4922 029e 00       		.byte	0
 4923 029f 0E       		.uleb128 0xe
 4924 02a0 F2040000 		.4byte	.LASF59
 4925 02a4 07       		.byte	0x7
 4926 02a5 33       		.byte	0x33
 4927 02a6 84000000 		.4byte	0x84
 4928 02aa 04       		.byte	0x4
 4929 02ab 00       		.byte	0
 4930 02ac 02       		.uleb128 0x2
 4931 02ad DB000000 		.4byte	.LASF60
 4932 02b1 07       		.byte	0x7
 4933 02b2 34       		.byte	0x34
 4934 02b3 87020000 		.4byte	0x287
 4935 02b7 02       		.uleb128 0x2
 4936 02b8 03080000 		.4byte	.LASF61
 4937 02bc 07       		.byte	0x7
 4938 02bd 34       		.byte	0x34
 4939 02be C2020000 		.4byte	0x2c2
 4940 02c2 05       		.uleb128 0x5
 4941 02c3 04       		.byte	0x4
 4942 02c4 87020000 		.4byte	0x287
 4943 02c8 0F       		.uleb128 0xf
 4944 02c9 04       		.byte	0x4
 4945 02ca 01       		.byte	0x1
 4946 02cb 15       		.byte	0x15
 4947 02cc E7020000 		.4byte	0x2e7
 4948 02d0 10       		.uleb128 0x10
 4949 02d1 73030000 		.4byte	.LASF62
 4950 02d5 01       		.byte	0x1
 4951 02d6 17       		.byte	0x17
 4952 02d7 00010000 		.4byte	0x100
 4953 02db 10       		.uleb128 0x10
 4954 02dc 35050000 		.4byte	.LASF63
 4955 02e0 01       		.byte	0x1
 4956 02e1 18       		.byte	0x18
 4957 02e2 16010000 		.4byte	0x116
 4958 02e6 00       		.byte	0
 4959 02e7 02       		.uleb128 0x2
 4960 02e8 29060000 		.4byte	.LASF64
 4961 02ec 01       		.byte	0x1
 4962 02ed 24       		.byte	0x24
 4963 02ee EA010000 		.4byte	0x1ea
 4964 02f2 11       		.uleb128 0x11
 4965 02f3 11050000 		.4byte	.LASF68
 4966 02f7 01       		.byte	0x1
 4967 02f8 26       		.byte	0x26
 4968 02f9 39030000 		.4byte	0x339
 4969 02fd 00000000 		.4byte	.LFB5
 4970 0301 22000000 		.4byte	.LFE5-.LFB5
 4971 0305 01       		.uleb128 0x1
 4972 0306 9C       		.byte	0x9c
 4973 0307 39030000 		.4byte	0x339
 4974 030b 12       		.uleb128 0x12
 4975 030c 980B0000 		.4byte	.LASF70
 4976 0310 01       		.byte	0x1
 4977 0311 26       		.byte	0x26
ARM GAS  C:\Users\Phuong\AppData\Local\Temp\cc4zbCpa.s 			page 114


 4978 0312 91000000 		.4byte	0x91
 4979 0316 00000000 		.4byte	.LLST0
 4980 031a 13       		.uleb128 0x13
 4981 031b EA020000 		.4byte	.LASF65
 4982 031f 01       		.byte	0x1
 4983 0320 28       		.byte	0x28
 4984 0321 39030000 		.4byte	0x339
 4985 0325 21000000 		.4byte	.LLST1
 4986 0329 13       		.uleb128 0x13
 4987 032a 5D000000 		.4byte	.LASF66
 4988 032e 01       		.byte	0x1
 4989 032f 29       		.byte	0x29
 4990 0330 91000000 		.4byte	0x91
 4991 0334 40000000 		.4byte	.LLST2
 4992 0338 00       		.byte	0
 4993 0339 03       		.uleb128 0x3
 4994 033a 01       		.byte	0x1
 4995 033b 02       		.byte	0x2
 4996 033c 97040000 		.4byte	.LASF67
 4997 0340 11       		.uleb128 0x11
 4998 0341 DD060000 		.4byte	.LASF69
 4999 0345 01       		.byte	0x1
 5000 0346 38       		.byte	0x38
 5001 0347 37000000 		.4byte	0x37
 5002 034b 00000000 		.4byte	.LFB6
 5003 034f 22000000 		.4byte	.LFE6-.LFB6
 5004 0353 01       		.uleb128 0x1
 5005 0354 9C       		.byte	0x9c
 5006 0355 AA030000 		.4byte	0x3aa
 5007 0359 12       		.uleb128 0x12
 5008 035a 9D090000 		.4byte	.LASF71
 5009 035e 01       		.byte	0x1
 5010 035f 38       		.byte	0x38
 5011 0360 91000000 		.4byte	0x91
 5012 0364 69000000 		.4byte	.LLST3
 5013 0368 12       		.uleb128 0x12
 5014 0369 20060000 		.4byte	.LASF72
 5015 036d 01       		.byte	0x1
 5016 036e 38       		.byte	0x38
 5017 036f 91000000 		.4byte	0x91
 5018 0373 8A000000 		.4byte	.LLST4
 5019 0377 14       		.uleb128 0x14
 5020 0378 EA020000 		.4byte	.LASF65
 5021 037c 01       		.byte	0x1
 5022 037d 3A       		.byte	0x3a
 5023 037e 37000000 		.4byte	0x37
 5024 0382 01       		.uleb128 0x1
 5025 0383 50       		.byte	0x50
 5026 0384 15       		.uleb128 0x15
 5027 0385 08000000 		.4byte	.LVL9
 5028 0389 F2020000 		.4byte	0x2f2
 5029 038d 99030000 		.4byte	0x399
 5030 0391 16       		.uleb128 0x16
 5031 0392 01       		.uleb128 0x1
 5032 0393 50       		.byte	0x50
 5033 0394 03       		.uleb128 0x3
 5034 0395 F3       		.byte	0xf3
ARM GAS  C:\Users\Phuong\AppData\Local\Temp\cc4zbCpa.s 			page 115


 5035 0396 01       		.uleb128 0x1
 5036 0397 50       		.byte	0x50
 5037 0398 00       		.byte	0
 5038 0399 17       		.uleb128 0x17
 5039 039a 12000000 		.4byte	.LVL10
 5040 039e F2020000 		.4byte	0x2f2
 5041 03a2 16       		.uleb128 0x16
 5042 03a3 01       		.uleb128 0x1
 5043 03a4 50       		.byte	0x50
 5044 03a5 02       		.uleb128 0x2
 5045 03a6 74       		.byte	0x74
 5046 03a7 00       		.sleb128 0
 5047 03a8 00       		.byte	0
 5048 03a9 00       		.byte	0
 5049 03aa 18       		.uleb128 0x18
 5050 03ab D6090000 		.4byte	.LASF74
 5051 03af 01       		.byte	0x1
 5052 03b0 46       		.byte	0x46
 5053 03b1 00000000 		.4byte	.LFB7
 5054 03b5 1A000000 		.4byte	.LFE7-.LFB7
 5055 03b9 01       		.uleb128 0x1
 5056 03ba 9C       		.byte	0x9c
 5057 03bb F1030000 		.4byte	0x3f1
 5058 03bf 12       		.uleb128 0x12
 5059 03c0 28010000 		.4byte	.LASF73
 5060 03c4 01       		.byte	0x1
 5061 03c5 46       		.byte	0x46
 5062 03c6 B7020000 		.4byte	0x2b7
 5063 03ca B6000000 		.4byte	.LLST5
 5064 03ce 19       		.uleb128 0x19
 5065 03cf 0C000000 		.4byte	.LVL15
 5066 03d3 B52C0000 		.4byte	0x2cb5
 5067 03d7 19       		.uleb128 0x19
 5068 03d8 12000000 		.4byte	.LVL16
 5069 03dc B52C0000 		.4byte	0x2cb5
 5070 03e0 17       		.uleb128 0x17
 5071 03e1 18000000 		.4byte	.LVL17
 5072 03e5 B52C0000 		.4byte	0x2cb5
 5073 03e9 16       		.uleb128 0x16
 5074 03ea 01       		.uleb128 0x1
 5075 03eb 50       		.byte	0x50
 5076 03ec 02       		.uleb128 0x2
 5077 03ed 74       		.byte	0x74
 5078 03ee 00       		.sleb128 0
 5079 03ef 00       		.byte	0
 5080 03f0 00       		.byte	0
 5081 03f1 18       		.uleb128 0x18
 5082 03f2 A4090000 		.4byte	.LASF75
 5083 03f6 01       		.byte	0x1
 5084 03f7 50       		.byte	0x50
 5085 03f8 00000000 		.4byte	.LFB8
 5086 03fc 66000000 		.4byte	.LFE8-.LFB8
 5087 0400 01       		.uleb128 0x1
 5088 0401 9C       		.byte	0x9c
 5089 0402 92040000 		.4byte	0x492
 5090 0406 12       		.uleb128 0x12
 5091 0407 D0000000 		.4byte	.LASF76
ARM GAS  C:\Users\Phuong\AppData\Local\Temp\cc4zbCpa.s 			page 116


 5092 040b 01       		.byte	0x1
 5093 040c 50       		.byte	0x50
 5094 040d 92040000 		.4byte	0x492
 5095 0411 E2000000 		.4byte	.LLST6
 5096 0415 19       		.uleb128 0x19
 5097 0416 10000000 		.4byte	.LVL21
 5098 041a C02C0000 		.4byte	0x2cc0
 5099 041e 19       		.uleb128 0x19
 5100 041f 1C000000 		.4byte	.LVL24
 5101 0423 CB2C0000 		.4byte	0x2ccb
 5102 0427 19       		.uleb128 0x19
 5103 0428 22000000 		.4byte	.LVL25
 5104 042c D62C0000 		.4byte	0x2cd6
 5105 0430 19       		.uleb128 0x19
 5106 0431 28000000 		.4byte	.LVL26
 5107 0435 B52C0000 		.4byte	0x2cb5
 5108 0439 19       		.uleb128 0x19
 5109 043a 32000000 		.4byte	.LVL27
 5110 043e B52C0000 		.4byte	0x2cb5
 5111 0442 19       		.uleb128 0x19
 5112 0443 3A000000 		.4byte	.LVL28
 5113 0447 B52C0000 		.4byte	0x2cb5
 5114 044b 19       		.uleb128 0x19
 5115 044c 40000000 		.4byte	.LVL29
 5116 0450 B52C0000 		.4byte	0x2cb5
 5117 0454 19       		.uleb128 0x19
 5118 0455 46000000 		.4byte	.LVL30
 5119 0459 AA030000 		.4byte	0x3aa
 5120 045d 19       		.uleb128 0x19
 5121 045e 4C000000 		.4byte	.LVL31
 5122 0462 B52C0000 		.4byte	0x2cb5
 5123 0466 19       		.uleb128 0x19
 5124 0467 52000000 		.4byte	.LVL32
 5125 046b B52C0000 		.4byte	0x2cb5
 5126 046f 19       		.uleb128 0x19
 5127 0470 58000000 		.4byte	.LVL33
 5128 0474 B52C0000 		.4byte	0x2cb5
 5129 0478 19       		.uleb128 0x19
 5130 0479 5E000000 		.4byte	.LVL34
 5131 047d B52C0000 		.4byte	0x2cb5
 5132 0481 17       		.uleb128 0x17
 5133 0482 64000000 		.4byte	.LVL35
 5134 0486 B52C0000 		.4byte	0x2cb5
 5135 048a 16       		.uleb128 0x16
 5136 048b 01       		.uleb128 0x1
 5137 048c 50       		.byte	0x50
 5138 048d 02       		.uleb128 0x2
 5139 048e 74       		.byte	0x74
 5140 048f 00       		.sleb128 0
 5141 0490 00       		.byte	0
 5142 0491 00       		.byte	0
 5143 0492 05       		.uleb128 0x5
 5144 0493 04       		.byte	0x4
 5145 0494 E7020000 		.4byte	0x2e7
 5146 0498 11       		.uleb128 0x11
 5147 0499 B0040000 		.4byte	.LASF77
 5148 049d 01       		.byte	0x1
ARM GAS  C:\Users\Phuong\AppData\Local\Temp\cc4zbCpa.s 			page 117


 5149 049e 6A       		.byte	0x6a
 5150 049f B7020000 		.4byte	0x2b7
 5151 04a3 00000000 		.4byte	.LFB9
 5152 04a7 E0000000 		.4byte	.LFE9-.LFB9
 5153 04ab 01       		.uleb128 0x1
 5154 04ac 9C       		.byte	0x9c
 5155 04ad AF060000 		.4byte	0x6af
 5156 04b1 12       		.uleb128 0x12
 5157 04b2 31090000 		.4byte	.LASF78
 5158 04b6 01       		.byte	0x1
 5159 04b7 6A       		.byte	0x6a
 5160 04b8 AF060000 		.4byte	0x6af
 5161 04bc 24010000 		.4byte	.LLST7
 5162 04c0 13       		.uleb128 0x13
 5163 04c1 EA020000 		.4byte	.LASF65
 5164 04c5 01       		.byte	0x1
 5165 04c6 6C       		.byte	0x6c
 5166 04c7 B7020000 		.4byte	0x2b7
 5167 04cb B1010000 		.4byte	.LLST8
 5168 04cf 1A       		.uleb128 0x1a
 5169 04d0 5F0B0000 		.4byte	.LASF87
 5170 04d4 CA060000 		.4byte	0x6ca
 5171 04d8 05       		.uleb128 0x5
 5172 04d9 03       		.byte	0x3
 5173 04da 00000000 		.4byte	__func__.6199
 5174 04de 1B       		.uleb128 0x1b
 5175 04df 08000000 		.4byte	.LBB2
 5176 04e3 1A000000 		.4byte	.LBE2-.LBB2
 5177 04e7 38050000 		.4byte	0x538
 5178 04eb 1C       		.uleb128 0x1c
 5179 04ec 6C00     		.ascii	"l\000"
 5180 04ee 01       		.byte	0x1
 5181 04ef 6F       		.byte	0x6f
 5182 04f0 CA000000 		.4byte	0xca
 5183 04f4 2A020000 		.4byte	.LLST9
 5184 04f8 19       		.uleb128 0x19
 5185 04f9 0C000000 		.4byte	.LVL39
 5186 04fd E12C0000 		.4byte	0x2ce1
 5187 0501 1D       		.uleb128 0x1d
 5188 0502 22000000 		.4byte	.LVL42
 5189 0506 02       		.uleb128 0x2
 5190 0507 74       		.byte	0x74
 5191 0508 00       		.sleb128 0
 5192 0509 16       		.uleb128 0x16
 5193 050a 01       		.uleb128 0x1
 5194 050b 50       		.byte	0x50
 5195 050c 01       		.uleb128 0x1
 5196 050d 30       		.byte	0x30
 5197 050e 16       		.uleb128 0x16
 5198 050f 01       		.uleb128 0x1
 5199 0510 51       		.byte	0x51
 5200 0511 05       		.uleb128 0x5
 5201 0512 03       		.byte	0x3
 5202 0513 00000000 		.4byte	.LC1
 5203 0517 16       		.uleb128 0x16
 5204 0518 01       		.uleb128 0x1
 5205 0519 52       		.byte	0x52
ARM GAS  C:\Users\Phuong\AppData\Local\Temp\cc4zbCpa.s 			page 118


 5206 051a 05       		.uleb128 0x5
 5207 051b 03       		.byte	0x3
 5208 051c 00000000 		.4byte	.LANCHOR0
 5209 0520 16       		.uleb128 0x16
 5210 0521 01       		.uleb128 0x1
 5211 0522 53       		.byte	0x53
 5212 0523 02       		.uleb128 0x2
 5213 0524 08       		.byte	0x8
 5214 0525 6F       		.byte	0x6f
 5215 0526 16       		.uleb128 0x16
 5216 0527 02       		.uleb128 0x2
 5217 0528 7D       		.byte	0x7d
 5218 0529 00       		.sleb128 0
 5219 052a 01       		.uleb128 0x1
 5220 052b 31       		.byte	0x31
 5221 052c 16       		.uleb128 0x16
 5222 052d 02       		.uleb128 0x2
 5223 052e 7D       		.byte	0x7d
 5224 052f 04       		.sleb128 4
 5225 0530 05       		.uleb128 0x5
 5226 0531 03       		.byte	0x3
 5227 0532 38000000 		.4byte	.LC3
 5228 0536 00       		.byte	0
 5229 0537 00       		.byte	0
 5230 0538 1B       		.uleb128 0x1b
 5231 0539 30000000 		.4byte	.LBB3
 5232 053d 1C000000 		.4byte	.LBE3-.LBB3
 5233 0541 92050000 		.4byte	0x592
 5234 0545 1C       		.uleb128 0x1c
 5235 0546 6C00     		.ascii	"l\000"
 5236 0548 01       		.byte	0x1
 5237 0549 76       		.byte	0x76
 5238 054a CA000000 		.4byte	0xca
 5239 054e 53020000 		.4byte	.LLST10
 5240 0552 19       		.uleb128 0x19
 5241 0553 34000000 		.4byte	.LVL48
 5242 0557 E12C0000 		.4byte	0x2ce1
 5243 055b 1D       		.uleb128 0x1d
 5244 055c 4A000000 		.4byte	.LVL51
 5245 0560 02       		.uleb128 0x2
 5246 0561 75       		.byte	0x75
 5247 0562 00       		.sleb128 0
 5248 0563 16       		.uleb128 0x16
 5249 0564 01       		.uleb128 0x1
 5250 0565 50       		.byte	0x50
 5251 0566 01       		.uleb128 0x1
 5252 0567 30       		.byte	0x30
 5253 0568 16       		.uleb128 0x16
 5254 0569 01       		.uleb128 0x1
 5255 056a 51       		.byte	0x51
 5256 056b 05       		.uleb128 0x5
 5257 056c 03       		.byte	0x3
 5258 056d 00000000 		.4byte	.LC1
 5259 0571 16       		.uleb128 0x16
 5260 0572 01       		.uleb128 0x1
 5261 0573 52       		.byte	0x52
 5262 0574 05       		.uleb128 0x5
ARM GAS  C:\Users\Phuong\AppData\Local\Temp\cc4zbCpa.s 			page 119


 5263 0575 03       		.byte	0x3
 5264 0576 00000000 		.4byte	.LANCHOR0
 5265 057a 16       		.uleb128 0x16
 5266 057b 01       		.uleb128 0x1
 5267 057c 53       		.byte	0x53
 5268 057d 02       		.uleb128 0x2
 5269 057e 08       		.byte	0x8
 5270 057f 76       		.byte	0x76
 5271 0580 16       		.uleb128 0x16
 5272 0581 02       		.uleb128 0x2
 5273 0582 7D       		.byte	0x7d
 5274 0583 00       		.sleb128 0
 5275 0584 01       		.uleb128 0x1
 5276 0585 31       		.byte	0x31
 5277 0586 16       		.uleb128 0x16
 5278 0587 02       		.uleb128 0x2
 5279 0588 7D       		.byte	0x7d
 5280 0589 04       		.sleb128 4
 5281 058a 05       		.uleb128 0x5
 5282 058b 03       		.byte	0x3
 5283 058c 5C000000 		.4byte	.LC5
 5284 0590 00       		.byte	0
 5285 0591 00       		.byte	0
 5286 0592 1B       		.uleb128 0x1b
 5287 0593 62000000 		.4byte	.LBB4
 5288 0597 1A000000 		.4byte	.LBE4-.LBB4
 5289 059b EC050000 		.4byte	0x5ec
 5290 059f 1C       		.uleb128 0x1c
 5291 05a0 6C00     		.ascii	"l\000"
 5292 05a2 01       		.byte	0x1
 5293 05a3 7E       		.byte	0x7e
 5294 05a4 CA000000 		.4byte	0xca
 5295 05a8 71020000 		.4byte	.LLST11
 5296 05ac 19       		.uleb128 0x19
 5297 05ad 66000000 		.4byte	.LVL55
 5298 05b1 E12C0000 		.4byte	0x2ce1
 5299 05b5 1D       		.uleb128 0x1d
 5300 05b6 7C000000 		.4byte	.LVL58
 5301 05ba 02       		.uleb128 0x2
 5302 05bb 75       		.byte	0x75
 5303 05bc 00       		.sleb128 0
 5304 05bd 16       		.uleb128 0x16
 5305 05be 01       		.uleb128 0x1
 5306 05bf 50       		.byte	0x50
 5307 05c0 01       		.uleb128 0x1
 5308 05c1 30       		.byte	0x30
 5309 05c2 16       		.uleb128 0x16
 5310 05c3 01       		.uleb128 0x1
 5311 05c4 51       		.byte	0x51
 5312 05c5 05       		.uleb128 0x5
 5313 05c6 03       		.byte	0x3
 5314 05c7 00000000 		.4byte	.LC1
 5315 05cb 16       		.uleb128 0x16
 5316 05cc 01       		.uleb128 0x1
 5317 05cd 52       		.byte	0x52
 5318 05ce 05       		.uleb128 0x5
 5319 05cf 03       		.byte	0x3
ARM GAS  C:\Users\Phuong\AppData\Local\Temp\cc4zbCpa.s 			page 120


 5320 05d0 00000000 		.4byte	.LANCHOR0
 5321 05d4 16       		.uleb128 0x16
 5322 05d5 01       		.uleb128 0x1
 5323 05d6 53       		.byte	0x53
 5324 05d7 02       		.uleb128 0x2
 5325 05d8 08       		.byte	0x8
 5326 05d9 7E       		.byte	0x7e
 5327 05da 16       		.uleb128 0x16
 5328 05db 02       		.uleb128 0x2
 5329 05dc 7D       		.byte	0x7d
 5330 05dd 00       		.sleb128 0
 5331 05de 01       		.uleb128 0x1
 5332 05df 31       		.byte	0x31
 5333 05e0 16       		.uleb128 0x16
 5334 05e1 02       		.uleb128 0x2
 5335 05e2 7D       		.byte	0x7d
 5336 05e3 04       		.sleb128 4
 5337 05e4 05       		.uleb128 0x5
 5338 05e5 03       		.byte	0x3
 5339 05e6 6C000000 		.4byte	.LC7
 5340 05ea 00       		.byte	0
 5341 05eb 00       		.byte	0
 5342 05ec 1B       		.uleb128 0x1b
 5343 05ed 96000000 		.4byte	.LBB5
 5344 05f1 1A000000 		.4byte	.LBE5-.LBB5
 5345 05f5 46060000 		.4byte	0x646
 5346 05f9 1C       		.uleb128 0x1c
 5347 05fa 6C00     		.ascii	"l\000"
 5348 05fc 01       		.byte	0x1
 5349 05fd 84       		.byte	0x84
 5350 05fe CA000000 		.4byte	0xca
 5351 0602 8F020000 		.4byte	.LLST12
 5352 0606 19       		.uleb128 0x19
 5353 0607 9A000000 		.4byte	.LVL62
 5354 060b E12C0000 		.4byte	0x2ce1
 5355 060f 1D       		.uleb128 0x1d
 5356 0610 B0000000 		.4byte	.LVL65
 5357 0614 02       		.uleb128 0x2
 5358 0615 75       		.byte	0x75
 5359 0616 00       		.sleb128 0
 5360 0617 16       		.uleb128 0x16
 5361 0618 01       		.uleb128 0x1
 5362 0619 50       		.byte	0x50
 5363 061a 01       		.uleb128 0x1
 5364 061b 30       		.byte	0x30
 5365 061c 16       		.uleb128 0x16
 5366 061d 01       		.uleb128 0x1
 5367 061e 51       		.byte	0x51
 5368 061f 05       		.uleb128 0x5
 5369 0620 03       		.byte	0x3
 5370 0621 00000000 		.4byte	.LC1
 5371 0625 16       		.uleb128 0x16
 5372 0626 01       		.uleb128 0x1
 5373 0627 52       		.byte	0x52
 5374 0628 05       		.uleb128 0x5
 5375 0629 03       		.byte	0x3
 5376 062a 00000000 		.4byte	.LANCHOR0
ARM GAS  C:\Users\Phuong\AppData\Local\Temp\cc4zbCpa.s 			page 121


 5377 062e 16       		.uleb128 0x16
 5378 062f 01       		.uleb128 0x1
 5379 0630 53       		.byte	0x53
 5380 0631 02       		.uleb128 0x2
 5381 0632 08       		.byte	0x8
 5382 0633 84       		.byte	0x84
 5383 0634 16       		.uleb128 0x16
 5384 0635 02       		.uleb128 0x2
 5385 0636 7D       		.byte	0x7d
 5386 0637 00       		.sleb128 0
 5387 0638 01       		.uleb128 0x1
 5388 0639 31       		.byte	0x31
 5389 063a 16       		.uleb128 0x16
 5390 063b 02       		.uleb128 0x2
 5391 063c 7D       		.byte	0x7d
 5392 063d 04       		.sleb128 4
 5393 063e 05       		.uleb128 0x5
 5394 063f 03       		.byte	0x3
 5395 0640 A4000000 		.4byte	.LC9
 5396 0644 00       		.byte	0
 5397 0645 00       		.byte	0
 5398 0646 15       		.uleb128 0x15
 5399 0647 2C000000 		.4byte	.LVL46
 5400 064b EC2C0000 		.4byte	0x2cec
 5401 064f 59060000 		.4byte	0x659
 5402 0653 16       		.uleb128 0x16
 5403 0654 01       		.uleb128 0x1
 5404 0655 50       		.byte	0x50
 5405 0656 01       		.uleb128 0x1
 5406 0657 38       		.byte	0x38
 5407 0658 00       		.byte	0
 5408 0659 15       		.uleb128 0x15
 5409 065a 5E000000 		.4byte	.LVL54
 5410 065e F72C0000 		.4byte	0x2cf7
 5411 0662 6D060000 		.4byte	0x66d
 5412 0666 16       		.uleb128 0x16
 5413 0667 01       		.uleb128 0x1
 5414 0668 50       		.byte	0x50
 5415 0669 02       		.uleb128 0x2
 5416 066a 74       		.byte	0x74
 5417 066b 04       		.sleb128 4
 5418 066c 00       		.byte	0
 5419 066d 15       		.uleb128 0x15
 5420 066e 82000000 		.4byte	.LVL59
 5421 0672 B52C0000 		.4byte	0x2cb5
 5422 0676 81060000 		.4byte	0x681
 5423 067a 16       		.uleb128 0x16
 5424 067b 01       		.uleb128 0x1
 5425 067c 50       		.byte	0x50
 5426 067d 02       		.uleb128 0x2
 5427 067e 74       		.byte	0x74
 5428 067f 00       		.sleb128 0
 5429 0680 00       		.byte	0
 5430 0681 15       		.uleb128 0x15
 5431 0682 92000000 		.4byte	.LVL61
 5432 0686 F72C0000 		.4byte	0x2cf7
 5433 068a 95060000 		.4byte	0x695
ARM GAS  C:\Users\Phuong\AppData\Local\Temp\cc4zbCpa.s 			page 122


 5434 068e 16       		.uleb128 0x16
 5435 068f 01       		.uleb128 0x1
 5436 0690 50       		.byte	0x50
 5437 0691 02       		.uleb128 0x2
 5438 0692 74       		.byte	0x74
 5439 0693 00       		.sleb128 0
 5440 0694 00       		.byte	0
 5441 0695 19       		.uleb128 0x19
 5442 0696 B6000000 		.4byte	.LVL66
 5443 069a B52C0000 		.4byte	0x2cb5
 5444 069e 17       		.uleb128 0x17
 5445 069f BC000000 		.4byte	.LVL67
 5446 06a3 B52C0000 		.4byte	0x2cb5
 5447 06a7 16       		.uleb128 0x16
 5448 06a8 01       		.uleb128 0x1
 5449 06a9 50       		.byte	0x50
 5450 06aa 02       		.uleb128 0x2
 5451 06ab 74       		.byte	0x74
 5452 06ac 00       		.sleb128 0
 5453 06ad 00       		.byte	0
 5454 06ae 00       		.byte	0
 5455 06af 05       		.uleb128 0x5
 5456 06b0 04       		.byte	0x4
 5457 06b1 B5060000 		.4byte	0x6b5
 5458 06b5 06       		.uleb128 0x6
 5459 06b6 AC020000 		.4byte	0x2ac
 5460 06ba 1E       		.uleb128 0x1e
 5461 06bb 97000000 		.4byte	0x97
 5462 06bf CA060000 		.4byte	0x6ca
 5463 06c3 1F       		.uleb128 0x1f
 5464 06c4 7D000000 		.4byte	0x7d
 5465 06c8 1B       		.byte	0x1b
 5466 06c9 00       		.byte	0
 5467 06ca 06       		.uleb128 0x6
 5468 06cb BA060000 		.4byte	0x6ba
 5469 06cf 20       		.uleb128 0x20
 5470 06d0 7C0A0000 		.4byte	.LASF79
 5471 06d4 01       		.byte	0x1
 5472 06d5 0C       		.byte	0xc
 5473 06d6 91000000 		.4byte	0x91
 5474 06da 00000000 		.4byte	.LFB1
 5475 06de 14000000 		.4byte	.LFE1-.LFB1
 5476 06e2 01       		.uleb128 0x1
 5477 06e3 9C       		.byte	0x9c
 5478 06e4 F8060000 		.4byte	0x6f8
 5479 06e8 12       		.uleb128 0x12
 5480 06e9 7D030000 		.4byte	.LASF45
 5481 06ed 01       		.byte	0x1
 5482 06ee 0C       		.byte	0xc
 5483 06ef A0010000 		.4byte	0x1a0
 5484 06f3 AD020000 		.4byte	.LLST13
 5485 06f7 00       		.byte	0
 5486 06f8 20       		.uleb128 0x20
 5487 06f9 39010000 		.4byte	.LASF80
 5488 06fd 01       		.byte	0x1
 5489 06fe 0C       		.byte	0xc
 5490 06ff 37000000 		.4byte	0x37
ARM GAS  C:\Users\Phuong\AppData\Local\Temp\cc4zbCpa.s 			page 123


 5491 0703 00000000 		.4byte	.LFB2
 5492 0707 3C000000 		.4byte	.LFE2-.LFB2
 5493 070b 01       		.uleb128 0x1
 5494 070c 9C       		.byte	0x9c
 5495 070d 57070000 		.4byte	0x757
 5496 0711 12       		.uleb128 0x12
 5497 0712 0F0A0000 		.4byte	.LASF81
 5498 0716 01       		.byte	0x1
 5499 0717 0C       		.byte	0xc
 5500 0718 91000000 		.4byte	0x91
 5501 071c E7020000 		.4byte	.LLST14
 5502 0720 12       		.uleb128 0x12
 5503 0721 C70A0000 		.4byte	.LASF82
 5504 0725 01       		.byte	0x1
 5505 0726 0C       		.byte	0xc
 5506 0727 57070000 		.4byte	0x757
 5507 072b 3F030000 		.4byte	.LLST15
 5508 072f 21       		.uleb128 0x21
 5509 0730 12000000 		.4byte	.LBB6
 5510 0734 1E000000 		.4byte	.LBE6-.LBB6
 5511 0738 1C       		.uleb128 0x1c
 5512 0739 6900     		.ascii	"i\000"
 5513 073b 01       		.byte	0x1
 5514 073c 0C       		.byte	0xc
 5515 073d 25000000 		.4byte	0x25
 5516 0741 81030000 		.4byte	.LLST16
 5517 0745 17       		.uleb128 0x17
 5518 0746 1E000000 		.4byte	.LVL77
 5519 074a 022D0000 		.4byte	0x2d02
 5520 074e 16       		.uleb128 0x16
 5521 074f 01       		.uleb128 0x1
 5522 0750 50       		.byte	0x50
 5523 0751 02       		.uleb128 0x2
 5524 0752 75       		.byte	0x75
 5525 0753 00       		.sleb128 0
 5526 0754 00       		.byte	0
 5527 0755 00       		.byte	0
 5528 0756 00       		.byte	0
 5529 0757 05       		.uleb128 0x5
 5530 0758 04       		.byte	0x4
 5531 0759 A0010000 		.4byte	0x1a0
 5532 075d 20       		.uleb128 0x20
 5533 075e 64060000 		.4byte	.LASF83
 5534 0762 01       		.byte	0x1
 5535 0763 0D       		.byte	0xd
 5536 0764 91000000 		.4byte	0x91
 5537 0768 00000000 		.4byte	.LFB3
 5538 076c 18000000 		.4byte	.LFE3-.LFB3
 5539 0770 01       		.uleb128 0x1
 5540 0771 9C       		.byte	0x9c
 5541 0772 86070000 		.4byte	0x786
 5542 0776 12       		.uleb128 0x12
 5543 0777 7D030000 		.4byte	.LASF45
 5544 077b 01       		.byte	0x1
 5545 077c 0D       		.byte	0xd
 5546 077d CE010000 		.4byte	0x1ce
 5547 0781 94030000 		.4byte	.LLST17
ARM GAS  C:\Users\Phuong\AppData\Local\Temp\cc4zbCpa.s 			page 124


 5548 0785 00       		.byte	0
 5549 0786 20       		.uleb128 0x20
 5550 0787 CC040000 		.4byte	.LASF84
 5551 078b 01       		.byte	0x1
 5552 078c 0D       		.byte	0xd
 5553 078d 37000000 		.4byte	0x37
 5554 0791 00000000 		.4byte	.LFB4
 5555 0795 40000000 		.4byte	.LFE4-.LFB4
 5556 0799 01       		.uleb128 0x1
 5557 079a 9C       		.byte	0x9c
 5558 079b E5070000 		.4byte	0x7e5
 5559 079f 12       		.uleb128 0x12
 5560 07a0 0F0A0000 		.4byte	.LASF81
 5561 07a4 01       		.byte	0x1
 5562 07a5 0D       		.byte	0xd
 5563 07a6 91000000 		.4byte	0x91
 5564 07aa CE030000 		.4byte	.LLST18
 5565 07ae 12       		.uleb128 0x12
 5566 07af C70A0000 		.4byte	.LASF82
 5567 07b3 01       		.byte	0x1
 5568 07b4 0D       		.byte	0xd
 5569 07b5 E5070000 		.4byte	0x7e5
 5570 07b9 26040000 		.4byte	.LLST19
 5571 07bd 21       		.uleb128 0x21
 5572 07be 12000000 		.4byte	.LBB7
 5573 07c2 20000000 		.4byte	.LBE7-.LBB7
 5574 07c6 1C       		.uleb128 0x1c
 5575 07c7 6900     		.ascii	"i\000"
 5576 07c9 01       		.byte	0x1
 5577 07ca 0D       		.byte	0xd
 5578 07cb 25000000 		.4byte	0x25
 5579 07cf 68040000 		.4byte	.LLST20
 5580 07d3 17       		.uleb128 0x17
 5581 07d4 20000000 		.4byte	.LVL91
 5582 07d8 022D0000 		.4byte	0x2d02
 5583 07dc 16       		.uleb128 0x16
 5584 07dd 01       		.uleb128 0x1
 5585 07de 50       		.byte	0x50
 5586 07df 02       		.uleb128 0x2
 5587 07e0 74       		.byte	0x74
 5588 07e1 00       		.sleb128 0
 5589 07e2 00       		.byte	0
 5590 07e3 00       		.byte	0
 5591 07e4 00       		.byte	0
 5592 07e5 05       		.uleb128 0x5
 5593 07e6 04       		.byte	0x4
 5594 07e7 CE010000 		.4byte	0x1ce
 5595 07eb 20       		.uleb128 0x20
 5596 07ec 760B0000 		.4byte	.LASF85
 5597 07f0 01       		.byte	0x1
 5598 07f1 8E       		.byte	0x8e
 5599 07f2 D9010000 		.4byte	0x1d9
 5600 07f6 00000000 		.4byte	.LFB10
 5601 07fa 30010000 		.4byte	.LFE10-.LFB10
 5602 07fe 01       		.uleb128 0x1
 5603 07ff 9C       		.byte	0x9c
 5604 0800 C10A0000 		.4byte	0xac1
ARM GAS  C:\Users\Phuong\AppData\Local\Temp\cc4zbCpa.s 			page 125


 5605 0804 12       		.uleb128 0x12
 5606 0805 73030000 		.4byte	.LASF62
 5607 0809 01       		.byte	0x1
 5608 080a 8E       		.byte	0x8e
 5609 080b C10A0000 		.4byte	0xac1
 5610 080f 7B040000 		.4byte	.LLST21
 5611 0813 12       		.uleb128 0x12
 5612 0814 36070000 		.4byte	.LASF86
 5613 0818 01       		.byte	0x1
 5614 0819 8E       		.byte	0x8e
 5615 081a 25000000 		.4byte	0x25
 5616 081e EF040000 		.4byte	.LLST22
 5617 0822 13       		.uleb128 0x13
 5618 0823 EA020000 		.4byte	.LASF65
 5619 0827 01       		.byte	0x1
 5620 0828 90       		.byte	0x90
 5621 0829 92040000 		.4byte	0x492
 5622 082d 31050000 		.4byte	.LLST23
 5623 0831 1A       		.uleb128 0x1a
 5624 0832 5F0B0000 		.4byte	.LASF87
 5625 0836 DC0A0000 		.4byte	0xadc
 5626 083a 05       		.uleb128 0x5
 5627 083b 03       		.byte	0x3
 5628 083c 1C000000 		.4byte	__func__.6217
 5629 0840 1B       		.uleb128 0x1b
 5630 0841 10000000 		.4byte	.LBB8
 5631 0845 1C000000 		.4byte	.LBE8-.LBB8
 5632 0849 9A080000 		.4byte	0x89a
 5633 084d 1C       		.uleb128 0x1c
 5634 084e 6C00     		.ascii	"l\000"
 5635 0850 01       		.byte	0x1
 5636 0851 93       		.byte	0x93
 5637 0852 CA000000 		.4byte	0xca
 5638 0856 B5050000 		.4byte	.LLST24
 5639 085a 19       		.uleb128 0x19
 5640 085b 14000000 		.4byte	.LVL100
 5641 085f E12C0000 		.4byte	0x2ce1
 5642 0863 1D       		.uleb128 0x1d
 5643 0864 2C000000 		.4byte	.LVL103
 5644 0868 02       		.uleb128 0x2
 5645 0869 74       		.byte	0x74
 5646 086a 00       		.sleb128 0
 5647 086b 16       		.uleb128 0x16
 5648 086c 01       		.uleb128 0x1
 5649 086d 50       		.byte	0x50
 5650 086e 01       		.uleb128 0x1
 5651 086f 30       		.byte	0x30
 5652 0870 16       		.uleb128 0x16
 5653 0871 01       		.uleb128 0x1
 5654 0872 51       		.byte	0x51
 5655 0873 05       		.uleb128 0x5
 5656 0874 03       		.byte	0x3
 5657 0875 00000000 		.4byte	.LC1
 5658 0879 16       		.uleb128 0x16
 5659 087a 01       		.uleb128 0x1
 5660 087b 52       		.byte	0x52
 5661 087c 05       		.uleb128 0x5
ARM GAS  C:\Users\Phuong\AppData\Local\Temp\cc4zbCpa.s 			page 126


 5662 087d 03       		.byte	0x3
 5663 087e 1C000000 		.4byte	.LANCHOR0+28
 5664 0882 16       		.uleb128 0x16
 5665 0883 01       		.uleb128 0x1
 5666 0884 53       		.byte	0x53
 5667 0885 02       		.uleb128 0x2
 5668 0886 08       		.byte	0x8
 5669 0887 93       		.byte	0x93
 5670 0888 16       		.uleb128 0x16
 5671 0889 02       		.uleb128 0x2
 5672 088a 7D       		.byte	0x7d
 5673 088b 00       		.sleb128 0
 5674 088c 01       		.uleb128 0x1
 5675 088d 31       		.byte	0x31
 5676 088e 16       		.uleb128 0x16
 5677 088f 02       		.uleb128 0x2
 5678 0890 7D       		.byte	0x7d
 5679 0891 04       		.sleb128 4
 5680 0892 05       		.uleb128 0x5
 5681 0893 03       		.byte	0x3
 5682 0894 D0000000 		.4byte	.LC17
 5683 0898 00       		.byte	0
 5684 0899 00       		.byte	0
 5685 089a 1B       		.uleb128 0x1b
 5686 089b 3A000000 		.4byte	.LBB9
 5687 089f 1E000000 		.4byte	.LBE9-.LBB9
 5688 08a3 F4080000 		.4byte	0x8f4
 5689 08a7 1C       		.uleb128 0x1c
 5690 08a8 6C00     		.ascii	"l\000"
 5691 08aa 01       		.byte	0x1
 5692 08ab 9B       		.byte	0x9b
 5693 08ac CA000000 		.4byte	0xca
 5694 08b0 DE050000 		.4byte	.LLST25
 5695 08b4 19       		.uleb128 0x19
 5696 08b5 3E000000 		.4byte	.LVL109
 5697 08b9 E12C0000 		.4byte	0x2ce1
 5698 08bd 1D       		.uleb128 0x1d
 5699 08be 56000000 		.4byte	.LVL112
 5700 08c2 02       		.uleb128 0x2
 5701 08c3 75       		.byte	0x75
 5702 08c4 00       		.sleb128 0
 5703 08c5 16       		.uleb128 0x16
 5704 08c6 01       		.uleb128 0x1
 5705 08c7 50       		.byte	0x50
 5706 08c8 01       		.uleb128 0x1
 5707 08c9 30       		.byte	0x30
 5708 08ca 16       		.uleb128 0x16
 5709 08cb 01       		.uleb128 0x1
 5710 08cc 51       		.byte	0x51
 5711 08cd 05       		.uleb128 0x5
 5712 08ce 03       		.byte	0x3
 5713 08cf 00000000 		.4byte	.LC1
 5714 08d3 16       		.uleb128 0x16
 5715 08d4 01       		.uleb128 0x1
 5716 08d5 52       		.byte	0x52
 5717 08d6 05       		.uleb128 0x5
 5718 08d7 03       		.byte	0x3
ARM GAS  C:\Users\Phuong\AppData\Local\Temp\cc4zbCpa.s 			page 127


 5719 08d8 1C000000 		.4byte	.LANCHOR0+28
 5720 08dc 16       		.uleb128 0x16
 5721 08dd 01       		.uleb128 0x1
 5722 08de 53       		.byte	0x53
 5723 08df 02       		.uleb128 0x2
 5724 08e0 08       		.byte	0x8
 5725 08e1 9B       		.byte	0x9b
 5726 08e2 16       		.uleb128 0x16
 5727 08e3 02       		.uleb128 0x2
 5728 08e4 7D       		.byte	0x7d
 5729 08e5 00       		.sleb128 0
 5730 08e6 01       		.uleb128 0x1
 5731 08e7 31       		.byte	0x31
 5732 08e8 16       		.uleb128 0x16
 5733 08e9 02       		.uleb128 0x2
 5734 08ea 7D       		.byte	0x7d
 5735 08eb 04       		.sleb128 4
 5736 08ec 05       		.uleb128 0x5
 5737 08ed 03       		.byte	0x3
 5738 08ee F8000000 		.4byte	.LC19
 5739 08f2 00       		.byte	0
 5740 08f3 00       		.byte	0
 5741 08f4 1B       		.uleb128 0x1b
 5742 08f5 58000000 		.4byte	.LBB10
 5743 08f9 AE000000 		.4byte	.LBE10-.LBB10
 5744 08fd B00A0000 		.4byte	0xab0
 5745 0901 13       		.uleb128 0x13
 5746 0902 31090000 		.4byte	.LASF78
 5747 0906 01       		.byte	0x1
 5748 0907 A1       		.byte	0xa1
 5749 0908 C10A0000 		.4byte	0xac1
 5750 090c FC050000 		.4byte	.LLST26
 5751 0910 14       		.uleb128 0x14
 5752 0911 A5080000 		.4byte	.LASF88
 5753 0915 01       		.byte	0x1
 5754 0916 A2       		.byte	0xa2
 5755 0917 53000000 		.4byte	0x53
 5756 091b 02       		.uleb128 0x2
 5757 091c 91       		.byte	0x91
 5758 091d 67       		.sleb128 -25
 5759 091e 1B       		.uleb128 0x1b
 5760 091f 72000000 		.4byte	.LBB11
 5761 0923 1C000000 		.4byte	.LBE11-.LBB11
 5762 0927 78090000 		.4byte	0x978
 5763 092b 1C       		.uleb128 0x1c
 5764 092c 6C00     		.ascii	"l\000"
 5765 092e 01       		.byte	0x1
 5766 092f AD       		.byte	0xad
 5767 0930 CA000000 		.4byte	0xca
 5768 0934 26060000 		.4byte	.LLST27
 5769 0938 19       		.uleb128 0x19
 5770 0939 76000000 		.4byte	.LVL115
 5771 093d E12C0000 		.4byte	0x2ce1
 5772 0941 1D       		.uleb128 0x1d
 5773 0942 8E000000 		.4byte	.LVL118
 5774 0946 02       		.uleb128 0x2
 5775 0947 77       		.byte	0x77
ARM GAS  C:\Users\Phuong\AppData\Local\Temp\cc4zbCpa.s 			page 128


 5776 0948 00       		.sleb128 0
 5777 0949 16       		.uleb128 0x16
 5778 094a 01       		.uleb128 0x1
 5779 094b 50       		.byte	0x50
 5780 094c 01       		.uleb128 0x1
 5781 094d 30       		.byte	0x30
 5782 094e 16       		.uleb128 0x16
 5783 094f 01       		.uleb128 0x1
 5784 0950 51       		.byte	0x51
 5785 0951 05       		.uleb128 0x5
 5786 0952 03       		.byte	0x3
 5787 0953 00000000 		.4byte	.LC1
 5788 0957 16       		.uleb128 0x16
 5789 0958 01       		.uleb128 0x1
 5790 0959 52       		.byte	0x52
 5791 095a 05       		.uleb128 0x5
 5792 095b 03       		.byte	0x3
 5793 095c 1C000000 		.4byte	.LANCHOR0+28
 5794 0960 16       		.uleb128 0x16
 5795 0961 01       		.uleb128 0x1
 5796 0962 53       		.byte	0x53
 5797 0963 02       		.uleb128 0x2
 5798 0964 08       		.byte	0x8
 5799 0965 AD       		.byte	0xad
 5800 0966 16       		.uleb128 0x16
 5801 0967 02       		.uleb128 0x2
 5802 0968 7D       		.byte	0x7d
 5803 0969 00       		.sleb128 0
 5804 096a 01       		.uleb128 0x1
 5805 096b 31       		.byte	0x31
 5806 096c 16       		.uleb128 0x16
 5807 096d 02       		.uleb128 0x2
 5808 096e 7D       		.byte	0x7d
 5809 096f 04       		.sleb128 4
 5810 0970 05       		.uleb128 0x5
 5811 0971 03       		.byte	0x3
 5812 0972 0C010000 		.4byte	.LC21
 5813 0976 00       		.byte	0
 5814 0977 00       		.byte	0
 5815 0978 1B       		.uleb128 0x1b
 5816 0979 AE000000 		.4byte	.LBB12
 5817 097d 1C000000 		.4byte	.LBE12-.LBB12
 5818 0981 D2090000 		.4byte	0x9d2
 5819 0985 1C       		.uleb128 0x1c
 5820 0986 6C00     		.ascii	"l\000"
 5821 0988 01       		.byte	0x1
 5822 0989 C1       		.byte	0xc1
 5823 098a CA000000 		.4byte	0xca
 5824 098e 44060000 		.4byte	.LLST28
 5825 0992 19       		.uleb128 0x19
 5826 0993 B2000000 		.4byte	.LVL124
 5827 0997 E12C0000 		.4byte	0x2ce1
 5828 099b 1D       		.uleb128 0x1d
 5829 099c CA000000 		.4byte	.LVL127
 5830 09a0 02       		.uleb128 0x2
 5831 09a1 75       		.byte	0x75
 5832 09a2 00       		.sleb128 0
ARM GAS  C:\Users\Phuong\AppData\Local\Temp\cc4zbCpa.s 			page 129


 5833 09a3 16       		.uleb128 0x16
 5834 09a4 01       		.uleb128 0x1
 5835 09a5 50       		.byte	0x50
 5836 09a6 01       		.uleb128 0x1
 5837 09a7 30       		.byte	0x30
 5838 09a8 16       		.uleb128 0x16
 5839 09a9 01       		.uleb128 0x1
 5840 09aa 51       		.byte	0x51
 5841 09ab 05       		.uleb128 0x5
 5842 09ac 03       		.byte	0x3
 5843 09ad 00000000 		.4byte	.LC1
 5844 09b1 16       		.uleb128 0x16
 5845 09b2 01       		.uleb128 0x1
 5846 09b3 52       		.byte	0x52
 5847 09b4 05       		.uleb128 0x5
 5848 09b5 03       		.byte	0x3
 5849 09b6 1C000000 		.4byte	.LANCHOR0+28
 5850 09ba 16       		.uleb128 0x16
 5851 09bb 01       		.uleb128 0x1
 5852 09bc 53       		.byte	0x53
 5853 09bd 02       		.uleb128 0x2
 5854 09be 08       		.byte	0x8
 5855 09bf C1       		.byte	0xc1
 5856 09c0 16       		.uleb128 0x16
 5857 09c1 02       		.uleb128 0x2
 5858 09c2 7D       		.byte	0x7d
 5859 09c3 00       		.sleb128 0
 5860 09c4 01       		.uleb128 0x1
 5861 09c5 31       		.byte	0x31
 5862 09c6 16       		.uleb128 0x16
 5863 09c7 02       		.uleb128 0x2
 5864 09c8 7D       		.byte	0x7d
 5865 09c9 04       		.sleb128 4
 5866 09ca 05       		.uleb128 0x5
 5867 09cb 03       		.byte	0x3
 5868 09cc 44010000 		.4byte	.LC23
 5869 09d0 00       		.byte	0
 5870 09d1 00       		.byte	0
 5871 09d2 1B       		.uleb128 0x1b
 5872 09d3 E0000000 		.4byte	.LBB13
 5873 09d7 1C000000 		.4byte	.LBE13-.LBB13
 5874 09db 2C0A0000 		.4byte	0xa2c
 5875 09df 1C       		.uleb128 0x1c
 5876 09e0 6C00     		.ascii	"l\000"
 5877 09e2 01       		.byte	0x1
 5878 09e3 C9       		.byte	0xc9
 5879 09e4 CA000000 		.4byte	0xca
 5880 09e8 62060000 		.4byte	.LLST29
 5881 09ec 19       		.uleb128 0x19
 5882 09ed E4000000 		.4byte	.LVL131
 5883 09f1 E12C0000 		.4byte	0x2ce1
 5884 09f5 1D       		.uleb128 0x1d
 5885 09f6 FC000000 		.4byte	.LVL134
 5886 09fa 02       		.uleb128 0x2
 5887 09fb 75       		.byte	0x75
 5888 09fc 00       		.sleb128 0
 5889 09fd 16       		.uleb128 0x16
ARM GAS  C:\Users\Phuong\AppData\Local\Temp\cc4zbCpa.s 			page 130


 5890 09fe 01       		.uleb128 0x1
 5891 09ff 50       		.byte	0x50
 5892 0a00 01       		.uleb128 0x1
 5893 0a01 30       		.byte	0x30
 5894 0a02 16       		.uleb128 0x16
 5895 0a03 01       		.uleb128 0x1
 5896 0a04 51       		.byte	0x51
 5897 0a05 05       		.uleb128 0x5
 5898 0a06 03       		.byte	0x3
 5899 0a07 00000000 		.4byte	.LC1
 5900 0a0b 16       		.uleb128 0x16
 5901 0a0c 01       		.uleb128 0x1
 5902 0a0d 52       		.byte	0x52
 5903 0a0e 05       		.uleb128 0x5
 5904 0a0f 03       		.byte	0x3
 5905 0a10 1C000000 		.4byte	.LANCHOR0+28
 5906 0a14 16       		.uleb128 0x16
 5907 0a15 01       		.uleb128 0x1
 5908 0a16 53       		.byte	0x53
 5909 0a17 02       		.uleb128 0x2
 5910 0a18 08       		.byte	0x8
 5911 0a19 C9       		.byte	0xc9
 5912 0a1a 16       		.uleb128 0x16
 5913 0a1b 02       		.uleb128 0x2
 5914 0a1c 7D       		.byte	0x7d
 5915 0a1d 00       		.sleb128 0
 5916 0a1e 01       		.uleb128 0x1
 5917 0a1f 31       		.byte	0x31
 5918 0a20 16       		.uleb128 0x16
 5919 0a21 02       		.uleb128 0x2
 5920 0a22 7D       		.byte	0x7d
 5921 0a23 04       		.sleb128 4
 5922 0a24 05       		.uleb128 0x5
 5923 0a25 03       		.byte	0x3
 5924 0a26 5C010000 		.4byte	.LC26
 5925 0a2a 00       		.byte	0
 5926 0a2b 00       		.byte	0
 5927 0a2c 15       		.uleb128 0x15
 5928 0a2d 68000000 		.4byte	.LVL114
 5929 0a31 0D2D0000 		.4byte	0x2d0d
 5930 0a35 460A0000 		.4byte	0xa46
 5931 0a39 16       		.uleb128 0x16
 5932 0a3a 01       		.uleb128 0x1
 5933 0a3b 51       		.byte	0x51
 5934 0a3c 02       		.uleb128 0x2
 5935 0a3d 77       		.byte	0x77
 5936 0a3e 00       		.sleb128 0
 5937 0a3f 16       		.uleb128 0x16
 5938 0a40 01       		.uleb128 0x1
 5939 0a41 52       		.byte	0x52
 5940 0a42 02       		.uleb128 0x2
 5941 0a43 08       		.byte	0x8
 5942 0a44 30       		.byte	0x30
 5943 0a45 00       		.byte	0
 5944 0a46 15       		.uleb128 0x15
 5945 0a47 94000000 		.4byte	.LVL119
 5946 0a4b F1030000 		.4byte	0x3f1
ARM GAS  C:\Users\Phuong\AppData\Local\Temp\cc4zbCpa.s 			page 131


 5947 0a4f 5A0A0000 		.4byte	0xa5a
 5948 0a53 16       		.uleb128 0x16
 5949 0a54 01       		.uleb128 0x1
 5950 0a55 50       		.byte	0x50
 5951 0a56 02       		.uleb128 0x2
 5952 0a57 74       		.byte	0x74
 5953 0a58 00       		.sleb128 0
 5954 0a59 00       		.byte	0
 5955 0a5a 15       		.uleb128 0x15
 5956 0a5b A8000000 		.4byte	.LVL123
 5957 0a5f 162D0000 		.4byte	0x2d16
 5958 0a63 740A0000 		.4byte	0xa74
 5959 0a67 16       		.uleb128 0x16
 5960 0a68 01       		.uleb128 0x1
 5961 0a69 50       		.byte	0x50
 5962 0a6a 02       		.uleb128 0x2
 5963 0a6b 75       		.byte	0x75
 5964 0a6c 00       		.sleb128 0
 5965 0a6d 16       		.uleb128 0x16
 5966 0a6e 01       		.uleb128 0x1
 5967 0a6f 51       		.byte	0x51
 5968 0a70 02       		.uleb128 0x2
 5969 0a71 76       		.byte	0x76
 5970 0a72 00       		.sleb128 0
 5971 0a73 00       		.byte	0
 5972 0a74 15       		.uleb128 0x15
 5973 0a75 D0000000 		.4byte	.LVL128
 5974 0a79 F1030000 		.4byte	0x3f1
 5975 0a7d 880A0000 		.4byte	0xa88
 5976 0a81 16       		.uleb128 0x16
 5977 0a82 01       		.uleb128 0x1
 5978 0a83 50       		.byte	0x50
 5979 0a84 02       		.uleb128 0x2
 5980 0a85 74       		.byte	0x74
 5981 0a86 00       		.sleb128 0
 5982 0a87 00       		.byte	0
 5983 0a88 15       		.uleb128 0x15
 5984 0a89 DA000000 		.4byte	.LVL130
 5985 0a8d 212D0000 		.4byte	0x2d21
 5986 0a91 9F0A0000 		.4byte	0xa9f
 5987 0a95 16       		.uleb128 0x16
 5988 0a96 01       		.uleb128 0x1
 5989 0a97 50       		.byte	0x50
 5990 0a98 05       		.uleb128 0x5
 5991 0a99 03       		.byte	0x3
 5992 0a9a 00000000 		.4byte	ValidateAsciiCharactersFilter
 5993 0a9e 00       		.byte	0
 5994 0a9f 17       		.uleb128 0x17
 5995 0aa0 02010000 		.4byte	.LVL135
 5996 0aa4 F1030000 		.4byte	0x3f1
 5997 0aa8 16       		.uleb128 0x16
 5998 0aa9 01       		.uleb128 0x1
 5999 0aaa 50       		.byte	0x50
 6000 0aab 02       		.uleb128 0x2
 6001 0aac 74       		.byte	0x74
 6002 0aad 00       		.sleb128 0
 6003 0aae 00       		.byte	0
ARM GAS  C:\Users\Phuong\AppData\Local\Temp\cc4zbCpa.s 			page 132


 6004 0aaf 00       		.byte	0
 6005 0ab0 17       		.uleb128 0x17
 6006 0ab1 36000000 		.4byte	.LVL107
 6007 0ab5 EC2C0000 		.4byte	0x2cec
 6008 0ab9 16       		.uleb128 0x16
 6009 0aba 01       		.uleb128 0x1
 6010 0abb 50       		.byte	0x50
 6011 0abc 02       		.uleb128 0x2
 6012 0abd 08       		.byte	0x8
 6013 0abe 30       		.byte	0x30
 6014 0abf 00       		.byte	0
 6015 0ac0 00       		.byte	0
 6016 0ac1 05       		.uleb128 0x5
 6017 0ac2 04       		.byte	0x4
 6018 0ac3 C70A0000 		.4byte	0xac7
 6019 0ac7 06       		.uleb128 0x6
 6020 0ac8 53000000 		.4byte	0x53
 6021 0acc 1E       		.uleb128 0x1e
 6022 0acd 97000000 		.4byte	0x97
 6023 0ad1 DC0A0000 		.4byte	0xadc
 6024 0ad5 1F       		.uleb128 0x1f
 6025 0ad6 7D000000 		.4byte	0x7d
 6026 0ada 21       		.byte	0x21
 6027 0adb 00       		.byte	0
 6028 0adc 06       		.uleb128 0x6
 6029 0add CC0A0000 		.4byte	0xacc
 6030 0ae1 20       		.uleb128 0x20
 6031 0ae2 3B070000 		.4byte	.LASF89
 6032 0ae6 01       		.byte	0x1
 6033 0ae7 D5       		.byte	0xd5
 6034 0ae8 D9010000 		.4byte	0x1d9
 6035 0aec 00000000 		.4byte	.LFB11
 6036 0af0 E4000000 		.4byte	.LFE11-.LFB11
 6037 0af4 01       		.uleb128 0x1
 6038 0af5 9C       		.byte	0x9c
 6039 0af6 0C0D0000 		.4byte	0xd0c
 6040 0afa 12       		.uleb128 0x12
 6041 0afb 31090000 		.4byte	.LASF78
 6042 0aff 01       		.byte	0x1
 6043 0b00 D5       		.byte	0xd5
 6044 0b01 91000000 		.4byte	0x91
 6045 0b05 80060000 		.4byte	.LLST30
 6046 0b09 13       		.uleb128 0x13
 6047 0b0a EA020000 		.4byte	.LASF65
 6048 0b0e 01       		.byte	0x1
 6049 0b0f D7       		.byte	0xd7
 6050 0b10 92040000 		.4byte	0x492
 6051 0b14 0D070000 		.4byte	.LLST31
 6052 0b18 1A       		.uleb128 0x1a
 6053 0b19 5F0B0000 		.4byte	.LASF87
 6054 0b1d 1C0D0000 		.4byte	0xd1c
 6055 0b21 05       		.uleb128 0x5
 6056 0b22 03       		.byte	0x3
 6057 0b23 40000000 		.4byte	__func__.6239
 6058 0b27 1B       		.uleb128 0x1b
 6059 0b28 08000000 		.4byte	.LBB14
 6060 0b2c 1C000000 		.4byte	.LBE14-.LBB14
ARM GAS  C:\Users\Phuong\AppData\Local\Temp\cc4zbCpa.s 			page 133


 6061 0b30 810B0000 		.4byte	0xb81
 6062 0b34 1C       		.uleb128 0x1c
 6063 0b35 6C00     		.ascii	"l\000"
 6064 0b37 01       		.byte	0x1
 6065 0b38 DA       		.byte	0xda
 6066 0b39 CA000000 		.4byte	0xca
 6067 0b3d 7A070000 		.4byte	.LLST32
 6068 0b41 19       		.uleb128 0x19
 6069 0b42 0C000000 		.4byte	.LVL141
 6070 0b46 E12C0000 		.4byte	0x2ce1
 6071 0b4a 1D       		.uleb128 0x1d
 6072 0b4b 24000000 		.4byte	.LVL144
 6073 0b4f 02       		.uleb128 0x2
 6074 0b50 74       		.byte	0x74
 6075 0b51 00       		.sleb128 0
 6076 0b52 16       		.uleb128 0x16
 6077 0b53 01       		.uleb128 0x1
 6078 0b54 50       		.byte	0x50
 6079 0b55 01       		.uleb128 0x1
 6080 0b56 30       		.byte	0x30
 6081 0b57 16       		.uleb128 0x16
 6082 0b58 01       		.uleb128 0x1
 6083 0b59 51       		.byte	0x51
 6084 0b5a 05       		.uleb128 0x5
 6085 0b5b 03       		.byte	0x3
 6086 0b5c 00000000 		.4byte	.LC1
 6087 0b60 16       		.uleb128 0x16
 6088 0b61 01       		.uleb128 0x1
 6089 0b62 52       		.byte	0x52
 6090 0b63 05       		.uleb128 0x5
 6091 0b64 03       		.byte	0x3
 6092 0b65 40000000 		.4byte	.LANCHOR0+64
 6093 0b69 16       		.uleb128 0x16
 6094 0b6a 01       		.uleb128 0x1
 6095 0b6b 53       		.byte	0x53
 6096 0b6c 02       		.uleb128 0x2
 6097 0b6d 08       		.byte	0x8
 6098 0b6e DA       		.byte	0xda
 6099 0b6f 16       		.uleb128 0x16
 6100 0b70 02       		.uleb128 0x2
 6101 0b71 7D       		.byte	0x7d
 6102 0b72 00       		.sleb128 0
 6103 0b73 01       		.uleb128 0x1
 6104 0b74 31       		.byte	0x31
 6105 0b75 16       		.uleb128 0x16
 6106 0b76 02       		.uleb128 0x2
 6107 0b77 7D       		.byte	0x7d
 6108 0b78 04       		.sleb128 4
 6109 0b79 05       		.uleb128 0x5
 6110 0b7a 03       		.byte	0x3
 6111 0b7b 38000000 		.4byte	.LC3
 6112 0b7f 00       		.byte	0
 6113 0b80 00       		.byte	0
 6114 0b81 1B       		.uleb128 0x1b
 6115 0b82 32000000 		.4byte	.LBB15
 6116 0b86 1E000000 		.4byte	.LBE15-.LBB15
 6117 0b8a DB0B0000 		.4byte	0xbdb
ARM GAS  C:\Users\Phuong\AppData\Local\Temp\cc4zbCpa.s 			page 134


 6118 0b8e 1C       		.uleb128 0x1c
 6119 0b8f 6C00     		.ascii	"l\000"
 6120 0b91 01       		.byte	0x1
 6121 0b92 E2       		.byte	0xe2
 6122 0b93 CA000000 		.4byte	0xca
 6123 0b97 A3070000 		.4byte	.LLST33
 6124 0b9b 19       		.uleb128 0x19
 6125 0b9c 36000000 		.4byte	.LVL150
 6126 0ba0 E12C0000 		.4byte	0x2ce1
 6127 0ba4 1D       		.uleb128 0x1d
 6128 0ba5 4E000000 		.4byte	.LVL153
 6129 0ba9 02       		.uleb128 0x2
 6130 0baa 75       		.byte	0x75
 6131 0bab 00       		.sleb128 0
 6132 0bac 16       		.uleb128 0x16
 6133 0bad 01       		.uleb128 0x1
 6134 0bae 50       		.byte	0x50
 6135 0baf 01       		.uleb128 0x1
 6136 0bb0 30       		.byte	0x30
 6137 0bb1 16       		.uleb128 0x16
 6138 0bb2 01       		.uleb128 0x1
 6139 0bb3 51       		.byte	0x51
 6140 0bb4 05       		.uleb128 0x5
 6141 0bb5 03       		.byte	0x3
 6142 0bb6 00000000 		.4byte	.LC1
 6143 0bba 16       		.uleb128 0x16
 6144 0bbb 01       		.uleb128 0x1
 6145 0bbc 52       		.byte	0x52
 6146 0bbd 05       		.uleb128 0x5
 6147 0bbe 03       		.byte	0x3
 6148 0bbf 40000000 		.4byte	.LANCHOR0+64
 6149 0bc3 16       		.uleb128 0x16
 6150 0bc4 01       		.uleb128 0x1
 6151 0bc5 53       		.byte	0x53
 6152 0bc6 02       		.uleb128 0x2
 6153 0bc7 08       		.byte	0x8
 6154 0bc8 E2       		.byte	0xe2
 6155 0bc9 16       		.uleb128 0x16
 6156 0bca 02       		.uleb128 0x2
 6157 0bcb 7D       		.byte	0x7d
 6158 0bcc 00       		.sleb128 0
 6159 0bcd 01       		.uleb128 0x1
 6160 0bce 31       		.byte	0x31
 6161 0bcf 16       		.uleb128 0x16
 6162 0bd0 02       		.uleb128 0x2
 6163 0bd1 7D       		.byte	0x7d
 6164 0bd2 04       		.sleb128 4
 6165 0bd3 05       		.uleb128 0x5
 6166 0bd4 03       		.byte	0x3
 6167 0bd5 5C000000 		.4byte	.LC5
 6168 0bd9 00       		.byte	0
 6169 0bda 00       		.byte	0
 6170 0bdb 1B       		.uleb128 0x1b
 6171 0bdc 68000000 		.4byte	.LBB16
 6172 0be0 1C000000 		.4byte	.LBE16-.LBB16
 6173 0be4 350C0000 		.4byte	0xc35
 6174 0be8 1C       		.uleb128 0x1c
ARM GAS  C:\Users\Phuong\AppData\Local\Temp\cc4zbCpa.s 			page 135


 6175 0be9 6C00     		.ascii	"l\000"
 6176 0beb 01       		.byte	0x1
 6177 0bec EF       		.byte	0xef
 6178 0bed CA000000 		.4byte	0xca
 6179 0bf1 C1070000 		.4byte	.LLST34
 6180 0bf5 19       		.uleb128 0x19
 6181 0bf6 6C000000 		.4byte	.LVL157
 6182 0bfa E12C0000 		.4byte	0x2ce1
 6183 0bfe 1D       		.uleb128 0x1d
 6184 0bff 84000000 		.4byte	.LVL160
 6185 0c03 02       		.uleb128 0x2
 6186 0c04 75       		.byte	0x75
 6187 0c05 00       		.sleb128 0
 6188 0c06 16       		.uleb128 0x16
 6189 0c07 01       		.uleb128 0x1
 6190 0c08 50       		.byte	0x50
 6191 0c09 01       		.uleb128 0x1
 6192 0c0a 30       		.byte	0x30
 6193 0c0b 16       		.uleb128 0x16
 6194 0c0c 01       		.uleb128 0x1
 6195 0c0d 51       		.byte	0x51
 6196 0c0e 05       		.uleb128 0x5
 6197 0c0f 03       		.byte	0x3
 6198 0c10 00000000 		.4byte	.LC1
 6199 0c14 16       		.uleb128 0x16
 6200 0c15 01       		.uleb128 0x1
 6201 0c16 52       		.byte	0x52
 6202 0c17 05       		.uleb128 0x5
 6203 0c18 03       		.byte	0x3
 6204 0c19 40000000 		.4byte	.LANCHOR0+64
 6205 0c1d 16       		.uleb128 0x16
 6206 0c1e 01       		.uleb128 0x1
 6207 0c1f 53       		.byte	0x53
 6208 0c20 02       		.uleb128 0x2
 6209 0c21 08       		.byte	0x8
 6210 0c22 EF       		.byte	0xef
 6211 0c23 16       		.uleb128 0x16
 6212 0c24 02       		.uleb128 0x2
 6213 0c25 7D       		.byte	0x7d
 6214 0c26 00       		.sleb128 0
 6215 0c27 01       		.uleb128 0x1
 6216 0c28 31       		.byte	0x31
 6217 0c29 16       		.uleb128 0x16
 6218 0c2a 02       		.uleb128 0x2
 6219 0c2b 7D       		.byte	0x7d
 6220 0c2c 04       		.sleb128 4
 6221 0c2d 05       		.uleb128 0x5
 6222 0c2e 03       		.byte	0x3
 6223 0c2f 80010000 		.4byte	.LC32
 6224 0c33 00       		.byte	0
 6225 0c34 00       		.byte	0
 6226 0c35 1B       		.uleb128 0x1b
 6227 0c36 9A000000 		.4byte	.LBB17
 6228 0c3a 1C000000 		.4byte	.LBE17-.LBB17
 6229 0c3e 8F0C0000 		.4byte	0xc8f
 6230 0c42 1C       		.uleb128 0x1c
 6231 0c43 6C00     		.ascii	"l\000"
ARM GAS  C:\Users\Phuong\AppData\Local\Temp\cc4zbCpa.s 			page 136


 6232 0c45 01       		.byte	0x1
 6233 0c46 F7       		.byte	0xf7
 6234 0c47 CA000000 		.4byte	0xca
 6235 0c4b DF070000 		.4byte	.LLST35
 6236 0c4f 19       		.uleb128 0x19
 6237 0c50 9E000000 		.4byte	.LVL164
 6238 0c54 E12C0000 		.4byte	0x2ce1
 6239 0c58 1D       		.uleb128 0x1d
 6240 0c59 B6000000 		.4byte	.LVL167
 6241 0c5d 02       		.uleb128 0x2
 6242 0c5e 75       		.byte	0x75
 6243 0c5f 00       		.sleb128 0
 6244 0c60 16       		.uleb128 0x16
 6245 0c61 01       		.uleb128 0x1
 6246 0c62 50       		.byte	0x50
 6247 0c63 01       		.uleb128 0x1
 6248 0c64 30       		.byte	0x30
 6249 0c65 16       		.uleb128 0x16
 6250 0c66 01       		.uleb128 0x1
 6251 0c67 51       		.byte	0x51
 6252 0c68 05       		.uleb128 0x5
 6253 0c69 03       		.byte	0x3
 6254 0c6a 00000000 		.4byte	.LC1
 6255 0c6e 16       		.uleb128 0x16
 6256 0c6f 01       		.uleb128 0x1
 6257 0c70 52       		.byte	0x52
 6258 0c71 05       		.uleb128 0x5
 6259 0c72 03       		.byte	0x3
 6260 0c73 40000000 		.4byte	.LANCHOR0+64
 6261 0c77 16       		.uleb128 0x16
 6262 0c78 01       		.uleb128 0x1
 6263 0c79 53       		.byte	0x53
 6264 0c7a 02       		.uleb128 0x2
 6265 0c7b 08       		.byte	0x8
 6266 0c7c F7       		.byte	0xf7
 6267 0c7d 16       		.uleb128 0x16
 6268 0c7e 02       		.uleb128 0x2
 6269 0c7f 7D       		.byte	0x7d
 6270 0c80 00       		.sleb128 0
 6271 0c81 01       		.uleb128 0x1
 6272 0c82 31       		.byte	0x31
 6273 0c83 16       		.uleb128 0x16
 6274 0c84 02       		.uleb128 0x2
 6275 0c85 7D       		.byte	0x7d
 6276 0c86 04       		.sleb128 4
 6277 0c87 05       		.uleb128 0x5
 6278 0c88 03       		.byte	0x3
 6279 0c89 5C010000 		.4byte	.LC26
 6280 0c8d 00       		.byte	0
 6281 0c8e 00       		.byte	0
 6282 0c8f 15       		.uleb128 0x15
 6283 0c90 2E000000 		.4byte	.LVL148
 6284 0c94 EC2C0000 		.4byte	0x2cec
 6285 0c98 A30C0000 		.4byte	0xca3
 6286 0c9c 16       		.uleb128 0x16
 6287 0c9d 01       		.uleb128 0x1
 6288 0c9e 50       		.byte	0x50
ARM GAS  C:\Users\Phuong\AppData\Local\Temp\cc4zbCpa.s 			page 137


 6289 0c9f 02       		.uleb128 0x2
 6290 0ca0 08       		.byte	0x8
 6291 0ca1 30       		.byte	0x30
 6292 0ca2 00       		.byte	0
 6293 0ca3 15       		.uleb128 0x15
 6294 0ca4 58000000 		.4byte	.LVL155
 6295 0ca8 0D2D0000 		.4byte	0x2d0d
 6296 0cac BC0C0000 		.4byte	0xcbc
 6297 0cb0 16       		.uleb128 0x16
 6298 0cb1 01       		.uleb128 0x1
 6299 0cb2 51       		.byte	0x51
 6300 0cb3 01       		.uleb128 0x1
 6301 0cb4 30       		.byte	0x30
 6302 0cb5 16       		.uleb128 0x16
 6303 0cb6 01       		.uleb128 0x1
 6304 0cb7 52       		.byte	0x52
 6305 0cb8 02       		.uleb128 0x2
 6306 0cb9 08       		.byte	0x8
 6307 0cba 30       		.byte	0x30
 6308 0cbb 00       		.byte	0
 6309 0cbc 15       		.uleb128 0x15
 6310 0cbd 62000000 		.4byte	.LVL156
 6311 0cc1 2C2D0000 		.4byte	0x2d2c
 6312 0cc5 D00C0000 		.4byte	0xcd0
 6313 0cc9 16       		.uleb128 0x16
 6314 0cca 01       		.uleb128 0x1
 6315 0ccb 50       		.byte	0x50
 6316 0ccc 02       		.uleb128 0x2
 6317 0ccd 75       		.byte	0x75
 6318 0cce 00       		.sleb128 0
 6319 0ccf 00       		.byte	0
 6320 0cd0 15       		.uleb128 0x15
 6321 0cd1 8A000000 		.4byte	.LVL161
 6322 0cd5 F1030000 		.4byte	0x3f1
 6323 0cd9 E40C0000 		.4byte	0xce4
 6324 0cdd 16       		.uleb128 0x16
 6325 0cde 01       		.uleb128 0x1
 6326 0cdf 50       		.byte	0x50
 6327 0ce0 02       		.uleb128 0x2
 6328 0ce1 74       		.byte	0x74
 6329 0ce2 00       		.sleb128 0
 6330 0ce3 00       		.byte	0
 6331 0ce4 15       		.uleb128 0x15
 6332 0ce5 94000000 		.4byte	.LVL163
 6333 0ce9 212D0000 		.4byte	0x2d21
 6334 0ced FB0C0000 		.4byte	0xcfb
 6335 0cf1 16       		.uleb128 0x16
 6336 0cf2 01       		.uleb128 0x1
 6337 0cf3 50       		.byte	0x50
 6338 0cf4 05       		.uleb128 0x5
 6339 0cf5 03       		.byte	0x3
 6340 0cf6 00000000 		.4byte	ValidateAsciiCharactersFilter
 6341 0cfa 00       		.byte	0
 6342 0cfb 17       		.uleb128 0x17
 6343 0cfc BC000000 		.4byte	.LVL168
 6344 0d00 F1030000 		.4byte	0x3f1
 6345 0d04 16       		.uleb128 0x16
ARM GAS  C:\Users\Phuong\AppData\Local\Temp\cc4zbCpa.s 			page 138


 6346 0d05 01       		.uleb128 0x1
 6347 0d06 50       		.byte	0x50
 6348 0d07 02       		.uleb128 0x2
 6349 0d08 74       		.byte	0x74
 6350 0d09 00       		.sleb128 0
 6351 0d0a 00       		.byte	0
 6352 0d0b 00       		.byte	0
 6353 0d0c 1E       		.uleb128 0x1e
 6354 0d0d 97000000 		.4byte	0x97
 6355 0d11 1C0D0000 		.4byte	0xd1c
 6356 0d15 1F       		.uleb128 0x1f
 6357 0d16 7D000000 		.4byte	0x7d
 6358 0d1a 1E       		.byte	0x1e
 6359 0d1b 00       		.byte	0
 6360 0d1c 06       		.uleb128 0x6
 6361 0d1d 0C0D0000 		.4byte	0xd0c
 6362 0d21 22       		.uleb128 0x22
 6363 0d22 86060000 		.4byte	.LASF90
 6364 0d26 01       		.byte	0x1
 6365 0d27 0301     		.2byte	0x103
 6366 0d29 D9010000 		.4byte	0x1d9
 6367 0d2d 00000000 		.4byte	.LFB12
 6368 0d31 90030000 		.4byte	.LFE12-.LFB12
 6369 0d35 01       		.uleb128 0x1
 6370 0d36 9C       		.byte	0x9c
 6371 0d37 D9140000 		.4byte	0x14d9
 6372 0d3b 23       		.uleb128 0x23
 6373 0d3c 20030000 		.4byte	.LASF91
 6374 0d40 01       		.byte	0x1
 6375 0d41 0301     		.2byte	0x103
 6376 0d43 D9010000 		.4byte	0x1d9
 6377 0d47 FD070000 		.4byte	.LLST36
 6378 0d4b 24       		.uleb128 0x24
 6379 0d4c EA020000 		.4byte	.LASF65
 6380 0d50 01       		.byte	0x1
 6381 0d51 0501     		.2byte	0x105
 6382 0d53 92040000 		.4byte	0x492
 6383 0d57 92090000 		.4byte	.LLST37
 6384 0d5b 24       		.uleb128 0x24
 6385 0d5c 31090000 		.4byte	.LASF78
 6386 0d60 01       		.byte	0x1
 6387 0d61 0601     		.2byte	0x106
 6388 0d63 D9140000 		.4byte	0x14d9
 6389 0d67 080B0000 		.4byte	.LLST38
 6390 0d6b 1A       		.uleb128 0x1a
 6391 0d6c 5F0B0000 		.4byte	.LASF87
 6392 0d70 F4140000 		.4byte	0x14f4
 6393 0d74 05       		.uleb128 0x5
 6394 0d75 03       		.byte	0x3
 6395 0d76 60000000 		.4byte	__func__.6257
 6396 0d7a 1B       		.uleb128 0x1b
 6397 0d7b 08000000 		.4byte	.LBB18
 6398 0d7f 20000000 		.4byte	.LBE18-.LBB18
 6399 0d83 D60D0000 		.4byte	0xdd6
 6400 0d87 25       		.uleb128 0x25
 6401 0d88 6C00     		.ascii	"l\000"
 6402 0d8a 01       		.byte	0x1
ARM GAS  C:\Users\Phuong\AppData\Local\Temp\cc4zbCpa.s 			page 139


 6403 0d8b 0B01     		.2byte	0x10b
 6404 0d8d CA000000 		.4byte	0xca
 6405 0d91 9D0C0000 		.4byte	.LLST39
 6406 0d95 19       		.uleb128 0x19
 6407 0d96 0C000000 		.4byte	.LVL175
 6408 0d9a E12C0000 		.4byte	0x2ce1
 6409 0d9e 1D       		.uleb128 0x1d
 6410 0d9f 28000000 		.4byte	.LVL178
 6411 0da3 02       		.uleb128 0x2
 6412 0da4 74       		.byte	0x74
 6413 0da5 00       		.sleb128 0
 6414 0da6 16       		.uleb128 0x16
 6415 0da7 01       		.uleb128 0x1
 6416 0da8 50       		.byte	0x50
 6417 0da9 01       		.uleb128 0x1
 6418 0daa 30       		.byte	0x30
 6419 0dab 16       		.uleb128 0x16
 6420 0dac 01       		.uleb128 0x1
 6421 0dad 51       		.byte	0x51
 6422 0dae 05       		.uleb128 0x5
 6423 0daf 03       		.byte	0x3
 6424 0db0 00000000 		.4byte	.LC1
 6425 0db4 16       		.uleb128 0x16
 6426 0db5 01       		.uleb128 0x1
 6427 0db6 52       		.byte	0x52
 6428 0db7 05       		.uleb128 0x5
 6429 0db8 03       		.byte	0x3
 6430 0db9 60000000 		.4byte	.LANCHOR0+96
 6431 0dbd 16       		.uleb128 0x16
 6432 0dbe 01       		.uleb128 0x1
 6433 0dbf 53       		.byte	0x53
 6434 0dc0 03       		.uleb128 0x3
 6435 0dc1 0A       		.byte	0xa
 6436 0dc2 0B01     		.2byte	0x10b
 6437 0dc4 16       		.uleb128 0x16
 6438 0dc5 02       		.uleb128 0x2
 6439 0dc6 7D       		.byte	0x7d
 6440 0dc7 00       		.sleb128 0
 6441 0dc8 01       		.uleb128 0x1
 6442 0dc9 31       		.byte	0x31
 6443 0dca 16       		.uleb128 0x16
 6444 0dcb 02       		.uleb128 0x2
 6445 0dcc 7D       		.byte	0x7d
 6446 0dcd 04       		.sleb128 4
 6447 0dce 05       		.uleb128 0x5
 6448 0dcf 03       		.byte	0x3
 6449 0dd0 98010000 		.4byte	.LC38
 6450 0dd4 00       		.byte	0
 6451 0dd5 00       		.byte	0
 6452 0dd6 1B       		.uleb128 0x1b
 6453 0dd7 36000000 		.4byte	.LBB19
 6454 0ddb 22000000 		.4byte	.LBE19-.LBB19
 6455 0ddf 320E0000 		.4byte	0xe32
 6456 0de3 25       		.uleb128 0x25
 6457 0de4 6C00     		.ascii	"l\000"
 6458 0de6 01       		.byte	0x1
 6459 0de7 1501     		.2byte	0x115
ARM GAS  C:\Users\Phuong\AppData\Local\Temp\cc4zbCpa.s 			page 140


 6460 0de9 CA000000 		.4byte	0xca
 6461 0ded C60C0000 		.4byte	.LLST40
 6462 0df1 19       		.uleb128 0x19
 6463 0df2 3A000000 		.4byte	.LVL183
 6464 0df6 E12C0000 		.4byte	0x2ce1
 6465 0dfa 1D       		.uleb128 0x1d
 6466 0dfb 56000000 		.4byte	.LVL186
 6467 0dff 02       		.uleb128 0x2
 6468 0e00 74       		.byte	0x74
 6469 0e01 00       		.sleb128 0
 6470 0e02 16       		.uleb128 0x16
 6471 0e03 01       		.uleb128 0x1
 6472 0e04 50       		.byte	0x50
 6473 0e05 01       		.uleb128 0x1
 6474 0e06 30       		.byte	0x30
 6475 0e07 16       		.uleb128 0x16
 6476 0e08 01       		.uleb128 0x1
 6477 0e09 51       		.byte	0x51
 6478 0e0a 05       		.uleb128 0x5
 6479 0e0b 03       		.byte	0x3
 6480 0e0c 00000000 		.4byte	.LC1
 6481 0e10 16       		.uleb128 0x16
 6482 0e11 01       		.uleb128 0x1
 6483 0e12 52       		.byte	0x52
 6484 0e13 05       		.uleb128 0x5
 6485 0e14 03       		.byte	0x3
 6486 0e15 60000000 		.4byte	.LANCHOR0+96
 6487 0e19 16       		.uleb128 0x16
 6488 0e1a 01       		.uleb128 0x1
 6489 0e1b 53       		.byte	0x53
 6490 0e1c 03       		.uleb128 0x3
 6491 0e1d 0A       		.byte	0xa
 6492 0e1e 1501     		.2byte	0x115
 6493 0e20 16       		.uleb128 0x16
 6494 0e21 02       		.uleb128 0x2
 6495 0e22 7D       		.byte	0x7d
 6496 0e23 00       		.sleb128 0
 6497 0e24 01       		.uleb128 0x1
 6498 0e25 31       		.byte	0x31
 6499 0e26 16       		.uleb128 0x16
 6500 0e27 02       		.uleb128 0x2
 6501 0e28 7D       		.byte	0x7d
 6502 0e29 04       		.sleb128 4
 6503 0e2a 05       		.uleb128 0x5
 6504 0e2b 03       		.byte	0x3
 6505 0e2c F8000000 		.4byte	.LC19
 6506 0e30 00       		.byte	0
 6507 0e31 00       		.byte	0
 6508 0e32 1B       		.uleb128 0x1b
 6509 0e33 76000000 		.4byte	.LBB20
 6510 0e37 1E000000 		.4byte	.LBE20-.LBB20
 6511 0e3b 8E0E0000 		.4byte	0xe8e
 6512 0e3f 25       		.uleb128 0x25
 6513 0e40 6C00     		.ascii	"l\000"
 6514 0e42 01       		.byte	0x1
 6515 0e43 1E01     		.2byte	0x11e
 6516 0e45 CA000000 		.4byte	0xca
ARM GAS  C:\Users\Phuong\AppData\Local\Temp\cc4zbCpa.s 			page 141


 6517 0e49 E40C0000 		.4byte	.LLST41
 6518 0e4d 19       		.uleb128 0x19
 6519 0e4e 7A000000 		.4byte	.LVL190
 6520 0e52 E12C0000 		.4byte	0x2ce1
 6521 0e56 1D       		.uleb128 0x1d
 6522 0e57 94000000 		.4byte	.LVL193
 6523 0e5b 02       		.uleb128 0x2
 6524 0e5c 74       		.byte	0x74
 6525 0e5d 00       		.sleb128 0
 6526 0e5e 16       		.uleb128 0x16
 6527 0e5f 01       		.uleb128 0x1
 6528 0e60 50       		.byte	0x50
 6529 0e61 01       		.uleb128 0x1
 6530 0e62 30       		.byte	0x30
 6531 0e63 16       		.uleb128 0x16
 6532 0e64 01       		.uleb128 0x1
 6533 0e65 51       		.byte	0x51
 6534 0e66 05       		.uleb128 0x5
 6535 0e67 03       		.byte	0x3
 6536 0e68 00000000 		.4byte	.LC1
 6537 0e6c 16       		.uleb128 0x16
 6538 0e6d 01       		.uleb128 0x1
 6539 0e6e 52       		.byte	0x52
 6540 0e6f 05       		.uleb128 0x5
 6541 0e70 03       		.byte	0x3
 6542 0e71 60000000 		.4byte	.LANCHOR0+96
 6543 0e75 16       		.uleb128 0x16
 6544 0e76 01       		.uleb128 0x1
 6545 0e77 53       		.byte	0x53
 6546 0e78 03       		.uleb128 0x3
 6547 0e79 0A       		.byte	0xa
 6548 0e7a 1E01     		.2byte	0x11e
 6549 0e7c 16       		.uleb128 0x16
 6550 0e7d 02       		.uleb128 0x2
 6551 0e7e 7D       		.byte	0x7d
 6552 0e7f 00       		.sleb128 0
 6553 0e80 01       		.uleb128 0x1
 6554 0e81 31       		.byte	0x31
 6555 0e82 16       		.uleb128 0x16
 6556 0e83 02       		.uleb128 0x2
 6557 0e84 7D       		.byte	0x7d
 6558 0e85 04       		.sleb128 4
 6559 0e86 05       		.uleb128 0x5
 6560 0e87 03       		.byte	0x3
 6561 0e88 E0010000 		.4byte	.LC41
 6562 0e8c 00       		.byte	0
 6563 0e8d 00       		.byte	0
 6564 0e8e 1B       		.uleb128 0x1b
 6565 0e8f B0000000 		.4byte	.LBB21
 6566 0e93 1E000000 		.4byte	.LBE21-.LBB21
 6567 0e97 EA0E0000 		.4byte	0xeea
 6568 0e9b 25       		.uleb128 0x25
 6569 0e9c 6C00     		.ascii	"l\000"
 6570 0e9e 01       		.byte	0x1
 6571 0e9f 2401     		.2byte	0x124
 6572 0ea1 CA000000 		.4byte	0xca
 6573 0ea5 020D0000 		.4byte	.LLST42
ARM GAS  C:\Users\Phuong\AppData\Local\Temp\cc4zbCpa.s 			page 142


 6574 0ea9 19       		.uleb128 0x19
 6575 0eaa B4000000 		.4byte	.LVL197
 6576 0eae E12C0000 		.4byte	0x2ce1
 6577 0eb2 1D       		.uleb128 0x1d
 6578 0eb3 CE000000 		.4byte	.LVL200
 6579 0eb7 02       		.uleb128 0x2
 6580 0eb8 74       		.byte	0x74
 6581 0eb9 00       		.sleb128 0
 6582 0eba 16       		.uleb128 0x16
 6583 0ebb 01       		.uleb128 0x1
 6584 0ebc 50       		.byte	0x50
 6585 0ebd 01       		.uleb128 0x1
 6586 0ebe 30       		.byte	0x30
 6587 0ebf 16       		.uleb128 0x16
 6588 0ec0 01       		.uleb128 0x1
 6589 0ec1 51       		.byte	0x51
 6590 0ec2 05       		.uleb128 0x5
 6591 0ec3 03       		.byte	0x3
 6592 0ec4 00000000 		.4byte	.LC1
 6593 0ec8 16       		.uleb128 0x16
 6594 0ec9 01       		.uleb128 0x1
 6595 0eca 52       		.byte	0x52
 6596 0ecb 05       		.uleb128 0x5
 6597 0ecc 03       		.byte	0x3
 6598 0ecd 60000000 		.4byte	.LANCHOR0+96
 6599 0ed1 16       		.uleb128 0x16
 6600 0ed2 01       		.uleb128 0x1
 6601 0ed3 53       		.byte	0x53
 6602 0ed4 03       		.uleb128 0x3
 6603 0ed5 0A       		.byte	0xa
 6604 0ed6 2401     		.2byte	0x124
 6605 0ed8 16       		.uleb128 0x16
 6606 0ed9 02       		.uleb128 0x2
 6607 0eda 7D       		.byte	0x7d
 6608 0edb 00       		.sleb128 0
 6609 0edc 01       		.uleb128 0x1
 6610 0edd 31       		.byte	0x31
 6611 0ede 16       		.uleb128 0x16
 6612 0edf 02       		.uleb128 0x2
 6613 0ee0 7D       		.byte	0x7d
 6614 0ee1 04       		.sleb128 4
 6615 0ee2 05       		.uleb128 0x5
 6616 0ee3 03       		.byte	0x3
 6617 0ee4 FC010000 		.4byte	.LC43
 6618 0ee8 00       		.byte	0
 6619 0ee9 00       		.byte	0
 6620 0eea 1B       		.uleb128 0x1b
 6621 0eeb EA000000 		.4byte	.LBB22
 6622 0eef 1E000000 		.4byte	.LBE22-.LBB22
 6623 0ef3 460F0000 		.4byte	0xf46
 6624 0ef7 25       		.uleb128 0x25
 6625 0ef8 6C00     		.ascii	"l\000"
 6626 0efa 01       		.byte	0x1
 6627 0efb 2A01     		.2byte	0x12a
 6628 0efd CA000000 		.4byte	0xca
 6629 0f01 200D0000 		.4byte	.LLST43
 6630 0f05 19       		.uleb128 0x19
ARM GAS  C:\Users\Phuong\AppData\Local\Temp\cc4zbCpa.s 			page 143


 6631 0f06 EE000000 		.4byte	.LVL204
 6632 0f0a E12C0000 		.4byte	0x2ce1
 6633 0f0e 1D       		.uleb128 0x1d
 6634 0f0f 08010000 		.4byte	.LVL207
 6635 0f13 02       		.uleb128 0x2
 6636 0f14 74       		.byte	0x74
 6637 0f15 00       		.sleb128 0
 6638 0f16 16       		.uleb128 0x16
 6639 0f17 01       		.uleb128 0x1
 6640 0f18 50       		.byte	0x50
 6641 0f19 01       		.uleb128 0x1
 6642 0f1a 30       		.byte	0x30
 6643 0f1b 16       		.uleb128 0x16
 6644 0f1c 01       		.uleb128 0x1
 6645 0f1d 51       		.byte	0x51
 6646 0f1e 05       		.uleb128 0x5
 6647 0f1f 03       		.byte	0x3
 6648 0f20 00000000 		.4byte	.LC1
 6649 0f24 16       		.uleb128 0x16
 6650 0f25 01       		.uleb128 0x1
 6651 0f26 52       		.byte	0x52
 6652 0f27 05       		.uleb128 0x5
 6653 0f28 03       		.byte	0x3
 6654 0f29 60000000 		.4byte	.LANCHOR0+96
 6655 0f2d 16       		.uleb128 0x16
 6656 0f2e 01       		.uleb128 0x1
 6657 0f2f 53       		.byte	0x53
 6658 0f30 03       		.uleb128 0x3
 6659 0f31 0A       		.byte	0xa
 6660 0f32 2A01     		.2byte	0x12a
 6661 0f34 16       		.uleb128 0x16
 6662 0f35 02       		.uleb128 0x2
 6663 0f36 7D       		.byte	0x7d
 6664 0f37 00       		.sleb128 0
 6665 0f38 01       		.uleb128 0x1
 6666 0f39 31       		.byte	0x31
 6667 0f3a 16       		.uleb128 0x16
 6668 0f3b 02       		.uleb128 0x2
 6669 0f3c 7D       		.byte	0x7d
 6670 0f3d 04       		.sleb128 4
 6671 0f3e 05       		.uleb128 0x5
 6672 0f3f 03       		.byte	0x3
 6673 0f40 1C020000 		.4byte	.LC45
 6674 0f44 00       		.byte	0
 6675 0f45 00       		.byte	0
 6676 0f46 1B       		.uleb128 0x1b
 6677 0f47 24010000 		.4byte	.LBB23
 6678 0f4b 1E000000 		.4byte	.LBE23-.LBB23
 6679 0f4f A20F0000 		.4byte	0xfa2
 6680 0f53 25       		.uleb128 0x25
 6681 0f54 6C00     		.ascii	"l\000"
 6682 0f56 01       		.byte	0x1
 6683 0f57 3001     		.2byte	0x130
 6684 0f59 CA000000 		.4byte	0xca
 6685 0f5d 3E0D0000 		.4byte	.LLST44
 6686 0f61 19       		.uleb128 0x19
 6687 0f62 28010000 		.4byte	.LVL211
ARM GAS  C:\Users\Phuong\AppData\Local\Temp\cc4zbCpa.s 			page 144


 6688 0f66 E12C0000 		.4byte	0x2ce1
 6689 0f6a 1D       		.uleb128 0x1d
 6690 0f6b 42010000 		.4byte	.LVL214
 6691 0f6f 02       		.uleb128 0x2
 6692 0f70 74       		.byte	0x74
 6693 0f71 00       		.sleb128 0
 6694 0f72 16       		.uleb128 0x16
 6695 0f73 01       		.uleb128 0x1
 6696 0f74 50       		.byte	0x50
 6697 0f75 01       		.uleb128 0x1
 6698 0f76 30       		.byte	0x30
 6699 0f77 16       		.uleb128 0x16
 6700 0f78 01       		.uleb128 0x1
 6701 0f79 51       		.byte	0x51
 6702 0f7a 05       		.uleb128 0x5
 6703 0f7b 03       		.byte	0x3
 6704 0f7c 00000000 		.4byte	.LC1
 6705 0f80 16       		.uleb128 0x16
 6706 0f81 01       		.uleb128 0x1
 6707 0f82 52       		.byte	0x52
 6708 0f83 05       		.uleb128 0x5
 6709 0f84 03       		.byte	0x3
 6710 0f85 60000000 		.4byte	.LANCHOR0+96
 6711 0f89 16       		.uleb128 0x16
 6712 0f8a 01       		.uleb128 0x1
 6713 0f8b 53       		.byte	0x53
 6714 0f8c 03       		.uleb128 0x3
 6715 0f8d 0A       		.byte	0xa
 6716 0f8e 3001     		.2byte	0x130
 6717 0f90 16       		.uleb128 0x16
 6718 0f91 02       		.uleb128 0x2
 6719 0f92 7D       		.byte	0x7d
 6720 0f93 00       		.sleb128 0
 6721 0f94 01       		.uleb128 0x1
 6722 0f95 31       		.byte	0x31
 6723 0f96 16       		.uleb128 0x16
 6724 0f97 02       		.uleb128 0x2
 6725 0f98 7D       		.byte	0x7d
 6726 0f99 04       		.sleb128 4
 6727 0f9a 05       		.uleb128 0x5
 6728 0f9b 03       		.byte	0x3
 6729 0f9c 38020000 		.4byte	.LC47
 6730 0fa0 00       		.byte	0
 6731 0fa1 00       		.byte	0
 6732 0fa2 1B       		.uleb128 0x1b
 6733 0fa3 5C010000 		.4byte	.LBB24
 6734 0fa7 1E000000 		.4byte	.LBE24-.LBB24
 6735 0fab FE0F0000 		.4byte	0xffe
 6736 0faf 25       		.uleb128 0x25
 6737 0fb0 6C00     		.ascii	"l\000"
 6738 0fb2 01       		.byte	0x1
 6739 0fb3 3601     		.2byte	0x136
 6740 0fb5 CA000000 		.4byte	0xca
 6741 0fb9 5C0D0000 		.4byte	.LLST45
 6742 0fbd 19       		.uleb128 0x19
 6743 0fbe 60010000 		.4byte	.LVL218
 6744 0fc2 E12C0000 		.4byte	0x2ce1
ARM GAS  C:\Users\Phuong\AppData\Local\Temp\cc4zbCpa.s 			page 145


 6745 0fc6 1D       		.uleb128 0x1d
 6746 0fc7 7A010000 		.4byte	.LVL221
 6747 0fcb 02       		.uleb128 0x2
 6748 0fcc 74       		.byte	0x74
 6749 0fcd 00       		.sleb128 0
 6750 0fce 16       		.uleb128 0x16
 6751 0fcf 01       		.uleb128 0x1
 6752 0fd0 50       		.byte	0x50
 6753 0fd1 01       		.uleb128 0x1
 6754 0fd2 30       		.byte	0x30
 6755 0fd3 16       		.uleb128 0x16
 6756 0fd4 01       		.uleb128 0x1
 6757 0fd5 51       		.byte	0x51
 6758 0fd6 05       		.uleb128 0x5
 6759 0fd7 03       		.byte	0x3
 6760 0fd8 00000000 		.4byte	.LC1
 6761 0fdc 16       		.uleb128 0x16
 6762 0fdd 01       		.uleb128 0x1
 6763 0fde 52       		.byte	0x52
 6764 0fdf 05       		.uleb128 0x5
 6765 0fe0 03       		.byte	0x3
 6766 0fe1 60000000 		.4byte	.LANCHOR0+96
 6767 0fe5 16       		.uleb128 0x16
 6768 0fe6 01       		.uleb128 0x1
 6769 0fe7 53       		.byte	0x53
 6770 0fe8 03       		.uleb128 0x3
 6771 0fe9 0A       		.byte	0xa
 6772 0fea 3601     		.2byte	0x136
 6773 0fec 16       		.uleb128 0x16
 6774 0fed 02       		.uleb128 0x2
 6775 0fee 7D       		.byte	0x7d
 6776 0fef 00       		.sleb128 0
 6777 0ff0 01       		.uleb128 0x1
 6778 0ff1 31       		.byte	0x31
 6779 0ff2 16       		.uleb128 0x16
 6780 0ff3 02       		.uleb128 0x2
 6781 0ff4 7D       		.byte	0x7d
 6782 0ff5 04       		.sleb128 4
 6783 0ff6 05       		.uleb128 0x5
 6784 0ff7 03       		.byte	0x3
 6785 0ff8 58020000 		.4byte	.LC49
 6786 0ffc 00       		.byte	0
 6787 0ffd 00       		.byte	0
 6788 0ffe 1B       		.uleb128 0x1b
 6789 0fff 96010000 		.4byte	.LBB25
 6790 1003 1E000000 		.4byte	.LBE25-.LBB25
 6791 1007 5A100000 		.4byte	0x105a
 6792 100b 25       		.uleb128 0x25
 6793 100c 6C00     		.ascii	"l\000"
 6794 100e 01       		.byte	0x1
 6795 100f 3C01     		.2byte	0x13c
 6796 1011 CA000000 		.4byte	0xca
 6797 1015 7A0D0000 		.4byte	.LLST46
 6798 1019 19       		.uleb128 0x19
 6799 101a 9A010000 		.4byte	.LVL225
 6800 101e E12C0000 		.4byte	0x2ce1
 6801 1022 1D       		.uleb128 0x1d
ARM GAS  C:\Users\Phuong\AppData\Local\Temp\cc4zbCpa.s 			page 146


 6802 1023 B4010000 		.4byte	.LVL228
 6803 1027 02       		.uleb128 0x2
 6804 1028 74       		.byte	0x74
 6805 1029 00       		.sleb128 0
 6806 102a 16       		.uleb128 0x16
 6807 102b 01       		.uleb128 0x1
 6808 102c 50       		.byte	0x50
 6809 102d 01       		.uleb128 0x1
 6810 102e 30       		.byte	0x30
 6811 102f 16       		.uleb128 0x16
 6812 1030 01       		.uleb128 0x1
 6813 1031 51       		.byte	0x51
 6814 1032 05       		.uleb128 0x5
 6815 1033 03       		.byte	0x3
 6816 1034 00000000 		.4byte	.LC1
 6817 1038 16       		.uleb128 0x16
 6818 1039 01       		.uleb128 0x1
 6819 103a 52       		.byte	0x52
 6820 103b 05       		.uleb128 0x5
 6821 103c 03       		.byte	0x3
 6822 103d 60000000 		.4byte	.LANCHOR0+96
 6823 1041 16       		.uleb128 0x16
 6824 1042 01       		.uleb128 0x1
 6825 1043 53       		.byte	0x53
 6826 1044 03       		.uleb128 0x3
 6827 1045 0A       		.byte	0xa
 6828 1046 3C01     		.2byte	0x13c
 6829 1048 16       		.uleb128 0x16
 6830 1049 02       		.uleb128 0x2
 6831 104a 7D       		.byte	0x7d
 6832 104b 00       		.sleb128 0
 6833 104c 01       		.uleb128 0x1
 6834 104d 31       		.byte	0x31
 6835 104e 16       		.uleb128 0x16
 6836 104f 02       		.uleb128 0x2
 6837 1050 7D       		.byte	0x7d
 6838 1051 04       		.sleb128 4
 6839 1052 05       		.uleb128 0x5
 6840 1053 03       		.byte	0x3
 6841 1054 84020000 		.4byte	.LC51
 6842 1058 00       		.byte	0
 6843 1059 00       		.byte	0
 6844 105a 1B       		.uleb128 0x1b
 6845 105b D0010000 		.4byte	.LBB26
 6846 105f 1E000000 		.4byte	.LBE26-.LBB26
 6847 1063 B6100000 		.4byte	0x10b6
 6848 1067 25       		.uleb128 0x25
 6849 1068 6C00     		.ascii	"l\000"
 6850 106a 01       		.byte	0x1
 6851 106b 4201     		.2byte	0x142
 6852 106d CA000000 		.4byte	0xca
 6853 1071 980D0000 		.4byte	.LLST47
 6854 1075 19       		.uleb128 0x19
 6855 1076 D4010000 		.4byte	.LVL232
 6856 107a E12C0000 		.4byte	0x2ce1
 6857 107e 1D       		.uleb128 0x1d
 6858 107f EE010000 		.4byte	.LVL235
ARM GAS  C:\Users\Phuong\AppData\Local\Temp\cc4zbCpa.s 			page 147


 6859 1083 02       		.uleb128 0x2
 6860 1084 74       		.byte	0x74
 6861 1085 00       		.sleb128 0
 6862 1086 16       		.uleb128 0x16
 6863 1087 01       		.uleb128 0x1
 6864 1088 50       		.byte	0x50
 6865 1089 01       		.uleb128 0x1
 6866 108a 30       		.byte	0x30
 6867 108b 16       		.uleb128 0x16
 6868 108c 01       		.uleb128 0x1
 6869 108d 51       		.byte	0x51
 6870 108e 05       		.uleb128 0x5
 6871 108f 03       		.byte	0x3
 6872 1090 00000000 		.4byte	.LC1
 6873 1094 16       		.uleb128 0x16
 6874 1095 01       		.uleb128 0x1
 6875 1096 52       		.byte	0x52
 6876 1097 05       		.uleb128 0x5
 6877 1098 03       		.byte	0x3
 6878 1099 60000000 		.4byte	.LANCHOR0+96
 6879 109d 16       		.uleb128 0x16
 6880 109e 01       		.uleb128 0x1
 6881 109f 53       		.byte	0x53
 6882 10a0 03       		.uleb128 0x3
 6883 10a1 0A       		.byte	0xa
 6884 10a2 4201     		.2byte	0x142
 6885 10a4 16       		.uleb128 0x16
 6886 10a5 02       		.uleb128 0x2
 6887 10a6 7D       		.byte	0x7d
 6888 10a7 00       		.sleb128 0
 6889 10a8 01       		.uleb128 0x1
 6890 10a9 31       		.byte	0x31
 6891 10aa 16       		.uleb128 0x16
 6892 10ab 02       		.uleb128 0x2
 6893 10ac 7D       		.byte	0x7d
 6894 10ad 04       		.sleb128 4
 6895 10ae 05       		.uleb128 0x5
 6896 10af 03       		.byte	0x3
 6897 10b0 A0020000 		.4byte	.LC53
 6898 10b4 00       		.byte	0
 6899 10b5 00       		.byte	0
 6900 10b6 1B       		.uleb128 0x1b
 6901 10b7 0A020000 		.4byte	.LBB27
 6902 10bb 1E000000 		.4byte	.LBE27-.LBB27
 6903 10bf 12110000 		.4byte	0x1112
 6904 10c3 25       		.uleb128 0x25
 6905 10c4 6C00     		.ascii	"l\000"
 6906 10c6 01       		.byte	0x1
 6907 10c7 4801     		.2byte	0x148
 6908 10c9 CA000000 		.4byte	0xca
 6909 10cd B60D0000 		.4byte	.LLST48
 6910 10d1 19       		.uleb128 0x19
 6911 10d2 0E020000 		.4byte	.LVL239
 6912 10d6 E12C0000 		.4byte	0x2ce1
 6913 10da 1D       		.uleb128 0x1d
 6914 10db 28020000 		.4byte	.LVL242
 6915 10df 02       		.uleb128 0x2
ARM GAS  C:\Users\Phuong\AppData\Local\Temp\cc4zbCpa.s 			page 148


 6916 10e0 74       		.byte	0x74
 6917 10e1 00       		.sleb128 0
 6918 10e2 16       		.uleb128 0x16
 6919 10e3 01       		.uleb128 0x1
 6920 10e4 50       		.byte	0x50
 6921 10e5 01       		.uleb128 0x1
 6922 10e6 30       		.byte	0x30
 6923 10e7 16       		.uleb128 0x16
 6924 10e8 01       		.uleb128 0x1
 6925 10e9 51       		.byte	0x51
 6926 10ea 05       		.uleb128 0x5
 6927 10eb 03       		.byte	0x3
 6928 10ec 00000000 		.4byte	.LC1
 6929 10f0 16       		.uleb128 0x16
 6930 10f1 01       		.uleb128 0x1
 6931 10f2 52       		.byte	0x52
 6932 10f3 05       		.uleb128 0x5
 6933 10f4 03       		.byte	0x3
 6934 10f5 60000000 		.4byte	.LANCHOR0+96
 6935 10f9 16       		.uleb128 0x16
 6936 10fa 01       		.uleb128 0x1
 6937 10fb 53       		.byte	0x53
 6938 10fc 03       		.uleb128 0x3
 6939 10fd 0A       		.byte	0xa
 6940 10fe 4801     		.2byte	0x148
 6941 1100 16       		.uleb128 0x16
 6942 1101 02       		.uleb128 0x2
 6943 1102 7D       		.byte	0x7d
 6944 1103 00       		.sleb128 0
 6945 1104 01       		.uleb128 0x1
 6946 1105 31       		.byte	0x31
 6947 1106 16       		.uleb128 0x16
 6948 1107 02       		.uleb128 0x2
 6949 1108 7D       		.byte	0x7d
 6950 1109 04       		.sleb128 4
 6951 110a 05       		.uleb128 0x5
 6952 110b 03       		.byte	0x3
 6953 110c A0020000 		.4byte	.LC53
 6954 1110 00       		.byte	0
 6955 1111 00       		.byte	0
 6956 1112 1B       		.uleb128 0x1b
 6957 1113 44020000 		.4byte	.LBB28
 6958 1117 1E000000 		.4byte	.LBE28-.LBB28
 6959 111b 6E110000 		.4byte	0x116e
 6960 111f 25       		.uleb128 0x25
 6961 1120 6C00     		.ascii	"l\000"
 6962 1122 01       		.byte	0x1
 6963 1123 4E01     		.2byte	0x14e
 6964 1125 CA000000 		.4byte	0xca
 6965 1129 D40D0000 		.4byte	.LLST49
 6966 112d 19       		.uleb128 0x19
 6967 112e 48020000 		.4byte	.LVL246
 6968 1132 E12C0000 		.4byte	0x2ce1
 6969 1136 1D       		.uleb128 0x1d
 6970 1137 62020000 		.4byte	.LVL249
 6971 113b 02       		.uleb128 0x2
 6972 113c 74       		.byte	0x74
ARM GAS  C:\Users\Phuong\AppData\Local\Temp\cc4zbCpa.s 			page 149


 6973 113d 00       		.sleb128 0
 6974 113e 16       		.uleb128 0x16
 6975 113f 01       		.uleb128 0x1
 6976 1140 50       		.byte	0x50
 6977 1141 01       		.uleb128 0x1
 6978 1142 30       		.byte	0x30
 6979 1143 16       		.uleb128 0x16
 6980 1144 01       		.uleb128 0x1
 6981 1145 51       		.byte	0x51
 6982 1146 05       		.uleb128 0x5
 6983 1147 03       		.byte	0x3
 6984 1148 00000000 		.4byte	.LC1
 6985 114c 16       		.uleb128 0x16
 6986 114d 01       		.uleb128 0x1
 6987 114e 52       		.byte	0x52
 6988 114f 05       		.uleb128 0x5
 6989 1150 03       		.byte	0x3
 6990 1151 60000000 		.4byte	.LANCHOR0+96
 6991 1155 16       		.uleb128 0x16
 6992 1156 01       		.uleb128 0x1
 6993 1157 53       		.byte	0x53
 6994 1158 03       		.uleb128 0x3
 6995 1159 0A       		.byte	0xa
 6996 115a 4E01     		.2byte	0x14e
 6997 115c 16       		.uleb128 0x16
 6998 115d 02       		.uleb128 0x2
 6999 115e 7D       		.byte	0x7d
 7000 115f 00       		.sleb128 0
 7001 1160 01       		.uleb128 0x1
 7002 1161 31       		.byte	0x31
 7003 1162 16       		.uleb128 0x16
 7004 1163 02       		.uleb128 0x2
 7005 1164 7D       		.byte	0x7d
 7006 1165 04       		.sleb128 4
 7007 1166 05       		.uleb128 0x5
 7008 1167 03       		.byte	0x3
 7009 1168 A0020000 		.4byte	.LC53
 7010 116c 00       		.byte	0
 7011 116d 00       		.byte	0
 7012 116e 1B       		.uleb128 0x1b
 7013 116f 7E020000 		.4byte	.LBB29
 7014 1173 1E000000 		.4byte	.LBE29-.LBB29
 7015 1177 CA110000 		.4byte	0x11ca
 7016 117b 25       		.uleb128 0x25
 7017 117c 6C00     		.ascii	"l\000"
 7018 117e 01       		.byte	0x1
 7019 117f 5801     		.2byte	0x158
 7020 1181 CA000000 		.4byte	0xca
 7021 1185 F20D0000 		.4byte	.LLST50
 7022 1189 19       		.uleb128 0x19
 7023 118a 82020000 		.4byte	.LVL253
 7024 118e E12C0000 		.4byte	0x2ce1
 7025 1192 1D       		.uleb128 0x1d
 7026 1193 9C020000 		.4byte	.LVL256
 7027 1197 02       		.uleb128 0x2
 7028 1198 74       		.byte	0x74
 7029 1199 00       		.sleb128 0
ARM GAS  C:\Users\Phuong\AppData\Local\Temp\cc4zbCpa.s 			page 150


 7030 119a 16       		.uleb128 0x16
 7031 119b 01       		.uleb128 0x1
 7032 119c 50       		.byte	0x50
 7033 119d 01       		.uleb128 0x1
 7034 119e 30       		.byte	0x30
 7035 119f 16       		.uleb128 0x16
 7036 11a0 01       		.uleb128 0x1
 7037 11a1 51       		.byte	0x51
 7038 11a2 05       		.uleb128 0x5
 7039 11a3 03       		.byte	0x3
 7040 11a4 00000000 		.4byte	.LC1
 7041 11a8 16       		.uleb128 0x16
 7042 11a9 01       		.uleb128 0x1
 7043 11aa 52       		.byte	0x52
 7044 11ab 05       		.uleb128 0x5
 7045 11ac 03       		.byte	0x3
 7046 11ad 60000000 		.4byte	.LANCHOR0+96
 7047 11b1 16       		.uleb128 0x16
 7048 11b2 01       		.uleb128 0x1
 7049 11b3 53       		.byte	0x53
 7050 11b4 03       		.uleb128 0x3
 7051 11b5 0A       		.byte	0xa
 7052 11b6 5801     		.2byte	0x158
 7053 11b8 16       		.uleb128 0x16
 7054 11b9 02       		.uleb128 0x2
 7055 11ba 7D       		.byte	0x7d
 7056 11bb 00       		.sleb128 0
 7057 11bc 01       		.uleb128 0x1
 7058 11bd 31       		.byte	0x31
 7059 11be 16       		.uleb128 0x16
 7060 11bf 02       		.uleb128 0x2
 7061 11c0 7D       		.byte	0x7d
 7062 11c1 04       		.sleb128 4
 7063 11c2 05       		.uleb128 0x5
 7064 11c3 03       		.byte	0x3
 7065 11c4 BC020000 		.4byte	.LC55
 7066 11c8 00       		.byte	0
 7067 11c9 00       		.byte	0
 7068 11ca 1B       		.uleb128 0x1b
 7069 11cb B2020000 		.4byte	.LBB30
 7070 11cf 1E000000 		.4byte	.LBE30-.LBB30
 7071 11d3 26120000 		.4byte	0x1226
 7072 11d7 25       		.uleb128 0x25
 7073 11d8 6C00     		.ascii	"l\000"
 7074 11da 01       		.byte	0x1
 7075 11db 6001     		.2byte	0x160
 7076 11dd CA000000 		.4byte	0xca
 7077 11e1 100E0000 		.4byte	.LLST51
 7078 11e5 19       		.uleb128 0x19
 7079 11e6 B6020000 		.4byte	.LVL260
 7080 11ea E12C0000 		.4byte	0x2ce1
 7081 11ee 1D       		.uleb128 0x1d
 7082 11ef D0020000 		.4byte	.LVL263
 7083 11f3 02       		.uleb128 0x2
 7084 11f4 74       		.byte	0x74
 7085 11f5 00       		.sleb128 0
 7086 11f6 16       		.uleb128 0x16
ARM GAS  C:\Users\Phuong\AppData\Local\Temp\cc4zbCpa.s 			page 151


 7087 11f7 01       		.uleb128 0x1
 7088 11f8 50       		.byte	0x50
 7089 11f9 01       		.uleb128 0x1
 7090 11fa 30       		.byte	0x30
 7091 11fb 16       		.uleb128 0x16
 7092 11fc 01       		.uleb128 0x1
 7093 11fd 51       		.byte	0x51
 7094 11fe 05       		.uleb128 0x5
 7095 11ff 03       		.byte	0x3
 7096 1200 00000000 		.4byte	.LC1
 7097 1204 16       		.uleb128 0x16
 7098 1205 01       		.uleb128 0x1
 7099 1206 52       		.byte	0x52
 7100 1207 05       		.uleb128 0x5
 7101 1208 03       		.byte	0x3
 7102 1209 60000000 		.4byte	.LANCHOR0+96
 7103 120d 16       		.uleb128 0x16
 7104 120e 01       		.uleb128 0x1
 7105 120f 53       		.byte	0x53
 7106 1210 03       		.uleb128 0x3
 7107 1211 0A       		.byte	0xa
 7108 1212 6001     		.2byte	0x160
 7109 1214 16       		.uleb128 0x16
 7110 1215 02       		.uleb128 0x2
 7111 1216 7D       		.byte	0x7d
 7112 1217 00       		.sleb128 0
 7113 1218 01       		.uleb128 0x1
 7114 1219 31       		.byte	0x31
 7115 121a 16       		.uleb128 0x16
 7116 121b 02       		.uleb128 0x2
 7117 121c 7D       		.byte	0x7d
 7118 121d 04       		.sleb128 4
 7119 121e 05       		.uleb128 0x5
 7120 121f 03       		.byte	0x3
 7121 1220 D4020000 		.4byte	.LC57
 7122 1224 00       		.byte	0
 7123 1225 00       		.byte	0
 7124 1226 1B       		.uleb128 0x1b
 7125 1227 E6020000 		.4byte	.LBB31
 7126 122b 1E000000 		.4byte	.LBE31-.LBB31
 7127 122f 82120000 		.4byte	0x1282
 7128 1233 25       		.uleb128 0x25
 7129 1234 6C00     		.ascii	"l\000"
 7130 1236 01       		.byte	0x1
 7131 1237 6C01     		.2byte	0x16c
 7132 1239 CA000000 		.4byte	0xca
 7133 123d 2E0E0000 		.4byte	.LLST52
 7134 1241 19       		.uleb128 0x19
 7135 1242 EA020000 		.4byte	.LVL267
 7136 1246 E12C0000 		.4byte	0x2ce1
 7137 124a 1D       		.uleb128 0x1d
 7138 124b 04030000 		.4byte	.LVL270
 7139 124f 02       		.uleb128 0x2
 7140 1250 74       		.byte	0x74
 7141 1251 00       		.sleb128 0
 7142 1252 16       		.uleb128 0x16
 7143 1253 01       		.uleb128 0x1
ARM GAS  C:\Users\Phuong\AppData\Local\Temp\cc4zbCpa.s 			page 152


 7144 1254 50       		.byte	0x50
 7145 1255 01       		.uleb128 0x1
 7146 1256 30       		.byte	0x30
 7147 1257 16       		.uleb128 0x16
 7148 1258 01       		.uleb128 0x1
 7149 1259 51       		.byte	0x51
 7150 125a 05       		.uleb128 0x5
 7151 125b 03       		.byte	0x3
 7152 125c 00000000 		.4byte	.LC1
 7153 1260 16       		.uleb128 0x16
 7154 1261 01       		.uleb128 0x1
 7155 1262 52       		.byte	0x52
 7156 1263 05       		.uleb128 0x5
 7157 1264 03       		.byte	0x3
 7158 1265 60000000 		.4byte	.LANCHOR0+96
 7159 1269 16       		.uleb128 0x16
 7160 126a 01       		.uleb128 0x1
 7161 126b 53       		.byte	0x53
 7162 126c 03       		.uleb128 0x3
 7163 126d 0A       		.byte	0xa
 7164 126e 6C01     		.2byte	0x16c
 7165 1270 16       		.uleb128 0x16
 7166 1271 02       		.uleb128 0x2
 7167 1272 7D       		.byte	0x7d
 7168 1273 00       		.sleb128 0
 7169 1274 01       		.uleb128 0x1
 7170 1275 31       		.byte	0x31
 7171 1276 16       		.uleb128 0x16
 7172 1277 02       		.uleb128 0x2
 7173 1278 7D       		.byte	0x7d
 7174 1279 04       		.sleb128 4
 7175 127a 05       		.uleb128 0x5
 7176 127b 03       		.byte	0x3
 7177 127c E8020000 		.4byte	.LC59
 7178 1280 00       		.byte	0
 7179 1281 00       		.byte	0
 7180 1282 1B       		.uleb128 0x1b
 7181 1283 54030000 		.4byte	.LBB32
 7182 1287 1E000000 		.4byte	.LBE32-.LBB32
 7183 128b DE120000 		.4byte	0x12de
 7184 128f 25       		.uleb128 0x25
 7185 1290 6C00     		.ascii	"l\000"
 7186 1292 01       		.byte	0x1
 7187 1293 7401     		.2byte	0x174
 7188 1295 CA000000 		.4byte	0xca
 7189 1299 4C0E0000 		.4byte	.LLST53
 7190 129d 19       		.uleb128 0x19
 7191 129e 58030000 		.4byte	.LVL274
 7192 12a2 E12C0000 		.4byte	0x2ce1
 7193 12a6 1D       		.uleb128 0x1d
 7194 12a7 72030000 		.4byte	.LVL277
 7195 12ab 02       		.uleb128 0x2
 7196 12ac 74       		.byte	0x74
 7197 12ad 00       		.sleb128 0
 7198 12ae 16       		.uleb128 0x16
 7199 12af 01       		.uleb128 0x1
 7200 12b0 50       		.byte	0x50
ARM GAS  C:\Users\Phuong\AppData\Local\Temp\cc4zbCpa.s 			page 153


 7201 12b1 01       		.uleb128 0x1
 7202 12b2 30       		.byte	0x30
 7203 12b3 16       		.uleb128 0x16
 7204 12b4 01       		.uleb128 0x1
 7205 12b5 51       		.byte	0x51
 7206 12b6 05       		.uleb128 0x5
 7207 12b7 03       		.byte	0x3
 7208 12b8 00000000 		.4byte	.LC1
 7209 12bc 16       		.uleb128 0x16
 7210 12bd 01       		.uleb128 0x1
 7211 12be 52       		.byte	0x52
 7212 12bf 05       		.uleb128 0x5
 7213 12c0 03       		.byte	0x3
 7214 12c1 60000000 		.4byte	.LANCHOR0+96
 7215 12c5 16       		.uleb128 0x16
 7216 12c6 01       		.uleb128 0x1
 7217 12c7 53       		.byte	0x53
 7218 12c8 03       		.uleb128 0x3
 7219 12c9 0A       		.byte	0xa
 7220 12ca 7401     		.2byte	0x174
 7221 12cc 16       		.uleb128 0x16
 7222 12cd 02       		.uleb128 0x2
 7223 12ce 7D       		.byte	0x7d
 7224 12cf 00       		.sleb128 0
 7225 12d0 01       		.uleb128 0x1
 7226 12d1 31       		.byte	0x31
 7227 12d2 16       		.uleb128 0x16
 7228 12d3 02       		.uleb128 0x2
 7229 12d4 7D       		.byte	0x7d
 7230 12d5 04       		.sleb128 4
 7231 12d6 05       		.uleb128 0x5
 7232 12d7 03       		.byte	0x3
 7233 12d8 D4020000 		.4byte	.LC57
 7234 12dc 00       		.byte	0
 7235 12dd 00       		.byte	0
 7236 12de 15       		.uleb128 0x15
 7237 12df 32000000 		.4byte	.LVL181
 7238 12e3 EC2C0000 		.4byte	0x2cec
 7239 12e7 F2120000 		.4byte	0x12f2
 7240 12eb 16       		.uleb128 0x16
 7241 12ec 01       		.uleb128 0x1
 7242 12ed 50       		.byte	0x50
 7243 12ee 02       		.uleb128 0x2
 7244 12ef 08       		.byte	0x8
 7245 12f0 30       		.byte	0x30
 7246 12f1 00       		.byte	0
 7247 12f2 15       		.uleb128 0x15
 7248 12f3 60000000 		.4byte	.LVL188
 7249 12f7 0D2D0000 		.4byte	0x2d0d
 7250 12fb 0B130000 		.4byte	0x130b
 7251 12ff 16       		.uleb128 0x16
 7252 1300 01       		.uleb128 0x1
 7253 1301 51       		.byte	0x51
 7254 1302 01       		.uleb128 0x1
 7255 1303 30       		.byte	0x30
 7256 1304 16       		.uleb128 0x16
 7257 1305 01       		.uleb128 0x1
ARM GAS  C:\Users\Phuong\AppData\Local\Temp\cc4zbCpa.s 			page 154


 7258 1306 52       		.byte	0x52
 7259 1307 02       		.uleb128 0x2
 7260 1308 08       		.byte	0x8
 7261 1309 30       		.byte	0x30
 7262 130a 00       		.byte	0
 7263 130b 15       		.uleb128 0x15
 7264 130c 72000000 		.4byte	.LVL189
 7265 1310 F72C0000 		.4byte	0x2cf7
 7266 1314 1F130000 		.4byte	0x131f
 7267 1318 16       		.uleb128 0x16
 7268 1319 01       		.uleb128 0x1
 7269 131a 50       		.byte	0x50
 7270 131b 02       		.uleb128 0x2
 7271 131c 75       		.byte	0x75
 7272 131d 0C       		.sleb128 12
 7273 131e 00       		.byte	0
 7274 131f 15       		.uleb128 0x15
 7275 1320 9A000000 		.4byte	.LVL194
 7276 1324 F1030000 		.4byte	0x3f1
 7277 1328 33130000 		.4byte	0x1333
 7278 132c 16       		.uleb128 0x16
 7279 132d 01       		.uleb128 0x1
 7280 132e 50       		.byte	0x50
 7281 132f 02       		.uleb128 0x2
 7282 1330 75       		.byte	0x75
 7283 1331 00       		.sleb128 0
 7284 1332 00       		.byte	0
 7285 1333 15       		.uleb128 0x15
 7286 1334 AC000000 		.4byte	.LVL196
 7287 1338 F72C0000 		.4byte	0x2cf7
 7288 133c 47130000 		.4byte	0x1347
 7289 1340 16       		.uleb128 0x16
 7290 1341 01       		.uleb128 0x1
 7291 1342 50       		.byte	0x50
 7292 1343 02       		.uleb128 0x2
 7293 1344 75       		.byte	0x75
 7294 1345 10       		.sleb128 16
 7295 1346 00       		.byte	0
 7296 1347 15       		.uleb128 0x15
 7297 1348 D4000000 		.4byte	.LVL201
 7298 134c F1030000 		.4byte	0x3f1
 7299 1350 5B130000 		.4byte	0x135b
 7300 1354 16       		.uleb128 0x16
 7301 1355 01       		.uleb128 0x1
 7302 1356 50       		.byte	0x50
 7303 1357 02       		.uleb128 0x2
 7304 1358 75       		.byte	0x75
 7305 1359 00       		.sleb128 0
 7306 135a 00       		.byte	0
 7307 135b 15       		.uleb128 0x15
 7308 135c E6000000 		.4byte	.LVL203
 7309 1360 F72C0000 		.4byte	0x2cf7
 7310 1364 6F130000 		.4byte	0x136f
 7311 1368 16       		.uleb128 0x16
 7312 1369 01       		.uleb128 0x1
 7313 136a 50       		.byte	0x50
 7314 136b 02       		.uleb128 0x2
ARM GAS  C:\Users\Phuong\AppData\Local\Temp\cc4zbCpa.s 			page 155


 7315 136c 75       		.byte	0x75
 7316 136d 14       		.sleb128 20
 7317 136e 00       		.byte	0
 7318 136f 15       		.uleb128 0x15
 7319 1370 0E010000 		.4byte	.LVL208
 7320 1374 F1030000 		.4byte	0x3f1
 7321 1378 83130000 		.4byte	0x1383
 7322 137c 16       		.uleb128 0x16
 7323 137d 01       		.uleb128 0x1
 7324 137e 50       		.byte	0x50
 7325 137f 02       		.uleb128 0x2
 7326 1380 75       		.byte	0x75
 7327 1381 00       		.sleb128 0
 7328 1382 00       		.byte	0
 7329 1383 15       		.uleb128 0x15
 7330 1384 20010000 		.4byte	.LVL210
 7331 1388 F72C0000 		.4byte	0x2cf7
 7332 138c 97130000 		.4byte	0x1397
 7333 1390 16       		.uleb128 0x16
 7334 1391 01       		.uleb128 0x1
 7335 1392 50       		.byte	0x50
 7336 1393 02       		.uleb128 0x2
 7337 1394 75       		.byte	0x75
 7338 1395 18       		.sleb128 24
 7339 1396 00       		.byte	0
 7340 1397 15       		.uleb128 0x15
 7341 1398 48010000 		.4byte	.LVL215
 7342 139c F1030000 		.4byte	0x3f1
 7343 13a0 AB130000 		.4byte	0x13ab
 7344 13a4 16       		.uleb128 0x16
 7345 13a5 01       		.uleb128 0x1
 7346 13a6 50       		.byte	0x50
 7347 13a7 02       		.uleb128 0x2
 7348 13a8 75       		.byte	0x75
 7349 13a9 00       		.sleb128 0
 7350 13aa 00       		.byte	0
 7351 13ab 19       		.uleb128 0x19
 7352 13ac 56010000 		.4byte	.LVL217
 7353 13b0 98040000 		.4byte	0x498
 7354 13b4 15       		.uleb128 0x15
 7355 13b5 80010000 		.4byte	.LVL222
 7356 13b9 F1030000 		.4byte	0x3f1
 7357 13bd C8130000 		.4byte	0x13c8
 7358 13c1 16       		.uleb128 0x16
 7359 13c2 01       		.uleb128 0x1
 7360 13c3 50       		.byte	0x50
 7361 13c4 02       		.uleb128 0x2
 7362 13c5 75       		.byte	0x75
 7363 13c6 00       		.sleb128 0
 7364 13c7 00       		.byte	0
 7365 13c8 15       		.uleb128 0x15
 7366 13c9 92010000 		.4byte	.LVL224
 7367 13cd F72C0000 		.4byte	0x2cf7
 7368 13d1 DC130000 		.4byte	0x13dc
 7369 13d5 16       		.uleb128 0x16
 7370 13d6 01       		.uleb128 0x1
 7371 13d7 50       		.byte	0x50
ARM GAS  C:\Users\Phuong\AppData\Local\Temp\cc4zbCpa.s 			page 156


 7372 13d8 02       		.uleb128 0x2
 7373 13d9 75       		.byte	0x75
 7374 13da 1C       		.sleb128 28
 7375 13db 00       		.byte	0
 7376 13dc 15       		.uleb128 0x15
 7377 13dd BA010000 		.4byte	.LVL229
 7378 13e1 F1030000 		.4byte	0x3f1
 7379 13e5 F0130000 		.4byte	0x13f0
 7380 13e9 16       		.uleb128 0x16
 7381 13ea 01       		.uleb128 0x1
 7382 13eb 50       		.byte	0x50
 7383 13ec 02       		.uleb128 0x2
 7384 13ed 75       		.byte	0x75
 7385 13ee 00       		.sleb128 0
 7386 13ef 00       		.byte	0
 7387 13f0 15       		.uleb128 0x15
 7388 13f1 CC010000 		.4byte	.LVL231
 7389 13f5 F72C0000 		.4byte	0x2cf7
 7390 13f9 04140000 		.4byte	0x1404
 7391 13fd 16       		.uleb128 0x16
 7392 13fe 01       		.uleb128 0x1
 7393 13ff 50       		.byte	0x50
 7394 1400 02       		.uleb128 0x2
 7395 1401 75       		.byte	0x75
 7396 1402 20       		.sleb128 32
 7397 1403 00       		.byte	0
 7398 1404 15       		.uleb128 0x15
 7399 1405 F4010000 		.4byte	.LVL236
 7400 1409 F1030000 		.4byte	0x3f1
 7401 140d 18140000 		.4byte	0x1418
 7402 1411 16       		.uleb128 0x16
 7403 1412 01       		.uleb128 0x1
 7404 1413 50       		.byte	0x50
 7405 1414 02       		.uleb128 0x2
 7406 1415 75       		.byte	0x75
 7407 1416 00       		.sleb128 0
 7408 1417 00       		.byte	0
 7409 1418 15       		.uleb128 0x15
 7410 1419 06020000 		.4byte	.LVL238
 7411 141d F72C0000 		.4byte	0x2cf7
 7412 1421 2C140000 		.4byte	0x142c
 7413 1425 16       		.uleb128 0x16
 7414 1426 01       		.uleb128 0x1
 7415 1427 50       		.byte	0x50
 7416 1428 02       		.uleb128 0x2
 7417 1429 75       		.byte	0x75
 7418 142a 24       		.sleb128 36
 7419 142b 00       		.byte	0
 7420 142c 15       		.uleb128 0x15
 7421 142d 2E020000 		.4byte	.LVL243
 7422 1431 F1030000 		.4byte	0x3f1
 7423 1435 40140000 		.4byte	0x1440
 7424 1439 16       		.uleb128 0x16
 7425 143a 01       		.uleb128 0x1
 7426 143b 50       		.byte	0x50
 7427 143c 02       		.uleb128 0x2
 7428 143d 75       		.byte	0x75
ARM GAS  C:\Users\Phuong\AppData\Local\Temp\cc4zbCpa.s 			page 157


 7429 143e 00       		.sleb128 0
 7430 143f 00       		.byte	0
 7431 1440 15       		.uleb128 0x15
 7432 1441 40020000 		.4byte	.LVL245
 7433 1445 F72C0000 		.4byte	0x2cf7
 7434 1449 54140000 		.4byte	0x1454
 7435 144d 16       		.uleb128 0x16
 7436 144e 01       		.uleb128 0x1
 7437 144f 50       		.byte	0x50
 7438 1450 02       		.uleb128 0x2
 7439 1451 75       		.byte	0x75
 7440 1452 28       		.sleb128 40
 7441 1453 00       		.byte	0
 7442 1454 15       		.uleb128 0x15
 7443 1455 68020000 		.4byte	.LVL250
 7444 1459 F1030000 		.4byte	0x3f1
 7445 145d 68140000 		.4byte	0x1468
 7446 1461 16       		.uleb128 0x16
 7447 1462 01       		.uleb128 0x1
 7448 1463 50       		.byte	0x50
 7449 1464 02       		.uleb128 0x2
 7450 1465 75       		.byte	0x75
 7451 1466 00       		.sleb128 0
 7452 1467 00       		.byte	0
 7453 1468 19       		.uleb128 0x19
 7454 1469 78020000 		.4byte	.LVL252
 7455 146d 372D0000 		.4byte	0x2d37
 7456 1471 15       		.uleb128 0x15
 7457 1472 A2020000 		.4byte	.LVL257
 7458 1476 F1030000 		.4byte	0x3f1
 7459 147a 85140000 		.4byte	0x1485
 7460 147e 16       		.uleb128 0x16
 7461 147f 01       		.uleb128 0x1
 7462 1480 50       		.byte	0x50
 7463 1481 02       		.uleb128 0x2
 7464 1482 75       		.byte	0x75
 7465 1483 00       		.sleb128 0
 7466 1484 00       		.byte	0
 7467 1485 19       		.uleb128 0x19
 7468 1486 AC020000 		.4byte	.LVL259
 7469 148a 422D0000 		.4byte	0x2d42
 7470 148e 15       		.uleb128 0x15
 7471 148f D6020000 		.4byte	.LVL264
 7472 1493 F1030000 		.4byte	0x3f1
 7473 1497 A2140000 		.4byte	0x14a2
 7474 149b 16       		.uleb128 0x16
 7475 149c 01       		.uleb128 0x1
 7476 149d 50       		.byte	0x50
 7477 149e 02       		.uleb128 0x2
 7478 149f 75       		.byte	0x75
 7479 14a0 00       		.sleb128 0
 7480 14a1 00       		.byte	0
 7481 14a2 19       		.uleb128 0x19
 7482 14a3 E0020000 		.4byte	.LVL266
 7483 14a7 4D2D0000 		.4byte	0x2d4d
 7484 14ab 15       		.uleb128 0x15
 7485 14ac 0A030000 		.4byte	.LVL271
ARM GAS  C:\Users\Phuong\AppData\Local\Temp\cc4zbCpa.s 			page 158


 7486 14b0 F1030000 		.4byte	0x3f1
 7487 14b4 BF140000 		.4byte	0x14bf
 7488 14b8 16       		.uleb128 0x16
 7489 14b9 01       		.uleb128 0x1
 7490 14ba 50       		.byte	0x50
 7491 14bb 02       		.uleb128 0x2
 7492 14bc 75       		.byte	0x75
 7493 14bd 00       		.sleb128 0
 7494 14be 00       		.byte	0
 7495 14bf 19       		.uleb128 0x19
 7496 14c0 4E030000 		.4byte	.LVL273
 7497 14c4 422D0000 		.4byte	0x2d42
 7498 14c8 17       		.uleb128 0x17
 7499 14c9 78030000 		.4byte	.LVL278
 7500 14cd F1030000 		.4byte	0x3f1
 7501 14d1 16       		.uleb128 0x16
 7502 14d2 01       		.uleb128 0x1
 7503 14d3 50       		.byte	0x50
 7504 14d4 02       		.uleb128 0x2
 7505 14d5 75       		.byte	0x75
 7506 14d6 00       		.sleb128 0
 7507 14d7 00       		.byte	0
 7508 14d8 00       		.byte	0
 7509 14d9 05       		.uleb128 0x5
 7510 14da 04       		.byte	0x4
 7511 14db DF140000 		.4byte	0x14df
 7512 14df 06       		.uleb128 0x6
 7513 14e0 E7020000 		.4byte	0x2e7
 7514 14e4 1E       		.uleb128 0x1e
 7515 14e5 97000000 		.4byte	0x97
 7516 14e9 F4140000 		.4byte	0x14f4
 7517 14ed 1F       		.uleb128 0x1f
 7518 14ee 7D000000 		.4byte	0x7d
 7519 14f2 13       		.byte	0x13
 7520 14f3 00       		.byte	0
 7521 14f4 06       		.uleb128 0x6
 7522 14f5 E4140000 		.4byte	0x14e4
 7523 14f9 22       		.uleb128 0x22
 7524 14fa A8000000 		.4byte	.LASF92
 7525 14fe 01       		.byte	0x1
 7526 14ff 7E01     		.2byte	0x17e
 7527 1501 A0010000 		.4byte	0x1a0
 7528 1505 00000000 		.4byte	.LFB13
 7529 1509 9C000000 		.4byte	.LFE13-.LFB13
 7530 150d 01       		.uleb128 0x1
 7531 150e 9C       		.byte	0x9c
 7532 150f 61160000 		.4byte	0x1661
 7533 1513 23       		.uleb128 0x23
 7534 1514 20030000 		.4byte	.LASF91
 7535 1518 01       		.byte	0x1
 7536 1519 7E01     		.2byte	0x17e
 7537 151b D9010000 		.4byte	0x1d9
 7538 151f 6A0E0000 		.4byte	.LLST54
 7539 1523 23       		.uleb128 0x23
 7540 1524 72000000 		.4byte	.LASF93
 7541 1528 01       		.byte	0x1
 7542 1529 7E01     		.2byte	0x17e
ARM GAS  C:\Users\Phuong\AppData\Local\Temp\cc4zbCpa.s 			page 159


 7543 152b 61160000 		.4byte	0x1661
 7544 152f C20E0000 		.4byte	.LLST55
 7545 1533 23       		.uleb128 0x23
 7546 1534 36070000 		.4byte	.LASF86
 7547 1538 01       		.byte	0x1
 7548 1539 7E01     		.2byte	0x17e
 7549 153b 67160000 		.4byte	0x1667
 7550 153f 280F0000 		.4byte	.LLST56
 7551 1543 24       		.uleb128 0x24
 7552 1544 EA020000 		.4byte	.LASF65
 7553 1548 01       		.byte	0x1
 7554 1549 8001     		.2byte	0x180
 7555 154b A0010000 		.4byte	0x1a0
 7556 154f 800F0000 		.4byte	.LLST57
 7557 1553 1A       		.uleb128 0x1a
 7558 1554 5F0B0000 		.4byte	.LASF87
 7559 1558 7D160000 		.4byte	0x167d
 7560 155c 05       		.uleb128 0x5
 7561 155d 03       		.byte	0x3
 7562 155e 74000000 		.4byte	__func__.6309
 7563 1562 1B       		.uleb128 0x1b
 7564 1563 16000000 		.4byte	.LBB33
 7565 1567 24000000 		.4byte	.LBE33-.LBB33
 7566 156b D3150000 		.4byte	0x15d3
 7567 156f 25       		.uleb128 0x25
 7568 1570 6C00     		.ascii	"l\000"
 7569 1572 01       		.byte	0x1
 7570 1573 8801     		.2byte	0x188
 7571 1575 CA000000 		.4byte	0xca
 7572 1579 B70F0000 		.4byte	.LLST58
 7573 157d 19       		.uleb128 0x19
 7574 157e 1A000000 		.4byte	.LVL283
 7575 1582 E12C0000 		.4byte	0x2ce1
 7576 1586 1D       		.uleb128 0x1d
 7577 1587 3A000000 		.4byte	.LVL286
 7578 158b 02       		.uleb128 0x2
 7579 158c 77       		.byte	0x77
 7580 158d 00       		.sleb128 0
 7581 158e 16       		.uleb128 0x16
 7582 158f 01       		.uleb128 0x1
 7583 1590 50       		.byte	0x50
 7584 1591 01       		.uleb128 0x1
 7585 1592 30       		.byte	0x30
 7586 1593 16       		.uleb128 0x16
 7587 1594 01       		.uleb128 0x1
 7588 1595 51       		.byte	0x51
 7589 1596 05       		.uleb128 0x5
 7590 1597 03       		.byte	0x3
 7591 1598 00000000 		.4byte	.LC1
 7592 159c 16       		.uleb128 0x16
 7593 159d 01       		.uleb128 0x1
 7594 159e 52       		.byte	0x52
 7595 159f 05       		.uleb128 0x5
 7596 15a0 03       		.byte	0x3
 7597 15a1 74000000 		.4byte	.LANCHOR0+116
 7598 15a5 16       		.uleb128 0x16
 7599 15a6 01       		.uleb128 0x1
ARM GAS  C:\Users\Phuong\AppData\Local\Temp\cc4zbCpa.s 			page 160


 7600 15a7 53       		.byte	0x53
 7601 15a8 03       		.uleb128 0x3
 7602 15a9 0A       		.byte	0xa
 7603 15aa 8801     		.2byte	0x188
 7604 15ac 16       		.uleb128 0x16
 7605 15ad 02       		.uleb128 0x2
 7606 15ae 7D       		.byte	0x7d
 7607 15af 00       		.sleb128 0
 7608 15b0 01       		.uleb128 0x1
 7609 15b1 31       		.byte	0x31
 7610 15b2 16       		.uleb128 0x16
 7611 15b3 02       		.uleb128 0x2
 7612 15b4 7D       		.byte	0x7d
 7613 15b5 04       		.sleb128 4
 7614 15b6 05       		.uleb128 0x5
 7615 15b7 03       		.byte	0x3
 7616 15b8 00030000 		.4byte	.LC63
 7617 15bc 16       		.uleb128 0x16
 7618 15bd 02       		.uleb128 0x2
 7619 15be 7D       		.byte	0x7d
 7620 15bf 08       		.sleb128 8
 7621 15c0 02       		.uleb128 0x2
 7622 15c1 74       		.byte	0x74
 7623 15c2 00       		.sleb128 0
 7624 15c3 16       		.uleb128 0x16
 7625 15c4 02       		.uleb128 0x2
 7626 15c5 7D       		.byte	0x7d
 7627 15c6 0C       		.sleb128 12
 7628 15c7 02       		.uleb128 0x2
 7629 15c8 75       		.byte	0x75
 7630 15c9 00       		.sleb128 0
 7631 15ca 16       		.uleb128 0x16
 7632 15cb 02       		.uleb128 0x2
 7633 15cc 7D       		.byte	0x7d
 7634 15cd 10       		.sleb128 16
 7635 15ce 02       		.uleb128 0x2
 7636 15cf 76       		.byte	0x76
 7637 15d0 00       		.sleb128 0
 7638 15d1 00       		.byte	0
 7639 15d2 00       		.byte	0
 7640 15d3 26       		.uleb128 0x26
 7641 15d4 00000000 		.4byte	.Ldebug_ranges0+0
 7642 15d8 24       		.uleb128 0x24
 7643 15d9 D0000000 		.4byte	.LASF76
 7644 15dd 01       		.byte	0x1
 7645 15de 8D01     		.2byte	0x18d
 7646 15e0 92040000 		.4byte	0x492
 7647 15e4 EB0F0000 		.4byte	.LLST59
 7648 15e8 1B       		.uleb128 0x1b
 7649 15e9 44000000 		.4byte	.LBB35
 7650 15ed 26000000 		.4byte	.LBE35-.LBB35
 7651 15f1 4D160000 		.4byte	0x164d
 7652 15f5 25       		.uleb128 0x25
 7653 15f6 6C00     		.ascii	"l\000"
 7654 15f8 01       		.byte	0x1
 7655 15f9 9201     		.2byte	0x192
 7656 15fb CA000000 		.4byte	0xca
ARM GAS  C:\Users\Phuong\AppData\Local\Temp\cc4zbCpa.s 			page 161


 7657 15ff 2A100000 		.4byte	.LLST60
 7658 1603 19       		.uleb128 0x19
 7659 1604 48000000 		.4byte	.LVL289
 7660 1608 E12C0000 		.4byte	0x2ce1
 7661 160c 19       		.uleb128 0x19
 7662 160d 52000000 		.4byte	.LVL292
 7663 1611 5D070000 		.4byte	0x75d
 7664 1615 1D       		.uleb128 0x1d
 7665 1616 6A000000 		.4byte	.LVL293
 7666 161a 02       		.uleb128 0x2
 7667 161b 75       		.byte	0x75
 7668 161c 00       		.sleb128 0
 7669 161d 16       		.uleb128 0x16
 7670 161e 01       		.uleb128 0x1
 7671 161f 50       		.byte	0x50
 7672 1620 01       		.uleb128 0x1
 7673 1621 30       		.byte	0x30
 7674 1622 16       		.uleb128 0x16
 7675 1623 01       		.uleb128 0x1
 7676 1624 51       		.byte	0x51
 7677 1625 05       		.uleb128 0x5
 7678 1626 03       		.byte	0x3
 7679 1627 00000000 		.4byte	.LC1
 7680 162b 16       		.uleb128 0x16
 7681 162c 01       		.uleb128 0x1
 7682 162d 52       		.byte	0x52
 7683 162e 05       		.uleb128 0x5
 7684 162f 03       		.byte	0x3
 7685 1630 74000000 		.4byte	.LANCHOR0+116
 7686 1634 16       		.uleb128 0x16
 7687 1635 01       		.uleb128 0x1
 7688 1636 53       		.byte	0x53
 7689 1637 03       		.uleb128 0x3
 7690 1638 0A       		.byte	0xa
 7691 1639 9201     		.2byte	0x192
 7692 163b 16       		.uleb128 0x16
 7693 163c 02       		.uleb128 0x2
 7694 163d 7D       		.byte	0x7d
 7695 163e 00       		.sleb128 0
 7696 163f 01       		.uleb128 0x1
 7697 1640 31       		.byte	0x31
 7698 1641 16       		.uleb128 0x16
 7699 1642 02       		.uleb128 0x2
 7700 1643 7D       		.byte	0x7d
 7701 1644 04       		.sleb128 4
 7702 1645 05       		.uleb128 0x5
 7703 1646 03       		.byte	0x3
 7704 1647 98030000 		.4byte	.LC65
 7705 164b 00       		.byte	0
 7706 164c 00       		.byte	0
 7707 164d 19       		.uleb128 0x19
 7708 164e 74000000 		.4byte	.LVL296
 7709 1652 582D0000 		.4byte	0x2d58
 7710 1656 19       		.uleb128 0x19
 7711 1657 7C000000 		.4byte	.LVL297
 7712 165b 632D0000 		.4byte	0x2d63
 7713 165f 00       		.byte	0
ARM GAS  C:\Users\Phuong\AppData\Local\Temp\cc4zbCpa.s 			page 162


 7714 1660 00       		.byte	0
 7715 1661 05       		.uleb128 0x5
 7716 1662 04       		.byte	0x4
 7717 1663 C10A0000 		.4byte	0xac1
 7718 1667 05       		.uleb128 0x5
 7719 1668 04       		.byte	0x4
 7720 1669 25000000 		.4byte	0x25
 7721 166d 1E       		.uleb128 0x1e
 7722 166e 97000000 		.4byte	0x97
 7723 1672 7D160000 		.4byte	0x167d
 7724 1676 1F       		.uleb128 0x1f
 7725 1677 7D000000 		.4byte	0x7d
 7726 167b 1A       		.byte	0x1a
 7727 167c 00       		.byte	0
 7728 167d 06       		.uleb128 0x6
 7729 167e 6D160000 		.4byte	0x166d
 7730 1682 22       		.uleb128 0x22
 7731 1683 5B030000 		.4byte	.LASF94
 7732 1687 01       		.byte	0x1
 7733 1688 A001     		.2byte	0x1a0
 7734 168a 91000000 		.4byte	0x91
 7735 168e 00000000 		.4byte	.LFB14
 7736 1692 1C000000 		.4byte	.LFE14-.LFB14
 7737 1696 01       		.uleb128 0x1
 7738 1697 9C       		.byte	0x9c
 7739 1698 DC160000 		.4byte	0x16dc
 7740 169c 23       		.uleb128 0x23
 7741 169d 20030000 		.4byte	.LASF91
 7742 16a1 01       		.byte	0x1
 7743 16a2 A001     		.2byte	0x1a0
 7744 16a4 D9010000 		.4byte	0x1d9
 7745 16a8 53100000 		.4byte	.LLST61
 7746 16ac 24       		.uleb128 0x24
 7747 16ad EA020000 		.4byte	.LASF65
 7748 16b1 01       		.byte	0x1
 7749 16b2 A201     		.2byte	0x1a2
 7750 16b4 91000000 		.4byte	0x91
 7751 16b8 A6100000 		.4byte	.LLST62
 7752 16bc 26       		.uleb128 0x26
 7753 16bd 18000000 		.4byte	.Ldebug_ranges0+0x18
 7754 16c1 24       		.uleb128 0x24
 7755 16c2 D0000000 		.4byte	.LASF76
 7756 16c6 01       		.byte	0x1
 7757 16c7 AA01     		.2byte	0x1aa
 7758 16c9 92040000 		.4byte	0x492
 7759 16cd C4100000 		.4byte	.LLST63
 7760 16d1 19       		.uleb128 0x19
 7761 16d2 12000000 		.4byte	.LVL308
 7762 16d6 6E2D0000 		.4byte	0x2d6e
 7763 16da 00       		.byte	0
 7764 16db 00       		.byte	0
 7765 16dc 22       		.uleb128 0x22
 7766 16dd AA080000 		.4byte	.LASF95
 7767 16e1 01       		.byte	0x1
 7768 16e2 B901     		.2byte	0x1b9
 7769 16e4 CE010000 		.4byte	0x1ce
 7770 16e8 00000000 		.4byte	.LFB15
ARM GAS  C:\Users\Phuong\AppData\Local\Temp\cc4zbCpa.s 			page 163


 7771 16ec 0C000000 		.4byte	.LFE15-.LFB15
 7772 16f0 01       		.uleb128 0x1
 7773 16f1 9C       		.byte	0x9c
 7774 16f2 31170000 		.4byte	0x1731
 7775 16f6 23       		.uleb128 0x23
 7776 16f7 20030000 		.4byte	.LASF91
 7777 16fb 01       		.byte	0x1
 7778 16fc B901     		.2byte	0x1b9
 7779 16fe D9010000 		.4byte	0x1d9
 7780 1702 F0100000 		.4byte	.LLST64
 7781 1706 24       		.uleb128 0x24
 7782 1707 EA020000 		.4byte	.LASF65
 7783 170b 01       		.byte	0x1
 7784 170c BB01     		.2byte	0x1bb
 7785 170e CE010000 		.4byte	0x1ce
 7786 1712 2A110000 		.4byte	.LLST65
 7787 1716 21       		.uleb128 0x21
 7788 1717 04000000 		.4byte	.LBB39
 7789 171b 04000000 		.4byte	.LBE39-.LBB39
 7790 171f 24       		.uleb128 0x24
 7791 1720 D0000000 		.4byte	.LASF76
 7792 1724 01       		.byte	0x1
 7793 1725 C401     		.2byte	0x1c4
 7794 1727 92040000 		.4byte	0x492
 7795 172b 48110000 		.4byte	.LLST66
 7796 172f 00       		.byte	0
 7797 1730 00       		.byte	0
 7798 1731 22       		.uleb128 0x22
 7799 1732 DF0A0000 		.4byte	.LASF96
 7800 1736 01       		.byte	0x1
 7801 1737 CA01     		.2byte	0x1ca
 7802 1739 61010000 		.4byte	0x161
 7803 173d 00000000 		.4byte	.LFB16
 7804 1741 40000000 		.4byte	.LFE16-.LFB16
 7805 1745 01       		.uleb128 0x1
 7806 1746 9C       		.byte	0x9c
 7807 1747 F1170000 		.4byte	0x17f1
 7808 174b 23       		.uleb128 0x23
 7809 174c 20030000 		.4byte	.LASF91
 7810 1750 01       		.byte	0x1
 7811 1751 CA01     		.2byte	0x1ca
 7812 1753 D9010000 		.4byte	0x1d9
 7813 1757 69110000 		.4byte	.LLST67
 7814 175b 24       		.uleb128 0x24
 7815 175c EA020000 		.4byte	.LASF65
 7816 1760 01       		.byte	0x1
 7817 1761 CC01     		.2byte	0x1cc
 7818 1763 61010000 		.4byte	0x161
 7819 1767 A3110000 		.4byte	.LLST68
 7820 176b 1A       		.uleb128 0x1a
 7821 176c 5F0B0000 		.4byte	.LASF87
 7822 1770 01180000 		.4byte	0x1801
 7823 1774 05       		.uleb128 0x5
 7824 1775 03       		.byte	0x3
 7825 1776 90000000 		.4byte	__func__.6331
 7826 177a 1B       		.uleb128 0x1b
 7827 177b 08000000 		.4byte	.LBB40
ARM GAS  C:\Users\Phuong\AppData\Local\Temp\cc4zbCpa.s 			page 164


 7828 177f 1E000000 		.4byte	.LBE40-.LBB40
 7829 1783 D6170000 		.4byte	0x17d6
 7830 1787 25       		.uleb128 0x25
 7831 1788 6C00     		.ascii	"l\000"
 7832 178a 01       		.byte	0x1
 7833 178b D001     		.2byte	0x1d0
 7834 178d CA000000 		.4byte	0xca
 7835 1791 C1110000 		.4byte	.LLST69
 7836 1795 19       		.uleb128 0x19
 7837 1796 0C000000 		.4byte	.LVL319
 7838 179a E12C0000 		.4byte	0x2ce1
 7839 179e 1D       		.uleb128 0x1d
 7840 179f 26000000 		.4byte	.LVL322
 7841 17a3 02       		.uleb128 0x2
 7842 17a4 74       		.byte	0x74
 7843 17a5 00       		.sleb128 0
 7844 17a6 16       		.uleb128 0x16
 7845 17a7 01       		.uleb128 0x1
 7846 17a8 50       		.byte	0x50
 7847 17a9 01       		.uleb128 0x1
 7848 17aa 30       		.byte	0x30
 7849 17ab 16       		.uleb128 0x16
 7850 17ac 01       		.uleb128 0x1
 7851 17ad 51       		.byte	0x51
 7852 17ae 05       		.uleb128 0x5
 7853 17af 03       		.byte	0x3
 7854 17b0 00000000 		.4byte	.LC1
 7855 17b4 16       		.uleb128 0x16
 7856 17b5 01       		.uleb128 0x1
 7857 17b6 52       		.byte	0x52
 7858 17b7 05       		.uleb128 0x5
 7859 17b8 03       		.byte	0x3
 7860 17b9 90000000 		.4byte	.LANCHOR2+16
 7861 17bd 16       		.uleb128 0x16
 7862 17be 01       		.uleb128 0x1
 7863 17bf 53       		.byte	0x53
 7864 17c0 03       		.uleb128 0x3
 7865 17c1 0A       		.byte	0xa
 7866 17c2 D001     		.2byte	0x1d0
 7867 17c4 16       		.uleb128 0x16
 7868 17c5 02       		.uleb128 0x2
 7869 17c6 7D       		.byte	0x7d
 7870 17c7 00       		.sleb128 0
 7871 17c8 01       		.uleb128 0x1
 7872 17c9 31       		.byte	0x31
 7873 17ca 16       		.uleb128 0x16
 7874 17cb 02       		.uleb128 0x2
 7875 17cc 7D       		.byte	0x7d
 7876 17cd 04       		.sleb128 4
 7877 17ce 05       		.uleb128 0x5
 7878 17cf 03       		.byte	0x3
 7879 17d0 B4030000 		.4byte	.LC69
 7880 17d4 00       		.byte	0
 7881 17d5 00       		.byte	0
 7882 17d6 21       		.uleb128 0x21
 7883 17d7 2A000000 		.4byte	.LBB41
 7884 17db 04000000 		.4byte	.LBE41-.LBB41
ARM GAS  C:\Users\Phuong\AppData\Local\Temp\cc4zbCpa.s 			page 165


 7885 17df 24       		.uleb128 0x24
 7886 17e0 D0000000 		.4byte	.LASF76
 7887 17e4 01       		.byte	0x1
 7888 17e5 D601     		.2byte	0x1d6
 7889 17e7 92040000 		.4byte	0x492
 7890 17eb EA110000 		.4byte	.LLST70
 7891 17ef 00       		.byte	0
 7892 17f0 00       		.byte	0
 7893 17f1 1E       		.uleb128 0x1e
 7894 17f2 97000000 		.4byte	0x97
 7895 17f6 01180000 		.4byte	0x1801
 7896 17fa 1F       		.uleb128 0x1f
 7897 17fb 7D000000 		.4byte	0x7d
 7898 17ff 18       		.byte	0x18
 7899 1800 00       		.byte	0
 7900 1801 06       		.uleb128 0x6
 7901 1802 F1170000 		.4byte	0x17f1
 7902 1806 22       		.uleb128 0x22
 7903 1807 F80A0000 		.4byte	.LASF97
 7904 180b 01       		.byte	0x1
 7905 180c DC01     		.2byte	0x1dc
 7906 180e A0010000 		.4byte	0x1a0
 7907 1812 00000000 		.4byte	.LFB17
 7908 1816 88000000 		.4byte	.LFE17-.LFB17
 7909 181a 01       		.uleb128 0x1
 7910 181b 9C       		.byte	0x9c
 7911 181c 44190000 		.4byte	0x1944
 7912 1820 23       		.uleb128 0x23
 7913 1821 BC0A0000 		.4byte	.LASF98
 7914 1825 01       		.byte	0x1
 7915 1826 DC01     		.2byte	0x1dc
 7916 1828 D9010000 		.4byte	0x1d9
 7917 182c 0B120000 		.4byte	.LLST71
 7918 1830 27       		.uleb128 0x27
 7919 1831 6B657900 		.ascii	"key\000"
 7920 1835 01       		.byte	0x1
 7921 1836 DC01     		.2byte	0x1dc
 7922 1838 91000000 		.4byte	0x91
 7923 183c 66120000 		.4byte	.LLST72
 7924 1840 23       		.uleb128 0x23
 7925 1841 7D030000 		.4byte	.LASF45
 7926 1845 01       		.byte	0x1
 7927 1846 DC01     		.2byte	0x1dc
 7928 1848 91000000 		.4byte	0x91
 7929 184c A8120000 		.4byte	.LLST73
 7930 1850 28       		.uleb128 0x28
 7931 1851 EA020000 		.4byte	.LASF65
 7932 1855 01       		.byte	0x1
 7933 1856 DE01     		.2byte	0x1de
 7934 1858 A0010000 		.4byte	0x1a0
 7935 185c 01       		.uleb128 0x1
 7936 185d 50       		.byte	0x50
 7937 185e 1A       		.uleb128 0x1a
 7938 185f 5F0B0000 		.4byte	.LASF87
 7939 1863 54190000 		.4byte	0x1954
 7940 1867 05       		.uleb128 0x5
 7941 1868 03       		.byte	0x3
ARM GAS  C:\Users\Phuong\AppData\Local\Temp\cc4zbCpa.s 			page 166


 7942 1869 AC000000 		.4byte	__func__.6342
 7943 186d 1B       		.uleb128 0x1b
 7944 186e 16000000 		.4byte	.LBB42
 7945 1872 24000000 		.4byte	.LBE42-.LBB42
 7946 1876 DE180000 		.4byte	0x18de
 7947 187a 25       		.uleb128 0x25
 7948 187b 6C00     		.ascii	"l\000"
 7949 187d 01       		.byte	0x1
 7950 187e E101     		.2byte	0x1e1
 7951 1880 CA000000 		.4byte	0xca
 7952 1884 EA120000 		.4byte	.LLST74
 7953 1888 19       		.uleb128 0x19
 7954 1889 1A000000 		.4byte	.LVL328
 7955 188d E12C0000 		.4byte	0x2ce1
 7956 1891 1D       		.uleb128 0x1d
 7957 1892 3A000000 		.4byte	.LVL331
 7958 1896 02       		.uleb128 0x2
 7959 1897 77       		.byte	0x77
 7960 1898 00       		.sleb128 0
 7961 1899 16       		.uleb128 0x16
 7962 189a 01       		.uleb128 0x1
 7963 189b 50       		.byte	0x50
 7964 189c 01       		.uleb128 0x1
 7965 189d 30       		.byte	0x30
 7966 189e 16       		.uleb128 0x16
 7967 189f 01       		.uleb128 0x1
 7968 18a0 51       		.byte	0x51
 7969 18a1 05       		.uleb128 0x5
 7970 18a2 03       		.byte	0x3
 7971 18a3 00000000 		.4byte	.LC1
 7972 18a7 16       		.uleb128 0x16
 7973 18a8 01       		.uleb128 0x1
 7974 18a9 52       		.byte	0x52
 7975 18aa 05       		.uleb128 0x5
 7976 18ab 03       		.byte	0x3
 7977 18ac AC000000 		.4byte	.LANCHOR2+44
 7978 18b0 16       		.uleb128 0x16
 7979 18b1 01       		.uleb128 0x1
 7980 18b2 53       		.byte	0x53
 7981 18b3 03       		.uleb128 0x3
 7982 18b4 0A       		.byte	0xa
 7983 18b5 E101     		.2byte	0x1e1
 7984 18b7 16       		.uleb128 0x16
 7985 18b8 02       		.uleb128 0x2
 7986 18b9 7D       		.byte	0x7d
 7987 18ba 00       		.sleb128 0
 7988 18bb 01       		.uleb128 0x1
 7989 18bc 31       		.byte	0x31
 7990 18bd 16       		.uleb128 0x16
 7991 18be 02       		.uleb128 0x2
 7992 18bf 7D       		.byte	0x7d
 7993 18c0 04       		.sleb128 4
 7994 18c1 05       		.uleb128 0x5
 7995 18c2 03       		.byte	0x3
 7996 18c3 EC030000 		.4byte	.LC73
 7997 18c7 16       		.uleb128 0x16
 7998 18c8 02       		.uleb128 0x2
ARM GAS  C:\Users\Phuong\AppData\Local\Temp\cc4zbCpa.s 			page 167


 7999 18c9 7D       		.byte	0x7d
 8000 18ca 08       		.sleb128 8
 8001 18cb 02       		.uleb128 0x2
 8002 18cc 74       		.byte	0x74
 8003 18cd 00       		.sleb128 0
 8004 18ce 16       		.uleb128 0x16
 8005 18cf 02       		.uleb128 0x2
 8006 18d0 7D       		.byte	0x7d
 8007 18d1 0C       		.sleb128 12
 8008 18d2 02       		.uleb128 0x2
 8009 18d3 75       		.byte	0x75
 8010 18d4 00       		.sleb128 0
 8011 18d5 16       		.uleb128 0x16
 8012 18d6 02       		.uleb128 0x2
 8013 18d7 7D       		.byte	0x7d
 8014 18d8 10       		.sleb128 16
 8015 18d9 02       		.uleb128 0x2
 8016 18da 76       		.byte	0x76
 8017 18db 00       		.sleb128 0
 8018 18dc 00       		.byte	0
 8019 18dd 00       		.byte	0
 8020 18de 1B       		.uleb128 0x1b
 8021 18df 48000000 		.4byte	.LBB43
 8022 18e3 1E000000 		.4byte	.LBE43-.LBB43
 8023 18e7 3A190000 		.4byte	0x193a
 8024 18eb 25       		.uleb128 0x25
 8025 18ec 6C00     		.ascii	"l\000"
 8026 18ee 01       		.byte	0x1
 8027 18ef E801     		.2byte	0x1e8
 8028 18f1 CA000000 		.4byte	0xca
 8029 18f5 1E130000 		.4byte	.LLST75
 8030 18f9 19       		.uleb128 0x19
 8031 18fa 4C000000 		.4byte	.LVL335
 8032 18fe E12C0000 		.4byte	0x2ce1
 8033 1902 1D       		.uleb128 0x1d
 8034 1903 66000000 		.4byte	.LVL338
 8035 1907 02       		.uleb128 0x2
 8036 1908 74       		.byte	0x74
 8037 1909 00       		.sleb128 0
 8038 190a 16       		.uleb128 0x16
 8039 190b 01       		.uleb128 0x1
 8040 190c 50       		.byte	0x50
 8041 190d 01       		.uleb128 0x1
 8042 190e 30       		.byte	0x30
 8043 190f 16       		.uleb128 0x16
 8044 1910 01       		.uleb128 0x1
 8045 1911 51       		.byte	0x51
 8046 1912 05       		.uleb128 0x5
 8047 1913 03       		.byte	0x3
 8048 1914 00000000 		.4byte	.LC1
 8049 1918 16       		.uleb128 0x16
 8050 1919 01       		.uleb128 0x1
 8051 191a 52       		.byte	0x52
 8052 191b 05       		.uleb128 0x5
 8053 191c 03       		.byte	0x3
 8054 191d AC000000 		.4byte	.LANCHOR2+44
 8055 1921 16       		.uleb128 0x16
ARM GAS  C:\Users\Phuong\AppData\Local\Temp\cc4zbCpa.s 			page 168


 8056 1922 01       		.uleb128 0x1
 8057 1923 53       		.byte	0x53
 8058 1924 03       		.uleb128 0x3
 8059 1925 0A       		.byte	0xa
 8060 1926 E801     		.2byte	0x1e8
 8061 1928 16       		.uleb128 0x16
 8062 1929 02       		.uleb128 0x2
 8063 192a 7D       		.byte	0x7d
 8064 192b 00       		.sleb128 0
 8065 192c 01       		.uleb128 0x1
 8066 192d 31       		.byte	0x31
 8067 192e 16       		.uleb128 0x16
 8068 192f 02       		.uleb128 0x2
 8069 1930 7D       		.byte	0x7d
 8070 1931 04       		.sleb128 4
 8071 1932 05       		.uleb128 0x5
 8072 1933 03       		.byte	0x3
 8073 1934 4C040000 		.4byte	.LC75
 8074 1938 00       		.byte	0
 8075 1939 00       		.byte	0
 8076 193a 19       		.uleb128 0x19
 8077 193b 44000000 		.4byte	.LVL334
 8078 193f 792D0000 		.4byte	0x2d79
 8079 1943 00       		.byte	0
 8080 1944 1E       		.uleb128 0x1e
 8081 1945 97000000 		.4byte	0x97
 8082 1949 54190000 		.4byte	0x1954
 8083 194d 1F       		.uleb128 0x1f
 8084 194e 7D000000 		.4byte	0x7d
 8085 1952 19       		.byte	0x19
 8086 1953 00       		.byte	0
 8087 1954 06       		.uleb128 0x6
 8088 1955 44190000 		.4byte	0x1944
 8089 1959 22       		.uleb128 0x22
 8090 195a 43000000 		.4byte	.LASF99
 8091 195e 01       		.byte	0x1
 8092 195f F301     		.2byte	0x1f3
 8093 1961 91000000 		.4byte	0x91
 8094 1965 00000000 		.4byte	.LFB18
 8095 1969 78000000 		.4byte	.LFE18-.LFB18
 8096 196d 01       		.uleb128 0x1
 8097 196e 9C       		.byte	0x9c
 8098 196f 5A1A0000 		.4byte	0x1a5a
 8099 1973 23       		.uleb128 0x23
 8100 1974 BC0A0000 		.4byte	.LASF98
 8101 1978 01       		.byte	0x1
 8102 1979 F301     		.2byte	0x1f3
 8103 197b D9010000 		.4byte	0x1d9
 8104 197f 47130000 		.4byte	.LLST76
 8105 1983 27       		.uleb128 0x27
 8106 1984 6B657900 		.ascii	"key\000"
 8107 1988 01       		.byte	0x1
 8108 1989 F301     		.2byte	0x1f3
 8109 198b 91000000 		.4byte	0x91
 8110 198f 89130000 		.4byte	.LLST77
 8111 1993 24       		.uleb128 0x24
 8112 1994 EA020000 		.4byte	.LASF65
ARM GAS  C:\Users\Phuong\AppData\Local\Temp\cc4zbCpa.s 			page 169


 8113 1998 01       		.byte	0x1
 8114 1999 F501     		.2byte	0x1f5
 8115 199b 91000000 		.4byte	0x91
 8116 199f CB130000 		.4byte	.LLST78
 8117 19a3 1A       		.uleb128 0x1a
 8118 19a4 5F0B0000 		.4byte	.LASF87
 8119 19a8 5A1A0000 		.4byte	0x1a5a
 8120 19ac 05       		.uleb128 0x5
 8121 19ad 03       		.byte	0x3
 8122 19ae C8000000 		.4byte	__func__.6354
 8123 19b2 1B       		.uleb128 0x1b
 8124 19b3 10000000 		.4byte	.LBB44
 8125 19b7 22000000 		.4byte	.LBE44-.LBB44
 8126 19bb 1C1A0000 		.4byte	0x1a1c
 8127 19bf 25       		.uleb128 0x25
 8128 19c0 6C00     		.ascii	"l\000"
 8129 19c2 01       		.byte	0x1
 8130 19c3 F801     		.2byte	0x1f8
 8131 19c5 CA000000 		.4byte	0xca
 8132 19c9 F5130000 		.4byte	.LLST79
 8133 19cd 19       		.uleb128 0x19
 8134 19ce 14000000 		.4byte	.LVL347
 8135 19d2 E12C0000 		.4byte	0x2ce1
 8136 19d6 1D       		.uleb128 0x1d
 8137 19d7 32000000 		.4byte	.LVL350
 8138 19db 02       		.uleb128 0x2
 8139 19dc 76       		.byte	0x76
 8140 19dd 00       		.sleb128 0
 8141 19de 16       		.uleb128 0x16
 8142 19df 01       		.uleb128 0x1
 8143 19e0 50       		.byte	0x50
 8144 19e1 01       		.uleb128 0x1
 8145 19e2 30       		.byte	0x30
 8146 19e3 16       		.uleb128 0x16
 8147 19e4 01       		.uleb128 0x1
 8148 19e5 51       		.byte	0x51
 8149 19e6 05       		.uleb128 0x5
 8150 19e7 03       		.byte	0x3
 8151 19e8 00000000 		.4byte	.LC1
 8152 19ec 16       		.uleb128 0x16
 8153 19ed 01       		.uleb128 0x1
 8154 19ee 52       		.byte	0x52
 8155 19ef 05       		.uleb128 0x5
 8156 19f0 03       		.byte	0x3
 8157 19f1 C8000000 		.4byte	.LANCHOR2+72
 8158 19f5 16       		.uleb128 0x16
 8159 19f6 01       		.uleb128 0x1
 8160 19f7 53       		.byte	0x53
 8161 19f8 03       		.uleb128 0x3
 8162 19f9 0A       		.byte	0xa
 8163 19fa F801     		.2byte	0x1f8
 8164 19fc 16       		.uleb128 0x16
 8165 19fd 02       		.uleb128 0x2
 8166 19fe 7D       		.byte	0x7d
 8167 19ff 00       		.sleb128 0
 8168 1a00 01       		.uleb128 0x1
 8169 1a01 31       		.byte	0x31
ARM GAS  C:\Users\Phuong\AppData\Local\Temp\cc4zbCpa.s 			page 170


 8170 1a02 16       		.uleb128 0x16
 8171 1a03 02       		.uleb128 0x2
 8172 1a04 7D       		.byte	0x7d
 8173 1a05 04       		.sleb128 4
 8174 1a06 05       		.uleb128 0x5
 8175 1a07 03       		.byte	0x3
 8176 1a08 74040000 		.4byte	.LC79
 8177 1a0c 16       		.uleb128 0x16
 8178 1a0d 02       		.uleb128 0x2
 8179 1a0e 7D       		.byte	0x7d
 8180 1a0f 08       		.sleb128 8
 8181 1a10 02       		.uleb128 0x2
 8182 1a11 74       		.byte	0x74
 8183 1a12 00       		.sleb128 0
 8184 1a13 16       		.uleb128 0x16
 8185 1a14 02       		.uleb128 0x2
 8186 1a15 7D       		.byte	0x7d
 8187 1a16 0C       		.sleb128 12
 8188 1a17 02       		.uleb128 0x2
 8189 1a18 75       		.byte	0x75
 8190 1a19 00       		.sleb128 0
 8191 1a1a 00       		.byte	0
 8192 1a1b 00       		.byte	0
 8193 1a1c 21       		.uleb128 0x21
 8194 1a1d 36000000 		.4byte	.LBB45
 8195 1a21 2E000000 		.4byte	.LBE45-.LBB45
 8196 1a25 28       		.uleb128 0x28
 8197 1a26 0C090000 		.4byte	.LASF100
 8198 1a2a 01       		.byte	0x1
 8199 1a2b FD01     		.2byte	0x1fd
 8200 1a2d 39030000 		.4byte	0x339
 8201 1a31 02       		.uleb128 0x2
 8202 1a32 91       		.byte	0x91
 8203 1a33 6F       		.sleb128 -17
 8204 1a34 15       		.uleb128 0x15
 8205 1a35 44000000 		.4byte	.LVL353
 8206 1a39 842D0000 		.4byte	0x2d84
 8207 1a3d 481A0000 		.4byte	0x1a48
 8208 1a41 16       		.uleb128 0x16
 8209 1a42 01       		.uleb128 0x1
 8210 1a43 52       		.byte	0x52
 8211 1a44 02       		.uleb128 0x2
 8212 1a45 91       		.byte	0x91
 8213 1a46 6F       		.sleb128 -17
 8214 1a47 00       		.byte	0
 8215 1a48 17       		.uleb128 0x17
 8216 1a49 5A000000 		.4byte	.LVL354
 8217 1a4d 8F2D0000 		.4byte	0x2d8f
 8218 1a51 16       		.uleb128 0x16
 8219 1a52 01       		.uleb128 0x1
 8220 1a53 51       		.byte	0x51
 8221 1a54 02       		.uleb128 0x2
 8222 1a55 75       		.byte	0x75
 8223 1a56 00       		.sleb128 0
 8224 1a57 00       		.byte	0
 8225 1a58 00       		.byte	0
 8226 1a59 00       		.byte	0
ARM GAS  C:\Users\Phuong\AppData\Local\Temp\cc4zbCpa.s 			page 171


 8227 1a5a 06       		.uleb128 0x6
 8228 1a5b 44190000 		.4byte	0x1944
 8229 1a5f 22       		.uleb128 0x22
 8230 1a60 0E0C0000 		.4byte	.LASF101
 8231 1a64 01       		.byte	0x1
 8232 1a65 0B02     		.2byte	0x20b
 8233 1a67 91000000 		.4byte	0x91
 8234 1a6b 00000000 		.4byte	.LFB19
 8235 1a6f 44000000 		.4byte	.LFE19-.LFB19
 8236 1a73 01       		.uleb128 0x1
 8237 1a74 9C       		.byte	0x9c
 8238 1a75 1F1B0000 		.4byte	0x1b1f
 8239 1a79 23       		.uleb128 0x23
 8240 1a7a 20030000 		.4byte	.LASF91
 8241 1a7e 01       		.byte	0x1
 8242 1a7f 0B02     		.2byte	0x20b
 8243 1a81 D9010000 		.4byte	0x1d9
 8244 1a85 1E140000 		.4byte	.LLST80
 8245 1a89 24       		.uleb128 0x24
 8246 1a8a EA020000 		.4byte	.LASF65
 8247 1a8e 01       		.byte	0x1
 8248 1a8f 0D02     		.2byte	0x20d
 8249 1a91 91000000 		.4byte	0x91
 8250 1a95 58140000 		.4byte	.LLST81
 8251 1a99 1A       		.uleb128 0x1a
 8252 1a9a 5F0B0000 		.4byte	.LASF87
 8253 1a9e 1F1B0000 		.4byte	0x1b1f
 8254 1aa2 05       		.uleb128 0x5
 8255 1aa3 03       		.byte	0x3
 8256 1aa4 E4000000 		.4byte	__func__.6363
 8257 1aa8 1B       		.uleb128 0x1b
 8258 1aa9 08000000 		.4byte	.LBB46
 8259 1aad 1C000000 		.4byte	.LBE46-.LBB46
 8260 1ab1 041B0000 		.4byte	0x1b04
 8261 1ab5 25       		.uleb128 0x25
 8262 1ab6 6C00     		.ascii	"l\000"
 8263 1ab8 01       		.byte	0x1
 8264 1ab9 1102     		.2byte	0x211
 8265 1abb CA000000 		.4byte	0xca
 8266 1abf 76140000 		.4byte	.LLST82
 8267 1ac3 19       		.uleb128 0x19
 8268 1ac4 0C000000 		.4byte	.LVL362
 8269 1ac8 E12C0000 		.4byte	0x2ce1
 8270 1acc 1D       		.uleb128 0x1d
 8271 1acd 24000000 		.4byte	.LVL365
 8272 1ad1 02       		.uleb128 0x2
 8273 1ad2 74       		.byte	0x74
 8274 1ad3 00       		.sleb128 0
 8275 1ad4 16       		.uleb128 0x16
 8276 1ad5 01       		.uleb128 0x1
 8277 1ad6 50       		.byte	0x50
 8278 1ad7 01       		.uleb128 0x1
 8279 1ad8 30       		.byte	0x30
 8280 1ad9 16       		.uleb128 0x16
 8281 1ada 01       		.uleb128 0x1
 8282 1adb 51       		.byte	0x51
 8283 1adc 05       		.uleb128 0x5
ARM GAS  C:\Users\Phuong\AppData\Local\Temp\cc4zbCpa.s 			page 172


 8284 1add 03       		.byte	0x3
 8285 1ade 00000000 		.4byte	.LC1
 8286 1ae2 16       		.uleb128 0x16
 8287 1ae3 01       		.uleb128 0x1
 8288 1ae4 52       		.byte	0x52
 8289 1ae5 05       		.uleb128 0x5
 8290 1ae6 03       		.byte	0x3
 8291 1ae7 E4000000 		.4byte	.LANCHOR2+100
 8292 1aeb 16       		.uleb128 0x16
 8293 1aec 01       		.uleb128 0x1
 8294 1aed 53       		.byte	0x53
 8295 1aee 03       		.uleb128 0x3
 8296 1aef 0A       		.byte	0xa
 8297 1af0 1102     		.2byte	0x211
 8298 1af2 16       		.uleb128 0x16
 8299 1af3 02       		.uleb128 0x2
 8300 1af4 7D       		.byte	0x7d
 8301 1af5 00       		.sleb128 0
 8302 1af6 01       		.uleb128 0x1
 8303 1af7 31       		.byte	0x31
 8304 1af8 16       		.uleb128 0x16
 8305 1af9 02       		.uleb128 0x2
 8306 1afa 7D       		.byte	0x7d
 8307 1afb 04       		.sleb128 4
 8308 1afc 05       		.uleb128 0x5
 8309 1afd 03       		.byte	0x3
 8310 1afe CC040000 		.4byte	.LC83
 8311 1b02 00       		.byte	0
 8312 1b03 00       		.byte	0
 8313 1b04 21       		.uleb128 0x21
 8314 1b05 28000000 		.4byte	.LBB47
 8315 1b09 04000000 		.4byte	.LBE47-.LBB47
 8316 1b0d 24       		.uleb128 0x24
 8317 1b0e D0000000 		.4byte	.LASF76
 8318 1b12 01       		.byte	0x1
 8319 1b13 1702     		.2byte	0x217
 8320 1b15 92040000 		.4byte	0x492
 8321 1b19 9F140000 		.4byte	.LLST83
 8322 1b1d 00       		.byte	0
 8323 1b1e 00       		.byte	0
 8324 1b1f 06       		.uleb128 0x6
 8325 1b20 0C0D0000 		.4byte	0xd0c
 8326 1b24 22       		.uleb128 0x22
 8327 1b25 B7090000 		.4byte	.LASF102
 8328 1b29 01       		.byte	0x1
 8329 1b2a 1D02     		.2byte	0x21d
 8330 1b2c A0010000 		.4byte	0x1a0
 8331 1b30 00000000 		.4byte	.LFB20
 8332 1b34 6C000000 		.4byte	.LFE20-.LFB20
 8333 1b38 01       		.uleb128 0x1
 8334 1b39 9C       		.byte	0x9c
 8335 1b3a 0D1C0000 		.4byte	0x1c0d
 8336 1b3e 23       		.uleb128 0x23
 8337 1b3f 20030000 		.4byte	.LASF91
 8338 1b43 01       		.byte	0x1
 8339 1b44 1D02     		.2byte	0x21d
 8340 1b46 D9010000 		.4byte	0x1d9
ARM GAS  C:\Users\Phuong\AppData\Local\Temp\cc4zbCpa.s 			page 173


 8341 1b4a C0140000 		.4byte	.LLST84
 8342 1b4e 23       		.uleb128 0x23
 8343 1b4f C1020000 		.4byte	.LASF48
 8344 1b53 01       		.byte	0x1
 8345 1b54 1D02     		.2byte	0x21d
 8346 1b56 91000000 		.4byte	0x91
 8347 1b5a 29150000 		.4byte	.LLST85
 8348 1b5e 28       		.uleb128 0x28
 8349 1b5f EA020000 		.4byte	.LASF65
 8350 1b63 01       		.byte	0x1
 8351 1b64 1F02     		.2byte	0x21f
 8352 1b66 A0010000 		.4byte	0x1a0
 8353 1b6a 01       		.uleb128 0x1
 8354 1b6b 50       		.byte	0x50
 8355 1b6c 1A       		.uleb128 0x1a
 8356 1b6d 5F0B0000 		.4byte	.LASF87
 8357 1b71 0D1C0000 		.4byte	0x1c0d
 8358 1b75 05       		.uleb128 0x5
 8359 1b76 03       		.byte	0x3
 8360 1b77 04010000 		.4byte	__func__.6373
 8361 1b7b 1B       		.uleb128 0x1b
 8362 1b7c 10000000 		.4byte	.LBB48
 8363 1b80 1C000000 		.4byte	.LBE48-.LBB48
 8364 1b84 D71B0000 		.4byte	0x1bd7
 8365 1b88 25       		.uleb128 0x25
 8366 1b89 6C00     		.ascii	"l\000"
 8367 1b8b 01       		.byte	0x1
 8368 1b8c 2302     		.2byte	0x223
 8369 1b8e CA000000 		.4byte	0xca
 8370 1b92 6B150000 		.4byte	.LLST86
 8371 1b96 19       		.uleb128 0x19
 8372 1b97 14000000 		.4byte	.LVL371
 8373 1b9b E12C0000 		.4byte	0x2ce1
 8374 1b9f 1D       		.uleb128 0x1d
 8375 1ba0 2C000000 		.4byte	.LVL374
 8376 1ba4 02       		.uleb128 0x2
 8377 1ba5 74       		.byte	0x74
 8378 1ba6 00       		.sleb128 0
 8379 1ba7 16       		.uleb128 0x16
 8380 1ba8 01       		.uleb128 0x1
 8381 1ba9 50       		.byte	0x50
 8382 1baa 01       		.uleb128 0x1
 8383 1bab 30       		.byte	0x30
 8384 1bac 16       		.uleb128 0x16
 8385 1bad 01       		.uleb128 0x1
 8386 1bae 51       		.byte	0x51
 8387 1baf 05       		.uleb128 0x5
 8388 1bb0 03       		.byte	0x3
 8389 1bb1 00000000 		.4byte	.LC1
 8390 1bb5 16       		.uleb128 0x16
 8391 1bb6 01       		.uleb128 0x1
 8392 1bb7 52       		.byte	0x52
 8393 1bb8 05       		.uleb128 0x5
 8394 1bb9 03       		.byte	0x3
 8395 1bba 04010000 		.4byte	.LANCHOR3+4
 8396 1bbe 16       		.uleb128 0x16
 8397 1bbf 01       		.uleb128 0x1
ARM GAS  C:\Users\Phuong\AppData\Local\Temp\cc4zbCpa.s 			page 174


 8398 1bc0 53       		.byte	0x53
 8399 1bc1 03       		.uleb128 0x3
 8400 1bc2 0A       		.byte	0xa
 8401 1bc3 2302     		.2byte	0x223
 8402 1bc5 16       		.uleb128 0x16
 8403 1bc6 02       		.uleb128 0x2
 8404 1bc7 7D       		.byte	0x7d
 8405 1bc8 00       		.sleb128 0
 8406 1bc9 01       		.uleb128 0x1
 8407 1bca 31       		.byte	0x31
 8408 1bcb 16       		.uleb128 0x16
 8409 1bcc 02       		.uleb128 0x2
 8410 1bcd 7D       		.byte	0x7d
 8411 1bce 04       		.sleb128 4
 8412 1bcf 05       		.uleb128 0x5
 8413 1bd0 03       		.byte	0x3
 8414 1bd1 08050000 		.4byte	.LC87
 8415 1bd5 00       		.byte	0
 8416 1bd6 00       		.byte	0
 8417 1bd7 26       		.uleb128 0x26
 8418 1bd8 30000000 		.4byte	.Ldebug_ranges0+0x30
 8419 1bdc 24       		.uleb128 0x24
 8420 1bdd D0000000 		.4byte	.LASF76
 8421 1be1 01       		.byte	0x1
 8422 1be2 2802     		.2byte	0x228
 8423 1be4 92040000 		.4byte	0x492
 8424 1be8 9F150000 		.4byte	.LLST87
 8425 1bec 19       		.uleb128 0x19
 8426 1bed 3A000000 		.4byte	.LVL377
 8427 1bf1 B52C0000 		.4byte	0x2cb5
 8428 1bf5 17       		.uleb128 0x17
 8429 1bf6 48000000 		.4byte	.LVL378
 8430 1bfa F72C0000 		.4byte	0x2cf7
 8431 1bfe 16       		.uleb128 0x16
 8432 1bff 01       		.uleb128 0x1
 8433 1c00 50       		.byte	0x50
 8434 1c01 02       		.uleb128 0x2
 8435 1c02 74       		.byte	0x74
 8436 1c03 10       		.sleb128 16
 8437 1c04 16       		.uleb128 0x16
 8438 1c05 01       		.uleb128 0x1
 8439 1c06 51       		.byte	0x51
 8440 1c07 02       		.uleb128 0x2
 8441 1c08 75       		.byte	0x75
 8442 1c09 00       		.sleb128 0
 8443 1c0a 00       		.byte	0
 8444 1c0b 00       		.byte	0
 8445 1c0c 00       		.byte	0
 8446 1c0d 06       		.uleb128 0x6
 8447 1c0e 0C0D0000 		.4byte	0xd0c
 8448 1c12 22       		.uleb128 0x22
 8449 1c13 82090000 		.4byte	.LASF103
 8450 1c17 01       		.byte	0x1
 8451 1c18 3E02     		.2byte	0x23e
 8452 1c1a A0010000 		.4byte	0x1a0
 8453 1c1e 00000000 		.4byte	.LFB21
 8454 1c22 68000000 		.4byte	.LFE21-.LFB21
ARM GAS  C:\Users\Phuong\AppData\Local\Temp\cc4zbCpa.s 			page 175


 8455 1c26 01       		.uleb128 0x1
 8456 1c27 9C       		.byte	0x9c
 8457 1c28 FB1C0000 		.4byte	0x1cfb
 8458 1c2c 23       		.uleb128 0x23
 8459 1c2d 20030000 		.4byte	.LASF91
 8460 1c31 01       		.byte	0x1
 8461 1c32 3E02     		.2byte	0x23e
 8462 1c34 D9010000 		.4byte	0x1d9
 8463 1c38 C8150000 		.4byte	.LLST88
 8464 1c3c 23       		.uleb128 0x23
 8465 1c3d 51030000 		.4byte	.LASF47
 8466 1c41 01       		.byte	0x1
 8467 1c42 3E02     		.2byte	0x23e
 8468 1c44 91000000 		.4byte	0x91
 8469 1c48 31160000 		.4byte	.LLST89
 8470 1c4c 28       		.uleb128 0x28
 8471 1c4d EA020000 		.4byte	.LASF65
 8472 1c51 01       		.byte	0x1
 8473 1c52 4002     		.2byte	0x240
 8474 1c54 A0010000 		.4byte	0x1a0
 8475 1c58 01       		.uleb128 0x1
 8476 1c59 50       		.byte	0x50
 8477 1c5a 1A       		.uleb128 0x1a
 8478 1c5b 5F0B0000 		.4byte	.LASF87
 8479 1c5f FB1C0000 		.4byte	0x1cfb
 8480 1c63 05       		.uleb128 0x5
 8481 1c64 03       		.byte	0x3
 8482 1c65 24010000 		.4byte	__func__.6383
 8483 1c69 1B       		.uleb128 0x1b
 8484 1c6a 10000000 		.4byte	.LBB51
 8485 1c6e 1E000000 		.4byte	.LBE51-.LBB51
 8486 1c72 C51C0000 		.4byte	0x1cc5
 8487 1c76 25       		.uleb128 0x25
 8488 1c77 6C00     		.ascii	"l\000"
 8489 1c79 01       		.byte	0x1
 8490 1c7a 4402     		.2byte	0x244
 8491 1c7c CA000000 		.4byte	0xca
 8492 1c80 73160000 		.4byte	.LLST90
 8493 1c84 19       		.uleb128 0x19
 8494 1c85 14000000 		.4byte	.LVL385
 8495 1c89 E12C0000 		.4byte	0x2ce1
 8496 1c8d 1D       		.uleb128 0x1d
 8497 1c8e 2E000000 		.4byte	.LVL388
 8498 1c92 02       		.uleb128 0x2
 8499 1c93 74       		.byte	0x74
 8500 1c94 00       		.sleb128 0
 8501 1c95 16       		.uleb128 0x16
 8502 1c96 01       		.uleb128 0x1
 8503 1c97 50       		.byte	0x50
 8504 1c98 01       		.uleb128 0x1
 8505 1c99 30       		.byte	0x30
 8506 1c9a 16       		.uleb128 0x16
 8507 1c9b 01       		.uleb128 0x1
 8508 1c9c 51       		.byte	0x51
 8509 1c9d 05       		.uleb128 0x5
 8510 1c9e 03       		.byte	0x3
 8511 1c9f 00000000 		.4byte	.LC1
ARM GAS  C:\Users\Phuong\AppData\Local\Temp\cc4zbCpa.s 			page 176


 8512 1ca3 16       		.uleb128 0x16
 8513 1ca4 01       		.uleb128 0x1
 8514 1ca5 52       		.byte	0x52
 8515 1ca6 05       		.uleb128 0x5
 8516 1ca7 03       		.byte	0x3
 8517 1ca8 24010000 		.4byte	.LANCHOR3+36
 8518 1cac 16       		.uleb128 0x16
 8519 1cad 01       		.uleb128 0x1
 8520 1cae 53       		.byte	0x53
 8521 1caf 03       		.uleb128 0x3
 8522 1cb0 0A       		.byte	0xa
 8523 1cb1 4402     		.2byte	0x244
 8524 1cb3 16       		.uleb128 0x16
 8525 1cb4 02       		.uleb128 0x2
 8526 1cb5 7D       		.byte	0x7d
 8527 1cb6 00       		.sleb128 0
 8528 1cb7 01       		.uleb128 0x1
 8529 1cb8 31       		.byte	0x31
 8530 1cb9 16       		.uleb128 0x16
 8531 1cba 02       		.uleb128 0x2
 8532 1cbb 7D       		.byte	0x7d
 8533 1cbc 04       		.sleb128 4
 8534 1cbd 05       		.uleb128 0x5
 8535 1cbe 03       		.byte	0x3
 8536 1cbf 44050000 		.4byte	.LC91
 8537 1cc3 00       		.byte	0
 8538 1cc4 00       		.byte	0
 8539 1cc5 26       		.uleb128 0x26
 8540 1cc6 48000000 		.4byte	.Ldebug_ranges0+0x48
 8541 1cca 24       		.uleb128 0x24
 8542 1ccb D0000000 		.4byte	.LASF76
 8543 1ccf 01       		.byte	0x1
 8544 1cd0 4902     		.2byte	0x249
 8545 1cd2 92040000 		.4byte	0x492
 8546 1cd6 A7160000 		.4byte	.LLST91
 8547 1cda 19       		.uleb128 0x19
 8548 1cdb 3C000000 		.4byte	.LVL391
 8549 1cdf B52C0000 		.4byte	0x2cb5
 8550 1ce3 17       		.uleb128 0x17
 8551 1ce4 4A000000 		.4byte	.LVL392
 8552 1ce8 F72C0000 		.4byte	0x2cf7
 8553 1cec 16       		.uleb128 0x16
 8554 1ced 01       		.uleb128 0x1
 8555 1cee 50       		.byte	0x50
 8556 1cef 02       		.uleb128 0x2
 8557 1cf0 74       		.byte	0x74
 8558 1cf1 0C       		.sleb128 12
 8559 1cf2 16       		.uleb128 0x16
 8560 1cf3 01       		.uleb128 0x1
 8561 1cf4 51       		.byte	0x51
 8562 1cf5 02       		.uleb128 0x2
 8563 1cf6 75       		.byte	0x75
 8564 1cf7 00       		.sleb128 0
 8565 1cf8 00       		.byte	0
 8566 1cf9 00       		.byte	0
 8567 1cfa 00       		.byte	0
 8568 1cfb 06       		.uleb128 0x6
ARM GAS  C:\Users\Phuong\AppData\Local\Temp\cc4zbCpa.s 			page 177


 8569 1cfc 6D160000 		.4byte	0x166d
 8570 1d00 22       		.uleb128 0x22
 8571 1d01 CD070000 		.4byte	.LASF104
 8572 1d05 01       		.byte	0x1
 8573 1d06 5E02     		.2byte	0x25e
 8574 1d08 91000000 		.4byte	0x91
 8575 1d0c 00000000 		.4byte	.LFB22
 8576 1d10 40000000 		.4byte	.LFE22-.LFB22
 8577 1d14 01       		.uleb128 0x1
 8578 1d15 9C       		.byte	0x9c
 8579 1d16 C01D0000 		.4byte	0x1dc0
 8580 1d1a 23       		.uleb128 0x23
 8581 1d1b 20030000 		.4byte	.LASF91
 8582 1d1f 01       		.byte	0x1
 8583 1d20 5E02     		.2byte	0x25e
 8584 1d22 D9010000 		.4byte	0x1d9
 8585 1d26 D0160000 		.4byte	.LLST92
 8586 1d2a 24       		.uleb128 0x24
 8587 1d2b EA020000 		.4byte	.LASF65
 8588 1d2f 01       		.byte	0x1
 8589 1d30 6002     		.2byte	0x260
 8590 1d32 91000000 		.4byte	0x91
 8591 1d36 0A170000 		.4byte	.LLST93
 8592 1d3a 1A       		.uleb128 0x1a
 8593 1d3b 5F0B0000 		.4byte	.LASF87
 8594 1d3f C01D0000 		.4byte	0x1dc0
 8595 1d43 05       		.uleb128 0x5
 8596 1d44 03       		.byte	0x3
 8597 1d45 40010000 		.4byte	__func__.6392
 8598 1d49 1B       		.uleb128 0x1b
 8599 1d4a 08000000 		.4byte	.LBB54
 8600 1d4e 1E000000 		.4byte	.LBE54-.LBB54
 8601 1d52 A51D0000 		.4byte	0x1da5
 8602 1d56 25       		.uleb128 0x25
 8603 1d57 6C00     		.ascii	"l\000"
 8604 1d59 01       		.byte	0x1
 8605 1d5a 6402     		.2byte	0x264
 8606 1d5c CA000000 		.4byte	0xca
 8607 1d60 28170000 		.4byte	.LLST94
 8608 1d64 19       		.uleb128 0x19
 8609 1d65 0C000000 		.4byte	.LVL399
 8610 1d69 E12C0000 		.4byte	0x2ce1
 8611 1d6d 1D       		.uleb128 0x1d
 8612 1d6e 26000000 		.4byte	.LVL402
 8613 1d72 02       		.uleb128 0x2
 8614 1d73 74       		.byte	0x74
 8615 1d74 00       		.sleb128 0
 8616 1d75 16       		.uleb128 0x16
 8617 1d76 01       		.uleb128 0x1
 8618 1d77 50       		.byte	0x50
 8619 1d78 01       		.uleb128 0x1
 8620 1d79 30       		.byte	0x30
 8621 1d7a 16       		.uleb128 0x16
 8622 1d7b 01       		.uleb128 0x1
 8623 1d7c 51       		.byte	0x51
 8624 1d7d 05       		.uleb128 0x5
 8625 1d7e 03       		.byte	0x3
ARM GAS  C:\Users\Phuong\AppData\Local\Temp\cc4zbCpa.s 			page 178


 8626 1d7f 00000000 		.4byte	.LC1
 8627 1d83 16       		.uleb128 0x16
 8628 1d84 01       		.uleb128 0x1
 8629 1d85 52       		.byte	0x52
 8630 1d86 05       		.uleb128 0x5
 8631 1d87 03       		.byte	0x3
 8632 1d88 40010000 		.4byte	.LANCHOR3+64
 8633 1d8c 16       		.uleb128 0x16
 8634 1d8d 01       		.uleb128 0x1
 8635 1d8e 53       		.byte	0x53
 8636 1d8f 03       		.uleb128 0x3
 8637 1d90 0A       		.byte	0xa
 8638 1d91 6402     		.2byte	0x264
 8639 1d93 16       		.uleb128 0x16
 8640 1d94 02       		.uleb128 0x2
 8641 1d95 7D       		.byte	0x7d
 8642 1d96 00       		.sleb128 0
 8643 1d97 01       		.uleb128 0x1
 8644 1d98 31       		.byte	0x31
 8645 1d99 16       		.uleb128 0x16
 8646 1d9a 02       		.uleb128 0x2
 8647 1d9b 7D       		.byte	0x7d
 8648 1d9c 04       		.sleb128 4
 8649 1d9d 05       		.uleb128 0x5
 8650 1d9e 03       		.byte	0x3
 8651 1d9f 7C050000 		.4byte	.LC95
 8652 1da3 00       		.byte	0
 8653 1da4 00       		.byte	0
 8654 1da5 21       		.uleb128 0x21
 8655 1da6 2A000000 		.4byte	.LBB55
 8656 1daa 04000000 		.4byte	.LBE55-.LBB55
 8657 1dae 24       		.uleb128 0x24
 8658 1daf D0000000 		.4byte	.LASF76
 8659 1db3 01       		.byte	0x1
 8660 1db4 6A02     		.2byte	0x26a
 8661 1db6 92040000 		.4byte	0x492
 8662 1dba 51170000 		.4byte	.LLST95
 8663 1dbe 00       		.byte	0
 8664 1dbf 00       		.byte	0
 8665 1dc0 06       		.uleb128 0x6
 8666 1dc1 6D160000 		.4byte	0x166d
 8667 1dc5 22       		.uleb128 0x22
 8668 1dc6 3C050000 		.4byte	.LASF105
 8669 1dca 01       		.byte	0x1
 8670 1dcb 7002     		.2byte	0x270
 8671 1dcd A0010000 		.4byte	0x1a0
 8672 1dd1 00000000 		.4byte	.LFB23
 8673 1dd5 98000000 		.4byte	.LFE23-.LFB23
 8674 1dd9 01       		.uleb128 0x1
 8675 1dda 9C       		.byte	0x9c
 8676 1ddb 181F0000 		.4byte	0x1f18
 8677 1ddf 23       		.uleb128 0x23
 8678 1de0 20030000 		.4byte	.LASF91
 8679 1de4 01       		.byte	0x1
 8680 1de5 7002     		.2byte	0x270
 8681 1de7 D9010000 		.4byte	0x1d9
 8682 1deb 72170000 		.4byte	.LLST96
ARM GAS  C:\Users\Phuong\AppData\Local\Temp\cc4zbCpa.s 			page 179


 8683 1def 23       		.uleb128 0x23
 8684 1df0 66000000 		.4byte	.LASF44
 8685 1df4 01       		.byte	0x1
 8686 1df5 7002     		.2byte	0x270
 8687 1df7 91000000 		.4byte	0x91
 8688 1dfb CD170000 		.4byte	.LLST97
 8689 1dff 28       		.uleb128 0x28
 8690 1e00 EA020000 		.4byte	.LASF65
 8691 1e04 01       		.byte	0x1
 8692 1e05 7202     		.2byte	0x272
 8693 1e07 A0010000 		.4byte	0x1a0
 8694 1e0b 01       		.uleb128 0x1
 8695 1e0c 50       		.byte	0x50
 8696 1e0d 1A       		.uleb128 0x1a
 8697 1e0e 5F0B0000 		.4byte	.LASF87
 8698 1e12 281F0000 		.4byte	0x1f28
 8699 1e16 05       		.uleb128 0x5
 8700 1e17 03       		.byte	0x3
 8701 1e18 5C010000 		.4byte	__func__.6402
 8702 1e1c 1B       		.uleb128 0x1b
 8703 1e1d 10000000 		.4byte	.LBB56
 8704 1e21 20000000 		.4byte	.LBE56-.LBB56
 8705 1e25 861E0000 		.4byte	0x1e86
 8706 1e29 25       		.uleb128 0x25
 8707 1e2a 6C00     		.ascii	"l\000"
 8708 1e2c 01       		.byte	0x1
 8709 1e2d 7702     		.2byte	0x277
 8710 1e2f CA000000 		.4byte	0xca
 8711 1e33 0F180000 		.4byte	.LLST98
 8712 1e37 19       		.uleb128 0x19
 8713 1e38 14000000 		.4byte	.LVL408
 8714 1e3c E12C0000 		.4byte	0x2ce1
 8715 1e40 1D       		.uleb128 0x1d
 8716 1e41 30000000 		.4byte	.LVL411
 8717 1e45 02       		.uleb128 0x2
 8718 1e46 76       		.byte	0x76
 8719 1e47 00       		.sleb128 0
 8720 1e48 16       		.uleb128 0x16
 8721 1e49 01       		.uleb128 0x1
 8722 1e4a 50       		.byte	0x50
 8723 1e4b 01       		.uleb128 0x1
 8724 1e4c 30       		.byte	0x30
 8725 1e4d 16       		.uleb128 0x16
 8726 1e4e 01       		.uleb128 0x1
 8727 1e4f 51       		.byte	0x51
 8728 1e50 05       		.uleb128 0x5
 8729 1e51 03       		.byte	0x3
 8730 1e52 00000000 		.4byte	.LC1
 8731 1e56 16       		.uleb128 0x16
 8732 1e57 01       		.uleb128 0x1
 8733 1e58 52       		.byte	0x52
 8734 1e59 05       		.uleb128 0x5
 8735 1e5a 03       		.byte	0x3
 8736 1e5b 5C010000 		.4byte	.LANCHOR3+92
 8737 1e5f 16       		.uleb128 0x16
 8738 1e60 01       		.uleb128 0x1
 8739 1e61 53       		.byte	0x53
ARM GAS  C:\Users\Phuong\AppData\Local\Temp\cc4zbCpa.s 			page 180


 8740 1e62 03       		.uleb128 0x3
 8741 1e63 0A       		.byte	0xa
 8742 1e64 7702     		.2byte	0x277
 8743 1e66 16       		.uleb128 0x16
 8744 1e67 02       		.uleb128 0x2
 8745 1e68 7D       		.byte	0x7d
 8746 1e69 00       		.sleb128 0
 8747 1e6a 01       		.uleb128 0x1
 8748 1e6b 31       		.byte	0x31
 8749 1e6c 16       		.uleb128 0x16
 8750 1e6d 02       		.uleb128 0x2
 8751 1e6e 7D       		.byte	0x7d
 8752 1e6f 04       		.sleb128 4
 8753 1e70 05       		.uleb128 0x5
 8754 1e71 03       		.byte	0x3
 8755 1e72 B4050000 		.4byte	.LC99
 8756 1e76 16       		.uleb128 0x16
 8757 1e77 02       		.uleb128 0x2
 8758 1e78 7D       		.byte	0x7d
 8759 1e79 08       		.sleb128 8
 8760 1e7a 02       		.uleb128 0x2
 8761 1e7b 74       		.byte	0x74
 8762 1e7c 00       		.sleb128 0
 8763 1e7d 16       		.uleb128 0x16
 8764 1e7e 02       		.uleb128 0x2
 8765 1e7f 7D       		.byte	0x7d
 8766 1e80 0C       		.sleb128 12
 8767 1e81 02       		.uleb128 0x2
 8768 1e82 75       		.byte	0x75
 8769 1e83 00       		.sleb128 0
 8770 1e84 00       		.byte	0
 8771 1e85 00       		.byte	0
 8772 1e86 26       		.uleb128 0x26
 8773 1e87 60000000 		.4byte	.Ldebug_ranges0+0x60
 8774 1e8b 24       		.uleb128 0x24
 8775 1e8c D0000000 		.4byte	.LASF76
 8776 1e90 01       		.byte	0x1
 8777 1e91 7C02     		.2byte	0x27c
 8778 1e93 92040000 		.4byte	0x492
 8779 1e97 43180000 		.4byte	.LLST99
 8780 1e9b 1B       		.uleb128 0x1b
 8781 1e9c 50000000 		.4byte	.LBB58
 8782 1ea0 1C000000 		.4byte	.LBE58-.LBB58
 8783 1ea4 F71E0000 		.4byte	0x1ef7
 8784 1ea8 25       		.uleb128 0x25
 8785 1ea9 6C00     		.ascii	"l\000"
 8786 1eab 01       		.byte	0x1
 8787 1eac 8702     		.2byte	0x287
 8788 1eae CA000000 		.4byte	0xca
 8789 1eb2 88180000 		.4byte	.LLST100
 8790 1eb6 19       		.uleb128 0x19
 8791 1eb7 54000000 		.4byte	.LVL416
 8792 1ebb E12C0000 		.4byte	0x2ce1
 8793 1ebf 1D       		.uleb128 0x1d
 8794 1ec0 6C000000 		.4byte	.LVL419
 8795 1ec4 02       		.uleb128 0x2
 8796 1ec5 74       		.byte	0x74
ARM GAS  C:\Users\Phuong\AppData\Local\Temp\cc4zbCpa.s 			page 181


 8797 1ec6 00       		.sleb128 0
 8798 1ec7 16       		.uleb128 0x16
 8799 1ec8 01       		.uleb128 0x1
 8800 1ec9 50       		.byte	0x50
 8801 1eca 01       		.uleb128 0x1
 8802 1ecb 30       		.byte	0x30
 8803 1ecc 16       		.uleb128 0x16
 8804 1ecd 01       		.uleb128 0x1
 8805 1ece 51       		.byte	0x51
 8806 1ecf 05       		.uleb128 0x5
 8807 1ed0 03       		.byte	0x3
 8808 1ed1 00000000 		.4byte	.LC1
 8809 1ed5 16       		.uleb128 0x16
 8810 1ed6 01       		.uleb128 0x1
 8811 1ed7 52       		.byte	0x52
 8812 1ed8 05       		.uleb128 0x5
 8813 1ed9 03       		.byte	0x3
 8814 1eda 5C010000 		.4byte	.LANCHOR3+92
 8815 1ede 16       		.uleb128 0x16
 8816 1edf 01       		.uleb128 0x1
 8817 1ee0 53       		.byte	0x53
 8818 1ee1 03       		.uleb128 0x3
 8819 1ee2 0A       		.byte	0xa
 8820 1ee3 8702     		.2byte	0x287
 8821 1ee5 16       		.uleb128 0x16
 8822 1ee6 02       		.uleb128 0x2
 8823 1ee7 7D       		.byte	0x7d
 8824 1ee8 00       		.sleb128 0
 8825 1ee9 01       		.uleb128 0x1
 8826 1eea 31       		.byte	0x31
 8827 1eeb 16       		.uleb128 0x16
 8828 1eec 02       		.uleb128 0x2
 8829 1eed 7D       		.byte	0x7d
 8830 1eee 04       		.sleb128 4
 8831 1eef 05       		.uleb128 0x5
 8832 1ef0 03       		.byte	0x3
 8833 1ef1 F0050000 		.4byte	.LC101
 8834 1ef5 00       		.byte	0
 8835 1ef6 00       		.byte	0
 8836 1ef7 19       		.uleb128 0x19
 8837 1ef8 3E000000 		.4byte	.LVL414
 8838 1efc B52C0000 		.4byte	0x2cb5
 8839 1f00 17       		.uleb128 0x17
 8840 1f01 4C000000 		.4byte	.LVL415
 8841 1f05 F72C0000 		.4byte	0x2cf7
 8842 1f09 16       		.uleb128 0x16
 8843 1f0a 01       		.uleb128 0x1
 8844 1f0b 50       		.byte	0x50
 8845 1f0c 02       		.uleb128 0x2
 8846 1f0d 74       		.byte	0x74
 8847 1f0e 14       		.sleb128 20
 8848 1f0f 16       		.uleb128 0x16
 8849 1f10 01       		.uleb128 0x1
 8850 1f11 51       		.byte	0x51
 8851 1f12 02       		.uleb128 0x2
 8852 1f13 75       		.byte	0x75
 8853 1f14 00       		.sleb128 0
ARM GAS  C:\Users\Phuong\AppData\Local\Temp\cc4zbCpa.s 			page 182


 8854 1f15 00       		.byte	0
 8855 1f16 00       		.byte	0
 8856 1f17 00       		.byte	0
 8857 1f18 1E       		.uleb128 0x1e
 8858 1f19 97000000 		.4byte	0x97
 8859 1f1d 281F0000 		.4byte	0x1f28
 8860 1f21 1F       		.uleb128 0x1f
 8861 1f22 7D000000 		.4byte	0x7d
 8862 1f26 2A       		.byte	0x2a
 8863 1f27 00       		.byte	0
 8864 1f28 06       		.uleb128 0x6
 8865 1f29 181F0000 		.4byte	0x1f18
 8866 1f2d 22       		.uleb128 0x22
 8867 1f2e 2D0C0000 		.4byte	.LASF106
 8868 1f32 01       		.byte	0x1
 8869 1f33 9502     		.2byte	0x295
 8870 1f35 91000000 		.4byte	0x91
 8871 1f39 00000000 		.4byte	.LFB24
 8872 1f3d 40000000 		.4byte	.LFE24-.LFB24
 8873 1f41 01       		.uleb128 0x1
 8874 1f42 9C       		.byte	0x9c
 8875 1f43 ED1F0000 		.4byte	0x1fed
 8876 1f47 23       		.uleb128 0x23
 8877 1f48 20030000 		.4byte	.LASF91
 8878 1f4c 01       		.byte	0x1
 8879 1f4d 9502     		.2byte	0x295
 8880 1f4f D9010000 		.4byte	0x1d9
 8881 1f53 B1180000 		.4byte	.LLST101
 8882 1f57 24       		.uleb128 0x24
 8883 1f58 EA020000 		.4byte	.LASF65
 8884 1f5c 01       		.byte	0x1
 8885 1f5d 9702     		.2byte	0x297
 8886 1f5f 91000000 		.4byte	0x91
 8887 1f63 EB180000 		.4byte	.LLST102
 8888 1f67 1A       		.uleb128 0x1a
 8889 1f68 5F0B0000 		.4byte	.LASF87
 8890 1f6c ED1F0000 		.4byte	0x1fed
 8891 1f70 05       		.uleb128 0x5
 8892 1f71 03       		.byte	0x3
 8893 1f72 88010000 		.4byte	__func__.6414
 8894 1f76 1B       		.uleb128 0x1b
 8895 1f77 08000000 		.4byte	.LBB60
 8896 1f7b 1E000000 		.4byte	.LBE60-.LBB60
 8897 1f7f D21F0000 		.4byte	0x1fd2
 8898 1f83 25       		.uleb128 0x25
 8899 1f84 6C00     		.ascii	"l\000"
 8900 1f86 01       		.byte	0x1
 8901 1f87 9C02     		.2byte	0x29c
 8902 1f89 CA000000 		.4byte	0xca
 8903 1f8d 09190000 		.4byte	.LLST103
 8904 1f91 19       		.uleb128 0x19
 8905 1f92 0C000000 		.4byte	.LVL427
 8906 1f96 E12C0000 		.4byte	0x2ce1
 8907 1f9a 1D       		.uleb128 0x1d
 8908 1f9b 26000000 		.4byte	.LVL430
 8909 1f9f 02       		.uleb128 0x2
 8910 1fa0 74       		.byte	0x74
ARM GAS  C:\Users\Phuong\AppData\Local\Temp\cc4zbCpa.s 			page 183


 8911 1fa1 00       		.sleb128 0
 8912 1fa2 16       		.uleb128 0x16
 8913 1fa3 01       		.uleb128 0x1
 8914 1fa4 50       		.byte	0x50
 8915 1fa5 01       		.uleb128 0x1
 8916 1fa6 30       		.byte	0x30
 8917 1fa7 16       		.uleb128 0x16
 8918 1fa8 01       		.uleb128 0x1
 8919 1fa9 51       		.byte	0x51
 8920 1faa 05       		.uleb128 0x5
 8921 1fab 03       		.byte	0x3
 8922 1fac 00000000 		.4byte	.LC1
 8923 1fb0 16       		.uleb128 0x16
 8924 1fb1 01       		.uleb128 0x1
 8925 1fb2 52       		.byte	0x52
 8926 1fb3 05       		.uleb128 0x5
 8927 1fb4 03       		.byte	0x3
 8928 1fb5 88010000 		.4byte	.LANCHOR4+8
 8929 1fb9 16       		.uleb128 0x16
 8930 1fba 01       		.uleb128 0x1
 8931 1fbb 53       		.byte	0x53
 8932 1fbc 03       		.uleb128 0x3
 8933 1fbd 0A       		.byte	0xa
 8934 1fbe 9C02     		.2byte	0x29c
 8935 1fc0 16       		.uleb128 0x16
 8936 1fc1 02       		.uleb128 0x2
 8937 1fc2 7D       		.byte	0x7d
 8938 1fc3 00       		.sleb128 0
 8939 1fc4 01       		.uleb128 0x1
 8940 1fc5 31       		.byte	0x31
 8941 1fc6 16       		.uleb128 0x16
 8942 1fc7 02       		.uleb128 0x2
 8943 1fc8 7D       		.byte	0x7d
 8944 1fc9 04       		.sleb128 4
 8945 1fca 05       		.uleb128 0x5
 8946 1fcb 03       		.byte	0x3
 8947 1fcc 14060000 		.4byte	.LC105
 8948 1fd0 00       		.byte	0
 8949 1fd1 00       		.byte	0
 8950 1fd2 21       		.uleb128 0x21
 8951 1fd3 2A000000 		.4byte	.LBB61
 8952 1fd7 04000000 		.4byte	.LBE61-.LBB61
 8953 1fdb 24       		.uleb128 0x24
 8954 1fdc D0000000 		.4byte	.LASF76
 8955 1fe0 01       		.byte	0x1
 8956 1fe1 A102     		.2byte	0x2a1
 8957 1fe3 92040000 		.4byte	0x492
 8958 1fe7 32190000 		.4byte	.LLST104
 8959 1feb 00       		.byte	0
 8960 1fec 00       		.byte	0
 8961 1fed 06       		.uleb128 0x6
 8962 1fee 181F0000 		.4byte	0x1f18
 8963 1ff2 22       		.uleb128 0x22
 8964 1ff3 79000000 		.4byte	.LASF107
 8965 1ff7 01       		.byte	0x1
 8966 1ff8 AA02     		.2byte	0x2aa
 8967 1ffa A0010000 		.4byte	0x1a0
ARM GAS  C:\Users\Phuong\AppData\Local\Temp\cc4zbCpa.s 			page 184


 8968 1ffe 00000000 		.4byte	.LFB25
 8969 2002 98000000 		.4byte	.LFE25-.LFB25
 8970 2006 01       		.uleb128 0x1
 8971 2007 9C       		.byte	0x9c
 8972 2008 45210000 		.4byte	0x2145
 8973 200c 23       		.uleb128 0x23
 8974 200d 20030000 		.4byte	.LASF91
 8975 2011 01       		.byte	0x1
 8976 2012 AA02     		.2byte	0x2aa
 8977 2014 D9010000 		.4byte	0x1d9
 8978 2018 53190000 		.4byte	.LLST105
 8979 201c 23       		.uleb128 0x23
 8980 201d 25050000 		.4byte	.LASF50
 8981 2021 01       		.byte	0x1
 8982 2022 AA02     		.2byte	0x2aa
 8983 2024 91000000 		.4byte	0x91
 8984 2028 AE190000 		.4byte	.LLST106
 8985 202c 28       		.uleb128 0x28
 8986 202d EA020000 		.4byte	.LASF65
 8987 2031 01       		.byte	0x1
 8988 2032 AC02     		.2byte	0x2ac
 8989 2034 A0010000 		.4byte	0x1a0
 8990 2038 01       		.uleb128 0x1
 8991 2039 50       		.byte	0x50
 8992 203a 1A       		.uleb128 0x1a
 8993 203b 5F0B0000 		.4byte	.LASF87
 8994 203f 55210000 		.4byte	0x2155
 8995 2043 05       		.uleb128 0x5
 8996 2044 03       		.byte	0x3
 8997 2045 B4010000 		.4byte	__func__.6424
 8998 2049 1B       		.uleb128 0x1b
 8999 204a 10000000 		.4byte	.LBB62
 9000 204e 20000000 		.4byte	.LBE62-.LBB62
 9001 2052 B3200000 		.4byte	0x20b3
 9002 2056 25       		.uleb128 0x25
 9003 2057 6C00     		.ascii	"l\000"
 9004 2059 01       		.byte	0x1
 9005 205a B102     		.2byte	0x2b1
 9006 205c CA000000 		.4byte	0xca
 9007 2060 F0190000 		.4byte	.LLST107
 9008 2064 19       		.uleb128 0x19
 9009 2065 14000000 		.4byte	.LVL436
 9010 2069 E12C0000 		.4byte	0x2ce1
 9011 206d 1D       		.uleb128 0x1d
 9012 206e 30000000 		.4byte	.LVL439
 9013 2072 02       		.uleb128 0x2
 9014 2073 76       		.byte	0x76
 9015 2074 00       		.sleb128 0
 9016 2075 16       		.uleb128 0x16
 9017 2076 01       		.uleb128 0x1
 9018 2077 50       		.byte	0x50
 9019 2078 01       		.uleb128 0x1
 9020 2079 30       		.byte	0x30
 9021 207a 16       		.uleb128 0x16
 9022 207b 01       		.uleb128 0x1
 9023 207c 51       		.byte	0x51
 9024 207d 05       		.uleb128 0x5
ARM GAS  C:\Users\Phuong\AppData\Local\Temp\cc4zbCpa.s 			page 185


 9025 207e 03       		.byte	0x3
 9026 207f 00000000 		.4byte	.LC1
 9027 2083 16       		.uleb128 0x16
 9028 2084 01       		.uleb128 0x1
 9029 2085 52       		.byte	0x52
 9030 2086 05       		.uleb128 0x5
 9031 2087 03       		.byte	0x3
 9032 2088 B4010000 		.4byte	.LANCHOR4+52
 9033 208c 16       		.uleb128 0x16
 9034 208d 01       		.uleb128 0x1
 9035 208e 53       		.byte	0x53
 9036 208f 03       		.uleb128 0x3
 9037 2090 0A       		.byte	0xa
 9038 2091 B102     		.2byte	0x2b1
 9039 2093 16       		.uleb128 0x16
 9040 2094 02       		.uleb128 0x2
 9041 2095 7D       		.byte	0x7d
 9042 2096 00       		.sleb128 0
 9043 2097 01       		.uleb128 0x1
 9044 2098 31       		.byte	0x31
 9045 2099 16       		.uleb128 0x16
 9046 209a 02       		.uleb128 0x2
 9047 209b 7D       		.byte	0x7d
 9048 209c 04       		.sleb128 4
 9049 209d 05       		.uleb128 0x5
 9050 209e 03       		.byte	0x3
 9051 209f 44060000 		.4byte	.LC109
 9052 20a3 16       		.uleb128 0x16
 9053 20a4 02       		.uleb128 0x2
 9054 20a5 7D       		.byte	0x7d
 9055 20a6 08       		.sleb128 8
 9056 20a7 02       		.uleb128 0x2
 9057 20a8 74       		.byte	0x74
 9058 20a9 00       		.sleb128 0
 9059 20aa 16       		.uleb128 0x16
 9060 20ab 02       		.uleb128 0x2
 9061 20ac 7D       		.byte	0x7d
 9062 20ad 0C       		.sleb128 12
 9063 20ae 02       		.uleb128 0x2
 9064 20af 75       		.byte	0x75
 9065 20b0 00       		.sleb128 0
 9066 20b1 00       		.byte	0
 9067 20b2 00       		.byte	0
 9068 20b3 26       		.uleb128 0x26
 9069 20b4 78000000 		.4byte	.Ldebug_ranges0+0x78
 9070 20b8 24       		.uleb128 0x24
 9071 20b9 D0000000 		.4byte	.LASF76
 9072 20bd 01       		.byte	0x1
 9073 20be B602     		.2byte	0x2b6
 9074 20c0 92040000 		.4byte	0x492
 9075 20c4 241A0000 		.4byte	.LLST108
 9076 20c8 1B       		.uleb128 0x1b
 9077 20c9 50000000 		.4byte	.LBB64
 9078 20cd 1C000000 		.4byte	.LBE64-.LBB64
 9079 20d1 24210000 		.4byte	0x2124
 9080 20d5 25       		.uleb128 0x25
 9081 20d6 6C00     		.ascii	"l\000"
ARM GAS  C:\Users\Phuong\AppData\Local\Temp\cc4zbCpa.s 			page 186


 9082 20d8 01       		.byte	0x1
 9083 20d9 C102     		.2byte	0x2c1
 9084 20db CA000000 		.4byte	0xca
 9085 20df 691A0000 		.4byte	.LLST109
 9086 20e3 19       		.uleb128 0x19
 9087 20e4 54000000 		.4byte	.LVL444
 9088 20e8 E12C0000 		.4byte	0x2ce1
 9089 20ec 1D       		.uleb128 0x1d
 9090 20ed 6C000000 		.4byte	.LVL447
 9091 20f1 02       		.uleb128 0x2
 9092 20f2 74       		.byte	0x74
 9093 20f3 00       		.sleb128 0
 9094 20f4 16       		.uleb128 0x16
 9095 20f5 01       		.uleb128 0x1
 9096 20f6 50       		.byte	0x50
 9097 20f7 01       		.uleb128 0x1
 9098 20f8 30       		.byte	0x30
 9099 20f9 16       		.uleb128 0x16
 9100 20fa 01       		.uleb128 0x1
 9101 20fb 51       		.byte	0x51
 9102 20fc 05       		.uleb128 0x5
 9103 20fd 03       		.byte	0x3
 9104 20fe 00000000 		.4byte	.LC1
 9105 2102 16       		.uleb128 0x16
 9106 2103 01       		.uleb128 0x1
 9107 2104 52       		.byte	0x52
 9108 2105 05       		.uleb128 0x5
 9109 2106 03       		.byte	0x3
 9110 2107 B4010000 		.4byte	.LANCHOR4+52
 9111 210b 16       		.uleb128 0x16
 9112 210c 01       		.uleb128 0x1
 9113 210d 53       		.byte	0x53
 9114 210e 03       		.uleb128 0x3
 9115 210f 0A       		.byte	0xa
 9116 2110 C102     		.2byte	0x2c1
 9117 2112 16       		.uleb128 0x16
 9118 2113 02       		.uleb128 0x2
 9119 2114 7D       		.byte	0x7d
 9120 2115 00       		.sleb128 0
 9121 2116 01       		.uleb128 0x1
 9122 2117 31       		.byte	0x31
 9123 2118 16       		.uleb128 0x16
 9124 2119 02       		.uleb128 0x2
 9125 211a 7D       		.byte	0x7d
 9126 211b 04       		.sleb128 4
 9127 211c 05       		.uleb128 0x5
 9128 211d 03       		.byte	0x3
 9129 211e 84060000 		.4byte	.LC111
 9130 2122 00       		.byte	0
 9131 2123 00       		.byte	0
 9132 2124 19       		.uleb128 0x19
 9133 2125 3E000000 		.4byte	.LVL442
 9134 2129 B52C0000 		.4byte	0x2cb5
 9135 212d 17       		.uleb128 0x17
 9136 212e 4C000000 		.4byte	.LVL443
 9137 2132 F72C0000 		.4byte	0x2cf7
 9138 2136 16       		.uleb128 0x16
ARM GAS  C:\Users\Phuong\AppData\Local\Temp\cc4zbCpa.s 			page 187


 9139 2137 01       		.uleb128 0x1
 9140 2138 50       		.byte	0x50
 9141 2139 02       		.uleb128 0x2
 9142 213a 74       		.byte	0x74
 9143 213b 18       		.sleb128 24
 9144 213c 16       		.uleb128 0x16
 9145 213d 01       		.uleb128 0x1
 9146 213e 51       		.byte	0x51
 9147 213f 02       		.uleb128 0x2
 9148 2140 75       		.byte	0x75
 9149 2141 00       		.sleb128 0
 9150 2142 00       		.byte	0
 9151 2143 00       		.byte	0
 9152 2144 00       		.byte	0
 9153 2145 1E       		.uleb128 0x1e
 9154 2146 97000000 		.4byte	0x97
 9155 214a 55210000 		.4byte	0x2155
 9156 214e 1F       		.uleb128 0x1f
 9157 214f 7D000000 		.4byte	0x7d
 9158 2153 2E       		.byte	0x2e
 9159 2154 00       		.byte	0
 9160 2155 06       		.uleb128 0x6
 9161 2156 45210000 		.4byte	0x2145
 9162 215a 22       		.uleb128 0x22
 9163 215b 9C010000 		.4byte	.LASF108
 9164 215f 01       		.byte	0x1
 9165 2160 CF02     		.2byte	0x2cf
 9166 2162 91000000 		.4byte	0x91
 9167 2166 00000000 		.4byte	.LFB26
 9168 216a 44000000 		.4byte	.LFE26-.LFB26
 9169 216e 01       		.uleb128 0x1
 9170 216f 9C       		.byte	0x9c
 9171 2170 1A220000 		.4byte	0x221a
 9172 2174 23       		.uleb128 0x23
 9173 2175 20030000 		.4byte	.LASF91
 9174 2179 01       		.byte	0x1
 9175 217a CF02     		.2byte	0x2cf
 9176 217c D9010000 		.4byte	0x1d9
 9177 2180 921A0000 		.4byte	.LLST110
 9178 2184 24       		.uleb128 0x24
 9179 2185 EA020000 		.4byte	.LASF65
 9180 2189 01       		.byte	0x1
 9181 218a D102     		.2byte	0x2d1
 9182 218c 91000000 		.4byte	0x91
 9183 2190 CC1A0000 		.4byte	.LLST111
 9184 2194 1A       		.uleb128 0x1a
 9185 2195 5F0B0000 		.4byte	.LASF87
 9186 2199 1A220000 		.4byte	0x221a
 9187 219d 05       		.uleb128 0x5
 9188 219e 03       		.byte	0x3
 9189 219f E4010000 		.4byte	__func__.6436
 9190 21a3 1B       		.uleb128 0x1b
 9191 21a4 08000000 		.4byte	.LBB66
 9192 21a8 1C000000 		.4byte	.LBE66-.LBB66
 9193 21ac FF210000 		.4byte	0x21ff
 9194 21b0 25       		.uleb128 0x25
 9195 21b1 6C00     		.ascii	"l\000"
ARM GAS  C:\Users\Phuong\AppData\Local\Temp\cc4zbCpa.s 			page 188


 9196 21b3 01       		.byte	0x1
 9197 21b4 D602     		.2byte	0x2d6
 9198 21b6 CA000000 		.4byte	0xca
 9199 21ba EA1A0000 		.4byte	.LLST112
 9200 21be 19       		.uleb128 0x19
 9201 21bf 0C000000 		.4byte	.LVL455
 9202 21c3 E12C0000 		.4byte	0x2ce1
 9203 21c7 1D       		.uleb128 0x1d
 9204 21c8 24000000 		.4byte	.LVL458
 9205 21cc 02       		.uleb128 0x2
 9206 21cd 74       		.byte	0x74
 9207 21ce 00       		.sleb128 0
 9208 21cf 16       		.uleb128 0x16
 9209 21d0 01       		.uleb128 0x1
 9210 21d1 50       		.byte	0x50
 9211 21d2 01       		.uleb128 0x1
 9212 21d3 30       		.byte	0x30
 9213 21d4 16       		.uleb128 0x16
 9214 21d5 01       		.uleb128 0x1
 9215 21d6 51       		.byte	0x51
 9216 21d7 05       		.uleb128 0x5
 9217 21d8 03       		.byte	0x3
 9218 21d9 00000000 		.4byte	.LC1
 9219 21dd 16       		.uleb128 0x16
 9220 21de 01       		.uleb128 0x1
 9221 21df 52       		.byte	0x52
 9222 21e0 05       		.uleb128 0x5
 9223 21e1 03       		.byte	0x3
 9224 21e2 E4010000 		.4byte	.LANCHOR4+100
 9225 21e6 16       		.uleb128 0x16
 9226 21e7 01       		.uleb128 0x1
 9227 21e8 53       		.byte	0x53
 9228 21e9 03       		.uleb128 0x3
 9229 21ea 0A       		.byte	0xa
 9230 21eb D602     		.2byte	0x2d6
 9231 21ed 16       		.uleb128 0x16
 9232 21ee 02       		.uleb128 0x2
 9233 21ef 7D       		.byte	0x7d
 9234 21f0 00       		.sleb128 0
 9235 21f1 01       		.uleb128 0x1
 9236 21f2 31       		.byte	0x31
 9237 21f3 16       		.uleb128 0x16
 9238 21f4 02       		.uleb128 0x2
 9239 21f5 7D       		.byte	0x7d
 9240 21f6 04       		.sleb128 4
 9241 21f7 05       		.uleb128 0x5
 9242 21f8 03       		.byte	0x3
 9243 21f9 14060000 		.4byte	.LC105
 9244 21fd 00       		.byte	0
 9245 21fe 00       		.byte	0
 9246 21ff 21       		.uleb128 0x21
 9247 2200 28000000 		.4byte	.LBB67
 9248 2204 04000000 		.4byte	.LBE67-.LBB67
 9249 2208 24       		.uleb128 0x24
 9250 2209 D0000000 		.4byte	.LASF76
 9251 220d 01       		.byte	0x1
 9252 220e DB02     		.2byte	0x2db
ARM GAS  C:\Users\Phuong\AppData\Local\Temp\cc4zbCpa.s 			page 189


 9253 2210 92040000 		.4byte	0x492
 9254 2214 131B0000 		.4byte	.LLST113
 9255 2218 00       		.byte	0
 9256 2219 00       		.byte	0
 9257 221a 06       		.uleb128 0x6
 9258 221b 45210000 		.4byte	0x2145
 9259 221f 22       		.uleb128 0x22
 9260 2220 5A010000 		.4byte	.LASF109
 9261 2224 01       		.byte	0x1
 9262 2225 E402     		.2byte	0x2e4
 9263 2227 AF060000 		.4byte	0x6af
 9264 222b 00000000 		.4byte	.LFB27
 9265 222f 44000000 		.4byte	.LFE27-.LFB27
 9266 2233 01       		.uleb128 0x1
 9267 2234 9C       		.byte	0x9c
 9268 2235 C1220000 		.4byte	0x22c1
 9269 2239 23       		.uleb128 0x23
 9270 223a 20030000 		.4byte	.LASF91
 9271 223e 01       		.byte	0x1
 9272 223f E402     		.2byte	0x2e4
 9273 2241 D9010000 		.4byte	0x1d9
 9274 2245 341B0000 		.4byte	.LLST114
 9275 2249 24       		.uleb128 0x24
 9276 224a EA020000 		.4byte	.LASF65
 9277 224e 01       		.byte	0x1
 9278 224f E602     		.2byte	0x2e6
 9279 2251 AF060000 		.4byte	0x6af
 9280 2255 6E1B0000 		.4byte	.LLST115
 9281 2259 1A       		.uleb128 0x1a
 9282 225a 5F0B0000 		.4byte	.LASF87
 9283 225e D1220000 		.4byte	0x22d1
 9284 2262 05       		.uleb128 0x5
 9285 2263 03       		.byte	0x3
 9286 2264 14020000 		.4byte	__func__.6445
 9287 2268 21       		.uleb128 0x21
 9288 2269 08000000 		.4byte	.LBB68
 9289 226d 1C000000 		.4byte	.LBE68-.LBB68
 9290 2271 25       		.uleb128 0x25
 9291 2272 6C00     		.ascii	"l\000"
 9292 2274 01       		.byte	0x1
 9293 2275 EA02     		.2byte	0x2ea
 9294 2277 CA000000 		.4byte	0xca
 9295 227b 8C1B0000 		.4byte	.LLST116
 9296 227f 19       		.uleb128 0x19
 9297 2280 0C000000 		.4byte	.LVL464
 9298 2284 E12C0000 		.4byte	0x2ce1
 9299 2288 1D       		.uleb128 0x1d
 9300 2289 24000000 		.4byte	.LVL467
 9301 228d 02       		.uleb128 0x2
 9302 228e 74       		.byte	0x74
 9303 228f 00       		.sleb128 0
 9304 2290 16       		.uleb128 0x16
 9305 2291 01       		.uleb128 0x1
 9306 2292 50       		.byte	0x50
 9307 2293 01       		.uleb128 0x1
 9308 2294 30       		.byte	0x30
 9309 2295 16       		.uleb128 0x16
ARM GAS  C:\Users\Phuong\AppData\Local\Temp\cc4zbCpa.s 			page 190


 9310 2296 01       		.uleb128 0x1
 9311 2297 51       		.byte	0x51
 9312 2298 05       		.uleb128 0x5
 9313 2299 03       		.byte	0x3
 9314 229a 00000000 		.4byte	.LC1
 9315 229e 16       		.uleb128 0x16
 9316 229f 01       		.uleb128 0x1
 9317 22a0 52       		.byte	0x52
 9318 22a1 05       		.uleb128 0x5
 9319 22a2 03       		.byte	0x3
 9320 22a3 14020000 		.4byte	.LANCHOR5+20
 9321 22a7 16       		.uleb128 0x16
 9322 22a8 01       		.uleb128 0x1
 9323 22a9 53       		.byte	0x53
 9324 22aa 03       		.uleb128 0x3
 9325 22ab 0A       		.byte	0xa
 9326 22ac EA02     		.2byte	0x2ea
 9327 22ae 16       		.uleb128 0x16
 9328 22af 02       		.uleb128 0x2
 9329 22b0 7D       		.byte	0x7d
 9330 22b1 00       		.sleb128 0
 9331 22b2 01       		.uleb128 0x1
 9332 22b3 31       		.byte	0x31
 9333 22b4 16       		.uleb128 0x16
 9334 22b5 02       		.uleb128 0x2
 9335 22b6 7D       		.byte	0x7d
 9336 22b7 04       		.sleb128 4
 9337 22b8 05       		.uleb128 0x5
 9338 22b9 03       		.byte	0x3
 9339 22ba 14060000 		.4byte	.LC105
 9340 22be 00       		.byte	0
 9341 22bf 00       		.byte	0
 9342 22c0 00       		.byte	0
 9343 22c1 1E       		.uleb128 0x1e
 9344 22c2 97000000 		.4byte	0x97
 9345 22c6 D1220000 		.4byte	0x22d1
 9346 22ca 1F       		.uleb128 0x1f
 9347 22cb 7D000000 		.4byte	0x7d
 9348 22cf 27       		.byte	0x27
 9349 22d0 00       		.byte	0
 9350 22d1 06       		.uleb128 0x6
 9351 22d2 C1220000 		.4byte	0x22c1
 9352 22d6 22       		.uleb128 0x22
 9353 22d7 28040000 		.4byte	.LASF110
 9354 22db 01       		.byte	0x1
 9355 22dc F502     		.2byte	0x2f5
 9356 22de A0010000 		.4byte	0x1a0
 9357 22e2 00000000 		.4byte	.LFB28
 9358 22e6 B8000000 		.4byte	.LFE28-.LFB28
 9359 22ea 01       		.uleb128 0x1
 9360 22eb 9C       		.byte	0x9c
 9361 22ec 0A240000 		.4byte	0x240a
 9362 22f0 23       		.uleb128 0x23
 9363 22f1 20030000 		.4byte	.LASF91
 9364 22f5 01       		.byte	0x1
 9365 22f6 F502     		.2byte	0x2f5
 9366 22f8 D9010000 		.4byte	0x1d9
ARM GAS  C:\Users\Phuong\AppData\Local\Temp\cc4zbCpa.s 			page 191


 9367 22fc B51B0000 		.4byte	.LLST117
 9368 2300 23       		.uleb128 0x23
 9369 2301 9A050000 		.4byte	.LASF55
 9370 2305 01       		.byte	0x1
 9371 2306 F502     		.2byte	0x2f5
 9372 2308 AF060000 		.4byte	0x6af
 9373 230c F71B0000 		.4byte	.LLST118
 9374 2310 28       		.uleb128 0x28
 9375 2311 EA020000 		.4byte	.LASF65
 9376 2315 01       		.byte	0x1
 9377 2316 F702     		.2byte	0x2f7
 9378 2318 A0010000 		.4byte	0x1a0
 9379 231c 01       		.uleb128 0x1
 9380 231d 50       		.byte	0x50
 9381 231e 1A       		.uleb128 0x1a
 9382 231f 5F0B0000 		.4byte	.LASF87
 9383 2323 0A240000 		.4byte	0x240a
 9384 2327 05       		.uleb128 0x5
 9385 2328 03       		.byte	0x3
 9386 2329 3C020000 		.4byte	__func__.6454
 9387 232d 1B       		.uleb128 0x1b
 9388 232e 1C000000 		.4byte	.LBB69
 9389 2332 38000000 		.4byte	.LBE69-.LBB69
 9390 2336 94230000 		.4byte	0x2394
 9391 233a 25       		.uleb128 0x25
 9392 233b 6C00     		.ascii	"l\000"
 9393 233d 01       		.byte	0x1
 9394 233e FE02     		.2byte	0x2fe
 9395 2340 CA000000 		.4byte	0xca
 9396 2344 521C0000 		.4byte	.LLST119
 9397 2348 19       		.uleb128 0x19
 9398 2349 20000000 		.4byte	.LVL473
 9399 234d E12C0000 		.4byte	0x2ce1
 9400 2351 29       		.uleb128 0x29
 9401 2352 54000000 		.4byte	.LVL476
 9402 2356 16       		.uleb128 0x16
 9403 2357 01       		.uleb128 0x1
 9404 2358 50       		.byte	0x50
 9405 2359 01       		.uleb128 0x1
 9406 235a 30       		.byte	0x30
 9407 235b 16       		.uleb128 0x16
 9408 235c 01       		.uleb128 0x1
 9409 235d 51       		.byte	0x51
 9410 235e 05       		.uleb128 0x5
 9411 235f 03       		.byte	0x3
 9412 2360 00000000 		.4byte	.LC1
 9413 2364 16       		.uleb128 0x16
 9414 2365 01       		.uleb128 0x1
 9415 2366 52       		.byte	0x52
 9416 2367 05       		.uleb128 0x5
 9417 2368 03       		.byte	0x3
 9418 2369 3C020000 		.4byte	.LANCHOR5+60
 9419 236d 16       		.uleb128 0x16
 9420 236e 01       		.uleb128 0x1
 9421 236f 53       		.byte	0x53
 9422 2370 03       		.uleb128 0x3
 9423 2371 0A       		.byte	0xa
ARM GAS  C:\Users\Phuong\AppData\Local\Temp\cc4zbCpa.s 			page 192


 9424 2372 0103     		.2byte	0x301
 9425 2374 16       		.uleb128 0x16
 9426 2375 02       		.uleb128 0x2
 9427 2376 7D       		.byte	0x7d
 9428 2377 00       		.sleb128 0
 9429 2378 01       		.uleb128 0x1
 9430 2379 31       		.byte	0x31
 9431 237a 16       		.uleb128 0x16
 9432 237b 02       		.uleb128 0x2
 9433 237c 7D       		.byte	0x7d
 9434 237d 04       		.sleb128 4
 9435 237e 05       		.uleb128 0x5
 9436 237f 03       		.byte	0x3
 9437 2380 AC060000 		.4byte	.LC121
 9438 2384 16       		.uleb128 0x16
 9439 2385 02       		.uleb128 0x2
 9440 2386 7D       		.byte	0x7d
 9441 2387 08       		.sleb128 8
 9442 2388 02       		.uleb128 0x2
 9443 2389 75       		.byte	0x75
 9444 238a 00       		.sleb128 0
 9445 238b 16       		.uleb128 0x16
 9446 238c 02       		.uleb128 0x2
 9447 238d 7D       		.byte	0x7d
 9448 238e 0C       		.sleb128 12
 9449 238f 02       		.uleb128 0x2
 9450 2390 74       		.byte	0x74
 9451 2391 00       		.sleb128 0
 9452 2392 00       		.byte	0
 9453 2393 00       		.byte	0
 9454 2394 1B       		.uleb128 0x1b
 9455 2395 72000000 		.4byte	.LBB70
 9456 2399 1E000000 		.4byte	.LBE70-.LBB70
 9457 239d F0230000 		.4byte	0x23f0
 9458 23a1 25       		.uleb128 0x25
 9459 23a2 6C00     		.ascii	"l\000"
 9460 23a4 01       		.byte	0x1
 9461 23a5 1003     		.2byte	0x310
 9462 23a7 CA000000 		.4byte	0xca
 9463 23ab 861C0000 		.4byte	.LLST120
 9464 23af 19       		.uleb128 0x19
 9465 23b0 76000000 		.4byte	.LVL481
 9466 23b4 E12C0000 		.4byte	0x2ce1
 9467 23b8 1D       		.uleb128 0x1d
 9468 23b9 90000000 		.4byte	.LVL484
 9469 23bd 02       		.uleb128 0x2
 9470 23be 74       		.byte	0x74
 9471 23bf 00       		.sleb128 0
 9472 23c0 16       		.uleb128 0x16
 9473 23c1 01       		.uleb128 0x1
 9474 23c2 50       		.byte	0x50
 9475 23c3 01       		.uleb128 0x1
 9476 23c4 30       		.byte	0x30
 9477 23c5 16       		.uleb128 0x16
 9478 23c6 01       		.uleb128 0x1
 9479 23c7 51       		.byte	0x51
 9480 23c8 05       		.uleb128 0x5
ARM GAS  C:\Users\Phuong\AppData\Local\Temp\cc4zbCpa.s 			page 193


 9481 23c9 03       		.byte	0x3
 9482 23ca 00000000 		.4byte	.LC1
 9483 23ce 16       		.uleb128 0x16
 9484 23cf 01       		.uleb128 0x1
 9485 23d0 52       		.byte	0x52
 9486 23d1 05       		.uleb128 0x5
 9487 23d2 03       		.byte	0x3
 9488 23d3 3C020000 		.4byte	.LANCHOR5+60
 9489 23d7 16       		.uleb128 0x16
 9490 23d8 01       		.uleb128 0x1
 9491 23d9 53       		.byte	0x53
 9492 23da 03       		.uleb128 0x3
 9493 23db 0A       		.byte	0xa
 9494 23dc 1003     		.2byte	0x310
 9495 23de 16       		.uleb128 0x16
 9496 23df 02       		.uleb128 0x2
 9497 23e0 7D       		.byte	0x7d
 9498 23e1 00       		.sleb128 0
 9499 23e2 01       		.uleb128 0x1
 9500 23e3 31       		.byte	0x31
 9501 23e4 16       		.uleb128 0x16
 9502 23e5 02       		.uleb128 0x2
 9503 23e6 7D       		.byte	0x7d
 9504 23e7 04       		.sleb128 4
 9505 23e8 05       		.uleb128 0x5
 9506 23e9 03       		.byte	0x3
 9507 23ea 38070000 		.4byte	.LC123
 9508 23ee 00       		.byte	0
 9509 23ef 00       		.byte	0
 9510 23f0 19       		.uleb128 0x19
 9511 23f1 62000000 		.4byte	.LVL479
 9512 23f5 AA030000 		.4byte	0x3aa
 9513 23f9 17       		.uleb128 0x17
 9514 23fa 6C000000 		.4byte	.LVL480
 9515 23fe 98040000 		.4byte	0x498
 9516 2402 16       		.uleb128 0x16
 9517 2403 01       		.uleb128 0x1
 9518 2404 50       		.byte	0x50
 9519 2405 02       		.uleb128 0x2
 9520 2406 74       		.byte	0x74
 9521 2407 00       		.sleb128 0
 9522 2408 00       		.byte	0
 9523 2409 00       		.byte	0
 9524 240a 06       		.uleb128 0x6
 9525 240b C1220000 		.4byte	0x22c1
 9526 240f 22       		.uleb128 0x22
 9527 2410 9B070000 		.4byte	.LASF111
 9528 2414 01       		.byte	0x1
 9529 2415 1D03     		.2byte	0x31d
 9530 2417 91000000 		.4byte	0x91
 9531 241b 00000000 		.4byte	.LFB29
 9532 241f 44000000 		.4byte	.LFE29-.LFB29
 9533 2423 01       		.uleb128 0x1
 9534 2424 9C       		.byte	0x9c
 9535 2425 B1240000 		.4byte	0x24b1
 9536 2429 23       		.uleb128 0x23
 9537 242a 20030000 		.4byte	.LASF91
ARM GAS  C:\Users\Phuong\AppData\Local\Temp\cc4zbCpa.s 			page 194


 9538 242e 01       		.byte	0x1
 9539 242f 1D03     		.2byte	0x31d
 9540 2431 D9010000 		.4byte	0x1d9
 9541 2435 AF1C0000 		.4byte	.LLST121
 9542 2439 24       		.uleb128 0x24
 9543 243a EA020000 		.4byte	.LASF65
 9544 243e 01       		.byte	0x1
 9545 243f 1F03     		.2byte	0x31f
 9546 2441 91000000 		.4byte	0x91
 9547 2445 E91C0000 		.4byte	.LLST122
 9548 2449 1A       		.uleb128 0x1a
 9549 244a 5F0B0000 		.4byte	.LASF87
 9550 244e B1240000 		.4byte	0x24b1
 9551 2452 05       		.uleb128 0x5
 9552 2453 03       		.byte	0x3
 9553 2454 64020000 		.4byte	__func__.6465
 9554 2458 21       		.uleb128 0x21
 9555 2459 08000000 		.4byte	.LBB71
 9556 245d 1C000000 		.4byte	.LBE71-.LBB71
 9557 2461 25       		.uleb128 0x25
 9558 2462 6C00     		.ascii	"l\000"
 9559 2464 01       		.byte	0x1
 9560 2465 2303     		.2byte	0x323
 9561 2467 CA000000 		.4byte	0xca
 9562 246b 071D0000 		.4byte	.LLST123
 9563 246f 19       		.uleb128 0x19
 9564 2470 0C000000 		.4byte	.LVL492
 9565 2474 E12C0000 		.4byte	0x2ce1
 9566 2478 1D       		.uleb128 0x1d
 9567 2479 24000000 		.4byte	.LVL495
 9568 247d 02       		.uleb128 0x2
 9569 247e 74       		.byte	0x74
 9570 247f 00       		.sleb128 0
 9571 2480 16       		.uleb128 0x16
 9572 2481 01       		.uleb128 0x1
 9573 2482 50       		.byte	0x50
 9574 2483 01       		.uleb128 0x1
 9575 2484 30       		.byte	0x30
 9576 2485 16       		.uleb128 0x16
 9577 2486 01       		.uleb128 0x1
 9578 2487 51       		.byte	0x51
 9579 2488 05       		.uleb128 0x5
 9580 2489 03       		.byte	0x3
 9581 248a 00000000 		.4byte	.LC1
 9582 248e 16       		.uleb128 0x16
 9583 248f 01       		.uleb128 0x1
 9584 2490 52       		.byte	0x52
 9585 2491 05       		.uleb128 0x5
 9586 2492 03       		.byte	0x3
 9587 2493 64020000 		.4byte	.LANCHOR5+100
 9588 2497 16       		.uleb128 0x16
 9589 2498 01       		.uleb128 0x1
 9590 2499 53       		.byte	0x53
 9591 249a 03       		.uleb128 0x3
 9592 249b 0A       		.byte	0xa
 9593 249c 2303     		.2byte	0x323
 9594 249e 16       		.uleb128 0x16
ARM GAS  C:\Users\Phuong\AppData\Local\Temp\cc4zbCpa.s 			page 195


 9595 249f 02       		.uleb128 0x2
 9596 24a0 7D       		.byte	0x7d
 9597 24a1 00       		.sleb128 0
 9598 24a2 01       		.uleb128 0x1
 9599 24a3 31       		.byte	0x31
 9600 24a4 16       		.uleb128 0x16
 9601 24a5 02       		.uleb128 0x2
 9602 24a6 7D       		.byte	0x7d
 9603 24a7 04       		.sleb128 4
 9604 24a8 05       		.uleb128 0x5
 9605 24a9 03       		.byte	0x3
 9606 24aa 14060000 		.4byte	.LC105
 9607 24ae 00       		.byte	0
 9608 24af 00       		.byte	0
 9609 24b0 00       		.byte	0
 9610 24b1 06       		.uleb128 0x6
 9611 24b2 BA060000 		.4byte	0x6ba
 9612 24b6 22       		.uleb128 0x22
 9613 24b7 9A060000 		.4byte	.LASF112
 9614 24bb 01       		.byte	0x1
 9615 24bc 2E03     		.2byte	0x32e
 9616 24be A0010000 		.4byte	0x1a0
 9617 24c2 00000000 		.4byte	.LFB30
 9618 24c6 94000000 		.4byte	.LFE30-.LFB30
 9619 24ca 01       		.uleb128 0x1
 9620 24cb 9C       		.byte	0x9c
 9621 24cc 09260000 		.4byte	0x2609
 9622 24d0 23       		.uleb128 0x23
 9623 24d1 20030000 		.4byte	.LASF91
 9624 24d5 01       		.byte	0x1
 9625 24d6 2E03     		.2byte	0x32e
 9626 24d8 D9010000 		.4byte	0x1d9
 9627 24dc 301D0000 		.4byte	.LLST124
 9628 24e0 23       		.uleb128 0x23
 9629 24e1 3B0A0000 		.4byte	.LASF51
 9630 24e5 01       		.byte	0x1
 9631 24e6 2E03     		.2byte	0x32e
 9632 24e8 91000000 		.4byte	0x91
 9633 24ec 8B1D0000 		.4byte	.LLST125
 9634 24f0 28       		.uleb128 0x28
 9635 24f1 EA020000 		.4byte	.LASF65
 9636 24f5 01       		.byte	0x1
 9637 24f6 3003     		.2byte	0x330
 9638 24f8 A0010000 		.4byte	0x1a0
 9639 24fc 01       		.uleb128 0x1
 9640 24fd 50       		.byte	0x50
 9641 24fe 1A       		.uleb128 0x1a
 9642 24ff 5F0B0000 		.4byte	.LASF87
 9643 2503 09260000 		.4byte	0x2609
 9644 2507 05       		.uleb128 0x5
 9645 2508 03       		.byte	0x3
 9646 2509 80020000 		.4byte	__func__.6474
 9647 250d 1B       		.uleb128 0x1b
 9648 250e 10000000 		.4byte	.LBB72
 9649 2512 1E000000 		.4byte	.LBE72-.LBB72
 9650 2516 77250000 		.4byte	0x2577
 9651 251a 25       		.uleb128 0x25
ARM GAS  C:\Users\Phuong\AppData\Local\Temp\cc4zbCpa.s 			page 196


 9652 251b 6C00     		.ascii	"l\000"
 9653 251d 01       		.byte	0x1
 9654 251e 3503     		.2byte	0x335
 9655 2520 CA000000 		.4byte	0xca
 9656 2524 CD1D0000 		.4byte	.LLST126
 9657 2528 19       		.uleb128 0x19
 9658 2529 14000000 		.4byte	.LVL501
 9659 252d E12C0000 		.4byte	0x2ce1
 9660 2531 1D       		.uleb128 0x1d
 9661 2532 2E000000 		.4byte	.LVL504
 9662 2536 02       		.uleb128 0x2
 9663 2537 76       		.byte	0x76
 9664 2538 00       		.sleb128 0
 9665 2539 16       		.uleb128 0x16
 9666 253a 01       		.uleb128 0x1
 9667 253b 50       		.byte	0x50
 9668 253c 01       		.uleb128 0x1
 9669 253d 30       		.byte	0x30
 9670 253e 16       		.uleb128 0x16
 9671 253f 01       		.uleb128 0x1
 9672 2540 51       		.byte	0x51
 9673 2541 05       		.uleb128 0x5
 9674 2542 03       		.byte	0x3
 9675 2543 00000000 		.4byte	.LC1
 9676 2547 16       		.uleb128 0x16
 9677 2548 01       		.uleb128 0x1
 9678 2549 52       		.byte	0x52
 9679 254a 05       		.uleb128 0x5
 9680 254b 03       		.byte	0x3
 9681 254c 80020000 		.4byte	.LANCHOR6
 9682 2550 16       		.uleb128 0x16
 9683 2551 01       		.uleb128 0x1
 9684 2552 53       		.byte	0x53
 9685 2553 03       		.uleb128 0x3
 9686 2554 0A       		.byte	0xa
 9687 2555 3503     		.2byte	0x335
 9688 2557 16       		.uleb128 0x16
 9689 2558 02       		.uleb128 0x2
 9690 2559 7D       		.byte	0x7d
 9691 255a 00       		.sleb128 0
 9692 255b 01       		.uleb128 0x1
 9693 255c 31       		.byte	0x31
 9694 255d 16       		.uleb128 0x16
 9695 255e 02       		.uleb128 0x2
 9696 255f 7D       		.byte	0x7d
 9697 2560 04       		.sleb128 4
 9698 2561 05       		.uleb128 0x5
 9699 2562 03       		.byte	0x3
 9700 2563 60070000 		.4byte	.LC130
 9701 2567 16       		.uleb128 0x16
 9702 2568 02       		.uleb128 0x2
 9703 2569 7D       		.byte	0x7d
 9704 256a 08       		.sleb128 8
 9705 256b 02       		.uleb128 0x2
 9706 256c 74       		.byte	0x74
 9707 256d 00       		.sleb128 0
 9708 256e 16       		.uleb128 0x16
ARM GAS  C:\Users\Phuong\AppData\Local\Temp\cc4zbCpa.s 			page 197


 9709 256f 02       		.uleb128 0x2
 9710 2570 7D       		.byte	0x7d
 9711 2571 0C       		.sleb128 12
 9712 2572 02       		.uleb128 0x2
 9713 2573 75       		.byte	0x75
 9714 2574 00       		.sleb128 0
 9715 2575 00       		.byte	0
 9716 2576 00       		.byte	0
 9717 2577 26       		.uleb128 0x26
 9718 2578 90000000 		.4byte	.Ldebug_ranges0+0x90
 9719 257c 24       		.uleb128 0x24
 9720 257d D0000000 		.4byte	.LASF76
 9721 2581 01       		.byte	0x1
 9722 2582 3A03     		.2byte	0x33a
 9723 2584 92040000 		.4byte	0x492
 9724 2588 011E0000 		.4byte	.LLST127
 9725 258c 1B       		.uleb128 0x1b
 9726 258d 4E000000 		.4byte	.LBB74
 9727 2591 1A000000 		.4byte	.LBE74-.LBB74
 9728 2595 E8250000 		.4byte	0x25e8
 9729 2599 25       		.uleb128 0x25
 9730 259a 6C00     		.ascii	"l\000"
 9731 259c 01       		.byte	0x1
 9732 259d 4603     		.2byte	0x346
 9733 259f CA000000 		.4byte	0xca
 9734 25a3 461E0000 		.4byte	.LLST128
 9735 25a7 19       		.uleb128 0x19
 9736 25a8 52000000 		.4byte	.LVL509
 9737 25ac E12C0000 		.4byte	0x2ce1
 9738 25b0 1D       		.uleb128 0x1d
 9739 25b1 68000000 		.4byte	.LVL512
 9740 25b5 02       		.uleb128 0x2
 9741 25b6 74       		.byte	0x74
 9742 25b7 00       		.sleb128 0
 9743 25b8 16       		.uleb128 0x16
 9744 25b9 01       		.uleb128 0x1
 9745 25ba 50       		.byte	0x50
 9746 25bb 01       		.uleb128 0x1
 9747 25bc 30       		.byte	0x30
 9748 25bd 16       		.uleb128 0x16
 9749 25be 01       		.uleb128 0x1
 9750 25bf 51       		.byte	0x51
 9751 25c0 05       		.uleb128 0x5
 9752 25c1 03       		.byte	0x3
 9753 25c2 00000000 		.4byte	.LC1
 9754 25c6 16       		.uleb128 0x16
 9755 25c7 01       		.uleb128 0x1
 9756 25c8 52       		.byte	0x52
 9757 25c9 05       		.uleb128 0x5
 9758 25ca 03       		.byte	0x3
 9759 25cb 80020000 		.4byte	.LANCHOR6
 9760 25cf 16       		.uleb128 0x16
 9761 25d0 01       		.uleb128 0x1
 9762 25d1 53       		.byte	0x53
 9763 25d2 03       		.uleb128 0x3
 9764 25d3 0A       		.byte	0xa
 9765 25d4 4603     		.2byte	0x346
ARM GAS  C:\Users\Phuong\AppData\Local\Temp\cc4zbCpa.s 			page 198


 9766 25d6 16       		.uleb128 0x16
 9767 25d7 02       		.uleb128 0x2
 9768 25d8 7D       		.byte	0x7d
 9769 25d9 00       		.sleb128 0
 9770 25da 01       		.uleb128 0x1
 9771 25db 31       		.byte	0x31
 9772 25dc 16       		.uleb128 0x16
 9773 25dd 02       		.uleb128 0x2
 9774 25de 7D       		.byte	0x7d
 9775 25df 04       		.sleb128 4
 9776 25e0 05       		.uleb128 0x5
 9777 25e1 03       		.byte	0x3
 9778 25e2 9C070000 		.4byte	.LC132
 9779 25e6 00       		.byte	0
 9780 25e7 00       		.byte	0
 9781 25e8 19       		.uleb128 0x19
 9782 25e9 3C000000 		.4byte	.LVL507
 9783 25ed B52C0000 		.4byte	0x2cb5
 9784 25f1 17       		.uleb128 0x17
 9785 25f2 4A000000 		.4byte	.LVL508
 9786 25f6 F72C0000 		.4byte	0x2cf7
 9787 25fa 16       		.uleb128 0x16
 9788 25fb 01       		.uleb128 0x1
 9789 25fc 50       		.byte	0x50
 9790 25fd 02       		.uleb128 0x2
 9791 25fe 74       		.byte	0x74
 9792 25ff 1C       		.sleb128 28
 9793 2600 16       		.uleb128 0x16
 9794 2601 01       		.uleb128 0x1
 9795 2602 51       		.byte	0x51
 9796 2603 02       		.uleb128 0x2
 9797 2604 75       		.byte	0x75
 9798 2605 00       		.sleb128 0
 9799 2606 00       		.byte	0
 9800 2607 00       		.byte	0
 9801 2608 00       		.byte	0
 9802 2609 06       		.uleb128 0x6
 9803 260a BA060000 		.4byte	0x6ba
 9804 260e 22       		.uleb128 0x22
 9805 260f 580C0000 		.4byte	.LASF113
 9806 2613 01       		.byte	0x1
 9807 2614 5403     		.2byte	0x354
 9808 2616 91000000 		.4byte	0x91
 9809 261a 00000000 		.4byte	.LFB31
 9810 261e 44000000 		.4byte	.LFE31-.LFB31
 9811 2622 01       		.uleb128 0x1
 9812 2623 9C       		.byte	0x9c
 9813 2624 B0260000 		.4byte	0x26b0
 9814 2628 23       		.uleb128 0x23
 9815 2629 20030000 		.4byte	.LASF91
 9816 262d 01       		.byte	0x1
 9817 262e 5403     		.2byte	0x354
 9818 2630 D9010000 		.4byte	0x1d9
 9819 2634 6F1E0000 		.4byte	.LLST129
 9820 2638 24       		.uleb128 0x24
 9821 2639 EA020000 		.4byte	.LASF65
 9822 263d 01       		.byte	0x1
ARM GAS  C:\Users\Phuong\AppData\Local\Temp\cc4zbCpa.s 			page 199


 9823 263e 5603     		.2byte	0x356
 9824 2640 91000000 		.4byte	0x91
 9825 2644 A91E0000 		.4byte	.LLST130
 9826 2648 1A       		.uleb128 0x1a
 9827 2649 5F0B0000 		.4byte	.LASF87
 9828 264d B0260000 		.4byte	0x26b0
 9829 2651 05       		.uleb128 0x5
 9830 2652 03       		.byte	0x3
 9831 2653 9C020000 		.4byte	__func__.6486
 9832 2657 21       		.uleb128 0x21
 9833 2658 08000000 		.4byte	.LBB76
 9834 265c 1C000000 		.4byte	.LBE76-.LBB76
 9835 2660 25       		.uleb128 0x25
 9836 2661 6C00     		.ascii	"l\000"
 9837 2663 01       		.byte	0x1
 9838 2664 5A03     		.2byte	0x35a
 9839 2666 CA000000 		.4byte	0xca
 9840 266a C71E0000 		.4byte	.LLST131
 9841 266e 19       		.uleb128 0x19
 9842 266f 0C000000 		.4byte	.LVL520
 9843 2673 E12C0000 		.4byte	0x2ce1
 9844 2677 1D       		.uleb128 0x1d
 9845 2678 24000000 		.4byte	.LVL523
 9846 267c 02       		.uleb128 0x2
 9847 267d 74       		.byte	0x74
 9848 267e 00       		.sleb128 0
 9849 267f 16       		.uleb128 0x16
 9850 2680 01       		.uleb128 0x1
 9851 2681 50       		.byte	0x50
 9852 2682 01       		.uleb128 0x1
 9853 2683 30       		.byte	0x30
 9854 2684 16       		.uleb128 0x16
 9855 2685 01       		.uleb128 0x1
 9856 2686 51       		.byte	0x51
 9857 2687 05       		.uleb128 0x5
 9858 2688 03       		.byte	0x3
 9859 2689 00000000 		.4byte	.LC1
 9860 268d 16       		.uleb128 0x16
 9861 268e 01       		.uleb128 0x1
 9862 268f 52       		.byte	0x52
 9863 2690 05       		.uleb128 0x5
 9864 2691 03       		.byte	0x3
 9865 2692 9C020000 		.4byte	.LANCHOR6+28
 9866 2696 16       		.uleb128 0x16
 9867 2697 01       		.uleb128 0x1
 9868 2698 53       		.byte	0x53
 9869 2699 03       		.uleb128 0x3
 9870 269a 0A       		.byte	0xa
 9871 269b 5A03     		.2byte	0x35a
 9872 269d 16       		.uleb128 0x16
 9873 269e 02       		.uleb128 0x2
 9874 269f 7D       		.byte	0x7d
 9875 26a0 00       		.sleb128 0
 9876 26a1 01       		.uleb128 0x1
 9877 26a2 31       		.byte	0x31
 9878 26a3 16       		.uleb128 0x16
 9879 26a4 02       		.uleb128 0x2
ARM GAS  C:\Users\Phuong\AppData\Local\Temp\cc4zbCpa.s 			page 200


 9880 26a5 7D       		.byte	0x7d
 9881 26a6 04       		.sleb128 4
 9882 26a7 05       		.uleb128 0x5
 9883 26a8 03       		.byte	0x3
 9884 26a9 14060000 		.4byte	.LC105
 9885 26ad 00       		.byte	0
 9886 26ae 00       		.byte	0
 9887 26af 00       		.byte	0
 9888 26b0 06       		.uleb128 0x6
 9889 26b1 6D160000 		.4byte	0x166d
 9890 26b5 22       		.uleb128 0x22
 9891 26b6 CF020000 		.4byte	.LASF114
 9892 26ba 01       		.byte	0x1
 9893 26bb 6503     		.2byte	0x365
 9894 26bd A0010000 		.4byte	0x1a0
 9895 26c1 00000000 		.4byte	.LFB32
 9896 26c5 94000000 		.4byte	.LFE32-.LFB32
 9897 26c9 01       		.uleb128 0x1
 9898 26ca 9C       		.byte	0x9c
 9899 26cb 08280000 		.4byte	0x2808
 9900 26cf 23       		.uleb128 0x23
 9901 26d0 20030000 		.4byte	.LASF91
 9902 26d4 01       		.byte	0x1
 9903 26d5 6503     		.2byte	0x365
 9904 26d7 D9010000 		.4byte	0x1d9
 9905 26db F01E0000 		.4byte	.LLST132
 9906 26df 23       		.uleb128 0x23
 9907 26e0 C7080000 		.4byte	.LASF52
 9908 26e4 01       		.byte	0x1
 9909 26e5 6503     		.2byte	0x365
 9910 26e7 91000000 		.4byte	0x91
 9911 26eb 4B1F0000 		.4byte	.LLST133
 9912 26ef 28       		.uleb128 0x28
 9913 26f0 EA020000 		.4byte	.LASF65
 9914 26f4 01       		.byte	0x1
 9915 26f5 6703     		.2byte	0x367
 9916 26f7 A0010000 		.4byte	0x1a0
 9917 26fb 01       		.uleb128 0x1
 9918 26fc 50       		.byte	0x50
 9919 26fd 1A       		.uleb128 0x1a
 9920 26fe 5F0B0000 		.4byte	.LASF87
 9921 2702 08280000 		.4byte	0x2808
 9922 2706 05       		.uleb128 0x5
 9923 2707 03       		.byte	0x3
 9924 2708 B8020000 		.4byte	__func__.6495
 9925 270c 1B       		.uleb128 0x1b
 9926 270d 10000000 		.4byte	.LBB77
 9927 2711 22000000 		.4byte	.LBE77-.LBB77
 9928 2715 76270000 		.4byte	0x2776
 9929 2719 25       		.uleb128 0x25
 9930 271a 6C00     		.ascii	"l\000"
 9931 271c 01       		.byte	0x1
 9932 271d 6C03     		.2byte	0x36c
 9933 271f CA000000 		.4byte	0xca
 9934 2723 8D1F0000 		.4byte	.LLST134
 9935 2727 19       		.uleb128 0x19
 9936 2728 14000000 		.4byte	.LVL529
ARM GAS  C:\Users\Phuong\AppData\Local\Temp\cc4zbCpa.s 			page 201


 9937 272c E12C0000 		.4byte	0x2ce1
 9938 2730 1D       		.uleb128 0x1d
 9939 2731 32000000 		.4byte	.LVL532
 9940 2735 02       		.uleb128 0x2
 9941 2736 76       		.byte	0x76
 9942 2737 00       		.sleb128 0
 9943 2738 16       		.uleb128 0x16
 9944 2739 01       		.uleb128 0x1
 9945 273a 50       		.byte	0x50
 9946 273b 01       		.uleb128 0x1
 9947 273c 30       		.byte	0x30
 9948 273d 16       		.uleb128 0x16
 9949 273e 01       		.uleb128 0x1
 9950 273f 51       		.byte	0x51
 9951 2740 05       		.uleb128 0x5
 9952 2741 03       		.byte	0x3
 9953 2742 00000000 		.4byte	.LC1
 9954 2746 16       		.uleb128 0x16
 9955 2747 01       		.uleb128 0x1
 9956 2748 52       		.byte	0x52
 9957 2749 05       		.uleb128 0x5
 9958 274a 03       		.byte	0x3
 9959 274b B8020000 		.4byte	.LANCHOR6+56
 9960 274f 16       		.uleb128 0x16
 9961 2750 01       		.uleb128 0x1
 9962 2751 53       		.byte	0x53
 9963 2752 03       		.uleb128 0x3
 9964 2753 0A       		.byte	0xa
 9965 2754 6C03     		.2byte	0x36c
 9966 2756 16       		.uleb128 0x16
 9967 2757 02       		.uleb128 0x2
 9968 2758 7D       		.byte	0x7d
 9969 2759 00       		.sleb128 0
 9970 275a 01       		.uleb128 0x1
 9971 275b 31       		.byte	0x31
 9972 275c 16       		.uleb128 0x16
 9973 275d 02       		.uleb128 0x2
 9974 275e 7D       		.byte	0x7d
 9975 275f 04       		.sleb128 4
 9976 2760 05       		.uleb128 0x5
 9977 2761 03       		.byte	0x3
 9978 2762 C0070000 		.4byte	.LC139
 9979 2766 16       		.uleb128 0x16
 9980 2767 02       		.uleb128 0x2
 9981 2768 7D       		.byte	0x7d
 9982 2769 08       		.sleb128 8
 9983 276a 02       		.uleb128 0x2
 9984 276b 74       		.byte	0x74
 9985 276c 00       		.sleb128 0
 9986 276d 16       		.uleb128 0x16
 9987 276e 02       		.uleb128 0x2
 9988 276f 7D       		.byte	0x7d
 9989 2770 0C       		.sleb128 12
 9990 2771 02       		.uleb128 0x2
 9991 2772 75       		.byte	0x75
 9992 2773 00       		.sleb128 0
 9993 2774 00       		.byte	0
ARM GAS  C:\Users\Phuong\AppData\Local\Temp\cc4zbCpa.s 			page 202


 9994 2775 00       		.byte	0
 9995 2776 26       		.uleb128 0x26
 9996 2777 A8000000 		.4byte	.Ldebug_ranges0+0xa8
 9997 277b 24       		.uleb128 0x24
 9998 277c D0000000 		.4byte	.LASF76
 9999 2780 01       		.byte	0x1
 10000 2781 7103     		.2byte	0x371
 10001 2783 92040000 		.4byte	0x492
 10002 2787 C11F0000 		.4byte	.LLST135
 10003 278b 1B       		.uleb128 0x1b
 10004 278c 52000000 		.4byte	.LBB79
 10005 2790 1C000000 		.4byte	.LBE79-.LBB79
 10006 2794 E7270000 		.4byte	0x27e7
 10007 2798 25       		.uleb128 0x25
 10008 2799 6C00     		.ascii	"l\000"
 10009 279b 01       		.byte	0x1
 10010 279c 7D03     		.2byte	0x37d
 10011 279e CA000000 		.4byte	0xca
 10012 27a2 06200000 		.4byte	.LLST136
 10013 27a6 19       		.uleb128 0x19
 10014 27a7 56000000 		.4byte	.LVL537
 10015 27ab E12C0000 		.4byte	0x2ce1
 10016 27af 1D       		.uleb128 0x1d
 10017 27b0 6E000000 		.4byte	.LVL540
 10018 27b4 02       		.uleb128 0x2
 10019 27b5 74       		.byte	0x74
 10020 27b6 00       		.sleb128 0
 10021 27b7 16       		.uleb128 0x16
 10022 27b8 01       		.uleb128 0x1
 10023 27b9 50       		.byte	0x50
 10024 27ba 01       		.uleb128 0x1
 10025 27bb 30       		.byte	0x30
 10026 27bc 16       		.uleb128 0x16
 10027 27bd 01       		.uleb128 0x1
 10028 27be 51       		.byte	0x51
 10029 27bf 05       		.uleb128 0x5
 10030 27c0 03       		.byte	0x3
 10031 27c1 00000000 		.4byte	.LC1
 10032 27c5 16       		.uleb128 0x16
 10033 27c6 01       		.uleb128 0x1
 10034 27c7 52       		.byte	0x52
 10035 27c8 05       		.uleb128 0x5
 10036 27c9 03       		.byte	0x3
 10037 27ca B8020000 		.4byte	.LANCHOR6+56
 10038 27ce 16       		.uleb128 0x16
 10039 27cf 01       		.uleb128 0x1
 10040 27d0 53       		.byte	0x53
 10041 27d1 03       		.uleb128 0x3
 10042 27d2 0A       		.byte	0xa
 10043 27d3 7D03     		.2byte	0x37d
 10044 27d5 16       		.uleb128 0x16
 10045 27d6 02       		.uleb128 0x2
 10046 27d7 7D       		.byte	0x7d
 10047 27d8 00       		.sleb128 0
 10048 27d9 01       		.uleb128 0x1
 10049 27da 31       		.byte	0x31
 10050 27db 16       		.uleb128 0x16
ARM GAS  C:\Users\Phuong\AppData\Local\Temp\cc4zbCpa.s 			page 203


 10051 27dc 02       		.uleb128 0x2
 10052 27dd 7D       		.byte	0x7d
 10053 27de 04       		.sleb128 4
 10054 27df 05       		.uleb128 0x5
 10055 27e0 03       		.byte	0x3
 10056 27e1 F8070000 		.4byte	.LC141
 10057 27e5 00       		.byte	0
 10058 27e6 00       		.byte	0
 10059 27e7 19       		.uleb128 0x19
 10060 27e8 40000000 		.4byte	.LVL535
 10061 27ec B52C0000 		.4byte	0x2cb5
 10062 27f0 17       		.uleb128 0x17
 10063 27f1 4E000000 		.4byte	.LVL536
 10064 27f5 F72C0000 		.4byte	0x2cf7
 10065 27f9 16       		.uleb128 0x16
 10066 27fa 01       		.uleb128 0x1
 10067 27fb 50       		.byte	0x50
 10068 27fc 02       		.uleb128 0x2
 10069 27fd 74       		.byte	0x74
 10070 27fe 20       		.sleb128 32
 10071 27ff 16       		.uleb128 0x16
 10072 2800 01       		.uleb128 0x1
 10073 2801 51       		.byte	0x51
 10074 2802 02       		.uleb128 0x2
 10075 2803 75       		.byte	0x75
 10076 2804 00       		.sleb128 0
 10077 2805 00       		.byte	0
 10078 2806 00       		.byte	0
 10079 2807 00       		.byte	0
 10080 2808 06       		.uleb128 0x6
 10081 2809 6D160000 		.4byte	0x166d
 10082 280d 22       		.uleb128 0x22
 10083 280e 10000000 		.4byte	.LASF115
 10084 2812 01       		.byte	0x1
 10085 2813 8C03     		.2byte	0x38c
 10086 2815 91000000 		.4byte	0x91
 10087 2819 00000000 		.4byte	.LFB33
 10088 281d 44000000 		.4byte	.LFE33-.LFB33
 10089 2821 01       		.uleb128 0x1
 10090 2822 9C       		.byte	0x9c
 10091 2823 AF280000 		.4byte	0x28af
 10092 2827 23       		.uleb128 0x23
 10093 2828 20030000 		.4byte	.LASF91
 10094 282c 01       		.byte	0x1
 10095 282d 8C03     		.2byte	0x38c
 10096 282f D9010000 		.4byte	0x1d9
 10097 2833 2F200000 		.4byte	.LLST137
 10098 2837 24       		.uleb128 0x24
 10099 2838 EA020000 		.4byte	.LASF65
 10100 283c 01       		.byte	0x1
 10101 283d 8E03     		.2byte	0x38e
 10102 283f 91000000 		.4byte	0x91
 10103 2843 69200000 		.4byte	.LLST138
 10104 2847 1A       		.uleb128 0x1a
 10105 2848 5F0B0000 		.4byte	.LASF87
 10106 284c BF280000 		.4byte	0x28bf
 10107 2850 05       		.uleb128 0x5
ARM GAS  C:\Users\Phuong\AppData\Local\Temp\cc4zbCpa.s 			page 204


 10108 2851 03       		.byte	0x3
 10109 2852 D4020000 		.4byte	__func__.6507
 10110 2856 21       		.uleb128 0x21
 10111 2857 08000000 		.4byte	.LBB81
 10112 285b 1C000000 		.4byte	.LBE81-.LBB81
 10113 285f 25       		.uleb128 0x25
 10114 2860 6C00     		.ascii	"l\000"
 10115 2862 01       		.byte	0x1
 10116 2863 9203     		.2byte	0x392
 10117 2865 CA000000 		.4byte	0xca
 10118 2869 87200000 		.4byte	.LLST139
 10119 286d 19       		.uleb128 0x19
 10120 286e 0C000000 		.4byte	.LVL548
 10121 2872 E12C0000 		.4byte	0x2ce1
 10122 2876 1D       		.uleb128 0x1d
 10123 2877 24000000 		.4byte	.LVL551
 10124 287b 02       		.uleb128 0x2
 10125 287c 74       		.byte	0x74
 10126 287d 00       		.sleb128 0
 10127 287e 16       		.uleb128 0x16
 10128 287f 01       		.uleb128 0x1
 10129 2880 50       		.byte	0x50
 10130 2881 01       		.uleb128 0x1
 10131 2882 30       		.byte	0x30
 10132 2883 16       		.uleb128 0x16
 10133 2884 01       		.uleb128 0x1
 10134 2885 51       		.byte	0x51
 10135 2886 05       		.uleb128 0x5
 10136 2887 03       		.byte	0x3
 10137 2888 00000000 		.4byte	.LC1
 10138 288c 16       		.uleb128 0x16
 10139 288d 01       		.uleb128 0x1
 10140 288e 52       		.byte	0x52
 10141 288f 05       		.uleb128 0x5
 10142 2890 03       		.byte	0x3
 10143 2891 D4020000 		.4byte	.LANCHOR6+84
 10144 2895 16       		.uleb128 0x16
 10145 2896 01       		.uleb128 0x1
 10146 2897 53       		.byte	0x53
 10147 2898 03       		.uleb128 0x3
 10148 2899 0A       		.byte	0xa
 10149 289a 9203     		.2byte	0x392
 10150 289c 16       		.uleb128 0x16
 10151 289d 02       		.uleb128 0x2
 10152 289e 7D       		.byte	0x7d
 10153 289f 00       		.sleb128 0
 10154 28a0 01       		.uleb128 0x1
 10155 28a1 31       		.byte	0x31
 10156 28a2 16       		.uleb128 0x16
 10157 28a3 02       		.uleb128 0x2
 10158 28a4 7D       		.byte	0x7d
 10159 28a5 04       		.sleb128 4
 10160 28a6 05       		.uleb128 0x5
 10161 28a7 03       		.byte	0x3
 10162 28a8 14060000 		.4byte	.LC105
 10163 28ac 00       		.byte	0
 10164 28ad 00       		.byte	0
ARM GAS  C:\Users\Phuong\AppData\Local\Temp\cc4zbCpa.s 			page 205


 10165 28ae 00       		.byte	0
 10166 28af 1E       		.uleb128 0x1e
 10167 28b0 97000000 		.4byte	0x97
 10168 28b4 BF280000 		.4byte	0x28bf
 10169 28b8 1F       		.uleb128 0x1f
 10170 28b9 7D000000 		.4byte	0x7d
 10171 28bd 23       		.byte	0x23
 10172 28be 00       		.byte	0
 10173 28bf 06       		.uleb128 0x6
 10174 28c0 AF280000 		.4byte	0x28af
 10175 28c4 22       		.uleb128 0x22
 10176 28c5 E8080000 		.4byte	.LASF116
 10177 28c9 01       		.byte	0x1
 10178 28ca 9D03     		.2byte	0x39d
 10179 28cc A0010000 		.4byte	0x1a0
 10180 28d0 00000000 		.4byte	.LFB34
 10181 28d4 94000000 		.4byte	.LFE34-.LFB34
 10182 28d8 01       		.uleb128 0x1
 10183 28d9 9C       		.byte	0x9c
 10184 28da 172A0000 		.4byte	0x2a17
 10185 28de 23       		.uleb128 0x23
 10186 28df 20030000 		.4byte	.LASF91
 10187 28e3 01       		.byte	0x1
 10188 28e4 9D03     		.2byte	0x39d
 10189 28e6 D9010000 		.4byte	0x1d9
 10190 28ea B0200000 		.4byte	.LLST140
 10191 28ee 23       		.uleb128 0x23
 10192 28ef DB050000 		.4byte	.LASF53
 10193 28f3 01       		.byte	0x1
 10194 28f4 9D03     		.2byte	0x39d
 10195 28f6 91000000 		.4byte	0x91
 10196 28fa 0B210000 		.4byte	.LLST141
 10197 28fe 28       		.uleb128 0x28
 10198 28ff EA020000 		.4byte	.LASF65
 10199 2903 01       		.byte	0x1
 10200 2904 9F03     		.2byte	0x39f
 10201 2906 A0010000 		.4byte	0x1a0
 10202 290a 01       		.uleb128 0x1
 10203 290b 50       		.byte	0x50
 10204 290c 1A       		.uleb128 0x1a
 10205 290d 5F0B0000 		.4byte	.LASF87
 10206 2911 172A0000 		.4byte	0x2a17
 10207 2915 05       		.uleb128 0x5
 10208 2916 03       		.byte	0x3
 10209 2917 F8020000 		.4byte	__func__.6516
 10210 291b 1B       		.uleb128 0x1b
 10211 291c 10000000 		.4byte	.LBB82
 10212 2920 22000000 		.4byte	.LBE82-.LBB82
 10213 2924 85290000 		.4byte	0x2985
 10214 2928 25       		.uleb128 0x25
 10215 2929 6C00     		.ascii	"l\000"
 10216 292b 01       		.byte	0x1
 10217 292c A403     		.2byte	0x3a4
 10218 292e CA000000 		.4byte	0xca
 10219 2932 4D210000 		.4byte	.LLST142
 10220 2936 19       		.uleb128 0x19
 10221 2937 14000000 		.4byte	.LVL557
ARM GAS  C:\Users\Phuong\AppData\Local\Temp\cc4zbCpa.s 			page 206


 10222 293b E12C0000 		.4byte	0x2ce1
 10223 293f 1D       		.uleb128 0x1d
 10224 2940 32000000 		.4byte	.LVL560
 10225 2944 02       		.uleb128 0x2
 10226 2945 76       		.byte	0x76
 10227 2946 00       		.sleb128 0
 10228 2947 16       		.uleb128 0x16
 10229 2948 01       		.uleb128 0x1
 10230 2949 50       		.byte	0x50
 10231 294a 01       		.uleb128 0x1
 10232 294b 30       		.byte	0x30
 10233 294c 16       		.uleb128 0x16
 10234 294d 01       		.uleb128 0x1
 10235 294e 51       		.byte	0x51
 10236 294f 05       		.uleb128 0x5
 10237 2950 03       		.byte	0x3
 10238 2951 00000000 		.4byte	.LC1
 10239 2955 16       		.uleb128 0x16
 10240 2956 01       		.uleb128 0x1
 10241 2957 52       		.byte	0x52
 10242 2958 05       		.uleb128 0x5
 10243 2959 03       		.byte	0x3
 10244 295a F8020000 		.4byte	.LANCHOR6+120
 10245 295e 16       		.uleb128 0x16
 10246 295f 01       		.uleb128 0x1
 10247 2960 53       		.byte	0x53
 10248 2961 03       		.uleb128 0x3
 10249 2962 0A       		.byte	0xa
 10250 2963 A403     		.2byte	0x3a4
 10251 2965 16       		.uleb128 0x16
 10252 2966 02       		.uleb128 0x2
 10253 2967 7D       		.byte	0x7d
 10254 2968 00       		.sleb128 0
 10255 2969 01       		.uleb128 0x1
 10256 296a 31       		.byte	0x31
 10257 296b 16       		.uleb128 0x16
 10258 296c 02       		.uleb128 0x2
 10259 296d 7D       		.byte	0x7d
 10260 296e 04       		.sleb128 4
 10261 296f 05       		.uleb128 0x5
 10262 2970 03       		.byte	0x3
 10263 2971 1C080000 		.4byte	.LC148
 10264 2975 16       		.uleb128 0x16
 10265 2976 02       		.uleb128 0x2
 10266 2977 7D       		.byte	0x7d
 10267 2978 08       		.sleb128 8
 10268 2979 02       		.uleb128 0x2
 10269 297a 74       		.byte	0x74
 10270 297b 00       		.sleb128 0
 10271 297c 16       		.uleb128 0x16
 10272 297d 02       		.uleb128 0x2
 10273 297e 7D       		.byte	0x7d
 10274 297f 0C       		.sleb128 12
 10275 2980 02       		.uleb128 0x2
 10276 2981 75       		.byte	0x75
 10277 2982 00       		.sleb128 0
 10278 2983 00       		.byte	0
ARM GAS  C:\Users\Phuong\AppData\Local\Temp\cc4zbCpa.s 			page 207


 10279 2984 00       		.byte	0
 10280 2985 26       		.uleb128 0x26
 10281 2986 C0000000 		.4byte	.Ldebug_ranges0+0xc0
 10282 298a 24       		.uleb128 0x24
 10283 298b D0000000 		.4byte	.LASF76
 10284 298f 01       		.byte	0x1
 10285 2990 A903     		.2byte	0x3a9
 10286 2992 92040000 		.4byte	0x492
 10287 2996 81210000 		.4byte	.LLST143
 10288 299a 1B       		.uleb128 0x1b
 10289 299b 52000000 		.4byte	.LBB84
 10290 299f 1C000000 		.4byte	.LBE84-.LBB84
 10291 29a3 F6290000 		.4byte	0x29f6
 10292 29a7 25       		.uleb128 0x25
 10293 29a8 6C00     		.ascii	"l\000"
 10294 29aa 01       		.byte	0x1
 10295 29ab B503     		.2byte	0x3b5
 10296 29ad CA000000 		.4byte	0xca
 10297 29b1 C6210000 		.4byte	.LLST144
 10298 29b5 19       		.uleb128 0x19
 10299 29b6 56000000 		.4byte	.LVL565
 10300 29ba E12C0000 		.4byte	0x2ce1
 10301 29be 1D       		.uleb128 0x1d
 10302 29bf 6E000000 		.4byte	.LVL568
 10303 29c3 02       		.uleb128 0x2
 10304 29c4 74       		.byte	0x74
 10305 29c5 00       		.sleb128 0
 10306 29c6 16       		.uleb128 0x16
 10307 29c7 01       		.uleb128 0x1
 10308 29c8 50       		.byte	0x50
 10309 29c9 01       		.uleb128 0x1
 10310 29ca 30       		.byte	0x30
 10311 29cb 16       		.uleb128 0x16
 10312 29cc 01       		.uleb128 0x1
 10313 29cd 51       		.byte	0x51
 10314 29ce 05       		.uleb128 0x5
 10315 29cf 03       		.byte	0x3
 10316 29d0 00000000 		.4byte	.LC1
 10317 29d4 16       		.uleb128 0x16
 10318 29d5 01       		.uleb128 0x1
 10319 29d6 52       		.byte	0x52
 10320 29d7 05       		.uleb128 0x5
 10321 29d8 03       		.byte	0x3
 10322 29d9 F8020000 		.4byte	.LANCHOR6+120
 10323 29dd 16       		.uleb128 0x16
 10324 29de 01       		.uleb128 0x1
 10325 29df 53       		.byte	0x53
 10326 29e0 03       		.uleb128 0x3
 10327 29e1 0A       		.byte	0xa
 10328 29e2 B503     		.2byte	0x3b5
 10329 29e4 16       		.uleb128 0x16
 10330 29e5 02       		.uleb128 0x2
 10331 29e6 7D       		.byte	0x7d
 10332 29e7 00       		.sleb128 0
 10333 29e8 01       		.uleb128 0x1
 10334 29e9 31       		.byte	0x31
 10335 29ea 16       		.uleb128 0x16
ARM GAS  C:\Users\Phuong\AppData\Local\Temp\cc4zbCpa.s 			page 208


 10336 29eb 02       		.uleb128 0x2
 10337 29ec 7D       		.byte	0x7d
 10338 29ed 04       		.sleb128 4
 10339 29ee 05       		.uleb128 0x5
 10340 29ef 03       		.byte	0x3
 10341 29f0 60080000 		.4byte	.LC150
 10342 29f4 00       		.byte	0
 10343 29f5 00       		.byte	0
 10344 29f6 19       		.uleb128 0x19
 10345 29f7 40000000 		.4byte	.LVL563
 10346 29fb B52C0000 		.4byte	0x2cb5
 10347 29ff 17       		.uleb128 0x17
 10348 2a00 4E000000 		.4byte	.LVL564
 10349 2a04 F72C0000 		.4byte	0x2cf7
 10350 2a08 16       		.uleb128 0x16
 10351 2a09 01       		.uleb128 0x1
 10352 2a0a 50       		.byte	0x50
 10353 2a0b 02       		.uleb128 0x2
 10354 2a0c 74       		.byte	0x74
 10355 2a0d 24       		.sleb128 36
 10356 2a0e 16       		.uleb128 0x16
 10357 2a0f 01       		.uleb128 0x1
 10358 2a10 51       		.byte	0x51
 10359 2a11 02       		.uleb128 0x2
 10360 2a12 75       		.byte	0x75
 10361 2a13 00       		.sleb128 0
 10362 2a14 00       		.byte	0
 10363 2a15 00       		.byte	0
 10364 2a16 00       		.byte	0
 10365 2a17 06       		.uleb128 0x6
 10366 2a18 AF280000 		.4byte	0x28af
 10367 2a1c 22       		.uleb128 0x22
 10368 2a1d 38090000 		.4byte	.LASF117
 10369 2a21 01       		.byte	0x1
 10370 2a22 C403     		.2byte	0x3c4
 10371 2a24 91000000 		.4byte	0x91
 10372 2a28 00000000 		.4byte	.LFB35
 10373 2a2c 44000000 		.4byte	.LFE35-.LFB35
 10374 2a30 01       		.uleb128 0x1
 10375 2a31 9C       		.byte	0x9c
 10376 2a32 BE2A0000 		.4byte	0x2abe
 10377 2a36 23       		.uleb128 0x23
 10378 2a37 20030000 		.4byte	.LASF91
 10379 2a3b 01       		.byte	0x1
 10380 2a3c C403     		.2byte	0x3c4
 10381 2a3e D9010000 		.4byte	0x1d9
 10382 2a42 EF210000 		.4byte	.LLST145
 10383 2a46 24       		.uleb128 0x24
 10384 2a47 EA020000 		.4byte	.LASF65
 10385 2a4b 01       		.byte	0x1
 10386 2a4c C603     		.2byte	0x3c6
 10387 2a4e 91000000 		.4byte	0x91
 10388 2a52 29220000 		.4byte	.LLST146
 10389 2a56 1A       		.uleb128 0x1a
 10390 2a57 5F0B0000 		.4byte	.LASF87
 10391 2a5b BE2A0000 		.4byte	0x2abe
 10392 2a5f 05       		.uleb128 0x5
ARM GAS  C:\Users\Phuong\AppData\Local\Temp\cc4zbCpa.s 			page 209


 10393 2a60 03       		.byte	0x3
 10394 2a61 1C030000 		.4byte	__func__.6528
 10395 2a65 21       		.uleb128 0x21
 10396 2a66 08000000 		.4byte	.LBB86
 10397 2a6a 1C000000 		.4byte	.LBE86-.LBB86
 10398 2a6e 25       		.uleb128 0x25
 10399 2a6f 6C00     		.ascii	"l\000"
 10400 2a71 01       		.byte	0x1
 10401 2a72 CA03     		.2byte	0x3ca
 10402 2a74 CA000000 		.4byte	0xca
 10403 2a78 47220000 		.4byte	.LLST147
 10404 2a7c 19       		.uleb128 0x19
 10405 2a7d 0C000000 		.4byte	.LVL576
 10406 2a81 E12C0000 		.4byte	0x2ce1
 10407 2a85 1D       		.uleb128 0x1d
 10408 2a86 24000000 		.4byte	.LVL579
 10409 2a8a 02       		.uleb128 0x2
 10410 2a8b 74       		.byte	0x74
 10411 2a8c 00       		.sleb128 0
 10412 2a8d 16       		.uleb128 0x16
 10413 2a8e 01       		.uleb128 0x1
 10414 2a8f 50       		.byte	0x50
 10415 2a90 01       		.uleb128 0x1
 10416 2a91 30       		.byte	0x30
 10417 2a92 16       		.uleb128 0x16
 10418 2a93 01       		.uleb128 0x1
 10419 2a94 51       		.byte	0x51
 10420 2a95 05       		.uleb128 0x5
 10421 2a96 03       		.byte	0x3
 10422 2a97 00000000 		.4byte	.LC1
 10423 2a9b 16       		.uleb128 0x16
 10424 2a9c 01       		.uleb128 0x1
 10425 2a9d 52       		.byte	0x52
 10426 2a9e 05       		.uleb128 0x5
 10427 2a9f 03       		.byte	0x3
 10428 2aa0 1C030000 		.4byte	.LANCHOR7+28
 10429 2aa4 16       		.uleb128 0x16
 10430 2aa5 01       		.uleb128 0x1
 10431 2aa6 53       		.byte	0x53
 10432 2aa7 03       		.uleb128 0x3
 10433 2aa8 0A       		.byte	0xa
 10434 2aa9 CA03     		.2byte	0x3ca
 10435 2aab 16       		.uleb128 0x16
 10436 2aac 02       		.uleb128 0x2
 10437 2aad 7D       		.byte	0x7d
 10438 2aae 00       		.sleb128 0
 10439 2aaf 01       		.uleb128 0x1
 10440 2ab0 31       		.byte	0x31
 10441 2ab1 16       		.uleb128 0x16
 10442 2ab2 02       		.uleb128 0x2
 10443 2ab3 7D       		.byte	0x7d
 10444 2ab4 04       		.sleb128 4
 10445 2ab5 05       		.uleb128 0x5
 10446 2ab6 03       		.byte	0x3
 10447 2ab7 14060000 		.4byte	.LC105
 10448 2abb 00       		.byte	0
 10449 2abc 00       		.byte	0
ARM GAS  C:\Users\Phuong\AppData\Local\Temp\cc4zbCpa.s 			page 210


 10450 2abd 00       		.byte	0
 10451 2abe 06       		.uleb128 0x6
 10452 2abf AF280000 		.4byte	0x28af
 10453 2ac3 22       		.uleb128 0x22
 10454 2ac4 EE050000 		.4byte	.LASF118
 10455 2ac8 01       		.byte	0x1
 10456 2ac9 D503     		.2byte	0x3d5
 10457 2acb A0010000 		.4byte	0x1a0
 10458 2acf 00000000 		.4byte	.LFB36
 10459 2ad3 94000000 		.4byte	.LFE36-.LFB36
 10460 2ad7 01       		.uleb128 0x1
 10461 2ad8 9C       		.byte	0x9c
 10462 2ad9 162C0000 		.4byte	0x2c16
 10463 2add 23       		.uleb128 0x23
 10464 2ade 20030000 		.4byte	.LASF91
 10465 2ae2 01       		.byte	0x1
 10466 2ae3 D503     		.2byte	0x3d5
 10467 2ae5 D9010000 		.4byte	0x1d9
 10468 2ae9 70220000 		.4byte	.LLST148
 10469 2aed 23       		.uleb128 0x23
 10470 2aee 44060000 		.4byte	.LASF54
 10471 2af2 01       		.byte	0x1
 10472 2af3 D503     		.2byte	0x3d5
 10473 2af5 91000000 		.4byte	0x91
 10474 2af9 CB220000 		.4byte	.LLST149
 10475 2afd 28       		.uleb128 0x28
 10476 2afe EA020000 		.4byte	.LASF65
 10477 2b02 01       		.byte	0x1
 10478 2b03 D703     		.2byte	0x3d7
 10479 2b05 A0010000 		.4byte	0x1a0
 10480 2b09 01       		.uleb128 0x1
 10481 2b0a 50       		.byte	0x50
 10482 2b0b 1A       		.uleb128 0x1a
 10483 2b0c 5F0B0000 		.4byte	.LASF87
 10484 2b10 162C0000 		.4byte	0x2c16
 10485 2b14 05       		.uleb128 0x5
 10486 2b15 03       		.byte	0x3
 10487 2b16 40030000 		.4byte	__func__.6537
 10488 2b1a 1B       		.uleb128 0x1b
 10489 2b1b 10000000 		.4byte	.LBB87
 10490 2b1f 22000000 		.4byte	.LBE87-.LBB87
 10491 2b23 842B0000 		.4byte	0x2b84
 10492 2b27 25       		.uleb128 0x25
 10493 2b28 6C00     		.ascii	"l\000"
 10494 2b2a 01       		.byte	0x1
 10495 2b2b DC03     		.2byte	0x3dc
 10496 2b2d CA000000 		.4byte	0xca
 10497 2b31 0D230000 		.4byte	.LLST150
 10498 2b35 19       		.uleb128 0x19
 10499 2b36 14000000 		.4byte	.LVL585
 10500 2b3a E12C0000 		.4byte	0x2ce1
 10501 2b3e 1D       		.uleb128 0x1d
 10502 2b3f 32000000 		.4byte	.LVL588
 10503 2b43 02       		.uleb128 0x2
 10504 2b44 76       		.byte	0x76
 10505 2b45 00       		.sleb128 0
 10506 2b46 16       		.uleb128 0x16
ARM GAS  C:\Users\Phuong\AppData\Local\Temp\cc4zbCpa.s 			page 211


 10507 2b47 01       		.uleb128 0x1
 10508 2b48 50       		.byte	0x50
 10509 2b49 01       		.uleb128 0x1
 10510 2b4a 30       		.byte	0x30
 10511 2b4b 16       		.uleb128 0x16
 10512 2b4c 01       		.uleb128 0x1
 10513 2b4d 51       		.byte	0x51
 10514 2b4e 05       		.uleb128 0x5
 10515 2b4f 03       		.byte	0x3
 10516 2b50 00000000 		.4byte	.LC1
 10517 2b54 16       		.uleb128 0x16
 10518 2b55 01       		.uleb128 0x1
 10519 2b56 52       		.byte	0x52
 10520 2b57 05       		.uleb128 0x5
 10521 2b58 03       		.byte	0x3
 10522 2b59 40030000 		.4byte	.LANCHOR7+64
 10523 2b5d 16       		.uleb128 0x16
 10524 2b5e 01       		.uleb128 0x1
 10525 2b5f 53       		.byte	0x53
 10526 2b60 03       		.uleb128 0x3
 10527 2b61 0A       		.byte	0xa
 10528 2b62 DC03     		.2byte	0x3dc
 10529 2b64 16       		.uleb128 0x16
 10530 2b65 02       		.uleb128 0x2
 10531 2b66 7D       		.byte	0x7d
 10532 2b67 00       		.sleb128 0
 10533 2b68 01       		.uleb128 0x1
 10534 2b69 31       		.byte	0x31
 10535 2b6a 16       		.uleb128 0x16
 10536 2b6b 02       		.uleb128 0x2
 10537 2b6c 7D       		.byte	0x7d
 10538 2b6d 04       		.sleb128 4
 10539 2b6e 05       		.uleb128 0x5
 10540 2b6f 03       		.byte	0x3
 10541 2b70 8C080000 		.4byte	.LC157
 10542 2b74 16       		.uleb128 0x16
 10543 2b75 02       		.uleb128 0x2
 10544 2b76 7D       		.byte	0x7d
 10545 2b77 08       		.sleb128 8
 10546 2b78 02       		.uleb128 0x2
 10547 2b79 74       		.byte	0x74
 10548 2b7a 00       		.sleb128 0
 10549 2b7b 16       		.uleb128 0x16
 10550 2b7c 02       		.uleb128 0x2
 10551 2b7d 7D       		.byte	0x7d
 10552 2b7e 0C       		.sleb128 12
 10553 2b7f 02       		.uleb128 0x2
 10554 2b80 75       		.byte	0x75
 10555 2b81 00       		.sleb128 0
 10556 2b82 00       		.byte	0
 10557 2b83 00       		.byte	0
 10558 2b84 26       		.uleb128 0x26
 10559 2b85 D8000000 		.4byte	.Ldebug_ranges0+0xd8
 10560 2b89 24       		.uleb128 0x24
 10561 2b8a D0000000 		.4byte	.LASF76
 10562 2b8e 01       		.byte	0x1
 10563 2b8f E103     		.2byte	0x3e1
ARM GAS  C:\Users\Phuong\AppData\Local\Temp\cc4zbCpa.s 			page 212


 10564 2b91 92040000 		.4byte	0x492
 10565 2b95 41230000 		.4byte	.LLST151
 10566 2b99 1B       		.uleb128 0x1b
 10567 2b9a 52000000 		.4byte	.LBB89
 10568 2b9e 1C000000 		.4byte	.LBE89-.LBB89
 10569 2ba2 F52B0000 		.4byte	0x2bf5
 10570 2ba6 25       		.uleb128 0x25
 10571 2ba7 6C00     		.ascii	"l\000"
 10572 2ba9 01       		.byte	0x1
 10573 2baa ED03     		.2byte	0x3ed
 10574 2bac CA000000 		.4byte	0xca
 10575 2bb0 86230000 		.4byte	.LLST152
 10576 2bb4 19       		.uleb128 0x19
 10577 2bb5 56000000 		.4byte	.LVL593
 10578 2bb9 E12C0000 		.4byte	0x2ce1
 10579 2bbd 1D       		.uleb128 0x1d
 10580 2bbe 6E000000 		.4byte	.LVL596
 10581 2bc2 02       		.uleb128 0x2
 10582 2bc3 74       		.byte	0x74
 10583 2bc4 00       		.sleb128 0
 10584 2bc5 16       		.uleb128 0x16
 10585 2bc6 01       		.uleb128 0x1
 10586 2bc7 50       		.byte	0x50
 10587 2bc8 01       		.uleb128 0x1
 10588 2bc9 30       		.byte	0x30
 10589 2bca 16       		.uleb128 0x16
 10590 2bcb 01       		.uleb128 0x1
 10591 2bcc 51       		.byte	0x51
 10592 2bcd 05       		.uleb128 0x5
 10593 2bce 03       		.byte	0x3
 10594 2bcf 00000000 		.4byte	.LC1
 10595 2bd3 16       		.uleb128 0x16
 10596 2bd4 01       		.uleb128 0x1
 10597 2bd5 52       		.byte	0x52
 10598 2bd6 05       		.uleb128 0x5
 10599 2bd7 03       		.byte	0x3
 10600 2bd8 40030000 		.4byte	.LANCHOR7+64
 10601 2bdc 16       		.uleb128 0x16
 10602 2bdd 01       		.uleb128 0x1
 10603 2bde 53       		.byte	0x53
 10604 2bdf 03       		.uleb128 0x3
 10605 2be0 0A       		.byte	0xa
 10606 2be1 ED03     		.2byte	0x3ed
 10607 2be3 16       		.uleb128 0x16
 10608 2be4 02       		.uleb128 0x2
 10609 2be5 7D       		.byte	0x7d
 10610 2be6 00       		.sleb128 0
 10611 2be7 01       		.uleb128 0x1
 10612 2be8 31       		.byte	0x31
 10613 2be9 16       		.uleb128 0x16
 10614 2bea 02       		.uleb128 0x2
 10615 2beb 7D       		.byte	0x7d
 10616 2bec 04       		.sleb128 4
 10617 2bed 05       		.uleb128 0x5
 10618 2bee 03       		.byte	0x3
 10619 2bef D0080000 		.4byte	.LC159
 10620 2bf3 00       		.byte	0
ARM GAS  C:\Users\Phuong\AppData\Local\Temp\cc4zbCpa.s 			page 213


 10621 2bf4 00       		.byte	0
 10622 2bf5 19       		.uleb128 0x19
 10623 2bf6 40000000 		.4byte	.LVL591
 10624 2bfa B52C0000 		.4byte	0x2cb5
 10625 2bfe 17       		.uleb128 0x17
 10626 2bff 4E000000 		.4byte	.LVL592
 10627 2c03 F72C0000 		.4byte	0x2cf7
 10628 2c07 16       		.uleb128 0x16
 10629 2c08 01       		.uleb128 0x1
 10630 2c09 50       		.byte	0x50
 10631 2c0a 02       		.uleb128 0x2
 10632 2c0b 74       		.byte	0x74
 10633 2c0c 28       		.sleb128 40
 10634 2c0d 16       		.uleb128 0x16
 10635 2c0e 01       		.uleb128 0x1
 10636 2c0f 51       		.byte	0x51
 10637 2c10 02       		.uleb128 0x2
 10638 2c11 75       		.byte	0x75
 10639 2c12 00       		.sleb128 0
 10640 2c13 00       		.byte	0
 10641 2c14 00       		.byte	0
 10642 2c15 00       		.byte	0
 10643 2c16 06       		.uleb128 0x6
 10644 2c17 AF280000 		.4byte	0x28af
 10645 2c1b 2A       		.uleb128 0x2a
 10646 2c1c 50040000 		.4byte	.LASF145
 10647 2c20 01       		.byte	0x1
 10648 2c21 FB03     		.2byte	0x3fb
 10649 2c23 00000000 		.4byte	.LFB37
 10650 2c27 0C000000 		.4byte	.LFE37-.LFB37
 10651 2c2b 01       		.uleb128 0x1
 10652 2c2c 9C       		.byte	0x9c
 10653 2c2d 532C0000 		.4byte	0x2c53
 10654 2c31 23       		.uleb128 0x23
 10655 2c32 20030000 		.4byte	.LASF91
 10656 2c36 01       		.byte	0x1
 10657 2c37 FB03     		.2byte	0x3fb
 10658 2c39 D9010000 		.4byte	0x1d9
 10659 2c3d AF230000 		.4byte	.LLST153
 10660 2c41 17       		.uleb128 0x17
 10661 2c42 0A000000 		.4byte	.LVL604
 10662 2c46 F1030000 		.4byte	0x3f1
 10663 2c4a 16       		.uleb128 0x16
 10664 2c4b 01       		.uleb128 0x1
 10665 2c4c 50       		.byte	0x50
 10666 2c4d 03       		.uleb128 0x3
 10667 2c4e F3       		.byte	0xf3
 10668 2c4f 01       		.uleb128 0x1
 10669 2c50 50       		.byte	0x50
 10670 2c51 00       		.byte	0
 10671 2c52 00       		.byte	0
 10672 2c53 1E       		.uleb128 0x1e
 10673 2c54 97000000 		.4byte	0x97
 10674 2c58 632C0000 		.4byte	0x2c63
 10675 2c5c 1F       		.uleb128 0x1f
 10676 2c5d 7D000000 		.4byte	0x7d
 10677 2c61 16       		.byte	0x16
ARM GAS  C:\Users\Phuong\AppData\Local\Temp\cc4zbCpa.s 			page 214


 10678 2c62 00       		.byte	0
 10679 2c63 2B       		.uleb128 0x2b
 10680 2c64 03010000 		.4byte	.LASF119
 10681 2c68 07       		.byte	0x7
 10682 2c69 36       		.byte	0x36
 10683 2c6a 6E2C0000 		.4byte	0x2c6e
 10684 2c6e 06       		.uleb128 0x6
 10685 2c6f 532C0000 		.4byte	0x2c53
 10686 2c73 1E       		.uleb128 0x1e
 10687 2c74 91000000 		.4byte	0x91
 10688 2c78 832C0000 		.4byte	0x2c83
 10689 2c7c 1F       		.uleb128 0x1f
 10690 2c7d 7D000000 		.4byte	0x7d
 10691 2c81 03       		.byte	0x3
 10692 2c82 00       		.byte	0
 10693 2c83 2C       		.uleb128 0x2c
 10694 2c84 82080000 		.4byte	.LASF120
 10695 2c88 01       		.byte	0x1
 10696 2c89 0C       		.byte	0xc
 10697 2c8a 732C0000 		.4byte	0x2c73
 10698 2c8e 05       		.uleb128 0x5
 10699 2c8f 03       		.byte	0x3
 10700 2c90 00000000 		.4byte	IOTHUB_MESSAGE_RESULTStringStorage
 10701 2c94 1E       		.uleb128 0x1e
 10702 2c95 91000000 		.4byte	0x91
 10703 2c99 A42C0000 		.4byte	0x2ca4
 10704 2c9d 1F       		.uleb128 0x1f
 10705 2c9e 7D000000 		.4byte	0x7d
 10706 2ca2 02       		.byte	0x2
 10707 2ca3 00       		.byte	0
 10708 2ca4 2C       		.uleb128 0x2c
 10709 2ca5 72050000 		.4byte	.LASF121
 10710 2ca9 01       		.byte	0x1
 10711 2caa 0D       		.byte	0xd
 10712 2cab 942C0000 		.4byte	0x2c94
 10713 2caf 05       		.uleb128 0x5
 10714 2cb0 03       		.byte	0x3
 10715 2cb1 00000000 		.4byte	IOTHUBMESSAGE_CONTENT_TYPEStringStorage
 10716 2cb5 2D       		.uleb128 0x2d
 10717 2cb6 9D040000 		.4byte	.LASF122
 10718 2cba 9D040000 		.4byte	.LASF122
 10719 2cbe 08       		.byte	0x8
 10720 2cbf 59       		.byte	0x59
 10721 2cc0 2D       		.uleb128 0x2d
 10722 2cc1 A2040000 		.4byte	.LASF123
 10723 2cc5 A2040000 		.4byte	.LASF123
 10724 2cc9 04       		.byte	0x4
 10725 2cca 16       		.byte	0x16
 10726 2ccb 2D       		.uleb128 0x2d
 10727 2ccc E8070000 		.4byte	.LASF124
 10728 2cd0 E8070000 		.4byte	.LASF124
 10729 2cd4 09       		.byte	0x9
 10730 2cd5 1A       		.byte	0x1a
 10731 2cd6 2D       		.uleb128 0x2d
 10732 2cd7 32080000 		.4byte	.LASF125
 10733 2cdb 32080000 		.4byte	.LASF125
 10734 2cdf 06       		.byte	0x6
ARM GAS  C:\Users\Phuong\AppData\Local\Temp\cc4zbCpa.s 			page 215


 10735 2ce0 3F       		.byte	0x3f
 10736 2ce1 2D       		.uleb128 0x2d
 10737 2ce2 82010000 		.4byte	.LASF126
 10738 2ce6 82010000 		.4byte	.LASF126
 10739 2cea 03       		.byte	0x3
 10740 2ceb 9D       		.byte	0x9d
 10741 2cec 2D       		.uleb128 0x2d
 10742 2ced 8E020000 		.4byte	.LASF127
 10743 2cf1 8E020000 		.4byte	.LASF127
 10744 2cf5 08       		.byte	0x8
 10745 2cf6 64       		.byte	0x64
 10746 2cf7 2D       		.uleb128 0x2d
 10747 2cf8 34030000 		.4byte	.LASF128
 10748 2cfc 34030000 		.4byte	.LASF128
 10749 2d00 0A       		.byte	0xa
 10750 2d01 6E       		.byte	0x6e
 10751 2d02 2D       		.uleb128 0x2d
 10752 2d03 730C0000 		.4byte	.LASF129
 10753 2d07 730C0000 		.4byte	.LASF129
 10754 2d0b 0B       		.byte	0xb
 10755 2d0c 1C       		.byte	0x1c
 10756 2d0d 2E       		.uleb128 0x2e
 10757 2d0e B6060000 		.4byte	.LASF146
 10758 2d12 B6060000 		.4byte	.LASF146
 10759 2d16 2D       		.uleb128 0x2d
 10760 2d17 70070000 		.4byte	.LASF130
 10761 2d1b 70070000 		.4byte	.LASF130
 10762 2d1f 04       		.byte	0x4
 10763 2d20 15       		.byte	0x15
 10764 2d21 2D       		.uleb128 0x2d
 10765 2d22 46030000 		.4byte	.LASF131
 10766 2d26 46030000 		.4byte	.LASF131
 10767 2d2a 06       		.byte	0x6
 10768 2d2b 38       		.byte	0x38
 10769 2d2c 2D       		.uleb128 0x2d
 10770 2d2d FD0B0000 		.4byte	.LASF132
 10771 2d31 FD0B0000 		.4byte	.LASF132
 10772 2d35 09       		.byte	0x9
 10773 2d36 14       		.byte	0x14
 10774 2d37 2D       		.uleb128 0x2d
 10775 2d38 F4090000 		.4byte	.LASF133
 10776 2d3c F4090000 		.4byte	.LASF133
 10777 2d40 04       		.byte	0x4
 10778 2d41 24       		.byte	0x24
 10779 2d42 2D       		.uleb128 0x2d
 10780 2d43 B7070000 		.4byte	.LASF134
 10781 2d47 B7070000 		.4byte	.LASF134
 10782 2d4b 06       		.byte	0x6
 10783 2d4c 4A       		.byte	0x4a
 10784 2d4d 2D       		.uleb128 0x2d
 10785 2d4e 24090000 		.4byte	.LASF135
 10786 2d52 24090000 		.4byte	.LASF135
 10787 2d56 09       		.byte	0x9
 10788 2d57 13       		.byte	0x13
 10789 2d58 2D       		.uleb128 0x2d
 10790 2d59 BD060000 		.4byte	.LASF136
 10791 2d5d BD060000 		.4byte	.LASF136
ARM GAS  C:\Users\Phuong\AppData\Local\Temp\cc4zbCpa.s 			page 216


 10792 2d61 04       		.byte	0x4
 10793 2d62 22       		.byte	0x22
 10794 2d63 2D       		.uleb128 0x2d
 10795 2d64 CB010000 		.4byte	.LASF137
 10796 2d68 CB010000 		.4byte	.LASF137
 10797 2d6c 04       		.byte	0x4
 10798 2d6d 23       		.byte	0x23
 10799 2d6e 2D       		.uleb128 0x2d
 10800 2d6f F1020000 		.4byte	.LASF138
 10801 2d73 F1020000 		.4byte	.LASF138
 10802 2d77 09       		.byte	0x9
 10803 2d78 20       		.byte	0x20
 10804 2d79 2D       		.uleb128 0x2d
 10805 2d7a 00000000 		.4byte	.LASF139
 10806 2d7e 00000000 		.4byte	.LASF139
 10807 2d82 06       		.byte	0x6
 10808 2d83 7B       		.byte	0x7b
 10809 2d84 2D       		.uleb128 0x2d
 10810 2d85 6C0A0000 		.4byte	.LASF140
 10811 2d89 6C0A0000 		.4byte	.LASF140
 10812 2d8d 06       		.byte	0x6
 10813 2d8e 95       		.byte	0x95
 10814 2d8f 2D       		.uleb128 0x2d
 10815 2d90 400B0000 		.4byte	.LASF141
 10816 2d94 400B0000 		.4byte	.LASF141
 10817 2d98 06       		.byte	0x6
 10818 2d99 B1       		.byte	0xb1
 10819 2d9a 00       		.byte	0
 10820              		.section	.debug_abbrev,"",%progbits
 10821              	.Ldebug_abbrev0:
 10822 0000 01       		.uleb128 0x1
 10823 0001 11       		.uleb128 0x11
 10824 0002 01       		.byte	0x1
 10825 0003 25       		.uleb128 0x25
 10826 0004 0E       		.uleb128 0xe
 10827 0005 13       		.uleb128 0x13
 10828 0006 0B       		.uleb128 0xb
 10829 0007 03       		.uleb128 0x3
 10830 0008 0E       		.uleb128 0xe
 10831 0009 1B       		.uleb128 0x1b
 10832 000a 0E       		.uleb128 0xe
 10833 000b 55       		.uleb128 0x55
 10834 000c 17       		.uleb128 0x17
 10835 000d 11       		.uleb128 0x11
 10836 000e 01       		.uleb128 0x1
 10837 000f 10       		.uleb128 0x10
 10838 0010 17       		.uleb128 0x17
 10839 0011 00       		.byte	0
 10840 0012 00       		.byte	0
 10841 0013 02       		.uleb128 0x2
 10842 0014 16       		.uleb128 0x16
 10843 0015 00       		.byte	0
 10844 0016 03       		.uleb128 0x3
 10845 0017 0E       		.uleb128 0xe
 10846 0018 3A       		.uleb128 0x3a
 10847 0019 0B       		.uleb128 0xb
 10848 001a 3B       		.uleb128 0x3b
ARM GAS  C:\Users\Phuong\AppData\Local\Temp\cc4zbCpa.s 			page 217


 10849 001b 0B       		.uleb128 0xb
 10850 001c 49       		.uleb128 0x49
 10851 001d 13       		.uleb128 0x13
 10852 001e 00       		.byte	0
 10853 001f 00       		.byte	0
 10854 0020 03       		.uleb128 0x3
 10855 0021 24       		.uleb128 0x24
 10856 0022 00       		.byte	0
 10857 0023 0B       		.uleb128 0xb
 10858 0024 0B       		.uleb128 0xb
 10859 0025 3E       		.uleb128 0x3e
 10860 0026 0B       		.uleb128 0xb
 10861 0027 03       		.uleb128 0x3
 10862 0028 0E       		.uleb128 0xe
 10863 0029 00       		.byte	0
 10864 002a 00       		.byte	0
 10865 002b 04       		.uleb128 0x4
 10866 002c 24       		.uleb128 0x24
 10867 002d 00       		.byte	0
 10868 002e 0B       		.uleb128 0xb
 10869 002f 0B       		.uleb128 0xb
 10870 0030 3E       		.uleb128 0x3e
 10871 0031 0B       		.uleb128 0xb
 10872 0032 03       		.uleb128 0x3
 10873 0033 08       		.uleb128 0x8
 10874 0034 00       		.byte	0
 10875 0035 00       		.byte	0
 10876 0036 05       		.uleb128 0x5
 10877 0037 0F       		.uleb128 0xf
 10878 0038 00       		.byte	0
 10879 0039 0B       		.uleb128 0xb
 10880 003a 0B       		.uleb128 0xb
 10881 003b 49       		.uleb128 0x49
 10882 003c 13       		.uleb128 0x13
 10883 003d 00       		.byte	0
 10884 003e 00       		.byte	0
 10885 003f 06       		.uleb128 0x6
 10886 0040 26       		.uleb128 0x26
 10887 0041 00       		.byte	0
 10888 0042 49       		.uleb128 0x49
 10889 0043 13       		.uleb128 0x13
 10890 0044 00       		.byte	0
 10891 0045 00       		.byte	0
 10892 0046 07       		.uleb128 0x7
 10893 0047 04       		.uleb128 0x4
 10894 0048 01       		.byte	0x1
 10895 0049 03       		.uleb128 0x3
 10896 004a 0E       		.uleb128 0xe
 10897 004b 0B       		.uleb128 0xb
 10898 004c 0B       		.uleb128 0xb
 10899 004d 49       		.uleb128 0x49
 10900 004e 13       		.uleb128 0x13
 10901 004f 3A       		.uleb128 0x3a
 10902 0050 0B       		.uleb128 0xb
 10903 0051 3B       		.uleb128 0x3b
 10904 0052 0B       		.uleb128 0xb
 10905 0053 01       		.uleb128 0x1
ARM GAS  C:\Users\Phuong\AppData\Local\Temp\cc4zbCpa.s 			page 218


 10906 0054 13       		.uleb128 0x13
 10907 0055 00       		.byte	0
 10908 0056 00       		.byte	0
 10909 0057 08       		.uleb128 0x8
 10910 0058 28       		.uleb128 0x28
 10911 0059 00       		.byte	0
 10912 005a 03       		.uleb128 0x3
 10913 005b 0E       		.uleb128 0xe
 10914 005c 1C       		.uleb128 0x1c
 10915 005d 0B       		.uleb128 0xb
 10916 005e 00       		.byte	0
 10917 005f 00       		.byte	0
 10918 0060 09       		.uleb128 0x9
 10919 0061 15       		.uleb128 0x15
 10920 0062 01       		.byte	0x1
 10921 0063 27       		.uleb128 0x27
 10922 0064 19       		.uleb128 0x19
 10923 0065 01       		.uleb128 0x1
 10924 0066 13       		.uleb128 0x13
 10925 0067 00       		.byte	0
 10926 0068 00       		.byte	0
 10927 0069 0A       		.uleb128 0xa
 10928 006a 05       		.uleb128 0x5
 10929 006b 00       		.byte	0
 10930 006c 49       		.uleb128 0x49
 10931 006d 13       		.uleb128 0x13
 10932 006e 00       		.byte	0
 10933 006f 00       		.byte	0
 10934 0070 0B       		.uleb128 0xb
 10935 0071 18       		.uleb128 0x18
 10936 0072 00       		.byte	0
 10937 0073 00       		.byte	0
 10938 0074 00       		.byte	0
 10939 0075 0C       		.uleb128 0xc
 10940 0076 13       		.uleb128 0x13
 10941 0077 00       		.byte	0
 10942 0078 03       		.uleb128 0x3
 10943 0079 0E       		.uleb128 0xe
 10944 007a 3C       		.uleb128 0x3c
 10945 007b 19       		.uleb128 0x19
 10946 007c 00       		.byte	0
 10947 007d 00       		.byte	0
 10948 007e 0D       		.uleb128 0xd
 10949 007f 13       		.uleb128 0x13
 10950 0080 01       		.byte	0x1
 10951 0081 03       		.uleb128 0x3
 10952 0082 0E       		.uleb128 0xe
 10953 0083 0B       		.uleb128 0xb
 10954 0084 0B       		.uleb128 0xb
 10955 0085 3A       		.uleb128 0x3a
 10956 0086 0B       		.uleb128 0xb
 10957 0087 3B       		.uleb128 0x3b
 10958 0088 0B       		.uleb128 0xb
 10959 0089 01       		.uleb128 0x1
 10960 008a 13       		.uleb128 0x13
 10961 008b 00       		.byte	0
 10962 008c 00       		.byte	0
ARM GAS  C:\Users\Phuong\AppData\Local\Temp\cc4zbCpa.s 			page 219


 10963 008d 0E       		.uleb128 0xe
 10964 008e 0D       		.uleb128 0xd
 10965 008f 00       		.byte	0
 10966 0090 03       		.uleb128 0x3
 10967 0091 0E       		.uleb128 0xe
 10968 0092 3A       		.uleb128 0x3a
 10969 0093 0B       		.uleb128 0xb
 10970 0094 3B       		.uleb128 0x3b
 10971 0095 0B       		.uleb128 0xb
 10972 0096 49       		.uleb128 0x49
 10973 0097 13       		.uleb128 0x13
 10974 0098 38       		.uleb128 0x38
 10975 0099 0B       		.uleb128 0xb
 10976 009a 00       		.byte	0
 10977 009b 00       		.byte	0
 10978 009c 0F       		.uleb128 0xf
 10979 009d 17       		.uleb128 0x17
 10980 009e 01       		.byte	0x1
 10981 009f 0B       		.uleb128 0xb
 10982 00a0 0B       		.uleb128 0xb
 10983 00a1 3A       		.uleb128 0x3a
 10984 00a2 0B       		.uleb128 0xb
 10985 00a3 3B       		.uleb128 0x3b
 10986 00a4 0B       		.uleb128 0xb
 10987 00a5 01       		.uleb128 0x1
 10988 00a6 13       		.uleb128 0x13
 10989 00a7 00       		.byte	0
 10990 00a8 00       		.byte	0
 10991 00a9 10       		.uleb128 0x10
 10992 00aa 0D       		.uleb128 0xd
 10993 00ab 00       		.byte	0
 10994 00ac 03       		.uleb128 0x3
 10995 00ad 0E       		.uleb128 0xe
 10996 00ae 3A       		.uleb128 0x3a
 10997 00af 0B       		.uleb128 0xb
 10998 00b0 3B       		.uleb128 0x3b
 10999 00b1 0B       		.uleb128 0xb
 11000 00b2 49       		.uleb128 0x49
 11001 00b3 13       		.uleb128 0x13
 11002 00b4 00       		.byte	0
 11003 00b5 00       		.byte	0
 11004 00b6 11       		.uleb128 0x11
 11005 00b7 2E       		.uleb128 0x2e
 11006 00b8 01       		.byte	0x1
 11007 00b9 03       		.uleb128 0x3
 11008 00ba 0E       		.uleb128 0xe
 11009 00bb 3A       		.uleb128 0x3a
 11010 00bc 0B       		.uleb128 0xb
 11011 00bd 3B       		.uleb128 0x3b
 11012 00be 0B       		.uleb128 0xb
 11013 00bf 27       		.uleb128 0x27
 11014 00c0 19       		.uleb128 0x19
 11015 00c1 49       		.uleb128 0x49
 11016 00c2 13       		.uleb128 0x13
 11017 00c3 11       		.uleb128 0x11
 11018 00c4 01       		.uleb128 0x1
 11019 00c5 12       		.uleb128 0x12
ARM GAS  C:\Users\Phuong\AppData\Local\Temp\cc4zbCpa.s 			page 220


 11020 00c6 06       		.uleb128 0x6
 11021 00c7 40       		.uleb128 0x40
 11022 00c8 18       		.uleb128 0x18
 11023 00c9 9742     		.uleb128 0x2117
 11024 00cb 19       		.uleb128 0x19
 11025 00cc 01       		.uleb128 0x1
 11026 00cd 13       		.uleb128 0x13
 11027 00ce 00       		.byte	0
 11028 00cf 00       		.byte	0
 11029 00d0 12       		.uleb128 0x12
 11030 00d1 05       		.uleb128 0x5
 11031 00d2 00       		.byte	0
 11032 00d3 03       		.uleb128 0x3
 11033 00d4 0E       		.uleb128 0xe
 11034 00d5 3A       		.uleb128 0x3a
 11035 00d6 0B       		.uleb128 0xb
 11036 00d7 3B       		.uleb128 0x3b
 11037 00d8 0B       		.uleb128 0xb
 11038 00d9 49       		.uleb128 0x49
 11039 00da 13       		.uleb128 0x13
 11040 00db 02       		.uleb128 0x2
 11041 00dc 17       		.uleb128 0x17
 11042 00dd 00       		.byte	0
 11043 00de 00       		.byte	0
 11044 00df 13       		.uleb128 0x13
 11045 00e0 34       		.uleb128 0x34
 11046 00e1 00       		.byte	0
 11047 00e2 03       		.uleb128 0x3
 11048 00e3 0E       		.uleb128 0xe
 11049 00e4 3A       		.uleb128 0x3a
 11050 00e5 0B       		.uleb128 0xb
 11051 00e6 3B       		.uleb128 0x3b
 11052 00e7 0B       		.uleb128 0xb
 11053 00e8 49       		.uleb128 0x49
 11054 00e9 13       		.uleb128 0x13
 11055 00ea 02       		.uleb128 0x2
 11056 00eb 17       		.uleb128 0x17
 11057 00ec 00       		.byte	0
 11058 00ed 00       		.byte	0
 11059 00ee 14       		.uleb128 0x14
 11060 00ef 34       		.uleb128 0x34
 11061 00f0 00       		.byte	0
 11062 00f1 03       		.uleb128 0x3
 11063 00f2 0E       		.uleb128 0xe
 11064 00f3 3A       		.uleb128 0x3a
 11065 00f4 0B       		.uleb128 0xb
 11066 00f5 3B       		.uleb128 0x3b
 11067 00f6 0B       		.uleb128 0xb
 11068 00f7 49       		.uleb128 0x49
 11069 00f8 13       		.uleb128 0x13
 11070 00f9 02       		.uleb128 0x2
 11071 00fa 18       		.uleb128 0x18
 11072 00fb 00       		.byte	0
 11073 00fc 00       		.byte	0
 11074 00fd 15       		.uleb128 0x15
 11075 00fe 898201   		.uleb128 0x4109
 11076 0101 01       		.byte	0x1
ARM GAS  C:\Users\Phuong\AppData\Local\Temp\cc4zbCpa.s 			page 221


 11077 0102 11       		.uleb128 0x11
 11078 0103 01       		.uleb128 0x1
 11079 0104 31       		.uleb128 0x31
 11080 0105 13       		.uleb128 0x13
 11081 0106 01       		.uleb128 0x1
 11082 0107 13       		.uleb128 0x13
 11083 0108 00       		.byte	0
 11084 0109 00       		.byte	0
 11085 010a 16       		.uleb128 0x16
 11086 010b 8A8201   		.uleb128 0x410a
 11087 010e 00       		.byte	0
 11088 010f 02       		.uleb128 0x2
 11089 0110 18       		.uleb128 0x18
 11090 0111 9142     		.uleb128 0x2111
 11091 0113 18       		.uleb128 0x18
 11092 0114 00       		.byte	0
 11093 0115 00       		.byte	0
 11094 0116 17       		.uleb128 0x17
 11095 0117 898201   		.uleb128 0x4109
 11096 011a 01       		.byte	0x1
 11097 011b 11       		.uleb128 0x11
 11098 011c 01       		.uleb128 0x1
 11099 011d 31       		.uleb128 0x31
 11100 011e 13       		.uleb128 0x13
 11101 011f 00       		.byte	0
 11102 0120 00       		.byte	0
 11103 0121 18       		.uleb128 0x18
 11104 0122 2E       		.uleb128 0x2e
 11105 0123 01       		.byte	0x1
 11106 0124 03       		.uleb128 0x3
 11107 0125 0E       		.uleb128 0xe
 11108 0126 3A       		.uleb128 0x3a
 11109 0127 0B       		.uleb128 0xb
 11110 0128 3B       		.uleb128 0x3b
 11111 0129 0B       		.uleb128 0xb
 11112 012a 27       		.uleb128 0x27
 11113 012b 19       		.uleb128 0x19
 11114 012c 11       		.uleb128 0x11
 11115 012d 01       		.uleb128 0x1
 11116 012e 12       		.uleb128 0x12
 11117 012f 06       		.uleb128 0x6
 11118 0130 40       		.uleb128 0x40
 11119 0131 18       		.uleb128 0x18
 11120 0132 9742     		.uleb128 0x2117
 11121 0134 19       		.uleb128 0x19
 11122 0135 01       		.uleb128 0x1
 11123 0136 13       		.uleb128 0x13
 11124 0137 00       		.byte	0
 11125 0138 00       		.byte	0
 11126 0139 19       		.uleb128 0x19
 11127 013a 898201   		.uleb128 0x4109
 11128 013d 00       		.byte	0
 11129 013e 11       		.uleb128 0x11
 11130 013f 01       		.uleb128 0x1
 11131 0140 31       		.uleb128 0x31
 11132 0141 13       		.uleb128 0x13
 11133 0142 00       		.byte	0
ARM GAS  C:\Users\Phuong\AppData\Local\Temp\cc4zbCpa.s 			page 222


 11134 0143 00       		.byte	0
 11135 0144 1A       		.uleb128 0x1a
 11136 0145 34       		.uleb128 0x34
 11137 0146 00       		.byte	0
 11138 0147 03       		.uleb128 0x3
 11139 0148 0E       		.uleb128 0xe
 11140 0149 49       		.uleb128 0x49
 11141 014a 13       		.uleb128 0x13
 11142 014b 34       		.uleb128 0x34
 11143 014c 19       		.uleb128 0x19
 11144 014d 02       		.uleb128 0x2
 11145 014e 18       		.uleb128 0x18
 11146 014f 00       		.byte	0
 11147 0150 00       		.byte	0
 11148 0151 1B       		.uleb128 0x1b
 11149 0152 0B       		.uleb128 0xb
 11150 0153 01       		.byte	0x1
 11151 0154 11       		.uleb128 0x11
 11152 0155 01       		.uleb128 0x1
 11153 0156 12       		.uleb128 0x12
 11154 0157 06       		.uleb128 0x6
 11155 0158 01       		.uleb128 0x1
 11156 0159 13       		.uleb128 0x13
 11157 015a 00       		.byte	0
 11158 015b 00       		.byte	0
 11159 015c 1C       		.uleb128 0x1c
 11160 015d 34       		.uleb128 0x34
 11161 015e 00       		.byte	0
 11162 015f 03       		.uleb128 0x3
 11163 0160 08       		.uleb128 0x8
 11164 0161 3A       		.uleb128 0x3a
 11165 0162 0B       		.uleb128 0xb
 11166 0163 3B       		.uleb128 0x3b
 11167 0164 0B       		.uleb128 0xb
 11168 0165 49       		.uleb128 0x49
 11169 0166 13       		.uleb128 0x13
 11170 0167 02       		.uleb128 0x2
 11171 0168 17       		.uleb128 0x17
 11172 0169 00       		.byte	0
 11173 016a 00       		.byte	0
 11174 016b 1D       		.uleb128 0x1d
 11175 016c 898201   		.uleb128 0x4109
 11176 016f 01       		.byte	0x1
 11177 0170 11       		.uleb128 0x11
 11178 0171 01       		.uleb128 0x1
 11179 0172 9342     		.uleb128 0x2113
 11180 0174 18       		.uleb128 0x18
 11181 0175 00       		.byte	0
 11182 0176 00       		.byte	0
 11183 0177 1E       		.uleb128 0x1e
 11184 0178 01       		.uleb128 0x1
 11185 0179 01       		.byte	0x1
 11186 017a 49       		.uleb128 0x49
 11187 017b 13       		.uleb128 0x13
 11188 017c 01       		.uleb128 0x1
 11189 017d 13       		.uleb128 0x13
 11190 017e 00       		.byte	0
ARM GAS  C:\Users\Phuong\AppData\Local\Temp\cc4zbCpa.s 			page 223


 11191 017f 00       		.byte	0
 11192 0180 1F       		.uleb128 0x1f
 11193 0181 21       		.uleb128 0x21
 11194 0182 00       		.byte	0
 11195 0183 49       		.uleb128 0x49
 11196 0184 13       		.uleb128 0x13
 11197 0185 2F       		.uleb128 0x2f
 11198 0186 0B       		.uleb128 0xb
 11199 0187 00       		.byte	0
 11200 0188 00       		.byte	0
 11201 0189 20       		.uleb128 0x20
 11202 018a 2E       		.uleb128 0x2e
 11203 018b 01       		.byte	0x1
 11204 018c 3F       		.uleb128 0x3f
 11205 018d 19       		.uleb128 0x19
 11206 018e 03       		.uleb128 0x3
 11207 018f 0E       		.uleb128 0xe
 11208 0190 3A       		.uleb128 0x3a
 11209 0191 0B       		.uleb128 0xb
 11210 0192 3B       		.uleb128 0x3b
 11211 0193 0B       		.uleb128 0xb
 11212 0194 27       		.uleb128 0x27
 11213 0195 19       		.uleb128 0x19
 11214 0196 49       		.uleb128 0x49
 11215 0197 13       		.uleb128 0x13
 11216 0198 11       		.uleb128 0x11
 11217 0199 01       		.uleb128 0x1
 11218 019a 12       		.uleb128 0x12
 11219 019b 06       		.uleb128 0x6
 11220 019c 40       		.uleb128 0x40
 11221 019d 18       		.uleb128 0x18
 11222 019e 9742     		.uleb128 0x2117
 11223 01a0 19       		.uleb128 0x19
 11224 01a1 01       		.uleb128 0x1
 11225 01a2 13       		.uleb128 0x13
 11226 01a3 00       		.byte	0
 11227 01a4 00       		.byte	0
 11228 01a5 21       		.uleb128 0x21
 11229 01a6 0B       		.uleb128 0xb
 11230 01a7 01       		.byte	0x1
 11231 01a8 11       		.uleb128 0x11
 11232 01a9 01       		.uleb128 0x1
 11233 01aa 12       		.uleb128 0x12
 11234 01ab 06       		.uleb128 0x6
 11235 01ac 00       		.byte	0
 11236 01ad 00       		.byte	0
 11237 01ae 22       		.uleb128 0x22
 11238 01af 2E       		.uleb128 0x2e
 11239 01b0 01       		.byte	0x1
 11240 01b1 3F       		.uleb128 0x3f
 11241 01b2 19       		.uleb128 0x19
 11242 01b3 03       		.uleb128 0x3
 11243 01b4 0E       		.uleb128 0xe
 11244 01b5 3A       		.uleb128 0x3a
 11245 01b6 0B       		.uleb128 0xb
 11246 01b7 3B       		.uleb128 0x3b
 11247 01b8 05       		.uleb128 0x5
ARM GAS  C:\Users\Phuong\AppData\Local\Temp\cc4zbCpa.s 			page 224


 11248 01b9 27       		.uleb128 0x27
 11249 01ba 19       		.uleb128 0x19
 11250 01bb 49       		.uleb128 0x49
 11251 01bc 13       		.uleb128 0x13
 11252 01bd 11       		.uleb128 0x11
 11253 01be 01       		.uleb128 0x1
 11254 01bf 12       		.uleb128 0x12
 11255 01c0 06       		.uleb128 0x6
 11256 01c1 40       		.uleb128 0x40
 11257 01c2 18       		.uleb128 0x18
 11258 01c3 9742     		.uleb128 0x2117
 11259 01c5 19       		.uleb128 0x19
 11260 01c6 01       		.uleb128 0x1
 11261 01c7 13       		.uleb128 0x13
 11262 01c8 00       		.byte	0
 11263 01c9 00       		.byte	0
 11264 01ca 23       		.uleb128 0x23
 11265 01cb 05       		.uleb128 0x5
 11266 01cc 00       		.byte	0
 11267 01cd 03       		.uleb128 0x3
 11268 01ce 0E       		.uleb128 0xe
 11269 01cf 3A       		.uleb128 0x3a
 11270 01d0 0B       		.uleb128 0xb
 11271 01d1 3B       		.uleb128 0x3b
 11272 01d2 05       		.uleb128 0x5
 11273 01d3 49       		.uleb128 0x49
 11274 01d4 13       		.uleb128 0x13
 11275 01d5 02       		.uleb128 0x2
 11276 01d6 17       		.uleb128 0x17
 11277 01d7 00       		.byte	0
 11278 01d8 00       		.byte	0
 11279 01d9 24       		.uleb128 0x24
 11280 01da 34       		.uleb128 0x34
 11281 01db 00       		.byte	0
 11282 01dc 03       		.uleb128 0x3
 11283 01dd 0E       		.uleb128 0xe
 11284 01de 3A       		.uleb128 0x3a
 11285 01df 0B       		.uleb128 0xb
 11286 01e0 3B       		.uleb128 0x3b
 11287 01e1 05       		.uleb128 0x5
 11288 01e2 49       		.uleb128 0x49
 11289 01e3 13       		.uleb128 0x13
 11290 01e4 02       		.uleb128 0x2
 11291 01e5 17       		.uleb128 0x17
 11292 01e6 00       		.byte	0
 11293 01e7 00       		.byte	0
 11294 01e8 25       		.uleb128 0x25
 11295 01e9 34       		.uleb128 0x34
 11296 01ea 00       		.byte	0
 11297 01eb 03       		.uleb128 0x3
 11298 01ec 08       		.uleb128 0x8
 11299 01ed 3A       		.uleb128 0x3a
 11300 01ee 0B       		.uleb128 0xb
 11301 01ef 3B       		.uleb128 0x3b
 11302 01f0 05       		.uleb128 0x5
 11303 01f1 49       		.uleb128 0x49
 11304 01f2 13       		.uleb128 0x13
ARM GAS  C:\Users\Phuong\AppData\Local\Temp\cc4zbCpa.s 			page 225


 11305 01f3 02       		.uleb128 0x2
 11306 01f4 17       		.uleb128 0x17
 11307 01f5 00       		.byte	0
 11308 01f6 00       		.byte	0
 11309 01f7 26       		.uleb128 0x26
 11310 01f8 0B       		.uleb128 0xb
 11311 01f9 01       		.byte	0x1
 11312 01fa 55       		.uleb128 0x55
 11313 01fb 17       		.uleb128 0x17
 11314 01fc 00       		.byte	0
 11315 01fd 00       		.byte	0
 11316 01fe 27       		.uleb128 0x27
 11317 01ff 05       		.uleb128 0x5
 11318 0200 00       		.byte	0
 11319 0201 03       		.uleb128 0x3
 11320 0202 08       		.uleb128 0x8
 11321 0203 3A       		.uleb128 0x3a
 11322 0204 0B       		.uleb128 0xb
 11323 0205 3B       		.uleb128 0x3b
 11324 0206 05       		.uleb128 0x5
 11325 0207 49       		.uleb128 0x49
 11326 0208 13       		.uleb128 0x13
 11327 0209 02       		.uleb128 0x2
 11328 020a 17       		.uleb128 0x17
 11329 020b 00       		.byte	0
 11330 020c 00       		.byte	0
 11331 020d 28       		.uleb128 0x28
 11332 020e 34       		.uleb128 0x34
 11333 020f 00       		.byte	0
 11334 0210 03       		.uleb128 0x3
 11335 0211 0E       		.uleb128 0xe
 11336 0212 3A       		.uleb128 0x3a
 11337 0213 0B       		.uleb128 0xb
 11338 0214 3B       		.uleb128 0x3b
 11339 0215 05       		.uleb128 0x5
 11340 0216 49       		.uleb128 0x49
 11341 0217 13       		.uleb128 0x13
 11342 0218 02       		.uleb128 0x2
 11343 0219 18       		.uleb128 0x18
 11344 021a 00       		.byte	0
 11345 021b 00       		.byte	0
 11346 021c 29       		.uleb128 0x29
 11347 021d 898201   		.uleb128 0x4109
 11348 0220 01       		.byte	0x1
 11349 0221 11       		.uleb128 0x11
 11350 0222 01       		.uleb128 0x1
 11351 0223 00       		.byte	0
 11352 0224 00       		.byte	0
 11353 0225 2A       		.uleb128 0x2a
 11354 0226 2E       		.uleb128 0x2e
 11355 0227 01       		.byte	0x1
 11356 0228 3F       		.uleb128 0x3f
 11357 0229 19       		.uleb128 0x19
 11358 022a 03       		.uleb128 0x3
 11359 022b 0E       		.uleb128 0xe
 11360 022c 3A       		.uleb128 0x3a
 11361 022d 0B       		.uleb128 0xb
ARM GAS  C:\Users\Phuong\AppData\Local\Temp\cc4zbCpa.s 			page 226


 11362 022e 3B       		.uleb128 0x3b
 11363 022f 05       		.uleb128 0x5
 11364 0230 27       		.uleb128 0x27
 11365 0231 19       		.uleb128 0x19
 11366 0232 11       		.uleb128 0x11
 11367 0233 01       		.uleb128 0x1
 11368 0234 12       		.uleb128 0x12
 11369 0235 06       		.uleb128 0x6
 11370 0236 40       		.uleb128 0x40
 11371 0237 18       		.uleb128 0x18
 11372 0238 9742     		.uleb128 0x2117
 11373 023a 19       		.uleb128 0x19
 11374 023b 01       		.uleb128 0x1
 11375 023c 13       		.uleb128 0x13
 11376 023d 00       		.byte	0
 11377 023e 00       		.byte	0
 11378 023f 2B       		.uleb128 0x2b
 11379 0240 34       		.uleb128 0x34
 11380 0241 00       		.byte	0
 11381 0242 03       		.uleb128 0x3
 11382 0243 0E       		.uleb128 0xe
 11383 0244 3A       		.uleb128 0x3a
 11384 0245 0B       		.uleb128 0xb
 11385 0246 3B       		.uleb128 0x3b
 11386 0247 0B       		.uleb128 0xb
 11387 0248 49       		.uleb128 0x49
 11388 0249 13       		.uleb128 0x13
 11389 024a 00       		.byte	0
 11390 024b 00       		.byte	0
 11391 024c 2C       		.uleb128 0x2c
 11392 024d 34       		.uleb128 0x34
 11393 024e 00       		.byte	0
 11394 024f 03       		.uleb128 0x3
 11395 0250 0E       		.uleb128 0xe
 11396 0251 3A       		.uleb128 0x3a
 11397 0252 0B       		.uleb128 0xb
 11398 0253 3B       		.uleb128 0x3b
 11399 0254 0B       		.uleb128 0xb
 11400 0255 49       		.uleb128 0x49
 11401 0256 13       		.uleb128 0x13
 11402 0257 3F       		.uleb128 0x3f
 11403 0258 19       		.uleb128 0x19
 11404 0259 02       		.uleb128 0x2
 11405 025a 18       		.uleb128 0x18
 11406 025b 00       		.byte	0
 11407 025c 00       		.byte	0
 11408 025d 2D       		.uleb128 0x2d
 11409 025e 2E       		.uleb128 0x2e
 11410 025f 00       		.byte	0
 11411 0260 3F       		.uleb128 0x3f
 11412 0261 19       		.uleb128 0x19
 11413 0262 3C       		.uleb128 0x3c
 11414 0263 19       		.uleb128 0x19
 11415 0264 6E       		.uleb128 0x6e
 11416 0265 0E       		.uleb128 0xe
 11417 0266 03       		.uleb128 0x3
 11418 0267 0E       		.uleb128 0xe
ARM GAS  C:\Users\Phuong\AppData\Local\Temp\cc4zbCpa.s 			page 227


 11419 0268 3A       		.uleb128 0x3a
 11420 0269 0B       		.uleb128 0xb
 11421 026a 3B       		.uleb128 0x3b
 11422 026b 0B       		.uleb128 0xb
 11423 026c 00       		.byte	0
 11424 026d 00       		.byte	0
 11425 026e 2E       		.uleb128 0x2e
 11426 026f 2E       		.uleb128 0x2e
 11427 0270 00       		.byte	0
 11428 0271 3F       		.uleb128 0x3f
 11429 0272 19       		.uleb128 0x19
 11430 0273 3C       		.uleb128 0x3c
 11431 0274 19       		.uleb128 0x19
 11432 0275 6E       		.uleb128 0x6e
 11433 0276 0E       		.uleb128 0xe
 11434 0277 03       		.uleb128 0x3
 11435 0278 0E       		.uleb128 0xe
 11436 0279 00       		.byte	0
 11437 027a 00       		.byte	0
 11438 027b 00       		.byte	0
 11439              		.section	.debug_loc,"",%progbits
 11440              	.Ldebug_loc0:
 11441              	.LLST0:
 11442 0000 00000000 		.4byte	.LVL0
 11443 0004 02000000 		.4byte	.LVL1
 11444 0008 0100     		.2byte	0x1
 11445 000a 50       		.byte	0x50
 11446 000b 02000000 		.4byte	.LVL1
 11447 000f 22000000 		.4byte	.LFE5
 11448 0013 0400     		.2byte	0x4
 11449 0015 F3       		.byte	0xf3
 11450 0016 01       		.uleb128 0x1
 11451 0017 50       		.byte	0x50
 11452 0018 9F       		.byte	0x9f
 11453 0019 00000000 		.4byte	0
 11454 001d 00000000 		.4byte	0
 11455              	.LLST1:
 11456 0021 00000000 		.4byte	.LVL0
 11457 0025 20000000 		.4byte	.LVL7
 11458 0029 0200     		.2byte	0x2
 11459 002b 31       		.byte	0x31
 11460 002c 9F       		.byte	0x9f
 11461 002d 20000000 		.4byte	.LVL7
 11462 0031 22000000 		.4byte	.LFE5
 11463 0035 0100     		.2byte	0x1
 11464 0037 50       		.byte	0x50
 11465 0038 00000000 		.4byte	0
 11466 003c 00000000 		.4byte	0
 11467              	.LLST2:
 11468 0040 00000000 		.4byte	.LVL0
 11469 0044 18000000 		.4byte	.LVL3
 11470 0048 0100     		.2byte	0x1
 11471 004a 50       		.byte	0x50
 11472 004b 1A000000 		.4byte	.LVL4
 11473 004f 1C000000 		.4byte	.LVL5
 11474 0053 0100     		.2byte	0x1
 11475 0055 50       		.byte	0x50
ARM GAS  C:\Users\Phuong\AppData\Local\Temp\cc4zbCpa.s 			page 228


 11476 0056 1E000000 		.4byte	.LVL6
 11477 005a 20000000 		.4byte	.LVL7
 11478 005e 0100     		.2byte	0x1
 11479 0060 50       		.byte	0x50
 11480 0061 00000000 		.4byte	0
 11481 0065 00000000 		.4byte	0
 11482              	.LLST3:
 11483 0069 00000000 		.4byte	.LVL8
 11484 006d 07000000 		.4byte	.LVL9-1
 11485 0071 0100     		.2byte	0x1
 11486 0073 50       		.byte	0x50
 11487 0074 07000000 		.4byte	.LVL9-1
 11488 0078 22000000 		.4byte	.LFE6
 11489 007c 0400     		.2byte	0x4
 11490 007e F3       		.byte	0xf3
 11491 007f 01       		.uleb128 0x1
 11492 0080 50       		.byte	0x50
 11493 0081 9F       		.byte	0x9f
 11494 0082 00000000 		.4byte	0
 11495 0086 00000000 		.4byte	0
 11496              	.LLST4:
 11497 008a 00000000 		.4byte	.LVL8
 11498 008e 07000000 		.4byte	.LVL9-1
 11499 0092 0100     		.2byte	0x1
 11500 0094 51       		.byte	0x51
 11501 0095 07000000 		.4byte	.LVL9-1
 11502 0099 20000000 		.4byte	.LVL12
 11503 009d 0100     		.2byte	0x1
 11504 009f 54       		.byte	0x54
 11505 00a0 20000000 		.4byte	.LVL12
 11506 00a4 22000000 		.4byte	.LFE6
 11507 00a8 0400     		.2byte	0x4
 11508 00aa F3       		.byte	0xf3
 11509 00ab 01       		.uleb128 0x1
 11510 00ac 51       		.byte	0x51
 11511 00ad 9F       		.byte	0x9f
 11512 00ae 00000000 		.4byte	0
 11513 00b2 00000000 		.4byte	0
 11514              	.LLST5:
 11515 00b6 00000000 		.4byte	.LVL13
 11516 00ba 08000000 		.4byte	.LVL14
 11517 00be 0100     		.2byte	0x1
 11518 00c0 50       		.byte	0x50
 11519 00c1 08000000 		.4byte	.LVL14
 11520 00c5 18000000 		.4byte	.LVL18
 11521 00c9 0100     		.2byte	0x1
 11522 00cb 54       		.byte	0x54
 11523 00cc 18000000 		.4byte	.LVL18
 11524 00d0 1A000000 		.4byte	.LFE7
 11525 00d4 0400     		.2byte	0x4
 11526 00d6 F3       		.byte	0xf3
 11527 00d7 01       		.uleb128 0x1
 11528 00d8 50       		.byte	0x50
 11529 00d9 9F       		.byte	0x9f
 11530 00da 00000000 		.4byte	0
 11531 00de 00000000 		.4byte	0
 11532              	.LLST6:
ARM GAS  C:\Users\Phuong\AppData\Local\Temp\cc4zbCpa.s 			page 229


 11533 00e2 00000000 		.4byte	.LVL19
 11534 00e6 0C000000 		.4byte	.LVL20
 11535 00ea 0100     		.2byte	0x1
 11536 00ec 50       		.byte	0x50
 11537 00ed 0C000000 		.4byte	.LVL20
 11538 00f1 12000000 		.4byte	.LVL22
 11539 00f5 0100     		.2byte	0x1
 11540 00f7 54       		.byte	0x54
 11541 00f8 12000000 		.4byte	.LVL22
 11542 00fc 18000000 		.4byte	.LVL23
 11543 0100 0100     		.2byte	0x1
 11544 0102 50       		.byte	0x50
 11545 0103 18000000 		.4byte	.LVL23
 11546 0107 64000000 		.4byte	.LVL36
 11547 010b 0100     		.2byte	0x1
 11548 010d 54       		.byte	0x54
 11549 010e 64000000 		.4byte	.LVL36
 11550 0112 66000000 		.4byte	.LFE8
 11551 0116 0400     		.2byte	0x4
 11552 0118 F3       		.byte	0xf3
 11553 0119 01       		.uleb128 0x1
 11554 011a 50       		.byte	0x50
 11555 011b 9F       		.byte	0x9f
 11556 011c 00000000 		.4byte	0
 11557 0120 00000000 		.4byte	0
 11558              	.LLST7:
 11559 0124 00000000 		.4byte	.LVL37
 11560 0128 0B000000 		.4byte	.LVL39-1
 11561 012c 0100     		.2byte	0x1
 11562 012e 50       		.byte	0x50
 11563 012f 0B000000 		.4byte	.LVL39-1
 11564 0133 26000000 		.4byte	.LVL44
 11565 0137 0100     		.2byte	0x1
 11566 0139 55       		.byte	0x55
 11567 013a 26000000 		.4byte	.LVL44
 11568 013e 28000000 		.4byte	.LVL45
 11569 0142 0100     		.2byte	0x1
 11570 0144 50       		.byte	0x50
 11571 0145 28000000 		.4byte	.LVL45
 11572 0149 36000000 		.4byte	.LVL49
 11573 014d 0100     		.2byte	0x1
 11574 014f 55       		.byte	0x55
 11575 0150 36000000 		.4byte	.LVL49
 11576 0154 4C000000 		.4byte	.LVL52
 11577 0158 0400     		.2byte	0x4
 11578 015a F3       		.byte	0xf3
 11579 015b 01       		.uleb128 0x1
 11580 015c 50       		.byte	0x50
 11581 015d 9F       		.byte	0x9f
 11582 015e 4C000000 		.4byte	.LVL52
 11583 0162 68000000 		.4byte	.LVL56
 11584 0166 0100     		.2byte	0x1
 11585 0168 55       		.byte	0x55
 11586 0169 68000000 		.4byte	.LVL56
 11587 016d 86000000 		.4byte	.LVL60
 11588 0171 0400     		.2byte	0x4
 11589 0173 F3       		.byte	0xf3
ARM GAS  C:\Users\Phuong\AppData\Local\Temp\cc4zbCpa.s 			page 230


 11590 0174 01       		.uleb128 0x1
 11591 0175 50       		.byte	0x50
 11592 0176 9F       		.byte	0x9f
 11593 0177 86000000 		.4byte	.LVL60
 11594 017b 9C000000 		.4byte	.LVL63
 11595 017f 0100     		.2byte	0x1
 11596 0181 55       		.byte	0x55
 11597 0182 9C000000 		.4byte	.LVL63
 11598 0186 C0000000 		.4byte	.LVL68
 11599 018a 0400     		.2byte	0x4
 11600 018c F3       		.byte	0xf3
 11601 018d 01       		.uleb128 0x1
 11602 018e 50       		.byte	0x50
 11603 018f 9F       		.byte	0x9f
 11604 0190 C0000000 		.4byte	.LVL68
 11605 0194 C2000000 		.4byte	.LVL69
 11606 0198 0100     		.2byte	0x1
 11607 019a 55       		.byte	0x55
 11608 019b C2000000 		.4byte	.LVL69
 11609 019f E0000000 		.4byte	.LFE9
 11610 01a3 0400     		.2byte	0x4
 11611 01a5 F3       		.byte	0xf3
 11612 01a6 01       		.uleb128 0x1
 11613 01a7 50       		.byte	0x50
 11614 01a8 9F       		.byte	0x9f
 11615 01a9 00000000 		.4byte	0
 11616 01ad 00000000 		.4byte	0
 11617              	.LLST8:
 11618 01b1 06000000 		.4byte	.LVL38
 11619 01b5 2E000000 		.4byte	.LVL47
 11620 01b9 0200     		.2byte	0x2
 11621 01bb 30       		.byte	0x30
 11622 01bc 9F       		.byte	0x9f
 11623 01bd 2E000000 		.4byte	.LVL47
 11624 01c1 33000000 		.4byte	.LVL48-1
 11625 01c5 0100     		.2byte	0x1
 11626 01c7 50       		.byte	0x50
 11627 01c8 33000000 		.4byte	.LVL48-1
 11628 01cc 4C000000 		.4byte	.LVL52
 11629 01d0 0100     		.2byte	0x1
 11630 01d2 54       		.byte	0x54
 11631 01d3 4C000000 		.4byte	.LVL52
 11632 01d7 5A000000 		.4byte	.LVL53
 11633 01db 0100     		.2byte	0x1
 11634 01dd 50       		.byte	0x50
 11635 01de 5A000000 		.4byte	.LVL53
 11636 01e2 82000000 		.4byte	.LVL59
 11637 01e6 0100     		.2byte	0x1
 11638 01e8 54       		.byte	0x54
 11639 01e9 82000000 		.4byte	.LVL59
 11640 01ed 86000000 		.4byte	.LVL60
 11641 01f1 0200     		.2byte	0x2
 11642 01f3 30       		.byte	0x30
 11643 01f4 9F       		.byte	0x9f
 11644 01f5 86000000 		.4byte	.LVL60
 11645 01f9 BC000000 		.4byte	.LVL67
 11646 01fd 0100     		.2byte	0x1
ARM GAS  C:\Users\Phuong\AppData\Local\Temp\cc4zbCpa.s 			page 231


 11647 01ff 54       		.byte	0x54
 11648 0200 BC000000 		.4byte	.LVL67
 11649 0204 C2000000 		.4byte	.LVL69
 11650 0208 0200     		.2byte	0x2
 11651 020a 30       		.byte	0x30
 11652 020b 9F       		.byte	0x9f
 11653 020c C2000000 		.4byte	.LVL69
 11654 0210 C6000000 		.4byte	.LVL70
 11655 0214 0100     		.2byte	0x1
 11656 0216 54       		.byte	0x54
 11657 0217 C6000000 		.4byte	.LVL70
 11658 021b E0000000 		.4byte	.LFE9
 11659 021f 0100     		.2byte	0x1
 11660 0221 50       		.byte	0x50
 11661 0222 00000000 		.4byte	0
 11662 0226 00000000 		.4byte	0
 11663              	.LLST9:
 11664 022a 0E000000 		.4byte	.LVL40
 11665 022e 20000000 		.4byte	.LVL41
 11666 0232 0100     		.2byte	0x1
 11667 0234 50       		.byte	0x50
 11668 0235 20000000 		.4byte	.LVL41
 11669 0239 24000000 		.4byte	.LVL43
 11670 023d 0100     		.2byte	0x1
 11671 023f 54       		.byte	0x54
 11672 0240 C0000000 		.4byte	.LVL68
 11673 0244 C2000000 		.4byte	.LVL69
 11674 0248 0100     		.2byte	0x1
 11675 024a 50       		.byte	0x50
 11676 024b 00000000 		.4byte	0
 11677 024f 00000000 		.4byte	0
 11678              	.LLST10:
 11679 0253 36000000 		.4byte	.LVL49
 11680 0257 48000000 		.4byte	.LVL50
 11681 025b 0100     		.2byte	0x1
 11682 025d 50       		.byte	0x50
 11683 025e 48000000 		.4byte	.LVL50
 11684 0262 4C000000 		.4byte	.LVL52
 11685 0266 0100     		.2byte	0x1
 11686 0268 55       		.byte	0x55
 11687 0269 00000000 		.4byte	0
 11688 026d 00000000 		.4byte	0
 11689              	.LLST11:
 11690 0271 68000000 		.4byte	.LVL56
 11691 0275 7A000000 		.4byte	.LVL57
 11692 0279 0100     		.2byte	0x1
 11693 027b 50       		.byte	0x50
 11694 027c 7A000000 		.4byte	.LVL57
 11695 0280 86000000 		.4byte	.LVL60
 11696 0284 0100     		.2byte	0x1
 11697 0286 55       		.byte	0x55
 11698 0287 00000000 		.4byte	0
 11699 028b 00000000 		.4byte	0
 11700              	.LLST12:
 11701 028f 9C000000 		.4byte	.LVL63
 11702 0293 AE000000 		.4byte	.LVL64
 11703 0297 0100     		.2byte	0x1
ARM GAS  C:\Users\Phuong\AppData\Local\Temp\cc4zbCpa.s 			page 232


 11704 0299 50       		.byte	0x50
 11705 029a AE000000 		.4byte	.LVL64
 11706 029e C0000000 		.4byte	.LVL68
 11707 02a2 0100     		.2byte	0x1
 11708 02a4 55       		.byte	0x55
 11709 02a5 00000000 		.4byte	0
 11710 02a9 00000000 		.4byte	0
 11711              	.LLST13:
 11712 02ad 00000000 		.4byte	.LVL71
 11713 02b1 06000000 		.4byte	.LVL72
 11714 02b5 0100     		.2byte	0x1
 11715 02b7 50       		.byte	0x50
 11716 02b8 06000000 		.4byte	.LVL72
 11717 02bc 0C000000 		.4byte	.LVL73
 11718 02c0 0400     		.2byte	0x4
 11719 02c2 F3       		.byte	0xf3
 11720 02c3 01       		.uleb128 0x1
 11721 02c4 50       		.byte	0x50
 11722 02c5 9F       		.byte	0x9f
 11723 02c6 0C000000 		.4byte	.LVL73
 11724 02ca 0E000000 		.4byte	.LVL74
 11725 02ce 0100     		.2byte	0x1
 11726 02d0 50       		.byte	0x50
 11727 02d1 0E000000 		.4byte	.LVL74
 11728 02d5 14000000 		.4byte	.LFE1
 11729 02d9 0400     		.2byte	0x4
 11730 02db F3       		.byte	0xf3
 11731 02dc 01       		.uleb128 0x1
 11732 02dd 50       		.byte	0x50
 11733 02de 9F       		.byte	0x9f
 11734 02df 00000000 		.4byte	0
 11735 02e3 00000000 		.4byte	0
 11736              	.LLST14:
 11737 02e7 00000000 		.4byte	.LVL75
 11738 02eb 12000000 		.4byte	.LVL76
 11739 02ef 0100     		.2byte	0x1
 11740 02f1 50       		.byte	0x50
 11741 02f2 12000000 		.4byte	.LVL76
 11742 02f6 30000000 		.4byte	.LVL79
 11743 02fa 0100     		.2byte	0x1
 11744 02fc 55       		.byte	0x55
 11745 02fd 30000000 		.4byte	.LVL79
 11746 0301 32000000 		.4byte	.LVL80
 11747 0305 0100     		.2byte	0x1
 11748 0307 50       		.byte	0x50
 11749 0308 32000000 		.4byte	.LVL80
 11750 030c 34000000 		.4byte	.LVL81
 11751 0310 0100     		.2byte	0x1
 11752 0312 55       		.byte	0x55
 11753 0313 34000000 		.4byte	.LVL81
 11754 0317 36000000 		.4byte	.LVL82
 11755 031b 0100     		.2byte	0x1
 11756 031d 50       		.byte	0x50
 11757 031e 36000000 		.4byte	.LVL82
 11758 0322 36000000 		.4byte	.LVL83
 11759 0326 0100     		.2byte	0x1
 11760 0328 55       		.byte	0x55
ARM GAS  C:\Users\Phuong\AppData\Local\Temp\cc4zbCpa.s 			page 233


 11761 0329 36000000 		.4byte	.LVL83
 11762 032d 3C000000 		.4byte	.LFE2
 11763 0331 0400     		.2byte	0x4
 11764 0333 F3       		.byte	0xf3
 11765 0334 01       		.uleb128 0x1
 11766 0335 50       		.byte	0x50
 11767 0336 9F       		.byte	0x9f
 11768 0337 00000000 		.4byte	0
 11769 033b 00000000 		.4byte	0
 11770              	.LLST15:
 11771 033f 00000000 		.4byte	.LVL75
 11772 0343 12000000 		.4byte	.LVL76
 11773 0347 0100     		.2byte	0x1
 11774 0349 51       		.byte	0x51
 11775 034a 12000000 		.4byte	.LVL76
 11776 034e 30000000 		.4byte	.LVL79
 11777 0352 0100     		.2byte	0x1
 11778 0354 56       		.byte	0x56
 11779 0355 30000000 		.4byte	.LVL79
 11780 0359 36000000 		.4byte	.LVL82
 11781 035d 0100     		.2byte	0x1
 11782 035f 51       		.byte	0x51
 11783 0360 36000000 		.4byte	.LVL82
 11784 0364 36000000 		.4byte	.LVL84
 11785 0368 0100     		.2byte	0x1
 11786 036a 56       		.byte	0x56
 11787 036b 36000000 		.4byte	.LVL84
 11788 036f 3C000000 		.4byte	.LFE2
 11789 0373 0400     		.2byte	0x4
 11790 0375 F3       		.byte	0xf3
 11791 0376 01       		.uleb128 0x1
 11792 0377 51       		.byte	0x51
 11793 0378 9F       		.byte	0x9f
 11794 0379 00000000 		.4byte	0
 11795 037d 00000000 		.4byte	0
 11796              	.LLST16:
 11797 0381 12000000 		.4byte	.LVL76
 11798 0385 30000000 		.4byte	.LVL79
 11799 0389 0100     		.2byte	0x1
 11800 038b 54       		.byte	0x54
 11801 038c 00000000 		.4byte	0
 11802 0390 00000000 		.4byte	0
 11803              	.LLST17:
 11804 0394 00000000 		.4byte	.LVL85
 11805 0398 06000000 		.4byte	.LVL86
 11806 039c 0100     		.2byte	0x1
 11807 039e 50       		.byte	0x50
 11808 039f 06000000 		.4byte	.LVL86
 11809 03a3 0E000000 		.4byte	.LVL87
 11810 03a7 0400     		.2byte	0x4
 11811 03a9 F3       		.byte	0xf3
 11812 03aa 01       		.uleb128 0x1
 11813 03ab 50       		.byte	0x50
 11814 03ac 9F       		.byte	0x9f
 11815 03ad 0E000000 		.4byte	.LVL87
 11816 03b1 10000000 		.4byte	.LVL88
 11817 03b5 0100     		.2byte	0x1
ARM GAS  C:\Users\Phuong\AppData\Local\Temp\cc4zbCpa.s 			page 234


 11818 03b7 50       		.byte	0x50
 11819 03b8 10000000 		.4byte	.LVL88
 11820 03bc 18000000 		.4byte	.LFE3
 11821 03c0 0400     		.2byte	0x4
 11822 03c2 F3       		.byte	0xf3
 11823 03c3 01       		.uleb128 0x1
 11824 03c4 50       		.byte	0x50
 11825 03c5 9F       		.byte	0x9f
 11826 03c6 00000000 		.4byte	0
 11827 03ca 00000000 		.4byte	0
 11828              	.LLST18:
 11829 03ce 00000000 		.4byte	.LVL89
 11830 03d2 12000000 		.4byte	.LVL90
 11831 03d6 0100     		.2byte	0x1
 11832 03d8 50       		.byte	0x50
 11833 03d9 12000000 		.4byte	.LVL90
 11834 03dd 32000000 		.4byte	.LVL93
 11835 03e1 0100     		.2byte	0x1
 11836 03e3 54       		.byte	0x54
 11837 03e4 32000000 		.4byte	.LVL93
 11838 03e8 34000000 		.4byte	.LVL94
 11839 03ec 0100     		.2byte	0x1
 11840 03ee 50       		.byte	0x50
 11841 03ef 34000000 		.4byte	.LVL94
 11842 03f3 36000000 		.4byte	.LVL95
 11843 03f7 0100     		.2byte	0x1
 11844 03f9 54       		.byte	0x54
 11845 03fa 36000000 		.4byte	.LVL95
 11846 03fe 38000000 		.4byte	.LVL96
 11847 0402 0100     		.2byte	0x1
 11848 0404 50       		.byte	0x50
 11849 0405 38000000 		.4byte	.LVL96
 11850 0409 38000000 		.4byte	.LVL97
 11851 040d 0100     		.2byte	0x1
 11852 040f 54       		.byte	0x54
 11853 0410 38000000 		.4byte	.LVL97
 11854 0414 40000000 		.4byte	.LFE4
 11855 0418 0400     		.2byte	0x4
 11856 041a F3       		.byte	0xf3
 11857 041b 01       		.uleb128 0x1
 11858 041c 50       		.byte	0x50
 11859 041d 9F       		.byte	0x9f
 11860 041e 00000000 		.4byte	0
 11861 0422 00000000 		.4byte	0
 11862              	.LLST19:
 11863 0426 00000000 		.4byte	.LVL89
 11864 042a 12000000 		.4byte	.LVL90
 11865 042e 0100     		.2byte	0x1
 11866 0430 51       		.byte	0x51
 11867 0431 12000000 		.4byte	.LVL90
 11868 0435 32000000 		.4byte	.LVL93
 11869 0439 0100     		.2byte	0x1
 11870 043b 56       		.byte	0x56
 11871 043c 32000000 		.4byte	.LVL93
 11872 0440 38000000 		.4byte	.LVL96
 11873 0444 0100     		.2byte	0x1
 11874 0446 51       		.byte	0x51
ARM GAS  C:\Users\Phuong\AppData\Local\Temp\cc4zbCpa.s 			page 235


 11875 0447 38000000 		.4byte	.LVL96
 11876 044b 38000000 		.4byte	.LVL98
 11877 044f 0100     		.2byte	0x1
 11878 0451 56       		.byte	0x56
 11879 0452 38000000 		.4byte	.LVL98
 11880 0456 40000000 		.4byte	.LFE4
 11881 045a 0400     		.2byte	0x4
 11882 045c F3       		.byte	0xf3
 11883 045d 01       		.uleb128 0x1
 11884 045e 51       		.byte	0x51
 11885 045f 9F       		.byte	0x9f
 11886 0460 00000000 		.4byte	0
 11887 0464 00000000 		.4byte	0
 11888              	.LLST20:
 11889 0468 12000000 		.4byte	.LVL90
 11890 046c 32000000 		.4byte	.LVL93
 11891 0470 0100     		.2byte	0x1
 11892 0472 55       		.byte	0x55
 11893 0473 00000000 		.4byte	0
 11894 0477 00000000 		.4byte	0
 11895              	.LLST21:
 11896 047b 00000000 		.4byte	.LVL99
 11897 047f 13000000 		.4byte	.LVL100-1
 11898 0483 0100     		.2byte	0x1
 11899 0485 50       		.byte	0x50
 11900 0486 13000000 		.4byte	.LVL100-1
 11901 048a 30000000 		.4byte	.LVL105
 11902 048e 0100     		.2byte	0x1
 11903 0490 55       		.byte	0x55
 11904 0491 30000000 		.4byte	.LVL105
 11905 0495 32000000 		.4byte	.LVL106
 11906 0499 0100     		.2byte	0x1
 11907 049b 50       		.byte	0x50
 11908 049c 32000000 		.4byte	.LVL106
 11909 04a0 40000000 		.4byte	.LVL110
 11910 04a4 0100     		.2byte	0x1
 11911 04a6 55       		.byte	0x55
 11912 04a7 40000000 		.4byte	.LVL110
 11913 04ab 58000000 		.4byte	.LVL113
 11914 04af 0400     		.2byte	0x4
 11915 04b1 F3       		.byte	0xf3
 11916 04b2 01       		.uleb128 0x1
 11917 04b3 50       		.byte	0x50
 11918 04b4 9F       		.byte	0x9f
 11919 04b5 58000000 		.4byte	.LVL113
 11920 04b9 9A000000 		.4byte	.LVL121
 11921 04bd 0100     		.2byte	0x1
 11922 04bf 55       		.byte	0x55
 11923 04c0 9A000000 		.4byte	.LVL121
 11924 04c4 06010000 		.4byte	.LVL136
 11925 04c8 0400     		.2byte	0x4
 11926 04ca F3       		.byte	0xf3
 11927 04cb 01       		.uleb128 0x1
 11928 04cc 50       		.byte	0x50
 11929 04cd 9F       		.byte	0x9f
 11930 04ce 06010000 		.4byte	.LVL136
 11931 04d2 08010000 		.4byte	.LVL137
ARM GAS  C:\Users\Phuong\AppData\Local\Temp\cc4zbCpa.s 			page 236


 11932 04d6 0100     		.2byte	0x1
 11933 04d8 55       		.byte	0x55
 11934 04d9 08010000 		.4byte	.LVL137
 11935 04dd 30010000 		.4byte	.LFE10
 11936 04e1 0400     		.2byte	0x4
 11937 04e3 F3       		.byte	0xf3
 11938 04e4 01       		.uleb128 0x1
 11939 04e5 50       		.byte	0x50
 11940 04e6 9F       		.byte	0x9f
 11941 04e7 00000000 		.4byte	0
 11942 04eb 00000000 		.4byte	0
 11943              	.LLST22:
 11944 04ef 00000000 		.4byte	.LVL99
 11945 04f3 13000000 		.4byte	.LVL100-1
 11946 04f7 0100     		.2byte	0x1
 11947 04f9 51       		.byte	0x51
 11948 04fa 13000000 		.4byte	.LVL100-1
 11949 04fe 30000000 		.4byte	.LVL105
 11950 0502 0100     		.2byte	0x1
 11951 0504 56       		.byte	0x56
 11952 0505 30000000 		.4byte	.LVL105
 11953 0509 35000000 		.4byte	.LVL107-1
 11954 050d 0100     		.2byte	0x1
 11955 050f 51       		.byte	0x51
 11956 0510 35000000 		.4byte	.LVL107-1
 11957 0514 0C010000 		.4byte	.LVL139
 11958 0518 0100     		.2byte	0x1
 11959 051a 56       		.byte	0x56
 11960 051b 0C010000 		.4byte	.LVL139
 11961 051f 30010000 		.4byte	.LFE10
 11962 0523 0400     		.2byte	0x4
 11963 0525 F3       		.byte	0xf3
 11964 0526 01       		.uleb128 0x1
 11965 0527 51       		.byte	0x51
 11966 0528 9F       		.byte	0x9f
 11967 0529 00000000 		.4byte	0
 11968 052d 00000000 		.4byte	0
 11969              	.LLST23:
 11970 0531 38000000 		.4byte	.LVL108
 11971 0535 3D000000 		.4byte	.LVL109-1
 11972 0539 0100     		.2byte	0x1
 11973 053b 50       		.byte	0x50
 11974 053c 3D000000 		.4byte	.LVL109-1
 11975 0540 58000000 		.4byte	.LVL113
 11976 0544 0100     		.2byte	0x1
 11977 0546 54       		.byte	0x54
 11978 0547 58000000 		.4byte	.LVL113
 11979 054b 67000000 		.4byte	.LVL114-1
 11980 054f 0100     		.2byte	0x1
 11981 0551 50       		.byte	0x50
 11982 0552 67000000 		.4byte	.LVL114-1
 11983 0556 94000000 		.4byte	.LVL119
 11984 055a 0100     		.2byte	0x1
 11985 055c 54       		.byte	0x54
 11986 055d 94000000 		.4byte	.LVL119
 11987 0561 98000000 		.4byte	.LVL120
 11988 0565 0200     		.2byte	0x2
ARM GAS  C:\Users\Phuong\AppData\Local\Temp\cc4zbCpa.s 			page 237


 11989 0567 30       		.byte	0x30
 11990 0568 9F       		.byte	0x9f
 11991 0569 98000000 		.4byte	.LVL120
 11992 056d D0000000 		.4byte	.LVL128
 11993 0571 0100     		.2byte	0x1
 11994 0573 54       		.byte	0x54
 11995 0574 D0000000 		.4byte	.LVL128
 11996 0578 D4000000 		.4byte	.LVL129
 11997 057c 0200     		.2byte	0x2
 11998 057e 30       		.byte	0x30
 11999 057f 9F       		.byte	0x9f
 12000 0580 D4000000 		.4byte	.LVL129
 12001 0584 02010000 		.4byte	.LVL135
 12002 0588 0100     		.2byte	0x1
 12003 058a 54       		.byte	0x54
 12004 058b 02010000 		.4byte	.LVL135
 12005 058f 06010000 		.4byte	.LVL136
 12006 0593 0200     		.2byte	0x2
 12007 0595 30       		.byte	0x30
 12008 0596 9F       		.byte	0x9f
 12009 0597 08010000 		.4byte	.LVL137
 12010 059b 0C010000 		.4byte	.LVL138
 12011 059f 0100     		.2byte	0x1
 12012 05a1 54       		.byte	0x54
 12013 05a2 0C010000 		.4byte	.LVL138
 12014 05a6 30010000 		.4byte	.LFE10
 12015 05aa 0100     		.2byte	0x1
 12016 05ac 50       		.byte	0x50
 12017 05ad 00000000 		.4byte	0
 12018 05b1 00000000 		.4byte	0
 12019              	.LLST24:
 12020 05b5 16000000 		.4byte	.LVL101
 12021 05b9 2A000000 		.4byte	.LVL102
 12022 05bd 0100     		.2byte	0x1
 12023 05bf 50       		.byte	0x50
 12024 05c0 2A000000 		.4byte	.LVL102
 12025 05c4 2E000000 		.4byte	.LVL104
 12026 05c8 0100     		.2byte	0x1
 12027 05ca 54       		.byte	0x54
 12028 05cb 06010000 		.4byte	.LVL136
 12029 05cf 08010000 		.4byte	.LVL137
 12030 05d3 0100     		.2byte	0x1
 12031 05d5 50       		.byte	0x50
 12032 05d6 00000000 		.4byte	0
 12033 05da 00000000 		.4byte	0
 12034              	.LLST25:
 12035 05de 40000000 		.4byte	.LVL110
 12036 05e2 54000000 		.4byte	.LVL111
 12037 05e6 0100     		.2byte	0x1
 12038 05e8 50       		.byte	0x50
 12039 05e9 54000000 		.4byte	.LVL111
 12040 05ed 58000000 		.4byte	.LVL113
 12041 05f1 0100     		.2byte	0x1
 12042 05f3 55       		.byte	0x55
 12043 05f4 00000000 		.4byte	0
 12044 05f8 00000000 		.4byte	0
 12045              	.LLST26:
ARM GAS  C:\Users\Phuong\AppData\Local\Temp\cc4zbCpa.s 			page 238


 12046 05fc 94000000 		.4byte	.LVL119
 12047 0600 98000000 		.4byte	.LVL120
 12048 0604 0200     		.2byte	0x2
 12049 0606 30       		.byte	0x30
 12050 0607 9F       		.byte	0x9f
 12051 0608 9C000000 		.4byte	.LVL122
 12052 060c B4000000 		.4byte	.LVL125
 12053 0610 0100     		.2byte	0x1
 12054 0612 55       		.byte	0x55
 12055 0613 D4000000 		.4byte	.LVL129
 12056 0617 E6000000 		.4byte	.LVL132
 12057 061b 0100     		.2byte	0x1
 12058 061d 55       		.byte	0x55
 12059 061e 00000000 		.4byte	0
 12060 0622 00000000 		.4byte	0
 12061              	.LLST27:
 12062 0626 78000000 		.4byte	.LVL116
 12063 062a 8C000000 		.4byte	.LVL117
 12064 062e 0100     		.2byte	0x1
 12065 0630 50       		.byte	0x50
 12066 0631 8C000000 		.4byte	.LVL117
 12067 0635 98000000 		.4byte	.LVL120
 12068 0639 0100     		.2byte	0x1
 12069 063b 57       		.byte	0x57
 12070 063c 00000000 		.4byte	0
 12071 0640 00000000 		.4byte	0
 12072              	.LLST28:
 12073 0644 B4000000 		.4byte	.LVL125
 12074 0648 C8000000 		.4byte	.LVL126
 12075 064c 0100     		.2byte	0x1
 12076 064e 50       		.byte	0x50
 12077 064f C8000000 		.4byte	.LVL126
 12078 0653 D4000000 		.4byte	.LVL129
 12079 0657 0100     		.2byte	0x1
 12080 0659 55       		.byte	0x55
 12081 065a 00000000 		.4byte	0
 12082 065e 00000000 		.4byte	0
 12083              	.LLST29:
 12084 0662 E6000000 		.4byte	.LVL132
 12085 0666 FA000000 		.4byte	.LVL133
 12086 066a 0100     		.2byte	0x1
 12087 066c 50       		.byte	0x50
 12088 066d FA000000 		.4byte	.LVL133
 12089 0671 06010000 		.4byte	.LVL136
 12090 0675 0100     		.2byte	0x1
 12091 0677 55       		.byte	0x55
 12092 0678 00000000 		.4byte	0
 12093 067c 00000000 		.4byte	0
 12094              	.LLST30:
 12095 0680 00000000 		.4byte	.LVL140
 12096 0684 0B000000 		.4byte	.LVL141-1
 12097 0688 0100     		.2byte	0x1
 12098 068a 50       		.byte	0x50
 12099 068b 0B000000 		.4byte	.LVL141-1
 12100 068f 28000000 		.4byte	.LVL146
 12101 0693 0100     		.2byte	0x1
 12102 0695 55       		.byte	0x55
ARM GAS  C:\Users\Phuong\AppData\Local\Temp\cc4zbCpa.s 			page 239


 12103 0696 28000000 		.4byte	.LVL146
 12104 069a 2A000000 		.4byte	.LVL147
 12105 069e 0100     		.2byte	0x1
 12106 06a0 50       		.byte	0x50
 12107 06a1 2A000000 		.4byte	.LVL147
 12108 06a5 38000000 		.4byte	.LVL151
 12109 06a9 0100     		.2byte	0x1
 12110 06ab 55       		.byte	0x55
 12111 06ac 38000000 		.4byte	.LVL151
 12112 06b0 50000000 		.4byte	.LVL154
 12113 06b4 0400     		.2byte	0x4
 12114 06b6 F3       		.byte	0xf3
 12115 06b7 01       		.uleb128 0x1
 12116 06b8 50       		.byte	0x50
 12117 06b9 9F       		.byte	0x9f
 12118 06ba 50000000 		.4byte	.LVL154
 12119 06be 6E000000 		.4byte	.LVL158
 12120 06c2 0100     		.2byte	0x1
 12121 06c4 55       		.byte	0x55
 12122 06c5 6E000000 		.4byte	.LVL158
 12123 06c9 8E000000 		.4byte	.LVL162
 12124 06cd 0400     		.2byte	0x4
 12125 06cf F3       		.byte	0xf3
 12126 06d0 01       		.uleb128 0x1
 12127 06d1 50       		.byte	0x50
 12128 06d2 9F       		.byte	0x9f
 12129 06d3 8E000000 		.4byte	.LVL162
 12130 06d7 A0000000 		.4byte	.LVL165
 12131 06db 0100     		.2byte	0x1
 12132 06dd 55       		.byte	0x55
 12133 06de A0000000 		.4byte	.LVL165
 12134 06e2 C0000000 		.4byte	.LVL169
 12135 06e6 0400     		.2byte	0x4
 12136 06e8 F3       		.byte	0xf3
 12137 06e9 01       		.uleb128 0x1
 12138 06ea 50       		.byte	0x50
 12139 06eb 9F       		.byte	0x9f
 12140 06ec C0000000 		.4byte	.LVL169
 12141 06f0 C2000000 		.4byte	.LVL170
 12142 06f4 0100     		.2byte	0x1
 12143 06f6 55       		.byte	0x55
 12144 06f7 C2000000 		.4byte	.LVL170
 12145 06fb E4000000 		.4byte	.LFE11
 12146 06ff 0400     		.2byte	0x4
 12147 0701 F3       		.byte	0xf3
 12148 0702 01       		.uleb128 0x1
 12149 0703 50       		.byte	0x50
 12150 0704 9F       		.byte	0x9f
 12151 0705 00000000 		.4byte	0
 12152 0709 00000000 		.4byte	0
 12153              	.LLST31:
 12154 070d 30000000 		.4byte	.LVL149
 12155 0711 35000000 		.4byte	.LVL150-1
 12156 0715 0100     		.2byte	0x1
 12157 0717 50       		.byte	0x50
 12158 0718 35000000 		.4byte	.LVL150-1
 12159 071c 50000000 		.4byte	.LVL154
ARM GAS  C:\Users\Phuong\AppData\Local\Temp\cc4zbCpa.s 			page 240


 12160 0720 0100     		.2byte	0x1
 12161 0722 54       		.byte	0x54
 12162 0723 50000000 		.4byte	.LVL154
 12163 0727 57000000 		.4byte	.LVL155-1
 12164 072b 0100     		.2byte	0x1
 12165 072d 50       		.byte	0x50
 12166 072e 57000000 		.4byte	.LVL155-1
 12167 0732 8A000000 		.4byte	.LVL161
 12168 0736 0100     		.2byte	0x1
 12169 0738 54       		.byte	0x54
 12170 0739 8A000000 		.4byte	.LVL161
 12171 073d 8E000000 		.4byte	.LVL162
 12172 0741 0200     		.2byte	0x2
 12173 0743 30       		.byte	0x30
 12174 0744 9F       		.byte	0x9f
 12175 0745 8E000000 		.4byte	.LVL162
 12176 0749 BC000000 		.4byte	.LVL168
 12177 074d 0100     		.2byte	0x1
 12178 074f 54       		.byte	0x54
 12179 0750 BC000000 		.4byte	.LVL168
 12180 0754 C0000000 		.4byte	.LVL169
 12181 0758 0200     		.2byte	0x2
 12182 075a 30       		.byte	0x30
 12183 075b 9F       		.byte	0x9f
 12184 075c C2000000 		.4byte	.LVL170
 12185 0760 C6000000 		.4byte	.LVL171
 12186 0764 0100     		.2byte	0x1
 12187 0766 54       		.byte	0x54
 12188 0767 C6000000 		.4byte	.LVL171
 12189 076b E4000000 		.4byte	.LFE11
 12190 076f 0100     		.2byte	0x1
 12191 0771 50       		.byte	0x50
 12192 0772 00000000 		.4byte	0
 12193 0776 00000000 		.4byte	0
 12194              	.LLST32:
 12195 077a 0E000000 		.4byte	.LVL142
 12196 077e 22000000 		.4byte	.LVL143
 12197 0782 0100     		.2byte	0x1
 12198 0784 50       		.byte	0x50
 12199 0785 22000000 		.4byte	.LVL143
 12200 0789 26000000 		.4byte	.LVL145
 12201 078d 0100     		.2byte	0x1
 12202 078f 54       		.byte	0x54
 12203 0790 C0000000 		.4byte	.LVL169
 12204 0794 C2000000 		.4byte	.LVL170
 12205 0798 0100     		.2byte	0x1
 12206 079a 50       		.byte	0x50
 12207 079b 00000000 		.4byte	0
 12208 079f 00000000 		.4byte	0
 12209              	.LLST33:
 12210 07a3 38000000 		.4byte	.LVL151
 12211 07a7 4C000000 		.4byte	.LVL152
 12212 07ab 0100     		.2byte	0x1
 12213 07ad 50       		.byte	0x50
 12214 07ae 4C000000 		.4byte	.LVL152
 12215 07b2 50000000 		.4byte	.LVL154
 12216 07b6 0100     		.2byte	0x1
ARM GAS  C:\Users\Phuong\AppData\Local\Temp\cc4zbCpa.s 			page 241


 12217 07b8 55       		.byte	0x55
 12218 07b9 00000000 		.4byte	0
 12219 07bd 00000000 		.4byte	0
 12220              	.LLST34:
 12221 07c1 6E000000 		.4byte	.LVL158
 12222 07c5 82000000 		.4byte	.LVL159
 12223 07c9 0100     		.2byte	0x1
 12224 07cb 50       		.byte	0x50
 12225 07cc 82000000 		.4byte	.LVL159
 12226 07d0 8E000000 		.4byte	.LVL162
 12227 07d4 0100     		.2byte	0x1
 12228 07d6 55       		.byte	0x55
 12229 07d7 00000000 		.4byte	0
 12230 07db 00000000 		.4byte	0
 12231              	.LLST35:
 12232 07df A0000000 		.4byte	.LVL165
 12233 07e3 B4000000 		.4byte	.LVL166
 12234 07e7 0100     		.2byte	0x1
 12235 07e9 50       		.byte	0x50
 12236 07ea B4000000 		.4byte	.LVL166
 12237 07ee C0000000 		.4byte	.LVL169
 12238 07f2 0100     		.2byte	0x1
 12239 07f4 55       		.byte	0x55
 12240 07f5 00000000 		.4byte	0
 12241 07f9 00000000 		.4byte	0
 12242              	.LLST36:
 12243 07fd 00000000 		.4byte	.LVL172
 12244 0801 0B000000 		.4byte	.LVL175-1
 12245 0805 0100     		.2byte	0x1
 12246 0807 50       		.byte	0x50
 12247 0808 0B000000 		.4byte	.LVL175-1
 12248 080c 0E000000 		.4byte	.LVL176
 12249 0810 0100     		.2byte	0x1
 12250 0812 54       		.byte	0x54
 12251 0813 0E000000 		.4byte	.LVL176
 12252 0817 2C000000 		.4byte	.LVL179
 12253 081b 0400     		.2byte	0x4
 12254 081d F3       		.byte	0xf3
 12255 081e 01       		.uleb128 0x1
 12256 081f 50       		.byte	0x50
 12257 0820 9F       		.byte	0x9f
 12258 0821 2C000000 		.4byte	.LVL179
 12259 0825 2E000000 		.4byte	.LVL180
 12260 0829 0100     		.2byte	0x1
 12261 082b 50       		.byte	0x50
 12262 082c 2E000000 		.4byte	.LVL180
 12263 0830 3C000000 		.4byte	.LVL184
 12264 0834 0100     		.2byte	0x1
 12265 0836 54       		.byte	0x54
 12266 0837 3C000000 		.4byte	.LVL184
 12267 083b 58000000 		.4byte	.LVL187
 12268 083f 0400     		.2byte	0x4
 12269 0841 F3       		.byte	0xf3
 12270 0842 01       		.uleb128 0x1
 12271 0843 50       		.byte	0x50
 12272 0844 9F       		.byte	0x9f
 12273 0845 58000000 		.4byte	.LVL187
ARM GAS  C:\Users\Phuong\AppData\Local\Temp\cc4zbCpa.s 			page 242


 12274 0849 7C000000 		.4byte	.LVL191
 12275 084d 0100     		.2byte	0x1
 12276 084f 54       		.byte	0x54
 12277 0850 7C000000 		.4byte	.LVL191
 12278 0854 9E000000 		.4byte	.LVL195
 12279 0858 0400     		.2byte	0x4
 12280 085a F3       		.byte	0xf3
 12281 085b 01       		.uleb128 0x1
 12282 085c 50       		.byte	0x50
 12283 085d 9F       		.byte	0x9f
 12284 085e 9E000000 		.4byte	.LVL195
 12285 0862 B6000000 		.4byte	.LVL198
 12286 0866 0100     		.2byte	0x1
 12287 0868 54       		.byte	0x54
 12288 0869 B6000000 		.4byte	.LVL198
 12289 086d D8000000 		.4byte	.LVL202
 12290 0871 0400     		.2byte	0x4
 12291 0873 F3       		.byte	0xf3
 12292 0874 01       		.uleb128 0x1
 12293 0875 50       		.byte	0x50
 12294 0876 9F       		.byte	0x9f
 12295 0877 D8000000 		.4byte	.LVL202
 12296 087b F0000000 		.4byte	.LVL205
 12297 087f 0100     		.2byte	0x1
 12298 0881 54       		.byte	0x54
 12299 0882 F0000000 		.4byte	.LVL205
 12300 0886 12010000 		.4byte	.LVL209
 12301 088a 0400     		.2byte	0x4
 12302 088c F3       		.byte	0xf3
 12303 088d 01       		.uleb128 0x1
 12304 088e 50       		.byte	0x50
 12305 088f 9F       		.byte	0x9f
 12306 0890 12010000 		.4byte	.LVL209
 12307 0894 2A010000 		.4byte	.LVL212
 12308 0898 0100     		.2byte	0x1
 12309 089a 54       		.byte	0x54
 12310 089b 2A010000 		.4byte	.LVL212
 12311 089f 4C010000 		.4byte	.LVL216
 12312 08a3 0400     		.2byte	0x4
 12313 08a5 F3       		.byte	0xf3
 12314 08a6 01       		.uleb128 0x1
 12315 08a7 50       		.byte	0x50
 12316 08a8 9F       		.byte	0x9f
 12317 08a9 4C010000 		.4byte	.LVL216
 12318 08ad 62010000 		.4byte	.LVL219
 12319 08b1 0100     		.2byte	0x1
 12320 08b3 54       		.byte	0x54
 12321 08b4 62010000 		.4byte	.LVL219
 12322 08b8 84010000 		.4byte	.LVL223
 12323 08bc 0400     		.2byte	0x4
 12324 08be F3       		.byte	0xf3
 12325 08bf 01       		.uleb128 0x1
 12326 08c0 50       		.byte	0x50
 12327 08c1 9F       		.byte	0x9f
 12328 08c2 84010000 		.4byte	.LVL223
 12329 08c6 9C010000 		.4byte	.LVL226
 12330 08ca 0100     		.2byte	0x1
ARM GAS  C:\Users\Phuong\AppData\Local\Temp\cc4zbCpa.s 			page 243


 12331 08cc 54       		.byte	0x54
 12332 08cd 9C010000 		.4byte	.LVL226
 12333 08d1 BE010000 		.4byte	.LVL230
 12334 08d5 0400     		.2byte	0x4
 12335 08d7 F3       		.byte	0xf3
 12336 08d8 01       		.uleb128 0x1
 12337 08d9 50       		.byte	0x50
 12338 08da 9F       		.byte	0x9f
 12339 08db BE010000 		.4byte	.LVL230
 12340 08df D6010000 		.4byte	.LVL233
 12341 08e3 0100     		.2byte	0x1
 12342 08e5 54       		.byte	0x54
 12343 08e6 D6010000 		.4byte	.LVL233
 12344 08ea F8010000 		.4byte	.LVL237
 12345 08ee 0400     		.2byte	0x4
 12346 08f0 F3       		.byte	0xf3
 12347 08f1 01       		.uleb128 0x1
 12348 08f2 50       		.byte	0x50
 12349 08f3 9F       		.byte	0x9f
 12350 08f4 F8010000 		.4byte	.LVL237
 12351 08f8 10020000 		.4byte	.LVL240
 12352 08fc 0100     		.2byte	0x1
 12353 08fe 54       		.byte	0x54
 12354 08ff 10020000 		.4byte	.LVL240
 12355 0903 32020000 		.4byte	.LVL244
 12356 0907 0400     		.2byte	0x4
 12357 0909 F3       		.byte	0xf3
 12358 090a 01       		.uleb128 0x1
 12359 090b 50       		.byte	0x50
 12360 090c 9F       		.byte	0x9f
 12361 090d 32020000 		.4byte	.LVL244
 12362 0911 4A020000 		.4byte	.LVL247
 12363 0915 0100     		.2byte	0x1
 12364 0917 54       		.byte	0x54
 12365 0918 4A020000 		.4byte	.LVL247
 12366 091c 6C020000 		.4byte	.LVL251
 12367 0920 0400     		.2byte	0x4
 12368 0922 F3       		.byte	0xf3
 12369 0923 01       		.uleb128 0x1
 12370 0924 50       		.byte	0x50
 12371 0925 9F       		.byte	0x9f
 12372 0926 6C020000 		.4byte	.LVL251
 12373 092a 84020000 		.4byte	.LVL254
 12374 092e 0100     		.2byte	0x1
 12375 0930 54       		.byte	0x54
 12376 0931 84020000 		.4byte	.LVL254
 12377 0935 A6020000 		.4byte	.LVL258
 12378 0939 0400     		.2byte	0x4
 12379 093b F3       		.byte	0xf3
 12380 093c 01       		.uleb128 0x1
 12381 093d 50       		.byte	0x50
 12382 093e 9F       		.byte	0x9f
 12383 093f A6020000 		.4byte	.LVL258
 12384 0943 B8020000 		.4byte	.LVL261
 12385 0947 0100     		.2byte	0x1
 12386 0949 54       		.byte	0x54
 12387 094a B8020000 		.4byte	.LVL261
ARM GAS  C:\Users\Phuong\AppData\Local\Temp\cc4zbCpa.s 			page 244


 12388 094e DA020000 		.4byte	.LVL265
 12389 0952 0400     		.2byte	0x4
 12390 0954 F3       		.byte	0xf3
 12391 0955 01       		.uleb128 0x1
 12392 0956 50       		.byte	0x50
 12393 0957 9F       		.byte	0x9f
 12394 0958 DA020000 		.4byte	.LVL265
 12395 095c EC020000 		.4byte	.LVL268
 12396 0960 0100     		.2byte	0x1
 12397 0962 54       		.byte	0x54
 12398 0963 EC020000 		.4byte	.LVL268
 12399 0967 48030000 		.4byte	.LVL272
 12400 096b 0400     		.2byte	0x4
 12401 096d F3       		.byte	0xf3
 12402 096e 01       		.uleb128 0x1
 12403 096f 50       		.byte	0x50
 12404 0970 9F       		.byte	0x9f
 12405 0971 48030000 		.4byte	.LVL272
 12406 0975 5A030000 		.4byte	.LVL275
 12407 0979 0100     		.2byte	0x1
 12408 097b 54       		.byte	0x54
 12409 097c 5A030000 		.4byte	.LVL275
 12410 0980 90030000 		.4byte	.LFE12
 12411 0984 0400     		.2byte	0x4
 12412 0986 F3       		.byte	0xf3
 12413 0987 01       		.uleb128 0x1
 12414 0988 50       		.byte	0x50
 12415 0989 9F       		.byte	0x9f
 12416 098a 00000000 		.4byte	0
 12417 098e 00000000 		.4byte	0
 12418              	.LLST37:
 12419 0992 08000000 		.4byte	.LVL174
 12420 0996 2C000000 		.4byte	.LVL179
 12421 099a 0200     		.2byte	0x2
 12422 099c 30       		.byte	0x30
 12423 099d 9F       		.byte	0x9f
 12424 099e 34000000 		.4byte	.LVL182
 12425 09a2 39000000 		.4byte	.LVL183-1
 12426 09a6 0100     		.2byte	0x1
 12427 09a8 50       		.byte	0x50
 12428 09a9 39000000 		.4byte	.LVL183-1
 12429 09ad 58000000 		.4byte	.LVL187
 12430 09b1 0100     		.2byte	0x1
 12431 09b3 55       		.byte	0x55
 12432 09b4 58000000 		.4byte	.LVL187
 12433 09b8 5F000000 		.4byte	.LVL188-1
 12434 09bc 0100     		.2byte	0x1
 12435 09be 50       		.byte	0x50
 12436 09bf 5F000000 		.4byte	.LVL188-1
 12437 09c3 9A000000 		.4byte	.LVL194
 12438 09c7 0100     		.2byte	0x1
 12439 09c9 55       		.byte	0x55
 12440 09ca 9A000000 		.4byte	.LVL194
 12441 09ce 9E000000 		.4byte	.LVL195
 12442 09d2 0200     		.2byte	0x2
 12443 09d4 30       		.byte	0x30
 12444 09d5 9F       		.byte	0x9f
ARM GAS  C:\Users\Phuong\AppData\Local\Temp\cc4zbCpa.s 			page 245


 12445 09d6 9E000000 		.4byte	.LVL195
 12446 09da D4000000 		.4byte	.LVL201
 12447 09de 0100     		.2byte	0x1
 12448 09e0 55       		.byte	0x55
 12449 09e1 D4000000 		.4byte	.LVL201
 12450 09e5 D8000000 		.4byte	.LVL202
 12451 09e9 0200     		.2byte	0x2
 12452 09eb 30       		.byte	0x30
 12453 09ec 9F       		.byte	0x9f
 12454 09ed D8000000 		.4byte	.LVL202
 12455 09f1 0E010000 		.4byte	.LVL208
 12456 09f5 0100     		.2byte	0x1
 12457 09f7 55       		.byte	0x55
 12458 09f8 0E010000 		.4byte	.LVL208
 12459 09fc 12010000 		.4byte	.LVL209
 12460 0a00 0200     		.2byte	0x2
 12461 0a02 30       		.byte	0x30
 12462 0a03 9F       		.byte	0x9f
 12463 0a04 12010000 		.4byte	.LVL209
 12464 0a08 48010000 		.4byte	.LVL215
 12465 0a0c 0100     		.2byte	0x1
 12466 0a0e 55       		.byte	0x55
 12467 0a0f 48010000 		.4byte	.LVL215
 12468 0a13 4C010000 		.4byte	.LVL216
 12469 0a17 0200     		.2byte	0x2
 12470 0a19 30       		.byte	0x30
 12471 0a1a 9F       		.byte	0x9f
 12472 0a1b 4C010000 		.4byte	.LVL216
 12473 0a1f 80010000 		.4byte	.LVL222
 12474 0a23 0100     		.2byte	0x1
 12475 0a25 55       		.byte	0x55
 12476 0a26 80010000 		.4byte	.LVL222
 12477 0a2a 84010000 		.4byte	.LVL223
 12478 0a2e 0200     		.2byte	0x2
 12479 0a30 30       		.byte	0x30
 12480 0a31 9F       		.byte	0x9f
 12481 0a32 84010000 		.4byte	.LVL223
 12482 0a36 BA010000 		.4byte	.LVL229
 12483 0a3a 0100     		.2byte	0x1
 12484 0a3c 55       		.byte	0x55
 12485 0a3d BA010000 		.4byte	.LVL229
 12486 0a41 BE010000 		.4byte	.LVL230
 12487 0a45 0200     		.2byte	0x2
 12488 0a47 30       		.byte	0x30
 12489 0a48 9F       		.byte	0x9f
 12490 0a49 BE010000 		.4byte	.LVL230
 12491 0a4d F4010000 		.4byte	.LVL236
 12492 0a51 0100     		.2byte	0x1
 12493 0a53 55       		.byte	0x55
 12494 0a54 F4010000 		.4byte	.LVL236
 12495 0a58 F8010000 		.4byte	.LVL237
 12496 0a5c 0200     		.2byte	0x2
 12497 0a5e 30       		.byte	0x30
 12498 0a5f 9F       		.byte	0x9f
 12499 0a60 F8010000 		.4byte	.LVL237
 12500 0a64 2E020000 		.4byte	.LVL243
 12501 0a68 0100     		.2byte	0x1
ARM GAS  C:\Users\Phuong\AppData\Local\Temp\cc4zbCpa.s 			page 246


 12502 0a6a 55       		.byte	0x55
 12503 0a6b 2E020000 		.4byte	.LVL243
 12504 0a6f 32020000 		.4byte	.LVL244
 12505 0a73 0200     		.2byte	0x2
 12506 0a75 30       		.byte	0x30
 12507 0a76 9F       		.byte	0x9f
 12508 0a77 32020000 		.4byte	.LVL244
 12509 0a7b 68020000 		.4byte	.LVL250
 12510 0a7f 0100     		.2byte	0x1
 12511 0a81 55       		.byte	0x55
 12512 0a82 68020000 		.4byte	.LVL250
 12513 0a86 6C020000 		.4byte	.LVL251
 12514 0a8a 0200     		.2byte	0x2
 12515 0a8c 30       		.byte	0x30
 12516 0a8d 9F       		.byte	0x9f
 12517 0a8e 6C020000 		.4byte	.LVL251
 12518 0a92 A2020000 		.4byte	.LVL257
 12519 0a96 0100     		.2byte	0x1
 12520 0a98 55       		.byte	0x55
 12521 0a99 A2020000 		.4byte	.LVL257
 12522 0a9d A6020000 		.4byte	.LVL258
 12523 0aa1 0200     		.2byte	0x2
 12524 0aa3 30       		.byte	0x30
 12525 0aa4 9F       		.byte	0x9f
 12526 0aa5 A6020000 		.4byte	.LVL258
 12527 0aa9 D6020000 		.4byte	.LVL264
 12528 0aad 0100     		.2byte	0x1
 12529 0aaf 55       		.byte	0x55
 12530 0ab0 D6020000 		.4byte	.LVL264
 12531 0ab4 DA020000 		.4byte	.LVL265
 12532 0ab8 0200     		.2byte	0x2
 12533 0aba 30       		.byte	0x30
 12534 0abb 9F       		.byte	0x9f
 12535 0abc DA020000 		.4byte	.LVL265
 12536 0ac0 0A030000 		.4byte	.LVL271
 12537 0ac4 0100     		.2byte	0x1
 12538 0ac6 55       		.byte	0x55
 12539 0ac7 0A030000 		.4byte	.LVL271
 12540 0acb 48030000 		.4byte	.LVL272
 12541 0acf 0200     		.2byte	0x2
 12542 0ad1 30       		.byte	0x30
 12543 0ad2 9F       		.byte	0x9f
 12544 0ad3 48030000 		.4byte	.LVL272
 12545 0ad7 78030000 		.4byte	.LVL278
 12546 0adb 0100     		.2byte	0x1
 12547 0add 55       		.byte	0x55
 12548 0ade 78030000 		.4byte	.LVL278
 12549 0ae2 7E030000 		.4byte	.LVL280
 12550 0ae6 0200     		.2byte	0x2
 12551 0ae8 30       		.byte	0x30
 12552 0ae9 9F       		.byte	0x9f
 12553 0aea 7E030000 		.4byte	.LVL280
 12554 0aee 82030000 		.4byte	.LVL281
 12555 0af2 0100     		.2byte	0x1
 12556 0af4 55       		.byte	0x55
 12557 0af5 82030000 		.4byte	.LVL281
 12558 0af9 90030000 		.4byte	.LFE12
ARM GAS  C:\Users\Phuong\AppData\Local\Temp\cc4zbCpa.s 			page 247


 12559 0afd 0100     		.2byte	0x1
 12560 0aff 50       		.byte	0x50
 12561 0b00 00000000 		.4byte	0
 12562 0b04 00000000 		.4byte	0
 12563              	.LLST38:
 12564 0b08 06000000 		.4byte	.LVL173
 12565 0b0c 0B000000 		.4byte	.LVL175-1
 12566 0b10 0100     		.2byte	0x1
 12567 0b12 50       		.byte	0x50
 12568 0b13 0B000000 		.4byte	.LVL175-1
 12569 0b17 0E000000 		.4byte	.LVL176
 12570 0b1b 0100     		.2byte	0x1
 12571 0b1d 54       		.byte	0x54
 12572 0b1e 0E000000 		.4byte	.LVL176
 12573 0b22 2C000000 		.4byte	.LVL179
 12574 0b26 0400     		.2byte	0x4
 12575 0b28 F3       		.byte	0xf3
 12576 0b29 01       		.uleb128 0x1
 12577 0b2a 50       		.byte	0x50
 12578 0b2b 9F       		.byte	0x9f
 12579 0b2c 2C000000 		.4byte	.LVL179
 12580 0b30 2E000000 		.4byte	.LVL180
 12581 0b34 0100     		.2byte	0x1
 12582 0b36 50       		.byte	0x50
 12583 0b37 2E000000 		.4byte	.LVL180
 12584 0b3b 3C000000 		.4byte	.LVL184
 12585 0b3f 0100     		.2byte	0x1
 12586 0b41 54       		.byte	0x54
 12587 0b42 3C000000 		.4byte	.LVL184
 12588 0b46 58000000 		.4byte	.LVL187
 12589 0b4a 0400     		.2byte	0x4
 12590 0b4c F3       		.byte	0xf3
 12591 0b4d 01       		.uleb128 0x1
 12592 0b4e 50       		.byte	0x50
 12593 0b4f 9F       		.byte	0x9f
 12594 0b50 58000000 		.4byte	.LVL187
 12595 0b54 7C000000 		.4byte	.LVL191
 12596 0b58 0100     		.2byte	0x1
 12597 0b5a 54       		.byte	0x54
 12598 0b5b 7C000000 		.4byte	.LVL191
 12599 0b5f 9E000000 		.4byte	.LVL195
 12600 0b63 0400     		.2byte	0x4
 12601 0b65 F3       		.byte	0xf3
 12602 0b66 01       		.uleb128 0x1
 12603 0b67 50       		.byte	0x50
 12604 0b68 9F       		.byte	0x9f
 12605 0b69 9E000000 		.4byte	.LVL195
 12606 0b6d B6000000 		.4byte	.LVL198
 12607 0b71 0100     		.2byte	0x1
 12608 0b73 54       		.byte	0x54
 12609 0b74 B6000000 		.4byte	.LVL198
 12610 0b78 D8000000 		.4byte	.LVL202
 12611 0b7c 0400     		.2byte	0x4
 12612 0b7e F3       		.byte	0xf3
 12613 0b7f 01       		.uleb128 0x1
 12614 0b80 50       		.byte	0x50
 12615 0b81 9F       		.byte	0x9f
ARM GAS  C:\Users\Phuong\AppData\Local\Temp\cc4zbCpa.s 			page 248


 12616 0b82 D8000000 		.4byte	.LVL202
 12617 0b86 F0000000 		.4byte	.LVL205
 12618 0b8a 0100     		.2byte	0x1
 12619 0b8c 54       		.byte	0x54
 12620 0b8d F0000000 		.4byte	.LVL205
 12621 0b91 12010000 		.4byte	.LVL209
 12622 0b95 0400     		.2byte	0x4
 12623 0b97 F3       		.byte	0xf3
 12624 0b98 01       		.uleb128 0x1
 12625 0b99 50       		.byte	0x50
 12626 0b9a 9F       		.byte	0x9f
 12627 0b9b 12010000 		.4byte	.LVL209
 12628 0b9f 2A010000 		.4byte	.LVL212
 12629 0ba3 0100     		.2byte	0x1
 12630 0ba5 54       		.byte	0x54
 12631 0ba6 2A010000 		.4byte	.LVL212
 12632 0baa 4C010000 		.4byte	.LVL216
 12633 0bae 0400     		.2byte	0x4
 12634 0bb0 F3       		.byte	0xf3
 12635 0bb1 01       		.uleb128 0x1
 12636 0bb2 50       		.byte	0x50
 12637 0bb3 9F       		.byte	0x9f
 12638 0bb4 4C010000 		.4byte	.LVL216
 12639 0bb8 62010000 		.4byte	.LVL219
 12640 0bbc 0100     		.2byte	0x1
 12641 0bbe 54       		.byte	0x54
 12642 0bbf 62010000 		.4byte	.LVL219
 12643 0bc3 84010000 		.4byte	.LVL223
 12644 0bc7 0400     		.2byte	0x4
 12645 0bc9 F3       		.byte	0xf3
 12646 0bca 01       		.uleb128 0x1
 12647 0bcb 50       		.byte	0x50
 12648 0bcc 9F       		.byte	0x9f
 12649 0bcd 84010000 		.4byte	.LVL223
 12650 0bd1 9C010000 		.4byte	.LVL226
 12651 0bd5 0100     		.2byte	0x1
 12652 0bd7 54       		.byte	0x54
 12653 0bd8 9C010000 		.4byte	.LVL226
 12654 0bdc BE010000 		.4byte	.LVL230
 12655 0be0 0400     		.2byte	0x4
 12656 0be2 F3       		.byte	0xf3
 12657 0be3 01       		.uleb128 0x1
 12658 0be4 50       		.byte	0x50
 12659 0be5 9F       		.byte	0x9f
 12660 0be6 BE010000 		.4byte	.LVL230
 12661 0bea D6010000 		.4byte	.LVL233
 12662 0bee 0100     		.2byte	0x1
 12663 0bf0 54       		.byte	0x54
 12664 0bf1 D6010000 		.4byte	.LVL233
 12665 0bf5 F8010000 		.4byte	.LVL237
 12666 0bf9 0400     		.2byte	0x4
 12667 0bfb F3       		.byte	0xf3
 12668 0bfc 01       		.uleb128 0x1
 12669 0bfd 50       		.byte	0x50
 12670 0bfe 9F       		.byte	0x9f
 12671 0bff F8010000 		.4byte	.LVL237
 12672 0c03 10020000 		.4byte	.LVL240
ARM GAS  C:\Users\Phuong\AppData\Local\Temp\cc4zbCpa.s 			page 249


 12673 0c07 0100     		.2byte	0x1
 12674 0c09 54       		.byte	0x54
 12675 0c0a 10020000 		.4byte	.LVL240
 12676 0c0e 32020000 		.4byte	.LVL244
 12677 0c12 0400     		.2byte	0x4
 12678 0c14 F3       		.byte	0xf3
 12679 0c15 01       		.uleb128 0x1
 12680 0c16 50       		.byte	0x50
 12681 0c17 9F       		.byte	0x9f
 12682 0c18 32020000 		.4byte	.LVL244
 12683 0c1c 4A020000 		.4byte	.LVL247
 12684 0c20 0100     		.2byte	0x1
 12685 0c22 54       		.byte	0x54
 12686 0c23 4A020000 		.4byte	.LVL247
 12687 0c27 6C020000 		.4byte	.LVL251
 12688 0c2b 0400     		.2byte	0x4
 12689 0c2d F3       		.byte	0xf3
 12690 0c2e 01       		.uleb128 0x1
 12691 0c2f 50       		.byte	0x50
 12692 0c30 9F       		.byte	0x9f
 12693 0c31 6C020000 		.4byte	.LVL251
 12694 0c35 84020000 		.4byte	.LVL254
 12695 0c39 0100     		.2byte	0x1
 12696 0c3b 54       		.byte	0x54
 12697 0c3c 84020000 		.4byte	.LVL254
 12698 0c40 A6020000 		.4byte	.LVL258
 12699 0c44 0400     		.2byte	0x4
 12700 0c46 F3       		.byte	0xf3
 12701 0c47 01       		.uleb128 0x1
 12702 0c48 50       		.byte	0x50
 12703 0c49 9F       		.byte	0x9f
 12704 0c4a A6020000 		.4byte	.LVL258
 12705 0c4e B8020000 		.4byte	.LVL261
 12706 0c52 0100     		.2byte	0x1
 12707 0c54 54       		.byte	0x54
 12708 0c55 B8020000 		.4byte	.LVL261
 12709 0c59 DA020000 		.4byte	.LVL265
 12710 0c5d 0400     		.2byte	0x4
 12711 0c5f F3       		.byte	0xf3
 12712 0c60 01       		.uleb128 0x1
 12713 0c61 50       		.byte	0x50
 12714 0c62 9F       		.byte	0x9f
 12715 0c63 DA020000 		.4byte	.LVL265
 12716 0c67 EC020000 		.4byte	.LVL268
 12717 0c6b 0100     		.2byte	0x1
 12718 0c6d 54       		.byte	0x54
 12719 0c6e EC020000 		.4byte	.LVL268
 12720 0c72 48030000 		.4byte	.LVL272
 12721 0c76 0400     		.2byte	0x4
 12722 0c78 F3       		.byte	0xf3
 12723 0c79 01       		.uleb128 0x1
 12724 0c7a 50       		.byte	0x50
 12725 0c7b 9F       		.byte	0x9f
 12726 0c7c 48030000 		.4byte	.LVL272
 12727 0c80 5A030000 		.4byte	.LVL275
 12728 0c84 0100     		.2byte	0x1
 12729 0c86 54       		.byte	0x54
ARM GAS  C:\Users\Phuong\AppData\Local\Temp\cc4zbCpa.s 			page 250


 12730 0c87 5A030000 		.4byte	.LVL275
 12731 0c8b 90030000 		.4byte	.LFE12
 12732 0c8f 0400     		.2byte	0x4
 12733 0c91 F3       		.byte	0xf3
 12734 0c92 01       		.uleb128 0x1
 12735 0c93 50       		.byte	0x50
 12736 0c94 9F       		.byte	0x9f
 12737 0c95 00000000 		.4byte	0
 12738 0c99 00000000 		.4byte	0
 12739              	.LLST39:
 12740 0c9d 0E000000 		.4byte	.LVL176
 12741 0ca1 26000000 		.4byte	.LVL177
 12742 0ca5 0100     		.2byte	0x1
 12743 0ca7 50       		.byte	0x50
 12744 0ca8 26000000 		.4byte	.LVL177
 12745 0cac 2C000000 		.4byte	.LVL179
 12746 0cb0 0100     		.2byte	0x1
 12747 0cb2 54       		.byte	0x54
 12748 0cb3 7C030000 		.4byte	.LVL279
 12749 0cb7 7E030000 		.4byte	.LVL280
 12750 0cbb 0100     		.2byte	0x1
 12751 0cbd 50       		.byte	0x50
 12752 0cbe 00000000 		.4byte	0
 12753 0cc2 00000000 		.4byte	0
 12754              	.LLST40:
 12755 0cc6 3C000000 		.4byte	.LVL184
 12756 0cca 54000000 		.4byte	.LVL185
 12757 0cce 0100     		.2byte	0x1
 12758 0cd0 50       		.byte	0x50
 12759 0cd1 54000000 		.4byte	.LVL185
 12760 0cd5 58000000 		.4byte	.LVL187
 12761 0cd9 0100     		.2byte	0x1
 12762 0cdb 54       		.byte	0x54
 12763 0cdc 00000000 		.4byte	0
 12764 0ce0 00000000 		.4byte	0
 12765              	.LLST41:
 12766 0ce4 7C000000 		.4byte	.LVL191
 12767 0ce8 92000000 		.4byte	.LVL192
 12768 0cec 0100     		.2byte	0x1
 12769 0cee 50       		.byte	0x50
 12770 0cef 92000000 		.4byte	.LVL192
 12771 0cf3 9E000000 		.4byte	.LVL195
 12772 0cf7 0100     		.2byte	0x1
 12773 0cf9 54       		.byte	0x54
 12774 0cfa 00000000 		.4byte	0
 12775 0cfe 00000000 		.4byte	0
 12776              	.LLST42:
 12777 0d02 B6000000 		.4byte	.LVL198
 12778 0d06 CC000000 		.4byte	.LVL199
 12779 0d0a 0100     		.2byte	0x1
 12780 0d0c 50       		.byte	0x50
 12781 0d0d CC000000 		.4byte	.LVL199
 12782 0d11 D8000000 		.4byte	.LVL202
 12783 0d15 0100     		.2byte	0x1
 12784 0d17 54       		.byte	0x54
 12785 0d18 00000000 		.4byte	0
 12786 0d1c 00000000 		.4byte	0
ARM GAS  C:\Users\Phuong\AppData\Local\Temp\cc4zbCpa.s 			page 251


 12787              	.LLST43:
 12788 0d20 F0000000 		.4byte	.LVL205
 12789 0d24 06010000 		.4byte	.LVL206
 12790 0d28 0100     		.2byte	0x1
 12791 0d2a 50       		.byte	0x50
 12792 0d2b 06010000 		.4byte	.LVL206
 12793 0d2f 12010000 		.4byte	.LVL209
 12794 0d33 0100     		.2byte	0x1
 12795 0d35 54       		.byte	0x54
 12796 0d36 00000000 		.4byte	0
 12797 0d3a 00000000 		.4byte	0
 12798              	.LLST44:
 12799 0d3e 2A010000 		.4byte	.LVL212
 12800 0d42 40010000 		.4byte	.LVL213
 12801 0d46 0100     		.2byte	0x1
 12802 0d48 50       		.byte	0x50
 12803 0d49 40010000 		.4byte	.LVL213
 12804 0d4d 4C010000 		.4byte	.LVL216
 12805 0d51 0100     		.2byte	0x1
 12806 0d53 54       		.byte	0x54
 12807 0d54 00000000 		.4byte	0
 12808 0d58 00000000 		.4byte	0
 12809              	.LLST45:
 12810 0d5c 62010000 		.4byte	.LVL219
 12811 0d60 78010000 		.4byte	.LVL220
 12812 0d64 0100     		.2byte	0x1
 12813 0d66 50       		.byte	0x50
 12814 0d67 78010000 		.4byte	.LVL220
 12815 0d6b 84010000 		.4byte	.LVL223
 12816 0d6f 0100     		.2byte	0x1
 12817 0d71 54       		.byte	0x54
 12818 0d72 00000000 		.4byte	0
 12819 0d76 00000000 		.4byte	0
 12820              	.LLST46:
 12821 0d7a 9C010000 		.4byte	.LVL226
 12822 0d7e B2010000 		.4byte	.LVL227
 12823 0d82 0100     		.2byte	0x1
 12824 0d84 50       		.byte	0x50
 12825 0d85 B2010000 		.4byte	.LVL227
 12826 0d89 BE010000 		.4byte	.LVL230
 12827 0d8d 0100     		.2byte	0x1
 12828 0d8f 54       		.byte	0x54
 12829 0d90 00000000 		.4byte	0
 12830 0d94 00000000 		.4byte	0
 12831              	.LLST47:
 12832 0d98 D6010000 		.4byte	.LVL233
 12833 0d9c EC010000 		.4byte	.LVL234
 12834 0da0 0100     		.2byte	0x1
 12835 0da2 50       		.byte	0x50
 12836 0da3 EC010000 		.4byte	.LVL234
 12837 0da7 F8010000 		.4byte	.LVL237
 12838 0dab 0100     		.2byte	0x1
 12839 0dad 54       		.byte	0x54
 12840 0dae 00000000 		.4byte	0
 12841 0db2 00000000 		.4byte	0
 12842              	.LLST48:
 12843 0db6 10020000 		.4byte	.LVL240
ARM GAS  C:\Users\Phuong\AppData\Local\Temp\cc4zbCpa.s 			page 252


 12844 0dba 26020000 		.4byte	.LVL241
 12845 0dbe 0100     		.2byte	0x1
 12846 0dc0 50       		.byte	0x50
 12847 0dc1 26020000 		.4byte	.LVL241
 12848 0dc5 32020000 		.4byte	.LVL244
 12849 0dc9 0100     		.2byte	0x1
 12850 0dcb 54       		.byte	0x54
 12851 0dcc 00000000 		.4byte	0
 12852 0dd0 00000000 		.4byte	0
 12853              	.LLST49:
 12854 0dd4 4A020000 		.4byte	.LVL247
 12855 0dd8 60020000 		.4byte	.LVL248
 12856 0ddc 0100     		.2byte	0x1
 12857 0dde 50       		.byte	0x50
 12858 0ddf 60020000 		.4byte	.LVL248
 12859 0de3 6C020000 		.4byte	.LVL251
 12860 0de7 0100     		.2byte	0x1
 12861 0de9 54       		.byte	0x54
 12862 0dea 00000000 		.4byte	0
 12863 0dee 00000000 		.4byte	0
 12864              	.LLST50:
 12865 0df2 84020000 		.4byte	.LVL254
 12866 0df6 9A020000 		.4byte	.LVL255
 12867 0dfa 0100     		.2byte	0x1
 12868 0dfc 50       		.byte	0x50
 12869 0dfd 9A020000 		.4byte	.LVL255
 12870 0e01 A6020000 		.4byte	.LVL258
 12871 0e05 0100     		.2byte	0x1
 12872 0e07 54       		.byte	0x54
 12873 0e08 00000000 		.4byte	0
 12874 0e0c 00000000 		.4byte	0
 12875              	.LLST51:
 12876 0e10 B8020000 		.4byte	.LVL261
 12877 0e14 CE020000 		.4byte	.LVL262
 12878 0e18 0100     		.2byte	0x1
 12879 0e1a 50       		.byte	0x50
 12880 0e1b CE020000 		.4byte	.LVL262
 12881 0e1f DA020000 		.4byte	.LVL265
 12882 0e23 0100     		.2byte	0x1
 12883 0e25 54       		.byte	0x54
 12884 0e26 00000000 		.4byte	0
 12885 0e2a 00000000 		.4byte	0
 12886              	.LLST52:
 12887 0e2e EC020000 		.4byte	.LVL268
 12888 0e32 02030000 		.4byte	.LVL269
 12889 0e36 0100     		.2byte	0x1
 12890 0e38 50       		.byte	0x50
 12891 0e39 02030000 		.4byte	.LVL269
 12892 0e3d 48030000 		.4byte	.LVL272
 12893 0e41 0100     		.2byte	0x1
 12894 0e43 54       		.byte	0x54
 12895 0e44 00000000 		.4byte	0
 12896 0e48 00000000 		.4byte	0
 12897              	.LLST53:
 12898 0e4c 5A030000 		.4byte	.LVL275
 12899 0e50 70030000 		.4byte	.LVL276
 12900 0e54 0100     		.2byte	0x1
ARM GAS  C:\Users\Phuong\AppData\Local\Temp\cc4zbCpa.s 			page 253


 12901 0e56 50       		.byte	0x50
 12902 0e57 70030000 		.4byte	.LVL276
 12903 0e5b 7C030000 		.4byte	.LVL279
 12904 0e5f 0100     		.2byte	0x1
 12905 0e61 54       		.byte	0x54
 12906 0e62 00000000 		.4byte	0
 12907 0e66 00000000 		.4byte	0
 12908              	.LLST54:
 12909 0e6a 00000000 		.4byte	.LVL282
 12910 0e6e 19000000 		.4byte	.LVL283-1
 12911 0e72 0100     		.2byte	0x1
 12912 0e74 50       		.byte	0x50
 12913 0e75 19000000 		.4byte	.LVL283-1
 12914 0e79 3E000000 		.4byte	.LVL287
 12915 0e7d 0100     		.2byte	0x1
 12916 0e7f 54       		.byte	0x54
 12917 0e80 3E000000 		.4byte	.LVL287
 12918 0e84 47000000 		.4byte	.LVL289-1
 12919 0e88 0100     		.2byte	0x1
 12920 0e8a 50       		.byte	0x50
 12921 0e8b 47000000 		.4byte	.LVL289-1
 12922 0e8f 6E000000 		.4byte	.LVL294
 12923 0e93 0100     		.2byte	0x1
 12924 0e95 54       		.byte	0x54
 12925 0e96 6E000000 		.4byte	.LVL294
 12926 0e9a 70000000 		.4byte	.LVL295
 12927 0e9e 0100     		.2byte	0x1
 12928 0ea0 50       		.byte	0x50
 12929 0ea1 70000000 		.4byte	.LVL295
 12930 0ea5 8A000000 		.4byte	.LVL303
 12931 0ea9 0100     		.2byte	0x1
 12932 0eab 54       		.byte	0x54
 12933 0eac 8A000000 		.4byte	.LVL303
 12934 0eb0 9C000000 		.4byte	.LFE13
 12935 0eb4 0400     		.2byte	0x4
 12936 0eb6 F3       		.byte	0xf3
 12937 0eb7 01       		.uleb128 0x1
 12938 0eb8 50       		.byte	0x50
 12939 0eb9 9F       		.byte	0x9f
 12940 0eba 00000000 		.4byte	0
 12941 0ebe 00000000 		.4byte	0
 12942              	.LLST55:
 12943 0ec2 00000000 		.4byte	.LVL282
 12944 0ec6 19000000 		.4byte	.LVL283-1
 12945 0eca 0100     		.2byte	0x1
 12946 0ecc 51       		.byte	0x51
 12947 0ecd 19000000 		.4byte	.LVL283-1
 12948 0ed1 3E000000 		.4byte	.LVL287
 12949 0ed5 0100     		.2byte	0x1
 12950 0ed7 55       		.byte	0x55
 12951 0ed8 3E000000 		.4byte	.LVL287
 12952 0edc 47000000 		.4byte	.LVL289-1
 12953 0ee0 0100     		.2byte	0x1
 12954 0ee2 51       		.byte	0x51
 12955 0ee3 47000000 		.4byte	.LVL289-1
 12956 0ee7 4A000000 		.4byte	.LVL290
 12957 0eeb 0100     		.2byte	0x1
ARM GAS  C:\Users\Phuong\AppData\Local\Temp\cc4zbCpa.s 			page 254


 12958 0eed 55       		.byte	0x55
 12959 0eee 4A000000 		.4byte	.LVL290
 12960 0ef2 6E000000 		.4byte	.LVL294
 12961 0ef6 0400     		.2byte	0x4
 12962 0ef8 F3       		.byte	0xf3
 12963 0ef9 01       		.uleb128 0x1
 12964 0efa 51       		.byte	0x51
 12965 0efb 9F       		.byte	0x9f
 12966 0efc 6E000000 		.4byte	.LVL294
 12967 0f00 73000000 		.4byte	.LVL296-1
 12968 0f04 0100     		.2byte	0x1
 12969 0f06 51       		.byte	0x51
 12970 0f07 73000000 		.4byte	.LVL296-1
 12971 0f0b 86000000 		.4byte	.LVL301
 12972 0f0f 0100     		.2byte	0x1
 12973 0f11 55       		.byte	0x55
 12974 0f12 86000000 		.4byte	.LVL301
 12975 0f16 9C000000 		.4byte	.LFE13
 12976 0f1a 0400     		.2byte	0x4
 12977 0f1c F3       		.byte	0xf3
 12978 0f1d 01       		.uleb128 0x1
 12979 0f1e 51       		.byte	0x51
 12980 0f1f 9F       		.byte	0x9f
 12981 0f20 00000000 		.4byte	0
 12982 0f24 00000000 		.4byte	0
 12983              	.LLST56:
 12984 0f28 00000000 		.4byte	.LVL282
 12985 0f2c 19000000 		.4byte	.LVL283-1
 12986 0f30 0100     		.2byte	0x1
 12987 0f32 52       		.byte	0x52
 12988 0f33 19000000 		.4byte	.LVL283-1
 12989 0f37 3E000000 		.4byte	.LVL287
 12990 0f3b 0100     		.2byte	0x1
 12991 0f3d 56       		.byte	0x56
 12992 0f3e 3E000000 		.4byte	.LVL287
 12993 0f42 47000000 		.4byte	.LVL289-1
 12994 0f46 0100     		.2byte	0x1
 12995 0f48 52       		.byte	0x52
 12996 0f49 47000000 		.4byte	.LVL289-1
 12997 0f4d 6E000000 		.4byte	.LVL294
 12998 0f51 0100     		.2byte	0x1
 12999 0f53 56       		.byte	0x56
 13000 0f54 6E000000 		.4byte	.LVL294
 13001 0f58 73000000 		.4byte	.LVL296-1
 13002 0f5c 0100     		.2byte	0x1
 13003 0f5e 52       		.byte	0x52
 13004 0f5f 73000000 		.4byte	.LVL296-1
 13005 0f63 8A000000 		.4byte	.LVL304
 13006 0f67 0100     		.2byte	0x1
 13007 0f69 56       		.byte	0x56
 13008 0f6a 8A000000 		.4byte	.LVL304
 13009 0f6e 9C000000 		.4byte	.LFE13
 13010 0f72 0400     		.2byte	0x4
 13011 0f74 F3       		.byte	0xf3
 13012 0f75 01       		.uleb128 0x1
 13013 0f76 52       		.byte	0x52
 13014 0f77 9F       		.byte	0x9f
ARM GAS  C:\Users\Phuong\AppData\Local\Temp\cc4zbCpa.s 			page 255


 13015 0f78 00000000 		.4byte	0
 13016 0f7c 00000000 		.4byte	0
 13017              	.LLST57:
 13018 0f80 44000000 		.4byte	.LVL288
 13019 0f84 6E000000 		.4byte	.LVL294
 13020 0f88 0200     		.2byte	0x2
 13021 0f8a 31       		.byte	0x31
 13022 0f8b 9F       		.byte	0x9f
 13023 0f8c 7E000000 		.4byte	.LVL298
 13024 0f90 82000000 		.4byte	.LVL299
 13025 0f94 0200     		.2byte	0x2
 13026 0f96 30       		.byte	0x30
 13027 0f97 9F       		.byte	0x9f
 13028 0f98 86000000 		.4byte	.LVL301
 13029 0f9c 88000000 		.4byte	.LVL302
 13030 0fa0 0200     		.2byte	0x2
 13031 0fa2 31       		.byte	0x31
 13032 0fa3 9F       		.byte	0x9f
 13033 0fa4 88000000 		.4byte	.LVL302
 13034 0fa8 9C000000 		.4byte	.LFE13
 13035 0fac 0100     		.2byte	0x1
 13036 0fae 50       		.byte	0x50
 13037 0faf 00000000 		.4byte	0
 13038 0fb3 00000000 		.4byte	0
 13039              	.LLST58:
 13040 0fb7 1C000000 		.4byte	.LVL284
 13041 0fbb 38000000 		.4byte	.LVL285
 13042 0fbf 0100     		.2byte	0x1
 13043 0fc1 50       		.byte	0x50
 13044 0fc2 38000000 		.4byte	.LVL285
 13045 0fc6 3E000000 		.4byte	.LVL287
 13046 0fca 0100     		.2byte	0x1
 13047 0fcc 57       		.byte	0x57
 13048 0fcd 82000000 		.4byte	.LVL299
 13049 0fd1 84000000 		.4byte	.LVL300
 13050 0fd5 0100     		.2byte	0x1
 13051 0fd7 50       		.byte	0x50
 13052 0fd8 84000000 		.4byte	.LVL300
 13053 0fdc 86000000 		.4byte	.LVL301
 13054 0fe0 0100     		.2byte	0x1
 13055 0fe2 57       		.byte	0x57
 13056 0fe3 00000000 		.4byte	0
 13057 0fe7 00000000 		.4byte	0
 13058              	.LLST59:
 13059 0feb 3E000000 		.4byte	.LVL287
 13060 0fef 47000000 		.4byte	.LVL289-1
 13061 0ff3 0100     		.2byte	0x1
 13062 0ff5 50       		.byte	0x50
 13063 0ff6 47000000 		.4byte	.LVL289-1
 13064 0ffa 6E000000 		.4byte	.LVL294
 13065 0ffe 0100     		.2byte	0x1
 13066 1000 54       		.byte	0x54
 13067 1001 6E000000 		.4byte	.LVL294
 13068 1005 70000000 		.4byte	.LVL295
 13069 1009 0100     		.2byte	0x1
 13070 100b 50       		.byte	0x50
 13071 100c 70000000 		.4byte	.LVL295
ARM GAS  C:\Users\Phuong\AppData\Local\Temp\cc4zbCpa.s 			page 256


 13072 1010 82000000 		.4byte	.LVL299
 13073 1014 0100     		.2byte	0x1
 13074 1016 54       		.byte	0x54
 13075 1017 86000000 		.4byte	.LVL301
 13076 101b 88000000 		.4byte	.LVL302
 13077 101f 0100     		.2byte	0x1
 13078 1021 54       		.byte	0x54
 13079 1022 00000000 		.4byte	0
 13080 1026 00000000 		.4byte	0
 13081              	.LLST60:
 13082 102a 4A000000 		.4byte	.LVL290
 13083 102e 4E000000 		.4byte	.LVL291
 13084 1032 0100     		.2byte	0x1
 13085 1034 50       		.byte	0x50
 13086 1035 4E000000 		.4byte	.LVL291
 13087 1039 6E000000 		.4byte	.LVL294
 13088 103d 0100     		.2byte	0x1
 13089 103f 55       		.byte	0x55
 13090 1040 86000000 		.4byte	.LVL301
 13091 1044 88000000 		.4byte	.LVL302
 13092 1048 0100     		.2byte	0x1
 13093 104a 50       		.byte	0x50
 13094 104b 00000000 		.4byte	0
 13095 104f 00000000 		.4byte	0
 13096              	.LLST61:
 13097 1053 00000000 		.4byte	.LVL305
 13098 1057 0E000000 		.4byte	.LVL307
 13099 105b 0100     		.2byte	0x1
 13100 105d 50       		.byte	0x50
 13101 105e 0E000000 		.4byte	.LVL307
 13102 1062 14000000 		.4byte	.LVL309
 13103 1066 0400     		.2byte	0x4
 13104 1068 F3       		.byte	0xf3
 13105 1069 01       		.uleb128 0x1
 13106 106a 50       		.byte	0x50
 13107 106b 9F       		.byte	0x9f
 13108 106c 14000000 		.4byte	.LVL309
 13109 1070 16000000 		.4byte	.LVL310
 13110 1074 0100     		.2byte	0x1
 13111 1076 50       		.byte	0x50
 13112 1077 16000000 		.4byte	.LVL310
 13113 107b 18000000 		.4byte	.LVL311
 13114 107f 0400     		.2byte	0x4
 13115 1081 F3       		.byte	0xf3
 13116 1082 01       		.uleb128 0x1
 13117 1083 50       		.byte	0x50
 13118 1084 9F       		.byte	0x9f
 13119 1085 18000000 		.4byte	.LVL311
 13120 1089 1A000000 		.4byte	.LVL312
 13121 108d 0100     		.2byte	0x1
 13122 108f 50       		.byte	0x50
 13123 1090 1A000000 		.4byte	.LVL312
 13124 1094 1C000000 		.4byte	.LFE14
 13125 1098 0400     		.2byte	0x4
 13126 109a F3       		.byte	0xf3
 13127 109b 01       		.uleb128 0x1
 13128 109c 50       		.byte	0x50
ARM GAS  C:\Users\Phuong\AppData\Local\Temp\cc4zbCpa.s 			page 257


 13129 109d 9F       		.byte	0x9f
 13130 109e 00000000 		.4byte	0
 13131 10a2 00000000 		.4byte	0
 13132              	.LLST62:
 13133 10a6 12000000 		.4byte	.LVL308
 13134 10aa 14000000 		.4byte	.LVL309
 13135 10ae 0100     		.2byte	0x1
 13136 10b0 50       		.byte	0x50
 13137 10b1 1A000000 		.4byte	.LVL312
 13138 10b5 1C000000 		.4byte	.LFE14
 13139 10b9 0100     		.2byte	0x1
 13140 10bb 50       		.byte	0x50
 13141 10bc 00000000 		.4byte	0
 13142 10c0 00000000 		.4byte	0
 13143              	.LLST63:
 13144 10c4 06000000 		.4byte	.LVL306
 13145 10c8 0E000000 		.4byte	.LVL307
 13146 10cc 0100     		.2byte	0x1
 13147 10ce 50       		.byte	0x50
 13148 10cf 0E000000 		.4byte	.LVL307
 13149 10d3 14000000 		.4byte	.LVL309
 13150 10d7 0400     		.2byte	0x4
 13151 10d9 F3       		.byte	0xf3
 13152 10da 01       		.uleb128 0x1
 13153 10db 50       		.byte	0x50
 13154 10dc 9F       		.byte	0x9f
 13155 10dd 18000000 		.4byte	.LVL311
 13156 10e1 1A000000 		.4byte	.LVL312
 13157 10e5 0100     		.2byte	0x1
 13158 10e7 50       		.byte	0x50
 13159 10e8 00000000 		.4byte	0
 13160 10ec 00000000 		.4byte	0
 13161              	.LLST64:
 13162 10f0 00000000 		.4byte	.LVL313
 13163 10f4 06000000 		.4byte	.LVL315
 13164 10f8 0100     		.2byte	0x1
 13165 10fa 50       		.byte	0x50
 13166 10fb 06000000 		.4byte	.LVL315
 13167 10ff 08000000 		.4byte	.LVL316
 13168 1103 0400     		.2byte	0x4
 13169 1105 F3       		.byte	0xf3
 13170 1106 01       		.uleb128 0x1
 13171 1107 50       		.byte	0x50
 13172 1108 9F       		.byte	0x9f
 13173 1109 08000000 		.4byte	.LVL316
 13174 110d 0A000000 		.4byte	.LVL317
 13175 1111 0100     		.2byte	0x1
 13176 1113 50       		.byte	0x50
 13177 1114 0A000000 		.4byte	.LVL317
 13178 1118 0C000000 		.4byte	.LFE15
 13179 111c 0400     		.2byte	0x4
 13180 111e F3       		.byte	0xf3
 13181 111f 01       		.uleb128 0x1
 13182 1120 50       		.byte	0x50
 13183 1121 9F       		.byte	0x9f
 13184 1122 00000000 		.4byte	0
 13185 1126 00000000 		.4byte	0
ARM GAS  C:\Users\Phuong\AppData\Local\Temp\cc4zbCpa.s 			page 258


 13186              	.LLST65:
 13187 112a 06000000 		.4byte	.LVL315
 13188 112e 08000000 		.4byte	.LVL316
 13189 1132 0100     		.2byte	0x1
 13190 1134 50       		.byte	0x50
 13191 1135 0A000000 		.4byte	.LVL317
 13192 1139 0C000000 		.4byte	.LFE15
 13193 113d 0100     		.2byte	0x1
 13194 113f 50       		.byte	0x50
 13195 1140 00000000 		.4byte	0
 13196 1144 00000000 		.4byte	0
 13197              	.LLST66:
 13198 1148 04000000 		.4byte	.LVL314
 13199 114c 06000000 		.4byte	.LVL315
 13200 1150 0100     		.2byte	0x1
 13201 1152 50       		.byte	0x50
 13202 1153 06000000 		.4byte	.LVL315
 13203 1157 08000000 		.4byte	.LVL316
 13204 115b 0400     		.2byte	0x4
 13205 115d F3       		.byte	0xf3
 13206 115e 01       		.uleb128 0x1
 13207 115f 50       		.byte	0x50
 13208 1160 9F       		.byte	0x9f
 13209 1161 00000000 		.4byte	0
 13210 1165 00000000 		.4byte	0
 13211              	.LLST67:
 13212 1169 00000000 		.4byte	.LVL318
 13213 116d 0B000000 		.4byte	.LVL319-1
 13214 1171 0100     		.2byte	0x1
 13215 1173 50       		.byte	0x50
 13216 1174 0B000000 		.4byte	.LVL319-1
 13217 1178 2A000000 		.4byte	.LVL323
 13218 117c 0400     		.2byte	0x4
 13219 117e F3       		.byte	0xf3
 13220 117f 01       		.uleb128 0x1
 13221 1180 50       		.byte	0x50
 13222 1181 9F       		.byte	0x9f
 13223 1182 2A000000 		.4byte	.LVL323
 13224 1186 2C000000 		.4byte	.LVL324
 13225 118a 0100     		.2byte	0x1
 13226 118c 50       		.byte	0x50
 13227 118d 2C000000 		.4byte	.LVL324
 13228 1191 40000000 		.4byte	.LFE16
 13229 1195 0400     		.2byte	0x4
 13230 1197 F3       		.byte	0xf3
 13231 1198 01       		.uleb128 0x1
 13232 1199 50       		.byte	0x50
 13233 119a 9F       		.byte	0x9f
 13234 119b 00000000 		.4byte	0
 13235 119f 00000000 		.4byte	0
 13236              	.LLST68:
 13237 11a3 2C000000 		.4byte	.LVL324
 13238 11a7 2E000000 		.4byte	.LVL325
 13239 11ab 0100     		.2byte	0x1
 13240 11ad 50       		.byte	0x50
 13241 11ae 30000000 		.4byte	.LVL326
 13242 11b2 40000000 		.4byte	.LFE16
ARM GAS  C:\Users\Phuong\AppData\Local\Temp\cc4zbCpa.s 			page 259


 13243 11b6 0100     		.2byte	0x1
 13244 11b8 50       		.byte	0x50
 13245 11b9 00000000 		.4byte	0
 13246 11bd 00000000 		.4byte	0
 13247              	.LLST69:
 13248 11c1 0E000000 		.4byte	.LVL320
 13249 11c5 24000000 		.4byte	.LVL321
 13250 11c9 0100     		.2byte	0x1
 13251 11cb 50       		.byte	0x50
 13252 11cc 24000000 		.4byte	.LVL321
 13253 11d0 2A000000 		.4byte	.LVL323
 13254 11d4 0100     		.2byte	0x1
 13255 11d6 54       		.byte	0x54
 13256 11d7 2E000000 		.4byte	.LVL325
 13257 11db 30000000 		.4byte	.LVL326
 13258 11df 0100     		.2byte	0x1
 13259 11e1 50       		.byte	0x50
 13260 11e2 00000000 		.4byte	0
 13261 11e6 00000000 		.4byte	0
 13262              	.LLST70:
 13263 11ea 2A000000 		.4byte	.LVL323
 13264 11ee 2C000000 		.4byte	.LVL324
 13265 11f2 0100     		.2byte	0x1
 13266 11f4 50       		.byte	0x50
 13267 11f5 2C000000 		.4byte	.LVL324
 13268 11f9 2E000000 		.4byte	.LVL325
 13269 11fd 0400     		.2byte	0x4
 13270 11ff F3       		.byte	0xf3
 13271 1200 01       		.uleb128 0x1
 13272 1201 50       		.byte	0x50
 13273 1202 9F       		.byte	0x9f
 13274 1203 00000000 		.4byte	0
 13275 1207 00000000 		.4byte	0
 13276              	.LLST71:
 13277 120b 00000000 		.4byte	.LVL327
 13278 120f 19000000 		.4byte	.LVL328-1
 13279 1213 0100     		.2byte	0x1
 13280 1215 50       		.byte	0x50
 13281 1216 19000000 		.4byte	.LVL328-1
 13282 121a 3E000000 		.4byte	.LVL332
 13283 121e 0100     		.2byte	0x1
 13284 1220 54       		.byte	0x54
 13285 1221 3E000000 		.4byte	.LVL332
 13286 1225 40000000 		.4byte	.LVL333
 13287 1229 0100     		.2byte	0x1
 13288 122b 50       		.byte	0x50
 13289 122c 40000000 		.4byte	.LVL333
 13290 1230 4E000000 		.4byte	.LVL336
 13291 1234 0100     		.2byte	0x1
 13292 1236 54       		.byte	0x54
 13293 1237 4E000000 		.4byte	.LVL336
 13294 123b 6A000000 		.4byte	.LVL339
 13295 123f 0400     		.2byte	0x4
 13296 1241 F3       		.byte	0xf3
 13297 1242 01       		.uleb128 0x1
 13298 1243 50       		.byte	0x50
 13299 1244 9F       		.byte	0x9f
ARM GAS  C:\Users\Phuong\AppData\Local\Temp\cc4zbCpa.s 			page 260


 13300 1245 6A000000 		.4byte	.LVL339
 13301 1249 72000000 		.4byte	.LVL342
 13302 124d 0100     		.2byte	0x1
 13303 124f 54       		.byte	0x54
 13304 1250 72000000 		.4byte	.LVL342
 13305 1254 88000000 		.4byte	.LFE17
 13306 1258 0400     		.2byte	0x4
 13307 125a F3       		.byte	0xf3
 13308 125b 01       		.uleb128 0x1
 13309 125c 50       		.byte	0x50
 13310 125d 9F       		.byte	0x9f
 13311 125e 00000000 		.4byte	0
 13312 1262 00000000 		.4byte	0
 13313              	.LLST72:
 13314 1266 00000000 		.4byte	.LVL327
 13315 126a 19000000 		.4byte	.LVL328-1
 13316 126e 0100     		.2byte	0x1
 13317 1270 51       		.byte	0x51
 13318 1271 19000000 		.4byte	.LVL328-1
 13319 1275 3E000000 		.4byte	.LVL332
 13320 1279 0100     		.2byte	0x1
 13321 127b 55       		.byte	0x55
 13322 127c 3E000000 		.4byte	.LVL332
 13323 1280 43000000 		.4byte	.LVL334-1
 13324 1284 0100     		.2byte	0x1
 13325 1286 51       		.byte	0x51
 13326 1287 43000000 		.4byte	.LVL334-1
 13327 128b 76000000 		.4byte	.LVL344
 13328 128f 0100     		.2byte	0x1
 13329 1291 55       		.byte	0x55
 13330 1292 76000000 		.4byte	.LVL344
 13331 1296 88000000 		.4byte	.LFE17
 13332 129a 0400     		.2byte	0x4
 13333 129c F3       		.byte	0xf3
 13334 129d 01       		.uleb128 0x1
 13335 129e 51       		.byte	0x51
 13336 129f 9F       		.byte	0x9f
 13337 12a0 00000000 		.4byte	0
 13338 12a4 00000000 		.4byte	0
 13339              	.LLST73:
 13340 12a8 00000000 		.4byte	.LVL327
 13341 12ac 19000000 		.4byte	.LVL328-1
 13342 12b0 0100     		.2byte	0x1
 13343 12b2 52       		.byte	0x52
 13344 12b3 19000000 		.4byte	.LVL328-1
 13345 12b7 3E000000 		.4byte	.LVL332
 13346 12bb 0100     		.2byte	0x1
 13347 12bd 56       		.byte	0x56
 13348 12be 3E000000 		.4byte	.LVL332
 13349 12c2 43000000 		.4byte	.LVL334-1
 13350 12c6 0100     		.2byte	0x1
 13351 12c8 52       		.byte	0x52
 13352 12c9 43000000 		.4byte	.LVL334-1
 13353 12cd 76000000 		.4byte	.LVL345
 13354 12d1 0100     		.2byte	0x1
 13355 12d3 56       		.byte	0x56
 13356 12d4 76000000 		.4byte	.LVL345
ARM GAS  C:\Users\Phuong\AppData\Local\Temp\cc4zbCpa.s 			page 261


 13357 12d8 88000000 		.4byte	.LFE17
 13358 12dc 0400     		.2byte	0x4
 13359 12de F3       		.byte	0xf3
 13360 12df 01       		.uleb128 0x1
 13361 12e0 52       		.byte	0x52
 13362 12e1 9F       		.byte	0x9f
 13363 12e2 00000000 		.4byte	0
 13364 12e6 00000000 		.4byte	0
 13365              	.LLST74:
 13366 12ea 1C000000 		.4byte	.LVL329
 13367 12ee 38000000 		.4byte	.LVL330
 13368 12f2 0100     		.2byte	0x1
 13369 12f4 50       		.byte	0x50
 13370 12f5 38000000 		.4byte	.LVL330
 13371 12f9 3E000000 		.4byte	.LVL332
 13372 12fd 0100     		.2byte	0x1
 13373 12ff 57       		.byte	0x57
 13374 1300 6A000000 		.4byte	.LVL339
 13375 1304 6C000000 		.4byte	.LVL340
 13376 1308 0100     		.2byte	0x1
 13377 130a 50       		.byte	0x50
 13378 130b 6C000000 		.4byte	.LVL340
 13379 130f 6E000000 		.4byte	.LVL341
 13380 1313 0100     		.2byte	0x1
 13381 1315 57       		.byte	0x57
 13382 1316 00000000 		.4byte	0
 13383 131a 00000000 		.4byte	0
 13384              	.LLST75:
 13385 131e 4E000000 		.4byte	.LVL336
 13386 1322 64000000 		.4byte	.LVL337
 13387 1326 0100     		.2byte	0x1
 13388 1328 50       		.byte	0x50
 13389 1329 64000000 		.4byte	.LVL337
 13390 132d 6A000000 		.4byte	.LVL339
 13391 1331 0100     		.2byte	0x1
 13392 1333 54       		.byte	0x54
 13393 1334 72000000 		.4byte	.LVL342
 13394 1338 74000000 		.4byte	.LVL343
 13395 133c 0100     		.2byte	0x1
 13396 133e 50       		.byte	0x50
 13397 133f 00000000 		.4byte	0
 13398 1343 00000000 		.4byte	0
 13399              	.LLST76:
 13400 1347 00000000 		.4byte	.LVL346
 13401 134b 13000000 		.4byte	.LVL347-1
 13402 134f 0100     		.2byte	0x1
 13403 1351 50       		.byte	0x50
 13404 1352 13000000 		.4byte	.LVL347-1
 13405 1356 36000000 		.4byte	.LVL351
 13406 135a 0100     		.2byte	0x1
 13407 135c 54       		.byte	0x54
 13408 135d 36000000 		.4byte	.LVL351
 13409 1361 40000000 		.4byte	.LVL352
 13410 1365 0100     		.2byte	0x1
 13411 1367 50       		.byte	0x50
 13412 1368 40000000 		.4byte	.LVL352
 13413 136c 68000000 		.4byte	.LVL359
ARM GAS  C:\Users\Phuong\AppData\Local\Temp\cc4zbCpa.s 			page 262


 13414 1370 0100     		.2byte	0x1
 13415 1372 54       		.byte	0x54
 13416 1373 68000000 		.4byte	.LVL359
 13417 1377 78000000 		.4byte	.LFE18
 13418 137b 0400     		.2byte	0x4
 13419 137d F3       		.byte	0xf3
 13420 137e 01       		.uleb128 0x1
 13421 137f 50       		.byte	0x50
 13422 1380 9F       		.byte	0x9f
 13423 1381 00000000 		.4byte	0
 13424 1385 00000000 		.4byte	0
 13425              	.LLST77:
 13426 1389 00000000 		.4byte	.LVL346
 13427 138d 13000000 		.4byte	.LVL347-1
 13428 1391 0100     		.2byte	0x1
 13429 1393 51       		.byte	0x51
 13430 1394 13000000 		.4byte	.LVL347-1
 13431 1398 36000000 		.4byte	.LVL351
 13432 139c 0100     		.2byte	0x1
 13433 139e 55       		.byte	0x55
 13434 139f 36000000 		.4byte	.LVL351
 13435 13a3 43000000 		.4byte	.LVL353-1
 13436 13a7 0100     		.2byte	0x1
 13437 13a9 51       		.byte	0x51
 13438 13aa 43000000 		.4byte	.LVL353-1
 13439 13ae 68000000 		.4byte	.LVL360
 13440 13b2 0100     		.2byte	0x1
 13441 13b4 55       		.byte	0x55
 13442 13b5 68000000 		.4byte	.LVL360
 13443 13b9 78000000 		.4byte	.LFE18
 13444 13bd 0400     		.2byte	0x4
 13445 13bf F3       		.byte	0xf3
 13446 13c0 01       		.uleb128 0x1
 13447 13c1 51       		.byte	0x51
 13448 13c2 9F       		.byte	0x9f
 13449 13c3 00000000 		.4byte	0
 13450 13c7 00000000 		.4byte	0
 13451              	.LLST78:
 13452 13cb 5A000000 		.4byte	.LVL354
 13453 13cf 5C000000 		.4byte	.LVL355
 13454 13d3 0100     		.2byte	0x1
 13455 13d5 50       		.byte	0x50
 13456 13d6 62000000 		.4byte	.LVL356
 13457 13da 64000000 		.4byte	.LVL357
 13458 13de 0200     		.2byte	0x2
 13459 13e0 30       		.byte	0x30
 13460 13e1 9F       		.byte	0x9f
 13461 13e2 66000000 		.4byte	.LVL358
 13462 13e6 78000000 		.4byte	.LFE18
 13463 13ea 0100     		.2byte	0x1
 13464 13ec 50       		.byte	0x50
 13465 13ed 00000000 		.4byte	0
 13466 13f1 00000000 		.4byte	0
 13467              	.LLST79:
 13468 13f5 16000000 		.4byte	.LVL348
 13469 13f9 30000000 		.4byte	.LVL349
 13470 13fd 0100     		.2byte	0x1
ARM GAS  C:\Users\Phuong\AppData\Local\Temp\cc4zbCpa.s 			page 263


 13471 13ff 50       		.byte	0x50
 13472 1400 30000000 		.4byte	.LVL349
 13473 1404 36000000 		.4byte	.LVL351
 13474 1408 0100     		.2byte	0x1
 13475 140a 56       		.byte	0x56
 13476 140b 64000000 		.4byte	.LVL357
 13477 140f 66000000 		.4byte	.LVL358
 13478 1413 0100     		.2byte	0x1
 13479 1415 50       		.byte	0x50
 13480 1416 00000000 		.4byte	0
 13481 141a 00000000 		.4byte	0
 13482              	.LLST80:
 13483 141e 00000000 		.4byte	.LVL361
 13484 1422 0B000000 		.4byte	.LVL362-1
 13485 1426 0100     		.2byte	0x1
 13486 1428 50       		.byte	0x50
 13487 1429 0B000000 		.4byte	.LVL362-1
 13488 142d 28000000 		.4byte	.LVL366
 13489 1431 0400     		.2byte	0x4
 13490 1433 F3       		.byte	0xf3
 13491 1434 01       		.uleb128 0x1
 13492 1435 50       		.byte	0x50
 13493 1436 9F       		.byte	0x9f
 13494 1437 28000000 		.4byte	.LVL366
 13495 143b 2A000000 		.4byte	.LVL367
 13496 143f 0100     		.2byte	0x1
 13497 1441 50       		.byte	0x50
 13498 1442 2A000000 		.4byte	.LVL367
 13499 1446 44000000 		.4byte	.LFE19
 13500 144a 0400     		.2byte	0x4
 13501 144c F3       		.byte	0xf3
 13502 144d 01       		.uleb128 0x1
 13503 144e 50       		.byte	0x50
 13504 144f 9F       		.byte	0x9f
 13505 1450 00000000 		.4byte	0
 13506 1454 00000000 		.4byte	0
 13507              	.LLST81:
 13508 1458 2A000000 		.4byte	.LVL367
 13509 145c 2C000000 		.4byte	.LVL368
 13510 1460 0100     		.2byte	0x1
 13511 1462 50       		.byte	0x50
 13512 1463 2E000000 		.4byte	.LVL369
 13513 1467 44000000 		.4byte	.LFE19
 13514 146b 0100     		.2byte	0x1
 13515 146d 50       		.byte	0x50
 13516 146e 00000000 		.4byte	0
 13517 1472 00000000 		.4byte	0
 13518              	.LLST82:
 13519 1476 0E000000 		.4byte	.LVL363
 13520 147a 22000000 		.4byte	.LVL364
 13521 147e 0100     		.2byte	0x1
 13522 1480 50       		.byte	0x50
 13523 1481 22000000 		.4byte	.LVL364
 13524 1485 28000000 		.4byte	.LVL366
 13525 1489 0100     		.2byte	0x1
 13526 148b 54       		.byte	0x54
 13527 148c 2C000000 		.4byte	.LVL368
ARM GAS  C:\Users\Phuong\AppData\Local\Temp\cc4zbCpa.s 			page 264


 13528 1490 2E000000 		.4byte	.LVL369
 13529 1494 0100     		.2byte	0x1
 13530 1496 50       		.byte	0x50
 13531 1497 00000000 		.4byte	0
 13532 149b 00000000 		.4byte	0
 13533              	.LLST83:
 13534 149f 28000000 		.4byte	.LVL366
 13535 14a3 2A000000 		.4byte	.LVL367
 13536 14a7 0100     		.2byte	0x1
 13537 14a9 50       		.byte	0x50
 13538 14aa 2A000000 		.4byte	.LVL367
 13539 14ae 2C000000 		.4byte	.LVL368
 13540 14b2 0400     		.2byte	0x4
 13541 14b4 F3       		.byte	0xf3
 13542 14b5 01       		.uleb128 0x1
 13543 14b6 50       		.byte	0x50
 13544 14b7 9F       		.byte	0x9f
 13545 14b8 00000000 		.4byte	0
 13546 14bc 00000000 		.4byte	0
 13547              	.LLST84:
 13548 14c0 00000000 		.4byte	.LVL370
 13549 14c4 13000000 		.4byte	.LVL371-1
 13550 14c8 0100     		.2byte	0x1
 13551 14ca 50       		.byte	0x50
 13552 14cb 13000000 		.4byte	.LVL371-1
 13553 14cf 16000000 		.4byte	.LVL372
 13554 14d3 0100     		.2byte	0x1
 13555 14d5 54       		.byte	0x54
 13556 14d6 16000000 		.4byte	.LVL372
 13557 14da 30000000 		.4byte	.LVL375
 13558 14de 0400     		.2byte	0x4
 13559 14e0 F3       		.byte	0xf3
 13560 14e1 01       		.uleb128 0x1
 13561 14e2 50       		.byte	0x50
 13562 14e3 9F       		.byte	0x9f
 13563 14e4 30000000 		.4byte	.LVL375
 13564 14e8 32000000 		.4byte	.LVL376
 13565 14ec 0100     		.2byte	0x1
 13566 14ee 50       		.byte	0x50
 13567 14ef 32000000 		.4byte	.LVL376
 13568 14f3 50000000 		.4byte	.LVL379
 13569 14f7 0100     		.2byte	0x1
 13570 14f9 54       		.byte	0x54
 13571 14fa 50000000 		.4byte	.LVL379
 13572 14fe 54000000 		.4byte	.LVL381
 13573 1502 0400     		.2byte	0x4
 13574 1504 F3       		.byte	0xf3
 13575 1505 01       		.uleb128 0x1
 13576 1506 50       		.byte	0x50
 13577 1507 9F       		.byte	0x9f
 13578 1508 54000000 		.4byte	.LVL381
 13579 150c 56000000 		.4byte	.LVL382
 13580 1510 0100     		.2byte	0x1
 13581 1512 54       		.byte	0x54
 13582 1513 56000000 		.4byte	.LVL382
 13583 1517 6C000000 		.4byte	.LFE20
 13584 151b 0400     		.2byte	0x4
ARM GAS  C:\Users\Phuong\AppData\Local\Temp\cc4zbCpa.s 			page 265


 13585 151d F3       		.byte	0xf3
 13586 151e 01       		.uleb128 0x1
 13587 151f 50       		.byte	0x50
 13588 1520 9F       		.byte	0x9f
 13589 1521 00000000 		.4byte	0
 13590 1525 00000000 		.4byte	0
 13591              	.LLST85:
 13592 1529 00000000 		.4byte	.LVL370
 13593 152d 13000000 		.4byte	.LVL371-1
 13594 1531 0100     		.2byte	0x1
 13595 1533 51       		.byte	0x51
 13596 1534 13000000 		.4byte	.LVL371-1
 13597 1538 30000000 		.4byte	.LVL375
 13598 153c 0100     		.2byte	0x1
 13599 153e 55       		.byte	0x55
 13600 153f 30000000 		.4byte	.LVL375
 13601 1543 39000000 		.4byte	.LVL377-1
 13602 1547 0100     		.2byte	0x1
 13603 1549 51       		.byte	0x51
 13604 154a 39000000 		.4byte	.LVL377-1
 13605 154e 58000000 		.4byte	.LVL383
 13606 1552 0100     		.2byte	0x1
 13607 1554 55       		.byte	0x55
 13608 1555 58000000 		.4byte	.LVL383
 13609 1559 6C000000 		.4byte	.LFE20
 13610 155d 0400     		.2byte	0x4
 13611 155f F3       		.byte	0xf3
 13612 1560 01       		.uleb128 0x1
 13613 1561 51       		.byte	0x51
 13614 1562 9F       		.byte	0x9f
 13615 1563 00000000 		.4byte	0
 13616 1567 00000000 		.4byte	0
 13617              	.LLST86:
 13618 156b 16000000 		.4byte	.LVL372
 13619 156f 2A000000 		.4byte	.LVL373
 13620 1573 0100     		.2byte	0x1
 13621 1575 50       		.byte	0x50
 13622 1576 2A000000 		.4byte	.LVL373
 13623 157a 30000000 		.4byte	.LVL375
 13624 157e 0100     		.2byte	0x1
 13625 1580 54       		.byte	0x54
 13626 1581 50000000 		.4byte	.LVL379
 13627 1585 52000000 		.4byte	.LVL380
 13628 1589 0100     		.2byte	0x1
 13629 158b 50       		.byte	0x50
 13630 158c 52000000 		.4byte	.LVL380
 13631 1590 54000000 		.4byte	.LVL381
 13632 1594 0100     		.2byte	0x1
 13633 1596 54       		.byte	0x54
 13634 1597 00000000 		.4byte	0
 13635 159b 00000000 		.4byte	0
 13636              	.LLST87:
 13637 159f 30000000 		.4byte	.LVL375
 13638 15a3 32000000 		.4byte	.LVL376
 13639 15a7 0100     		.2byte	0x1
 13640 15a9 50       		.byte	0x50
 13641 15aa 32000000 		.4byte	.LVL376
ARM GAS  C:\Users\Phuong\AppData\Local\Temp\cc4zbCpa.s 			page 266


 13642 15ae 50000000 		.4byte	.LVL379
 13643 15b2 0100     		.2byte	0x1
 13644 15b4 54       		.byte	0x54
 13645 15b5 54000000 		.4byte	.LVL381
 13646 15b9 56000000 		.4byte	.LVL382
 13647 15bd 0100     		.2byte	0x1
 13648 15bf 54       		.byte	0x54
 13649 15c0 00000000 		.4byte	0
 13650 15c4 00000000 		.4byte	0
 13651              	.LLST88:
 13652 15c8 00000000 		.4byte	.LVL384
 13653 15cc 13000000 		.4byte	.LVL385-1
 13654 15d0 0100     		.2byte	0x1
 13655 15d2 50       		.byte	0x50
 13656 15d3 13000000 		.4byte	.LVL385-1
 13657 15d7 16000000 		.4byte	.LVL386
 13658 15db 0100     		.2byte	0x1
 13659 15dd 54       		.byte	0x54
 13660 15de 16000000 		.4byte	.LVL386
 13661 15e2 32000000 		.4byte	.LVL389
 13662 15e6 0400     		.2byte	0x4
 13663 15e8 F3       		.byte	0xf3
 13664 15e9 01       		.uleb128 0x1
 13665 15ea 50       		.byte	0x50
 13666 15eb 9F       		.byte	0x9f
 13667 15ec 32000000 		.4byte	.LVL389
 13668 15f0 34000000 		.4byte	.LVL390
 13669 15f4 0100     		.2byte	0x1
 13670 15f6 50       		.byte	0x50
 13671 15f7 34000000 		.4byte	.LVL390
 13672 15fb 52000000 		.4byte	.LVL393
 13673 15ff 0100     		.2byte	0x1
 13674 1601 54       		.byte	0x54
 13675 1602 52000000 		.4byte	.LVL393
 13676 1606 56000000 		.4byte	.LVL395
 13677 160a 0400     		.2byte	0x4
 13678 160c F3       		.byte	0xf3
 13679 160d 01       		.uleb128 0x1
 13680 160e 50       		.byte	0x50
 13681 160f 9F       		.byte	0x9f
 13682 1610 56000000 		.4byte	.LVL395
 13683 1614 58000000 		.4byte	.LVL396
 13684 1618 0100     		.2byte	0x1
 13685 161a 54       		.byte	0x54
 13686 161b 58000000 		.4byte	.LVL396
 13687 161f 68000000 		.4byte	.LFE21
 13688 1623 0400     		.2byte	0x4
 13689 1625 F3       		.byte	0xf3
 13690 1626 01       		.uleb128 0x1
 13691 1627 50       		.byte	0x50
 13692 1628 9F       		.byte	0x9f
 13693 1629 00000000 		.4byte	0
 13694 162d 00000000 		.4byte	0
 13695              	.LLST89:
 13696 1631 00000000 		.4byte	.LVL384
 13697 1635 13000000 		.4byte	.LVL385-1
 13698 1639 0100     		.2byte	0x1
ARM GAS  C:\Users\Phuong\AppData\Local\Temp\cc4zbCpa.s 			page 267


 13699 163b 51       		.byte	0x51
 13700 163c 13000000 		.4byte	.LVL385-1
 13701 1640 32000000 		.4byte	.LVL389
 13702 1644 0100     		.2byte	0x1
 13703 1646 55       		.byte	0x55
 13704 1647 32000000 		.4byte	.LVL389
 13705 164b 3B000000 		.4byte	.LVL391-1
 13706 164f 0100     		.2byte	0x1
 13707 1651 51       		.byte	0x51
 13708 1652 3B000000 		.4byte	.LVL391-1
 13709 1656 5A000000 		.4byte	.LVL397
 13710 165a 0100     		.2byte	0x1
 13711 165c 55       		.byte	0x55
 13712 165d 5A000000 		.4byte	.LVL397
 13713 1661 68000000 		.4byte	.LFE21
 13714 1665 0400     		.2byte	0x4
 13715 1667 F3       		.byte	0xf3
 13716 1668 01       		.uleb128 0x1
 13717 1669 51       		.byte	0x51
 13718 166a 9F       		.byte	0x9f
 13719 166b 00000000 		.4byte	0
 13720 166f 00000000 		.4byte	0
 13721              	.LLST90:
 13722 1673 16000000 		.4byte	.LVL386
 13723 1677 2C000000 		.4byte	.LVL387
 13724 167b 0100     		.2byte	0x1
 13725 167d 50       		.byte	0x50
 13726 167e 2C000000 		.4byte	.LVL387
 13727 1682 32000000 		.4byte	.LVL389
 13728 1686 0100     		.2byte	0x1
 13729 1688 54       		.byte	0x54
 13730 1689 52000000 		.4byte	.LVL393
 13731 168d 54000000 		.4byte	.LVL394
 13732 1691 0100     		.2byte	0x1
 13733 1693 50       		.byte	0x50
 13734 1694 54000000 		.4byte	.LVL394
 13735 1698 56000000 		.4byte	.LVL395
 13736 169c 0100     		.2byte	0x1
 13737 169e 54       		.byte	0x54
 13738 169f 00000000 		.4byte	0
 13739 16a3 00000000 		.4byte	0
 13740              	.LLST91:
 13741 16a7 32000000 		.4byte	.LVL389
 13742 16ab 34000000 		.4byte	.LVL390
 13743 16af 0100     		.2byte	0x1
 13744 16b1 50       		.byte	0x50
 13745 16b2 34000000 		.4byte	.LVL390
 13746 16b6 52000000 		.4byte	.LVL393
 13747 16ba 0100     		.2byte	0x1
 13748 16bc 54       		.byte	0x54
 13749 16bd 56000000 		.4byte	.LVL395
 13750 16c1 58000000 		.4byte	.LVL396
 13751 16c5 0100     		.2byte	0x1
 13752 16c7 54       		.byte	0x54
 13753 16c8 00000000 		.4byte	0
 13754 16cc 00000000 		.4byte	0
 13755              	.LLST92:
ARM GAS  C:\Users\Phuong\AppData\Local\Temp\cc4zbCpa.s 			page 268


 13756 16d0 00000000 		.4byte	.LVL398
 13757 16d4 0B000000 		.4byte	.LVL399-1
 13758 16d8 0100     		.2byte	0x1
 13759 16da 50       		.byte	0x50
 13760 16db 0B000000 		.4byte	.LVL399-1
 13761 16df 2A000000 		.4byte	.LVL403
 13762 16e3 0400     		.2byte	0x4
 13763 16e5 F3       		.byte	0xf3
 13764 16e6 01       		.uleb128 0x1
 13765 16e7 50       		.byte	0x50
 13766 16e8 9F       		.byte	0x9f
 13767 16e9 2A000000 		.4byte	.LVL403
 13768 16ed 2C000000 		.4byte	.LVL404
 13769 16f1 0100     		.2byte	0x1
 13770 16f3 50       		.byte	0x50
 13771 16f4 2C000000 		.4byte	.LVL404
 13772 16f8 40000000 		.4byte	.LFE22
 13773 16fc 0400     		.2byte	0x4
 13774 16fe F3       		.byte	0xf3
 13775 16ff 01       		.uleb128 0x1
 13776 1700 50       		.byte	0x50
 13777 1701 9F       		.byte	0x9f
 13778 1702 00000000 		.4byte	0
 13779 1706 00000000 		.4byte	0
 13780              	.LLST93:
 13781 170a 2C000000 		.4byte	.LVL404
 13782 170e 2E000000 		.4byte	.LVL405
 13783 1712 0100     		.2byte	0x1
 13784 1714 50       		.byte	0x50
 13785 1715 30000000 		.4byte	.LVL406
 13786 1719 40000000 		.4byte	.LFE22
 13787 171d 0100     		.2byte	0x1
 13788 171f 50       		.byte	0x50
 13789 1720 00000000 		.4byte	0
 13790 1724 00000000 		.4byte	0
 13791              	.LLST94:
 13792 1728 0E000000 		.4byte	.LVL400
 13793 172c 24000000 		.4byte	.LVL401
 13794 1730 0100     		.2byte	0x1
 13795 1732 50       		.byte	0x50
 13796 1733 24000000 		.4byte	.LVL401
 13797 1737 2A000000 		.4byte	.LVL403
 13798 173b 0100     		.2byte	0x1
 13799 173d 54       		.byte	0x54
 13800 173e 2E000000 		.4byte	.LVL405
 13801 1742 30000000 		.4byte	.LVL406
 13802 1746 0100     		.2byte	0x1
 13803 1748 50       		.byte	0x50
 13804 1749 00000000 		.4byte	0
 13805 174d 00000000 		.4byte	0
 13806              	.LLST95:
 13807 1751 2A000000 		.4byte	.LVL403
 13808 1755 2C000000 		.4byte	.LVL404
 13809 1759 0100     		.2byte	0x1
 13810 175b 50       		.byte	0x50
 13811 175c 2C000000 		.4byte	.LVL404
 13812 1760 2E000000 		.4byte	.LVL405
ARM GAS  C:\Users\Phuong\AppData\Local\Temp\cc4zbCpa.s 			page 269


 13813 1764 0400     		.2byte	0x4
 13814 1766 F3       		.byte	0xf3
 13815 1767 01       		.uleb128 0x1
 13816 1768 50       		.byte	0x50
 13817 1769 9F       		.byte	0x9f
 13818 176a 00000000 		.4byte	0
 13819 176e 00000000 		.4byte	0
 13820              	.LLST96:
 13821 1772 00000000 		.4byte	.LVL407
 13822 1776 13000000 		.4byte	.LVL408-1
 13823 177a 0100     		.2byte	0x1
 13824 177c 50       		.byte	0x50
 13825 177d 13000000 		.4byte	.LVL408-1
 13826 1781 34000000 		.4byte	.LVL412
 13827 1785 0100     		.2byte	0x1
 13828 1787 54       		.byte	0x54
 13829 1788 34000000 		.4byte	.LVL412
 13830 178c 36000000 		.4byte	.LVL413
 13831 1790 0100     		.2byte	0x1
 13832 1792 50       		.byte	0x50
 13833 1793 36000000 		.4byte	.LVL413
 13834 1797 56000000 		.4byte	.LVL417
 13835 179b 0100     		.2byte	0x1
 13836 179d 54       		.byte	0x54
 13837 179e 56000000 		.4byte	.LVL417
 13838 17a2 70000000 		.4byte	.LVL420
 13839 17a6 0400     		.2byte	0x4
 13840 17a8 F3       		.byte	0xf3
 13841 17a9 01       		.uleb128 0x1
 13842 17aa 50       		.byte	0x50
 13843 17ab 9F       		.byte	0x9f
 13844 17ac 70000000 		.4byte	.LVL420
 13845 17b0 78000000 		.4byte	.LVL423
 13846 17b4 0100     		.2byte	0x1
 13847 17b6 54       		.byte	0x54
 13848 17b7 78000000 		.4byte	.LVL423
 13849 17bb 98000000 		.4byte	.LFE23
 13850 17bf 0400     		.2byte	0x4
 13851 17c1 F3       		.byte	0xf3
 13852 17c2 01       		.uleb128 0x1
 13853 17c3 50       		.byte	0x50
 13854 17c4 9F       		.byte	0x9f
 13855 17c5 00000000 		.4byte	0
 13856 17c9 00000000 		.4byte	0
 13857              	.LLST97:
 13858 17cd 00000000 		.4byte	.LVL407
 13859 17d1 13000000 		.4byte	.LVL408-1
 13860 17d5 0100     		.2byte	0x1
 13861 17d7 51       		.byte	0x51
 13862 17d8 13000000 		.4byte	.LVL408-1
 13863 17dc 34000000 		.4byte	.LVL412
 13864 17e0 0100     		.2byte	0x1
 13865 17e2 55       		.byte	0x55
 13866 17e3 34000000 		.4byte	.LVL412
 13867 17e7 3D000000 		.4byte	.LVL414-1
 13868 17eb 0100     		.2byte	0x1
 13869 17ed 51       		.byte	0x51
ARM GAS  C:\Users\Phuong\AppData\Local\Temp\cc4zbCpa.s 			page 270


 13870 17ee 3D000000 		.4byte	.LVL414-1
 13871 17f2 7C000000 		.4byte	.LVL425
 13872 17f6 0100     		.2byte	0x1
 13873 17f8 55       		.byte	0x55
 13874 17f9 7C000000 		.4byte	.LVL425
 13875 17fd 98000000 		.4byte	.LFE23
 13876 1801 0400     		.2byte	0x4
 13877 1803 F3       		.byte	0xf3
 13878 1804 01       		.uleb128 0x1
 13879 1805 51       		.byte	0x51
 13880 1806 9F       		.byte	0x9f
 13881 1807 00000000 		.4byte	0
 13882 180b 00000000 		.4byte	0
 13883              	.LLST98:
 13884 180f 16000000 		.4byte	.LVL409
 13885 1813 2E000000 		.4byte	.LVL410
 13886 1817 0100     		.2byte	0x1
 13887 1819 50       		.byte	0x50
 13888 181a 2E000000 		.4byte	.LVL410
 13889 181e 34000000 		.4byte	.LVL412
 13890 1822 0100     		.2byte	0x1
 13891 1824 56       		.byte	0x56
 13892 1825 70000000 		.4byte	.LVL420
 13893 1829 72000000 		.4byte	.LVL421
 13894 182d 0100     		.2byte	0x1
 13895 182f 50       		.byte	0x50
 13896 1830 72000000 		.4byte	.LVL421
 13897 1834 74000000 		.4byte	.LVL422
 13898 1838 0100     		.2byte	0x1
 13899 183a 56       		.byte	0x56
 13900 183b 00000000 		.4byte	0
 13901 183f 00000000 		.4byte	0
 13902              	.LLST99:
 13903 1843 34000000 		.4byte	.LVL412
 13904 1847 36000000 		.4byte	.LVL413
 13905 184b 0100     		.2byte	0x1
 13906 184d 50       		.byte	0x50
 13907 184e 36000000 		.4byte	.LVL413
 13908 1852 56000000 		.4byte	.LVL417
 13909 1856 0100     		.2byte	0x1
 13910 1858 54       		.byte	0x54
 13911 1859 56000000 		.4byte	.LVL417
 13912 185d 70000000 		.4byte	.LVL420
 13913 1861 0400     		.2byte	0x4
 13914 1863 F3       		.byte	0xf3
 13915 1864 01       		.uleb128 0x1
 13916 1865 50       		.byte	0x50
 13917 1866 9F       		.byte	0x9f
 13918 1867 74000000 		.4byte	.LVL422
 13919 186b 78000000 		.4byte	.LVL423
 13920 186f 0100     		.2byte	0x1
 13921 1871 54       		.byte	0x54
 13922 1872 78000000 		.4byte	.LVL423
 13923 1876 7A000000 		.4byte	.LVL424
 13924 187a 0400     		.2byte	0x4
 13925 187c F3       		.byte	0xf3
 13926 187d 01       		.uleb128 0x1
ARM GAS  C:\Users\Phuong\AppData\Local\Temp\cc4zbCpa.s 			page 271


 13927 187e 50       		.byte	0x50
 13928 187f 9F       		.byte	0x9f
 13929 1880 00000000 		.4byte	0
 13930 1884 00000000 		.4byte	0
 13931              	.LLST100:
 13932 1888 56000000 		.4byte	.LVL417
 13933 188c 6A000000 		.4byte	.LVL418
 13934 1890 0100     		.2byte	0x1
 13935 1892 50       		.byte	0x50
 13936 1893 6A000000 		.4byte	.LVL418
 13937 1897 70000000 		.4byte	.LVL420
 13938 189b 0100     		.2byte	0x1
 13939 189d 54       		.byte	0x54
 13940 189e 78000000 		.4byte	.LVL423
 13941 18a2 7A000000 		.4byte	.LVL424
 13942 18a6 0100     		.2byte	0x1
 13943 18a8 50       		.byte	0x50
 13944 18a9 00000000 		.4byte	0
 13945 18ad 00000000 		.4byte	0
 13946              	.LLST101:
 13947 18b1 00000000 		.4byte	.LVL426
 13948 18b5 0B000000 		.4byte	.LVL427-1
 13949 18b9 0100     		.2byte	0x1
 13950 18bb 50       		.byte	0x50
 13951 18bc 0B000000 		.4byte	.LVL427-1
 13952 18c0 2A000000 		.4byte	.LVL431
 13953 18c4 0400     		.2byte	0x4
 13954 18c6 F3       		.byte	0xf3
 13955 18c7 01       		.uleb128 0x1
 13956 18c8 50       		.byte	0x50
 13957 18c9 9F       		.byte	0x9f
 13958 18ca 2A000000 		.4byte	.LVL431
 13959 18ce 2C000000 		.4byte	.LVL432
 13960 18d2 0100     		.2byte	0x1
 13961 18d4 50       		.byte	0x50
 13962 18d5 2C000000 		.4byte	.LVL432
 13963 18d9 40000000 		.4byte	.LFE24
 13964 18dd 0400     		.2byte	0x4
 13965 18df F3       		.byte	0xf3
 13966 18e0 01       		.uleb128 0x1
 13967 18e1 50       		.byte	0x50
 13968 18e2 9F       		.byte	0x9f
 13969 18e3 00000000 		.4byte	0
 13970 18e7 00000000 		.4byte	0
 13971              	.LLST102:
 13972 18eb 2C000000 		.4byte	.LVL432
 13973 18ef 2E000000 		.4byte	.LVL433
 13974 18f3 0100     		.2byte	0x1
 13975 18f5 50       		.byte	0x50
 13976 18f6 30000000 		.4byte	.LVL434
 13977 18fa 40000000 		.4byte	.LFE24
 13978 18fe 0100     		.2byte	0x1
 13979 1900 50       		.byte	0x50
 13980 1901 00000000 		.4byte	0
 13981 1905 00000000 		.4byte	0
 13982              	.LLST103:
 13983 1909 0E000000 		.4byte	.LVL428
ARM GAS  C:\Users\Phuong\AppData\Local\Temp\cc4zbCpa.s 			page 272


 13984 190d 24000000 		.4byte	.LVL429
 13985 1911 0100     		.2byte	0x1
 13986 1913 50       		.byte	0x50
 13987 1914 24000000 		.4byte	.LVL429
 13988 1918 2A000000 		.4byte	.LVL431
 13989 191c 0100     		.2byte	0x1
 13990 191e 54       		.byte	0x54
 13991 191f 2E000000 		.4byte	.LVL433
 13992 1923 30000000 		.4byte	.LVL434
 13993 1927 0100     		.2byte	0x1
 13994 1929 50       		.byte	0x50
 13995 192a 00000000 		.4byte	0
 13996 192e 00000000 		.4byte	0
 13997              	.LLST104:
 13998 1932 2A000000 		.4byte	.LVL431
 13999 1936 2C000000 		.4byte	.LVL432
 14000 193a 0100     		.2byte	0x1
 14001 193c 50       		.byte	0x50
 14002 193d 2C000000 		.4byte	.LVL432
 14003 1941 2E000000 		.4byte	.LVL433
 14004 1945 0400     		.2byte	0x4
 14005 1947 F3       		.byte	0xf3
 14006 1948 01       		.uleb128 0x1
 14007 1949 50       		.byte	0x50
 14008 194a 9F       		.byte	0x9f
 14009 194b 00000000 		.4byte	0
 14010 194f 00000000 		.4byte	0
 14011              	.LLST105:
 14012 1953 00000000 		.4byte	.LVL435
 14013 1957 13000000 		.4byte	.LVL436-1
 14014 195b 0100     		.2byte	0x1
 14015 195d 50       		.byte	0x50
 14016 195e 13000000 		.4byte	.LVL436-1
 14017 1962 34000000 		.4byte	.LVL440
 14018 1966 0100     		.2byte	0x1
 14019 1968 54       		.byte	0x54
 14020 1969 34000000 		.4byte	.LVL440
 14021 196d 36000000 		.4byte	.LVL441
 14022 1971 0100     		.2byte	0x1
 14023 1973 50       		.byte	0x50
 14024 1974 36000000 		.4byte	.LVL441
 14025 1978 56000000 		.4byte	.LVL445
 14026 197c 0100     		.2byte	0x1
 14027 197e 54       		.byte	0x54
 14028 197f 56000000 		.4byte	.LVL445
 14029 1983 70000000 		.4byte	.LVL448
 14030 1987 0400     		.2byte	0x4
 14031 1989 F3       		.byte	0xf3
 14032 198a 01       		.uleb128 0x1
 14033 198b 50       		.byte	0x50
 14034 198c 9F       		.byte	0x9f
 14035 198d 70000000 		.4byte	.LVL448
 14036 1991 78000000 		.4byte	.LVL451
 14037 1995 0100     		.2byte	0x1
 14038 1997 54       		.byte	0x54
 14039 1998 78000000 		.4byte	.LVL451
 14040 199c 98000000 		.4byte	.LFE25
ARM GAS  C:\Users\Phuong\AppData\Local\Temp\cc4zbCpa.s 			page 273


 14041 19a0 0400     		.2byte	0x4
 14042 19a2 F3       		.byte	0xf3
 14043 19a3 01       		.uleb128 0x1
 14044 19a4 50       		.byte	0x50
 14045 19a5 9F       		.byte	0x9f
 14046 19a6 00000000 		.4byte	0
 14047 19aa 00000000 		.4byte	0
 14048              	.LLST106:
 14049 19ae 00000000 		.4byte	.LVL435
 14050 19b2 13000000 		.4byte	.LVL436-1
 14051 19b6 0100     		.2byte	0x1
 14052 19b8 51       		.byte	0x51
 14053 19b9 13000000 		.4byte	.LVL436-1
 14054 19bd 34000000 		.4byte	.LVL440
 14055 19c1 0100     		.2byte	0x1
 14056 19c3 55       		.byte	0x55
 14057 19c4 34000000 		.4byte	.LVL440
 14058 19c8 3D000000 		.4byte	.LVL442-1
 14059 19cc 0100     		.2byte	0x1
 14060 19ce 51       		.byte	0x51
 14061 19cf 3D000000 		.4byte	.LVL442-1
 14062 19d3 7C000000 		.4byte	.LVL453
 14063 19d7 0100     		.2byte	0x1
 14064 19d9 55       		.byte	0x55
 14065 19da 7C000000 		.4byte	.LVL453
 14066 19de 98000000 		.4byte	.LFE25
 14067 19e2 0400     		.2byte	0x4
 14068 19e4 F3       		.byte	0xf3
 14069 19e5 01       		.uleb128 0x1
 14070 19e6 51       		.byte	0x51
 14071 19e7 9F       		.byte	0x9f
 14072 19e8 00000000 		.4byte	0
 14073 19ec 00000000 		.4byte	0
 14074              	.LLST107:
 14075 19f0 16000000 		.4byte	.LVL437
 14076 19f4 2E000000 		.4byte	.LVL438
 14077 19f8 0100     		.2byte	0x1
 14078 19fa 50       		.byte	0x50
 14079 19fb 2E000000 		.4byte	.LVL438
 14080 19ff 34000000 		.4byte	.LVL440
 14081 1a03 0100     		.2byte	0x1
 14082 1a05 56       		.byte	0x56
 14083 1a06 70000000 		.4byte	.LVL448
 14084 1a0a 72000000 		.4byte	.LVL449
 14085 1a0e 0100     		.2byte	0x1
 14086 1a10 50       		.byte	0x50
 14087 1a11 72000000 		.4byte	.LVL449
 14088 1a15 74000000 		.4byte	.LVL450
 14089 1a19 0100     		.2byte	0x1
 14090 1a1b 56       		.byte	0x56
 14091 1a1c 00000000 		.4byte	0
 14092 1a20 00000000 		.4byte	0
 14093              	.LLST108:
 14094 1a24 34000000 		.4byte	.LVL440
 14095 1a28 36000000 		.4byte	.LVL441
 14096 1a2c 0100     		.2byte	0x1
 14097 1a2e 50       		.byte	0x50
ARM GAS  C:\Users\Phuong\AppData\Local\Temp\cc4zbCpa.s 			page 274


 14098 1a2f 36000000 		.4byte	.LVL441
 14099 1a33 56000000 		.4byte	.LVL445
 14100 1a37 0100     		.2byte	0x1
 14101 1a39 54       		.byte	0x54
 14102 1a3a 56000000 		.4byte	.LVL445
 14103 1a3e 70000000 		.4byte	.LVL448
 14104 1a42 0400     		.2byte	0x4
 14105 1a44 F3       		.byte	0xf3
 14106 1a45 01       		.uleb128 0x1
 14107 1a46 50       		.byte	0x50
 14108 1a47 9F       		.byte	0x9f
 14109 1a48 74000000 		.4byte	.LVL450
 14110 1a4c 78000000 		.4byte	.LVL451
 14111 1a50 0100     		.2byte	0x1
 14112 1a52 54       		.byte	0x54
 14113 1a53 78000000 		.4byte	.LVL451
 14114 1a57 7A000000 		.4byte	.LVL452
 14115 1a5b 0400     		.2byte	0x4
 14116 1a5d F3       		.byte	0xf3
 14117 1a5e 01       		.uleb128 0x1
 14118 1a5f 50       		.byte	0x50
 14119 1a60 9F       		.byte	0x9f
 14120 1a61 00000000 		.4byte	0
 14121 1a65 00000000 		.4byte	0
 14122              	.LLST109:
 14123 1a69 56000000 		.4byte	.LVL445
 14124 1a6d 6A000000 		.4byte	.LVL446
 14125 1a71 0100     		.2byte	0x1
 14126 1a73 50       		.byte	0x50
 14127 1a74 6A000000 		.4byte	.LVL446
 14128 1a78 70000000 		.4byte	.LVL448
 14129 1a7c 0100     		.2byte	0x1
 14130 1a7e 54       		.byte	0x54
 14131 1a7f 78000000 		.4byte	.LVL451
 14132 1a83 7A000000 		.4byte	.LVL452
 14133 1a87 0100     		.2byte	0x1
 14134 1a89 50       		.byte	0x50
 14135 1a8a 00000000 		.4byte	0
 14136 1a8e 00000000 		.4byte	0
 14137              	.LLST110:
 14138 1a92 00000000 		.4byte	.LVL454
 14139 1a96 0B000000 		.4byte	.LVL455-1
 14140 1a9a 0100     		.2byte	0x1
 14141 1a9c 50       		.byte	0x50
 14142 1a9d 0B000000 		.4byte	.LVL455-1
 14143 1aa1 28000000 		.4byte	.LVL459
 14144 1aa5 0400     		.2byte	0x4
 14145 1aa7 F3       		.byte	0xf3
 14146 1aa8 01       		.uleb128 0x1
 14147 1aa9 50       		.byte	0x50
 14148 1aaa 9F       		.byte	0x9f
 14149 1aab 28000000 		.4byte	.LVL459
 14150 1aaf 2A000000 		.4byte	.LVL460
 14151 1ab3 0100     		.2byte	0x1
 14152 1ab5 50       		.byte	0x50
 14153 1ab6 2A000000 		.4byte	.LVL460
 14154 1aba 44000000 		.4byte	.LFE26
ARM GAS  C:\Users\Phuong\AppData\Local\Temp\cc4zbCpa.s 			page 275


 14155 1abe 0400     		.2byte	0x4
 14156 1ac0 F3       		.byte	0xf3
 14157 1ac1 01       		.uleb128 0x1
 14158 1ac2 50       		.byte	0x50
 14159 1ac3 9F       		.byte	0x9f
 14160 1ac4 00000000 		.4byte	0
 14161 1ac8 00000000 		.4byte	0
 14162              	.LLST111:
 14163 1acc 2A000000 		.4byte	.LVL460
 14164 1ad0 2C000000 		.4byte	.LVL461
 14165 1ad4 0100     		.2byte	0x1
 14166 1ad6 50       		.byte	0x50
 14167 1ad7 2E000000 		.4byte	.LVL462
 14168 1adb 44000000 		.4byte	.LFE26
 14169 1adf 0100     		.2byte	0x1
 14170 1ae1 50       		.byte	0x50
 14171 1ae2 00000000 		.4byte	0
 14172 1ae6 00000000 		.4byte	0
 14173              	.LLST112:
 14174 1aea 0E000000 		.4byte	.LVL456
 14175 1aee 22000000 		.4byte	.LVL457
 14176 1af2 0100     		.2byte	0x1
 14177 1af4 50       		.byte	0x50
 14178 1af5 22000000 		.4byte	.LVL457
 14179 1af9 28000000 		.4byte	.LVL459
 14180 1afd 0100     		.2byte	0x1
 14181 1aff 54       		.byte	0x54
 14182 1b00 2C000000 		.4byte	.LVL461
 14183 1b04 2E000000 		.4byte	.LVL462
 14184 1b08 0100     		.2byte	0x1
 14185 1b0a 50       		.byte	0x50
 14186 1b0b 00000000 		.4byte	0
 14187 1b0f 00000000 		.4byte	0
 14188              	.LLST113:
 14189 1b13 28000000 		.4byte	.LVL459
 14190 1b17 2A000000 		.4byte	.LVL460
 14191 1b1b 0100     		.2byte	0x1
 14192 1b1d 50       		.byte	0x50
 14193 1b1e 2A000000 		.4byte	.LVL460
 14194 1b22 2C000000 		.4byte	.LVL461
 14195 1b26 0400     		.2byte	0x4
 14196 1b28 F3       		.byte	0xf3
 14197 1b29 01       		.uleb128 0x1
 14198 1b2a 50       		.byte	0x50
 14199 1b2b 9F       		.byte	0x9f
 14200 1b2c 00000000 		.4byte	0
 14201 1b30 00000000 		.4byte	0
 14202              	.LLST114:
 14203 1b34 00000000 		.4byte	.LVL463
 14204 1b38 0B000000 		.4byte	.LVL464-1
 14205 1b3c 0100     		.2byte	0x1
 14206 1b3e 50       		.byte	0x50
 14207 1b3f 0B000000 		.4byte	.LVL464-1
 14208 1b43 28000000 		.4byte	.LVL468
 14209 1b47 0400     		.2byte	0x4
 14210 1b49 F3       		.byte	0xf3
 14211 1b4a 01       		.uleb128 0x1
ARM GAS  C:\Users\Phuong\AppData\Local\Temp\cc4zbCpa.s 			page 276


 14212 1b4b 50       		.byte	0x50
 14213 1b4c 9F       		.byte	0x9f
 14214 1b4d 28000000 		.4byte	.LVL468
 14215 1b51 2A000000 		.4byte	.LVL469
 14216 1b55 0100     		.2byte	0x1
 14217 1b57 50       		.byte	0x50
 14218 1b58 2A000000 		.4byte	.LVL469
 14219 1b5c 44000000 		.4byte	.LFE27
 14220 1b60 0400     		.2byte	0x4
 14221 1b62 F3       		.byte	0xf3
 14222 1b63 01       		.uleb128 0x1
 14223 1b64 50       		.byte	0x50
 14224 1b65 9F       		.byte	0x9f
 14225 1b66 00000000 		.4byte	0
 14226 1b6a 00000000 		.4byte	0
 14227              	.LLST115:
 14228 1b6e 2A000000 		.4byte	.LVL469
 14229 1b72 2C000000 		.4byte	.LVL470
 14230 1b76 0100     		.2byte	0x1
 14231 1b78 50       		.byte	0x50
 14232 1b79 2E000000 		.4byte	.LVL471
 14233 1b7d 44000000 		.4byte	.LFE27
 14234 1b81 0100     		.2byte	0x1
 14235 1b83 50       		.byte	0x50
 14236 1b84 00000000 		.4byte	0
 14237 1b88 00000000 		.4byte	0
 14238              	.LLST116:
 14239 1b8c 0E000000 		.4byte	.LVL465
 14240 1b90 22000000 		.4byte	.LVL466
 14241 1b94 0100     		.2byte	0x1
 14242 1b96 50       		.byte	0x50
 14243 1b97 22000000 		.4byte	.LVL466
 14244 1b9b 28000000 		.4byte	.LVL468
 14245 1b9f 0100     		.2byte	0x1
 14246 1ba1 54       		.byte	0x54
 14247 1ba2 2C000000 		.4byte	.LVL470
 14248 1ba6 2E000000 		.4byte	.LVL471
 14249 1baa 0100     		.2byte	0x1
 14250 1bac 50       		.byte	0x50
 14251 1bad 00000000 		.4byte	0
 14252 1bb1 00000000 		.4byte	0
 14253              	.LLST117:
 14254 1bb5 00000000 		.4byte	.LVL472
 14255 1bb9 1F000000 		.4byte	.LVL473-1
 14256 1bbd 0100     		.2byte	0x1
 14257 1bbf 50       		.byte	0x50
 14258 1bc0 1F000000 		.4byte	.LVL473-1
 14259 1bc4 58000000 		.4byte	.LVL477
 14260 1bc8 0100     		.2byte	0x1
 14261 1bca 55       		.byte	0x55
 14262 1bcb 58000000 		.4byte	.LVL477
 14263 1bcf 5A000000 		.4byte	.LVL478
 14264 1bd3 0100     		.2byte	0x1
 14265 1bd5 50       		.byte	0x50
 14266 1bd6 5A000000 		.4byte	.LVL478
 14267 1bda A0000000 		.4byte	.LVL490
 14268 1bde 0100     		.2byte	0x1
ARM GAS  C:\Users\Phuong\AppData\Local\Temp\cc4zbCpa.s 			page 277


 14269 1be0 55       		.byte	0x55
 14270 1be1 A0000000 		.4byte	.LVL490
 14271 1be5 B8000000 		.4byte	.LFE28
 14272 1be9 0400     		.2byte	0x4
 14273 1beb F3       		.byte	0xf3
 14274 1bec 01       		.uleb128 0x1
 14275 1bed 50       		.byte	0x50
 14276 1bee 9F       		.byte	0x9f
 14277 1bef 00000000 		.4byte	0
 14278 1bf3 00000000 		.4byte	0
 14279              	.LLST118:
 14280 1bf7 00000000 		.4byte	.LVL472
 14281 1bfb 1F000000 		.4byte	.LVL473-1
 14282 1bff 0100     		.2byte	0x1
 14283 1c01 51       		.byte	0x51
 14284 1c02 1F000000 		.4byte	.LVL473-1
 14285 1c06 58000000 		.4byte	.LVL477
 14286 1c0a 0100     		.2byte	0x1
 14287 1c0c 54       		.byte	0x54
 14288 1c0d 58000000 		.4byte	.LVL477
 14289 1c11 61000000 		.4byte	.LVL479-1
 14290 1c15 0100     		.2byte	0x1
 14291 1c17 51       		.byte	0x51
 14292 1c18 61000000 		.4byte	.LVL479-1
 14293 1c1c 78000000 		.4byte	.LVL482
 14294 1c20 0100     		.2byte	0x1
 14295 1c22 54       		.byte	0x54
 14296 1c23 78000000 		.4byte	.LVL482
 14297 1c27 94000000 		.4byte	.LVL485
 14298 1c2b 0400     		.2byte	0x4
 14299 1c2d F3       		.byte	0xf3
 14300 1c2e 01       		.uleb128 0x1
 14301 1c2f 51       		.byte	0x51
 14302 1c30 9F       		.byte	0x9f
 14303 1c31 94000000 		.4byte	.LVL485
 14304 1c35 9C000000 		.4byte	.LVL488
 14305 1c39 0100     		.2byte	0x1
 14306 1c3b 54       		.byte	0x54
 14307 1c3c 9C000000 		.4byte	.LVL488
 14308 1c40 B8000000 		.4byte	.LFE28
 14309 1c44 0400     		.2byte	0x4
 14310 1c46 F3       		.byte	0xf3
 14311 1c47 01       		.uleb128 0x1
 14312 1c48 51       		.byte	0x51
 14313 1c49 9F       		.byte	0x9f
 14314 1c4a 00000000 		.4byte	0
 14315 1c4e 00000000 		.4byte	0
 14316              	.LLST119:
 14317 1c52 22000000 		.4byte	.LVL474
 14318 1c56 52000000 		.4byte	.LVL475
 14319 1c5a 0100     		.2byte	0x1
 14320 1c5c 50       		.byte	0x50
 14321 1c5d 52000000 		.4byte	.LVL475
 14322 1c61 58000000 		.4byte	.LVL477
 14323 1c65 0100     		.2byte	0x1
 14324 1c67 56       		.byte	0x56
 14325 1c68 94000000 		.4byte	.LVL485
ARM GAS  C:\Users\Phuong\AppData\Local\Temp\cc4zbCpa.s 			page 278


 14326 1c6c 96000000 		.4byte	.LVL486
 14327 1c70 0100     		.2byte	0x1
 14328 1c72 50       		.byte	0x50
 14329 1c73 96000000 		.4byte	.LVL486
 14330 1c77 98000000 		.4byte	.LVL487
 14331 1c7b 0100     		.2byte	0x1
 14332 1c7d 56       		.byte	0x56
 14333 1c7e 00000000 		.4byte	0
 14334 1c82 00000000 		.4byte	0
 14335              	.LLST120:
 14336 1c86 78000000 		.4byte	.LVL482
 14337 1c8a 8E000000 		.4byte	.LVL483
 14338 1c8e 0100     		.2byte	0x1
 14339 1c90 50       		.byte	0x50
 14340 1c91 8E000000 		.4byte	.LVL483
 14341 1c95 94000000 		.4byte	.LVL485
 14342 1c99 0100     		.2byte	0x1
 14343 1c9b 54       		.byte	0x54
 14344 1c9c 9C000000 		.4byte	.LVL488
 14345 1ca0 9E000000 		.4byte	.LVL489
 14346 1ca4 0100     		.2byte	0x1
 14347 1ca6 50       		.byte	0x50
 14348 1ca7 00000000 		.4byte	0
 14349 1cab 00000000 		.4byte	0
 14350              	.LLST121:
 14351 1caf 00000000 		.4byte	.LVL491
 14352 1cb3 0B000000 		.4byte	.LVL492-1
 14353 1cb7 0100     		.2byte	0x1
 14354 1cb9 50       		.byte	0x50
 14355 1cba 0B000000 		.4byte	.LVL492-1
 14356 1cbe 28000000 		.4byte	.LVL496
 14357 1cc2 0400     		.2byte	0x4
 14358 1cc4 F3       		.byte	0xf3
 14359 1cc5 01       		.uleb128 0x1
 14360 1cc6 50       		.byte	0x50
 14361 1cc7 9F       		.byte	0x9f
 14362 1cc8 28000000 		.4byte	.LVL496
 14363 1ccc 2A000000 		.4byte	.LVL497
 14364 1cd0 0100     		.2byte	0x1
 14365 1cd2 50       		.byte	0x50
 14366 1cd3 2A000000 		.4byte	.LVL497
 14367 1cd7 44000000 		.4byte	.LFE29
 14368 1cdb 0400     		.2byte	0x4
 14369 1cdd F3       		.byte	0xf3
 14370 1cde 01       		.uleb128 0x1
 14371 1cdf 50       		.byte	0x50
 14372 1ce0 9F       		.byte	0x9f
 14373 1ce1 00000000 		.4byte	0
 14374 1ce5 00000000 		.4byte	0
 14375              	.LLST122:
 14376 1ce9 2A000000 		.4byte	.LVL497
 14377 1ced 2C000000 		.4byte	.LVL498
 14378 1cf1 0100     		.2byte	0x1
 14379 1cf3 50       		.byte	0x50
 14380 1cf4 2E000000 		.4byte	.LVL499
 14381 1cf8 44000000 		.4byte	.LFE29
 14382 1cfc 0100     		.2byte	0x1
ARM GAS  C:\Users\Phuong\AppData\Local\Temp\cc4zbCpa.s 			page 279


 14383 1cfe 50       		.byte	0x50
 14384 1cff 00000000 		.4byte	0
 14385 1d03 00000000 		.4byte	0
 14386              	.LLST123:
 14387 1d07 0E000000 		.4byte	.LVL493
 14388 1d0b 22000000 		.4byte	.LVL494
 14389 1d0f 0100     		.2byte	0x1
 14390 1d11 50       		.byte	0x50
 14391 1d12 22000000 		.4byte	.LVL494
 14392 1d16 28000000 		.4byte	.LVL496
 14393 1d1a 0100     		.2byte	0x1
 14394 1d1c 54       		.byte	0x54
 14395 1d1d 2C000000 		.4byte	.LVL498
 14396 1d21 2E000000 		.4byte	.LVL499
 14397 1d25 0100     		.2byte	0x1
 14398 1d27 50       		.byte	0x50
 14399 1d28 00000000 		.4byte	0
 14400 1d2c 00000000 		.4byte	0
 14401              	.LLST124:
 14402 1d30 00000000 		.4byte	.LVL500
 14403 1d34 13000000 		.4byte	.LVL501-1
 14404 1d38 0100     		.2byte	0x1
 14405 1d3a 50       		.byte	0x50
 14406 1d3b 13000000 		.4byte	.LVL501-1
 14407 1d3f 32000000 		.4byte	.LVL505
 14408 1d43 0100     		.2byte	0x1
 14409 1d45 54       		.byte	0x54
 14410 1d46 32000000 		.4byte	.LVL505
 14411 1d4a 34000000 		.4byte	.LVL506
 14412 1d4e 0100     		.2byte	0x1
 14413 1d50 50       		.byte	0x50
 14414 1d51 34000000 		.4byte	.LVL506
 14415 1d55 54000000 		.4byte	.LVL510
 14416 1d59 0100     		.2byte	0x1
 14417 1d5b 54       		.byte	0x54
 14418 1d5c 54000000 		.4byte	.LVL510
 14419 1d60 6C000000 		.4byte	.LVL513
 14420 1d64 0400     		.2byte	0x4
 14421 1d66 F3       		.byte	0xf3
 14422 1d67 01       		.uleb128 0x1
 14423 1d68 50       		.byte	0x50
 14424 1d69 9F       		.byte	0x9f
 14425 1d6a 6C000000 		.4byte	.LVL513
 14426 1d6e 74000000 		.4byte	.LVL516
 14427 1d72 0100     		.2byte	0x1
 14428 1d74 54       		.byte	0x54
 14429 1d75 74000000 		.4byte	.LVL516
 14430 1d79 94000000 		.4byte	.LFE30
 14431 1d7d 0400     		.2byte	0x4
 14432 1d7f F3       		.byte	0xf3
 14433 1d80 01       		.uleb128 0x1
 14434 1d81 50       		.byte	0x50
 14435 1d82 9F       		.byte	0x9f
 14436 1d83 00000000 		.4byte	0
 14437 1d87 00000000 		.4byte	0
 14438              	.LLST125:
 14439 1d8b 00000000 		.4byte	.LVL500
ARM GAS  C:\Users\Phuong\AppData\Local\Temp\cc4zbCpa.s 			page 280


 14440 1d8f 13000000 		.4byte	.LVL501-1
 14441 1d93 0100     		.2byte	0x1
 14442 1d95 51       		.byte	0x51
 14443 1d96 13000000 		.4byte	.LVL501-1
 14444 1d9a 32000000 		.4byte	.LVL505
 14445 1d9e 0100     		.2byte	0x1
 14446 1da0 55       		.byte	0x55
 14447 1da1 32000000 		.4byte	.LVL505
 14448 1da5 3B000000 		.4byte	.LVL507-1
 14449 1da9 0100     		.2byte	0x1
 14450 1dab 51       		.byte	0x51
 14451 1dac 3B000000 		.4byte	.LVL507-1
 14452 1db0 78000000 		.4byte	.LVL518
 14453 1db4 0100     		.2byte	0x1
 14454 1db6 55       		.byte	0x55
 14455 1db7 78000000 		.4byte	.LVL518
 14456 1dbb 94000000 		.4byte	.LFE30
 14457 1dbf 0400     		.2byte	0x4
 14458 1dc1 F3       		.byte	0xf3
 14459 1dc2 01       		.uleb128 0x1
 14460 1dc3 51       		.byte	0x51
 14461 1dc4 9F       		.byte	0x9f
 14462 1dc5 00000000 		.4byte	0
 14463 1dc9 00000000 		.4byte	0
 14464              	.LLST126:
 14465 1dcd 16000000 		.4byte	.LVL502
 14466 1dd1 2C000000 		.4byte	.LVL503
 14467 1dd5 0100     		.2byte	0x1
 14468 1dd7 50       		.byte	0x50
 14469 1dd8 2C000000 		.4byte	.LVL503
 14470 1ddc 32000000 		.4byte	.LVL505
 14471 1de0 0100     		.2byte	0x1
 14472 1de2 56       		.byte	0x56
 14473 1de3 6C000000 		.4byte	.LVL513
 14474 1de7 6E000000 		.4byte	.LVL514
 14475 1deb 0100     		.2byte	0x1
 14476 1ded 50       		.byte	0x50
 14477 1dee 6E000000 		.4byte	.LVL514
 14478 1df2 70000000 		.4byte	.LVL515
 14479 1df6 0100     		.2byte	0x1
 14480 1df8 56       		.byte	0x56
 14481 1df9 00000000 		.4byte	0
 14482 1dfd 00000000 		.4byte	0
 14483              	.LLST127:
 14484 1e01 32000000 		.4byte	.LVL505
 14485 1e05 34000000 		.4byte	.LVL506
 14486 1e09 0100     		.2byte	0x1
 14487 1e0b 50       		.byte	0x50
 14488 1e0c 34000000 		.4byte	.LVL506
 14489 1e10 54000000 		.4byte	.LVL510
 14490 1e14 0100     		.2byte	0x1
 14491 1e16 54       		.byte	0x54
 14492 1e17 54000000 		.4byte	.LVL510
 14493 1e1b 6C000000 		.4byte	.LVL513
 14494 1e1f 0400     		.2byte	0x4
 14495 1e21 F3       		.byte	0xf3
 14496 1e22 01       		.uleb128 0x1
ARM GAS  C:\Users\Phuong\AppData\Local\Temp\cc4zbCpa.s 			page 281


 14497 1e23 50       		.byte	0x50
 14498 1e24 9F       		.byte	0x9f
 14499 1e25 70000000 		.4byte	.LVL515
 14500 1e29 74000000 		.4byte	.LVL516
 14501 1e2d 0100     		.2byte	0x1
 14502 1e2f 54       		.byte	0x54
 14503 1e30 74000000 		.4byte	.LVL516
 14504 1e34 76000000 		.4byte	.LVL517
 14505 1e38 0400     		.2byte	0x4
 14506 1e3a F3       		.byte	0xf3
 14507 1e3b 01       		.uleb128 0x1
 14508 1e3c 50       		.byte	0x50
 14509 1e3d 9F       		.byte	0x9f
 14510 1e3e 00000000 		.4byte	0
 14511 1e42 00000000 		.4byte	0
 14512              	.LLST128:
 14513 1e46 54000000 		.4byte	.LVL510
 14514 1e4a 66000000 		.4byte	.LVL511
 14515 1e4e 0100     		.2byte	0x1
 14516 1e50 50       		.byte	0x50
 14517 1e51 66000000 		.4byte	.LVL511
 14518 1e55 6C000000 		.4byte	.LVL513
 14519 1e59 0100     		.2byte	0x1
 14520 1e5b 54       		.byte	0x54
 14521 1e5c 74000000 		.4byte	.LVL516
 14522 1e60 76000000 		.4byte	.LVL517
 14523 1e64 0100     		.2byte	0x1
 14524 1e66 50       		.byte	0x50
 14525 1e67 00000000 		.4byte	0
 14526 1e6b 00000000 		.4byte	0
 14527              	.LLST129:
 14528 1e6f 00000000 		.4byte	.LVL519
 14529 1e73 0B000000 		.4byte	.LVL520-1
 14530 1e77 0100     		.2byte	0x1
 14531 1e79 50       		.byte	0x50
 14532 1e7a 0B000000 		.4byte	.LVL520-1
 14533 1e7e 28000000 		.4byte	.LVL524
 14534 1e82 0400     		.2byte	0x4
 14535 1e84 F3       		.byte	0xf3
 14536 1e85 01       		.uleb128 0x1
 14537 1e86 50       		.byte	0x50
 14538 1e87 9F       		.byte	0x9f
 14539 1e88 28000000 		.4byte	.LVL524
 14540 1e8c 2A000000 		.4byte	.LVL525
 14541 1e90 0100     		.2byte	0x1
 14542 1e92 50       		.byte	0x50
 14543 1e93 2A000000 		.4byte	.LVL525
 14544 1e97 44000000 		.4byte	.LFE31
 14545 1e9b 0400     		.2byte	0x4
 14546 1e9d F3       		.byte	0xf3
 14547 1e9e 01       		.uleb128 0x1
 14548 1e9f 50       		.byte	0x50
 14549 1ea0 9F       		.byte	0x9f
 14550 1ea1 00000000 		.4byte	0
 14551 1ea5 00000000 		.4byte	0
 14552              	.LLST130:
 14553 1ea9 2A000000 		.4byte	.LVL525
ARM GAS  C:\Users\Phuong\AppData\Local\Temp\cc4zbCpa.s 			page 282


 14554 1ead 2C000000 		.4byte	.LVL526
 14555 1eb1 0100     		.2byte	0x1
 14556 1eb3 50       		.byte	0x50
 14557 1eb4 2E000000 		.4byte	.LVL527
 14558 1eb8 44000000 		.4byte	.LFE31
 14559 1ebc 0100     		.2byte	0x1
 14560 1ebe 50       		.byte	0x50
 14561 1ebf 00000000 		.4byte	0
 14562 1ec3 00000000 		.4byte	0
 14563              	.LLST131:
 14564 1ec7 0E000000 		.4byte	.LVL521
 14565 1ecb 22000000 		.4byte	.LVL522
 14566 1ecf 0100     		.2byte	0x1
 14567 1ed1 50       		.byte	0x50
 14568 1ed2 22000000 		.4byte	.LVL522
 14569 1ed6 28000000 		.4byte	.LVL524
 14570 1eda 0100     		.2byte	0x1
 14571 1edc 54       		.byte	0x54
 14572 1edd 2C000000 		.4byte	.LVL526
 14573 1ee1 2E000000 		.4byte	.LVL527
 14574 1ee5 0100     		.2byte	0x1
 14575 1ee7 50       		.byte	0x50
 14576 1ee8 00000000 		.4byte	0
 14577 1eec 00000000 		.4byte	0
 14578              	.LLST132:
 14579 1ef0 00000000 		.4byte	.LVL528
 14580 1ef4 13000000 		.4byte	.LVL529-1
 14581 1ef8 0100     		.2byte	0x1
 14582 1efa 50       		.byte	0x50
 14583 1efb 13000000 		.4byte	.LVL529-1
 14584 1eff 36000000 		.4byte	.LVL533
 14585 1f03 0100     		.2byte	0x1
 14586 1f05 54       		.byte	0x54
 14587 1f06 36000000 		.4byte	.LVL533
 14588 1f0a 38000000 		.4byte	.LVL534
 14589 1f0e 0100     		.2byte	0x1
 14590 1f10 50       		.byte	0x50
 14591 1f11 38000000 		.4byte	.LVL534
 14592 1f15 58000000 		.4byte	.LVL538
 14593 1f19 0100     		.2byte	0x1
 14594 1f1b 54       		.byte	0x54
 14595 1f1c 58000000 		.4byte	.LVL538
 14596 1f20 72000000 		.4byte	.LVL541
 14597 1f24 0400     		.2byte	0x4
 14598 1f26 F3       		.byte	0xf3
 14599 1f27 01       		.uleb128 0x1
 14600 1f28 50       		.byte	0x50
 14601 1f29 9F       		.byte	0x9f
 14602 1f2a 72000000 		.4byte	.LVL541
 14603 1f2e 7A000000 		.4byte	.LVL544
 14604 1f32 0100     		.2byte	0x1
 14605 1f34 54       		.byte	0x54
 14606 1f35 7A000000 		.4byte	.LVL544
 14607 1f39 94000000 		.4byte	.LFE32
 14608 1f3d 0400     		.2byte	0x4
 14609 1f3f F3       		.byte	0xf3
 14610 1f40 01       		.uleb128 0x1
ARM GAS  C:\Users\Phuong\AppData\Local\Temp\cc4zbCpa.s 			page 283


 14611 1f41 50       		.byte	0x50
 14612 1f42 9F       		.byte	0x9f
 14613 1f43 00000000 		.4byte	0
 14614 1f47 00000000 		.4byte	0
 14615              	.LLST133:
 14616 1f4b 00000000 		.4byte	.LVL528
 14617 1f4f 13000000 		.4byte	.LVL529-1
 14618 1f53 0100     		.2byte	0x1
 14619 1f55 51       		.byte	0x51
 14620 1f56 13000000 		.4byte	.LVL529-1
 14621 1f5a 36000000 		.4byte	.LVL533
 14622 1f5e 0100     		.2byte	0x1
 14623 1f60 55       		.byte	0x55
 14624 1f61 36000000 		.4byte	.LVL533
 14625 1f65 3F000000 		.4byte	.LVL535-1
 14626 1f69 0100     		.2byte	0x1
 14627 1f6b 51       		.byte	0x51
 14628 1f6c 3F000000 		.4byte	.LVL535-1
 14629 1f70 7E000000 		.4byte	.LVL546
 14630 1f74 0100     		.2byte	0x1
 14631 1f76 55       		.byte	0x55
 14632 1f77 7E000000 		.4byte	.LVL546
 14633 1f7b 94000000 		.4byte	.LFE32
 14634 1f7f 0400     		.2byte	0x4
 14635 1f81 F3       		.byte	0xf3
 14636 1f82 01       		.uleb128 0x1
 14637 1f83 51       		.byte	0x51
 14638 1f84 9F       		.byte	0x9f
 14639 1f85 00000000 		.4byte	0
 14640 1f89 00000000 		.4byte	0
 14641              	.LLST134:
 14642 1f8d 16000000 		.4byte	.LVL530
 14643 1f91 30000000 		.4byte	.LVL531
 14644 1f95 0100     		.2byte	0x1
 14645 1f97 50       		.byte	0x50
 14646 1f98 30000000 		.4byte	.LVL531
 14647 1f9c 36000000 		.4byte	.LVL533
 14648 1fa0 0100     		.2byte	0x1
 14649 1fa2 56       		.byte	0x56
 14650 1fa3 72000000 		.4byte	.LVL541
 14651 1fa7 74000000 		.4byte	.LVL542
 14652 1fab 0100     		.2byte	0x1
 14653 1fad 50       		.byte	0x50
 14654 1fae 74000000 		.4byte	.LVL542
 14655 1fb2 76000000 		.4byte	.LVL543
 14656 1fb6 0100     		.2byte	0x1
 14657 1fb8 56       		.byte	0x56
 14658 1fb9 00000000 		.4byte	0
 14659 1fbd 00000000 		.4byte	0
 14660              	.LLST135:
 14661 1fc1 36000000 		.4byte	.LVL533
 14662 1fc5 38000000 		.4byte	.LVL534
 14663 1fc9 0100     		.2byte	0x1
 14664 1fcb 50       		.byte	0x50
 14665 1fcc 38000000 		.4byte	.LVL534
 14666 1fd0 58000000 		.4byte	.LVL538
 14667 1fd4 0100     		.2byte	0x1
ARM GAS  C:\Users\Phuong\AppData\Local\Temp\cc4zbCpa.s 			page 284


 14668 1fd6 54       		.byte	0x54
 14669 1fd7 58000000 		.4byte	.LVL538
 14670 1fdb 72000000 		.4byte	.LVL541
 14671 1fdf 0400     		.2byte	0x4
 14672 1fe1 F3       		.byte	0xf3
 14673 1fe2 01       		.uleb128 0x1
 14674 1fe3 50       		.byte	0x50
 14675 1fe4 9F       		.byte	0x9f
 14676 1fe5 76000000 		.4byte	.LVL543
 14677 1fe9 7A000000 		.4byte	.LVL544
 14678 1fed 0100     		.2byte	0x1
 14679 1fef 54       		.byte	0x54
 14680 1ff0 7A000000 		.4byte	.LVL544
 14681 1ff4 7C000000 		.4byte	.LVL545
 14682 1ff8 0400     		.2byte	0x4
 14683 1ffa F3       		.byte	0xf3
 14684 1ffb 01       		.uleb128 0x1
 14685 1ffc 50       		.byte	0x50
 14686 1ffd 9F       		.byte	0x9f
 14687 1ffe 00000000 		.4byte	0
 14688 2002 00000000 		.4byte	0
 14689              	.LLST136:
 14690 2006 58000000 		.4byte	.LVL538
 14691 200a 6C000000 		.4byte	.LVL539
 14692 200e 0100     		.2byte	0x1
 14693 2010 50       		.byte	0x50
 14694 2011 6C000000 		.4byte	.LVL539
 14695 2015 72000000 		.4byte	.LVL541
 14696 2019 0100     		.2byte	0x1
 14697 201b 54       		.byte	0x54
 14698 201c 7A000000 		.4byte	.LVL544
 14699 2020 7C000000 		.4byte	.LVL545
 14700 2024 0100     		.2byte	0x1
 14701 2026 50       		.byte	0x50
 14702 2027 00000000 		.4byte	0
 14703 202b 00000000 		.4byte	0
 14704              	.LLST137:
 14705 202f 00000000 		.4byte	.LVL547
 14706 2033 0B000000 		.4byte	.LVL548-1
 14707 2037 0100     		.2byte	0x1
 14708 2039 50       		.byte	0x50
 14709 203a 0B000000 		.4byte	.LVL548-1
 14710 203e 28000000 		.4byte	.LVL552
 14711 2042 0400     		.2byte	0x4
 14712 2044 F3       		.byte	0xf3
 14713 2045 01       		.uleb128 0x1
 14714 2046 50       		.byte	0x50
 14715 2047 9F       		.byte	0x9f
 14716 2048 28000000 		.4byte	.LVL552
 14717 204c 2A000000 		.4byte	.LVL553
 14718 2050 0100     		.2byte	0x1
 14719 2052 50       		.byte	0x50
 14720 2053 2A000000 		.4byte	.LVL553
 14721 2057 44000000 		.4byte	.LFE33
 14722 205b 0400     		.2byte	0x4
 14723 205d F3       		.byte	0xf3
 14724 205e 01       		.uleb128 0x1
ARM GAS  C:\Users\Phuong\AppData\Local\Temp\cc4zbCpa.s 			page 285


 14725 205f 50       		.byte	0x50
 14726 2060 9F       		.byte	0x9f
 14727 2061 00000000 		.4byte	0
 14728 2065 00000000 		.4byte	0
 14729              	.LLST138:
 14730 2069 2A000000 		.4byte	.LVL553
 14731 206d 2C000000 		.4byte	.LVL554
 14732 2071 0100     		.2byte	0x1
 14733 2073 50       		.byte	0x50
 14734 2074 2E000000 		.4byte	.LVL555
 14735 2078 44000000 		.4byte	.LFE33
 14736 207c 0100     		.2byte	0x1
 14737 207e 50       		.byte	0x50
 14738 207f 00000000 		.4byte	0
 14739 2083 00000000 		.4byte	0
 14740              	.LLST139:
 14741 2087 0E000000 		.4byte	.LVL549
 14742 208b 22000000 		.4byte	.LVL550
 14743 208f 0100     		.2byte	0x1
 14744 2091 50       		.byte	0x50
 14745 2092 22000000 		.4byte	.LVL550
 14746 2096 28000000 		.4byte	.LVL552
 14747 209a 0100     		.2byte	0x1
 14748 209c 54       		.byte	0x54
 14749 209d 2C000000 		.4byte	.LVL554
 14750 20a1 2E000000 		.4byte	.LVL555
 14751 20a5 0100     		.2byte	0x1
 14752 20a7 50       		.byte	0x50
 14753 20a8 00000000 		.4byte	0
 14754 20ac 00000000 		.4byte	0
 14755              	.LLST140:
 14756 20b0 00000000 		.4byte	.LVL556
 14757 20b4 13000000 		.4byte	.LVL557-1
 14758 20b8 0100     		.2byte	0x1
 14759 20ba 50       		.byte	0x50
 14760 20bb 13000000 		.4byte	.LVL557-1
 14761 20bf 36000000 		.4byte	.LVL561
 14762 20c3 0100     		.2byte	0x1
 14763 20c5 54       		.byte	0x54
 14764 20c6 36000000 		.4byte	.LVL561
 14765 20ca 38000000 		.4byte	.LVL562
 14766 20ce 0100     		.2byte	0x1
 14767 20d0 50       		.byte	0x50
 14768 20d1 38000000 		.4byte	.LVL562
 14769 20d5 58000000 		.4byte	.LVL566
 14770 20d9 0100     		.2byte	0x1
 14771 20db 54       		.byte	0x54
 14772 20dc 58000000 		.4byte	.LVL566
 14773 20e0 72000000 		.4byte	.LVL569
 14774 20e4 0400     		.2byte	0x4
 14775 20e6 F3       		.byte	0xf3
 14776 20e7 01       		.uleb128 0x1
 14777 20e8 50       		.byte	0x50
 14778 20e9 9F       		.byte	0x9f
 14779 20ea 72000000 		.4byte	.LVL569
 14780 20ee 7A000000 		.4byte	.LVL572
 14781 20f2 0100     		.2byte	0x1
ARM GAS  C:\Users\Phuong\AppData\Local\Temp\cc4zbCpa.s 			page 286


 14782 20f4 54       		.byte	0x54
 14783 20f5 7A000000 		.4byte	.LVL572
 14784 20f9 94000000 		.4byte	.LFE34
 14785 20fd 0400     		.2byte	0x4
 14786 20ff F3       		.byte	0xf3
 14787 2100 01       		.uleb128 0x1
 14788 2101 50       		.byte	0x50
 14789 2102 9F       		.byte	0x9f
 14790 2103 00000000 		.4byte	0
 14791 2107 00000000 		.4byte	0
 14792              	.LLST141:
 14793 210b 00000000 		.4byte	.LVL556
 14794 210f 13000000 		.4byte	.LVL557-1
 14795 2113 0100     		.2byte	0x1
 14796 2115 51       		.byte	0x51
 14797 2116 13000000 		.4byte	.LVL557-1
 14798 211a 36000000 		.4byte	.LVL561
 14799 211e 0100     		.2byte	0x1
 14800 2120 55       		.byte	0x55
 14801 2121 36000000 		.4byte	.LVL561
 14802 2125 3F000000 		.4byte	.LVL563-1
 14803 2129 0100     		.2byte	0x1
 14804 212b 51       		.byte	0x51
 14805 212c 3F000000 		.4byte	.LVL563-1
 14806 2130 7E000000 		.4byte	.LVL574
 14807 2134 0100     		.2byte	0x1
 14808 2136 55       		.byte	0x55
 14809 2137 7E000000 		.4byte	.LVL574
 14810 213b 94000000 		.4byte	.LFE34
 14811 213f 0400     		.2byte	0x4
 14812 2141 F3       		.byte	0xf3
 14813 2142 01       		.uleb128 0x1
 14814 2143 51       		.byte	0x51
 14815 2144 9F       		.byte	0x9f
 14816 2145 00000000 		.4byte	0
 14817 2149 00000000 		.4byte	0
 14818              	.LLST142:
 14819 214d 16000000 		.4byte	.LVL558
 14820 2151 30000000 		.4byte	.LVL559
 14821 2155 0100     		.2byte	0x1
 14822 2157 50       		.byte	0x50
 14823 2158 30000000 		.4byte	.LVL559
 14824 215c 36000000 		.4byte	.LVL561
 14825 2160 0100     		.2byte	0x1
 14826 2162 56       		.byte	0x56
 14827 2163 72000000 		.4byte	.LVL569
 14828 2167 74000000 		.4byte	.LVL570
 14829 216b 0100     		.2byte	0x1
 14830 216d 50       		.byte	0x50
 14831 216e 74000000 		.4byte	.LVL570
 14832 2172 76000000 		.4byte	.LVL571
 14833 2176 0100     		.2byte	0x1
 14834 2178 56       		.byte	0x56
 14835 2179 00000000 		.4byte	0
 14836 217d 00000000 		.4byte	0
 14837              	.LLST143:
 14838 2181 36000000 		.4byte	.LVL561
ARM GAS  C:\Users\Phuong\AppData\Local\Temp\cc4zbCpa.s 			page 287


 14839 2185 38000000 		.4byte	.LVL562
 14840 2189 0100     		.2byte	0x1
 14841 218b 50       		.byte	0x50
 14842 218c 38000000 		.4byte	.LVL562
 14843 2190 58000000 		.4byte	.LVL566
 14844 2194 0100     		.2byte	0x1
 14845 2196 54       		.byte	0x54
 14846 2197 58000000 		.4byte	.LVL566
 14847 219b 72000000 		.4byte	.LVL569
 14848 219f 0400     		.2byte	0x4
 14849 21a1 F3       		.byte	0xf3
 14850 21a2 01       		.uleb128 0x1
 14851 21a3 50       		.byte	0x50
 14852 21a4 9F       		.byte	0x9f
 14853 21a5 76000000 		.4byte	.LVL571
 14854 21a9 7A000000 		.4byte	.LVL572
 14855 21ad 0100     		.2byte	0x1
 14856 21af 54       		.byte	0x54
 14857 21b0 7A000000 		.4byte	.LVL572
 14858 21b4 7C000000 		.4byte	.LVL573
 14859 21b8 0400     		.2byte	0x4
 14860 21ba F3       		.byte	0xf3
 14861 21bb 01       		.uleb128 0x1
 14862 21bc 50       		.byte	0x50
 14863 21bd 9F       		.byte	0x9f
 14864 21be 00000000 		.4byte	0
 14865 21c2 00000000 		.4byte	0
 14866              	.LLST144:
 14867 21c6 58000000 		.4byte	.LVL566
 14868 21ca 6C000000 		.4byte	.LVL567
 14869 21ce 0100     		.2byte	0x1
 14870 21d0 50       		.byte	0x50
 14871 21d1 6C000000 		.4byte	.LVL567
 14872 21d5 72000000 		.4byte	.LVL569
 14873 21d9 0100     		.2byte	0x1
 14874 21db 54       		.byte	0x54
 14875 21dc 7A000000 		.4byte	.LVL572
 14876 21e0 7C000000 		.4byte	.LVL573
 14877 21e4 0100     		.2byte	0x1
 14878 21e6 50       		.byte	0x50
 14879 21e7 00000000 		.4byte	0
 14880 21eb 00000000 		.4byte	0
 14881              	.LLST145:
 14882 21ef 00000000 		.4byte	.LVL575
 14883 21f3 0B000000 		.4byte	.LVL576-1
 14884 21f7 0100     		.2byte	0x1
 14885 21f9 50       		.byte	0x50
 14886 21fa 0B000000 		.4byte	.LVL576-1
 14887 21fe 28000000 		.4byte	.LVL580
 14888 2202 0400     		.2byte	0x4
 14889 2204 F3       		.byte	0xf3
 14890 2205 01       		.uleb128 0x1
 14891 2206 50       		.byte	0x50
 14892 2207 9F       		.byte	0x9f
 14893 2208 28000000 		.4byte	.LVL580
 14894 220c 2A000000 		.4byte	.LVL581
 14895 2210 0100     		.2byte	0x1
ARM GAS  C:\Users\Phuong\AppData\Local\Temp\cc4zbCpa.s 			page 288


 14896 2212 50       		.byte	0x50
 14897 2213 2A000000 		.4byte	.LVL581
 14898 2217 44000000 		.4byte	.LFE35
 14899 221b 0400     		.2byte	0x4
 14900 221d F3       		.byte	0xf3
 14901 221e 01       		.uleb128 0x1
 14902 221f 50       		.byte	0x50
 14903 2220 9F       		.byte	0x9f
 14904 2221 00000000 		.4byte	0
 14905 2225 00000000 		.4byte	0
 14906              	.LLST146:
 14907 2229 2A000000 		.4byte	.LVL581
 14908 222d 2C000000 		.4byte	.LVL582
 14909 2231 0100     		.2byte	0x1
 14910 2233 50       		.byte	0x50
 14911 2234 2E000000 		.4byte	.LVL583
 14912 2238 44000000 		.4byte	.LFE35
 14913 223c 0100     		.2byte	0x1
 14914 223e 50       		.byte	0x50
 14915 223f 00000000 		.4byte	0
 14916 2243 00000000 		.4byte	0
 14917              	.LLST147:
 14918 2247 0E000000 		.4byte	.LVL577
 14919 224b 22000000 		.4byte	.LVL578
 14920 224f 0100     		.2byte	0x1
 14921 2251 50       		.byte	0x50
 14922 2252 22000000 		.4byte	.LVL578
 14923 2256 28000000 		.4byte	.LVL580
 14924 225a 0100     		.2byte	0x1
 14925 225c 54       		.byte	0x54
 14926 225d 2C000000 		.4byte	.LVL582
 14927 2261 2E000000 		.4byte	.LVL583
 14928 2265 0100     		.2byte	0x1
 14929 2267 50       		.byte	0x50
 14930 2268 00000000 		.4byte	0
 14931 226c 00000000 		.4byte	0
 14932              	.LLST148:
 14933 2270 00000000 		.4byte	.LVL584
 14934 2274 13000000 		.4byte	.LVL585-1
 14935 2278 0100     		.2byte	0x1
 14936 227a 50       		.byte	0x50
 14937 227b 13000000 		.4byte	.LVL585-1
 14938 227f 36000000 		.4byte	.LVL589
 14939 2283 0100     		.2byte	0x1
 14940 2285 54       		.byte	0x54
 14941 2286 36000000 		.4byte	.LVL589
 14942 228a 38000000 		.4byte	.LVL590
 14943 228e 0100     		.2byte	0x1
 14944 2290 50       		.byte	0x50
 14945 2291 38000000 		.4byte	.LVL590
 14946 2295 58000000 		.4byte	.LVL594
 14947 2299 0100     		.2byte	0x1
 14948 229b 54       		.byte	0x54
 14949 229c 58000000 		.4byte	.LVL594
 14950 22a0 72000000 		.4byte	.LVL597
 14951 22a4 0400     		.2byte	0x4
 14952 22a6 F3       		.byte	0xf3
ARM GAS  C:\Users\Phuong\AppData\Local\Temp\cc4zbCpa.s 			page 289


 14953 22a7 01       		.uleb128 0x1
 14954 22a8 50       		.byte	0x50
 14955 22a9 9F       		.byte	0x9f
 14956 22aa 72000000 		.4byte	.LVL597
 14957 22ae 7A000000 		.4byte	.LVL600
 14958 22b2 0100     		.2byte	0x1
 14959 22b4 54       		.byte	0x54
 14960 22b5 7A000000 		.4byte	.LVL600
 14961 22b9 94000000 		.4byte	.LFE36
 14962 22bd 0400     		.2byte	0x4
 14963 22bf F3       		.byte	0xf3
 14964 22c0 01       		.uleb128 0x1
 14965 22c1 50       		.byte	0x50
 14966 22c2 9F       		.byte	0x9f
 14967 22c3 00000000 		.4byte	0
 14968 22c7 00000000 		.4byte	0
 14969              	.LLST149:
 14970 22cb 00000000 		.4byte	.LVL584
 14971 22cf 13000000 		.4byte	.LVL585-1
 14972 22d3 0100     		.2byte	0x1
 14973 22d5 51       		.byte	0x51
 14974 22d6 13000000 		.4byte	.LVL585-1
 14975 22da 36000000 		.4byte	.LVL589
 14976 22de 0100     		.2byte	0x1
 14977 22e0 55       		.byte	0x55
 14978 22e1 36000000 		.4byte	.LVL589
 14979 22e5 3F000000 		.4byte	.LVL591-1
 14980 22e9 0100     		.2byte	0x1
 14981 22eb 51       		.byte	0x51
 14982 22ec 3F000000 		.4byte	.LVL591-1
 14983 22f0 7E000000 		.4byte	.LVL602
 14984 22f4 0100     		.2byte	0x1
 14985 22f6 55       		.byte	0x55
 14986 22f7 7E000000 		.4byte	.LVL602
 14987 22fb 94000000 		.4byte	.LFE36
 14988 22ff 0400     		.2byte	0x4
 14989 2301 F3       		.byte	0xf3
 14990 2302 01       		.uleb128 0x1
 14991 2303 51       		.byte	0x51
 14992 2304 9F       		.byte	0x9f
 14993 2305 00000000 		.4byte	0
 14994 2309 00000000 		.4byte	0
 14995              	.LLST150:
 14996 230d 16000000 		.4byte	.LVL586
 14997 2311 30000000 		.4byte	.LVL587
 14998 2315 0100     		.2byte	0x1
 14999 2317 50       		.byte	0x50
 15000 2318 30000000 		.4byte	.LVL587
 15001 231c 36000000 		.4byte	.LVL589
 15002 2320 0100     		.2byte	0x1
 15003 2322 56       		.byte	0x56
 15004 2323 72000000 		.4byte	.LVL597
 15005 2327 74000000 		.4byte	.LVL598
 15006 232b 0100     		.2byte	0x1
 15007 232d 50       		.byte	0x50
 15008 232e 74000000 		.4byte	.LVL598
 15009 2332 76000000 		.4byte	.LVL599
ARM GAS  C:\Users\Phuong\AppData\Local\Temp\cc4zbCpa.s 			page 290


 15010 2336 0100     		.2byte	0x1
 15011 2338 56       		.byte	0x56
 15012 2339 00000000 		.4byte	0
 15013 233d 00000000 		.4byte	0
 15014              	.LLST151:
 15015 2341 36000000 		.4byte	.LVL589
 15016 2345 38000000 		.4byte	.LVL590
 15017 2349 0100     		.2byte	0x1
 15018 234b 50       		.byte	0x50
 15019 234c 38000000 		.4byte	.LVL590
 15020 2350 58000000 		.4byte	.LVL594
 15021 2354 0100     		.2byte	0x1
 15022 2356 54       		.byte	0x54
 15023 2357 58000000 		.4byte	.LVL594
 15024 235b 72000000 		.4byte	.LVL597
 15025 235f 0400     		.2byte	0x4
 15026 2361 F3       		.byte	0xf3
 15027 2362 01       		.uleb128 0x1
 15028 2363 50       		.byte	0x50
 15029 2364 9F       		.byte	0x9f
 15030 2365 76000000 		.4byte	.LVL599
 15031 2369 7A000000 		.4byte	.LVL600
 15032 236d 0100     		.2byte	0x1
 15033 236f 54       		.byte	0x54
 15034 2370 7A000000 		.4byte	.LVL600
 15035 2374 7C000000 		.4byte	.LVL601
 15036 2378 0400     		.2byte	0x4
 15037 237a F3       		.byte	0xf3
 15038 237b 01       		.uleb128 0x1
 15039 237c 50       		.byte	0x50
 15040 237d 9F       		.byte	0x9f
 15041 237e 00000000 		.4byte	0
 15042 2382 00000000 		.4byte	0
 15043              	.LLST152:
 15044 2386 58000000 		.4byte	.LVL594
 15045 238a 6C000000 		.4byte	.LVL595
 15046 238e 0100     		.2byte	0x1
 15047 2390 50       		.byte	0x50
 15048 2391 6C000000 		.4byte	.LVL595
 15049 2395 72000000 		.4byte	.LVL597
 15050 2399 0100     		.2byte	0x1
 15051 239b 54       		.byte	0x54
 15052 239c 7A000000 		.4byte	.LVL600
 15053 23a0 7C000000 		.4byte	.LVL601
 15054 23a4 0100     		.2byte	0x1
 15055 23a6 50       		.byte	0x50
 15056 23a7 00000000 		.4byte	0
 15057 23ab 00000000 		.4byte	0
 15058              	.LLST153:
 15059 23af 00000000 		.4byte	.LVL603
 15060 23b3 09000000 		.4byte	.LVL604-1
 15061 23b7 0100     		.2byte	0x1
 15062 23b9 50       		.byte	0x50
 15063 23ba 09000000 		.4byte	.LVL604-1
 15064 23be 0C000000 		.4byte	.LFE37
 15065 23c2 0400     		.2byte	0x4
 15066 23c4 F3       		.byte	0xf3
ARM GAS  C:\Users\Phuong\AppData\Local\Temp\cc4zbCpa.s 			page 291


 15067 23c5 01       		.uleb128 0x1
 15068 23c6 50       		.byte	0x50
 15069 23c7 9F       		.byte	0x9f
 15070 23c8 00000000 		.4byte	0
 15071 23cc 00000000 		.4byte	0
 15072              		.section	.debug_aranges,"",%progbits
 15073 0000 3C010000 		.4byte	0x13c
 15074 0004 0200     		.2byte	0x2
 15075 0006 00000000 		.4byte	.Ldebug_info0
 15076 000a 04       		.byte	0x4
 15077 000b 00       		.byte	0
 15078 000c 0000     		.2byte	0
 15079 000e 0000     		.2byte	0
 15080 0010 00000000 		.4byte	.LFB5
 15081 0014 22000000 		.4byte	.LFE5-.LFB5
 15082 0018 00000000 		.4byte	.LFB6
 15083 001c 22000000 		.4byte	.LFE6-.LFB6
 15084 0020 00000000 		.4byte	.LFB7
 15085 0024 1A000000 		.4byte	.LFE7-.LFB7
 15086 0028 00000000 		.4byte	.LFB8
 15087 002c 66000000 		.4byte	.LFE8-.LFB8
 15088 0030 00000000 		.4byte	.LFB9
 15089 0034 E0000000 		.4byte	.LFE9-.LFB9
 15090 0038 00000000 		.4byte	.LFB1
 15091 003c 14000000 		.4byte	.LFE1-.LFB1
 15092 0040 00000000 		.4byte	.LFB2
 15093 0044 3C000000 		.4byte	.LFE2-.LFB2
 15094 0048 00000000 		.4byte	.LFB3
 15095 004c 18000000 		.4byte	.LFE3-.LFB3
 15096 0050 00000000 		.4byte	.LFB4
 15097 0054 40000000 		.4byte	.LFE4-.LFB4
 15098 0058 00000000 		.4byte	.LFB10
 15099 005c 30010000 		.4byte	.LFE10-.LFB10
 15100 0060 00000000 		.4byte	.LFB11
 15101 0064 E4000000 		.4byte	.LFE11-.LFB11
 15102 0068 00000000 		.4byte	.LFB12
 15103 006c 90030000 		.4byte	.LFE12-.LFB12
 15104 0070 00000000 		.4byte	.LFB13
 15105 0074 9C000000 		.4byte	.LFE13-.LFB13
 15106 0078 00000000 		.4byte	.LFB14
 15107 007c 1C000000 		.4byte	.LFE14-.LFB14
 15108 0080 00000000 		.4byte	.LFB15
 15109 0084 0C000000 		.4byte	.LFE15-.LFB15
 15110 0088 00000000 		.4byte	.LFB16
 15111 008c 40000000 		.4byte	.LFE16-.LFB16
 15112 0090 00000000 		.4byte	.LFB17
 15113 0094 88000000 		.4byte	.LFE17-.LFB17
 15114 0098 00000000 		.4byte	.LFB18
 15115 009c 78000000 		.4byte	.LFE18-.LFB18
 15116 00a0 00000000 		.4byte	.LFB19
 15117 00a4 44000000 		.4byte	.LFE19-.LFB19
 15118 00a8 00000000 		.4byte	.LFB20
 15119 00ac 6C000000 		.4byte	.LFE20-.LFB20
 15120 00b0 00000000 		.4byte	.LFB21
 15121 00b4 68000000 		.4byte	.LFE21-.LFB21
 15122 00b8 00000000 		.4byte	.LFB22
 15123 00bc 40000000 		.4byte	.LFE22-.LFB22
ARM GAS  C:\Users\Phuong\AppData\Local\Temp\cc4zbCpa.s 			page 292


 15124 00c0 00000000 		.4byte	.LFB23
 15125 00c4 98000000 		.4byte	.LFE23-.LFB23
 15126 00c8 00000000 		.4byte	.LFB24
 15127 00cc 40000000 		.4byte	.LFE24-.LFB24
 15128 00d0 00000000 		.4byte	.LFB25
 15129 00d4 98000000 		.4byte	.LFE25-.LFB25
 15130 00d8 00000000 		.4byte	.LFB26
 15131 00dc 44000000 		.4byte	.LFE26-.LFB26
 15132 00e0 00000000 		.4byte	.LFB27
 15133 00e4 44000000 		.4byte	.LFE27-.LFB27
 15134 00e8 00000000 		.4byte	.LFB28
 15135 00ec B8000000 		.4byte	.LFE28-.LFB28
 15136 00f0 00000000 		.4byte	.LFB29
 15137 00f4 44000000 		.4byte	.LFE29-.LFB29
 15138 00f8 00000000 		.4byte	.LFB30
 15139 00fc 94000000 		.4byte	.LFE30-.LFB30
 15140 0100 00000000 		.4byte	.LFB31
 15141 0104 44000000 		.4byte	.LFE31-.LFB31
 15142 0108 00000000 		.4byte	.LFB32
 15143 010c 94000000 		.4byte	.LFE32-.LFB32
 15144 0110 00000000 		.4byte	.LFB33
 15145 0114 44000000 		.4byte	.LFE33-.LFB33
 15146 0118 00000000 		.4byte	.LFB34
 15147 011c 94000000 		.4byte	.LFE34-.LFB34
 15148 0120 00000000 		.4byte	.LFB35
 15149 0124 44000000 		.4byte	.LFE35-.LFB35
 15150 0128 00000000 		.4byte	.LFB36
 15151 012c 94000000 		.4byte	.LFE36-.LFB36
 15152 0130 00000000 		.4byte	.LFB37
 15153 0134 0C000000 		.4byte	.LFE37-.LFB37
 15154 0138 00000000 		.4byte	0
 15155 013c 00000000 		.4byte	0
 15156              		.section	.debug_ranges,"",%progbits
 15157              	.Ldebug_ranges0:
 15158 0000 3E000000 		.4byte	.LBB34
 15159 0004 82000000 		.4byte	.LBE34
 15160 0008 86000000 		.4byte	.LBB36
 15161 000c 88000000 		.4byte	.LBE36
 15162 0010 00000000 		.4byte	0
 15163 0014 00000000 		.4byte	0
 15164 0018 06000000 		.4byte	.LBB37
 15165 001c 14000000 		.4byte	.LBE37
 15166 0020 18000000 		.4byte	.LBB38
 15167 0024 1A000000 		.4byte	.LBE38
 15168 0028 00000000 		.4byte	0
 15169 002c 00000000 		.4byte	0
 15170 0030 30000000 		.4byte	.LBB49
 15171 0034 50000000 		.4byte	.LBE49
 15172 0038 54000000 		.4byte	.LBB50
 15173 003c 56000000 		.4byte	.LBE50
 15174 0040 00000000 		.4byte	0
 15175 0044 00000000 		.4byte	0
 15176 0048 32000000 		.4byte	.LBB52
 15177 004c 52000000 		.4byte	.LBE52
 15178 0050 56000000 		.4byte	.LBB53
 15179 0054 58000000 		.4byte	.LBE53
 15180 0058 00000000 		.4byte	0
ARM GAS  C:\Users\Phuong\AppData\Local\Temp\cc4zbCpa.s 			page 293


 15181 005c 00000000 		.4byte	0
 15182 0060 34000000 		.4byte	.LBB57
 15183 0064 70000000 		.4byte	.LBE57
 15184 0068 74000000 		.4byte	.LBB59
 15185 006c 7A000000 		.4byte	.LBE59
 15186 0070 00000000 		.4byte	0
 15187 0074 00000000 		.4byte	0
 15188 0078 34000000 		.4byte	.LBB63
 15189 007c 70000000 		.4byte	.LBE63
 15190 0080 74000000 		.4byte	.LBB65
 15191 0084 7A000000 		.4byte	.LBE65
 15192 0088 00000000 		.4byte	0
 15193 008c 00000000 		.4byte	0
 15194 0090 32000000 		.4byte	.LBB73
 15195 0094 6C000000 		.4byte	.LBE73
 15196 0098 70000000 		.4byte	.LBB75
 15197 009c 76000000 		.4byte	.LBE75
 15198 00a0 00000000 		.4byte	0
 15199 00a4 00000000 		.4byte	0
 15200 00a8 36000000 		.4byte	.LBB78
 15201 00ac 72000000 		.4byte	.LBE78
 15202 00b0 76000000 		.4byte	.LBB80
 15203 00b4 7C000000 		.4byte	.LBE80
 15204 00b8 00000000 		.4byte	0
 15205 00bc 00000000 		.4byte	0
 15206 00c0 36000000 		.4byte	.LBB83
 15207 00c4 72000000 		.4byte	.LBE83
 15208 00c8 76000000 		.4byte	.LBB85
 15209 00cc 7C000000 		.4byte	.LBE85
 15210 00d0 00000000 		.4byte	0
 15211 00d4 00000000 		.4byte	0
 15212 00d8 36000000 		.4byte	.LBB88
 15213 00dc 72000000 		.4byte	.LBE88
 15214 00e0 76000000 		.4byte	.LBB90
 15215 00e4 7C000000 		.4byte	.LBE90
 15216 00e8 00000000 		.4byte	0
 15217 00ec 00000000 		.4byte	0
 15218 00f0 00000000 		.4byte	.LFB5
 15219 00f4 22000000 		.4byte	.LFE5
 15220 00f8 00000000 		.4byte	.LFB6
 15221 00fc 22000000 		.4byte	.LFE6
 15222 0100 00000000 		.4byte	.LFB7
 15223 0104 1A000000 		.4byte	.LFE7
 15224 0108 00000000 		.4byte	.LFB8
 15225 010c 66000000 		.4byte	.LFE8
 15226 0110 00000000 		.4byte	.LFB9
 15227 0114 E0000000 		.4byte	.LFE9
 15228 0118 00000000 		.4byte	.LFB1
 15229 011c 14000000 		.4byte	.LFE1
 15230 0120 00000000 		.4byte	.LFB2
 15231 0124 3C000000 		.4byte	.LFE2
 15232 0128 00000000 		.4byte	.LFB3
 15233 012c 18000000 		.4byte	.LFE3
 15234 0130 00000000 		.4byte	.LFB4
 15235 0134 40000000 		.4byte	.LFE4
 15236 0138 00000000 		.4byte	.LFB10
 15237 013c 30010000 		.4byte	.LFE10
ARM GAS  C:\Users\Phuong\AppData\Local\Temp\cc4zbCpa.s 			page 294


 15238 0140 00000000 		.4byte	.LFB11
 15239 0144 E4000000 		.4byte	.LFE11
 15240 0148 00000000 		.4byte	.LFB12
 15241 014c 90030000 		.4byte	.LFE12
 15242 0150 00000000 		.4byte	.LFB13
 15243 0154 9C000000 		.4byte	.LFE13
 15244 0158 00000000 		.4byte	.LFB14
 15245 015c 1C000000 		.4byte	.LFE14
 15246 0160 00000000 		.4byte	.LFB15
 15247 0164 0C000000 		.4byte	.LFE15
 15248 0168 00000000 		.4byte	.LFB16
 15249 016c 40000000 		.4byte	.LFE16
 15250 0170 00000000 		.4byte	.LFB17
 15251 0174 88000000 		.4byte	.LFE17
 15252 0178 00000000 		.4byte	.LFB18
 15253 017c 78000000 		.4byte	.LFE18
 15254 0180 00000000 		.4byte	.LFB19
 15255 0184 44000000 		.4byte	.LFE19
 15256 0188 00000000 		.4byte	.LFB20
 15257 018c 6C000000 		.4byte	.LFE20
 15258 0190 00000000 		.4byte	.LFB21
 15259 0194 68000000 		.4byte	.LFE21
 15260 0198 00000000 		.4byte	.LFB22
 15261 019c 40000000 		.4byte	.LFE22
 15262 01a0 00000000 		.4byte	.LFB23
 15263 01a4 98000000 		.4byte	.LFE23
 15264 01a8 00000000 		.4byte	.LFB24
 15265 01ac 40000000 		.4byte	.LFE24
 15266 01b0 00000000 		.4byte	.LFB25
 15267 01b4 98000000 		.4byte	.LFE25
 15268 01b8 00000000 		.4byte	.LFB26
 15269 01bc 44000000 		.4byte	.LFE26
 15270 01c0 00000000 		.4byte	.LFB27
 15271 01c4 44000000 		.4byte	.LFE27
 15272 01c8 00000000 		.4byte	.LFB28
 15273 01cc B8000000 		.4byte	.LFE28
 15274 01d0 00000000 		.4byte	.LFB29
 15275 01d4 44000000 		.4byte	.LFE29
 15276 01d8 00000000 		.4byte	.LFB30
 15277 01dc 94000000 		.4byte	.LFE30
 15278 01e0 00000000 		.4byte	.LFB31
 15279 01e4 44000000 		.4byte	.LFE31
 15280 01e8 00000000 		.4byte	.LFB32
 15281 01ec 94000000 		.4byte	.LFE32
 15282 01f0 00000000 		.4byte	.LFB33
 15283 01f4 44000000 		.4byte	.LFE33
 15284 01f8 00000000 		.4byte	.LFB34
 15285 01fc 94000000 		.4byte	.LFE34
 15286 0200 00000000 		.4byte	.LFB35
 15287 0204 44000000 		.4byte	.LFE35
 15288 0208 00000000 		.4byte	.LFB36
 15289 020c 94000000 		.4byte	.LFE36
 15290 0210 00000000 		.4byte	.LFB37
 15291 0214 0C000000 		.4byte	.LFE37
 15292 0218 00000000 		.4byte	0
 15293 021c 00000000 		.4byte	0
 15294              		.section	.debug_line,"",%progbits
ARM GAS  C:\Users\Phuong\AppData\Local\Temp\cc4zbCpa.s 			page 295


 15295              	.Ldebug_line0:
 15296 0000 8B0A0000 		.section	.debug_str,"MS",%progbits,1
 15296      02002302 
 15296      00000201 
 15296      FB0E0D00 
 15296      01010101 
 15297              	.LASF139:
 15298 0000 4D61705F 		.ascii	"Map_AddOrUpdate\000"
 15298      4164644F 
 15298      72557064 
 15298      61746500 
 15299              	.LASF115:
 15300 0010 496F5448 		.ascii	"IoTHubMessage_GetConnectionModuleId\000"
 15300      75624D65 
 15300      73736167 
 15300      655F4765 
 15300      74436F6E 
 15301              	.LASF26:
 15302 0034 4D41505F 		.ascii	"MAP_INVALIDARG\000"
 15302      494E5641 
 15302      4C494441 
 15302      524700
 15303              	.LASF99:
 15304 0043 496F5448 		.ascii	"IoTHubMessage_GetProperty\000"
 15304      75624D65 
 15304      73736167 
 15304      655F4765 
 15304      7450726F 
 15305              	.LASF66:
 15306 005d 69746572 		.ascii	"iterator\000"
 15306      61746F72 
 15306      00
 15307              	.LASF44:
 15308 0066 636F6E74 		.ascii	"contentType\000"
 15308      656E7454 
 15308      79706500 
 15309              	.LASF93:
 15310 0072 62756666 		.ascii	"buffer\000"
 15310      657200
 15311              	.LASF107:
 15312 0079 496F5448 		.ascii	"IoTHubMessage_SetContentEncodingSystemProperty\000"
 15312      75624D65 
 15312      73736167 
 15312      655F5365 
 15312      74436F6E 
 15313              	.LASF92:
 15314 00a8 496F5448 		.ascii	"IoTHubMessage_GetByteArray\000"
 15314      75624D65 
 15314      73736167 
 15314      655F4765 
 15314      74427974 
 15315              	.LASF0:
 15316 00c3 756E7369 		.ascii	"unsigned int\000"
 15316      676E6564 
 15316      20696E74 
 15316      00
 15317              	.LASF76:
ARM GAS  C:\Users\Phuong\AppData\Local\Temp\cc4zbCpa.s 			page 296


 15318 00d0 68616E64 		.ascii	"handleData\000"
 15318      6C654461 
 15318      746100
 15319              	.LASF60:
 15320 00db 494F5448 		.ascii	"IOTHUB_MESSAGE_DIAGNOSTIC_PROPERTY_DATA\000"
 15320      55425F4D 
 15320      45535341 
 15320      47455F44 
 15320      4941474E 
 15321              	.LASF119:
 15322 0103 44494147 		.ascii	"DIAG_CREATION_TIME_UTC_PROPERTY_NAME\000"
 15322      5F435245 
 15322      4154494F 
 15322      4E5F5449 
 15322      4D455F55 
 15323              	.LASF73:
 15324 0128 64696167 		.ascii	"diagnosticHandle\000"
 15324      6E6F7374 
 15324      69634861 
 15324      6E646C65 
 15324      00
 15325              	.LASF80:
 15326 0139 494F5448 		.ascii	"IOTHUB_MESSAGE_RESULT_FromString\000"
 15326      55425F4D 
 15326      45535341 
 15326      47455F52 
 15326      4553554C 
 15327              	.LASF109:
 15328 015a 496F5448 		.ascii	"IoTHubMessage_GetDiagnosticPropertyData\000"
 15328      75624D65 
 15328      73736167 
 15328      655F4765 
 15328      74446961 
 15329              	.LASF126:
 15330 0182 786C6F67 		.ascii	"xlogging_get_log_function\000"
 15330      67696E67 
 15330      5F676574 
 15330      5F6C6F67 
 15330      5F66756E 
 15331              	.LASF108:
 15332 019c 496F5448 		.ascii	"IoTHubMessage_GetContentEncodingSystemProperty\000"
 15332      75624D65 
 15332      73736167 
 15332      655F4765 
 15332      74436F6E 
 15333              	.LASF137:
 15334 01cb 42554646 		.ascii	"BUFFER_length\000"
 15334      45525F6C 
 15334      656E6774 
 15334      6800
 15335              	.LASF19:
 15336 01d9 53545249 		.ascii	"STRING_HANDLE\000"
 15336      4E475F48 
 15336      414E444C 
 15336      4500
 15337              	.LASF40:
 15338 01e7 494F5448 		.ascii	"IOTHUBMESSAGE_STRING\000"
ARM GAS  C:\Users\Phuong\AppData\Local\Temp\cc4zbCpa.s 			page 297


 15338      55424D45 
 15338      53534147 
 15338      455F5354 
 15338      52494E47 
 15339              	.LASF142:
 15340 01fc 474E5520 		.ascii	"GNU C11 5.4.1 20160609 (release) [ARM/embedded-5-br"
 15340      43313120 
 15340      352E342E 
 15340      31203230 
 15340      31363036 
 15341 022f 616E6368 		.ascii	"anch revision 237715] -mcpu=cortex-m0plus -mthumb -"
 15341      20726576 
 15341      6973696F 
 15341      6E203233 
 15341      37373135 
 15342 0262 67202D4F 		.ascii	"g -Og -ffunction-sections -ffat-lto-objects\000"
 15342      67202D66 
 15342      66756E63 
 15342      74696F6E 
 15342      2D736563 
 15343              	.LASF127:
 15344 028e 6D616C6C 		.ascii	"malloc\000"
 15344      6F6300
 15345              	.LASF57:
 15346 0295 494F5448 		.ascii	"IOTHUB_MESSAGE_DIAGNOSTIC_PROPERTY_DATA_TAG\000"
 15346      55425F4D 
 15346      45535341 
 15346      47455F44 
 15346      4941474E 
 15347              	.LASF48:
 15348 02c1 636F7272 		.ascii	"correlationId\000"
 15348      656C6174 
 15348      696F6E49 
 15348      6400
 15349              	.LASF114:
 15350 02cf 496F5448 		.ascii	"IoTHubMessage_SetInputName\000"
 15350      75624D65 
 15350      73736167 
 15350      655F5365 
 15350      74496E70 
 15351              	.LASF65:
 15352 02ea 72657375 		.ascii	"result\000"
 15352      6C7400
 15353              	.LASF138:
 15354 02f1 53545249 		.ascii	"STRING_c_str\000"
 15354      4E475F63 
 15354      5F737472 
 15354      00
 15355              	.LASF9:
 15356 02fe 6C6F6E67 		.ascii	"long long unsigned int\000"
 15356      206C6F6E 
 15356      6720756E 
 15356      7369676E 
 15356      65642069 
 15357              	.LASF30:
 15358 0315 4D41505F 		.ascii	"MAP_HANDLE\000"
 15358      48414E44 
ARM GAS  C:\Users\Phuong\AppData\Local\Temp\cc4zbCpa.s 			page 298


 15358      4C4500
 15359              	.LASF91:
 15360 0320 696F7448 		.ascii	"iotHubMessageHandle\000"
 15360      75624D65 
 15360      73736167 
 15360      6548616E 
 15360      646C6500 
 15361              	.LASF128:
 15362 0334 6D616C6C 		.ascii	"mallocAndStrcpy_s\000"
 15362      6F63416E 
 15362      64537472 
 15362      6370795F 
 15362      7300
 15363              	.LASF131:
 15364 0346 4D61705F 		.ascii	"Map_Create\000"
 15364      43726561 
 15364      746500
 15365              	.LASF47:
 15366 0351 6D657373 		.ascii	"messageId\000"
 15366      61676549 
 15366      6400
 15367              	.LASF94:
 15368 035b 496F5448 		.ascii	"IoTHubMessage_GetString\000"
 15368      75624D65 
 15368      73736167 
 15368      655F4765 
 15368      74537472 
 15369              	.LASF62:
 15370 0373 62797465 		.ascii	"byteArray\000"
 15370      41727261 
 15370      7900
 15371              	.LASF45:
 15372 037d 76616C75 		.ascii	"value\000"
 15372      6500
 15373              	.LASF144:
 15374 0383 433A5C55 		.ascii	"C:\\Users\\Phuong\\Documents\\PSoC Creator\\Dec0820"
 15374      73657273 
 15374      5C506875 
 15374      6F6E675C 
 15374      446F6375 
 15375 03b1 31385C69 		.ascii	"18\\iot-sdk-iot-dev\\PSOC6_FreeRTOS+LwIP+MbedTLS_Az"
 15375      6F742D73 
 15375      646B2D69 
 15375      6F742D64 
 15375      65765C50 
 15376 03e2 7572652D 		.ascii	"ure-IOT-Hub-Demo\\PSOC6_FreeRTOS+LwIP+MbedTLS_Azure"
 15376      494F542D 
 15376      4875622D 
 15376      44656D6F 
 15376      5C50534F 
 15377 0414 2D494F54 		.ascii	"-IOT-Hub-Demo.cydsn\000"
 15377      2D487562 
 15377      2D44656D 
 15377      6F2E6379 
 15377      64736E00 
 15378              	.LASF110:
 15379 0428 496F5448 		.ascii	"IoTHubMessage_SetDiagnosticPropertyData\000"
ARM GAS  C:\Users\Phuong\AppData\Local\Temp\cc4zbCpa.s 			page 299


 15379      75624D65 
 15379      73736167 
 15379      655F5365 
 15379      74446961 
 15380              	.LASF145:
 15381 0450 496F5448 		.ascii	"IoTHubMessage_Destroy\000"
 15381      75624D65 
 15381      73736167 
 15381      655F4465 
 15381      7374726F 
 15382              	.LASF15:
 15383 0466 73697A65 		.ascii	"size_t\000"
 15383      5F7400
 15384              	.LASF28:
 15385 046d 4D41505F 		.ascii	"MAP_KEYNOTFOUND\000"
 15385      4B45594E 
 15385      4F54464F 
 15385      554E4400 
 15386              	.LASF32:
 15387 047d 494F5448 		.ascii	"IOTHUB_MESSAGE_RESULT_TAG\000"
 15387      55425F4D 
 15387      45535341 
 15387      47455F52 
 15387      4553554C 
 15388              	.LASF67:
 15389 0497 5F426F6F 		.ascii	"_Bool\000"
 15389      6C00
 15390              	.LASF122:
 15391 049d 66726565 		.ascii	"free\000"
 15391      00
 15392              	.LASF123:
 15393 04a2 42554646 		.ascii	"BUFFER_delete\000"
 15393      45525F64 
 15393      656C6574 
 15393      6500
 15394              	.LASF77:
 15395 04b0 436C6F6E 		.ascii	"CloneDiagnosticPropertyData\000"
 15395      65446961 
 15395      676E6F73 
 15395      74696350 
 15395      726F7065 
 15396              	.LASF84:
 15397 04cc 494F5448 		.ascii	"IOTHUBMESSAGE_CONTENT_TYPE_FromString\000"
 15397      55424D45 
 15397      53534147 
 15397      455F434F 
 15397      4E54454E 
 15398              	.LASF59:
 15399 04f2 64696167 		.ascii	"diagnosticCreationTimeUtc\000"
 15399      6E6F7374 
 15399      69634372 
 15399      65617469 
 15399      6F6E5469 
 15400              	.LASF11:
 15401 050c 63686172 		.ascii	"char\000"
 15401      00
 15402              	.LASF68:
ARM GAS  C:\Users\Phuong\AppData\Local\Temp\cc4zbCpa.s 			page 300


 15403 0511 436F6E74 		.ascii	"ContainsOnlyUsAscii\000"
 15403      61696E73 
 15403      4F6E6C79 
 15403      55734173 
 15403      63696900 
 15404              	.LASF50:
 15405 0525 636F6E74 		.ascii	"contentEncoding\000"
 15405      656E7445 
 15405      6E636F64 
 15405      696E6700 
 15406              	.LASF63:
 15407 0535 73747269 		.ascii	"string\000"
 15407      6E6700
 15408              	.LASF105:
 15409 053c 496F5448 		.ascii	"IoTHubMessage_SetContentTypeSystemProperty\000"
 15409      75624D65 
 15409      73736167 
 15409      655F5365 
 15409      74436F6E 
 15410              	.LASF20:
 15411 0567 42554646 		.ascii	"BUFFER_TAG\000"
 15411      45525F54 
 15411      414700
 15412              	.LASF121:
 15413 0572 494F5448 		.ascii	"IOTHUBMESSAGE_CONTENT_TYPEStringStorage\000"
 15413      55424D45 
 15413      53534147 
 15413      455F434F 
 15413      4E54454E 
 15414              	.LASF55:
 15415 059a 64696167 		.ascii	"diagnosticData\000"
 15415      6E6F7374 
 15415      69634461 
 15415      746100
 15416              	.LASF13:
 15417 05a9 415A5F4C 		.ascii	"AZ_LOG_INFO\000"
 15417      4F475F49 
 15417      4E464F00 
 15418              	.LASF21:
 15419 05b5 53545249 		.ascii	"STRING_TAG\000"
 15419      4E475F54 
 15419      414700
 15420              	.LASF42:
 15421 05c0 494F5448 		.ascii	"IOTHUBMESSAGE_CONTENT_TYPE\000"
 15421      55424D45 
 15421      53534147 
 15421      455F434F 
 15421      4E54454E 
 15422              	.LASF53:
 15423 05db 636F6E6E 		.ascii	"connectionModuleId\000"
 15423      65637469 
 15423      6F6E4D6F 
 15423      64756C65 
 15423      496400
 15424              	.LASF118:
 15425 05ee 496F5448 		.ascii	"IoTHubMessage_SetConnectionDeviceId\000"
 15425      75624D65 
ARM GAS  C:\Users\Phuong\AppData\Local\Temp\cc4zbCpa.s 			page 301


 15425      73736167 
 15425      655F5365 
 15425      74436F6E 
 15426              	.LASF1:
 15427 0612 6C6F6E67 		.ascii	"long long int\000"
 15427      206C6F6E 
 15427      6720696E 
 15427      7400
 15428              	.LASF72:
 15429 0620 6D617056 		.ascii	"mapValue\000"
 15429      616C7565 
 15429      00
 15430              	.LASF64:
 15431 0629 494F5448 		.ascii	"IOTHUB_MESSAGE_HANDLE_DATA\000"
 15431      55425F4D 
 15431      45535341 
 15431      47455F48 
 15431      414E444C 
 15432              	.LASF54:
 15433 0644 636F6E6E 		.ascii	"connectionDeviceId\000"
 15433      65637469 
 15433      6F6E4465 
 15433      76696365 
 15433      496400
 15434              	.LASF16:
 15435 0657 4C4F475F 		.ascii	"LOG_CATEGORY\000"
 15435      43415445 
 15435      474F5259 
 15435      00
 15436              	.LASF83:
 15437 0664 494F5448 		.ascii	"IOTHUBMESSAGE_CONTENT_TYPEStrings\000"
 15437      55424D45 
 15437      53534147 
 15437      455F434F 
 15437      4E54454E 
 15438              	.LASF90:
 15439 0686 496F5448 		.ascii	"IoTHubMessage_Clone\000"
 15439      75624D65 
 15439      73736167 
 15439      655F436C 
 15439      6F6E6500 
 15440              	.LASF112:
 15441 069a 496F5448 		.ascii	"IoTHubMessage_SetOutputName\000"
 15441      75624D65 
 15441      73736167 
 15441      655F5365 
 15441      744F7574 
 15442              	.LASF146:
 15443 06b6 6D656D73 		.ascii	"memset\000"
 15443      657400
 15444              	.LASF136:
 15445 06bd 42554646 		.ascii	"BUFFER_u_char\000"
 15445      45525F75 
 15445      5F636861 
 15445      7200
 15446              	.LASF29:
 15447 06cb 4D41505F 		.ascii	"MAP_FILTER_REJECT\000"
ARM GAS  C:\Users\Phuong\AppData\Local\Temp\cc4zbCpa.s 			page 302


 15447      46494C54 
 15447      45525F52 
 15447      454A4543 
 15447      5400
 15448              	.LASF69:
 15449 06dd 56616C69 		.ascii	"ValidateAsciiCharactersFilter\000"
 15449      64617465 
 15449      41736369 
 15449      69436861 
 15449      72616374 
 15450              	.LASF38:
 15451 06fb 494F5448 		.ascii	"IOTHUBMESSAGE_CONTENT_TYPE_TAG\000"
 15451      55424D45 
 15451      53534147 
 15451      455F434F 
 15451      4E54454E 
 15452              	.LASF35:
 15453 071a 494F5448 		.ascii	"IOTHUB_MESSAGE_INVALID_TYPE\000"
 15453      55425F4D 
 15453      45535341 
 15453      47455F49 
 15453      4E56414C 
 15454              	.LASF86:
 15455 0736 73697A65 		.ascii	"size\000"
 15455      00
 15456              	.LASF89:
 15457 073b 496F5448 		.ascii	"IoTHubMessage_CreateFromString\000"
 15457      75624D65 
 15457      73736167 
 15457      655F4372 
 15457      65617465 
 15458              	.LASF43:
 15459 075a 494F5448 		.ascii	"IOTHUB_MESSAGE_HANDLE\000"
 15459      55425F4D 
 15459      45535341 
 15459      47455F48 
 15459      414E444C 
 15460              	.LASF130:
 15461 0770 42554646 		.ascii	"BUFFER_create\000"
 15461      45525F63 
 15461      72656174 
 15461      6500
 15462              	.LASF24:
 15463 077e 4D41505F 		.ascii	"MAP_OK\000"
 15463      4F4B00
 15464              	.LASF41:
 15465 0785 494F5448 		.ascii	"IOTHUBMESSAGE_UNKNOWN\000"
 15465      55424D45 
 15465      53534147 
 15465      455F554E 
 15465      4B4E4F57 
 15466              	.LASF111:
 15467 079b 496F5448 		.ascii	"IoTHubMessage_GetOutputName\000"
 15467      75624D65 
 15467      73736167 
 15467      655F4765 
 15467      744F7574 
ARM GAS  C:\Users\Phuong\AppData\Local\Temp\cc4zbCpa.s 			page 303


 15468              	.LASF134:
 15469 07b7 4D61705F 		.ascii	"Map_Clone\000"
 15469      436C6F6E 
 15469      6500
 15470              	.LASF2:
 15471 07c1 6C6F6E67 		.ascii	"long double\000"
 15471      20646F75 
 15471      626C6500 
 15472              	.LASF104:
 15473 07cd 496F5448 		.ascii	"IoTHubMessage_GetMessageId\000"
 15473      75624D65 
 15473      73736167 
 15473      655F4765 
 15473      744D6573 
 15474              	.LASF124:
 15475 07e8 53545249 		.ascii	"STRING_delete\000"
 15475      4E475F64 
 15475      656C6574 
 15475      6500
 15476              	.LASF12:
 15477 07f6 415A5F4C 		.ascii	"AZ_LOG_ERROR\000"
 15477      4F475F45 
 15477      52524F52 
 15477      00
 15478              	.LASF61:
 15479 0803 494F5448 		.ascii	"IOTHUB_MESSAGE_DIAGNOSTIC_PROPERTY_DATA_HANDLE\000"
 15479      55425F4D 
 15479      45535341 
 15479      47455F44 
 15479      4941474E 
 15480              	.LASF125:
 15481 0832 4D61705F 		.ascii	"Map_Destroy\000"
 15481      44657374 
 15481      726F7900 
 15482              	.LASF5:
 15483 083e 73686F72 		.ascii	"short int\000"
 15483      7420696E 
 15483      7400
 15484              	.LASF39:
 15485 0848 494F5448 		.ascii	"IOTHUBMESSAGE_BYTEARRAY\000"
 15485      55424D45 
 15485      53534147 
 15485      455F4259 
 15485      54454152 
 15486              	.LASF7:
 15487 0860 6C6F6E67 		.ascii	"long int\000"
 15487      20696E74 
 15487      00
 15488              	.LASF25:
 15489 0869 4D41505F 		.ascii	"MAP_ERROR\000"
 15489      4552524F 
 15489      5200
 15490              	.LASF23:
 15491 0873 4D41505F 		.ascii	"MAP_RESULT_TAG\000"
 15491      52455355 
 15491      4C545F54 
 15491      414700
ARM GAS  C:\Users\Phuong\AppData\Local\Temp\cc4zbCpa.s 			page 304


 15492              	.LASF120:
 15493 0882 494F5448 		.ascii	"IOTHUB_MESSAGE_RESULTStringStorage\000"
 15493      55425F4D 
 15493      45535341 
 15493      47455F52 
 15493      4553554C 
 15494              	.LASF88:
 15495 08a5 74656D70 		.ascii	"temp\000"
 15495      00
 15496              	.LASF95:
 15497 08aa 496F5448 		.ascii	"IoTHubMessage_GetContentType\000"
 15497      75624D65 
 15497      73736167 
 15497      655F4765 
 15497      74436F6E 
 15498              	.LASF52:
 15499 08c7 696E7075 		.ascii	"inputName\000"
 15499      744E616D 
 15499      6500
 15500              	.LASF49:
 15501 08d1 75736572 		.ascii	"userDefinedContentType\000"
 15501      44656669 
 15501      6E656443 
 15501      6F6E7465 
 15501      6E745479 
 15502              	.LASF116:
 15503 08e8 496F5448 		.ascii	"IoTHubMessage_SetConnectionModuleId\000"
 15503      75624D65 
 15503      73736167 
 15503      655F5365 
 15503      74436F6E 
 15504              	.LASF100:
 15505 090c 6B65795F 		.ascii	"key_exists\000"
 15505      65786973 
 15505      747300
 15506              	.LASF58:
 15507 0917 64696167 		.ascii	"diagnosticId\000"
 15507      6E6F7374 
 15507      69634964 
 15507      00
 15508              	.LASF135:
 15509 0924 53545249 		.ascii	"STRING_clone\000"
 15509      4E475F63 
 15509      6C6F6E65 
 15509      00
 15510              	.LASF78:
 15511 0931 736F7572 		.ascii	"source\000"
 15511      636500
 15512              	.LASF117:
 15513 0938 496F5448 		.ascii	"IoTHubMessage_GetConnectionDeviceId\000"
 15513      75624D65 
 15513      73736167 
 15513      655F4765 
 15513      74436F6E 
 15514              	.LASF17:
 15515 095c 4C4F4747 		.ascii	"LOGGER_LOG\000"
 15515      45525F4C 
ARM GAS  C:\Users\Phuong\AppData\Local\Temp\cc4zbCpa.s 			page 305


 15515      4F4700
 15516              	.LASF10:
 15517 0967 73697A65 		.ascii	"sizetype\000"
 15517      74797065 
 15517      00
 15518              	.LASF8:
 15519 0970 6C6F6E67 		.ascii	"long unsigned int\000"
 15519      20756E73 
 15519      69676E65 
 15519      6420696E 
 15519      7400
 15520              	.LASF103:
 15521 0982 496F5448 		.ascii	"IoTHubMessage_SetMessageId\000"
 15521      75624D65 
 15521      73736167 
 15521      655F5365 
 15521      744D6573 
 15522              	.LASF71:
 15523 099d 6D61704B 		.ascii	"mapKey\000"
 15523      657900
 15524              	.LASF75:
 15525 09a4 44657374 		.ascii	"DestroyMessageData\000"
 15525      726F794D 
 15525      65737361 
 15525      67654461 
 15525      746100
 15526              	.LASF102:
 15527 09b7 496F5448 		.ascii	"IoTHubMessage_SetCorrelationId\000"
 15527      75624D65 
 15527      73736167 
 15527      655F5365 
 15527      74436F72 
 15528              	.LASF74:
 15529 09d6 44657374 		.ascii	"DestroyDiagnosticPropertyData\000"
 15529      726F7944 
 15529      6961676E 
 15529      6F737469 
 15529      6350726F 
 15530              	.LASF133:
 15531 09f4 42554646 		.ascii	"BUFFER_clone\000"
 15531      45525F63 
 15531      6C6F6E65 
 15531      00
 15532              	.LASF4:
 15533 0a01 756E7369 		.ascii	"unsigned char\000"
 15533      676E6564 
 15533      20636861 
 15533      7200
 15534              	.LASF81:
 15535 0a0f 656E756D 		.ascii	"enumAsString\000"
 15535      41735374 
 15535      72696E67 
 15535      00
 15536              	.LASF56:
 15537 0a1c 494F5448 		.ascii	"IOTHUB_MESSAGE_HANDLE_DATA_TAG\000"
 15537      55425F4D 
 15537      45535341 
ARM GAS  C:\Users\Phuong\AppData\Local\Temp\cc4zbCpa.s 			page 306


 15537      47455F48 
 15537      414E444C 
 15538              	.LASF51:
 15539 0a3b 6F757470 		.ascii	"outputName\000"
 15539      75744E61 
 15539      6D6500
 15540              	.LASF22:
 15541 0a46 4C4F475F 		.ascii	"LOG_CATEGORY_TAG\000"
 15541      43415445 
 15541      474F5259 
 15541      5F544147 
 15541      00
 15542              	.LASF36:
 15543 0a57 494F5448 		.ascii	"IOTHUB_MESSAGE_ERROR\000"
 15543      55425F4D 
 15543      45535341 
 15543      47455F45 
 15543      52524F52 
 15544              	.LASF140:
 15545 0a6c 4D61705F 		.ascii	"Map_ContainsKey\000"
 15545      436F6E74 
 15545      61696E73 
 15545      4B657900 
 15546              	.LASF79:
 15547 0a7c 494F5448 		.ascii	"IOTHUB_MESSAGE_RESULTStrings\000"
 15547      55425F4D 
 15547      45535341 
 15547      47455F52 
 15547      4553554C 
 15548              	.LASF14:
 15549 0a99 415A5F4C 		.ascii	"AZ_LOG_TRACE\000"
 15549      4F475F54 
 15549      52414345 
 15549      00
 15550              	.LASF37:
 15551 0aa6 494F5448 		.ascii	"IOTHUB_MESSAGE_RESULT\000"
 15551      55425F4D 
 15551      45535341 
 15551      47455F52 
 15551      4553554C 
 15552              	.LASF98:
 15553 0abc 6D73675F 		.ascii	"msg_handle\000"
 15553      68616E64 
 15553      6C6500
 15554              	.LASF82:
 15555 0ac7 64657374 		.ascii	"destination\000"
 15555      696E6174 
 15555      696F6E00 
 15556              	.LASF3:
 15557 0ad3 7369676E 		.ascii	"signed char\000"
 15557      65642063 
 15557      68617200 
 15558              	.LASF96:
 15559 0adf 496F5448 		.ascii	"IoTHubMessage_Properties\000"
 15559      75624D65 
 15559      73736167 
 15559      655F5072 
ARM GAS  C:\Users\Phuong\AppData\Local\Temp\cc4zbCpa.s 			page 307


 15559      6F706572 
 15560              	.LASF97:
 15561 0af8 496F5448 		.ascii	"IoTHubMessage_SetProperty\000"
 15561      75624D65 
 15561      73736167 
 15561      655F5365 
 15561      7450726F 
 15562              	.LASF34:
 15563 0b12 494F5448 		.ascii	"IOTHUB_MESSAGE_INVALID_ARG\000"
 15563      55425F4D 
 15563      45535341 
 15563      47455F49 
 15563      4E56414C 
 15564              	.LASF6:
 15565 0b2d 73686F72 		.ascii	"short unsigned int\000"
 15565      7420756E 
 15565      7369676E 
 15565      65642069 
 15565      6E7400
 15566              	.LASF141:
 15567 0b40 4D61705F 		.ascii	"Map_GetValueFromKey\000"
 15567      47657456 
 15567      616C7565 
 15567      46726F6D 
 15567      4B657900 
 15568              	.LASF46:
 15569 0b54 70726F70 		.ascii	"properties\000"
 15569      65727469 
 15569      657300
 15570              	.LASF87:
 15571 0b5f 5F5F6675 		.ascii	"__func__\000"
 15571      6E635F5F 
 15571      00
 15572              	.LASF18:
 15573 0b68 42554646 		.ascii	"BUFFER_HANDLE\000"
 15573      45525F48 
 15573      414E444C 
 15573      4500
 15574              	.LASF85:
 15575 0b76 496F5448 		.ascii	"IoTHubMessage_CreateFromByteArray\000"
 15575      75624D65 
 15575      73736167 
 15575      655F4372 
 15575      65617465 
 15576              	.LASF70:
 15577 0b98 61736369 		.ascii	"asciiValue\000"
 15577      6956616C 
 15577      756500
 15578              	.LASF143:
 15579 0ba3 536F7572 		.ascii	"Source\\azure_iot_sdk\\iothub_client\\src\\iothub_m"
 15579      63655C61 
 15579      7A757265 
 15579      5F696F74 
 15579      5F73646B 
 15580 0bd2 65737361 		.ascii	"essage.c\000"
 15580      67652E63 
 15580      00
ARM GAS  C:\Users\Phuong\AppData\Local\Temp\cc4zbCpa.s 			page 308


 15581              	.LASF27:
 15582 0bdb 4D41505F 		.ascii	"MAP_KEYEXISTS\000"
 15582      4B455945 
 15582      58495354 
 15582      5300
 15583              	.LASF31:
 15584 0be9 4D41505F 		.ascii	"MAP_HANDLE_DATA_TAG\000"
 15584      48414E44 
 15584      4C455F44 
 15584      4154415F 
 15584      54414700 
 15585              	.LASF132:
 15586 0bfd 53545249 		.ascii	"STRING_construct\000"
 15586      4E475F63 
 15586      6F6E7374 
 15586      72756374 
 15586      00
 15587              	.LASF101:
 15588 0c0e 496F5448 		.ascii	"IoTHubMessage_GetCorrelationId\000"
 15588      75624D65 
 15588      73736167 
 15588      655F4765 
 15588      74436F72 
 15589              	.LASF106:
 15590 0c2d 496F5448 		.ascii	"IoTHubMessage_GetContentTypeSystemProperty\000"
 15590      75624D65 
 15590      73736167 
 15590      655F4765 
 15590      74436F6E 
 15591              	.LASF113:
 15592 0c58 496F5448 		.ascii	"IoTHubMessage_GetInputName\000"
 15592      75624D65 
 15592      73736167 
 15592      655F4765 
 15592      74496E70 
 15593              	.LASF129:
 15594 0c73 73747263 		.ascii	"strcmp\000"
 15594      6D7000
 15595              	.LASF33:
 15596 0c7a 494F5448 		.ascii	"IOTHUB_MESSAGE_OK\000"
 15596      55425F4D 
 15596      45535341 
 15596      47455F4F 
 15596      4B00
 15597              		.ident	"GCC: (GNU Tools for ARM Embedded Processors) 5.4.1 20160609 (release) [ARM/embedded-5-bran
