ARM GAS  C:\Users\Phuong\AppData\Local\Temp\ccYoYbaR.s 			page 1


   1              		.syntax unified
   2              		.cpu cortex-m0plus
   3              		.fpu softvfp
   4              		.eabi_attribute 20, 1
   5              		.eabi_attribute 21, 1
   6              		.eabi_attribute 23, 3
   7              		.eabi_attribute 24, 1
   8              		.eabi_attribute 25, 1
   9              		.eabi_attribute 26, 1
  10              		.eabi_attribute 30, 1
  11              		.eabi_attribute 34, 0
  12              		.eabi_attribute 18, 4
  13              		.thumb
  14              		.syntax unified
  15              		.file	"ip4.c"
  16              		.text
  17              	.Ltext0:
  18              		.cfi_sections	.debug_frame
  19              		.section	.text.ip4_set_default_multicast_netif,"ax",%progbits
  20              		.align	2
  21              		.global	ip4_set_default_multicast_netif
  22              		.code	16
  23              		.thumb_func
  24              		.type	ip4_set_default_multicast_netif, %function
  25              	ip4_set_default_multicast_netif:
  26              	.LFB53:
  27              		.file 1 "Source\\LwIP\\src\\core\\ipv4\\ip4.c"
   1:Source\LwIP\src\core\ipv4/ip4.c **** /**
   2:Source\LwIP\src\core\ipv4/ip4.c ****  * @file
   3:Source\LwIP\src\core\ipv4/ip4.c ****  * This is the IPv4 layer implementation for incoming and outgoing IP traffic.
   4:Source\LwIP\src\core\ipv4/ip4.c ****  *
   5:Source\LwIP\src\core\ipv4/ip4.c ****  * @see ip_frag.c
   6:Source\LwIP\src\core\ipv4/ip4.c ****  *
   7:Source\LwIP\src\core\ipv4/ip4.c ****  */
   8:Source\LwIP\src\core\ipv4/ip4.c **** 
   9:Source\LwIP\src\core\ipv4/ip4.c **** /*
  10:Source\LwIP\src\core\ipv4/ip4.c ****  * Copyright (c) 2001-2004 Swedish Institute of Computer Science.
  11:Source\LwIP\src\core\ipv4/ip4.c ****  * All rights reserved.
  12:Source\LwIP\src\core\ipv4/ip4.c ****  *
  13:Source\LwIP\src\core\ipv4/ip4.c ****  * Redistribution and use in source and binary forms, with or without modification,
  14:Source\LwIP\src\core\ipv4/ip4.c ****  * are permitted provided that the following conditions are met:
  15:Source\LwIP\src\core\ipv4/ip4.c ****  *
  16:Source\LwIP\src\core\ipv4/ip4.c ****  * 1. Redistributions of source code must retain the above copyright notice,
  17:Source\LwIP\src\core\ipv4/ip4.c ****  *    this list of conditions and the following disclaimer.
  18:Source\LwIP\src\core\ipv4/ip4.c ****  * 2. Redistributions in binary form must reproduce the above copyright notice,
  19:Source\LwIP\src\core\ipv4/ip4.c ****  *    this list of conditions and the following disclaimer in the documentation
  20:Source\LwIP\src\core\ipv4/ip4.c ****  *    and/or other materials provided with the distribution.
  21:Source\LwIP\src\core\ipv4/ip4.c ****  * 3. The name of the author may not be used to endorse or promote products
  22:Source\LwIP\src\core\ipv4/ip4.c ****  *    derived from this software without specific prior written permission.
  23:Source\LwIP\src\core\ipv4/ip4.c ****  *
  24:Source\LwIP\src\core\ipv4/ip4.c ****  * THIS SOFTWARE IS PROVIDED BY THE AUTHOR ``AS IS'' AND ANY EXPRESS OR IMPLIED
  25:Source\LwIP\src\core\ipv4/ip4.c ****  * WARRANTIES, INCLUDING, BUT NOT LIMITED TO, THE IMPLIED WARRANTIES OF
  26:Source\LwIP\src\core\ipv4/ip4.c ****  * MERCHANTABILITY AND FITNESS FOR A PARTICULAR PURPOSE ARE DISCLAIMED. IN NO EVENT
  27:Source\LwIP\src\core\ipv4/ip4.c ****  * SHALL THE AUTHOR BE LIABLE FOR ANY DIRECT, INDIRECT, INCIDENTAL, SPECIAL,
  28:Source\LwIP\src\core\ipv4/ip4.c ****  * EXEMPLARY, OR CONSEQUENTIAL DAMAGES (INCLUDING, BUT NOT LIMITED TO, PROCUREMENT
  29:Source\LwIP\src\core\ipv4/ip4.c ****  * OF SUBSTITUTE GOODS OR SERVICES; LOSS OF USE, DATA, OR PROFITS; OR BUSINESS
  30:Source\LwIP\src\core\ipv4/ip4.c ****  * INTERRUPTION) HOWEVER CAUSED AND ON ANY THEORY OF LIABILITY, WHETHER IN
ARM GAS  C:\Users\Phuong\AppData\Local\Temp\ccYoYbaR.s 			page 2


  31:Source\LwIP\src\core\ipv4/ip4.c ****  * CONTRACT, STRICT LIABILITY, OR TORT (INCLUDING NEGLIGENCE OR OTHERWISE) ARISING
  32:Source\LwIP\src\core\ipv4/ip4.c ****  * IN ANY WAY OUT OF THE USE OF THIS SOFTWARE, EVEN IF ADVISED OF THE POSSIBILITY
  33:Source\LwIP\src\core\ipv4/ip4.c ****  * OF SUCH DAMAGE.
  34:Source\LwIP\src\core\ipv4/ip4.c ****  *
  35:Source\LwIP\src\core\ipv4/ip4.c ****  * This file is part of the lwIP TCP/IP stack.
  36:Source\LwIP\src\core\ipv4/ip4.c ****  *
  37:Source\LwIP\src\core\ipv4/ip4.c ****  * Author: Adam Dunkels <adam@sics.se>
  38:Source\LwIP\src\core\ipv4/ip4.c ****  *
  39:Source\LwIP\src\core\ipv4/ip4.c ****  */
  40:Source\LwIP\src\core\ipv4/ip4.c **** 
  41:Source\LwIP\src\core\ipv4/ip4.c **** #include "lwip/opt.h"
  42:Source\LwIP\src\core\ipv4/ip4.c **** 
  43:Source\LwIP\src\core\ipv4/ip4.c **** #if LWIP_IPV4
  44:Source\LwIP\src\core\ipv4/ip4.c **** 
  45:Source\LwIP\src\core\ipv4/ip4.c **** #include "lwip/ip.h"
  46:Source\LwIP\src\core\ipv4/ip4.c **** #include "lwip/def.h"
  47:Source\LwIP\src\core\ipv4/ip4.c **** #include "lwip/mem.h"
  48:Source\LwIP\src\core\ipv4/ip4.c **** #include "lwip/ip4_frag.h"
  49:Source\LwIP\src\core\ipv4/ip4.c **** #include "lwip/inet_chksum.h"
  50:Source\LwIP\src\core\ipv4/ip4.c **** #include "lwip/netif.h"
  51:Source\LwIP\src\core\ipv4/ip4.c **** #include "lwip/icmp.h"
  52:Source\LwIP\src\core\ipv4/ip4.c **** #include "lwip/igmp.h"
  53:Source\LwIP\src\core\ipv4/ip4.c **** #include "lwip/raw.h"
  54:Source\LwIP\src\core\ipv4/ip4.c **** #include "lwip/udp.h"
  55:Source\LwIP\src\core\ipv4/ip4.c **** #include "lwip/priv/tcp_priv.h"
  56:Source\LwIP\src\core\ipv4/ip4.c **** #include "lwip/autoip.h"
  57:Source\LwIP\src\core\ipv4/ip4.c **** #include "lwip/stats.h"
  58:Source\LwIP\src\core\ipv4/ip4.c **** #include "lwip/prot/dhcp.h"
  59:Source\LwIP\src\core\ipv4/ip4.c **** 
  60:Source\LwIP\src\core\ipv4/ip4.c **** #include <string.h>
  61:Source\LwIP\src\core\ipv4/ip4.c **** 
  62:Source\LwIP\src\core\ipv4/ip4.c **** #ifdef LWIP_HOOK_FILENAME
  63:Source\LwIP\src\core\ipv4/ip4.c **** #include LWIP_HOOK_FILENAME
  64:Source\LwIP\src\core\ipv4/ip4.c **** #endif
  65:Source\LwIP\src\core\ipv4/ip4.c **** 
  66:Source\LwIP\src\core\ipv4/ip4.c **** /** Set this to 0 in the rare case of wanting to call an extra function to
  67:Source\LwIP\src\core\ipv4/ip4.c ****  * generate the IP checksum (in contrast to calculating it on-the-fly). */
  68:Source\LwIP\src\core\ipv4/ip4.c **** #ifndef LWIP_INLINE_IP_CHKSUM
  69:Source\LwIP\src\core\ipv4/ip4.c **** #if LWIP_CHECKSUM_CTRL_PER_NETIF
  70:Source\LwIP\src\core\ipv4/ip4.c **** #define LWIP_INLINE_IP_CHKSUM   0
  71:Source\LwIP\src\core\ipv4/ip4.c **** #else /* LWIP_CHECKSUM_CTRL_PER_NETIF */
  72:Source\LwIP\src\core\ipv4/ip4.c **** #define LWIP_INLINE_IP_CHKSUM   1
  73:Source\LwIP\src\core\ipv4/ip4.c **** #endif /* LWIP_CHECKSUM_CTRL_PER_NETIF */
  74:Source\LwIP\src\core\ipv4/ip4.c **** #endif
  75:Source\LwIP\src\core\ipv4/ip4.c **** 
  76:Source\LwIP\src\core\ipv4/ip4.c **** #if LWIP_INLINE_IP_CHKSUM && CHECKSUM_GEN_IP
  77:Source\LwIP\src\core\ipv4/ip4.c **** #define CHECKSUM_GEN_IP_INLINE  1
  78:Source\LwIP\src\core\ipv4/ip4.c **** #else
  79:Source\LwIP\src\core\ipv4/ip4.c **** #define CHECKSUM_GEN_IP_INLINE  0
  80:Source\LwIP\src\core\ipv4/ip4.c **** #endif
  81:Source\LwIP\src\core\ipv4/ip4.c **** 
  82:Source\LwIP\src\core\ipv4/ip4.c **** #if LWIP_DHCP || defined(LWIP_IP_ACCEPT_UDP_PORT)
  83:Source\LwIP\src\core\ipv4/ip4.c **** #define IP_ACCEPT_LINK_LAYER_ADDRESSING 1
  84:Source\LwIP\src\core\ipv4/ip4.c **** 
  85:Source\LwIP\src\core\ipv4/ip4.c **** /** Some defines for DHCP to let link-layer-addressed packets through while the
  86:Source\LwIP\src\core\ipv4/ip4.c ****  * netif is down.
  87:Source\LwIP\src\core\ipv4/ip4.c ****  * To use this in your own application/protocol, define LWIP_IP_ACCEPT_UDP_PORT(port)
ARM GAS  C:\Users\Phuong\AppData\Local\Temp\ccYoYbaR.s 			page 3


  88:Source\LwIP\src\core\ipv4/ip4.c ****  * to return 1 if the port is accepted and 0 if the port is not accepted.
  89:Source\LwIP\src\core\ipv4/ip4.c ****  */
  90:Source\LwIP\src\core\ipv4/ip4.c **** #if LWIP_DHCP && defined(LWIP_IP_ACCEPT_UDP_PORT)
  91:Source\LwIP\src\core\ipv4/ip4.c **** /* accept DHCP client port and custom port */
  92:Source\LwIP\src\core\ipv4/ip4.c **** #define IP_ACCEPT_LINK_LAYER_ADDRESSED_PORT(port) (((port) == PP_NTOHS(DHCP_CLIENT_PORT)) \
  93:Source\LwIP\src\core\ipv4/ip4.c ****          || (LWIP_IP_ACCEPT_UDP_PORT(port)))
  94:Source\LwIP\src\core\ipv4/ip4.c **** #elif defined(LWIP_IP_ACCEPT_UDP_PORT) /* LWIP_DHCP && defined(LWIP_IP_ACCEPT_UDP_PORT) */
  95:Source\LwIP\src\core\ipv4/ip4.c **** /* accept custom port only */
  96:Source\LwIP\src\core\ipv4/ip4.c **** #define IP_ACCEPT_LINK_LAYER_ADDRESSED_PORT(port) (LWIP_IP_ACCEPT_UDP_PORT(port))
  97:Source\LwIP\src\core\ipv4/ip4.c **** #else /* LWIP_DHCP && defined(LWIP_IP_ACCEPT_UDP_PORT) */
  98:Source\LwIP\src\core\ipv4/ip4.c **** /* accept DHCP client port only */
  99:Source\LwIP\src\core\ipv4/ip4.c **** #define IP_ACCEPT_LINK_LAYER_ADDRESSED_PORT(port) ((port) == PP_NTOHS(DHCP_CLIENT_PORT))
 100:Source\LwIP\src\core\ipv4/ip4.c **** #endif /* LWIP_DHCP && defined(LWIP_IP_ACCEPT_UDP_PORT) */
 101:Source\LwIP\src\core\ipv4/ip4.c **** 
 102:Source\LwIP\src\core\ipv4/ip4.c **** #else /* LWIP_DHCP */
 103:Source\LwIP\src\core\ipv4/ip4.c **** #define IP_ACCEPT_LINK_LAYER_ADDRESSING 0
 104:Source\LwIP\src\core\ipv4/ip4.c **** #endif /* LWIP_DHCP */
 105:Source\LwIP\src\core\ipv4/ip4.c **** 
 106:Source\LwIP\src\core\ipv4/ip4.c **** /** The IP header ID of the next outgoing IP packet */
 107:Source\LwIP\src\core\ipv4/ip4.c **** static u16_t ip_id;
 108:Source\LwIP\src\core\ipv4/ip4.c **** 
 109:Source\LwIP\src\core\ipv4/ip4.c **** #if LWIP_MULTICAST_TX_OPTIONS
 110:Source\LwIP\src\core\ipv4/ip4.c **** /** The default netif used for multicast */
 111:Source\LwIP\src\core\ipv4/ip4.c **** static struct netif* ip4_default_multicast_netif;
 112:Source\LwIP\src\core\ipv4/ip4.c **** 
 113:Source\LwIP\src\core\ipv4/ip4.c **** /**
 114:Source\LwIP\src\core\ipv4/ip4.c ****  * @ingroup ip4
 115:Source\LwIP\src\core\ipv4/ip4.c ****  * Set a default netif for IPv4 multicast. */
 116:Source\LwIP\src\core\ipv4/ip4.c **** void
 117:Source\LwIP\src\core\ipv4/ip4.c **** ip4_set_default_multicast_netif(struct netif* default_multicast_netif)
 118:Source\LwIP\src\core\ipv4/ip4.c **** {
  28              		.loc 1 118 0
  29              		.cfi_startproc
  30              		@ args = 0, pretend = 0, frame = 0
  31              		@ frame_needed = 0, uses_anonymous_args = 0
  32              		@ link register save eliminated.
  33              	.LVL0:
 119:Source\LwIP\src\core\ipv4/ip4.c ****   ip4_default_multicast_netif = default_multicast_netif;
  34              		.loc 1 119 0
  35 0000 014B     		ldr	r3, .L2
  36 0002 1860     		str	r0, [r3]
 120:Source\LwIP\src\core\ipv4/ip4.c **** }
  37              		.loc 1 120 0
  38              		@ sp needed
  39 0004 7047     		bx	lr
  40              	.L3:
  41 0006 C046     		.align	2
  42              	.L2:
  43 0008 00000000 		.word	.LANCHOR0
  44              		.cfi_endproc
  45              	.LFE53:
  46              		.size	ip4_set_default_multicast_netif, .-ip4_set_default_multicast_netif
  47              		.section	.text.ip4_route,"ax",%progbits
  48              		.align	2
  49              		.global	ip4_route
  50              		.code	16
  51              		.thumb_func
ARM GAS  C:\Users\Phuong\AppData\Local\Temp\ccYoYbaR.s 			page 4


  52              		.type	ip4_route, %function
  53              	ip4_route:
  54              	.LFB54:
 121:Source\LwIP\src\core\ipv4/ip4.c **** #endif /* LWIP_MULTICAST_TX_OPTIONS */
 122:Source\LwIP\src\core\ipv4/ip4.c **** 
 123:Source\LwIP\src\core\ipv4/ip4.c **** #ifdef LWIP_HOOK_IP4_ROUTE_SRC
 124:Source\LwIP\src\core\ipv4/ip4.c **** /**
 125:Source\LwIP\src\core\ipv4/ip4.c ****  * Source based IPv4 routing must be fully implemented in
 126:Source\LwIP\src\core\ipv4/ip4.c ****  * LWIP_HOOK_IP4_ROUTE_SRC(). This function only provides he parameters.
 127:Source\LwIP\src\core\ipv4/ip4.c ****  */
 128:Source\LwIP\src\core\ipv4/ip4.c **** struct netif *
 129:Source\LwIP\src\core\ipv4/ip4.c **** ip4_route_src(const ip4_addr_t *dest, const ip4_addr_t *src)
 130:Source\LwIP\src\core\ipv4/ip4.c **** {
 131:Source\LwIP\src\core\ipv4/ip4.c ****   if (src != NULL) {
 132:Source\LwIP\src\core\ipv4/ip4.c ****     /* when src==NULL, the hook is called from ip4_route(dest) */
 133:Source\LwIP\src\core\ipv4/ip4.c ****     struct netif *netif = LWIP_HOOK_IP4_ROUTE_SRC(dest, src);
 134:Source\LwIP\src\core\ipv4/ip4.c ****     if (netif != NULL) {
 135:Source\LwIP\src\core\ipv4/ip4.c ****       return netif;
 136:Source\LwIP\src\core\ipv4/ip4.c ****     }
 137:Source\LwIP\src\core\ipv4/ip4.c ****   }
 138:Source\LwIP\src\core\ipv4/ip4.c ****   return ip4_route(dest);
 139:Source\LwIP\src\core\ipv4/ip4.c **** }
 140:Source\LwIP\src\core\ipv4/ip4.c **** #endif /* LWIP_HOOK_IP4_ROUTE_SRC */
 141:Source\LwIP\src\core\ipv4/ip4.c **** 
 142:Source\LwIP\src\core\ipv4/ip4.c **** /**
 143:Source\LwIP\src\core\ipv4/ip4.c ****  * Finds the appropriate network interface for a given IP address. It
 144:Source\LwIP\src\core\ipv4/ip4.c ****  * searches the list of network interfaces linearly. A match is found
 145:Source\LwIP\src\core\ipv4/ip4.c ****  * if the masked IP address of the network interface equals the masked
 146:Source\LwIP\src\core\ipv4/ip4.c ****  * IP address given to the function.
 147:Source\LwIP\src\core\ipv4/ip4.c ****  *
 148:Source\LwIP\src\core\ipv4/ip4.c ****  * @param dest the destination IP address for which to find the route
 149:Source\LwIP\src\core\ipv4/ip4.c ****  * @return the netif on which to send to reach dest
 150:Source\LwIP\src\core\ipv4/ip4.c ****  */
 151:Source\LwIP\src\core\ipv4/ip4.c **** struct netif *
 152:Source\LwIP\src\core\ipv4/ip4.c **** ip4_route(const ip4_addr_t *dest)
 153:Source\LwIP\src\core\ipv4/ip4.c **** {
  55              		.loc 1 153 0
  56              		.cfi_startproc
  57              		@ args = 0, pretend = 0, frame = 0
  58              		@ frame_needed = 0, uses_anonymous_args = 0
  59              	.LVL1:
  60 0000 10B5     		push	{r4, lr}
  61              		.cfi_def_cfa_offset 8
  62              		.cfi_offset 4, -8
  63              		.cfi_offset 14, -4
 154:Source\LwIP\src\core\ipv4/ip4.c ****   struct netif *netif;
 155:Source\LwIP\src\core\ipv4/ip4.c **** 
 156:Source\LwIP\src\core\ipv4/ip4.c **** #if LWIP_MULTICAST_TX_OPTIONS
 157:Source\LwIP\src\core\ipv4/ip4.c ****   /* Use administratively selected interface for multicast by default */
 158:Source\LwIP\src\core\ipv4/ip4.c ****   if (ip4_addr_ismulticast(dest) && ip4_default_multicast_netif) {
  64              		.loc 1 158 0
  65 0002 0168     		ldr	r1, [r0]
  66 0004 F023     		movs	r3, #240
  67 0006 0B40     		ands	r3, r1
  68 0008 E02B     		cmp	r3, #224
  69 000a 03D1     		bne	.L5
  70              		.loc 1 158 0 is_stmt 0 discriminator 1
ARM GAS  C:\Users\Phuong\AppData\Local\Temp\ccYoYbaR.s 			page 5


  71 000c 174B     		ldr	r3, .L13
  72 000e 1868     		ldr	r0, [r3]
  73              	.LVL2:
  74 0010 0028     		cmp	r0, #0
  75 0012 2AD1     		bne	.L6
  76              	.L5:
 159:Source\LwIP\src\core\ipv4/ip4.c ****     return ip4_default_multicast_netif;
 160:Source\LwIP\src\core\ipv4/ip4.c ****   }
 161:Source\LwIP\src\core\ipv4/ip4.c **** #endif /* LWIP_MULTICAST_TX_OPTIONS */
 162:Source\LwIP\src\core\ipv4/ip4.c **** 
 163:Source\LwIP\src\core\ipv4/ip4.c ****   /* iterate through netifs */
 164:Source\LwIP\src\core\ipv4/ip4.c ****   for (netif = netif_list; netif != NULL; netif = netif->next) {
  77              		.loc 1 164 0 is_stmt 1
  78 0014 164B     		ldr	r3, .L13+4
  79 0016 1868     		ldr	r0, [r3]
  80              	.LVL3:
  81 0018 12E0     		b	.L7
  82              	.L9:
 165:Source\LwIP\src\core\ipv4/ip4.c ****     /* is the netif up, does it have a link and a valid address? */
 166:Source\LwIP\src\core\ipv4/ip4.c ****     if (netif_is_up(netif) && netif_is_link_up(netif) && !ip4_addr_isany_val(*netif_ip4_addr(netif)
  83              		.loc 1 166 0
  84 001a 3D23     		movs	r3, #61
  85 001c C25C     		ldrb	r2, [r0, r3]
  86 001e 383B     		subs	r3, r3, #56
  87 0020 1340     		ands	r3, r2
  88 0022 052B     		cmp	r3, #5
  89 0024 0BD1     		bne	.L8
  90              		.loc 1 166 0 is_stmt 0 discriminator 1
  91 0026 4368     		ldr	r3, [r0, #4]
  92 0028 002B     		cmp	r3, #0
  93 002a 08D0     		beq	.L8
 167:Source\LwIP\src\core\ipv4/ip4.c ****       /* network mask matches? */
 168:Source\LwIP\src\core\ipv4/ip4.c ****       if (ip4_addr_netcmp(dest, netif_ip4_addr(netif), netif_ip4_netmask(netif))) {
  94              		.loc 1 168 0 is_stmt 1
  95 002c 4B40     		eors	r3, r1
  96 002e 8468     		ldr	r4, [r0, #8]
  97 0030 1C42     		tst	r4, r3
  98 0032 1AD0     		beq	.L6
 169:Source\LwIP\src\core\ipv4/ip4.c ****         /* return netif on which to forward IP packet */
 170:Source\LwIP\src\core\ipv4/ip4.c ****         return netif;
 171:Source\LwIP\src\core\ipv4/ip4.c ****       }
 172:Source\LwIP\src\core\ipv4/ip4.c ****       /* gateway matches on a non broadcast interface? (i.e. peer in a point to point interface) */
 173:Source\LwIP\src\core\ipv4/ip4.c ****       if (((netif->flags & NETIF_FLAG_BROADCAST) == 0) && ip4_addr_cmp(dest, netif_ip4_gw(netif))) 
  99              		.loc 1 173 0
 100 0034 9307     		lsls	r3, r2, #30
 101 0036 02D4     		bmi	.L8
 102              		.loc 1 173 0 is_stmt 0 discriminator 1
 103 0038 C368     		ldr	r3, [r0, #12]
 104 003a 9942     		cmp	r1, r3
 105 003c 15D0     		beq	.L6
 106              	.L8:
 164:Source\LwIP\src\core\ipv4/ip4.c ****     /* is the netif up, does it have a link and a valid address? */
 107              		.loc 1 164 0 is_stmt 1 discriminator 2
 108 003e 0068     		ldr	r0, [r0]
 109              	.LVL4:
 110              	.L7:
 164:Source\LwIP\src\core\ipv4/ip4.c ****     /* is the netif up, does it have a link and a valid address? */
ARM GAS  C:\Users\Phuong\AppData\Local\Temp\ccYoYbaR.s 			page 6


 111              		.loc 1 164 0 is_stmt 0 discriminator 1
 112 0040 0028     		cmp	r0, #0
 113 0042 EAD1     		bne	.L9
 174:Source\LwIP\src\core\ipv4/ip4.c ****         /* return netif on which to forward IP packet */
 175:Source\LwIP\src\core\ipv4/ip4.c ****         return netif;
 176:Source\LwIP\src\core\ipv4/ip4.c ****       }
 177:Source\LwIP\src\core\ipv4/ip4.c ****     }
 178:Source\LwIP\src\core\ipv4/ip4.c ****   }
 179:Source\LwIP\src\core\ipv4/ip4.c **** 
 180:Source\LwIP\src\core\ipv4/ip4.c **** #if LWIP_NETIF_LOOPBACK && !LWIP_HAVE_LOOPIF
 181:Source\LwIP\src\core\ipv4/ip4.c ****   /* loopif is disabled, looopback traffic is passed through any netif */
 182:Source\LwIP\src\core\ipv4/ip4.c ****   if (ip4_addr_isloopback(dest)) {
 183:Source\LwIP\src\core\ipv4/ip4.c ****     /* don't check for link on loopback traffic */
 184:Source\LwIP\src\core\ipv4/ip4.c ****     if (netif_default != NULL && netif_is_up(netif_default)) {
 185:Source\LwIP\src\core\ipv4/ip4.c ****       return netif_default;
 186:Source\LwIP\src\core\ipv4/ip4.c ****     }
 187:Source\LwIP\src\core\ipv4/ip4.c ****     /* default netif is not up, just use any netif for loopback traffic */
 188:Source\LwIP\src\core\ipv4/ip4.c ****     for (netif = netif_list; netif != NULL; netif = netif->next) {
 189:Source\LwIP\src\core\ipv4/ip4.c ****       if (netif_is_up(netif)) {
 190:Source\LwIP\src\core\ipv4/ip4.c ****         return netif;
 191:Source\LwIP\src\core\ipv4/ip4.c ****       }
 192:Source\LwIP\src\core\ipv4/ip4.c ****     }
 193:Source\LwIP\src\core\ipv4/ip4.c ****     return NULL;
 194:Source\LwIP\src\core\ipv4/ip4.c ****   }
 195:Source\LwIP\src\core\ipv4/ip4.c **** #endif /* LWIP_NETIF_LOOPBACK && !LWIP_HAVE_LOOPIF */
 196:Source\LwIP\src\core\ipv4/ip4.c **** 
 197:Source\LwIP\src\core\ipv4/ip4.c **** #ifdef LWIP_HOOK_IP4_ROUTE_SRC
 198:Source\LwIP\src\core\ipv4/ip4.c ****   netif = LWIP_HOOK_IP4_ROUTE_SRC(dest, NULL);
 199:Source\LwIP\src\core\ipv4/ip4.c ****   if (netif != NULL) {
 200:Source\LwIP\src\core\ipv4/ip4.c ****     return netif;
 201:Source\LwIP\src\core\ipv4/ip4.c ****   }
 202:Source\LwIP\src\core\ipv4/ip4.c **** #elif defined(LWIP_HOOK_IP4_ROUTE)
 203:Source\LwIP\src\core\ipv4/ip4.c ****   netif = LWIP_HOOK_IP4_ROUTE(dest);
 204:Source\LwIP\src\core\ipv4/ip4.c ****   if (netif != NULL) {
 205:Source\LwIP\src\core\ipv4/ip4.c ****     return netif;
 206:Source\LwIP\src\core\ipv4/ip4.c ****   }
 207:Source\LwIP\src\core\ipv4/ip4.c **** #endif
 208:Source\LwIP\src\core\ipv4/ip4.c **** 
 209:Source\LwIP\src\core\ipv4/ip4.c ****   if ((netif_default == NULL) || !netif_is_up(netif_default) || !netif_is_link_up(netif_default) ||
 114              		.loc 1 209 0 is_stmt 1
 115 0044 0B4B     		ldr	r3, .L13+8
 116 0046 1868     		ldr	r0, [r3]
 117              	.LVL5:
 118 0048 0028     		cmp	r0, #0
 119 004a 08D0     		beq	.L10
 120              		.loc 1 209 0 is_stmt 0 discriminator 1
 121 004c 3D23     		movs	r3, #61
 122 004e C35C     		ldrb	r3, [r0, r3]
 123 0050 0522     		movs	r2, #5
 124 0052 1340     		ands	r3, r2
 125 0054 052B     		cmp	r3, #5
 126 0056 02D1     		bne	.L10
 127              		.loc 1 209 0 discriminator 2
 128 0058 4368     		ldr	r3, [r0, #4]
 129 005a 002B     		cmp	r3, #0
 130 005c 05D1     		bne	.L6
 131              	.L10:
ARM GAS  C:\Users\Phuong\AppData\Local\Temp\ccYoYbaR.s 			page 7


 210:Source\LwIP\src\core\ipv4/ip4.c ****       ip4_addr_isany_val(*netif_ip4_addr(netif_default))) {
 211:Source\LwIP\src\core\ipv4/ip4.c ****     /* No matching netif found and default netif is not usable.
 212:Source\LwIP\src\core\ipv4/ip4.c ****        If this is not good enough for you, use LWIP_HOOK_IP4_ROUTE() */
 213:Source\LwIP\src\core\ipv4/ip4.c ****     LWIP_DEBUGF(IP_DEBUG | LWIP_DBG_LEVEL_SERIOUS, ("ip4_route: No route to %"U16_F".%"U16_F".%"U16
 214:Source\LwIP\src\core\ipv4/ip4.c ****       ip4_addr1_16(dest), ip4_addr2_16(dest), ip4_addr3_16(dest), ip4_addr4_16(dest)));
 215:Source\LwIP\src\core\ipv4/ip4.c ****     IP_STATS_INC(ip.rterr);
 132              		.loc 1 215 0 is_stmt 1
 133 005e 0649     		ldr	r1, .L13+12
 134 0060 5622     		movs	r2, #86
 135 0062 8B5A     		ldrh	r3, [r1, r2]
 136 0064 0133     		adds	r3, r3, #1
 137 0066 8B52     		strh	r3, [r1, r2]
 216:Source\LwIP\src\core\ipv4/ip4.c ****     MIB2_STATS_INC(mib2.ipoutnoroutes);
 217:Source\LwIP\src\core\ipv4/ip4.c ****     return NULL;
 138              		.loc 1 217 0
 139 0068 0020     		movs	r0, #0
 140              	.L6:
 218:Source\LwIP\src\core\ipv4/ip4.c ****   }
 219:Source\LwIP\src\core\ipv4/ip4.c **** 
 220:Source\LwIP\src\core\ipv4/ip4.c ****   return netif_default;
 221:Source\LwIP\src\core\ipv4/ip4.c **** }
 141              		.loc 1 221 0
 142              		@ sp needed
 143 006a 10BD     		pop	{r4, pc}
 144              	.L14:
 145              		.align	2
 146              	.L13:
 147 006c 00000000 		.word	.LANCHOR0
 148 0070 00000000 		.word	netif_list
 149 0074 00000000 		.word	netif_default
 150 0078 00000000 		.word	lwip_stats
 151              		.cfi_endproc
 152              	.LFE54:
 153              		.size	ip4_route, .-ip4_route
 154              		.section	.text.ip4_input,"ax",%progbits
 155              		.align	2
 156              		.global	ip4_input
 157              		.code	16
 158              		.thumb_func
 159              		.type	ip4_input, %function
 160              	ip4_input:
 161              	.LFB55:
 222:Source\LwIP\src\core\ipv4/ip4.c **** 
 223:Source\LwIP\src\core\ipv4/ip4.c **** #if IP_FORWARD
 224:Source\LwIP\src\core\ipv4/ip4.c **** /**
 225:Source\LwIP\src\core\ipv4/ip4.c ****  * Determine whether an IP address is in a reserved set of addresses
 226:Source\LwIP\src\core\ipv4/ip4.c ****  * that may not be forwarded, or whether datagrams to that destination
 227:Source\LwIP\src\core\ipv4/ip4.c ****  * may be forwarded.
 228:Source\LwIP\src\core\ipv4/ip4.c ****  * @param p the packet to forward
 229:Source\LwIP\src\core\ipv4/ip4.c ****  * @return 1: can forward 0: discard
 230:Source\LwIP\src\core\ipv4/ip4.c ****  */
 231:Source\LwIP\src\core\ipv4/ip4.c **** static int
 232:Source\LwIP\src\core\ipv4/ip4.c **** ip4_canforward(struct pbuf *p)
 233:Source\LwIP\src\core\ipv4/ip4.c **** {
 234:Source\LwIP\src\core\ipv4/ip4.c ****   u32_t addr = lwip_htonl(ip4_addr_get_u32(ip4_current_dest_addr()));
 235:Source\LwIP\src\core\ipv4/ip4.c **** 
 236:Source\LwIP\src\core\ipv4/ip4.c ****   if (p->flags & PBUF_FLAG_LLBCAST) {
ARM GAS  C:\Users\Phuong\AppData\Local\Temp\ccYoYbaR.s 			page 8


 237:Source\LwIP\src\core\ipv4/ip4.c ****     /* don't route link-layer broadcasts */
 238:Source\LwIP\src\core\ipv4/ip4.c ****     return 0;
 239:Source\LwIP\src\core\ipv4/ip4.c ****   }
 240:Source\LwIP\src\core\ipv4/ip4.c ****   if ((p->flags & PBUF_FLAG_LLMCAST) && !IP_MULTICAST(addr)) {
 241:Source\LwIP\src\core\ipv4/ip4.c ****     /* don't route link-layer multicasts unless the destination address is an IP
 242:Source\LwIP\src\core\ipv4/ip4.c ****        multicast address */
 243:Source\LwIP\src\core\ipv4/ip4.c ****     return 0;
 244:Source\LwIP\src\core\ipv4/ip4.c ****   }
 245:Source\LwIP\src\core\ipv4/ip4.c ****   if (IP_EXPERIMENTAL(addr)) {
 246:Source\LwIP\src\core\ipv4/ip4.c ****     return 0;
 247:Source\LwIP\src\core\ipv4/ip4.c ****   }
 248:Source\LwIP\src\core\ipv4/ip4.c ****   if (IP_CLASSA(addr)) {
 249:Source\LwIP\src\core\ipv4/ip4.c ****     u32_t net = addr & IP_CLASSA_NET;
 250:Source\LwIP\src\core\ipv4/ip4.c ****     if ((net == 0) || (net == ((u32_t)IP_LOOPBACKNET << IP_CLASSA_NSHIFT))) {
 251:Source\LwIP\src\core\ipv4/ip4.c ****       /* don't route loopback packets */
 252:Source\LwIP\src\core\ipv4/ip4.c ****       return 0;
 253:Source\LwIP\src\core\ipv4/ip4.c ****     }
 254:Source\LwIP\src\core\ipv4/ip4.c ****   }
 255:Source\LwIP\src\core\ipv4/ip4.c ****   return 1;
 256:Source\LwIP\src\core\ipv4/ip4.c **** }
 257:Source\LwIP\src\core\ipv4/ip4.c **** 
 258:Source\LwIP\src\core\ipv4/ip4.c **** /**
 259:Source\LwIP\src\core\ipv4/ip4.c ****  * Forwards an IP packet. It finds an appropriate route for the
 260:Source\LwIP\src\core\ipv4/ip4.c ****  * packet, decrements the TTL value of the packet, adjusts the
 261:Source\LwIP\src\core\ipv4/ip4.c ****  * checksum and outputs the packet on the appropriate interface.
 262:Source\LwIP\src\core\ipv4/ip4.c ****  *
 263:Source\LwIP\src\core\ipv4/ip4.c ****  * @param p the packet to forward (p->payload points to IP header)
 264:Source\LwIP\src\core\ipv4/ip4.c ****  * @param iphdr the IP header of the input packet
 265:Source\LwIP\src\core\ipv4/ip4.c ****  * @param inp the netif on which this packet was received
 266:Source\LwIP\src\core\ipv4/ip4.c ****  */
 267:Source\LwIP\src\core\ipv4/ip4.c **** static void
 268:Source\LwIP\src\core\ipv4/ip4.c **** ip4_forward(struct pbuf *p, struct ip_hdr *iphdr, struct netif *inp)
 269:Source\LwIP\src\core\ipv4/ip4.c **** {
 270:Source\LwIP\src\core\ipv4/ip4.c ****   struct netif *netif;
 271:Source\LwIP\src\core\ipv4/ip4.c **** 
 272:Source\LwIP\src\core\ipv4/ip4.c ****   PERF_START;
 273:Source\LwIP\src\core\ipv4/ip4.c ****   LWIP_UNUSED_ARG(inp);
 274:Source\LwIP\src\core\ipv4/ip4.c **** 
 275:Source\LwIP\src\core\ipv4/ip4.c ****   if (!ip4_canforward(p)) {
 276:Source\LwIP\src\core\ipv4/ip4.c ****     goto return_noroute;
 277:Source\LwIP\src\core\ipv4/ip4.c ****   }
 278:Source\LwIP\src\core\ipv4/ip4.c **** 
 279:Source\LwIP\src\core\ipv4/ip4.c ****   /* RFC3927 2.7: do not forward link-local addresses */
 280:Source\LwIP\src\core\ipv4/ip4.c ****   if (ip4_addr_islinklocal(ip4_current_dest_addr())) {
 281:Source\LwIP\src\core\ipv4/ip4.c ****     LWIP_DEBUGF(IP_DEBUG, ("ip4_forward: not forwarding LLA %"U16_F".%"U16_F".%"U16_F".%"U16_F"\n",
 282:Source\LwIP\src\core\ipv4/ip4.c ****       ip4_addr1_16(ip4_current_dest_addr()), ip4_addr2_16(ip4_current_dest_addr()),
 283:Source\LwIP\src\core\ipv4/ip4.c ****       ip4_addr3_16(ip4_current_dest_addr()), ip4_addr4_16(ip4_current_dest_addr())));
 284:Source\LwIP\src\core\ipv4/ip4.c ****     goto return_noroute;
 285:Source\LwIP\src\core\ipv4/ip4.c ****   }
 286:Source\LwIP\src\core\ipv4/ip4.c **** 
 287:Source\LwIP\src\core\ipv4/ip4.c ****   /* Find network interface where to forward this IP packet to. */
 288:Source\LwIP\src\core\ipv4/ip4.c ****   netif = ip4_route_src(ip4_current_dest_addr(), ip4_current_src_addr());
 289:Source\LwIP\src\core\ipv4/ip4.c ****   if (netif == NULL) {
 290:Source\LwIP\src\core\ipv4/ip4.c ****     LWIP_DEBUGF(IP_DEBUG, ("ip4_forward: no forwarding route for %"U16_F".%"U16_F".%"U16_F".%"U16_F
 291:Source\LwIP\src\core\ipv4/ip4.c ****       ip4_addr1_16(ip4_current_dest_addr()), ip4_addr2_16(ip4_current_dest_addr()),
 292:Source\LwIP\src\core\ipv4/ip4.c ****       ip4_addr3_16(ip4_current_dest_addr()), ip4_addr4_16(ip4_current_dest_addr())));
 293:Source\LwIP\src\core\ipv4/ip4.c ****     /* @todo: send ICMP_DUR_NET? */
ARM GAS  C:\Users\Phuong\AppData\Local\Temp\ccYoYbaR.s 			page 9


 294:Source\LwIP\src\core\ipv4/ip4.c ****     goto return_noroute;
 295:Source\LwIP\src\core\ipv4/ip4.c ****   }
 296:Source\LwIP\src\core\ipv4/ip4.c **** #if !IP_FORWARD_ALLOW_TX_ON_RX_NETIF
 297:Source\LwIP\src\core\ipv4/ip4.c ****   /* Do not forward packets onto the same network interface on which
 298:Source\LwIP\src\core\ipv4/ip4.c ****    * they arrived. */
 299:Source\LwIP\src\core\ipv4/ip4.c ****   if (netif == inp) {
 300:Source\LwIP\src\core\ipv4/ip4.c ****     LWIP_DEBUGF(IP_DEBUG, ("ip4_forward: not bouncing packets back on incoming interface.\n"));
 301:Source\LwIP\src\core\ipv4/ip4.c ****     goto return_noroute;
 302:Source\LwIP\src\core\ipv4/ip4.c ****   }
 303:Source\LwIP\src\core\ipv4/ip4.c **** #endif /* IP_FORWARD_ALLOW_TX_ON_RX_NETIF */
 304:Source\LwIP\src\core\ipv4/ip4.c **** 
 305:Source\LwIP\src\core\ipv4/ip4.c ****   /* decrement TTL */
 306:Source\LwIP\src\core\ipv4/ip4.c ****   IPH_TTL_SET(iphdr, IPH_TTL(iphdr) - 1);
 307:Source\LwIP\src\core\ipv4/ip4.c ****   /* send ICMP if TTL == 0 */
 308:Source\LwIP\src\core\ipv4/ip4.c ****   if (IPH_TTL(iphdr) == 0) {
 309:Source\LwIP\src\core\ipv4/ip4.c ****     MIB2_STATS_INC(mib2.ipinhdrerrors);
 310:Source\LwIP\src\core\ipv4/ip4.c **** #if LWIP_ICMP
 311:Source\LwIP\src\core\ipv4/ip4.c ****     /* Don't send ICMP messages in response to ICMP messages */
 312:Source\LwIP\src\core\ipv4/ip4.c ****     if (IPH_PROTO(iphdr) != IP_PROTO_ICMP) {
 313:Source\LwIP\src\core\ipv4/ip4.c ****       icmp_time_exceeded(p, ICMP_TE_TTL);
 314:Source\LwIP\src\core\ipv4/ip4.c ****     }
 315:Source\LwIP\src\core\ipv4/ip4.c **** #endif /* LWIP_ICMP */
 316:Source\LwIP\src\core\ipv4/ip4.c ****     return;
 317:Source\LwIP\src\core\ipv4/ip4.c ****   }
 318:Source\LwIP\src\core\ipv4/ip4.c **** 
 319:Source\LwIP\src\core\ipv4/ip4.c ****   /* Incrementally update the IP checksum. */
 320:Source\LwIP\src\core\ipv4/ip4.c ****   if (IPH_CHKSUM(iphdr) >= PP_HTONS(0xffffU - 0x100)) {
 321:Source\LwIP\src\core\ipv4/ip4.c ****     IPH_CHKSUM_SET(iphdr, IPH_CHKSUM(iphdr) + PP_HTONS(0x100) + 1);
 322:Source\LwIP\src\core\ipv4/ip4.c ****   } else {
 323:Source\LwIP\src\core\ipv4/ip4.c ****     IPH_CHKSUM_SET(iphdr, IPH_CHKSUM(iphdr) + PP_HTONS(0x100));
 324:Source\LwIP\src\core\ipv4/ip4.c ****   }
 325:Source\LwIP\src\core\ipv4/ip4.c **** 
 326:Source\LwIP\src\core\ipv4/ip4.c ****   LWIP_DEBUGF(IP_DEBUG, ("ip4_forward: forwarding packet to %"U16_F".%"U16_F".%"U16_F".%"U16_F"\n",
 327:Source\LwIP\src\core\ipv4/ip4.c ****     ip4_addr1_16(ip4_current_dest_addr()), ip4_addr2_16(ip4_current_dest_addr()),
 328:Source\LwIP\src\core\ipv4/ip4.c ****     ip4_addr3_16(ip4_current_dest_addr()), ip4_addr4_16(ip4_current_dest_addr())));
 329:Source\LwIP\src\core\ipv4/ip4.c **** 
 330:Source\LwIP\src\core\ipv4/ip4.c ****   IP_STATS_INC(ip.fw);
 331:Source\LwIP\src\core\ipv4/ip4.c ****   MIB2_STATS_INC(mib2.ipforwdatagrams);
 332:Source\LwIP\src\core\ipv4/ip4.c ****   IP_STATS_INC(ip.xmit);
 333:Source\LwIP\src\core\ipv4/ip4.c **** 
 334:Source\LwIP\src\core\ipv4/ip4.c ****   PERF_STOP("ip4_forward");
 335:Source\LwIP\src\core\ipv4/ip4.c ****   /* don't fragment if interface has mtu set to 0 [loopif] */
 336:Source\LwIP\src\core\ipv4/ip4.c ****   if (netif->mtu && (p->tot_len > netif->mtu)) {
 337:Source\LwIP\src\core\ipv4/ip4.c ****     if ((IPH_OFFSET(iphdr) & PP_NTOHS(IP_DF)) == 0) {
 338:Source\LwIP\src\core\ipv4/ip4.c **** #if IP_FRAG
 339:Source\LwIP\src\core\ipv4/ip4.c ****       ip4_frag(p, netif, ip4_current_dest_addr());
 340:Source\LwIP\src\core\ipv4/ip4.c **** #else /* IP_FRAG */
 341:Source\LwIP\src\core\ipv4/ip4.c ****       /* @todo: send ICMP Destination Unreachable code 13 "Communication administratively prohibite
 342:Source\LwIP\src\core\ipv4/ip4.c **** #endif /* IP_FRAG */
 343:Source\LwIP\src\core\ipv4/ip4.c ****     } else {
 344:Source\LwIP\src\core\ipv4/ip4.c **** #if LWIP_ICMP
 345:Source\LwIP\src\core\ipv4/ip4.c ****       /* send ICMP Destination Unreachable code 4: "Fragmentation Needed and DF Set" */
 346:Source\LwIP\src\core\ipv4/ip4.c ****       icmp_dest_unreach(p, ICMP_DUR_FRAG);
 347:Source\LwIP\src\core\ipv4/ip4.c **** #endif /* LWIP_ICMP */
 348:Source\LwIP\src\core\ipv4/ip4.c ****     }
 349:Source\LwIP\src\core\ipv4/ip4.c ****     return;
 350:Source\LwIP\src\core\ipv4/ip4.c ****   }
ARM GAS  C:\Users\Phuong\AppData\Local\Temp\ccYoYbaR.s 			page 10


 351:Source\LwIP\src\core\ipv4/ip4.c ****   /* transmit pbuf on chosen interface */
 352:Source\LwIP\src\core\ipv4/ip4.c ****   netif->output(netif, p, ip4_current_dest_addr());
 353:Source\LwIP\src\core\ipv4/ip4.c ****   return;
 354:Source\LwIP\src\core\ipv4/ip4.c **** return_noroute:
 355:Source\LwIP\src\core\ipv4/ip4.c ****   MIB2_STATS_INC(mib2.ipoutnoroutes);
 356:Source\LwIP\src\core\ipv4/ip4.c **** }
 357:Source\LwIP\src\core\ipv4/ip4.c **** #endif /* IP_FORWARD */
 358:Source\LwIP\src\core\ipv4/ip4.c **** 
 359:Source\LwIP\src\core\ipv4/ip4.c **** /**
 360:Source\LwIP\src\core\ipv4/ip4.c ****  * This function is called by the network interface device driver when
 361:Source\LwIP\src\core\ipv4/ip4.c ****  * an IP packet is received. The function does the basic checks of the
 362:Source\LwIP\src\core\ipv4/ip4.c ****  * IP header such as packet size being at least larger than the header
 363:Source\LwIP\src\core\ipv4/ip4.c ****  * size etc. If the packet was not destined for us, the packet is
 364:Source\LwIP\src\core\ipv4/ip4.c ****  * forwarded (using ip_forward). The IP checksum is always checked.
 365:Source\LwIP\src\core\ipv4/ip4.c ****  *
 366:Source\LwIP\src\core\ipv4/ip4.c ****  * Finally, the packet is sent to the upper layer protocol input function.
 367:Source\LwIP\src\core\ipv4/ip4.c ****  *
 368:Source\LwIP\src\core\ipv4/ip4.c ****  * @param p the received IP packet (p->payload points to IP header)
 369:Source\LwIP\src\core\ipv4/ip4.c ****  * @param inp the netif on which this packet was received
 370:Source\LwIP\src\core\ipv4/ip4.c ****  * @return ERR_OK if the packet was processed (could return ERR_* if it wasn't
 371:Source\LwIP\src\core\ipv4/ip4.c ****  *         processed, but currently always returns ERR_OK)
 372:Source\LwIP\src\core\ipv4/ip4.c ****  */
 373:Source\LwIP\src\core\ipv4/ip4.c **** err_t
 374:Source\LwIP\src\core\ipv4/ip4.c **** ip4_input(struct pbuf *p, struct netif *inp)
 375:Source\LwIP\src\core\ipv4/ip4.c **** {
 162              		.loc 1 375 0
 163              		.cfi_startproc
 164              		@ args = 0, pretend = 0, frame = 0
 165              		@ frame_needed = 0, uses_anonymous_args = 0
 166              	.LVL6:
 167 0000 F8B5     		push	{r3, r4, r5, r6, r7, lr}
 168              		.cfi_def_cfa_offset 24
 169              		.cfi_offset 3, -24
 170              		.cfi_offset 4, -20
 171              		.cfi_offset 5, -16
 172              		.cfi_offset 6, -12
 173              		.cfi_offset 7, -8
 174              		.cfi_offset 14, -4
 175 0002 4F46     		mov	r7, r9
 176 0004 4646     		mov	r6, r8
 177 0006 C0B4     		push	{r6, r7}
 178              		.cfi_def_cfa_offset 32
 179              		.cfi_offset 8, -32
 180              		.cfi_offset 9, -28
 181 0008 0500     		movs	r5, r0
 182 000a 8846     		mov	r8, r1
 183              	.LVL7:
 376:Source\LwIP\src\core\ipv4/ip4.c ****   struct ip_hdr *iphdr;
 377:Source\LwIP\src\core\ipv4/ip4.c ****   struct netif *netif;
 378:Source\LwIP\src\core\ipv4/ip4.c ****   u16_t iphdr_hlen;
 379:Source\LwIP\src\core\ipv4/ip4.c ****   u16_t iphdr_len;
 380:Source\LwIP\src\core\ipv4/ip4.c **** #if IP_ACCEPT_LINK_LAYER_ADDRESSING || LWIP_IGMP
 381:Source\LwIP\src\core\ipv4/ip4.c ****   int check_ip_src = 1;
 382:Source\LwIP\src\core\ipv4/ip4.c **** #endif /* IP_ACCEPT_LINK_LAYER_ADDRESSING || LWIP_IGMP */
 383:Source\LwIP\src\core\ipv4/ip4.c **** 
 384:Source\LwIP\src\core\ipv4/ip4.c ****   IP_STATS_INC(ip.recv);
 184              		.loc 1 384 0
ARM GAS  C:\Users\Phuong\AppData\Local\Temp\ccYoYbaR.s 			page 11


 185 000c B149     		ldr	r1, .L51
 186              	.LVL8:
 187 000e 4A22     		movs	r2, #74
 188 0010 8B5A     		ldrh	r3, [r1, r2]
 189 0012 0133     		adds	r3, r3, #1
 190 0014 8B52     		strh	r3, [r1, r2]
 385:Source\LwIP\src\core\ipv4/ip4.c ****   MIB2_STATS_INC(mib2.ipinreceives);
 386:Source\LwIP\src\core\ipv4/ip4.c **** 
 387:Source\LwIP\src\core\ipv4/ip4.c ****   /* identify the IP header */
 388:Source\LwIP\src\core\ipv4/ip4.c ****   iphdr = (struct ip_hdr *)p->payload;
 191              		.loc 1 388 0
 192 0016 4768     		ldr	r7, [r0, #4]
 193              	.LVL9:
 389:Source\LwIP\src\core\ipv4/ip4.c ****   if (IPH_V(iphdr) != 4) {
 194              		.loc 1 389 0
 195 0018 3B78     		ldrb	r3, [r7]
 196 001a 1A09     		lsrs	r2, r3, #4
 197 001c 042A     		cmp	r2, #4
 198 001e 0BD0     		beq	.L16
 390:Source\LwIP\src\core\ipv4/ip4.c ****     LWIP_DEBUGF(IP_DEBUG | LWIP_DBG_LEVEL_WARNING, ("IP packet dropped due to bad version number %"
 391:Source\LwIP\src\core\ipv4/ip4.c ****     ip4_debug_print(p);
 392:Source\LwIP\src\core\ipv4/ip4.c ****     pbuf_free(p);
 199              		.loc 1 392 0
 200 0020 FFF7FEFF 		bl	pbuf_free
 201              	.LVL10:
 393:Source\LwIP\src\core\ipv4/ip4.c ****     IP_STATS_INC(ip.err);
 202              		.loc 1 393 0
 203 0024 AB4B     		ldr	r3, .L51
 204 0026 5C21     		movs	r1, #92
 205 0028 5A5A     		ldrh	r2, [r3, r1]
 206 002a 0132     		adds	r2, r2, #1
 207 002c 5A52     		strh	r2, [r3, r1]
 394:Source\LwIP\src\core\ipv4/ip4.c ****     IP_STATS_INC(ip.drop);
 208              		.loc 1 394 0
 209 002e 0E39     		subs	r1, r1, #14
 210 0030 5A5A     		ldrh	r2, [r3, r1]
 211 0032 0132     		adds	r2, r2, #1
 212 0034 5A52     		strh	r2, [r3, r1]
 395:Source\LwIP\src\core\ipv4/ip4.c ****     MIB2_STATS_INC(mib2.ipinhdrerrors);
 396:Source\LwIP\src\core\ipv4/ip4.c ****     return ERR_OK;
 213              		.loc 1 396 0
 214 0036 48E1     		b	.L17
 215              	.LVL11:
 216              	.L16:
 397:Source\LwIP\src\core\ipv4/ip4.c ****   }
 398:Source\LwIP\src\core\ipv4/ip4.c **** 
 399:Source\LwIP\src\core\ipv4/ip4.c **** #ifdef LWIP_HOOK_IP4_INPUT
 400:Source\LwIP\src\core\ipv4/ip4.c ****   if (LWIP_HOOK_IP4_INPUT(p, inp)) {
 401:Source\LwIP\src\core\ipv4/ip4.c ****     /* the packet has been eaten */
 402:Source\LwIP\src\core\ipv4/ip4.c ****     return ERR_OK;
 403:Source\LwIP\src\core\ipv4/ip4.c ****   }
 404:Source\LwIP\src\core\ipv4/ip4.c **** #endif
 405:Source\LwIP\src\core\ipv4/ip4.c **** 
 406:Source\LwIP\src\core\ipv4/ip4.c ****   /* obtain IP header length in number of 32-bit words */
 407:Source\LwIP\src\core\ipv4/ip4.c ****   iphdr_hlen = IPH_HL(iphdr);
 217              		.loc 1 407 0
 218 0038 0F26     		movs	r6, #15
ARM GAS  C:\Users\Phuong\AppData\Local\Temp\ccYoYbaR.s 			page 12


 219 003a 3340     		ands	r3, r6
 220              	.LVL12:
 408:Source\LwIP\src\core\ipv4/ip4.c ****   /* calculate IP header length in bytes */
 409:Source\LwIP\src\core\ipv4/ip4.c ****   iphdr_hlen *= 4;
 221              		.loc 1 409 0
 222 003c 9E00     		lsls	r6, r3, #2
 223              	.LVL13:
 410:Source\LwIP\src\core\ipv4/ip4.c ****   /* obtain ip length in bytes */
 411:Source\LwIP\src\core\ipv4/ip4.c ****   iphdr_len = lwip_ntohs(IPH_LEN(iphdr));
 224              		.loc 1 411 0
 225 003e BB78     		ldrb	r3, [r7, #2]
 226 0040 F878     		ldrb	r0, [r7, #3]
 227              	.LVL14:
 228 0042 0002     		lsls	r0, r0, #8
 229 0044 1843     		orrs	r0, r3
 230 0046 FFF7FEFF 		bl	lwip_htons
 231              	.LVL15:
 232 004a 0400     		movs	r4, r0
 233              	.LVL16:
 412:Source\LwIP\src\core\ipv4/ip4.c **** 
 413:Source\LwIP\src\core\ipv4/ip4.c ****   /* Trim pbuf. This is especially required for packets < 60 bytes. */
 414:Source\LwIP\src\core\ipv4/ip4.c ****   if (iphdr_len < p->tot_len) {
 234              		.loc 1 414 0
 235 004c 2B89     		ldrh	r3, [r5, #8]
 236 004e 9842     		cmp	r0, r3
 237 0050 03D2     		bcs	.L18
 415:Source\LwIP\src\core\ipv4/ip4.c ****     pbuf_realloc(p, iphdr_len);
 238              		.loc 1 415 0
 239 0052 0100     		movs	r1, r0
 240 0054 2800     		movs	r0, r5
 241              	.LVL17:
 242 0056 FFF7FEFF 		bl	pbuf_realloc
 243              	.LVL18:
 244              	.L18:
 416:Source\LwIP\src\core\ipv4/ip4.c ****   }
 417:Source\LwIP\src\core\ipv4/ip4.c **** 
 418:Source\LwIP\src\core\ipv4/ip4.c ****   /* header length exceeds first pbuf length, or ip length exceeds total pbuf length? */
 419:Source\LwIP\src\core\ipv4/ip4.c ****   if ((iphdr_hlen > p->len) || (iphdr_len > p->tot_len) || (iphdr_hlen < IP_HLEN)) {
 245              		.loc 1 419 0
 246 005a 6B89     		ldrh	r3, [r5, #10]
 247 005c 9E42     		cmp	r6, r3
 248 005e 04D8     		bhi	.L19
 249              		.loc 1 419 0 is_stmt 0 discriminator 1
 250 0060 2B89     		ldrh	r3, [r5, #8]
 251 0062 9C42     		cmp	r4, r3
 252 0064 01D8     		bhi	.L19
 253              		.loc 1 419 0 discriminator 2
 254 0066 132E     		cmp	r6, #19
 255 0068 0CD8     		bhi	.L20
 256              	.L19:
 420:Source\LwIP\src\core\ipv4/ip4.c ****     if (iphdr_hlen < IP_HLEN) {
 421:Source\LwIP\src\core\ipv4/ip4.c ****       LWIP_DEBUGF(IP_DEBUG | LWIP_DBG_LEVEL_SERIOUS,
 422:Source\LwIP\src\core\ipv4/ip4.c ****         ("ip4_input: short IP header (%"U16_F" bytes) received, IP packet dropped\n", iphdr_hlen));
 423:Source\LwIP\src\core\ipv4/ip4.c ****     }
 424:Source\LwIP\src\core\ipv4/ip4.c ****     if (iphdr_hlen > p->len) {
 425:Source\LwIP\src\core\ipv4/ip4.c ****       LWIP_DEBUGF(IP_DEBUG | LWIP_DBG_LEVEL_SERIOUS,
 426:Source\LwIP\src\core\ipv4/ip4.c ****         ("IP header (len %"U16_F") does not fit in first pbuf (len %"U16_F"), IP packet dropped.\n"
ARM GAS  C:\Users\Phuong\AppData\Local\Temp\ccYoYbaR.s 			page 13


 427:Source\LwIP\src\core\ipv4/ip4.c ****         iphdr_hlen, p->len));
 428:Source\LwIP\src\core\ipv4/ip4.c ****     }
 429:Source\LwIP\src\core\ipv4/ip4.c ****     if (iphdr_len > p->tot_len) {
 430:Source\LwIP\src\core\ipv4/ip4.c ****       LWIP_DEBUGF(IP_DEBUG | LWIP_DBG_LEVEL_SERIOUS,
 431:Source\LwIP\src\core\ipv4/ip4.c ****         ("IP (len %"U16_F") is longer than pbuf (len %"U16_F"), IP packet dropped.\n",
 432:Source\LwIP\src\core\ipv4/ip4.c ****         iphdr_len, p->tot_len));
 433:Source\LwIP\src\core\ipv4/ip4.c ****     }
 434:Source\LwIP\src\core\ipv4/ip4.c ****     /* free (drop) packet pbufs */
 435:Source\LwIP\src\core\ipv4/ip4.c ****     pbuf_free(p);
 257              		.loc 1 435 0 is_stmt 1
 258 006a 2800     		movs	r0, r5
 259 006c FFF7FEFF 		bl	pbuf_free
 260              	.LVL19:
 436:Source\LwIP\src\core\ipv4/ip4.c ****     IP_STATS_INC(ip.lenerr);
 261              		.loc 1 436 0
 262 0070 984B     		ldr	r3, .L51
 263 0072 5221     		movs	r1, #82
 264 0074 5A5A     		ldrh	r2, [r3, r1]
 265 0076 0132     		adds	r2, r2, #1
 266 0078 5A52     		strh	r2, [r3, r1]
 437:Source\LwIP\src\core\ipv4/ip4.c ****     IP_STATS_INC(ip.drop);
 267              		.loc 1 437 0
 268 007a 0439     		subs	r1, r1, #4
 269 007c 5A5A     		ldrh	r2, [r3, r1]
 270 007e 0132     		adds	r2, r2, #1
 271 0080 5A52     		strh	r2, [r3, r1]
 438:Source\LwIP\src\core\ipv4/ip4.c ****     MIB2_STATS_INC(mib2.ipindiscards);
 439:Source\LwIP\src\core\ipv4/ip4.c ****     return ERR_OK;
 272              		.loc 1 439 0
 273 0082 22E1     		b	.L17
 274              	.L20:
 440:Source\LwIP\src\core\ipv4/ip4.c ****   }
 441:Source\LwIP\src\core\ipv4/ip4.c **** 
 442:Source\LwIP\src\core\ipv4/ip4.c ****   /* verify checksum */
 443:Source\LwIP\src\core\ipv4/ip4.c **** #if CHECKSUM_CHECK_IP
 444:Source\LwIP\src\core\ipv4/ip4.c ****   IF__NETIF_CHECKSUM_ENABLED(inp, NETIF_CHECKSUM_CHECK_IP) {
 445:Source\LwIP\src\core\ipv4/ip4.c ****     if (inet_chksum(iphdr, iphdr_hlen) != 0) {
 275              		.loc 1 445 0
 276 0084 3100     		movs	r1, r6
 277 0086 3800     		movs	r0, r7
 278 0088 FFF7FEFF 		bl	inet_chksum
 279              	.LVL20:
 280 008c 0028     		cmp	r0, #0
 281 008e 0CD0     		beq	.L21
 446:Source\LwIP\src\core\ipv4/ip4.c **** 
 447:Source\LwIP\src\core\ipv4/ip4.c ****       LWIP_DEBUGF(IP_DEBUG | LWIP_DBG_LEVEL_SERIOUS,
 448:Source\LwIP\src\core\ipv4/ip4.c ****         ("Checksum (0x%"X16_F") failed, IP packet dropped.\n", inet_chksum(iphdr, iphdr_hlen)));
 449:Source\LwIP\src\core\ipv4/ip4.c ****       ip4_debug_print(p);
 450:Source\LwIP\src\core\ipv4/ip4.c ****       pbuf_free(p);
 282              		.loc 1 450 0
 283 0090 2800     		movs	r0, r5
 284 0092 FFF7FEFF 		bl	pbuf_free
 285              	.LVL21:
 451:Source\LwIP\src\core\ipv4/ip4.c ****       IP_STATS_INC(ip.chkerr);
 286              		.loc 1 451 0
 287 0096 8F4B     		ldr	r3, .L51
 288 0098 5021     		movs	r1, #80
ARM GAS  C:\Users\Phuong\AppData\Local\Temp\ccYoYbaR.s 			page 14


 289 009a 5A5A     		ldrh	r2, [r3, r1]
 290 009c 0132     		adds	r2, r2, #1
 291 009e 5A52     		strh	r2, [r3, r1]
 452:Source\LwIP\src\core\ipv4/ip4.c ****       IP_STATS_INC(ip.drop);
 292              		.loc 1 452 0
 293 00a0 0239     		subs	r1, r1, #2
 294 00a2 5A5A     		ldrh	r2, [r3, r1]
 295 00a4 0132     		adds	r2, r2, #1
 296 00a6 5A52     		strh	r2, [r3, r1]
 453:Source\LwIP\src\core\ipv4/ip4.c ****       MIB2_STATS_INC(mib2.ipinhdrerrors);
 454:Source\LwIP\src\core\ipv4/ip4.c ****       return ERR_OK;
 297              		.loc 1 454 0
 298 00a8 0FE1     		b	.L17
 299              	.L21:
 455:Source\LwIP\src\core\ipv4/ip4.c ****     }
 456:Source\LwIP\src\core\ipv4/ip4.c ****   }
 457:Source\LwIP\src\core\ipv4/ip4.c **** #endif
 458:Source\LwIP\src\core\ipv4/ip4.c **** 
 459:Source\LwIP\src\core\ipv4/ip4.c ****   /* copy IP addresses to aligned ip_addr_t */
 460:Source\LwIP\src\core\ipv4/ip4.c ****   ip_addr_copy_from_ip4(ip_data.current_iphdr_dest, iphdr->dest);
 300              		.loc 1 460 0
 301 00aa 387C     		ldrb	r0, [r7, #16]
 302 00ac 7A7C     		ldrb	r2, [r7, #17]
 303 00ae 1202     		lsls	r2, r2, #8
 304 00b0 0243     		orrs	r2, r0
 305 00b2 BB7C     		ldrb	r3, [r7, #18]
 306 00b4 1B04     		lsls	r3, r3, #16
 307 00b6 1343     		orrs	r3, r2
 308 00b8 1A00     		movs	r2, r3
 309 00ba FB7C     		ldrb	r3, [r7, #19]
 310 00bc 1B06     		lsls	r3, r3, #24
 311 00be 1343     		orrs	r3, r2
 312 00c0 854A     		ldr	r2, .L51+4
 313 00c2 9446     		mov	ip, r2
 314 00c4 5361     		str	r3, [r2, #20]
 461:Source\LwIP\src\core\ipv4/ip4.c ****   ip_addr_copy_from_ip4(ip_data.current_iphdr_src, iphdr->src);
 315              		.loc 1 461 0
 316 00c6 3C7B     		ldrb	r4, [r7, #12]
 317 00c8 797B     		ldrb	r1, [r7, #13]
 318 00ca 0902     		lsls	r1, r1, #8
 319 00cc 2143     		orrs	r1, r4
 320 00ce BA7B     		ldrb	r2, [r7, #14]
 321 00d0 1204     		lsls	r2, r2, #16
 322 00d2 0A43     		orrs	r2, r1
 323 00d4 1100     		movs	r1, r2
 324 00d6 FA7B     		ldrb	r2, [r7, #15]
 325 00d8 1206     		lsls	r2, r2, #24
 326 00da 0A43     		orrs	r2, r1
 327 00dc 6146     		mov	r1, ip
 328 00de 0A61     		str	r2, [r1, #16]
 462:Source\LwIP\src\core\ipv4/ip4.c **** 
 463:Source\LwIP\src\core\ipv4/ip4.c ****   /* match packet against an interface, i.e. is this packet for us? */
 464:Source\LwIP\src\core\ipv4/ip4.c ****   if (ip4_addr_ismulticast(ip4_current_dest_addr())) {
 329              		.loc 1 464 0
 330 00e0 F022     		movs	r2, #240
 331 00e2 1340     		ands	r3, r2
 332 00e4 E02B     		cmp	r3, #224
ARM GAS  C:\Users\Phuong\AppData\Local\Temp\ccYoYbaR.s 			page 15


 333 00e6 1AD1     		bne	.L42
 465:Source\LwIP\src\core\ipv4/ip4.c **** #if LWIP_IGMP
 466:Source\LwIP\src\core\ipv4/ip4.c ****     if ((inp->flags & NETIF_FLAG_IGMP) && (igmp_lookfor_group(inp, ip4_current_dest_addr()))) {
 334              		.loc 1 466 0
 335 00e8 A33B     		subs	r3, r3, #163
 336 00ea 4246     		mov	r2, r8
 337 00ec D35C     		ldrb	r3, [r2, r3]
 338 00ee 9B06     		lsls	r3, r3, #26
 339 00f0 3ED5     		bpl	.L43
 340              	.LVL22:
 341              		.loc 1 466 0 is_stmt 0 discriminator 1
 342 00f2 7A49     		ldr	r1, .L51+8
 343 00f4 4046     		mov	r0, r8
 344 00f6 FFF7FEFF 		bl	igmp_lookfor_group
 345              	.LVL23:
 346 00fa 0028     		cmp	r0, #0
 347 00fc 3BD0     		beq	.L44
 348              	.LBB2:
 467:Source\LwIP\src\core\ipv4/ip4.c ****       /* IGMP snooping switches need 0.0.0.0 to be allowed as source address (RFC 4541) */
 468:Source\LwIP\src\core\ipv4/ip4.c ****       ip4_addr_t allsystems;
 469:Source\LwIP\src\core\ipv4/ip4.c ****       IP4_ADDR(&allsystems, 224, 0, 0, 1);
 470:Source\LwIP\src\core\ipv4/ip4.c ****       if (ip4_addr_cmp(ip4_current_dest_addr(), &allsystems) &&
 349              		.loc 1 470 0 is_stmt 1
 350 00fe 764B     		ldr	r3, .L51+4
 351 0100 5A69     		ldr	r2, [r3, #20]
 352 0102 774B     		ldr	r3, .L51+12
 353 0104 9A42     		cmp	r2, r3
 354 0106 05D1     		bne	.L45
 471:Source\LwIP\src\core\ipv4/ip4.c ****           ip4_addr_isany(ip4_current_src_addr())) {
 355              		.loc 1 471 0 discriminator 1
 356 0108 734B     		ldr	r3, .L51+4
 357 010a 1B69     		ldr	r3, [r3, #16]
 470:Source\LwIP\src\core\ipv4/ip4.c ****           ip4_addr_isany(ip4_current_src_addr())) {
 358              		.loc 1 470 0 discriminator 1
 359 010c 002B     		cmp	r3, #0
 360 010e 03D0     		beq	.L46
 361              	.LBE2:
 381:Source\LwIP\src\core\ipv4/ip4.c **** #endif /* IP_ACCEPT_LINK_LAYER_ADDRESSING || LWIP_IGMP */
 362              		.loc 1 381 0
 363 0110 0123     		movs	r3, #1
 364 0112 02E0     		b	.L24
 365              	.L45:
 366 0114 0123     		movs	r3, #1
 367 0116 00E0     		b	.L24
 368              	.L46:
 369              	.LBB3:
 472:Source\LwIP\src\core\ipv4/ip4.c ****         check_ip_src = 0;
 370              		.loc 1 472 0
 371 0118 0023     		movs	r3, #0
 372              	.L24:
 373              	.LVL24:
 473:Source\LwIP\src\core\ipv4/ip4.c ****       }
 474:Source\LwIP\src\core\ipv4/ip4.c ****       netif = inp;
 374              		.loc 1 474 0
 375 011a 4446     		mov	r4, r8
 376              	.LBE3:
 466:Source\LwIP\src\core\ipv4/ip4.c ****       /* IGMP snooping switches need 0.0.0.0 to be allowed as source address (RFC 4541) */
ARM GAS  C:\Users\Phuong\AppData\Local\Temp\ccYoYbaR.s 			page 16


 377              		.loc 1 466 0
 378 011c 34E0     		b	.L23
 379              	.LVL25:
 380              	.L42:
 381 011e 4446     		mov	r4, r8
 382 0120 0123     		movs	r3, #1
 383 0122 9946     		mov	r9, r3
 384              	.L22:
 385              	.LVL26:
 386              	.LBB4:
 475:Source\LwIP\src\core\ipv4/ip4.c ****     } else {
 476:Source\LwIP\src\core\ipv4/ip4.c ****       netif = NULL;
 477:Source\LwIP\src\core\ipv4/ip4.c ****     }
 478:Source\LwIP\src\core\ipv4/ip4.c **** #else /* LWIP_IGMP */
 479:Source\LwIP\src\core\ipv4/ip4.c ****     if ((netif_is_up(inp)) && (!ip4_addr_isany_val(*netif_ip4_addr(inp)))) {
 480:Source\LwIP\src\core\ipv4/ip4.c ****       netif = inp;
 481:Source\LwIP\src\core\ipv4/ip4.c ****     } else {
 482:Source\LwIP\src\core\ipv4/ip4.c ****       netif = NULL;
 483:Source\LwIP\src\core\ipv4/ip4.c ****     }
 484:Source\LwIP\src\core\ipv4/ip4.c **** #endif /* LWIP_IGMP */
 485:Source\LwIP\src\core\ipv4/ip4.c ****   } else {
 486:Source\LwIP\src\core\ipv4/ip4.c ****     /* start trying with inp. if that's not acceptable, start walking the
 487:Source\LwIP\src\core\ipv4/ip4.c ****        list of configured netifs.
 488:Source\LwIP\src\core\ipv4/ip4.c ****        'first' is used as a boolean to mark whether we started walking the list */
 489:Source\LwIP\src\core\ipv4/ip4.c ****     int first = 1;
 490:Source\LwIP\src\core\ipv4/ip4.c ****     netif = inp;
 491:Source\LwIP\src\core\ipv4/ip4.c ****     do {
 492:Source\LwIP\src\core\ipv4/ip4.c ****       LWIP_DEBUGF(IP_DEBUG, ("ip_input: iphdr->dest 0x%"X32_F" netif->ip_addr 0x%"X32_F" (0x%"X32_F
 493:Source\LwIP\src\core\ipv4/ip4.c ****           ip4_addr_get_u32(&iphdr->dest), ip4_addr_get_u32(netif_ip4_addr(netif)),
 494:Source\LwIP\src\core\ipv4/ip4.c ****           ip4_addr_get_u32(&iphdr->dest) & ip4_addr_get_u32(netif_ip4_netmask(netif)),
 495:Source\LwIP\src\core\ipv4/ip4.c ****           ip4_addr_get_u32(netif_ip4_addr(netif)) & ip4_addr_get_u32(netif_ip4_netmask(netif)),
 496:Source\LwIP\src\core\ipv4/ip4.c ****           ip4_addr_get_u32(&iphdr->dest) & ~ip4_addr_get_u32(netif_ip4_netmask(netif))));
 497:Source\LwIP\src\core\ipv4/ip4.c **** 
 498:Source\LwIP\src\core\ipv4/ip4.c ****       /* interface is up and configured? */
 499:Source\LwIP\src\core\ipv4/ip4.c ****       if ((netif_is_up(netif)) && (!ip4_addr_isany_val(*netif_ip4_addr(netif)))) {
 387              		.loc 1 499 0
 388 0124 3D23     		movs	r3, #61
 389 0126 E35C     		ldrb	r3, [r4, r3]
 390 0128 DB07     		lsls	r3, r3, #31
 391 012a 0BD5     		bpl	.L25
 392              		.loc 1 499 0 is_stmt 0 discriminator 1
 393 012c 6368     		ldr	r3, [r4, #4]
 394 012e 002B     		cmp	r3, #0
 395 0130 08D0     		beq	.L25
 500:Source\LwIP\src\core\ipv4/ip4.c ****         /* unicast to this interface address? */
 501:Source\LwIP\src\core\ipv4/ip4.c ****         if (ip4_addr_cmp(ip4_current_dest_addr(), netif_ip4_addr(netif)) ||
 396              		.loc 1 501 0 is_stmt 1
 397 0132 694A     		ldr	r2, .L51+4
 398 0134 5069     		ldr	r0, [r2, #20]
 399 0136 8342     		cmp	r3, r0
 400 0138 20D0     		beq	.L47
 502:Source\LwIP\src\core\ipv4/ip4.c ****             /* or broadcast on this interface network address? */
 503:Source\LwIP\src\core\ipv4/ip4.c ****             ip4_addr_isbroadcast(ip4_current_dest_addr(), netif)
 401              		.loc 1 503 0 discriminator 1
 402 013a 2100     		movs	r1, r4
 403 013c FFF7FEFF 		bl	ip4_addr_isbroadcast_u32
 404              	.LVL27:
ARM GAS  C:\Users\Phuong\AppData\Local\Temp\ccYoYbaR.s 			page 17


 501:Source\LwIP\src\core\ipv4/ip4.c ****             /* or broadcast on this interface network address? */
 405              		.loc 1 501 0 discriminator 1
 406 0140 0028     		cmp	r0, #0
 407 0142 1DD1     		bne	.L48
 408              	.L25:
 504:Source\LwIP\src\core\ipv4/ip4.c **** #if LWIP_NETIF_LOOPBACK && !LWIP_HAVE_LOOPIF
 505:Source\LwIP\src\core\ipv4/ip4.c ****             || (ip4_addr_get_u32(ip4_current_dest_addr()) == PP_HTONL(IPADDR_LOOPBACK))
 506:Source\LwIP\src\core\ipv4/ip4.c **** #endif /* LWIP_NETIF_LOOPBACK && !LWIP_HAVE_LOOPIF */
 507:Source\LwIP\src\core\ipv4/ip4.c ****             ) {
 508:Source\LwIP\src\core\ipv4/ip4.c ****           LWIP_DEBUGF(IP_DEBUG, ("ip4_input: packet accepted on interface %c%c\n",
 509:Source\LwIP\src\core\ipv4/ip4.c ****               netif->name[0], netif->name[1]));
 510:Source\LwIP\src\core\ipv4/ip4.c ****           /* break out of for loop */
 511:Source\LwIP\src\core\ipv4/ip4.c ****           break;
 512:Source\LwIP\src\core\ipv4/ip4.c ****         }
 513:Source\LwIP\src\core\ipv4/ip4.c **** #if LWIP_AUTOIP
 514:Source\LwIP\src\core\ipv4/ip4.c ****         /* connections to link-local addresses must persist after changing
 515:Source\LwIP\src\core\ipv4/ip4.c ****            the netif's address (RFC3927 ch. 1.9) */
 516:Source\LwIP\src\core\ipv4/ip4.c ****         if (autoip_accept_packet(netif, ip4_current_dest_addr())) {
 517:Source\LwIP\src\core\ipv4/ip4.c ****           LWIP_DEBUGF(IP_DEBUG, ("ip4_input: LLA packet accepted on interface %c%c\n",
 518:Source\LwIP\src\core\ipv4/ip4.c ****               netif->name[0], netif->name[1]));
 519:Source\LwIP\src\core\ipv4/ip4.c ****           /* break out of for loop */
 520:Source\LwIP\src\core\ipv4/ip4.c ****           break;
 521:Source\LwIP\src\core\ipv4/ip4.c ****         }
 522:Source\LwIP\src\core\ipv4/ip4.c **** #endif /* LWIP_AUTOIP */
 523:Source\LwIP\src\core\ipv4/ip4.c ****       }
 524:Source\LwIP\src\core\ipv4/ip4.c ****       if (first) {
 409              		.loc 1 524 0
 410 0144 4B46     		mov	r3, r9
 411 0146 002B     		cmp	r3, #0
 412 0148 0AD0     		beq	.L26
 413              	.LVL28:
 525:Source\LwIP\src\core\ipv4/ip4.c **** #if !LWIP_NETIF_LOOPBACK || LWIP_HAVE_LOOPIF
 526:Source\LwIP\src\core\ipv4/ip4.c ****         /* Packets sent to the loopback address must not be accepted on an
 527:Source\LwIP\src\core\ipv4/ip4.c ****          * interface that does not have the loopback address assigned to it,
 528:Source\LwIP\src\core\ipv4/ip4.c ****          * unless a non-loopback interface is used for loopback traffic. */
 529:Source\LwIP\src\core\ipv4/ip4.c ****         if (ip4_addr_isloopback(ip4_current_dest_addr())) {
 414              		.loc 1 529 0
 415 014a 634B     		ldr	r3, .L51+4
 416              	.LVL29:
 417 014c 5B69     		ldr	r3, [r3, #20]
 418 014e FF22     		movs	r2, #255
 419 0150 1340     		ands	r3, r2
 420 0152 7F2B     		cmp	r3, #127
 421 0154 16D0     		beq	.L49
 422              	.LVL30:
 530:Source\LwIP\src\core\ipv4/ip4.c ****           netif = NULL;
 531:Source\LwIP\src\core\ipv4/ip4.c ****           break;
 532:Source\LwIP\src\core\ipv4/ip4.c ****         }
 533:Source\LwIP\src\core\ipv4/ip4.c **** #endif /* !LWIP_NETIF_LOOPBACK || LWIP_HAVE_LOOPIF */
 534:Source\LwIP\src\core\ipv4/ip4.c ****         first = 0;
 535:Source\LwIP\src\core\ipv4/ip4.c ****         netif = netif_list;
 423              		.loc 1 535 0
 424 0156 634B     		ldr	r3, .L51+16
 425 0158 1C68     		ldr	r4, [r3]
 426              	.LVL31:
 534:Source\LwIP\src\core\ipv4/ip4.c ****         netif = netif_list;
 427              		.loc 1 534 0
ARM GAS  C:\Users\Phuong\AppData\Local\Temp\ccYoYbaR.s 			page 18


 428 015a 0023     		movs	r3, #0
 429 015c 9946     		mov	r9, r3
 430 015e 00E0     		b	.L27
 431              	.LVL32:
 432              	.L26:
 536:Source\LwIP\src\core\ipv4/ip4.c ****       } else {
 537:Source\LwIP\src\core\ipv4/ip4.c ****         netif = netif->next;
 433              		.loc 1 537 0
 434 0160 2468     		ldr	r4, [r4]
 435              	.LVL33:
 436              	.L27:
 538:Source\LwIP\src\core\ipv4/ip4.c ****       }
 539:Source\LwIP\src\core\ipv4/ip4.c ****       if (netif == inp) {
 437              		.loc 1 539 0
 438 0162 4445     		cmp	r4, r8
 439 0164 00D1     		bne	.L28
 540:Source\LwIP\src\core\ipv4/ip4.c ****         netif = netif->next;
 440              		.loc 1 540 0
 441 0166 2468     		ldr	r4, [r4]
 442              	.LVL34:
 443              	.L28:
 541:Source\LwIP\src\core\ipv4/ip4.c ****       }
 542:Source\LwIP\src\core\ipv4/ip4.c ****     } while (netif != NULL);
 444              		.loc 1 542 0
 445 0168 002C     		cmp	r4, #0
 446 016a DBD1     		bne	.L22
 447              	.LBE4:
 381:Source\LwIP\src\core\ipv4/ip4.c **** #endif /* IP_ACCEPT_LINK_LAYER_ADDRESSING || LWIP_IGMP */
 448              		.loc 1 381 0
 449 016c 0123     		movs	r3, #1
 450              	.LBB5:
 451 016e 0BE0     		b	.L23
 452              	.LVL35:
 453              	.L43:
 454              	.LBE5:
 455 0170 0123     		movs	r3, #1
 476:Source\LwIP\src\core\ipv4/ip4.c ****     }
 456              		.loc 1 476 0
 457 0172 0024     		movs	r4, #0
 458 0174 08E0     		b	.L23
 459              	.LVL36:
 460              	.L44:
 381:Source\LwIP\src\core\ipv4/ip4.c **** #endif /* IP_ACCEPT_LINK_LAYER_ADDRESSING || LWIP_IGMP */
 461              		.loc 1 381 0
 462 0176 0123     		movs	r3, #1
 476:Source\LwIP\src\core\ipv4/ip4.c ****     }
 463              		.loc 1 476 0
 464 0178 0024     		movs	r4, #0
 465 017a 05E0     		b	.L23
 466              	.LVL37:
 467              	.L47:
 381:Source\LwIP\src\core\ipv4/ip4.c **** #endif /* IP_ACCEPT_LINK_LAYER_ADDRESSING || LWIP_IGMP */
 468              		.loc 1 381 0
 469 017c 0123     		movs	r3, #1
 470 017e 03E0     		b	.L23
 471              	.L48:
 472 0180 0123     		movs	r3, #1
ARM GAS  C:\Users\Phuong\AppData\Local\Temp\ccYoYbaR.s 			page 19


 473 0182 01E0     		b	.L23
 474              	.L49:
 475 0184 0123     		movs	r3, #1
 476              	.LBB6:
 530:Source\LwIP\src\core\ipv4/ip4.c ****           break;
 477              		.loc 1 530 0
 478 0186 0024     		movs	r4, #0
 479              	.LVL38:
 480              	.L23:
 481              	.LBE6:
 543:Source\LwIP\src\core\ipv4/ip4.c ****   }
 544:Source\LwIP\src\core\ipv4/ip4.c **** 
 545:Source\LwIP\src\core\ipv4/ip4.c **** #if IP_ACCEPT_LINK_LAYER_ADDRESSING
 546:Source\LwIP\src\core\ipv4/ip4.c ****   /* Pass DHCP messages regardless of destination address. DHCP traffic is addressed
 547:Source\LwIP\src\core\ipv4/ip4.c ****    * using link layer addressing (such as Ethernet MAC) so we must not filter on IP.
 548:Source\LwIP\src\core\ipv4/ip4.c ****    * According to RFC 1542 section 3.1.1, referred by RFC 2131).
 549:Source\LwIP\src\core\ipv4/ip4.c ****    *
 550:Source\LwIP\src\core\ipv4/ip4.c ****    * If you want to accept private broadcast communication while a netif is down,
 551:Source\LwIP\src\core\ipv4/ip4.c ****    * define LWIP_IP_ACCEPT_UDP_PORT(dst_port), e.g.:
 552:Source\LwIP\src\core\ipv4/ip4.c ****    *
 553:Source\LwIP\src\core\ipv4/ip4.c ****    * #define LWIP_IP_ACCEPT_UDP_PORT(dst_port) ((dst_port) == PP_NTOHS(12345))
 554:Source\LwIP\src\core\ipv4/ip4.c ****    */
 555:Source\LwIP\src\core\ipv4/ip4.c ****   if (netif == NULL) {
 482              		.loc 1 555 0
 483 0188 002C     		cmp	r4, #0
 484 018a 0DD1     		bne	.L29
 556:Source\LwIP\src\core\ipv4/ip4.c ****     /* remote port is DHCP server? */
 557:Source\LwIP\src\core\ipv4/ip4.c ****     if (IPH_PROTO(iphdr) == IP_PROTO_UDP) {
 485              		.loc 1 557 0
 486 018c 7A7A     		ldrb	r2, [r7, #9]
 487 018e 112A     		cmp	r2, #17
 488 0190 0AD1     		bne	.L29
 489              	.LBB7:
 558:Source\LwIP\src\core\ipv4/ip4.c ****       struct udp_hdr *udphdr = (struct udp_hdr *)((u8_t *)iphdr + iphdr_hlen);
 490              		.loc 1 558 0
 491 0192 BA19     		adds	r2, r7, r6
 492              	.LVL39:
 559:Source\LwIP\src\core\ipv4/ip4.c ****       LWIP_DEBUGF(IP_DEBUG | LWIP_DBG_TRACE, ("ip4_input: UDP packet to DHCP client port %"U16_F"\n
 560:Source\LwIP\src\core\ipv4/ip4.c ****         lwip_ntohs(udphdr->dest)));
 561:Source\LwIP\src\core\ipv4/ip4.c ****       if (IP_ACCEPT_LINK_LAYER_ADDRESSED_PORT(udphdr->dest)) {
 493              		.loc 1 561 0
 494 0194 9178     		ldrb	r1, [r2, #2]
 495 0196 D278     		ldrb	r2, [r2, #3]
 496              	.LVL40:
 497 0198 1202     		lsls	r2, r2, #8
 498 019a 0A43     		orrs	r2, r1
 499 019c 8821     		movs	r1, #136
 500 019e C901     		lsls	r1, r1, #7
 501 01a0 8A42     		cmp	r2, r1
 502 01a2 01D1     		bne	.L29
 562:Source\LwIP\src\core\ipv4/ip4.c ****         LWIP_DEBUGF(IP_DEBUG | LWIP_DBG_TRACE, ("ip4_input: DHCP packet accepted.\n"));
 563:Source\LwIP\src\core\ipv4/ip4.c ****         netif = inp;
 503              		.loc 1 563 0
 504 01a4 4446     		mov	r4, r8
 505              	.LVL41:
 564:Source\LwIP\src\core\ipv4/ip4.c ****         check_ip_src = 0;
 506              		.loc 1 564 0
ARM GAS  C:\Users\Phuong\AppData\Local\Temp\ccYoYbaR.s 			page 20


 507 01a6 0023     		movs	r3, #0
 508              	.LVL42:
 509              	.L29:
 510              	.LBE7:
 565:Source\LwIP\src\core\ipv4/ip4.c ****       }
 566:Source\LwIP\src\core\ipv4/ip4.c ****     }
 567:Source\LwIP\src\core\ipv4/ip4.c ****   }
 568:Source\LwIP\src\core\ipv4/ip4.c **** #endif /* IP_ACCEPT_LINK_LAYER_ADDRESSING */
 569:Source\LwIP\src\core\ipv4/ip4.c **** 
 570:Source\LwIP\src\core\ipv4/ip4.c ****   /* broadcast or multicast packet source address? Compliant with RFC 1122: 3.2.1.3 */
 571:Source\LwIP\src\core\ipv4/ip4.c **** #if LWIP_IGMP || IP_ACCEPT_LINK_LAYER_ADDRESSING
 572:Source\LwIP\src\core\ipv4/ip4.c ****   if (check_ip_src
 511              		.loc 1 572 0
 512 01a8 002B     		cmp	r3, #0
 513 01aa 17D0     		beq	.L30
 573:Source\LwIP\src\core\ipv4/ip4.c **** #if IP_ACCEPT_LINK_LAYER_ADDRESSING
 574:Source\LwIP\src\core\ipv4/ip4.c ****   /* DHCP servers need 0.0.0.0 to be allowed as source address (RFC 1.1.2.2: 3.2.1.3/a) */
 575:Source\LwIP\src\core\ipv4/ip4.c ****       && !ip4_addr_isany_val(*ip4_current_src_addr())
 514              		.loc 1 575 0
 515 01ac 4A4B     		ldr	r3, .L51+4
 516              	.LVL43:
 517 01ae 1869     		ldr	r0, [r3, #16]
 518 01b0 0028     		cmp	r0, #0
 519 01b2 13D0     		beq	.L30
 576:Source\LwIP\src\core\ipv4/ip4.c **** #endif /* IP_ACCEPT_LINK_LAYER_ADDRESSING */
 577:Source\LwIP\src\core\ipv4/ip4.c ****      )
 578:Source\LwIP\src\core\ipv4/ip4.c **** #endif /* LWIP_IGMP || IP_ACCEPT_LINK_LAYER_ADDRESSING */
 579:Source\LwIP\src\core\ipv4/ip4.c ****   {
 580:Source\LwIP\src\core\ipv4/ip4.c ****     if ((ip4_addr_isbroadcast(ip4_current_src_addr(), inp)) ||
 520              		.loc 1 580 0
 521 01b4 4146     		mov	r1, r8
 522 01b6 FFF7FEFF 		bl	ip4_addr_isbroadcast_u32
 523              	.LVL44:
 524 01ba 0028     		cmp	r0, #0
 525 01bc 05D1     		bne	.L31
 581:Source\LwIP\src\core\ipv4/ip4.c ****         (ip4_addr_ismulticast(ip4_current_src_addr()))) {
 526              		.loc 1 581 0 discriminator 1
 527 01be 464B     		ldr	r3, .L51+4
 528 01c0 1B69     		ldr	r3, [r3, #16]
 529 01c2 F022     		movs	r2, #240
 530 01c4 1340     		ands	r3, r2
 580:Source\LwIP\src\core\ipv4/ip4.c ****         (ip4_addr_ismulticast(ip4_current_src_addr()))) {
 531              		.loc 1 580 0 discriminator 1
 532 01c6 E02B     		cmp	r3, #224
 533 01c8 08D1     		bne	.L30
 534              	.L31:
 582:Source\LwIP\src\core\ipv4/ip4.c ****       /* packet source is not valid */
 583:Source\LwIP\src\core\ipv4/ip4.c ****       LWIP_DEBUGF(IP_DEBUG | LWIP_DBG_TRACE | LWIP_DBG_LEVEL_WARNING, ("ip4_input: packet source is
 584:Source\LwIP\src\core\ipv4/ip4.c ****       /* free (drop) packet pbufs */
 585:Source\LwIP\src\core\ipv4/ip4.c ****       pbuf_free(p);
 535              		.loc 1 585 0
 536 01ca 2800     		movs	r0, r5
 537 01cc FFF7FEFF 		bl	pbuf_free
 538              	.LVL45:
 586:Source\LwIP\src\core\ipv4/ip4.c ****       IP_STATS_INC(ip.drop);
 539              		.loc 1 586 0
 540 01d0 4049     		ldr	r1, .L51
ARM GAS  C:\Users\Phuong\AppData\Local\Temp\ccYoYbaR.s 			page 21


 541 01d2 4E22     		movs	r2, #78
 542 01d4 8B5A     		ldrh	r3, [r1, r2]
 543 01d6 0133     		adds	r3, r3, #1
 544 01d8 8B52     		strh	r3, [r1, r2]
 587:Source\LwIP\src\core\ipv4/ip4.c ****       MIB2_STATS_INC(mib2.ipinaddrerrors);
 588:Source\LwIP\src\core\ipv4/ip4.c ****       MIB2_STATS_INC(mib2.ipindiscards);
 589:Source\LwIP\src\core\ipv4/ip4.c ****       return ERR_OK;
 545              		.loc 1 589 0
 546 01da 76E0     		b	.L17
 547              	.L30:
 590:Source\LwIP\src\core\ipv4/ip4.c ****     }
 591:Source\LwIP\src\core\ipv4/ip4.c ****   }
 592:Source\LwIP\src\core\ipv4/ip4.c **** 
 593:Source\LwIP\src\core\ipv4/ip4.c ****   /* packet not for us? */
 594:Source\LwIP\src\core\ipv4/ip4.c ****   if (netif == NULL) {
 548              		.loc 1 594 0
 549 01dc 002C     		cmp	r4, #0
 550 01de 08D1     		bne	.L32
 595:Source\LwIP\src\core\ipv4/ip4.c ****     /* packet not for us, route or discard */
 596:Source\LwIP\src\core\ipv4/ip4.c ****     LWIP_DEBUGF(IP_DEBUG | LWIP_DBG_TRACE, ("ip4_input: packet not for us.\n"));
 597:Source\LwIP\src\core\ipv4/ip4.c **** #if IP_FORWARD
 598:Source\LwIP\src\core\ipv4/ip4.c ****     /* non-broadcast packet? */
 599:Source\LwIP\src\core\ipv4/ip4.c ****     if (!ip4_addr_isbroadcast(ip4_current_dest_addr(), inp)) {
 600:Source\LwIP\src\core\ipv4/ip4.c ****       /* try to forward IP packet on (other) interfaces */
 601:Source\LwIP\src\core\ipv4/ip4.c ****       ip4_forward(p, iphdr, inp);
 602:Source\LwIP\src\core\ipv4/ip4.c ****     } else
 603:Source\LwIP\src\core\ipv4/ip4.c **** #endif /* IP_FORWARD */
 604:Source\LwIP\src\core\ipv4/ip4.c ****     {
 605:Source\LwIP\src\core\ipv4/ip4.c ****       IP_STATS_INC(ip.drop);
 551              		.loc 1 605 0
 552 01e0 3C49     		ldr	r1, .L51
 553 01e2 4E22     		movs	r2, #78
 554 01e4 8B5A     		ldrh	r3, [r1, r2]
 555 01e6 0133     		adds	r3, r3, #1
 556 01e8 8B52     		strh	r3, [r1, r2]
 606:Source\LwIP\src\core\ipv4/ip4.c ****       MIB2_STATS_INC(mib2.ipinaddrerrors);
 607:Source\LwIP\src\core\ipv4/ip4.c ****       MIB2_STATS_INC(mib2.ipindiscards);
 608:Source\LwIP\src\core\ipv4/ip4.c ****     }
 609:Source\LwIP\src\core\ipv4/ip4.c ****     pbuf_free(p);
 557              		.loc 1 609 0
 558 01ea 2800     		movs	r0, r5
 559 01ec FFF7FEFF 		bl	pbuf_free
 560              	.LVL46:
 610:Source\LwIP\src\core\ipv4/ip4.c ****     return ERR_OK;
 561              		.loc 1 610 0
 562 01f0 6BE0     		b	.L17
 563              	.L32:
 611:Source\LwIP\src\core\ipv4/ip4.c ****   }
 612:Source\LwIP\src\core\ipv4/ip4.c ****   /* packet consists of multiple fragments? */
 613:Source\LwIP\src\core\ipv4/ip4.c ****   if ((IPH_OFFSET(iphdr) & PP_HTONS(IP_OFFMASK | IP_MF)) != 0) {
 564              		.loc 1 613 0
 565 01f2 BA79     		ldrb	r2, [r7, #6]
 566 01f4 FB79     		ldrb	r3, [r7, #7]
 567 01f6 1B02     		lsls	r3, r3, #8
 568 01f8 1343     		orrs	r3, r2
 569 01fa C022     		movs	r2, #192
 570 01fc 9343     		bics	r3, r2
ARM GAS  C:\Users\Phuong\AppData\Local\Temp\ccYoYbaR.s 			page 22


 571 01fe 05D0     		beq	.L33
 614:Source\LwIP\src\core\ipv4/ip4.c **** #if IP_REASSEMBLY /* packet fragment reassembly code present? */
 615:Source\LwIP\src\core\ipv4/ip4.c ****     LWIP_DEBUGF(IP_DEBUG, ("IP packet is a fragment (id=0x%04"X16_F" tot_len=%"U16_F" len=%"U16_F" 
 616:Source\LwIP\src\core\ipv4/ip4.c ****       lwip_ntohs(IPH_ID(iphdr)), p->tot_len, lwip_ntohs(IPH_LEN(iphdr)), (u16_t)!!(IPH_OFFSET(iphdr
 617:Source\LwIP\src\core\ipv4/ip4.c ****     /* reassemble the packet*/
 618:Source\LwIP\src\core\ipv4/ip4.c ****     p = ip4_reass(p);
 572              		.loc 1 618 0
 573 0200 2800     		movs	r0, r5
 574 0202 FFF7FEFF 		bl	ip4_reass
 575              	.LVL47:
 576 0206 051E     		subs	r5, r0, #0
 577              	.LVL48:
 619:Source\LwIP\src\core\ipv4/ip4.c ****     /* packet not fully reassembled yet? */
 620:Source\LwIP\src\core\ipv4/ip4.c ****     if (p == NULL) {
 578              		.loc 1 620 0
 579 0208 5FD0     		beq	.L17
 621:Source\LwIP\src\core\ipv4/ip4.c ****       return ERR_OK;
 622:Source\LwIP\src\core\ipv4/ip4.c ****     }
 623:Source\LwIP\src\core\ipv4/ip4.c ****     iphdr = (struct ip_hdr *)p->payload;
 580              		.loc 1 623 0
 581 020a 4768     		ldr	r7, [r0, #4]
 582              	.LVL49:
 583              	.L33:
 624:Source\LwIP\src\core\ipv4/ip4.c **** #else /* IP_REASSEMBLY == 0, no packet fragment reassembly code present */
 625:Source\LwIP\src\core\ipv4/ip4.c ****     pbuf_free(p);
 626:Source\LwIP\src\core\ipv4/ip4.c ****     LWIP_DEBUGF(IP_DEBUG | LWIP_DBG_LEVEL_SERIOUS, ("IP packet dropped since it was fragmented (0x%
 627:Source\LwIP\src\core\ipv4/ip4.c ****       lwip_ntohs(IPH_OFFSET(iphdr))));
 628:Source\LwIP\src\core\ipv4/ip4.c ****     IP_STATS_INC(ip.opterr);
 629:Source\LwIP\src\core\ipv4/ip4.c ****     IP_STATS_INC(ip.drop);
 630:Source\LwIP\src\core\ipv4/ip4.c ****     /* unsupported protocol feature */
 631:Source\LwIP\src\core\ipv4/ip4.c ****     MIB2_STATS_INC(mib2.ipinunknownprotos);
 632:Source\LwIP\src\core\ipv4/ip4.c ****     return ERR_OK;
 633:Source\LwIP\src\core\ipv4/ip4.c **** #endif /* IP_REASSEMBLY */
 634:Source\LwIP\src\core\ipv4/ip4.c ****   }
 635:Source\LwIP\src\core\ipv4/ip4.c **** 
 636:Source\LwIP\src\core\ipv4/ip4.c **** #if IP_OPTIONS_ALLOWED == 0 /* no support for IP options in the IP header? */
 637:Source\LwIP\src\core\ipv4/ip4.c **** 
 638:Source\LwIP\src\core\ipv4/ip4.c **** #if LWIP_IGMP
 639:Source\LwIP\src\core\ipv4/ip4.c ****   /* there is an extra "router alert" option in IGMP messages which we allow for but do not police 
 640:Source\LwIP\src\core\ipv4/ip4.c ****   if ((iphdr_hlen > IP_HLEN) &&  (IPH_PROTO(iphdr) != IP_PROTO_IGMP)) {
 641:Source\LwIP\src\core\ipv4/ip4.c **** #else
 642:Source\LwIP\src\core\ipv4/ip4.c ****   if (iphdr_hlen > IP_HLEN) {
 643:Source\LwIP\src\core\ipv4/ip4.c **** #endif /* LWIP_IGMP */
 644:Source\LwIP\src\core\ipv4/ip4.c ****     LWIP_DEBUGF(IP_DEBUG | LWIP_DBG_LEVEL_SERIOUS, ("IP packet dropped since there were IP options 
 645:Source\LwIP\src\core\ipv4/ip4.c ****     pbuf_free(p);
 646:Source\LwIP\src\core\ipv4/ip4.c ****     IP_STATS_INC(ip.opterr);
 647:Source\LwIP\src\core\ipv4/ip4.c ****     IP_STATS_INC(ip.drop);
 648:Source\LwIP\src\core\ipv4/ip4.c ****     /* unsupported protocol feature */
 649:Source\LwIP\src\core\ipv4/ip4.c ****     MIB2_STATS_INC(mib2.ipinunknownprotos);
 650:Source\LwIP\src\core\ipv4/ip4.c ****     return ERR_OK;
 651:Source\LwIP\src\core\ipv4/ip4.c ****   }
 652:Source\LwIP\src\core\ipv4/ip4.c **** #endif /* IP_OPTIONS_ALLOWED == 0 */
 653:Source\LwIP\src\core\ipv4/ip4.c **** 
 654:Source\LwIP\src\core\ipv4/ip4.c ****   /* send to upper layers */
 655:Source\LwIP\src\core\ipv4/ip4.c ****   LWIP_DEBUGF(IP_DEBUG, ("ip4_input: \n"));
 656:Source\LwIP\src\core\ipv4/ip4.c ****   ip4_debug_print(p);
 657:Source\LwIP\src\core\ipv4/ip4.c ****   LWIP_DEBUGF(IP_DEBUG, ("ip4_input: p->len %"U16_F" p->tot_len %"U16_F"\n", p->len, p->tot_len));
ARM GAS  C:\Users\Phuong\AppData\Local\Temp\ccYoYbaR.s 			page 23


 658:Source\LwIP\src\core\ipv4/ip4.c **** 
 659:Source\LwIP\src\core\ipv4/ip4.c ****   ip_data.current_netif = netif;
 584              		.loc 1 659 0
 585 020c 324A     		ldr	r2, .L51+4
 586 020e 1460     		str	r4, [r2]
 660:Source\LwIP\src\core\ipv4/ip4.c ****   ip_data.current_input_netif = inp;
 587              		.loc 1 660 0
 588 0210 4346     		mov	r3, r8
 589 0212 5360     		str	r3, [r2, #4]
 661:Source\LwIP\src\core\ipv4/ip4.c ****   ip_data.current_ip4_header = iphdr;
 590              		.loc 1 661 0
 591 0214 9760     		str	r7, [r2, #8]
 662:Source\LwIP\src\core\ipv4/ip4.c ****   ip_data.current_ip_header_tot_len = IPH_HL(iphdr) * 4;
 592              		.loc 1 662 0
 593 0216 3B78     		ldrb	r3, [r7]
 594 0218 0F21     		movs	r1, #15
 595 021a 0B40     		ands	r3, r1
 596 021c 9B00     		lsls	r3, r3, #2
 597 021e 9381     		strh	r3, [r2, #12]
 663:Source\LwIP\src\core\ipv4/ip4.c **** 
 664:Source\LwIP\src\core\ipv4/ip4.c **** #if LWIP_RAW
 665:Source\LwIP\src\core\ipv4/ip4.c ****   /* raw input did not eat the packet? */
 666:Source\LwIP\src\core\ipv4/ip4.c ****   if (raw_input(p, inp) == 0)
 598              		.loc 1 666 0
 599 0220 4146     		mov	r1, r8
 600 0222 2800     		movs	r0, r5
 601 0224 FFF7FEFF 		bl	raw_input
 602              	.LVL50:
 603 0228 0028     		cmp	r0, #0
 604 022a 46D1     		bne	.L34
 667:Source\LwIP\src\core\ipv4/ip4.c **** #endif /* LWIP_RAW */
 668:Source\LwIP\src\core\ipv4/ip4.c ****   {
 669:Source\LwIP\src\core\ipv4/ip4.c ****     pbuf_header(p, -(s16_t)iphdr_hlen); /* Move to payload, no check necessary. */
 605              		.loc 1 669 0
 606 022c 7142     		rsbs	r1, r6, #0
 607 022e 09B2     		sxth	r1, r1
 608 0230 2800     		movs	r0, r5
 609 0232 FFF7FEFF 		bl	pbuf_header
 610              	.LVL51:
 670:Source\LwIP\src\core\ipv4/ip4.c **** 
 671:Source\LwIP\src\core\ipv4/ip4.c ****     switch (IPH_PROTO(iphdr)) {
 611              		.loc 1 671 0
 612 0236 7B7A     		ldrb	r3, [r7, #9]
 613 0238 022B     		cmp	r3, #2
 614 023a 16D0     		beq	.L36
 615 023c 02D8     		bhi	.L37
 616 023e 012B     		cmp	r3, #1
 617 0240 0ED0     		beq	.L38
 618 0242 18E0     		b	.L35
 619              	.L37:
 620 0244 062B     		cmp	r3, #6
 621 0246 06D0     		beq	.L39
 622 0248 112B     		cmp	r3, #17
 623 024a 14D1     		bne	.L35
 672:Source\LwIP\src\core\ipv4/ip4.c **** #if LWIP_UDP
 673:Source\LwIP\src\core\ipv4/ip4.c ****     case IP_PROTO_UDP:
 674:Source\LwIP\src\core\ipv4/ip4.c **** #if LWIP_UDPLITE
ARM GAS  C:\Users\Phuong\AppData\Local\Temp\ccYoYbaR.s 			page 24


 675:Source\LwIP\src\core\ipv4/ip4.c ****     case IP_PROTO_UDPLITE:
 676:Source\LwIP\src\core\ipv4/ip4.c **** #endif /* LWIP_UDPLITE */
 677:Source\LwIP\src\core\ipv4/ip4.c ****       MIB2_STATS_INC(mib2.ipindelivers);
 678:Source\LwIP\src\core\ipv4/ip4.c ****       udp_input(p, inp);
 624              		.loc 1 678 0
 625 024c 4146     		mov	r1, r8
 626 024e 2800     		movs	r0, r5
 627 0250 FFF7FEFF 		bl	udp_input
 628              	.LVL52:
 679:Source\LwIP\src\core\ipv4/ip4.c ****       break;
 629              		.loc 1 679 0
 630 0254 31E0     		b	.L34
 631              	.L39:
 680:Source\LwIP\src\core\ipv4/ip4.c **** #endif /* LWIP_UDP */
 681:Source\LwIP\src\core\ipv4/ip4.c **** #if LWIP_TCP
 682:Source\LwIP\src\core\ipv4/ip4.c ****     case IP_PROTO_TCP:
 683:Source\LwIP\src\core\ipv4/ip4.c ****       MIB2_STATS_INC(mib2.ipindelivers);
 684:Source\LwIP\src\core\ipv4/ip4.c ****       tcp_input(p, inp);
 632              		.loc 1 684 0
 633 0256 4146     		mov	r1, r8
 634 0258 2800     		movs	r0, r5
 635 025a FFF7FEFF 		bl	tcp_input
 636              	.LVL53:
 685:Source\LwIP\src\core\ipv4/ip4.c ****       break;
 637              		.loc 1 685 0
 638 025e 2CE0     		b	.L34
 639              	.L38:
 686:Source\LwIP\src\core\ipv4/ip4.c **** #endif /* LWIP_TCP */
 687:Source\LwIP\src\core\ipv4/ip4.c **** #if LWIP_ICMP
 688:Source\LwIP\src\core\ipv4/ip4.c ****     case IP_PROTO_ICMP:
 689:Source\LwIP\src\core\ipv4/ip4.c ****       MIB2_STATS_INC(mib2.ipindelivers);
 690:Source\LwIP\src\core\ipv4/ip4.c ****       icmp_input(p, inp);
 640              		.loc 1 690 0
 641 0260 4146     		mov	r1, r8
 642 0262 2800     		movs	r0, r5
 643 0264 FFF7FEFF 		bl	icmp_input
 644              	.LVL54:
 691:Source\LwIP\src\core\ipv4/ip4.c ****       break;
 645              		.loc 1 691 0
 646 0268 27E0     		b	.L34
 647              	.L36:
 692:Source\LwIP\src\core\ipv4/ip4.c **** #endif /* LWIP_ICMP */
 693:Source\LwIP\src\core\ipv4/ip4.c **** #if LWIP_IGMP
 694:Source\LwIP\src\core\ipv4/ip4.c ****     case IP_PROTO_IGMP:
 695:Source\LwIP\src\core\ipv4/ip4.c ****       igmp_input(p, inp, ip4_current_dest_addr());
 648              		.loc 1 695 0
 649 026a 1C4A     		ldr	r2, .L51+8
 650 026c 4146     		mov	r1, r8
 651 026e 2800     		movs	r0, r5
 652 0270 FFF7FEFF 		bl	igmp_input
 653              	.LVL55:
 696:Source\LwIP\src\core\ipv4/ip4.c ****       break;
 654              		.loc 1 696 0
 655 0274 21E0     		b	.L34
 656              	.L35:
 697:Source\LwIP\src\core\ipv4/ip4.c **** #endif /* LWIP_IGMP */
 698:Source\LwIP\src\core\ipv4/ip4.c ****     default:
ARM GAS  C:\Users\Phuong\AppData\Local\Temp\ccYoYbaR.s 			page 25


 699:Source\LwIP\src\core\ipv4/ip4.c **** #if LWIP_ICMP
 700:Source\LwIP\src\core\ipv4/ip4.c ****       /* send ICMP destination protocol unreachable unless is was a broadcast */
 701:Source\LwIP\src\core\ipv4/ip4.c ****       if (!ip4_addr_isbroadcast(ip4_current_dest_addr(), netif) &&
 657              		.loc 1 701 0
 658 0276 184B     		ldr	r3, .L51+4
 659 0278 5869     		ldr	r0, [r3, #20]
 660 027a 2100     		movs	r1, r4
 661 027c FFF7FEFF 		bl	ip4_addr_isbroadcast_u32
 662              	.LVL56:
 663 0280 0028     		cmp	r0, #0
 664 0282 0ED1     		bne	.L41
 702:Source\LwIP\src\core\ipv4/ip4.c ****           !ip4_addr_ismulticast(ip4_current_dest_addr())) {
 665              		.loc 1 702 0 discriminator 1
 666 0284 144B     		ldr	r3, .L51+4
 667 0286 5B69     		ldr	r3, [r3, #20]
 668 0288 F022     		movs	r2, #240
 669 028a 1340     		ands	r3, r2
 701:Source\LwIP\src\core\ipv4/ip4.c ****           !ip4_addr_ismulticast(ip4_current_dest_addr())) {
 670              		.loc 1 701 0 discriminator 1
 671 028c E02B     		cmp	r3, #224
 672 028e 08D0     		beq	.L41
 703:Source\LwIP\src\core\ipv4/ip4.c ****         pbuf_header_force(p, iphdr_hlen); /* Move to ip header, no check necessary. */
 673              		.loc 1 703 0
 674 0290 31B2     		sxth	r1, r6
 675 0292 2800     		movs	r0, r5
 676 0294 FFF7FEFF 		bl	pbuf_header_force
 677              	.LVL57:
 704:Source\LwIP\src\core\ipv4/ip4.c ****         p->payload = iphdr;
 678              		.loc 1 704 0
 679 0298 6F60     		str	r7, [r5, #4]
 705:Source\LwIP\src\core\ipv4/ip4.c ****         icmp_dest_unreach(p, ICMP_DUR_PROTO);
 680              		.loc 1 705 0
 681 029a 0221     		movs	r1, #2
 682 029c 2800     		movs	r0, r5
 683 029e FFF7FEFF 		bl	icmp_dest_unreach
 684              	.LVL58:
 685              	.L41:
 706:Source\LwIP\src\core\ipv4/ip4.c ****       }
 707:Source\LwIP\src\core\ipv4/ip4.c **** #endif /* LWIP_ICMP */
 708:Source\LwIP\src\core\ipv4/ip4.c ****       pbuf_free(p);
 686              		.loc 1 708 0
 687 02a2 2800     		movs	r0, r5
 688 02a4 FFF7FEFF 		bl	pbuf_free
 689              	.LVL59:
 709:Source\LwIP\src\core\ipv4/ip4.c **** 
 710:Source\LwIP\src\core\ipv4/ip4.c ****       LWIP_DEBUGF(IP_DEBUG | LWIP_DBG_LEVEL_SERIOUS, ("Unsupported transport protocol %"U16_F"\n", 
 711:Source\LwIP\src\core\ipv4/ip4.c **** 
 712:Source\LwIP\src\core\ipv4/ip4.c ****       IP_STATS_INC(ip.proterr);
 690              		.loc 1 712 0
 691 02a8 0A4B     		ldr	r3, .L51
 692 02aa 5821     		movs	r1, #88
 693 02ac 5A5A     		ldrh	r2, [r3, r1]
 694 02ae 0132     		adds	r2, r2, #1
 695 02b0 5A52     		strh	r2, [r3, r1]
 713:Source\LwIP\src\core\ipv4/ip4.c ****       IP_STATS_INC(ip.drop);
 696              		.loc 1 713 0
 697 02b2 0A39     		subs	r1, r1, #10
ARM GAS  C:\Users\Phuong\AppData\Local\Temp\ccYoYbaR.s 			page 26


 698 02b4 5A5A     		ldrh	r2, [r3, r1]
 699 02b6 0132     		adds	r2, r2, #1
 700 02b8 5A52     		strh	r2, [r3, r1]
 701              	.L34:
 714:Source\LwIP\src\core\ipv4/ip4.c ****       MIB2_STATS_INC(mib2.ipinunknownprotos);
 715:Source\LwIP\src\core\ipv4/ip4.c ****     }
 716:Source\LwIP\src\core\ipv4/ip4.c ****   }
 717:Source\LwIP\src\core\ipv4/ip4.c **** 
 718:Source\LwIP\src\core\ipv4/ip4.c ****   /* @todo: this is not really necessary... */
 719:Source\LwIP\src\core\ipv4/ip4.c ****   ip_data.current_netif = NULL;
 702              		.loc 1 719 0
 703 02ba 074B     		ldr	r3, .L51+4
 704 02bc 0022     		movs	r2, #0
 705 02be 1A60     		str	r2, [r3]
 720:Source\LwIP\src\core\ipv4/ip4.c ****   ip_data.current_input_netif = NULL;
 706              		.loc 1 720 0
 707 02c0 5A60     		str	r2, [r3, #4]
 721:Source\LwIP\src\core\ipv4/ip4.c ****   ip_data.current_ip4_header = NULL;
 708              		.loc 1 721 0
 709 02c2 9A60     		str	r2, [r3, #8]
 722:Source\LwIP\src\core\ipv4/ip4.c ****   ip_data.current_ip_header_tot_len = 0;
 710              		.loc 1 722 0
 711 02c4 9A81     		strh	r2, [r3, #12]
 723:Source\LwIP\src\core\ipv4/ip4.c ****   ip4_addr_set_any(ip4_current_src_addr());
 712              		.loc 1 723 0
 713 02c6 1A61     		str	r2, [r3, #16]
 724:Source\LwIP\src\core\ipv4/ip4.c ****   ip4_addr_set_any(ip4_current_dest_addr());
 714              		.loc 1 724 0
 715 02c8 5A61     		str	r2, [r3, #20]
 716              	.LVL60:
 717              	.L17:
 725:Source\LwIP\src\core\ipv4/ip4.c **** 
 726:Source\LwIP\src\core\ipv4/ip4.c ****   return ERR_OK;
 727:Source\LwIP\src\core\ipv4/ip4.c **** }
 718              		.loc 1 727 0
 719 02ca 0020     		movs	r0, #0
 720              		@ sp needed
 721              	.LVL61:
 722              	.LVL62:
 723              	.LVL63:
 724 02cc 0CBC     		pop	{r2, r3}
 725 02ce 9046     		mov	r8, r2
 726 02d0 9946     		mov	r9, r3
 727 02d2 F8BD     		pop	{r3, r4, r5, r6, r7, pc}
 728              	.L52:
 729              		.align	2
 730              	.L51:
 731 02d4 00000000 		.word	lwip_stats
 732 02d8 00000000 		.word	ip_data
 733 02dc 14000000 		.word	ip_data+20
 734 02e0 E0000001 		.word	16777440
 735 02e4 00000000 		.word	netif_list
 736              		.cfi_endproc
 737              	.LFE55:
 738              		.size	ip4_input, .-ip4_input
 739              		.section	.text.ip4_output_if_opt_src,"ax",%progbits
 740              		.align	2
ARM GAS  C:\Users\Phuong\AppData\Local\Temp\ccYoYbaR.s 			page 27


 741              		.global	ip4_output_if_opt_src
 742              		.code	16
 743              		.thumb_func
 744              		.type	ip4_output_if_opt_src, %function
 745              	ip4_output_if_opt_src:
 746              	.LFB59:
 728:Source\LwIP\src\core\ipv4/ip4.c **** 
 729:Source\LwIP\src\core\ipv4/ip4.c **** /**
 730:Source\LwIP\src\core\ipv4/ip4.c ****  * Sends an IP packet on a network interface. This function constructs
 731:Source\LwIP\src\core\ipv4/ip4.c ****  * the IP header and calculates the IP header checksum. If the source
 732:Source\LwIP\src\core\ipv4/ip4.c ****  * IP address is NULL, the IP address of the outgoing network
 733:Source\LwIP\src\core\ipv4/ip4.c ****  * interface is filled in as source address.
 734:Source\LwIP\src\core\ipv4/ip4.c ****  * If the destination IP address is LWIP_IP_HDRINCL, p is assumed to already
 735:Source\LwIP\src\core\ipv4/ip4.c ****  * include an IP header and p->payload points to it instead of the data.
 736:Source\LwIP\src\core\ipv4/ip4.c ****  *
 737:Source\LwIP\src\core\ipv4/ip4.c ****  * @param p the packet to send (p->payload points to the data, e.g. next
 738:Source\LwIP\src\core\ipv4/ip4.c ****             protocol header; if dest == LWIP_IP_HDRINCL, p already includes an
 739:Source\LwIP\src\core\ipv4/ip4.c ****             IP header and p->payload points to that IP header)
 740:Source\LwIP\src\core\ipv4/ip4.c ****  * @param src the source IP address to send from (if src == IP4_ADDR_ANY, the
 741:Source\LwIP\src\core\ipv4/ip4.c ****  *         IP  address of the netif used to send is used as source address)
 742:Source\LwIP\src\core\ipv4/ip4.c ****  * @param dest the destination IP address to send the packet to
 743:Source\LwIP\src\core\ipv4/ip4.c ****  * @param ttl the TTL value to be set in the IP header
 744:Source\LwIP\src\core\ipv4/ip4.c ****  * @param tos the TOS value to be set in the IP header
 745:Source\LwIP\src\core\ipv4/ip4.c ****  * @param proto the PROTOCOL to be set in the IP header
 746:Source\LwIP\src\core\ipv4/ip4.c ****  * @param netif the netif on which to send this packet
 747:Source\LwIP\src\core\ipv4/ip4.c ****  * @return ERR_OK if the packet was sent OK
 748:Source\LwIP\src\core\ipv4/ip4.c ****  *         ERR_BUF if p doesn't have enough space for IP/LINK headers
 749:Source\LwIP\src\core\ipv4/ip4.c ****  *         returns errors returned by netif->output
 750:Source\LwIP\src\core\ipv4/ip4.c ****  *
 751:Source\LwIP\src\core\ipv4/ip4.c ****  * @note ip_id: RFC791 "some host may be able to simply use
 752:Source\LwIP\src\core\ipv4/ip4.c ****  *  unique identifiers independent of destination"
 753:Source\LwIP\src\core\ipv4/ip4.c ****  */
 754:Source\LwIP\src\core\ipv4/ip4.c **** err_t
 755:Source\LwIP\src\core\ipv4/ip4.c **** ip4_output_if(struct pbuf *p, const ip4_addr_t *src, const ip4_addr_t *dest,
 756:Source\LwIP\src\core\ipv4/ip4.c ****              u8_t ttl, u8_t tos,
 757:Source\LwIP\src\core\ipv4/ip4.c ****              u8_t proto, struct netif *netif)
 758:Source\LwIP\src\core\ipv4/ip4.c **** {
 759:Source\LwIP\src\core\ipv4/ip4.c **** #if IP_OPTIONS_SEND
 760:Source\LwIP\src\core\ipv4/ip4.c ****   return ip4_output_if_opt(p, src, dest, ttl, tos, proto, netif, NULL, 0);
 761:Source\LwIP\src\core\ipv4/ip4.c **** }
 762:Source\LwIP\src\core\ipv4/ip4.c **** 
 763:Source\LwIP\src\core\ipv4/ip4.c **** /**
 764:Source\LwIP\src\core\ipv4/ip4.c ****  * Same as ip_output_if() but with the possibility to include IP options:
 765:Source\LwIP\src\core\ipv4/ip4.c ****  *
 766:Source\LwIP\src\core\ipv4/ip4.c ****  * @ param ip_options pointer to the IP options, copied into the IP header
 767:Source\LwIP\src\core\ipv4/ip4.c ****  * @ param optlen length of ip_options
 768:Source\LwIP\src\core\ipv4/ip4.c ****  */
 769:Source\LwIP\src\core\ipv4/ip4.c **** err_t
 770:Source\LwIP\src\core\ipv4/ip4.c **** ip4_output_if_opt(struct pbuf *p, const ip4_addr_t *src, const ip4_addr_t *dest,
 771:Source\LwIP\src\core\ipv4/ip4.c ****        u8_t ttl, u8_t tos, u8_t proto, struct netif *netif, void *ip_options,
 772:Source\LwIP\src\core\ipv4/ip4.c ****        u16_t optlen)
 773:Source\LwIP\src\core\ipv4/ip4.c **** {
 774:Source\LwIP\src\core\ipv4/ip4.c **** #endif /* IP_OPTIONS_SEND */
 775:Source\LwIP\src\core\ipv4/ip4.c ****   const ip4_addr_t *src_used = src;
 776:Source\LwIP\src\core\ipv4/ip4.c ****   if (dest != LWIP_IP_HDRINCL) {
 777:Source\LwIP\src\core\ipv4/ip4.c ****     if (ip4_addr_isany(src)) {
 778:Source\LwIP\src\core\ipv4/ip4.c ****       src_used = netif_ip4_addr(netif);
ARM GAS  C:\Users\Phuong\AppData\Local\Temp\ccYoYbaR.s 			page 28


 779:Source\LwIP\src\core\ipv4/ip4.c ****     }
 780:Source\LwIP\src\core\ipv4/ip4.c ****   }
 781:Source\LwIP\src\core\ipv4/ip4.c **** 
 782:Source\LwIP\src\core\ipv4/ip4.c **** #if IP_OPTIONS_SEND
 783:Source\LwIP\src\core\ipv4/ip4.c ****   return ip4_output_if_opt_src(p, src_used, dest, ttl, tos, proto, netif,
 784:Source\LwIP\src\core\ipv4/ip4.c ****     ip_options, optlen);
 785:Source\LwIP\src\core\ipv4/ip4.c **** #else /* IP_OPTIONS_SEND */
 786:Source\LwIP\src\core\ipv4/ip4.c ****   return ip4_output_if_src(p, src_used, dest, ttl, tos, proto, netif);
 787:Source\LwIP\src\core\ipv4/ip4.c **** #endif /* IP_OPTIONS_SEND */
 788:Source\LwIP\src\core\ipv4/ip4.c **** }
 789:Source\LwIP\src\core\ipv4/ip4.c **** 
 790:Source\LwIP\src\core\ipv4/ip4.c **** /**
 791:Source\LwIP\src\core\ipv4/ip4.c ****  * Same as ip_output_if() but 'src' address is not replaced by netif address
 792:Source\LwIP\src\core\ipv4/ip4.c ****  * when it is 'any'.
 793:Source\LwIP\src\core\ipv4/ip4.c ****  */
 794:Source\LwIP\src\core\ipv4/ip4.c **** err_t
 795:Source\LwIP\src\core\ipv4/ip4.c **** ip4_output_if_src(struct pbuf *p, const ip4_addr_t *src, const ip4_addr_t *dest,
 796:Source\LwIP\src\core\ipv4/ip4.c ****              u8_t ttl, u8_t tos,
 797:Source\LwIP\src\core\ipv4/ip4.c ****              u8_t proto, struct netif *netif)
 798:Source\LwIP\src\core\ipv4/ip4.c **** {
 799:Source\LwIP\src\core\ipv4/ip4.c **** #if IP_OPTIONS_SEND
 800:Source\LwIP\src\core\ipv4/ip4.c ****   return ip4_output_if_opt_src(p, src, dest, ttl, tos, proto, netif, NULL, 0);
 801:Source\LwIP\src\core\ipv4/ip4.c **** }
 802:Source\LwIP\src\core\ipv4/ip4.c **** 
 803:Source\LwIP\src\core\ipv4/ip4.c **** /**
 804:Source\LwIP\src\core\ipv4/ip4.c ****  * Same as ip_output_if_opt() but 'src' address is not replaced by netif address
 805:Source\LwIP\src\core\ipv4/ip4.c ****  * when it is 'any'.
 806:Source\LwIP\src\core\ipv4/ip4.c ****  */
 807:Source\LwIP\src\core\ipv4/ip4.c **** err_t
 808:Source\LwIP\src\core\ipv4/ip4.c **** ip4_output_if_opt_src(struct pbuf *p, const ip4_addr_t *src, const ip4_addr_t *dest,
 809:Source\LwIP\src\core\ipv4/ip4.c ****        u8_t ttl, u8_t tos, u8_t proto, struct netif *netif, void *ip_options,
 810:Source\LwIP\src\core\ipv4/ip4.c ****        u16_t optlen)
 811:Source\LwIP\src\core\ipv4/ip4.c **** {
 747              		.loc 1 811 0
 748              		.cfi_startproc
 749              		@ args = 20, pretend = 0, frame = 16
 750              		@ frame_needed = 0, uses_anonymous_args = 0
 751              	.LVL64:
 752 0000 F0B5     		push	{r4, r5, r6, r7, lr}
 753              		.cfi_def_cfa_offset 20
 754              		.cfi_offset 4, -20
 755              		.cfi_offset 5, -16
 756              		.cfi_offset 6, -12
 757              		.cfi_offset 7, -8
 758              		.cfi_offset 14, -4
 759 0002 5F46     		mov	r7, fp
 760 0004 5646     		mov	r6, r10
 761 0006 4D46     		mov	r5, r9
 762 0008 4446     		mov	r4, r8
 763 000a F0B4     		push	{r4, r5, r6, r7}
 764              		.cfi_def_cfa_offset 36
 765              		.cfi_offset 8, -36
 766              		.cfi_offset 9, -32
 767              		.cfi_offset 10, -28
 768              		.cfi_offset 11, -24
 769 000c 85B0     		sub	sp, sp, #20
 770              		.cfi_def_cfa_offset 56
ARM GAS  C:\Users\Phuong\AppData\Local\Temp\ccYoYbaR.s 			page 29


 771 000e 0500     		movs	r5, r0
 772 0010 8B46     		mov	fp, r1
 773 0012 9046     		mov	r8, r2
 774 0014 1F00     		movs	r7, r3
 775 0016 0EAB     		add	r3, sp, #56
 776              	.LVL65:
 777 0018 1B78     		ldrb	r3, [r3]
 778              	.LVL66:
 779 001a 9946     		mov	r9, r3
 780 001c 0FAB     		add	r3, sp, #60
 781              	.LVL67:
 782 001e 1B78     		ldrb	r3, [r3]
 783              	.LVL68:
 784 0020 9A46     		mov	r10, r3
 785 0022 12AB     		add	r3, sp, #72
 786              	.LVL69:
 787 0024 1E88     		ldrh	r6, [r3]
 788              	.LVL70:
 812:Source\LwIP\src\core\ipv4/ip4.c **** #endif /* IP_OPTIONS_SEND */
 813:Source\LwIP\src\core\ipv4/ip4.c ****   struct ip_hdr *iphdr;
 814:Source\LwIP\src\core\ipv4/ip4.c ****   ip4_addr_t dest_addr;
 815:Source\LwIP\src\core\ipv4/ip4.c **** #if CHECKSUM_GEN_IP_INLINE
 816:Source\LwIP\src\core\ipv4/ip4.c ****   u32_t chk_sum = 0;
 817:Source\LwIP\src\core\ipv4/ip4.c **** #endif /* CHECKSUM_GEN_IP_INLINE */
 818:Source\LwIP\src\core\ipv4/ip4.c **** 
 819:Source\LwIP\src\core\ipv4/ip4.c ****   LWIP_IP_CHECK_PBUF_REF_COUNT_FOR_TX(p);
 820:Source\LwIP\src\core\ipv4/ip4.c **** 
 821:Source\LwIP\src\core\ipv4/ip4.c ****   MIB2_STATS_INC(mib2.ipoutrequests);
 822:Source\LwIP\src\core\ipv4/ip4.c **** 
 823:Source\LwIP\src\core\ipv4/ip4.c ****   /* Should the IP header be generated or is it already included in p? */
 824:Source\LwIP\src\core\ipv4/ip4.c ****   if (dest != LWIP_IP_HDRINCL) {
 789              		.loc 1 824 0
 790 0026 002A     		cmp	r2, #0
 791 0028 00D1     		bne	.LCB799
 792 002a B0E0     		b	.L54	@long jump
 793              	.LCB799:
 794              	.LVL71:
 795              	.LBB8:
 825:Source\LwIP\src\core\ipv4/ip4.c ****     u16_t ip_hlen = IP_HLEN;
 826:Source\LwIP\src\core\ipv4/ip4.c **** #if IP_OPTIONS_SEND
 827:Source\LwIP\src\core\ipv4/ip4.c ****     u16_t optlen_aligned = 0;
 828:Source\LwIP\src\core\ipv4/ip4.c ****     if (optlen != 0) {
 796              		.loc 1 828 0
 797 002c 002E     		cmp	r6, #0
 798 002e 2DD0     		beq	.L66
 799              	.LBB9:
 829:Source\LwIP\src\core\ipv4/ip4.c **** #if CHECKSUM_GEN_IP_INLINE
 830:Source\LwIP\src\core\ipv4/ip4.c ****       int i;
 831:Source\LwIP\src\core\ipv4/ip4.c **** #endif /* CHECKSUM_GEN_IP_INLINE */
 832:Source\LwIP\src\core\ipv4/ip4.c ****       /* round up to a multiple of 4 */
 833:Source\LwIP\src\core\ipv4/ip4.c ****       optlen_aligned = ((optlen + 3) & ~3);
 800              		.loc 1 833 0
 801 0030 F41C     		adds	r4, r6, #3
 802 0032 0323     		movs	r3, #3
 803              	.LVL72:
 804 0034 9C43     		bics	r4, r3
 805 0036 A4B2     		uxth	r4, r4
ARM GAS  C:\Users\Phuong\AppData\Local\Temp\ccYoYbaR.s 			page 30


 806              	.LVL73:
 834:Source\LwIP\src\core\ipv4/ip4.c ****       ip_hlen += optlen_aligned;
 807              		.loc 1 834 0
 808 0038 2300     		movs	r3, r4
 809 003a 1433     		adds	r3, r3, #20
 810 003c 9BB2     		uxth	r3, r3
 811 003e 0193     		str	r3, [sp, #4]
 812              	.LVL74:
 835:Source\LwIP\src\core\ipv4/ip4.c ****       /* First write in the IP options */
 836:Source\LwIP\src\core\ipv4/ip4.c ****       if (pbuf_header(p, optlen_aligned)) {
 813              		.loc 1 836 0
 814 0040 21B2     		sxth	r1, r4
 815              	.LVL75:
 816 0042 FFF7FEFF 		bl	pbuf_header
 817              	.LVL76:
 818 0046 0028     		cmp	r0, #0
 819 0048 07D0     		beq	.L56
 837:Source\LwIP\src\core\ipv4/ip4.c ****         LWIP_DEBUGF(IP_DEBUG | LWIP_DBG_LEVEL_SERIOUS, ("ip4_output_if_opt: not enough room for IP 
 838:Source\LwIP\src\core\ipv4/ip4.c ****         IP_STATS_INC(ip.err);
 820              		.loc 1 838 0
 821 004a 6849     		ldr	r1, .L67
 822 004c 5C22     		movs	r2, #92
 823 004e 8B5A     		ldrh	r3, [r1, r2]
 824 0050 0133     		adds	r3, r3, #1
 825 0052 8B52     		strh	r3, [r1, r2]
 839:Source\LwIP\src\core\ipv4/ip4.c ****         MIB2_STATS_INC(mib2.ipoutdiscards);
 840:Source\LwIP\src\core\ipv4/ip4.c ****         return ERR_BUF;
 826              		.loc 1 840 0
 827 0054 0220     		movs	r0, #2
 828 0056 4042     		rsbs	r0, r0, #0
 829 0058 C0E0     		b	.L57
 830              	.L56:
 841:Source\LwIP\src\core\ipv4/ip4.c ****       }
 842:Source\LwIP\src\core\ipv4/ip4.c ****       MEMCPY(p->payload, ip_options, optlen);
 831              		.loc 1 842 0
 832 005a 3200     		movs	r2, r6
 833 005c 1199     		ldr	r1, [sp, #68]
 834 005e 6868     		ldr	r0, [r5, #4]
 835 0060 FFF7FEFF 		bl	memcpy
 836              	.LVL77:
 843:Source\LwIP\src\core\ipv4/ip4.c ****       if (optlen < optlen_aligned) {
 837              		.loc 1 843 0
 838 0064 A642     		cmp	r6, r4
 839 0066 05D2     		bcs	.L58
 844:Source\LwIP\src\core\ipv4/ip4.c ****         /* zero the remaining bytes */
 845:Source\LwIP\src\core\ipv4/ip4.c ****         memset(((char*)p->payload) + optlen, 0, optlen_aligned - optlen);
 840              		.loc 1 845 0
 841 0068 A21B     		subs	r2, r4, r6
 842 006a 6B68     		ldr	r3, [r5, #4]
 843 006c 9819     		adds	r0, r3, r6
 844 006e 0021     		movs	r1, #0
 845 0070 FFF7FEFF 		bl	memset
 846              	.LVL78:
 847              	.L58:
 846:Source\LwIP\src\core\ipv4/ip4.c ****       }
 847:Source\LwIP\src\core\ipv4/ip4.c **** #if CHECKSUM_GEN_IP_INLINE
 848:Source\LwIP\src\core\ipv4/ip4.c ****       for (i = 0; i < optlen_aligned/2; i++) {
ARM GAS  C:\Users\Phuong\AppData\Local\Temp\ccYoYbaR.s 			page 31


 848              		.loc 1 848 0
 849 0074 0023     		movs	r3, #0
 850              	.LBE9:
 851              	.LBE8:
 816:Source\LwIP\src\core\ipv4/ip4.c **** #endif /* CHECKSUM_GEN_IP_INLINE */
 852              		.loc 1 816 0
 853 0076 0026     		movs	r6, #0
 854              	.LBB11:
 855              	.LBB10:
 856              		.loc 1 848 0
 857 0078 04E0     		b	.L59
 858              	.LVL79:
 859              	.L60:
 849:Source\LwIP\src\core\ipv4/ip4.c ****         chk_sum += ((u16_t*)p->payload)[i];
 860              		.loc 1 849 0 discriminator 3
 861 007a 5A00     		lsls	r2, r3, #1
 862 007c 6968     		ldr	r1, [r5, #4]
 863 007e 525A     		ldrh	r2, [r2, r1]
 864 0080 B618     		adds	r6, r6, r2
 865              	.LVL80:
 848:Source\LwIP\src\core\ipv4/ip4.c ****         chk_sum += ((u16_t*)p->payload)[i];
 866              		.loc 1 848 0 discriminator 3
 867 0082 0133     		adds	r3, r3, #1
 868              	.LVL81:
 869              	.L59:
 848:Source\LwIP\src\core\ipv4/ip4.c ****         chk_sum += ((u16_t*)p->payload)[i];
 870              		.loc 1 848 0 is_stmt 0 discriminator 1
 871 0084 6208     		lsrs	r2, r4, #1
 872 0086 9342     		cmp	r3, r2
 873 0088 F7DB     		blt	.L60
 874 008a 02E0     		b	.L55
 875              	.LVL82:
 876              	.L66:
 877              	.LBE10:
 825:Source\LwIP\src\core\ipv4/ip4.c **** #if IP_OPTIONS_SEND
 878              		.loc 1 825 0 is_stmt 1
 879 008c 1423     		movs	r3, #20
 880              	.LVL83:
 881 008e 0193     		str	r3, [sp, #4]
 882              	.LBE11:
 816:Source\LwIP\src\core\ipv4/ip4.c **** #endif /* CHECKSUM_GEN_IP_INLINE */
 883              		.loc 1 816 0
 884 0090 0026     		movs	r6, #0
 885              	.LVL84:
 886              	.L55:
 887              	.LBB12:
 850:Source\LwIP\src\core\ipv4/ip4.c ****       }
 851:Source\LwIP\src\core\ipv4/ip4.c **** #endif /* CHECKSUM_GEN_IP_INLINE */
 852:Source\LwIP\src\core\ipv4/ip4.c ****     }
 853:Source\LwIP\src\core\ipv4/ip4.c **** #endif /* IP_OPTIONS_SEND */
 854:Source\LwIP\src\core\ipv4/ip4.c ****     /* generate IP header */
 855:Source\LwIP\src\core\ipv4/ip4.c ****     if (pbuf_header(p, IP_HLEN)) {
 888              		.loc 1 855 0
 889 0092 1421     		movs	r1, #20
 890 0094 2800     		movs	r0, r5
 891 0096 FFF7FEFF 		bl	pbuf_header
 892              	.LVL85:
ARM GAS  C:\Users\Phuong\AppData\Local\Temp\ccYoYbaR.s 			page 32


 893 009a 0028     		cmp	r0, #0
 894 009c 07D0     		beq	.L61
 856:Source\LwIP\src\core\ipv4/ip4.c ****       LWIP_DEBUGF(IP_DEBUG | LWIP_DBG_LEVEL_SERIOUS, ("ip4_output: not enough room for IP header in
 857:Source\LwIP\src\core\ipv4/ip4.c **** 
 858:Source\LwIP\src\core\ipv4/ip4.c ****       IP_STATS_INC(ip.err);
 895              		.loc 1 858 0
 896 009e 5349     		ldr	r1, .L67
 897 00a0 5C22     		movs	r2, #92
 898 00a2 8B5A     		ldrh	r3, [r1, r2]
 899 00a4 0133     		adds	r3, r3, #1
 900 00a6 8B52     		strh	r3, [r1, r2]
 859:Source\LwIP\src\core\ipv4/ip4.c ****       MIB2_STATS_INC(mib2.ipoutdiscards);
 860:Source\LwIP\src\core\ipv4/ip4.c ****       return ERR_BUF;
 901              		.loc 1 860 0
 902 00a8 0220     		movs	r0, #2
 903 00aa 4042     		rsbs	r0, r0, #0
 904 00ac 96E0     		b	.L57
 905              	.L61:
 861:Source\LwIP\src\core\ipv4/ip4.c ****     }
 862:Source\LwIP\src\core\ipv4/ip4.c **** 
 863:Source\LwIP\src\core\ipv4/ip4.c ****     iphdr = (struct ip_hdr *)p->payload;
 906              		.loc 1 863 0
 907 00ae 6C68     		ldr	r4, [r5, #4]
 908              	.LVL86:
 864:Source\LwIP\src\core\ipv4/ip4.c ****     LWIP_ASSERT("check that first pbuf can hold struct ip_hdr",
 865:Source\LwIP\src\core\ipv4/ip4.c ****                (p->len >= sizeof(struct ip_hdr)));
 866:Source\LwIP\src\core\ipv4/ip4.c **** 
 867:Source\LwIP\src\core\ipv4/ip4.c ****     IPH_TTL_SET(iphdr, ttl);
 909              		.loc 1 867 0
 910 00b0 2772     		strb	r7, [r4, #8]
 868:Source\LwIP\src\core\ipv4/ip4.c ****     IPH_PROTO_SET(iphdr, proto);
 911              		.loc 1 868 0
 912 00b2 5346     		mov	r3, r10
 913 00b4 6372     		strb	r3, [r4, #9]
 869:Source\LwIP\src\core\ipv4/ip4.c **** #if CHECKSUM_GEN_IP_INLINE
 870:Source\LwIP\src\core\ipv4/ip4.c ****     chk_sum += PP_NTOHS(proto | (ttl << 8));
 914              		.loc 1 870 0
 915 00b6 3F02     		lsls	r7, r7, #8
 916 00b8 5346     		mov	r3, r10
 917 00ba 3B43     		orrs	r3, r7
 918 00bc 1A06     		lsls	r2, r3, #24
 919 00be 120C     		lsrs	r2, r2, #16
 920 00c0 1F0A     		lsrs	r7, r3, #8
 921 00c2 1743     		orrs	r7, r2
 922 00c4 F619     		adds	r6, r6, r7
 923              	.LVL87:
 871:Source\LwIP\src\core\ipv4/ip4.c **** #endif /* CHECKSUM_GEN_IP_INLINE */
 872:Source\LwIP\src\core\ipv4/ip4.c **** 
 873:Source\LwIP\src\core\ipv4/ip4.c ****     /* dest cannot be NULL here */
 874:Source\LwIP\src\core\ipv4/ip4.c ****     ip4_addr_copy(iphdr->dest, *dest);
 924              		.loc 1 874 0
 925 00c6 4346     		mov	r3, r8
 926 00c8 1A68     		ldr	r2, [r3]
 927 00ca 2274     		strb	r2, [r4, #16]
 928 00cc 130A     		lsrs	r3, r2, #8
 929 00ce 6374     		strb	r3, [r4, #17]
 930 00d0 130C     		lsrs	r3, r2, #16
ARM GAS  C:\Users\Phuong\AppData\Local\Temp\ccYoYbaR.s 			page 33


 931 00d2 A374     		strb	r3, [r4, #18]
 932 00d4 110E     		lsrs	r1, r2, #24
 933 00d6 E174     		strb	r1, [r4, #19]
 875:Source\LwIP\src\core\ipv4/ip4.c **** #if CHECKSUM_GEN_IP_INLINE
 876:Source\LwIP\src\core\ipv4/ip4.c ****     chk_sum += ip4_addr_get_u32(&iphdr->dest) & 0xFFFF;
 934              		.loc 1 876 0
 935 00d8 1204     		lsls	r2, r2, #16
 936 00da 120C     		lsrs	r2, r2, #16
 937 00dc B618     		adds	r6, r6, r2
 938              	.LVL88:
 877:Source\LwIP\src\core\ipv4/ip4.c ****     chk_sum += ip4_addr_get_u32(&iphdr->dest) >> 16;
 939              		.loc 1 877 0
 940 00de F618     		adds	r6, r6, r3
 941              	.LVL89:
 878:Source\LwIP\src\core\ipv4/ip4.c **** #endif /* CHECKSUM_GEN_IP_INLINE */
 879:Source\LwIP\src\core\ipv4/ip4.c **** 
 880:Source\LwIP\src\core\ipv4/ip4.c ****     IPH_VHL_SET(iphdr, 4, ip_hlen / 4);
 942              		.loc 1 880 0
 943 00e0 019B     		ldr	r3, [sp, #4]
 944 00e2 9A08     		lsrs	r2, r3, #2
 945 00e4 4023     		movs	r3, #64
 946 00e6 1A43     		orrs	r2, r3
 947 00e8 D3B2     		uxtb	r3, r2
 948 00ea 2370     		strb	r3, [r4]
 881:Source\LwIP\src\core\ipv4/ip4.c ****     IPH_TOS_SET(iphdr, tos);
 949              		.loc 1 881 0
 950 00ec 4A46     		mov	r2, r9
 951 00ee 6270     		strb	r2, [r4, #1]
 882:Source\LwIP\src\core\ipv4/ip4.c **** #if CHECKSUM_GEN_IP_INLINE
 883:Source\LwIP\src\core\ipv4/ip4.c ****     chk_sum += PP_NTOHS(tos | (iphdr->_v_hl << 8));
 952              		.loc 1 883 0
 953 00f0 1B02     		lsls	r3, r3, #8
 954 00f2 4A46     		mov	r2, r9
 955 00f4 1A43     		orrs	r2, r3
 956 00f6 1006     		lsls	r0, r2, #24
 957 00f8 000C     		lsrs	r0, r0, #16
 958 00fa 130A     		lsrs	r3, r2, #8
 959 00fc 0343     		orrs	r3, r0
 960 00fe F618     		adds	r6, r6, r3
 961              	.LVL90:
 884:Source\LwIP\src\core\ipv4/ip4.c **** #endif /* CHECKSUM_GEN_IP_INLINE */
 885:Source\LwIP\src\core\ipv4/ip4.c ****     IPH_LEN_SET(iphdr, lwip_htons(p->tot_len));
 962              		.loc 1 885 0
 963 0100 2889     		ldrh	r0, [r5, #8]
 964 0102 FFF7FEFF 		bl	lwip_htons
 965              	.LVL91:
 966 0106 A070     		strb	r0, [r4, #2]
 967 0108 030A     		lsrs	r3, r0, #8
 968 010a E370     		strb	r3, [r4, #3]
 886:Source\LwIP\src\core\ipv4/ip4.c **** #if CHECKSUM_GEN_IP_INLINE
 887:Source\LwIP\src\core\ipv4/ip4.c ****     chk_sum += iphdr->_len;
 969              		.loc 1 887 0
 970 010c 8619     		adds	r6, r0, r6
 971              	.LVL92:
 888:Source\LwIP\src\core\ipv4/ip4.c **** #endif /* CHECKSUM_GEN_IP_INLINE */
 889:Source\LwIP\src\core\ipv4/ip4.c ****     IPH_OFFSET_SET(iphdr, 0);
 972              		.loc 1 889 0
ARM GAS  C:\Users\Phuong\AppData\Local\Temp\ccYoYbaR.s 			page 34


 973 010e 0023     		movs	r3, #0
 974 0110 A371     		strb	r3, [r4, #6]
 975 0112 E371     		strb	r3, [r4, #7]
 890:Source\LwIP\src\core\ipv4/ip4.c ****     IPH_ID_SET(iphdr, lwip_htons(ip_id));
 976              		.loc 1 890 0
 977 0114 364F     		ldr	r7, .L67+4
 978 0116 B888     		ldrh	r0, [r7, #4]
 979 0118 FFF7FEFF 		bl	lwip_htons
 980              	.LVL93:
 981 011c 2071     		strb	r0, [r4, #4]
 982 011e 030A     		lsrs	r3, r0, #8
 983 0120 6371     		strb	r3, [r4, #5]
 891:Source\LwIP\src\core\ipv4/ip4.c **** #if CHECKSUM_GEN_IP_INLINE
 892:Source\LwIP\src\core\ipv4/ip4.c ****     chk_sum += iphdr->_id;
 984              		.loc 1 892 0
 985 0122 8319     		adds	r3, r0, r6
 986              	.LVL94:
 893:Source\LwIP\src\core\ipv4/ip4.c **** #endif /* CHECKSUM_GEN_IP_INLINE */
 894:Source\LwIP\src\core\ipv4/ip4.c ****     ++ip_id;
 987              		.loc 1 894 0
 988 0124 BA88     		ldrh	r2, [r7, #4]
 989 0126 0132     		adds	r2, r2, #1
 990 0128 BA80     		strh	r2, [r7, #4]
 895:Source\LwIP\src\core\ipv4/ip4.c **** 
 896:Source\LwIP\src\core\ipv4/ip4.c ****     if (src == NULL) {
 991              		.loc 1 896 0
 992 012a 5A46     		mov	r2, fp
 993 012c 002A     		cmp	r2, #0
 994 012e 09D1     		bne	.L62
 995              	.LVL95:
 897:Source\LwIP\src\core\ipv4/ip4.c ****       ip4_addr_copy(iphdr->src, *IP4_ADDR_ANY4);
 996              		.loc 1 897 0
 997 0130 304A     		ldr	r2, .L67+8
 998              	.LVL96:
 999 0132 1268     		ldr	r2, [r2]
 1000 0134 2273     		strb	r2, [r4, #12]
 1001 0136 110A     		lsrs	r1, r2, #8
 1002 0138 6173     		strb	r1, [r4, #13]
 1003 013a 110C     		lsrs	r1, r2, #16
 1004 013c A173     		strb	r1, [r4, #14]
 1005 013e 120E     		lsrs	r2, r2, #24
 1006 0140 E273     		strb	r2, [r4, #15]
 1007 0142 08E0     		b	.L63
 1008              	.LVL97:
 1009              	.L62:
 898:Source\LwIP\src\core\ipv4/ip4.c ****     } else {
 899:Source\LwIP\src\core\ipv4/ip4.c ****       /* src cannot be NULL here */
 900:Source\LwIP\src\core\ipv4/ip4.c ****       ip4_addr_copy(iphdr->src, *src);
 1010              		.loc 1 900 0
 1011 0144 5A46     		mov	r2, fp
 1012              	.LVL98:
 1013 0146 1268     		ldr	r2, [r2]
 1014 0148 2273     		strb	r2, [r4, #12]
 1015 014a 110A     		lsrs	r1, r2, #8
 1016 014c 6173     		strb	r1, [r4, #13]
 1017 014e 110C     		lsrs	r1, r2, #16
 1018 0150 A173     		strb	r1, [r4, #14]
ARM GAS  C:\Users\Phuong\AppData\Local\Temp\ccYoYbaR.s 			page 35


 1019 0152 120E     		lsrs	r2, r2, #24
 1020 0154 E273     		strb	r2, [r4, #15]
 1021              	.L63:
 901:Source\LwIP\src\core\ipv4/ip4.c ****     }
 902:Source\LwIP\src\core\ipv4/ip4.c **** 
 903:Source\LwIP\src\core\ipv4/ip4.c **** #if CHECKSUM_GEN_IP_INLINE
 904:Source\LwIP\src\core\ipv4/ip4.c ****     chk_sum += ip4_addr_get_u32(&iphdr->src) & 0xFFFF;
 1022              		.loc 1 904 0
 1023 0156 277B     		ldrb	r7, [r4, #12]
 1024 0158 617B     		ldrb	r1, [r4, #13]
 1025 015a 0902     		lsls	r1, r1, #8
 1026 015c 3943     		orrs	r1, r7
 1027 015e A27B     		ldrb	r2, [r4, #14]
 1028 0160 1204     		lsls	r2, r2, #16
 1029 0162 0A43     		orrs	r2, r1
 1030 0164 1100     		movs	r1, r2
 1031 0166 E27B     		ldrb	r2, [r4, #15]
 1032 0168 1206     		lsls	r2, r2, #24
 1033 016a 0A43     		orrs	r2, r1
 1034 016c 1004     		lsls	r0, r2, #16
 1035 016e 000C     		lsrs	r0, r0, #16
 1036 0170 1818     		adds	r0, r3, r0
 1037              	.LVL99:
 905:Source\LwIP\src\core\ipv4/ip4.c ****     chk_sum += ip4_addr_get_u32(&iphdr->src) >> 16;
 1038              		.loc 1 905 0
 1039 0172 120C     		lsrs	r2, r2, #16
 1040 0174 8018     		adds	r0, r0, r2
 1041              	.LVL100:
 906:Source\LwIP\src\core\ipv4/ip4.c ****     chk_sum = (chk_sum >> 16) + (chk_sum & 0xFFFF);
 1042              		.loc 1 906 0
 1043 0176 030C     		lsrs	r3, r0, #16
 1044 0178 0004     		lsls	r0, r0, #16
 1045              	.LVL101:
 1046 017a 000C     		lsrs	r0, r0, #16
 1047 017c 1B18     		adds	r3, r3, r0
 1048              	.LVL102:
 907:Source\LwIP\src\core\ipv4/ip4.c ****     chk_sum = (chk_sum >> 16) + chk_sum;
 1049              		.loc 1 907 0
 1050 017e 1A0C     		lsrs	r2, r3, #16
 1051 0180 9B18     		adds	r3, r3, r2
 1052              	.LVL103:
 908:Source\LwIP\src\core\ipv4/ip4.c ****     chk_sum = ~chk_sum;
 1053              		.loc 1 908 0
 1054 0182 DB43     		mvns	r3, r3
 1055              	.LVL104:
 909:Source\LwIP\src\core\ipv4/ip4.c ****     IF__NETIF_CHECKSUM_ENABLED(netif, NETIF_CHECKSUM_GEN_IP) {
 910:Source\LwIP\src\core\ipv4/ip4.c ****       iphdr->_chksum = (u16_t)chk_sum; /* network order */
 1056              		.loc 1 910 0
 1057 0184 9BB2     		uxth	r3, r3
 1058              	.LVL105:
 1059 0186 A372     		strb	r3, [r4, #10]
 1060 0188 1B0A     		lsrs	r3, r3, #8
 1061 018a E372     		strb	r3, [r4, #11]
 1062              	.LBE12:
 1063 018c 0EE0     		b	.L64
 1064              	.LVL106:
 1065              	.L54:
ARM GAS  C:\Users\Phuong\AppData\Local\Temp\ccYoYbaR.s 			page 36


 911:Source\LwIP\src\core\ipv4/ip4.c ****     }
 912:Source\LwIP\src\core\ipv4/ip4.c **** #if LWIP_CHECKSUM_CTRL_PER_NETIF
 913:Source\LwIP\src\core\ipv4/ip4.c ****     else {
 914:Source\LwIP\src\core\ipv4/ip4.c ****       IPH_CHKSUM_SET(iphdr, 0);
 915:Source\LwIP\src\core\ipv4/ip4.c ****     }
 916:Source\LwIP\src\core\ipv4/ip4.c **** #endif /* LWIP_CHECKSUM_CTRL_PER_NETIF*/
 917:Source\LwIP\src\core\ipv4/ip4.c **** #else /* CHECKSUM_GEN_IP_INLINE */
 918:Source\LwIP\src\core\ipv4/ip4.c ****     IPH_CHKSUM_SET(iphdr, 0);
 919:Source\LwIP\src\core\ipv4/ip4.c **** #if CHECKSUM_GEN_IP
 920:Source\LwIP\src\core\ipv4/ip4.c ****     IF__NETIF_CHECKSUM_ENABLED(netif, NETIF_CHECKSUM_GEN_IP) {
 921:Source\LwIP\src\core\ipv4/ip4.c ****       IPH_CHKSUM_SET(iphdr, inet_chksum(iphdr, ip_hlen));
 922:Source\LwIP\src\core\ipv4/ip4.c ****     }
 923:Source\LwIP\src\core\ipv4/ip4.c **** #endif /* CHECKSUM_GEN_IP */
 924:Source\LwIP\src\core\ipv4/ip4.c **** #endif /* CHECKSUM_GEN_IP_INLINE */
 925:Source\LwIP\src\core\ipv4/ip4.c ****   } else {
 926:Source\LwIP\src\core\ipv4/ip4.c ****     /* IP header already included in p */
 927:Source\LwIP\src\core\ipv4/ip4.c ****     iphdr = (struct ip_hdr *)p->payload;
 1066              		.loc 1 927 0
 1067 018e 4468     		ldr	r4, [r0, #4]
 1068              	.LVL107:
 928:Source\LwIP\src\core\ipv4/ip4.c ****     ip4_addr_copy(dest_addr, iphdr->dest);
 1069              		.loc 1 928 0
 1070 0190 207C     		ldrb	r0, [r4, #16]
 1071              	.LVL108:
 1072 0192 627C     		ldrb	r2, [r4, #17]
 1073              	.LVL109:
 1074 0194 1202     		lsls	r2, r2, #8
 1075 0196 0243     		orrs	r2, r0
 1076 0198 A37C     		ldrb	r3, [r4, #18]
 1077              	.LVL110:
 1078 019a 1B04     		lsls	r3, r3, #16
 1079 019c 1343     		orrs	r3, r2
 1080 019e 1A00     		movs	r2, r3
 1081 01a0 E37C     		ldrb	r3, [r4, #19]
 1082 01a2 1B06     		lsls	r3, r3, #24
 1083 01a4 1343     		orrs	r3, r2
 1084 01a6 0393     		str	r3, [sp, #12]
 1085              	.LVL111:
 929:Source\LwIP\src\core\ipv4/ip4.c ****     dest = &dest_addr;
 1086              		.loc 1 929 0
 1087 01a8 03AB     		add	r3, sp, #12
 1088              	.LVL112:
 1089 01aa 9846     		mov	r8, r3
 1090              	.LVL113:
 1091              	.L64:
 930:Source\LwIP\src\core\ipv4/ip4.c ****   }
 931:Source\LwIP\src\core\ipv4/ip4.c **** 
 932:Source\LwIP\src\core\ipv4/ip4.c ****   IP_STATS_INC(ip.xmit);
 1092              		.loc 1 932 0
 1093 01ac 0F49     		ldr	r1, .L67
 1094 01ae 4822     		movs	r2, #72
 1095 01b0 8B5A     		ldrh	r3, [r1, r2]
 1096 01b2 0133     		adds	r3, r3, #1
 1097 01b4 8B52     		strh	r3, [r1, r2]
 933:Source\LwIP\src\core\ipv4/ip4.c **** 
 934:Source\LwIP\src\core\ipv4/ip4.c ****   LWIP_DEBUGF(IP_DEBUG, ("ip4_output_if: %c%c%"U16_F"\n", netif->name[0], netif->name[1], (u16_t)ne
 935:Source\LwIP\src\core\ipv4/ip4.c ****   ip4_debug_print(p);
ARM GAS  C:\Users\Phuong\AppData\Local\Temp\ccYoYbaR.s 			page 37


 936:Source\LwIP\src\core\ipv4/ip4.c **** 
 937:Source\LwIP\src\core\ipv4/ip4.c **** #if ENABLE_LOOPBACK
 938:Source\LwIP\src\core\ipv4/ip4.c ****   if (ip4_addr_cmp(dest, netif_ip4_addr(netif))
 939:Source\LwIP\src\core\ipv4/ip4.c **** #if !LWIP_HAVE_LOOPIF
 940:Source\LwIP\src\core\ipv4/ip4.c ****       || ip4_addr_isloopback(dest)
 941:Source\LwIP\src\core\ipv4/ip4.c **** #endif /* !LWIP_HAVE_LOOPIF */
 942:Source\LwIP\src\core\ipv4/ip4.c ****       ) {
 943:Source\LwIP\src\core\ipv4/ip4.c ****     /* Packet to self, enqueue it for loopback */
 944:Source\LwIP\src\core\ipv4/ip4.c ****     LWIP_DEBUGF(IP_DEBUG, ("netif_loop_output()"));
 945:Source\LwIP\src\core\ipv4/ip4.c ****     return netif_loop_output(netif, p);
 946:Source\LwIP\src\core\ipv4/ip4.c ****   }
 947:Source\LwIP\src\core\ipv4/ip4.c **** #if LWIP_MULTICAST_TX_OPTIONS
 948:Source\LwIP\src\core\ipv4/ip4.c ****   if ((p->flags & PBUF_FLAG_MCASTLOOP) != 0) {
 949:Source\LwIP\src\core\ipv4/ip4.c ****     netif_loop_output(netif, p);
 950:Source\LwIP\src\core\ipv4/ip4.c ****   }
 951:Source\LwIP\src\core\ipv4/ip4.c **** #endif /* LWIP_MULTICAST_TX_OPTIONS */
 952:Source\LwIP\src\core\ipv4/ip4.c **** #endif /* ENABLE_LOOPBACK */
 953:Source\LwIP\src\core\ipv4/ip4.c **** #if IP_FRAG
 954:Source\LwIP\src\core\ipv4/ip4.c ****   /* don't fragment if interface has mtu set to 0 [loopif] */
 955:Source\LwIP\src\core\ipv4/ip4.c ****   if (netif->mtu && (p->tot_len > netif->mtu)) {
 1098              		.loc 1 955 0
 1099 01b6 109B     		ldr	r3, [sp, #64]
 1100 01b8 9B8E     		ldrh	r3, [r3, #52]
 1101 01ba 002B     		cmp	r3, #0
 1102 01bc 08D0     		beq	.L65
 1103              		.loc 1 955 0 is_stmt 0 discriminator 1
 1104 01be 2A89     		ldrh	r2, [r5, #8]
 1105 01c0 9342     		cmp	r3, r2
 1106 01c2 05D2     		bcs	.L65
 956:Source\LwIP\src\core\ipv4/ip4.c ****     return ip4_frag(p, netif, dest);
 1107              		.loc 1 956 0 is_stmt 1
 1108 01c4 4246     		mov	r2, r8
 1109 01c6 1099     		ldr	r1, [sp, #64]
 1110 01c8 2800     		movs	r0, r5
 1111 01ca FFF7FEFF 		bl	ip4_frag
 1112              	.LVL114:
 1113 01ce 05E0     		b	.L57
 1114              	.L65:
 957:Source\LwIP\src\core\ipv4/ip4.c ****   }
 958:Source\LwIP\src\core\ipv4/ip4.c **** #endif /* IP_FRAG */
 959:Source\LwIP\src\core\ipv4/ip4.c **** 
 960:Source\LwIP\src\core\ipv4/ip4.c ****   LWIP_DEBUGF(IP_DEBUG, ("ip4_output_if: call netif->output()\n"));
 961:Source\LwIP\src\core\ipv4/ip4.c ****   return netif->output(netif, p, dest);
 1115              		.loc 1 961 0
 1116 01d0 109B     		ldr	r3, [sp, #64]
 1117 01d2 5B69     		ldr	r3, [r3, #20]
 1118 01d4 4246     		mov	r2, r8
 1119 01d6 2900     		movs	r1, r5
 1120 01d8 1098     		ldr	r0, [sp, #64]
 1121 01da 9847     		blx	r3
 1122              	.LVL115:
 1123              	.L57:
 962:Source\LwIP\src\core\ipv4/ip4.c **** }
 1124              		.loc 1 962 0
 1125 01dc 05B0     		add	sp, sp, #20
 1126              		@ sp needed
 1127              	.LVL116:
ARM GAS  C:\Users\Phuong\AppData\Local\Temp\ccYoYbaR.s 			page 38


 1128              	.LVL117:
 1129              	.LVL118:
 1130 01de 3CBC     		pop	{r2, r3, r4, r5}
 1131 01e0 9046     		mov	r8, r2
 1132 01e2 9946     		mov	r9, r3
 1133 01e4 A246     		mov	r10, r4
 1134 01e6 AB46     		mov	fp, r5
 1135 01e8 F0BD     		pop	{r4, r5, r6, r7, pc}
 1136              	.L68:
 1137 01ea C046     		.align	2
 1138              	.L67:
 1139 01ec 00000000 		.word	lwip_stats
 1140 01f0 00000000 		.word	.LANCHOR0
 1141 01f4 00000000 		.word	ip_addr_any
 1142              		.cfi_endproc
 1143              	.LFE59:
 1144              		.size	ip4_output_if_opt_src, .-ip4_output_if_opt_src
 1145              		.section	.text.ip4_output_if_opt,"ax",%progbits
 1146              		.align	2
 1147              		.global	ip4_output_if_opt
 1148              		.code	16
 1149              		.thumb_func
 1150              		.type	ip4_output_if_opt, %function
 1151              	ip4_output_if_opt:
 1152              	.LFB57:
 773:Source\LwIP\src\core\ipv4/ip4.c **** #endif /* IP_OPTIONS_SEND */
 1153              		.loc 1 773 0
 1154              		.cfi_startproc
 1155              		@ args = 20, pretend = 0, frame = 0
 1156              		@ frame_needed = 0, uses_anonymous_args = 0
 1157              	.LVL119:
 1158 0000 F0B5     		push	{r4, r5, r6, r7, lr}
 1159              		.cfi_def_cfa_offset 20
 1160              		.cfi_offset 4, -20
 1161              		.cfi_offset 5, -16
 1162              		.cfi_offset 6, -12
 1163              		.cfi_offset 7, -8
 1164              		.cfi_offset 14, -4
 1165 0002 87B0     		sub	sp, sp, #28
 1166              		.cfi_def_cfa_offset 48
 1167 0004 0CAC     		add	r4, sp, #48
 1168              	.LVL120:
 1169 0006 2478     		ldrb	r4, [r4]
 1170              	.LVL121:
 1171 0008 0DAD     		add	r5, sp, #52
 1172              	.LVL122:
 1173 000a 2D78     		ldrb	r5, [r5]
 1174              	.LVL123:
 1175 000c 10AE     		add	r6, sp, #64
 1176              	.LVL124:
 1177 000e 3688     		ldrh	r6, [r6]
 1178              	.LVL125:
 776:Source\LwIP\src\core\ipv4/ip4.c ****     if (ip4_addr_isany(src)) {
 1179              		.loc 1 776 0
 1180 0010 002A     		cmp	r2, #0
 1181 0012 06D0     		beq	.L70
 777:Source\LwIP\src\core\ipv4/ip4.c ****       src_used = netif_ip4_addr(netif);
ARM GAS  C:\Users\Phuong\AppData\Local\Temp\ccYoYbaR.s 			page 39


 1182              		.loc 1 777 0
 1183 0014 0029     		cmp	r1, #0
 1184 0016 02D0     		beq	.L71
 777:Source\LwIP\src\core\ipv4/ip4.c ****       src_used = netif_ip4_addr(netif);
 1185              		.loc 1 777 0 is_stmt 0 discriminator 1
 1186 0018 0F68     		ldr	r7, [r1]
 1187 001a 002F     		cmp	r7, #0
 1188 001c 01D1     		bne	.L70
 1189              	.L71:
 778:Source\LwIP\src\core\ipv4/ip4.c ****     }
 1190              		.loc 1 778 0 is_stmt 1
 1191 001e 0E99     		ldr	r1, [sp, #56]
 1192              	.LVL126:
 1193 0020 0431     		adds	r1, r1, #4
 1194              	.LVL127:
 1195              	.L70:
 783:Source\LwIP\src\core\ipv4/ip4.c ****     ip_options, optlen);
 1196              		.loc 1 783 0
 1197 0022 0496     		str	r6, [sp, #16]
 1198 0024 0F9E     		ldr	r6, [sp, #60]
 1199 0026 0396     		str	r6, [sp, #12]
 1200 0028 0E9E     		ldr	r6, [sp, #56]
 1201 002a 0296     		str	r6, [sp, #8]
 1202 002c 0195     		str	r5, [sp, #4]
 1203 002e 0094     		str	r4, [sp]
 1204 0030 FFF7FEFF 		bl	ip4_output_if_opt_src
 1205              	.LVL128:
 788:Source\LwIP\src\core\ipv4/ip4.c **** 
 1206              		.loc 1 788 0
 1207 0034 07B0     		add	sp, sp, #28
 1208              		@ sp needed
 1209 0036 F0BD     		pop	{r4, r5, r6, r7, pc}
 1210              		.cfi_endproc
 1211              	.LFE57:
 1212              		.size	ip4_output_if_opt, .-ip4_output_if_opt
 1213              		.section	.text.ip4_output_if,"ax",%progbits
 1214              		.align	2
 1215              		.global	ip4_output_if
 1216              		.code	16
 1217              		.thumb_func
 1218              		.type	ip4_output_if, %function
 1219              	ip4_output_if:
 1220              	.LFB56:
 758:Source\LwIP\src\core\ipv4/ip4.c **** #if IP_OPTIONS_SEND
 1221              		.loc 1 758 0
 1222              		.cfi_startproc
 1223              		@ args = 12, pretend = 0, frame = 0
 1224              		@ frame_needed = 0, uses_anonymous_args = 0
 1225              	.LVL129:
 1226 0000 70B5     		push	{r4, r5, r6, lr}
 1227              		.cfi_def_cfa_offset 16
 1228              		.cfi_offset 4, -16
 1229              		.cfi_offset 5, -12
 1230              		.cfi_offset 6, -8
 1231              		.cfi_offset 14, -4
 1232 0002 86B0     		sub	sp, sp, #24
 1233              		.cfi_def_cfa_offset 40
ARM GAS  C:\Users\Phuong\AppData\Local\Temp\ccYoYbaR.s 			page 40


 1234 0004 0AAC     		add	r4, sp, #40
 1235              	.LVL130:
 1236 0006 2578     		ldrb	r5, [r4]
 1237 0008 0BAC     		add	r4, sp, #44
 1238              	.LVL131:
 1239 000a 2678     		ldrb	r6, [r4]
 760:Source\LwIP\src\core\ipv4/ip4.c **** }
 1240              		.loc 1 760 0
 1241 000c 0024     		movs	r4, #0
 1242              	.LVL132:
 1243 000e 0494     		str	r4, [sp, #16]
 1244 0010 0394     		str	r4, [sp, #12]
 1245 0012 0C9C     		ldr	r4, [sp, #48]
 1246 0014 0294     		str	r4, [sp, #8]
 1247 0016 0196     		str	r6, [sp, #4]
 1248 0018 0095     		str	r5, [sp]
 1249 001a FFF7FEFF 		bl	ip4_output_if_opt
 1250              	.LVL133:
 761:Source\LwIP\src\core\ipv4/ip4.c **** 
 1251              		.loc 1 761 0
 1252 001e 06B0     		add	sp, sp, #24
 1253              		@ sp needed
 1254 0020 70BD     		pop	{r4, r5, r6, pc}
 1255              		.cfi_endproc
 1256              	.LFE56:
 1257              		.size	ip4_output_if, .-ip4_output_if
 1258 0022 C046     		.section	.text.ip4_output_if_src,"ax",%progbits
 1259              		.align	2
 1260              		.global	ip4_output_if_src
 1261              		.code	16
 1262              		.thumb_func
 1263              		.type	ip4_output_if_src, %function
 1264              	ip4_output_if_src:
 1265              	.LFB58:
 798:Source\LwIP\src\core\ipv4/ip4.c **** #if IP_OPTIONS_SEND
 1266              		.loc 1 798 0
 1267              		.cfi_startproc
 1268              		@ args = 12, pretend = 0, frame = 0
 1269              		@ frame_needed = 0, uses_anonymous_args = 0
 1270              	.LVL134:
 1271 0000 70B5     		push	{r4, r5, r6, lr}
 1272              		.cfi_def_cfa_offset 16
 1273              		.cfi_offset 4, -16
 1274              		.cfi_offset 5, -12
 1275              		.cfi_offset 6, -8
 1276              		.cfi_offset 14, -4
 1277 0002 86B0     		sub	sp, sp, #24
 1278              		.cfi_def_cfa_offset 40
 1279 0004 0AAC     		add	r4, sp, #40
 1280              	.LVL135:
 1281 0006 2578     		ldrb	r5, [r4]
 1282 0008 0BAC     		add	r4, sp, #44
 1283              	.LVL136:
 1284 000a 2678     		ldrb	r6, [r4]
 800:Source\LwIP\src\core\ipv4/ip4.c **** }
 1285              		.loc 1 800 0
 1286 000c 0024     		movs	r4, #0
ARM GAS  C:\Users\Phuong\AppData\Local\Temp\ccYoYbaR.s 			page 41


 1287              	.LVL137:
 1288 000e 0494     		str	r4, [sp, #16]
 1289 0010 0394     		str	r4, [sp, #12]
 1290 0012 0C9C     		ldr	r4, [sp, #48]
 1291 0014 0294     		str	r4, [sp, #8]
 1292 0016 0196     		str	r6, [sp, #4]
 1293 0018 0095     		str	r5, [sp]
 1294 001a FFF7FEFF 		bl	ip4_output_if_opt_src
 1295              	.LVL138:
 801:Source\LwIP\src\core\ipv4/ip4.c **** 
 1296              		.loc 1 801 0
 1297 001e 06B0     		add	sp, sp, #24
 1298              		@ sp needed
 1299 0020 70BD     		pop	{r4, r5, r6, pc}
 1300              		.cfi_endproc
 1301              	.LFE58:
 1302              		.size	ip4_output_if_src, .-ip4_output_if_src
 1303 0022 C046     		.section	.text.ip4_output,"ax",%progbits
 1304              		.align	2
 1305              		.global	ip4_output
 1306              		.code	16
 1307              		.thumb_func
 1308              		.type	ip4_output, %function
 1309              	ip4_output:
 1310              	.LFB60:
 963:Source\LwIP\src\core\ipv4/ip4.c **** 
 964:Source\LwIP\src\core\ipv4/ip4.c **** /**
 965:Source\LwIP\src\core\ipv4/ip4.c ****  * Simple interface to ip_output_if. It finds the outgoing network
 966:Source\LwIP\src\core\ipv4/ip4.c ****  * interface and calls upon ip_output_if to do the actual work.
 967:Source\LwIP\src\core\ipv4/ip4.c ****  *
 968:Source\LwIP\src\core\ipv4/ip4.c ****  * @param p the packet to send (p->payload points to the data, e.g. next
 969:Source\LwIP\src\core\ipv4/ip4.c ****             protocol header; if dest == LWIP_IP_HDRINCL, p already includes an
 970:Source\LwIP\src\core\ipv4/ip4.c ****             IP header and p->payload points to that IP header)
 971:Source\LwIP\src\core\ipv4/ip4.c ****  * @param src the source IP address to send from (if src == IP4_ADDR_ANY, the
 972:Source\LwIP\src\core\ipv4/ip4.c ****  *         IP  address of the netif used to send is used as source address)
 973:Source\LwIP\src\core\ipv4/ip4.c ****  * @param dest the destination IP address to send the packet to
 974:Source\LwIP\src\core\ipv4/ip4.c ****  * @param ttl the TTL value to be set in the IP header
 975:Source\LwIP\src\core\ipv4/ip4.c ****  * @param tos the TOS value to be set in the IP header
 976:Source\LwIP\src\core\ipv4/ip4.c ****  * @param proto the PROTOCOL to be set in the IP header
 977:Source\LwIP\src\core\ipv4/ip4.c ****  *
 978:Source\LwIP\src\core\ipv4/ip4.c ****  * @return ERR_RTE if no route is found
 979:Source\LwIP\src\core\ipv4/ip4.c ****  *         see ip_output_if() for more return values
 980:Source\LwIP\src\core\ipv4/ip4.c ****  */
 981:Source\LwIP\src\core\ipv4/ip4.c **** err_t
 982:Source\LwIP\src\core\ipv4/ip4.c **** ip4_output(struct pbuf *p, const ip4_addr_t *src, const ip4_addr_t *dest,
 983:Source\LwIP\src\core\ipv4/ip4.c ****           u8_t ttl, u8_t tos, u8_t proto)
 984:Source\LwIP\src\core\ipv4/ip4.c **** {
 1311              		.loc 1 984 0
 1312              		.cfi_startproc
 1313              		@ args = 8, pretend = 0, frame = 8
 1314              		@ frame_needed = 0, uses_anonymous_args = 0
 1315              	.LVL139:
 1316 0000 F0B5     		push	{r4, r5, r6, r7, lr}
 1317              		.cfi_def_cfa_offset 20
 1318              		.cfi_offset 4, -20
 1319              		.cfi_offset 5, -16
 1320              		.cfi_offset 6, -12
ARM GAS  C:\Users\Phuong\AppData\Local\Temp\ccYoYbaR.s 			page 42


 1321              		.cfi_offset 7, -8
 1322              		.cfi_offset 14, -4
 1323 0002 87B0     		sub	sp, sp, #28
 1324              		.cfi_def_cfa_offset 48
 1325 0004 0490     		str	r0, [sp, #16]
 1326 0006 0591     		str	r1, [sp, #20]
 1327 0008 1400     		movs	r4, r2
 1328 000a 1F00     		movs	r7, r3
 1329 000c 0CAB     		add	r3, sp, #48
 1330              	.LVL140:
 1331 000e 1D78     		ldrb	r5, [r3]
 1332 0010 0DAB     		add	r3, sp, #52
 1333              	.LVL141:
 1334 0012 1E78     		ldrb	r6, [r3]
 985:Source\LwIP\src\core\ipv4/ip4.c ****   struct netif *netif;
 986:Source\LwIP\src\core\ipv4/ip4.c **** 
 987:Source\LwIP\src\core\ipv4/ip4.c ****   LWIP_IP_CHECK_PBUF_REF_COUNT_FOR_TX(p);
 988:Source\LwIP\src\core\ipv4/ip4.c **** 
 989:Source\LwIP\src\core\ipv4/ip4.c ****   if ((netif = ip4_route_src(dest, src)) == NULL) {
 1335              		.loc 1 989 0
 1336 0014 1000     		movs	r0, r2
 1337              	.LVL142:
 1338 0016 FFF7FEFF 		bl	ip4_route
 1339              	.LVL143:
 1340 001a 0028     		cmp	r0, #0
 1341 001c 06D1     		bne	.L75
 990:Source\LwIP\src\core\ipv4/ip4.c ****     LWIP_DEBUGF(IP_DEBUG, ("ip4_output: No route to %"U16_F".%"U16_F".%"U16_F".%"U16_F"\n",
 991:Source\LwIP\src\core\ipv4/ip4.c ****       ip4_addr1_16(dest), ip4_addr2_16(dest), ip4_addr3_16(dest), ip4_addr4_16(dest)));
 992:Source\LwIP\src\core\ipv4/ip4.c ****     IP_STATS_INC(ip.rterr);
 1342              		.loc 1 992 0
 1343 001e 0949     		ldr	r1, .L77
 1344 0020 5622     		movs	r2, #86
 1345 0022 8B5A     		ldrh	r3, [r1, r2]
 1346 0024 0133     		adds	r3, r3, #1
 1347 0026 8B52     		strh	r3, [r1, r2]
 993:Source\LwIP\src\core\ipv4/ip4.c ****     return ERR_RTE;
 1348              		.loc 1 993 0
 1349 0028 0438     		subs	r0, r0, #4
 1350              	.LVL144:
 1351 002a 08E0     		b	.L76
 1352              	.LVL145:
 1353              	.L75:
 994:Source\LwIP\src\core\ipv4/ip4.c ****   }
 995:Source\LwIP\src\core\ipv4/ip4.c **** 
 996:Source\LwIP\src\core\ipv4/ip4.c ****   return ip4_output_if(p, src, dest, ttl, tos, proto, netif);
 1354              		.loc 1 996 0
 1355 002c 0290     		str	r0, [sp, #8]
 1356 002e 0196     		str	r6, [sp, #4]
 1357 0030 0095     		str	r5, [sp]
 1358 0032 3B00     		movs	r3, r7
 1359 0034 2200     		movs	r2, r4
 1360 0036 0599     		ldr	r1, [sp, #20]
 1361 0038 0498     		ldr	r0, [sp, #16]
 1362              	.LVL146:
 1363 003a FFF7FEFF 		bl	ip4_output_if
 1364              	.LVL147:
 1365              	.L76:
ARM GAS  C:\Users\Phuong\AppData\Local\Temp\ccYoYbaR.s 			page 43


 997:Source\LwIP\src\core\ipv4/ip4.c **** }
 1366              		.loc 1 997 0
 1367 003e 07B0     		add	sp, sp, #28
 1368              		@ sp needed
 1369              	.LVL148:
 1370 0040 F0BD     		pop	{r4, r5, r6, r7, pc}
 1371              	.L78:
 1372 0042 C046     		.align	2
 1373              	.L77:
 1374 0044 00000000 		.word	lwip_stats
 1375              		.cfi_endproc
 1376              	.LFE60:
 1377              		.size	ip4_output, .-ip4_output
 1378              		.bss
 1379              		.align	2
 1380              		.set	.LANCHOR0,. + 0
 1381              		.type	ip4_default_multicast_netif, %object
 1382              		.size	ip4_default_multicast_netif, 4
 1383              	ip4_default_multicast_netif:
 1384 0000 00000000 		.space	4
 1385              		.type	ip_id, %object
 1386              		.size	ip_id, 2
 1387              	ip_id:
 1388 0004 0000     		.space	2
 1389              		.text
 1390              	.Letext0:
 1391              		.file 2 "c:\\program files (x86)\\cypress\\psoc creator\\4.2\\psoc creator\\import\\gnu\\arm\\5.4.
 1392              		.file 3 "c:\\program files (x86)\\cypress\\psoc creator\\4.2\\psoc creator\\import\\gnu\\arm\\5.4.
 1393              		.file 4 "c:\\program files (x86)\\cypress\\psoc creator\\4.2\\psoc creator\\import\\gnu\\arm\\5.4.
 1394              		.file 5 ".\\Source\\LwIP\\src\\include/arch/cc.h"
 1395              		.file 6 ".\\Source\\LwIP\\src\\include/lwip/err.h"
 1396              		.file 7 ".\\Source\\LwIP\\src\\include/lwip/pbuf.h"
 1397              		.file 8 ".\\Source\\LwIP\\src\\include/lwip/ip4_addr.h"
 1398              		.file 9 ".\\Source\\LwIP\\src\\include/lwip/ip_addr.h"
 1399              		.file 10 ".\\Source\\LwIP\\src\\include/lwip/mem.h"
 1400              		.file 11 ".\\Source\\LwIP\\src\\include/lwip/memp.h"
 1401              		.file 12 ".\\Source\\LwIP\\src\\include/lwip/stats.h"
 1402              		.file 13 ".\\Source\\LwIP\\src\\include/lwip/netif.h"
 1403              		.file 14 ".\\Source\\LwIP\\src\\include/lwip/prot/ip4.h"
 1404              		.file 15 ".\\Source\\LwIP\\src\\include/lwip/ip.h"
 1405              		.file 16 ".\\Source\\LwIP\\src\\include/lwip/icmp.h"
 1406              		.file 17 ".\\Source\\LwIP\\src\\include/lwip/prot/udp.h"
 1407              		.file 18 ".\\Source\\LwIP\\src\\include/lwip/def.h"
 1408              		.file 19 ".\\Source\\LwIP\\src\\include/lwip/inet_chksum.h"
 1409              		.file 20 ".\\Source\\LwIP\\src\\include/lwip/igmp.h"
 1410              		.file 21 ".\\Source\\LwIP\\src\\include/lwip/ip4_frag.h"
 1411              		.file 22 ".\\Source\\LwIP\\src\\include/lwip/raw.h"
 1412              		.file 23 ".\\Source\\LwIP\\src\\include/lwip/udp.h"
 1413              		.file 24 ".\\Source\\LwIP\\src\\include/lwip/priv/tcp_priv.h"