ARM GAS  C:\Users\Phuong\AppData\Local\Temp\ccYoYbaR.s 			page 1


   1              		.syntax unified
   2              		.cpu cortex-m0plus
   3              		.fpu softvfp
   4              		.eabi_attribute 20, 1
   5              		.eabi_attribute 21, 1
   6              		.eabi_attribute 23, 3
   7              		.eabi_attribute 24, 1
   8              		.eabi_attribute 25, 1
   9              		.eabi_attribute 26, 1
  10              		.eabi_attribute 30, 1
  11              		.eabi_attribute 34, 0
  12              		.eabi_attribute 18, 4
  13              		.thumb
  14              		.syntax unified
  15              		.file	"ip4.c"
  16              		.text
  17              	.Ltext0:
  18              		.cfi_sections	.debug_frame
  19              		.section	.text.ip4_set_default_multicast_netif,"ax",%progbits
  20              		.align	2
  21              		.global	ip4_set_default_multicast_netif
  22              		.code	16
  23              		.thumb_func
  24              		.type	ip4_set_default_multicast_netif, %function
  25              	ip4_set_default_multicast_netif:
  26              	.LFB53:
  27              		.file 1 "Source\\LwIP\\src\\core\\ipv4\\ip4.c"
   1:Source\LwIP\src\core\ipv4/ip4.c **** /**
   2:Source\LwIP\src\core\ipv4/ip4.c ****  * @file
   3:Source\LwIP\src\core\ipv4/ip4.c ****  * This is the IPv4 layer implementation for incoming and outgoing IP traffic.
   4:Source\LwIP\src\core\ipv4/ip4.c ****  *
   5:Source\LwIP\src\core\ipv4/ip4.c ****  * @see ip_frag.c
   6:Source\LwIP\src\core\ipv4/ip4.c ****  *
   7:Source\LwIP\src\core\ipv4/ip4.c ****  */
   8:Source\LwIP\src\core\ipv4/ip4.c **** 
   9:Source\LwIP\src\core\ipv4/ip4.c **** /*
  10:Source\LwIP\src\core\ipv4/ip4.c ****  * Copyright (c) 2001-2004 Swedish Institute of Computer Science.
  11:Source\LwIP\src\core\ipv4/ip4.c ****  * All rights reserved.
  12:Source\LwIP\src\core\ipv4/ip4.c ****  *
  13:Source\LwIP\src\core\ipv4/ip4.c ****  * Redistribution and use in source and binary forms, with or without modification,
  14:Source\LwIP\src\core\ipv4/ip4.c ****  * are permitted provided that the following conditions are met:
  15:Source\LwIP\src\core\ipv4/ip4.c ****  *
  16:Source\LwIP\src\core\ipv4/ip4.c ****  * 1. Redistributions of source code must retain the above copyright notice,
  17:Source\LwIP\src\core\ipv4/ip4.c ****  *    this list of conditions and the following disclaimer.
  18:Source\LwIP\src\core\ipv4/ip4.c ****  * 2. Redistributions in binary form must reproduce the above copyright notice,
  19:Source\LwIP\src\core\ipv4/ip4.c ****  *    this list of conditions and the following disclaimer in the documentation
  20:Source\LwIP\src\core\ipv4/ip4.c ****  *    and/or other materials provided with the distribution.
  21:Source\LwIP\src\core\ipv4/ip4.c ****  * 3. The name of the author may not be used to endorse or promote products
  22:Source\LwIP\src\core\ipv4/ip4.c ****  *    derived from this software without specific prior written permission.
  23:Source\LwIP\src\core\ipv4/ip4.c ****  *
  24:Source\LwIP\src\core\ipv4/ip4.c ****  * THIS SOFTWARE IS PROVIDED BY THE AUTHOR ``AS IS'' AND ANY EXPRESS OR IMPLIED
  25:Source\LwIP\src\core\ipv4/ip4.c ****  * WARRANTIES, INCLUDING, BUT NOT LIMITED TO, THE IMPLIED WARRANTIES OF
  26:Source\LwIP\src\core\ipv4/ip4.c ****  * MERCHANTABILITY AND FITNESS FOR A PARTICULAR PURPOSE ARE DISCLAIMED. IN NO EVENT
  27:Source\LwIP\src\core\ipv4/ip4.c ****  * SHALL THE AUTHOR BE LIABLE FOR ANY DIRECT, INDIRECT, INCIDENTAL, SPECIAL,
  28:Source\LwIP\src\core\ipv4/ip4.c ****  * EXEMPLARY, OR CONSEQUENTIAL DAMAGES (INCLUDING, BUT NOT LIMITED TO, PROCUREMENT
  29:Source\LwIP\src\core\ipv4/ip4.c ****  * OF SUBSTITUTE GOODS OR SERVICES; LOSS OF USE, DATA, OR PROFITS; OR BUSINESS
  30:Source\LwIP\src\core\ipv4/ip4.c ****  * INTERRUPTION) HOWEVER CAUSED AND ON ANY THEORY OF LIABILITY, WHETHER IN
ARM GAS  C:\Users\Phuong\AppData\Local\Temp\ccYoYbaR.s 			page 2


  31:Source\LwIP\src\core\ipv4/ip4.c ****  * CONTRACT, STRICT LIABILITY, OR TORT (INCLUDING NEGLIGENCE OR OTHERWISE) ARISING
  32:Source\LwIP\src\core\ipv4/ip4.c ****  * IN ANY WAY OUT OF THE USE OF THIS SOFTWARE, EVEN IF ADVISED OF THE POSSIBILITY
  33:Source\LwIP\src\core\ipv4/ip4.c ****  * OF SUCH DAMAGE.
  34:Source\LwIP\src\core\ipv4/ip4.c ****  *
  35:Source\LwIP\src\core\ipv4/ip4.c ****  * This file is part of the lwIP TCP/IP stack.
  36:Source\LwIP\src\core\ipv4/ip4.c ****  *
  37:Source\LwIP\src\core\ipv4/ip4.c ****  * Author: Adam Dunkels <adam@sics.se>
  38:Source\LwIP\src\core\ipv4/ip4.c ****  *
  39:Source\LwIP\src\core\ipv4/ip4.c ****  */
  40:Source\LwIP\src\core\ipv4/ip4.c **** 
  41:Source\LwIP\src\core\ipv4/ip4.c **** #include "lwip/opt.h"
  42:Source\LwIP\src\core\ipv4/ip4.c **** 
  43:Source\LwIP\src\core\ipv4/ip4.c **** #if LWIP_IPV4
  44:Source\LwIP\src\core\ipv4/ip4.c **** 
  45:Source\LwIP\src\core\ipv4/ip4.c **** #include "lwip/ip.h"
  46:Source\LwIP\src\core\ipv4/ip4.c **** #include "lwip/def.h"
  47:Source\LwIP\src\core\ipv4/ip4.c **** #include "lwip/mem.h"
  48:Source\LwIP\src\core\ipv4/ip4.c **** #include "lwip/ip4_frag.h"
  49:Source\LwIP\src\core\ipv4/ip4.c **** #include "lwip/inet_chksum.h"
  50:Source\LwIP\src\core\ipv4/ip4.c **** #include "lwip/netif.h"
  51:Source\LwIP\src\core\ipv4/ip4.c **** #include "lwip/icmp.h"
  52:Source\LwIP\src\core\ipv4/ip4.c **** #include "lwip/igmp.h"
  53:Source\LwIP\src\core\ipv4/ip4.c **** #include "lwip/raw.h"
  54:Source\LwIP\src\core\ipv4/ip4.c **** #include "lwip/udp.h"
  55:Source\LwIP\src\core\ipv4/ip4.c **** #include "lwip/priv/tcp_priv.h"
  56:Source\LwIP\src\core\ipv4/ip4.c **** #include "lwip/autoip.h"
  57:Source\LwIP\src\core\ipv4/ip4.c **** #include "lwip/stats.h"
  58:Source\LwIP\src\core\ipv4/ip4.c **** #include "lwip/prot/dhcp.h"
  59:Source\LwIP\src\core\ipv4/ip4.c **** 
  60:Source\LwIP\src\core\ipv4/ip4.c **** #include <string.h>
  61:Source\LwIP\src\core\ipv4/ip4.c **** 
  62:Source\LwIP\src\core\ipv4/ip4.c **** #ifdef LWIP_HOOK_FILENAME
  63:Source\LwIP\src\core\ipv4/ip4.c **** #include LWIP_HOOK_FILENAME
  64:Source\LwIP\src\core\ipv4/ip4.c **** #endif
  65:Source\LwIP\src\core\ipv4/ip4.c **** 
  66:Source\LwIP\src\core\ipv4/ip4.c **** /** Set this to 0 in the rare case of wanting to call an extra function to
  67:Source\LwIP\src\core\ipv4/ip4.c ****  * generate the IP checksum (in contrast to calculating it on-the-fly). */
  68:Source\LwIP\src\core\ipv4/ip4.c **** #ifndef LWIP_INLINE_IP_CHKSUM
  69:Source\LwIP\src\core\ipv4/ip4.c **** #if LWIP_CHECKSUM_CTRL_PER_NETIF
  70:Source\LwIP\src\core\ipv4/ip4.c **** #define LWIP_INLINE_IP_CHKSUM   0
  71:Source\LwIP\src\core\ipv4/ip4.c **** #else /* LWIP_CHECKSUM_CTRL_PER_NETIF */
  72:Source\LwIP\src\core\ipv4/ip4.c **** #define LWIP_INLINE_IP_CHKSUM   1
  73:Source\LwIP\src\core\ipv4/ip4.c **** #endif /* LWIP_CHECKSUM_CTRL_PER_NETIF */
  74:Source\LwIP\src\core\ipv4/ip4.c **** #endif
  75:Source\LwIP\src\core\ipv4/ip4.c **** 
  76:Source\LwIP\src\core\ipv4/ip4.c **** #if LWIP_INLINE_IP_CHKSUM && CHECKSUM_GEN_IP
  77:Source\LwIP\src\core\ipv4/ip4.c **** #define CHECKSUM_GEN_IP_INLINE  1
  78:Source\LwIP\src\core\ipv4/ip4.c **** #else
  79:Source\LwIP\src\core\ipv4/ip4.c **** #define CHECKSUM_GEN_IP_INLINE  0
  80:Source\LwIP\src\core\ipv4/ip4.c **** #endif
  81:Source\LwIP\src\core\ipv4/ip4.c **** 
  82:Source\LwIP\src\core\ipv4/ip4.c **** #if LWIP_DHCP || defined(LWIP_IP_ACCEPT_UDP_PORT)
  83:Source\LwIP\src\core\ipv4/ip4.c **** #define IP_ACCEPT_LINK_LAYER_ADDRESSING 1
  84:Source\LwIP\src\core\ipv4/ip4.c **** 
  85:Source\LwIP\src\core\ipv4/ip4.c **** /** Some defines for DHCP to let link-layer-addressed packets through while the
  86:Source\LwIP\src\core\ipv4/ip4.c ****  * netif is down.
  87:Source\LwIP\src\core\ipv4/ip4.c ****  * To use this in your own application/protocol, define LWIP_IP_ACCEPT_UDP_PORT(port)
ARM GAS  C:\Users\Phuong\AppData\Local\Temp\ccYoYbaR.s 			page 3


  88:Source\LwIP\src\core\ipv4/ip4.c ****  * to return 1 if the port is accepted and 0 if the port is not accepted.
  89:Source\LwIP\src\core\ipv4/ip4.c ****  */
  90:Source\LwIP\src\core\ipv4/ip4.c **** #if LWIP_DHCP && defined(LWIP_IP_ACCEPT_UDP_PORT)
  91:Source\LwIP\src\core\ipv4/ip4.c **** /* accept DHCP client port and custom port */
  92:Source\LwIP\src\core\ipv4/ip4.c **** #define IP_ACCEPT_LINK_LAYER_ADDRESSED_PORT(port) (((port) == PP_NTOHS(DHCP_CLIENT_PORT)) \
  93:Source\LwIP\src\core\ipv4/ip4.c ****          || (LWIP_IP_ACCEPT_UDP_PORT(port)))
  94:Source\LwIP\src\core\ipv4/ip4.c **** #elif defined(LWIP_IP_ACCEPT_UDP_PORT) /* LWIP_DHCP && defined(LWIP_IP_ACCEPT_UDP_PORT) */
  95:Source\LwIP\src\core\ipv4/ip4.c **** /* accept custom port only */
  96:Source\LwIP\src\core\ipv4/ip4.c **** #define IP_ACCEPT_LINK_LAYER_ADDRESSED_PORT(port) (LWIP_IP_ACCEPT_UDP_PORT(port))
  97:Source\LwIP\src\core\ipv4/ip4.c **** #else /* LWIP_DHCP && defined(LWIP_IP_ACCEPT_UDP_PORT) */
  98:Source\LwIP\src\core\ipv4/ip4.c **** /* accept DHCP client port only */
  99:Source\LwIP\src\core\ipv4/ip4.c **** #define IP_ACCEPT_LINK_LAYER_ADDRESSED_PORT(port) ((port) == PP_NTOHS(DHCP_CLIENT_PORT))
 100:Source\LwIP\src\core\ipv4/ip4.c **** #endif /* LWIP_DHCP && defined(LWIP_IP_ACCEPT_UDP_PORT) */
 101:Source\LwIP\src\core\ipv4/ip4.c **** 
 102:Source\LwIP\src\core\ipv4/ip4.c **** #else /* LWIP_DHCP */
 103:Source\LwIP\src\core\ipv4/ip4.c **** #define IP_ACCEPT_LINK_LAYER_ADDRESSING 0
 104:Source\LwIP\src\core\ipv4/ip4.c **** #endif /* LWIP_DHCP */
 105:Source\LwIP\src\core\ipv4/ip4.c **** 
 106:Source\LwIP\src\core\ipv4/ip4.c **** /** The IP header ID of the next outgoing IP packet */
 107:Source\LwIP\src\core\ipv4/ip4.c **** static u16_t ip_id;
 108:Source\LwIP\src\core\ipv4/ip4.c **** 
 109:Source\LwIP\src\core\ipv4/ip4.c **** #if LWIP_MULTICAST_TX_OPTIONS
 110:Source\LwIP\src\core\ipv4/ip4.c **** /** The default netif used for multicast */
 111:Source\LwIP\src\core\ipv4/ip4.c **** static struct netif* ip4_default_multicast_netif;
 112:Source\LwIP\src\core\ipv4/ip4.c **** 
 113:Source\LwIP\src\core\ipv4/ip4.c **** /**
 114:Source\LwIP\src\core\ipv4/ip4.c ****  * @ingroup ip4
 115:Source\LwIP\src\core\ipv4/ip4.c ****  * Set a default netif for IPv4 multicast. */
 116:Source\LwIP\src\core\ipv4/ip4.c **** void
 117:Source\LwIP\src\core\ipv4/ip4.c **** ip4_set_default_multicast_netif(struct netif* default_multicast_netif)
 118:Source\LwIP\src\core\ipv4/ip4.c **** {
  28              		.loc 1 118 0
  29              		.cfi_startproc
  30              		@ args = 0, pretend = 0, frame = 0
  31              		@ frame_needed = 0, uses_anonymous_args = 0
  32              		@ link register save eliminated.
  33              	.LVL0:
 119:Source\LwIP\src\core\ipv4/ip4.c ****   ip4_default_multicast_netif = default_multicast_netif;
  34              		.loc 1 119 0
  35 0000 014B     		ldr	r3, .L2
  36 0002 1860     		str	r0, [r3]
 120:Source\LwIP\src\core\ipv4/ip4.c **** }
  37              		.loc 1 120 0
  38              		@ sp needed
  39 0004 7047     		bx	lr
  40              	.L3:
  41 0006 C046     		.align	2
  42              	.L2:
  43 0008 00000000 		.word	.LANCHOR0
  44              		.cfi_endproc
  45              	.LFE53:
  46              		.size	ip4_set_default_multicast_netif, .-ip4_set_default_multicast_netif
  47              		.section	.text.ip4_route,"ax",%progbits
  48              		.align	2
  49              		.global	ip4_route
  50              		.code	16
  51              		.thumb_func
ARM GAS  C:\Users\Phuong\AppData\Local\Temp\ccYoYbaR.s 			page 4


  52              		.type	ip4_route, %function
  53              	ip4_route:
  54              	.LFB54:
 121:Source\LwIP\src\core\ipv4/ip4.c **** #endif /* LWIP_MULTICAST_TX_OPTIONS */
 122:Source\LwIP\src\core\ipv4/ip4.c **** 
 123:Source\LwIP\src\core\ipv4/ip4.c **** #ifdef LWIP_HOOK_IP4_ROUTE_SRC
 124:Source\LwIP\src\core\ipv4/ip4.c **** /**
 125:Source\LwIP\src\core\ipv4/ip4.c ****  * Source based IPv4 routing must be fully implemented in
 126:Source\LwIP\src\core\ipv4/ip4.c ****  * LWIP_HOOK_IP4_ROUTE_SRC(). This function only provides he parameters.
 127:Source\LwIP\src\core\ipv4/ip4.c ****  */
 128:Source\LwIP\src\core\ipv4/ip4.c **** struct netif *
 129:Source\LwIP\src\core\ipv4/ip4.c **** ip4_route_src(const ip4_addr_t *dest, const ip4_addr_t *src)
 130:Source\LwIP\src\core\ipv4/ip4.c **** {
 131:Source\LwIP\src\core\ipv4/ip4.c ****   if (src != NULL) {
 132:Source\LwIP\src\core\ipv4/ip4.c ****     /* when src==NULL, the hook is called from ip4_route(dest) */
 133:Source\LwIP\src\core\ipv4/ip4.c ****     struct netif *netif = LWIP_HOOK_IP4_ROUTE_SRC(dest, src);
 134:Source\LwIP\src\core\ipv4/ip4.c ****     if (netif != NULL) {
 135:Source\LwIP\src\core\ipv4/ip4.c ****       return netif;
 136:Source\LwIP\src\core\ipv4/ip4.c ****     }
 137:Source\LwIP\src\core\ipv4/ip4.c ****   }
 138:Source\LwIP\src\core\ipv4/ip4.c ****   return ip4_route(dest);
 139:Source\LwIP\src\core\ipv4/ip4.c **** }
 140:Source\LwIP\src\core\ipv4/ip4.c **** #endif /* LWIP_HOOK_IP4_ROUTE_SRC */
 141:Source\LwIP\src\core\ipv4/ip4.c **** 
 142:Source\LwIP\src\core\ipv4/ip4.c **** /**
 143:Source\LwIP\src\core\ipv4/ip4.c ****  * Finds the appropriate network interface for a given IP address. It
 144:Source\LwIP\src\core\ipv4/ip4.c ****  * searches the list of network interfaces linearly. A match is found
 145:Source\LwIP\src\core\ipv4/ip4.c ****  * if the masked IP address of the network interface equals the masked
 146:Source\LwIP\src\core\ipv4/ip4.c ****  * IP address given to the function.
 147:Source\LwIP\src\core\ipv4/ip4.c ****  *
 148:Source\LwIP\src\core\ipv4/ip4.c ****  * @param dest the destination IP address for which to find the route
 149:Source\LwIP\src\core\ipv4/ip4.c ****  * @return the netif on which to send to reach dest
 150:Source\LwIP\src\core\ipv4/ip4.c ****  */
 151:Source\LwIP\src\core\ipv4/ip4.c **** struct netif *
 152:Source\LwIP\src\core\ipv4/ip4.c **** ip4_route(const ip4_addr_t *dest)
 153:Source\LwIP\src\core\ipv4/ip4.c **** {
  55              		.loc 1 153 0
  56              		.cfi_startproc
  57              		@ args = 0, pretend = 0, frame = 0
  58              		@ frame_needed = 0, uses_anonymous_args = 0
  59              	.LVL1:
  60 0000 10B5     		push	{r4, lr}
  61              		.cfi_def_cfa_offset 8
  62              		.cfi_offset 4, -8
  63              		.cfi_offset 14, -4
 154:Source\LwIP\src\core\ipv4/ip4.c ****   struct netif *netif;
 155:Source\LwIP\src\core\ipv4/ip4.c **** 
 156:Source\LwIP\src\core\ipv4/ip4.c **** #if LWIP_MULTICAST_TX_OPTIONS
 157:Source\LwIP\src\core\ipv4/ip4.c ****   /* Use administratively selected interface for multicast by default */
 158:Source\LwIP\src\core\ipv4/ip4.c ****   if (ip4_addr_ismulticast(dest) && ip4_default_multicast_netif) {
  64              		.loc 1 158 0
  65 0002 0168     		ldr	r1, [r0]
  66 0004 F023     		movs	r3, #240
  67 0006 0B40     		ands	r3, r1
  68 0008 E02B     		cmp	r3, #224
  69 000a 03D1     		bne	.L5
  70              		.loc 1 158 0 is_stmt 0 discriminator 1
ARM GAS  C:\Users\Phuong\AppData\Local\Temp\ccYoYbaR.s 			page 5


  71 000c 174B     		ldr	r3, .L13
  72 000e 1868     		ldr	r0, [r3]
  73              	.LVL2:
  74 0010 0028     		cmp	r0, #0
  75 0012 2AD1     		bne	.L6
  76              	.L5:
 159:Source\LwIP\src\core\ipv4/ip4.c ****     return ip4_default_multicast_netif;
 160:Source\LwIP\src\core\ipv4/ip4.c ****   }
 161:Source\LwIP\src\core\ipv4/ip4.c **** #endif /* LWIP_MULTICAST_TX_OPTIONS */
 162:Source\LwIP\src\core\ipv4/ip4.c **** 
 163:Source\LwIP\src\core\ipv4/ip4.c ****   /* iterate through netifs */
 164:Source\LwIP\src\core\ipv4/ip4.c ****   for (netif = netif_list; netif != NULL; netif = netif->next) {
  77              		.loc 1 164 0 is_stmt 1
  78 0014 164B     		ldr	r3, .L13+4
  79 0016 1868     		ldr	r0, [r3]
  80              	.LVL3:
  81 0018 12E0     		b	.L7
  82              	.L9:
 165:Source\LwIP\src\core\ipv4/ip4.c ****     /* is the netif up, does it have a link and a valid address? */
 166:Source\LwIP\src\core\ipv4/ip4.c ****     if (netif_is_up(netif) && netif_is_link_up(netif) && !ip4_addr_isany_val(*netif_ip4_addr(netif)
  83              		.loc 1 166 0
  84 001a 3D23     		movs	r3, #61
  85 001c C25C     		ldrb	r2, [r0, r3]
  86 001e 383B     		subs	r3, r3, #56
  87 0020 1340     		ands	r3, r2
  88 0022 052B     		cmp	r3, #5
  89 0024 0BD1     		bne	.L8
  90              		.loc 1 166 0 is_stmt 0 discriminator 1
  91 0026 4368     		ldr	r3, [r0, #4]
  92 0028 002B     		cmp	r3, #0
  93 002a 08D0     		beq	.L8
 167:Source\LwIP\src\core\ipv4/ip4.c ****       /* network mask matches? */
 168:Source\LwIP\src\core\ipv4/ip4.c ****       if (ip4_addr_netcmp(dest, netif_ip4_addr(netif), netif_ip4_netmask(netif))) {
  94              		.loc 1 168 0 is_stmt 1
  95 002c 4B40     		eors	r3, r1
  96 002e 8468     		ldr	r4, [r0, #8]
  97 0030 1C42     		tst	r4, r3
  98 0032 1AD0     		beq	.L6
 169:Source\LwIP\src\core\ipv4/ip4.c ****         /* return netif on which to forward IP packet */
 170:Source\LwIP\src\core\ipv4/ip4.c ****         return netif;
 171:Source\LwIP\src\core\ipv4/ip4.c ****       }
 172:Source\LwIP\src\core\ipv4/ip4.c ****       /* gateway matches on a non broadcast interface? (i.e. peer in a point to point interface) */
 173:Source\LwIP\src\core\ipv4/ip4.c ****       if (((netif->flags & NETIF_FLAG_BROADCAST) == 0) && ip4_addr_cmp(dest, netif_ip4_gw(netif))) 
  99              		.loc 1 173 0
 100 0034 9307     		lsls	r3, r2, #30
 101 0036 02D4     		bmi	.L8
 102              		.loc 1 173 0 is_stmt 0 discriminator 1
 103 0038 C368     		ldr	r3, [r0, #12]
 104 003a 9942     		cmp	r1, r3
 105 003c 15D0     		beq	.L6
 106              	.L8:
 164:Source\LwIP\src\core\ipv4/ip4.c ****     /* is the netif up, does it have a link and a valid address? */
 107              		.loc 1 164 0 is_stmt 1 discriminator 2
 108 003e 0068     		ldr	r0, [r0]
 109              	.LVL4:
 110              	.L7:
 164:Source\LwIP\src\core\ipv4/ip4.c ****     /* is the netif up, does it have a link and a valid address? */
ARM GAS  C:\Users\Phuong\AppData\Local\Temp\ccYoYbaR.s 			page 6


 111              		.loc 1 164 0 is_stmt 0 discriminator 1
 112 0040 0028     		cmp	r0, #0
 113 0042 EAD1     		bne	.L9
 174:Source\LwIP\src\core\ipv4/ip4.c ****         /* return netif on which to forward IP packet */
 175:Source\LwIP\src\core\ipv4/ip4.c ****         return netif;
 176:Source\LwIP\src\core\ipv4/ip4.c ****       }
 177:Source\LwIP\src\core\ipv4/ip4.c ****     }
 178:Source\LwIP\src\core\ipv4/ip4.c ****   }
 179:Source\LwIP\src\core\ipv4/ip4.c **** 
 180:Source\LwIP\src\core\ipv4/ip4.c **** #if LWIP_NETIF_LOOPBACK && !LWIP_HAVE_LOOPIF
 181:Source\LwIP\src\core\ipv4/ip4.c ****   /* loopif is disabled, looopback traffic is passed through any netif */
 182:Source\LwIP\src\core\ipv4/ip4.c ****   if (ip4_addr_isloopback(dest)) {
 183:Source\LwIP\src\core\ipv4/ip4.c ****     /* don't check for link on loopback traffic */
 184:Source\LwIP\src\core\ipv4/ip4.c ****     if (netif_default != NULL && netif_is_up(netif_default)) {
 185:Source\LwIP\src\core\ipv4/ip4.c ****       return netif_default;
 186:Source\LwIP\src\core\ipv4/ip4.c ****     }
 187:Source\LwIP\src\core\ipv4/ip4.c ****     /* default netif is not up, just use any netif for loopback traffic */
 188:Source\LwIP\src\core\ipv4/ip4.c ****     for (netif = netif_list; netif != NULL; netif = netif->next) {
 189:Source\LwIP\src\core\ipv4/ip4.c ****       if (netif_is_up(netif)) {
 190:Source\LwIP\src\core\ipv4/ip4.c ****         return netif;
 191:Source\LwIP\src\core\ipv4/ip4.c ****       }
 192:Source\LwIP\src\core\ipv4/ip4.c ****     }
 193:Source\LwIP\src\core\ipv4/ip4.c ****     return NULL;
 194:Source\LwIP\src\core\ipv4/ip4.c ****   }
 195:Source\LwIP\src\core\ipv4/ip4.c **** #endif /* LWIP_NETIF_LOOPBACK && !LWIP_HAVE_LOOPIF */
 196:Source\LwIP\src\core\ipv4/ip4.c **** 
 197:Source\LwIP\src\core\ipv4/ip4.c **** #ifdef LWIP_HOOK_IP4_ROUTE_SRC
 198:Source\LwIP\src\core\ipv4/ip4.c ****   netif = LWIP_HOOK_IP4_ROUTE_SRC(dest, NULL);
 199:Source\LwIP\src\core\ipv4/ip4.c ****   if (netif != NULL) {
 200:Source\LwIP\src\core\ipv4/ip4.c ****     return netif;
 201:Source\LwIP\src\core\ipv4/ip4.c ****   }
 202:Source\LwIP\src\core\ipv4/ip4.c **** #elif defined(LWIP_HOOK_IP4_ROUTE)
 203:Source\LwIP\src\core\ipv4/ip4.c ****   netif = LWIP_HOOK_IP4_ROUTE(dest);
 204:Source\LwIP\src\core\ipv4/ip4.c ****   if (netif != NULL) {
 205:Source\LwIP\src\core\ipv4/ip4.c ****     return netif;
 206:Source\LwIP\src\core\ipv4/ip4.c ****   }
 207:Source\LwIP\src\core\ipv4/ip4.c **** #endif
 208:Source\LwIP\src\core\ipv4/ip4.c **** 
 209:Source\LwIP\src\core\ipv4/ip4.c ****   if ((netif_default == NULL) || !netif_is_up(netif_default) || !netif_is_link_up(netif_default) ||
 114              		.loc 1 209 0 is_stmt 1
 115 0044 0B4B     		ldr	r3, .L13+8
 116 0046 1868     		ldr	r0, [r3]
 117              	.LVL5:
 118 0048 0028     		cmp	r0, #0
 119 004a 08D0     		beq	.L10
 120              		.loc 1 209 0 is_stmt 0 discriminator 1
 121 004c 3D23     		movs	r3, #61
 122 004e C35C     		ldrb	r3, [r0, r3]
 123 0050 0522     		movs	r2, #5
 124 0052 1340     		ands	r3, r2
 125 0054 052B     		cmp	r3, #5
 126 0056 02D1     		bne	.L10
 127              		.loc 1 209 0 discriminator 2
 128 0058 4368     		ldr	r3, [r0, #4]
 129 005a 002B     		cmp	r3, #0
 130 005c 05D1     		bne	.L6
 131              	.L10:
ARM GAS  C:\Users\Phuong\AppData\Local\Temp\ccYoYbaR.s 			page 7


 210:Source\LwIP\src\core\ipv4/ip4.c ****       ip4_addr_isany_val(*netif_ip4_addr(netif_default))) {
 211:Source\LwIP\src\core\ipv4/ip4.c ****     /* No matching netif found and default netif is not usable.
 212:Source\LwIP\src\core\ipv4/ip4.c ****        If this is not good enough for you, use LWIP_HOOK_IP4_ROUTE() */
 213:Source\LwIP\src\core\ipv4/ip4.c ****     LWIP_DEBUGF(IP_DEBUG | LWIP_DBG_LEVEL_SERIOUS, ("ip4_route: No route to %"U16_F".%"U16_F".%"U16
 214:Source\LwIP\src\core\ipv4/ip4.c ****       ip4_addr1_16(dest), ip4_addr2_16(dest), ip4_addr3_16(dest), ip4_addr4_16(dest)));
 215:Source\LwIP\src\core\ipv4/ip4.c ****     IP_STATS_INC(ip.rterr);
 132              		.loc 1 215 0 is_stmt 1
 133 005e 0649     		ldr	r1, .L13+12
 134 0060 5622     		movs	r2, #86
 135 0062 8B5A     		ldrh	r3, [r1, r2]
 136 0064 0133     		adds	r3, r3, #1
 137 0066 8B52     		strh	r3, [r1, r2]
 216:Source\LwIP\src\core\ipv4/ip4.c ****     MIB2_STATS_INC(mib2.ipoutnoroutes);
 217:Source\LwIP\src\core\ipv4/ip4.c ****     return NULL;
 138              		.loc 1 217 0
 139 0068 0020     		movs	r0, #0
 140              	.L6:
 218:Source\LwIP\src\core\ipv4/ip4.c ****   }
 219:Source\LwIP\src\core\ipv4/ip4.c **** 
 220:Source\LwIP\src\core\ipv4/ip4.c ****   return netif_default;
 221:Source\LwIP\src\core\ipv4/ip4.c **** }
 141              		.loc 1 221 0
 142              		@ sp needed
 143 006a 10BD     		pop	{r4, pc}
 144              	.L14:
 145              		.align	2
 146              	.L13:
 147 006c 00000000 		.word	.LANCHOR0
 148 0070 00000000 		.word	netif_list
 149 0074 00000000 		.word	netif_default
 150 0078 00000000 		.word	lwip_stats
 151              		.cfi_endproc
 152              	.LFE54:
 153              		.size	ip4_route, .-ip4_route
 154              		.section	.text.ip4_input,"ax",%progbits
 155              		.align	2
 156              		.global	ip4_input
 157              		.code	16
 158              		.thumb_func
 159              		.type	ip4_input, %function
 160              	ip4_input:
 161              	.LFB55:
 222:Source\LwIP\src\core\ipv4/ip4.c **** 
 223:Source\LwIP\src\core\ipv4/ip4.c **** #if IP_FORWARD
 224:Source\LwIP\src\core\ipv4/ip4.c **** /**
 225:Source\LwIP\src\core\ipv4/ip4.c ****  * Determine whether an IP address is in a reserved set of addresses
 226:Source\LwIP\src\core\ipv4/ip4.c ****  * that may not be forwarded, or whether datagrams to that destination
 227:Source\LwIP\src\core\ipv4/ip4.c ****  * may be forwarded.
 228:Source\LwIP\src\core\ipv4/ip4.c ****  * @param p the packet to forward
 229:Source\LwIP\src\core\ipv4/ip4.c ****  * @return 1: can forward 0: discard
 230:Source\LwIP\src\core\ipv4/ip4.c ****  */
 231:Source\LwIP\src\core\ipv4/ip4.c **** static int
 232:Source\LwIP\src\core\ipv4/ip4.c **** ip4_canforward(struct pbuf *p)
 233:Source\LwIP\src\core\ipv4/ip4.c **** {
 234:Source\LwIP\src\core\ipv4/ip4.c ****   u32_t addr = lwip_htonl(ip4_addr_get_u32(ip4_current_dest_addr()));
 235:Source\LwIP\src\core\ipv4/ip4.c **** 
 236:Source\LwIP\src\core\ipv4/ip4.c ****   if (p->flags & PBUF_FLAG_LLBCAST) {
ARM GAS  C:\Users\Phuong\AppData\Local\Temp\ccYoYbaR.s 			page 8


 237:Source\LwIP\src\core\ipv4/ip4.c ****     /* don't route link-layer broadcasts */
 238:Source\LwIP\src\core\ipv4/ip4.c ****     return 0;
 239:Source\LwIP\src\core\ipv4/ip4.c ****   }
 240:Source\LwIP\src\core\ipv4/ip4.c ****   if ((p->flags & PBUF_FLAG_LLMCAST) && !IP_MULTICAST(addr)) {
 241:Source\LwIP\src\core\ipv4/ip4.c ****     /* don't route link-layer multicasts unless the destination address is an IP
 242:Source\LwIP\src\core\ipv4/ip4.c ****        multicast address */
 243:Source\LwIP\src\core\ipv4/ip4.c ****     return 0;
 244:Source\LwIP\src\core\ipv4/ip4.c ****   }
 245:Source\LwIP\src\core\ipv4/ip4.c ****   if (IP_EXPERIMENTAL(addr)) {
 246:Source\LwIP\src\core\ipv4/ip4.c ****     return 0;
 247:Source\LwIP\src\core\ipv4/ip4.c ****   }
 248:Source\LwIP\src\core\ipv4/ip4.c ****   if (IP_CLASSA(addr)) {
 249:Source\LwIP\src\core\ipv4/ip4.c ****     u32_t net = addr & IP_CLASSA_NET;
 250:Source\LwIP\src\core\ipv4/ip4.c ****     if ((net == 0) || (net == ((u32_t)IP_LOOPBACKNET << IP_CLASSA_NSHIFT))) {
 251:Source\LwIP\src\core\ipv4/ip4.c ****       /* don't route loopback packets */
 252:Source\LwIP\src\core\ipv4/ip4.c ****       return 0;
 253:Source\LwIP\src\core\ipv4/ip4.c ****     }
 254:Source\LwIP\src\core\ipv4/ip4.c ****   }
 255:Source\LwIP\src\core\ipv4/ip4.c ****   return 1;
 256:Source\LwIP\src\core\ipv4/ip4.c **** }
 257:Source\LwIP\src\core\ipv4/ip4.c **** 
 258:Source\LwIP\src\core\ipv4/ip4.c **** /**
 259:Source\LwIP\src\core\ipv4/ip4.c ****  * Forwards an IP packet. It finds an appropriate route for the
 260:Source\LwIP\src\core\ipv4/ip4.c ****  * packet, decrements the TTL value of the packet, adjusts the
 261:Source\LwIP\src\core\ipv4/ip4.c ****  * checksum and outputs the packet on the appropriate interface.
 262:Source\LwIP\src\core\ipv4/ip4.c ****  *
 263:Source\LwIP\src\core\ipv4/ip4.c ****  * @param p the packet to forward (p->payload points to IP header)
 264:Source\LwIP\src\core\ipv4/ip4.c ****  * @param iphdr the IP header of the input packet
 265:Source\LwIP\src\core\ipv4/ip4.c ****  * @param inp the netif on which this packet was received
 266:Source\LwIP\src\core\ipv4/ip4.c ****  */
 267:Source\LwIP\src\core\ipv4/ip4.c **** static void
 268:Source\LwIP\src\core\ipv4/ip4.c **** ip4_forward(struct pbuf *p, struct ip_hdr *iphdr, struct netif *inp)
 269:Source\LwIP\src\core\ipv4/ip4.c **** {
 270:Source\LwIP\src\core\ipv4/ip4.c ****   struct netif *netif;
 271:Source\LwIP\src\core\ipv4/ip4.c **** 
 272:Source\LwIP\src\core\ipv4/ip4.c ****   PERF_START;
 273:Source\LwIP\src\core\ipv4/ip4.c ****   LWIP_UNUSED_ARG(inp);
 274:Source\LwIP\src\core\ipv4/ip4.c **** 
 275:Source\LwIP\src\core\ipv4/ip4.c ****   if (!ip4_canforward(p)) {
 276:Source\LwIP\src\core\ipv4/ip4.c ****     goto return_noroute;
 277:Source\LwIP\src\core\ipv4/ip4.c ****   }
 278:Source\LwIP\src\core\ipv4/ip4.c **** 
 279:Source\LwIP\src\core\ipv4/ip4.c ****   /* RFC3927 2.7: do not forward link-local addresses */
 280:Source\LwIP\src\core\ipv4/ip4.c ****   if (ip4_addr_islinklocal(ip4_current_dest_addr())) {
 281:Source\LwIP\src\core\ipv4/ip4.c ****     LWIP_DEBUGF(IP_DEBUG, ("ip4_forward: not forwarding LLA %"U16_F".%"U16_F".%"U16_F".%"U16_F"\n",
 282:Source\LwIP\src\core\ipv4/ip4.c ****       ip4_addr1_16(ip4_current_dest_addr()), ip4_addr2_16(ip4_current_dest_addr()),
 283:Source\LwIP\src\core\ipv4/ip4.c ****       ip4_addr3_16(ip4_current_dest_addr()), ip4_addr4_16(ip4_current_dest_addr())));
 284:Source\LwIP\src\core\ipv4/ip4.c ****     goto return_noroute;
 285:Source\LwIP\src\core\ipv4/ip4.c ****   }
 286:Source\LwIP\src\core\ipv4/ip4.c **** 
 287:Source\LwIP\src\core\ipv4/ip4.c ****   /* Find network interface where to forward this IP packet to. */
 288:Source\LwIP\src\core\ipv4/ip4.c ****   netif = ip4_route_src(ip4_current_dest_addr(), ip4_current_src_addr());
 289:Source\LwIP\src\core\ipv4/ip4.c ****   if (netif == NULL) {
 290:Source\LwIP\src\core\ipv4/ip4.c ****     LWIP_DEBUGF(IP_DEBUG, ("ip4_forward: no forwarding route for %"U16_F".%"U16_F".%"U16_F".%"U16_F
 291:Source\LwIP\src\core\ipv4/ip4.c ****       ip4_addr1_16(ip4_current_dest_addr()), ip4_addr2_16(ip4_current_dest_addr()),
 292:Source\LwIP\src\core\ipv4/ip4.c ****       ip4_addr3_16(ip4_current_dest_addr()), ip4_addr4_16(ip4_current_dest_addr())));
 293:Source\LwIP\src\core\ipv4/ip4.c ****     /* @todo: send ICMP_DUR_NET? */
ARM GAS  C:\Users\Phuong\AppData\Local\Temp\ccYoYbaR.s 			page 9


 294:Source\LwIP\src\core\ipv4/ip4.c ****     goto return_noroute;
 295:Source\LwIP\src\core\ipv4/ip4.c ****   }
 296:Source\LwIP\src\core\ipv4/ip4.c **** #if !IP_FORWARD_ALLOW_TX_ON_RX_NETIF
 297:Source\LwIP\src\core\ipv4/ip4.c ****   /* Do not forward packets onto the same network interface on which
 298:Source\LwIP\src\core\ipv4/ip4.c ****    * they arrived. */
 299:Source\LwIP\src\core\ipv4/ip4.c ****   if (netif == inp) {
 300:Source\LwIP\src\core\ipv4/ip4.c ****     LWIP_DEBUGF(IP_DEBUG, ("ip4_forward: not bouncing packets back on incoming interface.\n"));
 301:Source\LwIP\src\core\ipv4/ip4.c ****     goto return_noroute;
 302:Source\LwIP\src\core\ipv4/ip4.c ****   }
 303:Source\LwIP\src\core\ipv4/ip4.c **** #endif /* IP_FORWARD_ALLOW_TX_ON_RX_NETIF */
 304:Source\LwIP\src\core\ipv4/ip4.c **** 
 305:Source\LwIP\src\core\ipv4/ip4.c ****   /* decrement TTL */
 306:Source\LwIP\src\core\ipv4/ip4.c ****   IPH_TTL_SET(iphdr, IPH_TTL(iphdr) - 1);
 307:Source\LwIP\src\core\ipv4/ip4.c ****   /* send ICMP if TTL == 0 */
 308:Source\LwIP\src\core\ipv4/ip4.c ****   if (IPH_TTL(iphdr) == 0) {
 309:Source\LwIP\src\core\ipv4/ip4.c ****     MIB2_STATS_INC(mib2.ipinhdrerrors);
 310:Source\LwIP\src\core\ipv4/ip4.c **** #if LWIP_ICMP
 311:Source\LwIP\src\core\ipv4/ip4.c ****     /* Don't send ICMP messages in response to ICMP messages */
 312:Source\LwIP\src\core\ipv4/ip4.c ****     if (IPH_PROTO(iphdr) != IP_PROTO_ICMP) {
 313:Source\LwIP\src\core\ipv4/ip4.c ****       icmp_time_exceeded(p, ICMP_TE_TTL);
 314:Source\LwIP\src\core\ipv4/ip4.c ****     }
 315:Source\LwIP\src\core\ipv4/ip4.c **** #endif /* LWIP_ICMP */
 316:Source\LwIP\src\core\ipv4/ip4.c ****     return;
 317:Source\LwIP\src\core\ipv4/ip4.c ****   }
 318:Source\LwIP\src\core\ipv4/ip4.c **** 
 319:Source\LwIP\src\core\ipv4/ip4.c ****   /* Incrementally update the IP checksum. */
 320:Source\LwIP\src\core\ipv4/ip4.c ****   if (IPH_CHKSUM(iphdr) >= PP_HTONS(0xffffU - 0x100)) {
 321:Source\LwIP\src\core\ipv4/ip4.c ****     IPH_CHKSUM_SET(iphdr, IPH_CHKSUM(iphdr) + PP_HTONS(0x100) + 1);
 322:Source\LwIP\src\core\ipv4/ip4.c ****   } else {
 323:Source\LwIP\src\core\ipv4/ip4.c ****     IPH_CHKSUM_SET(iphdr, IPH_CHKSUM(iphdr) + PP_HTONS(0x100));
 324:Source\LwIP\src\core\ipv4/ip4.c ****   }
 325:Source\LwIP\src\core\ipv4/ip4.c **** 
 326:Source\LwIP\src\core\ipv4/ip4.c ****   LWIP_DEBUGF(IP_DEBUG, ("ip4_forward: forwarding packet to %"U16_F".%"U16_F".%"U16_F".%"U16_F"\n",
 327:Source\LwIP\src\core\ipv4/ip4.c ****     ip4_addr1_16(ip4_current_dest_addr()), ip4_addr2_16(ip4_current_dest_addr()),
 328:Source\LwIP\src\core\ipv4/ip4.c ****     ip4_addr3_16(ip4_current_dest_addr()), ip4_addr4_16(ip4_current_dest_addr())));
 329:Source\LwIP\src\core\ipv4/ip4.c **** 
 330:Source\LwIP\src\core\ipv4/ip4.c ****   IP_STATS_INC(ip.fw);
 331:Source\LwIP\src\core\ipv4/ip4.c ****   MIB2_STATS_INC(mib2.ipforwdatagrams);
 332:Source\LwIP\src\core\ipv4/ip4.c ****   IP_STATS_INC(ip.xmit);
 333:Source\LwIP\src\core\ipv4/ip4.c **** 
 334:Source\LwIP\src\core\ipv4/ip4.c ****   PERF_STOP("ip4_forward");
 335:Source\LwIP\src\core\ipv4/ip4.c ****   /* don't fragment if interface has mtu set to 0 [loopif] */
 336:Source\LwIP\src\core\ipv4/ip4.c ****   if (netif->mtu && (p->tot_len > netif->mtu)) {
 337:Source\LwIP\src\core\ipv4/ip4.c ****     if ((IPH_OFFSET(iphdr) & PP_NTOHS(IP_DF)) == 0) {
 338:Source\LwIP\src\core\ipv4/ip4.c **** #if IP_FRAG
 339:Source\LwIP\src\core\ipv4/ip4.c ****       ip4_frag(p, netif, ip4_current_dest_addr());
 340:Source\LwIP\src\core\ipv4/ip4.c **** #else /* IP_FRAG */
 341:Source\LwIP\src\core\ipv4/ip4.c ****       /* @todo: send ICMP Destination Unreachable code 13 "Communication administratively prohibite
 342:Source\LwIP\src\core\ipv4/ip4.c **** #endif /* IP_FRAG */
 343:Source\LwIP\src\core\ipv4/ip4.c ****     } else {
 344:Source\LwIP\src\core\ipv4/ip4.c **** #if LWIP_ICMP
 345:Source\LwIP\src\core\ipv4/ip4.c ****       /* send ICMP Destination Unreachable code 4: "Fragmentation Needed and DF Set" */
 346:Source\LwIP\src\core\ipv4/ip4.c ****       icmp_dest_unreach(p, ICMP_DUR_FRAG);
 347:Source\LwIP\src\core\ipv4/ip4.c **** #endif /* LWIP_ICMP */
 348:Source\LwIP\src\core\ipv4/ip4.c ****     }
 349:Source\LwIP\src\core\ipv4/ip4.c ****     return;
 350:Source\LwIP\src\core\ipv4/ip4.c ****   }
ARM GAS  C:\Users\Phuong\AppData\Local\Temp\ccYoYbaR.s 			page 10


 351:Source\LwIP\src\core\ipv4/ip4.c ****   /* transmit pbuf on chosen interface */
 352:Source\LwIP\src\core\ipv4/ip4.c ****   netif->output(netif, p, ip4_current_dest_addr());
 353:Source\LwIP\src\core\ipv4/ip4.c ****   return;
 354:Source\LwIP\src\core\ipv4/ip4.c **** return_noroute:
 355:Source\LwIP\src\core\ipv4/ip4.c ****   MIB2_STATS_INC(mib2.ipoutnoroutes);
 356:Source\LwIP\src\core\ipv4/ip4.c **** }
 357:Source\LwIP\src\core\ipv4/ip4.c **** #endif /* IP_FORWARD */
 358:Source\LwIP\src\core\ipv4/ip4.c **** 
 359:Source\LwIP\src\core\ipv4/ip4.c **** /**
 360:Source\LwIP\src\core\ipv4/ip4.c ****  * This function is called by the network interface device driver when
 361:Source\LwIP\src\core\ipv4/ip4.c ****  * an IP packet is received. The function does the basic checks of the
 362:Source\LwIP\src\core\ipv4/ip4.c ****  * IP header such as packet size being at least larger than the header
 363:Source\LwIP\src\core\ipv4/ip4.c ****  * size etc. If the packet was not destined for us, the packet is
 364:Source\LwIP\src\core\ipv4/ip4.c ****  * forwarded (using ip_forward). The IP checksum is always checked.
 365:Source\LwIP\src\core\ipv4/ip4.c ****  *
 366:Source\LwIP\src\core\ipv4/ip4.c ****  * Finally, the packet is sent to the upper layer protocol input function.
 367:Source\LwIP\src\core\ipv4/ip4.c ****  *
 368:Source\LwIP\src\core\ipv4/ip4.c ****  * @param p the received IP packet (p->payload points to IP header)
 369:Source\LwIP\src\core\ipv4/ip4.c ****  * @param inp the netif on which this packet was received
 370:Source\LwIP\src\core\ipv4/ip4.c ****  * @return ERR_OK if the packet was processed (could return ERR_* if it wasn't
 371:Source\LwIP\src\core\ipv4/ip4.c ****  *         processed, but currently always returns ERR_OK)
 372:Source\LwIP\src\core\ipv4/ip4.c ****  */
 373:Source\LwIP\src\core\ipv4/ip4.c **** err_t
 374:Source\LwIP\src\core\ipv4/ip4.c **** ip4_input(struct pbuf *p, struct netif *inp)
 375:Source\LwIP\src\core\ipv4/ip4.c **** {
 162              		.loc 1 375 0
 163              		.cfi_startproc
 164              		@ args = 0, pretend = 0, frame = 0
 165              		@ frame_needed = 0, uses_anonymous_args = 0
 166              	.LVL6:
 167 0000 F8B5     		push	{r3, r4, r5, r6, r7, lr}
 168              		.cfi_def_cfa_offset 24
 169              		.cfi_offset 3, -24
 170              		.cfi_offset 4, -20
 171              		.cfi_offset 5, -16
 172              		.cfi_offset 6, -12
 173              		.cfi_offset 7, -8
 174              		.cfi_offset 14, -4
 175 0002 4F46     		mov	r7, r9
 176 0004 4646     		mov	r6, r8
 177 0006 C0B4     		push	{r6, r7}
 178              		.cfi_def_cfa_offset 32
 179              		.cfi_offset 8, -32
 180              		.cfi_offset 9, -28
 181 0008 0500     		movs	r5, r0
 182 000a 8846     		mov	r8, r1
 183              	.LVL7:
 376:Source\LwIP\src\core\ipv4/ip4.c ****   struct ip_hdr *iphdr;
 377:Source\LwIP\src\core\ipv4/ip4.c ****   struct netif *netif;
 378:Source\LwIP\src\core\ipv4/ip4.c ****   u16_t iphdr_hlen;
 379:Source\LwIP\src\core\ipv4/ip4.c ****   u16_t iphdr_len;
 380:Source\LwIP\src\core\ipv4/ip4.c **** #if IP_ACCEPT_LINK_LAYER_ADDRESSING || LWIP_IGMP
 381:Source\LwIP\src\core\ipv4/ip4.c ****   int check_ip_src = 1;
 382:Source\LwIP\src\core\ipv4/ip4.c **** #endif /* IP_ACCEPT_LINK_LAYER_ADDRESSING || LWIP_IGMP */
 383:Source\LwIP\src\core\ipv4/ip4.c **** 
 384:Source\LwIP\src\core\ipv4/ip4.c ****   IP_STATS_INC(ip.recv);
 184              		.loc 1 384 0
ARM GAS  C:\Users\Phuong\AppData\Local\Temp\ccYoYbaR.s 			page 11


 185 000c B149     		ldr	r1, .L51
 186              	.LVL8:
 187 000e 4A22     		movs	r2, #74
 188 0010 8B5A     		ldrh	r3, [r1, r2]
 189 0012 0133     		adds	r3, r3, #1
 190 0014 8B52     		strh	r3, [r1, r2]
 385:Source\LwIP\src\core\ipv4/ip4.c ****   MIB2_STATS_INC(mib2.ipinreceives);
 386:Source\LwIP\src\core\ipv4/ip4.c **** 
 387:Source\LwIP\src\core\ipv4/ip4.c ****   /* identify the IP header */
 388:Source\LwIP\src\core\ipv4/ip4.c ****   iphdr = (struct ip_hdr *)p->payload;
 191              		.loc 1 388 0
 192 0016 4768     		ldr	r7, [r0, #4]
 193              	.LVL9:
 389:Source\LwIP\src\core\ipv4/ip4.c ****   if (IPH_V(iphdr) != 4) {
 194              		.loc 1 389 0
 195 0018 3B78     		ldrb	r3, [r7]
 196 001a 1A09     		lsrs	r2, r3, #4
 197 001c 042A     		cmp	r2, #4
 198 001e 0BD0     		beq	.L16
 390:Source\LwIP\src\core\ipv4/ip4.c ****     LWIP_DEBUGF(IP_DEBUG | LWIP_DBG_LEVEL_WARNING, ("IP packet dropped due to bad version number %"
 391:Source\LwIP\src\core\ipv4/ip4.c ****     ip4_debug_print(p);
 392:Source\LwIP\src\core\ipv4/ip4.c ****     pbuf_free(p);
 199              		.loc 1 392 0
 200 0020 FFF7FEFF 		bl	pbuf_free
 201              	.LVL10:
 393:Source\LwIP\src\core\ipv4/ip4.c ****     IP_STATS_INC(ip.err);
 202              		.loc 1 393 0
 203 0024 AB4B     		ldr	r3, .L51
 204 0026 5C21     		movs	r1, #92
 205 0028 5A5A     		ldrh	r2, [r3, r1]
 206 002a 0132     		adds	r2, r2, #1
 207 002c 5A52     		strh	r2, [r3, r1]
 394:Source\LwIP\src\core\ipv4/ip4.c ****     IP_STATS_INC(ip.drop);
 208              		.loc 1 394 0
 209 002e 0E39     		subs	r1, r1, #14
 210 0030 5A5A     		ldrh	r2, [r3, r1]
 211 0032 0132     		adds	r2, r2, #1
 212 0034 5A52     		strh	r2, [r3, r1]
 395:Source\LwIP\src\core\ipv4/ip4.c ****     MIB2_STATS_INC(mib2.ipinhdrerrors);
 396:Source\LwIP\src\core\ipv4/ip4.c ****     return ERR_OK;
 213              		.loc 1 396 0
 214 0036 48E1     		b	.L17
 215              	.LVL11:
 216              	.L16:
 397:Source\LwIP\src\core\ipv4/ip4.c ****   }
 398:Source\LwIP\src\core\ipv4/ip4.c **** 
 399:Source\LwIP\src\core\ipv4/ip4.c **** #ifdef LWIP_HOOK_IP4_INPUT
 400:Source\LwIP\src\core\ipv4/ip4.c ****   if (LWIP_HOOK_IP4_INPUT(p, inp)) {
 401:Source\LwIP\src\core\ipv4/ip4.c ****     /* the packet has been eaten */
 402:Source\LwIP\src\core\ipv4/ip4.c ****     return ERR_OK;
 403:Source\LwIP\src\core\ipv4/ip4.c ****   }
 404:Source\LwIP\src\core\ipv4/ip4.c **** #endif
 405:Source\LwIP\src\core\ipv4/ip4.c **** 
 406:Source\LwIP\src\core\ipv4/ip4.c ****   /* obtain IP header length in number of 32-bit words */
 407:Source\LwIP\src\core\ipv4/ip4.c ****   iphdr_hlen = IPH_HL(iphdr);
 217              		.loc 1 407 0
 218 0038 0F26     		movs	r6, #15
ARM GAS  C:\Users\Phuong\AppData\Local\Temp\ccYoYbaR.s 			page 12


 219 003a 3340     		ands	r3, r6
 220              	.LVL12:
 408:Source\LwIP\src\core\ipv4/ip4.c ****   /* calculate IP header length in bytes */
 409:Source\LwIP\src\core\ipv4/ip4.c ****   iphdr_hlen *= 4;
 221              		.loc 1 409 0
 222 003c 9E00     		lsls	r6, r3, #2
 223              	.LVL13:
 410:Source\LwIP\src\core\ipv4/ip4.c ****   /* obtain ip length in bytes */
 411:Source\LwIP\src\core\ipv4/ip4.c ****   iphdr_len = lwip_ntohs(IPH_LEN(iphdr));
 224              		.loc 1 411 0
 225 003e BB78     		ldrb	r3, [r7, #2]
 226 0040 F878     		ldrb	r0, [r7, #3]
 227              	.LVL14:
 228 0042 0002     		lsls	r0, r0, #8
 229 0044 1843     		orrs	r0, r3
 230 0046 FFF7FEFF 		bl	lwip_htons
 231              	.LVL15:
 232 004a 0400     		movs	r4, r0
 233              	.LVL16:
 412:Source\LwIP\src\core\ipv4/ip4.c **** 
 413:Source\LwIP\src\core\ipv4/ip4.c ****   /* Trim pbuf. This is especially required for packets < 60 bytes. */
 414:Source\LwIP\src\core\ipv4/ip4.c ****   if (iphdr_len < p->tot_len) {
 234              		.loc 1 414 0
 235 004c 2B89     		ldrh	r3, [r5, #8]
 236 004e 9842     		cmp	r0, r3
 237 0050 03D2     		bcs	.L18
 415:Source\LwIP\src\core\ipv4/ip4.c ****     pbuf_realloc(p, iphdr_len);
 238              		.loc 1 415 0
 239 0052 0100     		movs	r1, r0
 240 0054 2800     		movs	r0, r5
 241              	.LVL17:
 242 0056 FFF7FEFF 		bl	pbuf_realloc
 243              	.LVL18:
 244              	.L18:
 416:Source\LwIP\src\core\ipv4/ip4.c ****   }
 417:Source\LwIP\src\core\ipv4/ip4.c **** 
 418:Source\LwIP\src\core\ipv4/ip4.c ****   /* header length exceeds first pbuf length, or ip length exceeds total pbuf length? */
 419:Source\LwIP\src\core\ipv4/ip4.c ****   if ((iphdr_hlen > p->len) || (iphdr_len > p->tot_len) || (iphdr_hlen < IP_HLEN)) {
 245              		.loc 1 419 0
 246 005a 6B89     		ldrh	r3, [r5, #10]
 247 005c 9E42     		cmp	r6, r3
 248 005e 04D8     		bhi	.L19
 249              		.loc 1 419 0 is_stmt 0 discriminator 1
 250 0060 2B89     		ldrh	r3, [r5, #8]
 251 0062 9C42     		cmp	r4, r3
 252 0064 01D8     		bhi	.L19
 253              		.loc 1 419 0 discriminator 2
 254 0066 132E     		cmp	r6, #19
 255 0068 0CD8     		bhi	.L20
 256              	.L19:
 420:Source\LwIP\src\core\ipv4/ip4.c ****     if (iphdr_hlen < IP_HLEN) {
 421:Source\LwIP\src\core\ipv4/ip4.c ****       LWIP_DEBUGF(IP_DEBUG | LWIP_DBG_LEVEL_SERIOUS,
 422:Source\LwIP\src\core\ipv4/ip4.c ****         ("ip4_input: short IP header (%"U16_F" bytes) received, IP packet dropped\n", iphdr_hlen));
 423:Source\LwIP\src\core\ipv4/ip4.c ****     }
 424:Source\LwIP\src\core\ipv4/ip4.c ****     if (iphdr_hlen > p->len) {
 425:Source\LwIP\src\core\ipv4/ip4.c ****       LWIP_DEBUGF(IP_DEBUG | LWIP_DBG_LEVEL_SERIOUS,
 426:Source\LwIP\src\core\ipv4/ip4.c ****         ("IP header (len %"U16_F") does not fit in first pbuf (len %"U16_F"), IP packet dropped.\n"
ARM GAS  C:\Users\Phuong\AppData\Local\Temp\ccYoYbaR.s 			page 13


 427:Source\LwIP\src\core\ipv4/ip4.c ****         iphdr_hlen, p->len));
 428:Source\LwIP\src\core\ipv4/ip4.c ****     }
 429:Source\LwIP\src\core\ipv4/ip4.c ****     if (iphdr_len > p->tot_len) {
 430:Source\LwIP\src\core\ipv4/ip4.c ****       LWIP_DEBUGF(IP_DEBUG | LWIP_DBG_LEVEL_SERIOUS,
 431:Source\LwIP\src\core\ipv4/ip4.c ****         ("IP (len %"U16_F") is longer than pbuf (len %"U16_F"), IP packet dropped.\n",
 432:Source\LwIP\src\core\ipv4/ip4.c ****         iphdr_len, p->tot_len));
 433:Source\LwIP\src\core\ipv4/ip4.c ****     }
 434:Source\LwIP\src\core\ipv4/ip4.c ****     /* free (drop) packet pbufs */
 435:Source\LwIP\src\core\ipv4/ip4.c ****     pbuf_free(p);
 257              		.loc 1 435 0 is_stmt 1
 258 006a 2800     		movs	r0, r5
 259 006c FFF7FEFF 		bl	pbuf_free
 260              	.LVL19:
 436:Source\LwIP\src\core\ipv4/ip4.c ****     IP_STATS_INC(ip.lenerr);
 261              		.loc 1 436 0
 262 0070 984B     		ldr	r3, .L51
 263 0072 5221     		movs	r1, #82
 264 0074 5A5A     		ldrh	r2, [r3, r1]
 265 0076 0132     		adds	r2, r2, #1
 266 0078 5A52     		strh	r2, [r3, r1]
 437:Source\LwIP\src\core\ipv4/ip4.c ****     IP_STATS_INC(ip.drop);
 267              		.loc 1 437 0
 268 007a 0439     		subs	r1, r1, #4
 269 007c 5A5A     		ldrh	r2, [r3, r1]
 270 007e 0132     		adds	r2, r2, #1
 271 0080 5A52     		strh	r2, [r3, r1]
 438:Source\LwIP\src\core\ipv4/ip4.c ****     MIB2_STATS_INC(mib2.ipindiscards);
 439:Source\LwIP\src\core\ipv4/ip4.c ****     return ERR_OK;
 272              		.loc 1 439 0
 273 0082 22E1     		b	.L17
 274              	.L20:
 440:Source\LwIP\src\core\ipv4/ip4.c ****   }
 441:Source\LwIP\src\core\ipv4/ip4.c **** 
 442:Source\LwIP\src\core\ipv4/ip4.c ****   /* verify checksum */
 443:Source\LwIP\src\core\ipv4/ip4.c **** #if CHECKSUM_CHECK_IP
 444:Source\LwIP\src\core\ipv4/ip4.c ****   IF__NETIF_CHECKSUM_ENABLED(inp, NETIF_CHECKSUM_CHECK_IP) {
 445:Source\LwIP\src\core\ipv4/ip4.c ****     if (inet_chksum(iphdr, iphdr_hlen) != 0) {
 275              		.loc 1 445 0
 276 0084 3100     		movs	r1, r6
 277 0086 3800     		movs	r0, r7
 278 0088 FFF7FEFF 		bl	inet_chksum
 279              	.LVL20:
 280 008c 0028     		cmp	r0, #0
 281 008e 0CD0     		beq	.L21
 446:Source\LwIP\src\core\ipv4/ip4.c **** 
 447:Source\LwIP\src\core\ipv4/ip4.c ****       LWIP_DEBUGF(IP_DEBUG | LWIP_DBG_LEVEL_SERIOUS,
 448:Source\LwIP\src\core\ipv4/ip4.c ****         ("Checksum (0x%"X16_F") failed, IP packet dropped.\n", inet_chksum(iphdr, iphdr_hlen)));
 449:Source\LwIP\src\core\ipv4/ip4.c ****       ip4_debug_print(p);
 450:Source\LwIP\src\core\ipv4/ip4.c ****       pbuf_free(p);
 282              		.loc 1 450 0
 283 0090 2800     		movs	r0, r5
 284 0092 FFF7FEFF 		bl	pbuf_free
 285              	.LVL21:
 451:Source\LwIP\src\core\ipv4/ip4.c ****       IP_STATS_INC(ip.chkerr);
 286              		.loc 1 451 0
 287 0096 8F4B     		ldr	r3, .L51
 288 0098 5021     		movs	r1, #80
ARM GAS  C:\Users\Phuong\AppData\Local\Temp\ccYoYbaR.s 			page 14


 289 009a 5A5A     		ldrh	r2, [r3, r1]
 290 009c 0132     		adds	r2, r2, #1
 291 009e 5A52     		strh	r2, [r3, r1]
 452:Source\LwIP\src\core\ipv4/ip4.c ****       IP_STATS_INC(ip.drop);
 292              		.loc 1 452 0
 293 00a0 0239     		subs	r1, r1, #2
 294 00a2 5A5A     		ldrh	r2, [r3, r1]
 295 00a4 0132     		adds	r2, r2, #1
 296 00a6 5A52     		strh	r2, [r3, r1]
 453:Source\LwIP\src\core\ipv4/ip4.c ****       MIB2_STATS_INC(mib2.ipinhdrerrors);
 454:Source\LwIP\src\core\ipv4/ip4.c ****       return ERR_OK;
 297              		.loc 1 454 0
 298 00a8 0FE1     		b	.L17
 299              	.L21:
 455:Source\LwIP\src\core\ipv4/ip4.c ****     }
 456:Source\LwIP\src\core\ipv4/ip4.c ****   }
 457:Source\LwIP\src\core\ipv4/ip4.c **** #endif
 458:Source\LwIP\src\core\ipv4/ip4.c **** 
 459:Source\LwIP\src\core\ipv4/ip4.c ****   /* copy IP addresses to aligned ip_addr_t */
 460:Source\LwIP\src\core\ipv4/ip4.c ****   ip_addr_copy_from_ip4(ip_data.current_iphdr_dest, iphdr->dest);
 300              		.loc 1 460 0
 301 00aa 387C     		ldrb	r0, [r7, #16]
 302 00ac 7A7C     		ldrb	r2, [r7, #17]
 303 00ae 1202     		lsls	r2, r2, #8
 304 00b0 0243     		orrs	r2, r0
 305 00b2 BB7C     		ldrb	r3, [r7, #18]
 306 00b4 1B04     		lsls	r3, r3, #16
 307 00b6 1343     		orrs	r3, r2
 308 00b8 1A00     		movs	r2, r3
 309 00ba FB7C     		ldrb	r3, [r7, #19]
 310 00bc 1B06     		lsls	r3, r3, #24
 311 00be 1343     		orrs	r3, r2
 312 00c0 854A     		ldr	r2, .L51+4
 313 00c2 9446     		mov	ip, r2
 314 00c4 5361     		str	r3, [r2, #20]
 461:Source\LwIP\src\core\ipv4/ip4.c ****   ip_addr_copy_from_ip4(ip_data.current_iphdr_src, iphdr->src);
 315              		.loc 1 461 0
 316 00c6 3C7B     		ldrb	r4, [r7, #12]
 317 00c8 797B     		ldrb	r1, [r7, #13]
 318 00ca 0902     		lsls	r1, r1, #8
 319 00cc 2143     		orrs	r1, r4
 320 00ce BA7B     		ldrb	r2, [r7, #14]
 321 00d0 1204     		lsls	r2, r2, #16
 322 00d2 0A43     		orrs	r2, r1
 323 00d4 1100     		movs	r1, r2
 324 00d6 FA7B     		ldrb	r2, [r7, #15]
 325 00d8 1206     		lsls	r2, r2, #24
 326 00da 0A43     		orrs	r2, r1
 327 00dc 6146     		mov	r1, ip
 328 00de 0A61     		str	r2, [r1, #16]
 462:Source\LwIP\src\core\ipv4/ip4.c **** 
 463:Source\LwIP\src\core\ipv4/ip4.c ****   /* match packet against an interface, i.e. is this packet for us? */
 464:Source\LwIP\src\core\ipv4/ip4.c ****   if (ip4_addr_ismulticast(ip4_current_dest_addr())) {
 329              		.loc 1 464 0
 330 00e0 F022     		movs	r2, #240
 331 00e2 1340     		ands	r3, r2
 332 00e4 E02B     		cmp	r3, #224
ARM GAS  C:\Users\Phuong\AppData\Local\Temp\ccYoYbaR.s 			page 15


 333 00e6 1AD1     		bne	.L42
 465:Source\LwIP\src\core\ipv4/ip4.c **** #if LWIP_IGMP
 466:Source\LwIP\src\core\ipv4/ip4.c ****     if ((inp->flags & NETIF_FLAG_IGMP) && (igmp_lookfor_group(inp, ip4_current_dest_addr()))) {
 334              		.loc 1 466 0
 335 00e8 A33B     		subs	r3, r3, #163
 336 00ea 4246     		mov	r2, r8
 337 00ec D35C     		ldrb	r3, [r2, r3]
 338 00ee 9B06     		lsls	r3, r3, #26
 339 00f0 3ED5     		bpl	.L43
 340              	.LVL22:
 341              		.loc 1 466 0 is_stmt 0 discriminator 1
 342 00f2 7A49     		ldr	r1, .L51+8
 343 00f4 4046     		mov	r0, r8
 344 00f6 FFF7FEFF 		bl	igmp_lookfor_group
 345              	.LVL23:
 346 00fa 0028     		cmp	r0, #0
 347 00fc 3BD0     		beq	.L44
 348              	.LBB2:
 467:Source\LwIP\src\core\ipv4/ip4.c ****       /* IGMP snooping switches need 0.0.0.0 to be allowed as source address (RFC 4541) */
 468:Source\LwIP\src\core\ipv4/ip4.c ****       ip4_addr_t allsystems;
 469:Source\LwIP\src\core\ipv4/ip4.c ****       IP4_ADDR(&allsystems, 224, 0, 0, 1);
 470:Source\LwIP\src\core\ipv4/ip4.c ****       if (ip4_addr_cmp(ip4_current_dest_addr(), &allsystems) &&
 349              		.loc 1 470 0 is_stmt 1
 350 00fe 764B     		ldr	r3, .L51+4
 351 0100 5A69     		ldr	r2, [r3, #20]
 352 0102 774B     		ldr	r3, .L51+12
 353 0104 9A42     		cmp	r2, r3
 354 0106 05D1     		bne	.L45
 471:Source\LwIP\src\core\ipv4/ip4.c ****           ip4_addr_isany(ip4_current_src_addr())) {
 355              		.loc 1 471 0 discriminator 1
 356 0108 734B     		ldr	r3, .L51+4
 357 010a 1B69     		ldr	r3, [r3, #16]
 470:Source\LwIP\src\core\ipv4/ip4.c ****           ip4_addr_isany(ip4_current_src_addr())) {
 358              		.loc 1 470 0 discriminator 1
 359 010c 002B     		cmp	r3, #0
 360 010e 03D0     		beq	.L46
 361              	.LBE2:
 381:Source\LwIP\src\core\ipv4/ip4.c **** #endif /* IP_ACCEPT_LINK_LAYER_ADDRESSING || LWIP_IGMP */
 362              		.loc 1 381 0
 363 0110 0123     		movs	r3, #1
 364 0112 02E0     		b	.L24
 365              	.L45:
 366 0114 0123     		movs	r3, #1
 367 0116 00E0     		b	.L24
 368              	.L46:
 369              	.LBB3:
 472:Source\LwIP\src\core\ipv4/ip4.c ****         check_ip_src = 0;
 370              		.loc 1 472 0
 371 0118 0023     		movs	r3, #0
 372              	.L24:
 373              	.LVL24:
 473:Source\LwIP\src\core\ipv4/ip4.c ****       }
 474:Source\LwIP\src\core\ipv4/ip4.c ****       netif = inp;
 374              		.loc 1 474 0
 375 011a 4446     		mov	r4, r8
 376              	.LBE3:
 466:Source\LwIP\src\core\ipv4/ip4.c ****       /* IGMP snooping switches need 0.0.0.0 to be allowed as source address (RFC 4541) */
ARM GAS  C:\Users\Phuong\AppData\Local\Temp\ccYoYbaR.s 			page 16


 377              		.loc 1 466 0
 378 011c 34E0     		b	.L23
 379              	.LVL25:
 380              	.L42:
 381 011e 4446     		mov	r4, r8
 382 0120 0123     		movs	r3, #1
 383 0122 9946     		mov	r9, r3
 384              	.L22:
 385              	.LVL26:
 386              	.LBB4:
 475:Source\LwIP\src\core\ipv4/ip4.c ****     } else {
 476:Source\LwIP\src\core\ipv4/ip4.c ****       netif = NULL;
 477:Source\LwIP\src\core\ipv4/ip4.c ****     }
 478:Source\LwIP\src\core\ipv4/ip4.c **** #else /* LWIP_IGMP */
 479:Source\LwIP\src\core\ipv4/ip4.c ****     if ((netif_is_up(inp)) && (!ip4_addr_isany_val(*netif_ip4_addr(inp)))) {
 480:Source\LwIP\src\core\ipv4/ip4.c ****       netif = inp;
 481:Source\LwIP\src\core\ipv4/ip4.c ****     } else {
 482:Source\LwIP\src\core\ipv4/ip4.c ****       netif = NULL;
 483:Source\LwIP\src\core\ipv4/ip4.c ****     }
 484:Source\LwIP\src\core\ipv4/ip4.c **** #endif /* LWIP_IGMP */
 485:Source\LwIP\src\core\ipv4/ip4.c ****   } else {
 486:Source\LwIP\src\core\ipv4/ip4.c ****     /* start trying with inp. if that's not acceptable, start walking the
 487:Source\LwIP\src\core\ipv4/ip4.c ****        list of configured netifs.
 488:Source\LwIP\src\core\ipv4/ip4.c ****        'first' is used as a boolean to mark whether we started walking the list */
 489:Source\LwIP\src\core\ipv4/ip4.c ****     int first = 1;
 490:Source\LwIP\src\core\ipv4/ip4.c ****     netif = inp;
 491:Source\LwIP\src\core\ipv4/ip4.c ****     do {
 492:Source\LwIP\src\core\ipv4/ip4.c ****       LWIP_DEBUGF(IP_DEBUG, ("ip_input: iphdr->dest 0x%"X32_F" netif->ip_addr 0x%"X32_F" (0x%"X32_F
 493:Source\LwIP\src\core\ipv4/ip4.c ****           ip4_addr_get_u32(&iphdr->dest), ip4_addr_get_u32(netif_ip4_addr(netif)),
 494:Source\LwIP\src\core\ipv4/ip4.c ****           ip4_addr_get_u32(&iphdr->dest) & ip4_addr_get_u32(netif_ip4_netmask(netif)),
 495:Source\LwIP\src\core\ipv4/ip4.c ****           ip4_addr_get_u32(netif_ip4_addr(netif)) & ip4_addr_get_u32(netif_ip4_netmask(netif)),
 496:Source\LwIP\src\core\ipv4/ip4.c ****           ip4_addr_get_u32(&iphdr->dest) & ~ip4_addr_get_u32(netif_ip4_netmask(netif))));
 497:Source\LwIP\src\core\ipv4/ip4.c **** 
 498:Source\LwIP\src\core\ipv4/ip4.c ****       /* interface is up and configured? */
 499:Source\LwIP\src\core\ipv4/ip4.c ****       if ((netif_is_up(netif)) && (!ip4_addr_isany_val(*netif_ip4_addr(netif)))) {
 387              		.loc 1 499 0
 388 0124 3D23     		movs	r3, #61
 389 0126 E35C     		ldrb	r3, [r4, r3]
 390 0128 DB07     		lsls	r3, r3, #31
 391 012a 0BD5     		bpl	.L25
 392              		.loc 1 499 0 is_stmt 0 discriminator 1
 393 012c 6368     		ldr	r3, [r4, #4]
 394 012e 002B     		cmp	r3, #0
 395 0130 08D0     		beq	.L25
 500:Source\LwIP\src\core\ipv4/ip4.c ****         /* unicast to this interface address? */
 501:Source\LwIP\src\core\ipv4/ip4.c ****         if (ip4_addr_cmp(ip4_current_dest_addr(), netif_ip4_addr(netif)) ||
 396              		.loc 1 501 0 is_stmt 1
 397 0132 694A     		ldr	r2, .L51+4
 398 0134 5069     		ldr	r0, [r2, #20]
 399 0136 8342     		cmp	r3, r0
 400 0138 20D0     		beq	.L47
 502:Source\LwIP\src\core\ipv4/ip4.c ****             /* or broadcast on this interface network address? */
 503:Source\LwIP\src\core\ipv4/ip4.c ****             ip4_addr_isbroadcast(ip4_current_dest_addr(), netif)
 401              		.loc 1 503 0 discriminator 1
 402 013a 2100     		movs	r1, r4
 403 013c FFF7FEFF 		bl	ip4_addr_isbroadcast_u32
 404              	.LVL27:
ARM GAS  C:\Users\Phuong\AppData\Local\Temp\ccYoYbaR.s 			page 17


 501:Source\LwIP\src\core\ipv4/ip4.c ****             /* or broadcast on this interface network address? */
 405              		.loc 1 501 0 discriminator 1
 406 0140 0028     		cmp	r0, #0
 407 0142 1DD1     		bne	.L48
 408              	.L25:
 504:Source\LwIP\src\core\ipv4/ip4.c **** #if LWIP_NETIF_LOOPBACK && !LWIP_HAVE_LOOPIF
 505:Source\LwIP\src\core\ipv4/ip4.c ****             || (ip4_addr_get_u32(ip4_current_dest_addr()) == PP_HTONL(IPADDR_LOOPBACK))
 506:Source\LwIP\src\core\ipv4/ip4.c **** #endif /* LWIP_NETIF_LOOPBACK && !LWIP_HAVE_LOOPIF */
 507:Source\LwIP\src\core\ipv4/ip4.c ****             ) {
 508:Source\LwIP\src\core\ipv4/ip4.c ****           LWIP_DEBUGF(IP_DEBUG, ("ip4_input: packet accepted on interface %c%c\n",
 509:Source\LwIP\src\core\ipv4/ip4.c ****               netif->name[0], netif->name[1]));
 510:Source\LwIP\src\core\ipv4/ip4.c ****           /* break out of for loop */
 511:Source\LwIP\src\core\ipv4/ip4.c ****           break;
 512:Source\LwIP\src\core\ipv4/ip4.c ****         }
 513:Source\LwIP\src\core\ipv4/ip4.c **** #if LWIP_AUTOIP
 514:Source\LwIP\src\core\ipv4/ip4.c ****         /* connections to link-local addresses must persist after changing
 515:Source\LwIP\src\core\ipv4/ip4.c ****            the netif's address (RFC3927 ch. 1.9) */
 516:Source\LwIP\src\core\ipv4/ip4.c ****         if (autoip_accept_packet(netif, ip4_current_dest_addr())) {
 517:Source\LwIP\src\core\ipv4/ip4.c ****           LWIP_DEBUGF(IP_DEBUG, ("ip4_input: LLA packet accepted on interface %c%c\n",
 518:Source\LwIP\src\core\ipv4/ip4.c ****               netif->name[0], netif->name[1]));
 519:Source\LwIP\src\core\ipv4/ip4.c ****           /* break out of for loop */
 520:Source\LwIP\src\core\ipv4/ip4.c ****           break;
 521:Source\LwIP\src\core\ipv4/ip4.c ****         }
 522:Source\LwIP\src\core\ipv4/ip4.c **** #endif /* LWIP_AUTOIP */
 523:Source\LwIP\src\core\ipv4/ip4.c ****       }
 524:Source\LwIP\src\core\ipv4/ip4.c ****       if (first) {
 409              		.loc 1 524 0
 410 0144 4B46     		mov	r3, r9
 411 0146 002B     		cmp	r3, #0
 412 0148 0AD0     		beq	.L26
 413              	.LVL28:
 525:Source\LwIP\src\core\ipv4/ip4.c **** #if !LWIP_NETIF_LOOPBACK || LWIP_HAVE_LOOPIF
 526:Source\LwIP\src\core\ipv4/ip4.c ****         /* Packets sent to the loopback address must not be accepted on an
 527:Source\LwIP\src\core\ipv4/ip4.c ****          * interface that does not have the loopback address assigned to it,
 528:Source\LwIP\src\core\ipv4/ip4.c ****          * unless a non-loopback interface is used for loopback traffic. */
 529:Source\LwIP\src\core\ipv4/ip4.c ****         if (ip4_addr_isloopback(ip4_current_dest_addr())) {
 414              		.loc 1 529 0
 415 014a 634B     		ldr	r3, .L51+4
 416              	.LVL29:
 417 014c 5B69     		ldr	r3, [r3, #20]
 418 014e FF22     		movs	r2, #255
 419 0150 1340     		ands	r3, r2
 420 0152 7F2B     		cmp	r3, #127
 421 0154 16D0     		beq	.L49
 422              	.LVL30:
 530:Source\LwIP\src\core\ipv4/ip4.c ****           netif = NULL;
 531:Source\LwIP\src\core\ipv4/ip4.c ****           break;
 532:Source\LwIP\src\core\ipv4/ip4.c ****         }
 533:Source\LwIP\src\core\ipv4/ip4.c **** #endif /* !LWIP_NETIF_LOOPBACK || LWIP_HAVE_LOOPIF */
 534:Source\LwIP\src\core\ipv4/ip4.c ****         first = 0;
 535:Source\LwIP\src\core\ipv4/ip4.c ****         netif = netif_list;
 423              		.loc 1 535 0
 424 0156 634B     		ldr	r3, .L51+16
 425 0158 1C68     		ldr	r4, [r3]
 426              	.LVL31:
 534:Source\LwIP\src\core\ipv4/ip4.c ****         netif = netif_list;
 427              		.loc 1 534 0
ARM GAS  C:\Users\Phuong\AppData\Local\Temp\ccYoYbaR.s 			page 18


 428 015a 0023     		movs	r3, #0
 429 015c 9946     		mov	r9, r3
 430 015e 00E0     		b	.L27
 431              	.LVL32:
 432              	.L26:
 536:Source\LwIP\src\core\ipv4/ip4.c ****       } else {
 537:Source\LwIP\src\core\ipv4/ip4.c ****         netif = netif->next;
 433              		.loc 1 537 0
 434 0160 2468     		ldr	r4, [r4]
 435              	.LVL33:
 436              	.L27:
 538:Source\LwIP\src\core\ipv4/ip4.c ****       }
 539:Source\LwIP\src\core\ipv4/ip4.c ****       if (netif == inp) {
 437              		.loc 1 539 0
 438 0162 4445     		cmp	r4, r8
 439 0164 00D1     		bne	.L28
 540:Source\LwIP\src\core\ipv4/ip4.c ****         netif = netif->next;
 440              		.loc 1 540 0
 441 0166 2468     		ldr	r4, [r4]
 442              	.LVL34:
 443              	.L28:
 541:Source\LwIP\src\core\ipv4/ip4.c ****       }
 542:Source\LwIP\src\core\ipv4/ip4.c ****     } while (netif != NULL);
 444              		.loc 1 542 0
 445 0168 002C     		cmp	r4, #0
 446 016a DBD1     		bne	.L22
 447              	.LBE4:
 381:Source\LwIP\src\core\ipv4/ip4.c **** #endif /* IP_ACCEPT_LINK_LAYER_ADDRESSING || LWIP_IGMP */
 448              		.loc 1 381 0
 449 016c 0123     		movs	r3, #1
 450              	.LBB5:
 451 016e 0BE0     		b	.L23
 452              	.LVL35:
 453              	.L43:
 454              	.LBE5:
 455 0170 0123     		movs	r3, #1
 476:Source\LwIP\src\core\ipv4/ip4.c ****     }
 456              		.loc 1 476 0
 457 0172 0024     		movs	r4, #0
 458 0174 08E0     		b	.L23
 459              	.LVL36:
 460              	.L44:
 381:Source\LwIP\src\core\ipv4/ip4.c **** #endif /* IP_ACCEPT_LINK_LAYER_ADDRESSING || LWIP_IGMP */
 461              		.loc 1 381 0
 462 0176 0123     		movs	r3, #1
 476:Source\LwIP\src\core\ipv4/ip4.c ****     }
 463              		.loc 1 476 0
 464 0178 0024     		movs	r4, #0
 465 017a 05E0     		b	.L23
 466              	.LVL37:
 467              	.L47:
 381:Source\LwIP\src\core\ipv4/ip4.c **** #endif /* IP_ACCEPT_LINK_LAYER_ADDRESSING || LWIP_IGMP */
 468              		.loc 1 381 0
 469 017c 0123     		movs	r3, #1
 470 017e 03E0     		b	.L23
 471              	.L48:
 472 0180 0123     		movs	r3, #1
ARM GAS  C:\Users\Phuong\AppData\Local\Temp\ccYoYbaR.s 			page 19


 473 0182 01E0     		b	.L23
 474              	.L49:
 475 0184 0123     		movs	r3, #1
 476              	.LBB6:
 530:Source\LwIP\src\core\ipv4/ip4.c ****           break;
 477              		.loc 1 530 0
 478 0186 0024     		movs	r4, #0
 479              	.LVL38:
 480              	.L23:
 481              	.LBE6:
 543:Source\LwIP\src\core\ipv4/ip4.c ****   }
 544:Source\LwIP\src\core\ipv4/ip4.c **** 
 545:Source\LwIP\src\core\ipv4/ip4.c **** #if IP_ACCEPT_LINK_LAYER_ADDRESSING
 546:Source\LwIP\src\core\ipv4/ip4.c ****   /* Pass DHCP messages regardless of destination address. DHCP traffic is addressed
 547:Source\LwIP\src\core\ipv4/ip4.c ****    * using link layer addressing (such as Ethernet MAC) so we must not filter on IP.
 548:Source\LwIP\src\core\ipv4/ip4.c ****    * According to RFC 1542 section 3.1.1, referred by RFC 2131).
 549:Source\LwIP\src\core\ipv4/ip4.c ****    *
 550:Source\LwIP\src\core\ipv4/ip4.c ****    * If you want to accept private broadcast communication while a netif is down,
 551:Source\LwIP\src\core\ipv4/ip4.c ****    * define LWIP_IP_ACCEPT_UDP_PORT(dst_port), e.g.:
 552:Source\LwIP\src\core\ipv4/ip4.c ****    *
 553:Source\LwIP\src\core\ipv4/ip4.c ****    * #define LWIP_IP_ACCEPT_UDP_PORT(dst_port) ((dst_port) == PP_NTOHS(12345))
 554:Source\LwIP\src\core\ipv4/ip4.c ****    */
 555:Source\LwIP\src\core\ipv4/ip4.c ****   if (netif == NULL) {
 482              		.loc 1 555 0
 483 0188 002C     		cmp	r4, #0
 484 018a 0DD1     		bne	.L29
 556:Source\LwIP\src\core\ipv4/ip4.c ****     /* remote port is DHCP server? */
 557:Source\LwIP\src\core\ipv4/ip4.c ****     if (IPH_PROTO(iphdr) == IP_PROTO_UDP) {
 485              		.loc 1 557 0
 486 018c 7A7A     		ldrb	r2, [r7, #9]
 487 018e 112A     		cmp	r2, #17
 488 0190 0AD1     		bne	.L29
 489              	.LBB7:
 558:Source\LwIP\src\core\ipv4/ip4.c ****       struct udp_hdr *udphdr = (struct udp_hdr *)((u8_t *)iphdr + iphdr_hlen);
 490              		.loc 1 558 0
 491 0192 BA19     		adds	r2, r7, r6
 492              	.LVL39:
 559:Source\LwIP\src\core\ipv4/ip4.c ****       LWIP_DEBUGF(IP_DEBUG | LWIP_DBG_TRACE, ("ip4_input: UDP packet to DHCP client port %"U16_F"\n
 560:Source\LwIP\src\core\ipv4/ip4.c ****         lwip_ntohs(udphdr->dest)));
 561:Source\LwIP\src\core\ipv4/ip4.c ****       if (IP_ACCEPT_LINK_LAYER_ADDRESSED_PORT(udphdr->dest)) {
 493              		.loc 1 561 0
 494 0194 9178     		ldrb	r1, [r2, #2]
 495 0196 D278     		ldrb	r2, [r2, #3]
 496              	.LVL40:
 497 0198 1202     		lsls	r2, r2, #8
 498 019a 0A43     		orrs	r2, r1
 499 019c 8821     		movs	r1, #136
 500 019e C901     		lsls	r1, r1, #7
 501 01a0 8A42     		cmp	r2, r1
 502 01a2 01D1     		bne	.L29
 562:Source\LwIP\src\core\ipv4/ip4.c ****         LWIP_DEBUGF(IP_DEBUG | LWIP_DBG_TRACE, ("ip4_input: DHCP packet accepted.\n"));
 563:Source\LwIP\src\core\ipv4/ip4.c ****         netif = inp;
 503              		.loc 1 563 0
 504 01a4 4446     		mov	r4, r8
 505              	.LVL41:
 564:Source\LwIP\src\core\ipv4/ip4.c ****         check_ip_src = 0;
 506              		.loc 1 564 0
ARM GAS  C:\Users\Phuong\AppData\Local\Temp\ccYoYbaR.s 			page 20


 507 01a6 0023     		movs	r3, #0
 508              	.LVL42:
 509              	.L29:
 510              	.LBE7:
 565:Source\LwIP\src\core\ipv4/ip4.c ****       }
 566:Source\LwIP\src\core\ipv4/ip4.c ****     }
 567:Source\LwIP\src\core\ipv4/ip4.c ****   }
 568:Source\LwIP\src\core\ipv4/ip4.c **** #endif /* IP_ACCEPT_LINK_LAYER_ADDRESSING */
 569:Source\LwIP\src\core\ipv4/ip4.c **** 
 570:Source\LwIP\src\core\ipv4/ip4.c ****   /* broadcast or multicast packet source address? Compliant with RFC 1122: 3.2.1.3 */
 571:Source\LwIP\src\core\ipv4/ip4.c **** #if LWIP_IGMP || IP_ACCEPT_LINK_LAYER_ADDRESSING
 572:Source\LwIP\src\core\ipv4/ip4.c ****   if (check_ip_src
 511              		.loc 1 572 0
 512 01a8 002B     		cmp	r3, #0
 513 01aa 17D0     		beq	.L30
 573:Source\LwIP\src\core\ipv4/ip4.c **** #if IP_ACCEPT_LINK_LAYER_ADDRESSING
 574:Source\LwIP\src\core\ipv4/ip4.c ****   /* DHCP servers need 0.0.0.0 to be allowed as source address (RFC 1.1.2.2: 3.2.1.3/a) */
 575:Source\LwIP\src\core\ipv4/ip4.c ****       && !ip4_addr_isany_val(*ip4_current_src_addr())
 514              		.loc 1 575 0
 515 01ac 4A4B     		ldr	r3, .L51+4
 516              	.LVL43:
 517 01ae 1869     		ldr	r0, [r3, #16]
 518 01b0 0028     		cmp	r0, #0
 519 01b2 13D0     		beq	.L30
 576:Source\LwIP\src\core\ipv4/ip4.c **** #endif /* IP_ACCEPT_LINK_LAYER_ADDRESSING */
 577:Source\LwIP\src\core\ipv4/ip4.c ****      )
 578:Source\LwIP\src\core\ipv4/ip4.c **** #endif /* LWIP_IGMP || IP_ACCEPT_LINK_LAYER_ADDRESSING */
 579:Source\LwIP\src\core\ipv4/ip4.c ****   {
 580:Source\LwIP\src\core\ipv4/ip4.c ****     if ((ip4_addr_isbroadcast(ip4_current_src_addr(), inp)) ||
 520              		.loc 1 580 0
 521 01b4 4146     		mov	r1, r8
 522 01b6 FFF7FEFF 		bl	ip4_addr_isbroadcast_u32
 523              	.LVL44:
 524 01ba 0028     		cmp	r0, #0
 525 01bc 05D1     		bne	.L31
 581:Source\LwIP\src\core\ipv4/ip4.c ****         (ip4_addr_ismulticast(ip4_current_src_addr()))) {
 526              		.loc 1 581 0 discriminator 1
 527 01be 464B     		ldr	r3, .L51+4
 528 01c0 1B69     		ldr	r3, [r3, #16]
 529 01c2 F022     		movs	r2, #240
 530 01c4 1340     		ands	r3, r2
 580:Source\LwIP\src\core\ipv4/ip4.c ****         (ip4_addr_ismulticast(ip4_current_src_addr()))) {
 531              		.loc 1 580 0 discriminator 1
 532 01c6 E02B     		cmp	r3, #224
 533 01c8 08D1     		bne	.L30
 534              	.L31:
 582:Source\LwIP\src\core\ipv4/ip4.c ****       /* packet source is not valid */
 583:Source\LwIP\src\core\ipv4/ip4.c ****       LWIP_DEBUGF(IP_DEBUG | LWIP_DBG_TRACE | LWIP_DBG_LEVEL_WARNING, ("ip4_input: packet source is
 584:Source\LwIP\src\core\ipv4/ip4.c ****       /* free (drop) packet pbufs */
 585:Source\LwIP\src\core\ipv4/ip4.c ****       pbuf_free(p);
 535              		.loc 1 585 0
 536 01ca 2800     		movs	r0, r5
 537 01cc FFF7FEFF 		bl	pbuf_free
 538              	.LVL45:
 586:Source\LwIP\src\core\ipv4/ip4.c ****       IP_STATS_INC(ip.drop);
 539              		.loc 1 586 0
 540 01d0 4049     		ldr	r1, .L51
ARM GAS  C:\Users\Phuong\AppData\Local\Temp\ccYoYbaR.s 			page 21


 541 01d2 4E22     		movs	r2, #78
 542 01d4 8B5A     		ldrh	r3, [r1, r2]
 543 01d6 0133     		adds	r3, r3, #1
 544 01d8 8B52     		strh	r3, [r1, r2]
 587:Source\LwIP\src\core\ipv4/ip4.c ****       MIB2_STATS_INC(mib2.ipinaddrerrors);
 588:Source\LwIP\src\core\ipv4/ip4.c ****       MIB2_STATS_INC(mib2.ipindiscards);
 589:Source\LwIP\src\core\ipv4/ip4.c ****       return ERR_OK;
 545              		.loc 1 589 0
 546 01da 76E0     		b	.L17
 547              	.L30:
 590:Source\LwIP\src\core\ipv4/ip4.c ****     }
 591:Source\LwIP\src\core\ipv4/ip4.c ****   }
 592:Source\LwIP\src\core\ipv4/ip4.c **** 
 593:Source\LwIP\src\core\ipv4/ip4.c ****   /* packet not for us? */
 594:Source\LwIP\src\core\ipv4/ip4.c ****   if (netif == NULL) {
 548              		.loc 1 594 0
 549 01dc 002C     		cmp	r4, #0
 550 01de 08D1     		bne	.L32
 595:Source\LwIP\src\core\ipv4/ip4.c ****     /* packet not for us, route or discard */
 596:Source\LwIP\src\core\ipv4/ip4.c ****     LWIP_DEBUGF(IP_DEBUG | LWIP_DBG_TRACE, ("ip4_input: packet not for us.\n"));
 597:Source\LwIP\src\core\ipv4/ip4.c **** #if IP_FORWARD
 598:Source\LwIP\src\core\ipv4/ip4.c ****     /* non-broadcast packet? */
 599:Source\LwIP\src\core\ipv4/ip4.c ****     if (!ip4_addr_isbroadcast(ip4_current_dest_addr(), inp)) {
 600:Source\LwIP\src\core\ipv4/ip4.c ****       /* try to forward IP packet on (other) interfaces */
 601:Source\LwIP\src\core\ipv4/ip4.c ****       ip4_forward(p, iphdr, inp);
 602:Source\LwIP\src\core\ipv4/ip4.c ****     } else
 603:Source\LwIP\src\core\ipv4/ip4.c **** #endif /* IP_FORWARD */
 604:Source\LwIP\src\core\ipv4/ip4.c ****     {
 605:Source\LwIP\src\core\ipv4/ip4.c ****       IP_STATS_INC(ip.drop);
 551              		.loc 1 605 0
 552 01e0 3C49     		ldr	r1, .L51
 553 01e2 4E22     		movs	r2, #78
 554 01e4 8B5A     		ldrh	r3, [r1, r2]
 555 01e6 0133     		adds	r3, r3, #1
 556 01e8 8B52     		strh	r3, [r1, r2]
 606:Source\LwIP\src\core\ipv4/ip4.c ****       MIB2_STATS_INC(mib2.ipinaddrerrors);
 607:Source\LwIP\src\core\ipv4/ip4.c ****       MIB2_STATS_INC(mib2.ipindiscards);
 608:Source\LwIP\src\core\ipv4/ip4.c ****     }
 609:Source\LwIP\src\core\ipv4/ip4.c ****     pbuf_free(p);
 557              		.loc 1 609 0
 558 01ea 2800     		movs	r0, r5
 559 01ec FFF7FEFF 		bl	pbuf_free
 560              	.LVL46:
 610:Source\LwIP\src\core\ipv4/ip4.c ****     return ERR_OK;
 561              		.loc 1 610 0
 562 01f0 6BE0     		b	.L17
 563              	.L32:
 611:Source\LwIP\src\core\ipv4/ip4.c ****   }
 612:Source\LwIP\src\core\ipv4/ip4.c ****   /* packet consists of multiple fragments? */
 613:Source\LwIP\src\core\ipv4/ip4.c ****   if ((IPH_OFFSET(iphdr) & PP_HTONS(IP_OFFMASK | IP_MF)) != 0) {
 564              		.loc 1 613 0
 565 01f2 BA79     		ldrb	r2, [r7, #6]
 566 01f4 FB79     		ldrb	r3, [r7, #7]
 567 01f6 1B02     		lsls	r3, r3, #8
 568 01f8 1343     		orrs	r3, r2
 569 01fa C022     		movs	r2, #192
 570 01fc 9343     		bics	r3, r2
ARM GAS  C:\Users\Phuong\AppData\Local\Temp\ccYoYbaR.s 			page 22


 571 01fe 05D0     		beq	.L33
 614:Source\LwIP\src\core\ipv4/ip4.c **** #if IP_REASSEMBLY /* packet fragment reassembly code present? */
 615:Source\LwIP\src\core\ipv4/ip4.c ****     LWIP_DEBUGF(IP_DEBUG, ("IP packet is a fragment (id=0x%04"X16_F" tot_len=%"U16_F" len=%"U16_F" 
 616:Source\LwIP\src\core\ipv4/ip4.c ****       lwip_ntohs(IPH_ID(iphdr)), p->tot_len, lwip_ntohs(IPH_LEN(iphdr)), (u16_t)!!(IPH_OFFSET(iphdr
 617:Source\LwIP\src\core\ipv4/ip4.c ****     /* reassemble the packet*/
 618:Source\LwIP\src\core\ipv4/ip4.c ****     p = ip4_reass(p);
 572              		.loc 1 618 0
 573 0200 2800     		movs	r0, r5
 574 0202 FFF7FEFF 		bl	ip4_reass
 575              	.LVL47:
 576 0206 051E     		subs	r5, r0, #0
 577              	.LVL48:
 619:Source\LwIP\src\core\ipv4/ip4.c ****     /* packet not fully reassembled yet? */
 620:Source\LwIP\src\core\ipv4/ip4.c ****     if (p == NULL) {
 578              		.loc 1 620 0
 579 0208 5FD0     		beq	.L17
 621:Source\LwIP\src\core\ipv4/ip4.c ****       return ERR_OK;
 622:Source\LwIP\src\core\ipv4/ip4.c ****     }
 623:Source\LwIP\src\core\ipv4/ip4.c ****     iphdr = (struct ip_hdr *)p->payload;
 580              		.loc 1 623 0
 581 020a 4768     		ldr	r7, [r0, #4]
 582              	.LVL49:
 583              	.L33:
 624:Source\LwIP\src\core\ipv4/ip4.c **** #else /* IP_REASSEMBLY == 0, no packet fragment reassembly code present */
 625:Source\LwIP\src\core\ipv4/ip4.c ****     pbuf_free(p);
 626:Source\LwIP\src\core\ipv4/ip4.c ****     LWIP_DEBUGF(IP_DEBUG | LWIP_DBG_LEVEL_SERIOUS, ("IP packet dropped since it was fragmented (0x%
 627:Source\LwIP\src\core\ipv4/ip4.c ****       lwip_ntohs(IPH_OFFSET(iphdr))));
 628:Source\LwIP\src\core\ipv4/ip4.c ****     IP_STATS_INC(ip.opterr);
 629:Source\LwIP\src\core\ipv4/ip4.c ****     IP_STATS_INC(ip.drop);
 630:Source\LwIP\src\core\ipv4/ip4.c ****     /* unsupported protocol feature */
 631:Source\LwIP\src\core\ipv4/ip4.c ****     MIB2_STATS_INC(mib2.ipinunknownprotos);
 632:Source\LwIP\src\core\ipv4/ip4.c ****     return ERR_OK;
 633:Source\LwIP\src\core\ipv4/ip4.c **** #endif /* IP_REASSEMBLY */
 634:Source\LwIP\src\core\ipv4/ip4.c ****   }
 635:Source\LwIP\src\core\ipv4/ip4.c **** 
 636:Source\LwIP\src\core\ipv4/ip4.c **** #if IP_OPTIONS_ALLOWED == 0 /* no support for IP options in the IP header? */
 637:Source\LwIP\src\core\ipv4/ip4.c **** 
 638:Source\LwIP\src\core\ipv4/ip4.c **** #if LWIP_IGMP
 639:Source\LwIP\src\core\ipv4/ip4.c ****   /* there is an extra "router alert" option in IGMP messages which we allow for but do not police 
 640:Source\LwIP\src\core\ipv4/ip4.c ****   if ((iphdr_hlen > IP_HLEN) &&  (IPH_PROTO(iphdr) != IP_PROTO_IGMP)) {
 641:Source\LwIP\src\core\ipv4/ip4.c **** #else
 642:Source\LwIP\src\core\ipv4/ip4.c ****   if (iphdr_hlen > IP_HLEN) {
 643:Source\LwIP\src\core\ipv4/ip4.c **** #endif /* LWIP_IGMP */
 644:Source\LwIP\src\core\ipv4/ip4.c ****     LWIP_DEBUGF(IP_DEBUG | LWIP_DBG_LEVEL_SERIOUS, ("IP packet dropped since there were IP options 
 645:Source\LwIP\src\core\ipv4/ip4.c ****     pbuf_free(p);
 646:Source\LwIP\src\core\ipv4/ip4.c ****     IP_STATS_INC(ip.opterr);
 647:Source\LwIP\src\core\ipv4/ip4.c ****     IP_STATS_INC(ip.drop);
 648:Source\LwIP\src\core\ipv4/ip4.c ****     /* unsupported protocol feature */
 649:Source\LwIP\src\core\ipv4/ip4.c ****     MIB2_STATS_INC(mib2.ipinunknownprotos);
 650:Source\LwIP\src\core\ipv4/ip4.c ****     return ERR_OK;
 651:Source\LwIP\src\core\ipv4/ip4.c ****   }
 652:Source\LwIP\src\core\ipv4/ip4.c **** #endif /* IP_OPTIONS_ALLOWED == 0 */
 653:Source\LwIP\src\core\ipv4/ip4.c **** 
 654:Source\LwIP\src\core\ipv4/ip4.c ****   /* send to upper layers */
 655:Source\LwIP\src\core\ipv4/ip4.c ****   LWIP_DEBUGF(IP_DEBUG, ("ip4_input: \n"));
 656:Source\LwIP\src\core\ipv4/ip4.c ****   ip4_debug_print(p);
 657:Source\LwIP\src\core\ipv4/ip4.c ****   LWIP_DEBUGF(IP_DEBUG, ("ip4_input: p->len %"U16_F" p->tot_len %"U16_F"\n", p->len, p->tot_len));
ARM GAS  C:\Users\Phuong\AppData\Local\Temp\ccYoYbaR.s 			page 23


 658:Source\LwIP\src\core\ipv4/ip4.c **** 
 659:Source\LwIP\src\core\ipv4/ip4.c ****   ip_data.current_netif = netif;
 584              		.loc 1 659 0
 585 020c 324A     		ldr	r2, .L51+4
 586 020e 1460     		str	r4, [r2]
 660:Source\LwIP\src\core\ipv4/ip4.c ****   ip_data.current_input_netif = inp;
 587              		.loc 1 660 0
 588 0210 4346     		mov	r3, r8
 589 0212 5360     		str	r3, [r2, #4]
 661:Source\LwIP\src\core\ipv4/ip4.c ****   ip_data.current_ip4_header = iphdr;
 590              		.loc 1 661 0
 591 0214 9760     		str	r7, [r2, #8]
 662:Source\LwIP\src\core\ipv4/ip4.c ****   ip_data.current_ip_header_tot_len = IPH_HL(iphdr) * 4;
 592              		.loc 1 662 0
 593 0216 3B78     		ldrb	r3, [r7]
 594 0218 0F21     		movs	r1, #15
 595 021a 0B40     		ands	r3, r1
 596 021c 9B00     		lsls	r3, r3, #2
 597 021e 9381     		strh	r3, [r2, #12]
 663:Source\LwIP\src\core\ipv4/ip4.c **** 
 664:Source\LwIP\src\core\ipv4/ip4.c **** #if LWIP_RAW
 665:Source\LwIP\src\core\ipv4/ip4.c ****   /* raw input did not eat the packet? */
 666:Source\LwIP\src\core\ipv4/ip4.c ****   if (raw_input(p, inp) == 0)
 598              		.loc 1 666 0
 599 0220 4146     		mov	r1, r8
 600 0222 2800     		movs	r0, r5
 601 0224 FFF7FEFF 		bl	raw_input
 602              	.LVL50:
 603 0228 0028     		cmp	r0, #0
 604 022a 46D1     		bne	.L34
 667:Source\LwIP\src\core\ipv4/ip4.c **** #endif /* LWIP_RAW */
 668:Source\LwIP\src\core\ipv4/ip4.c ****   {
 669:Source\LwIP\src\core\ipv4/ip4.c ****     pbuf_header(p, -(s16_t)iphdr_hlen); /* Move to payload, no check necessary. */
 605              		.loc 1 669 0
 606 022c 7142     		rsbs	r1, r6, #0
 607 022e 09B2     		sxth	r1, r1
 608 0230 2800     		movs	r0, r5
 609 0232 FFF7FEFF 		bl	pbuf_header
 610              	.LVL51:
 670:Source\LwIP\src\core\ipv4/ip4.c **** 
 671:Source\LwIP\src\core\ipv4/ip4.c ****     switch (IPH_PROTO(iphdr)) {
 611              		.loc 1 671 0
 612 0236 7B7A     		ldrb	r3, [r7, #9]
 613 0238 022B     		cmp	r3, #2
 614 023a 16D0     		beq	.L36
 615 023c 02D8     		bhi	.L37
 616 023e 012B     		cmp	r3, #1
 617 0240 0ED0     		beq	.L38
 618 0242 18E0     		b	.L35
 619              	.L37:
 620 0244 062B     		cmp	r3, #6
 621 0246 06D0     		beq	.L39
 622 0248 112B     		cmp	r3, #17
 623 024a 14D1     		bne	.L35
 672:Source\LwIP\src\core\ipv4/ip4.c **** #if LWIP_UDP
 673:Source\LwIP\src\core\ipv4/ip4.c ****     case IP_PROTO_UDP:
 674:Source\LwIP\src\core\ipv4/ip4.c **** #if LWIP_UDPLITE
ARM GAS  C:\Users\Phuong\AppData\Local\Temp\ccYoYbaR.s 			page 24


 675:Source\LwIP\src\core\ipv4/ip4.c ****     case IP_PROTO_UDPLITE:
 676:Source\LwIP\src\core\ipv4/ip4.c **** #endif /* LWIP_UDPLITE */
 677:Source\LwIP\src\core\ipv4/ip4.c ****       MIB2_STATS_INC(mib2.ipindelivers);
 678:Source\LwIP\src\core\ipv4/ip4.c ****       udp_input(p, inp);
 624              		.loc 1 678 0
 625 024c 4146     		mov	r1, r8
 626 024e 2800     		movs	r0, r5
 627 0250 FFF7FEFF 		bl	udp_input
 628              	.LVL52:
 679:Source\LwIP\src\core\ipv4/ip4.c ****       break;
 629              		.loc 1 679 0
 630 0254 31E0     		b	.L34
 631              	.L39:
 680:Source\LwIP\src\core\ipv4/ip4.c **** #endif /* LWIP_UDP */
 681:Source\LwIP\src\core\ipv4/ip4.c **** #if LWIP_TCP
 682:Source\LwIP\src\core\ipv4/ip4.c ****     case IP_PROTO_TCP:
 683:Source\LwIP\src\core\ipv4/ip4.c ****       MIB2_STATS_INC(mib2.ipindelivers);
 684:Source\LwIP\src\core\ipv4/ip4.c ****       tcp_input(p, inp);
 632              		.loc 1 684 0
 633 0256 4146     		mov	r1, r8
 634 0258 2800     		movs	r0, r5
 635 025a FFF7FEFF 		bl	tcp_input
 636              	.LVL53:
 685:Source\LwIP\src\core\ipv4/ip4.c ****       break;
 637              		.loc 1 685 0
 638 025e 2CE0     		b	.L34
 639              	.L38:
 686:Source\LwIP\src\core\ipv4/ip4.c **** #endif /* LWIP_TCP */
 687:Source\LwIP\src\core\ipv4/ip4.c **** #if LWIP_ICMP
 688:Source\LwIP\src\core\ipv4/ip4.c ****     case IP_PROTO_ICMP:
 689:Source\LwIP\src\core\ipv4/ip4.c ****       MIB2_STATS_INC(mib2.ipindelivers);
 690:Source\LwIP\src\core\ipv4/ip4.c ****       icmp_input(p, inp);
 640              		.loc 1 690 0
 641 0260 4146     		mov	r1, r8
 642 0262 2800     		movs	r0, r5
 643 0264 FFF7FEFF 		bl	icmp_input
 644              	.LVL54:
 691:Source\LwIP\src\core\ipv4/ip4.c ****       break;
 645              		.loc 1 691 0
 646 0268 27E0     		b	.L34
 647              	.L36:
 692:Source\LwIP\src\core\ipv4/ip4.c **** #endif /* LWIP_ICMP */
 693:Source\LwIP\src\core\ipv4/ip4.c **** #if LWIP_IGMP
 694:Source\LwIP\src\core\ipv4/ip4.c ****     case IP_PROTO_IGMP:
 695:Source\LwIP\src\core\ipv4/ip4.c ****       igmp_input(p, inp, ip4_current_dest_addr());
 648              		.loc 1 695 0
 649 026a 1C4A     		ldr	r2, .L51+8
 650 026c 4146     		mov	r1, r8
 651 026e 2800     		movs	r0, r5
 652 0270 FFF7FEFF 		bl	igmp_input
 653              	.LVL55:
 696:Source\LwIP\src\core\ipv4/ip4.c ****       break;
 654              		.loc 1 696 0
 655 0274 21E0     		b	.L34
 656              	.L35:
 697:Source\LwIP\src\core\ipv4/ip4.c **** #endif /* LWIP_IGMP */
 698:Source\LwIP\src\core\ipv4/ip4.c ****     default:
ARM GAS  C:\Users\Phuong\AppData\Local\Temp\ccYoYbaR.s 			page 25


 699:Source\LwIP\src\core\ipv4/ip4.c **** #if LWIP_ICMP
 700:Source\LwIP\src\core\ipv4/ip4.c ****       /* send ICMP destination protocol unreachable unless is was a broadcast */
 701:Source\LwIP\src\core\ipv4/ip4.c ****       if (!ip4_addr_isbroadcast(ip4_current_dest_addr(), netif) &&
 657              		.loc 1 701 0
 658 0276 184B     		ldr	r3, .L51+4
 659 0278 5869     		ldr	r0, [r3, #20]
 660 027a 2100     		movs	r1, r4
 661 027c FFF7FEFF 		bl	ip4_addr_isbroadcast_u32
 662              	.LVL56:
 663 0280 0028     		cmp	r0, #0
 664 0282 0ED1     		bne	.L41
 702:Source\LwIP\src\core\ipv4/ip4.c ****           !ip4_addr_ismulticast(ip4_current_dest_addr())) {
 665              		.loc 1 702 0 discriminator 1
 666 0284 144B     		ldr	r3, .L51+4
 667 0286 5B69     		ldr	r3, [r3, #20]
 668 0288 F022     		movs	r2, #240
 669 028a 1340     		ands	r3, r2
 701:Source\LwIP\src\core\ipv4/ip4.c ****           !ip4_addr_ismulticast(ip4_current_dest_addr())) {
 670              		.loc 1 701 0 discriminator 1
 671 028c E02B     		cmp	r3, #224
 672 028e 08D0     		beq	.L41
 703:Source\LwIP\src\core\ipv4/ip4.c ****         pbuf_header_force(p, iphdr_hlen); /* Move to ip header, no check necessary. */
 673              		.loc 1 703 0
 674 0290 31B2     		sxth	r1, r6
 675 0292 2800     		movs	r0, r5
 676 0294 FFF7FEFF 		bl	pbuf_header_force
 677              	.LVL57:
 704:Source\LwIP\src\core\ipv4/ip4.c ****         p->payload = iphdr;
 678              		.loc 1 704 0
 679 0298 6F60     		str	r7, [r5, #4]
 705:Source\LwIP\src\core\ipv4/ip4.c ****         icmp_dest_unreach(p, ICMP_DUR_PROTO);
 680              		.loc 1 705 0
 681 029a 0221     		movs	r1, #2
 682 029c 2800     		movs	r0, r5
 683 029e FFF7FEFF 		bl	icmp_dest_unreach
 684              	.LVL58:
 685              	.L41:
 706:Source\LwIP\src\core\ipv4/ip4.c ****       }
 707:Source\LwIP\src\core\ipv4/ip4.c **** #endif /* LWIP_ICMP */
 708:Source\LwIP\src\core\ipv4/ip4.c ****       pbuf_free(p);
 686              		.loc 1 708 0
 687 02a2 2800     		movs	r0, r5
 688 02a4 FFF7FEFF 		bl	pbuf_free
 689              	.LVL59:
 709:Source\LwIP\src\core\ipv4/ip4.c **** 
 710:Source\LwIP\src\core\ipv4/ip4.c ****       LWIP_DEBUGF(IP_DEBUG | LWIP_DBG_LEVEL_SERIOUS, ("Unsupported transport protocol %"U16_F"\n", 
 711:Source\LwIP\src\core\ipv4/ip4.c **** 
 712:Source\LwIP\src\core\ipv4/ip4.c ****       IP_STATS_INC(ip.proterr);
 690              		.loc 1 712 0
 691 02a8 0A4B     		ldr	r3, .L51
 692 02aa 5821     		movs	r1, #88
 693 02ac 5A5A     		ldrh	r2, [r3, r1]
 694 02ae 0132     		adds	r2, r2, #1
 695 02b0 5A52     		strh	r2, [r3, r1]
 713:Source\LwIP\src\core\ipv4/ip4.c ****       IP_STATS_INC(ip.drop);
 696              		.loc 1 713 0
 697 02b2 0A39     		subs	r1, r1, #10
ARM GAS  C:\Users\Phuong\AppData\Local\Temp\ccYoYbaR.s 			page 26


 698 02b4 5A5A     		ldrh	r2, [r3, r1]
 699 02b6 0132     		adds	r2, r2, #1
 700 02b8 5A52     		strh	r2, [r3, r1]
 701              	.L34:
 714:Source\LwIP\src\core\ipv4/ip4.c ****       MIB2_STATS_INC(mib2.ipinunknownprotos);
 715:Source\LwIP\src\core\ipv4/ip4.c ****     }
 716:Source\LwIP\src\core\ipv4/ip4.c ****   }
 717:Source\LwIP\src\core\ipv4/ip4.c **** 
 718:Source\LwIP\src\core\ipv4/ip4.c ****   /* @todo: this is not really necessary... */
 719:Source\LwIP\src\core\ipv4/ip4.c ****   ip_data.current_netif = NULL;
 702              		.loc 1 719 0
 703 02ba 074B     		ldr	r3, .L51+4
 704 02bc 0022     		movs	r2, #0
 705 02be 1A60     		str	r2, [r3]
 720:Source\LwIP\src\core\ipv4/ip4.c ****   ip_data.current_input_netif = NULL;
 706              		.loc 1 720 0
 707 02c0 5A60     		str	r2, [r3, #4]
 721:Source\LwIP\src\core\ipv4/ip4.c ****   ip_data.current_ip4_header = NULL;
 708              		.loc 1 721 0
 709 02c2 9A60     		str	r2, [r3, #8]
 722:Source\LwIP\src\core\ipv4/ip4.c ****   ip_data.current_ip_header_tot_len = 0;
 710              		.loc 1 722 0
 711 02c4 9A81     		strh	r2, [r3, #12]
 723:Source\LwIP\src\core\ipv4/ip4.c ****   ip4_addr_set_any(ip4_current_src_addr());
 712              		.loc 1 723 0
 713 02c6 1A61     		str	r2, [r3, #16]
 724:Source\LwIP\src\core\ipv4/ip4.c ****   ip4_addr_set_any(ip4_current_dest_addr());
 714              		.loc 1 724 0
 715 02c8 5A61     		str	r2, [r3, #20]
 716              	.LVL60:
 717              	.L17:
 725:Source\LwIP\src\core\ipv4/ip4.c **** 
 726:Source\LwIP\src\core\ipv4/ip4.c ****   return ERR_OK;
 727:Source\LwIP\src\core\ipv4/ip4.c **** }
 718              		.loc 1 727 0
 719 02ca 0020     		movs	r0, #0
 720              		@ sp needed
 721              	.LVL61:
 722              	.LVL62:
 723              	.LVL63:
 724 02cc 0CBC     		pop	{r2, r3}
 725 02ce 9046     		mov	r8, r2
 726 02d0 9946     		mov	r9, r3
 727 02d2 F8BD     		pop	{r3, r4, r5, r6, r7, pc}
 728              	.L52:
 729              		.align	2
 730              	.L51:
 731 02d4 00000000 		.word	lwip_stats
 732 02d8 00000000 		.word	ip_data
 733 02dc 14000000 		.word	ip_data+20
 734 02e0 E0000001 		.word	16777440
 735 02e4 00000000 		.word	netif_list
 736              		.cfi_endproc
 737              	.LFE55:
 738              		.size	ip4_input, .-ip4_input
 739              		.section	.text.ip4_output_if_opt_src,"ax",%progbits
 740              		.align	2
ARM GAS  C:\Users\Phuong\AppData\Local\Temp\ccYoYbaR.s 			page 27


 741              		.global	ip4_output_if_opt_src
 742              		.code	16
 743              		.thumb_func
 744              		.type	ip4_output_if_opt_src, %function
 745              	ip4_output_if_opt_src:
 746              	.LFB59:
 728:Source\LwIP\src\core\ipv4/ip4.c **** 
 729:Source\LwIP\src\core\ipv4/ip4.c **** /**
 730:Source\LwIP\src\core\ipv4/ip4.c ****  * Sends an IP packet on a network interface. This function constructs
 731:Source\LwIP\src\core\ipv4/ip4.c ****  * the IP header and calculates the IP header checksum. If the source
 732:Source\LwIP\src\core\ipv4/ip4.c ****  * IP address is NULL, the IP address of the outgoing network
 733:Source\LwIP\src\core\ipv4/ip4.c ****  * interface is filled in as source address.
 734:Source\LwIP\src\core\ipv4/ip4.c ****  * If the destination IP address is LWIP_IP_HDRINCL, p is assumed to already
 735:Source\LwIP\src\core\ipv4/ip4.c ****  * include an IP header and p->payload points to it instead of the data.
 736:Source\LwIP\src\core\ipv4/ip4.c ****  *
 737:Source\LwIP\src\core\ipv4/ip4.c ****  * @param p the packet to send (p->payload points to the data, e.g. next
 738:Source\LwIP\src\core\ipv4/ip4.c ****             protocol header; if dest == LWIP_IP_HDRINCL, p already includes an
 739:Source\LwIP\src\core\ipv4/ip4.c ****             IP header and p->payload points to that IP header)
 740:Source\LwIP\src\core\ipv4/ip4.c ****  * @param src the source IP address to send from (if src == IP4_ADDR_ANY, the
 741:Source\LwIP\src\core\ipv4/ip4.c ****  *         IP  address of the netif used to send is used as source address)
 742:Source\LwIP\src\core\ipv4/ip4.c ****  * @param dest the destination IP address to send the packet to
 743:Source\LwIP\src\core\ipv4/ip4.c ****  * @param ttl the TTL value to be set in the IP header
 744:Source\LwIP\src\core\ipv4/ip4.c ****  * @param tos the TOS value to be set in the IP header
 745:Source\LwIP\src\core\ipv4/ip4.c ****  * @param proto the PROTOCOL to be set in the IP header
 746:Source\LwIP\src\core\ipv4/ip4.c ****  * @param netif the netif on which to send this packet
 747:Source\LwIP\src\core\ipv4/ip4.c ****  * @return ERR_OK if the packet was sent OK
 748:Source\LwIP\src\core\ipv4/ip4.c ****  *         ERR_BUF if p doesn't have enough space for IP/LINK headers
 749:Source\LwIP\src\core\ipv4/ip4.c ****  *         returns errors returned by netif->output
 750:Source\LwIP\src\core\ipv4/ip4.c ****  *
 751:Source\LwIP\src\core\ipv4/ip4.c ****  * @note ip_id: RFC791 "some host may be able to simply use
 752:Source\LwIP\src\core\ipv4/ip4.c ****  *  unique identifiers independent of destination"
 753:Source\LwIP\src\core\ipv4/ip4.c ****  */
 754:Source\LwIP\src\core\ipv4/ip4.c **** err_t
 755:Source\LwIP\src\core\ipv4/ip4.c **** ip4_output_if(struct pbuf *p, const ip4_addr_t *src, const ip4_addr_t *dest,
 756:Source\LwIP\src\core\ipv4/ip4.c ****              u8_t ttl, u8_t tos,
 757:Source\LwIP\src\core\ipv4/ip4.c ****              u8_t proto, struct netif *netif)
 758:Source\LwIP\src\core\ipv4/ip4.c **** {
 759:Source\LwIP\src\core\ipv4/ip4.c **** #if IP_OPTIONS_SEND
 760:Source\LwIP\src\core\ipv4/ip4.c ****   return ip4_output_if_opt(p, src, dest, ttl, tos, proto, netif, NULL, 0);
 761:Source\LwIP\src\core\ipv4/ip4.c **** }
 762:Source\LwIP\src\core\ipv4/ip4.c **** 
 763:Source\LwIP\src\core\ipv4/ip4.c **** /**
 764:Source\LwIP\src\core\ipv4/ip4.c ****  * Same as ip_output_if() but with the possibility to include IP options:
 765:Source\LwIP\src\core\ipv4/ip4.c ****  *
 766:Source\LwIP\src\core\ipv4/ip4.c ****  * @ param ip_options pointer to the IP options, copied into the IP header
 767:Source\LwIP\src\core\ipv4/ip4.c ****  * @ param optlen length of ip_options
 768:Source\LwIP\src\core\ipv4/ip4.c ****  */
 769:Source\LwIP\src\core\ipv4/ip4.c **** err_t
 770:Source\LwIP\src\core\ipv4/ip4.c **** ip4_output_if_opt(struct pbuf *p, const ip4_addr_t *src, const ip4_addr_t *dest,
 771:Source\LwIP\src\core\ipv4/ip4.c ****        u8_t ttl, u8_t tos, u8_t proto, struct netif *netif, void *ip_options,
 772:Source\LwIP\src\core\ipv4/ip4.c ****        u16_t optlen)
 773:Source\LwIP\src\core\ipv4/ip4.c **** {
 774:Source\LwIP\src\core\ipv4/ip4.c **** #endif /* IP_OPTIONS_SEND */
 775:Source\LwIP\src\core\ipv4/ip4.c ****   const ip4_addr_t *src_used = src;
 776:Source\LwIP\src\core\ipv4/ip4.c ****   if (dest != LWIP_IP_HDRINCL) {
 777:Source\LwIP\src\core\ipv4/ip4.c ****     if (ip4_addr_isany(src)) {
 778:Source\LwIP\src\core\ipv4/ip4.c ****       src_used = netif_ip4_addr(netif);
ARM GAS  C:\Users\Phuong\AppData\Local\Temp\ccYoYbaR.s 			page 28


 779:Source\LwIP\src\core\ipv4/ip4.c ****     }
 780:Source\LwIP\src\core\ipv4/ip4.c ****   }
 781:Source\LwIP\src\core\ipv4/ip4.c **** 
 782:Source\LwIP\src\core\ipv4/ip4.c **** #if IP_OPTIONS_SEND
 783:Source\LwIP\src\core\ipv4/ip4.c ****   return ip4_output_if_opt_src(p, src_used, dest, ttl, tos, proto, netif,
 784:Source\LwIP\src\core\ipv4/ip4.c ****     ip_options, optlen);
 785:Source\LwIP\src\core\ipv4/ip4.c **** #else /* IP_OPTIONS_SEND */
 786:Source\LwIP\src\core\ipv4/ip4.c ****   return ip4_output_if_src(p, src_used, dest, ttl, tos, proto, netif);
 787:Source\LwIP\src\core\ipv4/ip4.c **** #endif /* IP_OPTIONS_SEND */
 788:Source\LwIP\src\core\ipv4/ip4.c **** }
 789:Source\LwIP\src\core\ipv4/ip4.c **** 
 790:Source\LwIP\src\core\ipv4/ip4.c **** /**
 791:Source\LwIP\src\core\ipv4/ip4.c ****  * Same as ip_output_if() but 'src' address is not replaced by netif address
 792:Source\LwIP\src\core\ipv4/ip4.c ****  * when it is 'any'.
 793:Source\LwIP\src\core\ipv4/ip4.c ****  */
 794:Source\LwIP\src\core\ipv4/ip4.c **** err_t
 795:Source\LwIP\src\core\ipv4/ip4.c **** ip4_output_if_src(struct pbuf *p, const ip4_addr_t *src, const ip4_addr_t *dest,
 796:Source\LwIP\src\core\ipv4/ip4.c ****              u8_t ttl, u8_t tos,
 797:Source\LwIP\src\core\ipv4/ip4.c ****              u8_t proto, struct netif *netif)
 798:Source\LwIP\src\core\ipv4/ip4.c **** {
 799:Source\LwIP\src\core\ipv4/ip4.c **** #if IP_OPTIONS_SEND
 800:Source\LwIP\src\core\ipv4/ip4.c ****   return ip4_output_if_opt_src(p, src, dest, ttl, tos, proto, netif, NULL, 0);
 801:Source\LwIP\src\core\ipv4/ip4.c **** }
 802:Source\LwIP\src\core\ipv4/ip4.c **** 
 803:Source\LwIP\src\core\ipv4/ip4.c **** /**
 804:Source\LwIP\src\core\ipv4/ip4.c ****  * Same as ip_output_if_opt() but 'src' address is not replaced by netif address
 805:Source\LwIP\src\core\ipv4/ip4.c ****  * when it is 'any'.
 806:Source\LwIP\src\core\ipv4/ip4.c ****  */
 807:Source\LwIP\src\core\ipv4/ip4.c **** err_t
 808:Source\LwIP\src\core\ipv4/ip4.c **** ip4_output_if_opt_src(struct pbuf *p, const ip4_addr_t *src, const ip4_addr_t *dest,
 809:Source\LwIP\src\core\ipv4/ip4.c ****        u8_t ttl, u8_t tos, u8_t proto, struct netif *netif, void *ip_options,
 810:Source\LwIP\src\core\ipv4/ip4.c ****        u16_t optlen)
 811:Source\LwIP\src\core\ipv4/ip4.c **** {
 747              		.loc 1 811 0
 748              		.cfi_startproc
 749              		@ args = 20, pretend = 0, frame = 16
 750              		@ frame_needed = 0, uses_anonymous_args = 0
 751              	.LVL64:
 752 0000 F0B5     		push	{r4, r5, r6, r7, lr}
 753              		.cfi_def_cfa_offset 20
 754              		.cfi_offset 4, -20
 755              		.cfi_offset 5, -16
 756              		.cfi_offset 6, -12
 757              		.cfi_offset 7, -8
 758              		.cfi_offset 14, -4
 759 0002 5F46     		mov	r7, fp
 760 0004 5646     		mov	r6, r10
 761 0006 4D46     		mov	r5, r9
 762 0008 4446     		mov	r4, r8
 763 000a F0B4     		push	{r4, r5, r6, r7}
 764              		.cfi_def_cfa_offset 36
 765              		.cfi_offset 8, -36
 766              		.cfi_offset 9, -32
 767              		.cfi_offset 10, -28
 768              		.cfi_offset 11, -24
 769 000c 85B0     		sub	sp, sp, #20
 770              		.cfi_def_cfa_offset 56
ARM GAS  C:\Users\Phuong\AppData\Local\Temp\ccYoYbaR.s 			page 29


 771 000e 0500     		movs	r5, r0
 772 0010 8B46     		mov	fp, r1
 773 0012 9046     		mov	r8, r2
 774 0014 1F00     		movs	r7, r3
 775 0016 0EAB     		add	r3, sp, #56
 776              	.LVL65:
 777 0018 1B78     		ldrb	r3, [r3]
 778              	.LVL66:
 779 001a 9946     		mov	r9, r3
 780 001c 0FAB     		add	r3, sp, #60
 781              	.LVL67:
 782 001e 1B78     		ldrb	r3, [r3]
 783              	.LVL68:
 784 0020 9A46     		mov	r10, r3
 785 0022 12AB     		add	r3, sp, #72
 786              	.LVL69:
 787 0024 1E88     		ldrh	r6, [r3]
 788              	.LVL70:
 812:Source\LwIP\src\core\ipv4/ip4.c **** #endif /* IP_OPTIONS_SEND */
 813:Source\LwIP\src\core\ipv4/ip4.c ****   struct ip_hdr *iphdr;
 814:Source\LwIP\src\core\ipv4/ip4.c ****   ip4_addr_t dest_addr;
 815:Source\LwIP\src\core\ipv4/ip4.c **** #if CHECKSUM_GEN_IP_INLINE
 816:Source\LwIP\src\core\ipv4/ip4.c ****   u32_t chk_sum = 0;
 817:Source\LwIP\src\core\ipv4/ip4.c **** #endif /* CHECKSUM_GEN_IP_INLINE */
 818:Source\LwIP\src\core\ipv4/ip4.c **** 
 819:Source\LwIP\src\core\ipv4/ip4.c ****   LWIP_IP_CHECK_PBUF_REF_COUNT_FOR_TX(p);
 820:Source\LwIP\src\core\ipv4/ip4.c **** 
 821:Source\LwIP\src\core\ipv4/ip4.c ****   MIB2_STATS_INC(mib2.ipoutrequests);
 822:Source\LwIP\src\core\ipv4/ip4.c **** 
 823:Source\LwIP\src\core\ipv4/ip4.c ****   /* Should the IP header be generated or is it already included in p? */
 824:Source\LwIP\src\core\ipv4/ip4.c ****   if (dest != LWIP_IP_HDRINCL) {
 789              		.loc 1 824 0
 790 0026 002A     		cmp	r2, #0
 791 0028 00D1     		bne	.LCB799
 792 002a B0E0     		b	.L54	@long jump
 793              	.LCB799:
 794              	.LVL71:
 795              	.LBB8:
 825:Source\LwIP\src\core\ipv4/ip4.c ****     u16_t ip_hlen = IP_HLEN;
 826:Source\LwIP\src\core\ipv4/ip4.c **** #if IP_OPTIONS_SEND
 827:Source\LwIP\src\core\ipv4/ip4.c ****     u16_t optlen_aligned = 0;
 828:Source\LwIP\src\core\ipv4/ip4.c ****     if (optlen != 0) {
 796              		.loc 1 828 0
 797 002c 002E     		cmp	r6, #0
 798 002e 2DD0     		beq	.L66
 799              	.LBB9:
 829:Source\LwIP\src\core\ipv4/ip4.c **** #if CHECKSUM_GEN_IP_INLINE
 830:Source\LwIP\src\core\ipv4/ip4.c ****       int i;
 831:Source\LwIP\src\core\ipv4/ip4.c **** #endif /* CHECKSUM_GEN_IP_INLINE */
 832:Source\LwIP\src\core\ipv4/ip4.c ****       /* round up to a multiple of 4 */
 833:Source\LwIP\src\core\ipv4/ip4.c ****       optlen_aligned = ((optlen + 3) & ~3);
 800              		.loc 1 833 0
 801 0030 F41C     		adds	r4, r6, #3
 802 0032 0323     		movs	r3, #3
 803              	.LVL72:
 804 0034 9C43     		bics	r4, r3
 805 0036 A4B2     		uxth	r4, r4
ARM GAS  C:\Users\Phuong\AppData\Local\Temp\ccYoYbaR.s 			page 30


 806              	.LVL73:
 834:Source\LwIP\src\core\ipv4/ip4.c ****       ip_hlen += optlen_aligned;
 807              		.loc 1 834 0
 808 0038 2300     		movs	r3, r4
 809 003a 1433     		adds	r3, r3, #20
 810 003c 9BB2     		uxth	r3, r3
 811 003e 0193     		str	r3, [sp, #4]
 812              	.LVL74:
 835:Source\LwIP\src\core\ipv4/ip4.c ****       /* First write in the IP options */
 836:Source\LwIP\src\core\ipv4/ip4.c ****       if (pbuf_header(p, optlen_aligned)) {
 813              		.loc 1 836 0
 814 0040 21B2     		sxth	r1, r4
 815              	.LVL75:
 816 0042 FFF7FEFF 		bl	pbuf_header
 817              	.LVL76:
 818 0046 0028     		cmp	r0, #0
 819 0048 07D0     		beq	.L56
 837:Source\LwIP\src\core\ipv4/ip4.c ****         LWIP_DEBUGF(IP_DEBUG | LWIP_DBG_LEVEL_SERIOUS, ("ip4_output_if_opt: not enough room for IP 
 838:Source\LwIP\src\core\ipv4/ip4.c ****         IP_STATS_INC(ip.err);
 820              		.loc 1 838 0
 821 004a 6849     		ldr	r1, .L67
 822 004c 5C22     		movs	r2, #92
 823 004e 8B5A     		ldrh	r3, [r1, r2]
 824 0050 0133     		adds	r3, r3, #1
 825 0052 8B52     		strh	r3, [r1, r2]
 839:Source\LwIP\src\core\ipv4/ip4.c ****         MIB2_STATS_INC(mib2.ipoutdiscards);
 840:Source\LwIP\src\core\ipv4/ip4.c ****         return ERR_BUF;
 826              		.loc 1 840 0
 827 0054 0220     		movs	r0, #2
 828 0056 4042     		rsbs	r0, r0, #0
 829 0058 C0E0     		b	.L57
 830              	.L56:
 841:Source\LwIP\src\core\ipv4/ip4.c ****       }
 842:Source\LwIP\src\core\ipv4/ip4.c ****       MEMCPY(p->payload, ip_options, optlen);
 831              		.loc 1 842 0
 832 005a 3200     		movs	r2, r6
 833 005c 1199     		ldr	r1, [sp, #68]
 834 005e 6868     		ldr	r0, [r5, #4]
 835 0060 FFF7FEFF 		bl	memcpy
 836              	.LVL77:
 843:Source\LwIP\src\core\ipv4/ip4.c ****       if (optlen < optlen_aligned) {
 837              		.loc 1 843 0
 838 0064 A642     		cmp	r6, r4
 839 0066 05D2     		bcs	.L58
 844:Source\LwIP\src\core\ipv4/ip4.c ****         /* zero the remaining bytes */
 845:Source\LwIP\src\core\ipv4/ip4.c ****         memset(((char*)p->payload) + optlen, 0, optlen_aligned - optlen);
 840              		.loc 1 845 0
 841 0068 A21B     		subs	r2, r4, r6
 842 006a 6B68     		ldr	r3, [r5, #4]
 843 006c 9819     		adds	r0, r3, r6
 844 006e 0021     		movs	r1, #0
 845 0070 FFF7FEFF 		bl	memset
 846              	.LVL78:
 847              	.L58:
 846:Source\LwIP\src\core\ipv4/ip4.c ****       }
 847:Source\LwIP\src\core\ipv4/ip4.c **** #if CHECKSUM_GEN_IP_INLINE
 848:Source\LwIP\src\core\ipv4/ip4.c ****       for (i = 0; i < optlen_aligned/2; i++) {
ARM GAS  C:\Users\Phuong\AppData\Local\Temp\ccYoYbaR.s 			page 31


 848              		.loc 1 848 0
 849 0074 0023     		movs	r3, #0
 850              	.LBE9:
 851              	.LBE8:
 816:Source\LwIP\src\core\ipv4/ip4.c **** #endif /* CHECKSUM_GEN_IP_INLINE */
 852              		.loc 1 816 0
 853 0076 0026     		movs	r6, #0
 854              	.LBB11:
 855              	.LBB10:
 856              		.loc 1 848 0
 857 0078 04E0     		b	.L59
 858              	.LVL79:
 859              	.L60:
 849:Source\LwIP\src\core\ipv4/ip4.c ****         chk_sum += ((u16_t*)p->payload)[i];
 860              		.loc 1 849 0 discriminator 3
 861 007a 5A00     		lsls	r2, r3, #1
 862 007c 6968     		ldr	r1, [r5, #4]
 863 007e 525A     		ldrh	r2, [r2, r1]
 864 0080 B618     		adds	r6, r6, r2
 865              	.LVL80:
 848:Source\LwIP\src\core\ipv4/ip4.c ****         chk_sum += ((u16_t*)p->payload)[i];
 866              		.loc 1 848 0 discriminator 3
 867 0082 0133     		adds	r3, r3, #1
 868              	.LVL81:
 869              	.L59:
 848:Source\LwIP\src\core\ipv4/ip4.c ****         chk_sum += ((u16_t*)p->payload)[i];
 870              		.loc 1 848 0 is_stmt 0 discriminator 1
 871 0084 6208     		lsrs	r2, r4, #1
 872 0086 9342     		cmp	r3, r2
 873 0088 F7DB     		blt	.L60
 874 008a 02E0     		b	.L55
 875              	.LVL82:
 876              	.L66:
 877              	.LBE10:
 825:Source\LwIP\src\core\ipv4/ip4.c **** #if IP_OPTIONS_SEND
 878              		.loc 1 825 0 is_stmt 1
 879 008c 1423     		movs	r3, #20
 880              	.LVL83:
 881 008e 0193     		str	r3, [sp, #4]
 882              	.LBE11:
 816:Source\LwIP\src\core\ipv4/ip4.c **** #endif /* CHECKSUM_GEN_IP_INLINE */
 883              		.loc 1 816 0
 884 0090 0026     		movs	r6, #0
 885              	.LVL84:
 886              	.L55:
 887              	.LBB12:
 850:Source\LwIP\src\core\ipv4/ip4.c ****       }
 851:Source\LwIP\src\core\ipv4/ip4.c **** #endif /* CHECKSUM_GEN_IP_INLINE */
 852:Source\LwIP\src\core\ipv4/ip4.c ****     }
 853:Source\LwIP\src\core\ipv4/ip4.c **** #endif /* IP_OPTIONS_SEND */
 854:Source\LwIP\src\core\ipv4/ip4.c ****     /* generate IP header */
 855:Source\LwIP\src\core\ipv4/ip4.c ****     if (pbuf_header(p, IP_HLEN)) {
 888              		.loc 1 855 0
 889 0092 1421     		movs	r1, #20
 890 0094 2800     		movs	r0, r5
 891 0096 FFF7FEFF 		bl	pbuf_header
 892              	.LVL85:
ARM GAS  C:\Users\Phuong\AppData\Local\Temp\ccYoYbaR.s 			page 32


 893 009a 0028     		cmp	r0, #0
 894 009c 07D0     		beq	.L61
 856:Source\LwIP\src\core\ipv4/ip4.c ****       LWIP_DEBUGF(IP_DEBUG | LWIP_DBG_LEVEL_SERIOUS, ("ip4_output: not enough room for IP header in
 857:Source\LwIP\src\core\ipv4/ip4.c **** 
 858:Source\LwIP\src\core\ipv4/ip4.c ****       IP_STATS_INC(ip.err);
 895              		.loc 1 858 0
 896 009e 5349     		ldr	r1, .L67
 897 00a0 5C22     		movs	r2, #92
 898 00a2 8B5A     		ldrh	r3, [r1, r2]
 899 00a4 0133     		adds	r3, r3, #1
 900 00a6 8B52     		strh	r3, [r1, r2]
 859:Source\LwIP\src\core\ipv4/ip4.c ****       MIB2_STATS_INC(mib2.ipoutdiscards);
 860:Source\LwIP\src\core\ipv4/ip4.c ****       return ERR_BUF;
 901              		.loc 1 860 0
 902 00a8 0220     		movs	r0, #2
 903 00aa 4042     		rsbs	r0, r0, #0
 904 00ac 96E0     		b	.L57
 905              	.L61:
 861:Source\LwIP\src\core\ipv4/ip4.c ****     }
 862:Source\LwIP\src\core\ipv4/ip4.c **** 
 863:Source\LwIP\src\core\ipv4/ip4.c ****     iphdr = (struct ip_hdr *)p->payload;
 906              		.loc 1 863 0
 907 00ae 6C68     		ldr	r4, [r5, #4]
 908              	.LVL86:
 864:Source\LwIP\src\core\ipv4/ip4.c ****     LWIP_ASSERT("check that first pbuf can hold struct ip_hdr",
 865:Source\LwIP\src\core\ipv4/ip4.c ****                (p->len >= sizeof(struct ip_hdr)));
 866:Source\LwIP\src\core\ipv4/ip4.c **** 
 867:Source\LwIP\src\core\ipv4/ip4.c ****     IPH_TTL_SET(iphdr, ttl);
 909              		.loc 1 867 0
 910 00b0 2772     		strb	r7, [r4, #8]
 868:Source\LwIP\src\core\ipv4/ip4.c ****     IPH_PROTO_SET(iphdr, proto);
 911              		.loc 1 868 0
 912 00b2 5346     		mov	r3, r10
 913 00b4 6372     		strb	r3, [r4, #9]
 869:Source\LwIP\src\core\ipv4/ip4.c **** #if CHECKSUM_GEN_IP_INLINE
 870:Source\LwIP\src\core\ipv4/ip4.c ****     chk_sum += PP_NTOHS(proto | (ttl << 8));
 914              		.loc 1 870 0
 915 00b6 3F02     		lsls	r7, r7, #8
 916 00b8 5346     		mov	r3, r10
 917 00ba 3B43     		orrs	r3, r7
 918 00bc 1A06     		lsls	r2, r3, #24
 919 00be 120C     		lsrs	r2, r2, #16
 920 00c0 1F0A     		lsrs	r7, r3, #8
 921 00c2 1743     		orrs	r7, r2
 922 00c4 F619     		adds	r6, r6, r7
 923              	.LVL87:
 871:Source\LwIP\src\core\ipv4/ip4.c **** #endif /* CHECKSUM_GEN_IP_INLINE */
 872:Source\LwIP\src\core\ipv4/ip4.c **** 
 873:Source\LwIP\src\core\ipv4/ip4.c ****     /* dest cannot be NULL here */
 874:Source\LwIP\src\core\ipv4/ip4.c ****     ip4_addr_copy(iphdr->dest, *dest);
 924              		.loc 1 874 0
 925 00c6 4346     		mov	r3, r8
 926 00c8 1A68     		ldr	r2, [r3]
 927 00ca 2274     		strb	r2, [r4, #16]
 928 00cc 130A     		lsrs	r3, r2, #8
 929 00ce 6374     		strb	r3, [r4, #17]
 930 00d0 130C     		lsrs	r3, r2, #16
ARM GAS  C:\Users\Phuong\AppData\Local\Temp\ccYoYbaR.s 			page 33


 931 00d2 A374     		strb	r3, [r4, #18]
 932 00d4 110E     		lsrs	r1, r2, #24
 933 00d6 E174     		strb	r1, [r4, #19]
 875:Source\LwIP\src\core\ipv4/ip4.c **** #if CHECKSUM_GEN_IP_INLINE
 876:Source\LwIP\src\core\ipv4/ip4.c ****     chk_sum += ip4_addr_get_u32(&iphdr->dest) & 0xFFFF;
 934              		.loc 1 876 0
 935 00d8 1204     		lsls	r2, r2, #16
 936 00da 120C     		lsrs	r2, r2, #16
 937 00dc B618     		adds	r6, r6, r2
 938              	.LVL88:
 877:Source\LwIP\src\core\ipv4/ip4.c ****     chk_sum += ip4_addr_get_u32(&iphdr->dest) >> 16;
 939              		.loc 1 877 0
 940 00de F618     		adds	r6, r6, r3
 941              	.LVL89:
 878:Source\LwIP\src\core\ipv4/ip4.c **** #endif /* CHECKSUM_GEN_IP_INLINE */
 879:Source\LwIP\src\core\ipv4/ip4.c **** 
 880:Source\LwIP\src\core\ipv4/ip4.c ****     IPH_VHL_SET(iphdr, 4, ip_hlen / 4);
 942              		.loc 1 880 0
 943 00e0 019B     		ldr	r3, [sp, #4]
 944 00e2 9A08     		lsrs	r2, r3, #2
 945 00e4 4023     		movs	r3, #64
 946 00e6 1A43     		orrs	r2, r3
 947 00e8 D3B2     		uxtb	r3, r2
 948 00ea 2370     		strb	r3, [r4]
 881:Source\LwIP\src\core\ipv4/ip4.c ****     IPH_TOS_SET(iphdr, tos);
 949              		.loc 1 881 0
 950 00ec 4A46     		mov	r2, r9
 951 00ee 6270     		strb	r2, [r4, #1]
 882:Source\LwIP\src\core\ipv4/ip4.c **** #if CHECKSUM_GEN_IP_INLINE
 883:Source\LwIP\src\core\ipv4/ip4.c ****     chk_sum += PP_NTOHS(tos | (iphdr->_v_hl << 8));
 952              		.loc 1 883 0
 953 00f0 1B02     		lsls	r3, r3, #8
 954 00f2 4A46     		mov	r2, r9
 955 00f4 1A43     		orrs	r2, r3
 956 00f6 1006     		lsls	r0, r2, #24
 957 00f8 000C     		lsrs	r0, r0, #16
 958 00fa 130A     		lsrs	r3, r2, #8
 959 00fc 0343     		orrs	r3, r0
 960 00fe F618     		adds	r6, r6, r3
 961              	.LVL90:
 884:Source\LwIP\src\core\ipv4/ip4.c **** #endif /* CHECKSUM_GEN_IP_INLINE */
 885:Source\LwIP\src\core\ipv4/ip4.c ****     IPH_LEN_SET(iphdr, lwip_htons(p->tot_len));
 962              		.loc 1 885 0
 963 0100 2889     		ldrh	r0, [r5, #8]
 964 0102 FFF7FEFF 		bl	lwip_htons
 965              	.LVL91:
 966 0106 A070     		strb	r0, [r4, #2]
 967 0108 030A     		lsrs	r3, r0, #8
 968 010a E370     		strb	r3, [r4, #3]
 886:Source\LwIP\src\core\ipv4/ip4.c **** #if CHECKSUM_GEN_IP_INLINE
 887:Source\LwIP\src\core\ipv4/ip4.c ****     chk_sum += iphdr->_len;
 969              		.loc 1 887 0
 970 010c 8619     		adds	r6, r0, r6
 971              	.LVL92:
 888:Source\LwIP\src\core\ipv4/ip4.c **** #endif /* CHECKSUM_GEN_IP_INLINE */
 889:Source\LwIP\src\core\ipv4/ip4.c ****     IPH_OFFSET_SET(iphdr, 0);
 972              		.loc 1 889 0
ARM GAS  C:\Users\Phuong\AppData\Local\Temp\ccYoYbaR.s 			page 34


 973 010e 0023     		movs	r3, #0
 974 0110 A371     		strb	r3, [r4, #6]
 975 0112 E371     		strb	r3, [r4, #7]
 890:Source\LwIP\src\core\ipv4/ip4.c ****     IPH_ID_SET(iphdr, lwip_htons(ip_id));
 976              		.loc 1 890 0
 977 0114 364F     		ldr	r7, .L67+4
 978 0116 B888     		ldrh	r0, [r7, #4]
 979 0118 FFF7FEFF 		bl	lwip_htons
 980              	.LVL93:
 981 011c 2071     		strb	r0, [r4, #4]
 982 011e 030A     		lsrs	r3, r0, #8
 983 0120 6371     		strb	r3, [r4, #5]
 891:Source\LwIP\src\core\ipv4/ip4.c **** #if CHECKSUM_GEN_IP_INLINE
 892:Source\LwIP\src\core\ipv4/ip4.c ****     chk_sum += iphdr->_id;
 984              		.loc 1 892 0
 985 0122 8319     		adds	r3, r0, r6
 986              	.LVL94:
 893:Source\LwIP\src\core\ipv4/ip4.c **** #endif /* CHECKSUM_GEN_IP_INLINE */
 894:Source\LwIP\src\core\ipv4/ip4.c ****     ++ip_id;
 987              		.loc 1 894 0
 988 0124 BA88     		ldrh	r2, [r7, #4]
 989 0126 0132     		adds	r2, r2, #1
 990 0128 BA80     		strh	r2, [r7, #4]
 895:Source\LwIP\src\core\ipv4/ip4.c **** 
 896:Source\LwIP\src\core\ipv4/ip4.c ****     if (src == NULL) {
 991              		.loc 1 896 0
 992 012a 5A46     		mov	r2, fp
 993 012c 002A     		cmp	r2, #0
 994 012e 09D1     		bne	.L62
 995              	.LVL95:
 897:Source\LwIP\src\core\ipv4/ip4.c ****       ip4_addr_copy(iphdr->src, *IP4_ADDR_ANY4);
 996              		.loc 1 897 0
 997 0130 304A     		ldr	r2, .L67+8
 998              	.LVL96:
 999 0132 1268     		ldr	r2, [r2]
 1000 0134 2273     		strb	r2, [r4, #12]
 1001 0136 110A     		lsrs	r1, r2, #8
 1002 0138 6173     		strb	r1, [r4, #13]
 1003 013a 110C     		lsrs	r1, r2, #16
 1004 013c A173     		strb	r1, [r4, #14]
 1005 013e 120E     		lsrs	r2, r2, #24
 1006 0140 E273     		strb	r2, [r4, #15]
 1007 0142 08E0     		b	.L63
 1008              	.LVL97:
 1009              	.L62:
 898:Source\LwIP\src\core\ipv4/ip4.c ****     } else {
 899:Source\LwIP\src\core\ipv4/ip4.c ****       /* src cannot be NULL here */
 900:Source\LwIP\src\core\ipv4/ip4.c ****       ip4_addr_copy(iphdr->src, *src);
 1010              		.loc 1 900 0
 1011 0144 5A46     		mov	r2, fp
 1012              	.LVL98:
 1013 0146 1268     		ldr	r2, [r2]
 1014 0148 2273     		strb	r2, [r4, #12]
 1015 014a 110A     		lsrs	r1, r2, #8
 1016 014c 6173     		strb	r1, [r4, #13]
 1017 014e 110C     		lsrs	r1, r2, #16
 1018 0150 A173     		strb	r1, [r4, #14]
ARM GAS  C:\Users\Phuong\AppData\Local\Temp\ccYoYbaR.s 			page 35


 1019 0152 120E     		lsrs	r2, r2, #24
 1020 0154 E273     		strb	r2, [r4, #15]
 1021              	.L63:
 901:Source\LwIP\src\core\ipv4/ip4.c ****     }
 902:Source\LwIP\src\core\ipv4/ip4.c **** 
 903:Source\LwIP\src\core\ipv4/ip4.c **** #if CHECKSUM_GEN_IP_INLINE
 904:Source\LwIP\src\core\ipv4/ip4.c ****     chk_sum += ip4_addr_get_u32(&iphdr->src) & 0xFFFF;
 1022              		.loc 1 904 0
 1023 0156 277B     		ldrb	r7, [r4, #12]
 1024 0158 617B     		ldrb	r1, [r4, #13]
 1025 015a 0902     		lsls	r1, r1, #8
 1026 015c 3943     		orrs	r1, r7
 1027 015e A27B     		ldrb	r2, [r4, #14]
 1028 0160 1204     		lsls	r2, r2, #16
 1029 0162 0A43     		orrs	r2, r1
 1030 0164 1100     		movs	r1, r2
 1031 0166 E27B     		ldrb	r2, [r4, #15]
 1032 0168 1206     		lsls	r2, r2, #24
 1033 016a 0A43     		orrs	r2, r1
 1034 016c 1004     		lsls	r0, r2, #16
 1035 016e 000C     		lsrs	r0, r0, #16
 1036 0170 1818     		adds	r0, r3, r0
 1037              	.LVL99:
 905:Source\LwIP\src\core\ipv4/ip4.c ****     chk_sum += ip4_addr_get_u32(&iphdr->src) >> 16;
 1038              		.loc 1 905 0
 1039 0172 120C     		lsrs	r2, r2, #16
 1040 0174 8018     		adds	r0, r0, r2
 1041              	.LVL100:
 906:Source\LwIP\src\core\ipv4/ip4.c ****     chk_sum = (chk_sum >> 16) + (chk_sum & 0xFFFF);
 1042              		.loc 1 906 0
 1043 0176 030C     		lsrs	r3, r0, #16
 1044 0178 0004     		lsls	r0, r0, #16
 1045              	.LVL101:
 1046 017a 000C     		lsrs	r0, r0, #16
 1047 017c 1B18     		adds	r3, r3, r0
 1048              	.LVL102:
 907:Source\LwIP\src\core\ipv4/ip4.c ****     chk_sum = (chk_sum >> 16) + chk_sum;
 1049              		.loc 1 907 0
 1050 017e 1A0C     		lsrs	r2, r3, #16
 1051 0180 9B18     		adds	r3, r3, r2
 1052              	.LVL103:
 908:Source\LwIP\src\core\ipv4/ip4.c ****     chk_sum = ~chk_sum;
 1053              		.loc 1 908 0
 1054 0182 DB43     		mvns	r3, r3
 1055              	.LVL104:
 909:Source\LwIP\src\core\ipv4/ip4.c ****     IF__NETIF_CHECKSUM_ENABLED(netif, NETIF_CHECKSUM_GEN_IP) {
 910:Source\LwIP\src\core\ipv4/ip4.c ****       iphdr->_chksum = (u16_t)chk_sum; /* network order */
 1056              		.loc 1 910 0
 1057 0184 9BB2     		uxth	r3, r3
 1058              	.LVL105:
 1059 0186 A372     		strb	r3, [r4, #10]
 1060 0188 1B0A     		lsrs	r3, r3, #8
 1061 018a E372     		strb	r3, [r4, #11]
 1062              	.LBE12:
 1063 018c 0EE0     		b	.L64
 1064              	.LVL106:
 1065              	.L54:
ARM GAS  C:\Users\Phuong\AppData\Local\Temp\ccYoYbaR.s 			page 36


 911:Source\LwIP\src\core\ipv4/ip4.c ****     }
 912:Source\LwIP\src\core\ipv4/ip4.c **** #if LWIP_CHECKSUM_CTRL_PER_NETIF
 913:Source\LwIP\src\core\ipv4/ip4.c ****     else {
 914:Source\LwIP\src\core\ipv4/ip4.c ****       IPH_CHKSUM_SET(iphdr, 0);
 915:Source\LwIP\src\core\ipv4/ip4.c ****     }
 916:Source\LwIP\src\core\ipv4/ip4.c **** #endif /* LWIP_CHECKSUM_CTRL_PER_NETIF*/
 917:Source\LwIP\src\core\ipv4/ip4.c **** #else /* CHECKSUM_GEN_IP_INLINE */
 918:Source\LwIP\src\core\ipv4/ip4.c ****     IPH_CHKSUM_SET(iphdr, 0);
 919:Source\LwIP\src\core\ipv4/ip4.c **** #if CHECKSUM_GEN_IP
 920:Source\LwIP\src\core\ipv4/ip4.c ****     IF__NETIF_CHECKSUM_ENABLED(netif, NETIF_CHECKSUM_GEN_IP) {
 921:Source\LwIP\src\core\ipv4/ip4.c ****       IPH_CHKSUM_SET(iphdr, inet_chksum(iphdr, ip_hlen));
 922:Source\LwIP\src\core\ipv4/ip4.c ****     }
 923:Source\LwIP\src\core\ipv4/ip4.c **** #endif /* CHECKSUM_GEN_IP */
 924:Source\LwIP\src\core\ipv4/ip4.c **** #endif /* CHECKSUM_GEN_IP_INLINE */
 925:Source\LwIP\src\core\ipv4/ip4.c ****   } else {
 926:Source\LwIP\src\core\ipv4/ip4.c ****     /* IP header already included in p */
 927:Source\LwIP\src\core\ipv4/ip4.c ****     iphdr = (struct ip_hdr *)p->payload;
 1066              		.loc 1 927 0
 1067 018e 4468     		ldr	r4, [r0, #4]
 1068              	.LVL107:
 928:Source\LwIP\src\core\ipv4/ip4.c ****     ip4_addr_copy(dest_addr, iphdr->dest);
 1069              		.loc 1 928 0
 1070 0190 207C     		ldrb	r0, [r4, #16]
 1071              	.LVL108:
 1072 0192 627C     		ldrb	r2, [r4, #17]
 1073              	.LVL109:
 1074 0194 1202     		lsls	r2, r2, #8
 1075 0196 0243     		orrs	r2, r0
 1076 0198 A37C     		ldrb	r3, [r4, #18]
 1077              	.LVL110:
 1078 019a 1B04     		lsls	r3, r3, #16
 1079 019c 1343     		orrs	r3, r2
 1080 019e 1A00     		movs	r2, r3
 1081 01a0 E37C     		ldrb	r3, [r4, #19]
 1082 01a2 1B06     		lsls	r3, r3, #24
 1083 01a4 1343     		orrs	r3, r2
 1084 01a6 0393     		str	r3, [sp, #12]
 1085              	.LVL111:
 929:Source\LwIP\src\core\ipv4/ip4.c ****     dest = &dest_addr;
 1086              		.loc 1 929 0
 1087 01a8 03AB     		add	r3, sp, #12
 1088              	.LVL112:
 1089 01aa 9846     		mov	r8, r3
 1090              	.LVL113:
 1091              	.L64:
 930:Source\LwIP\src\core\ipv4/ip4.c ****   }
 931:Source\LwIP\src\core\ipv4/ip4.c **** 
 932:Source\LwIP\src\core\ipv4/ip4.c ****   IP_STATS_INC(ip.xmit);
 1092              		.loc 1 932 0
 1093 01ac 0F49     		ldr	r1, .L67
 1094 01ae 4822     		movs	r2, #72
 1095 01b0 8B5A     		ldrh	r3, [r1, r2]
 1096 01b2 0133     		adds	r3, r3, #1
 1097 01b4 8B52     		strh	r3, [r1, r2]
 933:Source\LwIP\src\core\ipv4/ip4.c **** 
 934:Source\LwIP\src\core\ipv4/ip4.c ****   LWIP_DEBUGF(IP_DEBUG, ("ip4_output_if: %c%c%"U16_F"\n", netif->name[0], netif->name[1], (u16_t)ne
 935:Source\LwIP\src\core\ipv4/ip4.c ****   ip4_debug_print(p);
ARM GAS  C:\Users\Phuong\AppData\Local\Temp\ccYoYbaR.s 			page 37


 936:Source\LwIP\src\core\ipv4/ip4.c **** 
 937:Source\LwIP\src\core\ipv4/ip4.c **** #if ENABLE_LOOPBACK
 938:Source\LwIP\src\core\ipv4/ip4.c ****   if (ip4_addr_cmp(dest, netif_ip4_addr(netif))
 939:Source\LwIP\src\core\ipv4/ip4.c **** #if !LWIP_HAVE_LOOPIF
 940:Source\LwIP\src\core\ipv4/ip4.c ****       || ip4_addr_isloopback(dest)
 941:Source\LwIP\src\core\ipv4/ip4.c **** #endif /* !LWIP_HAVE_LOOPIF */
 942:Source\LwIP\src\core\ipv4/ip4.c ****       ) {
 943:Source\LwIP\src\core\ipv4/ip4.c ****     /* Packet to self, enqueue it for loopback */
 944:Source\LwIP\src\core\ipv4/ip4.c ****     LWIP_DEBUGF(IP_DEBUG, ("netif_loop_output()"));
 945:Source\LwIP\src\core\ipv4/ip4.c ****     return netif_loop_output(netif, p);
 946:Source\LwIP\src\core\ipv4/ip4.c ****   }
 947:Source\LwIP\src\core\ipv4/ip4.c **** #if LWIP_MULTICAST_TX_OPTIONS
 948:Source\LwIP\src\core\ipv4/ip4.c ****   if ((p->flags & PBUF_FLAG_MCASTLOOP) != 0) {
 949:Source\LwIP\src\core\ipv4/ip4.c ****     netif_loop_output(netif, p);
 950:Source\LwIP\src\core\ipv4/ip4.c ****   }
 951:Source\LwIP\src\core\ipv4/ip4.c **** #endif /* LWIP_MULTICAST_TX_OPTIONS */
 952:Source\LwIP\src\core\ipv4/ip4.c **** #endif /* ENABLE_LOOPBACK */
 953:Source\LwIP\src\core\ipv4/ip4.c **** #if IP_FRAG
 954:Source\LwIP\src\core\ipv4/ip4.c ****   /* don't fragment if interface has mtu set to 0 [loopif] */
 955:Source\LwIP\src\core\ipv4/ip4.c ****   if (netif->mtu && (p->tot_len > netif->mtu)) {
 1098              		.loc 1 955 0
 1099 01b6 109B     		ldr	r3, [sp, #64]
 1100 01b8 9B8E     		ldrh	r3, [r3, #52]
 1101 01ba 002B     		cmp	r3, #0
 1102 01bc 08D0     		beq	.L65
 1103              		.loc 1 955 0 is_stmt 0 discriminator 1
 1104 01be 2A89     		ldrh	r2, [r5, #8]
 1105 01c0 9342     		cmp	r3, r2
 1106 01c2 05D2     		bcs	.L65
 956:Source\LwIP\src\core\ipv4/ip4.c ****     return ip4_frag(p, netif, dest);
 1107              		.loc 1 956 0 is_stmt 1
 1108 01c4 4246     		mov	r2, r8
 1109 01c6 1099     		ldr	r1, [sp, #64]
 1110 01c8 2800     		movs	r0, r5
 1111 01ca FFF7FEFF 		bl	ip4_frag
 1112              	.LVL114:
 1113 01ce 05E0     		b	.L57
 1114              	.L65:
 957:Source\LwIP\src\core\ipv4/ip4.c ****   }
 958:Source\LwIP\src\core\ipv4/ip4.c **** #endif /* IP_FRAG */
 959:Source\LwIP\src\core\ipv4/ip4.c **** 
 960:Source\LwIP\src\core\ipv4/ip4.c ****   LWIP_DEBUGF(IP_DEBUG, ("ip4_output_if: call netif->output()\n"));
 961:Source\LwIP\src\core\ipv4/ip4.c ****   return netif->output(netif, p, dest);
 1115              		.loc 1 961 0
 1116 01d0 109B     		ldr	r3, [sp, #64]
 1117 01d2 5B69     		ldr	r3, [r3, #20]
 1118 01d4 4246     		mov	r2, r8
 1119 01d6 2900     		movs	r1, r5
 1120 01d8 1098     		ldr	r0, [sp, #64]
 1121 01da 9847     		blx	r3
 1122              	.LVL115:
 1123              	.L57:
 962:Source\LwIP\src\core\ipv4/ip4.c **** }
 1124              		.loc 1 962 0
 1125 01dc 05B0     		add	sp, sp, #20
 1126              		@ sp needed
 1127              	.LVL116:
ARM GAS  C:\Users\Phuong\AppData\Local\Temp\ccYoYbaR.s 			page 38


 1128              	.LVL117:
 1129              	.LVL118:
 1130 01de 3CBC     		pop	{r2, r3, r4, r5}
 1131 01e0 9046     		mov	r8, r2
 1132 01e2 9946     		mov	r9, r3
 1133 01e4 A246     		mov	r10, r4
 1134 01e6 AB46     		mov	fp, r5
 1135 01e8 F0BD     		pop	{r4, r5, r6, r7, pc}
 1136              	.L68:
 1137 01ea C046     		.align	2
 1138              	.L67:
 1139 01ec 00000000 		.word	lwip_stats
 1140 01f0 00000000 		.word	.LANCHOR0
 1141 01f4 00000000 		.word	ip_addr_any
 1142              		.cfi_endproc
 1143              	.LFE59:
 1144              		.size	ip4_output_if_opt_src, .-ip4_output_if_opt_src
 1145              		.section	.text.ip4_output_if_opt,"ax",%progbits
 1146              		.align	2
 1147              		.global	ip4_output_if_opt
 1148              		.code	16
 1149              		.thumb_func
 1150              		.type	ip4_output_if_opt, %function
 1151              	ip4_output_if_opt:
 1152              	.LFB57:
 773:Source\LwIP\src\core\ipv4/ip4.c **** #endif /* IP_OPTIONS_SEND */
 1153              		.loc 1 773 0
 1154              		.cfi_startproc
 1155              		@ args = 20, pretend = 0, frame = 0
 1156              		@ frame_needed = 0, uses_anonymous_args = 0
 1157              	.LVL119:
 1158 0000 F0B5     		push	{r4, r5, r6, r7, lr}
 1159              		.cfi_def_cfa_offset 20
 1160              		.cfi_offset 4, -20
 1161              		.cfi_offset 5, -16
 1162              		.cfi_offset 6, -12
 1163              		.cfi_offset 7, -8
 1164              		.cfi_offset 14, -4
 1165 0002 87B0     		sub	sp, sp, #28
 1166              		.cfi_def_cfa_offset 48
 1167 0004 0CAC     		add	r4, sp, #48
 1168              	.LVL120:
 1169 0006 2478     		ldrb	r4, [r4]
 1170              	.LVL121:
 1171 0008 0DAD     		add	r5, sp, #52
 1172              	.LVL122:
 1173 000a 2D78     		ldrb	r5, [r5]
 1174              	.LVL123:
 1175 000c 10AE     		add	r6, sp, #64
 1176              	.LVL124:
 1177 000e 3688     		ldrh	r6, [r6]
 1178              	.LVL125:
 776:Source\LwIP\src\core\ipv4/ip4.c ****     if (ip4_addr_isany(src)) {
 1179              		.loc 1 776 0
 1180 0010 002A     		cmp	r2, #0
 1181 0012 06D0     		beq	.L70
 777:Source\LwIP\src\core\ipv4/ip4.c ****       src_used = netif_ip4_addr(netif);
ARM GAS  C:\Users\Phuong\AppData\Local\Temp\ccYoYbaR.s 			page 39


 1182              		.loc 1 777 0
 1183 0014 0029     		cmp	r1, #0
 1184 0016 02D0     		beq	.L71
 777:Source\LwIP\src\core\ipv4/ip4.c ****       src_used = netif_ip4_addr(netif);
 1185              		.loc 1 777 0 is_stmt 0 discriminator 1
 1186 0018 0F68     		ldr	r7, [r1]
 1187 001a 002F     		cmp	r7, #0
 1188 001c 01D1     		bne	.L70
 1189              	.L71:
 778:Source\LwIP\src\core\ipv4/ip4.c ****     }
 1190              		.loc 1 778 0 is_stmt 1
 1191 001e 0E99     		ldr	r1, [sp, #56]
 1192              	.LVL126:
 1193 0020 0431     		adds	r1, r1, #4
 1194              	.LVL127:
 1195              	.L70:
 783:Source\LwIP\src\core\ipv4/ip4.c ****     ip_options, optlen);
 1196              		.loc 1 783 0
 1197 0022 0496     		str	r6, [sp, #16]
 1198 0024 0F9E     		ldr	r6, [sp, #60]
 1199 0026 0396     		str	r6, [sp, #12]
 1200 0028 0E9E     		ldr	r6, [sp, #56]
 1201 002a 0296     		str	r6, [sp, #8]
 1202 002c 0195     		str	r5, [sp, #4]
 1203 002e 0094     		str	r4, [sp]
 1204 0030 FFF7FEFF 		bl	ip4_output_if_opt_src
 1205              	.LVL128:
 788:Source\LwIP\src\core\ipv4/ip4.c **** 
 1206              		.loc 1 788 0
 1207 0034 07B0     		add	sp, sp, #28
 1208              		@ sp needed
 1209 0036 F0BD     		pop	{r4, r5, r6, r7, pc}
 1210              		.cfi_endproc
 1211              	.LFE57:
 1212              		.size	ip4_output_if_opt, .-ip4_output_if_opt
 1213              		.section	.text.ip4_output_if,"ax",%progbits
 1214              		.align	2
 1215              		.global	ip4_output_if
 1216              		.code	16
 1217              		.thumb_func
 1218              		.type	ip4_output_if, %function
 1219              	ip4_output_if:
 1220              	.LFB56:
 758:Source\LwIP\src\core\ipv4/ip4.c **** #if IP_OPTIONS_SEND
 1221              		.loc 1 758 0
 1222              		.cfi_startproc
 1223              		@ args = 12, pretend = 0, frame = 0
 1224              		@ frame_needed = 0, uses_anonymous_args = 0
 1225              	.LVL129:
 1226 0000 70B5     		push	{r4, r5, r6, lr}
 1227              		.cfi_def_cfa_offset 16
 1228              		.cfi_offset 4, -16
 1229              		.cfi_offset 5, -12
 1230              		.cfi_offset 6, -8
 1231              		.cfi_offset 14, -4
 1232 0002 86B0     		sub	sp, sp, #24
 1233              		.cfi_def_cfa_offset 40
ARM GAS  C:\Users\Phuong\AppData\Local\Temp\ccYoYbaR.s 			page 40


 1234 0004 0AAC     		add	r4, sp, #40
 1235              	.LVL130:
 1236 0006 2578     		ldrb	r5, [r4]
 1237 0008 0BAC     		add	r4, sp, #44
 1238              	.LVL131:
 1239 000a 2678     		ldrb	r6, [r4]
 760:Source\LwIP\src\core\ipv4/ip4.c **** }
 1240              		.loc 1 760 0
 1241 000c 0024     		movs	r4, #0
 1242              	.LVL132:
 1243 000e 0494     		str	r4, [sp, #16]
 1244 0010 0394     		str	r4, [sp, #12]
 1245 0012 0C9C     		ldr	r4, [sp, #48]
 1246 0014 0294     		str	r4, [sp, #8]
 1247 0016 0196     		str	r6, [sp, #4]
 1248 0018 0095     		str	r5, [sp]
 1249 001a FFF7FEFF 		bl	ip4_output_if_opt
 1250              	.LVL133:
 761:Source\LwIP\src\core\ipv4/ip4.c **** 
 1251              		.loc 1 761 0
 1252 001e 06B0     		add	sp, sp, #24
 1253              		@ sp needed
 1254 0020 70BD     		pop	{r4, r5, r6, pc}
 1255              		.cfi_endproc
 1256              	.LFE56:
 1257              		.size	ip4_output_if, .-ip4_output_if
 1258 0022 C046     		.section	.text.ip4_output_if_src,"ax",%progbits
 1259              		.align	2
 1260              		.global	ip4_output_if_src
 1261              		.code	16
 1262              		.thumb_func
 1263              		.type	ip4_output_if_src, %function
 1264              	ip4_output_if_src:
 1265              	.LFB58:
 798:Source\LwIP\src\core\ipv4/ip4.c **** #if IP_OPTIONS_SEND
 1266              		.loc 1 798 0
 1267              		.cfi_startproc
 1268              		@ args = 12, pretend = 0, frame = 0
 1269              		@ frame_needed = 0, uses_anonymous_args = 0
 1270              	.LVL134:
 1271 0000 70B5     		push	{r4, r5, r6, lr}
 1272              		.cfi_def_cfa_offset 16
 1273              		.cfi_offset 4, -16
 1274              		.cfi_offset 5, -12
 1275              		.cfi_offset 6, -8
 1276              		.cfi_offset 14, -4
 1277 0002 86B0     		sub	sp, sp, #24
 1278              		.cfi_def_cfa_offset 40
 1279 0004 0AAC     		add	r4, sp, #40
 1280              	.LVL135:
 1281 0006 2578     		ldrb	r5, [r4]
 1282 0008 0BAC     		add	r4, sp, #44
 1283              	.LVL136:
 1284 000a 2678     		ldrb	r6, [r4]
 800:Source\LwIP\src\core\ipv4/ip4.c **** }
 1285              		.loc 1 800 0
 1286 000c 0024     		movs	r4, #0
ARM GAS  C:\Users\Phuong\AppData\Local\Temp\ccYoYbaR.s 			page 41


 1287              	.LVL137:
 1288 000e 0494     		str	r4, [sp, #16]
 1289 0010 0394     		str	r4, [sp, #12]
 1290 0012 0C9C     		ldr	r4, [sp, #48]
 1291 0014 0294     		str	r4, [sp, #8]
 1292 0016 0196     		str	r6, [sp, #4]
 1293 0018 0095     		str	r5, [sp]
 1294 001a FFF7FEFF 		bl	ip4_output_if_opt_src
 1295              	.LVL138:
 801:Source\LwIP\src\core\ipv4/ip4.c **** 
 1296              		.loc 1 801 0
 1297 001e 06B0     		add	sp, sp, #24
 1298              		@ sp needed
 1299 0020 70BD     		pop	{r4, r5, r6, pc}
 1300              		.cfi_endproc
 1301              	.LFE58:
 1302              		.size	ip4_output_if_src, .-ip4_output_if_src
 1303 0022 C046     		.section	.text.ip4_output,"ax",%progbits
 1304              		.align	2
 1305              		.global	ip4_output
 1306              		.code	16
 1307              		.thumb_func
 1308              		.type	ip4_output, %function
 1309              	ip4_output:
 1310              	.LFB60:
 963:Source\LwIP\src\core\ipv4/ip4.c **** 
 964:Source\LwIP\src\core\ipv4/ip4.c **** /**
 965:Source\LwIP\src\core\ipv4/ip4.c ****  * Simple interface to ip_output_if. It finds the outgoing network
 966:Source\LwIP\src\core\ipv4/ip4.c ****  * interface and calls upon ip_output_if to do the actual work.
 967:Source\LwIP\src\core\ipv4/ip4.c ****  *
 968:Source\LwIP\src\core\ipv4/ip4.c ****  * @param p the packet to send (p->payload points to the data, e.g. next
 969:Source\LwIP\src\core\ipv4/ip4.c ****             protocol header; if dest == LWIP_IP_HDRINCL, p already includes an
 970:Source\LwIP\src\core\ipv4/ip4.c ****             IP header and p->payload points to that IP header)
 971:Source\LwIP\src\core\ipv4/ip4.c ****  * @param src the source IP address to send from (if src == IP4_ADDR_ANY, the
 972:Source\LwIP\src\core\ipv4/ip4.c ****  *         IP  address of the netif used to send is used as source address)
 973:Source\LwIP\src\core\ipv4/ip4.c ****  * @param dest the destination IP address to send the packet to
 974:Source\LwIP\src\core\ipv4/ip4.c ****  * @param ttl the TTL value to be set in the IP header
 975:Source\LwIP\src\core\ipv4/ip4.c ****  * @param tos the TOS value to be set in the IP header
 976:Source\LwIP\src\core\ipv4/ip4.c ****  * @param proto the PROTOCOL to be set in the IP header
 977:Source\LwIP\src\core\ipv4/ip4.c ****  *
 978:Source\LwIP\src\core\ipv4/ip4.c ****  * @return ERR_RTE if no route is found
 979:Source\LwIP\src\core\ipv4/ip4.c ****  *         see ip_output_if() for more return values
 980:Source\LwIP\src\core\ipv4/ip4.c ****  */
 981:Source\LwIP\src\core\ipv4/ip4.c **** err_t
 982:Source\LwIP\src\core\ipv4/ip4.c **** ip4_output(struct pbuf *p, const ip4_addr_t *src, const ip4_addr_t *dest,
 983:Source\LwIP\src\core\ipv4/ip4.c ****           u8_t ttl, u8_t tos, u8_t proto)
 984:Source\LwIP\src\core\ipv4/ip4.c **** {
 1311              		.loc 1 984 0
 1312              		.cfi_startproc
 1313              		@ args = 8, pretend = 0, frame = 8
 1314              		@ frame_needed = 0, uses_anonymous_args = 0
 1315              	.LVL139:
 1316 0000 F0B5     		push	{r4, r5, r6, r7, lr}
 1317              		.cfi_def_cfa_offset 20
 1318              		.cfi_offset 4, -20
 1319              		.cfi_offset 5, -16
 1320              		.cfi_offset 6, -12
ARM GAS  C:\Users\Phuong\AppData\Local\Temp\ccYoYbaR.s 			page 42


 1321              		.cfi_offset 7, -8
 1322              		.cfi_offset 14, -4
 1323 0002 87B0     		sub	sp, sp, #28
 1324              		.cfi_def_cfa_offset 48
 1325 0004 0490     		str	r0, [sp, #16]
 1326 0006 0591     		str	r1, [sp, #20]
 1327 0008 1400     		movs	r4, r2
 1328 000a 1F00     		movs	r7, r3
 1329 000c 0CAB     		add	r3, sp, #48
 1330              	.LVL140:
 1331 000e 1D78     		ldrb	r5, [r3]
 1332 0010 0DAB     		add	r3, sp, #52
 1333              	.LVL141:
 1334 0012 1E78     		ldrb	r6, [r3]
 985:Source\LwIP\src\core\ipv4/ip4.c ****   struct netif *netif;
 986:Source\LwIP\src\core\ipv4/ip4.c **** 
 987:Source\LwIP\src\core\ipv4/ip4.c ****   LWIP_IP_CHECK_PBUF_REF_COUNT_FOR_TX(p);
 988:Source\LwIP\src\core\ipv4/ip4.c **** 
 989:Source\LwIP\src\core\ipv4/ip4.c ****   if ((netif = ip4_route_src(dest, src)) == NULL) {
 1335              		.loc 1 989 0
 1336 0014 1000     		movs	r0, r2
 1337              	.LVL142:
 1338 0016 FFF7FEFF 		bl	ip4_route
 1339              	.LVL143:
 1340 001a 0028     		cmp	r0, #0
 1341 001c 06D1     		bne	.L75
 990:Source\LwIP\src\core\ipv4/ip4.c ****     LWIP_DEBUGF(IP_DEBUG, ("ip4_output: No route to %"U16_F".%"U16_F".%"U16_F".%"U16_F"\n",
 991:Source\LwIP\src\core\ipv4/ip4.c ****       ip4_addr1_16(dest), ip4_addr2_16(dest), ip4_addr3_16(dest), ip4_addr4_16(dest)));
 992:Source\LwIP\src\core\ipv4/ip4.c ****     IP_STATS_INC(ip.rterr);
 1342              		.loc 1 992 0
 1343 001e 0949     		ldr	r1, .L77
 1344 0020 5622     		movs	r2, #86
 1345 0022 8B5A     		ldrh	r3, [r1, r2]
 1346 0024 0133     		adds	r3, r3, #1
 1347 0026 8B52     		strh	r3, [r1, r2]
 993:Source\LwIP\src\core\ipv4/ip4.c ****     return ERR_RTE;
 1348              		.loc 1 993 0
 1349 0028 0438     		subs	r0, r0, #4
 1350              	.LVL144:
 1351 002a 08E0     		b	.L76
 1352              	.LVL145:
 1353              	.L75:
 994:Source\LwIP\src\core\ipv4/ip4.c ****   }
 995:Source\LwIP\src\core\ipv4/ip4.c **** 
 996:Source\LwIP\src\core\ipv4/ip4.c ****   return ip4_output_if(p, src, dest, ttl, tos, proto, netif);
 1354              		.loc 1 996 0
 1355 002c 0290     		str	r0, [sp, #8]
 1356 002e 0196     		str	r6, [sp, #4]
 1357 0030 0095     		str	r5, [sp]
 1358 0032 3B00     		movs	r3, r7
 1359 0034 2200     		movs	r2, r4
 1360 0036 0599     		ldr	r1, [sp, #20]
 1361 0038 0498     		ldr	r0, [sp, #16]
 1362              	.LVL146:
 1363 003a FFF7FEFF 		bl	ip4_output_if
 1364              	.LVL147:
 1365              	.L76:
ARM GAS  C:\Users\Phuong\AppData\Local\Temp\ccYoYbaR.s 			page 43


 997:Source\LwIP\src\core\ipv4/ip4.c **** }
 1366              		.loc 1 997 0
 1367 003e 07B0     		add	sp, sp, #28
 1368              		@ sp needed
 1369              	.LVL148:
 1370 0040 F0BD     		pop	{r4, r5, r6, r7, pc}
 1371              	.L78:
 1372 0042 C046     		.align	2
 1373              	.L77:
 1374 0044 00000000 		.word	lwip_stats
 1375              		.cfi_endproc
 1376              	.LFE60:
 1377              		.size	ip4_output, .-ip4_output
 1378              		.bss
 1379              		.align	2
 1380              		.set	.LANCHOR0,. + 0
 1381              		.type	ip4_default_multicast_netif, %object
 1382              		.size	ip4_default_multicast_netif, 4
 1383              	ip4_default_multicast_netif:
 1384 0000 00000000 		.space	4
 1385              		.type	ip_id, %object
 1386              		.size	ip_id, 2
 1387              	ip_id:
 1388 0004 0000     		.space	2
 1389              		.text
 1390              	.Letext0:
 1391              		.file 2 "c:\\program files (x86)\\cypress\\psoc creator\\4.2\\psoc creator\\import\\gnu\\arm\\5.4.
 1392              		.file 3 "c:\\program files (x86)\\cypress\\psoc creator\\4.2\\psoc creator\\import\\gnu\\arm\\5.4.
 1393              		.file 4 "c:\\program files (x86)\\cypress\\psoc creator\\4.2\\psoc creator\\import\\gnu\\arm\\5.4.
 1394              		.file 5 ".\\Source\\LwIP\\src\\include/arch/cc.h"
 1395              		.file 6 ".\\Source\\LwIP\\src\\include/lwip/err.h"
 1396              		.file 7 ".\\Source\\LwIP\\src\\include/lwip/pbuf.h"
 1397              		.file 8 ".\\Source\\LwIP\\src\\include/lwip/ip4_addr.h"
 1398              		.file 9 ".\\Source\\LwIP\\src\\include/lwip/ip_addr.h"
 1399              		.file 10 ".\\Source\\LwIP\\src\\include/lwip/mem.h"
 1400              		.file 11 ".\\Source\\LwIP\\src\\include/lwip/memp.h"
 1401              		.file 12 ".\\Source\\LwIP\\src\\include/lwip/stats.h"
 1402              		.file 13 ".\\Source\\LwIP\\src\\include/lwip/netif.h"
 1403              		.file 14 ".\\Source\\LwIP\\src\\include/lwip/prot/ip4.h"
 1404              		.file 15 ".\\Source\\LwIP\\src\\include/lwip/ip.h"
 1405              		.file 16 ".\\Source\\LwIP\\src\\include/lwip/icmp.h"
 1406              		.file 17 ".\\Source\\LwIP\\src\\include/lwip/prot/udp.h"
 1407              		.file 18 ".\\Source\\LwIP\\src\\include/lwip/def.h"
 1408              		.file 19 ".\\Source\\LwIP\\src\\include/lwip/inet_chksum.h"
 1409              		.file 20 ".\\Source\\LwIP\\src\\include/lwip/igmp.h"
 1410              		.file 21 ".\\Source\\LwIP\\src\\include/lwip/ip4_frag.h"
 1411              		.file 22 ".\\Source\\LwIP\\src\\include/lwip/raw.h"
 1412              		.file 23 ".\\Source\\LwIP\\src\\include/lwip/udp.h"
 1413              		.file 24 ".\\Source\\LwIP\\src\\include/lwip/priv/tcp_priv.h"
 1414              		.section	.debug_info,"",%progbits
 1415              	.Ldebug_info0:
 1416 0000 2A120000 		.4byte	0x122a
 1417 0004 0400     		.2byte	0x4
 1418 0006 00000000 		.4byte	.Ldebug_abbrev0
 1419 000a 04       		.byte	0x4
 1420 000b 01       		.uleb128 0x1
 1421 000c 78040000 		.4byte	.LASF203
ARM GAS  C:\Users\Phuong\AppData\Local\Temp\ccYoYbaR.s 			page 44


 1422 0010 0C       		.byte	0xc
 1423 0011 5B030000 		.4byte	.LASF204
 1424 0015 B4050000 		.4byte	.LASF205
 1425 0019 70000000 		.4byte	.Ldebug_ranges0+0x70
 1426 001d 00000000 		.4byte	0
 1427 0021 00000000 		.4byte	.Ldebug_line0
 1428 0025 02       		.uleb128 0x2
 1429 0026 01       		.byte	0x1
 1430 0027 06       		.byte	0x6
 1431 0028 5A010000 		.4byte	.LASF0
 1432 002c 02       		.uleb128 0x2
 1433 002d 01       		.byte	0x1
 1434 002e 08       		.byte	0x8
 1435 002f 44090000 		.4byte	.LASF1
 1436 0033 02       		.uleb128 0x2
 1437 0034 02       		.byte	0x2
 1438 0035 05       		.byte	0x5
 1439 0036 71070000 		.4byte	.LASF2
 1440 003a 02       		.uleb128 0x2
 1441 003b 02       		.byte	0x2
 1442 003c 07       		.byte	0x7
 1443 003d D5030000 		.4byte	.LASF3
 1444 0041 02       		.uleb128 0x2
 1445 0042 04       		.byte	0x4
 1446 0043 05       		.byte	0x5
 1447 0044 D1010000 		.4byte	.LASF4
 1448 0048 03       		.uleb128 0x3
 1449 0049 BA020000 		.4byte	.LASF9
 1450 004d 02       		.byte	0x2
 1451 004e 41       		.byte	0x41
 1452 004f 53000000 		.4byte	0x53
 1453 0053 02       		.uleb128 0x2
 1454 0054 04       		.byte	0x4
 1455 0055 07       		.byte	0x7
 1456 0056 7B030000 		.4byte	.LASF5
 1457 005a 02       		.uleb128 0x2
 1458 005b 08       		.byte	0x8
 1459 005c 05       		.byte	0x5
 1460 005d 4C010000 		.4byte	.LASF6
 1461 0061 02       		.uleb128 0x2
 1462 0062 08       		.byte	0x8
 1463 0063 07       		.byte	0x7
 1464 0064 DB000000 		.4byte	.LASF7
 1465 0068 04       		.uleb128 0x4
 1466 0069 04       		.byte	0x4
 1467 006a 05       		.byte	0x5
 1468 006b 696E7400 		.ascii	"int\000"
 1469 006f 02       		.uleb128 0x2
 1470 0070 04       		.byte	0x4
 1471 0071 07       		.byte	0x7
 1472 0072 93080000 		.4byte	.LASF8
 1473 0076 03       		.uleb128 0x3
 1474 0077 ED020000 		.4byte	.LASF10
 1475 007b 03       		.byte	0x3
 1476 007c D8       		.byte	0xd8
 1477 007d 6F000000 		.4byte	0x6f
 1478 0081 02       		.uleb128 0x2
ARM GAS  C:\Users\Phuong\AppData\Local\Temp\ccYoYbaR.s 			page 45


 1479 0082 08       		.byte	0x8
 1480 0083 04       		.byte	0x4
 1481 0084 82080000 		.4byte	.LASF11
 1482 0088 05       		.uleb128 0x5
 1483 0089 04       		.byte	0x4
 1484 008a 02       		.uleb128 0x2
 1485 008b 04       		.byte	0x4
 1486 008c 07       		.byte	0x7
 1487 008d 96050000 		.4byte	.LASF12
 1488 0091 02       		.uleb128 0x2
 1489 0092 01       		.byte	0x1
 1490 0093 08       		.byte	0x8
 1491 0094 8E080000 		.4byte	.LASF13
 1492 0098 06       		.uleb128 0x6
 1493 0099 04       		.byte	0x4
 1494 009a 9E000000 		.4byte	0x9e
 1495 009e 07       		.uleb128 0x7
 1496 009f 91000000 		.4byte	0x91
 1497 00a3 03       		.uleb128 0x3
 1498 00a4 6A080000 		.4byte	.LASF14
 1499 00a8 04       		.byte	0x4
 1500 00a9 30       		.byte	0x30
 1501 00aa 48000000 		.4byte	0x48
 1502 00ae 02       		.uleb128 0x2
 1503 00af 04       		.byte	0x4
 1504 00b0 04       		.byte	0x4
 1505 00b1 FA090000 		.4byte	.LASF15
 1506 00b5 02       		.uleb128 0x2
 1507 00b6 08       		.byte	0x8
 1508 00b7 04       		.byte	0x4
 1509 00b8 6E020000 		.4byte	.LASF16
 1510 00bc 08       		.uleb128 0x8
 1511 00bd 88000000 		.4byte	0x88
 1512 00c1 CC000000 		.4byte	0xcc
 1513 00c5 09       		.uleb128 0x9
 1514 00c6 8A000000 		.4byte	0x8a
 1515 00ca 01       		.byte	0x1
 1516 00cb 00       		.byte	0
 1517 00cc 03       		.uleb128 0x3
 1518 00cd 2F030000 		.4byte	.LASF17
 1519 00d1 05       		.byte	0x5
 1520 00d2 31       		.byte	0x31
 1521 00d3 2C000000 		.4byte	0x2c
 1522 00d7 03       		.uleb128 0x3
 1523 00d8 3A080000 		.4byte	.LASF18
 1524 00dc 05       		.byte	0x5
 1525 00dd 32       		.byte	0x32
 1526 00de 25000000 		.4byte	0x25
 1527 00e2 03       		.uleb128 0x3
 1528 00e3 8B090000 		.4byte	.LASF19
 1529 00e7 05       		.byte	0x5
 1530 00e8 33       		.byte	0x33
 1531 00e9 3A000000 		.4byte	0x3a
 1532 00ed 03       		.uleb128 0x3
 1533 00ee F5060000 		.4byte	.LASF20
 1534 00f2 05       		.byte	0x5
 1535 00f3 34       		.byte	0x34
ARM GAS  C:\Users\Phuong\AppData\Local\Temp\ccYoYbaR.s 			page 46


 1536 00f4 33000000 		.4byte	0x33
 1537 00f8 03       		.uleb128 0x3
 1538 00f9 99030000 		.4byte	.LASF21
 1539 00fd 05       		.byte	0x5
 1540 00fe 35       		.byte	0x35
 1541 00ff 53000000 		.4byte	0x53
 1542 0103 03       		.uleb128 0x3
 1543 0104 90050000 		.4byte	.LASF22
 1544 0108 06       		.byte	0x6
 1545 0109 39       		.byte	0x39
 1546 010a D7000000 		.4byte	0xd7
 1547 010e 0A       		.uleb128 0xa
 1548 010f 01       		.byte	0x1
 1549 0110 25000000 		.4byte	0x25
 1550 0114 06       		.byte	0x6
 1551 0115 3D       		.byte	0x3d
 1552 0116 81010000 		.4byte	0x181
 1553 011a 0B       		.uleb128 0xb
 1554 011b 7A000000 		.4byte	.LASF23
 1555 011f 00       		.byte	0
 1556 0120 0C       		.uleb128 0xc
 1557 0121 670A0000 		.4byte	.LASF24
 1558 0125 7F       		.sleb128 -1
 1559 0126 0C       		.uleb128 0xc
 1560 0127 91090000 		.4byte	.LASF25
 1561 012b 7E       		.sleb128 -2
 1562 012c 0C       		.uleb128 0xc
 1563 012d 23030000 		.4byte	.LASF26
 1564 0131 7D       		.sleb128 -3
 1565 0132 0C       		.uleb128 0xc
 1566 0133 62090000 		.4byte	.LASF27
 1567 0137 7C       		.sleb128 -4
 1568 0138 0C       		.uleb128 0xc
 1569 0139 E6060000 		.4byte	.LASF28
 1570 013d 7B       		.sleb128 -5
 1571 013e 0C       		.uleb128 0xc
 1572 013f 06070000 		.4byte	.LASF29
 1573 0143 7A       		.sleb128 -6
 1574 0144 0C       		.uleb128 0xc
 1575 0145 1E0A0000 		.4byte	.LASF30
 1576 0149 79       		.sleb128 -7
 1577 014a 0C       		.uleb128 0xc
 1578 014b 66010000 		.4byte	.LASF31
 1579 014f 78       		.sleb128 -8
 1580 0150 0C       		.uleb128 0xc
 1581 0151 8D030000 		.4byte	.LASF32
 1582 0155 77       		.sleb128 -9
 1583 0156 0C       		.uleb128 0xc
 1584 0157 B5090000 		.4byte	.LASF33
 1585 015b 76       		.sleb128 -10
 1586 015c 0C       		.uleb128 0xc
 1587 015d 3B070000 		.4byte	.LASF34
 1588 0161 75       		.sleb128 -11
 1589 0162 0C       		.uleb128 0xc
 1590 0163 5F020000 		.4byte	.LASF35
 1591 0167 74       		.sleb128 -12
 1592 0168 0C       		.uleb128 0xc
ARM GAS  C:\Users\Phuong\AppData\Local\Temp\ccYoYbaR.s 			page 47


 1593 0169 73080000 		.4byte	.LASF36
 1594 016d 73       		.sleb128 -13
 1595 016e 0C       		.uleb128 0xc
 1596 016f 62080000 		.4byte	.LASF37
 1597 0173 72       		.sleb128 -14
 1598 0174 0C       		.uleb128 0xc
 1599 0175 59090000 		.4byte	.LASF38
 1600 0179 71       		.sleb128 -15
 1601 017a 0C       		.uleb128 0xc
 1602 017b 1A070000 		.4byte	.LASF39
 1603 017f 70       		.sleb128 -16
 1604 0180 00       		.byte	0
 1605 0181 0D       		.uleb128 0xd
 1606 0182 6C000000 		.4byte	.LASF45
 1607 0186 10       		.byte	0x10
 1608 0187 07       		.byte	0x7
 1609 0188 8E       		.byte	0x8e
 1610 0189 E2010000 		.4byte	0x1e2
 1611 018d 0E       		.uleb128 0xe
 1612 018e 30010000 		.4byte	.LASF40
 1613 0192 07       		.byte	0x7
 1614 0193 90       		.byte	0x90
 1615 0194 E2010000 		.4byte	0x1e2
 1616 0198 00       		.byte	0
 1617 0199 0E       		.uleb128 0xe
 1618 019a 69060000 		.4byte	.LASF41
 1619 019e 07       		.byte	0x7
 1620 019f 93       		.byte	0x93
 1621 01a0 88000000 		.4byte	0x88
 1622 01a4 04       		.byte	0x4
 1623 01a5 0E       		.uleb128 0xe
 1624 01a6 A0010000 		.4byte	.LASF42
 1625 01aa 07       		.byte	0x7
 1626 01ab 9C       		.byte	0x9c
 1627 01ac E2000000 		.4byte	0xe2
 1628 01b0 08       		.byte	0x8
 1629 01b1 0F       		.uleb128 0xf
 1630 01b2 6C656E00 		.ascii	"len\000"
 1631 01b6 07       		.byte	0x7
 1632 01b7 9F       		.byte	0x9f
 1633 01b8 E2000000 		.4byte	0xe2
 1634 01bc 0A       		.byte	0xa
 1635 01bd 0E       		.uleb128 0xe
 1636 01be BA000000 		.4byte	.LASF43
 1637 01c2 07       		.byte	0x7
 1638 01c3 A2       		.byte	0xa2
 1639 01c4 CC000000 		.4byte	0xcc
 1640 01c8 0C       		.byte	0xc
 1641 01c9 0E       		.uleb128 0xe
 1642 01ca F4090000 		.4byte	.LASF44
 1643 01ce 07       		.byte	0x7
 1644 01cf A5       		.byte	0xa5
 1645 01d0 CC000000 		.4byte	0xcc
 1646 01d4 0D       		.byte	0xd
 1647 01d5 0F       		.uleb128 0xf
 1648 01d6 72656600 		.ascii	"ref\000"
 1649 01da 07       		.byte	0x7
ARM GAS  C:\Users\Phuong\AppData\Local\Temp\ccYoYbaR.s 			page 48


 1650 01db AC       		.byte	0xac
 1651 01dc E2000000 		.4byte	0xe2
 1652 01e0 0E       		.byte	0xe
 1653 01e1 00       		.byte	0
 1654 01e2 06       		.uleb128 0x6
 1655 01e3 04       		.byte	0x4
 1656 01e4 81010000 		.4byte	0x181
 1657 01e8 0D       		.uleb128 0xd
 1658 01e9 EA010000 		.4byte	.LASF46
 1659 01ed 04       		.byte	0x4
 1660 01ee 08       		.byte	0x8
 1661 01ef 33       		.byte	0x33
 1662 01f0 01020000 		.4byte	0x201
 1663 01f4 0E       		.uleb128 0xe
 1664 01f5 00010000 		.4byte	.LASF47
 1665 01f9 08       		.byte	0x8
 1666 01fa 34       		.byte	0x34
 1667 01fb F8000000 		.4byte	0xf8
 1668 01ff 00       		.byte	0
 1669 0200 00       		.byte	0
 1670 0201 03       		.uleb128 0x3
 1671 0202 6A090000 		.4byte	.LASF48
 1672 0206 08       		.byte	0x8
 1673 0207 39       		.byte	0x39
 1674 0208 E8010000 		.4byte	0x1e8
 1675 020c 03       		.uleb128 0x3
 1676 020d 6A050000 		.4byte	.LASF49
 1677 0211 09       		.byte	0x9
 1678 0212 F4       		.byte	0xf4
 1679 0213 01020000 		.4byte	0x201
 1680 0217 03       		.uleb128 0x3
 1681 0218 99090000 		.4byte	.LASF50
 1682 021c 0A       		.byte	0xa
 1683 021d 32       		.byte	0x32
 1684 021e 76000000 		.4byte	0x76
 1685 0222 0A       		.uleb128 0xa
 1686 0223 01       		.byte	0x1
 1687 0224 2C000000 		.4byte	0x2c
 1688 0228 0B       		.byte	0xb
 1689 0229 34       		.byte	0x34
 1690 022a 95020000 		.4byte	0x295
 1691 022e 0B       		.uleb128 0xb
 1692 022f D4080000 		.4byte	.LASF51
 1693 0233 00       		.byte	0
 1694 0234 0B       		.uleb128 0xb
 1695 0235 7D020000 		.4byte	.LASF52
 1696 0239 01       		.byte	0x1
 1697 023a 0B       		.uleb128 0xb
 1698 023b AC030000 		.4byte	.LASF53
 1699 023f 02       		.byte	0x2
 1700 0240 0B       		.uleb128 0xb
 1701 0241 C5020000 		.4byte	.LASF54
 1702 0245 03       		.byte	0x3
 1703 0246 0B       		.uleb128 0xb
 1704 0247 1A010000 		.4byte	.LASF55
 1705 024b 04       		.byte	0x4
 1706 024c 0B       		.uleb128 0xb
ARM GAS  C:\Users\Phuong\AppData\Local\Temp\ccYoYbaR.s 			page 49


 1707 024d A8010000 		.4byte	.LASF56
 1708 0251 05       		.byte	0x5
 1709 0252 0B       		.uleb128 0xb
 1710 0253 A0080000 		.4byte	.LASF57
 1711 0257 06       		.byte	0x6
 1712 0258 0B       		.uleb128 0xb
 1713 0259 BE080000 		.4byte	.LASF58
 1714 025d 07       		.byte	0x7
 1715 025e 0B       		.uleb128 0xb
 1716 025f A7000000 		.4byte	.LASF59
 1717 0263 08       		.byte	0x8
 1718 0264 0B       		.uleb128 0xb
 1719 0265 23090000 		.4byte	.LASF60
 1720 0269 09       		.byte	0x9
 1721 026a 0B       		.uleb128 0xb
 1722 026b 3D010000 		.4byte	.LASF61
 1723 026f 0A       		.byte	0xa
 1724 0270 0B       		.uleb128 0xb
 1725 0271 34030000 		.4byte	.LASF62
 1726 0275 0B       		.byte	0xb
 1727 0276 0B       		.uleb128 0xb
 1728 0277 54000000 		.4byte	.LASF63
 1729 027b 0C       		.byte	0xc
 1730 027c 0B       		.uleb128 0xb
 1731 027d 81000000 		.4byte	.LASF64
 1732 0281 0D       		.byte	0xd
 1733 0282 0B       		.uleb128 0xb
 1734 0283 5D0A0000 		.4byte	.LASF65
 1735 0287 0E       		.byte	0xe
 1736 0288 0B       		.uleb128 0xb
 1737 0289 E1080000 		.4byte	.LASF66
 1738 028d 0F       		.byte	0xf
 1739 028e 0B       		.uleb128 0xb
 1740 028f A6020000 		.4byte	.LASF67
 1741 0293 10       		.byte	0x10
 1742 0294 00       		.byte	0
 1743 0295 0D       		.uleb128 0xd
 1744 0296 D0090000 		.4byte	.LASF68
 1745 029a 18       		.byte	0x18
 1746 029b 0C       		.byte	0xc
 1747 029c 62       		.byte	0x62
 1748 029d EA020000 		.4byte	0x2ea
 1749 02a1 0E       		.uleb128 0xe
 1750 02a2 9F030000 		.4byte	.LASF69
 1751 02a6 0C       		.byte	0xc
 1752 02a7 64       		.byte	0x64
 1753 02a8 98000000 		.4byte	0x98
 1754 02ac 00       		.byte	0
 1755 02ad 0F       		.uleb128 0xf
 1756 02ae 65727200 		.ascii	"err\000"
 1757 02b2 0C       		.byte	0xc
 1758 02b3 66       		.byte	0x66
 1759 02b4 E2000000 		.4byte	0xe2
 1760 02b8 04       		.byte	0x4
 1761 02b9 0E       		.uleb128 0xe
 1762 02ba 000A0000 		.4byte	.LASF70
 1763 02be 0C       		.byte	0xc
ARM GAS  C:\Users\Phuong\AppData\Local\Temp\ccYoYbaR.s 			page 50


 1764 02bf 67       		.byte	0x67
 1765 02c0 17020000 		.4byte	0x217
 1766 02c4 08       		.byte	0x8
 1767 02c5 0E       		.uleb128 0xe
 1768 02c6 AE060000 		.4byte	.LASF71
 1769 02ca 0C       		.byte	0xc
 1770 02cb 68       		.byte	0x68
 1771 02cc 17020000 		.4byte	0x217
 1772 02d0 0C       		.byte	0xc
 1773 02d1 0F       		.uleb128 0xf
 1774 02d2 6D617800 		.ascii	"max\000"
 1775 02d6 0C       		.byte	0xc
 1776 02d7 69       		.byte	0x69
 1777 02d8 17020000 		.4byte	0x217
 1778 02dc 10       		.byte	0x10
 1779 02dd 0E       		.uleb128 0xe
 1780 02de 66020000 		.4byte	.LASF72
 1781 02e2 0C       		.byte	0xc
 1782 02e3 6A       		.byte	0x6a
 1783 02e4 E2000000 		.4byte	0xe2
 1784 02e8 14       		.byte	0x14
 1785 02e9 00       		.byte	0
 1786 02ea 06       		.uleb128 0x6
 1787 02eb 04       		.byte	0x4
 1788 02ec 95020000 		.4byte	0x295
 1789 02f0 0D       		.uleb128 0xd
 1790 02f1 CF070000 		.4byte	.LASF73
 1791 02f5 18       		.byte	0x18
 1792 02f6 0C       		.byte	0xc
 1793 02f7 40       		.byte	0x40
 1794 02f8 8C030000 		.4byte	0x38c
 1795 02fc 0E       		.uleb128 0xe
 1796 02fd 6F0A0000 		.4byte	.LASF74
 1797 0301 0C       		.byte	0xc
 1798 0302 41       		.byte	0x41
 1799 0303 E2000000 		.4byte	0xe2
 1800 0307 00       		.byte	0
 1801 0308 0E       		.uleb128 0xe
 1802 0309 39020000 		.4byte	.LASF75
 1803 030d 0C       		.byte	0xc
 1804 030e 42       		.byte	0x42
 1805 030f E2000000 		.4byte	0xe2
 1806 0313 02       		.byte	0x2
 1807 0314 0F       		.uleb128 0xf
 1808 0315 667700   		.ascii	"fw\000"
 1809 0318 0C       		.byte	0xc
 1810 0319 43       		.byte	0x43
 1811 031a E2000000 		.4byte	0xe2
 1812 031e 04       		.byte	0x4
 1813 031f 0E       		.uleb128 0xe
 1814 0320 CB090000 		.4byte	.LASF76
 1815 0324 0C       		.byte	0xc
 1816 0325 44       		.byte	0x44
 1817 0326 E2000000 		.4byte	0xe2
 1818 032a 06       		.byte	0x6
 1819 032b 0E       		.uleb128 0xe
 1820 032c CA000000 		.4byte	.LASF77
ARM GAS  C:\Users\Phuong\AppData\Local\Temp\ccYoYbaR.s 			page 51


 1821 0330 0C       		.byte	0xc
 1822 0331 45       		.byte	0x45
 1823 0332 E2000000 		.4byte	0xe2
 1824 0336 08       		.byte	0x8
 1825 0337 0E       		.uleb128 0xe
 1826 0338 08000000 		.4byte	.LASF78
 1827 033c 0C       		.byte	0xc
 1828 033d 46       		.byte	0x46
 1829 033e E2000000 		.4byte	0xe2
 1830 0342 0A       		.byte	0xa
 1831 0343 0E       		.uleb128 0xe
 1832 0344 13010000 		.4byte	.LASF79
 1833 0348 0C       		.byte	0xc
 1834 0349 47       		.byte	0x47
 1835 034a E2000000 		.4byte	0xe2
 1836 034e 0C       		.byte	0xc
 1837 034f 0E       		.uleb128 0xe
 1838 0350 FB060000 		.4byte	.LASF80
 1839 0354 0C       		.byte	0xc
 1840 0355 48       		.byte	0x48
 1841 0356 E2000000 		.4byte	0xe2
 1842 035a 0E       		.byte	0xe
 1843 035b 0E       		.uleb128 0xe
 1844 035c 1B030000 		.4byte	.LASF81
 1845 0360 0C       		.byte	0xc
 1846 0361 49       		.byte	0x49
 1847 0362 E2000000 		.4byte	0xe2
 1848 0366 10       		.byte	0x10
 1849 0367 0E       		.uleb128 0xe
 1850 0368 F0080000 		.4byte	.LASF82
 1851 036c 0C       		.byte	0xc
 1852 036d 4A       		.byte	0x4a
 1853 036e E2000000 		.4byte	0xe2
 1854 0372 12       		.byte	0x12
 1855 0373 0F       		.uleb128 0xf
 1856 0374 65727200 		.ascii	"err\000"
 1857 0378 0C       		.byte	0xc
 1858 0379 4B       		.byte	0x4b
 1859 037a E2000000 		.4byte	0xe2
 1860 037e 14       		.byte	0x14
 1861 037f 0E       		.uleb128 0xe
 1862 0380 27010000 		.4byte	.LASF83
 1863 0384 0C       		.byte	0xc
 1864 0385 4C       		.byte	0x4c
 1865 0386 E2000000 		.4byte	0xe2
 1866 038a 16       		.byte	0x16
 1867 038b 00       		.byte	0
 1868 038c 0D       		.uleb128 0xd
 1869 038d 10030000 		.4byte	.LASF84
 1870 0391 1C       		.byte	0x1c
 1871 0392 0C       		.byte	0xc
 1872 0393 50       		.byte	0x50
 1873 0394 41040000 		.4byte	0x441
 1874 0398 0E       		.uleb128 0xe
 1875 0399 6F0A0000 		.4byte	.LASF74
 1876 039d 0C       		.byte	0xc
 1877 039e 51       		.byte	0x51
ARM GAS  C:\Users\Phuong\AppData\Local\Temp\ccYoYbaR.s 			page 52


 1878 039f E2000000 		.4byte	0xe2
 1879 03a3 00       		.byte	0
 1880 03a4 0E       		.uleb128 0xe
 1881 03a5 39020000 		.4byte	.LASF75
 1882 03a9 0C       		.byte	0xc
 1883 03aa 52       		.byte	0x52
 1884 03ab E2000000 		.4byte	0xe2
 1885 03af 02       		.byte	0x2
 1886 03b0 0E       		.uleb128 0xe
 1887 03b1 CB090000 		.4byte	.LASF76
 1888 03b5 0C       		.byte	0xc
 1889 03b6 53       		.byte	0x53
 1890 03b7 E2000000 		.4byte	0xe2
 1891 03bb 04       		.byte	0x4
 1892 03bc 0E       		.uleb128 0xe
 1893 03bd CA000000 		.4byte	.LASF77
 1894 03c1 0C       		.byte	0xc
 1895 03c2 54       		.byte	0x54
 1896 03c3 E2000000 		.4byte	0xe2
 1897 03c7 06       		.byte	0x6
 1898 03c8 0E       		.uleb128 0xe
 1899 03c9 08000000 		.4byte	.LASF78
 1900 03cd 0C       		.byte	0xc
 1901 03ce 55       		.byte	0x55
 1902 03cf E2000000 		.4byte	0xe2
 1903 03d3 08       		.byte	0x8
 1904 03d4 0E       		.uleb128 0xe
 1905 03d5 13010000 		.4byte	.LASF79
 1906 03d9 0C       		.byte	0xc
 1907 03da 56       		.byte	0x56
 1908 03db E2000000 		.4byte	0xe2
 1909 03df 0A       		.byte	0xa
 1910 03e0 0E       		.uleb128 0xe
 1911 03e1 1B030000 		.4byte	.LASF81
 1912 03e5 0C       		.byte	0xc
 1913 03e6 57       		.byte	0x57
 1914 03e7 E2000000 		.4byte	0xe2
 1915 03eb 0C       		.byte	0xc
 1916 03ec 0E       		.uleb128 0xe
 1917 03ed 14070000 		.4byte	.LASF85
 1918 03f1 0C       		.byte	0xc
 1919 03f2 58       		.byte	0x58
 1920 03f3 E2000000 		.4byte	0xe2
 1921 03f7 0E       		.byte	0xe
 1922 03f8 0E       		.uleb128 0xe
 1923 03f9 CB080000 		.4byte	.LASF86
 1924 03fd 0C       		.byte	0xc
 1925 03fe 59       		.byte	0x59
 1926 03ff E2000000 		.4byte	0xe2
 1927 0403 10       		.byte	0x10
 1928 0404 0E       		.uleb128 0xe
 1929 0405 DA090000 		.4byte	.LASF87
 1930 0409 0C       		.byte	0xc
 1931 040a 5A       		.byte	0x5a
 1932 040b E2000000 		.4byte	0xe2
 1933 040f 12       		.byte	0x12
 1934 0410 0E       		.uleb128 0xe
ARM GAS  C:\Users\Phuong\AppData\Local\Temp\ccYoYbaR.s 			page 53


 1935 0411 63040000 		.4byte	.LASF88
 1936 0415 0C       		.byte	0xc
 1937 0416 5B       		.byte	0x5b
 1938 0417 E2000000 		.4byte	0xe2
 1939 041b 14       		.byte	0x14
 1940 041c 0E       		.uleb128 0xe
 1941 041d 00000000 		.4byte	.LASF89
 1942 0421 0C       		.byte	0xc
 1943 0422 5C       		.byte	0x5c
 1944 0423 E2000000 		.4byte	0xe2
 1945 0427 16       		.byte	0x16
 1946 0428 0E       		.uleb128 0xe
 1947 0429 C6070000 		.4byte	.LASF90
 1948 042d 0C       		.byte	0xc
 1949 042e 5D       		.byte	0x5d
 1950 042f E2000000 		.4byte	0xe2
 1951 0433 18       		.byte	0x18
 1952 0434 0E       		.uleb128 0xe
 1953 0435 340A0000 		.4byte	.LASF91
 1954 0439 0C       		.byte	0xc
 1955 043a 5E       		.byte	0x5e
 1956 043b E2000000 		.4byte	0xe2
 1957 043f 1A       		.byte	0x1a
 1958 0440 00       		.byte	0
 1959 0441 0D       		.uleb128 0xd
 1960 0442 95060000 		.4byte	.LASF92
 1961 0446 06       		.byte	0x6
 1962 0447 0C       		.byte	0xc
 1963 0448 6E       		.byte	0x6e
 1964 0449 72040000 		.4byte	0x472
 1965 044d 0E       		.uleb128 0xe
 1966 044e AE060000 		.4byte	.LASF71
 1967 0452 0C       		.byte	0xc
 1968 0453 6F       		.byte	0x6f
 1969 0454 E2000000 		.4byte	0xe2
 1970 0458 00       		.byte	0
 1971 0459 0F       		.uleb128 0xf
 1972 045a 6D617800 		.ascii	"max\000"
 1973 045e 0C       		.byte	0xc
 1974 045f 70       		.byte	0x70
 1975 0460 E2000000 		.4byte	0xe2
 1976 0464 02       		.byte	0x2
 1977 0465 0F       		.uleb128 0xf
 1978 0466 65727200 		.ascii	"err\000"
 1979 046a 0C       		.byte	0xc
 1980 046b 71       		.byte	0x71
 1981 046c E2000000 		.4byte	0xe2
 1982 0470 04       		.byte	0x4
 1983 0471 00       		.byte	0
 1984 0472 0D       		.uleb128 0xd
 1985 0473 12050000 		.4byte	.LASF93
 1986 0477 12       		.byte	0x12
 1987 0478 0C       		.byte	0xc
 1988 0479 75       		.byte	0x75
 1989 047a A3040000 		.4byte	0x4a3
 1990 047e 0F       		.uleb128 0xf
 1991 047f 73656D00 		.ascii	"sem\000"
ARM GAS  C:\Users\Phuong\AppData\Local\Temp\ccYoYbaR.s 			page 54


 1992 0483 0C       		.byte	0xc
 1993 0484 76       		.byte	0x76
 1994 0485 41040000 		.4byte	0x441
 1995 0489 00       		.byte	0
 1996 048a 0E       		.uleb128 0xe
 1997 048b 0E070000 		.4byte	.LASF94
 1998 048f 0C       		.byte	0xc
 1999 0490 77       		.byte	0x77
 2000 0491 41040000 		.4byte	0x441
 2001 0495 06       		.byte	0x6
 2002 0496 0E       		.uleb128 0xe
 2003 0497 65050000 		.4byte	.LASF95
 2004 049b 0C       		.byte	0xc
 2005 049c 78       		.byte	0x78
 2006 049d 41040000 		.4byte	0x441
 2007 04a1 0C       		.byte	0xc
 2008 04a2 00       		.byte	0
 2009 04a3 10       		.uleb128 0x10
 2010 04a4 C5060000 		.4byte	.LASF96
 2011 04a8 1801     		.2byte	0x118
 2012 04aa 0C       		.byte	0xc
 2013 04ab E8       		.byte	0xe8
 2014 04ac 2D050000 		.4byte	0x52d
 2015 04b0 0E       		.uleb128 0xe
 2016 04b1 D9020000 		.4byte	.LASF97
 2017 04b5 0C       		.byte	0xc
 2018 04b6 EB       		.byte	0xeb
 2019 04b7 F0020000 		.4byte	0x2f0
 2020 04bb 00       		.byte	0
 2021 04bc 0E       		.uleb128 0xe
 2022 04bd 52090000 		.4byte	.LASF98
 2023 04c1 0C       		.byte	0xc
 2024 04c2 EF       		.byte	0xef
 2025 04c3 F0020000 		.4byte	0x2f0
 2026 04c7 18       		.byte	0x18
 2027 04c8 0E       		.uleb128 0xe
 2028 04c9 9F000000 		.4byte	.LASF99
 2029 04cd 0C       		.byte	0xc
 2030 04ce F3       		.byte	0xf3
 2031 04cf F0020000 		.4byte	0x2f0
 2032 04d3 30       		.byte	0x30
 2033 04d4 0F       		.uleb128 0xf
 2034 04d5 697000   		.ascii	"ip\000"
 2035 04d8 0C       		.byte	0xc
 2036 04d9 F7       		.byte	0xf7
 2037 04da F0020000 		.4byte	0x2f0
 2038 04de 48       		.byte	0x48
 2039 04df 0E       		.uleb128 0xe
 2040 04e0 19020000 		.4byte	.LASF100
 2041 04e4 0C       		.byte	0xc
 2042 04e5 FB       		.byte	0xfb
 2043 04e6 F0020000 		.4byte	0x2f0
 2044 04ea 60       		.byte	0x60
 2045 04eb 0E       		.uleb128 0xe
 2046 04ec 4F0A0000 		.4byte	.LASF101
 2047 04f0 0C       		.byte	0xc
 2048 04f1 FF       		.byte	0xff
ARM GAS  C:\Users\Phuong\AppData\Local\Temp\ccYoYbaR.s 			page 55


 2049 04f2 8C030000 		.4byte	0x38c
 2050 04f6 78       		.byte	0x78
 2051 04f7 11       		.uleb128 0x11
 2052 04f8 75647000 		.ascii	"udp\000"
 2053 04fc 0C       		.byte	0xc
 2054 04fd 0301     		.2byte	0x103
 2055 04ff F0020000 		.4byte	0x2f0
 2056 0503 94       		.byte	0x94
 2057 0504 11       		.uleb128 0x11
 2058 0505 74637000 		.ascii	"tcp\000"
 2059 0509 0C       		.byte	0xc
 2060 050a 0701     		.2byte	0x107
 2061 050c F0020000 		.4byte	0x2f0
 2062 0510 AC       		.byte	0xac
 2063 0511 12       		.uleb128 0x12
 2064 0512 0F000000 		.4byte	.LASF102
 2065 0516 0C       		.byte	0xc
 2066 0517 0F01     		.2byte	0x10f
 2067 0519 2D050000 		.4byte	0x52d
 2068 051d C4       		.byte	0xc4
 2069 051e 13       		.uleb128 0x13
 2070 051f 73797300 		.ascii	"sys\000"
 2071 0523 0C       		.byte	0xc
 2072 0524 1301     		.2byte	0x113
 2073 0526 72040000 		.4byte	0x472
 2074 052a 0401     		.2byte	0x104
 2075 052c 00       		.byte	0
 2076 052d 08       		.uleb128 0x8
 2077 052e EA020000 		.4byte	0x2ea
 2078 0532 3D050000 		.4byte	0x53d
 2079 0536 09       		.uleb128 0x9
 2080 0537 8A000000 		.4byte	0x8a
 2081 053b 0F       		.byte	0xf
 2082 053c 00       		.byte	0
 2083 053d 14       		.uleb128 0x14
 2084 053e F3010000 		.4byte	.LASF106
 2085 0542 01       		.byte	0x1
 2086 0543 2C000000 		.4byte	0x2c
 2087 0547 0D       		.byte	0xd
 2088 0548 6B       		.byte	0x6b
 2089 0549 60050000 		.4byte	0x560
 2090 054d 0B       		.uleb128 0xb
 2091 054e F0070000 		.4byte	.LASF103
 2092 0552 00       		.byte	0
 2093 0553 0B       		.uleb128 0xb
 2094 0554 44070000 		.4byte	.LASF104
 2095 0558 01       		.byte	0x1
 2096 0559 0B       		.uleb128 0xb
 2097 055a 3E020000 		.4byte	.LASF105
 2098 055e 02       		.byte	0x2
 2099 055f 00       		.byte	0
 2100 0560 14       		.uleb128 0x14
 2101 0561 1C050000 		.4byte	.LASF107
 2102 0565 01       		.byte	0x1
 2103 0566 2C000000 		.4byte	0x2c
 2104 056a 0D       		.byte	0xd
 2105 056b 8F       		.byte	0x8f
ARM GAS  C:\Users\Phuong\AppData\Local\Temp\ccYoYbaR.s 			page 56


 2106 056c 7D050000 		.4byte	0x57d
 2107 0570 0B       		.uleb128 0xb
 2108 0571 2C040000 		.4byte	.LASF108
 2109 0575 00       		.byte	0
 2110 0576 0B       		.uleb128 0xb
 2111 0577 4D080000 		.4byte	.LASF109
 2112 057b 01       		.byte	0x1
 2113 057c 00       		.byte	0
 2114 057d 06       		.uleb128 0x6
 2115 057e 04       		.byte	0x4
 2116 057f 83050000 		.4byte	0x583
 2117 0583 0D       		.uleb128 0xd
 2118 0584 A9050000 		.4byte	.LASF110
 2119 0588 48       		.byte	0x48
 2120 0589 0D       		.byte	0xd
 2121 058a E1       		.byte	0xe1
 2122 058b 7F060000 		.4byte	0x67f
 2123 058f 0E       		.uleb128 0xe
 2124 0590 30010000 		.4byte	.LASF40
 2125 0594 0D       		.byte	0xd
 2126 0595 E3       		.byte	0xe3
 2127 0596 7D050000 		.4byte	0x57d
 2128 059a 00       		.byte	0
 2129 059b 0E       		.uleb128 0xe
 2130 059c 4C050000 		.4byte	.LASF111
 2131 05a0 0D       		.byte	0xd
 2132 05a1 E7       		.byte	0xe7
 2133 05a2 0C020000 		.4byte	0x20c
 2134 05a6 04       		.byte	0x4
 2135 05a7 0E       		.uleb128 0xe
 2136 05a8 8A020000 		.4byte	.LASF112
 2137 05ac 0D       		.byte	0xd
 2138 05ad E8       		.byte	0xe8
 2139 05ae 0C020000 		.4byte	0x20c
 2140 05b2 08       		.byte	0x8
 2141 05b3 0F       		.uleb128 0xf
 2142 05b4 677700   		.ascii	"gw\000"
 2143 05b7 0D       		.byte	0xd
 2144 05b8 E9       		.byte	0xe9
 2145 05b9 0C020000 		.4byte	0x20c
 2146 05bd 0C       		.byte	0xc
 2147 05be 0E       		.uleb128 0xe
 2148 05bf EA070000 		.4byte	.LASF113
 2149 05c3 0D       		.byte	0xd
 2150 05c4 F4       		.byte	0xf4
 2151 05c5 7F060000 		.4byte	0x67f
 2152 05c9 10       		.byte	0x10
 2153 05ca 0E       		.uleb128 0xe
 2154 05cb 5E050000 		.4byte	.LASF114
 2155 05cf 0D       		.byte	0xd
 2156 05d0 FA       		.byte	0xfa
 2157 05d1 A4060000 		.4byte	0x6a4
 2158 05d5 14       		.byte	0x14
 2159 05d6 0E       		.uleb128 0xe
 2160 05d7 440A0000 		.4byte	.LASF115
 2161 05db 0D       		.byte	0xd
 2162 05dc FF       		.byte	0xff
ARM GAS  C:\Users\Phuong\AppData\Local\Temp\ccYoYbaR.s 			page 57


 2163 05dd D9060000 		.4byte	0x6d9
 2164 05e1 18       		.byte	0x18
 2165 05e2 12       		.uleb128 0x12
 2166 05e3 B6070000 		.4byte	.LASF116
 2167 05e7 0D       		.byte	0xd
 2168 05e8 0A01     		.2byte	0x10a
 2169 05ea FE060000 		.4byte	0x6fe
 2170 05ee 1C       		.byte	0x1c
 2171 05ef 12       		.uleb128 0x12
 2172 05f0 C2010000 		.4byte	.LASF117
 2173 05f4 0D       		.byte	0xd
 2174 05f5 1701     		.2byte	0x117
 2175 05f7 88000000 		.4byte	0x88
 2176 05fb 20       		.byte	0x20
 2177 05fc 12       		.uleb128 0x12
 2178 05fd 38090000 		.4byte	.LASF118
 2179 0601 0D       		.byte	0xd
 2180 0602 1901     		.2byte	0x119
 2181 0604 BC000000 		.4byte	0xbc
 2182 0608 24       		.byte	0x24
 2183 0609 12       		.uleb128 0x12
 2184 060a 71000000 		.4byte	.LASF119
 2185 060e 0D       		.byte	0xd
 2186 060f 2101     		.2byte	0x121
 2187 0611 CC000000 		.4byte	0xcc
 2188 0615 2C       		.byte	0x2c
 2189 0616 12       		.uleb128 0x12
 2190 0617 C8010000 		.4byte	.LASF120
 2191 061b 0D       		.byte	0xd
 2192 061c 2501     		.2byte	0x125
 2193 061e 98000000 		.4byte	0x98
 2194 0622 30       		.byte	0x30
 2195 0623 11       		.uleb128 0x11
 2196 0624 6D747500 		.ascii	"mtu\000"
 2197 0628 0D       		.byte	0xd
 2198 0629 2B01     		.2byte	0x12b
 2199 062b E2000000 		.4byte	0xe2
 2200 062f 34       		.byte	0x34
 2201 0630 12       		.uleb128 0x12
 2202 0631 BF000000 		.4byte	.LASF121
 2203 0635 0D       		.byte	0xd
 2204 0636 2D01     		.2byte	0x12d
 2205 0638 CC000000 		.4byte	0xcc
 2206 063c 36       		.byte	0x36
 2207 063d 12       		.uleb128 0x12
 2208 063e 81010000 		.4byte	.LASF122
 2209 0642 0D       		.byte	0xd
 2210 0643 2F01     		.2byte	0x12f
 2211 0645 44070000 		.4byte	0x744
 2212 0649 37       		.byte	0x37
 2213 064a 12       		.uleb128 0x12
 2214 064b F4090000 		.4byte	.LASF44
 2215 064f 0D       		.byte	0xd
 2216 0650 3101     		.2byte	0x131
 2217 0652 CC000000 		.4byte	0xcc
 2218 0656 3D       		.byte	0x3d
 2219 0657 12       		.uleb128 0x12
ARM GAS  C:\Users\Phuong\AppData\Local\Temp\ccYoYbaR.s 			page 58


 2220 0658 9F030000 		.4byte	.LASF69
 2221 065c 0D       		.byte	0xd
 2222 065d 3301     		.2byte	0x133
 2223 065f 54070000 		.4byte	0x754
 2224 0663 3E       		.byte	0x3e
 2225 0664 11       		.uleb128 0x11
 2226 0665 6E756D00 		.ascii	"num\000"
 2227 0669 0D       		.byte	0xd
 2228 066a 3501     		.2byte	0x135
 2229 066c CC000000 		.4byte	0xcc
 2230 0670 40       		.byte	0x40
 2231 0671 12       		.uleb128 0x12
 2232 0672 59060000 		.4byte	.LASF123
 2233 0676 0D       		.byte	0xd
 2234 0677 4301     		.2byte	0x143
 2235 0679 1A070000 		.4byte	0x71a
 2236 067d 44       		.byte	0x44
 2237 067e 00       		.byte	0
 2238 067f 03       		.uleb128 0x3
 2239 0680 D7060000 		.4byte	.LASF124
 2240 0684 0D       		.byte	0xd
 2241 0685 A2       		.byte	0xa2
 2242 0686 8A060000 		.4byte	0x68a
 2243 068a 06       		.uleb128 0x6
 2244 068b 04       		.byte	0x4
 2245 068c 90060000 		.4byte	0x690
 2246 0690 15       		.uleb128 0x15
 2247 0691 03010000 		.4byte	0x103
 2248 0695 A4060000 		.4byte	0x6a4
 2249 0699 16       		.uleb128 0x16
 2250 069a E2010000 		.4byte	0x1e2
 2251 069e 16       		.uleb128 0x16
 2252 069f 7D050000 		.4byte	0x57d
 2253 06a3 00       		.byte	0
 2254 06a4 03       		.uleb128 0x3
 2255 06a5 7B070000 		.4byte	.LASF125
 2256 06a9 0D       		.byte	0xd
 2257 06aa AD       		.byte	0xad
 2258 06ab AF060000 		.4byte	0x6af
 2259 06af 06       		.uleb128 0x6
 2260 06b0 04       		.byte	0x4
 2261 06b1 B5060000 		.4byte	0x6b5
 2262 06b5 15       		.uleb128 0x15
 2263 06b6 03010000 		.4byte	0x103
 2264 06ba CE060000 		.4byte	0x6ce
 2265 06be 16       		.uleb128 0x16
 2266 06bf 7D050000 		.4byte	0x57d
 2267 06c3 16       		.uleb128 0x16
 2268 06c4 E2010000 		.4byte	0x1e2
 2269 06c8 16       		.uleb128 0x16
 2270 06c9 CE060000 		.4byte	0x6ce
 2271 06cd 00       		.byte	0
 2272 06ce 06       		.uleb128 0x6
 2273 06cf 04       		.byte	0x4
 2274 06d0 D4060000 		.4byte	0x6d4
 2275 06d4 07       		.uleb128 0x7
 2276 06d5 01020000 		.4byte	0x201
ARM GAS  C:\Users\Phuong\AppData\Local\Temp\ccYoYbaR.s 			page 59


 2277 06d9 03       		.uleb128 0x3
 2278 06da 92020000 		.4byte	.LASF126
 2279 06de 0D       		.byte	0xd
 2280 06df C4       		.byte	0xc4
 2281 06e0 E4060000 		.4byte	0x6e4
 2282 06e4 06       		.uleb128 0x6
 2283 06e5 04       		.byte	0x4
 2284 06e6 EA060000 		.4byte	0x6ea
 2285 06ea 15       		.uleb128 0x15
 2286 06eb 03010000 		.4byte	0x103
 2287 06ef FE060000 		.4byte	0x6fe
 2288 06f3 16       		.uleb128 0x16
 2289 06f4 7D050000 		.4byte	0x57d
 2290 06f8 16       		.uleb128 0x16
 2291 06f9 E2010000 		.4byte	0x1e2
 2292 06fd 00       		.byte	0
 2293 06fe 03       		.uleb128 0x3
 2294 06ff 22000000 		.4byte	.LASF127
 2295 0703 0D       		.byte	0xd
 2296 0704 C6       		.byte	0xc6
 2297 0705 09070000 		.4byte	0x709
 2298 0709 06       		.uleb128 0x6
 2299 070a 04       		.byte	0x4
 2300 070b 0F070000 		.4byte	0x70f
 2301 070f 17       		.uleb128 0x17
 2302 0710 1A070000 		.4byte	0x71a
 2303 0714 16       		.uleb128 0x16
 2304 0715 7D050000 		.4byte	0x57d
 2305 0719 00       		.byte	0
 2306 071a 03       		.uleb128 0x3
 2307 071b 3B000000 		.4byte	.LASF128
 2308 071f 0D       		.byte	0xd
 2309 0720 C9       		.byte	0xc9
 2310 0721 25070000 		.4byte	0x725
 2311 0725 06       		.uleb128 0x6
 2312 0726 04       		.byte	0x4
 2313 0727 2B070000 		.4byte	0x72b
 2314 072b 15       		.uleb128 0x15
 2315 072c 03010000 		.4byte	0x103
 2316 0730 44070000 		.4byte	0x744
 2317 0734 16       		.uleb128 0x16
 2318 0735 7D050000 		.4byte	0x57d
 2319 0739 16       		.uleb128 0x16
 2320 073a CE060000 		.4byte	0x6ce
 2321 073e 16       		.uleb128 0x16
 2322 073f 60050000 		.4byte	0x560
 2323 0743 00       		.byte	0
 2324 0744 08       		.uleb128 0x8
 2325 0745 CC000000 		.4byte	0xcc
 2326 0749 54070000 		.4byte	0x754
 2327 074d 09       		.uleb128 0x9
 2328 074e 8A000000 		.4byte	0x8a
 2329 0752 05       		.byte	0x5
 2330 0753 00       		.byte	0
 2331 0754 08       		.uleb128 0x8
 2332 0755 91000000 		.4byte	0x91
 2333 0759 64070000 		.4byte	0x764
ARM GAS  C:\Users\Phuong\AppData\Local\Temp\ccYoYbaR.s 			page 60


 2334 075d 09       		.uleb128 0x9
 2335 075e 8A000000 		.4byte	0x8a
 2336 0762 01       		.byte	0x1
 2337 0763 00       		.byte	0
 2338 0764 0D       		.uleb128 0xd
 2339 0765 DA010000 		.4byte	.LASF129
 2340 0769 04       		.byte	0x4
 2341 076a 0E       		.byte	0xe
 2342 076b 35       		.byte	0x35
 2343 076c 7D070000 		.4byte	0x77d
 2344 0770 0E       		.uleb128 0xe
 2345 0771 00010000 		.4byte	.LASF47
 2346 0775 0E       		.byte	0xe
 2347 0776 36       		.byte	0x36
 2348 0777 F8000000 		.4byte	0xf8
 2349 077b 00       		.byte	0
 2350 077c 00       		.byte	0
 2351 077d 03       		.uleb128 0x3
 2352 077e E8030000 		.4byte	.LASF130
 2353 0782 0E       		.byte	0xe
 2354 0783 3D       		.byte	0x3d
 2355 0784 64070000 		.4byte	0x764
 2356 0788 0D       		.uleb128 0xd
 2357 0789 CE030000 		.4byte	.LASF131
 2358 078d 14       		.byte	0x14
 2359 078e 0E       		.byte	0xe
 2360 078f 47       		.byte	0x47
 2361 0790 0D080000 		.4byte	0x80d
 2362 0794 0E       		.uleb128 0xe
 2363 0795 C5090000 		.4byte	.LASF132
 2364 0799 0E       		.byte	0xe
 2365 079a 49       		.byte	0x49
 2366 079b CC000000 		.4byte	0xcc
 2367 079f 00       		.byte	0
 2368 07a0 0E       		.uleb128 0xe
 2369 07a1 C0090000 		.4byte	.LASF133
 2370 07a5 0E       		.byte	0xe
 2371 07a6 4B       		.byte	0x4b
 2372 07a7 CC000000 		.4byte	0xcc
 2373 07ab 01       		.byte	0x1
 2374 07ac 0E       		.uleb128 0xe
 2375 07ad 860A0000 		.4byte	.LASF134
 2376 07b1 0E       		.byte	0xe
 2377 07b2 4D       		.byte	0x4d
 2378 07b3 E2000000 		.4byte	0xe2
 2379 07b7 02       		.byte	0x2
 2380 07b8 0F       		.uleb128 0xf
 2381 07b9 5F696400 		.ascii	"_id\000"
 2382 07bd 0E       		.byte	0xe
 2383 07be 4F       		.byte	0x4f
 2384 07bf E2000000 		.4byte	0xe2
 2385 07c3 04       		.byte	0x4
 2386 07c4 0E       		.uleb128 0xe
 2387 07c5 75020000 		.4byte	.LASF135
 2388 07c9 0E       		.byte	0xe
 2389 07ca 51       		.byte	0x51
 2390 07cb E2000000 		.4byte	0xe2
ARM GAS  C:\Users\Phuong\AppData\Local\Temp\ccYoYbaR.s 			page 61


 2391 07cf 06       		.byte	0x6
 2392 07d0 0E       		.uleb128 0xe
 2393 07d1 AF050000 		.4byte	.LASF136
 2394 07d5 0E       		.byte	0xe
 2395 07d6 57       		.byte	0x57
 2396 07d7 CC000000 		.4byte	0xcc
 2397 07db 08       		.byte	0x8
 2398 07dc 0E       		.uleb128 0xe
 2399 07dd C7030000 		.4byte	.LASF137
 2400 07e1 0E       		.byte	0xe
 2401 07e2 59       		.byte	0x59
 2402 07e3 CC000000 		.4byte	0xcc
 2403 07e7 09       		.byte	0x9
 2404 07e8 0E       		.uleb128 0xe
 2405 07e9 A4030000 		.4byte	.LASF138
 2406 07ed 0E       		.byte	0xe
 2407 07ee 5B       		.byte	0x5b
 2408 07ef E2000000 		.4byte	0xe2
 2409 07f3 0A       		.byte	0xa
 2410 07f4 0F       		.uleb128 0xf
 2411 07f5 73726300 		.ascii	"src\000"
 2412 07f9 0E       		.byte	0xe
 2413 07fa 5D       		.byte	0x5d
 2414 07fb 7D070000 		.4byte	0x77d
 2415 07ff 0C       		.byte	0xc
 2416 0800 0E       		.uleb128 0xe
 2417 0801 01070000 		.4byte	.LASF139
 2418 0805 0E       		.byte	0xe
 2419 0806 5E       		.byte	0x5e
 2420 0807 7D070000 		.4byte	0x77d
 2421 080b 10       		.byte	0x10
 2422 080c 00       		.byte	0
 2423 080d 0D       		.uleb128 0xd
 2424 080e 130A0000 		.4byte	.LASF140
 2425 0812 18       		.byte	0x18
 2426 0813 0F       		.byte	0xf
 2427 0814 69       		.byte	0x69
 2428 0815 62080000 		.4byte	0x862
 2429 0819 0E       		.uleb128 0xe
 2430 081a 05010000 		.4byte	.LASF141
 2431 081e 0F       		.byte	0xf
 2432 081f 6C       		.byte	0x6c
 2433 0820 7D050000 		.4byte	0x57d
 2434 0824 00       		.byte	0
 2435 0825 0E       		.uleb128 0xe
 2436 0826 25020000 		.4byte	.LASF142
 2437 082a 0F       		.byte	0xf
 2438 082b 6E       		.byte	0x6e
 2439 082c 7D050000 		.4byte	0x57d
 2440 0830 04       		.byte	0x4
 2441 0831 0E       		.uleb128 0xe
 2442 0832 09090000 		.4byte	.LASF143
 2443 0836 0F       		.byte	0xf
 2444 0837 71       		.byte	0x71
 2445 0838 62080000 		.4byte	0x862
 2446 083c 08       		.byte	0x8
 2447 083d 0E       		.uleb128 0xe
ARM GAS  C:\Users\Phuong\AppData\Local\Temp\ccYoYbaR.s 			page 62


 2448 083e 20080000 		.4byte	.LASF144
 2449 0842 0F       		.byte	0xf
 2450 0843 78       		.byte	0x78
 2451 0844 E2000000 		.4byte	0xe2
 2452 0848 0C       		.byte	0xc
 2453 0849 0E       		.uleb128 0xe
 2454 084a 03040000 		.4byte	.LASF145
 2455 084e 0F       		.byte	0xf
 2456 084f 7A       		.byte	0x7a
 2457 0850 0C020000 		.4byte	0x20c
 2458 0854 10       		.byte	0x10
 2459 0855 0E       		.uleb128 0xe
 2460 0856 8C000000 		.4byte	.LASF146
 2461 085a 0F       		.byte	0xf
 2462 085b 7C       		.byte	0x7c
 2463 085c 0C020000 		.4byte	0x20c
 2464 0860 14       		.byte	0x14
 2465 0861 00       		.byte	0
 2466 0862 06       		.uleb128 0x6
 2467 0863 04       		.byte	0x4
 2468 0864 88070000 		.4byte	0x788
 2469 0868 14       		.uleb128 0x14
 2470 0869 B9030000 		.4byte	.LASF147
 2471 086d 01       		.byte	0x1
 2472 086e 2C000000 		.4byte	0x2c
 2473 0872 10       		.byte	0x10
 2474 0873 37       		.byte	0x37
 2475 0874 9D080000 		.4byte	0x89d
 2476 0878 0B       		.uleb128 0xb
 2477 0879 1F040000 		.4byte	.LASF148
 2478 087d 00       		.byte	0
 2479 087e 0B       		.uleb128 0xb
 2480 087f 3F080000 		.4byte	.LASF149
 2481 0883 01       		.byte	0x1
 2482 0884 0B       		.uleb128 0xb
 2483 0885 E5090000 		.4byte	.LASF150
 2484 0889 02       		.byte	0x2
 2485 088a 0B       		.uleb128 0xb
 2486 088b 12080000 		.4byte	.LASF151
 2487 088f 03       		.byte	0x3
 2488 0890 0B       		.uleb128 0xb
 2489 0891 14000000 		.4byte	.LASF152
 2490 0895 04       		.byte	0x4
 2491 0896 0B       		.uleb128 0xb
 2492 0897 4F030000 		.4byte	.LASF153
 2493 089b 05       		.byte	0x5
 2494 089c 00       		.byte	0
 2495 089d 07       		.uleb128 0x7
 2496 089e 0C020000 		.4byte	0x20c
 2497 08a2 0D       		.uleb128 0xd
 2498 08a3 7D060000 		.4byte	.LASF154
 2499 08a7 08       		.byte	0x8
 2500 08a8 11       		.byte	0x11
 2501 08a9 35       		.byte	0x35
 2502 08aa DF080000 		.4byte	0x8df
 2503 08ae 0F       		.uleb128 0xf
 2504 08af 73726300 		.ascii	"src\000"
ARM GAS  C:\Users\Phuong\AppData\Local\Temp\ccYoYbaR.s 			page 63


 2505 08b3 11       		.byte	0x11
 2506 08b4 36       		.byte	0x36
 2507 08b5 E2000000 		.4byte	0xe2
 2508 08b9 00       		.byte	0
 2509 08ba 0E       		.uleb128 0xe
 2510 08bb 01070000 		.4byte	.LASF139
 2511 08bf 11       		.byte	0x11
 2512 08c0 37       		.byte	0x37
 2513 08c1 E2000000 		.4byte	0xe2
 2514 08c5 02       		.byte	0x2
 2515 08c6 0F       		.uleb128 0xf
 2516 08c7 6C656E00 		.ascii	"len\000"
 2517 08cb 11       		.byte	0x11
 2518 08cc 38       		.byte	0x38
 2519 08cd E2000000 		.4byte	0xe2
 2520 08d1 04       		.byte	0x4
 2521 08d2 0E       		.uleb128 0xe
 2522 08d3 2D0A0000 		.4byte	.LASF155
 2523 08d7 11       		.byte	0x11
 2524 08d8 39       		.byte	0x39
 2525 08d9 E2000000 		.4byte	0xe2
 2526 08dd 06       		.byte	0x6
 2527 08de 00       		.byte	0
 2528 08df 18       		.uleb128 0x18
 2529 08e0 8B070000 		.4byte	.LASF206
 2530 08e4 01       		.byte	0x1
 2531 08e5 75       		.byte	0x75
 2532 08e6 00000000 		.4byte	.LFB53
 2533 08ea 0C000000 		.4byte	.LFE53-.LFB53
 2534 08ee 01       		.uleb128 0x1
 2535 08ef 9C       		.byte	0x9c
 2536 08f0 02090000 		.4byte	0x902
 2537 08f4 19       		.uleb128 0x19
 2538 08f5 41040000 		.4byte	.LASF156
 2539 08f9 01       		.byte	0x1
 2540 08fa 75       		.byte	0x75
 2541 08fb 7D050000 		.4byte	0x57d
 2542 08ff 01       		.uleb128 0x1
 2543 0900 50       		.byte	0x50
 2544 0901 00       		.byte	0
 2545 0902 1A       		.uleb128 0x1a
 2546 0903 740A0000 		.4byte	.LASF157
 2547 0907 01       		.byte	0x1
 2548 0908 98       		.byte	0x98
 2549 0909 7D050000 		.4byte	0x57d
 2550 090d 00000000 		.4byte	.LFB54
 2551 0911 7C000000 		.4byte	.LFE54-.LFB54
 2552 0915 01       		.uleb128 0x1
 2553 0916 9C       		.byte	0x9c
 2554 0917 3A090000 		.4byte	0x93a
 2555 091b 1B       		.uleb128 0x1b
 2556 091c 01070000 		.4byte	.LASF139
 2557 0920 01       		.byte	0x1
 2558 0921 98       		.byte	0x98
 2559 0922 CE060000 		.4byte	0x6ce
 2560 0926 00000000 		.4byte	.LLST0
 2561 092a 1C       		.uleb128 0x1c
ARM GAS  C:\Users\Phuong\AppData\Local\Temp\ccYoYbaR.s 			page 64


 2562 092b A9050000 		.4byte	.LASF110
 2563 092f 01       		.byte	0x1
 2564 0930 9A       		.byte	0x9a
 2565 0931 7D050000 		.4byte	0x57d
 2566 0935 21000000 		.4byte	.LLST1
 2567 0939 00       		.byte	0
 2568 093a 1D       		.uleb128 0x1d
 2569 093b 9F050000 		.4byte	.LASF158
 2570 093f 01       		.byte	0x1
 2571 0940 7601     		.2byte	0x176
 2572 0942 03010000 		.4byte	0x103
 2573 0946 00000000 		.4byte	.LFB55
 2574 094a E8020000 		.4byte	.LFE55-.LFB55
 2575 094e 01       		.uleb128 0x1
 2576 094f 9C       		.byte	0x9c
 2577 0950 F20B0000 		.4byte	0xbf2
 2578 0954 1E       		.uleb128 0x1e
 2579 0955 7000     		.ascii	"p\000"
 2580 0957 01       		.byte	0x1
 2581 0958 7601     		.2byte	0x176
 2582 095a E2010000 		.4byte	0x1e2
 2583 095e 34000000 		.4byte	.LLST2
 2584 0962 1E       		.uleb128 0x1e
 2585 0963 696E7000 		.ascii	"inp\000"
 2586 0967 01       		.byte	0x1
 2587 0968 7601     		.2byte	0x176
 2588 096a 7D050000 		.4byte	0x57d
 2589 096e 7E000000 		.4byte	.LLST3
 2590 0972 1F       		.uleb128 0x1f
 2591 0973 8F060000 		.4byte	.LASF159
 2592 0977 01       		.byte	0x1
 2593 0978 7801     		.2byte	0x178
 2594 097a 62080000 		.4byte	0x862
 2595 097e D6000000 		.4byte	.LLST4
 2596 0982 1F       		.uleb128 0x1f
 2597 0983 A9050000 		.4byte	.LASF110
 2598 0987 01       		.byte	0x1
 2599 0988 7901     		.2byte	0x179
 2600 098a 7D050000 		.4byte	0x57d
 2601 098e E9000000 		.4byte	.LLST5
 2602 0992 1F       		.uleb128 0x1f
 2603 0993 66070000 		.4byte	.LASF160
 2604 0997 01       		.byte	0x1
 2605 0998 7A01     		.2byte	0x17a
 2606 099a E2000000 		.4byte	0xe2
 2607 099e 1D010000 		.4byte	.LLST6
 2608 09a2 1F       		.uleb128 0x1f
 2609 09a3 06030000 		.4byte	.LASF161
 2610 09a7 01       		.byte	0x1
 2611 09a8 7B01     		.2byte	0x17b
 2612 09aa E2000000 		.4byte	0xe2
 2613 09ae 3B010000 		.4byte	.LLST7
 2614 09b2 1F       		.uleb128 0x1f
 2615 09b3 88010000 		.4byte	.LASF162
 2616 09b7 01       		.byte	0x1
 2617 09b8 7D01     		.2byte	0x17d
 2618 09ba 68000000 		.4byte	0x68
ARM GAS  C:\Users\Phuong\AppData\Local\Temp\ccYoYbaR.s 			page 65


 2619 09be 4E010000 		.4byte	.LLST8
 2620 09c2 20       		.uleb128 0x20
 2621 09c3 00000000 		.4byte	.Ldebug_ranges0+0
 2622 09c7 D8090000 		.4byte	0x9d8
 2623 09cb 21       		.uleb128 0x21
 2624 09cc B7010000 		.4byte	.LASF207
 2625 09d0 01       		.byte	0x1
 2626 09d1 D401     		.2byte	0x1d4
 2627 09d3 01020000 		.4byte	0x201
 2628 09d7 00       		.byte	0
 2629 09d8 20       		.uleb128 0x20
 2630 09d9 18000000 		.4byte	.Ldebug_ranges0+0x18
 2631 09dd 020A0000 		.4byte	0xa02
 2632 09e1 1F       		.uleb128 0x1f
 2633 09e2 7C080000 		.4byte	.LASF163
 2634 09e6 01       		.byte	0x1
 2635 09e7 E901     		.2byte	0x1e9
 2636 09e9 68000000 		.4byte	0x68
 2637 09ed 84010000 		.4byte	.LLST9
 2638 09f1 22       		.uleb128 0x22
 2639 09f2 40010000 		.4byte	.LVL27
 2640 09f6 6B110000 		.4byte	0x116b
 2641 09fa 23       		.uleb128 0x23
 2642 09fb 01       		.uleb128 0x1
 2643 09fc 51       		.byte	0x51
 2644 09fd 02       		.uleb128 0x2
 2645 09fe 74       		.byte	0x74
 2646 09ff 00       		.sleb128 0
 2647 0a00 00       		.byte	0
 2648 0a01 00       		.byte	0
 2649 0a02 24       		.uleb128 0x24
 2650 0a03 92010000 		.4byte	.LBB7
 2651 0a07 16000000 		.4byte	.LBE7-.LBB7
 2652 0a0b 200A0000 		.4byte	0xa20
 2653 0a0f 1F       		.uleb128 0x1f
 2654 0a10 65000000 		.4byte	.LASF164
 2655 0a14 01       		.byte	0x1
 2656 0a15 2E02     		.2byte	0x22e
 2657 0a17 F20B0000 		.4byte	0xbf2
 2658 0a1b DA010000 		.4byte	.LLST10
 2659 0a1f 00       		.byte	0
 2660 0a20 25       		.uleb128 0x25
 2661 0a21 24000000 		.4byte	.LVL10
 2662 0a25 76110000 		.4byte	0x1176
 2663 0a29 340A0000 		.4byte	0xa34
 2664 0a2d 23       		.uleb128 0x23
 2665 0a2e 01       		.uleb128 0x1
 2666 0a2f 50       		.byte	0x50
 2667 0a30 02       		.uleb128 0x2
 2668 0a31 75       		.byte	0x75
 2669 0a32 00       		.sleb128 0
 2670 0a33 00       		.byte	0
 2671 0a34 26       		.uleb128 0x26
 2672 0a35 4A000000 		.4byte	.LVL15
 2673 0a39 81110000 		.4byte	0x1181
 2674 0a3d 25       		.uleb128 0x25
 2675 0a3e 5A000000 		.4byte	.LVL18
ARM GAS  C:\Users\Phuong\AppData\Local\Temp\ccYoYbaR.s 			page 66


 2676 0a42 8C110000 		.4byte	0x118c
 2677 0a46 570A0000 		.4byte	0xa57
 2678 0a4a 23       		.uleb128 0x23
 2679 0a4b 01       		.uleb128 0x1
 2680 0a4c 50       		.byte	0x50
 2681 0a4d 02       		.uleb128 0x2
 2682 0a4e 75       		.byte	0x75
 2683 0a4f 00       		.sleb128 0
 2684 0a50 23       		.uleb128 0x23
 2685 0a51 01       		.uleb128 0x1
 2686 0a52 51       		.byte	0x51
 2687 0a53 02       		.uleb128 0x2
 2688 0a54 74       		.byte	0x74
 2689 0a55 00       		.sleb128 0
 2690 0a56 00       		.byte	0
 2691 0a57 25       		.uleb128 0x25
 2692 0a58 70000000 		.4byte	.LVL19
 2693 0a5c 76110000 		.4byte	0x1176
 2694 0a60 6B0A0000 		.4byte	0xa6b
 2695 0a64 23       		.uleb128 0x23
 2696 0a65 01       		.uleb128 0x1
 2697 0a66 50       		.byte	0x50
 2698 0a67 02       		.uleb128 0x2
 2699 0a68 75       		.byte	0x75
 2700 0a69 00       		.sleb128 0
 2701 0a6a 00       		.byte	0
 2702 0a6b 25       		.uleb128 0x25
 2703 0a6c 8C000000 		.4byte	.LVL20
 2704 0a70 97110000 		.4byte	0x1197
 2705 0a74 850A0000 		.4byte	0xa85
 2706 0a78 23       		.uleb128 0x23
 2707 0a79 01       		.uleb128 0x1
 2708 0a7a 50       		.byte	0x50
 2709 0a7b 02       		.uleb128 0x2
 2710 0a7c 77       		.byte	0x77
 2711 0a7d 00       		.sleb128 0
 2712 0a7e 23       		.uleb128 0x23
 2713 0a7f 01       		.uleb128 0x1
 2714 0a80 51       		.byte	0x51
 2715 0a81 02       		.uleb128 0x2
 2716 0a82 76       		.byte	0x76
 2717 0a83 00       		.sleb128 0
 2718 0a84 00       		.byte	0
 2719 0a85 25       		.uleb128 0x25
 2720 0a86 96000000 		.4byte	.LVL21
 2721 0a8a 76110000 		.4byte	0x1176
 2722 0a8e 990A0000 		.4byte	0xa99
 2723 0a92 23       		.uleb128 0x23
 2724 0a93 01       		.uleb128 0x1
 2725 0a94 50       		.byte	0x50
 2726 0a95 02       		.uleb128 0x2
 2727 0a96 75       		.byte	0x75
 2728 0a97 00       		.sleb128 0
 2729 0a98 00       		.byte	0
 2730 0a99 25       		.uleb128 0x25
 2731 0a9a FA000000 		.4byte	.LVL23
 2732 0a9e A2110000 		.4byte	0x11a2
ARM GAS  C:\Users\Phuong\AppData\Local\Temp\ccYoYbaR.s 			page 67


 2733 0aa2 AD0A0000 		.4byte	0xaad
 2734 0aa6 23       		.uleb128 0x23
 2735 0aa7 01       		.uleb128 0x1
 2736 0aa8 50       		.byte	0x50
 2737 0aa9 02       		.uleb128 0x2
 2738 0aaa 78       		.byte	0x78
 2739 0aab 00       		.sleb128 0
 2740 0aac 00       		.byte	0
 2741 0aad 25       		.uleb128 0x25
 2742 0aae BA010000 		.4byte	.LVL44
 2743 0ab2 6B110000 		.4byte	0x116b
 2744 0ab6 C10A0000 		.4byte	0xac1
 2745 0aba 23       		.uleb128 0x23
 2746 0abb 01       		.uleb128 0x1
 2747 0abc 51       		.byte	0x51
 2748 0abd 02       		.uleb128 0x2
 2749 0abe 78       		.byte	0x78
 2750 0abf 00       		.sleb128 0
 2751 0ac0 00       		.byte	0
 2752 0ac1 25       		.uleb128 0x25
 2753 0ac2 D0010000 		.4byte	.LVL45
 2754 0ac6 76110000 		.4byte	0x1176
 2755 0aca D50A0000 		.4byte	0xad5
 2756 0ace 23       		.uleb128 0x23
 2757 0acf 01       		.uleb128 0x1
 2758 0ad0 50       		.byte	0x50
 2759 0ad1 02       		.uleb128 0x2
 2760 0ad2 75       		.byte	0x75
 2761 0ad3 00       		.sleb128 0
 2762 0ad4 00       		.byte	0
 2763 0ad5 25       		.uleb128 0x25
 2764 0ad6 F0010000 		.4byte	.LVL46
 2765 0ada 76110000 		.4byte	0x1176
 2766 0ade E90A0000 		.4byte	0xae9
 2767 0ae2 23       		.uleb128 0x23
 2768 0ae3 01       		.uleb128 0x1
 2769 0ae4 50       		.byte	0x50
 2770 0ae5 02       		.uleb128 0x2
 2771 0ae6 75       		.byte	0x75
 2772 0ae7 00       		.sleb128 0
 2773 0ae8 00       		.byte	0
 2774 0ae9 25       		.uleb128 0x25
 2775 0aea 06020000 		.4byte	.LVL47
 2776 0aee AD110000 		.4byte	0x11ad
 2777 0af2 FD0A0000 		.4byte	0xafd
 2778 0af6 23       		.uleb128 0x23
 2779 0af7 01       		.uleb128 0x1
 2780 0af8 50       		.byte	0x50
 2781 0af9 02       		.uleb128 0x2
 2782 0afa 75       		.byte	0x75
 2783 0afb 00       		.sleb128 0
 2784 0afc 00       		.byte	0
 2785 0afd 25       		.uleb128 0x25
 2786 0afe 28020000 		.4byte	.LVL50
 2787 0b02 B8110000 		.4byte	0x11b8
 2788 0b06 170B0000 		.4byte	0xb17
 2789 0b0a 23       		.uleb128 0x23
ARM GAS  C:\Users\Phuong\AppData\Local\Temp\ccYoYbaR.s 			page 68


 2790 0b0b 01       		.uleb128 0x1
 2791 0b0c 50       		.byte	0x50
 2792 0b0d 02       		.uleb128 0x2
 2793 0b0e 75       		.byte	0x75
 2794 0b0f 00       		.sleb128 0
 2795 0b10 23       		.uleb128 0x23
 2796 0b11 01       		.uleb128 0x1
 2797 0b12 51       		.byte	0x51
 2798 0b13 02       		.uleb128 0x2
 2799 0b14 78       		.byte	0x78
 2800 0b15 00       		.sleb128 0
 2801 0b16 00       		.byte	0
 2802 0b17 25       		.uleb128 0x25
 2803 0b18 36020000 		.4byte	.LVL51
 2804 0b1c C3110000 		.4byte	0x11c3
 2805 0b20 320B0000 		.4byte	0xb32
 2806 0b24 23       		.uleb128 0x23
 2807 0b25 01       		.uleb128 0x1
 2808 0b26 50       		.byte	0x50
 2809 0b27 02       		.uleb128 0x2
 2810 0b28 75       		.byte	0x75
 2811 0b29 00       		.sleb128 0
 2812 0b2a 23       		.uleb128 0x23
 2813 0b2b 01       		.uleb128 0x1
 2814 0b2c 51       		.byte	0x51
 2815 0b2d 03       		.uleb128 0x3
 2816 0b2e 76       		.byte	0x76
 2817 0b2f 00       		.sleb128 0
 2818 0b30 1F       		.byte	0x1f
 2819 0b31 00       		.byte	0
 2820 0b32 25       		.uleb128 0x25
 2821 0b33 54020000 		.4byte	.LVL52
 2822 0b37 CE110000 		.4byte	0x11ce
 2823 0b3b 4C0B0000 		.4byte	0xb4c
 2824 0b3f 23       		.uleb128 0x23
 2825 0b40 01       		.uleb128 0x1
 2826 0b41 50       		.byte	0x50
 2827 0b42 02       		.uleb128 0x2
 2828 0b43 75       		.byte	0x75
 2829 0b44 00       		.sleb128 0
 2830 0b45 23       		.uleb128 0x23
 2831 0b46 01       		.uleb128 0x1
 2832 0b47 51       		.byte	0x51
 2833 0b48 02       		.uleb128 0x2
 2834 0b49 78       		.byte	0x78
 2835 0b4a 00       		.sleb128 0
 2836 0b4b 00       		.byte	0
 2837 0b4c 25       		.uleb128 0x25
 2838 0b4d 5E020000 		.4byte	.LVL53
 2839 0b51 D9110000 		.4byte	0x11d9
 2840 0b55 660B0000 		.4byte	0xb66
 2841 0b59 23       		.uleb128 0x23
 2842 0b5a 01       		.uleb128 0x1
 2843 0b5b 50       		.byte	0x50
 2844 0b5c 02       		.uleb128 0x2
 2845 0b5d 75       		.byte	0x75
 2846 0b5e 00       		.sleb128 0
ARM GAS  C:\Users\Phuong\AppData\Local\Temp\ccYoYbaR.s 			page 69


 2847 0b5f 23       		.uleb128 0x23
 2848 0b60 01       		.uleb128 0x1
 2849 0b61 51       		.byte	0x51
 2850 0b62 02       		.uleb128 0x2
 2851 0b63 78       		.byte	0x78
 2852 0b64 00       		.sleb128 0
 2853 0b65 00       		.byte	0
 2854 0b66 25       		.uleb128 0x25
 2855 0b67 68020000 		.4byte	.LVL54
 2856 0b6b E4110000 		.4byte	0x11e4
 2857 0b6f 800B0000 		.4byte	0xb80
 2858 0b73 23       		.uleb128 0x23
 2859 0b74 01       		.uleb128 0x1
 2860 0b75 50       		.byte	0x50
 2861 0b76 02       		.uleb128 0x2
 2862 0b77 75       		.byte	0x75
 2863 0b78 00       		.sleb128 0
 2864 0b79 23       		.uleb128 0x23
 2865 0b7a 01       		.uleb128 0x1
 2866 0b7b 51       		.byte	0x51
 2867 0b7c 02       		.uleb128 0x2
 2868 0b7d 78       		.byte	0x78
 2869 0b7e 00       		.sleb128 0
 2870 0b7f 00       		.byte	0
 2871 0b80 25       		.uleb128 0x25
 2872 0b81 74020000 		.4byte	.LVL55
 2873 0b85 EF110000 		.4byte	0x11ef
 2874 0b89 9A0B0000 		.4byte	0xb9a
 2875 0b8d 23       		.uleb128 0x23
 2876 0b8e 01       		.uleb128 0x1
 2877 0b8f 50       		.byte	0x50
 2878 0b90 02       		.uleb128 0x2
 2879 0b91 75       		.byte	0x75
 2880 0b92 00       		.sleb128 0
 2881 0b93 23       		.uleb128 0x23
 2882 0b94 01       		.uleb128 0x1
 2883 0b95 51       		.byte	0x51
 2884 0b96 02       		.uleb128 0x2
 2885 0b97 78       		.byte	0x78
 2886 0b98 00       		.sleb128 0
 2887 0b99 00       		.byte	0
 2888 0b9a 25       		.uleb128 0x25
 2889 0b9b 80020000 		.4byte	.LVL56
 2890 0b9f 6B110000 		.4byte	0x116b
 2891 0ba3 AE0B0000 		.4byte	0xbae
 2892 0ba7 23       		.uleb128 0x23
 2893 0ba8 01       		.uleb128 0x1
 2894 0ba9 51       		.byte	0x51
 2895 0baa 02       		.uleb128 0x2
 2896 0bab 74       		.byte	0x74
 2897 0bac 00       		.sleb128 0
 2898 0bad 00       		.byte	0
 2899 0bae 25       		.uleb128 0x25
 2900 0baf 98020000 		.4byte	.LVL57
 2901 0bb3 FA110000 		.4byte	0x11fa
 2902 0bb7 C80B0000 		.4byte	0xbc8
 2903 0bbb 23       		.uleb128 0x23
ARM GAS  C:\Users\Phuong\AppData\Local\Temp\ccYoYbaR.s 			page 70


 2904 0bbc 01       		.uleb128 0x1
 2905 0bbd 50       		.byte	0x50
 2906 0bbe 02       		.uleb128 0x2
 2907 0bbf 75       		.byte	0x75
 2908 0bc0 00       		.sleb128 0
 2909 0bc1 23       		.uleb128 0x23
 2910 0bc2 01       		.uleb128 0x1
 2911 0bc3 51       		.byte	0x51
 2912 0bc4 02       		.uleb128 0x2
 2913 0bc5 76       		.byte	0x76
 2914 0bc6 00       		.sleb128 0
 2915 0bc7 00       		.byte	0
 2916 0bc8 25       		.uleb128 0x25
 2917 0bc9 A2020000 		.4byte	.LVL58
 2918 0bcd 05120000 		.4byte	0x1205
 2919 0bd1 E10B0000 		.4byte	0xbe1
 2920 0bd5 23       		.uleb128 0x23
 2921 0bd6 01       		.uleb128 0x1
 2922 0bd7 50       		.byte	0x50
 2923 0bd8 02       		.uleb128 0x2
 2924 0bd9 75       		.byte	0x75
 2925 0bda 00       		.sleb128 0
 2926 0bdb 23       		.uleb128 0x23
 2927 0bdc 01       		.uleb128 0x1
 2928 0bdd 51       		.byte	0x51
 2929 0bde 01       		.uleb128 0x1
 2930 0bdf 32       		.byte	0x32
 2931 0be0 00       		.byte	0
 2932 0be1 22       		.uleb128 0x22
 2933 0be2 A8020000 		.4byte	.LVL59
 2934 0be6 76110000 		.4byte	0x1176
 2935 0bea 23       		.uleb128 0x23
 2936 0beb 01       		.uleb128 0x1
 2937 0bec 50       		.byte	0x50
 2938 0bed 02       		.uleb128 0x2
 2939 0bee 75       		.byte	0x75
 2940 0bef 00       		.sleb128 0
 2941 0bf0 00       		.byte	0
 2942 0bf1 00       		.byte	0
 2943 0bf2 06       		.uleb128 0x6
 2944 0bf3 04       		.byte	0x4
 2945 0bf4 A2080000 		.4byte	0x8a2
 2946 0bf8 1D       		.uleb128 0x1d
 2947 0bf9 75090000 		.4byte	.LASF165
 2948 0bfd 01       		.byte	0x1
 2949 0bfe 2803     		.2byte	0x328
 2950 0c00 03010000 		.4byte	0x103
 2951 0c04 00000000 		.4byte	.LFB59
 2952 0c08 F8010000 		.4byte	.LFE59-.LFB59
 2953 0c0c 01       		.uleb128 0x1
 2954 0c0d 9C       		.byte	0x9c
 2955 0c0e C40D0000 		.4byte	0xdc4
 2956 0c12 1E       		.uleb128 0x1e
 2957 0c13 7000     		.ascii	"p\000"
 2958 0c15 01       		.byte	0x1
 2959 0c16 2803     		.2byte	0x328
 2960 0c18 E2010000 		.4byte	0x1e2
ARM GAS  C:\Users\Phuong\AppData\Local\Temp\ccYoYbaR.s 			page 71


 2961 0c1c FD010000 		.4byte	.LLST11
 2962 0c20 1E       		.uleb128 0x1e
 2963 0c21 73726300 		.ascii	"src\000"
 2964 0c25 01       		.byte	0x1
 2965 0c26 2803     		.2byte	0x328
 2966 0c28 CE060000 		.4byte	0x6ce
 2967 0c2c 55020000 		.4byte	.LLST12
 2968 0c30 27       		.uleb128 0x27
 2969 0c31 01070000 		.4byte	.LASF139
 2970 0c35 01       		.byte	0x1
 2971 0c36 2803     		.2byte	0x328
 2972 0c38 CE060000 		.4byte	0x6ce
 2973 0c3c D9020000 		.4byte	.LLST13
 2974 0c40 1E       		.uleb128 0x1e
 2975 0c41 74746C00 		.ascii	"ttl\000"
 2976 0c45 01       		.byte	0x1
 2977 0c46 2903     		.2byte	0x329
 2978 0c48 CC000000 		.4byte	0xcc
 2979 0c4c 46030000 		.4byte	.LLST14
 2980 0c50 1E       		.uleb128 0x1e
 2981 0c51 746F7300 		.ascii	"tos\000"
 2982 0c55 01       		.byte	0x1
 2983 0c56 2903     		.2byte	0x329
 2984 0c58 CC000000 		.4byte	0xcc
 2985 0c5c 67030000 		.4byte	.LLST15
 2986 0c60 27       		.uleb128 0x27
 2987 0c61 DB070000 		.4byte	.LASF166
 2988 0c65 01       		.byte	0x1
 2989 0c66 2903     		.2byte	0x329
 2990 0c68 CC000000 		.4byte	0xcc
 2991 0c6c 93030000 		.4byte	.LLST16
 2992 0c70 27       		.uleb128 0x27
 2993 0c71 A9050000 		.4byte	.LASF110
 2994 0c75 01       		.byte	0x1
 2995 0c76 2903     		.2byte	0x329
 2996 0c78 7D050000 		.4byte	0x57d
 2997 0c7c D7030000 		.4byte	.LLST17
 2998 0c80 27       		.uleb128 0x27
 2999 0c81 AF020000 		.4byte	.LASF167
 3000 0c85 01       		.byte	0x1
 3001 0c86 2903     		.2byte	0x329
 3002 0c88 88000000 		.4byte	0x88
 3003 0c8c 03040000 		.4byte	.LLST18
 3004 0c90 27       		.uleb128 0x27
 3005 0c91 1C090000 		.4byte	.LASF168
 3006 0c95 01       		.byte	0x1
 3007 0c96 2A03     		.2byte	0x32a
 3008 0c98 E2000000 		.4byte	0xe2
 3009 0c9c 2F040000 		.4byte	.LLST19
 3010 0ca0 1F       		.uleb128 0x1f
 3011 0ca1 8F060000 		.4byte	.LASF159
 3012 0ca5 01       		.byte	0x1
 3013 0ca6 2D03     		.2byte	0x32d
 3014 0ca8 62080000 		.4byte	0x862
 3015 0cac A3040000 		.4byte	.LLST20
 3016 0cb0 28       		.uleb128 0x28
 3017 0cb1 A4090000 		.4byte	.LASF169
ARM GAS  C:\Users\Phuong\AppData\Local\Temp\ccYoYbaR.s 			page 72


 3018 0cb5 01       		.byte	0x1
 3019 0cb6 2E03     		.2byte	0x32e
 3020 0cb8 01020000 		.4byte	0x201
 3021 0cbc 02       		.uleb128 0x2
 3022 0cbd 91       		.byte	0x91
 3023 0cbe 54       		.sleb128 -44
 3024 0cbf 1F       		.uleb128 0x1f
 3025 0cc0 35010000 		.4byte	.LASF170
 3026 0cc4 01       		.byte	0x1
 3027 0cc5 3003     		.2byte	0x330
 3028 0cc7 F8000000 		.4byte	0xf8
 3029 0ccb C1040000 		.4byte	.LLST21
 3030 0ccf 20       		.uleb128 0x20
 3031 0cd0 38000000 		.4byte	.Ldebug_ranges0+0x38
 3032 0cd4 890D0000 		.4byte	0xd89
 3033 0cd8 1F       		.uleb128 0x1f
 3034 0cd9 0A050000 		.4byte	.LASF171
 3035 0cdd 01       		.byte	0x1
 3036 0cde 3903     		.2byte	0x339
 3037 0ce0 E2000000 		.4byte	0xe2
 3038 0ce4 24050000 		.4byte	.LLST22
 3039 0ce8 1F       		.uleb128 0x1f
 3040 0ce9 DE020000 		.4byte	.LASF172
 3041 0ced 01       		.byte	0x1
 3042 0cee 3B03     		.2byte	0x33b
 3043 0cf0 E2000000 		.4byte	0xe2
 3044 0cf4 5C050000 		.4byte	.LLST23
 3045 0cf8 20       		.uleb128 0x20
 3046 0cf9 58000000 		.4byte	.Ldebug_ranges0+0x58
 3047 0cfd 5D0D0000 		.4byte	0xd5d
 3048 0d01 29       		.uleb128 0x29
 3049 0d02 6900     		.ascii	"i\000"
 3050 0d04 01       		.byte	0x1
 3051 0d05 3E03     		.2byte	0x33e
 3052 0d07 68000000 		.4byte	0x68
 3053 0d0b 87050000 		.4byte	.LLST24
 3054 0d0f 25       		.uleb128 0x25
 3055 0d10 46000000 		.4byte	.LVL76
 3056 0d14 C3110000 		.4byte	0x11c3
 3057 0d18 290D0000 		.4byte	0xd29
 3058 0d1c 23       		.uleb128 0x23
 3059 0d1d 01       		.uleb128 0x1
 3060 0d1e 50       		.byte	0x50
 3061 0d1f 02       		.uleb128 0x2
 3062 0d20 75       		.byte	0x75
 3063 0d21 00       		.sleb128 0
 3064 0d22 23       		.uleb128 0x23
 3065 0d23 01       		.uleb128 0x1
 3066 0d24 51       		.byte	0x51
 3067 0d25 02       		.uleb128 0x2
 3068 0d26 74       		.byte	0x74
 3069 0d27 00       		.sleb128 0
 3070 0d28 00       		.byte	0
 3071 0d29 25       		.uleb128 0x25
 3072 0d2a 64000000 		.4byte	.LVL77
 3073 0d2e 10120000 		.4byte	0x1210
 3074 0d32 440D0000 		.4byte	0xd44
ARM GAS  C:\Users\Phuong\AppData\Local\Temp\ccYoYbaR.s 			page 73


 3075 0d36 23       		.uleb128 0x23
 3076 0d37 01       		.uleb128 0x1
 3077 0d38 51       		.byte	0x51
 3078 0d39 03       		.uleb128 0x3
 3079 0d3a 91       		.byte	0x91
 3080 0d3b 0C       		.sleb128 12
 3081 0d3c 06       		.byte	0x6
 3082 0d3d 23       		.uleb128 0x23
 3083 0d3e 01       		.uleb128 0x1
 3084 0d3f 52       		.byte	0x52
 3085 0d40 02       		.uleb128 0x2
 3086 0d41 76       		.byte	0x76
 3087 0d42 00       		.sleb128 0
 3088 0d43 00       		.byte	0
 3089 0d44 22       		.uleb128 0x22
 3090 0d45 74000000 		.4byte	.LVL78
 3091 0d49 19120000 		.4byte	0x1219
 3092 0d4d 23       		.uleb128 0x23
 3093 0d4e 01       		.uleb128 0x1
 3094 0d4f 51       		.byte	0x51
 3095 0d50 01       		.uleb128 0x1
 3096 0d51 30       		.byte	0x30
 3097 0d52 23       		.uleb128 0x23
 3098 0d53 01       		.uleb128 0x1
 3099 0d54 52       		.byte	0x52
 3100 0d55 05       		.uleb128 0x5
 3101 0d56 74       		.byte	0x74
 3102 0d57 00       		.sleb128 0
 3103 0d58 76       		.byte	0x76
 3104 0d59 00       		.sleb128 0
 3105 0d5a 1C       		.byte	0x1c
 3106 0d5b 00       		.byte	0
 3107 0d5c 00       		.byte	0
 3108 0d5d 25       		.uleb128 0x25
 3109 0d5e 9A000000 		.4byte	.LVL85
 3110 0d62 C3110000 		.4byte	0x11c3
 3111 0d66 760D0000 		.4byte	0xd76
 3112 0d6a 23       		.uleb128 0x23
 3113 0d6b 01       		.uleb128 0x1
 3114 0d6c 50       		.byte	0x50
 3115 0d6d 02       		.uleb128 0x2
 3116 0d6e 75       		.byte	0x75
 3117 0d6f 00       		.sleb128 0
 3118 0d70 23       		.uleb128 0x23
 3119 0d71 01       		.uleb128 0x1
 3120 0d72 51       		.byte	0x51
 3121 0d73 01       		.uleb128 0x1
 3122 0d74 44       		.byte	0x44
 3123 0d75 00       		.byte	0
 3124 0d76 26       		.uleb128 0x26
 3125 0d77 06010000 		.4byte	.LVL91
 3126 0d7b 81110000 		.4byte	0x1181
 3127 0d7f 26       		.uleb128 0x26
 3128 0d80 1C010000 		.4byte	.LVL93
 3129 0d84 81110000 		.4byte	0x1181
 3130 0d88 00       		.byte	0
 3131 0d89 25       		.uleb128 0x25
ARM GAS  C:\Users\Phuong\AppData\Local\Temp\ccYoYbaR.s 			page 74


 3132 0d8a CE010000 		.4byte	.LVL114
 3133 0d8e 22120000 		.4byte	0x1222
 3134 0d92 AA0D0000 		.4byte	0xdaa
 3135 0d96 23       		.uleb128 0x23
 3136 0d97 01       		.uleb128 0x1
 3137 0d98 50       		.byte	0x50
 3138 0d99 02       		.uleb128 0x2
 3139 0d9a 75       		.byte	0x75
 3140 0d9b 00       		.sleb128 0
 3141 0d9c 23       		.uleb128 0x23
 3142 0d9d 01       		.uleb128 0x1
 3143 0d9e 51       		.byte	0x51
 3144 0d9f 03       		.uleb128 0x3
 3145 0da0 91       		.byte	0x91
 3146 0da1 08       		.sleb128 8
 3147 0da2 06       		.byte	0x6
 3148 0da3 23       		.uleb128 0x23
 3149 0da4 01       		.uleb128 0x1
 3150 0da5 52       		.byte	0x52
 3151 0da6 02       		.uleb128 0x2
 3152 0da7 78       		.byte	0x78
 3153 0da8 00       		.sleb128 0
 3154 0da9 00       		.byte	0
 3155 0daa 2A       		.uleb128 0x2a
 3156 0dab DC010000 		.4byte	.LVL115
 3157 0daf 23       		.uleb128 0x23
 3158 0db0 01       		.uleb128 0x1
 3159 0db1 50       		.byte	0x50
 3160 0db2 03       		.uleb128 0x3
 3161 0db3 91       		.byte	0x91
 3162 0db4 08       		.sleb128 8
 3163 0db5 06       		.byte	0x6
 3164 0db6 23       		.uleb128 0x23
 3165 0db7 01       		.uleb128 0x1
 3166 0db8 51       		.byte	0x51
 3167 0db9 02       		.uleb128 0x2
 3168 0dba 75       		.byte	0x75
 3169 0dbb 00       		.sleb128 0
 3170 0dbc 23       		.uleb128 0x23
 3171 0dbd 01       		.uleb128 0x1
 3172 0dbe 52       		.byte	0x52
 3173 0dbf 02       		.uleb128 0x2
 3174 0dc0 78       		.byte	0x78
 3175 0dc1 00       		.sleb128 0
 3176 0dc2 00       		.byte	0
 3177 0dc3 00       		.byte	0
 3178 0dc4 1D       		.uleb128 0x1d
 3179 0dc5 F4020000 		.4byte	.LASF173
 3180 0dc9 01       		.byte	0x1
 3181 0dca 0203     		.2byte	0x302
 3182 0dcc 03010000 		.4byte	0x103
 3183 0dd0 00000000 		.4byte	.LFB57
 3184 0dd4 38000000 		.4byte	.LFE57-.LFB57
 3185 0dd8 01       		.uleb128 0x1
 3186 0dd9 9C       		.byte	0x9c
 3187 0dda AD0E0000 		.4byte	0xead
 3188 0dde 1E       		.uleb128 0x1e
ARM GAS  C:\Users\Phuong\AppData\Local\Temp\ccYoYbaR.s 			page 75


 3189 0ddf 7000     		.ascii	"p\000"
 3190 0de1 01       		.byte	0x1
 3191 0de2 0203     		.2byte	0x302
 3192 0de4 E2010000 		.4byte	0x1e2
 3193 0de8 A6050000 		.4byte	.LLST25
 3194 0dec 1E       		.uleb128 0x1e
 3195 0ded 73726300 		.ascii	"src\000"
 3196 0df1 01       		.byte	0x1
 3197 0df2 0203     		.2byte	0x302
 3198 0df4 CE060000 		.4byte	0x6ce
 3199 0df8 C7050000 		.4byte	.LLST26
 3200 0dfc 27       		.uleb128 0x27
 3201 0dfd 01070000 		.4byte	.LASF139
 3202 0e01 01       		.byte	0x1
 3203 0e02 0203     		.2byte	0x302
 3204 0e04 CE060000 		.4byte	0x6ce
 3205 0e08 E8050000 		.4byte	.LLST27
 3206 0e0c 1E       		.uleb128 0x1e
 3207 0e0d 74746C00 		.ascii	"ttl\000"
 3208 0e11 01       		.byte	0x1
 3209 0e12 0303     		.2byte	0x303
 3210 0e14 CC000000 		.4byte	0xcc
 3211 0e18 09060000 		.4byte	.LLST28
 3212 0e1c 1E       		.uleb128 0x1e
 3213 0e1d 746F7300 		.ascii	"tos\000"
 3214 0e21 01       		.byte	0x1
 3215 0e22 0303     		.2byte	0x303
 3216 0e24 CC000000 		.4byte	0xcc
 3217 0e28 2A060000 		.4byte	.LLST29
 3218 0e2c 27       		.uleb128 0x27
 3219 0e2d DB070000 		.4byte	.LASF166
 3220 0e31 01       		.byte	0x1
 3221 0e32 0303     		.2byte	0x303
 3222 0e34 CC000000 		.4byte	0xcc
 3223 0e38 56060000 		.4byte	.LLST30
 3224 0e3c 27       		.uleb128 0x27
 3225 0e3d A9050000 		.4byte	.LASF110
 3226 0e41 01       		.byte	0x1
 3227 0e42 0303     		.2byte	0x303
 3228 0e44 7D050000 		.4byte	0x57d
 3229 0e48 9A060000 		.4byte	.LLST31
 3230 0e4c 27       		.uleb128 0x27
 3231 0e4d AF020000 		.4byte	.LASF167
 3232 0e51 01       		.byte	0x1
 3233 0e52 0303     		.2byte	0x303
 3234 0e54 88000000 		.4byte	0x88
 3235 0e58 C6060000 		.4byte	.LLST32
 3236 0e5c 27       		.uleb128 0x27
 3237 0e5d 1C090000 		.4byte	.LASF168
 3238 0e61 01       		.byte	0x1
 3239 0e62 0403     		.2byte	0x304
 3240 0e64 E2000000 		.4byte	0xe2
 3241 0e68 F2060000 		.4byte	.LLST33
 3242 0e6c 1F       		.uleb128 0x1f
 3243 0e6d 540A0000 		.4byte	.LASF174
 3244 0e71 01       		.byte	0x1
 3245 0e72 0703     		.2byte	0x307
ARM GAS  C:\Users\Phuong\AppData\Local\Temp\ccYoYbaR.s 			page 76


 3246 0e74 CE060000 		.4byte	0x6ce
 3247 0e78 36070000 		.4byte	.LLST34
 3248 0e7c 22       		.uleb128 0x22
 3249 0e7d 34000000 		.4byte	.LVL128
 3250 0e81 F80B0000 		.4byte	0xbf8
 3251 0e85 23       		.uleb128 0x23
 3252 0e86 02       		.uleb128 0x2
 3253 0e87 7D       		.byte	0x7d
 3254 0e88 00       		.sleb128 0
 3255 0e89 02       		.uleb128 0x2
 3256 0e8a 74       		.byte	0x74
 3257 0e8b 00       		.sleb128 0
 3258 0e8c 23       		.uleb128 0x23
 3259 0e8d 02       		.uleb128 0x2
 3260 0e8e 7D       		.byte	0x7d
 3261 0e8f 04       		.sleb128 4
 3262 0e90 02       		.uleb128 0x2
 3263 0e91 75       		.byte	0x75
 3264 0e92 00       		.sleb128 0
 3265 0e93 23       		.uleb128 0x23
 3266 0e94 02       		.uleb128 0x2
 3267 0e95 7D       		.byte	0x7d
 3268 0e96 08       		.sleb128 8
 3269 0e97 02       		.uleb128 0x2
 3270 0e98 76       		.byte	0x76
 3271 0e99 00       		.sleb128 0
 3272 0e9a 23       		.uleb128 0x23
 3273 0e9b 02       		.uleb128 0x2
 3274 0e9c 7D       		.byte	0x7d
 3275 0e9d 0C       		.sleb128 12
 3276 0e9e 03       		.uleb128 0x3
 3277 0e9f 91       		.byte	0x91
 3278 0ea0 0C       		.sleb128 12
 3279 0ea1 06       		.byte	0x6
 3280 0ea2 23       		.uleb128 0x23
 3281 0ea3 02       		.uleb128 0x2
 3282 0ea4 7D       		.byte	0x7d
 3283 0ea5 10       		.sleb128 16
 3284 0ea6 04       		.uleb128 0x4
 3285 0ea7 91       		.byte	0x91
 3286 0ea8 10       		.sleb128 16
 3287 0ea9 94       		.byte	0x94
 3288 0eaa 02       		.byte	0x2
 3289 0eab 00       		.byte	0
 3290 0eac 00       		.byte	0
 3291 0ead 1D       		.uleb128 0x1d
 3292 0eae F5030000 		.4byte	.LASF175
 3293 0eb2 01       		.byte	0x1
 3294 0eb3 F302     		.2byte	0x2f3
 3295 0eb5 03010000 		.4byte	0x103
 3296 0eb9 00000000 		.4byte	.LFB56
 3297 0ebd 22000000 		.4byte	.LFE56-.LFB56
 3298 0ec1 01       		.uleb128 0x1
 3299 0ec2 9C       		.byte	0x9c
 3300 0ec3 760F0000 		.4byte	0xf76
 3301 0ec7 1E       		.uleb128 0x1e
 3302 0ec8 7000     		.ascii	"p\000"
ARM GAS  C:\Users\Phuong\AppData\Local\Temp\ccYoYbaR.s 			page 77


 3303 0eca 01       		.byte	0x1
 3304 0ecb F302     		.2byte	0x2f3
 3305 0ecd E2010000 		.4byte	0x1e2
 3306 0ed1 62070000 		.4byte	.LLST35
 3307 0ed5 1E       		.uleb128 0x1e
 3308 0ed6 73726300 		.ascii	"src\000"
 3309 0eda 01       		.byte	0x1
 3310 0edb F302     		.2byte	0x2f3
 3311 0edd CE060000 		.4byte	0x6ce
 3312 0ee1 83070000 		.4byte	.LLST36
 3313 0ee5 27       		.uleb128 0x27
 3314 0ee6 01070000 		.4byte	.LASF139
 3315 0eea 01       		.byte	0x1
 3316 0eeb F302     		.2byte	0x2f3
 3317 0eed CE060000 		.4byte	0x6ce
 3318 0ef1 A4070000 		.4byte	.LLST37
 3319 0ef5 1E       		.uleb128 0x1e
 3320 0ef6 74746C00 		.ascii	"ttl\000"
 3321 0efa 01       		.byte	0x1
 3322 0efb F402     		.2byte	0x2f4
 3323 0efd CC000000 		.4byte	0xcc
 3324 0f01 C5070000 		.4byte	.LLST38
 3325 0f05 1E       		.uleb128 0x1e
 3326 0f06 746F7300 		.ascii	"tos\000"
 3327 0f0a 01       		.byte	0x1
 3328 0f0b F402     		.2byte	0x2f4
 3329 0f0d CC000000 		.4byte	0xcc
 3330 0f11 E6070000 		.4byte	.LLST39
 3331 0f15 27       		.uleb128 0x27
 3332 0f16 DB070000 		.4byte	.LASF166
 3333 0f1a 01       		.byte	0x1
 3334 0f1b F502     		.2byte	0x2f5
 3335 0f1d CC000000 		.4byte	0xcc
 3336 0f21 12080000 		.4byte	.LLST40
 3337 0f25 27       		.uleb128 0x27
 3338 0f26 A9050000 		.4byte	.LASF110
 3339 0f2a 01       		.byte	0x1
 3340 0f2b F502     		.2byte	0x2f5
 3341 0f2d 7D050000 		.4byte	0x57d
 3342 0f31 4A080000 		.4byte	.LLST41
 3343 0f35 22       		.uleb128 0x22
 3344 0f36 1E000000 		.4byte	.LVL133
 3345 0f3a C40D0000 		.4byte	0xdc4
 3346 0f3e 23       		.uleb128 0x23
 3347 0f3f 01       		.uleb128 0x1
 3348 0f40 50       		.byte	0x50
 3349 0f41 03       		.uleb128 0x3
 3350 0f42 F3       		.byte	0xf3
 3351 0f43 01       		.uleb128 0x1
 3352 0f44 50       		.byte	0x50
 3353 0f45 23       		.uleb128 0x23
 3354 0f46 01       		.uleb128 0x1
 3355 0f47 51       		.byte	0x51
 3356 0f48 03       		.uleb128 0x3
 3357 0f49 F3       		.byte	0xf3
 3358 0f4a 01       		.uleb128 0x1
 3359 0f4b 51       		.byte	0x51
ARM GAS  C:\Users\Phuong\AppData\Local\Temp\ccYoYbaR.s 			page 78


 3360 0f4c 23       		.uleb128 0x23
 3361 0f4d 01       		.uleb128 0x1
 3362 0f4e 52       		.byte	0x52
 3363 0f4f 03       		.uleb128 0x3
 3364 0f50 F3       		.byte	0xf3
 3365 0f51 01       		.uleb128 0x1
 3366 0f52 52       		.byte	0x52
 3367 0f53 23       		.uleb128 0x23
 3368 0f54 02       		.uleb128 0x2
 3369 0f55 7D       		.byte	0x7d
 3370 0f56 00       		.sleb128 0
 3371 0f57 02       		.uleb128 0x2
 3372 0f58 75       		.byte	0x75
 3373 0f59 00       		.sleb128 0
 3374 0f5a 23       		.uleb128 0x23
 3375 0f5b 02       		.uleb128 0x2
 3376 0f5c 7D       		.byte	0x7d
 3377 0f5d 04       		.sleb128 4
 3378 0f5e 02       		.uleb128 0x2
 3379 0f5f 76       		.byte	0x76
 3380 0f60 00       		.sleb128 0
 3381 0f61 23       		.uleb128 0x23
 3382 0f62 02       		.uleb128 0x2
 3383 0f63 7D       		.byte	0x7d
 3384 0f64 08       		.sleb128 8
 3385 0f65 02       		.uleb128 0x2
 3386 0f66 74       		.byte	0x74
 3387 0f67 00       		.sleb128 0
 3388 0f68 23       		.uleb128 0x23
 3389 0f69 02       		.uleb128 0x2
 3390 0f6a 7D       		.byte	0x7d
 3391 0f6b 0C       		.sleb128 12
 3392 0f6c 01       		.uleb128 0x1
 3393 0f6d 30       		.byte	0x30
 3394 0f6e 23       		.uleb128 0x23
 3395 0f6f 02       		.uleb128 0x2
 3396 0f70 7D       		.byte	0x7d
 3397 0f71 10       		.sleb128 16
 3398 0f72 01       		.uleb128 0x1
 3399 0f73 30       		.byte	0x30
 3400 0f74 00       		.byte	0
 3401 0f75 00       		.byte	0
 3402 0f76 1D       		.uleb128 0x1d
 3403 0f77 F7080000 		.4byte	.LASF176
 3404 0f7b 01       		.byte	0x1
 3405 0f7c 1B03     		.2byte	0x31b
 3406 0f7e 03010000 		.4byte	0x103
 3407 0f82 00000000 		.4byte	.LFB58
 3408 0f86 22000000 		.4byte	.LFE58-.LFB58
 3409 0f8a 01       		.uleb128 0x1
 3410 0f8b 9C       		.byte	0x9c
 3411 0f8c 3F100000 		.4byte	0x103f
 3412 0f90 1E       		.uleb128 0x1e
 3413 0f91 7000     		.ascii	"p\000"
 3414 0f93 01       		.byte	0x1
 3415 0f94 1B03     		.2byte	0x31b
 3416 0f96 E2010000 		.4byte	0x1e2
ARM GAS  C:\Users\Phuong\AppData\Local\Temp\ccYoYbaR.s 			page 79


 3417 0f9a 76080000 		.4byte	.LLST42
 3418 0f9e 1E       		.uleb128 0x1e
 3419 0f9f 73726300 		.ascii	"src\000"
 3420 0fa3 01       		.byte	0x1
 3421 0fa4 1B03     		.2byte	0x31b
 3422 0fa6 CE060000 		.4byte	0x6ce
 3423 0faa 97080000 		.4byte	.LLST43
 3424 0fae 27       		.uleb128 0x27
 3425 0faf 01070000 		.4byte	.LASF139
 3426 0fb3 01       		.byte	0x1
 3427 0fb4 1B03     		.2byte	0x31b
 3428 0fb6 CE060000 		.4byte	0x6ce
 3429 0fba B8080000 		.4byte	.LLST44
 3430 0fbe 1E       		.uleb128 0x1e
 3431 0fbf 74746C00 		.ascii	"ttl\000"
 3432 0fc3 01       		.byte	0x1
 3433 0fc4 1C03     		.2byte	0x31c
 3434 0fc6 CC000000 		.4byte	0xcc
 3435 0fca D9080000 		.4byte	.LLST45
 3436 0fce 1E       		.uleb128 0x1e
 3437 0fcf 746F7300 		.ascii	"tos\000"
 3438 0fd3 01       		.byte	0x1
 3439 0fd4 1C03     		.2byte	0x31c
 3440 0fd6 CC000000 		.4byte	0xcc
 3441 0fda FA080000 		.4byte	.LLST46
 3442 0fde 27       		.uleb128 0x27
 3443 0fdf DB070000 		.4byte	.LASF166
 3444 0fe3 01       		.byte	0x1
 3445 0fe4 1D03     		.2byte	0x31d
 3446 0fe6 CC000000 		.4byte	0xcc
 3447 0fea 26090000 		.4byte	.LLST47
 3448 0fee 27       		.uleb128 0x27
 3449 0fef A9050000 		.4byte	.LASF110
 3450 0ff3 01       		.byte	0x1
 3451 0ff4 1D03     		.2byte	0x31d
 3452 0ff6 7D050000 		.4byte	0x57d
 3453 0ffa 5E090000 		.4byte	.LLST48
 3454 0ffe 22       		.uleb128 0x22
 3455 0fff 1E000000 		.4byte	.LVL138
 3456 1003 F80B0000 		.4byte	0xbf8
 3457 1007 23       		.uleb128 0x23
 3458 1008 01       		.uleb128 0x1
 3459 1009 50       		.byte	0x50
 3460 100a 03       		.uleb128 0x3
 3461 100b F3       		.byte	0xf3
 3462 100c 01       		.uleb128 0x1
 3463 100d 50       		.byte	0x50
 3464 100e 23       		.uleb128 0x23
 3465 100f 01       		.uleb128 0x1
 3466 1010 51       		.byte	0x51
 3467 1011 03       		.uleb128 0x3
 3468 1012 F3       		.byte	0xf3
 3469 1013 01       		.uleb128 0x1
 3470 1014 51       		.byte	0x51
 3471 1015 23       		.uleb128 0x23
 3472 1016 01       		.uleb128 0x1
 3473 1017 52       		.byte	0x52
ARM GAS  C:\Users\Phuong\AppData\Local\Temp\ccYoYbaR.s 			page 80


 3474 1018 03       		.uleb128 0x3
 3475 1019 F3       		.byte	0xf3
 3476 101a 01       		.uleb128 0x1
 3477 101b 52       		.byte	0x52
 3478 101c 23       		.uleb128 0x23
 3479 101d 02       		.uleb128 0x2
 3480 101e 7D       		.byte	0x7d
 3481 101f 00       		.sleb128 0
 3482 1020 02       		.uleb128 0x2
 3483 1021 75       		.byte	0x75
 3484 1022 00       		.sleb128 0
 3485 1023 23       		.uleb128 0x23
 3486 1024 02       		.uleb128 0x2
 3487 1025 7D       		.byte	0x7d
 3488 1026 04       		.sleb128 4
 3489 1027 02       		.uleb128 0x2
 3490 1028 76       		.byte	0x76
 3491 1029 00       		.sleb128 0
 3492 102a 23       		.uleb128 0x23
 3493 102b 02       		.uleb128 0x2
 3494 102c 7D       		.byte	0x7d
 3495 102d 08       		.sleb128 8
 3496 102e 02       		.uleb128 0x2
 3497 102f 74       		.byte	0x74
 3498 1030 00       		.sleb128 0
 3499 1031 23       		.uleb128 0x23
 3500 1032 02       		.uleb128 0x2
 3501 1033 7D       		.byte	0x7d
 3502 1034 0C       		.sleb128 12
 3503 1035 01       		.uleb128 0x1
 3504 1036 30       		.byte	0x30
 3505 1037 23       		.uleb128 0x23
 3506 1038 02       		.uleb128 0x2
 3507 1039 7D       		.byte	0x7d
 3508 103a 10       		.sleb128 16
 3509 103b 01       		.uleb128 0x1
 3510 103c 30       		.byte	0x30
 3511 103d 00       		.byte	0
 3512 103e 00       		.byte	0
 3513 103f 1D       		.uleb128 0x1d
 3514 1040 6D040000 		.4byte	.LASF177
 3515 1044 01       		.byte	0x1
 3516 1045 D603     		.2byte	0x3d6
 3517 1047 03010000 		.4byte	0x103
 3518 104b 00000000 		.4byte	.LFB60
 3519 104f 48000000 		.4byte	.LFE60-.LFB60
 3520 1053 01       		.uleb128 0x1
 3521 1054 9C       		.byte	0x9c
 3522 1055 0E110000 		.4byte	0x110e
 3523 1059 1E       		.uleb128 0x1e
 3524 105a 7000     		.ascii	"p\000"
 3525 105c 01       		.byte	0x1
 3526 105d D603     		.2byte	0x3d6
 3527 105f E2010000 		.4byte	0x1e2
 3528 1063 8A090000 		.4byte	.LLST49
 3529 1067 1E       		.uleb128 0x1e
 3530 1068 73726300 		.ascii	"src\000"
ARM GAS  C:\Users\Phuong\AppData\Local\Temp\ccYoYbaR.s 			page 81


 3531 106c 01       		.byte	0x1
 3532 106d D603     		.2byte	0x3d6
 3533 106f CE060000 		.4byte	0x6ce
 3534 1073 A9090000 		.4byte	.LLST50
 3535 1077 27       		.uleb128 0x27
 3536 1078 01070000 		.4byte	.LASF139
 3537 107c 01       		.byte	0x1
 3538 107d D603     		.2byte	0x3d6
 3539 107f CE060000 		.4byte	0x6ce
 3540 1083 C8090000 		.4byte	.LLST51
 3541 1087 1E       		.uleb128 0x1e
 3542 1088 74746C00 		.ascii	"ttl\000"
 3543 108c 01       		.byte	0x1
 3544 108d D703     		.2byte	0x3d7
 3545 108f CC000000 		.4byte	0xcc
 3546 1093 F4090000 		.4byte	.LLST52
 3547 1097 1E       		.uleb128 0x1e
 3548 1098 746F7300 		.ascii	"tos\000"
 3549 109c 01       		.byte	0x1
 3550 109d D703     		.2byte	0x3d7
 3551 109f CC000000 		.4byte	0xcc
 3552 10a3 150A0000 		.4byte	.LLST53
 3553 10a7 27       		.uleb128 0x27
 3554 10a8 DB070000 		.4byte	.LASF166
 3555 10ac 01       		.byte	0x1
 3556 10ad D703     		.2byte	0x3d7
 3557 10af CC000000 		.4byte	0xcc
 3558 10b3 410A0000 		.4byte	.LLST54
 3559 10b7 1F       		.uleb128 0x1f
 3560 10b8 A9050000 		.4byte	.LASF110
 3561 10bc 01       		.byte	0x1
 3562 10bd D903     		.2byte	0x3d9
 3563 10bf 7D050000 		.4byte	0x57d
 3564 10c3 790A0000 		.4byte	.LLST55
 3565 10c7 25       		.uleb128 0x25
 3566 10c8 1A000000 		.4byte	.LVL143
 3567 10cc 02090000 		.4byte	0x902
 3568 10d0 DB100000 		.4byte	0x10db
 3569 10d4 23       		.uleb128 0x23
 3570 10d5 01       		.uleb128 0x1
 3571 10d6 50       		.byte	0x50
 3572 10d7 02       		.uleb128 0x2
 3573 10d8 74       		.byte	0x74
 3574 10d9 00       		.sleb128 0
 3575 10da 00       		.byte	0
 3576 10db 22       		.uleb128 0x22
 3577 10dc 3E000000 		.4byte	.LVL147
 3578 10e0 AD0E0000 		.4byte	0xead
 3579 10e4 23       		.uleb128 0x23
 3580 10e5 01       		.uleb128 0x1
 3581 10e6 50       		.byte	0x50
 3582 10e7 03       		.uleb128 0x3
 3583 10e8 91       		.byte	0x91
 3584 10e9 60       		.sleb128 -32
 3585 10ea 06       		.byte	0x6
 3586 10eb 23       		.uleb128 0x23
 3587 10ec 01       		.uleb128 0x1
ARM GAS  C:\Users\Phuong\AppData\Local\Temp\ccYoYbaR.s 			page 82


 3588 10ed 51       		.byte	0x51
 3589 10ee 03       		.uleb128 0x3
 3590 10ef 91       		.byte	0x91
 3591 10f0 64       		.sleb128 -28
 3592 10f1 06       		.byte	0x6
 3593 10f2 23       		.uleb128 0x23
 3594 10f3 01       		.uleb128 0x1
 3595 10f4 52       		.byte	0x52
 3596 10f5 02       		.uleb128 0x2
 3597 10f6 74       		.byte	0x74
 3598 10f7 00       		.sleb128 0
 3599 10f8 23       		.uleb128 0x23
 3600 10f9 01       		.uleb128 0x1
 3601 10fa 53       		.byte	0x53
 3602 10fb 02       		.uleb128 0x2
 3603 10fc 77       		.byte	0x77
 3604 10fd 00       		.sleb128 0
 3605 10fe 23       		.uleb128 0x23
 3606 10ff 02       		.uleb128 0x2
 3607 1100 7D       		.byte	0x7d
 3608 1101 00       		.sleb128 0
 3609 1102 02       		.uleb128 0x2
 3610 1103 75       		.byte	0x75
 3611 1104 00       		.sleb128 0
 3612 1105 23       		.uleb128 0x23
 3613 1106 02       		.uleb128 0x2
 3614 1107 7D       		.byte	0x7d
 3615 1108 04       		.sleb128 4
 3616 1109 02       		.uleb128 0x2
 3617 110a 76       		.byte	0x76
 3618 110b 00       		.sleb128 0
 3619 110c 00       		.byte	0
 3620 110d 00       		.byte	0
 3621 110e 2B       		.uleb128 0x2b
 3622 110f 3E0A0000 		.4byte	.LASF178
 3623 1113 01       		.byte	0x1
 3624 1114 6B       		.byte	0x6b
 3625 1115 E2000000 		.4byte	0xe2
 3626 1119 05       		.uleb128 0x5
 3627 111a 03       		.byte	0x3
 3628 111b 04000000 		.4byte	ip_id
 3629 111f 2B       		.uleb128 0x2b
 3630 1120 74050000 		.4byte	.LASF179
 3631 1124 01       		.byte	0x1
 3632 1125 6F       		.byte	0x6f
 3633 1126 7D050000 		.4byte	0x57d
 3634 112a 05       		.uleb128 0x5
 3635 112b 03       		.byte	0x3
 3636 112c 00000000 		.4byte	ip4_default_multicast_netif
 3637 1130 2C       		.uleb128 0x2c
 3638 1131 34050000 		.4byte	.LASF180
 3639 1135 09       		.byte	0x9
 3640 1136 5201     		.2byte	0x152
 3641 1138 9D080000 		.4byte	0x89d
 3642 113c 2C       		.uleb128 0x2c
 3643 113d AB070000 		.4byte	.LASF181
 3644 1141 0C       		.byte	0xc
ARM GAS  C:\Users\Phuong\AppData\Local\Temp\ccYoYbaR.s 			page 83


 3645 1142 3001     		.2byte	0x130
 3646 1144 A3040000 		.4byte	0x4a3
 3647 1148 2C       		.uleb128 0x2c
 3648 1149 A3060000 		.4byte	.LASF182
 3649 114d 0D       		.byte	0xd
 3650 114e 6101     		.2byte	0x161
 3651 1150 7D050000 		.4byte	0x57d
 3652 1154 2C       		.uleb128 0x2c
 3653 1155 F2000000 		.4byte	.LASF183
 3654 1159 0D       		.byte	0xd
 3655 115a 6301     		.2byte	0x163
 3656 115c 7D050000 		.4byte	0x57d
 3657 1160 2D       		.uleb128 0x2d
 3658 1161 7E0A0000 		.4byte	.LASF184
 3659 1165 0F       		.byte	0xf
 3660 1166 7E       		.byte	0x7e
 3661 1167 0D080000 		.4byte	0x80d
 3662 116b 2E       		.uleb128 0x2e
 3663 116c 22070000 		.4byte	.LASF185
 3664 1170 22070000 		.4byte	.LASF185
 3665 1174 08       		.byte	0x8
 3666 1175 AE       		.byte	0xae
 3667 1176 2E       		.uleb128 0x2e
 3668 1177 15040000 		.4byte	.LASF186
 3669 117b 15040000 		.4byte	.LASF186
 3670 117f 07       		.byte	0x7
 3671 1180 E9       		.byte	0xe9
 3672 1181 2E       		.uleb128 0x2e
 3673 1182 44030000 		.4byte	.LASF187
 3674 1186 44030000 		.4byte	.LASF187
 3675 118a 12       		.byte	0x12
 3676 118b 55       		.byte	0x55
 3677 118c 2E       		.uleb128 0x2e
 3678 118d 060A0000 		.4byte	.LASF188
 3679 1191 060A0000 		.4byte	.LASF188
 3680 1195 07       		.byte	0x7
 3681 1196 E5       		.byte	0xe5
 3682 1197 2E       		.uleb128 0x2e
 3683 1198 40050000 		.4byte	.LASF189
 3684 119c 40050000 		.4byte	.LASF189
 3685 11a0 13       		.byte	0x13
 3686 11a1 4A       		.byte	0x4a
 3687 11a2 2E       		.uleb128 0x2e
 3688 11a3 6E010000 		.4byte	.LASF190
 3689 11a7 6E010000 		.4byte	.LASF190
 3690 11ab 14       		.byte	0x14
 3691 11ac 5E       		.byte	0x5e
 3692 11ad 2E       		.uleb128 0x2e
 3693 11ae 85060000 		.4byte	.LASF191
 3694 11b2 85060000 		.4byte	.LASF191
 3695 11b6 15       		.byte	0x15
 3696 11b7 48       		.byte	0x48
 3697 11b8 2E       		.uleb128 0x2e
 3698 11b9 54050000 		.4byte	.LASF192
 3699 11bd 54050000 		.4byte	.LASF192
 3700 11c1 16       		.byte	0x16
 3701 11c2 68       		.byte	0x68
ARM GAS  C:\Users\Phuong\AppData\Local\Temp\ccYoYbaR.s 			page 84


 3702 11c3 2E       		.uleb128 0x2e
 3703 11c4 71060000 		.4byte	.LASF193
 3704 11c8 71060000 		.4byte	.LASF193
 3705 11cc 07       		.byte	0x7
 3706 11cd E6       		.byte	0xe6
 3707 11ce 2E       		.uleb128 0x2e
 3708 11cf 59040000 		.4byte	.LASF194
 3709 11d3 59040000 		.4byte	.LASF194
 3710 11d7 17       		.byte	0x17
 3711 11d8 9A       		.byte	0x9a
 3712 11d9 2E       		.uleb128 0x2e
 3713 11da D1000000 		.4byte	.LASF195
 3714 11de D1000000 		.4byte	.LASF195
 3715 11e2 18       		.byte	0x18
 3716 11e3 4D       		.byte	0x4d
 3717 11e4 2E       		.uleb128 0x2e
 3718 11e5 CC060000 		.4byte	.LASF196
 3719 11e9 CC060000 		.4byte	.LASF196
 3720 11ed 10       		.byte	0x10
 3721 11ee 50       		.byte	0x50
 3722 11ef 2E       		.uleb128 0x2e
 3723 11f0 95010000 		.4byte	.LASF197
 3724 11f4 95010000 		.4byte	.LASF197
 3725 11f8 14       		.byte	0x14
 3726 11f9 5F       		.byte	0x5f
 3727 11fa 2E       		.uleb128 0x2e
 3728 11fb B3060000 		.4byte	.LASF198
 3729 11ff B3060000 		.4byte	.LASF198
 3730 1203 07       		.byte	0x7
 3731 1204 E7       		.byte	0xe7
 3732 1205 2E       		.uleb128 0x2e
 3733 1206 AC080000 		.4byte	.LASF199
 3734 120a AC080000 		.4byte	.LASF199
 3735 120e 10       		.byte	0x10
 3736 120f 51       		.byte	0x51
 3737 1210 2F       		.uleb128 0x2f
 3738 1211 1E020000 		.4byte	.LASF200
 3739 1215 1E020000 		.4byte	.LASF200
 3740 1219 2F       		.uleb128 0x2f
 3741 121a AE090000 		.4byte	.LASF201
 3742 121e AE090000 		.4byte	.LASF201
 3743 1222 2E       		.uleb128 0x2e
 3744 1223 E1070000 		.4byte	.LASF202
 3745 1227 E1070000 		.4byte	.LASF202
 3746 122b 15       		.byte	0x15
 3747 122c 5B       		.byte	0x5b
 3748 122d 00       		.byte	0
 3749              		.section	.debug_abbrev,"",%progbits
 3750              	.Ldebug_abbrev0:
 3751 0000 01       		.uleb128 0x1
 3752 0001 11       		.uleb128 0x11
 3753 0002 01       		.byte	0x1
 3754 0003 25       		.uleb128 0x25
 3755 0004 0E       		.uleb128 0xe
 3756 0005 13       		.uleb128 0x13
 3757 0006 0B       		.uleb128 0xb
 3758 0007 03       		.uleb128 0x3
ARM GAS  C:\Users\Phuong\AppData\Local\Temp\ccYoYbaR.s 			page 85


 3759 0008 0E       		.uleb128 0xe
 3760 0009 1B       		.uleb128 0x1b
 3761 000a 0E       		.uleb128 0xe
 3762 000b 55       		.uleb128 0x55
 3763 000c 17       		.uleb128 0x17
 3764 000d 11       		.uleb128 0x11
 3765 000e 01       		.uleb128 0x1
 3766 000f 10       		.uleb128 0x10
 3767 0010 17       		.uleb128 0x17
 3768 0011 00       		.byte	0
 3769 0012 00       		.byte	0
 3770 0013 02       		.uleb128 0x2
 3771 0014 24       		.uleb128 0x24
 3772 0015 00       		.byte	0
 3773 0016 0B       		.uleb128 0xb
 3774 0017 0B       		.uleb128 0xb
 3775 0018 3E       		.uleb128 0x3e
 3776 0019 0B       		.uleb128 0xb
 3777 001a 03       		.uleb128 0x3
 3778 001b 0E       		.uleb128 0xe
 3779 001c 00       		.byte	0
 3780 001d 00       		.byte	0
 3781 001e 03       		.uleb128 0x3
 3782 001f 16       		.uleb128 0x16
 3783 0020 00       		.byte	0
 3784 0021 03       		.uleb128 0x3
 3785 0022 0E       		.uleb128 0xe
 3786 0023 3A       		.uleb128 0x3a
 3787 0024 0B       		.uleb128 0xb
 3788 0025 3B       		.uleb128 0x3b
 3789 0026 0B       		.uleb128 0xb
 3790 0027 49       		.uleb128 0x49
 3791 0028 13       		.uleb128 0x13
 3792 0029 00       		.byte	0
 3793 002a 00       		.byte	0
 3794 002b 04       		.uleb128 0x4
 3795 002c 24       		.uleb128 0x24
 3796 002d 00       		.byte	0
 3797 002e 0B       		.uleb128 0xb
 3798 002f 0B       		.uleb128 0xb
 3799 0030 3E       		.uleb128 0x3e
 3800 0031 0B       		.uleb128 0xb
 3801 0032 03       		.uleb128 0x3
 3802 0033 08       		.uleb128 0x8
 3803 0034 00       		.byte	0
 3804 0035 00       		.byte	0
 3805 0036 05       		.uleb128 0x5
 3806 0037 0F       		.uleb128 0xf
 3807 0038 00       		.byte	0
 3808 0039 0B       		.uleb128 0xb
 3809 003a 0B       		.uleb128 0xb
 3810 003b 00       		.byte	0
 3811 003c 00       		.byte	0
 3812 003d 06       		.uleb128 0x6
 3813 003e 0F       		.uleb128 0xf
 3814 003f 00       		.byte	0
 3815 0040 0B       		.uleb128 0xb
ARM GAS  C:\Users\Phuong\AppData\Local\Temp\ccYoYbaR.s 			page 86


 3816 0041 0B       		.uleb128 0xb
 3817 0042 49       		.uleb128 0x49
 3818 0043 13       		.uleb128 0x13
 3819 0044 00       		.byte	0
 3820 0045 00       		.byte	0
 3821 0046 07       		.uleb128 0x7
 3822 0047 26       		.uleb128 0x26
 3823 0048 00       		.byte	0
 3824 0049 49       		.uleb128 0x49
 3825 004a 13       		.uleb128 0x13
 3826 004b 00       		.byte	0
 3827 004c 00       		.byte	0
 3828 004d 08       		.uleb128 0x8
 3829 004e 01       		.uleb128 0x1
 3830 004f 01       		.byte	0x1
 3831 0050 49       		.uleb128 0x49
 3832 0051 13       		.uleb128 0x13
 3833 0052 01       		.uleb128 0x1
 3834 0053 13       		.uleb128 0x13
 3835 0054 00       		.byte	0
 3836 0055 00       		.byte	0
 3837 0056 09       		.uleb128 0x9
 3838 0057 21       		.uleb128 0x21
 3839 0058 00       		.byte	0
 3840 0059 49       		.uleb128 0x49
 3841 005a 13       		.uleb128 0x13
 3842 005b 2F       		.uleb128 0x2f
 3843 005c 0B       		.uleb128 0xb
 3844 005d 00       		.byte	0
 3845 005e 00       		.byte	0
 3846 005f 0A       		.uleb128 0xa
 3847 0060 04       		.uleb128 0x4
 3848 0061 01       		.byte	0x1
 3849 0062 0B       		.uleb128 0xb
 3850 0063 0B       		.uleb128 0xb
 3851 0064 49       		.uleb128 0x49
 3852 0065 13       		.uleb128 0x13
 3853 0066 3A       		.uleb128 0x3a
 3854 0067 0B       		.uleb128 0xb
 3855 0068 3B       		.uleb128 0x3b
 3856 0069 0B       		.uleb128 0xb
 3857 006a 01       		.uleb128 0x1
 3858 006b 13       		.uleb128 0x13
 3859 006c 00       		.byte	0
 3860 006d 00       		.byte	0
 3861 006e 0B       		.uleb128 0xb
 3862 006f 28       		.uleb128 0x28
 3863 0070 00       		.byte	0
 3864 0071 03       		.uleb128 0x3
 3865 0072 0E       		.uleb128 0xe
 3866 0073 1C       		.uleb128 0x1c
 3867 0074 0B       		.uleb128 0xb
 3868 0075 00       		.byte	0
 3869 0076 00       		.byte	0
 3870 0077 0C       		.uleb128 0xc
 3871 0078 28       		.uleb128 0x28
 3872 0079 00       		.byte	0
ARM GAS  C:\Users\Phuong\AppData\Local\Temp\ccYoYbaR.s 			page 87


 3873 007a 03       		.uleb128 0x3
 3874 007b 0E       		.uleb128 0xe
 3875 007c 1C       		.uleb128 0x1c
 3876 007d 0D       		.uleb128 0xd
 3877 007e 00       		.byte	0
 3878 007f 00       		.byte	0
 3879 0080 0D       		.uleb128 0xd
 3880 0081 13       		.uleb128 0x13
 3881 0082 01       		.byte	0x1
 3882 0083 03       		.uleb128 0x3
 3883 0084 0E       		.uleb128 0xe
 3884 0085 0B       		.uleb128 0xb
 3885 0086 0B       		.uleb128 0xb
 3886 0087 3A       		.uleb128 0x3a
 3887 0088 0B       		.uleb128 0xb
 3888 0089 3B       		.uleb128 0x3b
 3889 008a 0B       		.uleb128 0xb
 3890 008b 01       		.uleb128 0x1
 3891 008c 13       		.uleb128 0x13
 3892 008d 00       		.byte	0
 3893 008e 00       		.byte	0
 3894 008f 0E       		.uleb128 0xe
 3895 0090 0D       		.uleb128 0xd
 3896 0091 00       		.byte	0
 3897 0092 03       		.uleb128 0x3
 3898 0093 0E       		.uleb128 0xe
 3899 0094 3A       		.uleb128 0x3a
 3900 0095 0B       		.uleb128 0xb
 3901 0096 3B       		.uleb128 0x3b
 3902 0097 0B       		.uleb128 0xb
 3903 0098 49       		.uleb128 0x49
 3904 0099 13       		.uleb128 0x13
 3905 009a 38       		.uleb128 0x38
 3906 009b 0B       		.uleb128 0xb
 3907 009c 00       		.byte	0
 3908 009d 00       		.byte	0
 3909 009e 0F       		.uleb128 0xf
 3910 009f 0D       		.uleb128 0xd
 3911 00a0 00       		.byte	0
 3912 00a1 03       		.uleb128 0x3
 3913 00a2 08       		.uleb128 0x8
 3914 00a3 3A       		.uleb128 0x3a
 3915 00a4 0B       		.uleb128 0xb
 3916 00a5 3B       		.uleb128 0x3b
 3917 00a6 0B       		.uleb128 0xb
 3918 00a7 49       		.uleb128 0x49
 3919 00a8 13       		.uleb128 0x13
 3920 00a9 38       		.uleb128 0x38
 3921 00aa 0B       		.uleb128 0xb
 3922 00ab 00       		.byte	0
 3923 00ac 00       		.byte	0
 3924 00ad 10       		.uleb128 0x10
 3925 00ae 13       		.uleb128 0x13
 3926 00af 01       		.byte	0x1
 3927 00b0 03       		.uleb128 0x3
 3928 00b1 0E       		.uleb128 0xe
 3929 00b2 0B       		.uleb128 0xb
ARM GAS  C:\Users\Phuong\AppData\Local\Temp\ccYoYbaR.s 			page 88


 3930 00b3 05       		.uleb128 0x5
 3931 00b4 3A       		.uleb128 0x3a
 3932 00b5 0B       		.uleb128 0xb
 3933 00b6 3B       		.uleb128 0x3b
 3934 00b7 0B       		.uleb128 0xb
 3935 00b8 01       		.uleb128 0x1
 3936 00b9 13       		.uleb128 0x13
 3937 00ba 00       		.byte	0
 3938 00bb 00       		.byte	0
 3939 00bc 11       		.uleb128 0x11
 3940 00bd 0D       		.uleb128 0xd
 3941 00be 00       		.byte	0
 3942 00bf 03       		.uleb128 0x3
 3943 00c0 08       		.uleb128 0x8
 3944 00c1 3A       		.uleb128 0x3a
 3945 00c2 0B       		.uleb128 0xb
 3946 00c3 3B       		.uleb128 0x3b
 3947 00c4 05       		.uleb128 0x5
 3948 00c5 49       		.uleb128 0x49
 3949 00c6 13       		.uleb128 0x13
 3950 00c7 38       		.uleb128 0x38
 3951 00c8 0B       		.uleb128 0xb
 3952 00c9 00       		.byte	0
 3953 00ca 00       		.byte	0
 3954 00cb 12       		.uleb128 0x12
 3955 00cc 0D       		.uleb128 0xd
 3956 00cd 00       		.byte	0
 3957 00ce 03       		.uleb128 0x3
 3958 00cf 0E       		.uleb128 0xe
 3959 00d0 3A       		.uleb128 0x3a
 3960 00d1 0B       		.uleb128 0xb
 3961 00d2 3B       		.uleb128 0x3b
 3962 00d3 05       		.uleb128 0x5
 3963 00d4 49       		.uleb128 0x49
 3964 00d5 13       		.uleb128 0x13
 3965 00d6 38       		.uleb128 0x38
 3966 00d7 0B       		.uleb128 0xb
 3967 00d8 00       		.byte	0
 3968 00d9 00       		.byte	0
 3969 00da 13       		.uleb128 0x13
 3970 00db 0D       		.uleb128 0xd
 3971 00dc 00       		.byte	0
 3972 00dd 03       		.uleb128 0x3
 3973 00de 08       		.uleb128 0x8
 3974 00df 3A       		.uleb128 0x3a
 3975 00e0 0B       		.uleb128 0xb
 3976 00e1 3B       		.uleb128 0x3b
 3977 00e2 05       		.uleb128 0x5
 3978 00e3 49       		.uleb128 0x49
 3979 00e4 13       		.uleb128 0x13
 3980 00e5 38       		.uleb128 0x38
 3981 00e6 05       		.uleb128 0x5
 3982 00e7 00       		.byte	0
 3983 00e8 00       		.byte	0
 3984 00e9 14       		.uleb128 0x14
 3985 00ea 04       		.uleb128 0x4
 3986 00eb 01       		.byte	0x1
ARM GAS  C:\Users\Phuong\AppData\Local\Temp\ccYoYbaR.s 			page 89


 3987 00ec 03       		.uleb128 0x3
 3988 00ed 0E       		.uleb128 0xe
 3989 00ee 0B       		.uleb128 0xb
 3990 00ef 0B       		.uleb128 0xb
 3991 00f0 49       		.uleb128 0x49
 3992 00f1 13       		.uleb128 0x13
 3993 00f2 3A       		.uleb128 0x3a
 3994 00f3 0B       		.uleb128 0xb
 3995 00f4 3B       		.uleb128 0x3b
 3996 00f5 0B       		.uleb128 0xb
 3997 00f6 01       		.uleb128 0x1
 3998 00f7 13       		.uleb128 0x13
 3999 00f8 00       		.byte	0
 4000 00f9 00       		.byte	0
 4001 00fa 15       		.uleb128 0x15
 4002 00fb 15       		.uleb128 0x15
 4003 00fc 01       		.byte	0x1
 4004 00fd 27       		.uleb128 0x27
 4005 00fe 19       		.uleb128 0x19
 4006 00ff 49       		.uleb128 0x49
 4007 0100 13       		.uleb128 0x13
 4008 0101 01       		.uleb128 0x1
 4009 0102 13       		.uleb128 0x13
 4010 0103 00       		.byte	0
 4011 0104 00       		.byte	0
 4012 0105 16       		.uleb128 0x16
 4013 0106 05       		.uleb128 0x5
 4014 0107 00       		.byte	0
 4015 0108 49       		.uleb128 0x49
 4016 0109 13       		.uleb128 0x13
 4017 010a 00       		.byte	0
 4018 010b 00       		.byte	0
 4019 010c 17       		.uleb128 0x17
 4020 010d 15       		.uleb128 0x15
 4021 010e 01       		.byte	0x1
 4022 010f 27       		.uleb128 0x27
 4023 0110 19       		.uleb128 0x19
 4024 0111 01       		.uleb128 0x1
 4025 0112 13       		.uleb128 0x13
 4026 0113 00       		.byte	0
 4027 0114 00       		.byte	0
 4028 0115 18       		.uleb128 0x18
 4029 0116 2E       		.uleb128 0x2e
 4030 0117 01       		.byte	0x1
 4031 0118 3F       		.uleb128 0x3f
 4032 0119 19       		.uleb128 0x19
 4033 011a 03       		.uleb128 0x3
 4034 011b 0E       		.uleb128 0xe
 4035 011c 3A       		.uleb128 0x3a
 4036 011d 0B       		.uleb128 0xb
 4037 011e 3B       		.uleb128 0x3b
 4038 011f 0B       		.uleb128 0xb
 4039 0120 27       		.uleb128 0x27
 4040 0121 19       		.uleb128 0x19
 4041 0122 11       		.uleb128 0x11
 4042 0123 01       		.uleb128 0x1
 4043 0124 12       		.uleb128 0x12
ARM GAS  C:\Users\Phuong\AppData\Local\Temp\ccYoYbaR.s 			page 90


 4044 0125 06       		.uleb128 0x6
 4045 0126 40       		.uleb128 0x40
 4046 0127 18       		.uleb128 0x18
 4047 0128 9742     		.uleb128 0x2117
 4048 012a 19       		.uleb128 0x19
 4049 012b 01       		.uleb128 0x1
 4050 012c 13       		.uleb128 0x13
 4051 012d 00       		.byte	0
 4052 012e 00       		.byte	0
 4053 012f 19       		.uleb128 0x19
 4054 0130 05       		.uleb128 0x5
 4055 0131 00       		.byte	0
 4056 0132 03       		.uleb128 0x3
 4057 0133 0E       		.uleb128 0xe
 4058 0134 3A       		.uleb128 0x3a
 4059 0135 0B       		.uleb128 0xb
 4060 0136 3B       		.uleb128 0x3b
 4061 0137 0B       		.uleb128 0xb
 4062 0138 49       		.uleb128 0x49
 4063 0139 13       		.uleb128 0x13
 4064 013a 02       		.uleb128 0x2
 4065 013b 18       		.uleb128 0x18
 4066 013c 00       		.byte	0
 4067 013d 00       		.byte	0
 4068 013e 1A       		.uleb128 0x1a
 4069 013f 2E       		.uleb128 0x2e
 4070 0140 01       		.byte	0x1
 4071 0141 3F       		.uleb128 0x3f
 4072 0142 19       		.uleb128 0x19
 4073 0143 03       		.uleb128 0x3
 4074 0144 0E       		.uleb128 0xe
 4075 0145 3A       		.uleb128 0x3a
 4076 0146 0B       		.uleb128 0xb
 4077 0147 3B       		.uleb128 0x3b
 4078 0148 0B       		.uleb128 0xb
 4079 0149 27       		.uleb128 0x27
 4080 014a 19       		.uleb128 0x19
 4081 014b 49       		.uleb128 0x49
 4082 014c 13       		.uleb128 0x13
 4083 014d 11       		.uleb128 0x11
 4084 014e 01       		.uleb128 0x1
 4085 014f 12       		.uleb128 0x12
 4086 0150 06       		.uleb128 0x6
 4087 0151 40       		.uleb128 0x40
 4088 0152 18       		.uleb128 0x18
 4089 0153 9742     		.uleb128 0x2117
 4090 0155 19       		.uleb128 0x19
 4091 0156 01       		.uleb128 0x1
 4092 0157 13       		.uleb128 0x13
 4093 0158 00       		.byte	0
 4094 0159 00       		.byte	0
 4095 015a 1B       		.uleb128 0x1b
 4096 015b 05       		.uleb128 0x5
 4097 015c 00       		.byte	0
 4098 015d 03       		.uleb128 0x3
 4099 015e 0E       		.uleb128 0xe
 4100 015f 3A       		.uleb128 0x3a
ARM GAS  C:\Users\Phuong\AppData\Local\Temp\ccYoYbaR.s 			page 91


 4101 0160 0B       		.uleb128 0xb
 4102 0161 3B       		.uleb128 0x3b
 4103 0162 0B       		.uleb128 0xb
 4104 0163 49       		.uleb128 0x49
 4105 0164 13       		.uleb128 0x13
 4106 0165 02       		.uleb128 0x2
 4107 0166 17       		.uleb128 0x17
 4108 0167 00       		.byte	0
 4109 0168 00       		.byte	0
 4110 0169 1C       		.uleb128 0x1c
 4111 016a 34       		.uleb128 0x34
 4112 016b 00       		.byte	0
 4113 016c 03       		.uleb128 0x3
 4114 016d 0E       		.uleb128 0xe
 4115 016e 3A       		.uleb128 0x3a
 4116 016f 0B       		.uleb128 0xb
 4117 0170 3B       		.uleb128 0x3b
 4118 0171 0B       		.uleb128 0xb
 4119 0172 49       		.uleb128 0x49
 4120 0173 13       		.uleb128 0x13
 4121 0174 02       		.uleb128 0x2
 4122 0175 17       		.uleb128 0x17
 4123 0176 00       		.byte	0
 4124 0177 00       		.byte	0
 4125 0178 1D       		.uleb128 0x1d
 4126 0179 2E       		.uleb128 0x2e
 4127 017a 01       		.byte	0x1
 4128 017b 3F       		.uleb128 0x3f
 4129 017c 19       		.uleb128 0x19
 4130 017d 03       		.uleb128 0x3
 4131 017e 0E       		.uleb128 0xe
 4132 017f 3A       		.uleb128 0x3a
 4133 0180 0B       		.uleb128 0xb
 4134 0181 3B       		.uleb128 0x3b
 4135 0182 05       		.uleb128 0x5
 4136 0183 27       		.uleb128 0x27
 4137 0184 19       		.uleb128 0x19
 4138 0185 49       		.uleb128 0x49
 4139 0186 13       		.uleb128 0x13
 4140 0187 11       		.uleb128 0x11
 4141 0188 01       		.uleb128 0x1
 4142 0189 12       		.uleb128 0x12
 4143 018a 06       		.uleb128 0x6
 4144 018b 40       		.uleb128 0x40
 4145 018c 18       		.uleb128 0x18
 4146 018d 9742     		.uleb128 0x2117
 4147 018f 19       		.uleb128 0x19
 4148 0190 01       		.uleb128 0x1
 4149 0191 13       		.uleb128 0x13
 4150 0192 00       		.byte	0
 4151 0193 00       		.byte	0
 4152 0194 1E       		.uleb128 0x1e
 4153 0195 05       		.uleb128 0x5
 4154 0196 00       		.byte	0
 4155 0197 03       		.uleb128 0x3
 4156 0198 08       		.uleb128 0x8
 4157 0199 3A       		.uleb128 0x3a
ARM GAS  C:\Users\Phuong\AppData\Local\Temp\ccYoYbaR.s 			page 92


 4158 019a 0B       		.uleb128 0xb
 4159 019b 3B       		.uleb128 0x3b
 4160 019c 05       		.uleb128 0x5
 4161 019d 49       		.uleb128 0x49
 4162 019e 13       		.uleb128 0x13
 4163 019f 02       		.uleb128 0x2
 4164 01a0 17       		.uleb128 0x17
 4165 01a1 00       		.byte	0
 4166 01a2 00       		.byte	0
 4167 01a3 1F       		.uleb128 0x1f
 4168 01a4 34       		.uleb128 0x34
 4169 01a5 00       		.byte	0
 4170 01a6 03       		.uleb128 0x3
 4171 01a7 0E       		.uleb128 0xe
 4172 01a8 3A       		.uleb128 0x3a
 4173 01a9 0B       		.uleb128 0xb
 4174 01aa 3B       		.uleb128 0x3b
 4175 01ab 05       		.uleb128 0x5
 4176 01ac 49       		.uleb128 0x49
 4177 01ad 13       		.uleb128 0x13
 4178 01ae 02       		.uleb128 0x2
 4179 01af 17       		.uleb128 0x17
 4180 01b0 00       		.byte	0
 4181 01b1 00       		.byte	0
 4182 01b2 20       		.uleb128 0x20
 4183 01b3 0B       		.uleb128 0xb
 4184 01b4 01       		.byte	0x1
 4185 01b5 55       		.uleb128 0x55
 4186 01b6 17       		.uleb128 0x17
 4187 01b7 01       		.uleb128 0x1
 4188 01b8 13       		.uleb128 0x13
 4189 01b9 00       		.byte	0
 4190 01ba 00       		.byte	0
 4191 01bb 21       		.uleb128 0x21
 4192 01bc 34       		.uleb128 0x34
 4193 01bd 00       		.byte	0
 4194 01be 03       		.uleb128 0x3
 4195 01bf 0E       		.uleb128 0xe
 4196 01c0 3A       		.uleb128 0x3a
 4197 01c1 0B       		.uleb128 0xb
 4198 01c2 3B       		.uleb128 0x3b
 4199 01c3 05       		.uleb128 0x5
 4200 01c4 49       		.uleb128 0x49
 4201 01c5 13       		.uleb128 0x13
 4202 01c6 00       		.byte	0
 4203 01c7 00       		.byte	0
 4204 01c8 22       		.uleb128 0x22
 4205 01c9 898201   		.uleb128 0x4109
 4206 01cc 01       		.byte	0x1
 4207 01cd 11       		.uleb128 0x11
 4208 01ce 01       		.uleb128 0x1
 4209 01cf 31       		.uleb128 0x31
 4210 01d0 13       		.uleb128 0x13
 4211 01d1 00       		.byte	0
 4212 01d2 00       		.byte	0
 4213 01d3 23       		.uleb128 0x23
 4214 01d4 8A8201   		.uleb128 0x410a
ARM GAS  C:\Users\Phuong\AppData\Local\Temp\ccYoYbaR.s 			page 93


 4215 01d7 00       		.byte	0
 4216 01d8 02       		.uleb128 0x2
 4217 01d9 18       		.uleb128 0x18
 4218 01da 9142     		.uleb128 0x2111
 4219 01dc 18       		.uleb128 0x18
 4220 01dd 00       		.byte	0
 4221 01de 00       		.byte	0
 4222 01df 24       		.uleb128 0x24
 4223 01e0 0B       		.uleb128 0xb
 4224 01e1 01       		.byte	0x1
 4225 01e2 11       		.uleb128 0x11
 4226 01e3 01       		.uleb128 0x1
 4227 01e4 12       		.uleb128 0x12
 4228 01e5 06       		.uleb128 0x6
 4229 01e6 01       		.uleb128 0x1
 4230 01e7 13       		.uleb128 0x13
 4231 01e8 00       		.byte	0
 4232 01e9 00       		.byte	0
 4233 01ea 25       		.uleb128 0x25
 4234 01eb 898201   		.uleb128 0x4109
 4235 01ee 01       		.byte	0x1
 4236 01ef 11       		.uleb128 0x11
 4237 01f0 01       		.uleb128 0x1
 4238 01f1 31       		.uleb128 0x31
 4239 01f2 13       		.uleb128 0x13
 4240 01f3 01       		.uleb128 0x1
 4241 01f4 13       		.uleb128 0x13
 4242 01f5 00       		.byte	0
 4243 01f6 00       		.byte	0
 4244 01f7 26       		.uleb128 0x26
 4245 01f8 898201   		.uleb128 0x4109
 4246 01fb 00       		.byte	0
 4247 01fc 11       		.uleb128 0x11
 4248 01fd 01       		.uleb128 0x1
 4249 01fe 31       		.uleb128 0x31
 4250 01ff 13       		.uleb128 0x13
 4251 0200 00       		.byte	0
 4252 0201 00       		.byte	0
 4253 0202 27       		.uleb128 0x27
 4254 0203 05       		.uleb128 0x5
 4255 0204 00       		.byte	0
 4256 0205 03       		.uleb128 0x3
 4257 0206 0E       		.uleb128 0xe
 4258 0207 3A       		.uleb128 0x3a
 4259 0208 0B       		.uleb128 0xb
 4260 0209 3B       		.uleb128 0x3b
 4261 020a 05       		.uleb128 0x5
 4262 020b 49       		.uleb128 0x49
 4263 020c 13       		.uleb128 0x13
 4264 020d 02       		.uleb128 0x2
 4265 020e 17       		.uleb128 0x17
 4266 020f 00       		.byte	0
 4267 0210 00       		.byte	0
 4268 0211 28       		.uleb128 0x28
 4269 0212 34       		.uleb128 0x34
 4270 0213 00       		.byte	0
 4271 0214 03       		.uleb128 0x3
ARM GAS  C:\Users\Phuong\AppData\Local\Temp\ccYoYbaR.s 			page 94


 4272 0215 0E       		.uleb128 0xe
 4273 0216 3A       		.uleb128 0x3a
 4274 0217 0B       		.uleb128 0xb
 4275 0218 3B       		.uleb128 0x3b
 4276 0219 05       		.uleb128 0x5
 4277 021a 49       		.uleb128 0x49
 4278 021b 13       		.uleb128 0x13
 4279 021c 02       		.uleb128 0x2
 4280 021d 18       		.uleb128 0x18
 4281 021e 00       		.byte	0
 4282 021f 00       		.byte	0
 4283 0220 29       		.uleb128 0x29
 4284 0221 34       		.uleb128 0x34
 4285 0222 00       		.byte	0
 4286 0223 03       		.uleb128 0x3
 4287 0224 08       		.uleb128 0x8
 4288 0225 3A       		.uleb128 0x3a
 4289 0226 0B       		.uleb128 0xb
 4290 0227 3B       		.uleb128 0x3b
 4291 0228 05       		.uleb128 0x5
 4292 0229 49       		.uleb128 0x49
 4293 022a 13       		.uleb128 0x13
 4294 022b 02       		.uleb128 0x2
 4295 022c 17       		.uleb128 0x17
 4296 022d 00       		.byte	0
 4297 022e 00       		.byte	0
 4298 022f 2A       		.uleb128 0x2a
 4299 0230 898201   		.uleb128 0x4109
 4300 0233 01       		.byte	0x1
 4301 0234 11       		.uleb128 0x11
 4302 0235 01       		.uleb128 0x1
 4303 0236 00       		.byte	0
 4304 0237 00       		.byte	0
 4305 0238 2B       		.uleb128 0x2b
 4306 0239 34       		.uleb128 0x34
 4307 023a 00       		.byte	0
 4308 023b 03       		.uleb128 0x3
 4309 023c 0E       		.uleb128 0xe
 4310 023d 3A       		.uleb128 0x3a
 4311 023e 0B       		.uleb128 0xb
 4312 023f 3B       		.uleb128 0x3b
 4313 0240 0B       		.uleb128 0xb
 4314 0241 49       		.uleb128 0x49
 4315 0242 13       		.uleb128 0x13
 4316 0243 02       		.uleb128 0x2
 4317 0244 18       		.uleb128 0x18
 4318 0245 00       		.byte	0
 4319 0246 00       		.byte	0
 4320 0247 2C       		.uleb128 0x2c
 4321 0248 34       		.uleb128 0x34
 4322 0249 00       		.byte	0
 4323 024a 03       		.uleb128 0x3
 4324 024b 0E       		.uleb128 0xe
 4325 024c 3A       		.uleb128 0x3a
 4326 024d 0B       		.uleb128 0xb
 4327 024e 3B       		.uleb128 0x3b
 4328 024f 05       		.uleb128 0x5
ARM GAS  C:\Users\Phuong\AppData\Local\Temp\ccYoYbaR.s 			page 95


 4329 0250 49       		.uleb128 0x49
 4330 0251 13       		.uleb128 0x13
 4331 0252 3F       		.uleb128 0x3f
 4332 0253 19       		.uleb128 0x19
 4333 0254 3C       		.uleb128 0x3c
 4334 0255 19       		.uleb128 0x19
 4335 0256 00       		.byte	0
 4336 0257 00       		.byte	0
 4337 0258 2D       		.uleb128 0x2d
 4338 0259 34       		.uleb128 0x34
 4339 025a 00       		.byte	0
 4340 025b 03       		.uleb128 0x3
 4341 025c 0E       		.uleb128 0xe
 4342 025d 3A       		.uleb128 0x3a
 4343 025e 0B       		.uleb128 0xb
 4344 025f 3B       		.uleb128 0x3b
 4345 0260 0B       		.uleb128 0xb
 4346 0261 49       		.uleb128 0x49
 4347 0262 13       		.uleb128 0x13
 4348 0263 3F       		.uleb128 0x3f
 4349 0264 19       		.uleb128 0x19
 4350 0265 3C       		.uleb128 0x3c
 4351 0266 19       		.uleb128 0x19
 4352 0267 00       		.byte	0
 4353 0268 00       		.byte	0
 4354 0269 2E       		.uleb128 0x2e
 4355 026a 2E       		.uleb128 0x2e
 4356 026b 00       		.byte	0
 4357 026c 3F       		.uleb128 0x3f
 4358 026d 19       		.uleb128 0x19
 4359 026e 3C       		.uleb128 0x3c
 4360 026f 19       		.uleb128 0x19
 4361 0270 6E       		.uleb128 0x6e
 4362 0271 0E       		.uleb128 0xe
 4363 0272 03       		.uleb128 0x3
 4364 0273 0E       		.uleb128 0xe
 4365 0274 3A       		.uleb128 0x3a
 4366 0275 0B       		.uleb128 0xb
 4367 0276 3B       		.uleb128 0x3b
 4368 0277 0B       		.uleb128 0xb
 4369 0278 00       		.byte	0
 4370 0279 00       		.byte	0
 4371 027a 2F       		.uleb128 0x2f
 4372 027b 2E       		.uleb128 0x2e
 4373 027c 00       		.byte	0
 4374 027d 3F       		.uleb128 0x3f
 4375 027e 19       		.uleb128 0x19
 4376 027f 3C       		.uleb128 0x3c
 4377 0280 19       		.uleb128 0x19
 4378 0281 6E       		.uleb128 0x6e
 4379 0282 0E       		.uleb128 0xe
 4380 0283 03       		.uleb128 0x3
 4381 0284 0E       		.uleb128 0xe
 4382 0285 00       		.byte	0
 4383 0286 00       		.byte	0
 4384 0287 00       		.byte	0
 4385              		.section	.debug_loc,"",%progbits
ARM GAS  C:\Users\Phuong\AppData\Local\Temp\ccYoYbaR.s 			page 96


 4386              	.Ldebug_loc0:
 4387              	.LLST0:
 4388 0000 00000000 		.4byte	.LVL1
 4389 0004 10000000 		.4byte	.LVL2
 4390 0008 0100     		.2byte	0x1
 4391 000a 50       		.byte	0x50
 4392 000b 10000000 		.4byte	.LVL2
 4393 000f 7C000000 		.4byte	.LFE54
 4394 0013 0400     		.2byte	0x4
 4395 0015 F3       		.byte	0xf3
 4396 0016 01       		.uleb128 0x1
 4397 0017 50       		.byte	0x50
 4398 0018 9F       		.byte	0x9f
 4399 0019 00000000 		.4byte	0
 4400 001d 00000000 		.4byte	0
 4401              	.LLST1:
 4402 0021 18000000 		.4byte	.LVL3
 4403 0025 48000000 		.4byte	.LVL5
 4404 0029 0100     		.2byte	0x1
 4405 002b 50       		.byte	0x50
 4406 002c 00000000 		.4byte	0
 4407 0030 00000000 		.4byte	0
 4408              	.LLST2:
 4409 0034 00000000 		.4byte	.LVL6
 4410 0038 23000000 		.4byte	.LVL10-1
 4411 003c 0100     		.2byte	0x1
 4412 003e 50       		.byte	0x50
 4413 003f 23000000 		.4byte	.LVL10-1
 4414 0043 38000000 		.4byte	.LVL11
 4415 0047 0100     		.2byte	0x1
 4416 0049 55       		.byte	0x55
 4417 004a 38000000 		.4byte	.LVL11
 4418 004e 42000000 		.4byte	.LVL14
 4419 0052 0100     		.2byte	0x1
 4420 0054 50       		.byte	0x50
 4421 0055 42000000 		.4byte	.LVL14
 4422 0059 08020000 		.4byte	.LVL48
 4423 005d 0100     		.2byte	0x1
 4424 005f 55       		.byte	0x55
 4425 0060 08020000 		.4byte	.LVL48
 4426 0064 0C020000 		.4byte	.LVL49
 4427 0068 0100     		.2byte	0x1
 4428 006a 50       		.byte	0x50
 4429 006b 0C020000 		.4byte	.LVL49
 4430 006f CC020000 		.4byte	.LVL61
 4431 0073 0100     		.2byte	0x1
 4432 0075 55       		.byte	0x55
 4433 0076 00000000 		.4byte	0
 4434 007a 00000000 		.4byte	0
 4435              	.LLST3:
 4436 007e 00000000 		.4byte	.LVL6
 4437 0082 0E000000 		.4byte	.LVL8
 4438 0086 0100     		.2byte	0x1
 4439 0088 51       		.byte	0x51
 4440 0089 0E000000 		.4byte	.LVL8
 4441 008d F2000000 		.4byte	.LVL22
 4442 0091 0100     		.2byte	0x1
ARM GAS  C:\Users\Phuong\AppData\Local\Temp\ccYoYbaR.s 			page 97


 4443 0093 58       		.byte	0x58
 4444 0094 F2000000 		.4byte	.LVL22
 4445 0098 F9000000 		.4byte	.LVL23-1
 4446 009c 0100     		.2byte	0x1
 4447 009e 52       		.byte	0x52
 4448 009f F9000000 		.4byte	.LVL23-1
 4449 00a3 70010000 		.4byte	.LVL35
 4450 00a7 0100     		.2byte	0x1
 4451 00a9 58       		.byte	0x58
 4452 00aa 70010000 		.4byte	.LVL35
 4453 00ae 76010000 		.4byte	.LVL36
 4454 00b2 0100     		.2byte	0x1
 4455 00b4 52       		.byte	0x52
 4456 00b5 76010000 		.4byte	.LVL36
 4457 00b9 CC020000 		.4byte	.LVL63
 4458 00bd 0100     		.2byte	0x1
 4459 00bf 58       		.byte	0x58
 4460 00c0 CC020000 		.4byte	.LVL63
 4461 00c4 E8020000 		.4byte	.LFE55
 4462 00c8 0400     		.2byte	0x4
 4463 00ca F3       		.byte	0xf3
 4464 00cb 01       		.uleb128 0x1
 4465 00cc 51       		.byte	0x51
 4466 00cd 9F       		.byte	0x9f
 4467 00ce 00000000 		.4byte	0
 4468 00d2 00000000 		.4byte	0
 4469              	.LLST4:
 4470 00d6 18000000 		.4byte	.LVL9
 4471 00da CC020000 		.4byte	.LVL62
 4472 00de 0100     		.2byte	0x1
 4473 00e0 57       		.byte	0x57
 4474 00e1 00000000 		.4byte	0
 4475 00e5 00000000 		.4byte	0
 4476              	.LLST5:
 4477 00e9 1A010000 		.4byte	.LVL24
 4478 00ed 1E010000 		.4byte	.LVL25
 4479 00f1 0100     		.2byte	0x1
 4480 00f3 58       		.byte	0x58
 4481 00f4 24010000 		.4byte	.LVL26
 4482 00f8 70010000 		.4byte	.LVL35
 4483 00fc 0100     		.2byte	0x1
 4484 00fe 54       		.byte	0x54
 4485 00ff 7C010000 		.4byte	.LVL37
 4486 0103 A6010000 		.4byte	.LVL41
 4487 0107 0100     		.2byte	0x1
 4488 0109 54       		.byte	0x54
 4489 010a A8010000 		.4byte	.LVL42
 4490 010e CA020000 		.4byte	.LVL60
 4491 0112 0100     		.2byte	0x1
 4492 0114 54       		.byte	0x54
 4493 0115 00000000 		.4byte	0
 4494 0119 00000000 		.4byte	0
 4495              	.LLST6:
 4496 011d 3C000000 		.4byte	.LVL12
 4497 0121 3E000000 		.4byte	.LVL13
 4498 0125 0100     		.2byte	0x1
 4499 0127 53       		.byte	0x53
ARM GAS  C:\Users\Phuong\AppData\Local\Temp\ccYoYbaR.s 			page 98


 4500 0128 3E000000 		.4byte	.LVL13
 4501 012c CA020000 		.4byte	.LVL60
 4502 0130 0100     		.2byte	0x1
 4503 0132 56       		.byte	0x56
 4504 0133 00000000 		.4byte	0
 4505 0137 00000000 		.4byte	0
 4506              	.LLST7:
 4507 013b 4C000000 		.4byte	.LVL16
 4508 013f 56000000 		.4byte	.LVL17
 4509 0143 0100     		.2byte	0x1
 4510 0145 50       		.byte	0x50
 4511 0146 00000000 		.4byte	0
 4512 014a 00000000 		.4byte	0
 4513              	.LLST8:
 4514 014e 0C000000 		.4byte	.LVL7
 4515 0152 1A010000 		.4byte	.LVL24
 4516 0156 0200     		.2byte	0x2
 4517 0158 31       		.byte	0x31
 4518 0159 9F       		.byte	0x9f
 4519 015a 1A010000 		.4byte	.LVL24
 4520 015e 1E010000 		.4byte	.LVL25
 4521 0162 0100     		.2byte	0x1
 4522 0164 53       		.byte	0x53
 4523 0165 1E010000 		.4byte	.LVL25
 4524 0169 88010000 		.4byte	.LVL38
 4525 016d 0200     		.2byte	0x2
 4526 016f 31       		.byte	0x31
 4527 0170 9F       		.byte	0x9f
 4528 0171 88010000 		.4byte	.LVL38
 4529 0175 AE010000 		.4byte	.LVL43
 4530 0179 0100     		.2byte	0x1
 4531 017b 53       		.byte	0x53
 4532 017c 00000000 		.4byte	0
 4533 0180 00000000 		.4byte	0
 4534              	.LLST9:
 4535 0184 24010000 		.4byte	.LVL26
 4536 0188 4A010000 		.4byte	.LVL28
 4537 018c 0100     		.2byte	0x1
 4538 018e 59       		.byte	0x59
 4539 018f 4A010000 		.4byte	.LVL28
 4540 0193 4C010000 		.4byte	.LVL29
 4541 0197 0100     		.2byte	0x1
 4542 0199 53       		.byte	0x53
 4543 019a 4C010000 		.4byte	.LVL29
 4544 019e 56010000 		.4byte	.LVL30
 4545 01a2 0100     		.2byte	0x1
 4546 01a4 59       		.byte	0x59
 4547 01a5 56010000 		.4byte	.LVL30
 4548 01a9 60010000 		.4byte	.LVL32
 4549 01ad 0200     		.2byte	0x2
 4550 01af 30       		.byte	0x30
 4551 01b0 9F       		.byte	0x9f
 4552 01b1 60010000 		.4byte	.LVL32
 4553 01b5 62010000 		.4byte	.LVL33
 4554 01b9 0100     		.2byte	0x1
 4555 01bb 53       		.byte	0x53
 4556 01bc 62010000 		.4byte	.LVL33
ARM GAS  C:\Users\Phuong\AppData\Local\Temp\ccYoYbaR.s 			page 99


 4557 01c0 70010000 		.4byte	.LVL35
 4558 01c4 0100     		.2byte	0x1
 4559 01c6 59       		.byte	0x59
 4560 01c7 7C010000 		.4byte	.LVL37
 4561 01cb 88010000 		.4byte	.LVL38
 4562 01cf 0100     		.2byte	0x1
 4563 01d1 59       		.byte	0x59
 4564 01d2 00000000 		.4byte	0
 4565 01d6 00000000 		.4byte	0
 4566              	.LLST10:
 4567 01da 94010000 		.4byte	.LVL39
 4568 01de 98010000 		.4byte	.LVL40
 4569 01e2 0100     		.2byte	0x1
 4570 01e4 52       		.byte	0x52
 4571 01e5 98010000 		.4byte	.LVL40
 4572 01e9 A8010000 		.4byte	.LVL42
 4573 01ed 0600     		.2byte	0x6
 4574 01ef 77       		.byte	0x77
 4575 01f0 00       		.sleb128 0
 4576 01f1 76       		.byte	0x76
 4577 01f2 00       		.sleb128 0
 4578 01f3 22       		.byte	0x22
 4579 01f4 9F       		.byte	0x9f
 4580 01f5 00000000 		.4byte	0
 4581 01f9 00000000 		.4byte	0
 4582              	.LLST11:
 4583 01fd 00000000 		.4byte	.LVL64
 4584 0201 45000000 		.4byte	.LVL76-1
 4585 0205 0100     		.2byte	0x1
 4586 0207 50       		.byte	0x50
 4587 0208 45000000 		.4byte	.LVL76-1
 4588 020c 8C000000 		.4byte	.LVL82
 4589 0210 0100     		.2byte	0x1
 4590 0212 55       		.byte	0x55
 4591 0213 8C000000 		.4byte	.LVL82
 4592 0217 92000000 		.4byte	.LVL84
 4593 021b 0100     		.2byte	0x1
 4594 021d 50       		.byte	0x50
 4595 021e 92000000 		.4byte	.LVL84
 4596 0222 8E010000 		.4byte	.LVL106
 4597 0226 0100     		.2byte	0x1
 4598 0228 55       		.byte	0x55
 4599 0229 8E010000 		.4byte	.LVL106
 4600 022d 92010000 		.4byte	.LVL108
 4601 0231 0100     		.2byte	0x1
 4602 0233 50       		.byte	0x50
 4603 0234 92010000 		.4byte	.LVL108
 4604 0238 DE010000 		.4byte	.LVL116
 4605 023c 0100     		.2byte	0x1
 4606 023e 55       		.byte	0x55
 4607 023f DE010000 		.4byte	.LVL116
 4608 0243 F8010000 		.4byte	.LFE59
 4609 0247 0400     		.2byte	0x4
 4610 0249 F3       		.byte	0xf3
 4611 024a 01       		.uleb128 0x1
 4612 024b 50       		.byte	0x50
 4613 024c 9F       		.byte	0x9f
ARM GAS  C:\Users\Phuong\AppData\Local\Temp\ccYoYbaR.s 			page 100


 4614 024d 00000000 		.4byte	0
 4615 0251 00000000 		.4byte	0
 4616              	.LLST12:
 4617 0255 00000000 		.4byte	.LVL64
 4618 0259 42000000 		.4byte	.LVL75
 4619 025d 0100     		.2byte	0x1
 4620 025f 51       		.byte	0x51
 4621 0260 42000000 		.4byte	.LVL75
 4622 0264 8C000000 		.4byte	.LVL82
 4623 0268 0100     		.2byte	0x1
 4624 026a 5B       		.byte	0x5b
 4625 026b 8C000000 		.4byte	.LVL82
 4626 026f 92000000 		.4byte	.LVL84
 4627 0273 0100     		.2byte	0x1
 4628 0275 51       		.byte	0x51
 4629 0276 92000000 		.4byte	.LVL84
 4630 027a 30010000 		.4byte	.LVL95
 4631 027e 0100     		.2byte	0x1
 4632 0280 5B       		.byte	0x5b
 4633 0281 30010000 		.4byte	.LVL95
 4634 0285 32010000 		.4byte	.LVL96
 4635 0289 0100     		.2byte	0x1
 4636 028b 52       		.byte	0x52
 4637 028c 32010000 		.4byte	.LVL96
 4638 0290 44010000 		.4byte	.LVL97
 4639 0294 0100     		.2byte	0x1
 4640 0296 5B       		.byte	0x5b
 4641 0297 44010000 		.4byte	.LVL97
 4642 029b 46010000 		.4byte	.LVL98
 4643 029f 0100     		.2byte	0x1
 4644 02a1 52       		.byte	0x52
 4645 02a2 46010000 		.4byte	.LVL98
 4646 02a6 8E010000 		.4byte	.LVL106
 4647 02aa 0100     		.2byte	0x1
 4648 02ac 5B       		.byte	0x5b
 4649 02ad 8E010000 		.4byte	.LVL106
 4650 02b1 AC010000 		.4byte	.LVL113
 4651 02b5 0100     		.2byte	0x1
 4652 02b7 51       		.byte	0x51
 4653 02b8 AC010000 		.4byte	.LVL113
 4654 02bc DE010000 		.4byte	.LVL118
 4655 02c0 0100     		.2byte	0x1
 4656 02c2 5B       		.byte	0x5b
 4657 02c3 DE010000 		.4byte	.LVL118
 4658 02c7 F8010000 		.4byte	.LFE59
 4659 02cb 0400     		.2byte	0x4
 4660 02cd F3       		.byte	0xf3
 4661 02ce 01       		.uleb128 0x1
 4662 02cf 51       		.byte	0x51
 4663 02d0 9F       		.byte	0x9f
 4664 02d1 00000000 		.4byte	0
 4665 02d5 00000000 		.4byte	0
 4666              	.LLST13:
 4667 02d9 00000000 		.4byte	.LVL64
 4668 02dd 45000000 		.4byte	.LVL76-1
 4669 02e1 0100     		.2byte	0x1
 4670 02e3 52       		.byte	0x52
ARM GAS  C:\Users\Phuong\AppData\Local\Temp\ccYoYbaR.s 			page 101


 4671 02e4 45000000 		.4byte	.LVL76-1
 4672 02e8 8C000000 		.4byte	.LVL82
 4673 02ec 0100     		.2byte	0x1
 4674 02ee 58       		.byte	0x58
 4675 02ef 8C000000 		.4byte	.LVL82
 4676 02f3 92000000 		.4byte	.LVL84
 4677 02f7 0100     		.2byte	0x1
 4678 02f9 52       		.byte	0x52
 4679 02fa 92000000 		.4byte	.LVL84
 4680 02fe 8E010000 		.4byte	.LVL106
 4681 0302 0100     		.2byte	0x1
 4682 0304 58       		.byte	0x58
 4683 0305 8E010000 		.4byte	.LVL106
 4684 0309 94010000 		.4byte	.LVL109
 4685 030d 0100     		.2byte	0x1
 4686 030f 52       		.byte	0x52
 4687 0310 94010000 		.4byte	.LVL109
 4688 0314 A8010000 		.4byte	.LVL111
 4689 0318 0100     		.2byte	0x1
 4690 031a 58       		.byte	0x58
 4691 031b A8010000 		.4byte	.LVL111
 4692 031f AA010000 		.4byte	.LVL112
 4693 0323 0300     		.2byte	0x3
 4694 0325 91       		.byte	0x91
 4695 0326 54       		.sleb128 -44
 4696 0327 9F       		.byte	0x9f
 4697 0328 AA010000 		.4byte	.LVL112
 4698 032c AC010000 		.4byte	.LVL113
 4699 0330 0100     		.2byte	0x1
 4700 0332 53       		.byte	0x53
 4701 0333 AC010000 		.4byte	.LVL113
 4702 0337 DE010000 		.4byte	.LVL117
 4703 033b 0100     		.2byte	0x1
 4704 033d 58       		.byte	0x58
 4705 033e 00000000 		.4byte	0
 4706 0342 00000000 		.4byte	0
 4707              	.LLST14:
 4708 0346 00000000 		.4byte	.LVL64
 4709 034a 18000000 		.4byte	.LVL65
 4710 034e 0100     		.2byte	0x1
 4711 0350 53       		.byte	0x53
 4712 0351 18000000 		.4byte	.LVL65
 4713 0355 F8010000 		.4byte	.LFE59
 4714 0359 0400     		.2byte	0x4
 4715 035b F3       		.byte	0xf3
 4716 035c 01       		.uleb128 0x1
 4717 035d 53       		.byte	0x53
 4718 035e 9F       		.byte	0x9f
 4719 035f 00000000 		.4byte	0
 4720 0363 00000000 		.4byte	0
 4721              	.LLST15:
 4722 0367 00000000 		.4byte	.LVL64
 4723 036b 18000000 		.4byte	.LVL65
 4724 036f 0200     		.2byte	0x2
 4725 0371 91       		.byte	0x91
 4726 0372 00       		.sleb128 0
 4727 0373 18000000 		.4byte	.LVL65
ARM GAS  C:\Users\Phuong\AppData\Local\Temp\ccYoYbaR.s 			page 102


 4728 0377 1A000000 		.4byte	.LVL66
 4729 037b 0200     		.2byte	0x2
 4730 037d 73       		.byte	0x73
 4731 037e 00       		.sleb128 0
 4732 037f 1A000000 		.4byte	.LVL66
 4733 0383 F8010000 		.4byte	.LFE59
 4734 0387 0200     		.2byte	0x2
 4735 0389 91       		.byte	0x91
 4736 038a 00       		.sleb128 0
 4737 038b 00000000 		.4byte	0
 4738 038f 00000000 		.4byte	0
 4739              	.LLST16:
 4740 0393 00000000 		.4byte	.LVL64
 4741 0397 18000000 		.4byte	.LVL65
 4742 039b 0200     		.2byte	0x2
 4743 039d 91       		.byte	0x91
 4744 039e 04       		.sleb128 4
 4745 039f 18000000 		.4byte	.LVL65
 4746 03a3 1A000000 		.4byte	.LVL66
 4747 03a7 0200     		.2byte	0x2
 4748 03a9 73       		.byte	0x73
 4749 03aa 04       		.sleb128 4
 4750 03ab 1A000000 		.4byte	.LVL66
 4751 03af 1E000000 		.4byte	.LVL67
 4752 03b3 0200     		.2byte	0x2
 4753 03b5 91       		.byte	0x91
 4754 03b6 04       		.sleb128 4
 4755 03b7 1E000000 		.4byte	.LVL67
 4756 03bb 20000000 		.4byte	.LVL68
 4757 03bf 0200     		.2byte	0x2
 4758 03c1 73       		.byte	0x73
 4759 03c2 00       		.sleb128 0
 4760 03c3 20000000 		.4byte	.LVL68
 4761 03c7 F8010000 		.4byte	.LFE59
 4762 03cb 0200     		.2byte	0x2
 4763 03cd 91       		.byte	0x91
 4764 03ce 04       		.sleb128 4
 4765 03cf 00000000 		.4byte	0
 4766 03d3 00000000 		.4byte	0
 4767              	.LLST17:
 4768 03d7 00000000 		.4byte	.LVL64
 4769 03db 18000000 		.4byte	.LVL65
 4770 03df 0200     		.2byte	0x2
 4771 03e1 91       		.byte	0x91
 4772 03e2 08       		.sleb128 8
 4773 03e3 18000000 		.4byte	.LVL65
 4774 03e7 1A000000 		.4byte	.LVL66
 4775 03eb 0200     		.2byte	0x2
 4776 03ed 73       		.byte	0x73
 4777 03ee 08       		.sleb128 8
 4778 03ef 1A000000 		.4byte	.LVL66
 4779 03f3 F8010000 		.4byte	.LFE59
 4780 03f7 0200     		.2byte	0x2
 4781 03f9 91       		.byte	0x91
 4782 03fa 08       		.sleb128 8
 4783 03fb 00000000 		.4byte	0
 4784 03ff 00000000 		.4byte	0
ARM GAS  C:\Users\Phuong\AppData\Local\Temp\ccYoYbaR.s 			page 103


 4785              	.LLST18:
 4786 0403 00000000 		.4byte	.LVL64
 4787 0407 18000000 		.4byte	.LVL65
 4788 040b 0200     		.2byte	0x2
 4789 040d 91       		.byte	0x91
 4790 040e 0C       		.sleb128 12
 4791 040f 18000000 		.4byte	.LVL65
 4792 0413 1A000000 		.4byte	.LVL66
 4793 0417 0200     		.2byte	0x2
 4794 0419 73       		.byte	0x73
 4795 041a 0C       		.sleb128 12
 4796 041b 1A000000 		.4byte	.LVL66
 4797 041f F8010000 		.4byte	.LFE59
 4798 0423 0200     		.2byte	0x2
 4799 0425 91       		.byte	0x91
 4800 0426 0C       		.sleb128 12
 4801 0427 00000000 		.4byte	0
 4802 042b 00000000 		.4byte	0
 4803              	.LLST19:
 4804 042f 00000000 		.4byte	.LVL64
 4805 0433 18000000 		.4byte	.LVL65
 4806 0437 0200     		.2byte	0x2
 4807 0439 91       		.byte	0x91
 4808 043a 10       		.sleb128 16
 4809 043b 18000000 		.4byte	.LVL65
 4810 043f 1A000000 		.4byte	.LVL66
 4811 0443 0200     		.2byte	0x2
 4812 0445 73       		.byte	0x73
 4813 0446 10       		.sleb128 16
 4814 0447 1A000000 		.4byte	.LVL66
 4815 044b 24000000 		.4byte	.LVL69
 4816 044f 0200     		.2byte	0x2
 4817 0451 91       		.byte	0x91
 4818 0452 10       		.sleb128 16
 4819 0453 24000000 		.4byte	.LVL69
 4820 0457 34000000 		.4byte	.LVL72
 4821 045b 0200     		.2byte	0x2
 4822 045d 73       		.byte	0x73
 4823 045e 00       		.sleb128 0
 4824 045f 34000000 		.4byte	.LVL72
 4825 0463 8C000000 		.4byte	.LVL82
 4826 0467 0200     		.2byte	0x2
 4827 0469 91       		.byte	0x91
 4828 046a 10       		.sleb128 16
 4829 046b 8C000000 		.4byte	.LVL82
 4830 046f 8E000000 		.4byte	.LVL83
 4831 0473 0200     		.2byte	0x2
 4832 0475 73       		.byte	0x73
 4833 0476 00       		.sleb128 0
 4834 0477 8E000000 		.4byte	.LVL83
 4835 047b 8E010000 		.4byte	.LVL106
 4836 047f 0200     		.2byte	0x2
 4837 0481 91       		.byte	0x91
 4838 0482 10       		.sleb128 16
 4839 0483 8E010000 		.4byte	.LVL106
 4840 0487 9A010000 		.4byte	.LVL110
 4841 048b 0200     		.2byte	0x2
ARM GAS  C:\Users\Phuong\AppData\Local\Temp\ccYoYbaR.s 			page 104


 4842 048d 73       		.byte	0x73
 4843 048e 00       		.sleb128 0
 4844 048f 9A010000 		.4byte	.LVL110
 4845 0493 F8010000 		.4byte	.LFE59
 4846 0497 0200     		.2byte	0x2
 4847 0499 91       		.byte	0x91
 4848 049a 10       		.sleb128 16
 4849 049b 00000000 		.4byte	0
 4850 049f 00000000 		.4byte	0
 4851              	.LLST20:
 4852 04a3 B0000000 		.4byte	.LVL86
 4853 04a7 8E010000 		.4byte	.LVL106
 4854 04ab 0100     		.2byte	0x1
 4855 04ad 54       		.byte	0x54
 4856 04ae 90010000 		.4byte	.LVL107
 4857 04b2 DC010000 		.4byte	.LVL115
 4858 04b6 0100     		.2byte	0x1
 4859 04b8 54       		.byte	0x54
 4860 04b9 00000000 		.4byte	0
 4861 04bd 00000000 		.4byte	0
 4862              	.LLST21:
 4863 04c1 26000000 		.4byte	.LVL70
 4864 04c5 7A000000 		.4byte	.LVL79
 4865 04c9 0200     		.2byte	0x2
 4866 04cb 30       		.byte	0x30
 4867 04cc 9F       		.byte	0x9f
 4868 04cd 7A000000 		.4byte	.LVL79
 4869 04d1 8C000000 		.4byte	.LVL82
 4870 04d5 0100     		.2byte	0x1
 4871 04d7 56       		.byte	0x56
 4872 04d8 8C000000 		.4byte	.LVL82
 4873 04dc 92000000 		.4byte	.LVL84
 4874 04e0 0200     		.2byte	0x2
 4875 04e2 30       		.byte	0x30
 4876 04e3 9F       		.byte	0x9f
 4877 04e4 92000000 		.4byte	.LVL84
 4878 04e8 24010000 		.4byte	.LVL94
 4879 04ec 0100     		.2byte	0x1
 4880 04ee 56       		.byte	0x56
 4881 04ef 24010000 		.4byte	.LVL94
 4882 04f3 72010000 		.4byte	.LVL99
 4883 04f7 0100     		.2byte	0x1
 4884 04f9 53       		.byte	0x53
 4885 04fa 72010000 		.4byte	.LVL99
 4886 04fe 7A010000 		.4byte	.LVL101
 4887 0502 0100     		.2byte	0x1
 4888 0504 50       		.byte	0x50
 4889 0505 7E010000 		.4byte	.LVL102
 4890 0509 86010000 		.4byte	.LVL105
 4891 050d 0100     		.2byte	0x1
 4892 050f 53       		.byte	0x53
 4893 0510 8E010000 		.4byte	.LVL106
 4894 0514 AC010000 		.4byte	.LVL113
 4895 0518 0200     		.2byte	0x2
 4896 051a 30       		.byte	0x30
 4897 051b 9F       		.byte	0x9f
 4898 051c 00000000 		.4byte	0
ARM GAS  C:\Users\Phuong\AppData\Local\Temp\ccYoYbaR.s 			page 105


 4899 0520 00000000 		.4byte	0
 4900              	.LLST22:
 4901 0524 2C000000 		.4byte	.LVL71
 4902 0528 40000000 		.4byte	.LVL74
 4903 052c 0200     		.2byte	0x2
 4904 052e 44       		.byte	0x44
 4905 052f 9F       		.byte	0x9f
 4906 0530 40000000 		.4byte	.LVL74
 4907 0534 8C000000 		.4byte	.LVL82
 4908 0538 0200     		.2byte	0x2
 4909 053a 91       		.byte	0x91
 4910 053b 4C       		.sleb128 -52
 4911 053c 8C000000 		.4byte	.LVL82
 4912 0540 92000000 		.4byte	.LVL84
 4913 0544 0200     		.2byte	0x2
 4914 0546 44       		.byte	0x44
 4915 0547 9F       		.byte	0x9f
 4916 0548 92000000 		.4byte	.LVL84
 4917 054c 8E010000 		.4byte	.LVL106
 4918 0550 0200     		.2byte	0x2
 4919 0552 91       		.byte	0x91
 4920 0553 4C       		.sleb128 -52
 4921 0554 00000000 		.4byte	0
 4922 0558 00000000 		.4byte	0
 4923              	.LLST23:
 4924 055c 2C000000 		.4byte	.LVL71
 4925 0560 38000000 		.4byte	.LVL73
 4926 0564 0200     		.2byte	0x2
 4927 0566 30       		.byte	0x30
 4928 0567 9F       		.byte	0x9f
 4929 0568 38000000 		.4byte	.LVL73
 4930 056c 8C000000 		.4byte	.LVL82
 4931 0570 0100     		.2byte	0x1
 4932 0572 54       		.byte	0x54
 4933 0573 8C000000 		.4byte	.LVL82
 4934 0577 92000000 		.4byte	.LVL84
 4935 057b 0200     		.2byte	0x2
 4936 057d 30       		.byte	0x30
 4937 057e 9F       		.byte	0x9f
 4938 057f 00000000 		.4byte	0
 4939 0583 00000000 		.4byte	0
 4940              	.LLST24:
 4941 0587 74000000 		.4byte	.LVL78
 4942 058b 7A000000 		.4byte	.LVL79
 4943 058f 0200     		.2byte	0x2
 4944 0591 30       		.byte	0x30
 4945 0592 9F       		.byte	0x9f
 4946 0593 7A000000 		.4byte	.LVL79
 4947 0597 8C000000 		.4byte	.LVL82
 4948 059b 0100     		.2byte	0x1
 4949 059d 53       		.byte	0x53
 4950 059e 00000000 		.4byte	0
 4951 05a2 00000000 		.4byte	0
 4952              	.LLST25:
 4953 05a6 00000000 		.4byte	.LVL119
 4954 05aa 33000000 		.4byte	.LVL128-1
 4955 05ae 0100     		.2byte	0x1
ARM GAS  C:\Users\Phuong\AppData\Local\Temp\ccYoYbaR.s 			page 106


 4956 05b0 50       		.byte	0x50
 4957 05b1 33000000 		.4byte	.LVL128-1
 4958 05b5 38000000 		.4byte	.LFE57
 4959 05b9 0400     		.2byte	0x4
 4960 05bb F3       		.byte	0xf3
 4961 05bc 01       		.uleb128 0x1
 4962 05bd 50       		.byte	0x50
 4963 05be 9F       		.byte	0x9f
 4964 05bf 00000000 		.4byte	0
 4965 05c3 00000000 		.4byte	0
 4966              	.LLST26:
 4967 05c7 00000000 		.4byte	.LVL119
 4968 05cb 20000000 		.4byte	.LVL126
 4969 05cf 0100     		.2byte	0x1
 4970 05d1 51       		.byte	0x51
 4971 05d2 20000000 		.4byte	.LVL126
 4972 05d6 38000000 		.4byte	.LFE57
 4973 05da 0400     		.2byte	0x4
 4974 05dc F3       		.byte	0xf3
 4975 05dd 01       		.uleb128 0x1
 4976 05de 51       		.byte	0x51
 4977 05df 9F       		.byte	0x9f
 4978 05e0 00000000 		.4byte	0
 4979 05e4 00000000 		.4byte	0
 4980              	.LLST27:
 4981 05e8 00000000 		.4byte	.LVL119
 4982 05ec 33000000 		.4byte	.LVL128-1
 4983 05f0 0100     		.2byte	0x1
 4984 05f2 52       		.byte	0x52
 4985 05f3 33000000 		.4byte	.LVL128-1
 4986 05f7 38000000 		.4byte	.LFE57
 4987 05fb 0400     		.2byte	0x4
 4988 05fd F3       		.byte	0xf3
 4989 05fe 01       		.uleb128 0x1
 4990 05ff 52       		.byte	0x52
 4991 0600 9F       		.byte	0x9f
 4992 0601 00000000 		.4byte	0
 4993 0605 00000000 		.4byte	0
 4994              	.LLST28:
 4995 0609 00000000 		.4byte	.LVL119
 4996 060d 33000000 		.4byte	.LVL128-1
 4997 0611 0100     		.2byte	0x1
 4998 0613 53       		.byte	0x53
 4999 0614 33000000 		.4byte	.LVL128-1
 5000 0618 38000000 		.4byte	.LFE57
 5001 061c 0400     		.2byte	0x4
 5002 061e F3       		.byte	0xf3
 5003 061f 01       		.uleb128 0x1
 5004 0620 53       		.byte	0x53
 5005 0621 9F       		.byte	0x9f
 5006 0622 00000000 		.4byte	0
 5007 0626 00000000 		.4byte	0
 5008              	.LLST29:
 5009 062a 00000000 		.4byte	.LVL119
 5010 062e 06000000 		.4byte	.LVL120
 5011 0632 0200     		.2byte	0x2
 5012 0634 91       		.byte	0x91
ARM GAS  C:\Users\Phuong\AppData\Local\Temp\ccYoYbaR.s 			page 107


 5013 0635 00       		.sleb128 0
 5014 0636 06000000 		.4byte	.LVL120
 5015 063a 08000000 		.4byte	.LVL121
 5016 063e 0200     		.2byte	0x2
 5017 0640 74       		.byte	0x74
 5018 0641 00       		.sleb128 0
 5019 0642 08000000 		.4byte	.LVL121
 5020 0646 38000000 		.4byte	.LFE57
 5021 064a 0200     		.2byte	0x2
 5022 064c 91       		.byte	0x91
 5023 064d 00       		.sleb128 0
 5024 064e 00000000 		.4byte	0
 5025 0652 00000000 		.4byte	0
 5026              	.LLST30:
 5027 0656 00000000 		.4byte	.LVL119
 5028 065a 06000000 		.4byte	.LVL120
 5029 065e 0200     		.2byte	0x2
 5030 0660 91       		.byte	0x91
 5031 0661 04       		.sleb128 4
 5032 0662 06000000 		.4byte	.LVL120
 5033 0666 08000000 		.4byte	.LVL121
 5034 066a 0200     		.2byte	0x2
 5035 066c 74       		.byte	0x74
 5036 066d 04       		.sleb128 4
 5037 066e 08000000 		.4byte	.LVL121
 5038 0672 0A000000 		.4byte	.LVL122
 5039 0676 0200     		.2byte	0x2
 5040 0678 91       		.byte	0x91
 5041 0679 04       		.sleb128 4
 5042 067a 0A000000 		.4byte	.LVL122
 5043 067e 0C000000 		.4byte	.LVL123
 5044 0682 0200     		.2byte	0x2
 5045 0684 75       		.byte	0x75
 5046 0685 00       		.sleb128 0
 5047 0686 0C000000 		.4byte	.LVL123
 5048 068a 38000000 		.4byte	.LFE57
 5049 068e 0200     		.2byte	0x2
 5050 0690 91       		.byte	0x91
 5051 0691 04       		.sleb128 4
 5052 0692 00000000 		.4byte	0
 5053 0696 00000000 		.4byte	0
 5054              	.LLST31:
 5055 069a 00000000 		.4byte	.LVL119
 5056 069e 06000000 		.4byte	.LVL120
 5057 06a2 0200     		.2byte	0x2
 5058 06a4 91       		.byte	0x91
 5059 06a5 08       		.sleb128 8
 5060 06a6 06000000 		.4byte	.LVL120
 5061 06aa 08000000 		.4byte	.LVL121
 5062 06ae 0200     		.2byte	0x2
 5063 06b0 74       		.byte	0x74
 5064 06b1 08       		.sleb128 8
 5065 06b2 08000000 		.4byte	.LVL121
 5066 06b6 38000000 		.4byte	.LFE57
 5067 06ba 0200     		.2byte	0x2
 5068 06bc 91       		.byte	0x91
 5069 06bd 08       		.sleb128 8
ARM GAS  C:\Users\Phuong\AppData\Local\Temp\ccYoYbaR.s 			page 108


 5070 06be 00000000 		.4byte	0
 5071 06c2 00000000 		.4byte	0
 5072              	.LLST32:
 5073 06c6 00000000 		.4byte	.LVL119
 5074 06ca 06000000 		.4byte	.LVL120
 5075 06ce 0200     		.2byte	0x2
 5076 06d0 91       		.byte	0x91
 5077 06d1 0C       		.sleb128 12
 5078 06d2 06000000 		.4byte	.LVL120
 5079 06d6 08000000 		.4byte	.LVL121
 5080 06da 0200     		.2byte	0x2
 5081 06dc 74       		.byte	0x74
 5082 06dd 0C       		.sleb128 12
 5083 06de 08000000 		.4byte	.LVL121
 5084 06e2 38000000 		.4byte	.LFE57
 5085 06e6 0200     		.2byte	0x2
 5086 06e8 91       		.byte	0x91
 5087 06e9 0C       		.sleb128 12
 5088 06ea 00000000 		.4byte	0
 5089 06ee 00000000 		.4byte	0
 5090              	.LLST33:
 5091 06f2 00000000 		.4byte	.LVL119
 5092 06f6 06000000 		.4byte	.LVL120
 5093 06fa 0200     		.2byte	0x2
 5094 06fc 91       		.byte	0x91
 5095 06fd 10       		.sleb128 16
 5096 06fe 06000000 		.4byte	.LVL120
 5097 0702 08000000 		.4byte	.LVL121
 5098 0706 0200     		.2byte	0x2
 5099 0708 74       		.byte	0x74
 5100 0709 10       		.sleb128 16
 5101 070a 08000000 		.4byte	.LVL121
 5102 070e 0E000000 		.4byte	.LVL124
 5103 0712 0200     		.2byte	0x2
 5104 0714 91       		.byte	0x91
 5105 0715 10       		.sleb128 16
 5106 0716 0E000000 		.4byte	.LVL124
 5107 071a 10000000 		.4byte	.LVL125
 5108 071e 0200     		.2byte	0x2
 5109 0720 76       		.byte	0x76
 5110 0721 00       		.sleb128 0
 5111 0722 10000000 		.4byte	.LVL125
 5112 0726 38000000 		.4byte	.LFE57
 5113 072a 0200     		.2byte	0x2
 5114 072c 91       		.byte	0x91
 5115 072d 10       		.sleb128 16
 5116 072e 00000000 		.4byte	0
 5117 0732 00000000 		.4byte	0
 5118              	.LLST34:
 5119 0736 10000000 		.4byte	.LVL125
 5120 073a 20000000 		.4byte	.LVL126
 5121 073e 0100     		.2byte	0x1
 5122 0740 51       		.byte	0x51
 5123 0741 20000000 		.4byte	.LVL126
 5124 0745 22000000 		.4byte	.LVL127
 5125 0749 0400     		.2byte	0x4
 5126 074b F3       		.byte	0xf3
ARM GAS  C:\Users\Phuong\AppData\Local\Temp\ccYoYbaR.s 			page 109


 5127 074c 01       		.uleb128 0x1
 5128 074d 51       		.byte	0x51
 5129 074e 9F       		.byte	0x9f
 5130 074f 22000000 		.4byte	.LVL127
 5131 0753 33000000 		.4byte	.LVL128-1
 5132 0757 0100     		.2byte	0x1
 5133 0759 51       		.byte	0x51
 5134 075a 00000000 		.4byte	0
 5135 075e 00000000 		.4byte	0
 5136              	.LLST35:
 5137 0762 00000000 		.4byte	.LVL129
 5138 0766 1D000000 		.4byte	.LVL133-1
 5139 076a 0100     		.2byte	0x1
 5140 076c 50       		.byte	0x50
 5141 076d 1D000000 		.4byte	.LVL133-1
 5142 0771 22000000 		.4byte	.LFE56
 5143 0775 0400     		.2byte	0x4
 5144 0777 F3       		.byte	0xf3
 5145 0778 01       		.uleb128 0x1
 5146 0779 50       		.byte	0x50
 5147 077a 9F       		.byte	0x9f
 5148 077b 00000000 		.4byte	0
 5149 077f 00000000 		.4byte	0
 5150              	.LLST36:
 5151 0783 00000000 		.4byte	.LVL129
 5152 0787 1D000000 		.4byte	.LVL133-1
 5153 078b 0100     		.2byte	0x1
 5154 078d 51       		.byte	0x51
 5155 078e 1D000000 		.4byte	.LVL133-1
 5156 0792 22000000 		.4byte	.LFE56
 5157 0796 0400     		.2byte	0x4
 5158 0798 F3       		.byte	0xf3
 5159 0799 01       		.uleb128 0x1
 5160 079a 51       		.byte	0x51
 5161 079b 9F       		.byte	0x9f
 5162 079c 00000000 		.4byte	0
 5163 07a0 00000000 		.4byte	0
 5164              	.LLST37:
 5165 07a4 00000000 		.4byte	.LVL129
 5166 07a8 1D000000 		.4byte	.LVL133-1
 5167 07ac 0100     		.2byte	0x1
 5168 07ae 52       		.byte	0x52
 5169 07af 1D000000 		.4byte	.LVL133-1
 5170 07b3 22000000 		.4byte	.LFE56
 5171 07b7 0400     		.2byte	0x4
 5172 07b9 F3       		.byte	0xf3
 5173 07ba 01       		.uleb128 0x1
 5174 07bb 52       		.byte	0x52
 5175 07bc 9F       		.byte	0x9f
 5176 07bd 00000000 		.4byte	0
 5177 07c1 00000000 		.4byte	0
 5178              	.LLST38:
 5179 07c5 00000000 		.4byte	.LVL129
 5180 07c9 1D000000 		.4byte	.LVL133-1
 5181 07cd 0100     		.2byte	0x1
 5182 07cf 53       		.byte	0x53
 5183 07d0 1D000000 		.4byte	.LVL133-1
ARM GAS  C:\Users\Phuong\AppData\Local\Temp\ccYoYbaR.s 			page 110


 5184 07d4 22000000 		.4byte	.LFE56
 5185 07d8 0400     		.2byte	0x4
 5186 07da F3       		.byte	0xf3
 5187 07db 01       		.uleb128 0x1
 5188 07dc 53       		.byte	0x53
 5189 07dd 9F       		.byte	0x9f
 5190 07de 00000000 		.4byte	0
 5191 07e2 00000000 		.4byte	0
 5192              	.LLST39:
 5193 07e6 00000000 		.4byte	.LVL129
 5194 07ea 06000000 		.4byte	.LVL130
 5195 07ee 0200     		.2byte	0x2
 5196 07f0 91       		.byte	0x91
 5197 07f1 00       		.sleb128 0
 5198 07f2 06000000 		.4byte	.LVL130
 5199 07f6 0A000000 		.4byte	.LVL131
 5200 07fa 0200     		.2byte	0x2
 5201 07fc 74       		.byte	0x74
 5202 07fd 00       		.sleb128 0
 5203 07fe 0A000000 		.4byte	.LVL131
 5204 0802 22000000 		.4byte	.LFE56
 5205 0806 0200     		.2byte	0x2
 5206 0808 91       		.byte	0x91
 5207 0809 00       		.sleb128 0
 5208 080a 00000000 		.4byte	0
 5209 080e 00000000 		.4byte	0
 5210              	.LLST40:
 5211 0812 00000000 		.4byte	.LVL129
 5212 0816 06000000 		.4byte	.LVL130
 5213 081a 0200     		.2byte	0x2
 5214 081c 91       		.byte	0x91
 5215 081d 04       		.sleb128 4
 5216 081e 06000000 		.4byte	.LVL130
 5217 0822 0A000000 		.4byte	.LVL131
 5218 0826 0200     		.2byte	0x2
 5219 0828 74       		.byte	0x74
 5220 0829 04       		.sleb128 4
 5221 082a 0A000000 		.4byte	.LVL131
 5222 082e 0E000000 		.4byte	.LVL132
 5223 0832 0200     		.2byte	0x2
 5224 0834 74       		.byte	0x74
 5225 0835 00       		.sleb128 0
 5226 0836 0E000000 		.4byte	.LVL132
 5227 083a 22000000 		.4byte	.LFE56
 5228 083e 0200     		.2byte	0x2
 5229 0840 91       		.byte	0x91
 5230 0841 04       		.sleb128 4
 5231 0842 00000000 		.4byte	0
 5232 0846 00000000 		.4byte	0
 5233              	.LLST41:
 5234 084a 00000000 		.4byte	.LVL129
 5235 084e 06000000 		.4byte	.LVL130
 5236 0852 0200     		.2byte	0x2
 5237 0854 91       		.byte	0x91
 5238 0855 08       		.sleb128 8
 5239 0856 06000000 		.4byte	.LVL130
 5240 085a 0A000000 		.4byte	.LVL131
ARM GAS  C:\Users\Phuong\AppData\Local\Temp\ccYoYbaR.s 			page 111


 5241 085e 0200     		.2byte	0x2
 5242 0860 74       		.byte	0x74
 5243 0861 08       		.sleb128 8
 5244 0862 0A000000 		.4byte	.LVL131
 5245 0866 22000000 		.4byte	.LFE56
 5246 086a 0200     		.2byte	0x2
 5247 086c 91       		.byte	0x91
 5248 086d 08       		.sleb128 8
 5249 086e 00000000 		.4byte	0
 5250 0872 00000000 		.4byte	0
 5251              	.LLST42:
 5252 0876 00000000 		.4byte	.LVL134
 5253 087a 1D000000 		.4byte	.LVL138-1
 5254 087e 0100     		.2byte	0x1
 5255 0880 50       		.byte	0x50
 5256 0881 1D000000 		.4byte	.LVL138-1
 5257 0885 22000000 		.4byte	.LFE58
 5258 0889 0400     		.2byte	0x4
 5259 088b F3       		.byte	0xf3
 5260 088c 01       		.uleb128 0x1
 5261 088d 50       		.byte	0x50
 5262 088e 9F       		.byte	0x9f
 5263 088f 00000000 		.4byte	0
 5264 0893 00000000 		.4byte	0
 5265              	.LLST43:
 5266 0897 00000000 		.4byte	.LVL134
 5267 089b 1D000000 		.4byte	.LVL138-1
 5268 089f 0100     		.2byte	0x1
 5269 08a1 51       		.byte	0x51
 5270 08a2 1D000000 		.4byte	.LVL138-1
 5271 08a6 22000000 		.4byte	.LFE58
 5272 08aa 0400     		.2byte	0x4
 5273 08ac F3       		.byte	0xf3
 5274 08ad 01       		.uleb128 0x1
 5275 08ae 51       		.byte	0x51
 5276 08af 9F       		.byte	0x9f
 5277 08b0 00000000 		.4byte	0
 5278 08b4 00000000 		.4byte	0
 5279              	.LLST44:
 5280 08b8 00000000 		.4byte	.LVL134
 5281 08bc 1D000000 		.4byte	.LVL138-1
 5282 08c0 0100     		.2byte	0x1
 5283 08c2 52       		.byte	0x52
 5284 08c3 1D000000 		.4byte	.LVL138-1
 5285 08c7 22000000 		.4byte	.LFE58
 5286 08cb 0400     		.2byte	0x4
 5287 08cd F3       		.byte	0xf3
 5288 08ce 01       		.uleb128 0x1
 5289 08cf 52       		.byte	0x52
 5290 08d0 9F       		.byte	0x9f
 5291 08d1 00000000 		.4byte	0
 5292 08d5 00000000 		.4byte	0
 5293              	.LLST45:
 5294 08d9 00000000 		.4byte	.LVL134
 5295 08dd 1D000000 		.4byte	.LVL138-1
 5296 08e1 0100     		.2byte	0x1
 5297 08e3 53       		.byte	0x53
ARM GAS  C:\Users\Phuong\AppData\Local\Temp\ccYoYbaR.s 			page 112


 5298 08e4 1D000000 		.4byte	.LVL138-1
 5299 08e8 22000000 		.4byte	.LFE58
 5300 08ec 0400     		.2byte	0x4
 5301 08ee F3       		.byte	0xf3
 5302 08ef 01       		.uleb128 0x1
 5303 08f0 53       		.byte	0x53
 5304 08f1 9F       		.byte	0x9f
 5305 08f2 00000000 		.4byte	0
 5306 08f6 00000000 		.4byte	0
 5307              	.LLST46:
 5308 08fa 00000000 		.4byte	.LVL134
 5309 08fe 06000000 		.4byte	.LVL135
 5310 0902 0200     		.2byte	0x2
 5311 0904 91       		.byte	0x91
 5312 0905 00       		.sleb128 0
 5313 0906 06000000 		.4byte	.LVL135
 5314 090a 0A000000 		.4byte	.LVL136
 5315 090e 0200     		.2byte	0x2
 5316 0910 74       		.byte	0x74
 5317 0911 00       		.sleb128 0
 5318 0912 0A000000 		.4byte	.LVL136
 5319 0916 22000000 		.4byte	.LFE58
 5320 091a 0200     		.2byte	0x2
 5321 091c 91       		.byte	0x91
 5322 091d 00       		.sleb128 0
 5323 091e 00000000 		.4byte	0
 5324 0922 00000000 		.4byte	0
 5325              	.LLST47:
 5326 0926 00000000 		.4byte	.LVL134
 5327 092a 06000000 		.4byte	.LVL135
 5328 092e 0200     		.2byte	0x2
 5329 0930 91       		.byte	0x91
 5330 0931 04       		.sleb128 4
 5331 0932 06000000 		.4byte	.LVL135
 5332 0936 0A000000 		.4byte	.LVL136
 5333 093a 0200     		.2byte	0x2
 5334 093c 74       		.byte	0x74
 5335 093d 04       		.sleb128 4
 5336 093e 0A000000 		.4byte	.LVL136
 5337 0942 0E000000 		.4byte	.LVL137
 5338 0946 0200     		.2byte	0x2
 5339 0948 74       		.byte	0x74
 5340 0949 00       		.sleb128 0
 5341 094a 0E000000 		.4byte	.LVL137
 5342 094e 22000000 		.4byte	.LFE58
 5343 0952 0200     		.2byte	0x2
 5344 0954 91       		.byte	0x91
 5345 0955 04       		.sleb128 4
 5346 0956 00000000 		.4byte	0
 5347 095a 00000000 		.4byte	0
 5348              	.LLST48:
 5349 095e 00000000 		.4byte	.LVL134
 5350 0962 06000000 		.4byte	.LVL135
 5351 0966 0200     		.2byte	0x2
 5352 0968 91       		.byte	0x91
 5353 0969 08       		.sleb128 8
 5354 096a 06000000 		.4byte	.LVL135
ARM GAS  C:\Users\Phuong\AppData\Local\Temp\ccYoYbaR.s 			page 113


 5355 096e 0A000000 		.4byte	.LVL136
 5356 0972 0200     		.2byte	0x2
 5357 0974 74       		.byte	0x74
 5358 0975 08       		.sleb128 8
 5359 0976 0A000000 		.4byte	.LVL136
 5360 097a 22000000 		.4byte	.LFE58
 5361 097e 0200     		.2byte	0x2
 5362 0980 91       		.byte	0x91
 5363 0981 08       		.sleb128 8
 5364 0982 00000000 		.4byte	0
 5365 0986 00000000 		.4byte	0
 5366              	.LLST49:
 5367 098a 00000000 		.4byte	.LVL139
 5368 098e 16000000 		.4byte	.LVL142
 5369 0992 0100     		.2byte	0x1
 5370 0994 50       		.byte	0x50
 5371 0995 16000000 		.4byte	.LVL142
 5372 0999 48000000 		.4byte	.LFE60
 5373 099d 0200     		.2byte	0x2
 5374 099f 91       		.byte	0x91
 5375 09a0 60       		.sleb128 -32
 5376 09a1 00000000 		.4byte	0
 5377 09a5 00000000 		.4byte	0
 5378              	.LLST50:
 5379 09a9 00000000 		.4byte	.LVL139
 5380 09ad 19000000 		.4byte	.LVL143-1
 5381 09b1 0100     		.2byte	0x1
 5382 09b3 51       		.byte	0x51
 5383 09b4 19000000 		.4byte	.LVL143-1
 5384 09b8 48000000 		.4byte	.LFE60
 5385 09bc 0200     		.2byte	0x2
 5386 09be 91       		.byte	0x91
 5387 09bf 64       		.sleb128 -28
 5388 09c0 00000000 		.4byte	0
 5389 09c4 00000000 		.4byte	0
 5390              	.LLST51:
 5391 09c8 00000000 		.4byte	.LVL139
 5392 09cc 19000000 		.4byte	.LVL143-1
 5393 09d0 0100     		.2byte	0x1
 5394 09d2 52       		.byte	0x52
 5395 09d3 19000000 		.4byte	.LVL143-1
 5396 09d7 40000000 		.4byte	.LVL148
 5397 09db 0100     		.2byte	0x1
 5398 09dd 54       		.byte	0x54
 5399 09de 40000000 		.4byte	.LVL148
 5400 09e2 48000000 		.4byte	.LFE60
 5401 09e6 0400     		.2byte	0x4
 5402 09e8 F3       		.byte	0xf3
 5403 09e9 01       		.uleb128 0x1
 5404 09ea 52       		.byte	0x52
 5405 09eb 9F       		.byte	0x9f
 5406 09ec 00000000 		.4byte	0
 5407 09f0 00000000 		.4byte	0
 5408              	.LLST52:
 5409 09f4 00000000 		.4byte	.LVL139
 5410 09f8 0E000000 		.4byte	.LVL140
 5411 09fc 0100     		.2byte	0x1
ARM GAS  C:\Users\Phuong\AppData\Local\Temp\ccYoYbaR.s 			page 114


 5412 09fe 53       		.byte	0x53
 5413 09ff 0E000000 		.4byte	.LVL140
 5414 0a03 48000000 		.4byte	.LFE60
 5415 0a07 0400     		.2byte	0x4
 5416 0a09 F3       		.byte	0xf3
 5417 0a0a 01       		.uleb128 0x1
 5418 0a0b 53       		.byte	0x53
 5419 0a0c 9F       		.byte	0x9f
 5420 0a0d 00000000 		.4byte	0
 5421 0a11 00000000 		.4byte	0
 5422              	.LLST53:
 5423 0a15 00000000 		.4byte	.LVL139
 5424 0a19 0E000000 		.4byte	.LVL140
 5425 0a1d 0200     		.2byte	0x2
 5426 0a1f 91       		.byte	0x91
 5427 0a20 00       		.sleb128 0
 5428 0a21 0E000000 		.4byte	.LVL140
 5429 0a25 12000000 		.4byte	.LVL141
 5430 0a29 0200     		.2byte	0x2
 5431 0a2b 73       		.byte	0x73
 5432 0a2c 00       		.sleb128 0
 5433 0a2d 12000000 		.4byte	.LVL141
 5434 0a31 48000000 		.4byte	.LFE60
 5435 0a35 0200     		.2byte	0x2
 5436 0a37 91       		.byte	0x91
 5437 0a38 00       		.sleb128 0
 5438 0a39 00000000 		.4byte	0
 5439 0a3d 00000000 		.4byte	0
 5440              	.LLST54:
 5441 0a41 00000000 		.4byte	.LVL139
 5442 0a45 0E000000 		.4byte	.LVL140
 5443 0a49 0200     		.2byte	0x2
 5444 0a4b 91       		.byte	0x91
 5445 0a4c 04       		.sleb128 4
 5446 0a4d 0E000000 		.4byte	.LVL140
 5447 0a51 12000000 		.4byte	.LVL141
 5448 0a55 0200     		.2byte	0x2
 5449 0a57 73       		.byte	0x73
 5450 0a58 04       		.sleb128 4
 5451 0a59 12000000 		.4byte	.LVL141
 5452 0a5d 19000000 		.4byte	.LVL143-1
 5453 0a61 0200     		.2byte	0x2
 5454 0a63 73       		.byte	0x73
 5455 0a64 00       		.sleb128 0
 5456 0a65 19000000 		.4byte	.LVL143-1
 5457 0a69 48000000 		.4byte	.LFE60
 5458 0a6d 0200     		.2byte	0x2
 5459 0a6f 91       		.byte	0x91
 5460 0a70 04       		.sleb128 4
 5461 0a71 00000000 		.4byte	0
 5462 0a75 00000000 		.4byte	0
 5463              	.LLST55:
 5464 0a79 1A000000 		.4byte	.LVL143
 5465 0a7d 2A000000 		.4byte	.LVL144
 5466 0a81 0100     		.2byte	0x1
 5467 0a83 50       		.byte	0x50
 5468 0a84 2A000000 		.4byte	.LVL144
ARM GAS  C:\Users\Phuong\AppData\Local\Temp\ccYoYbaR.s 			page 115


 5469 0a88 2C000000 		.4byte	.LVL145
 5470 0a8c 0300     		.2byte	0x3
 5471 0a8e 70       		.byte	0x70
 5472 0a8f 04       		.sleb128 4
 5473 0a90 9F       		.byte	0x9f
 5474 0a91 2C000000 		.4byte	.LVL145
 5475 0a95 3A000000 		.4byte	.LVL146
 5476 0a99 0100     		.2byte	0x1
 5477 0a9b 50       		.byte	0x50
 5478 0a9c 3A000000 		.4byte	.LVL146
 5479 0aa0 3D000000 		.4byte	.LVL147-1
 5480 0aa4 0200     		.2byte	0x2
 5481 0aa6 91       		.byte	0x91
 5482 0aa7 58       		.sleb128 -40
 5483 0aa8 00000000 		.4byte	0
 5484 0aac 00000000 		.4byte	0
 5485              		.section	.debug_aranges,"",%progbits
 5486 0000 54000000 		.4byte	0x54
 5487 0004 0200     		.2byte	0x2
 5488 0006 00000000 		.4byte	.Ldebug_info0
 5489 000a 04       		.byte	0x4
 5490 000b 00       		.byte	0
 5491 000c 0000     		.2byte	0
 5492 000e 0000     		.2byte	0
 5493 0010 00000000 		.4byte	.LFB53
 5494 0014 0C000000 		.4byte	.LFE53-.LFB53
 5495 0018 00000000 		.4byte	.LFB54
 5496 001c 7C000000 		.4byte	.LFE54-.LFB54
 5497 0020 00000000 		.4byte	.LFB55
 5498 0024 E8020000 		.4byte	.LFE55-.LFB55
 5499 0028 00000000 		.4byte	.LFB59
 5500 002c F8010000 		.4byte	.LFE59-.LFB59
 5501 0030 00000000 		.4byte	.LFB57
 5502 0034 38000000 		.4byte	.LFE57-.LFB57
 5503 0038 00000000 		.4byte	.LFB56
 5504 003c 22000000 		.4byte	.LFE56-.LFB56
 5505 0040 00000000 		.4byte	.LFB58
 5506 0044 22000000 		.4byte	.LFE58-.LFB58
 5507 0048 00000000 		.4byte	.LFB60
 5508 004c 48000000 		.4byte	.LFE60-.LFB60
 5509 0050 00000000 		.4byte	0
 5510 0054 00000000 		.4byte	0
 5511              		.section	.debug_ranges,"",%progbits
 5512              	.Ldebug_ranges0:
 5513 0000 FE000000 		.4byte	.LBB2
 5514 0004 10010000 		.4byte	.LBE2
 5515 0008 18010000 		.4byte	.LBB3
 5516 000c 1C010000 		.4byte	.LBE3
 5517 0010 00000000 		.4byte	0
 5518 0014 00000000 		.4byte	0
 5519 0018 24010000 		.4byte	.LBB4
 5520 001c 6C010000 		.4byte	.LBE4
 5521 0020 6E010000 		.4byte	.LBB5
 5522 0024 70010000 		.4byte	.LBE5
 5523 0028 86010000 		.4byte	.LBB6
 5524 002c 88010000 		.4byte	.LBE6
 5525 0030 00000000 		.4byte	0
ARM GAS  C:\Users\Phuong\AppData\Local\Temp\ccYoYbaR.s 			page 116


 5526 0034 00000000 		.4byte	0
 5527 0038 2C000000 		.4byte	.LBB8
 5528 003c 76000000 		.4byte	.LBE8
 5529 0040 78000000 		.4byte	.LBB11
 5530 0044 90000000 		.4byte	.LBE11
 5531 0048 92000000 		.4byte	.LBB12
 5532 004c 8C010000 		.4byte	.LBE12
 5533 0050 00000000 		.4byte	0
 5534 0054 00000000 		.4byte	0
 5535 0058 30000000 		.4byte	.LBB9
 5536 005c 76000000 		.4byte	.LBE9
 5537 0060 78000000 		.4byte	.LBB10
 5538 0064 8C000000 		.4byte	.LBE10
 5539 0068 00000000 		.4byte	0
 5540 006c 00000000 		.4byte	0
 5541 0070 00000000 		.4byte	.LFB53
 5542 0074 0C000000 		.4byte	.LFE53
 5543 0078 00000000 		.4byte	.LFB54
 5544 007c 7C000000 		.4byte	.LFE54
 5545 0080 00000000 		.4byte	.LFB55
 5546 0084 E8020000 		.4byte	.LFE55
 5547 0088 00000000 		.4byte	.LFB59
 5548 008c F8010000 		.4byte	.LFE59
 5549 0090 00000000 		.4byte	.LFB57
 5550 0094 38000000 		.4byte	.LFE57
 5551 0098 00000000 		.4byte	.LFB56
 5552 009c 22000000 		.4byte	.LFE56
 5553 00a0 00000000 		.4byte	.LFB58
 5554 00a4 22000000 		.4byte	.LFE58
 5555 00a8 00000000 		.4byte	.LFB60
 5556 00ac 48000000 		.4byte	.LFE60
 5557 00b0 00000000 		.4byte	0
 5558 00b4 00000000 		.4byte	0
 5559              		.section	.debug_line,"",%progbits
 5560              	.Ldebug_line0:
 5561 0000 0F050000 		.section	.debug_str,"MS",%progbits,1
 5561      02001003 
 5561      00000201 
 5561      FB0E0D00 
 5561      01010101 
 5562              	.LASF89:
 5563 0000 74785F6A 		.ascii	"tx_join\000"
 5563      6F696E00 
 5564              	.LASF78:
 5565 0008 6C656E65 		.ascii	"lenerr\000"
 5565      727200
 5566              	.LASF102:
 5567 000f 6D656D70 		.ascii	"memp\000"
 5567      00
 5568              	.LASF152:
 5569 0014 49434D50 		.ascii	"ICMP_DUR_FRAG\000"
 5569      5F445552 
 5569      5F465241 
 5569      4700
 5570              	.LASF127:
 5571 0022 6E657469 		.ascii	"netif_status_callback_fn\000"
 5571      665F7374 
ARM GAS  C:\Users\Phuong\AppData\Local\Temp\ccYoYbaR.s 			page 117


 5571      61747573 
 5571      5F63616C 
 5571      6C626163 
 5572              	.LASF128:
 5573 003b 6E657469 		.ascii	"netif_igmp_mac_filter_fn\000"
 5573      665F6967 
 5573      6D705F6D 
 5573      61635F66 
 5573      696C7465 
 5574              	.LASF63:
 5575 0054 4D454D50 		.ascii	"MEMP_SYS_TIMEOUT\000"
 5575      5F535953 
 5575      5F54494D 
 5575      454F5554 
 5575      00
 5576              	.LASF164:
 5577 0065 75647068 		.ascii	"udphdr\000"
 5577      647200
 5578              	.LASF45:
 5579 006c 70627566 		.ascii	"pbuf\000"
 5579      00
 5580              	.LASF119:
 5581 0071 72735F63 		.ascii	"rs_count\000"
 5581      6F756E74 
 5581      00
 5582              	.LASF23:
 5583 007a 4552525F 		.ascii	"ERR_OK\000"
 5583      4F4B00
 5584              	.LASF64:
 5585 0081 4D454D50 		.ascii	"MEMP_NETDB\000"
 5585      5F4E4554 
 5585      444200
 5586              	.LASF146:
 5587 008c 63757272 		.ascii	"current_iphdr_dest\000"
 5587      656E745F 
 5587      69706864 
 5587      725F6465 
 5587      737400
 5588              	.LASF99:
 5589 009f 69705F66 		.ascii	"ip_frag\000"
 5589      72616700 
 5590              	.LASF59:
 5591 00a7 4D454D50 		.ascii	"MEMP_TCPIP_MSG_API\000"
 5591      5F544350 
 5591      49505F4D 
 5591      53475F41 
 5591      504900
 5592              	.LASF43:
 5593 00ba 74797065 		.ascii	"type\000"
 5593      00
 5594              	.LASF121:
 5595 00bf 68776164 		.ascii	"hwaddr_len\000"
 5595      64725F6C 
 5595      656E00
 5596              	.LASF77:
 5597 00ca 63686B65 		.ascii	"chkerr\000"
 5597      727200
ARM GAS  C:\Users\Phuong\AppData\Local\Temp\ccYoYbaR.s 			page 118


 5598              	.LASF195:
 5599 00d1 7463705F 		.ascii	"tcp_input\000"
 5599      696E7075 
 5599      7400
 5600              	.LASF7:
 5601 00db 6C6F6E67 		.ascii	"long long unsigned int\000"
 5601      206C6F6E 
 5601      6720756E 
 5601      7369676E 
 5601      65642069 
 5602              	.LASF183:
 5603 00f2 6E657469 		.ascii	"netif_default\000"
 5603      665F6465 
 5603      6661756C 
 5603      7400
 5604              	.LASF47:
 5605 0100 61646472 		.ascii	"addr\000"
 5605      00
 5606              	.LASF141:
 5607 0105 63757272 		.ascii	"current_netif\000"
 5607      656E745F 
 5607      6E657469 
 5607      6600
 5608              	.LASF79:
 5609 0113 6D656D65 		.ascii	"memerr\000"
 5609      727200
 5610              	.LASF55:
 5611 011a 4D454D50 		.ascii	"MEMP_TCP_SEG\000"
 5611      5F544350 
 5611      5F534547 
 5611      00
 5612              	.LASF83:
 5613 0127 63616368 		.ascii	"cachehit\000"
 5613      65686974 
 5613      00
 5614              	.LASF40:
 5615 0130 6E657874 		.ascii	"next\000"
 5615      00
 5616              	.LASF170:
 5617 0135 63686B5F 		.ascii	"chk_sum\000"
 5617      73756D00 
 5618              	.LASF61:
 5619 013d 4D454D50 		.ascii	"MEMP_ARP_QUEUE\000"
 5619      5F415250 
 5619      5F515545 
 5619      554500
 5620              	.LASF6:
 5621 014c 6C6F6E67 		.ascii	"long long int\000"
 5621      206C6F6E 
 5621      6720696E 
 5621      7400
 5622              	.LASF0:
 5623 015a 7369676E 		.ascii	"signed char\000"
 5623      65642063 
 5623      68617200 
 5624              	.LASF31:
 5625 0166 4552525F 		.ascii	"ERR_USE\000"
ARM GAS  C:\Users\Phuong\AppData\Local\Temp\ccYoYbaR.s 			page 119


 5625      55534500 
 5626              	.LASF190:
 5627 016e 69676D70 		.ascii	"igmp_lookfor_group\000"
 5627      5F6C6F6F 
 5627      6B666F72 
 5627      5F67726F 
 5627      757000
 5628              	.LASF122:
 5629 0181 68776164 		.ascii	"hwaddr\000"
 5629      647200
 5630              	.LASF162:
 5631 0188 63686563 		.ascii	"check_ip_src\000"
 5631      6B5F6970 
 5631      5F737263 
 5631      00
 5632              	.LASF197:
 5633 0195 69676D70 		.ascii	"igmp_input\000"
 5633      5F696E70 
 5633      757400
 5634              	.LASF42:
 5635 01a0 746F745F 		.ascii	"tot_len\000"
 5635      6C656E00 
 5636              	.LASF56:
 5637 01a8 4D454D50 		.ascii	"MEMP_REASSDATA\000"
 5637      5F524541 
 5637      53534441 
 5637      544100
 5638              	.LASF207:
 5639 01b7 616C6C73 		.ascii	"allsystems\000"
 5639      79737465 
 5639      6D7300
 5640              	.LASF117:
 5641 01c2 73746174 		.ascii	"state\000"
 5641      6500
 5642              	.LASF120:
 5643 01c8 686F7374 		.ascii	"hostname\000"
 5643      6E616D65 
 5643      00
 5644              	.LASF4:
 5645 01d1 6C6F6E67 		.ascii	"long int\000"
 5645      20696E74 
 5645      00
 5646              	.LASF129:
 5647 01da 6970345F 		.ascii	"ip4_addr_packed\000"
 5647      61646472 
 5647      5F706163 
 5647      6B656400 
 5648              	.LASF46:
 5649 01ea 6970345F 		.ascii	"ip4_addr\000"
 5649      61646472 
 5649      00
 5650              	.LASF106:
 5651 01f3 6C776970 		.ascii	"lwip_internal_netif_client_data_index\000"
 5651      5F696E74 
 5651      65726E61 
 5651      6C5F6E65 
 5651      7469665F 
ARM GAS  C:\Users\Phuong\AppData\Local\Temp\ccYoYbaR.s 			page 120


 5652              	.LASF100:
 5653 0219 69636D70 		.ascii	"icmp\000"
 5653      00
 5654              	.LASF200:
 5655 021e 6D656D63 		.ascii	"memcpy\000"
 5655      707900
 5656              	.LASF142:
 5657 0225 63757272 		.ascii	"current_input_netif\000"
 5657      656E745F 
 5657      696E7075 
 5657      745F6E65 
 5657      74696600 
 5658              	.LASF75:
 5659 0239 72656376 		.ascii	"recv\000"
 5659      00
 5660              	.LASF105:
 5661 023e 4C574950 		.ascii	"LWIP_NETIF_CLIENT_DATA_INDEX_MAX\000"
 5661      5F4E4554 
 5661      49465F43 
 5661      4C49454E 
 5661      545F4441 
 5662              	.LASF35:
 5663 025f 4552525F 		.ascii	"ERR_IF\000"
 5663      494600
 5664              	.LASF72:
 5665 0266 696C6C65 		.ascii	"illegal\000"
 5665      67616C00 
 5666              	.LASF16:
 5667 026e 646F7562 		.ascii	"double\000"
 5667      6C6500
 5668              	.LASF135:
 5669 0275 5F6F6666 		.ascii	"_offset\000"
 5669      73657400 
 5670              	.LASF52:
 5671 027d 4D454D50 		.ascii	"MEMP_UDP_PCB\000"
 5671      5F554450 
 5671      5F504342 
 5671      00
 5672              	.LASF112:
 5673 028a 6E65746D 		.ascii	"netmask\000"
 5673      61736B00 
 5674              	.LASF126:
 5675 0292 6E657469 		.ascii	"netif_linkoutput_fn\000"
 5675      665F6C69 
 5675      6E6B6F75 
 5675      74707574 
 5675      5F666E00 
 5676              	.LASF67:
 5677 02a6 4D454D50 		.ascii	"MEMP_MAX\000"
 5677      5F4D4158 
 5677      00
 5678              	.LASF167:
 5679 02af 69705F6F 		.ascii	"ip_options\000"
 5679      7074696F 
 5679      6E7300
 5680              	.LASF9:
 5681 02ba 5F5F7569 		.ascii	"__uint32_t\000"
ARM GAS  C:\Users\Phuong\AppData\Local\Temp\ccYoYbaR.s 			page 121


 5681      6E743332 
 5681      5F7400
 5682              	.LASF54:
 5683 02c5 4D454D50 		.ascii	"MEMP_TCP_PCB_LISTEN\000"
 5683      5F544350 
 5683      5F504342 
 5683      5F4C4953 
 5683      54454E00 
 5684              	.LASF97:
 5685 02d9 6C696E6B 		.ascii	"link\000"
 5685      00
 5686              	.LASF172:
 5687 02de 6F70746C 		.ascii	"optlen_aligned\000"
 5687      656E5F61 
 5687      6C69676E 
 5687      656400
 5688              	.LASF10:
 5689 02ed 73697A65 		.ascii	"size_t\000"
 5689      5F7400
 5690              	.LASF173:
 5691 02f4 6970345F 		.ascii	"ip4_output_if_opt\000"
 5691      6F757470 
 5691      75745F69 
 5691      665F6F70 
 5691      7400
 5692              	.LASF161:
 5693 0306 69706864 		.ascii	"iphdr_len\000"
 5693      725F6C65 
 5693      6E00
 5694              	.LASF84:
 5695 0310 73746174 		.ascii	"stats_igmp\000"
 5695      735F6967 
 5695      6D7000
 5696              	.LASF81:
 5697 031b 70726F74 		.ascii	"proterr\000"
 5697      65727200 
 5698              	.LASF26:
 5699 0323 4552525F 		.ascii	"ERR_TIMEOUT\000"
 5699      54494D45 
 5699      4F555400 
 5700              	.LASF17:
 5701 032f 75385F74 		.ascii	"u8_t\000"
 5701      00
 5702              	.LASF62:
 5703 0334 4D454D50 		.ascii	"MEMP_IGMP_GROUP\000"
 5703      5F49474D 
 5703      505F4752 
 5703      4F555000 
 5704              	.LASF187:
 5705 0344 6C776970 		.ascii	"lwip_htons\000"
 5705      5F68746F 
 5705      6E7300
 5706              	.LASF153:
 5707 034f 49434D50 		.ascii	"ICMP_DUR_SR\000"
 5707      5F445552 
 5707      5F535200 
 5708              	.LASF204:
ARM GAS  C:\Users\Phuong\AppData\Local\Temp\ccYoYbaR.s 			page 122


 5709 035b 536F7572 		.ascii	"Source\\LwIP\\src\\core\\ipv4\\ip4.c\000"
 5709      63655C4C 
 5709      7749505C 
 5709      7372635C 
 5709      636F7265 
 5710              	.LASF5:
 5711 037b 6C6F6E67 		.ascii	"long unsigned int\000"
 5711      20756E73 
 5711      69676E65 
 5711      6420696E 
 5711      7400
 5712              	.LASF32:
 5713 038d 4552525F 		.ascii	"ERR_ALREADY\000"
 5713      414C5245 
 5713      41445900 
 5714              	.LASF21:
 5715 0399 7533325F 		.ascii	"u32_t\000"
 5715      7400
 5716              	.LASF69:
 5717 039f 6E616D65 		.ascii	"name\000"
 5717      00
 5718              	.LASF138:
 5719 03a4 5F63686B 		.ascii	"_chksum\000"
 5719      73756D00 
 5720              	.LASF53:
 5721 03ac 4D454D50 		.ascii	"MEMP_TCP_PCB\000"
 5721      5F544350 
 5721      5F504342 
 5721      00
 5722              	.LASF147:
 5723 03b9 69636D70 		.ascii	"icmp_dur_type\000"
 5723      5F647572 
 5723      5F747970 
 5723      6500
 5724              	.LASF137:
 5725 03c7 5F70726F 		.ascii	"_proto\000"
 5725      746F00
 5726              	.LASF131:
 5727 03ce 69705F68 		.ascii	"ip_hdr\000"
 5727      647200
 5728              	.LASF3:
 5729 03d5 73686F72 		.ascii	"short unsigned int\000"
 5729      7420756E 
 5729      7369676E 
 5729      65642069 
 5729      6E7400
 5730              	.LASF130:
 5731 03e8 6970345F 		.ascii	"ip4_addr_p_t\000"
 5731      61646472 
 5731      5F705F74 
 5731      00
 5732              	.LASF175:
 5733 03f5 6970345F 		.ascii	"ip4_output_if\000"
 5733      6F757470 
 5733      75745F69 
 5733      6600
 5734              	.LASF145:
ARM GAS  C:\Users\Phuong\AppData\Local\Temp\ccYoYbaR.s 			page 123


 5735 0403 63757272 		.ascii	"current_iphdr_src\000"
 5735      656E745F 
 5735      69706864 
 5735      725F7372 
 5735      6300
 5736              	.LASF186:
 5737 0415 70627566 		.ascii	"pbuf_free\000"
 5737      5F667265 
 5737      6500
 5738              	.LASF148:
 5739 041f 49434D50 		.ascii	"ICMP_DUR_NET\000"
 5739      5F445552 
 5739      5F4E4554 
 5739      00
 5740              	.LASF108:
 5741 042c 4E455449 		.ascii	"NETIF_DEL_MAC_FILTER\000"
 5741      465F4445 
 5741      4C5F4D41 
 5741      435F4649 
 5741      4C544552 
 5742              	.LASF156:
 5743 0441 64656661 		.ascii	"default_multicast_netif\000"
 5743      756C745F 
 5743      6D756C74 
 5743      69636173 
 5743      745F6E65 
 5744              	.LASF194:
 5745 0459 7564705F 		.ascii	"udp_input\000"
 5745      696E7075 
 5745      7400
 5746              	.LASF88:
 5747 0463 72785F72 		.ascii	"rx_report\000"
 5747      65706F72 
 5747      7400
 5748              	.LASF177:
 5749 046d 6970345F 		.ascii	"ip4_output\000"
 5749      6F757470 
 5749      757400
 5750              	.LASF203:
 5751 0478 474E5520 		.ascii	"GNU C11 5.4.1 20160609 (release) [ARM/embedded-5-br"
 5751      43313120 
 5751      352E342E 
 5751      31203230 
 5751      31363036 
 5752 04ab 616E6368 		.ascii	"anch revision 237715] -mcpu=cortex-m0plus -mthumb -"
 5752      20726576 
 5752      6973696F 
 5752      6E203233 
 5752      37373135 
 5753 04de 67202D4F 		.ascii	"g -Og -ffunction-sections -ffat-lto-objects\000"
 5753      67202D66 
 5753      66756E63 
 5753      74696F6E 
 5753      2D736563 
 5754              	.LASF171:
 5755 050a 69705F68 		.ascii	"ip_hlen\000"
 5755      6C656E00 
ARM GAS  C:\Users\Phuong\AppData\Local\Temp\ccYoYbaR.s 			page 124


 5756              	.LASF93:
 5757 0512 73746174 		.ascii	"stats_sys\000"
 5757      735F7379 
 5757      7300
 5758              	.LASF107:
 5759 051c 6E657469 		.ascii	"netif_mac_filter_action\000"
 5759      665F6D61 
 5759      635F6669 
 5759      6C746572 
 5759      5F616374 
 5760              	.LASF180:
 5761 0534 69705F61 		.ascii	"ip_addr_any\000"
 5761      6464725F 
 5761      616E7900 
 5762              	.LASF189:
 5763 0540 696E6574 		.ascii	"inet_chksum\000"
 5763      5F63686B 
 5763      73756D00 
 5764              	.LASF111:
 5765 054c 69705F61 		.ascii	"ip_addr\000"
 5765      64647200 
 5766              	.LASF192:
 5767 0554 7261775F 		.ascii	"raw_input\000"
 5767      696E7075 
 5767      7400
 5768              	.LASF114:
 5769 055e 6F757470 		.ascii	"output\000"
 5769      757400
 5770              	.LASF95:
 5771 0565 6D626F78 		.ascii	"mbox\000"
 5771      00
 5772              	.LASF49:
 5773 056a 69705F61 		.ascii	"ip_addr_t\000"
 5773      6464725F 
 5773      7400
 5774              	.LASF179:
 5775 0574 6970345F 		.ascii	"ip4_default_multicast_netif\000"
 5775      64656661 
 5775      756C745F 
 5775      6D756C74 
 5775      69636173 
 5776              	.LASF22:
 5777 0590 6572725F 		.ascii	"err_t\000"
 5777      7400
 5778              	.LASF12:
 5779 0596 73697A65 		.ascii	"sizetype\000"
 5779      74797065 
 5779      00
 5780              	.LASF158:
 5781 059f 6970345F 		.ascii	"ip4_input\000"
 5781      696E7075 
 5781      7400
 5782              	.LASF110:
 5783 05a9 6E657469 		.ascii	"netif\000"
 5783      6600
 5784              	.LASF136:
 5785 05af 5F74746C 		.ascii	"_ttl\000"
ARM GAS  C:\Users\Phuong\AppData\Local\Temp\ccYoYbaR.s 			page 125


 5785      00
 5786              	.LASF205:
 5787 05b4 433A5C55 		.ascii	"C:\\Users\\Phuong\\Documents\\PSoC Creator\\Dec0820"
 5787      73657273 
 5787      5C506875 
 5787      6F6E675C 
 5787      446F6375 
 5788 05e2 31385C69 		.ascii	"18\\iot-sdk-iot-dev\\PSOC6_FreeRTOS+LwIP+MbedTLS_Az"
 5788      6F742D73 
 5788      646B2D69 
 5788      6F742D64 
 5788      65765C50 
 5789 0613 7572652D 		.ascii	"ure-IOT-Hub-Demo\\PSOC6_FreeRTOS+LwIP+MbedTLS_Azure"
 5789      494F542D 
 5789      4875622D 
 5789      44656D6F 
 5789      5C50534F 
 5790 0645 2D494F54 		.ascii	"-IOT-Hub-Demo.cydsn\000"
 5790      2D487562 
 5790      2D44656D 
 5790      6F2E6379 
 5790      64736E00 
 5791              	.LASF123:
 5792 0659 69676D70 		.ascii	"igmp_mac_filter\000"
 5792      5F6D6163 
 5792      5F66696C 
 5792      74657200 
 5793              	.LASF41:
 5794 0669 7061796C 		.ascii	"payload\000"
 5794      6F616400 
 5795              	.LASF193:
 5796 0671 70627566 		.ascii	"pbuf_header\000"
 5796      5F686561 
 5796      64657200 
 5797              	.LASF154:
 5798 067d 7564705F 		.ascii	"udp_hdr\000"
 5798      68647200 
 5799              	.LASF191:
 5800 0685 6970345F 		.ascii	"ip4_reass\000"
 5800      72656173 
 5800      7300
 5801              	.LASF159:
 5802 068f 69706864 		.ascii	"iphdr\000"
 5802      7200
 5803              	.LASF92:
 5804 0695 73746174 		.ascii	"stats_syselem\000"
 5804      735F7379 
 5804      73656C65 
 5804      6D00
 5805              	.LASF182:
 5806 06a3 6E657469 		.ascii	"netif_list\000"
 5806      665F6C69 
 5806      737400
 5807              	.LASF71:
 5808 06ae 75736564 		.ascii	"used\000"
 5808      00
 5809              	.LASF198:
ARM GAS  C:\Users\Phuong\AppData\Local\Temp\ccYoYbaR.s 			page 126


 5810 06b3 70627566 		.ascii	"pbuf_header_force\000"
 5810      5F686561 
 5810      6465725F 
 5810      666F7263 
 5810      6500
 5811              	.LASF96:
 5812 06c5 73746174 		.ascii	"stats_\000"
 5812      735F00
 5813              	.LASF196:
 5814 06cc 69636D70 		.ascii	"icmp_input\000"
 5814      5F696E70 
 5814      757400
 5815              	.LASF124:
 5816 06d7 6E657469 		.ascii	"netif_input_fn\000"
 5816      665F696E 
 5816      7075745F 
 5816      666E00
 5817              	.LASF28:
 5818 06e6 4552525F 		.ascii	"ERR_INPROGRESS\000"
 5818      494E5052 
 5818      4F475245 
 5818      535300
 5819              	.LASF20:
 5820 06f5 7331365F 		.ascii	"s16_t\000"
 5820      7400
 5821              	.LASF80:
 5822 06fb 72746572 		.ascii	"rterr\000"
 5822      7200
 5823              	.LASF139:
 5824 0701 64657374 		.ascii	"dest\000"
 5824      00
 5825              	.LASF29:
 5826 0706 4552525F 		.ascii	"ERR_VAL\000"
 5826      56414C00 
 5827              	.LASF94:
 5828 070e 6D757465 		.ascii	"mutex\000"
 5828      7800
 5829              	.LASF85:
 5830 0714 72785F76 		.ascii	"rx_v1\000"
 5830      3100
 5831              	.LASF39:
 5832 071a 4552525F 		.ascii	"ERR_ARG\000"
 5832      41524700 
 5833              	.LASF185:
 5834 0722 6970345F 		.ascii	"ip4_addr_isbroadcast_u32\000"
 5834      61646472 
 5834      5F697362 
 5834      726F6164 
 5834      63617374 
 5835              	.LASF34:
 5836 073b 4552525F 		.ascii	"ERR_CONN\000"
 5836      434F4E4E 
 5836      00
 5837              	.LASF104:
 5838 0744 4C574950 		.ascii	"LWIP_NETIF_CLIENT_DATA_INDEX_IGMP\000"
 5838      5F4E4554 
 5838      49465F43 
ARM GAS  C:\Users\Phuong\AppData\Local\Temp\ccYoYbaR.s 			page 127


 5838      4C49454E 
 5838      545F4441 
 5839              	.LASF160:
 5840 0766 69706864 		.ascii	"iphdr_hlen\000"
 5840      725F686C 
 5840      656E00
 5841              	.LASF2:
 5842 0771 73686F72 		.ascii	"short int\000"
 5842      7420696E 
 5842      7400
 5843              	.LASF125:
 5844 077b 6E657469 		.ascii	"netif_output_fn\000"
 5844      665F6F75 
 5844      74707574 
 5844      5F666E00 
 5845              	.LASF206:
 5846 078b 6970345F 		.ascii	"ip4_set_default_multicast_netif\000"
 5846      7365745F 
 5846      64656661 
 5846      756C745F 
 5846      6D756C74 
 5847              	.LASF181:
 5848 07ab 6C776970 		.ascii	"lwip_stats\000"
 5848      5F737461 
 5848      747300
 5849              	.LASF116:
 5850 07b6 73746174 		.ascii	"status_callback\000"
 5850      75735F63 
 5850      616C6C62 
 5850      61636B00 
 5851              	.LASF90:
 5852 07c6 74785F6C 		.ascii	"tx_leave\000"
 5852      65617665 
 5852      00
 5853              	.LASF73:
 5854 07cf 73746174 		.ascii	"stats_proto\000"
 5854      735F7072 
 5854      6F746F00 
 5855              	.LASF166:
 5856 07db 70726F74 		.ascii	"proto\000"
 5856      6F00
 5857              	.LASF202:
 5858 07e1 6970345F 		.ascii	"ip4_frag\000"
 5858      66726167 
 5858      00
 5859              	.LASF113:
 5860 07ea 696E7075 		.ascii	"input\000"
 5860      7400
 5861              	.LASF103:
 5862 07f0 4C574950 		.ascii	"LWIP_NETIF_CLIENT_DATA_INDEX_DHCP\000"
 5862      5F4E4554 
 5862      49465F43 
 5862      4C49454E 
 5862      545F4441 
 5863              	.LASF151:
 5864 0812 49434D50 		.ascii	"ICMP_DUR_PORT\000"
 5864      5F445552 
ARM GAS  C:\Users\Phuong\AppData\Local\Temp\ccYoYbaR.s 			page 128


 5864      5F504F52 
 5864      5400
 5865              	.LASF144:
 5866 0820 63757272 		.ascii	"current_ip_header_tot_len\000"
 5866      656E745F 
 5866      69705F68 
 5866      65616465 
 5866      725F746F 
 5867              	.LASF18:
 5868 083a 73385F74 		.ascii	"s8_t\000"
 5868      00
 5869              	.LASF149:
 5870 083f 49434D50 		.ascii	"ICMP_DUR_HOST\000"
 5870      5F445552 
 5870      5F484F53 
 5870      5400
 5871              	.LASF109:
 5872 084d 4E455449 		.ascii	"NETIF_ADD_MAC_FILTER\000"
 5872      465F4144 
 5872      445F4D41 
 5872      435F4649 
 5872      4C544552 
 5873              	.LASF37:
 5874 0862 4552525F 		.ascii	"ERR_RST\000"
 5874      52535400 
 5875              	.LASF14:
 5876 086a 75696E74 		.ascii	"uint32_t\000"
 5876      33325F74 
 5876      00
 5877              	.LASF36:
 5878 0873 4552525F 		.ascii	"ERR_ABRT\000"
 5878      41425254 
 5878      00
 5879              	.LASF163:
 5880 087c 66697273 		.ascii	"first\000"
 5880      7400
 5881              	.LASF11:
 5882 0882 6C6F6E67 		.ascii	"long double\000"
 5882      20646F75 
 5882      626C6500 
 5883              	.LASF13:
 5884 088e 63686172 		.ascii	"char\000"
 5884      00
 5885              	.LASF8:
 5886 0893 756E7369 		.ascii	"unsigned int\000"
 5886      676E6564 
 5886      20696E74 
 5886      00
 5887              	.LASF57:
 5888 08a0 4D454D50 		.ascii	"MEMP_NETBUF\000"
 5888      5F4E4554 
 5888      42554600 
 5889              	.LASF199:
 5890 08ac 69636D70 		.ascii	"icmp_dest_unreach\000"
 5890      5F646573 
 5890      745F756E 
 5890      72656163 
ARM GAS  C:\Users\Phuong\AppData\Local\Temp\ccYoYbaR.s 			page 129


 5890      6800
 5891              	.LASF58:
 5892 08be 4D454D50 		.ascii	"MEMP_NETCONN\000"
 5892      5F4E4554 
 5892      434F4E4E 
 5892      00
 5893              	.LASF86:
 5894 08cb 72785F67 		.ascii	"rx_group\000"
 5894      726F7570 
 5894      00
 5895              	.LASF51:
 5896 08d4 4D454D50 		.ascii	"MEMP_RAW_PCB\000"
 5896      5F524157 
 5896      5F504342 
 5896      00
 5897              	.LASF66:
 5898 08e1 4D454D50 		.ascii	"MEMP_PBUF_POOL\000"
 5898      5F504255 
 5898      465F504F 
 5898      4F4C00
 5899              	.LASF82:
 5900 08f0 6F707465 		.ascii	"opterr\000"
 5900      727200
 5901              	.LASF176:
 5902 08f7 6970345F 		.ascii	"ip4_output_if_src\000"
 5902      6F757470 
 5902      75745F69 
 5902      665F7372 
 5902      6300
 5903              	.LASF143:
 5904 0909 63757272 		.ascii	"current_ip4_header\000"
 5904      656E745F 
 5904      6970345F 
 5904      68656164 
 5904      657200
 5905              	.LASF168:
 5906 091c 6F70746C 		.ascii	"optlen\000"
 5906      656E00
 5907              	.LASF60:
 5908 0923 4D454D50 		.ascii	"MEMP_TCPIP_MSG_INPKT\000"
 5908      5F544350 
 5908      49505F4D 
 5908      53475F49 
 5908      4E504B54 
 5909              	.LASF118:
 5910 0938 636C6965 		.ascii	"client_data\000"
 5910      6E745F64 
 5910      61746100 
 5911              	.LASF1:
 5912 0944 756E7369 		.ascii	"unsigned char\000"
 5912      676E6564 
 5912      20636861 
 5912      7200
 5913              	.LASF98:
 5914 0952 65746861 		.ascii	"etharp\000"
 5914      727000
 5915              	.LASF38:
ARM GAS  C:\Users\Phuong\AppData\Local\Temp\ccYoYbaR.s 			page 130


 5916 0959 4552525F 		.ascii	"ERR_CLSD\000"
 5916      434C5344 
 5916      00
 5917              	.LASF27:
 5918 0962 4552525F 		.ascii	"ERR_RTE\000"
 5918      52544500 
 5919              	.LASF48:
 5920 096a 6970345F 		.ascii	"ip4_addr_t\000"
 5920      61646472 
 5920      5F7400
 5921              	.LASF165:
 5922 0975 6970345F 		.ascii	"ip4_output_if_opt_src\000"
 5922      6F757470 
 5922      75745F69 
 5922      665F6F70 
 5922      745F7372 
 5923              	.LASF19:
 5924 098b 7531365F 		.ascii	"u16_t\000"
 5924      7400
 5925              	.LASF25:
 5926 0991 4552525F 		.ascii	"ERR_BUF\000"
 5926      42554600 
 5927              	.LASF50:
 5928 0999 6D656D5F 		.ascii	"mem_size_t\000"
 5928      73697A65 
 5928      5F7400
 5929              	.LASF169:
 5930 09a4 64657374 		.ascii	"dest_addr\000"
 5930      5F616464 
 5930      7200
 5931              	.LASF201:
 5932 09ae 6D656D73 		.ascii	"memset\000"
 5932      657400
 5933              	.LASF33:
 5934 09b5 4552525F 		.ascii	"ERR_ISCONN\000"
 5934      4953434F 
 5934      4E4E00
 5935              	.LASF133:
 5936 09c0 5F746F73 		.ascii	"_tos\000"
 5936      00
 5937              	.LASF132:
 5938 09c5 5F765F68 		.ascii	"_v_hl\000"
 5938      6C00
 5939              	.LASF76:
 5940 09cb 64726F70 		.ascii	"drop\000"
 5940      00
 5941              	.LASF68:
 5942 09d0 73746174 		.ascii	"stats_mem\000"
 5942      735F6D65 
 5942      6D00
 5943              	.LASF87:
 5944 09da 72785F67 		.ascii	"rx_general\000"
 5944      656E6572 
 5944      616C00
 5945              	.LASF150:
 5946 09e5 49434D50 		.ascii	"ICMP_DUR_PROTO\000"
 5946      5F445552 
ARM GAS  C:\Users\Phuong\AppData\Local\Temp\ccYoYbaR.s 			page 131


 5946      5F50524F 
 5946      544F00
 5947              	.LASF44:
 5948 09f4 666C6167 		.ascii	"flags\000"
 5948      7300
 5949              	.LASF15:
 5950 09fa 666C6F61 		.ascii	"float\000"
 5950      7400
 5951              	.LASF70:
 5952 0a00 61766169 		.ascii	"avail\000"
 5952      6C00
 5953              	.LASF188:
 5954 0a06 70627566 		.ascii	"pbuf_realloc\000"
 5954      5F726561 
 5954      6C6C6F63 
 5954      00
 5955              	.LASF140:
 5956 0a13 69705F67 		.ascii	"ip_globals\000"
 5956      6C6F6261 
 5956      6C7300
 5957              	.LASF30:
 5958 0a1e 4552525F 		.ascii	"ERR_WOULDBLOCK\000"
 5958      574F554C 
 5958      44424C4F 
 5958      434B00
 5959              	.LASF155:
 5960 0a2d 63686B73 		.ascii	"chksum\000"
 5960      756D00
 5961              	.LASF91:
 5962 0a34 74785F72 		.ascii	"tx_report\000"
 5962      65706F72 
 5962      7400
 5963              	.LASF178:
 5964 0a3e 69705F69 		.ascii	"ip_id\000"
 5964      6400
 5965              	.LASF115:
 5966 0a44 6C696E6B 		.ascii	"linkoutput\000"
 5966      6F757470 
 5966      757400
 5967              	.LASF101:
 5968 0a4f 69676D70 		.ascii	"igmp\000"
 5968      00
 5969              	.LASF174:
 5970 0a54 7372635F 		.ascii	"src_used\000"
 5970      75736564 
 5970      00
 5971              	.LASF65:
 5972 0a5d 4D454D50 		.ascii	"MEMP_PBUF\000"
 5972      5F504255 
 5972      4600
 5973              	.LASF24:
 5974 0a67 4552525F 		.ascii	"ERR_MEM\000"
 5974      4D454D00 
 5975              	.LASF74:
 5976 0a6f 786D6974 		.ascii	"xmit\000"
 5976      00
 5977              	.LASF157:
ARM GAS  C:\Users\Phuong\AppData\Local\Temp\ccYoYbaR.s 			page 132


 5978 0a74 6970345F 		.ascii	"ip4_route\000"
 5978      726F7574 
 5978      6500
 5979              	.LASF184:
 5980 0a7e 69705F64 		.ascii	"ip_data\000"
 5980      61746100 
 5981              	.LASF134:
 5982 0a86 5F6C656E 		.ascii	"_len\000"
 5982      00
 5983              		.ident	"GCC: (GNU Tools for ARM Embedded Processors) 5.4.1 20160609 (release) [ARM/embedded-5-bran
