ARM GAS  C:\Users\Phuong\AppData\Local\Temp\ccsuu5eh.s 			page 1


   1              		.syntax unified
   2              		.cpu cortex-m0plus
   3              		.fpu softvfp
   4              		.eabi_attribute 20, 1
   5              		.eabi_attribute 21, 1
   6              		.eabi_attribute 23, 3
   7              		.eabi_attribute 24, 1
   8              		.eabi_attribute 25, 1
   9              		.eabi_attribute 26, 1
  10              		.eabi_attribute 30, 1
  11              		.eabi_attribute 34, 0
  12              		.eabi_attribute 18, 4
  13              		.thumb
  14              		.syntax unified
  15              		.file	"ip4_addr.c"
  16              		.text
  17              	.Ltext0:
  18              		.cfi_sections	.debug_frame
  19              		.section	.text.ip4_addr_isbroadcast_u32,"ax",%progbits
  20              		.align	2
  21              		.global	ip4_addr_isbroadcast_u32
  22              		.code	16
  23              		.thumb_func
  24              		.type	ip4_addr_isbroadcast_u32, %function
  25              	ip4_addr_isbroadcast_u32:
  26              	.LFB53:
  27              		.file 1 "Source\\LwIP\\src\\core\\ipv4\\ip4_addr.c"
   1:Source\LwIP\src\core\ipv4/ip4_addr.c **** /**
   2:Source\LwIP\src\core\ipv4/ip4_addr.c ****  * @file
   3:Source\LwIP\src\core\ipv4/ip4_addr.c ****  * This is the IPv4 address tools implementation.
   4:Source\LwIP\src\core\ipv4/ip4_addr.c ****  *
   5:Source\LwIP\src\core\ipv4/ip4_addr.c ****  */
   6:Source\LwIP\src\core\ipv4/ip4_addr.c **** 
   7:Source\LwIP\src\core\ipv4/ip4_addr.c **** /*
   8:Source\LwIP\src\core\ipv4/ip4_addr.c ****  * Copyright (c) 2001-2004 Swedish Institute of Computer Science.
   9:Source\LwIP\src\core\ipv4/ip4_addr.c ****  * All rights reserved.
  10:Source\LwIP\src\core\ipv4/ip4_addr.c ****  *
  11:Source\LwIP\src\core\ipv4/ip4_addr.c ****  * Redistribution and use in source and binary forms, with or without modification,
  12:Source\LwIP\src\core\ipv4/ip4_addr.c ****  * are permitted provided that the following conditions are met:
  13:Source\LwIP\src\core\ipv4/ip4_addr.c ****  *
  14:Source\LwIP\src\core\ipv4/ip4_addr.c ****  * 1. Redistributions of source code must retain the above copyright notice,
  15:Source\LwIP\src\core\ipv4/ip4_addr.c ****  *    this list of conditions and the following disclaimer.
  16:Source\LwIP\src\core\ipv4/ip4_addr.c ****  * 2. Redistributions in binary form must reproduce the above copyright notice,
  17:Source\LwIP\src\core\ipv4/ip4_addr.c ****  *    this list of conditions and the following disclaimer in the documentation
  18:Source\LwIP\src\core\ipv4/ip4_addr.c ****  *    and/or other materials provided with the distribution.
  19:Source\LwIP\src\core\ipv4/ip4_addr.c ****  * 3. The name of the author may not be used to endorse or promote products
  20:Source\LwIP\src\core\ipv4/ip4_addr.c ****  *    derived from this software without specific prior written permission.
  21:Source\LwIP\src\core\ipv4/ip4_addr.c ****  *
  22:Source\LwIP\src\core\ipv4/ip4_addr.c ****  * THIS SOFTWARE IS PROVIDED BY THE AUTHOR ``AS IS'' AND ANY EXPRESS OR IMPLIED
  23:Source\LwIP\src\core\ipv4/ip4_addr.c ****  * WARRANTIES, INCLUDING, BUT NOT LIMITED TO, THE IMPLIED WARRANTIES OF
  24:Source\LwIP\src\core\ipv4/ip4_addr.c ****  * MERCHANTABILITY AND FITNESS FOR A PARTICULAR PURPOSE ARE DISCLAIMED. IN NO EVENT
  25:Source\LwIP\src\core\ipv4/ip4_addr.c ****  * SHALL THE AUTHOR BE LIABLE FOR ANY DIRECT, INDIRECT, INCIDENTAL, SPECIAL,
  26:Source\LwIP\src\core\ipv4/ip4_addr.c ****  * EXEMPLARY, OR CONSEQUENTIAL DAMAGES (INCLUDING, BUT NOT LIMITED TO, PROCUREMENT
  27:Source\LwIP\src\core\ipv4/ip4_addr.c ****  * OF SUBSTITUTE GOODS OR SERVICES; LOSS OF USE, DATA, OR PROFITS; OR BUSINESS
  28:Source\LwIP\src\core\ipv4/ip4_addr.c ****  * INTERRUPTION) HOWEVER CAUSED AND ON ANY THEORY OF LIABILITY, WHETHER IN
  29:Source\LwIP\src\core\ipv4/ip4_addr.c ****  * CONTRACT, STRICT LIABILITY, OR TORT (INCLUDING NEGLIGENCE OR OTHERWISE) ARISING
  30:Source\LwIP\src\core\ipv4/ip4_addr.c ****  * IN ANY WAY OUT OF THE USE OF THIS SOFTWARE, EVEN IF ADVISED OF THE POSSIBILITY
ARM GAS  C:\Users\Phuong\AppData\Local\Temp\ccsuu5eh.s 			page 2


  31:Source\LwIP\src\core\ipv4/ip4_addr.c ****  * OF SUCH DAMAGE.
  32:Source\LwIP\src\core\ipv4/ip4_addr.c ****  *
  33:Source\LwIP\src\core\ipv4/ip4_addr.c ****  * This file is part of the lwIP TCP/IP stack.
  34:Source\LwIP\src\core\ipv4/ip4_addr.c ****  *
  35:Source\LwIP\src\core\ipv4/ip4_addr.c ****  * Author: Adam Dunkels <adam@sics.se>
  36:Source\LwIP\src\core\ipv4/ip4_addr.c ****  *
  37:Source\LwIP\src\core\ipv4/ip4_addr.c ****  */
  38:Source\LwIP\src\core\ipv4/ip4_addr.c **** 
  39:Source\LwIP\src\core\ipv4/ip4_addr.c **** #include "lwip/opt.h"
  40:Source\LwIP\src\core\ipv4/ip4_addr.c **** 
  41:Source\LwIP\src\core\ipv4/ip4_addr.c **** #if LWIP_IPV4
  42:Source\LwIP\src\core\ipv4/ip4_addr.c **** 
  43:Source\LwIP\src\core\ipv4/ip4_addr.c **** #include "lwip/ip_addr.h"
  44:Source\LwIP\src\core\ipv4/ip4_addr.c **** #include "lwip/netif.h"
  45:Source\LwIP\src\core\ipv4/ip4_addr.c **** 
  46:Source\LwIP\src\core\ipv4/ip4_addr.c **** /* used by IP4_ADDR_ANY and IP_ADDR_BROADCAST in ip_addr.h */
  47:Source\LwIP\src\core\ipv4/ip4_addr.c **** const ip_addr_t ip_addr_any = IPADDR4_INIT(IPADDR_ANY);
  48:Source\LwIP\src\core\ipv4/ip4_addr.c **** const ip_addr_t ip_addr_broadcast = IPADDR4_INIT(IPADDR_BROADCAST);
  49:Source\LwIP\src\core\ipv4/ip4_addr.c **** 
  50:Source\LwIP\src\core\ipv4/ip4_addr.c **** /**
  51:Source\LwIP\src\core\ipv4/ip4_addr.c ****  * Determine if an address is a broadcast address on a network interface
  52:Source\LwIP\src\core\ipv4/ip4_addr.c ****  *
  53:Source\LwIP\src\core\ipv4/ip4_addr.c ****  * @param addr address to be checked
  54:Source\LwIP\src\core\ipv4/ip4_addr.c ****  * @param netif the network interface against which the address is checked
  55:Source\LwIP\src\core\ipv4/ip4_addr.c ****  * @return returns non-zero if the address is a broadcast address
  56:Source\LwIP\src\core\ipv4/ip4_addr.c ****  */
  57:Source\LwIP\src\core\ipv4/ip4_addr.c **** u8_t
  58:Source\LwIP\src\core\ipv4/ip4_addr.c **** ip4_addr_isbroadcast_u32(u32_t addr, const struct netif *netif)
  59:Source\LwIP\src\core\ipv4/ip4_addr.c **** {
  28              		.loc 1 59 0
  29              		.cfi_startproc
  30              		@ args = 0, pretend = 0, frame = 0
  31              		@ frame_needed = 0, uses_anonymous_args = 0
  32              		@ link register save eliminated.
  33              	.LVL0:
  34 0000 0200     		movs	r2, r0
  60:Source\LwIP\src\core\ipv4/ip4_addr.c ****   ip4_addr_t ipaddr;
  61:Source\LwIP\src\core\ipv4/ip4_addr.c ****   ip4_addr_set_u32(&ipaddr, addr);
  62:Source\LwIP\src\core\ipv4/ip4_addr.c **** 
  63:Source\LwIP\src\core\ipv4/ip4_addr.c ****   /* all ones (broadcast) or all zeroes (old skool broadcast) */
  64:Source\LwIP\src\core\ipv4/ip4_addr.c ****   if ((~addr == IPADDR_ANY) ||
  35              		.loc 1 64 0
  36 0002 431E     		subs	r3, r0, #1
  37 0004 0333     		adds	r3, r3, #3
  38 0006 11D8     		bhi	.L3
  65:Source\LwIP\src\core\ipv4/ip4_addr.c ****       (addr == IPADDR_ANY)) {
  66:Source\LwIP\src\core\ipv4/ip4_addr.c ****     return 1;
  67:Source\LwIP\src\core\ipv4/ip4_addr.c ****   /* no broadcast support on this network interface? */
  68:Source\LwIP\src\core\ipv4/ip4_addr.c ****   } else if ((netif->flags & NETIF_FLAG_BROADCAST) == 0) {
  39              		.loc 1 68 0
  40 0008 3D23     		movs	r3, #61
  41 000a CB5C     		ldrb	r3, [r1, r3]
  42 000c 0220     		movs	r0, #2
  43              	.LVL1:
  44 000e 1840     		ands	r0, r3
  45 0010 13D0     		beq	.L2
  69:Source\LwIP\src\core\ipv4/ip4_addr.c ****     /* the given address cannot be a broadcast address
ARM GAS  C:\Users\Phuong\AppData\Local\Temp\ccsuu5eh.s 			page 3


  70:Source\LwIP\src\core\ipv4/ip4_addr.c ****      * nor can we check against any broadcast addresses */
  71:Source\LwIP\src\core\ipv4/ip4_addr.c ****     return 0;
  72:Source\LwIP\src\core\ipv4/ip4_addr.c ****   /* address matches network interface address exactly? => no broadcast */
  73:Source\LwIP\src\core\ipv4/ip4_addr.c ****   } else if (addr == ip4_addr_get_u32(netif_ip4_addr(netif))) {
  46              		.loc 1 73 0
  47 0012 4B68     		ldr	r3, [r1, #4]
  48 0014 9A42     		cmp	r2, r3
  49 0016 0BD0     		beq	.L4
  74:Source\LwIP\src\core\ipv4/ip4_addr.c ****     return 0;
  75:Source\LwIP\src\core\ipv4/ip4_addr.c ****   /*  on the same (sub) network... */
  76:Source\LwIP\src\core\ipv4/ip4_addr.c ****   } else if (ip4_addr_netcmp(&ipaddr, netif_ip4_addr(netif), netif_ip4_netmask(netif))
  50              		.loc 1 76 0
  51 0018 8968     		ldr	r1, [r1, #8]
  52              	.LVL2:
  53 001a 5340     		eors	r3, r2
  54 001c 1942     		tst	r1, r3
  55 001e 09D1     		bne	.L5
  77:Source\LwIP\src\core\ipv4/ip4_addr.c ****          /* ...and host identifier bits are all ones? =>... */
  78:Source\LwIP\src\core\ipv4/ip4_addr.c ****           && ((addr & ~ip4_addr_get_u32(netif_ip4_netmask(netif))) ==
  56              		.loc 1 78 0
  57 0020 C943     		mvns	r1, r1
  58 0022 0A40     		ands	r2, r1
  59              	.LVL3:
  60 0024 9142     		cmp	r1, r2
  61 0026 07D0     		beq	.L6
  79:Source\LwIP\src\core\ipv4/ip4_addr.c ****            (IPADDR_BROADCAST & ~ip4_addr_get_u32(netif_ip4_netmask(netif))))) {
  80:Source\LwIP\src\core\ipv4/ip4_addr.c ****     /* => network broadcast address */
  81:Source\LwIP\src\core\ipv4/ip4_addr.c ****     return 1;
  82:Source\LwIP\src\core\ipv4/ip4_addr.c ****   } else {
  83:Source\LwIP\src\core\ipv4/ip4_addr.c ****     return 0;
  62              		.loc 1 83 0
  63 0028 0020     		movs	r0, #0
  64 002a 06E0     		b	.L2
  65              	.LVL4:
  66              	.L3:
  66:Source\LwIP\src\core\ipv4/ip4_addr.c ****   /* no broadcast support on this network interface? */
  67              		.loc 1 66 0
  68 002c 0120     		movs	r0, #1
  69              	.LVL5:
  70 002e 04E0     		b	.L2
  71              	.L4:
  74:Source\LwIP\src\core\ipv4/ip4_addr.c ****   /*  on the same (sub) network... */
  72              		.loc 1 74 0
  73 0030 0020     		movs	r0, #0
  74 0032 02E0     		b	.L2
  75              	.LVL6:
  76              	.L5:
  77              		.loc 1 83 0
  78 0034 0020     		movs	r0, #0
  79 0036 00E0     		b	.L2
  80              	.LVL7:
  81              	.L6:
  81:Source\LwIP\src\core\ipv4/ip4_addr.c ****   } else {
  82              		.loc 1 81 0
  83 0038 0120     		movs	r0, #1
  84              	.L2:
  84:Source\LwIP\src\core\ipv4/ip4_addr.c ****   }
ARM GAS  C:\Users\Phuong\AppData\Local\Temp\ccsuu5eh.s 			page 4


  85:Source\LwIP\src\core\ipv4/ip4_addr.c **** }
  85              		.loc 1 85 0
  86              		@ sp needed
  87 003a 7047     		bx	lr
  88              		.cfi_endproc
  89              	.LFE53:
  90              		.size	ip4_addr_isbroadcast_u32, .-ip4_addr_isbroadcast_u32
  91              		.section	.text.ip4_addr_netmask_valid,"ax",%progbits
  92              		.align	2
  93              		.global	ip4_addr_netmask_valid
  94              		.code	16
  95              		.thumb_func
  96              		.type	ip4_addr_netmask_valid, %function
  97              	ip4_addr_netmask_valid:
  98              	.LFB54:
  86:Source\LwIP\src\core\ipv4/ip4_addr.c **** 
  87:Source\LwIP\src\core\ipv4/ip4_addr.c **** /** Checks if a netmask is valid (starting with ones, then only zeros)
  88:Source\LwIP\src\core\ipv4/ip4_addr.c ****  *
  89:Source\LwIP\src\core\ipv4/ip4_addr.c ****  * @param netmask the IPv4 netmask to check (in network byte order!)
  90:Source\LwIP\src\core\ipv4/ip4_addr.c ****  * @return 1 if the netmask is valid, 0 if it is not
  91:Source\LwIP\src\core\ipv4/ip4_addr.c ****  */
  92:Source\LwIP\src\core\ipv4/ip4_addr.c **** u8_t
  93:Source\LwIP\src\core\ipv4/ip4_addr.c **** ip4_addr_netmask_valid(u32_t netmask)
  94:Source\LwIP\src\core\ipv4/ip4_addr.c **** {
  99              		.loc 1 94 0
 100              		.cfi_startproc
 101              		@ args = 0, pretend = 0, frame = 0
 102              		@ frame_needed = 0, uses_anonymous_args = 0
 103              	.LVL8:
 104 0000 10B5     		push	{r4, lr}
 105              		.cfi_def_cfa_offset 8
 106              		.cfi_offset 4, -8
 107              		.cfi_offset 14, -4
  95:Source\LwIP\src\core\ipv4/ip4_addr.c ****   u32_t mask;
  96:Source\LwIP\src\core\ipv4/ip4_addr.c ****   u32_t nm_hostorder = lwip_htonl(netmask);
 108              		.loc 1 96 0
 109 0002 FFF7FEFF 		bl	lwip_htonl
 110              	.LVL9:
  97:Source\LwIP\src\core\ipv4/ip4_addr.c **** 
  98:Source\LwIP\src\core\ipv4/ip4_addr.c ****   /* first, check for the first zero */
  99:Source\LwIP\src\core\ipv4/ip4_addr.c ****   for (mask = 1UL << 31 ; mask != 0; mask >>= 1) {
 111              		.loc 1 99 0
 112 0006 8023     		movs	r3, #128
 113 0008 1B06     		lsls	r3, r3, #24
 114 000a 02E0     		b	.L8
 115              	.LVL10:
 116              	.L10:
 100:Source\LwIP\src\core\ipv4/ip4_addr.c ****     if ((nm_hostorder & mask) == 0) {
 117              		.loc 1 100 0
 118 000c 1842     		tst	r0, r3
 119 000e 06D0     		beq	.L9
  99:Source\LwIP\src\core\ipv4/ip4_addr.c ****     if ((nm_hostorder & mask) == 0) {
 120              		.loc 1 99 0 discriminator 2
 121 0010 5B08     		lsrs	r3, r3, #1
 122              	.LVL11:
 123              	.L8:
  99:Source\LwIP\src\core\ipv4/ip4_addr.c ****     if ((nm_hostorder & mask) == 0) {
ARM GAS  C:\Users\Phuong\AppData\Local\Temp\ccsuu5eh.s 			page 5


 124              		.loc 1 99 0 is_stmt 0 discriminator 1
 125 0012 002B     		cmp	r3, #0
 126 0014 FAD1     		bne	.L10
 127 0016 02E0     		b	.L9
 128              	.L12:
 101:Source\LwIP\src\core\ipv4/ip4_addr.c ****       break;
 102:Source\LwIP\src\core\ipv4/ip4_addr.c ****     }
 103:Source\LwIP\src\core\ipv4/ip4_addr.c ****   }
 104:Source\LwIP\src\core\ipv4/ip4_addr.c ****   /* then check that there is no one */
 105:Source\LwIP\src\core\ipv4/ip4_addr.c ****   for (; mask != 0; mask >>= 1) {
 106:Source\LwIP\src\core\ipv4/ip4_addr.c ****     if ((nm_hostorder & mask) != 0) {
 129              		.loc 1 106 0 is_stmt 1
 130 0018 1842     		tst	r0, r3
 131 001a 04D1     		bne	.L13
 105:Source\LwIP\src\core\ipv4/ip4_addr.c ****     if ((nm_hostorder & mask) != 0) {
 132              		.loc 1 105 0
 133 001c 5B08     		lsrs	r3, r3, #1
 134              	.LVL12:
 135              	.L9:
 105:Source\LwIP\src\core\ipv4/ip4_addr.c ****     if ((nm_hostorder & mask) != 0) {
 136              		.loc 1 105 0 is_stmt 0 discriminator 1
 137 001e 002B     		cmp	r3, #0
 138 0020 FAD1     		bne	.L12
 107:Source\LwIP\src\core\ipv4/ip4_addr.c ****       /* there is a one after the first zero -> invalid */
 108:Source\LwIP\src\core\ipv4/ip4_addr.c ****       return 0;
 109:Source\LwIP\src\core\ipv4/ip4_addr.c ****     }
 110:Source\LwIP\src\core\ipv4/ip4_addr.c ****   }
 111:Source\LwIP\src\core\ipv4/ip4_addr.c ****   /* no one after the first zero -> valid */
 112:Source\LwIP\src\core\ipv4/ip4_addr.c ****   return 1;
 139              		.loc 1 112 0 is_stmt 1
 140 0022 0120     		movs	r0, #1
 141              	.LVL13:
 142 0024 00E0     		b	.L11
 143              	.LVL14:
 144              	.L13:
 108:Source\LwIP\src\core\ipv4/ip4_addr.c ****     }
 145              		.loc 1 108 0
 146 0026 0020     		movs	r0, #0
 147              	.LVL15:
 148              	.L11:
 113:Source\LwIP\src\core\ipv4/ip4_addr.c **** }
 149              		.loc 1 113 0
 150              		@ sp needed
 151 0028 10BD     		pop	{r4, pc}
 152              		.cfi_endproc
 153              	.LFE54:
 154              		.size	ip4_addr_netmask_valid, .-ip4_addr_netmask_valid
 155 002a C046     		.section	.text.ip4addr_aton,"ax",%progbits
 156              		.align	2
 157              		.global	ip4addr_aton
 158              		.code	16
 159              		.thumb_func
 160              		.type	ip4addr_aton, %function
 161              	ip4addr_aton:
 162              	.LFB56:
 114:Source\LwIP\src\core\ipv4/ip4_addr.c **** 
 115:Source\LwIP\src\core\ipv4/ip4_addr.c **** /* Here for now until needed in other places in lwIP */
ARM GAS  C:\Users\Phuong\AppData\Local\Temp\ccsuu5eh.s 			page 6


 116:Source\LwIP\src\core\ipv4/ip4_addr.c **** #ifndef isprint
 117:Source\LwIP\src\core\ipv4/ip4_addr.c **** #define in_range(c, lo, up)  ((u8_t)c >= lo && (u8_t)c <= up)
 118:Source\LwIP\src\core\ipv4/ip4_addr.c **** #define isprint(c)           in_range(c, 0x20, 0x7f)
 119:Source\LwIP\src\core\ipv4/ip4_addr.c **** #define isdigit(c)           in_range(c, '0', '9')
 120:Source\LwIP\src\core\ipv4/ip4_addr.c **** #define isxdigit(c)          (isdigit(c) || in_range(c, 'a', 'f') || in_range(c, 'A', 'F'))
 121:Source\LwIP\src\core\ipv4/ip4_addr.c **** #define islower(c)           in_range(c, 'a', 'z')
 122:Source\LwIP\src\core\ipv4/ip4_addr.c **** #define isspace(c)           (c == ' ' || c == '\f' || c == '\n' || c == '\r' || c == '\t' || c == 
 123:Source\LwIP\src\core\ipv4/ip4_addr.c **** #endif
 124:Source\LwIP\src\core\ipv4/ip4_addr.c **** 
 125:Source\LwIP\src\core\ipv4/ip4_addr.c **** /**
 126:Source\LwIP\src\core\ipv4/ip4_addr.c ****  * Ascii internet address interpretation routine.
 127:Source\LwIP\src\core\ipv4/ip4_addr.c ****  * The value returned is in network order.
 128:Source\LwIP\src\core\ipv4/ip4_addr.c ****  *
 129:Source\LwIP\src\core\ipv4/ip4_addr.c ****  * @param cp IP address in ascii representation (e.g. "127.0.0.1")
 130:Source\LwIP\src\core\ipv4/ip4_addr.c ****  * @return ip address in network order
 131:Source\LwIP\src\core\ipv4/ip4_addr.c ****  */
 132:Source\LwIP\src\core\ipv4/ip4_addr.c **** u32_t
 133:Source\LwIP\src\core\ipv4/ip4_addr.c **** ipaddr_addr(const char *cp)
 134:Source\LwIP\src\core\ipv4/ip4_addr.c **** {
 135:Source\LwIP\src\core\ipv4/ip4_addr.c ****   ip4_addr_t val;
 136:Source\LwIP\src\core\ipv4/ip4_addr.c **** 
 137:Source\LwIP\src\core\ipv4/ip4_addr.c ****   if (ip4addr_aton(cp, &val)) {
 138:Source\LwIP\src\core\ipv4/ip4_addr.c ****     return ip4_addr_get_u32(&val);
 139:Source\LwIP\src\core\ipv4/ip4_addr.c ****   }
 140:Source\LwIP\src\core\ipv4/ip4_addr.c ****   return (IPADDR_NONE);
 141:Source\LwIP\src\core\ipv4/ip4_addr.c **** }
 142:Source\LwIP\src\core\ipv4/ip4_addr.c **** 
 143:Source\LwIP\src\core\ipv4/ip4_addr.c **** /**
 144:Source\LwIP\src\core\ipv4/ip4_addr.c ****  * Check whether "cp" is a valid ascii representation
 145:Source\LwIP\src\core\ipv4/ip4_addr.c ****  * of an Internet address and convert to a binary address.
 146:Source\LwIP\src\core\ipv4/ip4_addr.c ****  * Returns 1 if the address is valid, 0 if not.
 147:Source\LwIP\src\core\ipv4/ip4_addr.c ****  * This replaces inet_addr, the return value from which
 148:Source\LwIP\src\core\ipv4/ip4_addr.c ****  * cannot distinguish between failure and a local broadcast address.
 149:Source\LwIP\src\core\ipv4/ip4_addr.c ****  *
 150:Source\LwIP\src\core\ipv4/ip4_addr.c ****  * @param cp IP address in ascii representation (e.g. "127.0.0.1")
 151:Source\LwIP\src\core\ipv4/ip4_addr.c ****  * @param addr pointer to which to save the ip address in network order
 152:Source\LwIP\src\core\ipv4/ip4_addr.c ****  * @return 1 if cp could be converted to addr, 0 on failure
 153:Source\LwIP\src\core\ipv4/ip4_addr.c ****  */
 154:Source\LwIP\src\core\ipv4/ip4_addr.c **** int
 155:Source\LwIP\src\core\ipv4/ip4_addr.c **** ip4addr_aton(const char *cp, ip4_addr_t *addr)
 156:Source\LwIP\src\core\ipv4/ip4_addr.c **** {
 163              		.loc 1 156 0
 164              		.cfi_startproc
 165              		@ args = 0, pretend = 0, frame = 16
 166              		@ frame_needed = 0, uses_anonymous_args = 0
 167              	.LVL16:
 168 0000 F0B5     		push	{r4, r5, r6, r7, lr}
 169              		.cfi_def_cfa_offset 20
 170              		.cfi_offset 4, -20
 171              		.cfi_offset 5, -16
 172              		.cfi_offset 6, -12
 173              		.cfi_offset 7, -8
 174              		.cfi_offset 14, -4
 175 0002 85B0     		sub	sp, sp, #20
 176              		.cfi_def_cfa_offset 40
 177 0004 0500     		movs	r5, r0
 178 0006 0C00     		movs	r4, r1
ARM GAS  C:\Users\Phuong\AppData\Local\Temp\ccsuu5eh.s 			page 7


 179              	.LVL17:
 157:Source\LwIP\src\core\ipv4/ip4_addr.c ****   u32_t val;
 158:Source\LwIP\src\core\ipv4/ip4_addr.c ****   u8_t base;
 159:Source\LwIP\src\core\ipv4/ip4_addr.c ****   char c;
 160:Source\LwIP\src\core\ipv4/ip4_addr.c ****   u32_t parts[4];
 161:Source\LwIP\src\core\ipv4/ip4_addr.c ****   u32_t *pp = parts;
 162:Source\LwIP\src\core\ipv4/ip4_addr.c **** 
 163:Source\LwIP\src\core\ipv4/ip4_addr.c ****   c = *cp;
 180              		.loc 1 163 0
 181 0008 0378     		ldrb	r3, [r0]
 182              	.LVL18:
 161:Source\LwIP\src\core\ipv4/ip4_addr.c **** 
 183              		.loc 1 161 0
 184 000a 6F46     		mov	r7, sp
 185              	.LVL19:
 186              	.L25:
 164:Source\LwIP\src\core\ipv4/ip4_addr.c ****   for (;;) {
 165:Source\LwIP\src\core\ipv4/ip4_addr.c ****     /*
 166:Source\LwIP\src\core\ipv4/ip4_addr.c ****      * Collect number up to ``.''.
 167:Source\LwIP\src\core\ipv4/ip4_addr.c ****      * Values are specified as for C:
 168:Source\LwIP\src\core\ipv4/ip4_addr.c ****      * 0x=hex, 0=octal, 1-9=decimal.
 169:Source\LwIP\src\core\ipv4/ip4_addr.c ****      */
 170:Source\LwIP\src\core\ipv4/ip4_addr.c ****     if (!isdigit(c)) {
 187              		.loc 1 170 0
 188 000c 1A00     		movs	r2, r3
 189 000e 303A     		subs	r2, r2, #48
 190 0010 D2B2     		uxtb	r2, r2
 191 0012 092A     		cmp	r2, #9
 192 0014 00D9     		bls	.LCB169
 193 0016 8FE0     		b	.L32	@long jump
 194              	.LCB169:
 195              	.LVL20:
 171:Source\LwIP\src\core\ipv4/ip4_addr.c ****       return 0;
 172:Source\LwIP\src\core\ipv4/ip4_addr.c ****     }
 173:Source\LwIP\src\core\ipv4/ip4_addr.c ****     val = 0;
 174:Source\LwIP\src\core\ipv4/ip4_addr.c ****     base = 10;
 175:Source\LwIP\src\core\ipv4/ip4_addr.c ****     if (c == '0') {
 196              		.loc 1 175 0
 197 0018 302B     		cmp	r3, #48
 198 001a 09D1     		bne	.L33
 176:Source\LwIP\src\core\ipv4/ip4_addr.c ****       c = *++cp;
 199              		.loc 1 176 0
 200 001c 6A1C     		adds	r2, r5, #1
 201              	.LVL21:
 202 001e 6B78     		ldrb	r3, [r5, #1]
 203              	.LVL22:
 177:Source\LwIP\src\core\ipv4/ip4_addr.c ****       if (c == 'x' || c == 'X') {
 204              		.loc 1 177 0
 205 0020 782B     		cmp	r3, #120
 206 0022 01D0     		beq	.L17
 207              		.loc 1 177 0 is_stmt 0 discriminator 1
 208 0024 582B     		cmp	r3, #88
 209 0026 05D1     		bne	.L34
 210              	.L17:
 211              	.LVL23:
 178:Source\LwIP\src\core\ipv4/ip4_addr.c ****         base = 16;
 179:Source\LwIP\src\core\ipv4/ip4_addr.c ****         c = *++cp;
ARM GAS  C:\Users\Phuong\AppData\Local\Temp\ccsuu5eh.s 			page 8


 212              		.loc 1 179 0 is_stmt 1
 213 0028 AB78     		ldrb	r3, [r5, #2]
 214              	.LVL24:
 215 002a 0235     		adds	r5, r5, #2
 216              	.LVL25:
 178:Source\LwIP\src\core\ipv4/ip4_addr.c ****         base = 16;
 217              		.loc 1 178 0
 218 002c 1026     		movs	r6, #16
 219              		.loc 1 179 0
 220 002e 03E0     		b	.L16
 221              	.LVL26:
 222              	.L33:
 174:Source\LwIP\src\core\ipv4/ip4_addr.c ****     if (c == '0') {
 223              		.loc 1 174 0
 224 0030 0A26     		movs	r6, #10
 225 0032 01E0     		b	.L16
 226              	.LVL27:
 227              	.L34:
 176:Source\LwIP\src\core\ipv4/ip4_addr.c ****       if (c == 'x' || c == 'X') {
 228              		.loc 1 176 0
 229 0034 1500     		movs	r5, r2
 180:Source\LwIP\src\core\ipv4/ip4_addr.c ****       } else {
 181:Source\LwIP\src\core\ipv4/ip4_addr.c ****         base = 8;
 230              		.loc 1 181 0
 231 0036 0826     		movs	r6, #8
 232              	.LVL28:
 233              	.L16:
 178:Source\LwIP\src\core\ipv4/ip4_addr.c ****         c = *++cp;
 234              		.loc 1 178 0
 235 0038 0020     		movs	r0, #0
 236              	.LVL29:
 237              	.L18:
 182:Source\LwIP\src\core\ipv4/ip4_addr.c ****       }
 183:Source\LwIP\src\core\ipv4/ip4_addr.c ****     }
 184:Source\LwIP\src\core\ipv4/ip4_addr.c ****     for (;;) {
 185:Source\LwIP\src\core\ipv4/ip4_addr.c ****       if (isdigit(c)) {
 238              		.loc 1 185 0
 239 003a 1A00     		movs	r2, r3
 240 003c 303A     		subs	r2, r2, #48
 241 003e D2B2     		uxtb	r2, r2
 242 0040 092A     		cmp	r2, #9
 243 0042 06D8     		bhi	.L19
 186:Source\LwIP\src\core\ipv4/ip4_addr.c ****         val = (val * base) + (u32_t)(c - '0');
 244              		.loc 1 186 0
 245 0044 7043     		muls	r0, r6
 246              	.LVL30:
 247 0046 1B18     		adds	r3, r3, r0
 248              	.LVL31:
 249 0048 303B     		subs	r3, r3, #48
 250 004a 1800     		movs	r0, r3
 251              	.LVL32:
 187:Source\LwIP\src\core\ipv4/ip4_addr.c ****         c = *++cp;
 252              		.loc 1 187 0
 253 004c 0135     		adds	r5, r5, #1
 254              	.LVL33:
 255 004e 2B78     		ldrb	r3, [r5]
 256              	.LVL34:
ARM GAS  C:\Users\Phuong\AppData\Local\Temp\ccsuu5eh.s 			page 9


 257 0050 F3E7     		b	.L18
 258              	.L19:
 188:Source\LwIP\src\core\ipv4/ip4_addr.c ****       } else if (base == 16 && isxdigit(c)) {
 259              		.loc 1 188 0
 260 0052 102E     		cmp	r6, #16
 261 0054 1AD1     		bne	.L21
 262              		.loc 1 188 0 is_stmt 0 discriminator 1
 263 0056 092A     		cmp	r2, #9
 264 0058 09D9     		bls	.L22
 265              		.loc 1 188 0 discriminator 2
 266 005a 1A00     		movs	r2, r3
 267 005c 613A     		subs	r2, r2, #97
 268 005e D2B2     		uxtb	r2, r2
 269 0060 052A     		cmp	r2, #5
 270 0062 04D9     		bls	.L22
 271              		.loc 1 188 0 discriminator 3
 272 0064 1A00     		movs	r2, r3
 273 0066 413A     		subs	r2, r2, #65
 274 0068 D2B2     		uxtb	r2, r2
 275 006a 052A     		cmp	r2, #5
 276 006c 0ED8     		bhi	.L21
 277              	.L22:
 189:Source\LwIP\src\core\ipv4/ip4_addr.c ****         val = (val << 4) | (u32_t)(c + 10 - (islower(c) ? 'a' : 'A'));
 278              		.loc 1 189 0 is_stmt 1
 279 006e 0001     		lsls	r0, r0, #4
 280              	.LVL35:
 281 0070 1A00     		movs	r2, r3
 282 0072 0A32     		adds	r2, r2, #10
 283 0074 613B     		subs	r3, r3, #97
 284              	.LVL36:
 285 0076 D9B2     		uxtb	r1, r3
 286 0078 1929     		cmp	r1, #25
 287 007a 01D8     		bhi	.L35
 288 007c 6123     		movs	r3, #97
 289 007e 00E0     		b	.L23
 290              	.L35:
 291 0080 4123     		movs	r3, #65
 292              	.L23:
 293              		.loc 1 189 0 is_stmt 0 discriminator 4
 294 0082 D21A     		subs	r2, r2, r3
 295 0084 1043     		orrs	r0, r2
 296              	.LVL37:
 190:Source\LwIP\src\core\ipv4/ip4_addr.c ****         c = *++cp;
 297              		.loc 1 190 0 is_stmt 1 discriminator 4
 298 0086 0135     		adds	r5, r5, #1
 299              	.LVL38:
 300 0088 2B78     		ldrb	r3, [r5]
 301              	.LVL39:
 302 008a D6E7     		b	.L18
 303              	.L21:
 191:Source\LwIP\src\core\ipv4/ip4_addr.c ****       } else {
 192:Source\LwIP\src\core\ipv4/ip4_addr.c ****         break;
 193:Source\LwIP\src\core\ipv4/ip4_addr.c ****       }
 194:Source\LwIP\src\core\ipv4/ip4_addr.c ****     }
 195:Source\LwIP\src\core\ipv4/ip4_addr.c ****     if (c == '.') {
 304              		.loc 1 195 0
 305 008c 2E2B     		cmp	r3, #46
ARM GAS  C:\Users\Phuong\AppData\Local\Temp\ccsuu5eh.s 			page 10


 306 008e 07D1     		bne	.L24
 196:Source\LwIP\src\core\ipv4/ip4_addr.c ****       /*
 197:Source\LwIP\src\core\ipv4/ip4_addr.c ****        * Internet format:
 198:Source\LwIP\src\core\ipv4/ip4_addr.c ****        *  a.b.c.d
 199:Source\LwIP\src\core\ipv4/ip4_addr.c ****        *  a.b.c   (with c treated as 16 bits)
 200:Source\LwIP\src\core\ipv4/ip4_addr.c ****        *  a.b (with b treated as 24 bits)
 201:Source\LwIP\src\core\ipv4/ip4_addr.c ****        */
 202:Source\LwIP\src\core\ipv4/ip4_addr.c ****       if (pp >= parts + 3) {
 307              		.loc 1 202 0
 308 0090 03AB     		add	r3, sp, #12
 309              	.LVL40:
 310 0092 9F42     		cmp	r7, r3
 311 0094 52D2     		bcs	.L36
 312              	.LVL41:
 203:Source\LwIP\src\core\ipv4/ip4_addr.c ****         return 0;
 204:Source\LwIP\src\core\ipv4/ip4_addr.c ****       }
 205:Source\LwIP\src\core\ipv4/ip4_addr.c ****       *pp++ = val;
 313              		.loc 1 205 0
 314 0096 3860     		str	r0, [r7]
 315              	.LVL42:
 206:Source\LwIP\src\core\ipv4/ip4_addr.c ****       c = *++cp;
 316              		.loc 1 206 0
 317 0098 6B78     		ldrb	r3, [r5, #1]
 318              	.LVL43:
 205:Source\LwIP\src\core\ipv4/ip4_addr.c ****       c = *++cp;
 319              		.loc 1 205 0
 320 009a 0437     		adds	r7, r7, #4
 321              	.LVL44:
 322              		.loc 1 206 0
 323 009c 0135     		adds	r5, r5, #1
 324              	.LVL45:
 207:Source\LwIP\src\core\ipv4/ip4_addr.c ****     } else {
 208:Source\LwIP\src\core\ipv4/ip4_addr.c ****       break;
 209:Source\LwIP\src\core\ipv4/ip4_addr.c ****     }
 210:Source\LwIP\src\core\ipv4/ip4_addr.c ****   }
 325              		.loc 1 210 0
 326 009e B5E7     		b	.L25
 327              	.L24:
 211:Source\LwIP\src\core\ipv4/ip4_addr.c ****   /*
 212:Source\LwIP\src\core\ipv4/ip4_addr.c ****    * Check for trailing characters.
 213:Source\LwIP\src\core\ipv4/ip4_addr.c ****    */
 214:Source\LwIP\src\core\ipv4/ip4_addr.c ****   if (c != '\0' && !isspace(c)) {
 328              		.loc 1 214 0
 329 00a0 002B     		cmp	r3, #0
 330 00a2 0BD0     		beq	.L26
 331              		.loc 1 214 0 is_stmt 0 discriminator 1
 332 00a4 202B     		cmp	r3, #32
 333 00a6 09D0     		beq	.L26
 334              		.loc 1 214 0 discriminator 2
 335 00a8 0C2B     		cmp	r3, #12
 336 00aa 07D0     		beq	.L26
 337              		.loc 1 214 0 discriminator 3
 338 00ac 0A2B     		cmp	r3, #10
 339 00ae 05D0     		beq	.L26
 340              		.loc 1 214 0 discriminator 4
 341 00b0 0D2B     		cmp	r3, #13
 342 00b2 03D0     		beq	.L26
ARM GAS  C:\Users\Phuong\AppData\Local\Temp\ccsuu5eh.s 			page 11


 343              		.loc 1 214 0 discriminator 5
 344 00b4 092B     		cmp	r3, #9
 345 00b6 01D0     		beq	.L26
 346              		.loc 1 214 0 discriminator 6
 347 00b8 0B2B     		cmp	r3, #11
 348 00ba 41D1     		bne	.L37
 349              	.L26:
 215:Source\LwIP\src\core\ipv4/ip4_addr.c ****     return 0;
 216:Source\LwIP\src\core\ipv4/ip4_addr.c ****   }
 217:Source\LwIP\src\core\ipv4/ip4_addr.c ****   /*
 218:Source\LwIP\src\core\ipv4/ip4_addr.c ****    * Concoct the address according to
 219:Source\LwIP\src\core\ipv4/ip4_addr.c ****    * the number of parts specified.
 220:Source\LwIP\src\core\ipv4/ip4_addr.c ****    */
 221:Source\LwIP\src\core\ipv4/ip4_addr.c ****   switch (pp - parts + 1) {
 350              		.loc 1 221 0 is_stmt 1
 351 00bc 6B46     		mov	r3, sp
 352              	.LVL46:
 353 00be FB1A     		subs	r3, r7, r3
 354 00c0 9B10     		asrs	r3, r3, #2
 355 00c2 0133     		adds	r3, r3, #1
 356 00c4 022B     		cmp	r3, #2
 357 00c6 08D0     		beq	.L28
 358 00c8 02DC     		bgt	.L29
 359 00ca 002B     		cmp	r3, #0
 360 00cc 4DD0     		beq	.L15
 361 00ce 2CE0     		b	.L27
 362              	.L29:
 363 00d0 032B     		cmp	r3, #3
 364 00d2 0BD0     		beq	.L30
 365 00d4 042B     		cmp	r3, #4
 366 00d6 17D0     		beq	.L31
 367 00d8 27E0     		b	.L27
 368              	.L28:
 222:Source\LwIP\src\core\ipv4/ip4_addr.c **** 
 223:Source\LwIP\src\core\ipv4/ip4_addr.c ****   case 0:
 224:Source\LwIP\src\core\ipv4/ip4_addr.c ****     return 0;       /* initial nondigit */
 225:Source\LwIP\src\core\ipv4/ip4_addr.c **** 
 226:Source\LwIP\src\core\ipv4/ip4_addr.c ****   case 1:             /* a -- 32 bits */
 227:Source\LwIP\src\core\ipv4/ip4_addr.c ****     break;
 228:Source\LwIP\src\core\ipv4/ip4_addr.c **** 
 229:Source\LwIP\src\core\ipv4/ip4_addr.c ****   case 2:             /* a.b -- 8.24 bits */
 230:Source\LwIP\src\core\ipv4/ip4_addr.c ****     if (val > 0xffffffUL) {
 369              		.loc 1 230 0
 370 00da 254B     		ldr	r3, .L48
 371 00dc 9842     		cmp	r0, r3
 372 00de 31D8     		bhi	.L38
 231:Source\LwIP\src\core\ipv4/ip4_addr.c ****       return 0;
 232:Source\LwIP\src\core\ipv4/ip4_addr.c ****     }
 233:Source\LwIP\src\core\ipv4/ip4_addr.c ****     if (parts[0] > 0xff) {
 373              		.loc 1 233 0
 374 00e0 009B     		ldr	r3, [sp]
 375 00e2 FF2B     		cmp	r3, #255
 376 00e4 30D8     		bhi	.L39
 234:Source\LwIP\src\core\ipv4/ip4_addr.c ****       return 0;
 235:Source\LwIP\src\core\ipv4/ip4_addr.c ****     }
 236:Source\LwIP\src\core\ipv4/ip4_addr.c ****     val |= parts[0] << 24;
 377              		.loc 1 236 0
ARM GAS  C:\Users\Phuong\AppData\Local\Temp\ccsuu5eh.s 			page 12


 378 00e6 1B06     		lsls	r3, r3, #24
 379 00e8 1843     		orrs	r0, r3
 380              	.LVL47:
 237:Source\LwIP\src\core\ipv4/ip4_addr.c ****     break;
 381              		.loc 1 237 0
 382 00ea 1EE0     		b	.L27
 383              	.L30:
 238:Source\LwIP\src\core\ipv4/ip4_addr.c **** 
 239:Source\LwIP\src\core\ipv4/ip4_addr.c ****   case 3:             /* a.b.c -- 8.8.16 bits */
 240:Source\LwIP\src\core\ipv4/ip4_addr.c ****     if (val > 0xffff) {
 384              		.loc 1 240 0
 385 00ec 214B     		ldr	r3, .L48+4
 386 00ee 9842     		cmp	r0, r3
 387 00f0 2CD8     		bhi	.L40
 241:Source\LwIP\src\core\ipv4/ip4_addr.c ****       return 0;
 242:Source\LwIP\src\core\ipv4/ip4_addr.c ****     }
 243:Source\LwIP\src\core\ipv4/ip4_addr.c ****     if ((parts[0] > 0xff) || (parts[1] > 0xff)) {
 388              		.loc 1 243 0
 389 00f2 009A     		ldr	r2, [sp]
 390 00f4 FF2A     		cmp	r2, #255
 391 00f6 2BD8     		bhi	.L41
 392              		.loc 1 243 0 is_stmt 0 discriminator 1
 393 00f8 019B     		ldr	r3, [sp, #4]
 394 00fa FF2B     		cmp	r3, #255
 395 00fc 2AD8     		bhi	.L42
 244:Source\LwIP\src\core\ipv4/ip4_addr.c ****       return 0;
 245:Source\LwIP\src\core\ipv4/ip4_addr.c ****     }
 246:Source\LwIP\src\core\ipv4/ip4_addr.c ****     val |= (parts[0] << 24) | (parts[1] << 16);
 396              		.loc 1 246 0 is_stmt 1
 397 00fe 1206     		lsls	r2, r2, #24
 398 0100 1B04     		lsls	r3, r3, #16
 399 0102 1343     		orrs	r3, r2
 400 0104 1843     		orrs	r0, r3
 401              	.LVL48:
 247:Source\LwIP\src\core\ipv4/ip4_addr.c ****     break;
 402              		.loc 1 247 0
 403 0106 10E0     		b	.L27
 404              	.L31:
 248:Source\LwIP\src\core\ipv4/ip4_addr.c **** 
 249:Source\LwIP\src\core\ipv4/ip4_addr.c ****   case 4:             /* a.b.c.d -- 8.8.8.8 bits */
 250:Source\LwIP\src\core\ipv4/ip4_addr.c ****     if (val > 0xff) {
 405              		.loc 1 250 0
 406 0108 FF28     		cmp	r0, #255
 407 010a 25D8     		bhi	.L43
 251:Source\LwIP\src\core\ipv4/ip4_addr.c ****       return 0;
 252:Source\LwIP\src\core\ipv4/ip4_addr.c ****     }
 253:Source\LwIP\src\core\ipv4/ip4_addr.c ****     if ((parts[0] > 0xff) || (parts[1] > 0xff) || (parts[2] > 0xff)) {
 408              		.loc 1 253 0
 409 010c 0099     		ldr	r1, [sp]
 410 010e FF29     		cmp	r1, #255
 411 0110 24D8     		bhi	.L44
 412              		.loc 1 253 0 is_stmt 0 discriminator 1
 413 0112 019A     		ldr	r2, [sp, #4]
 414 0114 FF2A     		cmp	r2, #255
 415 0116 23D8     		bhi	.L45
 416              		.loc 1 253 0 discriminator 2
 417 0118 029B     		ldr	r3, [sp, #8]
ARM GAS  C:\Users\Phuong\AppData\Local\Temp\ccsuu5eh.s 			page 13


 418 011a FF2B     		cmp	r3, #255
 419 011c 22D8     		bhi	.L46
 254:Source\LwIP\src\core\ipv4/ip4_addr.c ****       return 0;
 255:Source\LwIP\src\core\ipv4/ip4_addr.c ****     }
 256:Source\LwIP\src\core\ipv4/ip4_addr.c ****     val |= (parts[0] << 24) | (parts[1] << 16) | (parts[2] << 8);
 420              		.loc 1 256 0 is_stmt 1
 421 011e 0906     		lsls	r1, r1, #24
 422 0120 1204     		lsls	r2, r2, #16
 423 0122 0A43     		orrs	r2, r1
 424 0124 1B02     		lsls	r3, r3, #8
 425 0126 1343     		orrs	r3, r2
 426 0128 1843     		orrs	r0, r3
 427              	.LVL49:
 428              	.L27:
 257:Source\LwIP\src\core\ipv4/ip4_addr.c ****     break;
 258:Source\LwIP\src\core\ipv4/ip4_addr.c ****   default:
 259:Source\LwIP\src\core\ipv4/ip4_addr.c ****     LWIP_ASSERT("unhandled", 0);
 260:Source\LwIP\src\core\ipv4/ip4_addr.c ****     break;
 261:Source\LwIP\src\core\ipv4/ip4_addr.c ****   }
 262:Source\LwIP\src\core\ipv4/ip4_addr.c ****   if (addr) {
 429              		.loc 1 262 0
 430 012a 002C     		cmp	r4, #0
 431 012c 1CD0     		beq	.L47
 263:Source\LwIP\src\core\ipv4/ip4_addr.c ****     ip4_addr_set_u32(addr, lwip_htonl(val));
 432              		.loc 1 263 0
 433 012e FFF7FEFF 		bl	lwip_htonl
 434              	.LVL50:
 435 0132 2060     		str	r0, [r4]
 264:Source\LwIP\src\core\ipv4/ip4_addr.c ****   }
 265:Source\LwIP\src\core\ipv4/ip4_addr.c ****   return 1;
 436              		.loc 1 265 0
 437 0134 0123     		movs	r3, #1
 438 0136 18E0     		b	.L15
 439              	.LVL51:
 440              	.L32:
 171:Source\LwIP\src\core\ipv4/ip4_addr.c ****     }
 441              		.loc 1 171 0
 442 0138 0023     		movs	r3, #0
 443              	.LVL52:
 444 013a 16E0     		b	.L15
 445              	.LVL53:
 446              	.L36:
 203:Source\LwIP\src\core\ipv4/ip4_addr.c ****       }
 447              		.loc 1 203 0
 448 013c 0023     		movs	r3, #0
 449 013e 14E0     		b	.L15
 450              	.LVL54:
 451              	.L37:
 215:Source\LwIP\src\core\ipv4/ip4_addr.c ****   }
 452              		.loc 1 215 0
 453 0140 0023     		movs	r3, #0
 454              	.LVL55:
 455 0142 12E0     		b	.L15
 456              	.L38:
 231:Source\LwIP\src\core\ipv4/ip4_addr.c ****     }
 457              		.loc 1 231 0
 458 0144 0023     		movs	r3, #0
ARM GAS  C:\Users\Phuong\AppData\Local\Temp\ccsuu5eh.s 			page 14


 459 0146 10E0     		b	.L15
 460              	.L39:
 234:Source\LwIP\src\core\ipv4/ip4_addr.c ****     }
 461              		.loc 1 234 0
 462 0148 0023     		movs	r3, #0
 463 014a 0EE0     		b	.L15
 464              	.L40:
 241:Source\LwIP\src\core\ipv4/ip4_addr.c ****     }
 465              		.loc 1 241 0
 466 014c 0023     		movs	r3, #0
 467 014e 0CE0     		b	.L15
 468              	.L41:
 244:Source\LwIP\src\core\ipv4/ip4_addr.c ****     }
 469              		.loc 1 244 0
 470 0150 0023     		movs	r3, #0
 471 0152 0AE0     		b	.L15
 472              	.L42:
 473 0154 0023     		movs	r3, #0
 474 0156 08E0     		b	.L15
 475              	.L43:
 251:Source\LwIP\src\core\ipv4/ip4_addr.c ****     }
 476              		.loc 1 251 0
 477 0158 0023     		movs	r3, #0
 478 015a 06E0     		b	.L15
 479              	.L44:
 254:Source\LwIP\src\core\ipv4/ip4_addr.c ****     }
 480              		.loc 1 254 0
 481 015c 0023     		movs	r3, #0
 482 015e 04E0     		b	.L15
 483              	.L45:
 484 0160 0023     		movs	r3, #0
 485 0162 02E0     		b	.L15
 486              	.L46:
 487 0164 0023     		movs	r3, #0
 488 0166 00E0     		b	.L15
 489              	.L47:
 490              		.loc 1 265 0
 491 0168 0123     		movs	r3, #1
 492              	.LVL56:
 493              	.L15:
 266:Source\LwIP\src\core\ipv4/ip4_addr.c **** }
 494              		.loc 1 266 0
 495 016a 1800     		movs	r0, r3
 496 016c 05B0     		add	sp, sp, #20
 497              		@ sp needed
 498              	.LVL57:
 499              	.LVL58:
 500              	.LVL59:
 501 016e F0BD     		pop	{r4, r5, r6, r7, pc}
 502              	.L49:
 503              		.align	2
 504              	.L48:
 505 0170 FFFFFF00 		.word	16777215
 506 0174 FFFF0000 		.word	65535
 507              		.cfi_endproc
 508              	.LFE56:
 509              		.size	ip4addr_aton, .-ip4addr_aton
ARM GAS  C:\Users\Phuong\AppData\Local\Temp\ccsuu5eh.s 			page 15


 510              		.section	.text.ipaddr_addr,"ax",%progbits
 511              		.align	2
 512              		.global	ipaddr_addr
 513              		.code	16
 514              		.thumb_func
 515              		.type	ipaddr_addr, %function
 516              	ipaddr_addr:
 517              	.LFB55:
 134:Source\LwIP\src\core\ipv4/ip4_addr.c ****   ip4_addr_t val;
 518              		.loc 1 134 0
 519              		.cfi_startproc
 520              		@ args = 0, pretend = 0, frame = 8
 521              		@ frame_needed = 0, uses_anonymous_args = 0
 522              	.LVL60:
 523 0000 00B5     		push	{lr}
 524              		.cfi_def_cfa_offset 4
 525              		.cfi_offset 14, -4
 526 0002 83B0     		sub	sp, sp, #12
 527              		.cfi_def_cfa_offset 16
 137:Source\LwIP\src\core\ipv4/ip4_addr.c ****     return ip4_addr_get_u32(&val);
 528              		.loc 1 137 0
 529 0004 01A9     		add	r1, sp, #4
 530 0006 FFF7FEFF 		bl	ip4addr_aton
 531              	.LVL61:
 532 000a 0028     		cmp	r0, #0
 533 000c 01D0     		beq	.L52
 138:Source\LwIP\src\core\ipv4/ip4_addr.c ****   }
 534              		.loc 1 138 0
 535 000e 0198     		ldr	r0, [sp, #4]
 536 0010 01E0     		b	.L51
 537              	.L52:
 140:Source\LwIP\src\core\ipv4/ip4_addr.c **** }
 538              		.loc 1 140 0
 539 0012 0120     		movs	r0, #1
 540 0014 4042     		rsbs	r0, r0, #0
 541              	.L51:
 141:Source\LwIP\src\core\ipv4/ip4_addr.c **** 
 542              		.loc 1 141 0
 543 0016 03B0     		add	sp, sp, #12
 544              		@ sp needed
 545 0018 00BD     		pop	{pc}
 546              		.cfi_endproc
 547              	.LFE55:
 548              		.size	ipaddr_addr, .-ipaddr_addr
 549              		.global	__aeabi_uidivmod
 550              		.global	__aeabi_uidiv
 551 001a C046     		.section	.text.ip4addr_ntoa_r,"ax",%progbits
 552              		.align	2
 553              		.global	ip4addr_ntoa_r
 554              		.code	16
 555              		.thumb_func
 556              		.type	ip4addr_ntoa_r, %function
 557              	ip4addr_ntoa_r:
 558              	.LFB58:
 267:Source\LwIP\src\core\ipv4/ip4_addr.c **** 
 268:Source\LwIP\src\core\ipv4/ip4_addr.c **** /**
 269:Source\LwIP\src\core\ipv4/ip4_addr.c ****  * Convert numeric IP address into decimal dotted ASCII representation.
ARM GAS  C:\Users\Phuong\AppData\Local\Temp\ccsuu5eh.s 			page 16


 270:Source\LwIP\src\core\ipv4/ip4_addr.c ****  * returns ptr to static buffer; not reentrant!
 271:Source\LwIP\src\core\ipv4/ip4_addr.c ****  *
 272:Source\LwIP\src\core\ipv4/ip4_addr.c ****  * @param addr ip address in network order to convert
 273:Source\LwIP\src\core\ipv4/ip4_addr.c ****  * @return pointer to a global static (!) buffer that holds the ASCII
 274:Source\LwIP\src\core\ipv4/ip4_addr.c ****  *         representation of addr
 275:Source\LwIP\src\core\ipv4/ip4_addr.c ****  */
 276:Source\LwIP\src\core\ipv4/ip4_addr.c **** char*
 277:Source\LwIP\src\core\ipv4/ip4_addr.c **** ip4addr_ntoa(const ip4_addr_t *addr)
 278:Source\LwIP\src\core\ipv4/ip4_addr.c **** {
 279:Source\LwIP\src\core\ipv4/ip4_addr.c ****   static char str[IP4ADDR_STRLEN_MAX];
 280:Source\LwIP\src\core\ipv4/ip4_addr.c ****   return ip4addr_ntoa_r(addr, str, IP4ADDR_STRLEN_MAX);
 281:Source\LwIP\src\core\ipv4/ip4_addr.c **** }
 282:Source\LwIP\src\core\ipv4/ip4_addr.c **** 
 283:Source\LwIP\src\core\ipv4/ip4_addr.c **** /**
 284:Source\LwIP\src\core\ipv4/ip4_addr.c ****  * Same as ipaddr_ntoa, but reentrant since a user-supplied buffer is used.
 285:Source\LwIP\src\core\ipv4/ip4_addr.c ****  *
 286:Source\LwIP\src\core\ipv4/ip4_addr.c ****  * @param addr ip address in network order to convert
 287:Source\LwIP\src\core\ipv4/ip4_addr.c ****  * @param buf target buffer where the string is stored
 288:Source\LwIP\src\core\ipv4/ip4_addr.c ****  * @param buflen length of buf
 289:Source\LwIP\src\core\ipv4/ip4_addr.c ****  * @return either pointer to buf which now holds the ASCII
 290:Source\LwIP\src\core\ipv4/ip4_addr.c ****  *         representation of addr or NULL if buf was too small
 291:Source\LwIP\src\core\ipv4/ip4_addr.c ****  */
 292:Source\LwIP\src\core\ipv4/ip4_addr.c **** char*
 293:Source\LwIP\src\core\ipv4/ip4_addr.c **** ip4addr_ntoa_r(const ip4_addr_t *addr, char *buf, int buflen)
 294:Source\LwIP\src\core\ipv4/ip4_addr.c **** {
 559              		.loc 1 294 0
 560              		.cfi_startproc
 561              		@ args = 0, pretend = 0, frame = 16
 562              		@ frame_needed = 0, uses_anonymous_args = 0
 563              	.LVL62:
 564 0000 F0B5     		push	{r4, r5, r6, r7, lr}
 565              		.cfi_def_cfa_offset 20
 566              		.cfi_offset 4, -20
 567              		.cfi_offset 5, -16
 568              		.cfi_offset 6, -12
 569              		.cfi_offset 7, -8
 570              		.cfi_offset 14, -4
 571 0002 5F46     		mov	r7, fp
 572 0004 5646     		mov	r6, r10
 573 0006 4D46     		mov	r5, r9
 574 0008 E0B4     		push	{r5, r6, r7}
 575              		.cfi_def_cfa_offset 32
 576              		.cfi_offset 9, -32
 577              		.cfi_offset 10, -28
 578              		.cfi_offset 11, -24
 579 000a 84B0     		sub	sp, sp, #16
 580              		.cfi_def_cfa_offset 48
 581 000c 0191     		str	r1, [sp, #4]
 582 000e 9246     		mov	r10, r2
 583              	.LVL63:
 295:Source\LwIP\src\core\ipv4/ip4_addr.c ****   u32_t s_addr;
 296:Source\LwIP\src\core\ipv4/ip4_addr.c ****   char inv[3];
 297:Source\LwIP\src\core\ipv4/ip4_addr.c ****   char *rp;
 298:Source\LwIP\src\core\ipv4/ip4_addr.c ****   u8_t *ap;
 299:Source\LwIP\src\core\ipv4/ip4_addr.c ****   u8_t rem;
 300:Source\LwIP\src\core\ipv4/ip4_addr.c ****   u8_t n;
 301:Source\LwIP\src\core\ipv4/ip4_addr.c ****   u8_t i;
ARM GAS  C:\Users\Phuong\AppData\Local\Temp\ccsuu5eh.s 			page 17


 302:Source\LwIP\src\core\ipv4/ip4_addr.c ****   int len = 0;
 303:Source\LwIP\src\core\ipv4/ip4_addr.c **** 
 304:Source\LwIP\src\core\ipv4/ip4_addr.c ****   s_addr = ip4_addr_get_u32(addr);
 584              		.loc 1 304 0
 585 0010 0368     		ldr	r3, [r0]
 586 0012 0393     		str	r3, [sp, #12]
 587              	.LVL64:
 305:Source\LwIP\src\core\ipv4/ip4_addr.c **** 
 306:Source\LwIP\src\core\ipv4/ip4_addr.c ****   rp = buf;
 588              		.loc 1 306 0
 589 0014 0F00     		movs	r7, r1
 302:Source\LwIP\src\core\ipv4/ip4_addr.c **** 
 590              		.loc 1 302 0
 591 0016 0025     		movs	r5, #0
 307:Source\LwIP\src\core\ipv4/ip4_addr.c ****   ap = (u8_t *)&s_addr;
 308:Source\LwIP\src\core\ipv4/ip4_addr.c ****   for (n = 0; n < 4; n++) {
 592              		.loc 1 308 0
 593 0018 0023     		movs	r3, #0
 594 001a 9B46     		mov	fp, r3
 307:Source\LwIP\src\core\ipv4/ip4_addr.c ****   ap = (u8_t *)&s_addr;
 595              		.loc 1 307 0
 596 001c 03AB     		add	r3, sp, #12
 597              	.LVL65:
 598 001e 9946     		mov	r9, r3
 599              		.loc 1 308 0
 600 0020 33E0     		b	.L54
 601              	.LVL66:
 602              	.L61:
 603 0022 0026     		movs	r6, #0
 604              	.L55:
 605              	.LVL67:
 309:Source\LwIP\src\core\ipv4/ip4_addr.c ****     i = 0;
 310:Source\LwIP\src\core\ipv4/ip4_addr.c ****     do {
 311:Source\LwIP\src\core\ipv4/ip4_addr.c ****       rem = *ap % (u8_t)10;
 606              		.loc 1 311 0 discriminator 1
 607 0024 4B46     		mov	r3, r9
 608 0026 1B78     		ldrb	r3, [r3]
 609 0028 0A21     		movs	r1, #10
 610 002a 0093     		str	r3, [sp]
 611 002c 1800     		movs	r0, r3
 612 002e FFF7FEFF 		bl	__aeabi_uidivmod
 613              	.LVL68:
 614 0032 CCB2     		uxtb	r4, r1
 615              	.LVL69:
 312:Source\LwIP\src\core\ipv4/ip4_addr.c ****       *ap /= (u8_t)10;
 616              		.loc 1 312 0 discriminator 1
 617 0034 0A21     		movs	r1, #10
 618 0036 0098     		ldr	r0, [sp]
 619 0038 FFF7FEFF 		bl	__aeabi_uidiv
 620              	.LVL70:
 621 003c C0B2     		uxtb	r0, r0
 622 003e 4B46     		mov	r3, r9
 623 0040 1870     		strb	r0, [r3]
 313:Source\LwIP\src\core\ipv4/ip4_addr.c ****       inv[i++] = (char)('0' + rem);
 624              		.loc 1 313 0 discriminator 1
 625 0042 731C     		adds	r3, r6, #1
 626 0044 DBB2     		uxtb	r3, r3
ARM GAS  C:\Users\Phuong\AppData\Local\Temp\ccsuu5eh.s 			page 18


 627              	.LVL71:
 628 0046 3034     		adds	r4, r4, #48
 629              	.LVL72:
 630 0048 02AA     		add	r2, sp, #8
 631 004a 9455     		strb	r4, [r2, r6]
 632 004c 1E00     		movs	r6, r3
 314:Source\LwIP\src\core\ipv4/ip4_addr.c ****     } while (*ap);
 633              		.loc 1 314 0 discriminator 1
 634 004e 0028     		cmp	r0, #0
 635 0050 E8D1     		bne	.L55
 636 0052 08E0     		b	.L56
 637              	.LVL73:
 638              	.L58:
 315:Source\LwIP\src\core\ipv4/ip4_addr.c ****     while (i--) {
 316:Source\LwIP\src\core\ipv4/ip4_addr.c ****       if (len++ >= buflen) {
 639              		.loc 1 316 0
 640 0054 691C     		adds	r1, r5, #1
 641              	.LVL74:
 642 0056 5545     		cmp	r5, r10
 643 0058 1FDA     		bge	.L59
 644              	.LVL75:
 317:Source\LwIP\src\core\ipv4/ip4_addr.c ****         return NULL;
 318:Source\LwIP\src\core\ipv4/ip4_addr.c ****       }
 319:Source\LwIP\src\core\ipv4/ip4_addr.c ****       *rp++ = inv[i];
 645              		.loc 1 319 0
 646 005a 02AB     		add	r3, sp, #8
 647 005c 9B5C     		ldrb	r3, [r3, r2]
 648 005e 3B70     		strb	r3, [r7]
 315:Source\LwIP\src\core\ipv4/ip4_addr.c ****     while (i--) {
 649              		.loc 1 315 0
 650 0060 1300     		movs	r3, r2
 316:Source\LwIP\src\core\ipv4/ip4_addr.c ****         return NULL;
 651              		.loc 1 316 0
 652 0062 0D00     		movs	r5, r1
 653              		.loc 1 319 0
 654 0064 0137     		adds	r7, r7, #1
 655              	.LVL76:
 656              	.L56:
 315:Source\LwIP\src\core\ipv4/ip4_addr.c ****     while (i--) {
 657              		.loc 1 315 0
 658 0066 5A1E     		subs	r2, r3, #1
 659 0068 D2B2     		uxtb	r2, r2
 660              	.LVL77:
 661 006a 002B     		cmp	r3, #0
 662 006c F2D1     		bne	.L58
 320:Source\LwIP\src\core\ipv4/ip4_addr.c ****     }
 321:Source\LwIP\src\core\ipv4/ip4_addr.c ****     if (len++ >= buflen) {
 663              		.loc 1 321 0
 664 006e 6B1C     		adds	r3, r5, #1
 665              	.LVL78:
 666 0070 5545     		cmp	r5, r10
 667 0072 14DA     		bge	.L60
 668              	.LVL79:
 322:Source\LwIP\src\core\ipv4/ip4_addr.c ****       return NULL;
 323:Source\LwIP\src\core\ipv4/ip4_addr.c ****     }
 324:Source\LwIP\src\core\ipv4/ip4_addr.c ****     *rp++ = '.';
 669              		.loc 1 324 0 discriminator 2
ARM GAS  C:\Users\Phuong\AppData\Local\Temp\ccsuu5eh.s 			page 19


 670 0074 2E22     		movs	r2, #46
 671              	.LVL80:
 672 0076 3A70     		strb	r2, [r7]
 325:Source\LwIP\src\core\ipv4/ip4_addr.c ****     ap++;
 673              		.loc 1 325 0 discriminator 2
 674 0078 2D3A     		subs	r2, r2, #45
 675 007a 9446     		mov	ip, r2
 676 007c E144     		add	r9, r9, ip
 677              	.LVL81:
 308:Source\LwIP\src\core\ipv4/ip4_addr.c ****     i = 0;
 678              		.loc 1 308 0 discriminator 2
 679 007e 5A46     		mov	r2, fp
 680 0080 0132     		adds	r2, r2, #1
 681 0082 D2B2     		uxtb	r2, r2
 682 0084 9346     		mov	fp, r2
 683              	.LVL82:
 321:Source\LwIP\src\core\ipv4/ip4_addr.c ****       return NULL;
 684              		.loc 1 321 0 discriminator 2
 685 0086 1D00     		movs	r5, r3
 324:Source\LwIP\src\core\ipv4/ip4_addr.c ****     ap++;
 686              		.loc 1 324 0 discriminator 2
 687 0088 0137     		adds	r7, r7, #1
 688              	.LVL83:
 689              	.L54:
 308:Source\LwIP\src\core\ipv4/ip4_addr.c ****     i = 0;
 690              		.loc 1 308 0 discriminator 1
 691 008a 5B46     		mov	r3, fp
 692 008c 032B     		cmp	r3, #3
 693 008e C8D9     		bls	.L61
 694              	.LVL84:
 326:Source\LwIP\src\core\ipv4/ip4_addr.c ****   }
 327:Source\LwIP\src\core\ipv4/ip4_addr.c ****   *--rp = 0;
 695              		.loc 1 327 0
 696 0090 7B1E     		subs	r3, r7, #1
 697              	.LVL85:
 698 0092 0022     		movs	r2, #0
 699 0094 1A70     		strb	r2, [r3]
 328:Source\LwIP\src\core\ipv4/ip4_addr.c ****   return buf;
 700              		.loc 1 328 0
 701 0096 0198     		ldr	r0, [sp, #4]
 702 0098 02E0     		b	.L57
 703              	.LVL86:
 704              	.L59:
 317:Source\LwIP\src\core\ipv4/ip4_addr.c ****       }
 705              		.loc 1 317 0
 706 009a 0020     		movs	r0, #0
 707 009c 00E0     		b	.L57
 708              	.LVL87:
 709              	.L60:
 322:Source\LwIP\src\core\ipv4/ip4_addr.c ****     }
 710              		.loc 1 322 0
 711 009e 0020     		movs	r0, #0
 712              	.LVL88:
 713              	.L57:
 329:Source\LwIP\src\core\ipv4/ip4_addr.c **** }
 714              		.loc 1 329 0
 715 00a0 04B0     		add	sp, sp, #16
ARM GAS  C:\Users\Phuong\AppData\Local\Temp\ccsuu5eh.s 			page 20


 716              		@ sp needed
 717              	.LVL89:
 718              	.LVL90:
 719              	.LVL91:
 720 00a2 1CBC     		pop	{r2, r3, r4}
 721 00a4 9146     		mov	r9, r2
 722 00a6 9A46     		mov	r10, r3
 723 00a8 A346     		mov	fp, r4
 724 00aa F0BD     		pop	{r4, r5, r6, r7, pc}
 725              		.cfi_endproc
 726              	.LFE58:
 727              		.size	ip4addr_ntoa_r, .-ip4addr_ntoa_r
 728              		.section	.text.ip4addr_ntoa,"ax",%progbits
 729              		.align	2
 730              		.global	ip4addr_ntoa
 731              		.code	16
 732              		.thumb_func
 733              		.type	ip4addr_ntoa, %function
 734              	ip4addr_ntoa:
 735              	.LFB57:
 278:Source\LwIP\src\core\ipv4/ip4_addr.c ****   static char str[IP4ADDR_STRLEN_MAX];
 736              		.loc 1 278 0
 737              		.cfi_startproc
 738              		@ args = 0, pretend = 0, frame = 0
 739              		@ frame_needed = 0, uses_anonymous_args = 0
 740              	.LVL92:
 741 0000 10B5     		push	{r4, lr}
 742              		.cfi_def_cfa_offset 8
 743              		.cfi_offset 4, -8
 744              		.cfi_offset 14, -4
 280:Source\LwIP\src\core\ipv4/ip4_addr.c **** }
 745              		.loc 1 280 0
 746 0002 1022     		movs	r2, #16
 747 0004 0149     		ldr	r1, .L63
 748 0006 FFF7FEFF 		bl	ip4addr_ntoa_r
 749              	.LVL93:
 281:Source\LwIP\src\core\ipv4/ip4_addr.c **** 
 750              		.loc 1 281 0
 751              		@ sp needed
 752 000a 10BD     		pop	{r4, pc}
 753              	.L64:
 754              		.align	2
 755              	.L63:
 756 000c 00000000 		.word	.LANCHOR0
 757              		.cfi_endproc
 758              	.LFE57:
 759              		.size	ip4addr_ntoa, .-ip4addr_ntoa
 760              		.global	ip_addr_broadcast
 761              		.global	ip_addr_any
 762              		.section	.rodata
 763              		.align	2
 764              		.type	ip_addr_broadcast, %object
 765              		.size	ip_addr_broadcast, 4
 766              	ip_addr_broadcast:
 767 0000 FFFFFFFF 		.word	-1
 768              		.type	ip_addr_any, %object
 769              		.size	ip_addr_any, 4
ARM GAS  C:\Users\Phuong\AppData\Local\Temp\ccsuu5eh.s 			page 21


 770              	ip_addr_any:
 771 0004 00000000 		.space	4
 772              		.bss
 773              		.align	2
 774              		.set	.LANCHOR0,. + 0
 775              		.type	str.11889, %object
 776              		.size	str.11889, 16
 777              	str.11889:
 778 0000 00000000 		.space	16
 778      00000000 
 778      00000000 
 778      00000000 
 779              		.text
 780              	.Letext0:
 781              		.file 2 "c:\\program files (x86)\\cypress\\psoc creator\\4.2\\psoc creator\\import\\gnu\\arm\\5.4.
 782              		.file 3 "c:\\program files (x86)\\cypress\\psoc creator\\4.2\\psoc creator\\import\\gnu\\arm\\5.4.
 783              		.file 4 ".\\Source\\LwIP\\src\\include/arch/cc.h"
 784              		.file 5 ".\\Source\\LwIP\\src\\include/lwip/ip4_addr.h"
 785              		.file 6 ".\\Source\\LwIP\\src\\include/lwip/ip_addr.h"
 786              		.file 7 ".\\Source\\LwIP\\src\\include/lwip/err.h"
 787              		.file 8 ".\\Source\\LwIP\\src\\include/lwip/pbuf.h"
 788              		.file 9 ".\\Source\\LwIP\\src\\include/lwip/netif.h"
 789              		.file 10 ".\\Source\\LwIP\\src\\include/lwip/memp.h"
 790              		.file 11 ".\\Source\\LwIP\\src\\include/lwip/def.h"