ARM GAS  C:\Users\Phuong\AppData\Local\Temp\ccgITuwc.s 			page 1


   1              		.syntax unified
   2              		.cpu cortex-m0plus
   3              		.fpu softvfp
   4              		.eabi_attribute 20, 1
   5              		.eabi_attribute 21, 1
   6              		.eabi_attribute 23, 3
   7              		.eabi_attribute 24, 1
   8              		.eabi_attribute 25, 1
   9              		.eabi_attribute 26, 1
  10              		.eabi_attribute 30, 1
  11              		.eabi_attribute 34, 0
  12              		.eabi_attribute 18, 4
  13              		.thumb
  14              		.syntax unified
  15              		.file	"list.c"
  16              		.text
  17              	.Ltext0:
  18              		.cfi_sections	.debug_frame
  19              		.section	.text.vListInitialise,"ax",%progbits
  20              		.align	2
  21              		.global	vListInitialise
  22              		.code	16
  23              		.thumb_func
  24              		.type	vListInitialise, %function
  25              	vListInitialise:
  26              	.LFB36:
  27              		.file 1 "Source\\FreeRTOS\\10.0.1\\Source\\list.c"
   1:Source\FreeRTOS\10.0.1\Source/list.c **** /*
   2:Source\FreeRTOS\10.0.1\Source/list.c ****  * FreeRTOS Kernel V10.0.1
   3:Source\FreeRTOS\10.0.1\Source/list.c ****  * Copyright (C) 2017 Amazon.com, Inc. or its affiliates.  All Rights Reserved.
   4:Source\FreeRTOS\10.0.1\Source/list.c ****  *
   5:Source\FreeRTOS\10.0.1\Source/list.c ****  * Permission is hereby granted, free of charge, to any person obtaining a copy of
   6:Source\FreeRTOS\10.0.1\Source/list.c ****  * this software and associated documentation files (the "Software"), to deal in
   7:Source\FreeRTOS\10.0.1\Source/list.c ****  * the Software without restriction, including without limitation the rights to
   8:Source\FreeRTOS\10.0.1\Source/list.c ****  * use, copy, modify, merge, publish, distribute, sublicense, and/or sell copies of
   9:Source\FreeRTOS\10.0.1\Source/list.c ****  * the Software, and to permit persons to whom the Software is furnished to do so,
  10:Source\FreeRTOS\10.0.1\Source/list.c ****  * subject to the following conditions:
  11:Source\FreeRTOS\10.0.1\Source/list.c ****  *
  12:Source\FreeRTOS\10.0.1\Source/list.c ****  * The above copyright notice and this permission notice shall be included in all
  13:Source\FreeRTOS\10.0.1\Source/list.c ****  * copies or substantial portions of the Software.
  14:Source\FreeRTOS\10.0.1\Source/list.c ****  *
  15:Source\FreeRTOS\10.0.1\Source/list.c ****  * THE SOFTWARE IS PROVIDED "AS IS", WITHOUT WARRANTY OF ANY KIND, EXPRESS OR
  16:Source\FreeRTOS\10.0.1\Source/list.c ****  * IMPLIED, INCLUDING BUT NOT LIMITED TO THE WARRANTIES OF MERCHANTABILITY, FITNESS
  17:Source\FreeRTOS\10.0.1\Source/list.c ****  * FOR A PARTICULAR PURPOSE AND NONINFRINGEMENT. IN NO EVENT SHALL THE AUTHORS OR
  18:Source\FreeRTOS\10.0.1\Source/list.c ****  * COPYRIGHT HOLDERS BE LIABLE FOR ANY CLAIM, DAMAGES OR OTHER LIABILITY, WHETHER
  19:Source\FreeRTOS\10.0.1\Source/list.c ****  * IN AN ACTION OF CONTRACT, TORT OR OTHERWISE, ARISING FROM, OUT OF OR IN
  20:Source\FreeRTOS\10.0.1\Source/list.c ****  * CONNECTION WITH THE SOFTWARE OR THE USE OR OTHER DEALINGS IN THE SOFTWARE.
  21:Source\FreeRTOS\10.0.1\Source/list.c ****  *
  22:Source\FreeRTOS\10.0.1\Source/list.c ****  * http://www.FreeRTOS.org
  23:Source\FreeRTOS\10.0.1\Source/list.c ****  * http://aws.amazon.com/freertos
  24:Source\FreeRTOS\10.0.1\Source/list.c ****  *
  25:Source\FreeRTOS\10.0.1\Source/list.c ****  * 1 tab == 4 spaces!
  26:Source\FreeRTOS\10.0.1\Source/list.c ****  */
  27:Source\FreeRTOS\10.0.1\Source/list.c **** 
  28:Source\FreeRTOS\10.0.1\Source/list.c **** 
  29:Source\FreeRTOS\10.0.1\Source/list.c **** #include <stdlib.h>
  30:Source\FreeRTOS\10.0.1\Source/list.c **** #include "FreeRTOS.h"
ARM GAS  C:\Users\Phuong\AppData\Local\Temp\ccgITuwc.s 			page 2


  31:Source\FreeRTOS\10.0.1\Source/list.c **** #include "list.h"
  32:Source\FreeRTOS\10.0.1\Source/list.c **** 
  33:Source\FreeRTOS\10.0.1\Source/list.c **** /*-----------------------------------------------------------
  34:Source\FreeRTOS\10.0.1\Source/list.c ****  * PUBLIC LIST API documented in list.h
  35:Source\FreeRTOS\10.0.1\Source/list.c ****  *----------------------------------------------------------*/
  36:Source\FreeRTOS\10.0.1\Source/list.c **** 
  37:Source\FreeRTOS\10.0.1\Source/list.c **** void vListInitialise( List_t * const pxList )
  38:Source\FreeRTOS\10.0.1\Source/list.c **** {
  28              		.loc 1 38 0
  29              		.cfi_startproc
  30              		@ args = 0, pretend = 0, frame = 0
  31              		@ frame_needed = 0, uses_anonymous_args = 0
  32              		@ link register save eliminated.
  33              	.LVL0:
  39:Source\FreeRTOS\10.0.1\Source/list.c **** 	/* The list structure contains a list item which is used to mark the
  40:Source\FreeRTOS\10.0.1\Source/list.c **** 	end of the list.  To initialise the list the list end is inserted
  41:Source\FreeRTOS\10.0.1\Source/list.c **** 	as the only list entry. */
  42:Source\FreeRTOS\10.0.1\Source/list.c **** 	pxList->pxIndex = ( ListItem_t * ) &( pxList->xListEnd );			/*lint !e826 !e740 The mini list struc
  34              		.loc 1 42 0
  35 0000 0300     		movs	r3, r0
  36 0002 0833     		adds	r3, r3, #8
  37 0004 4360     		str	r3, [r0, #4]
  43:Source\FreeRTOS\10.0.1\Source/list.c **** 
  44:Source\FreeRTOS\10.0.1\Source/list.c **** 	/* The list end value is the highest possible value in the list to
  45:Source\FreeRTOS\10.0.1\Source/list.c **** 	ensure it remains at the end of the list. */
  46:Source\FreeRTOS\10.0.1\Source/list.c **** 	pxList->xListEnd.xItemValue = portMAX_DELAY;
  38              		.loc 1 46 0
  39 0006 0122     		movs	r2, #1
  40 0008 5242     		rsbs	r2, r2, #0
  41 000a 8260     		str	r2, [r0, #8]
  47:Source\FreeRTOS\10.0.1\Source/list.c **** 
  48:Source\FreeRTOS\10.0.1\Source/list.c **** 	/* The list end next and previous pointers point to itself so we know
  49:Source\FreeRTOS\10.0.1\Source/list.c **** 	when the list is empty. */
  50:Source\FreeRTOS\10.0.1\Source/list.c **** 	pxList->xListEnd.pxNext = ( ListItem_t * ) &( pxList->xListEnd );	/*lint !e826 !e740 The mini list
  42              		.loc 1 50 0
  43 000c C360     		str	r3, [r0, #12]
  51:Source\FreeRTOS\10.0.1\Source/list.c **** 	pxList->xListEnd.pxPrevious = ( ListItem_t * ) &( pxList->xListEnd );/*lint !e826 !e740 The mini l
  44              		.loc 1 51 0
  45 000e 0361     		str	r3, [r0, #16]
  52:Source\FreeRTOS\10.0.1\Source/list.c **** 
  53:Source\FreeRTOS\10.0.1\Source/list.c **** 	pxList->uxNumberOfItems = ( UBaseType_t ) 0U;
  46              		.loc 1 53 0
  47 0010 0023     		movs	r3, #0
  48 0012 0360     		str	r3, [r0]
  54:Source\FreeRTOS\10.0.1\Source/list.c **** 
  55:Source\FreeRTOS\10.0.1\Source/list.c **** 	/* Write known values into the list if
  56:Source\FreeRTOS\10.0.1\Source/list.c **** 	configUSE_LIST_DATA_INTEGRITY_CHECK_BYTES is set to 1. */
  57:Source\FreeRTOS\10.0.1\Source/list.c **** 	listSET_LIST_INTEGRITY_CHECK_1_VALUE( pxList );
  58:Source\FreeRTOS\10.0.1\Source/list.c **** 	listSET_LIST_INTEGRITY_CHECK_2_VALUE( pxList );
  59:Source\FreeRTOS\10.0.1\Source/list.c **** }
  49              		.loc 1 59 0
  50              		@ sp needed
  51 0014 7047     		bx	lr
  52              		.cfi_endproc
  53              	.LFE36:
  54              		.size	vListInitialise, .-vListInitialise
  55 0016 C046     		.section	.text.vListInitialiseItem,"ax",%progbits
ARM GAS  C:\Users\Phuong\AppData\Local\Temp\ccgITuwc.s 			page 3


  56              		.align	2
  57              		.global	vListInitialiseItem
  58              		.code	16
  59              		.thumb_func
  60              		.type	vListInitialiseItem, %function
  61              	vListInitialiseItem:
  62              	.LFB37:
  60:Source\FreeRTOS\10.0.1\Source/list.c **** /*-----------------------------------------------------------*/
  61:Source\FreeRTOS\10.0.1\Source/list.c **** 
  62:Source\FreeRTOS\10.0.1\Source/list.c **** void vListInitialiseItem( ListItem_t * const pxItem )
  63:Source\FreeRTOS\10.0.1\Source/list.c **** {
  63              		.loc 1 63 0
  64              		.cfi_startproc
  65              		@ args = 0, pretend = 0, frame = 0
  66              		@ frame_needed = 0, uses_anonymous_args = 0
  67              		@ link register save eliminated.
  68              	.LVL1:
  64:Source\FreeRTOS\10.0.1\Source/list.c **** 	/* Make sure the list item is not recorded as being on a list. */
  65:Source\FreeRTOS\10.0.1\Source/list.c **** 	pxItem->pvContainer = NULL;
  69              		.loc 1 65 0
  70 0000 0023     		movs	r3, #0
  71 0002 0361     		str	r3, [r0, #16]
  66:Source\FreeRTOS\10.0.1\Source/list.c **** 
  67:Source\FreeRTOS\10.0.1\Source/list.c **** 	/* Write known values into the list item if
  68:Source\FreeRTOS\10.0.1\Source/list.c **** 	configUSE_LIST_DATA_INTEGRITY_CHECK_BYTES is set to 1. */
  69:Source\FreeRTOS\10.0.1\Source/list.c **** 	listSET_FIRST_LIST_ITEM_INTEGRITY_CHECK_VALUE( pxItem );
  70:Source\FreeRTOS\10.0.1\Source/list.c **** 	listSET_SECOND_LIST_ITEM_INTEGRITY_CHECK_VALUE( pxItem );
  71:Source\FreeRTOS\10.0.1\Source/list.c **** }
  72              		.loc 1 71 0
  73              		@ sp needed
  74 0004 7047     		bx	lr
  75              		.cfi_endproc
  76              	.LFE37:
  77              		.size	vListInitialiseItem, .-vListInitialiseItem
  78 0006 C046     		.section	.text.vListInsertEnd,"ax",%progbits
  79              		.align	2
  80              		.global	vListInsertEnd
  81              		.code	16
  82              		.thumb_func
  83              		.type	vListInsertEnd, %function
  84              	vListInsertEnd:
  85              	.LFB38:
  72:Source\FreeRTOS\10.0.1\Source/list.c **** /*-----------------------------------------------------------*/
  73:Source\FreeRTOS\10.0.1\Source/list.c **** 
  74:Source\FreeRTOS\10.0.1\Source/list.c **** void vListInsertEnd( List_t * const pxList, ListItem_t * const pxNewListItem )
  75:Source\FreeRTOS\10.0.1\Source/list.c **** {
  86              		.loc 1 75 0
  87              		.cfi_startproc
  88              		@ args = 0, pretend = 0, frame = 0
  89              		@ frame_needed = 0, uses_anonymous_args = 0
  90              		@ link register save eliminated.
  91              	.LVL2:
  76:Source\FreeRTOS\10.0.1\Source/list.c **** ListItem_t * const pxIndex = pxList->pxIndex;
  92              		.loc 1 76 0
  93 0000 4368     		ldr	r3, [r0, #4]
  94              	.LVL3:
  77:Source\FreeRTOS\10.0.1\Source/list.c **** 
ARM GAS  C:\Users\Phuong\AppData\Local\Temp\ccgITuwc.s 			page 4


  78:Source\FreeRTOS\10.0.1\Source/list.c **** 	/* Only effective when configASSERT() is also defined, these tests may catch
  79:Source\FreeRTOS\10.0.1\Source/list.c **** 	the list data structures being overwritten in memory.  They will not catch
  80:Source\FreeRTOS\10.0.1\Source/list.c **** 	data errors caused by incorrect configuration or use of FreeRTOS. */
  81:Source\FreeRTOS\10.0.1\Source/list.c **** 	listTEST_LIST_INTEGRITY( pxList );
  82:Source\FreeRTOS\10.0.1\Source/list.c **** 	listTEST_LIST_ITEM_INTEGRITY( pxNewListItem );
  83:Source\FreeRTOS\10.0.1\Source/list.c **** 
  84:Source\FreeRTOS\10.0.1\Source/list.c **** 	/* Insert a new list item into pxList, but rather than sort the list,
  85:Source\FreeRTOS\10.0.1\Source/list.c **** 	makes the new list item the last item to be removed by a call to
  86:Source\FreeRTOS\10.0.1\Source/list.c **** 	listGET_OWNER_OF_NEXT_ENTRY(). */
  87:Source\FreeRTOS\10.0.1\Source/list.c **** 	pxNewListItem->pxNext = pxIndex;
  95              		.loc 1 87 0
  96 0002 4B60     		str	r3, [r1, #4]
  88:Source\FreeRTOS\10.0.1\Source/list.c **** 	pxNewListItem->pxPrevious = pxIndex->pxPrevious;
  97              		.loc 1 88 0
  98 0004 9A68     		ldr	r2, [r3, #8]
  99 0006 8A60     		str	r2, [r1, #8]
  89:Source\FreeRTOS\10.0.1\Source/list.c **** 
  90:Source\FreeRTOS\10.0.1\Source/list.c **** 	/* Only used during decision coverage testing. */
  91:Source\FreeRTOS\10.0.1\Source/list.c **** 	mtCOVERAGE_TEST_DELAY();
  92:Source\FreeRTOS\10.0.1\Source/list.c **** 
  93:Source\FreeRTOS\10.0.1\Source/list.c **** 	pxIndex->pxPrevious->pxNext = pxNewListItem;
 100              		.loc 1 93 0
 101 0008 9A68     		ldr	r2, [r3, #8]
 102 000a 5160     		str	r1, [r2, #4]
  94:Source\FreeRTOS\10.0.1\Source/list.c **** 	pxIndex->pxPrevious = pxNewListItem;
 103              		.loc 1 94 0
 104 000c 9960     		str	r1, [r3, #8]
  95:Source\FreeRTOS\10.0.1\Source/list.c **** 
  96:Source\FreeRTOS\10.0.1\Source/list.c **** 	/* Remember which list the item is in. */
  97:Source\FreeRTOS\10.0.1\Source/list.c **** 	pxNewListItem->pvContainer = ( void * ) pxList;
 105              		.loc 1 97 0
 106 000e 0861     		str	r0, [r1, #16]
  98:Source\FreeRTOS\10.0.1\Source/list.c **** 
  99:Source\FreeRTOS\10.0.1\Source/list.c **** 	( pxList->uxNumberOfItems )++;
 107              		.loc 1 99 0
 108 0010 0368     		ldr	r3, [r0]
 109              	.LVL4:
 110 0012 0133     		adds	r3, r3, #1
 111 0014 0360     		str	r3, [r0]
 100:Source\FreeRTOS\10.0.1\Source/list.c **** }
 112              		.loc 1 100 0
 113              		@ sp needed
 114 0016 7047     		bx	lr
 115              		.cfi_endproc
 116              	.LFE38:
 117              		.size	vListInsertEnd, .-vListInsertEnd
 118              		.section	.text.vListInsert,"ax",%progbits
 119              		.align	2
 120              		.global	vListInsert
 121              		.code	16
 122              		.thumb_func
 123              		.type	vListInsert, %function
 124              	vListInsert:
 125              	.LFB39:
 101:Source\FreeRTOS\10.0.1\Source/list.c **** /*-----------------------------------------------------------*/
 102:Source\FreeRTOS\10.0.1\Source/list.c **** 
 103:Source\FreeRTOS\10.0.1\Source/list.c **** void vListInsert( List_t * const pxList, ListItem_t * const pxNewListItem )
ARM GAS  C:\Users\Phuong\AppData\Local\Temp\ccgITuwc.s 			page 5


 104:Source\FreeRTOS\10.0.1\Source/list.c **** {
 126              		.loc 1 104 0
 127              		.cfi_startproc
 128              		@ args = 0, pretend = 0, frame = 0
 129              		@ frame_needed = 0, uses_anonymous_args = 0
 130              	.LVL5:
 131 0000 30B5     		push	{r4, r5, lr}
 132              		.cfi_def_cfa_offset 12
 133              		.cfi_offset 4, -12
 134              		.cfi_offset 5, -8
 135              		.cfi_offset 14, -4
 105:Source\FreeRTOS\10.0.1\Source/list.c **** ListItem_t *pxIterator;
 106:Source\FreeRTOS\10.0.1\Source/list.c **** const TickType_t xValueOfInsertion = pxNewListItem->xItemValue;
 136              		.loc 1 106 0
 137 0002 0C68     		ldr	r4, [r1]
 138              	.LVL6:
 107:Source\FreeRTOS\10.0.1\Source/list.c **** 
 108:Source\FreeRTOS\10.0.1\Source/list.c **** 	/* Only effective when configASSERT() is also defined, these tests may catch
 109:Source\FreeRTOS\10.0.1\Source/list.c **** 	the list data structures being overwritten in memory.  They will not catch
 110:Source\FreeRTOS\10.0.1\Source/list.c **** 	data errors caused by incorrect configuration or use of FreeRTOS. */
 111:Source\FreeRTOS\10.0.1\Source/list.c **** 	listTEST_LIST_INTEGRITY( pxList );
 112:Source\FreeRTOS\10.0.1\Source/list.c **** 	listTEST_LIST_ITEM_INTEGRITY( pxNewListItem );
 113:Source\FreeRTOS\10.0.1\Source/list.c **** 
 114:Source\FreeRTOS\10.0.1\Source/list.c **** 	/* Insert the new list item into the list, sorted in xItemValue order.
 115:Source\FreeRTOS\10.0.1\Source/list.c **** 
 116:Source\FreeRTOS\10.0.1\Source/list.c **** 	If the list already contains a list item with the same item value then the
 117:Source\FreeRTOS\10.0.1\Source/list.c **** 	new list item should be placed after it.  This ensures that TCB's which are
 118:Source\FreeRTOS\10.0.1\Source/list.c **** 	stored in ready lists (all of which have the same xItemValue value) get a
 119:Source\FreeRTOS\10.0.1\Source/list.c **** 	share of the CPU.  However, if the xItemValue is the same as the back marker
 120:Source\FreeRTOS\10.0.1\Source/list.c **** 	the iteration loop below will not end.  Therefore the value is checked
 121:Source\FreeRTOS\10.0.1\Source/list.c **** 	first, and the algorithm slightly modified if necessary. */
 122:Source\FreeRTOS\10.0.1\Source/list.c **** 	if( xValueOfInsertion == portMAX_DELAY )
 139              		.loc 1 122 0
 140 0004 631C     		adds	r3, r4, #1
 141 0006 01D1     		bne	.L5
 123:Source\FreeRTOS\10.0.1\Source/list.c **** 	{
 124:Source\FreeRTOS\10.0.1\Source/list.c **** 		pxIterator = pxList->xListEnd.pxPrevious;
 142              		.loc 1 124 0
 143 0008 0269     		ldr	r2, [r0, #16]
 144              	.LVL7:
 145 000a 07E0     		b	.L6
 146              	.LVL8:
 147              	.L5:
 125:Source\FreeRTOS\10.0.1\Source/list.c **** 	}
 126:Source\FreeRTOS\10.0.1\Source/list.c **** 	else
 127:Source\FreeRTOS\10.0.1\Source/list.c **** 	{
 128:Source\FreeRTOS\10.0.1\Source/list.c **** 		/* *** NOTE ***********************************************************
 129:Source\FreeRTOS\10.0.1\Source/list.c **** 		If you find your application is crashing here then likely causes are
 130:Source\FreeRTOS\10.0.1\Source/list.c **** 		listed below.  In addition see http://www.freertos.org/FAQHelp.html for
 131:Source\FreeRTOS\10.0.1\Source/list.c **** 		more tips, and ensure configASSERT() is defined!
 132:Source\FreeRTOS\10.0.1\Source/list.c **** 		http://www.freertos.org/a00110.html#configASSERT
 133:Source\FreeRTOS\10.0.1\Source/list.c **** 
 134:Source\FreeRTOS\10.0.1\Source/list.c **** 			1) Stack overflow -
 135:Source\FreeRTOS\10.0.1\Source/list.c **** 			   see http://www.freertos.org/Stacks-and-stack-overflow-checking.html
 136:Source\FreeRTOS\10.0.1\Source/list.c **** 			2) Incorrect interrupt priority assignment, especially on Cortex-M
 137:Source\FreeRTOS\10.0.1\Source/list.c **** 			   parts where numerically high priority values denote low actual
 138:Source\FreeRTOS\10.0.1\Source/list.c **** 			   interrupt priorities, which can seem counter intuitive.  See
ARM GAS  C:\Users\Phuong\AppData\Local\Temp\ccgITuwc.s 			page 6


 139:Source\FreeRTOS\10.0.1\Source/list.c **** 			   http://www.freertos.org/RTOS-Cortex-M3-M4.html and the definition
 140:Source\FreeRTOS\10.0.1\Source/list.c **** 			   of configMAX_SYSCALL_INTERRUPT_PRIORITY on
 141:Source\FreeRTOS\10.0.1\Source/list.c **** 			   http://www.freertos.org/a00110.html
 142:Source\FreeRTOS\10.0.1\Source/list.c **** 			3) Calling an API function from within a critical section or when
 143:Source\FreeRTOS\10.0.1\Source/list.c **** 			   the scheduler is suspended, or calling an API function that does
 144:Source\FreeRTOS\10.0.1\Source/list.c **** 			   not end in "FromISR" from an interrupt.
 145:Source\FreeRTOS\10.0.1\Source/list.c **** 			4) Using a queue or semaphore before it has been initialised or
 146:Source\FreeRTOS\10.0.1\Source/list.c **** 			   before the scheduler has been started (are interrupts firing
 147:Source\FreeRTOS\10.0.1\Source/list.c **** 			   before vTaskStartScheduler() has been called?).
 148:Source\FreeRTOS\10.0.1\Source/list.c **** 		**********************************************************************/
 149:Source\FreeRTOS\10.0.1\Source/list.c **** 
 150:Source\FreeRTOS\10.0.1\Source/list.c **** 		for( pxIterator = ( ListItem_t * ) &( pxList->xListEnd ); pxIterator->pxNext->xItemValue <= xValu
 148              		.loc 1 150 0
 149 000c 0200     		movs	r2, r0
 150 000e 0832     		adds	r2, r2, #8
 151              	.LVL9:
 152 0010 00E0     		b	.L7
 153              	.L8:
 154 0012 1A00     		movs	r2, r3
 155              	.LVL10:
 156              	.L7:
 157              		.loc 1 150 0 is_stmt 0 discriminator 1
 158 0014 5368     		ldr	r3, [r2, #4]
 159 0016 1D68     		ldr	r5, [r3]
 160 0018 AC42     		cmp	r4, r5
 161 001a FAD2     		bcs	.L8
 162              	.L6:
 151:Source\FreeRTOS\10.0.1\Source/list.c **** 		{
 152:Source\FreeRTOS\10.0.1\Source/list.c **** 			/* There is nothing to do here, just iterating to the wanted
 153:Source\FreeRTOS\10.0.1\Source/list.c **** 			insertion position. */
 154:Source\FreeRTOS\10.0.1\Source/list.c **** 		}
 155:Source\FreeRTOS\10.0.1\Source/list.c **** 	}
 156:Source\FreeRTOS\10.0.1\Source/list.c **** 
 157:Source\FreeRTOS\10.0.1\Source/list.c **** 	pxNewListItem->pxNext = pxIterator->pxNext;
 163              		.loc 1 157 0 is_stmt 1
 164 001c 5368     		ldr	r3, [r2, #4]
 165 001e 4B60     		str	r3, [r1, #4]
 158:Source\FreeRTOS\10.0.1\Source/list.c **** 	pxNewListItem->pxNext->pxPrevious = pxNewListItem;
 166              		.loc 1 158 0
 167 0020 9960     		str	r1, [r3, #8]
 159:Source\FreeRTOS\10.0.1\Source/list.c **** 	pxNewListItem->pxPrevious = pxIterator;
 168              		.loc 1 159 0
 169 0022 8A60     		str	r2, [r1, #8]
 160:Source\FreeRTOS\10.0.1\Source/list.c **** 	pxIterator->pxNext = pxNewListItem;
 170              		.loc 1 160 0
 171 0024 5160     		str	r1, [r2, #4]
 161:Source\FreeRTOS\10.0.1\Source/list.c **** 
 162:Source\FreeRTOS\10.0.1\Source/list.c **** 	/* Remember which list the item is in.  This allows fast removal of the
 163:Source\FreeRTOS\10.0.1\Source/list.c **** 	item later. */
 164:Source\FreeRTOS\10.0.1\Source/list.c **** 	pxNewListItem->pvContainer = ( void * ) pxList;
 172              		.loc 1 164 0
 173 0026 0861     		str	r0, [r1, #16]
 165:Source\FreeRTOS\10.0.1\Source/list.c **** 
 166:Source\FreeRTOS\10.0.1\Source/list.c **** 	( pxList->uxNumberOfItems )++;
 174              		.loc 1 166 0
 175 0028 0368     		ldr	r3, [r0]
 176 002a 0133     		adds	r3, r3, #1
ARM GAS  C:\Users\Phuong\AppData\Local\Temp\ccgITuwc.s 			page 7


 177 002c 0360     		str	r3, [r0]
 167:Source\FreeRTOS\10.0.1\Source/list.c **** }
 178              		.loc 1 167 0
 179              		@ sp needed
 180              	.LVL11:
 181 002e 30BD     		pop	{r4, r5, pc}
 182              		.cfi_endproc
 183              	.LFE39:
 184              		.size	vListInsert, .-vListInsert
 185              		.section	.text.uxListRemove,"ax",%progbits
 186              		.align	2
 187              		.global	uxListRemove
 188              		.code	16
 189              		.thumb_func
 190              		.type	uxListRemove, %function
 191              	uxListRemove:
 192              	.LFB40:
 168:Source\FreeRTOS\10.0.1\Source/list.c **** /*-----------------------------------------------------------*/
 169:Source\FreeRTOS\10.0.1\Source/list.c **** 
 170:Source\FreeRTOS\10.0.1\Source/list.c **** UBaseType_t uxListRemove( ListItem_t * const pxItemToRemove )
 171:Source\FreeRTOS\10.0.1\Source/list.c **** {
 193              		.loc 1 171 0
 194              		.cfi_startproc
 195              		@ args = 0, pretend = 0, frame = 0
 196              		@ frame_needed = 0, uses_anonymous_args = 0
 197              		@ link register save eliminated.
 198              	.LVL12:
 172:Source\FreeRTOS\10.0.1\Source/list.c **** /* The list item knows which list it is in.  Obtain the list from the list
 173:Source\FreeRTOS\10.0.1\Source/list.c **** item. */
 174:Source\FreeRTOS\10.0.1\Source/list.c **** List_t * const pxList = ( List_t * ) pxItemToRemove->pvContainer;
 199              		.loc 1 174 0
 200 0000 0369     		ldr	r3, [r0, #16]
 201              	.LVL13:
 175:Source\FreeRTOS\10.0.1\Source/list.c **** 
 176:Source\FreeRTOS\10.0.1\Source/list.c **** 	pxItemToRemove->pxNext->pxPrevious = pxItemToRemove->pxPrevious;
 202              		.loc 1 176 0
 203 0002 4268     		ldr	r2, [r0, #4]
 204 0004 8168     		ldr	r1, [r0, #8]
 205 0006 9160     		str	r1, [r2, #8]
 177:Source\FreeRTOS\10.0.1\Source/list.c **** 	pxItemToRemove->pxPrevious->pxNext = pxItemToRemove->pxNext;
 206              		.loc 1 177 0
 207 0008 8268     		ldr	r2, [r0, #8]
 208 000a 4168     		ldr	r1, [r0, #4]
 209 000c 5160     		str	r1, [r2, #4]
 178:Source\FreeRTOS\10.0.1\Source/list.c **** 
 179:Source\FreeRTOS\10.0.1\Source/list.c **** 	/* Only used during decision coverage testing. */
 180:Source\FreeRTOS\10.0.1\Source/list.c **** 	mtCOVERAGE_TEST_DELAY();
 181:Source\FreeRTOS\10.0.1\Source/list.c **** 
 182:Source\FreeRTOS\10.0.1\Source/list.c **** 	/* Make sure the index is left pointing to a valid item. */
 183:Source\FreeRTOS\10.0.1\Source/list.c **** 	if( pxList->pxIndex == pxItemToRemove )
 210              		.loc 1 183 0
 211 000e 5A68     		ldr	r2, [r3, #4]
 212 0010 9042     		cmp	r0, r2
 213 0012 01D1     		bne	.L10
 184:Source\FreeRTOS\10.0.1\Source/list.c **** 	{
 185:Source\FreeRTOS\10.0.1\Source/list.c **** 		pxList->pxIndex = pxItemToRemove->pxPrevious;
 214              		.loc 1 185 0
ARM GAS  C:\Users\Phuong\AppData\Local\Temp\ccgITuwc.s 			page 8


 215 0014 8268     		ldr	r2, [r0, #8]
 216 0016 5A60     		str	r2, [r3, #4]
 217              	.L10:
 186:Source\FreeRTOS\10.0.1\Source/list.c **** 	}
 187:Source\FreeRTOS\10.0.1\Source/list.c **** 	else
 188:Source\FreeRTOS\10.0.1\Source/list.c **** 	{
 189:Source\FreeRTOS\10.0.1\Source/list.c **** 		mtCOVERAGE_TEST_MARKER();
 190:Source\FreeRTOS\10.0.1\Source/list.c **** 	}
 191:Source\FreeRTOS\10.0.1\Source/list.c **** 
 192:Source\FreeRTOS\10.0.1\Source/list.c **** 	pxItemToRemove->pvContainer = NULL;
 218              		.loc 1 192 0
 219 0018 0022     		movs	r2, #0
 220 001a 0261     		str	r2, [r0, #16]
 193:Source\FreeRTOS\10.0.1\Source/list.c **** 	( pxList->uxNumberOfItems )--;
 221              		.loc 1 193 0
 222 001c 1A68     		ldr	r2, [r3]
 223 001e 013A     		subs	r2, r2, #1
 224 0020 1A60     		str	r2, [r3]
 194:Source\FreeRTOS\10.0.1\Source/list.c **** 
 195:Source\FreeRTOS\10.0.1\Source/list.c **** 	return pxList->uxNumberOfItems;
 225              		.loc 1 195 0
 226 0022 1868     		ldr	r0, [r3]
 227              	.LVL14:
 196:Source\FreeRTOS\10.0.1\Source/list.c **** }
 228              		.loc 1 196 0
 229              		@ sp needed
 230 0024 7047     		bx	lr
 231              		.cfi_endproc
 232              	.LFE40:
 233              		.size	uxListRemove, .-uxListRemove
 234 0026 C046     		.text
 235              	.Letext0:
 236              		.file 2 "c:\\program files (x86)\\cypress\\psoc creator\\4.2\\psoc creator\\import\\gnu\\arm\\5.4.
 237              		.file 3 "c:\\program files (x86)\\cypress\\psoc creator\\4.2\\psoc creator\\import\\gnu\\arm\\5.4.
 238              		.file 4 ".\\Source\\FreeRTOS\\10.0.1\\Source\\portable\\GCC\\CM0/portmacro.h"
 239              		.file 5 ".\\Source\\FreeRTOS\\10.0.1\\Source\\include/list.h"