ARM GAS  C:\Users\Phuong\AppData\Local\Temp\ccff32sI.s 			page 1


   1              		.syntax unified
   2              		.cpu cortex-m0plus
   3              		.fpu softvfp
   4              		.eabi_attribute 20, 1
   5              		.eabi_attribute 21, 1
   6              		.eabi_attribute 23, 3
   7              		.eabi_attribute 24, 1
   8              		.eabi_attribute 25, 1
   9              		.eabi_attribute 26, 1
  10              		.eabi_attribute 30, 1
  11              		.eabi_attribute 34, 0
  12              		.eabi_attribute 18, 4
  13              		.thumb
  14              		.syntax unified
  15              		.file	"lock.c"
  16              		.text
  17              	.Ltext0:
  18              		.cfi_sections	.debug_frame
  19              		.section	.text.Lock_Init,"ax",%progbits
  20              		.align	2
  21              		.global	Lock_Init
  22              		.code	16
  23              		.thumb_func
  24              		.type	Lock_Init, %function
  25              	Lock_Init:
  26              	.LFB37:
  27              		.file 1 "Source\\azure_iot_sdk\\c-utility\\pal\\freertos\\lock.c"
   1:Source\azure_iot_sdk\c-utility\pal\freertos/lock.c **** // Copyright (c) Microsoft. All rights reserved.
   2:Source\azure_iot_sdk\c-utility\pal\freertos/lock.c **** // Licensed under the MIT license. See LICENSE file in the project root for full license informatio
   3:Source\azure_iot_sdk\c-utility\pal\freertos/lock.c **** 
   4:Source\azure_iot_sdk\c-utility\pal\freertos/lock.c **** #include "azure_c_shared_utility/lock.h"
   5:Source\azure_iot_sdk\c-utility\pal\freertos/lock.c **** #include "azure_c_shared_utility/xlogging.h"
   6:Source\azure_iot_sdk\c-utility\pal\freertos/lock.c **** 
   7:Source\azure_iot_sdk\c-utility\pal\freertos/lock.c **** 
   8:Source\azure_iot_sdk\c-utility\pal\freertos/lock.c **** #include "FreeRTOS.h"
   9:Source\azure_iot_sdk\c-utility\pal\freertos/lock.c **** #include "semphr.h"
  10:Source\azure_iot_sdk\c-utility\pal\freertos/lock.c **** 
  11:Source\azure_iot_sdk\c-utility\pal\freertos/lock.c **** LOCK_HANDLE Lock_Init(void)
  12:Source\azure_iot_sdk\c-utility\pal\freertos/lock.c **** {
  28              		.loc 1 12 0
  29              		.cfi_startproc
  30              		@ args = 0, pretend = 0, frame = 0
  31              		@ frame_needed = 0, uses_anonymous_args = 0
  32 0000 30B5     		push	{r4, r5, lr}
  33              		.cfi_def_cfa_offset 12
  34              		.cfi_offset 4, -12
  35              		.cfi_offset 5, -8
  36              		.cfi_offset 14, -4
  37 0002 83B0     		sub	sp, sp, #12
  38              		.cfi_def_cfa_offset 24
  13:Source\azure_iot_sdk\c-utility\pal\freertos/lock.c ****     /* Codes_SRS_LOCK_10_002: [Lock_Init on success shall return a valid lock handle which should b
  14:Source\azure_iot_sdk\c-utility\pal\freertos/lock.c ****     /* Codes_SRS_LOCK_10_003: [Lock_Init on error shall return NULL ] */
  15:Source\azure_iot_sdk\c-utility\pal\freertos/lock.c ****     // xSemaphoreCreateMutex is the obvious choice, but it returns a recursive
  16:Source\azure_iot_sdk\c-utility\pal\freertos/lock.c ****     // sync object, which we do not want for the lock adapter.
  17:Source\azure_iot_sdk\c-utility\pal\freertos/lock.c ****     SemaphoreHandle_t result = xSemaphoreCreateBinary();
  39              		.loc 1 17 0
  40 0004 0322     		movs	r2, #3
ARM GAS  C:\Users\Phuong\AppData\Local\Temp\ccff32sI.s 			page 2


  41 0006 0021     		movs	r1, #0
  42 0008 0120     		movs	r0, #1
  43 000a FFF7FEFF 		bl	xQueueGenericCreate
  44              	.LVL0:
  45 000e 041E     		subs	r4, r0, #0
  46              	.LVL1:
  18:Source\azure_iot_sdk\c-utility\pal\freertos/lock.c ****     if (result != NULL)
  47              		.loc 1 18 0
  48 0010 18D0     		beq	.L2
  49              	.LBB2:
  19:Source\azure_iot_sdk\c-utility\pal\freertos/lock.c ****     {
  20:Source\azure_iot_sdk\c-utility\pal\freertos/lock.c ****         int gv = xSemaphoreGive(result);
  50              		.loc 1 20 0
  51 0012 0023     		movs	r3, #0
  52 0014 0022     		movs	r2, #0
  53 0016 0021     		movs	r1, #0
  54 0018 FFF7FEFF 		bl	xQueueGenericSend
  55              	.LVL2:
  21:Source\azure_iot_sdk\c-utility\pal\freertos/lock.c ****         if (gv != pdTRUE)
  56              		.loc 1 21 0
  57 001c 0128     		cmp	r0, #1
  58 001e 1ED0     		beq	.L3
  59              	.LBB3:
  22:Source\azure_iot_sdk\c-utility\pal\freertos/lock.c ****         {
  23:Source\azure_iot_sdk\c-utility\pal\freertos/lock.c ****             LogError("xSemaphoreGive failed after create.");
  60              		.loc 1 23 0 discriminator 3
  61 0020 FFF7FEFF 		bl	xlogging_get_log_function
  62              	.LVL3:
  63 0024 051E     		subs	r5, r0, #0
  64              	.LVL4:
  65 0026 08D0     		beq	.L4
  66              		.loc 1 23 0 is_stmt 0 discriminator 4
  67 0028 0E4B     		ldr	r3, .L5
  68 002a 0193     		str	r3, [sp, #4]
  69 002c 0123     		movs	r3, #1
  70 002e 0093     		str	r3, [sp]
  71 0030 1633     		adds	r3, r3, #22
  72 0032 0D4A     		ldr	r2, .L5+4
  73 0034 0D49     		ldr	r1, .L5+8
  74 0036 0020     		movs	r0, #0
  75              	.LVL5:
  76 0038 A847     		blx	r5
  77              	.LVL6:
  78              	.L4:
  79              	.LBE3:
  24:Source\azure_iot_sdk\c-utility\pal\freertos/lock.c ****             vSemaphoreDelete(result);
  80              		.loc 1 24 0 is_stmt 1
  81 003a 2000     		movs	r0, r4
  82 003c FFF7FEFF 		bl	vQueueDelete
  83              	.LVL7:
  25:Source\azure_iot_sdk\c-utility\pal\freertos/lock.c ****             result = NULL;
  84              		.loc 1 25 0
  85 0040 0024     		movs	r4, #0
  86 0042 0CE0     		b	.L3
  87              	.LVL8:
  88              	.L2:
  89              	.LBE2:
ARM GAS  C:\Users\Phuong\AppData\Local\Temp\ccff32sI.s 			page 3


  90              	.LBB4:
  26:Source\azure_iot_sdk\c-utility\pal\freertos/lock.c ****         }
  27:Source\azure_iot_sdk\c-utility\pal\freertos/lock.c ****     }
  28:Source\azure_iot_sdk\c-utility\pal\freertos/lock.c ****     else
  29:Source\azure_iot_sdk\c-utility\pal\freertos/lock.c ****     {
  30:Source\azure_iot_sdk\c-utility\pal\freertos/lock.c ****         LogError("xSemaphoreCreateBinary failed.");
  91              		.loc 1 30 0 discriminator 3
  92 0044 FFF7FEFF 		bl	xlogging_get_log_function
  93              	.LVL9:
  94 0048 051E     		subs	r5, r0, #0
  95              	.LVL10:
  96 004a 08D0     		beq	.L3
  97              		.loc 1 30 0 is_stmt 0 discriminator 4
  98 004c 084B     		ldr	r3, .L5+12
  99 004e 0193     		str	r3, [sp, #4]
 100 0050 0123     		movs	r3, #1
 101 0052 0093     		str	r3, [sp]
 102 0054 1D33     		adds	r3, r3, #29
 103 0056 044A     		ldr	r2, .L5+4
 104 0058 0449     		ldr	r1, .L5+8
 105 005a 0020     		movs	r0, #0
 106              	.LVL11:
 107 005c A847     		blx	r5
 108              	.LVL12:
 109              	.L3:
 110              	.LBE4:
  31:Source\azure_iot_sdk\c-utility\pal\freertos/lock.c ****     }
  32:Source\azure_iot_sdk\c-utility\pal\freertos/lock.c **** 
  33:Source\azure_iot_sdk\c-utility\pal\freertos/lock.c ****     return (LOCK_HANDLE)result;
  34:Source\azure_iot_sdk\c-utility\pal\freertos/lock.c **** }
 111              		.loc 1 34 0 is_stmt 1
 112 005e 2000     		movs	r0, r4
 113 0060 03B0     		add	sp, sp, #12
 114              		@ sp needed
 115              	.LVL13:
 116 0062 30BD     		pop	{r4, r5, pc}
 117              	.L6:
 118              		.align	2
 119              	.L5:
 120 0064 34000000 		.word	.LC3
 121 0068 00000000 		.word	.LANCHOR0
 122 006c 00000000 		.word	.LC1
 123 0070 58000000 		.word	.LC5
 124              		.cfi_endproc
 125              	.LFE37:
 126              		.size	Lock_Init, .-Lock_Init
 127              		.section	.text.Lock_Deinit,"ax",%progbits
 128              		.align	2
 129              		.global	Lock_Deinit
 130              		.code	16
 131              		.thumb_func
 132              		.type	Lock_Deinit, %function
 133              	Lock_Deinit:
 134              	.LFB38:
  35:Source\azure_iot_sdk\c-utility\pal\freertos/lock.c **** 
  36:Source\azure_iot_sdk\c-utility\pal\freertos/lock.c **** LOCK_RESULT Lock_Deinit(LOCK_HANDLE handle)
  37:Source\azure_iot_sdk\c-utility\pal\freertos/lock.c **** {
ARM GAS  C:\Users\Phuong\AppData\Local\Temp\ccff32sI.s 			page 4


 135              		.loc 1 37 0
 136              		.cfi_startproc
 137              		@ args = 0, pretend = 0, frame = 0
 138              		@ frame_needed = 0, uses_anonymous_args = 0
 139              	.LVL14:
 140 0000 10B5     		push	{r4, lr}
 141              		.cfi_def_cfa_offset 8
 142              		.cfi_offset 4, -8
 143              		.cfi_offset 14, -4
 144 0002 82B0     		sub	sp, sp, #8
 145              		.cfi_def_cfa_offset 16
  38:Source\azure_iot_sdk\c-utility\pal\freertos/lock.c ****     LOCK_RESULT result;
  39:Source\azure_iot_sdk\c-utility\pal\freertos/lock.c ****     if (handle == NULL)
 146              		.loc 1 39 0
 147 0004 0028     		cmp	r0, #0
 148 0006 0FD1     		bne	.L8
 149              	.LBB5:
  40:Source\azure_iot_sdk\c-utility\pal\freertos/lock.c ****     {
  41:Source\azure_iot_sdk\c-utility\pal\freertos/lock.c ****         /* Codes_SRS_LOCK_10_007: [Lock_Deinit on NULL handle passed returns LOCK_ERROR] */
  42:Source\azure_iot_sdk\c-utility\pal\freertos/lock.c ****         LogError("Invalid argument; handle is NULL.");
 150              		.loc 1 42 0 discriminator 3
 151 0008 FFF7FEFF 		bl	xlogging_get_log_function
 152              	.LVL15:
 153 000c 041E     		subs	r4, r0, #0
 154              	.LVL16:
 155 000e 0FD0     		beq	.L10
 156              		.loc 1 42 0 is_stmt 0 discriminator 4
 157 0010 094B     		ldr	r3, .L11
 158 0012 0193     		str	r3, [sp, #4]
 159 0014 0123     		movs	r3, #1
 160 0016 0093     		str	r3, [sp]
 161 0018 2933     		adds	r3, r3, #41
 162 001a 084A     		ldr	r2, .L11+4
 163 001c 0C32     		adds	r2, r2, #12
 164 001e 0849     		ldr	r1, .L11+8
 165 0020 0020     		movs	r0, #0
 166              	.LVL17:
 167 0022 A047     		blx	r4
 168              	.LVL18:
 169              	.LBE5:
  43:Source\azure_iot_sdk\c-utility\pal\freertos/lock.c ****         result = LOCK_ERROR;
 170              		.loc 1 43 0 is_stmt 1 discriminator 4
 171 0024 0120     		movs	r0, #1
 172 0026 04E0     		b	.L9
 173              	.LVL19:
 174              	.L8:
  44:Source\azure_iot_sdk\c-utility\pal\freertos/lock.c ****     }
  45:Source\azure_iot_sdk\c-utility\pal\freertos/lock.c ****     else
  46:Source\azure_iot_sdk\c-utility\pal\freertos/lock.c ****     {
  47:Source\azure_iot_sdk\c-utility\pal\freertos/lock.c ****         /* Codes_SRS_LOCK_10_012: [Lock_Deinit frees the memory pointed by handle] */
  48:Source\azure_iot_sdk\c-utility\pal\freertos/lock.c ****         vSemaphoreDelete((SemaphoreHandle_t)handle);
 175              		.loc 1 48 0
 176 0028 FFF7FEFF 		bl	vQueueDelete
 177              	.LVL20:
  49:Source\azure_iot_sdk\c-utility\pal\freertos/lock.c ****         result = LOCK_OK;
 178              		.loc 1 49 0
 179 002c 0020     		movs	r0, #0
ARM GAS  C:\Users\Phuong\AppData\Local\Temp\ccff32sI.s 			page 5


 180 002e 00E0     		b	.L9
 181              	.LVL21:
 182              	.L10:
  43:Source\azure_iot_sdk\c-utility\pal\freertos/lock.c ****         result = LOCK_ERROR;
 183              		.loc 1 43 0
 184 0030 0120     		movs	r0, #1
 185              	.LVL22:
 186              	.L9:
  50:Source\azure_iot_sdk\c-utility\pal\freertos/lock.c ****     }
  51:Source\azure_iot_sdk\c-utility\pal\freertos/lock.c **** 
  52:Source\azure_iot_sdk\c-utility\pal\freertos/lock.c ****     return result;
  53:Source\azure_iot_sdk\c-utility\pal\freertos/lock.c **** }
 187              		.loc 1 53 0
 188 0032 02B0     		add	sp, sp, #8
 189              		@ sp needed
 190 0034 10BD     		pop	{r4, pc}
 191              	.L12:
 192 0036 C046     		.align	2
 193              	.L11:
 194 0038 78000000 		.word	.LC9
 195 003c 00000000 		.word	.LANCHOR0
 196 0040 00000000 		.word	.LC1
 197              		.cfi_endproc
 198              	.LFE38:
 199              		.size	Lock_Deinit, .-Lock_Deinit
 200              		.section	.text.Lock,"ax",%progbits
 201              		.align	2
 202              		.global	Lock
 203              		.code	16
 204              		.thumb_func
 205              		.type	Lock, %function
 206              	Lock:
 207              	.LFB39:
  54:Source\azure_iot_sdk\c-utility\pal\freertos/lock.c **** 
  55:Source\azure_iot_sdk\c-utility\pal\freertos/lock.c **** LOCK_RESULT Lock(LOCK_HANDLE handle)
  56:Source\azure_iot_sdk\c-utility\pal\freertos/lock.c **** {
 208              		.loc 1 56 0
 209              		.cfi_startproc
 210              		@ args = 0, pretend = 0, frame = 0
 211              		@ frame_needed = 0, uses_anonymous_args = 0
 212              	.LVL23:
 213 0000 10B5     		push	{r4, lr}
 214              		.cfi_def_cfa_offset 8
 215              		.cfi_offset 4, -8
 216              		.cfi_offset 14, -4
 217 0002 82B0     		sub	sp, sp, #8
 218              		.cfi_def_cfa_offset 16
  57:Source\azure_iot_sdk\c-utility\pal\freertos/lock.c ****     LOCK_RESULT result;
  58:Source\azure_iot_sdk\c-utility\pal\freertos/lock.c ****     if (handle == NULL)
 219              		.loc 1 58 0
 220 0004 0028     		cmp	r0, #0
 221 0006 0FD1     		bne	.L14
 222              	.LBB6:
  59:Source\azure_iot_sdk\c-utility\pal\freertos/lock.c ****     {
  60:Source\azure_iot_sdk\c-utility\pal\freertos/lock.c ****         /* Codes_SRS_LOCK_10_007: [Lock on NULL handle passed returns LOCK_ERROR] */
  61:Source\azure_iot_sdk\c-utility\pal\freertos/lock.c ****         LogError("Invalid argument; handle is NULL.");
 223              		.loc 1 61 0 discriminator 3
ARM GAS  C:\Users\Phuong\AppData\Local\Temp\ccff32sI.s 			page 6


 224 0008 FFF7FEFF 		bl	xlogging_get_log_function
 225              	.LVL24:
 226 000c 041E     		subs	r4, r0, #0
 227              	.LVL25:
 228 000e 21D0     		beq	.L17
 229              		.loc 1 61 0 is_stmt 0 discriminator 4
 230 0010 144B     		ldr	r3, .L20
 231 0012 0193     		str	r3, [sp, #4]
 232 0014 0123     		movs	r3, #1
 233 0016 0093     		str	r3, [sp]
 234 0018 3C33     		adds	r3, r3, #60
 235 001a 134A     		ldr	r2, .L20+4
 236 001c 1832     		adds	r2, r2, #24
 237 001e 1349     		ldr	r1, .L20+8
 238 0020 0020     		movs	r0, #0
 239              	.LVL26:
 240 0022 A047     		blx	r4
 241              	.LVL27:
 242              	.LBE6:
  62:Source\azure_iot_sdk\c-utility\pal\freertos/lock.c ****         result = LOCK_ERROR;
 243              		.loc 1 62 0 is_stmt 1 discriminator 4
 244 0024 0120     		movs	r0, #1
 245 0026 1AE0     		b	.L15
 246              	.LVL28:
 247              	.L14:
 248              	.LBB7:
  63:Source\azure_iot_sdk\c-utility\pal\freertos/lock.c ****     }
  64:Source\azure_iot_sdk\c-utility\pal\freertos/lock.c ****     else
  65:Source\azure_iot_sdk\c-utility\pal\freertos/lock.c ****     {
  66:Source\azure_iot_sdk\c-utility\pal\freertos/lock.c ****         int rv = xSemaphoreTake((SemaphoreHandle_t)handle, portMAX_DELAY);
 249              		.loc 1 66 0
 250 0028 0121     		movs	r1, #1
 251 002a 4942     		rsbs	r1, r1, #0
 252 002c FFF7FEFF 		bl	xQueueSemaphoreTake
 253              	.LVL29:
  67:Source\azure_iot_sdk\c-utility\pal\freertos/lock.c ****         switch (rv)
 254              		.loc 1 67 0
 255 0030 0128     		cmp	r0, #1
 256 0032 11D0     		beq	.L18
 257              	.LBB8:
  68:Source\azure_iot_sdk\c-utility\pal\freertos/lock.c ****         {
  69:Source\azure_iot_sdk\c-utility\pal\freertos/lock.c ****             case pdTRUE:
  70:Source\azure_iot_sdk\c-utility\pal\freertos/lock.c ****                 /* Codes_SRS_LOCK_10_005: [Lock on success shall return LOCK_OK] */
  71:Source\azure_iot_sdk\c-utility\pal\freertos/lock.c ****                 result = LOCK_OK;
  72:Source\azure_iot_sdk\c-utility\pal\freertos/lock.c ****                 break;
  73:Source\azure_iot_sdk\c-utility\pal\freertos/lock.c ****             default:
  74:Source\azure_iot_sdk\c-utility\pal\freertos/lock.c ****                 LogError("xSemaphoreTake failed.");
 258              		.loc 1 74 0
 259 0034 FFF7FEFF 		bl	xlogging_get_log_function
 260              	.LVL30:
 261 0038 041E     		subs	r4, r0, #0
 262              	.LVL31:
 263 003a 0FD0     		beq	.L19
 264              		.loc 1 74 0 is_stmt 0 discriminator 4
 265 003c 0C4B     		ldr	r3, .L20+12
 266 003e 0193     		str	r3, [sp, #4]
 267 0040 0123     		movs	r3, #1
ARM GAS  C:\Users\Phuong\AppData\Local\Temp\ccff32sI.s 			page 7


 268 0042 0093     		str	r3, [sp]
 269 0044 4933     		adds	r3, r3, #73
 270 0046 084A     		ldr	r2, .L20+4
 271 0048 1832     		adds	r2, r2, #24
 272 004a 0849     		ldr	r1, .L20+8
 273 004c 0020     		movs	r0, #0
 274              	.LVL32:
 275 004e A047     		blx	r4
 276              	.LVL33:
 277              	.LBE8:
  75:Source\azure_iot_sdk\c-utility\pal\freertos/lock.c ****                 /* Codes_SRS_LOCK_10_006: [Lock on error shall return LOCK_ERROR] */
  76:Source\azure_iot_sdk\c-utility\pal\freertos/lock.c ****                 result = LOCK_ERROR;
 278              		.loc 1 76 0 is_stmt 1 discriminator 4
 279 0050 0120     		movs	r0, #1
 280 0052 04E0     		b	.L15
 281              	.LVL34:
 282              	.L17:
 283              	.LBE7:
  62:Source\azure_iot_sdk\c-utility\pal\freertos/lock.c ****     }
 284              		.loc 1 62 0
 285 0054 0120     		movs	r0, #1
 286              	.LVL35:
 287 0056 02E0     		b	.L15
 288              	.LVL36:
 289              	.L18:
 290              	.LBB9:
  71:Source\azure_iot_sdk\c-utility\pal\freertos/lock.c ****                 break;
 291              		.loc 1 71 0
 292 0058 0020     		movs	r0, #0
 293              	.LVL37:
 294 005a 00E0     		b	.L15
 295              	.LVL38:
 296              	.L19:
 297              		.loc 1 76 0
 298 005c 0120     		movs	r0, #1
 299              	.LVL39:
 300              	.L15:
 301              	.LBE9:
  77:Source\azure_iot_sdk\c-utility\pal\freertos/lock.c ****                 break;
  78:Source\azure_iot_sdk\c-utility\pal\freertos/lock.c ****         }
  79:Source\azure_iot_sdk\c-utility\pal\freertos/lock.c ****     }
  80:Source\azure_iot_sdk\c-utility\pal\freertos/lock.c **** 
  81:Source\azure_iot_sdk\c-utility\pal\freertos/lock.c ****     return result;
  82:Source\azure_iot_sdk\c-utility\pal\freertos/lock.c **** }
 302              		.loc 1 82 0
 303 005e 02B0     		add	sp, sp, #8
 304              		@ sp needed
 305 0060 10BD     		pop	{r4, pc}
 306              	.L21:
 307 0062 C046     		.align	2
 308              	.L20:
 309 0064 78000000 		.word	.LC9
 310 0068 00000000 		.word	.LANCHOR0
 311 006c 00000000 		.word	.LC1
 312 0070 9C000000 		.word	.LC14
 313              		.cfi_endproc
 314              	.LFE39:
ARM GAS  C:\Users\Phuong\AppData\Local\Temp\ccff32sI.s 			page 8


 315              		.size	Lock, .-Lock
 316              		.section	.text.Unlock,"ax",%progbits
 317              		.align	2
 318              		.global	Unlock
 319              		.code	16
 320              		.thumb_func
 321              		.type	Unlock, %function
 322              	Unlock:
 323              	.LFB40:
  83:Source\azure_iot_sdk\c-utility\pal\freertos/lock.c **** 
  84:Source\azure_iot_sdk\c-utility\pal\freertos/lock.c **** LOCK_RESULT Unlock(LOCK_HANDLE handle)
  85:Source\azure_iot_sdk\c-utility\pal\freertos/lock.c **** {
 324              		.loc 1 85 0
 325              		.cfi_startproc
 326              		@ args = 0, pretend = 0, frame = 0
 327              		@ frame_needed = 0, uses_anonymous_args = 0
 328              	.LVL40:
 329 0000 10B5     		push	{r4, lr}
 330              		.cfi_def_cfa_offset 8
 331              		.cfi_offset 4, -8
 332              		.cfi_offset 14, -4
 333 0002 82B0     		sub	sp, sp, #8
 334              		.cfi_def_cfa_offset 16
  86:Source\azure_iot_sdk\c-utility\pal\freertos/lock.c ****     LOCK_RESULT result;
  87:Source\azure_iot_sdk\c-utility\pal\freertos/lock.c ****     if (handle == NULL)
 335              		.loc 1 87 0
 336 0004 0028     		cmp	r0, #0
 337 0006 0FD1     		bne	.L23
 338              	.LBB10:
  88:Source\azure_iot_sdk\c-utility\pal\freertos/lock.c ****     {
  89:Source\azure_iot_sdk\c-utility\pal\freertos/lock.c ****         /* Codes_SRS_LOCK_10_007: [Unlock on NULL handle passed returns LOCK_ERROR] */
  90:Source\azure_iot_sdk\c-utility\pal\freertos/lock.c ****         LogError("Invalid argument; handle is NULL.");
 339              		.loc 1 90 0 discriminator 3
 340 0008 FFF7FEFF 		bl	xlogging_get_log_function
 341              	.LVL41:
 342 000c 041E     		subs	r4, r0, #0
 343              	.LVL42:
 344 000e 22D0     		beq	.L26
 345              		.loc 1 90 0 is_stmt 0 discriminator 4
 346 0010 144B     		ldr	r3, .L29
 347 0012 0193     		str	r3, [sp, #4]
 348 0014 0123     		movs	r3, #1
 349 0016 0093     		str	r3, [sp]
 350 0018 5933     		adds	r3, r3, #89
 351 001a 134A     		ldr	r2, .L29+4
 352 001c 2032     		adds	r2, r2, #32
 353 001e 1349     		ldr	r1, .L29+8
 354 0020 0020     		movs	r0, #0
 355              	.LVL43:
 356 0022 A047     		blx	r4
 357              	.LVL44:
 358              	.LBE10:
  91:Source\azure_iot_sdk\c-utility\pal\freertos/lock.c ****         result = LOCK_ERROR;
 359              		.loc 1 91 0 is_stmt 1 discriminator 4
 360 0024 0120     		movs	r0, #1
 361 0026 1BE0     		b	.L24
 362              	.LVL45:
ARM GAS  C:\Users\Phuong\AppData\Local\Temp\ccff32sI.s 			page 9


 363              	.L23:
 364              	.LBB11:
  92:Source\azure_iot_sdk\c-utility\pal\freertos/lock.c ****     }
  93:Source\azure_iot_sdk\c-utility\pal\freertos/lock.c ****     else
  94:Source\azure_iot_sdk\c-utility\pal\freertos/lock.c ****     {
  95:Source\azure_iot_sdk\c-utility\pal\freertos/lock.c ****         int rv = xSemaphoreGive((SemaphoreHandle_t)handle);
 365              		.loc 1 95 0
 366 0028 0023     		movs	r3, #0
 367 002a 0022     		movs	r2, #0
 368 002c 0021     		movs	r1, #0
 369 002e FFF7FEFF 		bl	xQueueGenericSend
 370              	.LVL46:
  96:Source\azure_iot_sdk\c-utility\pal\freertos/lock.c ****         switch (rv)
 371              		.loc 1 96 0
 372 0032 0128     		cmp	r0, #1
 373 0034 11D0     		beq	.L27
 374              	.LBB12:
  97:Source\azure_iot_sdk\c-utility\pal\freertos/lock.c ****         {
  98:Source\azure_iot_sdk\c-utility\pal\freertos/lock.c ****             case pdTRUE:
  99:Source\azure_iot_sdk\c-utility\pal\freertos/lock.c ****                 /* Codes_SRS_LOCK_10_005: [Lock on success shall return LOCK_OK] */
 100:Source\azure_iot_sdk\c-utility\pal\freertos/lock.c ****                 result = LOCK_OK;
 101:Source\azure_iot_sdk\c-utility\pal\freertos/lock.c ****                 break;
 102:Source\azure_iot_sdk\c-utility\pal\freertos/lock.c ****             default:
 103:Source\azure_iot_sdk\c-utility\pal\freertos/lock.c ****                 LogError("xSemaphoreGive failed.");
 375              		.loc 1 103 0
 376 0036 FFF7FEFF 		bl	xlogging_get_log_function
 377              	.LVL47:
 378 003a 041E     		subs	r4, r0, #0
 379              	.LVL48:
 380 003c 0FD0     		beq	.L28
 381              		.loc 1 103 0 is_stmt 0 discriminator 4
 382 003e 0C4B     		ldr	r3, .L29+12
 383 0040 0193     		str	r3, [sp, #4]
 384 0042 0123     		movs	r3, #1
 385 0044 0093     		str	r3, [sp]
 386 0046 6633     		adds	r3, r3, #102
 387 0048 074A     		ldr	r2, .L29+4
 388 004a 2032     		adds	r2, r2, #32
 389 004c 0749     		ldr	r1, .L29+8
 390 004e 0020     		movs	r0, #0
 391              	.LVL49:
 392 0050 A047     		blx	r4
 393              	.LVL50:
 394              	.LBE12:
 104:Source\azure_iot_sdk\c-utility\pal\freertos/lock.c ****                 /* Codes_SRS_LOCK_10_006: [Lock on error shall return LOCK_ERROR] */
 105:Source\azure_iot_sdk\c-utility\pal\freertos/lock.c ****                 result = LOCK_ERROR;
 395              		.loc 1 105 0 is_stmt 1 discriminator 4
 396 0052 0120     		movs	r0, #1
 397 0054 04E0     		b	.L24
 398              	.LVL51:
 399              	.L26:
 400              	.LBE11:
  91:Source\azure_iot_sdk\c-utility\pal\freertos/lock.c ****     }
 401              		.loc 1 91 0
 402 0056 0120     		movs	r0, #1
 403              	.LVL52:
 404 0058 02E0     		b	.L24
ARM GAS  C:\Users\Phuong\AppData\Local\Temp\ccff32sI.s 			page 10


 405              	.LVL53:
 406              	.L27:
 407              	.LBB13:
 100:Source\azure_iot_sdk\c-utility\pal\freertos/lock.c ****                 break;
 408              		.loc 1 100 0
 409 005a 0020     		movs	r0, #0
 410              	.LVL54:
 411 005c 00E0     		b	.L24
 412              	.LVL55:
 413              	.L28:
 414              		.loc 1 105 0
 415 005e 0120     		movs	r0, #1
 416              	.LVL56:
 417              	.L24:
 418              	.LBE13:
 106:Source\azure_iot_sdk\c-utility\pal\freertos/lock.c ****                 break;
 107:Source\azure_iot_sdk\c-utility\pal\freertos/lock.c ****         }
 108:Source\azure_iot_sdk\c-utility\pal\freertos/lock.c ****     }
 109:Source\azure_iot_sdk\c-utility\pal\freertos/lock.c **** 
 110:Source\azure_iot_sdk\c-utility\pal\freertos/lock.c ****     return result;
 111:Source\azure_iot_sdk\c-utility\pal\freertos/lock.c **** }
 419              		.loc 1 111 0
 420 0060 02B0     		add	sp, sp, #8
 421              		@ sp needed
 422 0062 10BD     		pop	{r4, pc}
 423              	.L30:
 424              		.align	2
 425              	.L29:
 426 0064 78000000 		.word	.LC9
 427 0068 00000000 		.word	.LANCHOR0
 428 006c 00000000 		.word	.LC1
 429 0070 B4000000 		.word	.LC19
 430              		.cfi_endproc
 431              	.LFE40:
 432              		.size	Unlock, .-Unlock
 433              		.section	.rodata
 434              		.align	2
 435              		.set	.LANCHOR0,. + 0
 436              		.type	__func__.10827, %object
 437              		.size	__func__.10827, 10
 438              	__func__.10827:
 439 0000 4C6F636B 		.ascii	"Lock_Init\000"
 439      5F496E69 
 439      7400
 440 000a 0000     		.space	2
 441              		.type	__func__.10838, %object
 442              		.size	__func__.10838, 12
 443              	__func__.10838:
 444 000c 4C6F636B 		.ascii	"Lock_Deinit\000"
 444      5F446569 
 444      6E697400 
 445              		.type	__func__.10846, %object
 446              		.size	__func__.10846, 5
 447              	__func__.10846:
 448 0018 4C6F636B 		.ascii	"Lock\000"
 448      00
 449 001d 000000   		.space	3
ARM GAS  C:\Users\Phuong\AppData\Local\Temp\ccff32sI.s 			page 11


 450              		.type	__func__.10861, %object
 451              		.size	__func__.10861, 7
 452              	__func__.10861:
 453 0020 556E6C6F 		.ascii	"Unlock\000"
 453      636B00
 454              		.section	.rodata.str1.4,"aMS",%progbits,1
 455              		.align	2
 456              	.LC1:
 457 0000 536F7572 		.ascii	"Source\\azure_iot_sdk\\c-utility\\pal\\freertos\\lo"
 457      63655C61 
 457      7A757265 
 457      5F696F74 
 457      5F73646B 
 458 002e 636B2E63 		.ascii	"ck.c\000"
 458      00
 459 0033 00       		.space	1
 460              	.LC3:
 461 0034 7853656D 		.ascii	"xSemaphoreGive failed after create.\000"
 461      6170686F 
 461      72654769 
 461      76652066 
 461      61696C65 
 462              	.LC5:
 463 0058 7853656D 		.ascii	"xSemaphoreCreateBinary failed.\000"
 463      6170686F 
 463      72654372 
 463      65617465 
 463      42696E61 
 464 0077 00       		.space	1
 465              	.LC9:
 466 0078 496E7661 		.ascii	"Invalid argument; handle is NULL.\000"
 466      6C696420 
 466      61726775 
 466      6D656E74 
 466      3B206861 
 467 009a 0000     		.space	2
 468              	.LC14:
 469 009c 7853656D 		.ascii	"xSemaphoreTake failed.\000"
 469      6170686F 
 469      72655461 
 469      6B652066 
 469      61696C65 
 470 00b3 00       		.space	1
 471              	.LC19:
 472 00b4 7853656D 		.ascii	"xSemaphoreGive failed.\000"
 472      6170686F 
 472      72654769 
 472      76652066 
 472      61696C65 
 473              		.text
 474              	.Letext0:
 475              		.file 2 "c:\\program files (x86)\\cypress\\psoc creator\\4.2\\psoc creator\\import\\gnu\\arm\\5.4.
 476              		.file 3 ".\\Source\\azure_iot_sdk\\c-utility\\inc/azure_c_shared_utility/lock.h"
 477              		.file 4 "c:\\program files (x86)\\cypress\\psoc creator\\4.2\\psoc creator\\import\\gnu\\arm\\5.4.
 478              		.file 5 ".\\Source\\azure_iot_sdk\\c-utility\\inc/azure_c_shared_utility/xlogging.h"
 479              		.file 6 ".\\Source\\FreeRTOS\\10.0.1\\Source\\portable\\GCC\\CM0/portmacro.h"
 480              		.file 7 ".\\Source\\FreeRTOS\\10.0.1\\Source\\include/queue.h"
ARM GAS  C:\Users\Phuong\AppData\Local\Temp\ccff32sI.s 			page 12


 481              		.file 8 ".\\Source\\FreeRTOS\\10.0.1\\Source\\include/semphr.h"