ARM GAS  C:\Users\Phuong\AppData\Local\Temp\cczAMJrc.s 			page 1


   1              		.syntax unified
   2              		.cpu cortex-m0plus
   3              		.fpu softvfp
   4              		.eabi_attribute 20, 1
   5              		.eabi_attribute 21, 1
   6              		.eabi_attribute 23, 3
   7              		.eabi_attribute 24, 1
   8              		.eabi_attribute 25, 1
   9              		.eabi_attribute 26, 1
  10              		.eabi_attribute 30, 1
  11              		.eabi_attribute 34, 0
  12              		.eabi_attribute 18, 4
  13              		.thumb
  14              		.syntax unified
  15              		.file	"map.c"
  16              		.text
  17              	.Ltext0:
  18              		.cfi_sections	.debug_frame
  19              		.section	.text.findKey,"ax",%progbits
  20              		.align	2
  21              		.code	16
  22              		.thumb_func
  23              		.type	findKey, %function
  24              	findKey:
  25              	.LFB9:
  26              		.file 1 "Source\\azure_iot_sdk\\c-utility\\src\\map.c"
   1:Source\azure_iot_sdk\c-utility\src/map.c **** // Copyright (c) Microsoft. All rights reserved.
   2:Source\azure_iot_sdk\c-utility\src/map.c **** // Licensed under the MIT license. See LICENSE file in the project root for full license informatio
   3:Source\azure_iot_sdk\c-utility\src/map.c **** 
   4:Source\azure_iot_sdk\c-utility\src/map.c **** #include <stdlib.h>
   5:Source\azure_iot_sdk\c-utility\src/map.c **** #include "azure_c_shared_utility/gballoc.h"
   6:Source\azure_iot_sdk\c-utility\src/map.c **** #include "azure_c_shared_utility/map.h"
   7:Source\azure_iot_sdk\c-utility\src/map.c **** #include "azure_c_shared_utility/optimize_size.h"
   8:Source\azure_iot_sdk\c-utility\src/map.c **** #include "azure_c_shared_utility/xlogging.h"
   9:Source\azure_iot_sdk\c-utility\src/map.c **** #include "azure_c_shared_utility/strings.h"
  10:Source\azure_iot_sdk\c-utility\src/map.c **** 
  11:Source\azure_iot_sdk\c-utility\src/map.c **** DEFINE_ENUM_STRINGS(MAP_RESULT, MAP_RESULT_VALUES);
  12:Source\azure_iot_sdk\c-utility\src/map.c **** 
  13:Source\azure_iot_sdk\c-utility\src/map.c **** typedef struct MAP_HANDLE_DATA_TAG
  14:Source\azure_iot_sdk\c-utility\src/map.c **** {
  15:Source\azure_iot_sdk\c-utility\src/map.c ****     char** keys;
  16:Source\azure_iot_sdk\c-utility\src/map.c ****     char** values;
  17:Source\azure_iot_sdk\c-utility\src/map.c ****     size_t count;
  18:Source\azure_iot_sdk\c-utility\src/map.c ****     MAP_FILTER_CALLBACK mapFilterCallback;
  19:Source\azure_iot_sdk\c-utility\src/map.c **** }MAP_HANDLE_DATA;
  20:Source\azure_iot_sdk\c-utility\src/map.c **** 
  21:Source\azure_iot_sdk\c-utility\src/map.c **** #define LOG_MAP_ERROR LogError("result = %s", ENUM_TO_STRING(MAP_RESULT, result));
  22:Source\azure_iot_sdk\c-utility\src/map.c **** 
  23:Source\azure_iot_sdk\c-utility\src/map.c **** MAP_HANDLE Map_Create(MAP_FILTER_CALLBACK mapFilterFunc)
  24:Source\azure_iot_sdk\c-utility\src/map.c **** {
  25:Source\azure_iot_sdk\c-utility\src/map.c ****     /*Codes_SRS_MAP_02_001: [Map_Create shall create a new, empty map.]*/
  26:Source\azure_iot_sdk\c-utility\src/map.c ****     MAP_HANDLE_DATA* result = (MAP_HANDLE_DATA*)malloc(sizeof(MAP_HANDLE_DATA));
  27:Source\azure_iot_sdk\c-utility\src/map.c ****     /*Codes_SRS_MAP_02_002: [If during creation there are any error, then Map_Create shall return N
  28:Source\azure_iot_sdk\c-utility\src/map.c ****     if (result != NULL)
  29:Source\azure_iot_sdk\c-utility\src/map.c ****     {
  30:Source\azure_iot_sdk\c-utility\src/map.c ****         /*Codes_SRS_MAP_02_003: [Otherwise, it shall return a non-NULL handle that can be used in s
  31:Source\azure_iot_sdk\c-utility\src/map.c ****         result->keys = NULL;
ARM GAS  C:\Users\Phuong\AppData\Local\Temp\cczAMJrc.s 			page 2


  32:Source\azure_iot_sdk\c-utility\src/map.c ****         result->values = NULL;
  33:Source\azure_iot_sdk\c-utility\src/map.c ****         result->count = 0;
  34:Source\azure_iot_sdk\c-utility\src/map.c ****         result->mapFilterCallback = mapFilterFunc;
  35:Source\azure_iot_sdk\c-utility\src/map.c ****     }
  36:Source\azure_iot_sdk\c-utility\src/map.c ****     return (MAP_HANDLE)result;
  37:Source\azure_iot_sdk\c-utility\src/map.c **** }
  38:Source\azure_iot_sdk\c-utility\src/map.c **** 
  39:Source\azure_iot_sdk\c-utility\src/map.c **** void Map_Destroy(MAP_HANDLE handle)
  40:Source\azure_iot_sdk\c-utility\src/map.c **** {
  41:Source\azure_iot_sdk\c-utility\src/map.c ****     /*Codes_SRS_MAP_02_005: [If parameter handle is NULL then Map_Destroy shall take no action.] */
  42:Source\azure_iot_sdk\c-utility\src/map.c ****     if (handle != NULL)
  43:Source\azure_iot_sdk\c-utility\src/map.c ****     {
  44:Source\azure_iot_sdk\c-utility\src/map.c ****         /*Codes_SRS_MAP_02_004: [Map_Destroy shall release all resources associated with the map.] 
  45:Source\azure_iot_sdk\c-utility\src/map.c ****         MAP_HANDLE_DATA* handleData = (MAP_HANDLE_DATA*)handle;
  46:Source\azure_iot_sdk\c-utility\src/map.c ****         size_t i;
  47:Source\azure_iot_sdk\c-utility\src/map.c **** 
  48:Source\azure_iot_sdk\c-utility\src/map.c ****         for (i = 0; i < handleData->count; i++)
  49:Source\azure_iot_sdk\c-utility\src/map.c ****         {
  50:Source\azure_iot_sdk\c-utility\src/map.c ****             free(handleData->keys[i]);
  51:Source\azure_iot_sdk\c-utility\src/map.c ****             free(handleData->values[i]);
  52:Source\azure_iot_sdk\c-utility\src/map.c ****         }
  53:Source\azure_iot_sdk\c-utility\src/map.c ****         free(handleData->keys);
  54:Source\azure_iot_sdk\c-utility\src/map.c ****         free(handleData->values);
  55:Source\azure_iot_sdk\c-utility\src/map.c ****         free(handleData);
  56:Source\azure_iot_sdk\c-utility\src/map.c ****     }
  57:Source\azure_iot_sdk\c-utility\src/map.c **** }
  58:Source\azure_iot_sdk\c-utility\src/map.c **** 
  59:Source\azure_iot_sdk\c-utility\src/map.c **** /*makes a copy of a vector of const char*, having size "size". source cannot be NULL*/
  60:Source\azure_iot_sdk\c-utility\src/map.c **** /*returns NULL if it fails*/
  61:Source\azure_iot_sdk\c-utility\src/map.c **** static char** Map_CloneVector(const char*const * source, size_t count)
  62:Source\azure_iot_sdk\c-utility\src/map.c **** {
  63:Source\azure_iot_sdk\c-utility\src/map.c ****     char** result;
  64:Source\azure_iot_sdk\c-utility\src/map.c ****     result = (char**)malloc(count *sizeof(char*));
  65:Source\azure_iot_sdk\c-utility\src/map.c ****     if (result == NULL)
  66:Source\azure_iot_sdk\c-utility\src/map.c ****     {
  67:Source\azure_iot_sdk\c-utility\src/map.c ****         /*do nothing, just return it (NULL)*/
  68:Source\azure_iot_sdk\c-utility\src/map.c ****     }
  69:Source\azure_iot_sdk\c-utility\src/map.c ****     else
  70:Source\azure_iot_sdk\c-utility\src/map.c ****     {
  71:Source\azure_iot_sdk\c-utility\src/map.c ****         size_t i;
  72:Source\azure_iot_sdk\c-utility\src/map.c ****         for (i = 0; i < count; i++)
  73:Source\azure_iot_sdk\c-utility\src/map.c ****         {
  74:Source\azure_iot_sdk\c-utility\src/map.c ****             if (mallocAndStrcpy_s(result + i, source[i]) != 0)
  75:Source\azure_iot_sdk\c-utility\src/map.c ****             {
  76:Source\azure_iot_sdk\c-utility\src/map.c ****                 break;
  77:Source\azure_iot_sdk\c-utility\src/map.c ****             }
  78:Source\azure_iot_sdk\c-utility\src/map.c ****         }
  79:Source\azure_iot_sdk\c-utility\src/map.c **** 
  80:Source\azure_iot_sdk\c-utility\src/map.c ****         if (i == count)
  81:Source\azure_iot_sdk\c-utility\src/map.c ****         {
  82:Source\azure_iot_sdk\c-utility\src/map.c ****             /*it is all good, proceed to return result*/
  83:Source\azure_iot_sdk\c-utility\src/map.c ****         }
  84:Source\azure_iot_sdk\c-utility\src/map.c ****         else
  85:Source\azure_iot_sdk\c-utility\src/map.c ****         {
  86:Source\azure_iot_sdk\c-utility\src/map.c ****             size_t j;
  87:Source\azure_iot_sdk\c-utility\src/map.c ****             for (j = 0; j < i; j++)
  88:Source\azure_iot_sdk\c-utility\src/map.c ****             {
ARM GAS  C:\Users\Phuong\AppData\Local\Temp\cczAMJrc.s 			page 3


  89:Source\azure_iot_sdk\c-utility\src/map.c ****                 free(result[j]);
  90:Source\azure_iot_sdk\c-utility\src/map.c ****             }
  91:Source\azure_iot_sdk\c-utility\src/map.c ****             free(result);
  92:Source\azure_iot_sdk\c-utility\src/map.c ****             result = NULL;
  93:Source\azure_iot_sdk\c-utility\src/map.c ****         }
  94:Source\azure_iot_sdk\c-utility\src/map.c ****     }
  95:Source\azure_iot_sdk\c-utility\src/map.c ****     return result;
  96:Source\azure_iot_sdk\c-utility\src/map.c **** }
  97:Source\azure_iot_sdk\c-utility\src/map.c **** 
  98:Source\azure_iot_sdk\c-utility\src/map.c **** /*Codes_SRS_MAP_02_039: [Map_Clone shall make a copy of the map indicated by parameter handle and r
  99:Source\azure_iot_sdk\c-utility\src/map.c **** MAP_HANDLE Map_Clone(MAP_HANDLE handle)
 100:Source\azure_iot_sdk\c-utility\src/map.c **** {
 101:Source\azure_iot_sdk\c-utility\src/map.c ****     MAP_HANDLE_DATA* result;
 102:Source\azure_iot_sdk\c-utility\src/map.c ****     if (handle == NULL)
 103:Source\azure_iot_sdk\c-utility\src/map.c ****     {
 104:Source\azure_iot_sdk\c-utility\src/map.c ****         /*Codes_SRS_MAP_02_038: [Map_Clone returns NULL if parameter handle is NULL.]*/
 105:Source\azure_iot_sdk\c-utility\src/map.c ****         result = NULL;
 106:Source\azure_iot_sdk\c-utility\src/map.c ****         LogError("invalid arg to Map_Clone (NULL)");
 107:Source\azure_iot_sdk\c-utility\src/map.c ****     }
 108:Source\azure_iot_sdk\c-utility\src/map.c ****     else
 109:Source\azure_iot_sdk\c-utility\src/map.c ****     {
 110:Source\azure_iot_sdk\c-utility\src/map.c ****         MAP_HANDLE_DATA * handleData = (MAP_HANDLE_DATA *)handle;
 111:Source\azure_iot_sdk\c-utility\src/map.c ****         result = (MAP_HANDLE_DATA*)malloc(sizeof(MAP_HANDLE_DATA));
 112:Source\azure_iot_sdk\c-utility\src/map.c ****         if (result == NULL)
 113:Source\azure_iot_sdk\c-utility\src/map.c ****         {
 114:Source\azure_iot_sdk\c-utility\src/map.c ****             /*Codes_SRS_MAP_02_047: [If during cloning, any operation fails, then Map_Clone shall r
 115:Source\azure_iot_sdk\c-utility\src/map.c ****             /*do nothing, proceed to return it, this is an error case*/
 116:Source\azure_iot_sdk\c-utility\src/map.c ****             LogError("unable to malloc");
 117:Source\azure_iot_sdk\c-utility\src/map.c ****         }
 118:Source\azure_iot_sdk\c-utility\src/map.c ****         else
 119:Source\azure_iot_sdk\c-utility\src/map.c ****         {
 120:Source\azure_iot_sdk\c-utility\src/map.c ****             if (handleData->count == 0)
 121:Source\azure_iot_sdk\c-utility\src/map.c ****             {
 122:Source\azure_iot_sdk\c-utility\src/map.c ****                 result->count = 0;
 123:Source\azure_iot_sdk\c-utility\src/map.c ****                 result->keys = NULL;
 124:Source\azure_iot_sdk\c-utility\src/map.c ****                 result->values = NULL;
 125:Source\azure_iot_sdk\c-utility\src/map.c ****                 result->mapFilterCallback = NULL;
 126:Source\azure_iot_sdk\c-utility\src/map.c ****             }
 127:Source\azure_iot_sdk\c-utility\src/map.c ****             else
 128:Source\azure_iot_sdk\c-utility\src/map.c ****             {
 129:Source\azure_iot_sdk\c-utility\src/map.c ****                 result->mapFilterCallback = handleData->mapFilterCallback;
 130:Source\azure_iot_sdk\c-utility\src/map.c ****                 result->count = handleData->count;
 131:Source\azure_iot_sdk\c-utility\src/map.c ****                 if( (result->keys = Map_CloneVector((const char* const*)handleData->keys, handleDat
 132:Source\azure_iot_sdk\c-utility\src/map.c ****                 {
 133:Source\azure_iot_sdk\c-utility\src/map.c ****                     /*Codes_SRS_MAP_02_047: [If during cloning, any operation fails, then Map_Clone
 134:Source\azure_iot_sdk\c-utility\src/map.c ****                     LogError("unable to clone keys");
 135:Source\azure_iot_sdk\c-utility\src/map.c ****                     free(result);
 136:Source\azure_iot_sdk\c-utility\src/map.c ****                     result = NULL;
 137:Source\azure_iot_sdk\c-utility\src/map.c ****                 }
 138:Source\azure_iot_sdk\c-utility\src/map.c ****                 else if ((result->values = Map_CloneVector((const char* const*)handleData->values, 
 139:Source\azure_iot_sdk\c-utility\src/map.c ****                 {
 140:Source\azure_iot_sdk\c-utility\src/map.c ****                     size_t i;
 141:Source\azure_iot_sdk\c-utility\src/map.c ****                     /*Codes_SRS_MAP_02_047: [If during cloning, any operation fails, then Map_Clone
 142:Source\azure_iot_sdk\c-utility\src/map.c ****                     LogError("unable to clone values");
 143:Source\azure_iot_sdk\c-utility\src/map.c ****                     for (i = 0; i < result->count; i++)
 144:Source\azure_iot_sdk\c-utility\src/map.c ****                     {
 145:Source\azure_iot_sdk\c-utility\src/map.c ****                         free(result->keys[i]);
ARM GAS  C:\Users\Phuong\AppData\Local\Temp\cczAMJrc.s 			page 4


 146:Source\azure_iot_sdk\c-utility\src/map.c ****                     }
 147:Source\azure_iot_sdk\c-utility\src/map.c ****                     free(result->keys);
 148:Source\azure_iot_sdk\c-utility\src/map.c ****                     free(result);
 149:Source\azure_iot_sdk\c-utility\src/map.c ****                     result = NULL;
 150:Source\azure_iot_sdk\c-utility\src/map.c ****                 }
 151:Source\azure_iot_sdk\c-utility\src/map.c ****                 else
 152:Source\azure_iot_sdk\c-utility\src/map.c ****                 {
 153:Source\azure_iot_sdk\c-utility\src/map.c ****                     /*all fine, return it*/
 154:Source\azure_iot_sdk\c-utility\src/map.c ****                 }
 155:Source\azure_iot_sdk\c-utility\src/map.c ****             }
 156:Source\azure_iot_sdk\c-utility\src/map.c ****         }
 157:Source\azure_iot_sdk\c-utility\src/map.c ****     }
 158:Source\azure_iot_sdk\c-utility\src/map.c ****     return (MAP_HANDLE)result;
 159:Source\azure_iot_sdk\c-utility\src/map.c **** }
 160:Source\azure_iot_sdk\c-utility\src/map.c **** 
 161:Source\azure_iot_sdk\c-utility\src/map.c **** static int Map_IncreaseStorageKeysValues(MAP_HANDLE_DATA* handleData)
 162:Source\azure_iot_sdk\c-utility\src/map.c **** {
 163:Source\azure_iot_sdk\c-utility\src/map.c ****     int result;
 164:Source\azure_iot_sdk\c-utility\src/map.c ****     char** newKeys = (char**)realloc(handleData->keys, (handleData->count + 1) * sizeof(char*));
 165:Source\azure_iot_sdk\c-utility\src/map.c ****     if (newKeys == NULL)
 166:Source\azure_iot_sdk\c-utility\src/map.c ****     {
 167:Source\azure_iot_sdk\c-utility\src/map.c ****         LogError("realloc error");
 168:Source\azure_iot_sdk\c-utility\src/map.c ****         result = __FAILURE__;
 169:Source\azure_iot_sdk\c-utility\src/map.c ****     }
 170:Source\azure_iot_sdk\c-utility\src/map.c ****     else
 171:Source\azure_iot_sdk\c-utility\src/map.c ****     {
 172:Source\azure_iot_sdk\c-utility\src/map.c ****         char** newValues;
 173:Source\azure_iot_sdk\c-utility\src/map.c ****         handleData->keys = newKeys;
 174:Source\azure_iot_sdk\c-utility\src/map.c ****         handleData->keys[handleData->count] = NULL;
 175:Source\azure_iot_sdk\c-utility\src/map.c ****         newValues = (char**)realloc(handleData->values, (handleData->count + 1) * sizeof(char*));
 176:Source\azure_iot_sdk\c-utility\src/map.c ****         if (newValues == NULL)
 177:Source\azure_iot_sdk\c-utility\src/map.c ****         {
 178:Source\azure_iot_sdk\c-utility\src/map.c ****             LogError("realloc error");
 179:Source\azure_iot_sdk\c-utility\src/map.c ****             if (handleData->count == 0) /*avoiding an implementation defined behavior */
 180:Source\azure_iot_sdk\c-utility\src/map.c ****             {
 181:Source\azure_iot_sdk\c-utility\src/map.c ****                 free(handleData->keys);
 182:Source\azure_iot_sdk\c-utility\src/map.c ****                 handleData->keys = NULL;
 183:Source\azure_iot_sdk\c-utility\src/map.c ****             }
 184:Source\azure_iot_sdk\c-utility\src/map.c ****             else
 185:Source\azure_iot_sdk\c-utility\src/map.c ****             {
 186:Source\azure_iot_sdk\c-utility\src/map.c ****                 char** undoneKeys = (char**)realloc(handleData->keys, (handleData->count) * sizeof(
 187:Source\azure_iot_sdk\c-utility\src/map.c ****                 if (undoneKeys == NULL)
 188:Source\azure_iot_sdk\c-utility\src/map.c ****                 {
 189:Source\azure_iot_sdk\c-utility\src/map.c ****                     LogError("CATASTROPHIC error, unable to undo through realloc to a smaller size"
 190:Source\azure_iot_sdk\c-utility\src/map.c ****                 }
 191:Source\azure_iot_sdk\c-utility\src/map.c ****                 else
 192:Source\azure_iot_sdk\c-utility\src/map.c ****                 {
 193:Source\azure_iot_sdk\c-utility\src/map.c ****                     handleData->keys = undoneKeys;
 194:Source\azure_iot_sdk\c-utility\src/map.c ****                 }
 195:Source\azure_iot_sdk\c-utility\src/map.c ****             }
 196:Source\azure_iot_sdk\c-utility\src/map.c ****             result = __FAILURE__;
 197:Source\azure_iot_sdk\c-utility\src/map.c ****         }
 198:Source\azure_iot_sdk\c-utility\src/map.c ****         else
 199:Source\azure_iot_sdk\c-utility\src/map.c ****         {
 200:Source\azure_iot_sdk\c-utility\src/map.c ****             handleData->values = newValues;
 201:Source\azure_iot_sdk\c-utility\src/map.c ****             handleData->values[handleData->count] = NULL;
 202:Source\azure_iot_sdk\c-utility\src/map.c ****             handleData->count++;
ARM GAS  C:\Users\Phuong\AppData\Local\Temp\cczAMJrc.s 			page 5


 203:Source\azure_iot_sdk\c-utility\src/map.c ****             result = 0;
 204:Source\azure_iot_sdk\c-utility\src/map.c ****         }
 205:Source\azure_iot_sdk\c-utility\src/map.c ****     }
 206:Source\azure_iot_sdk\c-utility\src/map.c ****     return result;
 207:Source\azure_iot_sdk\c-utility\src/map.c **** }
 208:Source\azure_iot_sdk\c-utility\src/map.c **** 
 209:Source\azure_iot_sdk\c-utility\src/map.c **** static void Map_DecreaseStorageKeysValues(MAP_HANDLE_DATA* handleData)
 210:Source\azure_iot_sdk\c-utility\src/map.c **** {
 211:Source\azure_iot_sdk\c-utility\src/map.c ****     if (handleData->count == 1)
 212:Source\azure_iot_sdk\c-utility\src/map.c ****     {
 213:Source\azure_iot_sdk\c-utility\src/map.c ****         free(handleData->keys);
 214:Source\azure_iot_sdk\c-utility\src/map.c ****         handleData->keys = NULL;
 215:Source\azure_iot_sdk\c-utility\src/map.c ****         free(handleData->values);
 216:Source\azure_iot_sdk\c-utility\src/map.c ****         handleData->values = NULL;
 217:Source\azure_iot_sdk\c-utility\src/map.c ****         handleData->count = 0;
 218:Source\azure_iot_sdk\c-utility\src/map.c ****         handleData->mapFilterCallback = NULL;
 219:Source\azure_iot_sdk\c-utility\src/map.c ****     }
 220:Source\azure_iot_sdk\c-utility\src/map.c ****     else
 221:Source\azure_iot_sdk\c-utility\src/map.c ****     {
 222:Source\azure_iot_sdk\c-utility\src/map.c ****         /*certainly > 1...*/
 223:Source\azure_iot_sdk\c-utility\src/map.c ****         char** undoneValues;
 224:Source\azure_iot_sdk\c-utility\src/map.c ****         char** undoneKeys = (char**)realloc(handleData->keys, sizeof(char*)* (handleData->count - 1
 225:Source\azure_iot_sdk\c-utility\src/map.c ****         if (undoneKeys == NULL)
 226:Source\azure_iot_sdk\c-utility\src/map.c ****         {
 227:Source\azure_iot_sdk\c-utility\src/map.c ****             LogError("CATASTROPHIC error, unable to undo through realloc to a smaller size");
 228:Source\azure_iot_sdk\c-utility\src/map.c ****         }
 229:Source\azure_iot_sdk\c-utility\src/map.c ****         else
 230:Source\azure_iot_sdk\c-utility\src/map.c ****         {
 231:Source\azure_iot_sdk\c-utility\src/map.c ****             handleData->keys = undoneKeys;
 232:Source\azure_iot_sdk\c-utility\src/map.c ****         }
 233:Source\azure_iot_sdk\c-utility\src/map.c **** 
 234:Source\azure_iot_sdk\c-utility\src/map.c ****         undoneValues = (char**)realloc(handleData->values, sizeof(char*)* (handleData->count - 1));
 235:Source\azure_iot_sdk\c-utility\src/map.c ****         if (undoneValues == NULL)
 236:Source\azure_iot_sdk\c-utility\src/map.c ****         {
 237:Source\azure_iot_sdk\c-utility\src/map.c ****             LogError("CATASTROPHIC error, unable to undo through realloc to a smaller size");
 238:Source\azure_iot_sdk\c-utility\src/map.c ****         }
 239:Source\azure_iot_sdk\c-utility\src/map.c ****         else
 240:Source\azure_iot_sdk\c-utility\src/map.c ****         {
 241:Source\azure_iot_sdk\c-utility\src/map.c ****             handleData->values = undoneValues;
 242:Source\azure_iot_sdk\c-utility\src/map.c ****         }
 243:Source\azure_iot_sdk\c-utility\src/map.c **** 
 244:Source\azure_iot_sdk\c-utility\src/map.c ****         handleData->count--;
 245:Source\azure_iot_sdk\c-utility\src/map.c ****     }
 246:Source\azure_iot_sdk\c-utility\src/map.c **** }
 247:Source\azure_iot_sdk\c-utility\src/map.c **** 
 248:Source\azure_iot_sdk\c-utility\src/map.c **** static char** findKey(MAP_HANDLE_DATA* handleData, const char* key)
 249:Source\azure_iot_sdk\c-utility\src/map.c **** {
  27              		.loc 1 249 0
  28              		.cfi_startproc
  29              		@ args = 0, pretend = 0, frame = 8
  30              		@ frame_needed = 0, uses_anonymous_args = 0
  31              	.LVL0:
  32 0000 F0B5     		push	{r4, r5, r6, r7, lr}
  33              		.cfi_def_cfa_offset 20
  34              		.cfi_offset 4, -20
  35              		.cfi_offset 5, -16
  36              		.cfi_offset 6, -12
ARM GAS  C:\Users\Phuong\AppData\Local\Temp\cczAMJrc.s 			page 6


  37              		.cfi_offset 7, -8
  38              		.cfi_offset 14, -4
  39 0002 83B0     		sub	sp, sp, #12
  40              		.cfi_def_cfa_offset 32
  41 0004 0700     		movs	r7, r0
  42 0006 0191     		str	r1, [sp, #4]
 250:Source\azure_iot_sdk\c-utility\src/map.c ****     char** result;
 251:Source\azure_iot_sdk\c-utility\src/map.c ****     if (handleData->keys == NULL)
  43              		.loc 1 251 0
  44 0008 0668     		ldr	r6, [r0]
  45 000a 002E     		cmp	r6, #0
  46 000c 0FD0     		beq	.L5
  47 000e 0025     		movs	r5, #0
  48 0010 08E0     		b	.L3
  49              	.LVL1:
  50              	.L4:
  51              	.LBB2:
 252:Source\azure_iot_sdk\c-utility\src/map.c ****     {
 253:Source\azure_iot_sdk\c-utility\src/map.c ****         result = NULL;
 254:Source\azure_iot_sdk\c-utility\src/map.c ****     }
 255:Source\azure_iot_sdk\c-utility\src/map.c ****     else
 256:Source\azure_iot_sdk\c-utility\src/map.c ****     {
 257:Source\azure_iot_sdk\c-utility\src/map.c ****         size_t i;
 258:Source\azure_iot_sdk\c-utility\src/map.c ****         result = NULL;
 259:Source\azure_iot_sdk\c-utility\src/map.c ****         for (i = 0; i < handleData->count; i++)
 260:Source\azure_iot_sdk\c-utility\src/map.c ****         {
 261:Source\azure_iot_sdk\c-utility\src/map.c ****             if (strcmp(handleData->keys[i], key) == 0)
  52              		.loc 1 261 0
  53 0012 AC00     		lsls	r4, r5, #2
  54 0014 3419     		adds	r4, r6, r4
  55 0016 0199     		ldr	r1, [sp, #4]
  56 0018 2068     		ldr	r0, [r4]
  57 001a FFF7FEFF 		bl	strcmp
  58              	.LVL2:
  59 001e 0028     		cmp	r0, #0
  60 0020 06D0     		beq	.L2
 259:Source\azure_iot_sdk\c-utility\src/map.c ****         {
  61              		.loc 1 259 0 discriminator 2
  62 0022 0135     		adds	r5, r5, #1
  63              	.LVL3:
  64              	.L3:
 259:Source\azure_iot_sdk\c-utility\src/map.c ****         {
  65              		.loc 1 259 0 is_stmt 0 discriminator 1
  66 0024 BB68     		ldr	r3, [r7, #8]
  67 0026 9D42     		cmp	r5, r3
  68 0028 F3D3     		bcc	.L4
 258:Source\azure_iot_sdk\c-utility\src/map.c ****         for (i = 0; i < handleData->count; i++)
  69              		.loc 1 258 0 is_stmt 1
  70 002a 0024     		movs	r4, #0
  71 002c 00E0     		b	.L2
  72              	.LVL4:
  73              	.L5:
  74              	.LBE2:
 253:Source\azure_iot_sdk\c-utility\src/map.c ****     }
  75              		.loc 1 253 0
  76 002e 0024     		movs	r4, #0
  77              	.LVL5:
ARM GAS  C:\Users\Phuong\AppData\Local\Temp\cczAMJrc.s 			page 7


  78              	.L2:
 262:Source\azure_iot_sdk\c-utility\src/map.c ****             {
 263:Source\azure_iot_sdk\c-utility\src/map.c ****                 result = handleData->keys + i;
 264:Source\azure_iot_sdk\c-utility\src/map.c ****                 break;
 265:Source\azure_iot_sdk\c-utility\src/map.c ****             }
 266:Source\azure_iot_sdk\c-utility\src/map.c ****         }
 267:Source\azure_iot_sdk\c-utility\src/map.c ****     }
 268:Source\azure_iot_sdk\c-utility\src/map.c ****     return result;
 269:Source\azure_iot_sdk\c-utility\src/map.c **** }
  79              		.loc 1 269 0
  80 0030 2000     		movs	r0, r4
  81 0032 03B0     		add	sp, sp, #12
  82              		@ sp needed
  83              	.LVL6:
  84              	.LVL7:
  85 0034 F0BD     		pop	{r4, r5, r6, r7, pc}
  86              		.cfi_endproc
  87              	.LFE9:
  88              		.size	findKey, .-findKey
  89 0036 C046     		.section	.text.findValue,"ax",%progbits
  90              		.align	2
  91              		.code	16
  92              		.thumb_func
  93              		.type	findValue, %function
  94              	findValue:
  95              	.LFB10:
 270:Source\azure_iot_sdk\c-utility\src/map.c **** 
 271:Source\azure_iot_sdk\c-utility\src/map.c **** static char** findValue(MAP_HANDLE_DATA* handleData, const char* value)
 272:Source\azure_iot_sdk\c-utility\src/map.c **** {
  96              		.loc 1 272 0
  97              		.cfi_startproc
  98              		@ args = 0, pretend = 0, frame = 8
  99              		@ frame_needed = 0, uses_anonymous_args = 0
 100              	.LVL8:
 101 0000 F0B5     		push	{r4, r5, r6, r7, lr}
 102              		.cfi_def_cfa_offset 20
 103              		.cfi_offset 4, -20
 104              		.cfi_offset 5, -16
 105              		.cfi_offset 6, -12
 106              		.cfi_offset 7, -8
 107              		.cfi_offset 14, -4
 108 0002 83B0     		sub	sp, sp, #12
 109              		.cfi_def_cfa_offset 32
 110 0004 0700     		movs	r7, r0
 111 0006 0191     		str	r1, [sp, #4]
 273:Source\azure_iot_sdk\c-utility\src/map.c ****     char** result;
 274:Source\azure_iot_sdk\c-utility\src/map.c ****     if (handleData->values == NULL)
 112              		.loc 1 274 0
 113 0008 4668     		ldr	r6, [r0, #4]
 114 000a 002E     		cmp	r6, #0
 115 000c 0FD0     		beq	.L10
 116 000e 0025     		movs	r5, #0
 117 0010 08E0     		b	.L8
 118              	.LVL9:
 119              	.L9:
 120              	.LBB3:
 275:Source\azure_iot_sdk\c-utility\src/map.c ****     {
ARM GAS  C:\Users\Phuong\AppData\Local\Temp\cczAMJrc.s 			page 8


 276:Source\azure_iot_sdk\c-utility\src/map.c ****         result = NULL;
 277:Source\azure_iot_sdk\c-utility\src/map.c ****     }
 278:Source\azure_iot_sdk\c-utility\src/map.c ****     else
 279:Source\azure_iot_sdk\c-utility\src/map.c ****     {
 280:Source\azure_iot_sdk\c-utility\src/map.c ****         size_t i;
 281:Source\azure_iot_sdk\c-utility\src/map.c ****         result = NULL;
 282:Source\azure_iot_sdk\c-utility\src/map.c ****         for (i = 0; i < handleData->count; i++)
 283:Source\azure_iot_sdk\c-utility\src/map.c ****         {
 284:Source\azure_iot_sdk\c-utility\src/map.c ****             if (strcmp(handleData->values[i], value) == 0)
 121              		.loc 1 284 0
 122 0012 AC00     		lsls	r4, r5, #2
 123 0014 3419     		adds	r4, r6, r4
 124 0016 0199     		ldr	r1, [sp, #4]
 125 0018 2068     		ldr	r0, [r4]
 126 001a FFF7FEFF 		bl	strcmp
 127              	.LVL10:
 128 001e 0028     		cmp	r0, #0
 129 0020 06D0     		beq	.L7
 282:Source\azure_iot_sdk\c-utility\src/map.c ****         {
 130              		.loc 1 282 0 discriminator 2
 131 0022 0135     		adds	r5, r5, #1
 132              	.LVL11:
 133              	.L8:
 282:Source\azure_iot_sdk\c-utility\src/map.c ****         {
 134              		.loc 1 282 0 is_stmt 0 discriminator 1
 135 0024 BB68     		ldr	r3, [r7, #8]
 136 0026 9D42     		cmp	r5, r3
 137 0028 F3D3     		bcc	.L9
 281:Source\azure_iot_sdk\c-utility\src/map.c ****         for (i = 0; i < handleData->count; i++)
 138              		.loc 1 281 0 is_stmt 1
 139 002a 0024     		movs	r4, #0
 140 002c 00E0     		b	.L7
 141              	.LVL12:
 142              	.L10:
 143              	.LBE3:
 276:Source\azure_iot_sdk\c-utility\src/map.c ****     }
 144              		.loc 1 276 0
 145 002e 0024     		movs	r4, #0
 146              	.LVL13:
 147              	.L7:
 285:Source\azure_iot_sdk\c-utility\src/map.c ****             {
 286:Source\azure_iot_sdk\c-utility\src/map.c ****                 result = handleData->values + i;
 287:Source\azure_iot_sdk\c-utility\src/map.c ****                 break;
 288:Source\azure_iot_sdk\c-utility\src/map.c ****             }
 289:Source\azure_iot_sdk\c-utility\src/map.c ****         }
 290:Source\azure_iot_sdk\c-utility\src/map.c ****     }
 291:Source\azure_iot_sdk\c-utility\src/map.c ****     return result;
 292:Source\azure_iot_sdk\c-utility\src/map.c **** }
 148              		.loc 1 292 0
 149 0030 2000     		movs	r0, r4
 150 0032 03B0     		add	sp, sp, #12
 151              		@ sp needed
 152              	.LVL14:
 153              	.LVL15:
 154 0034 F0BD     		pop	{r4, r5, r6, r7, pc}
 155              		.cfi_endproc
 156              	.LFE10:
ARM GAS  C:\Users\Phuong\AppData\Local\Temp\cczAMJrc.s 			page 9


 157              		.size	findValue, .-findValue
 158 0036 C046     		.section	.text.Map_CloneVector,"ax",%progbits
 159              		.align	2
 160              		.code	16
 161              		.thumb_func
 162              		.type	Map_CloneVector, %function
 163              	Map_CloneVector:
 164              	.LFB5:
  62:Source\azure_iot_sdk\c-utility\src/map.c ****     char** result;
 165              		.loc 1 62 0
 166              		.cfi_startproc
 167              		@ args = 0, pretend = 0, frame = 0
 168              		@ frame_needed = 0, uses_anonymous_args = 0
 169              	.LVL16:
 170 0000 F8B5     		push	{r3, r4, r5, r6, r7, lr}
 171              		.cfi_def_cfa_offset 24
 172              		.cfi_offset 3, -24
 173              		.cfi_offset 4, -20
 174              		.cfi_offset 5, -16
 175              		.cfi_offset 6, -12
 176              		.cfi_offset 7, -8
 177              		.cfi_offset 14, -4
 178 0002 0700     		movs	r7, r0
 179 0004 0E00     		movs	r6, r1
  64:Source\azure_iot_sdk\c-utility\src/map.c ****     if (result == NULL)
 180              		.loc 1 64 0
 181 0006 8800     		lsls	r0, r1, #2
 182              	.LVL17:
 183 0008 FFF7FEFF 		bl	malloc
 184              	.LVL18:
 185 000c 051E     		subs	r5, r0, #0
 186              	.LVL19:
  65:Source\azure_iot_sdk\c-utility\src/map.c ****     {
 187              		.loc 1 65 0
 188 000e 1AD0     		beq	.L12
 189 0010 0024     		movs	r4, #0
 190 0012 07E0     		b	.L13
 191              	.LVL20:
 192              	.L15:
 193              	.LBB4:
  74:Source\azure_iot_sdk\c-utility\src/map.c ****             {
 194              		.loc 1 74 0
 195 0014 A000     		lsls	r0, r4, #2
 196 0016 3958     		ldr	r1, [r7, r0]
 197 0018 2818     		adds	r0, r5, r0
 198 001a FFF7FEFF 		bl	mallocAndStrcpy_s
 199              	.LVL21:
 200 001e 0028     		cmp	r0, #0
 201 0020 02D1     		bne	.L14
  72:Source\azure_iot_sdk\c-utility\src/map.c ****         {
 202              		.loc 1 72 0 discriminator 2
 203 0022 0134     		adds	r4, r4, #1
 204              	.LVL22:
 205              	.L13:
  72:Source\azure_iot_sdk\c-utility\src/map.c ****         {
 206              		.loc 1 72 0 is_stmt 0 discriminator 1
 207 0024 B442     		cmp	r4, r6
ARM GAS  C:\Users\Phuong\AppData\Local\Temp\cczAMJrc.s 			page 10


 208 0026 F5D3     		bcc	.L15
 209              	.L14:
  80:Source\azure_iot_sdk\c-utility\src/map.c ****         {
 210              		.loc 1 80 0 is_stmt 1
 211 0028 B442     		cmp	r4, r6
 212 002a 0CD0     		beq	.L12
 213 002c 0026     		movs	r6, #0
 214              	.LVL23:
 215 002e 04E0     		b	.L16
 216              	.LVL24:
 217              	.L17:
 218              	.LBB5:
  89:Source\azure_iot_sdk\c-utility\src/map.c ****             }
 219              		.loc 1 89 0 discriminator 3
 220 0030 B300     		lsls	r3, r6, #2
 221 0032 E858     		ldr	r0, [r5, r3]
 222 0034 FFF7FEFF 		bl	free
 223              	.LVL25:
  87:Source\azure_iot_sdk\c-utility\src/map.c ****             {
 224              		.loc 1 87 0 discriminator 3
 225 0038 0136     		adds	r6, r6, #1
 226              	.LVL26:
 227              	.L16:
  87:Source\azure_iot_sdk\c-utility\src/map.c ****             {
 228              		.loc 1 87 0 is_stmt 0 discriminator 1
 229 003a B442     		cmp	r4, r6
 230 003c F8D8     		bhi	.L17
  91:Source\azure_iot_sdk\c-utility\src/map.c ****             result = NULL;
 231              		.loc 1 91 0 is_stmt 1
 232 003e 2800     		movs	r0, r5
 233 0040 FFF7FEFF 		bl	free
 234              	.LVL27:
  92:Source\azure_iot_sdk\c-utility\src/map.c ****         }
 235              		.loc 1 92 0
 236 0044 0025     		movs	r5, #0
 237              	.LVL28:
 238              	.L12:
 239              	.LBE5:
 240              	.LBE4:
  96:Source\azure_iot_sdk\c-utility\src/map.c **** 
 241              		.loc 1 96 0
 242 0046 2800     		movs	r0, r5
 243              		@ sp needed
 244              	.LVL29:
 245              	.LVL30:
 246 0048 F8BD     		pop	{r3, r4, r5, r6, r7, pc}
 247              		.cfi_endproc
 248              	.LFE5:
 249              		.size	Map_CloneVector, .-Map_CloneVector
 250 004a C046     		.section	.text.Map_IncreaseStorageKeysValues,"ax",%progbits
 251              		.align	2
 252              		.code	16
 253              		.thumb_func
 254              		.type	Map_IncreaseStorageKeysValues, %function
 255              	Map_IncreaseStorageKeysValues:
 256              	.LFB7:
 162:Source\azure_iot_sdk\c-utility\src/map.c ****     int result;
ARM GAS  C:\Users\Phuong\AppData\Local\Temp\cczAMJrc.s 			page 11


 257              		.loc 1 162 0
 258              		.cfi_startproc
 259              		@ args = 0, pretend = 0, frame = 0
 260              		@ frame_needed = 0, uses_anonymous_args = 0
 261              	.LVL31:
 262 0000 30B5     		push	{r4, r5, lr}
 263              		.cfi_def_cfa_offset 12
 264              		.cfi_offset 4, -12
 265              		.cfi_offset 5, -8
 266              		.cfi_offset 14, -4
 267 0002 83B0     		sub	sp, sp, #12
 268              		.cfi_def_cfa_offset 24
 269 0004 0400     		movs	r4, r0
 164:Source\azure_iot_sdk\c-utility\src/map.c ****     if (newKeys == NULL)
 270              		.loc 1 164 0
 271 0006 8368     		ldr	r3, [r0, #8]
 272 0008 591C     		adds	r1, r3, #1
 273 000a 8900     		lsls	r1, r1, #2
 274 000c 0068     		ldr	r0, [r0]
 275              	.LVL32:
 276 000e FFF7FEFF 		bl	realloc
 277              	.LVL33:
 165:Source\azure_iot_sdk\c-utility\src/map.c ****     {
 278              		.loc 1 165 0
 279 0012 0028     		cmp	r0, #0
 280 0014 0ED1     		bne	.L19
 281              	.LBB6:
 167:Source\azure_iot_sdk\c-utility\src/map.c ****         result = __FAILURE__;
 282              		.loc 1 167 0 discriminator 3
 283 0016 FFF7FEFF 		bl	xlogging_get_log_function
 284              	.LVL34:
 285 001a 041E     		subs	r4, r0, #0
 286              	.LVL35:
 287 001c 52D0     		beq	.L25
 167:Source\azure_iot_sdk\c-utility\src/map.c ****         result = __FAILURE__;
 288              		.loc 1 167 0 is_stmt 0 discriminator 4
 289 001e 2C4B     		ldr	r3, .L27
 290 0020 0193     		str	r3, [sp, #4]
 291 0022 0123     		movs	r3, #1
 292 0024 0093     		str	r3, [sp]
 293 0026 A633     		adds	r3, r3, #166
 294 0028 2A4A     		ldr	r2, .L27+4
 295 002a 2B49     		ldr	r1, .L27+8
 296 002c 0020     		movs	r0, #0
 297              	.LVL36:
 298 002e A047     		blx	r4
 299              	.LVL37:
 300              	.LBE6:
 168:Source\azure_iot_sdk\c-utility\src/map.c ****     }
 301              		.loc 1 168 0 is_stmt 1 discriminator 4
 302 0030 A820     		movs	r0, #168
 303 0032 4AE0     		b	.L20
 304              	.LVL38:
 305              	.L19:
 306              	.LBB7:
 173:Source\azure_iot_sdk\c-utility\src/map.c ****         handleData->keys[handleData->count] = NULL;
 307              		.loc 1 173 0
ARM GAS  C:\Users\Phuong\AppData\Local\Temp\cczAMJrc.s 			page 12


 308 0034 2060     		str	r0, [r4]
 174:Source\azure_iot_sdk\c-utility\src/map.c ****         newValues = (char**)realloc(handleData->values, (handleData->count + 1) * sizeof(char*));
 309              		.loc 1 174 0
 310 0036 A368     		ldr	r3, [r4, #8]
 311 0038 9B00     		lsls	r3, r3, #2
 312 003a C018     		adds	r0, r0, r3
 313              	.LVL39:
 314 003c 0023     		movs	r3, #0
 315 003e 0360     		str	r3, [r0]
 316              	.LVL40:
 175:Source\azure_iot_sdk\c-utility\src/map.c ****         if (newValues == NULL)
 317              		.loc 1 175 0
 318 0040 A368     		ldr	r3, [r4, #8]
 319 0042 591C     		adds	r1, r3, #1
 320 0044 8900     		lsls	r1, r1, #2
 321 0046 6068     		ldr	r0, [r4, #4]
 322 0048 FFF7FEFF 		bl	realloc
 323              	.LVL41:
 176:Source\azure_iot_sdk\c-utility\src/map.c ****         {
 324              		.loc 1 176 0
 325 004c 0028     		cmp	r0, #0
 326 004e 2ED1     		bne	.L21
 327              	.LBB8:
 178:Source\azure_iot_sdk\c-utility\src/map.c ****             if (handleData->count == 0) /*avoiding an implementation defined behavior */
 328              		.loc 1 178 0 discriminator 3
 329 0050 FFF7FEFF 		bl	xlogging_get_log_function
 330              	.LVL42:
 331 0054 051E     		subs	r5, r0, #0
 332              	.LVL43:
 333 0056 08D0     		beq	.L22
 178:Source\azure_iot_sdk\c-utility\src/map.c ****             if (handleData->count == 0) /*avoiding an implementation defined behavior */
 334              		.loc 1 178 0 is_stmt 0 discriminator 4
 335 0058 1D4B     		ldr	r3, .L27
 336 005a 0193     		str	r3, [sp, #4]
 337 005c 0123     		movs	r3, #1
 338 005e 0093     		str	r3, [sp]
 339 0060 B133     		adds	r3, r3, #177
 340 0062 1C4A     		ldr	r2, .L27+4
 341 0064 1C49     		ldr	r1, .L27+8
 342 0066 0020     		movs	r0, #0
 343              	.LVL44:
 344 0068 A847     		blx	r5
 345              	.LVL45:
 346              	.L22:
 347              	.LBE8:
 179:Source\azure_iot_sdk\c-utility\src/map.c ****             {
 348              		.loc 1 179 0 is_stmt 1
 349 006a A168     		ldr	r1, [r4, #8]
 350 006c 0029     		cmp	r1, #0
 351 006e 06D1     		bne	.L23
 181:Source\azure_iot_sdk\c-utility\src/map.c ****                 handleData->keys = NULL;
 352              		.loc 1 181 0
 353 0070 2068     		ldr	r0, [r4]
 354 0072 FFF7FEFF 		bl	free
 355              	.LVL46:
 182:Source\azure_iot_sdk\c-utility\src/map.c ****             }
 356              		.loc 1 182 0
ARM GAS  C:\Users\Phuong\AppData\Local\Temp\cczAMJrc.s 			page 13


 357 0076 0023     		movs	r3, #0
 358 0078 2360     		str	r3, [r4]
 196:Source\azure_iot_sdk\c-utility\src/map.c ****         }
 359              		.loc 1 196 0
 360 007a C420     		movs	r0, #196
 361 007c 25E0     		b	.L20
 362              	.L23:
 363              	.LBB9:
 186:Source\azure_iot_sdk\c-utility\src/map.c ****                 if (undoneKeys == NULL)
 364              		.loc 1 186 0
 365 007e 8900     		lsls	r1, r1, #2
 366 0080 2068     		ldr	r0, [r4]
 367 0082 FFF7FEFF 		bl	realloc
 368              	.LVL47:
 187:Source\azure_iot_sdk\c-utility\src/map.c ****                 {
 369              		.loc 1 187 0
 370 0086 0028     		cmp	r0, #0
 371 0088 0ED1     		bne	.L24
 372              	.LBB10:
 189:Source\azure_iot_sdk\c-utility\src/map.c ****                 }
 373              		.loc 1 189 0 discriminator 3
 374 008a FFF7FEFF 		bl	xlogging_get_log_function
 375              	.LVL48:
 376 008e 041E     		subs	r4, r0, #0
 377              	.LVL49:
 378 0090 1AD0     		beq	.L26
 189:Source\azure_iot_sdk\c-utility\src/map.c ****                 }
 379              		.loc 1 189 0 is_stmt 0 discriminator 4
 380 0092 124B     		ldr	r3, .L27+12
 381 0094 0193     		str	r3, [sp, #4]
 382 0096 0123     		movs	r3, #1
 383 0098 0093     		str	r3, [sp]
 384 009a BC33     		adds	r3, r3, #188
 385 009c 0D4A     		ldr	r2, .L27+4
 386 009e 0E49     		ldr	r1, .L27+8
 387 00a0 0020     		movs	r0, #0
 388              	.LVL50:
 389 00a2 A047     		blx	r4
 390              	.LVL51:
 391              	.LBE10:
 392              	.LBE9:
 196:Source\azure_iot_sdk\c-utility\src/map.c ****         }
 393              		.loc 1 196 0 is_stmt 1 discriminator 4
 394 00a4 C420     		movs	r0, #196
 395 00a6 10E0     		b	.L20
 396              	.LVL52:
 397              	.L24:
 398              	.LBB11:
 193:Source\azure_iot_sdk\c-utility\src/map.c ****                 }
 399              		.loc 1 193 0
 400 00a8 2060     		str	r0, [r4]
 401              	.LBE11:
 196:Source\azure_iot_sdk\c-utility\src/map.c ****         }
 402              		.loc 1 196 0
 403 00aa C420     		movs	r0, #196
 404              	.LVL53:
 405 00ac 0DE0     		b	.L20
ARM GAS  C:\Users\Phuong\AppData\Local\Temp\cczAMJrc.s 			page 14


 406              	.LVL54:
 407              	.L21:
 200:Source\azure_iot_sdk\c-utility\src/map.c ****             handleData->values[handleData->count] = NULL;
 408              		.loc 1 200 0
 409 00ae 6060     		str	r0, [r4, #4]
 201:Source\azure_iot_sdk\c-utility\src/map.c ****             handleData->count++;
 410              		.loc 1 201 0
 411 00b0 A368     		ldr	r3, [r4, #8]
 412 00b2 9B00     		lsls	r3, r3, #2
 413 00b4 C018     		adds	r0, r0, r3
 414              	.LVL55:
 415 00b6 0023     		movs	r3, #0
 416 00b8 0360     		str	r3, [r0]
 417              	.LVL56:
 202:Source\azure_iot_sdk\c-utility\src/map.c ****             result = 0;
 418              		.loc 1 202 0
 419 00ba A368     		ldr	r3, [r4, #8]
 420 00bc 0133     		adds	r3, r3, #1
 421 00be A360     		str	r3, [r4, #8]
 422              	.LVL57:
 203:Source\azure_iot_sdk\c-utility\src/map.c ****         }
 423              		.loc 1 203 0
 424 00c0 0020     		movs	r0, #0
 425 00c2 02E0     		b	.L20
 426              	.LVL58:
 427              	.L25:
 428              	.LBE7:
 168:Source\azure_iot_sdk\c-utility\src/map.c ****     }
 429              		.loc 1 168 0
 430 00c4 A820     		movs	r0, #168
 431              	.LVL59:
 432 00c6 00E0     		b	.L20
 433              	.LVL60:
 434              	.L26:
 435              	.LBB12:
 196:Source\azure_iot_sdk\c-utility\src/map.c ****         }
 436              		.loc 1 196 0
 437 00c8 C420     		movs	r0, #196
 438              	.LVL61:
 439              	.L20:
 440              	.LBE12:
 207:Source\azure_iot_sdk\c-utility\src/map.c **** 
 441              		.loc 1 207 0
 442 00ca 03B0     		add	sp, sp, #12
 443              		@ sp needed
 444 00cc 30BD     		pop	{r4, r5, pc}
 445              	.L28:
 446 00ce C046     		.align	2
 447              	.L27:
 448 00d0 2C000000 		.word	.LC3
 449 00d4 00000000 		.word	.LANCHOR0
 450 00d8 00000000 		.word	.LC1
 451 00dc 3C000000 		.word	.LC5
 452              		.cfi_endproc
 453              	.LFE7:
 454              		.size	Map_IncreaseStorageKeysValues, .-Map_IncreaseStorageKeysValues
 455              		.section	.text.Map_DecreaseStorageKeysValues,"ax",%progbits
ARM GAS  C:\Users\Phuong\AppData\Local\Temp\cczAMJrc.s 			page 15


 456              		.align	2
 457              		.code	16
 458              		.thumb_func
 459              		.type	Map_DecreaseStorageKeysValues, %function
 460              	Map_DecreaseStorageKeysValues:
 461              	.LFB8:
 210:Source\azure_iot_sdk\c-utility\src/map.c ****     if (handleData->count == 1)
 462              		.loc 1 210 0
 463              		.cfi_startproc
 464              		@ args = 0, pretend = 0, frame = 0
 465              		@ frame_needed = 0, uses_anonymous_args = 0
 466              	.LVL62:
 467 0000 30B5     		push	{r4, r5, lr}
 468              		.cfi_def_cfa_offset 12
 469              		.cfi_offset 4, -12
 470              		.cfi_offset 5, -8
 471              		.cfi_offset 14, -4
 472 0002 83B0     		sub	sp, sp, #12
 473              		.cfi_def_cfa_offset 24
 474 0004 0400     		movs	r4, r0
 211:Source\azure_iot_sdk\c-utility\src/map.c ****     {
 475              		.loc 1 211 0
 476 0006 8168     		ldr	r1, [r0, #8]
 477 0008 0129     		cmp	r1, #1
 478 000a 0BD1     		bne	.L30
 213:Source\azure_iot_sdk\c-utility\src/map.c ****         handleData->keys = NULL;
 479              		.loc 1 213 0
 480 000c 0068     		ldr	r0, [r0]
 481              	.LVL63:
 482 000e FFF7FEFF 		bl	free
 483              	.LVL64:
 214:Source\azure_iot_sdk\c-utility\src/map.c ****         free(handleData->values);
 484              		.loc 1 214 0
 485 0012 0025     		movs	r5, #0
 486 0014 2560     		str	r5, [r4]
 215:Source\azure_iot_sdk\c-utility\src/map.c ****         handleData->values = NULL;
 487              		.loc 1 215 0
 488 0016 6068     		ldr	r0, [r4, #4]
 489 0018 FFF7FEFF 		bl	free
 490              	.LVL65:
 216:Source\azure_iot_sdk\c-utility\src/map.c ****         handleData->count = 0;
 491              		.loc 1 216 0
 492 001c 6560     		str	r5, [r4, #4]
 217:Source\azure_iot_sdk\c-utility\src/map.c ****         handleData->mapFilterCallback = NULL;
 493              		.loc 1 217 0
 494 001e A560     		str	r5, [r4, #8]
 218:Source\azure_iot_sdk\c-utility\src/map.c ****     }
 495              		.loc 1 218 0
 496 0020 E560     		str	r5, [r4, #12]
 497 0022 35E0     		b	.L29
 498              	.LVL66:
 499              	.L30:
 500              	.LBB13:
 224:Source\azure_iot_sdk\c-utility\src/map.c ****         if (undoneKeys == NULL)
 501              		.loc 1 224 0
 502 0024 1B4B     		ldr	r3, .L36
 503 0026 9C46     		mov	ip, r3
ARM GAS  C:\Users\Phuong\AppData\Local\Temp\cczAMJrc.s 			page 16


 504 0028 6144     		add	r1, r1, ip
 505 002a 8900     		lsls	r1, r1, #2
 506 002c 0068     		ldr	r0, [r0]
 507              	.LVL67:
 508 002e FFF7FEFF 		bl	realloc
 509              	.LVL68:
 225:Source\azure_iot_sdk\c-utility\src/map.c ****         {
 510              		.loc 1 225 0
 511 0032 0028     		cmp	r0, #0
 512 0034 0ED1     		bne	.L32
 513              	.LBB14:
 227:Source\azure_iot_sdk\c-utility\src/map.c ****         }
 514              		.loc 1 227 0 discriminator 3
 515 0036 FFF7FEFF 		bl	xlogging_get_log_function
 516              	.LVL69:
 517 003a 051E     		subs	r5, r0, #0
 518              	.LVL70:
 519 003c 0BD0     		beq	.L33
 227:Source\azure_iot_sdk\c-utility\src/map.c ****         }
 520              		.loc 1 227 0 is_stmt 0 discriminator 4
 521 003e 164B     		ldr	r3, .L36+4
 522 0040 0193     		str	r3, [sp, #4]
 523 0042 0123     		movs	r3, #1
 524 0044 0093     		str	r3, [sp]
 525 0046 E233     		adds	r3, r3, #226
 526 0048 144A     		ldr	r2, .L36+8
 527 004a 2032     		adds	r2, r2, #32
 528 004c 1449     		ldr	r1, .L36+12
 529 004e 0020     		movs	r0, #0
 530              	.LVL71:
 531 0050 A847     		blx	r5
 532              	.LVL72:
 533 0052 00E0     		b	.L33
 534              	.LVL73:
 535              	.L32:
 536              	.LBE14:
 231:Source\azure_iot_sdk\c-utility\src/map.c ****         }
 537              		.loc 1 231 0 is_stmt 1
 538 0054 2060     		str	r0, [r4]
 539              	.LVL74:
 540              	.L33:
 234:Source\azure_iot_sdk\c-utility\src/map.c ****         if (undoneValues == NULL)
 541              		.loc 1 234 0
 542 0056 A368     		ldr	r3, [r4, #8]
 543 0058 0E4A     		ldr	r2, .L36
 544 005a 9446     		mov	ip, r2
 545 005c 6344     		add	r3, r3, ip
 546 005e 9900     		lsls	r1, r3, #2
 547 0060 6068     		ldr	r0, [r4, #4]
 548 0062 FFF7FEFF 		bl	realloc
 549              	.LVL75:
 235:Source\azure_iot_sdk\c-utility\src/map.c ****         {
 550              		.loc 1 235 0
 551 0066 0028     		cmp	r0, #0
 552 0068 0ED1     		bne	.L34
 553              	.LBB15:
 237:Source\azure_iot_sdk\c-utility\src/map.c ****         }
ARM GAS  C:\Users\Phuong\AppData\Local\Temp\cczAMJrc.s 			page 17


 554              		.loc 1 237 0 discriminator 3
 555 006a FFF7FEFF 		bl	xlogging_get_log_function
 556              	.LVL76:
 557 006e 051E     		subs	r5, r0, #0
 558              	.LVL77:
 559 0070 0BD0     		beq	.L35
 237:Source\azure_iot_sdk\c-utility\src/map.c ****         }
 560              		.loc 1 237 0 is_stmt 0 discriminator 4
 561 0072 094B     		ldr	r3, .L36+4
 562 0074 0193     		str	r3, [sp, #4]
 563 0076 0123     		movs	r3, #1
 564 0078 0093     		str	r3, [sp]
 565 007a EC33     		adds	r3, r3, #236
 566 007c 074A     		ldr	r2, .L36+8
 567 007e 2032     		adds	r2, r2, #32
 568 0080 0749     		ldr	r1, .L36+12
 569 0082 0020     		movs	r0, #0
 570              	.LVL78:
 571 0084 A847     		blx	r5
 572              	.LVL79:
 573 0086 00E0     		b	.L35
 574              	.LVL80:
 575              	.L34:
 576              	.LBE15:
 241:Source\azure_iot_sdk\c-utility\src/map.c ****         }
 577              		.loc 1 241 0 is_stmt 1
 578 0088 6060     		str	r0, [r4, #4]
 579              	.LVL81:
 580              	.L35:
 244:Source\azure_iot_sdk\c-utility\src/map.c ****     }
 581              		.loc 1 244 0
 582 008a A368     		ldr	r3, [r4, #8]
 583 008c 013B     		subs	r3, r3, #1
 584 008e A360     		str	r3, [r4, #8]
 585              	.L29:
 586              	.LBE13:
 246:Source\azure_iot_sdk\c-utility\src/map.c **** 
 587              		.loc 1 246 0
 588 0090 03B0     		add	sp, sp, #12
 589              		@ sp needed
 590              	.LVL82:
 591 0092 30BD     		pop	{r4, r5, pc}
 592              	.L37:
 593              		.align	2
 594              	.L36:
 595 0094 FFFFFF3F 		.word	1073741823
 596 0098 3C000000 		.word	.LC5
 597 009c 00000000 		.word	.LANCHOR0
 598 00a0 00000000 		.word	.LC1
 599              		.cfi_endproc
 600              	.LFE8:
 601              		.size	Map_DecreaseStorageKeysValues, .-Map_DecreaseStorageKeysValues
 602              		.section	.text.insertNewKeyValue,"ax",%progbits
 603              		.align	2
 604              		.code	16
 605              		.thumb_func
 606              		.type	insertNewKeyValue, %function
ARM GAS  C:\Users\Phuong\AppData\Local\Temp\cczAMJrc.s 			page 18


 607              	insertNewKeyValue:
 608              	.LFB11:
 293:Source\azure_iot_sdk\c-utility\src/map.c **** 
 294:Source\azure_iot_sdk\c-utility\src/map.c **** static int insertNewKeyValue(MAP_HANDLE_DATA* handleData, const char* key, const char* value)
 295:Source\azure_iot_sdk\c-utility\src/map.c **** {
 609              		.loc 1 295 0
 610              		.cfi_startproc
 611              		@ args = 0, pretend = 0, frame = 0
 612              		@ frame_needed = 0, uses_anonymous_args = 0
 613              	.LVL83:
 614 0000 70B5     		push	{r4, r5, r6, lr}
 615              		.cfi_def_cfa_offset 16
 616              		.cfi_offset 4, -16
 617              		.cfi_offset 5, -12
 618              		.cfi_offset 6, -8
 619              		.cfi_offset 14, -4
 620 0002 82B0     		sub	sp, sp, #8
 621              		.cfi_def_cfa_offset 24
 622 0004 0400     		movs	r4, r0
 623 0006 0D00     		movs	r5, r1
 624 0008 1600     		movs	r6, r2
 296:Source\azure_iot_sdk\c-utility\src/map.c ****     int result;
 297:Source\azure_iot_sdk\c-utility\src/map.c ****     if (Map_IncreaseStorageKeysValues(handleData) != 0) /*this increases handleData->count*/
 625              		.loc 1 297 0
 626 000a FFF7FEFF 		bl	Map_IncreaseStorageKeysValues
 627              	.LVL84:
 628 000e 0028     		cmp	r0, #0
 629 0010 4CD1     		bne	.L41
 298:Source\azure_iot_sdk\c-utility\src/map.c ****     {
 299:Source\azure_iot_sdk\c-utility\src/map.c ****         result = __FAILURE__;
 300:Source\azure_iot_sdk\c-utility\src/map.c ****     }
 301:Source\azure_iot_sdk\c-utility\src/map.c ****     else
 302:Source\azure_iot_sdk\c-utility\src/map.c ****     {
 303:Source\azure_iot_sdk\c-utility\src/map.c ****         if (mallocAndStrcpy_s(&(handleData->keys[handleData->count - 1]), key) != 0)
 630              		.loc 1 303 0
 631 0012 A368     		ldr	r3, [r4, #8]
 632 0014 2B4A     		ldr	r2, .L45
 633 0016 9446     		mov	ip, r2
 634 0018 6344     		add	r3, r3, ip
 635 001a 9800     		lsls	r0, r3, #2
 636 001c 2368     		ldr	r3, [r4]
 637 001e 9C46     		mov	ip, r3
 638 0020 6044     		add	r0, r0, ip
 639 0022 2900     		movs	r1, r5
 640 0024 FFF7FEFF 		bl	mallocAndStrcpy_s
 641              	.LVL85:
 642 0028 0028     		cmp	r0, #0
 643 002a 14D0     		beq	.L40
 304:Source\azure_iot_sdk\c-utility\src/map.c ****         {
 305:Source\azure_iot_sdk\c-utility\src/map.c ****             Map_DecreaseStorageKeysValues(handleData);
 644              		.loc 1 305 0
 645 002c 2000     		movs	r0, r4
 646 002e FFF7FEFF 		bl	Map_DecreaseStorageKeysValues
 647              	.LVL86:
 648              	.LBB16:
 306:Source\azure_iot_sdk\c-utility\src/map.c ****             LogError("unable to mallocAndStrcpy_s");
 649              		.loc 1 306 0
ARM GAS  C:\Users\Phuong\AppData\Local\Temp\cczAMJrc.s 			page 19


 650 0032 FFF7FEFF 		bl	xlogging_get_log_function
 651              	.LVL87:
 652 0036 041E     		subs	r4, r0, #0
 653              	.LVL88:
 654 0038 3BD0     		beq	.L42
 655              		.loc 1 306 0 is_stmt 0 discriminator 4
 656 003a 234B     		ldr	r3, .L45+4
 657 003c 0193     		str	r3, [sp, #4]
 658 003e 0123     		movs	r3, #1
 659 0040 0093     		str	r3, [sp]
 660 0042 3233     		adds	r3, r3, #50
 661 0044 FF33     		adds	r3, r3, #255
 662 0046 214A     		ldr	r2, .L45+8
 663 0048 4032     		adds	r2, r2, #64
 664 004a 2149     		ldr	r1, .L45+12
 665 004c 0020     		movs	r0, #0
 666              	.LVL89:
 667 004e A047     		blx	r4
 668              	.LVL90:
 669              	.LBE16:
 307:Source\azure_iot_sdk\c-utility\src/map.c ****             result = __FAILURE__;
 670              		.loc 1 307 0 is_stmt 1 discriminator 4
 671 0050 3420     		movs	r0, #52
 672 0052 FF30     		adds	r0, r0, #255
 673 0054 34E0     		b	.L39
 674              	.LVL91:
 675              	.L40:
 308:Source\azure_iot_sdk\c-utility\src/map.c ****         }
 309:Source\azure_iot_sdk\c-utility\src/map.c ****         else
 310:Source\azure_iot_sdk\c-utility\src/map.c ****         {
 311:Source\azure_iot_sdk\c-utility\src/map.c ****             if (mallocAndStrcpy_s(&(handleData->values[handleData->count - 1]), value) != 0)
 676              		.loc 1 311 0
 677 0056 A368     		ldr	r3, [r4, #8]
 678 0058 1A4A     		ldr	r2, .L45
 679 005a 9446     		mov	ip, r2
 680 005c 6344     		add	r3, r3, ip
 681 005e 9800     		lsls	r0, r3, #2
 682 0060 6368     		ldr	r3, [r4, #4]
 683 0062 9C46     		mov	ip, r3
 684 0064 6044     		add	r0, r0, ip
 685 0066 3100     		movs	r1, r6
 686 0068 FFF7FEFF 		bl	mallocAndStrcpy_s
 687              	.LVL92:
 688 006c 0028     		cmp	r0, #0
 689 006e 23D0     		beq	.L43
 312:Source\azure_iot_sdk\c-utility\src/map.c ****             {
 313:Source\azure_iot_sdk\c-utility\src/map.c ****                 free(handleData->keys[handleData->count - 1]);
 690              		.loc 1 313 0
 691 0070 A368     		ldr	r3, [r4, #8]
 692 0072 144A     		ldr	r2, .L45
 693 0074 9446     		mov	ip, r2
 694 0076 6344     		add	r3, r3, ip
 695 0078 9B00     		lsls	r3, r3, #2
 696 007a 2268     		ldr	r2, [r4]
 697 007c D058     		ldr	r0, [r2, r3]
 698 007e FFF7FEFF 		bl	free
 699              	.LVL93:
ARM GAS  C:\Users\Phuong\AppData\Local\Temp\cczAMJrc.s 			page 20


 314:Source\azure_iot_sdk\c-utility\src/map.c ****                 Map_DecreaseStorageKeysValues(handleData);
 700              		.loc 1 314 0
 701 0082 2000     		movs	r0, r4
 702 0084 FFF7FEFF 		bl	Map_DecreaseStorageKeysValues
 703              	.LVL94:
 704              	.LBB17:
 315:Source\azure_iot_sdk\c-utility\src/map.c ****                 LogError("unable to mallocAndStrcpy_s");
 705              		.loc 1 315 0
 706 0088 FFF7FEFF 		bl	xlogging_get_log_function
 707              	.LVL95:
 708 008c 041E     		subs	r4, r0, #0
 709              	.LVL96:
 710 008e 15D0     		beq	.L44
 711              		.loc 1 315 0 is_stmt 0 discriminator 4
 712 0090 0D4B     		ldr	r3, .L45+4
 713 0092 0193     		str	r3, [sp, #4]
 714 0094 0123     		movs	r3, #1
 715 0096 0093     		str	r3, [sp]
 716 0098 3C23     		movs	r3, #60
 717 009a FF33     		adds	r3, r3, #255
 718 009c 0B4A     		ldr	r2, .L45+8
 719 009e 4032     		adds	r2, r2, #64
 720 00a0 0B49     		ldr	r1, .L45+12
 721 00a2 0020     		movs	r0, #0
 722              	.LVL97:
 723 00a4 A047     		blx	r4
 724              	.LVL98:
 725              	.LBE17:
 316:Source\azure_iot_sdk\c-utility\src/map.c ****                 result = __FAILURE__;
 726              		.loc 1 316 0 is_stmt 1 discriminator 4
 727 00a6 9E20     		movs	r0, #158
 728 00a8 4000     		lsls	r0, r0, #1
 729 00aa 09E0     		b	.L39
 730              	.LVL99:
 731              	.L41:
 299:Source\azure_iot_sdk\c-utility\src/map.c ****     }
 732              		.loc 1 299 0
 733 00ac 2C20     		movs	r0, #44
 734 00ae FF30     		adds	r0, r0, #255
 735 00b0 06E0     		b	.L39
 736              	.LVL100:
 737              	.L42:
 307:Source\azure_iot_sdk\c-utility\src/map.c ****         }
 738              		.loc 1 307 0
 739 00b2 3420     		movs	r0, #52
 740              	.LVL101:
 741 00b4 FF30     		adds	r0, r0, #255
 742 00b6 03E0     		b	.L39
 743              	.LVL102:
 744              	.L43:
 317:Source\azure_iot_sdk\c-utility\src/map.c ****             }
 318:Source\azure_iot_sdk\c-utility\src/map.c ****             else
 319:Source\azure_iot_sdk\c-utility\src/map.c ****             {
 320:Source\azure_iot_sdk\c-utility\src/map.c ****                 result = 0;
 745              		.loc 1 320 0
 746 00b8 0020     		movs	r0, #0
 747 00ba 01E0     		b	.L39
ARM GAS  C:\Users\Phuong\AppData\Local\Temp\cczAMJrc.s 			page 21


 748              	.LVL103:
 749              	.L44:
 316:Source\azure_iot_sdk\c-utility\src/map.c ****             }
 750              		.loc 1 316 0
 751 00bc 9E20     		movs	r0, #158
 752              	.LVL104:
 753 00be 4000     		lsls	r0, r0, #1
 754              	.LVL105:
 755              	.L39:
 321:Source\azure_iot_sdk\c-utility\src/map.c ****             }
 322:Source\azure_iot_sdk\c-utility\src/map.c ****         }
 323:Source\azure_iot_sdk\c-utility\src/map.c ****     }
 324:Source\azure_iot_sdk\c-utility\src/map.c ****     return result;
 325:Source\azure_iot_sdk\c-utility\src/map.c **** }
 756              		.loc 1 325 0
 757 00c0 02B0     		add	sp, sp, #8
 758              		@ sp needed
 759              	.LVL106:
 760              	.LVL107:
 761 00c2 70BD     		pop	{r4, r5, r6, pc}
 762              	.L46:
 763              		.align	2
 764              	.L45:
 765 00c4 FFFFFF3F 		.word	1073741823
 766 00c8 84000000 		.word	.LC12
 767 00cc 00000000 		.word	.LANCHOR0
 768 00d0 00000000 		.word	.LC1
 769              		.cfi_endproc
 770              	.LFE11:
 771              		.size	insertNewKeyValue, .-insertNewKeyValue
 772              		.section	.text.MAP_RESULTStrings,"ax",%progbits
 773              		.align	2
 774              		.global	MAP_RESULTStrings
 775              		.code	16
 776              		.thumb_func
 777              		.type	MAP_RESULTStrings, %function
 778              	MAP_RESULTStrings:
 779              	.LFB1:
  11:Source\azure_iot_sdk\c-utility\src/map.c **** 
 780              		.loc 1 11 0
 781              		.cfi_startproc
 782              		@ args = 0, pretend = 0, frame = 0
 783              		@ frame_needed = 0, uses_anonymous_args = 0
 784              		@ link register save eliminated.
 785              	.LVL108:
  11:Source\azure_iot_sdk\c-utility\src/map.c **** 
 786              		.loc 1 11 0
 787 0000 0528     		cmp	r0, #5
 788 0002 03D8     		bhi	.L49
  11:Source\azure_iot_sdk\c-utility\src/map.c **** 
 789              		.loc 1 11 0 is_stmt 0 discriminator 2
 790 0004 8000     		lsls	r0, r0, #2
 791              	.LVL109:
 792 0006 024B     		ldr	r3, .L50
 793 0008 C058     		ldr	r0, [r0, r3]
 794 000a 00E0     		b	.L48
 795              	.LVL110:
ARM GAS  C:\Users\Phuong\AppData\Local\Temp\cczAMJrc.s 			page 22


 796              	.L49:
  11:Source\azure_iot_sdk\c-utility\src/map.c **** 
 797              		.loc 1 11 0
 798 000c 0020     		movs	r0, #0
 799              	.LVL111:
 800              	.L48:
 801              		@ sp needed
 802 000e 7047     		bx	lr
 803              	.L51:
 804              		.align	2
 805              	.L50:
 806 0010 00000000 		.word	.LANCHOR1
 807              		.cfi_endproc
 808              	.LFE1:
 809              		.size	MAP_RESULTStrings, .-MAP_RESULTStrings
 810              		.section	.text.MAP_RESULT_FromString,"ax",%progbits
 811              		.align	2
 812              		.global	MAP_RESULT_FromString
 813              		.code	16
 814              		.thumb_func
 815              		.type	MAP_RESULT_FromString, %function
 816              	MAP_RESULT_FromString:
 817              	.LFB2:
  11:Source\azure_iot_sdk\c-utility\src/map.c **** 
 818              		.loc 1 11 0 is_stmt 1
 819              		.cfi_startproc
 820              		@ args = 0, pretend = 0, frame = 0
 821              		@ frame_needed = 0, uses_anonymous_args = 0
 822              	.LVL112:
 823 0000 70B5     		push	{r4, r5, r6, lr}
 824              		.cfi_def_cfa_offset 16
 825              		.cfi_offset 4, -16
 826              		.cfi_offset 5, -12
 827              		.cfi_offset 6, -8
 828              		.cfi_offset 14, -4
 829 0002 0500     		movs	r5, r0
 830 0004 0E00     		movs	r6, r1
  11:Source\azure_iot_sdk\c-utility\src/map.c **** 
 831              		.loc 1 11 0
 832 0006 0028     		cmp	r0, #0
 833 0008 12D0     		beq	.L57
  11:Source\azure_iot_sdk\c-utility\src/map.c **** 
 834              		.loc 1 11 0 is_stmt 0 discriminator 2
 835 000a 0029     		cmp	r1, #0
 836 000c 12D0     		beq	.L58
 837 000e 0024     		movs	r4, #0
 838 0010 0AE0     		b	.L54
 839              	.LVL113:
 840              	.L56:
 841              	.LBB18:
  11:Source\azure_iot_sdk\c-utility\src/map.c **** 
 842              		.loc 1 11 0 discriminator 9
 843 0012 A300     		lsls	r3, r4, #2
 844 0014 084A     		ldr	r2, .L59
 845 0016 9958     		ldr	r1, [r3, r2]
 846 0018 2800     		movs	r0, r5
 847 001a FFF7FEFF 		bl	strcmp
ARM GAS  C:\Users\Phuong\AppData\Local\Temp\cczAMJrc.s 			page 23


 848              	.LVL114:
 849 001e 0028     		cmp	r0, #0
 850 0020 01D1     		bne	.L55
  11:Source\azure_iot_sdk\c-utility\src/map.c **** 
 851              		.loc 1 11 0 discriminator 6
 852 0022 3470     		strb	r4, [r6]
 853 0024 07E0     		b	.L53
 854              	.L55:
  11:Source\azure_iot_sdk\c-utility\src/map.c **** 
 855              		.loc 1 11 0 discriminator 7
 856 0026 0134     		adds	r4, r4, #1
 857              	.LVL115:
 858              	.L54:
  11:Source\azure_iot_sdk\c-utility\src/map.c **** 
 859              		.loc 1 11 0 discriminator 8
 860 0028 052C     		cmp	r4, #5
 861 002a F2D9     		bls	.L56
  11:Source\azure_iot_sdk\c-utility\src/map.c **** 
 862              		.loc 1 11 0
 863 002c 0B20     		movs	r0, #11
 864 002e 02E0     		b	.L53
 865              	.LVL116:
 866              	.L57:
 867              	.LBE18:
 868 0030 0B20     		movs	r0, #11
 869              	.LVL117:
 870 0032 00E0     		b	.L53
 871              	.LVL118:
 872              	.L58:
 873 0034 0B20     		movs	r0, #11
 874              	.LVL119:
 875              	.L53:
 876              		@ sp needed
 877              	.LVL120:
 878              	.LVL121:
 879 0036 70BD     		pop	{r4, r5, r6, pc}
 880              	.L60:
 881              		.align	2
 882              	.L59:
 883 0038 00000000 		.word	.LANCHOR1
 884              		.cfi_endproc
 885              	.LFE2:
 886              		.size	MAP_RESULT_FromString, .-MAP_RESULT_FromString
 887              		.section	.text.Map_Create,"ax",%progbits
 888              		.align	2
 889              		.global	Map_Create
 890              		.code	16
 891              		.thumb_func
 892              		.type	Map_Create, %function
 893              	Map_Create:
 894              	.LFB3:
  24:Source\azure_iot_sdk\c-utility\src/map.c ****     /*Codes_SRS_MAP_02_001: [Map_Create shall create a new, empty map.]*/
 895              		.loc 1 24 0 is_stmt 1
 896              		.cfi_startproc
 897              		@ args = 0, pretend = 0, frame = 0
 898              		@ frame_needed = 0, uses_anonymous_args = 0
 899              	.LVL122:
ARM GAS  C:\Users\Phuong\AppData\Local\Temp\cczAMJrc.s 			page 24


 900 0000 10B5     		push	{r4, lr}
 901              		.cfi_def_cfa_offset 8
 902              		.cfi_offset 4, -8
 903              		.cfi_offset 14, -4
 904 0002 0400     		movs	r4, r0
  26:Source\azure_iot_sdk\c-utility\src/map.c ****     /*Codes_SRS_MAP_02_002: [If during creation there are any error, then Map_Create shall return N
 905              		.loc 1 26 0
 906 0004 1020     		movs	r0, #16
 907              	.LVL123:
 908 0006 FFF7FEFF 		bl	malloc
 909              	.LVL124:
  28:Source\azure_iot_sdk\c-utility\src/map.c ****     {
 910              		.loc 1 28 0
 911 000a 0028     		cmp	r0, #0
 912 000c 04D0     		beq	.L62
  31:Source\azure_iot_sdk\c-utility\src/map.c ****         result->values = NULL;
 913              		.loc 1 31 0
 914 000e 0023     		movs	r3, #0
 915 0010 0360     		str	r3, [r0]
  32:Source\azure_iot_sdk\c-utility\src/map.c ****         result->count = 0;
 916              		.loc 1 32 0
 917 0012 4360     		str	r3, [r0, #4]
  33:Source\azure_iot_sdk\c-utility\src/map.c ****         result->mapFilterCallback = mapFilterFunc;
 918              		.loc 1 33 0
 919 0014 8360     		str	r3, [r0, #8]
  34:Source\azure_iot_sdk\c-utility\src/map.c ****     }
 920              		.loc 1 34 0
 921 0016 C460     		str	r4, [r0, #12]
 922              	.L62:
  37:Source\azure_iot_sdk\c-utility\src/map.c **** 
 923              		.loc 1 37 0
 924              		@ sp needed
 925              	.LVL125:
 926 0018 10BD     		pop	{r4, pc}
 927              		.cfi_endproc
 928              	.LFE3:
 929              		.size	Map_Create, .-Map_Create
 930 001a C046     		.section	.text.Map_Destroy,"ax",%progbits
 931              		.align	2
 932              		.global	Map_Destroy
 933              		.code	16
 934              		.thumb_func
 935              		.type	Map_Destroy, %function
 936              	Map_Destroy:
 937              	.LFB4:
  40:Source\azure_iot_sdk\c-utility\src/map.c ****     /*Codes_SRS_MAP_02_005: [If parameter handle is NULL then Map_Destroy shall take no action.] */
 938              		.loc 1 40 0
 939              		.cfi_startproc
 940              		@ args = 0, pretend = 0, frame = 0
 941              		@ frame_needed = 0, uses_anonymous_args = 0
 942              	.LVL126:
 943 0000 70B5     		push	{r4, r5, r6, lr}
 944              		.cfi_def_cfa_offset 16
 945              		.cfi_offset 4, -16
 946              		.cfi_offset 5, -12
 947              		.cfi_offset 6, -8
 948              		.cfi_offset 14, -4
ARM GAS  C:\Users\Phuong\AppData\Local\Temp\cczAMJrc.s 			page 25


 949 0002 051E     		subs	r5, r0, #0
  42:Source\azure_iot_sdk\c-utility\src/map.c ****     {
 950              		.loc 1 42 0
 951 0004 0BD1     		bne	.L67
 952 0006 17E0     		b	.L63
 953              	.LVL127:
 954              	.L66:
 955              	.LBB19:
  50:Source\azure_iot_sdk\c-utility\src/map.c ****             free(handleData->values[i]);
 956              		.loc 1 50 0 discriminator 3
 957 0008 A600     		lsls	r6, r4, #2
 958 000a 2B68     		ldr	r3, [r5]
 959 000c 9859     		ldr	r0, [r3, r6]
 960 000e FFF7FEFF 		bl	free
 961              	.LVL128:
  51:Source\azure_iot_sdk\c-utility\src/map.c ****         }
 962              		.loc 1 51 0 discriminator 3
 963 0012 6B68     		ldr	r3, [r5, #4]
 964 0014 9859     		ldr	r0, [r3, r6]
 965 0016 FFF7FEFF 		bl	free
 966              	.LVL129:
  48:Source\azure_iot_sdk\c-utility\src/map.c ****         {
 967              		.loc 1 48 0 discriminator 3
 968 001a 0134     		adds	r4, r4, #1
 969              	.LVL130:
 970 001c 00E0     		b	.L64
 971              	.LVL131:
 972              	.L67:
 973              	.LBE19:
 974 001e 0024     		movs	r4, #0
 975              	.LVL132:
 976              	.L64:
 977              	.LBB20:
  48:Source\azure_iot_sdk\c-utility\src/map.c ****         {
 978              		.loc 1 48 0 is_stmt 0 discriminator 1
 979 0020 AB68     		ldr	r3, [r5, #8]
 980 0022 9C42     		cmp	r4, r3
 981 0024 F0D3     		bcc	.L66
  53:Source\azure_iot_sdk\c-utility\src/map.c ****         free(handleData->values);
 982              		.loc 1 53 0 is_stmt 1
 983 0026 2868     		ldr	r0, [r5]
 984 0028 FFF7FEFF 		bl	free
 985              	.LVL133:
  54:Source\azure_iot_sdk\c-utility\src/map.c ****         free(handleData);
 986              		.loc 1 54 0
 987 002c 6868     		ldr	r0, [r5, #4]
 988 002e FFF7FEFF 		bl	free
 989              	.LVL134:
  55:Source\azure_iot_sdk\c-utility\src/map.c ****     }
 990              		.loc 1 55 0
 991 0032 2800     		movs	r0, r5
 992 0034 FFF7FEFF 		bl	free
 993              	.LVL135:
 994              	.L63:
 995              	.LBE20:
  57:Source\azure_iot_sdk\c-utility\src/map.c **** 
 996              		.loc 1 57 0
ARM GAS  C:\Users\Phuong\AppData\Local\Temp\cczAMJrc.s 			page 26


 997              		@ sp needed
 998              	.LVL136:
 999 0038 70BD     		pop	{r4, r5, r6, pc}
 1000              		.cfi_endproc
 1001              	.LFE4:
 1002              		.size	Map_Destroy, .-Map_Destroy
 1003 003a C046     		.section	.text.Map_Clone,"ax",%progbits
 1004              		.align	2
 1005              		.global	Map_Clone
 1006              		.code	16
 1007              		.thumb_func
 1008              		.type	Map_Clone, %function
 1009              	Map_Clone:
 1010              	.LFB6:
 100:Source\azure_iot_sdk\c-utility\src/map.c ****     MAP_HANDLE_DATA* result;
 1011              		.loc 1 100 0
 1012              		.cfi_startproc
 1013              		@ args = 0, pretend = 0, frame = 0
 1014              		@ frame_needed = 0, uses_anonymous_args = 0
 1015              	.LVL137:
 1016 0000 30B5     		push	{r4, r5, lr}
 1017              		.cfi_def_cfa_offset 12
 1018              		.cfi_offset 4, -12
 1019              		.cfi_offset 5, -8
 1020              		.cfi_offset 14, -4
 1021 0002 83B0     		sub	sp, sp, #12
 1022              		.cfi_def_cfa_offset 24
 1023 0004 051E     		subs	r5, r0, #0
 102:Source\azure_iot_sdk\c-utility\src/map.c ****     {
 1024              		.loc 1 102 0
 1025 0006 0FD1     		bne	.L69
 1026              	.LVL138:
 1027              	.LBB21:
 106:Source\azure_iot_sdk\c-utility\src/map.c ****     }
 1028              		.loc 1 106 0
 1029 0008 FFF7FEFF 		bl	xlogging_get_log_function
 1030              	.LVL139:
 1031 000c 041E     		subs	r4, r0, #0
 1032              	.LVL140:
 1033 000e 6DD0     		beq	.L78
 106:Source\azure_iot_sdk\c-utility\src/map.c ****     }
 1034              		.loc 1 106 0 is_stmt 0 discriminator 4
 1035 0010 384B     		ldr	r3, .L79
 1036 0012 0193     		str	r3, [sp, #4]
 1037 0014 0123     		movs	r3, #1
 1038 0016 0093     		str	r3, [sp]
 1039 0018 6933     		adds	r3, r3, #105
 1040 001a 374A     		ldr	r2, .L79+4
 1041 001c 5432     		adds	r2, r2, #84
 1042 001e 3749     		ldr	r1, .L79+8
 1043 0020 0020     		movs	r0, #0
 1044              	.LVL141:
 1045 0022 A047     		blx	r4
 1046              	.LVL142:
 1047              	.LBE21:
 105:Source\azure_iot_sdk\c-utility\src/map.c ****         LogError("invalid arg to Map_Clone (NULL)");
 1048              		.loc 1 105 0 is_stmt 1 discriminator 4
ARM GAS  C:\Users\Phuong\AppData\Local\Temp\cczAMJrc.s 			page 27


 1049 0024 0024     		movs	r4, #0
 1050              	.LVL143:
 1051 0026 62E0     		b	.L70
 1052              	.LVL144:
 1053              	.L69:
 1054              	.LBB22:
 111:Source\azure_iot_sdk\c-utility\src/map.c ****         if (result == NULL)
 1055              		.loc 1 111 0
 1056 0028 1020     		movs	r0, #16
 1057              	.LVL145:
 1058 002a FFF7FEFF 		bl	malloc
 1059              	.LVL146:
 1060 002e 041E     		subs	r4, r0, #0
 1061              	.LVL147:
 112:Source\azure_iot_sdk\c-utility\src/map.c ****         {
 1062              		.loc 1 112 0
 1063 0030 0ED1     		bne	.L71
 1064              	.LBB23:
 116:Source\azure_iot_sdk\c-utility\src/map.c ****         }
 1065              		.loc 1 116 0 discriminator 3
 1066 0032 FFF7FEFF 		bl	xlogging_get_log_function
 1067              	.LVL148:
 1068 0036 051E     		subs	r5, r0, #0
 1069              	.LVL149:
 1070 0038 59D0     		beq	.L70
 116:Source\azure_iot_sdk\c-utility\src/map.c ****         }
 1071              		.loc 1 116 0 is_stmt 0 discriminator 4
 1072 003a 314B     		ldr	r3, .L79+12
 1073 003c 0193     		str	r3, [sp, #4]
 1074 003e 0123     		movs	r3, #1
 1075 0040 0093     		str	r3, [sp]
 1076 0042 7333     		adds	r3, r3, #115
 1077 0044 2C4A     		ldr	r2, .L79+4
 1078 0046 5432     		adds	r2, r2, #84
 1079 0048 2C49     		ldr	r1, .L79+8
 1080 004a 0020     		movs	r0, #0
 1081              	.LVL150:
 1082 004c A847     		blx	r5
 1083              	.LVL151:
 1084 004e 4EE0     		b	.L70
 1085              	.LVL152:
 1086              	.L71:
 1087              	.LBE23:
 120:Source\azure_iot_sdk\c-utility\src/map.c ****             {
 1088              		.loc 1 120 0 is_stmt 1
 1089 0050 AB68     		ldr	r3, [r5, #8]
 1090 0052 002B     		cmp	r3, #0
 1091 0054 04D1     		bne	.L72
 122:Source\azure_iot_sdk\c-utility\src/map.c ****                 result->keys = NULL;
 1092              		.loc 1 122 0
 1093 0056 8360     		str	r3, [r0, #8]
 123:Source\azure_iot_sdk\c-utility\src/map.c ****                 result->values = NULL;
 1094              		.loc 1 123 0
 1095 0058 0360     		str	r3, [r0]
 124:Source\azure_iot_sdk\c-utility\src/map.c ****                 result->mapFilterCallback = NULL;
 1096              		.loc 1 124 0
 1097 005a 4360     		str	r3, [r0, #4]
ARM GAS  C:\Users\Phuong\AppData\Local\Temp\cczAMJrc.s 			page 28


 125:Source\azure_iot_sdk\c-utility\src/map.c ****             }
 1098              		.loc 1 125 0
 1099 005c C360     		str	r3, [r0, #12]
 1100 005e 46E0     		b	.L70
 1101              	.L72:
 129:Source\azure_iot_sdk\c-utility\src/map.c ****                 result->count = handleData->count;
 1102              		.loc 1 129 0
 1103 0060 EB68     		ldr	r3, [r5, #12]
 1104 0062 C360     		str	r3, [r0, #12]
 130:Source\azure_iot_sdk\c-utility\src/map.c ****                 if( (result->keys = Map_CloneVector((const char* const*)handleData->keys, handleDat
 1105              		.loc 1 130 0
 1106 0064 AB68     		ldr	r3, [r5, #8]
 1107 0066 8360     		str	r3, [r0, #8]
 131:Source\azure_iot_sdk\c-utility\src/map.c ****                 {
 1108              		.loc 1 131 0
 1109 0068 A968     		ldr	r1, [r5, #8]
 1110 006a 2868     		ldr	r0, [r5]
 1111              	.LVL153:
 1112 006c FFF7FEFF 		bl	Map_CloneVector
 1113              	.LVL154:
 1114 0070 2060     		str	r0, [r4]
 1115 0072 0028     		cmp	r0, #0
 1116 0074 12D1     		bne	.L73
 1117              	.LBB24:
 134:Source\azure_iot_sdk\c-utility\src/map.c ****                     free(result);
 1118              		.loc 1 134 0 discriminator 3
 1119 0076 FFF7FEFF 		bl	xlogging_get_log_function
 1120              	.LVL155:
 1121 007a 051E     		subs	r5, r0, #0
 1122              	.LVL156:
 1123 007c 09D0     		beq	.L74
 134:Source\azure_iot_sdk\c-utility\src/map.c ****                     free(result);
 1124              		.loc 1 134 0 is_stmt 0 discriminator 4
 1125 007e 214B     		ldr	r3, .L79+16
 1126 0080 0193     		str	r3, [sp, #4]
 1127 0082 0123     		movs	r3, #1
 1128 0084 0093     		str	r3, [sp]
 1129 0086 8533     		adds	r3, r3, #133
 1130 0088 1B4A     		ldr	r2, .L79+4
 1131 008a 5432     		adds	r2, r2, #84
 1132 008c 1B49     		ldr	r1, .L79+8
 1133 008e 0020     		movs	r0, #0
 1134              	.LVL157:
 1135 0090 A847     		blx	r5
 1136              	.LVL158:
 1137              	.L74:
 1138              	.LBE24:
 135:Source\azure_iot_sdk\c-utility\src/map.c ****                     result = NULL;
 1139              		.loc 1 135 0 is_stmt 1
 1140 0092 2000     		movs	r0, r4
 1141 0094 FFF7FEFF 		bl	free
 1142              	.LVL159:
 136:Source\azure_iot_sdk\c-utility\src/map.c ****                 }
 1143              		.loc 1 136 0
 1144 0098 0024     		movs	r4, #0
 1145 009a 28E0     		b	.L70
 1146              	.LVL160:
ARM GAS  C:\Users\Phuong\AppData\Local\Temp\cczAMJrc.s 			page 29


 1147              	.L73:
 138:Source\azure_iot_sdk\c-utility\src/map.c ****                 {
 1148              		.loc 1 138 0
 1149 009c 6868     		ldr	r0, [r5, #4]
 1150 009e A968     		ldr	r1, [r5, #8]
 1151 00a0 FFF7FEFF 		bl	Map_CloneVector
 1152              	.LVL161:
 1153 00a4 6060     		str	r0, [r4, #4]
 1154 00a6 0028     		cmp	r0, #0
 1155 00a8 21D1     		bne	.L70
 1156              	.LBB25:
 1157              	.LBB26:
 142:Source\azure_iot_sdk\c-utility\src/map.c ****                     for (i = 0; i < result->count; i++)
 1158              		.loc 1 142 0 discriminator 3
 1159 00aa FFF7FEFF 		bl	xlogging_get_log_function
 1160              	.LVL162:
 1161 00ae 051E     		subs	r5, r0, #0
 1162              	.LVL163:
 1163 00b0 09D0     		beq	.L75
 142:Source\azure_iot_sdk\c-utility\src/map.c ****                     for (i = 0; i < result->count; i++)
 1164              		.loc 1 142 0 is_stmt 0 discriminator 4
 1165 00b2 154B     		ldr	r3, .L79+20
 1166 00b4 0193     		str	r3, [sp, #4]
 1167 00b6 0123     		movs	r3, #1
 1168 00b8 0093     		str	r3, [sp]
 1169 00ba 8D33     		adds	r3, r3, #141
 1170 00bc 0E4A     		ldr	r2, .L79+4
 1171 00be 5432     		adds	r2, r2, #84
 1172 00c0 0E49     		ldr	r1, .L79+8
 1173 00c2 0020     		movs	r0, #0
 1174              	.LVL164:
 1175 00c4 A847     		blx	r5
 1176              	.LVL165:
 1177              	.L75:
 1178              	.LBE26:
 1179              	.LBE25:
 1180              	.LBE22:
 100:Source\azure_iot_sdk\c-utility\src/map.c ****     MAP_HANDLE_DATA* result;
 1181              		.loc 1 100 0 is_stmt 1 discriminator 1
 1182 00c6 0025     		movs	r5, #0
 1183              	.LVL166:
 1184 00c8 05E0     		b	.L76
 1185              	.LVL167:
 1186              	.L77:
 1187              	.LBB28:
 1188              	.LBB27:
 145:Source\azure_iot_sdk\c-utility\src/map.c ****                     }
 1189              		.loc 1 145 0 discriminator 3
 1190 00ca AB00     		lsls	r3, r5, #2
 1191 00cc 2268     		ldr	r2, [r4]
 1192 00ce D058     		ldr	r0, [r2, r3]
 1193 00d0 FFF7FEFF 		bl	free
 1194              	.LVL168:
 143:Source\azure_iot_sdk\c-utility\src/map.c ****                     {
 1195              		.loc 1 143 0 discriminator 3
 1196 00d4 0135     		adds	r5, r5, #1
 1197              	.LVL169:
ARM GAS  C:\Users\Phuong\AppData\Local\Temp\cczAMJrc.s 			page 30


 1198              	.L76:
 143:Source\azure_iot_sdk\c-utility\src/map.c ****                     {
 1199              		.loc 1 143 0 is_stmt 0 discriminator 1
 1200 00d6 A368     		ldr	r3, [r4, #8]
 1201 00d8 9D42     		cmp	r5, r3
 1202 00da F6D3     		bcc	.L77
 147:Source\azure_iot_sdk\c-utility\src/map.c ****                     free(result);
 1203              		.loc 1 147 0 is_stmt 1
 1204 00dc 2068     		ldr	r0, [r4]
 1205 00de FFF7FEFF 		bl	free
 1206              	.LVL170:
 148:Source\azure_iot_sdk\c-utility\src/map.c ****                     result = NULL;
 1207              		.loc 1 148 0
 1208 00e2 2000     		movs	r0, r4
 1209 00e4 FFF7FEFF 		bl	free
 1210              	.LVL171:
 149:Source\azure_iot_sdk\c-utility\src/map.c ****                 }
 1211              		.loc 1 149 0
 1212 00e8 0024     		movs	r4, #0
 1213              	.LBE27:
 1214 00ea 00E0     		b	.L70
 1215              	.LVL172:
 1216              	.L78:
 1217              	.LBE28:
 105:Source\azure_iot_sdk\c-utility\src/map.c ****         LogError("invalid arg to Map_Clone (NULL)");
 1218              		.loc 1 105 0
 1219 00ec 0024     		movs	r4, #0
 1220              	.LVL173:
 1221              	.L70:
 159:Source\azure_iot_sdk\c-utility\src/map.c **** 
 1222              		.loc 1 159 0
 1223 00ee 2000     		movs	r0, r4
 1224 00f0 03B0     		add	sp, sp, #12
 1225              		@ sp needed
 1226              	.LVL174:
 1227 00f2 30BD     		pop	{r4, r5, pc}
 1228              	.L80:
 1229              		.align	2
 1230              	.L79:
 1231 00f4 A0000000 		.word	.LC18
 1232 00f8 00000000 		.word	.LANCHOR0
 1233 00fc 00000000 		.word	.LC1
 1234 0100 C0000000 		.word	.LC20
 1235 0104 D4000000 		.word	.LC22
 1236 0108 EC000000 		.word	.LC24
 1237              		.cfi_endproc
 1238              	.LFE6:
 1239              		.size	Map_Clone, .-Map_Clone
 1240              		.section	.text.Map_Add,"ax",%progbits
 1241              		.align	2
 1242              		.global	Map_Add
 1243              		.code	16
 1244              		.thumb_func
 1245              		.type	Map_Add, %function
 1246              	Map_Add:
 1247              	.LFB12:
 326:Source\azure_iot_sdk\c-utility\src/map.c **** 
ARM GAS  C:\Users\Phuong\AppData\Local\Temp\cczAMJrc.s 			page 31


 327:Source\azure_iot_sdk\c-utility\src/map.c **** MAP_RESULT Map_Add(MAP_HANDLE handle, const char* key, const char* value)
 328:Source\azure_iot_sdk\c-utility\src/map.c **** {
 1248              		.loc 1 328 0
 1249              		.cfi_startproc
 1250              		@ args = 0, pretend = 0, frame = 0
 1251              		@ frame_needed = 0, uses_anonymous_args = 0
 1252              	.LVL175:
 1253 0000 70B5     		push	{r4, r5, r6, lr}
 1254              		.cfi_def_cfa_offset 16
 1255              		.cfi_offset 4, -16
 1256              		.cfi_offset 5, -12
 1257              		.cfi_offset 6, -8
 1258              		.cfi_offset 14, -4
 1259 0002 84B0     		sub	sp, sp, #16
 1260              		.cfi_def_cfa_offset 32
 1261 0004 0400     		movs	r4, r0
 1262 0006 0D00     		movs	r5, r1
 1263 0008 1600     		movs	r6, r2
 329:Source\azure_iot_sdk\c-utility\src/map.c ****     MAP_RESULT result;
 330:Source\azure_iot_sdk\c-utility\src/map.c ****     /*Codes_SRS_MAP_02_006: [If parameter handle is NULL then Map_Add shall return MAP_INVALID_ARG.
 331:Source\azure_iot_sdk\c-utility\src/map.c ****     /*Codes_SRS_MAP_02_007: [If parameter key is NULL then Map_Add shall return MAP_INVALID_ARG.]*/
 332:Source\azure_iot_sdk\c-utility\src/map.c ****     /*Codes_SRS_MAP_02_008: [If parameter value is NULL then Map_Add shall return MAP_INVALID_ARG.]
 333:Source\azure_iot_sdk\c-utility\src/map.c ****     if (
 1264              		.loc 1 333 0
 1265 000a 0028     		cmp	r0, #0
 1266 000c 03D0     		beq	.L82
 334:Source\azure_iot_sdk\c-utility\src/map.c ****         (handle == NULL) ||
 1267              		.loc 1 334 0
 1268 000e 0029     		cmp	r1, #0
 1269 0010 01D0     		beq	.L82
 335:Source\azure_iot_sdk\c-utility\src/map.c ****         (key == NULL) ||
 1270              		.loc 1 335 0
 1271 0012 002A     		cmp	r2, #0
 1272 0014 14D1     		bne	.L83
 1273              	.L82:
 1274              	.LVL176:
 1275              	.LBB29:
 336:Source\azure_iot_sdk\c-utility\src/map.c ****         (value == NULL)
 337:Source\azure_iot_sdk\c-utility\src/map.c ****         )
 338:Source\azure_iot_sdk\c-utility\src/map.c ****     {
 339:Source\azure_iot_sdk\c-utility\src/map.c ****         result = MAP_INVALIDARG;
 340:Source\azure_iot_sdk\c-utility\src/map.c ****         LOG_MAP_ERROR;
 1276              		.loc 1 340 0
 1277 0016 FFF7FEFF 		bl	xlogging_get_log_function
 1278              	.LVL177:
 1279 001a 041E     		subs	r4, r0, #0
 1280              	.LVL178:
 1281 001c 38D0     		beq	.L86
 1282              		.loc 1 340 0 is_stmt 0 discriminator 4
 1283 001e 0220     		movs	r0, #2
 1284              	.LVL179:
 1285 0020 FFF7FEFF 		bl	MAP_RESULTStrings
 1286              	.LVL180:
 1287 0024 0290     		str	r0, [sp, #8]
 1288 0026 204B     		ldr	r3, .L91
 1289 0028 0193     		str	r3, [sp, #4]
 1290 002a 0123     		movs	r3, #1
ARM GAS  C:\Users\Phuong\AppData\Local\Temp\cczAMJrc.s 			page 32


 1291 002c 0093     		str	r3, [sp]
 1292 002e 5433     		adds	r3, r3, #84
 1293 0030 FF33     		adds	r3, r3, #255
 1294 0032 1E4A     		ldr	r2, .L91+4
 1295 0034 6032     		adds	r2, r2, #96
 1296 0036 1E49     		ldr	r1, .L91+8
 1297 0038 0020     		movs	r0, #0
 1298 003a A047     		blx	r4
 1299              	.LVL181:
 1300              	.LBE29:
 339:Source\azure_iot_sdk\c-utility\src/map.c ****         LOG_MAP_ERROR;
 1301              		.loc 1 339 0 is_stmt 1 discriminator 4
 1302 003c 0220     		movs	r0, #2
 1303 003e 30E0     		b	.L84
 1304              	.LVL182:
 1305              	.L83:
 1306              	.LBB30:
 341:Source\azure_iot_sdk\c-utility\src/map.c ****     }
 342:Source\azure_iot_sdk\c-utility\src/map.c ****     else
 343:Source\azure_iot_sdk\c-utility\src/map.c ****     {
 344:Source\azure_iot_sdk\c-utility\src/map.c ****         MAP_HANDLE_DATA* handleData = (MAP_HANDLE_DATA*)handle;
 345:Source\azure_iot_sdk\c-utility\src/map.c ****         /*Codes_SRS_MAP_02_009: [If the key already exists, then Map_Add shall return MAP_KEYEXISTS
 346:Source\azure_iot_sdk\c-utility\src/map.c ****         if (findKey(handleData, key) != NULL)
 1307              		.loc 1 346 0
 1308 0040 FFF7FEFF 		bl	findKey
 1309              	.LVL183:
 1310 0044 0028     		cmp	r0, #0
 1311 0046 25D1     		bne	.L87
 347:Source\azure_iot_sdk\c-utility\src/map.c ****         {
 348:Source\azure_iot_sdk\c-utility\src/map.c ****             result = MAP_KEYEXISTS;
 349:Source\azure_iot_sdk\c-utility\src/map.c ****         }
 350:Source\azure_iot_sdk\c-utility\src/map.c ****         else
 351:Source\azure_iot_sdk\c-utility\src/map.c ****         {
 352:Source\azure_iot_sdk\c-utility\src/map.c ****             /* Codes_SRS_MAP_07_009: [If the mapFilterCallback function is not NULL, then the retur
 353:Source\azure_iot_sdk\c-utility\src/map.c ****             if ( (handleData->mapFilterCallback != NULL) && (handleData->mapFilterCallback(key, val
 1312              		.loc 1 353 0
 1313 0048 E368     		ldr	r3, [r4, #12]
 1314 004a 002B     		cmp	r3, #0
 1315 004c 04D0     		beq	.L85
 1316              		.loc 1 353 0 is_stmt 0 discriminator 1
 1317 004e 3100     		movs	r1, r6
 1318 0050 2800     		movs	r0, r5
 1319 0052 9847     		blx	r3
 1320              	.LVL184:
 1321 0054 0028     		cmp	r0, #0
 1322 0056 1FD1     		bne	.L88
 1323              	.L85:
 354:Source\azure_iot_sdk\c-utility\src/map.c ****             {
 355:Source\azure_iot_sdk\c-utility\src/map.c ****                 result = MAP_FILTER_REJECT;
 356:Source\azure_iot_sdk\c-utility\src/map.c ****             }
 357:Source\azure_iot_sdk\c-utility\src/map.c ****             else
 358:Source\azure_iot_sdk\c-utility\src/map.c ****             {
 359:Source\azure_iot_sdk\c-utility\src/map.c ****                 /*Codes_SRS_MAP_02_010: [Otherwise, Map_Add shall add the pair <key,value> to the m
 360:Source\azure_iot_sdk\c-utility\src/map.c ****                 if (insertNewKeyValue(handleData, key, value) != 0)
 1324              		.loc 1 360 0 is_stmt 1
 1325 0058 3200     		movs	r2, r6
 1326 005a 2900     		movs	r1, r5
ARM GAS  C:\Users\Phuong\AppData\Local\Temp\cczAMJrc.s 			page 33


 1327 005c 2000     		movs	r0, r4
 1328 005e FFF7FEFF 		bl	insertNewKeyValue
 1329              	.LVL185:
 1330 0062 0028     		cmp	r0, #0
 1331 0064 1AD0     		beq	.L89
 1332              	.LVL186:
 1333              	.LBB31:
 361:Source\azure_iot_sdk\c-utility\src/map.c ****                 {
 362:Source\azure_iot_sdk\c-utility\src/map.c ****                     /*Codes_SRS_MAP_02_011: [If adding the pair <key,value> fails then Map_Add shal
 363:Source\azure_iot_sdk\c-utility\src/map.c ****                     result = MAP_ERROR;
 364:Source\azure_iot_sdk\c-utility\src/map.c ****                     LOG_MAP_ERROR;
 1334              		.loc 1 364 0
 1335 0066 FFF7FEFF 		bl	xlogging_get_log_function
 1336              	.LVL187:
 1337 006a 041E     		subs	r4, r0, #0
 1338              	.LVL188:
 1339 006c 18D0     		beq	.L90
 1340              		.loc 1 364 0 is_stmt 0 discriminator 4
 1341 006e 0120     		movs	r0, #1
 1342              	.LVL189:
 1343 0070 FFF7FEFF 		bl	MAP_RESULTStrings
 1344              	.LVL190:
 1345 0074 0290     		str	r0, [sp, #8]
 1346 0076 0C4B     		ldr	r3, .L91
 1347 0078 0193     		str	r3, [sp, #4]
 1348 007a 0123     		movs	r3, #1
 1349 007c 0093     		str	r3, [sp]
 1350 007e 6C33     		adds	r3, r3, #108
 1351 0080 FF33     		adds	r3, r3, #255
 1352 0082 0A4A     		ldr	r2, .L91+4
 1353 0084 6032     		adds	r2, r2, #96
 1354 0086 0A49     		ldr	r1, .L91+8
 1355 0088 0020     		movs	r0, #0
 1356 008a A047     		blx	r4
 1357              	.LVL191:
 1358              	.LBE31:
 363:Source\azure_iot_sdk\c-utility\src/map.c ****                     LOG_MAP_ERROR;
 1359              		.loc 1 363 0 is_stmt 1 discriminator 4
 1360 008c 0120     		movs	r0, #1
 1361 008e 08E0     		b	.L84
 1362              	.LVL192:
 1363              	.L86:
 1364              	.LBE30:
 339:Source\azure_iot_sdk\c-utility\src/map.c ****         LOG_MAP_ERROR;
 1365              		.loc 1 339 0
 1366 0090 0220     		movs	r0, #2
 1367              	.LVL193:
 1368 0092 06E0     		b	.L84
 1369              	.LVL194:
 1370              	.L87:
 1371              	.LBB32:
 348:Source\azure_iot_sdk\c-utility\src/map.c ****         }
 1372              		.loc 1 348 0
 1373 0094 0320     		movs	r0, #3
 1374 0096 04E0     		b	.L84
 1375              	.L88:
 355:Source\azure_iot_sdk\c-utility\src/map.c ****             }
ARM GAS  C:\Users\Phuong\AppData\Local\Temp\cczAMJrc.s 			page 34


 1376              		.loc 1 355 0
 1377 0098 0520     		movs	r0, #5
 1378 009a 02E0     		b	.L84
 1379              	.L89:
 365:Source\azure_iot_sdk\c-utility\src/map.c ****                 }
 366:Source\azure_iot_sdk\c-utility\src/map.c ****                 else
 367:Source\azure_iot_sdk\c-utility\src/map.c ****                 {
 368:Source\azure_iot_sdk\c-utility\src/map.c ****                     /*Codes_SRS_MAP_02_012: [Otherwise, Map_Add shall return MAP_OK.] */
 369:Source\azure_iot_sdk\c-utility\src/map.c ****                     result = MAP_OK;
 1380              		.loc 1 369 0
 1381 009c 0020     		movs	r0, #0
 1382 009e 00E0     		b	.L84
 1383              	.LVL195:
 1384              	.L90:
 363:Source\azure_iot_sdk\c-utility\src/map.c ****                     LOG_MAP_ERROR;
 1385              		.loc 1 363 0
 1386 00a0 0120     		movs	r0, #1
 1387              	.LVL196:
 1388              	.L84:
 1389              	.LBE32:
 370:Source\azure_iot_sdk\c-utility\src/map.c ****                 }
 371:Source\azure_iot_sdk\c-utility\src/map.c ****             }
 372:Source\azure_iot_sdk\c-utility\src/map.c ****         }
 373:Source\azure_iot_sdk\c-utility\src/map.c ****     }
 374:Source\azure_iot_sdk\c-utility\src/map.c ****     return result;
 375:Source\azure_iot_sdk\c-utility\src/map.c **** }
 1390              		.loc 1 375 0
 1391 00a2 04B0     		add	sp, sp, #16
 1392              		@ sp needed
 1393              	.LVL197:
 1394              	.LVL198:
 1395 00a4 70BD     		pop	{r4, r5, r6, pc}
 1396              	.L92:
 1397 00a6 C046     		.align	2
 1398              	.L91:
 1399 00a8 04010000 		.word	.LC28
 1400 00ac 00000000 		.word	.LANCHOR0
 1401 00b0 00000000 		.word	.LC1
 1402              		.cfi_endproc
 1403              	.LFE12:
 1404              		.size	Map_Add, .-Map_Add
 1405              		.section	.text.Map_AddOrUpdate,"ax",%progbits
 1406              		.align	2
 1407              		.global	Map_AddOrUpdate
 1408              		.code	16
 1409              		.thumb_func
 1410              		.type	Map_AddOrUpdate, %function
 1411              	Map_AddOrUpdate:
 1412              	.LFB13:
 376:Source\azure_iot_sdk\c-utility\src/map.c **** 
 377:Source\azure_iot_sdk\c-utility\src/map.c **** MAP_RESULT Map_AddOrUpdate(MAP_HANDLE handle, const char* key, const char* value)
 378:Source\azure_iot_sdk\c-utility\src/map.c **** {
 1413              		.loc 1 378 0
 1414              		.cfi_startproc
 1415              		@ args = 0, pretend = 0, frame = 8
 1416              		@ frame_needed = 0, uses_anonymous_args = 0
 1417              	.LVL199:
ARM GAS  C:\Users\Phuong\AppData\Local\Temp\cczAMJrc.s 			page 35


 1418 0000 F0B5     		push	{r4, r5, r6, r7, lr}
 1419              		.cfi_def_cfa_offset 20
 1420              		.cfi_offset 4, -20
 1421              		.cfi_offset 5, -16
 1422              		.cfi_offset 6, -12
 1423              		.cfi_offset 7, -8
 1424              		.cfi_offset 14, -4
 1425 0002 87B0     		sub	sp, sp, #28
 1426              		.cfi_def_cfa_offset 48
 1427 0004 0400     		movs	r4, r0
 1428 0006 0E00     		movs	r6, r1
 1429 0008 1500     		movs	r5, r2
 379:Source\azure_iot_sdk\c-utility\src/map.c ****     MAP_RESULT result;
 380:Source\azure_iot_sdk\c-utility\src/map.c ****     /*Codes_SRS_MAP_02_013: [If parameter handle is NULL then Map_AddOrUpdate shall return MAP_INVA
 381:Source\azure_iot_sdk\c-utility\src/map.c ****     /*Codes_SRS_MAP_02_014: [If parameter key is NULL then Map_AddOrUpdate shall return MAP_INVALID
 382:Source\azure_iot_sdk\c-utility\src/map.c ****     /*Codes_SRS_MAP_02_015: [If parameter value is NULL then Map_AddOrUpdate shall return MAP_INVAL
 383:Source\azure_iot_sdk\c-utility\src/map.c ****     if (
 1430              		.loc 1 383 0
 1431 000a 0028     		cmp	r0, #0
 1432 000c 03D0     		beq	.L94
 384:Source\azure_iot_sdk\c-utility\src/map.c ****         (handle == NULL) ||
 1433              		.loc 1 384 0
 1434 000e 0029     		cmp	r1, #0
 1435 0010 01D0     		beq	.L94
 385:Source\azure_iot_sdk\c-utility\src/map.c ****         (key == NULL) ||
 1436              		.loc 1 385 0
 1437 0012 002A     		cmp	r2, #0
 1438 0014 14D1     		bne	.L95
 1439              	.L94:
 1440              	.LVL200:
 1441              	.LBB33:
 386:Source\azure_iot_sdk\c-utility\src/map.c ****         (value == NULL)
 387:Source\azure_iot_sdk\c-utility\src/map.c ****         )
 388:Source\azure_iot_sdk\c-utility\src/map.c ****     {
 389:Source\azure_iot_sdk\c-utility\src/map.c ****         result = MAP_INVALIDARG;
 390:Source\azure_iot_sdk\c-utility\src/map.c ****         LOG_MAP_ERROR;
 1442              		.loc 1 390 0
 1443 0016 FFF7FEFF 		bl	xlogging_get_log_function
 1444              	.LVL201:
 1445 001a 041E     		subs	r4, r0, #0
 1446              	.LVL202:
 1447 001c 66D0     		beq	.L100
 1448              		.loc 1 390 0 is_stmt 0 discriminator 4
 1449 001e 0220     		movs	r0, #2
 1450              	.LVL203:
 1451 0020 FFF7FEFF 		bl	MAP_RESULTStrings
 1452              	.LVL204:
 1453 0024 0290     		str	r0, [sp, #8]
 1454 0026 374B     		ldr	r3, .L105
 1455 0028 0193     		str	r3, [sp, #4]
 1456 002a 0123     		movs	r3, #1
 1457 002c 0093     		str	r3, [sp]
 1458 002e 8633     		adds	r3, r3, #134
 1459 0030 FF33     		adds	r3, r3, #255
 1460 0032 354A     		ldr	r2, .L105+4
 1461 0034 6832     		adds	r2, r2, #104
 1462 0036 3549     		ldr	r1, .L105+8
ARM GAS  C:\Users\Phuong\AppData\Local\Temp\cczAMJrc.s 			page 36


 1463 0038 0020     		movs	r0, #0
 1464 003a A047     		blx	r4
 1465              	.LVL205:
 1466              	.LBE33:
 389:Source\azure_iot_sdk\c-utility\src/map.c ****         LOG_MAP_ERROR;
 1467              		.loc 1 389 0 is_stmt 1 discriminator 4
 1468 003c 0220     		movs	r0, #2
 1469 003e 5EE0     		b	.L96
 1470              	.LVL206:
 1471              	.L95:
 1472              	.LBB34:
 391:Source\azure_iot_sdk\c-utility\src/map.c ****     }
 392:Source\azure_iot_sdk\c-utility\src/map.c ****     else
 393:Source\azure_iot_sdk\c-utility\src/map.c ****     {
 394:Source\azure_iot_sdk\c-utility\src/map.c ****         MAP_HANDLE_DATA* handleData = (MAP_HANDLE_DATA*)handle;
 395:Source\azure_iot_sdk\c-utility\src/map.c **** 
 396:Source\azure_iot_sdk\c-utility\src/map.c ****         /* Codes_SRS_MAP_07_008: [If the mapFilterCallback function is not NULL, then the return va
 397:Source\azure_iot_sdk\c-utility\src/map.c ****         if (handleData->mapFilterCallback != NULL && handleData->mapFilterCallback(key, value) != 0
 1473              		.loc 1 397 0
 1474 0040 C368     		ldr	r3, [r0, #12]
 1475 0042 002B     		cmp	r3, #0
 1476 0044 04D0     		beq	.L97
 1477              		.loc 1 397 0 is_stmt 0 discriminator 1
 1478 0046 1100     		movs	r1, r2
 1479              	.LVL207:
 1480 0048 3000     		movs	r0, r6
 1481              	.LVL208:
 1482 004a 9847     		blx	r3
 1483              	.LVL209:
 1484 004c 0028     		cmp	r0, #0
 1485 004e 4FD1     		bne	.L101
 1486              	.L97:
 1487              	.LBB35:
 398:Source\azure_iot_sdk\c-utility\src/map.c ****         {
 399:Source\azure_iot_sdk\c-utility\src/map.c ****             result = MAP_FILTER_REJECT;
 400:Source\azure_iot_sdk\c-utility\src/map.c ****         }
 401:Source\azure_iot_sdk\c-utility\src/map.c ****         else
 402:Source\azure_iot_sdk\c-utility\src/map.c ****         {
 403:Source\azure_iot_sdk\c-utility\src/map.c ****             char** whereIsIt = findKey(handleData, key);
 1488              		.loc 1 403 0 is_stmt 1
 1489 0050 3100     		movs	r1, r6
 1490 0052 2000     		movs	r0, r4
 1491 0054 FFF7FEFF 		bl	findKey
 1492              	.LVL210:
 404:Source\azure_iot_sdk\c-utility\src/map.c ****             if (whereIsIt == NULL)
 1493              		.loc 1 404 0
 1494 0058 0028     		cmp	r0, #0
 1495 005a 1BD1     		bne	.L98
 405:Source\azure_iot_sdk\c-utility\src/map.c ****             {
 406:Source\azure_iot_sdk\c-utility\src/map.c ****                 /*Codes_SRS_MAP_02_017: [Otherwise, Map_AddOrUpdate shall add the pair <key,value> 
 407:Source\azure_iot_sdk\c-utility\src/map.c ****                 if (insertNewKeyValue(handleData, key, value) != 0)
 1496              		.loc 1 407 0
 1497 005c 2A00     		movs	r2, r5
 1498 005e 3100     		movs	r1, r6
 1499 0060 2000     		movs	r0, r4
 1500              	.LVL211:
 1501 0062 FFF7FEFF 		bl	insertNewKeyValue
ARM GAS  C:\Users\Phuong\AppData\Local\Temp\cczAMJrc.s 			page 37


 1502              	.LVL212:
 1503 0066 0028     		cmp	r0, #0
 1504 0068 44D0     		beq	.L102
 1505              	.LVL213:
 1506              	.LBB36:
 408:Source\azure_iot_sdk\c-utility\src/map.c ****                 {
 409:Source\azure_iot_sdk\c-utility\src/map.c ****                     result = MAP_ERROR;
 410:Source\azure_iot_sdk\c-utility\src/map.c ****                     LOG_MAP_ERROR;
 1507              		.loc 1 410 0
 1508 006a FFF7FEFF 		bl	xlogging_get_log_function
 1509              	.LVL214:
 1510 006e 041E     		subs	r4, r0, #0
 1511              	.LVL215:
 1512 0070 42D0     		beq	.L103
 1513              		.loc 1 410 0 is_stmt 0 discriminator 4
 1514 0072 0120     		movs	r0, #1
 1515              	.LVL216:
 1516 0074 FFF7FEFF 		bl	MAP_RESULTStrings
 1517              	.LVL217:
 1518 0078 0290     		str	r0, [sp, #8]
 1519 007a 224B     		ldr	r3, .L105
 1520 007c 0193     		str	r3, [sp, #4]
 1521 007e 0123     		movs	r3, #1
 1522 0080 0093     		str	r3, [sp]
 1523 0082 9A33     		adds	r3, r3, #154
 1524 0084 FF33     		adds	r3, r3, #255
 1525 0086 204A     		ldr	r2, .L105+4
 1526 0088 6832     		adds	r2, r2, #104
 1527 008a 2049     		ldr	r1, .L105+8
 1528 008c 0020     		movs	r0, #0
 1529 008e A047     		blx	r4
 1530              	.LVL218:
 1531              	.LBE36:
 409:Source\azure_iot_sdk\c-utility\src/map.c ****                     LOG_MAP_ERROR;
 1532              		.loc 1 409 0 is_stmt 1 discriminator 4
 1533 0090 0120     		movs	r0, #1
 1534 0092 34E0     		b	.L96
 1535              	.LVL219:
 1536              	.L98:
 1537              	.LBB37:
 411:Source\azure_iot_sdk\c-utility\src/map.c ****                 }
 412:Source\azure_iot_sdk\c-utility\src/map.c ****                 else
 413:Source\azure_iot_sdk\c-utility\src/map.c ****                 {
 414:Source\azure_iot_sdk\c-utility\src/map.c ****                     result = MAP_OK;
 415:Source\azure_iot_sdk\c-utility\src/map.c ****                 }
 416:Source\azure_iot_sdk\c-utility\src/map.c ****             }
 417:Source\azure_iot_sdk\c-utility\src/map.c ****             else
 418:Source\azure_iot_sdk\c-utility\src/map.c ****             {
 419:Source\azure_iot_sdk\c-utility\src/map.c ****                 /*Codes_SRS_MAP_02_016: [If the key already exists, then Map_AddOrUpdate shall over
 420:Source\azure_iot_sdk\c-utility\src/map.c ****                 size_t index = whereIsIt - handleData->keys;
 1538              		.loc 1 420 0
 1539 0094 2368     		ldr	r3, [r4]
 1540 0096 C61A     		subs	r6, r0, r3
 1541              	.LVL220:
 421:Source\azure_iot_sdk\c-utility\src/map.c ****                 size_t valueLength = strlen(value);
 1542              		.loc 1 421 0
 1543 0098 2800     		movs	r0, r5
ARM GAS  C:\Users\Phuong\AppData\Local\Temp\cczAMJrc.s 			page 38


 1544              	.LVL221:
 1545 009a FFF7FEFF 		bl	strlen
 1546              	.LVL222:
 422:Source\azure_iot_sdk\c-utility\src/map.c ****                 /*try to realloc value of this key*/
 423:Source\azure_iot_sdk\c-utility\src/map.c ****                 char* newValue = (char*)realloc(handleData->values[index],valueLength  + 1);
 1547              		.loc 1 423 0
 1548 009e 6368     		ldr	r3, [r4, #4]
 1549 00a0 9B59     		ldr	r3, [r3, r6]
 1550 00a2 421C     		adds	r2, r0, #1
 1551 00a4 0592     		str	r2, [sp, #20]
 1552 00a6 1100     		movs	r1, r2
 1553 00a8 1800     		movs	r0, r3
 1554              	.LVL223:
 1555 00aa FFF7FEFF 		bl	realloc
 1556              	.LVL224:
 1557 00ae 071E     		subs	r7, r0, #0
 1558              	.LVL225:
 424:Source\azure_iot_sdk\c-utility\src/map.c ****                 if (newValue == NULL)
 1559              		.loc 1 424 0
 1560 00b0 14D1     		bne	.L99
 1561              	.LVL226:
 1562              	.LBB38:
 425:Source\azure_iot_sdk\c-utility\src/map.c ****                 {
 426:Source\azure_iot_sdk\c-utility\src/map.c ****                     result = MAP_ERROR;
 427:Source\azure_iot_sdk\c-utility\src/map.c ****                     LOG_MAP_ERROR;
 1563              		.loc 1 427 0
 1564 00b2 FFF7FEFF 		bl	xlogging_get_log_function
 1565              	.LVL227:
 1566 00b6 041E     		subs	r4, r0, #0
 1567              	.LVL228:
 1568 00b8 20D0     		beq	.L104
 1569              		.loc 1 427 0 is_stmt 0 discriminator 4
 1570 00ba 0120     		movs	r0, #1
 1571              	.LVL229:
 1572 00bc FFF7FEFF 		bl	MAP_RESULTStrings
 1573              	.LVL230:
 1574 00c0 0290     		str	r0, [sp, #8]
 1575 00c2 104B     		ldr	r3, .L105
 1576 00c4 0193     		str	r3, [sp, #4]
 1577 00c6 0123     		movs	r3, #1
 1578 00c8 0093     		str	r3, [sp]
 1579 00ca AC23     		movs	r3, #172
 1580 00cc FF33     		adds	r3, r3, #255
 1581 00ce 0E4A     		ldr	r2, .L105+4
 1582 00d0 6832     		adds	r2, r2, #104
 1583 00d2 0E49     		ldr	r1, .L105+8
 1584 00d4 0020     		movs	r0, #0
 1585 00d6 A047     		blx	r4
 1586              	.LVL231:
 1587              	.LBE38:
 426:Source\azure_iot_sdk\c-utility\src/map.c ****                     LOG_MAP_ERROR;
 1588              		.loc 1 426 0 is_stmt 1 discriminator 4
 1589 00d8 0120     		movs	r0, #1
 1590 00da 10E0     		b	.L96
 1591              	.LVL232:
 1592              	.L99:
 428:Source\azure_iot_sdk\c-utility\src/map.c ****                 }
ARM GAS  C:\Users\Phuong\AppData\Local\Temp\cczAMJrc.s 			page 39


 429:Source\azure_iot_sdk\c-utility\src/map.c ****                 else
 430:Source\azure_iot_sdk\c-utility\src/map.c ****                 {
 431:Source\azure_iot_sdk\c-utility\src/map.c ****                     (void)memcpy(newValue, value, valueLength + 1);
 1593              		.loc 1 431 0
 1594 00dc 059A     		ldr	r2, [sp, #20]
 1595 00de 2900     		movs	r1, r5
 1596 00e0 FFF7FEFF 		bl	memcpy
 1597              	.LVL233:
 432:Source\azure_iot_sdk\c-utility\src/map.c ****                     handleData->values[index] = newValue;
 1598              		.loc 1 432 0
 1599 00e4 6368     		ldr	r3, [r4, #4]
 1600 00e6 9F51     		str	r7, [r3, r6]
 1601              	.LVL234:
 433:Source\azure_iot_sdk\c-utility\src/map.c ****                     /*Codes_SRS_MAP_02_019: [Otherwise, Map_AddOrUpdate shall return MAP_OK.] */
 434:Source\azure_iot_sdk\c-utility\src/map.c ****                     result = MAP_OK;
 1602              		.loc 1 434 0
 1603 00e8 0020     		movs	r0, #0
 1604 00ea 08E0     		b	.L96
 1605              	.LVL235:
 1606              	.L100:
 1607              	.LBE37:
 1608              	.LBE35:
 1609              	.LBE34:
 389:Source\azure_iot_sdk\c-utility\src/map.c ****         LOG_MAP_ERROR;
 1610              		.loc 1 389 0
 1611 00ec 0220     		movs	r0, #2
 1612              	.LVL236:
 1613 00ee 06E0     		b	.L96
 1614              	.LVL237:
 1615              	.L101:
 1616              	.LBB41:
 399:Source\azure_iot_sdk\c-utility\src/map.c ****         }
 1617              		.loc 1 399 0
 1618 00f0 0520     		movs	r0, #5
 1619 00f2 04E0     		b	.L96
 1620              	.L102:
 1621              	.LBB40:
 414:Source\azure_iot_sdk\c-utility\src/map.c ****                 }
 1622              		.loc 1 414 0
 1623 00f4 0020     		movs	r0, #0
 1624 00f6 02E0     		b	.L96
 1625              	.LVL238:
 1626              	.L103:
 409:Source\azure_iot_sdk\c-utility\src/map.c ****                     LOG_MAP_ERROR;
 1627              		.loc 1 409 0
 1628 00f8 0120     		movs	r0, #1
 1629              	.LVL239:
 1630 00fa 00E0     		b	.L96
 1631              	.LVL240:
 1632              	.L104:
 1633              	.LBB39:
 426:Source\azure_iot_sdk\c-utility\src/map.c ****                     LOG_MAP_ERROR;
 1634              		.loc 1 426 0
 1635 00fc 0120     		movs	r0, #1
 1636              	.LVL241:
 1637              	.L96:
 1638              	.LBE39:
ARM GAS  C:\Users\Phuong\AppData\Local\Temp\cczAMJrc.s 			page 40


 1639              	.LBE40:
 1640              	.LBE41:
 435:Source\azure_iot_sdk\c-utility\src/map.c ****                 }
 436:Source\azure_iot_sdk\c-utility\src/map.c ****             }
 437:Source\azure_iot_sdk\c-utility\src/map.c ****         }
 438:Source\azure_iot_sdk\c-utility\src/map.c ****     }
 439:Source\azure_iot_sdk\c-utility\src/map.c ****     return result;
 440:Source\azure_iot_sdk\c-utility\src/map.c **** }
 1641              		.loc 1 440 0
 1642 00fe 07B0     		add	sp, sp, #28
 1643              		@ sp needed
 1644              	.LVL242:
 1645 0100 F0BD     		pop	{r4, r5, r6, r7, pc}
 1646              	.L106:
 1647 0102 C046     		.align	2
 1648              	.L105:
 1649 0104 04010000 		.word	.LC28
 1650 0108 00000000 		.word	.LANCHOR0
 1651 010c 00000000 		.word	.LC1
 1652              		.cfi_endproc
 1653              	.LFE13:
 1654              		.size	Map_AddOrUpdate, .-Map_AddOrUpdate
 1655              		.section	.text.Map_Delete,"ax",%progbits
 1656              		.align	2
 1657              		.global	Map_Delete
 1658              		.code	16
 1659              		.thumb_func
 1660              		.type	Map_Delete, %function
 1661              	Map_Delete:
 1662              	.LFB14:
 441:Source\azure_iot_sdk\c-utility\src/map.c **** 
 442:Source\azure_iot_sdk\c-utility\src/map.c **** MAP_RESULT Map_Delete(MAP_HANDLE handle, const char* key)
 443:Source\azure_iot_sdk\c-utility\src/map.c **** {
 1663              		.loc 1 443 0
 1664              		.cfi_startproc
 1665              		@ args = 0, pretend = 0, frame = 0
 1666              		@ frame_needed = 0, uses_anonymous_args = 0
 1667              	.LVL243:
 1668 0000 F0B5     		push	{r4, r5, r6, r7, lr}
 1669              		.cfi_def_cfa_offset 20
 1670              		.cfi_offset 4, -20
 1671              		.cfi_offset 5, -16
 1672              		.cfi_offset 6, -12
 1673              		.cfi_offset 7, -8
 1674              		.cfi_offset 14, -4
 1675 0002 85B0     		sub	sp, sp, #20
 1676              		.cfi_def_cfa_offset 40
 1677 0004 041E     		subs	r4, r0, #0
 444:Source\azure_iot_sdk\c-utility\src/map.c ****     MAP_RESULT result;
 445:Source\azure_iot_sdk\c-utility\src/map.c ****     /*Codes_SRS_MAP_02_020: [If parameter handle is NULL then Map_Delete shall return MAP_INVALIDAR
 446:Source\azure_iot_sdk\c-utility\src/map.c ****     /*Codes_SRS_MAP_02_021: [If parameter key is NULL then Map_Delete shall return MAP_INVALIDARG.]
 447:Source\azure_iot_sdk\c-utility\src/map.c ****     if (
 1678              		.loc 1 447 0
 1679 0006 01D0     		beq	.L108
 448:Source\azure_iot_sdk\c-utility\src/map.c ****         (handle == NULL) ||
 1680              		.loc 1 448 0
 1681 0008 0029     		cmp	r1, #0
ARM GAS  C:\Users\Phuong\AppData\Local\Temp\cczAMJrc.s 			page 41


 1682 000a 14D1     		bne	.L109
 1683              	.L108:
 1684              	.LVL244:
 1685              	.LBB42:
 449:Source\azure_iot_sdk\c-utility\src/map.c ****         (key == NULL)
 450:Source\azure_iot_sdk\c-utility\src/map.c ****         )
 451:Source\azure_iot_sdk\c-utility\src/map.c ****     {
 452:Source\azure_iot_sdk\c-utility\src/map.c ****         result = MAP_INVALIDARG;
 453:Source\azure_iot_sdk\c-utility\src/map.c ****         LOG_MAP_ERROR;
 1686              		.loc 1 453 0
 1687 000c FFF7FEFF 		bl	xlogging_get_log_function
 1688              	.LVL245:
 1689 0010 041E     		subs	r4, r0, #0
 1690              	.LVL246:
 1691 0012 3BD0     		beq	.L111
 1692              		.loc 1 453 0 is_stmt 0 discriminator 4
 1693 0014 0220     		movs	r0, #2
 1694              	.LVL247:
 1695 0016 FFF7FEFF 		bl	MAP_RESULTStrings
 1696              	.LVL248:
 1697 001a 0290     		str	r0, [sp, #8]
 1698 001c 1E4B     		ldr	r3, .L113
 1699 001e 0193     		str	r3, [sp, #4]
 1700 0020 0123     		movs	r3, #1
 1701 0022 0093     		str	r3, [sp]
 1702 0024 C623     		movs	r3, #198
 1703 0026 FF33     		adds	r3, r3, #255
 1704 0028 1C4A     		ldr	r2, .L113+4
 1705 002a 7832     		adds	r2, r2, #120
 1706 002c 1C49     		ldr	r1, .L113+8
 1707 002e 0020     		movs	r0, #0
 1708 0030 A047     		blx	r4
 1709              	.LVL249:
 1710              	.LBE42:
 452:Source\azure_iot_sdk\c-utility\src/map.c ****         LOG_MAP_ERROR;
 1711              		.loc 1 452 0 is_stmt 1 discriminator 4
 1712 0032 0220     		movs	r0, #2
 1713 0034 2DE0     		b	.L110
 1714              	.LVL250:
 1715              	.L109:
 1716              	.LBB43:
 454:Source\azure_iot_sdk\c-utility\src/map.c ****     }
 455:Source\azure_iot_sdk\c-utility\src/map.c ****     else
 456:Source\azure_iot_sdk\c-utility\src/map.c ****     {
 457:Source\azure_iot_sdk\c-utility\src/map.c ****         MAP_HANDLE_DATA* handleData = (MAP_HANDLE_DATA*)handle;
 458:Source\azure_iot_sdk\c-utility\src/map.c ****         char** whereIsIt = findKey(handleData,key);
 1717              		.loc 1 458 0
 1718 0036 FFF7FEFF 		bl	findKey
 1719              	.LVL251:
 459:Source\azure_iot_sdk\c-utility\src/map.c ****         if (whereIsIt == NULL)
 1720              		.loc 1 459 0
 1721 003a 0028     		cmp	r0, #0
 1722 003c 28D0     		beq	.L112
 1723              	.LBB44:
 460:Source\azure_iot_sdk\c-utility\src/map.c ****         {
 461:Source\azure_iot_sdk\c-utility\src/map.c ****             /*Codes_SRS_MAP_02_022: [If key does not exist then Map_Delete shall return MAP_KEYNOTF
 462:Source\azure_iot_sdk\c-utility\src/map.c ****             result = MAP_KEYNOTFOUND;
ARM GAS  C:\Users\Phuong\AppData\Local\Temp\cczAMJrc.s 			page 42


 463:Source\azure_iot_sdk\c-utility\src/map.c ****         }
 464:Source\azure_iot_sdk\c-utility\src/map.c ****         else
 465:Source\azure_iot_sdk\c-utility\src/map.c ****         {
 466:Source\azure_iot_sdk\c-utility\src/map.c ****             /*Codes_SRS_MAP_02_023: [Otherwise, Map_Delete shall remove the key and its associated 
 467:Source\azure_iot_sdk\c-utility\src/map.c ****             size_t index = whereIsIt - handleData->keys;
 1724              		.loc 1 467 0
 1725 003e 2368     		ldr	r3, [r4]
 1726 0040 C51A     		subs	r5, r0, r3
 1727 0042 AF10     		asrs	r7, r5, #2
 1728              	.LVL252:
 468:Source\azure_iot_sdk\c-utility\src/map.c ****             free(handleData->keys[index]);
 1729              		.loc 1 468 0
 1730 0044 0068     		ldr	r0, [r0]
 1731              	.LVL253:
 1732 0046 FFF7FEFF 		bl	free
 1733              	.LVL254:
 469:Source\azure_iot_sdk\c-utility\src/map.c ****             free(handleData->values[index]);
 1734              		.loc 1 469 0
 1735 004a 6368     		ldr	r3, [r4, #4]
 1736 004c 5859     		ldr	r0, [r3, r5]
 1737 004e FFF7FEFF 		bl	free
 1738              	.LVL255:
 470:Source\azure_iot_sdk\c-utility\src/map.c ****             memmove(handleData->keys + index, handleData->keys + index + 1, (handleData->count - in
 1739              		.loc 1 470 0
 1740 0052 2068     		ldr	r0, [r4]
 1741 0054 7E1C     		adds	r6, r7, #1
 1742 0056 B600     		lsls	r6, r6, #2
 1743 0058 8119     		adds	r1, r0, r6
 1744 005a A368     		ldr	r3, [r4, #8]
 1745 005c DA1B     		subs	r2, r3, r7
 1746 005e 114B     		ldr	r3, .L113+12
 1747 0060 9C46     		mov	ip, r3
 1748 0062 6244     		add	r2, r2, ip
 1749 0064 9200     		lsls	r2, r2, #2
 1750 0066 4019     		adds	r0, r0, r5
 1751 0068 FFF7FEFF 		bl	memmove
 1752              	.LVL256:
 471:Source\azure_iot_sdk\c-utility\src/map.c ****             memmove(handleData->values + index, handleData->values + index + 1, (handleData->count 
 1753              		.loc 1 471 0
 1754 006c 6068     		ldr	r0, [r4, #4]
 1755 006e 8119     		adds	r1, r0, r6
 1756 0070 A368     		ldr	r3, [r4, #8]
 1757 0072 DA1B     		subs	r2, r3, r7
 1758 0074 0B4B     		ldr	r3, .L113+12
 1759 0076 9C46     		mov	ip, r3
 1760 0078 6244     		add	r2, r2, ip
 1761 007a 9200     		lsls	r2, r2, #2
 1762 007c 4019     		adds	r0, r0, r5
 1763 007e FFF7FEFF 		bl	memmove
 1764              	.LVL257:
 472:Source\azure_iot_sdk\c-utility\src/map.c ****             Map_DecreaseStorageKeysValues(handleData);
 1765              		.loc 1 472 0
 1766 0082 2000     		movs	r0, r4
 1767 0084 FFF7FEFF 		bl	Map_DecreaseStorageKeysValues
 1768              	.LVL258:
 473:Source\azure_iot_sdk\c-utility\src/map.c ****             result = MAP_OK;
 1769              		.loc 1 473 0
ARM GAS  C:\Users\Phuong\AppData\Local\Temp\cczAMJrc.s 			page 43


 1770 0088 0020     		movs	r0, #0
 1771 008a 02E0     		b	.L110
 1772              	.LVL259:
 1773              	.L111:
 1774              	.LBE44:
 1775              	.LBE43:
 452:Source\azure_iot_sdk\c-utility\src/map.c ****         LOG_MAP_ERROR;
 1776              		.loc 1 452 0
 1777 008c 0220     		movs	r0, #2
 1778              	.LVL260:
 1779 008e 00E0     		b	.L110
 1780              	.LVL261:
 1781              	.L112:
 1782              	.LBB45:
 462:Source\azure_iot_sdk\c-utility\src/map.c ****         }
 1783              		.loc 1 462 0
 1784 0090 0420     		movs	r0, #4
 1785              	.LVL262:
 1786              	.L110:
 1787              	.LBE45:
 474:Source\azure_iot_sdk\c-utility\src/map.c ****         }
 475:Source\azure_iot_sdk\c-utility\src/map.c **** 
 476:Source\azure_iot_sdk\c-utility\src/map.c ****     }
 477:Source\azure_iot_sdk\c-utility\src/map.c ****     return result;
 478:Source\azure_iot_sdk\c-utility\src/map.c **** }
 1788              		.loc 1 478 0
 1789 0092 05B0     		add	sp, sp, #20
 1790              		@ sp needed
 1791 0094 F0BD     		pop	{r4, r5, r6, r7, pc}
 1792              	.L114:
 1793 0096 C046     		.align	2
 1794              	.L113:
 1795 0098 04010000 		.word	.LC28
 1796 009c 00000000 		.word	.LANCHOR0
 1797 00a0 00000000 		.word	.LC1
 1798 00a4 FFFFFF3F 		.word	1073741823
 1799              		.cfi_endproc
 1800              	.LFE14:
 1801              		.size	Map_Delete, .-Map_Delete
 1802              		.section	.text.Map_ContainsKey,"ax",%progbits
 1803              		.align	2
 1804              		.global	Map_ContainsKey
 1805              		.code	16
 1806              		.thumb_func
 1807              		.type	Map_ContainsKey, %function
 1808              	Map_ContainsKey:
 1809              	.LFB15:
 479:Source\azure_iot_sdk\c-utility\src/map.c **** 
 480:Source\azure_iot_sdk\c-utility\src/map.c **** MAP_RESULT Map_ContainsKey(MAP_HANDLE handle, const char* key, bool* keyExists)
 481:Source\azure_iot_sdk\c-utility\src/map.c **** {
 1810              		.loc 1 481 0
 1811              		.cfi_startproc
 1812              		@ args = 0, pretend = 0, frame = 0
 1813              		@ frame_needed = 0, uses_anonymous_args = 0
 1814              	.LVL263:
 1815 0000 10B5     		push	{r4, lr}
 1816              		.cfi_def_cfa_offset 8
ARM GAS  C:\Users\Phuong\AppData\Local\Temp\cczAMJrc.s 			page 44


 1817              		.cfi_offset 4, -8
 1818              		.cfi_offset 14, -4
 1819 0002 84B0     		sub	sp, sp, #16
 1820              		.cfi_def_cfa_offset 24
 1821 0004 1400     		movs	r4, r2
 482:Source\azure_iot_sdk\c-utility\src/map.c ****     MAP_RESULT result;
 483:Source\azure_iot_sdk\c-utility\src/map.c ****     /*Codes_SRS_MAP_02_024: [If parameter handle, key or keyExists are NULL then Map_ContainsKey sh
 484:Source\azure_iot_sdk\c-utility\src/map.c ****     if (
 1822              		.loc 1 484 0
 1823 0006 0028     		cmp	r0, #0
 1824 0008 03D0     		beq	.L116
 485:Source\azure_iot_sdk\c-utility\src/map.c ****         (handle ==NULL) ||
 1825              		.loc 1 485 0
 1826 000a 0029     		cmp	r1, #0
 1827 000c 01D0     		beq	.L116
 486:Source\azure_iot_sdk\c-utility\src/map.c ****         (key == NULL) ||
 1828              		.loc 1 486 0
 1829 000e 002A     		cmp	r2, #0
 1830 0010 14D1     		bne	.L117
 1831              	.L116:
 1832              	.LVL264:
 1833              	.LBB46:
 487:Source\azure_iot_sdk\c-utility\src/map.c ****         (keyExists == NULL)
 488:Source\azure_iot_sdk\c-utility\src/map.c ****         )
 489:Source\azure_iot_sdk\c-utility\src/map.c ****     {
 490:Source\azure_iot_sdk\c-utility\src/map.c ****         result = MAP_INVALIDARG;
 491:Source\azure_iot_sdk\c-utility\src/map.c ****         LOG_MAP_ERROR;
 1834              		.loc 1 491 0
 1835 0012 FFF7FEFF 		bl	xlogging_get_log_function
 1836              	.LVL265:
 1837 0016 041E     		subs	r4, r0, #0
 1838              	.LVL266:
 1839 0018 17D0     		beq	.L119
 1840              		.loc 1 491 0 is_stmt 0 discriminator 4
 1841 001a 0220     		movs	r0, #2
 1842              	.LVL267:
 1843 001c FFF7FEFF 		bl	MAP_RESULTStrings
 1844              	.LVL268:
 1845 0020 0290     		str	r0, [sp, #8]
 1846 0022 0B4B     		ldr	r3, .L120
 1847 0024 0193     		str	r3, [sp, #4]
 1848 0026 0123     		movs	r3, #1
 1849 0028 0093     		str	r3, [sp]
 1850 002a EC23     		movs	r3, #236
 1851 002c FF33     		adds	r3, r3, #255
 1852 002e 094A     		ldr	r2, .L120+4
 1853 0030 0432     		adds	r2, r2, #4
 1854 0032 0949     		ldr	r1, .L120+8
 1855 0034 0020     		movs	r0, #0
 1856 0036 A047     		blx	r4
 1857              	.LVL269:
 1858              	.LBE46:
 490:Source\azure_iot_sdk\c-utility\src/map.c ****         LOG_MAP_ERROR;
 1859              		.loc 1 490 0 is_stmt 1 discriminator 4
 1860 0038 0220     		movs	r0, #2
 1861 003a 07E0     		b	.L118
 1862              	.LVL270:
ARM GAS  C:\Users\Phuong\AppData\Local\Temp\cczAMJrc.s 			page 45


 1863              	.L117:
 1864              	.LBB47:
 492:Source\azure_iot_sdk\c-utility\src/map.c ****     }
 493:Source\azure_iot_sdk\c-utility\src/map.c ****     else
 494:Source\azure_iot_sdk\c-utility\src/map.c ****     {
 495:Source\azure_iot_sdk\c-utility\src/map.c ****         MAP_HANDLE_DATA* handleData = (MAP_HANDLE_DATA*)handle;
 496:Source\azure_iot_sdk\c-utility\src/map.c ****         /*Codes_SRS_MAP_02_025: [Otherwise if a key exists then Map_ContainsKey shall return MAP_OK
 497:Source\azure_iot_sdk\c-utility\src/map.c ****         /*Codes_SRS_MAP_02_026: [If a key doesn't exist, then Map_ContainsKey shall return MAP_OK a
 498:Source\azure_iot_sdk\c-utility\src/map.c ****         *keyExists = (findKey(handleData, key) != NULL) ? true: false;
 1865              		.loc 1 498 0
 1866 003c FFF7FEFF 		bl	findKey
 1867              	.LVL271:
 1868 0040 431E     		subs	r3, r0, #1
 1869 0042 9841     		sbcs	r0, r0, r3
 1870 0044 2070     		strb	r0, [r4]
 1871              	.LVL272:
 499:Source\azure_iot_sdk\c-utility\src/map.c ****         result = MAP_OK;
 1872              		.loc 1 499 0
 1873 0046 0020     		movs	r0, #0
 1874 0048 00E0     		b	.L118
 1875              	.LVL273:
 1876              	.L119:
 1877              	.LBE47:
 490:Source\azure_iot_sdk\c-utility\src/map.c ****         LOG_MAP_ERROR;
 1878              		.loc 1 490 0
 1879 004a 0220     		movs	r0, #2
 1880              	.LVL274:
 1881              	.L118:
 500:Source\azure_iot_sdk\c-utility\src/map.c ****     }
 501:Source\azure_iot_sdk\c-utility\src/map.c ****     return result;
 502:Source\azure_iot_sdk\c-utility\src/map.c **** }
 1882              		.loc 1 502 0
 1883 004c 04B0     		add	sp, sp, #16
 1884              		@ sp needed
 1885 004e 10BD     		pop	{r4, pc}
 1886              	.L121:
 1887              		.align	2
 1888              	.L120:
 1889 0050 04010000 		.word	.LC28
 1890 0054 80000000 		.word	.LANCHOR2
 1891 0058 00000000 		.word	.LC1
 1892              		.cfi_endproc
 1893              	.LFE15:
 1894              		.size	Map_ContainsKey, .-Map_ContainsKey
 1895              		.section	.text.Map_ContainsValue,"ax",%progbits
 1896              		.align	2
 1897              		.global	Map_ContainsValue
 1898              		.code	16
 1899              		.thumb_func
 1900              		.type	Map_ContainsValue, %function
 1901              	Map_ContainsValue:
 1902              	.LFB16:
 503:Source\azure_iot_sdk\c-utility\src/map.c **** 
 504:Source\azure_iot_sdk\c-utility\src/map.c **** MAP_RESULT Map_ContainsValue(MAP_HANDLE handle, const char* value, bool* valueExists)
 505:Source\azure_iot_sdk\c-utility\src/map.c **** {
 1903              		.loc 1 505 0
 1904              		.cfi_startproc
ARM GAS  C:\Users\Phuong\AppData\Local\Temp\cczAMJrc.s 			page 46


 1905              		@ args = 0, pretend = 0, frame = 0
 1906              		@ frame_needed = 0, uses_anonymous_args = 0
 1907              	.LVL275:
 1908 0000 10B5     		push	{r4, lr}
 1909              		.cfi_def_cfa_offset 8
 1910              		.cfi_offset 4, -8
 1911              		.cfi_offset 14, -4
 1912 0002 84B0     		sub	sp, sp, #16
 1913              		.cfi_def_cfa_offset 24
 1914 0004 1400     		movs	r4, r2
 506:Source\azure_iot_sdk\c-utility\src/map.c ****     MAP_RESULT result;
 507:Source\azure_iot_sdk\c-utility\src/map.c ****     /*Codes_SRS_MAP_02_027: [If parameter handle, value or valueExists is NULL then Map_ContainsVal
 508:Source\azure_iot_sdk\c-utility\src/map.c ****     if (
 1915              		.loc 1 508 0
 1916 0006 0028     		cmp	r0, #0
 1917 0008 03D0     		beq	.L123
 509:Source\azure_iot_sdk\c-utility\src/map.c ****         (handle == NULL) ||
 1918              		.loc 1 509 0
 1919 000a 0029     		cmp	r1, #0
 1920 000c 01D0     		beq	.L123
 510:Source\azure_iot_sdk\c-utility\src/map.c ****         (value == NULL) ||
 1921              		.loc 1 510 0
 1922 000e 002A     		cmp	r2, #0
 1923 0010 13D1     		bne	.L124
 1924              	.L123:
 1925              	.LVL276:
 1926              	.LBB48:
 511:Source\azure_iot_sdk\c-utility\src/map.c ****         (valueExists == NULL)
 512:Source\azure_iot_sdk\c-utility\src/map.c ****         )
 513:Source\azure_iot_sdk\c-utility\src/map.c ****     {
 514:Source\azure_iot_sdk\c-utility\src/map.c ****         result = MAP_INVALIDARG;
 515:Source\azure_iot_sdk\c-utility\src/map.c ****         LOG_MAP_ERROR;
 1927              		.loc 1 515 0
 1928 0012 FFF7FEFF 		bl	xlogging_get_log_function
 1929              	.LVL277:
 1930 0016 041E     		subs	r4, r0, #0
 1931              	.LVL278:
 1932 0018 16D0     		beq	.L126
 1933              		.loc 1 515 0 is_stmt 0 discriminator 4
 1934 001a 0220     		movs	r0, #2
 1935              	.LVL279:
 1936 001c FFF7FEFF 		bl	MAP_RESULTStrings
 1937              	.LVL280:
 1938 0020 0290     		str	r0, [sp, #8]
 1939 0022 0B4B     		ldr	r3, .L127
 1940 0024 0193     		str	r3, [sp, #4]
 1941 0026 0123     		movs	r3, #1
 1942 0028 0093     		str	r3, [sp]
 1943 002a 0A4B     		ldr	r3, .L127+4
 1944 002c 0A4A     		ldr	r2, .L127+8
 1945 002e 1432     		adds	r2, r2, #20
 1946 0030 0A49     		ldr	r1, .L127+12
 1947 0032 0020     		movs	r0, #0
 1948 0034 A047     		blx	r4
 1949              	.LVL281:
 1950              	.LBE48:
 514:Source\azure_iot_sdk\c-utility\src/map.c ****         LOG_MAP_ERROR;
ARM GAS  C:\Users\Phuong\AppData\Local\Temp\cczAMJrc.s 			page 47


 1951              		.loc 1 514 0 is_stmt 1 discriminator 4
 1952 0036 0220     		movs	r0, #2
 1953 0038 07E0     		b	.L125
 1954              	.LVL282:
 1955              	.L124:
 1956              	.LBB49:
 516:Source\azure_iot_sdk\c-utility\src/map.c ****     }
 517:Source\azure_iot_sdk\c-utility\src/map.c ****     else
 518:Source\azure_iot_sdk\c-utility\src/map.c ****     {
 519:Source\azure_iot_sdk\c-utility\src/map.c ****         MAP_HANDLE_DATA* handleData = (MAP_HANDLE_DATA*)handle;
 520:Source\azure_iot_sdk\c-utility\src/map.c ****         /*Codes_SRS_MAP_02_028: [Otherwise, if a pair <key, value> has its value equal to the param
 521:Source\azure_iot_sdk\c-utility\src/map.c ****         /*Codes_SRS_MAP_02_029: [Otherwise, if such a <key, value> does not exist, then Map_Contain
 522:Source\azure_iot_sdk\c-utility\src/map.c ****         *valueExists = (findValue(handleData, value) != NULL) ? true : false;
 1957              		.loc 1 522 0
 1958 003a FFF7FEFF 		bl	findValue
 1959              	.LVL283:
 1960 003e 431E     		subs	r3, r0, #1
 1961 0040 9841     		sbcs	r0, r0, r3
 1962 0042 2070     		strb	r0, [r4]
 1963              	.LVL284:
 523:Source\azure_iot_sdk\c-utility\src/map.c ****         result = MAP_OK;
 1964              		.loc 1 523 0
 1965 0044 0020     		movs	r0, #0
 1966 0046 00E0     		b	.L125
 1967              	.LVL285:
 1968              	.L126:
 1969              	.LBE49:
 514:Source\azure_iot_sdk\c-utility\src/map.c ****         LOG_MAP_ERROR;
 1970              		.loc 1 514 0
 1971 0048 0220     		movs	r0, #2
 1972              	.LVL286:
 1973              	.L125:
 524:Source\azure_iot_sdk\c-utility\src/map.c ****     }
 525:Source\azure_iot_sdk\c-utility\src/map.c ****     return result;
 526:Source\azure_iot_sdk\c-utility\src/map.c **** }
 1974              		.loc 1 526 0
 1975 004a 04B0     		add	sp, sp, #16
 1976              		@ sp needed
 1977 004c 10BD     		pop	{r4, pc}
 1978              	.L128:
 1979 004e C046     		.align	2
 1980              	.L127:
 1981 0050 04010000 		.word	.LC28
 1982 0054 03020000 		.word	515
 1983 0058 80000000 		.word	.LANCHOR2
 1984 005c 00000000 		.word	.LC1
 1985              		.cfi_endproc
 1986              	.LFE16:
 1987              		.size	Map_ContainsValue, .-Map_ContainsValue
 1988              		.section	.text.Map_GetValueFromKey,"ax",%progbits
 1989              		.align	2
 1990              		.global	Map_GetValueFromKey
 1991              		.code	16
 1992              		.thumb_func
 1993              		.type	Map_GetValueFromKey, %function
 1994              	Map_GetValueFromKey:
 1995              	.LFB17:
ARM GAS  C:\Users\Phuong\AppData\Local\Temp\cczAMJrc.s 			page 48


 527:Source\azure_iot_sdk\c-utility\src/map.c **** 
 528:Source\azure_iot_sdk\c-utility\src/map.c **** const char* Map_GetValueFromKey(MAP_HANDLE handle, const char* key)
 529:Source\azure_iot_sdk\c-utility\src/map.c **** {
 1996              		.loc 1 529 0
 1997              		.cfi_startproc
 1998              		@ args = 0, pretend = 0, frame = 0
 1999              		@ frame_needed = 0, uses_anonymous_args = 0
 2000              	.LVL287:
 2001 0000 10B5     		push	{r4, lr}
 2002              		.cfi_def_cfa_offset 8
 2003              		.cfi_offset 4, -8
 2004              		.cfi_offset 14, -4
 2005 0002 82B0     		sub	sp, sp, #8
 2006              		.cfi_def_cfa_offset 16
 2007 0004 041E     		subs	r4, r0, #0
 530:Source\azure_iot_sdk\c-utility\src/map.c ****     const char* result;
 531:Source\azure_iot_sdk\c-utility\src/map.c ****     /*Codes_SRS_MAP_02_040: [If parameter handle or key is NULL then Map_GetValueFromKey returns NU
 532:Source\azure_iot_sdk\c-utility\src/map.c ****     if (
 2008              		.loc 1 532 0
 2009 0006 01D0     		beq	.L130
 533:Source\azure_iot_sdk\c-utility\src/map.c ****         (handle == NULL) ||
 2010              		.loc 1 533 0
 2011 0008 0029     		cmp	r1, #0
 2012 000a 0FD1     		bne	.L131
 2013              	.L130:
 2014              	.LVL288:
 2015              	.LBB50:
 534:Source\azure_iot_sdk\c-utility\src/map.c ****         (key == NULL)
 535:Source\azure_iot_sdk\c-utility\src/map.c ****         )
 536:Source\azure_iot_sdk\c-utility\src/map.c ****     {
 537:Source\azure_iot_sdk\c-utility\src/map.c ****         result = NULL;
 538:Source\azure_iot_sdk\c-utility\src/map.c ****         LogError("invalid parameter to Map_GetValueFromKey");
 2016              		.loc 1 538 0
 2017 000c FFF7FEFF 		bl	xlogging_get_log_function
 2018              	.LVL289:
 2019 0010 041E     		subs	r4, r0, #0
 2020              	.LVL290:
 2021 0012 14D0     		beq	.L133
 2022              		.loc 1 538 0 is_stmt 0 discriminator 4
 2023 0014 0C4B     		ldr	r3, .L135
 2024 0016 0193     		str	r3, [sp, #4]
 2025 0018 0123     		movs	r3, #1
 2026 001a 0093     		str	r3, [sp]
 2027 001c 0B4B     		ldr	r3, .L135+4
 2028 001e 0C4A     		ldr	r2, .L135+8
 2029 0020 2832     		adds	r2, r2, #40
 2030 0022 0C49     		ldr	r1, .L135+12
 2031 0024 0020     		movs	r0, #0
 2032              	.LVL291:
 2033 0026 A047     		blx	r4
 2034              	.LVL292:
 2035              	.LBE50:
 537:Source\azure_iot_sdk\c-utility\src/map.c ****         LogError("invalid parameter to Map_GetValueFromKey");
 2036              		.loc 1 537 0 is_stmt 1 discriminator 4
 2037 0028 0020     		movs	r0, #0
 2038 002a 0BE0     		b	.L132
 2039              	.LVL293:
ARM GAS  C:\Users\Phuong\AppData\Local\Temp\cczAMJrc.s 			page 49


 2040              	.L131:
 2041              	.LBB51:
 539:Source\azure_iot_sdk\c-utility\src/map.c ****     }
 540:Source\azure_iot_sdk\c-utility\src/map.c ****     else
 541:Source\azure_iot_sdk\c-utility\src/map.c ****     {
 542:Source\azure_iot_sdk\c-utility\src/map.c ****         MAP_HANDLE_DATA * handleData = (MAP_HANDLE_DATA *)handle;
 543:Source\azure_iot_sdk\c-utility\src/map.c ****         char** whereIsIt = findKey(handleData, key);
 2042              		.loc 1 543 0
 2043 002c FFF7FEFF 		bl	findKey
 2044              	.LVL294:
 544:Source\azure_iot_sdk\c-utility\src/map.c ****         if(whereIsIt == NULL)
 2045              		.loc 1 544 0
 2046 0030 0028     		cmp	r0, #0
 2047 0032 06D0     		beq	.L134
 2048              	.LBB52:
 545:Source\azure_iot_sdk\c-utility\src/map.c ****         {
 546:Source\azure_iot_sdk\c-utility\src/map.c ****             /*Codes_SRS_MAP_02_041: [If the key is not found, then Map_GetValueFromKey returns NULL
 547:Source\azure_iot_sdk\c-utility\src/map.c ****             result = NULL;
 548:Source\azure_iot_sdk\c-utility\src/map.c ****         }
 549:Source\azure_iot_sdk\c-utility\src/map.c ****         else
 550:Source\azure_iot_sdk\c-utility\src/map.c ****         {
 551:Source\azure_iot_sdk\c-utility\src/map.c ****             /*Codes_SRS_MAP_02_042: [Otherwise, Map_GetValueFromKey returns the key's value.] */
 552:Source\azure_iot_sdk\c-utility\src/map.c ****             size_t index = whereIsIt - handleData->keys;
 2049              		.loc 1 552 0
 2050 0034 2368     		ldr	r3, [r4]
 2051 0036 C01A     		subs	r0, r0, r3
 2052              	.LVL295:
 553:Source\azure_iot_sdk\c-utility\src/map.c ****             result = handleData->values[index];
 2053              		.loc 1 553 0
 2054 0038 6368     		ldr	r3, [r4, #4]
 2055 003a 1858     		ldr	r0, [r3, r0]
 2056              	.LVL296:
 2057 003c 02E0     		b	.L132
 2058              	.LVL297:
 2059              	.L133:
 2060              	.LBE52:
 2061              	.LBE51:
 537:Source\azure_iot_sdk\c-utility\src/map.c ****         LogError("invalid parameter to Map_GetValueFromKey");
 2062              		.loc 1 537 0
 2063 003e 0020     		movs	r0, #0
 2064              	.LVL298:
 2065 0040 00E0     		b	.L132
 2066              	.LVL299:
 2067              	.L134:
 2068              	.LBB53:
 547:Source\azure_iot_sdk\c-utility\src/map.c ****         }
 2069              		.loc 1 547 0
 2070 0042 0020     		movs	r0, #0
 2071              	.LVL300:
 2072              	.L132:
 2073              	.LBE53:
 554:Source\azure_iot_sdk\c-utility\src/map.c ****         }
 555:Source\azure_iot_sdk\c-utility\src/map.c ****     }
 556:Source\azure_iot_sdk\c-utility\src/map.c ****     return result;
 557:Source\azure_iot_sdk\c-utility\src/map.c **** }
 2074              		.loc 1 557 0
 2075 0044 02B0     		add	sp, sp, #8
ARM GAS  C:\Users\Phuong\AppData\Local\Temp\cczAMJrc.s 			page 50


 2076              		@ sp needed
 2077 0046 10BD     		pop	{r4, pc}
 2078              	.L136:
 2079              		.align	2
 2080              	.L135:
 2081 0048 10010000 		.word	.LC44
 2082 004c 1A020000 		.word	538
 2083 0050 80000000 		.word	.LANCHOR2
 2084 0054 00000000 		.word	.LC1
 2085              		.cfi_endproc
 2086              	.LFE17:
 2087              		.size	Map_GetValueFromKey, .-Map_GetValueFromKey
 2088              		.section	.text.Map_GetInternals,"ax",%progbits
 2089              		.align	2
 2090              		.global	Map_GetInternals
 2091              		.code	16
 2092              		.thumb_func
 2093              		.type	Map_GetInternals, %function
 2094              	Map_GetInternals:
 2095              	.LFB18:
 558:Source\azure_iot_sdk\c-utility\src/map.c **** 
 559:Source\azure_iot_sdk\c-utility\src/map.c **** MAP_RESULT Map_GetInternals(MAP_HANDLE handle, const char*const** keys, const char*const** values, 
 560:Source\azure_iot_sdk\c-utility\src/map.c **** {
 2096              		.loc 1 560 0
 2097              		.cfi_startproc
 2098              		@ args = 0, pretend = 0, frame = 0
 2099              		@ frame_needed = 0, uses_anonymous_args = 0
 2100              	.LVL301:
 2101 0000 10B5     		push	{r4, lr}
 2102              		.cfi_def_cfa_offset 8
 2103              		.cfi_offset 4, -8
 2104              		.cfi_offset 14, -4
 2105 0002 84B0     		sub	sp, sp, #16
 2106              		.cfi_def_cfa_offset 24
 561:Source\azure_iot_sdk\c-utility\src/map.c ****     MAP_RESULT result;
 562:Source\azure_iot_sdk\c-utility\src/map.c ****     /*Codes_SRS_MAP_02_046: [If parameter handle, keys, values or count is NULL then Map_GetInterna
 563:Source\azure_iot_sdk\c-utility\src/map.c ****     if (
 2107              		.loc 1 563 0
 2108 0004 0028     		cmp	r0, #0
 2109 0006 05D0     		beq	.L138
 564:Source\azure_iot_sdk\c-utility\src/map.c ****         (handle == NULL) ||
 2110              		.loc 1 564 0
 2111 0008 0029     		cmp	r1, #0
 2112 000a 03D0     		beq	.L138
 565:Source\azure_iot_sdk\c-utility\src/map.c ****         (keys == NULL) ||
 2113              		.loc 1 565 0
 2114 000c 002A     		cmp	r2, #0
 2115 000e 01D0     		beq	.L138
 566:Source\azure_iot_sdk\c-utility\src/map.c ****         (values == NULL) ||
 2116              		.loc 1 566 0
 2117 0010 002B     		cmp	r3, #0
 2118 0012 13D1     		bne	.L139
 2119              	.L138:
 2120              	.LVL302:
 2121              	.LBB54:
 567:Source\azure_iot_sdk\c-utility\src/map.c ****         (count == NULL)
 568:Source\azure_iot_sdk\c-utility\src/map.c ****         )
ARM GAS  C:\Users\Phuong\AppData\Local\Temp\cczAMJrc.s 			page 51


 569:Source\azure_iot_sdk\c-utility\src/map.c ****     {
 570:Source\azure_iot_sdk\c-utility\src/map.c ****         result = MAP_INVALIDARG;
 571:Source\azure_iot_sdk\c-utility\src/map.c ****         LOG_MAP_ERROR;
 2122              		.loc 1 571 0
 2123 0014 FFF7FEFF 		bl	xlogging_get_log_function
 2124              	.LVL303:
 2125 0018 041E     		subs	r4, r0, #0
 2126              	.LVL304:
 2127 001a 17D0     		beq	.L141
 2128              		.loc 1 571 0 is_stmt 0 discriminator 4
 2129 001c 0220     		movs	r0, #2
 2130              	.LVL305:
 2131 001e FFF7FEFF 		bl	MAP_RESULTStrings
 2132              	.LVL306:
 2133 0022 0290     		str	r0, [sp, #8]
 2134 0024 0B4B     		ldr	r3, .L142
 2135 0026 0193     		str	r3, [sp, #4]
 2136 0028 0123     		movs	r3, #1
 2137 002a 0093     		str	r3, [sp]
 2138 002c 0A4B     		ldr	r3, .L142+4
 2139 002e 0B4A     		ldr	r2, .L142+8
 2140 0030 3C32     		adds	r2, r2, #60
 2141 0032 0B49     		ldr	r1, .L142+12
 2142 0034 0020     		movs	r0, #0
 2143 0036 A047     		blx	r4
 2144              	.LVL307:
 2145              	.LBE54:
 570:Source\azure_iot_sdk\c-utility\src/map.c ****         LOG_MAP_ERROR;
 2146              		.loc 1 570 0 is_stmt 1 discriminator 4
 2147 0038 0220     		movs	r0, #2
 2148 003a 08E0     		b	.L140
 2149              	.LVL308:
 2150              	.L139:
 2151              	.LBB55:
 572:Source\azure_iot_sdk\c-utility\src/map.c ****     }
 573:Source\azure_iot_sdk\c-utility\src/map.c ****     else
 574:Source\azure_iot_sdk\c-utility\src/map.c ****     {
 575:Source\azure_iot_sdk\c-utility\src/map.c ****         /*Codes_SRS_MAP_02_043: [Map_GetInternals shall produce in *keys an pointer to an array of 
 576:Source\azure_iot_sdk\c-utility\src/map.c ****         /*Codes_SRS_MAP_02_044: [Map_GetInternals shall produce in *values a pointer to an array of
 577:Source\azure_iot_sdk\c-utility\src/map.c ****         /*Codes_SRS_MAP_02_045: [  Map_GetInternals shall produce in *count the number of stored ke
 578:Source\azure_iot_sdk\c-utility\src/map.c ****         MAP_HANDLE_DATA * handleData = (MAP_HANDLE_DATA *)handle;
 579:Source\azure_iot_sdk\c-utility\src/map.c ****         *keys =(const char* const*)(handleData->keys);
 2152              		.loc 1 579 0
 2153 003c 0468     		ldr	r4, [r0]
 2154 003e 0C60     		str	r4, [r1]
 580:Source\azure_iot_sdk\c-utility\src/map.c ****         *values = (const char* const*)(handleData->values);
 2155              		.loc 1 580 0
 2156 0040 4168     		ldr	r1, [r0, #4]
 2157              	.LVL309:
 2158 0042 1160     		str	r1, [r2]
 581:Source\azure_iot_sdk\c-utility\src/map.c ****         *count = handleData->count;
 2159              		.loc 1 581 0
 2160 0044 8268     		ldr	r2, [r0, #8]
 2161              	.LVL310:
 2162 0046 1A60     		str	r2, [r3]
 2163              	.LVL311:
 582:Source\azure_iot_sdk\c-utility\src/map.c ****         result = MAP_OK;
ARM GAS  C:\Users\Phuong\AppData\Local\Temp\cczAMJrc.s 			page 52


 2164              		.loc 1 582 0
 2165 0048 0020     		movs	r0, #0
 2166              	.LVL312:
 2167 004a 00E0     		b	.L140
 2168              	.LVL313:
 2169              	.L141:
 2170              	.LBE55:
 570:Source\azure_iot_sdk\c-utility\src/map.c ****         LOG_MAP_ERROR;
 2171              		.loc 1 570 0
 2172 004c 0220     		movs	r0, #2
 2173              	.LVL314:
 2174              	.L140:
 583:Source\azure_iot_sdk\c-utility\src/map.c ****     }
 584:Source\azure_iot_sdk\c-utility\src/map.c ****     return result;
 585:Source\azure_iot_sdk\c-utility\src/map.c **** }
 2175              		.loc 1 585 0
 2176 004e 04B0     		add	sp, sp, #16
 2177              		@ sp needed
 2178 0050 10BD     		pop	{r4, pc}
 2179              	.L143:
 2180 0052 C046     		.align	2
 2181              	.L142:
 2182 0054 04010000 		.word	.LC28
 2183 0058 3B020000 		.word	571
 2184 005c 80000000 		.word	.LANCHOR2
 2185 0060 00000000 		.word	.LC1
 2186              		.cfi_endproc
 2187              	.LFE18:
 2188              		.size	Map_GetInternals, .-Map_GetInternals
 2189              		.section	.text.Map_ToJSON,"ax",%progbits
 2190              		.align	2
 2191              		.global	Map_ToJSON
 2192              		.code	16
 2193              		.thumb_func
 2194              		.type	Map_ToJSON, %function
 2195              	Map_ToJSON:
 2196              	.LFB19:
 586:Source\azure_iot_sdk\c-utility\src/map.c **** 
 587:Source\azure_iot_sdk\c-utility\src/map.c **** STRING_HANDLE Map_ToJSON(MAP_HANDLE handle)
 588:Source\azure_iot_sdk\c-utility\src/map.c **** {
 2197              		.loc 1 588 0
 2198              		.cfi_startproc
 2199              		@ args = 0, pretend = 0, frame = 8
 2200              		@ frame_needed = 0, uses_anonymous_args = 0
 2201              	.LVL315:
 2202 0000 F0B5     		push	{r4, r5, r6, r7, lr}
 2203              		.cfi_def_cfa_offset 20
 2204              		.cfi_offset 4, -20
 2205              		.cfi_offset 5, -16
 2206              		.cfi_offset 6, -12
 2207              		.cfi_offset 7, -8
 2208              		.cfi_offset 14, -4
 2209 0002 85B0     		sub	sp, sp, #20
 2210              		.cfi_def_cfa_offset 40
 2211 0004 061E     		subs	r6, r0, #0
 589:Source\azure_iot_sdk\c-utility\src/map.c ****     STRING_HANDLE result;
 590:Source\azure_iot_sdk\c-utility\src/map.c ****     /*Codes_SRS_MAP_02_052: [If parameter handle is NULL then Map_ToJSON shall return NULL.] */
ARM GAS  C:\Users\Phuong\AppData\Local\Temp\cczAMJrc.s 			page 53


 591:Source\azure_iot_sdk\c-utility\src/map.c ****     if (handle == NULL)
 2212              		.loc 1 591 0
 2213 0006 11D1     		bne	.L145
 2214              	.LVL316:
 2215              	.LBB56:
 592:Source\azure_iot_sdk\c-utility\src/map.c ****     {
 593:Source\azure_iot_sdk\c-utility\src/map.c ****         result = NULL;
 594:Source\azure_iot_sdk\c-utility\src/map.c ****         LogError("invalid arg (NULL)");
 2216              		.loc 1 594 0
 2217 0008 FFF7FEFF 		bl	xlogging_get_log_function
 2218              	.LVL317:
 2219 000c 041E     		subs	r4, r0, #0
 2220              	.LVL318:
 2221 000e 00D1     		bne	.LCB2529
 2222 0010 C4E0     		b	.L162	@long jump
 2223              	.LCB2529:
 2224              		.loc 1 594 0 is_stmt 0 discriminator 4
 2225 0012 654B     		ldr	r3, .L164
 2226 0014 0193     		str	r3, [sp, #4]
 2227 0016 0123     		movs	r3, #1
 2228 0018 0093     		str	r3, [sp]
 2229 001a 644B     		ldr	r3, .L164+4
 2230 001c 644A     		ldr	r2, .L164+8
 2231 001e 5032     		adds	r2, r2, #80
 2232 0020 6449     		ldr	r1, .L164+12
 2233 0022 0020     		movs	r0, #0
 2234              	.LVL319:
 2235 0024 A047     		blx	r4
 2236              	.LVL320:
 2237              	.LBE56:
 593:Source\azure_iot_sdk\c-utility\src/map.c ****         LogError("invalid arg (NULL)");
 2238              		.loc 1 593 0 is_stmt 1 discriminator 4
 2239 0026 0023     		movs	r3, #0
 2240 0028 0293     		str	r3, [sp, #8]
 2241 002a B9E0     		b	.L146
 2242              	.LVL321:
 2243              	.L145:
 595:Source\azure_iot_sdk\c-utility\src/map.c ****     }
 596:Source\azure_iot_sdk\c-utility\src/map.c ****     else
 597:Source\azure_iot_sdk\c-utility\src/map.c ****     {
 598:Source\azure_iot_sdk\c-utility\src/map.c ****         /*Codes_SRS_MAP_02_048: [Map_ToJSON shall produce a STRING_HANDLE representing the content 
 599:Source\azure_iot_sdk\c-utility\src/map.c ****         result = STRING_construct("{");
 2244              		.loc 1 599 0
 2245 002c 6248     		ldr	r0, .L164+16
 2246              	.LVL322:
 2247 002e FFF7FEFF 		bl	STRING_construct
 2248              	.LVL323:
 2249 0032 0290     		str	r0, [sp, #8]
 2250              	.LVL324:
 600:Source\azure_iot_sdk\c-utility\src/map.c ****         if (result == NULL)
 2251              		.loc 1 600 0
 2252 0034 0028     		cmp	r0, #0
 2253 0036 00D0     		beq	.LCB2559
 2254 0038 7DE0     		b	.L163	@long jump
 2255              	.LCB2559:
 2256              	.LBB57:
 601:Source\azure_iot_sdk\c-utility\src/map.c ****         {
ARM GAS  C:\Users\Phuong\AppData\Local\Temp\cczAMJrc.s 			page 54


 602:Source\azure_iot_sdk\c-utility\src/map.c ****             LogError("STRING_construct failed");
 2257              		.loc 1 602 0 discriminator 3
 2258 003a FFF7FEFF 		bl	xlogging_get_log_function
 2259              	.LVL325:
 2260 003e 041E     		subs	r4, r0, #0
 2261              	.LVL326:
 2262 0040 00D1     		bne	.LCB2567
 2263 0042 ADE0     		b	.L146	@long jump
 2264              	.LCB2567:
 2265              		.loc 1 602 0 is_stmt 0 discriminator 4
 2266 0044 5D4B     		ldr	r3, .L164+20
 2267 0046 0193     		str	r3, [sp, #4]
 2268 0048 0123     		movs	r3, #1
 2269 004a 0093     		str	r3, [sp]
 2270 004c 5C4B     		ldr	r3, .L164+24
 2271 004e 584A     		ldr	r2, .L164+8
 2272 0050 5032     		adds	r2, r2, #80
 2273 0052 5849     		ldr	r1, .L164+12
 2274 0054 0020     		movs	r0, #0
 2275              	.LVL327:
 2276 0056 A047     		blx	r4
 2277              	.LVL328:
 2278 0058 A2E0     		b	.L146
 2279              	.LVL329:
 2280              	.L159:
 2281              	.LBE57:
 2282              	.LBB58:
 2283              	.LBB59:
 603:Source\azure_iot_sdk\c-utility\src/map.c ****         }
 604:Source\azure_iot_sdk\c-utility\src/map.c ****         else
 605:Source\azure_iot_sdk\c-utility\src/map.c ****         {
 606:Source\azure_iot_sdk\c-utility\src/map.c ****             size_t i;
 607:Source\azure_iot_sdk\c-utility\src/map.c ****             MAP_HANDLE_DATA* handleData = (MAP_HANDLE_DATA *)handle;
 608:Source\azure_iot_sdk\c-utility\src/map.c ****             /*Codes_SRS_MAP_02_049: [If the MAP is empty, then Map_ToJSON shall produce the string 
 609:Source\azure_iot_sdk\c-utility\src/map.c ****             bool breakFor = false; /*used to break out of for*/
 610:Source\azure_iot_sdk\c-utility\src/map.c ****             for (i = 0; (i < handleData->count) && (!breakFor); i++)
 611:Source\azure_iot_sdk\c-utility\src/map.c ****             {
 612:Source\azure_iot_sdk\c-utility\src/map.c ****                 /*add one entry to the JSON*/
 613:Source\azure_iot_sdk\c-utility\src/map.c ****                 /*Codes_SRS_MAP_02_050: [If the map has properties then Map_ToJSON shall produce th
 614:Source\azure_iot_sdk\c-utility\src/map.c ****                 STRING_HANDLE key = STRING_new_JSON(handleData->keys[i]);
 2284              		.loc 1 614 0 is_stmt 1
 2285 005a A700     		lsls	r7, r4, #2
 2286 005c 3368     		ldr	r3, [r6]
 2287 005e D859     		ldr	r0, [r3, r7]
 2288 0060 FFF7FEFF 		bl	STRING_new_JSON
 2289              	.LVL330:
 2290 0064 0390     		str	r0, [sp, #12]
 2291              	.LVL331:
 615:Source\azure_iot_sdk\c-utility\src/map.c ****                 if (key == NULL)
 2292              		.loc 1 615 0
 2293 0066 0028     		cmp	r0, #0
 2294 0068 14D1     		bne	.L148
 2295              	.LBB60:
 616:Source\azure_iot_sdk\c-utility\src/map.c ****                 {
 617:Source\azure_iot_sdk\c-utility\src/map.c ****                     LogError("STRING_new_JSON failed");
 2296              		.loc 1 617 0 discriminator 3
 2297 006a FFF7FEFF 		bl	xlogging_get_log_function
ARM GAS  C:\Users\Phuong\AppData\Local\Temp\cczAMJrc.s 			page 55


 2298              	.LVL332:
 2299 006e 051E     		subs	r5, r0, #0
 2300              	.LVL333:
 2301 0070 09D0     		beq	.L149
 2302              		.loc 1 617 0 is_stmt 0 discriminator 4
 2303 0072 544B     		ldr	r3, .L164+28
 2304 0074 0193     		str	r3, [sp, #4]
 2305 0076 0123     		movs	r3, #1
 2306 0078 0093     		str	r3, [sp]
 2307 007a 534B     		ldr	r3, .L164+32
 2308 007c 4C4A     		ldr	r2, .L164+8
 2309 007e 5032     		adds	r2, r2, #80
 2310 0080 4C49     		ldr	r1, .L164+12
 2311 0082 0020     		movs	r0, #0
 2312              	.LVL334:
 2313 0084 A847     		blx	r5
 2314              	.LVL335:
 2315              	.L149:
 2316              	.LBE60:
 618:Source\azure_iot_sdk\c-utility\src/map.c ****                     STRING_delete(result);
 2317              		.loc 1 618 0 is_stmt 1
 2318 0086 0298     		ldr	r0, [sp, #8]
 2319 0088 FFF7FEFF 		bl	STRING_delete
 2320              	.LVL336:
 619:Source\azure_iot_sdk\c-utility\src/map.c ****                     result = NULL;
 620:Source\azure_iot_sdk\c-utility\src/map.c ****                     breakFor = true;
 2321              		.loc 1 620 0
 2322 008c 0125     		movs	r5, #1
 2323              	.LVL337:
 619:Source\azure_iot_sdk\c-utility\src/map.c ****                     result = NULL;
 2324              		.loc 1 619 0
 2325 008e 0023     		movs	r3, #0
 2326 0090 0293     		str	r3, [sp, #8]
 2327 0092 4EE0     		b	.L150
 2328              	.LVL338:
 2329              	.L148:
 2330              	.LBB61:
 621:Source\azure_iot_sdk\c-utility\src/map.c ****                 }
 622:Source\azure_iot_sdk\c-utility\src/map.c ****                 else
 623:Source\azure_iot_sdk\c-utility\src/map.c ****                 {
 624:Source\azure_iot_sdk\c-utility\src/map.c ****                     STRING_HANDLE value = STRING_new_JSON(handleData->values[i]);
 2331              		.loc 1 624 0
 2332 0094 7368     		ldr	r3, [r6, #4]
 2333 0096 D859     		ldr	r0, [r3, r7]
 2334              	.LVL339:
 2335 0098 FFF7FEFF 		bl	STRING_new_JSON
 2336              	.LVL340:
 2337 009c 071E     		subs	r7, r0, #0
 2338              	.LVL341:
 625:Source\azure_iot_sdk\c-utility\src/map.c ****                     if (value == NULL)
 2339              		.loc 1 625 0
 2340 009e 14D1     		bne	.L151
 2341              	.LBB62:
 626:Source\azure_iot_sdk\c-utility\src/map.c ****                     {
 627:Source\azure_iot_sdk\c-utility\src/map.c ****                         LogError("STRING_new_JSON failed");
 2342              		.loc 1 627 0 discriminator 3
 2343 00a0 FFF7FEFF 		bl	xlogging_get_log_function
ARM GAS  C:\Users\Phuong\AppData\Local\Temp\cczAMJrc.s 			page 56


 2344              	.LVL342:
 2345 00a4 071E     		subs	r7, r0, #0
 2346              	.LVL343:
 2347 00a6 09D0     		beq	.L152
 2348              		.loc 1 627 0 is_stmt 0 discriminator 4
 2349 00a8 464B     		ldr	r3, .L164+28
 2350 00aa 0193     		str	r3, [sp, #4]
 2351 00ac 0123     		movs	r3, #1
 2352 00ae 0093     		str	r3, [sp]
 2353 00b0 464B     		ldr	r3, .L164+36
 2354 00b2 3F4A     		ldr	r2, .L164+8
 2355 00b4 5032     		adds	r2, r2, #80
 2356 00b6 3F49     		ldr	r1, .L164+12
 2357 00b8 0020     		movs	r0, #0
 2358              	.LVL344:
 2359 00ba B847     		blx	r7
 2360              	.LVL345:
 2361              	.L152:
 2362              	.LBE62:
 628:Source\azure_iot_sdk\c-utility\src/map.c ****                         STRING_delete(result);
 2363              		.loc 1 628 0 is_stmt 1
 2364 00bc 0298     		ldr	r0, [sp, #8]
 2365 00be FFF7FEFF 		bl	STRING_delete
 2366              	.LVL346:
 629:Source\azure_iot_sdk\c-utility\src/map.c ****                         result = NULL;
 630:Source\azure_iot_sdk\c-utility\src/map.c ****                         breakFor = true;
 2367              		.loc 1 630 0
 2368 00c2 0125     		movs	r5, #1
 629:Source\azure_iot_sdk\c-utility\src/map.c ****                         result = NULL;
 2369              		.loc 1 629 0
 2370 00c4 0023     		movs	r3, #0
 2371 00c6 0293     		str	r3, [sp, #8]
 2372 00c8 30E0     		b	.L153
 2373              	.LVL347:
 2374              	.L151:
 631:Source\azure_iot_sdk\c-utility\src/map.c ****                     }
 632:Source\azure_iot_sdk\c-utility\src/map.c ****                     else
 633:Source\azure_iot_sdk\c-utility\src/map.c ****                     {
 634:Source\azure_iot_sdk\c-utility\src/map.c ****                         if (!(
 2375              		.loc 1 634 0
 2376 00ca 002C     		cmp	r4, #0
 2377 00cc 05D0     		beq	.L154
 635:Source\azure_iot_sdk\c-utility\src/map.c ****                             ((i>0) ? (STRING_concat(result, ",") == 0) : 1) &&
 2378              		.loc 1 635 0
 2379 00ce 4049     		ldr	r1, .L164+40
 2380 00d0 0298     		ldr	r0, [sp, #8]
 2381              	.LVL348:
 2382 00d2 FFF7FEFF 		bl	STRING_concat
 2383              	.LVL349:
 2384 00d6 0028     		cmp	r0, #0
 2385 00d8 11D1     		bne	.L155
 2386              	.L154:
 636:Source\azure_iot_sdk\c-utility\src/map.c ****                             (STRING_concat_with_STRING(result, key) == 0) &&
 2387              		.loc 1 636 0 discriminator 1
 2388 00da 0399     		ldr	r1, [sp, #12]
 2389 00dc 0298     		ldr	r0, [sp, #8]
 2390 00de FFF7FEFF 		bl	STRING_concat_with_STRING
ARM GAS  C:\Users\Phuong\AppData\Local\Temp\cczAMJrc.s 			page 57


 2391              	.LVL350:
 635:Source\azure_iot_sdk\c-utility\src/map.c ****                             ((i>0) ? (STRING_concat(result, ",") == 0) : 1) &&
 2392              		.loc 1 635 0 discriminator 1
 2393 00e2 0028     		cmp	r0, #0
 2394 00e4 0BD1     		bne	.L155
 637:Source\azure_iot_sdk\c-utility\src/map.c ****                             (STRING_concat(result, ":") == 0) &&
 2395              		.loc 1 637 0
 2396 00e6 3B49     		ldr	r1, .L164+44
 2397 00e8 0298     		ldr	r0, [sp, #8]
 2398 00ea FFF7FEFF 		bl	STRING_concat
 2399              	.LVL351:
 636:Source\azure_iot_sdk\c-utility\src/map.c ****                             (STRING_concat_with_STRING(result, key) == 0) &&
 2400              		.loc 1 636 0
 2401 00ee 0028     		cmp	r0, #0
 2402 00f0 05D1     		bne	.L155
 638:Source\azure_iot_sdk\c-utility\src/map.c ****                             (STRING_concat_with_STRING(result, value) == 0)
 2403              		.loc 1 638 0
 2404 00f2 3900     		movs	r1, r7
 2405 00f4 0298     		ldr	r0, [sp, #8]
 2406 00f6 FFF7FEFF 		bl	STRING_concat_with_STRING
 2407              	.LVL352:
 634:Source\azure_iot_sdk\c-utility\src/map.c ****                             ((i>0) ? (STRING_concat(result, ",") == 0) : 1) &&
 2408              		.loc 1 634 0
 2409 00fa 0028     		cmp	r0, #0
 2410 00fc 13D0     		beq	.L156
 2411              	.L155:
 2412              	.LBB63:
 639:Source\azure_iot_sdk\c-utility\src/map.c ****                             ))
 640:Source\azure_iot_sdk\c-utility\src/map.c ****                         {
 641:Source\azure_iot_sdk\c-utility\src/map.c ****                             LogError("failed to build the JSON");
 2413              		.loc 1 641 0 discriminator 3
 2414 00fe FFF7FEFF 		bl	xlogging_get_log_function
 2415              	.LVL353:
 2416 0102 051E     		subs	r5, r0, #0
 2417              	.LVL354:
 2418 0104 09D0     		beq	.L157
 2419              		.loc 1 641 0 is_stmt 0 discriminator 4
 2420 0106 344B     		ldr	r3, .L164+48
 2421 0108 0193     		str	r3, [sp, #4]
 2422 010a 0123     		movs	r3, #1
 2423 010c 0093     		str	r3, [sp]
 2424 010e 334B     		ldr	r3, .L164+52
 2425 0110 274A     		ldr	r2, .L164+8
 2426 0112 5032     		adds	r2, r2, #80
 2427 0114 2749     		ldr	r1, .L164+12
 2428 0116 0020     		movs	r0, #0
 2429              	.LVL355:
 2430 0118 A847     		blx	r5
 2431              	.LVL356:
 2432              	.L157:
 2433              	.LBE63:
 642:Source\azure_iot_sdk\c-utility\src/map.c ****                             STRING_delete(result);
 2434              		.loc 1 642 0 is_stmt 1
 2435 011a 0298     		ldr	r0, [sp, #8]
 2436 011c FFF7FEFF 		bl	STRING_delete
 2437              	.LVL357:
 643:Source\azure_iot_sdk\c-utility\src/map.c ****                             result = NULL;
ARM GAS  C:\Users\Phuong\AppData\Local\Temp\cczAMJrc.s 			page 58


 644:Source\azure_iot_sdk\c-utility\src/map.c ****                             breakFor = true;
 2438              		.loc 1 644 0
 2439 0120 0125     		movs	r5, #1
 2440              	.LVL358:
 643:Source\azure_iot_sdk\c-utility\src/map.c ****                             result = NULL;
 2441              		.loc 1 643 0
 2442 0122 0023     		movs	r3, #0
 2443 0124 0293     		str	r3, [sp, #8]
 2444              	.LVL359:
 2445              	.L156:
 645:Source\azure_iot_sdk\c-utility\src/map.c ****                         }
 646:Source\azure_iot_sdk\c-utility\src/map.c ****                         else
 647:Source\azure_iot_sdk\c-utility\src/map.c ****                         {
 648:Source\azure_iot_sdk\c-utility\src/map.c ****                             /*all nice, go to the next element in the map*/
 649:Source\azure_iot_sdk\c-utility\src/map.c ****                         }
 650:Source\azure_iot_sdk\c-utility\src/map.c ****                         STRING_delete(value);
 2446              		.loc 1 650 0
 2447 0126 3800     		movs	r0, r7
 2448 0128 FFF7FEFF 		bl	STRING_delete
 2449              	.LVL360:
 2450              	.L153:
 651:Source\azure_iot_sdk\c-utility\src/map.c ****                     }
 652:Source\azure_iot_sdk\c-utility\src/map.c ****                     STRING_delete(key);
 2451              		.loc 1 652 0
 2452 012c 0398     		ldr	r0, [sp, #12]
 2453 012e FFF7FEFF 		bl	STRING_delete
 2454              	.LVL361:
 2455              	.L150:
 2456              	.LBE61:
 2457              	.LBE59:
 610:Source\azure_iot_sdk\c-utility\src/map.c ****             {
 2458              		.loc 1 610 0 discriminator 2
 2459 0132 0134     		adds	r4, r4, #1
 2460              	.LVL362:
 2461 0134 01E0     		b	.L147
 2462              	.LVL363:
 2463              	.L163:
 2464              	.LBE58:
 2465 0136 0025     		movs	r5, #0
 2466 0138 0024     		movs	r4, #0
 2467              	.LVL364:
 2468              	.L147:
 2469              	.LBB66:
 610:Source\azure_iot_sdk\c-utility\src/map.c ****             {
 2470              		.loc 1 610 0 is_stmt 0 discriminator 1
 2471 013a B368     		ldr	r3, [r6, #8]
 2472 013c 9C42     		cmp	r4, r3
 2473 013e 01D2     		bcs	.L158
 610:Source\azure_iot_sdk\c-utility\src/map.c ****             {
 2474              		.loc 1 610 0 discriminator 3
 2475 0140 002D     		cmp	r5, #0
 2476 0142 8AD0     		beq	.L159
 2477              	.L158:
 653:Source\azure_iot_sdk\c-utility\src/map.c ****                 }
 654:Source\azure_iot_sdk\c-utility\src/map.c ****             }
 655:Source\azure_iot_sdk\c-utility\src/map.c **** 
 656:Source\azure_iot_sdk\c-utility\src/map.c ****             if (breakFor)
ARM GAS  C:\Users\Phuong\AppData\Local\Temp\cczAMJrc.s 			page 59


 2478              		.loc 1 656 0 is_stmt 1
 2479 0144 002D     		cmp	r5, #0
 2480 0146 0ED0     		beq	.L160
 2481              	.LBB64:
 657:Source\azure_iot_sdk\c-utility\src/map.c ****             {
 658:Source\azure_iot_sdk\c-utility\src/map.c ****                 LogError("error happened during JSON string builder");
 2482              		.loc 1 658 0 discriminator 3
 2483 0148 FFF7FEFF 		bl	xlogging_get_log_function
 2484              	.LVL365:
 2485 014c 041E     		subs	r4, r0, #0
 2486              	.LVL366:
 2487 014e 27D0     		beq	.L146
 2488              		.loc 1 658 0 is_stmt 0 discriminator 4
 2489 0150 234B     		ldr	r3, .L164+56
 2490 0152 0193     		str	r3, [sp, #4]
 2491 0154 0123     		movs	r3, #1
 2492 0156 0093     		str	r3, [sp]
 2493 0158 224B     		ldr	r3, .L164+60
 2494 015a 154A     		ldr	r2, .L164+8
 2495 015c 5032     		adds	r2, r2, #80
 2496 015e 1549     		ldr	r1, .L164+12
 2497 0160 0020     		movs	r0, #0
 2498              	.LVL367:
 2499 0162 A047     		blx	r4
 2500              	.LVL368:
 2501 0164 1CE0     		b	.L146
 2502              	.LVL369:
 2503              	.L160:
 2504              	.LBE64:
 659:Source\azure_iot_sdk\c-utility\src/map.c ****             }
 660:Source\azure_iot_sdk\c-utility\src/map.c ****             else
 661:Source\azure_iot_sdk\c-utility\src/map.c ****             {
 662:Source\azure_iot_sdk\c-utility\src/map.c ****                 if (STRING_concat(result, "}") != 0)
 2505              		.loc 1 662 0 is_stmt 1
 2506 0166 2049     		ldr	r1, .L164+64
 2507 0168 0298     		ldr	r0, [sp, #8]
 2508 016a FFF7FEFF 		bl	STRING_concat
 2509              	.LVL370:
 2510 016e 0028     		cmp	r0, #0
 2511 0170 16D0     		beq	.L146
 2512              	.LBB65:
 663:Source\azure_iot_sdk\c-utility\src/map.c ****                 {
 664:Source\azure_iot_sdk\c-utility\src/map.c ****                     LogError("failed to build the JSON");
 2513              		.loc 1 664 0 discriminator 3
 2514 0172 FFF7FEFF 		bl	xlogging_get_log_function
 2515              	.LVL371:
 2516 0176 041E     		subs	r4, r0, #0
 2517              	.LVL372:
 2518 0178 0AD0     		beq	.L161
 2519              		.loc 1 664 0 is_stmt 0 discriminator 4
 2520 017a 174B     		ldr	r3, .L164+48
 2521 017c 0193     		str	r3, [sp, #4]
 2522 017e 0123     		movs	r3, #1
 2523 0180 0093     		str	r3, [sp]
 2524 0182 A623     		movs	r3, #166
 2525 0184 9B00     		lsls	r3, r3, #2
 2526 0186 0A4A     		ldr	r2, .L164+8
ARM GAS  C:\Users\Phuong\AppData\Local\Temp\cczAMJrc.s 			page 60


 2527 0188 5032     		adds	r2, r2, #80
 2528 018a 0A49     		ldr	r1, .L164+12
 2529 018c 0020     		movs	r0, #0
 2530              	.LVL373:
 2531 018e A047     		blx	r4
 2532              	.LVL374:
 2533              	.L161:
 2534              	.LBE65:
 665:Source\azure_iot_sdk\c-utility\src/map.c ****                     STRING_delete(result);
 2535              		.loc 1 665 0 is_stmt 1
 2536 0190 0298     		ldr	r0, [sp, #8]
 2537 0192 FFF7FEFF 		bl	STRING_delete
 2538              	.LVL375:
 666:Source\azure_iot_sdk\c-utility\src/map.c ****                     result = NULL;
 2539              		.loc 1 666 0
 2540 0196 0023     		movs	r3, #0
 2541 0198 0293     		str	r3, [sp, #8]
 2542 019a 01E0     		b	.L146
 2543              	.LVL376:
 2544              	.L162:
 2545              	.LBE66:
 593:Source\azure_iot_sdk\c-utility\src/map.c ****         LogError("invalid arg (NULL)");
 2546              		.loc 1 593 0
 2547 019c 0023     		movs	r3, #0
 2548 019e 0293     		str	r3, [sp, #8]
 2549              	.LVL377:
 2550              	.L146:
 667:Source\azure_iot_sdk\c-utility\src/map.c ****                 }
 668:Source\azure_iot_sdk\c-utility\src/map.c ****                 else
 669:Source\azure_iot_sdk\c-utility\src/map.c ****                 {
 670:Source\azure_iot_sdk\c-utility\src/map.c ****                     /*return as is, JSON has been build*/
 671:Source\azure_iot_sdk\c-utility\src/map.c ****                 }
 672:Source\azure_iot_sdk\c-utility\src/map.c ****             }
 673:Source\azure_iot_sdk\c-utility\src/map.c ****         }
 674:Source\azure_iot_sdk\c-utility\src/map.c ****     }
 675:Source\azure_iot_sdk\c-utility\src/map.c ****     return result;
 676:Source\azure_iot_sdk\c-utility\src/map.c **** 
 677:Source\azure_iot_sdk\c-utility\src/map.c **** }
 2551              		.loc 1 677 0
 2552 01a0 0298     		ldr	r0, [sp, #8]
 2553 01a2 05B0     		add	sp, sp, #20
 2554              		@ sp needed
 2555              	.LVL378:
 2556 01a4 F0BD     		pop	{r4, r5, r6, r7, pc}
 2557              	.L165:
 2558 01a6 C046     		.align	2
 2559              	.L164:
 2560 01a8 3C010000 		.word	.LC51
 2561 01ac 52020000 		.word	594
 2562 01b0 80000000 		.word	.LANCHOR2
 2563 01b4 00000000 		.word	.LC1
 2564 01b8 50010000 		.word	.LC53
 2565 01bc 54010000 		.word	.LC55
 2566 01c0 5A020000 		.word	602
 2567 01c4 6C010000 		.word	.LC57
 2568 01c8 69020000 		.word	617
 2569 01cc 73020000 		.word	627
ARM GAS  C:\Users\Phuong\AppData\Local\Temp\cczAMJrc.s 			page 61


 2570 01d0 84010000 		.word	.LC59
 2571 01d4 88010000 		.word	.LC61
 2572 01d8 8C010000 		.word	.LC63
 2573 01dc 81020000 		.word	641
 2574 01e0 A8010000 		.word	.LC65
 2575 01e4 92020000 		.word	658
 2576 01e8 D4010000 		.word	.LC67
 2577              		.cfi_endproc
 2578              	.LFE19:
 2579              		.size	Map_ToJSON, .-Map_ToJSON
 2580              		.global	MAP_RESULTStringStorage
 2581              		.section	.rodata
 2582              		.align	2
 2583              		.set	.LANCHOR0,. + 0
 2584              		.set	.LANCHOR2,. + 128
 2585              		.type	__func__.6055, %object
 2586              		.size	__func__.6055, 30
 2587              	__func__.6055:
 2588 0000 4D61705F 		.ascii	"Map_IncreaseStorageKeysValues\000"
 2588      496E6372 
 2588      65617365 
 2588      53746F72 
 2588      6167654B 
 2589 001e 0000     		.space	2
 2590              		.type	__func__.6072, %object
 2591              		.size	__func__.6072, 30
 2592              	__func__.6072:
 2593 0020 4D61705F 		.ascii	"Map_DecreaseStorageKeysValues\000"
 2593      44656372 
 2593      65617365 
 2593      53746F72 
 2593      6167654B 
 2594 003e 0000     		.space	2
 2595              		.type	__func__.6103, %object
 2596              		.size	__func__.6103, 18
 2597              	__func__.6103:
 2598 0040 696E7365 		.ascii	"insertNewKeyValue\000"
 2598      72744E65 
 2598      774B6579 
 2598      56616C75 
 2598      6500
 2599 0052 0000     		.space	2
 2600              		.type	__func__.6032, %object
 2601              		.size	__func__.6032, 10
 2602              	__func__.6032:
 2603 0054 4D61705F 		.ascii	"Map_Clone\000"
 2603      436C6F6E 
 2603      6500
 2604 005e 0000     		.space	2
 2605              		.type	__func__.6116, %object
 2606              		.size	__func__.6116, 8
 2607              	__func__.6116:
 2608 0060 4D61705F 		.ascii	"Map_Add\000"
 2608      41646400 
 2609              		.type	__func__.6130, %object
 2610              		.size	__func__.6130, 16
 2611              	__func__.6130:
ARM GAS  C:\Users\Phuong\AppData\Local\Temp\cczAMJrc.s 			page 62


 2612 0068 4D61705F 		.ascii	"Map_AddOrUpdate\000"
 2612      4164644F 
 2612      72557064 
 2612      61746500 
 2613              		.type	__func__.6150, %object
 2614              		.size	__func__.6150, 11
 2615              	__func__.6150:
 2616 0078 4D61705F 		.ascii	"Map_Delete\000"
 2616      44656C65 
 2616      746500
 2617 0083 00       		.space	1
 2618              		.type	__func__.6163, %object
 2619              		.size	__func__.6163, 16
 2620              	__func__.6163:
 2621 0084 4D61705F 		.ascii	"Map_ContainsKey\000"
 2621      436F6E74 
 2621      61696E73 
 2621      4B657900 
 2622              		.type	__func__.6174, %object
 2623              		.size	__func__.6174, 18
 2624              	__func__.6174:
 2625 0094 4D61705F 		.ascii	"Map_ContainsValue\000"
 2625      436F6E74 
 2625      61696E73 
 2625      56616C75 
 2625      6500
 2626 00a6 0000     		.space	2
 2627              		.type	__func__.6184, %object
 2628              		.size	__func__.6184, 20
 2629              	__func__.6184:
 2630 00a8 4D61705F 		.ascii	"Map_GetValueFromKey\000"
 2630      47657456 
 2630      616C7565 
 2630      46726F6D 
 2630      4B657900 
 2631              		.type	__func__.6198, %object
 2632              		.size	__func__.6198, 17
 2633              	__func__.6198:
 2634 00bc 4D61705F 		.ascii	"Map_GetInternals\000"
 2634      47657449 
 2634      6E746572 
 2634      6E616C73 
 2634      00
 2635 00cd 000000   		.space	3
 2636              		.type	__func__.6207, %object
 2637              		.size	__func__.6207, 11
 2638              	__func__.6207:
 2639 00d0 4D61705F 		.ascii	"Map_ToJSON\000"
 2639      546F4A53 
 2639      4F4E00
 2640              		.data
 2641              		.align	2
 2642              		.set	.LANCHOR1,. + 0
 2643              		.type	MAP_RESULTStringStorage, %object
 2644              		.size	MAP_RESULTStringStorage, 24
 2645              	MAP_RESULTStringStorage:
 2646 0000 D8010000 		.word	.LC69
ARM GAS  C:\Users\Phuong\AppData\Local\Temp\cczAMJrc.s 			page 63


 2647 0004 E0010000 		.word	.LC70
 2648 0008 EC010000 		.word	.LC71
 2649 000c FC010000 		.word	.LC72
 2650 0010 0C020000 		.word	.LC73
 2651 0014 1C020000 		.word	.LC74
 2652              		.section	.rodata.str1.4,"aMS",%progbits,1
 2653              		.align	2
 2654              	.LC1:
 2655 0000 536F7572 		.ascii	"Source\\azure_iot_sdk\\c-utility\\src\\map.c\000"
 2655      63655C61 
 2655      7A757265 
 2655      5F696F74 
 2655      5F73646B 
 2656 0029 000000   		.space	3
 2657              	.LC3:
 2658 002c 7265616C 		.ascii	"realloc error\000"
 2658      6C6F6320 
 2658      6572726F 
 2658      7200
 2659 003a 0000     		.space	2
 2660              	.LC5:
 2661 003c 43415441 		.ascii	"CATASTROPHIC error, unable to undo through realloc "
 2661      5354524F 
 2661      50484943 
 2661      20657272 
 2661      6F722C20 
 2662 006f 746F2061 		.ascii	"to a smaller size\000"
 2662      20736D61 
 2662      6C6C6572 
 2662      2073697A 
 2662      6500
 2663 0081 000000   		.space	3
 2664              	.LC12:
 2665 0084 756E6162 		.ascii	"unable to mallocAndStrcpy_s\000"
 2665      6C652074 
 2665      6F206D61 
 2665      6C6C6F63 
 2665      416E6453 
 2666              	.LC18:
 2667 00a0 696E7661 		.ascii	"invalid arg to Map_Clone (NULL)\000"
 2667      6C696420 
 2667      61726720 
 2667      746F204D 
 2667      61705F43 
 2668              	.LC20:
 2669 00c0 756E6162 		.ascii	"unable to malloc\000"
 2669      6C652074 
 2669      6F206D61 
 2669      6C6C6F63 
 2669      00
 2670 00d1 000000   		.space	3
 2671              	.LC22:
 2672 00d4 756E6162 		.ascii	"unable to clone keys\000"
 2672      6C652074 
 2672      6F20636C 
 2672      6F6E6520 
 2672      6B657973 
ARM GAS  C:\Users\Phuong\AppData\Local\Temp\cczAMJrc.s 			page 64


 2673 00e9 000000   		.space	3
 2674              	.LC24:
 2675 00ec 756E6162 		.ascii	"unable to clone values\000"
 2675      6C652074 
 2675      6F20636C 
 2675      6F6E6520 
 2675      76616C75 
 2676 0103 00       		.space	1
 2677              	.LC28:
 2678 0104 72657375 		.ascii	"result = %s\000"
 2678      6C74203D 
 2678      20257300 
 2679              	.LC44:
 2680 0110 696E7661 		.ascii	"invalid parameter to Map_GetValueFromKey\000"
 2680      6C696420 
 2680      70617261 
 2680      6D657465 
 2680      7220746F 
 2681 0139 000000   		.space	3
 2682              	.LC51:
 2683 013c 696E7661 		.ascii	"invalid arg (NULL)\000"
 2683      6C696420 
 2683      61726720 
 2683      284E554C 
 2683      4C2900
 2684 014f 00       		.space	1
 2685              	.LC53:
 2686 0150 7B00     		.ascii	"{\000"
 2687 0152 0000     		.space	2
 2688              	.LC55:
 2689 0154 53545249 		.ascii	"STRING_construct failed\000"
 2689      4E475F63 
 2689      6F6E7374 
 2689      72756374 
 2689      20666169 
 2690              	.LC57:
 2691 016c 53545249 		.ascii	"STRING_new_JSON failed\000"
 2691      4E475F6E 
 2691      65775F4A 
 2691      534F4E20 
 2691      6661696C 
 2692 0183 00       		.space	1
 2693              	.LC59:
 2694 0184 2C00     		.ascii	",\000"
 2695 0186 0000     		.space	2
 2696              	.LC61:
 2697 0188 3A00     		.ascii	":\000"
 2698 018a 0000     		.space	2
 2699              	.LC63:
 2700 018c 6661696C 		.ascii	"failed to build the JSON\000"
 2700      65642074 
 2700      6F206275 
 2700      696C6420 
 2700      74686520 
 2701 01a5 000000   		.space	3
 2702              	.LC65:
 2703 01a8 6572726F 		.ascii	"error happened during JSON string builder\000"
ARM GAS  C:\Users\Phuong\AppData\Local\Temp\cczAMJrc.s 			page 65


 2703      72206861 
 2703      7070656E 
 2703      65642064 
 2703      7572696E 
 2704 01d2 0000     		.space	2
 2705              	.LC67:
 2706 01d4 7D00     		.ascii	"}\000"
 2707 01d6 0000     		.space	2
 2708              	.LC69:
 2709 01d8 4D41505F 		.ascii	"MAP_OK\000"
 2709      4F4B00
 2710 01df 00       		.space	1
 2711              	.LC70:
 2712 01e0 4D41505F 		.ascii	"MAP_ERROR\000"
 2712      4552524F 
 2712      5200
 2713 01ea 0000     		.space	2
 2714              	.LC71:
 2715 01ec 4D41505F 		.ascii	"MAP_INVALIDARG\000"
 2715      494E5641 
 2715      4C494441 
 2715      524700
 2716 01fb 00       		.space	1
 2717              	.LC72:
 2718 01fc 4D41505F 		.ascii	"MAP_KEYEXISTS\000"
 2718      4B455945 
 2718      58495354 
 2718      5300
 2719 020a 0000     		.space	2
 2720              	.LC73:
 2721 020c 4D41505F 		.ascii	"MAP_KEYNOTFOUND\000"
 2721      4B45594E 
 2721      4F54464F 
 2721      554E4400 
 2722              	.LC74:
 2723 021c 4D41505F 		.ascii	"MAP_FILTER_REJECT\000"
 2723      46494C54 
 2723      45525F52 
 2723      454A4543 
 2723      5400
 2724              		.text
 2725              	.Letext0:
 2726              		.file 2 "c:\\program files (x86)\\cypress\\psoc creator\\4.2\\psoc creator\\import\\gnu\\arm\\5.4.
 2727              		.file 3 ".\\Source\\azure_iot_sdk\\c-utility\\inc/azure_c_shared_utility/strings_types.h"
 2728              		.file 4 ".\\Source\\azure_iot_sdk\\c-utility\\inc/azure_c_shared_utility/map.h"
 2729              		.file 5 ".\\Source\\azure_iot_sdk\\c-utility\\inc/azure_c_shared_utility/xlogging.h"
 2730              		.file 6 "c:\\program files (x86)\\cypress\\psoc creator\\4.2\\psoc creator\\import\\gnu\\arm\\5.4.
 2731              		.file 7 "c:\\program files (x86)\\cypress\\psoc creator\\4.2\\psoc creator\\import\\gnu\\arm\\5.4.
 2732              		.file 8 ".\\Source\\azure_iot_sdk\\c-utility\\inc/azure_c_shared_utility/crt_abstractions.h"
 2733              		.file 9 ".\\Source\\azure_iot_sdk\\c-utility\\inc/azure_c_shared_utility/strings.h"
 2734              		.section	.debug_info,"",%progbits
 2735              	.Ldebug_info0:
 2736 0000 2A1B0000 		.4byte	0x1b2a
 2737 0004 0400     		.2byte	0x4
 2738 0006 00000000 		.4byte	.Ldebug_abbrev0
 2739 000a 04       		.byte	0x4
 2740 000b 01       		.uleb128 0x1
ARM GAS  C:\Users\Phuong\AppData\Local\Temp\cczAMJrc.s 			page 66


 2741 000c FE030000 		.4byte	.LASF86
 2742 0010 0C       		.byte	0xc
 2743 0011 B5050000 		.4byte	.LASF87
 2744 0015 98020000 		.4byte	.LASF88
 2745 0019 20010000 		.4byte	.Ldebug_ranges0+0x120
 2746 001d 00000000 		.4byte	0
 2747 0021 00000000 		.4byte	.Ldebug_line0
 2748 0025 02       		.uleb128 0x2
 2749 0026 29000000 		.4byte	.LASF12
 2750 002a 02       		.byte	0x2
 2751 002b D8       		.byte	0xd8
 2752 002c 30000000 		.4byte	0x30
 2753 0030 03       		.uleb128 0x3
 2754 0031 04       		.byte	0x4
 2755 0032 07       		.byte	0x7
 2756 0033 BA010000 		.4byte	.LASF0
 2757 0037 04       		.uleb128 0x4
 2758 0038 04       		.byte	0x4
 2759 0039 05       		.byte	0x5
 2760 003a 696E7400 		.ascii	"int\000"
 2761 003e 03       		.uleb128 0x3
 2762 003f 08       		.byte	0x8
 2763 0040 05       		.byte	0x5
 2764 0041 AF000000 		.4byte	.LASF1
 2765 0045 03       		.uleb128 0x3
 2766 0046 08       		.byte	0x8
 2767 0047 04       		.byte	0x4
 2768 0048 7C020000 		.4byte	.LASF2
 2769 004c 03       		.uleb128 0x3
 2770 004d 01       		.byte	0x1
 2771 004e 06       		.byte	0x6
 2772 004f BD000000 		.4byte	.LASF3
 2773 0053 03       		.uleb128 0x3
 2774 0054 01       		.byte	0x1
 2775 0055 08       		.byte	0x8
 2776 0056 AA030000 		.4byte	.LASF4
 2777 005a 03       		.uleb128 0x3
 2778 005b 02       		.byte	0x2
 2779 005c 05       		.byte	0x5
 2780 005d C1030000 		.4byte	.LASF5
 2781 0061 03       		.uleb128 0x3
 2782 0062 02       		.byte	0x2
 2783 0063 07       		.byte	0x7
 2784 0064 FB010000 		.4byte	.LASF6
 2785 0068 03       		.uleb128 0x3
 2786 0069 04       		.byte	0x4
 2787 006a 05       		.byte	0x5
 2788 006b 0F010000 		.4byte	.LASF7
 2789 006f 03       		.uleb128 0x3
 2790 0070 04       		.byte	0x4
 2791 0071 07       		.byte	0x7
 2792 0072 CE010000 		.4byte	.LASF8
 2793 0076 03       		.uleb128 0x3
 2794 0077 08       		.byte	0x8
 2795 0078 07       		.byte	0x7
 2796 0079 4F000000 		.4byte	.LASF9
 2797 007d 03       		.uleb128 0x3
ARM GAS  C:\Users\Phuong\AppData\Local\Temp\cczAMJrc.s 			page 67


 2798 007e 04       		.byte	0x4
 2799 007f 07       		.byte	0x7
 2800 0080 73020000 		.4byte	.LASF10
 2801 0084 05       		.uleb128 0x5
 2802 0085 04       		.byte	0x4
 2803 0086 8A000000 		.4byte	0x8a
 2804 008a 03       		.uleb128 0x3
 2805 008b 01       		.byte	0x1
 2806 008c 08       		.byte	0x8
 2807 008d 9B040000 		.4byte	.LASF11
 2808 0091 05       		.uleb128 0x5
 2809 0092 04       		.byte	0x4
 2810 0093 97000000 		.4byte	0x97
 2811 0097 06       		.uleb128 0x6
 2812 0098 8A000000 		.4byte	0x8a
 2813 009c 02       		.uleb128 0x2
 2814 009d 7A030000 		.4byte	.LASF13
 2815 00a1 03       		.byte	0x3
 2816 00a2 07       		.byte	0x7
 2817 00a3 A7000000 		.4byte	0xa7
 2818 00a7 05       		.uleb128 0x5
 2819 00a8 04       		.byte	0x4
 2820 00a9 AD000000 		.4byte	0xad
 2821 00ad 07       		.uleb128 0x7
 2822 00ae A2050000 		.4byte	.LASF89
 2823 00b2 08       		.uleb128 0x8
 2824 00b3 6B030000 		.4byte	.LASF27
 2825 00b7 01       		.byte	0x1
 2826 00b8 53000000 		.4byte	0x53
 2827 00bc 04       		.byte	0x4
 2828 00bd 24       		.byte	0x24
 2829 00be E7000000 		.4byte	0xe7
 2830 00c2 09       		.uleb128 0x9
 2831 00c3 A8000000 		.4byte	.LASF14
 2832 00c7 00       		.byte	0
 2833 00c8 09       		.uleb128 0x9
 2834 00c9 4F030000 		.4byte	.LASF15
 2835 00cd 01       		.byte	0x1
 2836 00ce 09       		.uleb128 0x9
 2837 00cf 99000000 		.4byte	.LASF16
 2838 00d3 02       		.byte	0x2
 2839 00d4 09       		.uleb128 0x9
 2840 00d5 E2040000 		.4byte	.LASF17
 2841 00d9 03       		.byte	0x3
 2842 00da 09       		.uleb128 0x9
 2843 00db E0010000 		.4byte	.LASF18
 2844 00df 04       		.byte	0x4
 2845 00e0 09       		.uleb128 0x9
 2846 00e1 34010000 		.4byte	.LASF19
 2847 00e5 05       		.byte	0x5
 2848 00e6 00       		.byte	0
 2849 00e7 02       		.uleb128 0x2
 2850 00e8 C0040000 		.4byte	.LASF20
 2851 00ec 04       		.byte	0x4
 2852 00ed 24       		.byte	0x24
 2853 00ee B2000000 		.4byte	0xb2
 2854 00f2 02       		.uleb128 0x2
ARM GAS  C:\Users\Phuong\AppData\Local\Temp\cczAMJrc.s 			page 68


 2855 00f3 30020000 		.4byte	.LASF21
 2856 00f7 04       		.byte	0x4
 2857 00f8 26       		.byte	0x26
 2858 00f9 FD000000 		.4byte	0xfd
 2859 00fd 05       		.uleb128 0x5
 2860 00fe 04       		.byte	0x4
 2861 00ff 03010000 		.4byte	0x103
 2862 0103 0A       		.uleb128 0xa
 2863 0104 3B050000 		.4byte	.LASF90
 2864 0108 10       		.byte	0x10
 2865 0109 01       		.byte	0x1
 2866 010a 0D       		.byte	0xd
 2867 010b 40010000 		.4byte	0x140
 2868 010f 0B       		.uleb128 0xb
 2869 0110 59030000 		.4byte	.LASF22
 2870 0114 01       		.byte	0x1
 2871 0115 0F       		.byte	0xf
 2872 0116 C9010000 		.4byte	0x1c9
 2873 011a 00       		.byte	0
 2874 011b 0B       		.uleb128 0xb
 2875 011c 6E000000 		.4byte	.LASF23
 2876 0120 01       		.byte	0x1
 2877 0121 10       		.byte	0x10
 2878 0122 C9010000 		.4byte	0x1c9
 2879 0126 04       		.byte	0x4
 2880 0127 0B       		.uleb128 0xb
 2881 0128 08000000 		.4byte	.LASF24
 2882 012c 01       		.byte	0x1
 2883 012d 11       		.byte	0x11
 2884 012e 25000000 		.4byte	0x25
 2885 0132 08       		.byte	0x8
 2886 0133 0B       		.uleb128 0xb
 2887 0134 75000000 		.4byte	.LASF25
 2888 0138 01       		.byte	0x1
 2889 0139 12       		.byte	0x12
 2890 013a 40010000 		.4byte	0x140
 2891 013e 0C       		.byte	0xc
 2892 013f 00       		.byte	0
 2893 0140 02       		.uleb128 0x2
 2894 0141 E0000000 		.4byte	.LASF26
 2895 0145 04       		.byte	0x4
 2896 0146 28       		.byte	0x28
 2897 0147 4B010000 		.4byte	0x14b
 2898 014b 05       		.uleb128 0x5
 2899 014c 04       		.byte	0x4
 2900 014d 51010000 		.4byte	0x151
 2901 0151 0C       		.uleb128 0xc
 2902 0152 37000000 		.4byte	0x37
 2903 0156 65010000 		.4byte	0x165
 2904 015a 0D       		.uleb128 0xd
 2905 015b 91000000 		.4byte	0x91
 2906 015f 0D       		.uleb128 0xd
 2907 0160 91000000 		.4byte	0x91
 2908 0164 00       		.byte	0
 2909 0165 08       		.uleb128 0x8
 2910 0166 DE050000 		.4byte	.LASF28
 2911 016a 01       		.byte	0x1
ARM GAS  C:\Users\Phuong\AppData\Local\Temp\cczAMJrc.s 			page 69


 2912 016b 53000000 		.4byte	0x53
 2913 016f 05       		.byte	0x5
 2914 0170 22       		.byte	0x22
 2915 0171 88010000 		.4byte	0x188
 2916 0175 09       		.uleb128 0x9
 2917 0176 8C000000 		.4byte	.LASF29
 2918 017a 00       		.byte	0
 2919 017b 09       		.uleb128 0x9
 2920 017c F6050000 		.4byte	.LASF30
 2921 0180 01       		.byte	0x1
 2922 0181 09       		.uleb128 0x9
 2923 0182 1C000000 		.4byte	.LASF31
 2924 0186 02       		.byte	0x2
 2925 0187 00       		.byte	0
 2926 0188 02       		.uleb128 0x2
 2927 0189 5E030000 		.4byte	.LASF32
 2928 018d 05       		.byte	0x5
 2929 018e 27       		.byte	0x27
 2930 018f 65010000 		.4byte	0x165
 2931 0193 02       		.uleb128 0x2
 2932 0194 F0010000 		.4byte	.LASF33
 2933 0198 05       		.byte	0x5
 2934 0199 2F       		.byte	0x2f
 2935 019a 9E010000 		.4byte	0x19e
 2936 019e 05       		.uleb128 0x5
 2937 019f 04       		.byte	0x4
 2938 01a0 A4010000 		.4byte	0x1a4
 2939 01a4 0E       		.uleb128 0xe
 2940 01a5 C9010000 		.4byte	0x1c9
 2941 01a9 0D       		.uleb128 0xd
 2942 01aa 88010000 		.4byte	0x188
 2943 01ae 0D       		.uleb128 0xd
 2944 01af 91000000 		.4byte	0x91
 2945 01b3 0D       		.uleb128 0xd
 2946 01b4 91000000 		.4byte	0x91
 2947 01b8 0D       		.uleb128 0xd
 2948 01b9 37000000 		.4byte	0x37
 2949 01bd 0D       		.uleb128 0xd
 2950 01be 30000000 		.4byte	0x30
 2951 01c2 0D       		.uleb128 0xd
 2952 01c3 91000000 		.4byte	0x91
 2953 01c7 0F       		.uleb128 0xf
 2954 01c8 00       		.byte	0
 2955 01c9 05       		.uleb128 0x5
 2956 01ca 04       		.byte	0x4
 2957 01cb 84000000 		.4byte	0x84
 2958 01cf 02       		.uleb128 0x2
 2959 01d0 18010000 		.4byte	.LASF34
 2960 01d4 01       		.byte	0x1
 2961 01d5 13       		.byte	0x13
 2962 01d6 03010000 		.4byte	0x103
 2963 01da 10       		.uleb128 0x10
 2964 01db 00000000 		.4byte	.LASF37
 2965 01df 01       		.byte	0x1
 2966 01e0 F8       		.byte	0xf8
 2967 01e1 C9010000 		.4byte	0x1c9
 2968 01e5 00000000 		.4byte	.LFB9
ARM GAS  C:\Users\Phuong\AppData\Local\Temp\cczAMJrc.s 			page 70


 2969 01e9 36000000 		.4byte	.LFE9-.LFB9
 2970 01ed 01       		.uleb128 0x1
 2971 01ee 9C       		.byte	0x9c
 2972 01ef 4A020000 		.4byte	0x24a
 2973 01f3 11       		.uleb128 0x11
 2974 01f4 86050000 		.4byte	.LASF35
 2975 01f8 01       		.byte	0x1
 2976 01f9 F8       		.byte	0xf8
 2977 01fa 4A020000 		.4byte	0x24a
 2978 01fe 00000000 		.4byte	.LLST0
 2979 0202 12       		.uleb128 0x12
 2980 0203 6B657900 		.ascii	"key\000"
 2981 0207 01       		.byte	0x1
 2982 0208 F8       		.byte	0xf8
 2983 0209 91000000 		.4byte	0x91
 2984 020d 42000000 		.4byte	.LLST1
 2985 0211 13       		.uleb128 0x13
 2986 0212 EF050000 		.4byte	.LASF36
 2987 0216 01       		.byte	0x1
 2988 0217 FA       		.byte	0xfa
 2989 0218 C9010000 		.4byte	0x1c9
 2990 021c 78000000 		.4byte	.LLST2
 2991 0220 14       		.uleb128 0x14
 2992 0221 12000000 		.4byte	.LBB2
 2993 0225 1C000000 		.4byte	.LBE2-.LBB2
 2994 0229 15       		.uleb128 0x15
 2995 022a 6900     		.ascii	"i\000"
 2996 022c 01       		.byte	0x1
 2997 022d 0101     		.2byte	0x101
 2998 022f 25000000 		.4byte	0x25
 2999 0233 96000000 		.4byte	.LLST3
 3000 0237 16       		.uleb128 0x16
 3001 0238 1E000000 		.4byte	.LVL2
 3002 023c 951A0000 		.4byte	0x1a95
 3003 0240 17       		.uleb128 0x17
 3004 0241 01       		.uleb128 0x1
 3005 0242 51       		.byte	0x51
 3006 0243 03       		.uleb128 0x3
 3007 0244 91       		.byte	0x91
 3008 0245 64       		.sleb128 -28
 3009 0246 06       		.byte	0x6
 3010 0247 00       		.byte	0
 3011 0248 00       		.byte	0
 3012 0249 00       		.byte	0
 3013 024a 05       		.uleb128 0x5
 3014 024b 04       		.byte	0x4
 3015 024c CF010000 		.4byte	0x1cf
 3016 0250 18       		.uleb128 0x18
 3017 0251 17050000 		.4byte	.LASF38
 3018 0255 01       		.byte	0x1
 3019 0256 0F01     		.2byte	0x10f
 3020 0258 C9010000 		.4byte	0x1c9
 3021 025c 00000000 		.4byte	.LFB10
 3022 0260 36000000 		.4byte	.LFE10-.LFB10
 3023 0264 01       		.uleb128 0x1
 3024 0265 9C       		.byte	0x9c
 3025 0266 C4020000 		.4byte	0x2c4
ARM GAS  C:\Users\Phuong\AppData\Local\Temp\cczAMJrc.s 			page 71


 3026 026a 19       		.uleb128 0x19
 3027 026b 86050000 		.4byte	.LASF35
 3028 026f 01       		.byte	0x1
 3029 0270 0F01     		.2byte	0x10f
 3030 0272 4A020000 		.4byte	0x24a
 3031 0276 A9000000 		.4byte	.LLST4
 3032 027a 19       		.uleb128 0x19
 3033 027b 74010000 		.4byte	.LASF39
 3034 027f 01       		.byte	0x1
 3035 0280 0F01     		.2byte	0x10f
 3036 0282 91000000 		.4byte	0x91
 3037 0286 EB000000 		.4byte	.LLST5
 3038 028a 1A       		.uleb128 0x1a
 3039 028b EF050000 		.4byte	.LASF36
 3040 028f 01       		.byte	0x1
 3041 0290 1101     		.2byte	0x111
 3042 0292 C9010000 		.4byte	0x1c9
 3043 0296 21010000 		.4byte	.LLST6
 3044 029a 14       		.uleb128 0x14
 3045 029b 12000000 		.4byte	.LBB3
 3046 029f 1C000000 		.4byte	.LBE3-.LBB3
 3047 02a3 15       		.uleb128 0x15
 3048 02a4 6900     		.ascii	"i\000"
 3049 02a6 01       		.byte	0x1
 3050 02a7 1801     		.2byte	0x118
 3051 02a9 25000000 		.4byte	0x25
 3052 02ad 3F010000 		.4byte	.LLST7
 3053 02b1 16       		.uleb128 0x16
 3054 02b2 1E000000 		.4byte	.LVL10
 3055 02b6 951A0000 		.4byte	0x1a95
 3056 02ba 17       		.uleb128 0x17
 3057 02bb 01       		.uleb128 0x1
 3058 02bc 51       		.byte	0x51
 3059 02bd 03       		.uleb128 0x3
 3060 02be 91       		.byte	0x91
 3061 02bf 64       		.sleb128 -28
 3062 02c0 06       		.byte	0x6
 3063 02c1 00       		.byte	0
 3064 02c2 00       		.byte	0
 3065 02c3 00       		.byte	0
 3066 02c4 10       		.uleb128 0x10
 3067 02c5 A0040000 		.4byte	.LASF40
 3068 02c9 01       		.byte	0x1
 3069 02ca 3D       		.byte	0x3d
 3070 02cb C9010000 		.4byte	0x1c9
 3071 02cf 00000000 		.4byte	.LFB5
 3072 02d3 4A000000 		.4byte	.LFE5-.LFB5
 3073 02d7 01       		.uleb128 0x1
 3074 02d8 9C       		.byte	0x9c
 3075 02d9 81030000 		.4byte	0x381
 3076 02dd 11       		.uleb128 0x11
 3077 02de 6C020000 		.4byte	.LASF41
 3078 02e2 01       		.byte	0x1
 3079 02e3 3D       		.byte	0x3d
 3080 02e4 81030000 		.4byte	0x381
 3081 02e8 52010000 		.4byte	.LLST8
 3082 02ec 11       		.uleb128 0x11
ARM GAS  C:\Users\Phuong\AppData\Local\Temp\cczAMJrc.s 			page 72


 3083 02ed 08000000 		.4byte	.LASF24
 3084 02f1 01       		.byte	0x1
 3085 02f2 3D       		.byte	0x3d
 3086 02f3 25000000 		.4byte	0x25
 3087 02f7 7E010000 		.4byte	.LLST9
 3088 02fb 13       		.uleb128 0x13
 3089 02fc EF050000 		.4byte	.LASF36
 3090 0300 01       		.byte	0x1
 3091 0301 3F       		.byte	0x3f
 3092 0302 C9010000 		.4byte	0x1c9
 3093 0306 AA010000 		.4byte	.LLST10
 3094 030a 1B       		.uleb128 0x1b
 3095 030b 14000000 		.4byte	.LBB4
 3096 030f 32000000 		.4byte	.LBE4-.LBB4
 3097 0313 6E030000 		.4byte	0x36e
 3098 0317 1C       		.uleb128 0x1c
 3099 0318 6900     		.ascii	"i\000"
 3100 031a 01       		.byte	0x1
 3101 031b 47       		.byte	0x47
 3102 031c 25000000 		.4byte	0x25
 3103 0320 EA010000 		.4byte	.LLST11
 3104 0324 1B       		.uleb128 0x1b
 3105 0325 30000000 		.4byte	.LBB5
 3106 0329 16000000 		.4byte	.LBE5-.LBB5
 3107 032d 58030000 		.4byte	0x358
 3108 0331 1C       		.uleb128 0x1c
 3109 0332 6A00     		.ascii	"j\000"
 3110 0334 01       		.byte	0x1
 3111 0335 56       		.byte	0x56
 3112 0336 25000000 		.4byte	0x25
 3113 033a FD010000 		.4byte	.LLST12
 3114 033e 1D       		.uleb128 0x1d
 3115 033f 38000000 		.4byte	.LVL25
 3116 0343 A01A0000 		.4byte	0x1aa0
 3117 0347 16       		.uleb128 0x16
 3118 0348 44000000 		.4byte	.LVL27
 3119 034c A01A0000 		.4byte	0x1aa0
 3120 0350 17       		.uleb128 0x17
 3121 0351 01       		.uleb128 0x1
 3122 0352 50       		.byte	0x50
 3123 0353 02       		.uleb128 0x2
 3124 0354 75       		.byte	0x75
 3125 0355 00       		.sleb128 0
 3126 0356 00       		.byte	0
 3127 0357 00       		.byte	0
 3128 0358 16       		.uleb128 0x16
 3129 0359 1E000000 		.4byte	.LVL21
 3130 035d AB1A0000 		.4byte	0x1aab
 3131 0361 17       		.uleb128 0x17
 3132 0362 01       		.uleb128 0x1
 3133 0363 50       		.byte	0x50
 3134 0364 07       		.uleb128 0x7
 3135 0365 74       		.byte	0x74
 3136 0366 00       		.sleb128 0
 3137 0367 32       		.byte	0x32
 3138 0368 24       		.byte	0x24
 3139 0369 75       		.byte	0x75
ARM GAS  C:\Users\Phuong\AppData\Local\Temp\cczAMJrc.s 			page 73


 3140 036a 00       		.sleb128 0
 3141 036b 22       		.byte	0x22
 3142 036c 00       		.byte	0
 3143 036d 00       		.byte	0
 3144 036e 16       		.uleb128 0x16
 3145 036f 0C000000 		.4byte	.LVL18
 3146 0373 B61A0000 		.4byte	0x1ab6
 3147 0377 17       		.uleb128 0x17
 3148 0378 01       		.uleb128 0x1
 3149 0379 50       		.byte	0x50
 3150 037a 04       		.uleb128 0x4
 3151 037b 76       		.byte	0x76
 3152 037c 00       		.sleb128 0
 3153 037d 32       		.byte	0x32
 3154 037e 24       		.byte	0x24
 3155 037f 00       		.byte	0
 3156 0380 00       		.byte	0
 3157 0381 05       		.uleb128 0x5
 3158 0382 04       		.byte	0x4
 3159 0383 87030000 		.4byte	0x387
 3160 0387 06       		.uleb128 0x6
 3161 0388 91000000 		.4byte	0x91
 3162 038c 10       		.uleb128 0x10
 3163 038d F0040000 		.4byte	.LASF42
 3164 0391 01       		.byte	0x1
 3165 0392 A1       		.byte	0xa1
 3166 0393 37000000 		.4byte	0x37
 3167 0397 00000000 		.4byte	.LFB7
 3168 039b E0000000 		.4byte	.LFE7-.LFB7
 3169 039f 01       		.uleb128 0x1
 3170 03a0 9C       		.byte	0x9c
 3171 03a1 46050000 		.4byte	0x546
 3172 03a5 11       		.uleb128 0x11
 3173 03a6 86050000 		.4byte	.LASF35
 3174 03aa 01       		.byte	0x1
 3175 03ab A1       		.byte	0xa1
 3176 03ac 4A020000 		.4byte	0x24a
 3177 03b0 10020000 		.4byte	.LLST13
 3178 03b4 13       		.uleb128 0x13
 3179 03b5 EF050000 		.4byte	.LASF36
 3180 03b9 01       		.byte	0x1
 3181 03ba A3       		.byte	0xa3
 3182 03bb 37000000 		.4byte	0x37
 3183 03bf 6E020000 		.4byte	.LLST14
 3184 03c3 13       		.uleb128 0x13
 3185 03c4 AD050000 		.4byte	.LASF43
 3186 03c8 01       		.byte	0x1
 3187 03c9 A4       		.byte	0xa4
 3188 03ca C9010000 		.4byte	0x1c9
 3189 03ce 8D020000 		.4byte	.LLST15
 3190 03d2 1E       		.uleb128 0x1e
 3191 03d3 E3030000 		.4byte	.LASF46
 3192 03d7 56050000 		.4byte	0x556
 3193 03db 05       		.uleb128 0x5
 3194 03dc 03       		.byte	0x3
 3195 03dd 00000000 		.4byte	__func__.6055
 3196 03e1 1B       		.uleb128 0x1b
ARM GAS  C:\Users\Phuong\AppData\Local\Temp\cczAMJrc.s 			page 74


 3197 03e2 16000000 		.4byte	.LBB6
 3198 03e6 1A000000 		.4byte	.LBE6-.LBB6
 3199 03ea 3B040000 		.4byte	0x43b
 3200 03ee 1C       		.uleb128 0x1c
 3201 03ef 6C00     		.ascii	"l\000"
 3202 03f1 01       		.byte	0x1
 3203 03f2 A7       		.byte	0xa7
 3204 03f3 93010000 		.4byte	0x193
 3205 03f7 B7020000 		.4byte	.LLST16
 3206 03fb 1D       		.uleb128 0x1d
 3207 03fc 1A000000 		.4byte	.LVL34
 3208 0400 C11A0000 		.4byte	0x1ac1
 3209 0404 1F       		.uleb128 0x1f
 3210 0405 30000000 		.4byte	.LVL37
 3211 0409 02       		.uleb128 0x2
 3212 040a 74       		.byte	0x74
 3213 040b 00       		.sleb128 0
 3214 040c 17       		.uleb128 0x17
 3215 040d 01       		.uleb128 0x1
 3216 040e 50       		.byte	0x50
 3217 040f 01       		.uleb128 0x1
 3218 0410 30       		.byte	0x30
 3219 0411 17       		.uleb128 0x17
 3220 0412 01       		.uleb128 0x1
 3221 0413 51       		.byte	0x51
 3222 0414 05       		.uleb128 0x5
 3223 0415 03       		.byte	0x3
 3224 0416 00000000 		.4byte	.LC1
 3225 041a 17       		.uleb128 0x17
 3226 041b 01       		.uleb128 0x1
 3227 041c 52       		.byte	0x52
 3228 041d 05       		.uleb128 0x5
 3229 041e 03       		.byte	0x3
 3230 041f 00000000 		.4byte	.LANCHOR0
 3231 0423 17       		.uleb128 0x17
 3232 0424 01       		.uleb128 0x1
 3233 0425 53       		.byte	0x53
 3234 0426 02       		.uleb128 0x2
 3235 0427 08       		.byte	0x8
 3236 0428 A7       		.byte	0xa7
 3237 0429 17       		.uleb128 0x17
 3238 042a 02       		.uleb128 0x2
 3239 042b 7D       		.byte	0x7d
 3240 042c 00       		.sleb128 0
 3241 042d 01       		.uleb128 0x1
 3242 042e 31       		.byte	0x31
 3243 042f 17       		.uleb128 0x17
 3244 0430 02       		.uleb128 0x2
 3245 0431 7D       		.byte	0x7d
 3246 0432 04       		.sleb128 4
 3247 0433 05       		.uleb128 0x5
 3248 0434 03       		.byte	0x3
 3249 0435 2C000000 		.4byte	.LC3
 3250 0439 00       		.byte	0
 3251 043a 00       		.byte	0
 3252 043b 20       		.uleb128 0x20
 3253 043c 00000000 		.4byte	.Ldebug_ranges0+0
ARM GAS  C:\Users\Phuong\AppData\Local\Temp\cczAMJrc.s 			page 75


 3254 0440 3C050000 		.4byte	0x53c
 3255 0444 13       		.uleb128 0x13
 3256 0445 C9000000 		.4byte	.LASF44
 3257 0449 01       		.byte	0x1
 3258 044a AC       		.byte	0xac
 3259 044b C9010000 		.4byte	0x1c9
 3260 044f EB020000 		.4byte	.LLST17
 3261 0453 1B       		.uleb128 0x1b
 3262 0454 50000000 		.4byte	.LBB8
 3263 0458 1A000000 		.4byte	.LBE8-.LBB8
 3264 045c AD040000 		.4byte	0x4ad
 3265 0460 1C       		.uleb128 0x1c
 3266 0461 6C00     		.ascii	"l\000"
 3267 0463 01       		.byte	0x1
 3268 0464 B2       		.byte	0xb2
 3269 0465 93010000 		.4byte	0x193
 3270 0469 15030000 		.4byte	.LLST18
 3271 046d 1D       		.uleb128 0x1d
 3272 046e 54000000 		.4byte	.LVL42
 3273 0472 C11A0000 		.4byte	0x1ac1
 3274 0476 1F       		.uleb128 0x1f
 3275 0477 6A000000 		.4byte	.LVL45
 3276 047b 02       		.uleb128 0x2
 3277 047c 75       		.byte	0x75
 3278 047d 00       		.sleb128 0
 3279 047e 17       		.uleb128 0x17
 3280 047f 01       		.uleb128 0x1
 3281 0480 50       		.byte	0x50
 3282 0481 01       		.uleb128 0x1
 3283 0482 30       		.byte	0x30
 3284 0483 17       		.uleb128 0x17
 3285 0484 01       		.uleb128 0x1
 3286 0485 51       		.byte	0x51
 3287 0486 05       		.uleb128 0x5
 3288 0487 03       		.byte	0x3
 3289 0488 00000000 		.4byte	.LC1
 3290 048c 17       		.uleb128 0x17
 3291 048d 01       		.uleb128 0x1
 3292 048e 52       		.byte	0x52
 3293 048f 05       		.uleb128 0x5
 3294 0490 03       		.byte	0x3
 3295 0491 00000000 		.4byte	.LANCHOR0
 3296 0495 17       		.uleb128 0x17
 3297 0496 01       		.uleb128 0x1
 3298 0497 53       		.byte	0x53
 3299 0498 02       		.uleb128 0x2
 3300 0499 08       		.byte	0x8
 3301 049a B2       		.byte	0xb2
 3302 049b 17       		.uleb128 0x17
 3303 049c 02       		.uleb128 0x2
 3304 049d 7D       		.byte	0x7d
 3305 049e 00       		.sleb128 0
 3306 049f 01       		.uleb128 0x1
 3307 04a0 31       		.byte	0x31
 3308 04a1 17       		.uleb128 0x17
 3309 04a2 02       		.uleb128 0x2
 3310 04a3 7D       		.byte	0x7d
ARM GAS  C:\Users\Phuong\AppData\Local\Temp\cczAMJrc.s 			page 76


 3311 04a4 04       		.sleb128 4
 3312 04a5 05       		.uleb128 0x5
 3313 04a6 03       		.byte	0x3
 3314 04a7 2C000000 		.4byte	.LC3
 3315 04ab 00       		.byte	0
 3316 04ac 00       		.byte	0
 3317 04ad 20       		.uleb128 0x20
 3318 04ae 18000000 		.4byte	.Ldebug_ranges0+0x18
 3319 04b2 29050000 		.4byte	0x529
 3320 04b6 13       		.uleb128 0x13
 3321 04b7 90040000 		.4byte	.LASF45
 3322 04bb 01       		.byte	0x1
 3323 04bc BA       		.byte	0xba
 3324 04bd C9010000 		.4byte	0x1c9
 3325 04c1 3E030000 		.4byte	.LLST19
 3326 04c5 1B       		.uleb128 0x1b
 3327 04c6 8A000000 		.4byte	.LBB10
 3328 04ca 1A000000 		.4byte	.LBE10-.LBB10
 3329 04ce 1F050000 		.4byte	0x51f
 3330 04d2 1C       		.uleb128 0x1c
 3331 04d3 6C00     		.ascii	"l\000"
 3332 04d5 01       		.byte	0x1
 3333 04d6 BD       		.byte	0xbd
 3334 04d7 93010000 		.4byte	0x193
 3335 04db 68030000 		.4byte	.LLST20
 3336 04df 1D       		.uleb128 0x1d
 3337 04e0 8E000000 		.4byte	.LVL48
 3338 04e4 C11A0000 		.4byte	0x1ac1
 3339 04e8 1F       		.uleb128 0x1f
 3340 04e9 A4000000 		.4byte	.LVL51
 3341 04ed 02       		.uleb128 0x2
 3342 04ee 74       		.byte	0x74
 3343 04ef 00       		.sleb128 0
 3344 04f0 17       		.uleb128 0x17
 3345 04f1 01       		.uleb128 0x1
 3346 04f2 50       		.byte	0x50
 3347 04f3 01       		.uleb128 0x1
 3348 04f4 30       		.byte	0x30
 3349 04f5 17       		.uleb128 0x17
 3350 04f6 01       		.uleb128 0x1
 3351 04f7 51       		.byte	0x51
 3352 04f8 05       		.uleb128 0x5
 3353 04f9 03       		.byte	0x3
 3354 04fa 00000000 		.4byte	.LC1
 3355 04fe 17       		.uleb128 0x17
 3356 04ff 01       		.uleb128 0x1
 3357 0500 52       		.byte	0x52
 3358 0501 05       		.uleb128 0x5
 3359 0502 03       		.byte	0x3
 3360 0503 00000000 		.4byte	.LANCHOR0
 3361 0507 17       		.uleb128 0x17
 3362 0508 01       		.uleb128 0x1
 3363 0509 53       		.byte	0x53
 3364 050a 02       		.uleb128 0x2
 3365 050b 08       		.byte	0x8
 3366 050c BD       		.byte	0xbd
 3367 050d 17       		.uleb128 0x17
ARM GAS  C:\Users\Phuong\AppData\Local\Temp\cczAMJrc.s 			page 77


 3368 050e 02       		.uleb128 0x2
 3369 050f 7D       		.byte	0x7d
 3370 0510 00       		.sleb128 0
 3371 0511 01       		.uleb128 0x1
 3372 0512 31       		.byte	0x31
 3373 0513 17       		.uleb128 0x17
 3374 0514 02       		.uleb128 0x2
 3375 0515 7D       		.byte	0x7d
 3376 0516 04       		.sleb128 4
 3377 0517 05       		.uleb128 0x5
 3378 0518 03       		.byte	0x3
 3379 0519 3C000000 		.4byte	.LC5
 3380 051d 00       		.byte	0
 3381 051e 00       		.byte	0
 3382 051f 1D       		.uleb128 0x1d
 3383 0520 86000000 		.4byte	.LVL47
 3384 0524 CC1A0000 		.4byte	0x1acc
 3385 0528 00       		.byte	0
 3386 0529 1D       		.uleb128 0x1d
 3387 052a 4C000000 		.4byte	.LVL41
 3388 052e CC1A0000 		.4byte	0x1acc
 3389 0532 1D       		.uleb128 0x1d
 3390 0533 76000000 		.4byte	.LVL46
 3391 0537 A01A0000 		.4byte	0x1aa0
 3392 053b 00       		.byte	0
 3393 053c 1D       		.uleb128 0x1d
 3394 053d 12000000 		.4byte	.LVL33
 3395 0541 CC1A0000 		.4byte	0x1acc
 3396 0545 00       		.byte	0
 3397 0546 21       		.uleb128 0x21
 3398 0547 97000000 		.4byte	0x97
 3399 054b 56050000 		.4byte	0x556
 3400 054f 22       		.uleb128 0x22
 3401 0550 7D000000 		.4byte	0x7d
 3402 0554 1D       		.byte	0x1d
 3403 0555 00       		.byte	0
 3404 0556 06       		.uleb128 0x6
 3405 0557 46050000 		.4byte	0x546
 3406 055b 23       		.uleb128 0x23
 3407 055c 86010000 		.4byte	.LASF91
 3408 0560 01       		.byte	0x1
 3409 0561 D1       		.byte	0xd1
 3410 0562 00000000 		.4byte	.LFB8
 3411 0566 A4000000 		.4byte	.LFE8-.LFB8
 3412 056a 01       		.uleb128 0x1
 3413 056b 9C       		.byte	0x9c
 3414 056c 93060000 		.4byte	0x693
 3415 0570 11       		.uleb128 0x11
 3416 0571 86050000 		.4byte	.LASF35
 3417 0575 01       		.byte	0x1
 3418 0576 D1       		.byte	0xd1
 3419 0577 4A020000 		.4byte	0x24a
 3420 057b 91030000 		.4byte	.LLST21
 3421 057f 1E       		.uleb128 0x1e
 3422 0580 E3030000 		.4byte	.LASF46
 3423 0584 93060000 		.4byte	0x693
 3424 0588 05       		.uleb128 0x5
ARM GAS  C:\Users\Phuong\AppData\Local\Temp\cczAMJrc.s 			page 78


 3425 0589 03       		.byte	0x3
 3426 058a 20000000 		.4byte	__func__.6072
 3427 058e 1B       		.uleb128 0x1b
 3428 058f 24000000 		.4byte	.LBB13
 3429 0593 6C000000 		.4byte	.LBE13-.LBB13
 3430 0597 80060000 		.4byte	0x680
 3431 059b 13       		.uleb128 0x13
 3432 059c 42000000 		.4byte	.LASF47
 3433 05a0 01       		.byte	0x1
 3434 05a1 DF       		.byte	0xdf
 3435 05a2 C9010000 		.4byte	0x1c9
 3436 05a6 D3030000 		.4byte	.LLST22
 3437 05aa 13       		.uleb128 0x13
 3438 05ab 90040000 		.4byte	.LASF45
 3439 05af 01       		.byte	0x1
 3440 05b0 E0       		.byte	0xe0
 3441 05b1 C9010000 		.4byte	0x1c9
 3442 05b5 F1030000 		.4byte	.LLST23
 3443 05b9 1B       		.uleb128 0x1b
 3444 05ba 36000000 		.4byte	.LBB14
 3445 05be 1E000000 		.4byte	.LBE14-.LBB14
 3446 05c2 13060000 		.4byte	0x613
 3447 05c6 1C       		.uleb128 0x1c
 3448 05c7 6C00     		.ascii	"l\000"
 3449 05c9 01       		.byte	0x1
 3450 05ca E3       		.byte	0xe3
 3451 05cb 93010000 		.4byte	0x193
 3452 05cf 0F040000 		.4byte	.LLST24
 3453 05d3 1D       		.uleb128 0x1d
 3454 05d4 3A000000 		.4byte	.LVL69
 3455 05d8 C11A0000 		.4byte	0x1ac1
 3456 05dc 1F       		.uleb128 0x1f
 3457 05dd 52000000 		.4byte	.LVL72
 3458 05e1 02       		.uleb128 0x2
 3459 05e2 75       		.byte	0x75
 3460 05e3 00       		.sleb128 0
 3461 05e4 17       		.uleb128 0x17
 3462 05e5 01       		.uleb128 0x1
 3463 05e6 50       		.byte	0x50
 3464 05e7 01       		.uleb128 0x1
 3465 05e8 30       		.byte	0x30
 3466 05e9 17       		.uleb128 0x17
 3467 05ea 01       		.uleb128 0x1
 3468 05eb 51       		.byte	0x51
 3469 05ec 05       		.uleb128 0x5
 3470 05ed 03       		.byte	0x3
 3471 05ee 00000000 		.4byte	.LC1
 3472 05f2 17       		.uleb128 0x17
 3473 05f3 01       		.uleb128 0x1
 3474 05f4 52       		.byte	0x52
 3475 05f5 05       		.uleb128 0x5
 3476 05f6 03       		.byte	0x3
 3477 05f7 20000000 		.4byte	.LANCHOR0+32
 3478 05fb 17       		.uleb128 0x17
 3479 05fc 01       		.uleb128 0x1
 3480 05fd 53       		.byte	0x53
 3481 05fe 02       		.uleb128 0x2
ARM GAS  C:\Users\Phuong\AppData\Local\Temp\cczAMJrc.s 			page 79


 3482 05ff 08       		.byte	0x8
 3483 0600 E3       		.byte	0xe3
 3484 0601 17       		.uleb128 0x17
 3485 0602 02       		.uleb128 0x2
 3486 0603 7D       		.byte	0x7d
 3487 0604 00       		.sleb128 0
 3488 0605 01       		.uleb128 0x1
 3489 0606 31       		.byte	0x31
 3490 0607 17       		.uleb128 0x17
 3491 0608 02       		.uleb128 0x2
 3492 0609 7D       		.byte	0x7d
 3493 060a 04       		.sleb128 4
 3494 060b 05       		.uleb128 0x5
 3495 060c 03       		.byte	0x3
 3496 060d 3C000000 		.4byte	.LC5
 3497 0611 00       		.byte	0
 3498 0612 00       		.byte	0
 3499 0613 1B       		.uleb128 0x1b
 3500 0614 6A000000 		.4byte	.LBB15
 3501 0618 1E000000 		.4byte	.LBE15-.LBB15
 3502 061c 6D060000 		.4byte	0x66d
 3503 0620 1C       		.uleb128 0x1c
 3504 0621 6C00     		.ascii	"l\000"
 3505 0623 01       		.byte	0x1
 3506 0624 ED       		.byte	0xed
 3507 0625 93010000 		.4byte	0x193
 3508 0629 2D040000 		.4byte	.LLST25
 3509 062d 1D       		.uleb128 0x1d
 3510 062e 6E000000 		.4byte	.LVL76
 3511 0632 C11A0000 		.4byte	0x1ac1
 3512 0636 1F       		.uleb128 0x1f
 3513 0637 86000000 		.4byte	.LVL79
 3514 063b 02       		.uleb128 0x2
 3515 063c 75       		.byte	0x75
 3516 063d 00       		.sleb128 0
 3517 063e 17       		.uleb128 0x17
 3518 063f 01       		.uleb128 0x1
 3519 0640 50       		.byte	0x50
 3520 0641 01       		.uleb128 0x1
 3521 0642 30       		.byte	0x30
 3522 0643 17       		.uleb128 0x17
 3523 0644 01       		.uleb128 0x1
 3524 0645 51       		.byte	0x51
 3525 0646 05       		.uleb128 0x5
 3526 0647 03       		.byte	0x3
 3527 0648 00000000 		.4byte	.LC1
 3528 064c 17       		.uleb128 0x17
 3529 064d 01       		.uleb128 0x1
 3530 064e 52       		.byte	0x52
 3531 064f 05       		.uleb128 0x5
 3532 0650 03       		.byte	0x3
 3533 0651 20000000 		.4byte	.LANCHOR0+32
 3534 0655 17       		.uleb128 0x17
 3535 0656 01       		.uleb128 0x1
 3536 0657 53       		.byte	0x53
 3537 0658 02       		.uleb128 0x2
 3538 0659 08       		.byte	0x8
ARM GAS  C:\Users\Phuong\AppData\Local\Temp\cczAMJrc.s 			page 80


 3539 065a ED       		.byte	0xed
 3540 065b 17       		.uleb128 0x17
 3541 065c 02       		.uleb128 0x2
 3542 065d 7D       		.byte	0x7d
 3543 065e 00       		.sleb128 0
 3544 065f 01       		.uleb128 0x1
 3545 0660 31       		.byte	0x31
 3546 0661 17       		.uleb128 0x17
 3547 0662 02       		.uleb128 0x2
 3548 0663 7D       		.byte	0x7d
 3549 0664 04       		.sleb128 4
 3550 0665 05       		.uleb128 0x5
 3551 0666 03       		.byte	0x3
 3552 0667 3C000000 		.4byte	.LC5
 3553 066b 00       		.byte	0
 3554 066c 00       		.byte	0
 3555 066d 1D       		.uleb128 0x1d
 3556 066e 32000000 		.4byte	.LVL68
 3557 0672 CC1A0000 		.4byte	0x1acc
 3558 0676 1D       		.uleb128 0x1d
 3559 0677 66000000 		.4byte	.LVL75
 3560 067b CC1A0000 		.4byte	0x1acc
 3561 067f 00       		.byte	0
 3562 0680 1D       		.uleb128 0x1d
 3563 0681 12000000 		.4byte	.LVL64
 3564 0685 A01A0000 		.4byte	0x1aa0
 3565 0689 1D       		.uleb128 0x1d
 3566 068a 1C000000 		.4byte	.LVL65
 3567 068e A01A0000 		.4byte	0x1aa0
 3568 0692 00       		.byte	0
 3569 0693 06       		.uleb128 0x6
 3570 0694 46050000 		.4byte	0x546
 3571 0698 18       		.uleb128 0x18
 3572 0699 6D050000 		.4byte	.LASF48
 3573 069d 01       		.byte	0x1
 3574 069e 2601     		.2byte	0x126
 3575 06a0 37000000 		.4byte	0x37
 3576 06a4 00000000 		.4byte	.LFB11
 3577 06a8 D4000000 		.4byte	.LFE11-.LFB11
 3578 06ac 01       		.uleb128 0x1
 3579 06ad 9C       		.byte	0x9c
 3580 06ae 21080000 		.4byte	0x821
 3581 06b2 19       		.uleb128 0x19
 3582 06b3 86050000 		.4byte	.LASF35
 3583 06b7 01       		.byte	0x1
 3584 06b8 2601     		.2byte	0x126
 3585 06ba 4A020000 		.4byte	0x24a
 3586 06be 4B040000 		.4byte	.LLST26
 3587 06c2 24       		.uleb128 0x24
 3588 06c3 6B657900 		.ascii	"key\000"
 3589 06c7 01       		.byte	0x1
 3590 06c8 2601     		.2byte	0x126
 3591 06ca 91000000 		.4byte	0x91
 3592 06ce C2040000 		.4byte	.LLST27
 3593 06d2 19       		.uleb128 0x19
 3594 06d3 74010000 		.4byte	.LASF39
 3595 06d7 01       		.byte	0x1
ARM GAS  C:\Users\Phuong\AppData\Local\Temp\cczAMJrc.s 			page 81


 3596 06d8 2601     		.2byte	0x126
 3597 06da 91000000 		.4byte	0x91
 3598 06de EE040000 		.4byte	.LLST28
 3599 06e2 25       		.uleb128 0x25
 3600 06e3 EF050000 		.4byte	.LASF36
 3601 06e7 01       		.byte	0x1
 3602 06e8 2801     		.2byte	0x128
 3603 06ea 37000000 		.4byte	0x37
 3604 06ee 01       		.uleb128 0x1
 3605 06ef 50       		.byte	0x50
 3606 06f0 1E       		.uleb128 0x1e
 3607 06f1 E3030000 		.4byte	.LASF46
 3608 06f5 31080000 		.4byte	0x831
 3609 06f9 05       		.uleb128 0x5
 3610 06fa 03       		.byte	0x3
 3611 06fb 40000000 		.4byte	__func__.6103
 3612 06ff 1B       		.uleb128 0x1b
 3613 0700 32000000 		.4byte	.LBB16
 3614 0704 1E000000 		.4byte	.LBE16-.LBB16
 3615 0708 5B070000 		.4byte	0x75b
 3616 070c 15       		.uleb128 0x15
 3617 070d 6C00     		.ascii	"l\000"
 3618 070f 01       		.byte	0x1
 3619 0710 3201     		.2byte	0x132
 3620 0712 93010000 		.4byte	0x193
 3621 0716 1A050000 		.4byte	.LLST29
 3622 071a 1D       		.uleb128 0x1d
 3623 071b 36000000 		.4byte	.LVL87
 3624 071f C11A0000 		.4byte	0x1ac1
 3625 0723 1F       		.uleb128 0x1f
 3626 0724 50000000 		.4byte	.LVL90
 3627 0728 02       		.uleb128 0x2
 3628 0729 74       		.byte	0x74
 3629 072a 00       		.sleb128 0
 3630 072b 17       		.uleb128 0x17
 3631 072c 01       		.uleb128 0x1
 3632 072d 50       		.byte	0x50
 3633 072e 01       		.uleb128 0x1
 3634 072f 30       		.byte	0x30
 3635 0730 17       		.uleb128 0x17
 3636 0731 01       		.uleb128 0x1
 3637 0732 51       		.byte	0x51
 3638 0733 05       		.uleb128 0x5
 3639 0734 03       		.byte	0x3
 3640 0735 00000000 		.4byte	.LC1
 3641 0739 17       		.uleb128 0x17
 3642 073a 01       		.uleb128 0x1
 3643 073b 52       		.byte	0x52
 3644 073c 05       		.uleb128 0x5
 3645 073d 03       		.byte	0x3
 3646 073e 40000000 		.4byte	.LANCHOR0+64
 3647 0742 17       		.uleb128 0x17
 3648 0743 01       		.uleb128 0x1
 3649 0744 53       		.byte	0x53
 3650 0745 03       		.uleb128 0x3
 3651 0746 0A       		.byte	0xa
 3652 0747 3201     		.2byte	0x132
ARM GAS  C:\Users\Phuong\AppData\Local\Temp\cczAMJrc.s 			page 82


 3653 0749 17       		.uleb128 0x17
 3654 074a 02       		.uleb128 0x2
 3655 074b 7D       		.byte	0x7d
 3656 074c 00       		.sleb128 0
 3657 074d 01       		.uleb128 0x1
 3658 074e 31       		.byte	0x31
 3659 074f 17       		.uleb128 0x17
 3660 0750 02       		.uleb128 0x2
 3661 0751 7D       		.byte	0x7d
 3662 0752 04       		.sleb128 4
 3663 0753 05       		.uleb128 0x5
 3664 0754 03       		.byte	0x3
 3665 0755 84000000 		.4byte	.LC12
 3666 0759 00       		.byte	0
 3667 075a 00       		.byte	0
 3668 075b 1B       		.uleb128 0x1b
 3669 075c 88000000 		.4byte	.LBB17
 3670 0760 1E000000 		.4byte	.LBE17-.LBB17
 3671 0764 B7070000 		.4byte	0x7b7
 3672 0768 15       		.uleb128 0x15
 3673 0769 6C00     		.ascii	"l\000"
 3674 076b 01       		.byte	0x1
 3675 076c 3B01     		.2byte	0x13b
 3676 076e 93010000 		.4byte	0x193
 3677 0772 4E050000 		.4byte	.LLST30
 3678 0776 1D       		.uleb128 0x1d
 3679 0777 8C000000 		.4byte	.LVL95
 3680 077b C11A0000 		.4byte	0x1ac1
 3681 077f 1F       		.uleb128 0x1f
 3682 0780 A6000000 		.4byte	.LVL98
 3683 0784 02       		.uleb128 0x2
 3684 0785 74       		.byte	0x74
 3685 0786 00       		.sleb128 0
 3686 0787 17       		.uleb128 0x17
 3687 0788 01       		.uleb128 0x1
 3688 0789 50       		.byte	0x50
 3689 078a 01       		.uleb128 0x1
 3690 078b 30       		.byte	0x30
 3691 078c 17       		.uleb128 0x17
 3692 078d 01       		.uleb128 0x1
 3693 078e 51       		.byte	0x51
 3694 078f 05       		.uleb128 0x5
 3695 0790 03       		.byte	0x3
 3696 0791 00000000 		.4byte	.LC1
 3697 0795 17       		.uleb128 0x17
 3698 0796 01       		.uleb128 0x1
 3699 0797 52       		.byte	0x52
 3700 0798 05       		.uleb128 0x5
 3701 0799 03       		.byte	0x3
 3702 079a 40000000 		.4byte	.LANCHOR0+64
 3703 079e 17       		.uleb128 0x17
 3704 079f 01       		.uleb128 0x1
 3705 07a0 53       		.byte	0x53
 3706 07a1 03       		.uleb128 0x3
 3707 07a2 0A       		.byte	0xa
 3708 07a3 3B01     		.2byte	0x13b
 3709 07a5 17       		.uleb128 0x17
ARM GAS  C:\Users\Phuong\AppData\Local\Temp\cczAMJrc.s 			page 83


 3710 07a6 02       		.uleb128 0x2
 3711 07a7 7D       		.byte	0x7d
 3712 07a8 00       		.sleb128 0
 3713 07a9 01       		.uleb128 0x1
 3714 07aa 31       		.byte	0x31
 3715 07ab 17       		.uleb128 0x17
 3716 07ac 02       		.uleb128 0x2
 3717 07ad 7D       		.byte	0x7d
 3718 07ae 04       		.sleb128 4
 3719 07af 05       		.uleb128 0x5
 3720 07b0 03       		.byte	0x3
 3721 07b1 84000000 		.4byte	.LC12
 3722 07b5 00       		.byte	0
 3723 07b6 00       		.byte	0
 3724 07b7 26       		.uleb128 0x26
 3725 07b8 0E000000 		.4byte	.LVL84
 3726 07bc 8C030000 		.4byte	0x38c
 3727 07c0 CB070000 		.4byte	0x7cb
 3728 07c4 17       		.uleb128 0x17
 3729 07c5 01       		.uleb128 0x1
 3730 07c6 50       		.byte	0x50
 3731 07c7 02       		.uleb128 0x2
 3732 07c8 74       		.byte	0x74
 3733 07c9 00       		.sleb128 0
 3734 07ca 00       		.byte	0
 3735 07cb 26       		.uleb128 0x26
 3736 07cc 28000000 		.4byte	.LVL85
 3737 07d0 AB1A0000 		.4byte	0x1aab
 3738 07d4 DF070000 		.4byte	0x7df
 3739 07d8 17       		.uleb128 0x17
 3740 07d9 01       		.uleb128 0x1
 3741 07da 51       		.byte	0x51
 3742 07db 02       		.uleb128 0x2
 3743 07dc 75       		.byte	0x75
 3744 07dd 00       		.sleb128 0
 3745 07de 00       		.byte	0
 3746 07df 26       		.uleb128 0x26
 3747 07e0 32000000 		.4byte	.LVL86
 3748 07e4 5B050000 		.4byte	0x55b
 3749 07e8 F3070000 		.4byte	0x7f3
 3750 07ec 17       		.uleb128 0x17
 3751 07ed 01       		.uleb128 0x1
 3752 07ee 50       		.byte	0x50
 3753 07ef 02       		.uleb128 0x2
 3754 07f0 74       		.byte	0x74
 3755 07f1 00       		.sleb128 0
 3756 07f2 00       		.byte	0
 3757 07f3 26       		.uleb128 0x26
 3758 07f4 6C000000 		.4byte	.LVL92
 3759 07f8 AB1A0000 		.4byte	0x1aab
 3760 07fc 07080000 		.4byte	0x807
 3761 0800 17       		.uleb128 0x17
 3762 0801 01       		.uleb128 0x1
 3763 0802 51       		.byte	0x51
 3764 0803 02       		.uleb128 0x2
 3765 0804 76       		.byte	0x76
 3766 0805 00       		.sleb128 0
ARM GAS  C:\Users\Phuong\AppData\Local\Temp\cczAMJrc.s 			page 84


 3767 0806 00       		.byte	0
 3768 0807 1D       		.uleb128 0x1d
 3769 0808 82000000 		.4byte	.LVL93
 3770 080c A01A0000 		.4byte	0x1aa0
 3771 0810 16       		.uleb128 0x16
 3772 0811 88000000 		.4byte	.LVL94
 3773 0815 5B050000 		.4byte	0x55b
 3774 0819 17       		.uleb128 0x17
 3775 081a 01       		.uleb128 0x1
 3776 081b 50       		.byte	0x50
 3777 081c 02       		.uleb128 0x2
 3778 081d 74       		.byte	0x74
 3779 081e 00       		.sleb128 0
 3780 081f 00       		.byte	0
 3781 0820 00       		.byte	0
 3782 0821 21       		.uleb128 0x21
 3783 0822 97000000 		.4byte	0x97
 3784 0826 31080000 		.4byte	0x831
 3785 082a 22       		.uleb128 0x22
 3786 082b 7D000000 		.4byte	0x7d
 3787 082f 11       		.byte	0x11
 3788 0830 00       		.byte	0
 3789 0831 06       		.uleb128 0x6
 3790 0832 21080000 		.4byte	0x821
 3791 0836 27       		.uleb128 0x27
 3792 0837 EC030000 		.4byte	.LASF49
 3793 083b 01       		.byte	0x1
 3794 083c 0B       		.byte	0xb
 3795 083d 91000000 		.4byte	0x91
 3796 0841 00000000 		.4byte	.LFB1
 3797 0845 14000000 		.4byte	.LFE1-.LFB1
 3798 0849 01       		.uleb128 0x1
 3799 084a 9C       		.byte	0x9c
 3800 084b 5F080000 		.4byte	0x85f
 3801 084f 11       		.uleb128 0x11
 3802 0850 74010000 		.4byte	.LASF39
 3803 0854 01       		.byte	0x1
 3804 0855 0B       		.byte	0xb
 3805 0856 E7000000 		.4byte	0xe7
 3806 085a 82050000 		.4byte	.LLST31
 3807 085e 00       		.byte	0
 3808 085f 27       		.uleb128 0x27
 3809 0860 A4010000 		.4byte	.LASF50
 3810 0864 01       		.byte	0x1
 3811 0865 0B       		.byte	0xb
 3812 0866 37000000 		.4byte	0x37
 3813 086a 00000000 		.4byte	.LFB2
 3814 086e 3C000000 		.4byte	.LFE2-.LFB2
 3815 0872 01       		.uleb128 0x1
 3816 0873 9C       		.byte	0x9c
 3817 0874 BE080000 		.4byte	0x8be
 3818 0878 11       		.uleb128 0x11
 3819 0879 D3000000 		.4byte	.LASF51
 3820 087d 01       		.byte	0x1
 3821 087e 0B       		.byte	0xb
 3822 087f 91000000 		.4byte	0x91
 3823 0883 BC050000 		.4byte	.LLST32
ARM GAS  C:\Users\Phuong\AppData\Local\Temp\cczAMJrc.s 			page 85


 3824 0887 11       		.uleb128 0x11
 3825 0888 7A010000 		.4byte	.LASF52
 3826 088c 01       		.byte	0x1
 3827 088d 0B       		.byte	0xb
 3828 088e BE080000 		.4byte	0x8be
 3829 0892 14060000 		.4byte	.LLST33
 3830 0896 14       		.uleb128 0x14
 3831 0897 12000000 		.4byte	.LBB18
 3832 089b 1E000000 		.4byte	.LBE18-.LBB18
 3833 089f 1C       		.uleb128 0x1c
 3834 08a0 6900     		.ascii	"i\000"
 3835 08a2 01       		.byte	0x1
 3836 08a3 0B       		.byte	0xb
 3837 08a4 25000000 		.4byte	0x25
 3838 08a8 56060000 		.4byte	.LLST34
 3839 08ac 16       		.uleb128 0x16
 3840 08ad 1E000000 		.4byte	.LVL114
 3841 08b1 951A0000 		.4byte	0x1a95
 3842 08b5 17       		.uleb128 0x17
 3843 08b6 01       		.uleb128 0x1
 3844 08b7 50       		.byte	0x50
 3845 08b8 02       		.uleb128 0x2
 3846 08b9 75       		.byte	0x75
 3847 08ba 00       		.sleb128 0
 3848 08bb 00       		.byte	0
 3849 08bc 00       		.byte	0
 3850 08bd 00       		.byte	0
 3851 08be 05       		.uleb128 0x5
 3852 08bf 04       		.byte	0x4
 3853 08c0 E7000000 		.4byte	0xe7
 3854 08c4 27       		.uleb128 0x27
 3855 08c5 F4000000 		.4byte	.LASF53
 3856 08c9 01       		.byte	0x1
 3857 08ca 17       		.byte	0x17
 3858 08cb F2000000 		.4byte	0xf2
 3859 08cf 00000000 		.4byte	.LFB3
 3860 08d3 1A000000 		.4byte	.LFE3-.LFB3
 3861 08d7 01       		.uleb128 0x1
 3862 08d8 9C       		.byte	0x9c
 3863 08d9 09090000 		.4byte	0x909
 3864 08dd 11       		.uleb128 0x11
 3865 08de 47020000 		.4byte	.LASF54
 3866 08e2 01       		.byte	0x1
 3867 08e3 17       		.byte	0x17
 3868 08e4 40010000 		.4byte	0x140
 3869 08e8 69060000 		.4byte	.LLST35
 3870 08ec 28       		.uleb128 0x28
 3871 08ed EF050000 		.4byte	.LASF36
 3872 08f1 01       		.byte	0x1
 3873 08f2 1A       		.byte	0x1a
 3874 08f3 4A020000 		.4byte	0x24a
 3875 08f7 01       		.uleb128 0x1
 3876 08f8 50       		.byte	0x50
 3877 08f9 16       		.uleb128 0x16
 3878 08fa 0A000000 		.4byte	.LVL124
 3879 08fe B61A0000 		.4byte	0x1ab6
 3880 0902 17       		.uleb128 0x17
ARM GAS  C:\Users\Phuong\AppData\Local\Temp\cczAMJrc.s 			page 86


 3881 0903 01       		.uleb128 0x1
 3882 0904 50       		.byte	0x50
 3883 0905 01       		.uleb128 0x1
 3884 0906 40       		.byte	0x40
 3885 0907 00       		.byte	0
 3886 0908 00       		.byte	0
 3887 0909 29       		.uleb128 0x29
 3888 090a 28010000 		.4byte	.LASF92
 3889 090e 01       		.byte	0x1
 3890 090f 27       		.byte	0x27
 3891 0910 00000000 		.4byte	.LFB4
 3892 0914 3A000000 		.4byte	.LFE4-.LFB4
 3893 0918 01       		.uleb128 0x1
 3894 0919 9C       		.byte	0x9c
 3895 091a 80090000 		.4byte	0x980
 3896 091e 11       		.uleb128 0x11
 3897 091f 7F050000 		.4byte	.LASF55
 3898 0923 01       		.byte	0x1
 3899 0924 27       		.byte	0x27
 3900 0925 F2000000 		.4byte	0xf2
 3901 0929 95060000 		.4byte	.LLST36
 3902 092d 2A       		.uleb128 0x2a
 3903 092e 30000000 		.4byte	.Ldebug_ranges0+0x30
 3904 0932 2B       		.uleb128 0x2b
 3905 0933 86050000 		.4byte	.LASF35
 3906 0937 01       		.byte	0x1
 3907 0938 2D       		.byte	0x2d
 3908 0939 4A020000 		.4byte	0x24a
 3909 093d 1C       		.uleb128 0x1c
 3910 093e 6900     		.ascii	"i\000"
 3911 0940 01       		.byte	0x1
 3912 0941 2E       		.byte	0x2e
 3913 0942 25000000 		.4byte	0x25
 3914 0946 D7060000 		.4byte	.LLST37
 3915 094a 1D       		.uleb128 0x1d
 3916 094b 12000000 		.4byte	.LVL128
 3917 094f A01A0000 		.4byte	0x1aa0
 3918 0953 1D       		.uleb128 0x1d
 3919 0954 1A000000 		.4byte	.LVL129
 3920 0958 A01A0000 		.4byte	0x1aa0
 3921 095c 1D       		.uleb128 0x1d
 3922 095d 2C000000 		.4byte	.LVL133
 3923 0961 A01A0000 		.4byte	0x1aa0
 3924 0965 1D       		.uleb128 0x1d
 3925 0966 32000000 		.4byte	.LVL134
 3926 096a A01A0000 		.4byte	0x1aa0
 3927 096e 16       		.uleb128 0x16
 3928 096f 38000000 		.4byte	.LVL135
 3929 0973 A01A0000 		.4byte	0x1aa0
 3930 0977 17       		.uleb128 0x17
 3931 0978 01       		.uleb128 0x1
 3932 0979 50       		.byte	0x50
 3933 097a 02       		.uleb128 0x2
 3934 097b 75       		.byte	0x75
 3935 097c 00       		.sleb128 0
 3936 097d 00       		.byte	0
 3937 097e 00       		.byte	0
ARM GAS  C:\Users\Phuong\AppData\Local\Temp\cczAMJrc.s 			page 87


 3938 097f 00       		.byte	0
 3939 0980 27       		.uleb128 0x27
 3940 0981 4F050000 		.4byte	.LASF56
 3941 0985 01       		.byte	0x1
 3942 0986 63       		.byte	0x63
 3943 0987 F2000000 		.4byte	0xf2
 3944 098b 00000000 		.4byte	.LFB6
 3945 098f 0C010000 		.4byte	.LFE6-.LFB6
 3946 0993 01       		.uleb128 0x1
 3947 0994 9C       		.byte	0x9c
 3948 0995 B60B0000 		.4byte	0xbb6
 3949 0999 11       		.uleb128 0x11
 3950 099a 7F050000 		.4byte	.LASF55
 3951 099e 01       		.byte	0x1
 3952 099f 63       		.byte	0x63
 3953 09a0 F2000000 		.4byte	0xf2
 3954 09a4 F5060000 		.4byte	.LLST38
 3955 09a8 13       		.uleb128 0x13
 3956 09a9 EF050000 		.4byte	.LASF36
 3957 09ad 01       		.byte	0x1
 3958 09ae 65       		.byte	0x65
 3959 09af 4A020000 		.4byte	0x24a
 3960 09b3 82070000 		.4byte	.LLST39
 3961 09b7 1E       		.uleb128 0x1e
 3962 09b8 E3030000 		.4byte	.LASF46
 3963 09bc C60B0000 		.4byte	0xbc6
 3964 09c0 05       		.uleb128 0x5
 3965 09c1 03       		.byte	0x3
 3966 09c2 54000000 		.4byte	__func__.6032
 3967 09c6 1B       		.uleb128 0x1b
 3968 09c7 08000000 		.4byte	.LBB21
 3969 09cb 1C000000 		.4byte	.LBE21-.LBB21
 3970 09cf 200A0000 		.4byte	0xa20
 3971 09d3 1C       		.uleb128 0x1c
 3972 09d4 6C00     		.ascii	"l\000"
 3973 09d6 01       		.byte	0x1
 3974 09d7 6A       		.byte	0x6a
 3975 09d8 93010000 		.4byte	0x193
 3976 09dc FB070000 		.4byte	.LLST40
 3977 09e0 1D       		.uleb128 0x1d
 3978 09e1 0C000000 		.4byte	.LVL139
 3979 09e5 C11A0000 		.4byte	0x1ac1
 3980 09e9 1F       		.uleb128 0x1f
 3981 09ea 24000000 		.4byte	.LVL142
 3982 09ee 02       		.uleb128 0x2
 3983 09ef 74       		.byte	0x74
 3984 09f0 00       		.sleb128 0
 3985 09f1 17       		.uleb128 0x17
 3986 09f2 01       		.uleb128 0x1
 3987 09f3 50       		.byte	0x50
 3988 09f4 01       		.uleb128 0x1
 3989 09f5 30       		.byte	0x30
 3990 09f6 17       		.uleb128 0x17
 3991 09f7 01       		.uleb128 0x1
 3992 09f8 51       		.byte	0x51
 3993 09f9 05       		.uleb128 0x5
 3994 09fa 03       		.byte	0x3
ARM GAS  C:\Users\Phuong\AppData\Local\Temp\cczAMJrc.s 			page 88


 3995 09fb 00000000 		.4byte	.LC1
 3996 09ff 17       		.uleb128 0x17
 3997 0a00 01       		.uleb128 0x1
 3998 0a01 52       		.byte	0x52
 3999 0a02 05       		.uleb128 0x5
 4000 0a03 03       		.byte	0x3
 4001 0a04 54000000 		.4byte	.LANCHOR0+84
 4002 0a08 17       		.uleb128 0x17
 4003 0a09 01       		.uleb128 0x1
 4004 0a0a 53       		.byte	0x53
 4005 0a0b 02       		.uleb128 0x2
 4006 0a0c 08       		.byte	0x8
 4007 0a0d 6A       		.byte	0x6a
 4008 0a0e 17       		.uleb128 0x17
 4009 0a0f 02       		.uleb128 0x2
 4010 0a10 7D       		.byte	0x7d
 4011 0a11 00       		.sleb128 0
 4012 0a12 01       		.uleb128 0x1
 4013 0a13 31       		.byte	0x31
 4014 0a14 17       		.uleb128 0x17
 4015 0a15 02       		.uleb128 0x2
 4016 0a16 7D       		.byte	0x7d
 4017 0a17 04       		.sleb128 4
 4018 0a18 05       		.uleb128 0x5
 4019 0a19 03       		.byte	0x3
 4020 0a1a A0000000 		.4byte	.LC18
 4021 0a1e 00       		.byte	0
 4022 0a1f 00       		.byte	0
 4023 0a20 2A       		.uleb128 0x2a
 4024 0a21 48000000 		.4byte	.Ldebug_ranges0+0x48
 4025 0a25 13       		.uleb128 0x13
 4026 0a26 86050000 		.4byte	.LASF35
 4027 0a2a 01       		.byte	0x1
 4028 0a2b 6E       		.byte	0x6e
 4029 0a2c 4A020000 		.4byte	0x24a
 4030 0a30 24080000 		.4byte	.LLST41
 4031 0a34 1B       		.uleb128 0x1b
 4032 0a35 32000000 		.4byte	.LBB23
 4033 0a39 1E000000 		.4byte	.LBE23-.LBB23
 4034 0a3d 8E0A0000 		.4byte	0xa8e
 4035 0a41 1C       		.uleb128 0x1c
 4036 0a42 6C00     		.ascii	"l\000"
 4037 0a44 01       		.byte	0x1
 4038 0a45 74       		.byte	0x74
 4039 0a46 93010000 		.4byte	0x193
 4040 0a4a 82080000 		.4byte	.LLST42
 4041 0a4e 1D       		.uleb128 0x1d
 4042 0a4f 36000000 		.4byte	.LVL148
 4043 0a53 C11A0000 		.4byte	0x1ac1
 4044 0a57 1F       		.uleb128 0x1f
 4045 0a58 4E000000 		.4byte	.LVL151
 4046 0a5c 02       		.uleb128 0x2
 4047 0a5d 75       		.byte	0x75
 4048 0a5e 00       		.sleb128 0
 4049 0a5f 17       		.uleb128 0x17
 4050 0a60 01       		.uleb128 0x1
 4051 0a61 50       		.byte	0x50
ARM GAS  C:\Users\Phuong\AppData\Local\Temp\cczAMJrc.s 			page 89


 4052 0a62 01       		.uleb128 0x1
 4053 0a63 30       		.byte	0x30
 4054 0a64 17       		.uleb128 0x17
 4055 0a65 01       		.uleb128 0x1
 4056 0a66 51       		.byte	0x51
 4057 0a67 05       		.uleb128 0x5
 4058 0a68 03       		.byte	0x3
 4059 0a69 00000000 		.4byte	.LC1
 4060 0a6d 17       		.uleb128 0x17
 4061 0a6e 01       		.uleb128 0x1
 4062 0a6f 52       		.byte	0x52
 4063 0a70 05       		.uleb128 0x5
 4064 0a71 03       		.byte	0x3
 4065 0a72 54000000 		.4byte	.LANCHOR0+84
 4066 0a76 17       		.uleb128 0x17
 4067 0a77 01       		.uleb128 0x1
 4068 0a78 53       		.byte	0x53
 4069 0a79 02       		.uleb128 0x2
 4070 0a7a 08       		.byte	0x8
 4071 0a7b 74       		.byte	0x74
 4072 0a7c 17       		.uleb128 0x17
 4073 0a7d 02       		.uleb128 0x2
 4074 0a7e 7D       		.byte	0x7d
 4075 0a7f 00       		.sleb128 0
 4076 0a80 01       		.uleb128 0x1
 4077 0a81 31       		.byte	0x31
 4078 0a82 17       		.uleb128 0x17
 4079 0a83 02       		.uleb128 0x2
 4080 0a84 7D       		.byte	0x7d
 4081 0a85 04       		.sleb128 4
 4082 0a86 05       		.uleb128 0x5
 4083 0a87 03       		.byte	0x3
 4084 0a88 C0000000 		.4byte	.LC20
 4085 0a8c 00       		.byte	0
 4086 0a8d 00       		.byte	0
 4087 0a8e 1B       		.uleb128 0x1b
 4088 0a8f 76000000 		.4byte	.LBB24
 4089 0a93 1C000000 		.4byte	.LBE24-.LBB24
 4090 0a97 E80A0000 		.4byte	0xae8
 4091 0a9b 1C       		.uleb128 0x1c
 4092 0a9c 6C00     		.ascii	"l\000"
 4093 0a9e 01       		.byte	0x1
 4094 0a9f 86       		.byte	0x86
 4095 0aa0 93010000 		.4byte	0x193
 4096 0aa4 A0080000 		.4byte	.LLST43
 4097 0aa8 1D       		.uleb128 0x1d
 4098 0aa9 7A000000 		.4byte	.LVL155
 4099 0aad C11A0000 		.4byte	0x1ac1
 4100 0ab1 1F       		.uleb128 0x1f
 4101 0ab2 92000000 		.4byte	.LVL158
 4102 0ab6 02       		.uleb128 0x2
 4103 0ab7 75       		.byte	0x75
 4104 0ab8 00       		.sleb128 0
 4105 0ab9 17       		.uleb128 0x17
 4106 0aba 01       		.uleb128 0x1
 4107 0abb 50       		.byte	0x50
 4108 0abc 01       		.uleb128 0x1
ARM GAS  C:\Users\Phuong\AppData\Local\Temp\cczAMJrc.s 			page 90


 4109 0abd 30       		.byte	0x30
 4110 0abe 17       		.uleb128 0x17
 4111 0abf 01       		.uleb128 0x1
 4112 0ac0 51       		.byte	0x51
 4113 0ac1 05       		.uleb128 0x5
 4114 0ac2 03       		.byte	0x3
 4115 0ac3 00000000 		.4byte	.LC1
 4116 0ac7 17       		.uleb128 0x17
 4117 0ac8 01       		.uleb128 0x1
 4118 0ac9 52       		.byte	0x52
 4119 0aca 05       		.uleb128 0x5
 4120 0acb 03       		.byte	0x3
 4121 0acc 54000000 		.4byte	.LANCHOR0+84
 4122 0ad0 17       		.uleb128 0x17
 4123 0ad1 01       		.uleb128 0x1
 4124 0ad2 53       		.byte	0x53
 4125 0ad3 02       		.uleb128 0x2
 4126 0ad4 08       		.byte	0x8
 4127 0ad5 86       		.byte	0x86
 4128 0ad6 17       		.uleb128 0x17
 4129 0ad7 02       		.uleb128 0x2
 4130 0ad8 7D       		.byte	0x7d
 4131 0ad9 00       		.sleb128 0
 4132 0ada 01       		.uleb128 0x1
 4133 0adb 31       		.byte	0x31
 4134 0adc 17       		.uleb128 0x17
 4135 0add 02       		.uleb128 0x2
 4136 0ade 7D       		.byte	0x7d
 4137 0adf 04       		.sleb128 4
 4138 0ae0 05       		.uleb128 0x5
 4139 0ae1 03       		.byte	0x3
 4140 0ae2 D4000000 		.4byte	.LC22
 4141 0ae6 00       		.byte	0
 4142 0ae7 00       		.byte	0
 4143 0ae8 20       		.uleb128 0x20
 4144 0ae9 60000000 		.4byte	.Ldebug_ranges0+0x60
 4145 0aed 7B0B0000 		.4byte	0xb7b
 4146 0af1 1C       		.uleb128 0x1c
 4147 0af2 6900     		.ascii	"i\000"
 4148 0af4 01       		.byte	0x1
 4149 0af5 8C       		.byte	0x8c
 4150 0af6 25000000 		.4byte	0x25
 4151 0afa BE080000 		.4byte	.LLST44
 4152 0afe 1B       		.uleb128 0x1b
 4153 0aff AA000000 		.4byte	.LBB26
 4154 0b03 1C000000 		.4byte	.LBE26-.LBB26
 4155 0b07 580B0000 		.4byte	0xb58
 4156 0b0b 1C       		.uleb128 0x1c
 4157 0b0c 6C00     		.ascii	"l\000"
 4158 0b0e 01       		.byte	0x1
 4159 0b0f 8E       		.byte	0x8e
 4160 0b10 93010000 		.4byte	0x193
 4161 0b14 D1080000 		.4byte	.LLST45
 4162 0b18 1D       		.uleb128 0x1d
 4163 0b19 AE000000 		.4byte	.LVL162
 4164 0b1d C11A0000 		.4byte	0x1ac1
 4165 0b21 1F       		.uleb128 0x1f
ARM GAS  C:\Users\Phuong\AppData\Local\Temp\cczAMJrc.s 			page 91


 4166 0b22 C6000000 		.4byte	.LVL165
 4167 0b26 02       		.uleb128 0x2
 4168 0b27 75       		.byte	0x75
 4169 0b28 00       		.sleb128 0
 4170 0b29 17       		.uleb128 0x17
 4171 0b2a 01       		.uleb128 0x1
 4172 0b2b 50       		.byte	0x50
 4173 0b2c 01       		.uleb128 0x1
 4174 0b2d 30       		.byte	0x30
 4175 0b2e 17       		.uleb128 0x17
 4176 0b2f 01       		.uleb128 0x1
 4177 0b30 51       		.byte	0x51
 4178 0b31 05       		.uleb128 0x5
 4179 0b32 03       		.byte	0x3
 4180 0b33 00000000 		.4byte	.LC1
 4181 0b37 17       		.uleb128 0x17
 4182 0b38 01       		.uleb128 0x1
 4183 0b39 52       		.byte	0x52
 4184 0b3a 05       		.uleb128 0x5
 4185 0b3b 03       		.byte	0x3
 4186 0b3c 54000000 		.4byte	.LANCHOR0+84
 4187 0b40 17       		.uleb128 0x17
 4188 0b41 01       		.uleb128 0x1
 4189 0b42 53       		.byte	0x53
 4190 0b43 02       		.uleb128 0x2
 4191 0b44 08       		.byte	0x8
 4192 0b45 8E       		.byte	0x8e
 4193 0b46 17       		.uleb128 0x17
 4194 0b47 02       		.uleb128 0x2
 4195 0b48 7D       		.byte	0x7d
 4196 0b49 00       		.sleb128 0
 4197 0b4a 01       		.uleb128 0x1
 4198 0b4b 31       		.byte	0x31
 4199 0b4c 17       		.uleb128 0x17
 4200 0b4d 02       		.uleb128 0x2
 4201 0b4e 7D       		.byte	0x7d
 4202 0b4f 04       		.sleb128 4
 4203 0b50 05       		.uleb128 0x5
 4204 0b51 03       		.byte	0x3
 4205 0b52 EC000000 		.4byte	.LC24
 4206 0b56 00       		.byte	0
 4207 0b57 00       		.byte	0
 4208 0b58 1D       		.uleb128 0x1d
 4209 0b59 D4000000 		.4byte	.LVL168
 4210 0b5d A01A0000 		.4byte	0x1aa0
 4211 0b61 1D       		.uleb128 0x1d
 4212 0b62 E2000000 		.4byte	.LVL170
 4213 0b66 A01A0000 		.4byte	0x1aa0
 4214 0b6a 16       		.uleb128 0x16
 4215 0b6b E8000000 		.4byte	.LVL171
 4216 0b6f A01A0000 		.4byte	0x1aa0
 4217 0b73 17       		.uleb128 0x17
 4218 0b74 01       		.uleb128 0x1
 4219 0b75 50       		.byte	0x50
 4220 0b76 02       		.uleb128 0x2
 4221 0b77 74       		.byte	0x74
 4222 0b78 00       		.sleb128 0
ARM GAS  C:\Users\Phuong\AppData\Local\Temp\cczAMJrc.s 			page 92


 4223 0b79 00       		.byte	0
 4224 0b7a 00       		.byte	0
 4225 0b7b 26       		.uleb128 0x26
 4226 0b7c 2E000000 		.4byte	.LVL146
 4227 0b80 B61A0000 		.4byte	0x1ab6
 4228 0b84 8E0B0000 		.4byte	0xb8e
 4229 0b88 17       		.uleb128 0x17
 4230 0b89 01       		.uleb128 0x1
 4231 0b8a 50       		.byte	0x50
 4232 0b8b 01       		.uleb128 0x1
 4233 0b8c 40       		.byte	0x40
 4234 0b8d 00       		.byte	0
 4235 0b8e 1D       		.uleb128 0x1d
 4236 0b8f 70000000 		.4byte	.LVL154
 4237 0b93 C4020000 		.4byte	0x2c4
 4238 0b97 26       		.uleb128 0x26
 4239 0b98 98000000 		.4byte	.LVL159
 4240 0b9c A01A0000 		.4byte	0x1aa0
 4241 0ba0 AB0B0000 		.4byte	0xbab
 4242 0ba4 17       		.uleb128 0x17
 4243 0ba5 01       		.uleb128 0x1
 4244 0ba6 50       		.byte	0x50
 4245 0ba7 02       		.uleb128 0x2
 4246 0ba8 74       		.byte	0x74
 4247 0ba9 00       		.sleb128 0
 4248 0baa 00       		.byte	0
 4249 0bab 1D       		.uleb128 0x1d
 4250 0bac A4000000 		.4byte	.LVL161
 4251 0bb0 C4020000 		.4byte	0x2c4
 4252 0bb4 00       		.byte	0
 4253 0bb5 00       		.byte	0
 4254 0bb6 21       		.uleb128 0x21
 4255 0bb7 97000000 		.4byte	0x97
 4256 0bbb C60B0000 		.4byte	0xbc6
 4257 0bbf 22       		.uleb128 0x22
 4258 0bc0 7D000000 		.4byte	0x7d
 4259 0bc4 09       		.byte	0x9
 4260 0bc5 00       		.byte	0
 4261 0bc6 06       		.uleb128 0x6
 4262 0bc7 B60B0000 		.4byte	0xbb6
 4263 0bcb 2C       		.uleb128 0x2c
 4264 0bcc 0E020000 		.4byte	.LASF57
 4265 0bd0 01       		.byte	0x1
 4266 0bd1 4701     		.2byte	0x147
 4267 0bd3 E7000000 		.4byte	0xe7
 4268 0bd7 00000000 		.4byte	.LFB12
 4269 0bdb B4000000 		.4byte	.LFE12-.LFB12
 4270 0bdf 01       		.uleb128 0x1
 4271 0be0 9C       		.byte	0x9c
 4272 0be1 6F0D0000 		.4byte	0xd6f
 4273 0be5 19       		.uleb128 0x19
 4274 0be6 7F050000 		.4byte	.LASF55
 4275 0bea 01       		.byte	0x1
 4276 0beb 4701     		.2byte	0x147
 4277 0bed F2000000 		.4byte	0xf2
 4278 0bf1 EF080000 		.4byte	.LLST46
 4279 0bf5 24       		.uleb128 0x24
ARM GAS  C:\Users\Phuong\AppData\Local\Temp\cczAMJrc.s 			page 93


 4280 0bf6 6B657900 		.ascii	"key\000"
 4281 0bfa 01       		.byte	0x1
 4282 0bfb 4701     		.2byte	0x147
 4283 0bfd 91000000 		.4byte	0x91
 4284 0c01 58090000 		.4byte	.LLST47
 4285 0c05 19       		.uleb128 0x19
 4286 0c06 74010000 		.4byte	.LASF39
 4287 0c0a 01       		.byte	0x1
 4288 0c0b 4701     		.2byte	0x147
 4289 0c0d 91000000 		.4byte	0x91
 4290 0c11 9A090000 		.4byte	.LLST48
 4291 0c15 1A       		.uleb128 0x1a
 4292 0c16 EF050000 		.4byte	.LASF36
 4293 0c1a 01       		.byte	0x1
 4294 0c1b 4901     		.2byte	0x149
 4295 0c1d E7000000 		.4byte	0xe7
 4296 0c21 DC090000 		.4byte	.LLST49
 4297 0c25 1E       		.uleb128 0x1e
 4298 0c26 E3030000 		.4byte	.LASF46
 4299 0c2a 7F0D0000 		.4byte	0xd7f
 4300 0c2e 05       		.uleb128 0x5
 4301 0c2f 03       		.byte	0x3
 4302 0c30 60000000 		.4byte	__func__.6116
 4303 0c34 1B       		.uleb128 0x1b
 4304 0c35 16000000 		.4byte	.LBB29
 4305 0c39 26000000 		.4byte	.LBE29-.LBB29
 4306 0c3d A30C0000 		.4byte	0xca3
 4307 0c41 15       		.uleb128 0x15
 4308 0c42 6C00     		.ascii	"l\000"
 4309 0c44 01       		.byte	0x1
 4310 0c45 5401     		.2byte	0x154
 4311 0c47 93010000 		.4byte	0x193
 4312 0c4b 1F0A0000 		.4byte	.LLST50
 4313 0c4f 1D       		.uleb128 0x1d
 4314 0c50 1A000000 		.4byte	.LVL177
 4315 0c54 C11A0000 		.4byte	0x1ac1
 4316 0c58 26       		.uleb128 0x26
 4317 0c59 24000000 		.4byte	.LVL180
 4318 0c5d 36080000 		.4byte	0x836
 4319 0c61 6B0C0000 		.4byte	0xc6b
 4320 0c65 17       		.uleb128 0x17
 4321 0c66 01       		.uleb128 0x1
 4322 0c67 50       		.byte	0x50
 4323 0c68 01       		.uleb128 0x1
 4324 0c69 32       		.byte	0x32
 4325 0c6a 00       		.byte	0
 4326 0c6b 1F       		.uleb128 0x1f
 4327 0c6c 3C000000 		.4byte	.LVL181
 4328 0c70 02       		.uleb128 0x2
 4329 0c71 74       		.byte	0x74
 4330 0c72 00       		.sleb128 0
 4331 0c73 17       		.uleb128 0x17
 4332 0c74 01       		.uleb128 0x1
 4333 0c75 50       		.byte	0x50
 4334 0c76 01       		.uleb128 0x1
 4335 0c77 30       		.byte	0x30
 4336 0c78 17       		.uleb128 0x17
ARM GAS  C:\Users\Phuong\AppData\Local\Temp\cczAMJrc.s 			page 94


 4337 0c79 01       		.uleb128 0x1
 4338 0c7a 51       		.byte	0x51
 4339 0c7b 05       		.uleb128 0x5
 4340 0c7c 03       		.byte	0x3
 4341 0c7d 00000000 		.4byte	.LC1
 4342 0c81 17       		.uleb128 0x17
 4343 0c82 01       		.uleb128 0x1
 4344 0c83 52       		.byte	0x52
 4345 0c84 05       		.uleb128 0x5
 4346 0c85 03       		.byte	0x3
 4347 0c86 60000000 		.4byte	.LANCHOR0+96
 4348 0c8a 17       		.uleb128 0x17
 4349 0c8b 01       		.uleb128 0x1
 4350 0c8c 53       		.byte	0x53
 4351 0c8d 03       		.uleb128 0x3
 4352 0c8e 0A       		.byte	0xa
 4353 0c8f 5401     		.2byte	0x154
 4354 0c91 17       		.uleb128 0x17
 4355 0c92 02       		.uleb128 0x2
 4356 0c93 7D       		.byte	0x7d
 4357 0c94 00       		.sleb128 0
 4358 0c95 01       		.uleb128 0x1
 4359 0c96 31       		.byte	0x31
 4360 0c97 17       		.uleb128 0x17
 4361 0c98 02       		.uleb128 0x2
 4362 0c99 7D       		.byte	0x7d
 4363 0c9a 04       		.sleb128 4
 4364 0c9b 05       		.uleb128 0x5
 4365 0c9c 03       		.byte	0x3
 4366 0c9d 04010000 		.4byte	.LC28
 4367 0ca1 00       		.byte	0
 4368 0ca2 00       		.byte	0
 4369 0ca3 2A       		.uleb128 0x2a
 4370 0ca4 78000000 		.4byte	.Ldebug_ranges0+0x78
 4371 0ca8 1A       		.uleb128 0x1a
 4372 0ca9 86050000 		.4byte	.LASF35
 4373 0cad 01       		.byte	0x1
 4374 0cae 5801     		.2byte	0x158
 4375 0cb0 4A020000 		.4byte	0x24a
 4376 0cb4 530A0000 		.4byte	.LLST51
 4377 0cb8 1B       		.uleb128 0x1b
 4378 0cb9 66000000 		.4byte	.LBB31
 4379 0cbd 26000000 		.4byte	.LBE31-.LBB31
 4380 0cc1 270D0000 		.4byte	0xd27
 4381 0cc5 15       		.uleb128 0x15
 4382 0cc6 6C00     		.ascii	"l\000"
 4383 0cc8 01       		.byte	0x1
 4384 0cc9 6C01     		.2byte	0x16c
 4385 0ccb 93010000 		.4byte	0x193
 4386 0ccf 980A0000 		.4byte	.LLST52
 4387 0cd3 1D       		.uleb128 0x1d
 4388 0cd4 6A000000 		.4byte	.LVL187
 4389 0cd8 C11A0000 		.4byte	0x1ac1
 4390 0cdc 26       		.uleb128 0x26
 4391 0cdd 74000000 		.4byte	.LVL190
 4392 0ce1 36080000 		.4byte	0x836
 4393 0ce5 EF0C0000 		.4byte	0xcef
ARM GAS  C:\Users\Phuong\AppData\Local\Temp\cczAMJrc.s 			page 95


 4394 0ce9 17       		.uleb128 0x17
 4395 0cea 01       		.uleb128 0x1
 4396 0ceb 50       		.byte	0x50
 4397 0cec 01       		.uleb128 0x1
 4398 0ced 31       		.byte	0x31
 4399 0cee 00       		.byte	0
 4400 0cef 1F       		.uleb128 0x1f
 4401 0cf0 8C000000 		.4byte	.LVL191
 4402 0cf4 02       		.uleb128 0x2
 4403 0cf5 74       		.byte	0x74
 4404 0cf6 00       		.sleb128 0
 4405 0cf7 17       		.uleb128 0x17
 4406 0cf8 01       		.uleb128 0x1
 4407 0cf9 50       		.byte	0x50
 4408 0cfa 01       		.uleb128 0x1
 4409 0cfb 30       		.byte	0x30
 4410 0cfc 17       		.uleb128 0x17
 4411 0cfd 01       		.uleb128 0x1
 4412 0cfe 51       		.byte	0x51
 4413 0cff 05       		.uleb128 0x5
 4414 0d00 03       		.byte	0x3
 4415 0d01 00000000 		.4byte	.LC1
 4416 0d05 17       		.uleb128 0x17
 4417 0d06 01       		.uleb128 0x1
 4418 0d07 52       		.byte	0x52
 4419 0d08 05       		.uleb128 0x5
 4420 0d09 03       		.byte	0x3
 4421 0d0a 60000000 		.4byte	.LANCHOR0+96
 4422 0d0e 17       		.uleb128 0x17
 4423 0d0f 01       		.uleb128 0x1
 4424 0d10 53       		.byte	0x53
 4425 0d11 03       		.uleb128 0x3
 4426 0d12 0A       		.byte	0xa
 4427 0d13 6C01     		.2byte	0x16c
 4428 0d15 17       		.uleb128 0x17
 4429 0d16 02       		.uleb128 0x2
 4430 0d17 7D       		.byte	0x7d
 4431 0d18 00       		.sleb128 0
 4432 0d19 01       		.uleb128 0x1
 4433 0d1a 31       		.byte	0x31
 4434 0d1b 17       		.uleb128 0x17
 4435 0d1c 02       		.uleb128 0x2
 4436 0d1d 7D       		.byte	0x7d
 4437 0d1e 04       		.sleb128 4
 4438 0d1f 05       		.uleb128 0x5
 4439 0d20 03       		.byte	0x3
 4440 0d21 04010000 		.4byte	.LC28
 4441 0d25 00       		.byte	0
 4442 0d26 00       		.byte	0
 4443 0d27 26       		.uleb128 0x26
 4444 0d28 44000000 		.4byte	.LVL183
 4445 0d2c DA010000 		.4byte	0x1da
 4446 0d30 3B0D0000 		.4byte	0xd3b
 4447 0d34 17       		.uleb128 0x17
 4448 0d35 01       		.uleb128 0x1
 4449 0d36 50       		.byte	0x50
 4450 0d37 02       		.uleb128 0x2
ARM GAS  C:\Users\Phuong\AppData\Local\Temp\cczAMJrc.s 			page 96


 4451 0d38 74       		.byte	0x74
 4452 0d39 00       		.sleb128 0
 4453 0d3a 00       		.byte	0
 4454 0d3b 2D       		.uleb128 0x2d
 4455 0d3c 54000000 		.4byte	.LVL184
 4456 0d40 510D0000 		.4byte	0xd51
 4457 0d44 17       		.uleb128 0x17
 4458 0d45 01       		.uleb128 0x1
 4459 0d46 50       		.byte	0x50
 4460 0d47 02       		.uleb128 0x2
 4461 0d48 75       		.byte	0x75
 4462 0d49 00       		.sleb128 0
 4463 0d4a 17       		.uleb128 0x17
 4464 0d4b 01       		.uleb128 0x1
 4465 0d4c 51       		.byte	0x51
 4466 0d4d 02       		.uleb128 0x2
 4467 0d4e 76       		.byte	0x76
 4468 0d4f 00       		.sleb128 0
 4469 0d50 00       		.byte	0
 4470 0d51 16       		.uleb128 0x16
 4471 0d52 62000000 		.4byte	.LVL185
 4472 0d56 98060000 		.4byte	0x698
 4473 0d5a 17       		.uleb128 0x17
 4474 0d5b 01       		.uleb128 0x1
 4475 0d5c 50       		.byte	0x50
 4476 0d5d 02       		.uleb128 0x2
 4477 0d5e 74       		.byte	0x74
 4478 0d5f 00       		.sleb128 0
 4479 0d60 17       		.uleb128 0x17
 4480 0d61 01       		.uleb128 0x1
 4481 0d62 51       		.byte	0x51
 4482 0d63 02       		.uleb128 0x2
 4483 0d64 75       		.byte	0x75
 4484 0d65 00       		.sleb128 0
 4485 0d66 17       		.uleb128 0x17
 4486 0d67 01       		.uleb128 0x1
 4487 0d68 52       		.byte	0x52
 4488 0d69 02       		.uleb128 0x2
 4489 0d6a 76       		.byte	0x76
 4490 0d6b 00       		.sleb128 0
 4491 0d6c 00       		.byte	0
 4492 0d6d 00       		.byte	0
 4493 0d6e 00       		.byte	0
 4494 0d6f 21       		.uleb128 0x21
 4495 0d70 97000000 		.4byte	0x97
 4496 0d74 7F0D0000 		.4byte	0xd7f
 4497 0d78 22       		.uleb128 0x22
 4498 0d79 7D000000 		.4byte	0x7d
 4499 0d7d 07       		.byte	0x7
 4500 0d7e 00       		.byte	0
 4501 0d7f 06       		.uleb128 0x6
 4502 0d80 6F0D0000 		.4byte	0xd6f
 4503 0d84 2C       		.uleb128 0x2c
 4504 0d85 B0040000 		.4byte	.LASF58
 4505 0d89 01       		.byte	0x1
 4506 0d8a 7901     		.2byte	0x179
 4507 0d8c E7000000 		.4byte	0xe7
ARM GAS  C:\Users\Phuong\AppData\Local\Temp\cczAMJrc.s 			page 97


 4508 0d90 00000000 		.4byte	.LFB13
 4509 0d94 10010000 		.4byte	.LFE13-.LFB13
 4510 0d98 01       		.uleb128 0x1
 4511 0d99 9C       		.byte	0x9c
 4512 0d9a 2D100000 		.4byte	0x102d
 4513 0d9e 19       		.uleb128 0x19
 4514 0d9f 7F050000 		.4byte	.LASF55
 4515 0da3 01       		.byte	0x1
 4516 0da4 7901     		.2byte	0x179
 4517 0da6 F2000000 		.4byte	0xf2
 4518 0daa C10A0000 		.4byte	.LLST53
 4519 0dae 24       		.uleb128 0x24
 4520 0daf 6B657900 		.ascii	"key\000"
 4521 0db3 01       		.byte	0x1
 4522 0db4 7901     		.2byte	0x179
 4523 0db6 91000000 		.4byte	0x91
 4524 0dba 5C0B0000 		.4byte	.LLST54
 4525 0dbe 19       		.uleb128 0x19
 4526 0dbf 74010000 		.4byte	.LASF39
 4527 0dc3 01       		.byte	0x1
 4528 0dc4 7901     		.2byte	0x179
 4529 0dc6 91000000 		.4byte	0x91
 4530 0dca B70B0000 		.4byte	.LLST55
 4531 0dce 1A       		.uleb128 0x1a
 4532 0dcf EF050000 		.4byte	.LASF36
 4533 0dd3 01       		.byte	0x1
 4534 0dd4 7B01     		.2byte	0x17b
 4535 0dd6 E7000000 		.4byte	0xe7
 4536 0dda F90B0000 		.4byte	.LLST56
 4537 0dde 1E       		.uleb128 0x1e
 4538 0ddf E3030000 		.4byte	.LASF46
 4539 0de3 3D100000 		.4byte	0x103d
 4540 0de7 05       		.uleb128 0x5
 4541 0de8 03       		.byte	0x3
 4542 0de9 68000000 		.4byte	__func__.6130
 4543 0ded 1B       		.uleb128 0x1b
 4544 0dee 16000000 		.4byte	.LBB33
 4545 0df2 26000000 		.4byte	.LBE33-.LBB33
 4546 0df6 5C0E0000 		.4byte	0xe5c
 4547 0dfa 15       		.uleb128 0x15
 4548 0dfb 6C00     		.ascii	"l\000"
 4549 0dfd 01       		.byte	0x1
 4550 0dfe 8601     		.2byte	0x186
 4551 0e00 93010000 		.4byte	0x193
 4552 0e04 540C0000 		.4byte	.LLST57
 4553 0e08 1D       		.uleb128 0x1d
 4554 0e09 1A000000 		.4byte	.LVL201
 4555 0e0d C11A0000 		.4byte	0x1ac1
 4556 0e11 26       		.uleb128 0x26
 4557 0e12 24000000 		.4byte	.LVL204
 4558 0e16 36080000 		.4byte	0x836
 4559 0e1a 240E0000 		.4byte	0xe24
 4560 0e1e 17       		.uleb128 0x17
 4561 0e1f 01       		.uleb128 0x1
 4562 0e20 50       		.byte	0x50
 4563 0e21 01       		.uleb128 0x1
 4564 0e22 32       		.byte	0x32
ARM GAS  C:\Users\Phuong\AppData\Local\Temp\cczAMJrc.s 			page 98


 4565 0e23 00       		.byte	0
 4566 0e24 1F       		.uleb128 0x1f
 4567 0e25 3C000000 		.4byte	.LVL205
 4568 0e29 02       		.uleb128 0x2
 4569 0e2a 74       		.byte	0x74
 4570 0e2b 00       		.sleb128 0
 4571 0e2c 17       		.uleb128 0x17
 4572 0e2d 01       		.uleb128 0x1
 4573 0e2e 50       		.byte	0x50
 4574 0e2f 01       		.uleb128 0x1
 4575 0e30 30       		.byte	0x30
 4576 0e31 17       		.uleb128 0x17
 4577 0e32 01       		.uleb128 0x1
 4578 0e33 51       		.byte	0x51
 4579 0e34 05       		.uleb128 0x5
 4580 0e35 03       		.byte	0x3
 4581 0e36 00000000 		.4byte	.LC1
 4582 0e3a 17       		.uleb128 0x17
 4583 0e3b 01       		.uleb128 0x1
 4584 0e3c 52       		.byte	0x52
 4585 0e3d 05       		.uleb128 0x5
 4586 0e3e 03       		.byte	0x3
 4587 0e3f 68000000 		.4byte	.LANCHOR0+104
 4588 0e43 17       		.uleb128 0x17
 4589 0e44 01       		.uleb128 0x1
 4590 0e45 53       		.byte	0x53
 4591 0e46 03       		.uleb128 0x3
 4592 0e47 0A       		.byte	0xa
 4593 0e48 8601     		.2byte	0x186
 4594 0e4a 17       		.uleb128 0x17
 4595 0e4b 02       		.uleb128 0x2
 4596 0e4c 7D       		.byte	0x7d
 4597 0e4d 00       		.sleb128 0
 4598 0e4e 01       		.uleb128 0x1
 4599 0e4f 31       		.byte	0x31
 4600 0e50 17       		.uleb128 0x17
 4601 0e51 02       		.uleb128 0x2
 4602 0e52 7D       		.byte	0x7d
 4603 0e53 04       		.sleb128 4
 4604 0e54 05       		.uleb128 0x5
 4605 0e55 03       		.byte	0x3
 4606 0e56 04010000 		.4byte	.LC28
 4607 0e5a 00       		.byte	0
 4608 0e5b 00       		.byte	0
 4609 0e5c 2A       		.uleb128 0x2a
 4610 0e5d 90000000 		.4byte	.Ldebug_ranges0+0x90
 4611 0e61 1A       		.uleb128 0x1a
 4612 0e62 86050000 		.4byte	.LASF35
 4613 0e66 01       		.byte	0x1
 4614 0e67 8A01     		.2byte	0x18a
 4615 0e69 4A020000 		.4byte	0x24a
 4616 0e6d 880C0000 		.4byte	.LLST58
 4617 0e71 20       		.uleb128 0x20
 4618 0e72 A8000000 		.4byte	.Ldebug_ranges0+0xa8
 4619 0e76 19100000 		.4byte	0x1019
 4620 0e7a 1A       		.uleb128 0x1a
 4621 0e7b D1040000 		.4byte	.LASF59
ARM GAS  C:\Users\Phuong\AppData\Local\Temp\cczAMJrc.s 			page 99


 4622 0e7f 01       		.byte	0x1
 4623 0e80 9301     		.2byte	0x193
 4624 0e82 C9010000 		.4byte	0x1c9
 4625 0e86 F10C0000 		.4byte	.LLST59
 4626 0e8a 1B       		.uleb128 0x1b
 4627 0e8b 6A000000 		.4byte	.LBB36
 4628 0e8f 26000000 		.4byte	.LBE36-.LBB36
 4629 0e93 F90E0000 		.4byte	0xef9
 4630 0e97 15       		.uleb128 0x15
 4631 0e98 6C00     		.ascii	"l\000"
 4632 0e9a 01       		.byte	0x1
 4633 0e9b 9A01     		.2byte	0x19a
 4634 0e9d 93010000 		.4byte	0x193
 4635 0ea1 0F0D0000 		.4byte	.LLST60
 4636 0ea5 1D       		.uleb128 0x1d
 4637 0ea6 6E000000 		.4byte	.LVL214
 4638 0eaa C11A0000 		.4byte	0x1ac1
 4639 0eae 26       		.uleb128 0x26
 4640 0eaf 78000000 		.4byte	.LVL217
 4641 0eb3 36080000 		.4byte	0x836
 4642 0eb7 C10E0000 		.4byte	0xec1
 4643 0ebb 17       		.uleb128 0x17
 4644 0ebc 01       		.uleb128 0x1
 4645 0ebd 50       		.byte	0x50
 4646 0ebe 01       		.uleb128 0x1
 4647 0ebf 31       		.byte	0x31
 4648 0ec0 00       		.byte	0
 4649 0ec1 1F       		.uleb128 0x1f
 4650 0ec2 90000000 		.4byte	.LVL218
 4651 0ec6 02       		.uleb128 0x2
 4652 0ec7 74       		.byte	0x74
 4653 0ec8 00       		.sleb128 0
 4654 0ec9 17       		.uleb128 0x17
 4655 0eca 01       		.uleb128 0x1
 4656 0ecb 50       		.byte	0x50
 4657 0ecc 01       		.uleb128 0x1
 4658 0ecd 30       		.byte	0x30
 4659 0ece 17       		.uleb128 0x17
 4660 0ecf 01       		.uleb128 0x1
 4661 0ed0 51       		.byte	0x51
 4662 0ed1 05       		.uleb128 0x5
 4663 0ed2 03       		.byte	0x3
 4664 0ed3 00000000 		.4byte	.LC1
 4665 0ed7 17       		.uleb128 0x17
 4666 0ed8 01       		.uleb128 0x1
 4667 0ed9 52       		.byte	0x52
 4668 0eda 05       		.uleb128 0x5
 4669 0edb 03       		.byte	0x3
 4670 0edc 68000000 		.4byte	.LANCHOR0+104
 4671 0ee0 17       		.uleb128 0x17
 4672 0ee1 01       		.uleb128 0x1
 4673 0ee2 53       		.byte	0x53
 4674 0ee3 03       		.uleb128 0x3
 4675 0ee4 0A       		.byte	0xa
 4676 0ee5 9A01     		.2byte	0x19a
 4677 0ee7 17       		.uleb128 0x17
 4678 0ee8 02       		.uleb128 0x2
ARM GAS  C:\Users\Phuong\AppData\Local\Temp\cczAMJrc.s 			page 100


 4679 0ee9 7D       		.byte	0x7d
 4680 0eea 00       		.sleb128 0
 4681 0eeb 01       		.uleb128 0x1
 4682 0eec 31       		.byte	0x31
 4683 0eed 17       		.uleb128 0x17
 4684 0eee 02       		.uleb128 0x2
 4685 0eef 7D       		.byte	0x7d
 4686 0ef0 04       		.sleb128 4
 4687 0ef1 05       		.uleb128 0x5
 4688 0ef2 03       		.byte	0x3
 4689 0ef3 04010000 		.4byte	.LC28
 4690 0ef7 00       		.byte	0
 4691 0ef8 00       		.byte	0
 4692 0ef9 20       		.uleb128 0x20
 4693 0efa C0000000 		.4byte	.Ldebug_ranges0+0xc0
 4694 0efe E20F0000 		.4byte	0xfe2
 4695 0f02 1A       		.uleb128 0x1a
 4696 0f03 CB040000 		.4byte	.LASF60
 4697 0f07 01       		.byte	0x1
 4698 0f08 A401     		.2byte	0x1a4
 4699 0f0a 25000000 		.4byte	0x25
 4700 0f0e 430D0000 		.4byte	.LLST61
 4701 0f12 1A       		.uleb128 0x1a
 4702 0f13 60020000 		.4byte	.LASF61
 4703 0f17 01       		.byte	0x1
 4704 0f18 A501     		.2byte	0x1a5
 4705 0f1a 25000000 		.4byte	0x25
 4706 0f1e 690D0000 		.4byte	.LLST62
 4707 0f22 1A       		.uleb128 0x1a
 4708 0f23 B8030000 		.4byte	.LASF62
 4709 0f27 01       		.byte	0x1
 4710 0f28 A701     		.2byte	0x1a7
 4711 0f2a 84000000 		.4byte	0x84
 4712 0f2e A90D0000 		.4byte	.LLST63
 4713 0f32 1B       		.uleb128 0x1b
 4714 0f33 B2000000 		.4byte	.LBB38
 4715 0f37 26000000 		.4byte	.LBE38-.LBB38
 4716 0f3b A10F0000 		.4byte	0xfa1
 4717 0f3f 15       		.uleb128 0x15
 4718 0f40 6C00     		.ascii	"l\000"
 4719 0f42 01       		.byte	0x1
 4720 0f43 AB01     		.2byte	0x1ab
 4721 0f45 93010000 		.4byte	0x193
 4722 0f49 E80D0000 		.4byte	.LLST64
 4723 0f4d 1D       		.uleb128 0x1d
 4724 0f4e B6000000 		.4byte	.LVL227
 4725 0f52 C11A0000 		.4byte	0x1ac1
 4726 0f56 26       		.uleb128 0x26
 4727 0f57 C0000000 		.4byte	.LVL230
 4728 0f5b 36080000 		.4byte	0x836
 4729 0f5f 690F0000 		.4byte	0xf69
 4730 0f63 17       		.uleb128 0x17
 4731 0f64 01       		.uleb128 0x1
 4732 0f65 50       		.byte	0x50
 4733 0f66 01       		.uleb128 0x1
 4734 0f67 31       		.byte	0x31
 4735 0f68 00       		.byte	0
ARM GAS  C:\Users\Phuong\AppData\Local\Temp\cczAMJrc.s 			page 101


 4736 0f69 1F       		.uleb128 0x1f
 4737 0f6a D8000000 		.4byte	.LVL231
 4738 0f6e 02       		.uleb128 0x2
 4739 0f6f 74       		.byte	0x74
 4740 0f70 00       		.sleb128 0
 4741 0f71 17       		.uleb128 0x17
 4742 0f72 01       		.uleb128 0x1
 4743 0f73 50       		.byte	0x50
 4744 0f74 01       		.uleb128 0x1
 4745 0f75 30       		.byte	0x30
 4746 0f76 17       		.uleb128 0x17
 4747 0f77 01       		.uleb128 0x1
 4748 0f78 51       		.byte	0x51
 4749 0f79 05       		.uleb128 0x5
 4750 0f7a 03       		.byte	0x3
 4751 0f7b 00000000 		.4byte	.LC1
 4752 0f7f 17       		.uleb128 0x17
 4753 0f80 01       		.uleb128 0x1
 4754 0f81 52       		.byte	0x52
 4755 0f82 05       		.uleb128 0x5
 4756 0f83 03       		.byte	0x3
 4757 0f84 68000000 		.4byte	.LANCHOR0+104
 4758 0f88 17       		.uleb128 0x17
 4759 0f89 01       		.uleb128 0x1
 4760 0f8a 53       		.byte	0x53
 4761 0f8b 03       		.uleb128 0x3
 4762 0f8c 0A       		.byte	0xa
 4763 0f8d AB01     		.2byte	0x1ab
 4764 0f8f 17       		.uleb128 0x17
 4765 0f90 02       		.uleb128 0x2
 4766 0f91 7D       		.byte	0x7d
 4767 0f92 00       		.sleb128 0
 4768 0f93 01       		.uleb128 0x1
 4769 0f94 31       		.byte	0x31
 4770 0f95 17       		.uleb128 0x17
 4771 0f96 02       		.uleb128 0x2
 4772 0f97 7D       		.byte	0x7d
 4773 0f98 04       		.sleb128 4
 4774 0f99 05       		.uleb128 0x5
 4775 0f9a 03       		.byte	0x3
 4776 0f9b 04010000 		.4byte	.LC28
 4777 0f9f 00       		.byte	0
 4778 0fa0 00       		.byte	0
 4779 0fa1 26       		.uleb128 0x26
 4780 0fa2 9E000000 		.4byte	.LVL222
 4781 0fa6 D71A0000 		.4byte	0x1ad7
 4782 0faa B50F0000 		.4byte	0xfb5
 4783 0fae 17       		.uleb128 0x17
 4784 0faf 01       		.uleb128 0x1
 4785 0fb0 50       		.byte	0x50
 4786 0fb1 02       		.uleb128 0x2
 4787 0fb2 75       		.byte	0x75
 4788 0fb3 00       		.sleb128 0
 4789 0fb4 00       		.byte	0
 4790 0fb5 26       		.uleb128 0x26
 4791 0fb6 AE000000 		.4byte	.LVL224
 4792 0fba CC1A0000 		.4byte	0x1acc
ARM GAS  C:\Users\Phuong\AppData\Local\Temp\cczAMJrc.s 			page 102


 4793 0fbe CA0F0000 		.4byte	0xfca
 4794 0fc2 17       		.uleb128 0x17
 4795 0fc3 01       		.uleb128 0x1
 4796 0fc4 51       		.byte	0x51
 4797 0fc5 03       		.uleb128 0x3
 4798 0fc6 91       		.byte	0x91
 4799 0fc7 64       		.sleb128 -28
 4800 0fc8 06       		.byte	0x6
 4801 0fc9 00       		.byte	0
 4802 0fca 16       		.uleb128 0x16
 4803 0fcb E4000000 		.4byte	.LVL233
 4804 0fcf E21A0000 		.4byte	0x1ae2
 4805 0fd3 17       		.uleb128 0x17
 4806 0fd4 01       		.uleb128 0x1
 4807 0fd5 51       		.byte	0x51
 4808 0fd6 02       		.uleb128 0x2
 4809 0fd7 75       		.byte	0x75
 4810 0fd8 00       		.sleb128 0
 4811 0fd9 17       		.uleb128 0x17
 4812 0fda 01       		.uleb128 0x1
 4813 0fdb 52       		.byte	0x52
 4814 0fdc 03       		.uleb128 0x3
 4815 0fdd 91       		.byte	0x91
 4816 0fde 64       		.sleb128 -28
 4817 0fdf 06       		.byte	0x6
 4818 0fe0 00       		.byte	0
 4819 0fe1 00       		.byte	0
 4820 0fe2 26       		.uleb128 0x26
 4821 0fe3 58000000 		.4byte	.LVL210
 4822 0fe7 DA010000 		.4byte	0x1da
 4823 0feb FC0F0000 		.4byte	0xffc
 4824 0fef 17       		.uleb128 0x17
 4825 0ff0 01       		.uleb128 0x1
 4826 0ff1 50       		.byte	0x50
 4827 0ff2 02       		.uleb128 0x2
 4828 0ff3 74       		.byte	0x74
 4829 0ff4 00       		.sleb128 0
 4830 0ff5 17       		.uleb128 0x17
 4831 0ff6 01       		.uleb128 0x1
 4832 0ff7 51       		.byte	0x51
 4833 0ff8 02       		.uleb128 0x2
 4834 0ff9 76       		.byte	0x76
 4835 0ffa 00       		.sleb128 0
 4836 0ffb 00       		.byte	0
 4837 0ffc 16       		.uleb128 0x16
 4838 0ffd 66000000 		.4byte	.LVL212
 4839 1001 98060000 		.4byte	0x698
 4840 1005 17       		.uleb128 0x17
 4841 1006 01       		.uleb128 0x1
 4842 1007 50       		.byte	0x50
 4843 1008 02       		.uleb128 0x2
 4844 1009 74       		.byte	0x74
 4845 100a 00       		.sleb128 0
 4846 100b 17       		.uleb128 0x17
 4847 100c 01       		.uleb128 0x1
 4848 100d 51       		.byte	0x51
 4849 100e 02       		.uleb128 0x2
ARM GAS  C:\Users\Phuong\AppData\Local\Temp\cczAMJrc.s 			page 103


 4850 100f 76       		.byte	0x76
 4851 1010 00       		.sleb128 0
 4852 1011 17       		.uleb128 0x17
 4853 1012 01       		.uleb128 0x1
 4854 1013 52       		.byte	0x52
 4855 1014 02       		.uleb128 0x2
 4856 1015 75       		.byte	0x75
 4857 1016 00       		.sleb128 0
 4858 1017 00       		.byte	0
 4859 1018 00       		.byte	0
 4860 1019 2E       		.uleb128 0x2e
 4861 101a 4C000000 		.4byte	.LVL209
 4862 101e 17       		.uleb128 0x17
 4863 101f 01       		.uleb128 0x1
 4864 1020 50       		.byte	0x50
 4865 1021 02       		.uleb128 0x2
 4866 1022 76       		.byte	0x76
 4867 1023 00       		.sleb128 0
 4868 1024 17       		.uleb128 0x17
 4869 1025 01       		.uleb128 0x1
 4870 1026 51       		.byte	0x51
 4871 1027 02       		.uleb128 0x2
 4872 1028 75       		.byte	0x75
 4873 1029 00       		.sleb128 0
 4874 102a 00       		.byte	0
 4875 102b 00       		.byte	0
 4876 102c 00       		.byte	0
 4877 102d 21       		.uleb128 0x21
 4878 102e 97000000 		.4byte	0x97
 4879 1032 3D100000 		.4byte	0x103d
 4880 1036 22       		.uleb128 0x22
 4881 1037 7D000000 		.4byte	0x7d
 4882 103b 0F       		.byte	0xf
 4883 103c 00       		.byte	0
 4884 103d 06       		.uleb128 0x6
 4885 103e 2D100000 		.4byte	0x102d
 4886 1042 2C       		.uleb128 0x2c
 4887 1043 99030000 		.4byte	.LASF63
 4888 1047 01       		.byte	0x1
 4889 1048 BA01     		.2byte	0x1ba
 4890 104a E7000000 		.4byte	0xe7
 4891 104e 00000000 		.4byte	.LFB14
 4892 1052 A8000000 		.4byte	.LFE14-.LFB14
 4893 1056 01       		.uleb128 0x1
 4894 1057 9C       		.byte	0x9c
 4895 1058 93110000 		.4byte	0x1193
 4896 105c 19       		.uleb128 0x19
 4897 105d 7F050000 		.4byte	.LASF55
 4898 1061 01       		.byte	0x1
 4899 1062 BA01     		.2byte	0x1ba
 4900 1064 F2000000 		.4byte	0xf2
 4901 1068 110E0000 		.4byte	.LLST65
 4902 106c 24       		.uleb128 0x24
 4903 106d 6B657900 		.ascii	"key\000"
 4904 1071 01       		.byte	0x1
 4905 1072 BA01     		.2byte	0x1ba
 4906 1074 91000000 		.4byte	0x91
ARM GAS  C:\Users\Phuong\AppData\Local\Temp\cczAMJrc.s 			page 104


 4907 1078 7A0E0000 		.4byte	.LLST66
 4908 107c 1A       		.uleb128 0x1a
 4909 107d EF050000 		.4byte	.LASF36
 4910 1081 01       		.byte	0x1
 4911 1082 BC01     		.2byte	0x1bc
 4912 1084 E7000000 		.4byte	0xe7
 4913 1088 B40E0000 		.4byte	.LLST67
 4914 108c 1E       		.uleb128 0x1e
 4915 108d E3030000 		.4byte	.LASF46
 4916 1091 A3110000 		.4byte	0x11a3
 4917 1095 05       		.uleb128 0x5
 4918 1096 03       		.byte	0x3
 4919 1097 78000000 		.4byte	__func__.6150
 4920 109b 1B       		.uleb128 0x1b
 4921 109c 0C000000 		.4byte	.LBB42
 4922 10a0 26000000 		.4byte	.LBE42-.LBB42
 4923 10a4 0A110000 		.4byte	0x110a
 4924 10a8 15       		.uleb128 0x15
 4925 10a9 6C00     		.ascii	"l\000"
 4926 10ab 01       		.byte	0x1
 4927 10ac C501     		.2byte	0x1c5
 4928 10ae 93010000 		.4byte	0x193
 4929 10b2 EB0E0000 		.4byte	.LLST68
 4930 10b6 1D       		.uleb128 0x1d
 4931 10b7 10000000 		.4byte	.LVL245
 4932 10bb C11A0000 		.4byte	0x1ac1
 4933 10bf 26       		.uleb128 0x26
 4934 10c0 1A000000 		.4byte	.LVL248
 4935 10c4 36080000 		.4byte	0x836
 4936 10c8 D2100000 		.4byte	0x10d2
 4937 10cc 17       		.uleb128 0x17
 4938 10cd 01       		.uleb128 0x1
 4939 10ce 50       		.byte	0x50
 4940 10cf 01       		.uleb128 0x1
 4941 10d0 32       		.byte	0x32
 4942 10d1 00       		.byte	0
 4943 10d2 1F       		.uleb128 0x1f
 4944 10d3 32000000 		.4byte	.LVL249
 4945 10d7 02       		.uleb128 0x2
 4946 10d8 74       		.byte	0x74
 4947 10d9 00       		.sleb128 0
 4948 10da 17       		.uleb128 0x17
 4949 10db 01       		.uleb128 0x1
 4950 10dc 50       		.byte	0x50
 4951 10dd 01       		.uleb128 0x1
 4952 10de 30       		.byte	0x30
 4953 10df 17       		.uleb128 0x17
 4954 10e0 01       		.uleb128 0x1
 4955 10e1 51       		.byte	0x51
 4956 10e2 05       		.uleb128 0x5
 4957 10e3 03       		.byte	0x3
 4958 10e4 00000000 		.4byte	.LC1
 4959 10e8 17       		.uleb128 0x17
 4960 10e9 01       		.uleb128 0x1
 4961 10ea 52       		.byte	0x52
 4962 10eb 05       		.uleb128 0x5
 4963 10ec 03       		.byte	0x3
ARM GAS  C:\Users\Phuong\AppData\Local\Temp\cczAMJrc.s 			page 105


 4964 10ed 78000000 		.4byte	.LANCHOR0+120
 4965 10f1 17       		.uleb128 0x17
 4966 10f2 01       		.uleb128 0x1
 4967 10f3 53       		.byte	0x53
 4968 10f4 03       		.uleb128 0x3
 4969 10f5 0A       		.byte	0xa
 4970 10f6 C501     		.2byte	0x1c5
 4971 10f8 17       		.uleb128 0x17
 4972 10f9 02       		.uleb128 0x2
 4973 10fa 7D       		.byte	0x7d
 4974 10fb 00       		.sleb128 0
 4975 10fc 01       		.uleb128 0x1
 4976 10fd 31       		.byte	0x31
 4977 10fe 17       		.uleb128 0x17
 4978 10ff 02       		.uleb128 0x2
 4979 1100 7D       		.byte	0x7d
 4980 1101 04       		.sleb128 4
 4981 1102 05       		.uleb128 0x5
 4982 1103 03       		.byte	0x3
 4983 1104 04010000 		.4byte	.LC28
 4984 1108 00       		.byte	0
 4985 1109 00       		.byte	0
 4986 110a 2A       		.uleb128 0x2a
 4987 110b D8000000 		.4byte	.Ldebug_ranges0+0xd8
 4988 110f 1A       		.uleb128 0x1a
 4989 1110 86050000 		.4byte	.LASF35
 4990 1114 01       		.byte	0x1
 4991 1115 C901     		.2byte	0x1c9
 4992 1117 4A020000 		.4byte	0x24a
 4993 111b 1F0F0000 		.4byte	.LLST69
 4994 111f 1A       		.uleb128 0x1a
 4995 1120 D1040000 		.4byte	.LASF59
 4996 1124 01       		.byte	0x1
 4997 1125 CA01     		.2byte	0x1ca
 4998 1127 C9010000 		.4byte	0x1c9
 4999 112b 480F0000 		.4byte	.LLST70
 5000 112f 1B       		.uleb128 0x1b
 5001 1130 3E000000 		.4byte	.LBB44
 5002 1134 4E000000 		.4byte	.LBE44-.LBB44
 5003 1138 81110000 		.4byte	0x1181
 5004 113c 1A       		.uleb128 0x1a
 5005 113d CB040000 		.4byte	.LASF60
 5006 1141 01       		.byte	0x1
 5007 1142 D301     		.2byte	0x1d3
 5008 1144 25000000 		.4byte	0x25
 5009 1148 660F0000 		.4byte	.LLST71
 5010 114c 1D       		.uleb128 0x1d
 5011 114d 4A000000 		.4byte	.LVL254
 5012 1151 A01A0000 		.4byte	0x1aa0
 5013 1155 1D       		.uleb128 0x1d
 5014 1156 52000000 		.4byte	.LVL255
 5015 115a A01A0000 		.4byte	0x1aa0
 5016 115e 1D       		.uleb128 0x1d
 5017 115f 6C000000 		.4byte	.LVL256
 5018 1163 EB1A0000 		.4byte	0x1aeb
 5019 1167 1D       		.uleb128 0x1d
 5020 1168 82000000 		.4byte	.LVL257
ARM GAS  C:\Users\Phuong\AppData\Local\Temp\cczAMJrc.s 			page 106


 5021 116c EB1A0000 		.4byte	0x1aeb
 5022 1170 16       		.uleb128 0x16
 5023 1171 88000000 		.4byte	.LVL258
 5024 1175 5B050000 		.4byte	0x55b
 5025 1179 17       		.uleb128 0x17
 5026 117a 01       		.uleb128 0x1
 5027 117b 50       		.byte	0x50
 5028 117c 02       		.uleb128 0x2
 5029 117d 74       		.byte	0x74
 5030 117e 00       		.sleb128 0
 5031 117f 00       		.byte	0
 5032 1180 00       		.byte	0
 5033 1181 16       		.uleb128 0x16
 5034 1182 3A000000 		.4byte	.LVL251
 5035 1186 DA010000 		.4byte	0x1da
 5036 118a 17       		.uleb128 0x17
 5037 118b 01       		.uleb128 0x1
 5038 118c 50       		.byte	0x50
 5039 118d 02       		.uleb128 0x2
 5040 118e 74       		.byte	0x74
 5041 118f 00       		.sleb128 0
 5042 1190 00       		.byte	0
 5043 1191 00       		.byte	0
 5044 1192 00       		.byte	0
 5045 1193 21       		.uleb128 0x21
 5046 1194 97000000 		.4byte	0x97
 5047 1198 A3110000 		.4byte	0x11a3
 5048 119c 22       		.uleb128 0x22
 5049 119d 7D000000 		.4byte	0x7d
 5050 11a1 0A       		.byte	0xa
 5051 11a2 00       		.byte	0
 5052 11a3 06       		.uleb128 0x6
 5053 11a4 93110000 		.4byte	0x1193
 5054 11a8 2C       		.uleb128 0x2c
 5055 11a9 88020000 		.4byte	.LASF64
 5056 11ad 01       		.byte	0x1
 5057 11ae E001     		.2byte	0x1e0
 5058 11b0 E7000000 		.4byte	0xe7
 5059 11b4 00000000 		.4byte	.LFB15
 5060 11b8 5C000000 		.4byte	.LFE15-.LFB15
 5061 11bc 01       		.uleb128 0x1
 5062 11bd 9C       		.byte	0x9c
 5063 11be AC120000 		.4byte	0x12ac
 5064 11c2 19       		.uleb128 0x19
 5065 11c3 7F050000 		.4byte	.LASF55
 5066 11c7 01       		.byte	0x1
 5067 11c8 E001     		.2byte	0x1e0
 5068 11ca F2000000 		.4byte	0xf2
 5069 11ce 790F0000 		.4byte	.LLST72
 5070 11d2 24       		.uleb128 0x24
 5071 11d3 6B657900 		.ascii	"key\000"
 5072 11d7 01       		.byte	0x1
 5073 11d8 E001     		.2byte	0x1e0
 5074 11da 91000000 		.4byte	0x91
 5075 11de B30F0000 		.4byte	.LLST73
 5076 11e2 19       		.uleb128 0x19
 5077 11e3 4E010000 		.4byte	.LASF65
ARM GAS  C:\Users\Phuong\AppData\Local\Temp\cczAMJrc.s 			page 107


 5078 11e7 01       		.byte	0x1
 5079 11e8 E001     		.2byte	0x1e0
 5080 11ea AC120000 		.4byte	0x12ac
 5081 11ee ED0F0000 		.4byte	.LLST74
 5082 11f2 1A       		.uleb128 0x1a
 5083 11f3 EF050000 		.4byte	.LASF36
 5084 11f7 01       		.byte	0x1
 5085 11f8 E201     		.2byte	0x1e2
 5086 11fa E7000000 		.4byte	0xe7
 5087 11fe 3D100000 		.4byte	.LLST75
 5088 1202 1E       		.uleb128 0x1e
 5089 1203 E3030000 		.4byte	.LASF46
 5090 1207 B9120000 		.4byte	0x12b9
 5091 120b 05       		.uleb128 0x5
 5092 120c 03       		.byte	0x3
 5093 120d 84000000 		.4byte	__func__.6163
 5094 1211 1B       		.uleb128 0x1b
 5095 1212 12000000 		.4byte	.LBB46
 5096 1216 26000000 		.4byte	.LBE46-.LBB46
 5097 121a 80120000 		.4byte	0x1280
 5098 121e 15       		.uleb128 0x15
 5099 121f 6C00     		.ascii	"l\000"
 5100 1221 01       		.byte	0x1
 5101 1222 EB01     		.2byte	0x1eb
 5102 1224 93010000 		.4byte	0x193
 5103 1228 74100000 		.4byte	.LLST76
 5104 122c 1D       		.uleb128 0x1d
 5105 122d 16000000 		.4byte	.LVL265
 5106 1231 C11A0000 		.4byte	0x1ac1
 5107 1235 26       		.uleb128 0x26
 5108 1236 20000000 		.4byte	.LVL268
 5109 123a 36080000 		.4byte	0x836
 5110 123e 48120000 		.4byte	0x1248
 5111 1242 17       		.uleb128 0x17
 5112 1243 01       		.uleb128 0x1
 5113 1244 50       		.byte	0x50
 5114 1245 01       		.uleb128 0x1
 5115 1246 32       		.byte	0x32
 5116 1247 00       		.byte	0
 5117 1248 1F       		.uleb128 0x1f
 5118 1249 38000000 		.4byte	.LVL269
 5119 124d 02       		.uleb128 0x2
 5120 124e 74       		.byte	0x74
 5121 124f 00       		.sleb128 0
 5122 1250 17       		.uleb128 0x17
 5123 1251 01       		.uleb128 0x1
 5124 1252 50       		.byte	0x50
 5125 1253 01       		.uleb128 0x1
 5126 1254 30       		.byte	0x30
 5127 1255 17       		.uleb128 0x17
 5128 1256 01       		.uleb128 0x1
 5129 1257 51       		.byte	0x51
 5130 1258 05       		.uleb128 0x5
 5131 1259 03       		.byte	0x3
 5132 125a 00000000 		.4byte	.LC1
 5133 125e 17       		.uleb128 0x17
 5134 125f 01       		.uleb128 0x1
ARM GAS  C:\Users\Phuong\AppData\Local\Temp\cczAMJrc.s 			page 108


 5135 1260 52       		.byte	0x52
 5136 1261 05       		.uleb128 0x5
 5137 1262 03       		.byte	0x3
 5138 1263 84000000 		.4byte	.LANCHOR2+4
 5139 1267 17       		.uleb128 0x17
 5140 1268 01       		.uleb128 0x1
 5141 1269 53       		.byte	0x53
 5142 126a 03       		.uleb128 0x3
 5143 126b 0A       		.byte	0xa
 5144 126c EB01     		.2byte	0x1eb
 5145 126e 17       		.uleb128 0x17
 5146 126f 02       		.uleb128 0x2
 5147 1270 7D       		.byte	0x7d
 5148 1271 00       		.sleb128 0
 5149 1272 01       		.uleb128 0x1
 5150 1273 31       		.byte	0x31
 5151 1274 17       		.uleb128 0x17
 5152 1275 02       		.uleb128 0x2
 5153 1276 7D       		.byte	0x7d
 5154 1277 04       		.sleb128 4
 5155 1278 05       		.uleb128 0x5
 5156 1279 03       		.byte	0x3
 5157 127a 04010000 		.4byte	.LC28
 5158 127e 00       		.byte	0
 5159 127f 00       		.byte	0
 5160 1280 14       		.uleb128 0x14
 5161 1281 3C000000 		.4byte	.LBB47
 5162 1285 0E000000 		.4byte	.LBE47-.LBB47
 5163 1289 1A       		.uleb128 0x1a
 5164 128a 86050000 		.4byte	.LASF35
 5165 128e 01       		.byte	0x1
 5166 128f EF01     		.2byte	0x1ef
 5167 1291 4A020000 		.4byte	0x24a
 5168 1295 9D100000 		.4byte	.LLST77
 5169 1299 16       		.uleb128 0x16
 5170 129a 40000000 		.4byte	.LVL271
 5171 129e DA010000 		.4byte	0x1da
 5172 12a2 17       		.uleb128 0x17
 5173 12a3 01       		.uleb128 0x1
 5174 12a4 50       		.byte	0x50
 5175 12a5 03       		.uleb128 0x3
 5176 12a6 F3       		.byte	0xf3
 5177 12a7 01       		.uleb128 0x1
 5178 12a8 50       		.byte	0x50
 5179 12a9 00       		.byte	0
 5180 12aa 00       		.byte	0
 5181 12ab 00       		.byte	0
 5182 12ac 05       		.uleb128 0x5
 5183 12ad 04       		.byte	0x4
 5184 12ae B2120000 		.4byte	0x12b2
 5185 12b2 03       		.uleb128 0x3
 5186 12b3 01       		.byte	0x1
 5187 12b4 02       		.byte	0x2
 5188 12b5 A4030000 		.4byte	.LASF66
 5189 12b9 06       		.uleb128 0x6
 5190 12ba 2D100000 		.4byte	0x102d
 5191 12be 2C       		.uleb128 0x2c
ARM GAS  C:\Users\Phuong\AppData\Local\Temp\cczAMJrc.s 			page 109


 5192 12bf 3D030000 		.4byte	.LASF67
 5193 12c3 01       		.byte	0x1
 5194 12c4 F801     		.2byte	0x1f8
 5195 12c6 E7000000 		.4byte	0xe7
 5196 12ca 00000000 		.4byte	.LFB16
 5197 12ce 60000000 		.4byte	.LFE16-.LFB16
 5198 12d2 01       		.uleb128 0x1
 5199 12d3 9C       		.byte	0x9c
 5200 12d4 C2130000 		.4byte	0x13c2
 5201 12d8 19       		.uleb128 0x19
 5202 12d9 7F050000 		.4byte	.LASF55
 5203 12dd 01       		.byte	0x1
 5204 12de F801     		.2byte	0x1f8
 5205 12e0 F2000000 		.4byte	0xf2
 5206 12e4 BE100000 		.4byte	.LLST78
 5207 12e8 19       		.uleb128 0x19
 5208 12e9 74010000 		.4byte	.LASF39
 5209 12ed 01       		.byte	0x1
 5210 12ee F801     		.2byte	0x1f8
 5211 12f0 91000000 		.4byte	0x91
 5212 12f4 F8100000 		.4byte	.LLST79
 5213 12f8 19       		.uleb128 0x19
 5214 12f9 3B020000 		.4byte	.LASF68
 5215 12fd 01       		.byte	0x1
 5216 12fe F801     		.2byte	0x1f8
 5217 1300 AC120000 		.4byte	0x12ac
 5218 1304 32110000 		.4byte	.LLST80
 5219 1308 1A       		.uleb128 0x1a
 5220 1309 EF050000 		.4byte	.LASF36
 5221 130d 01       		.byte	0x1
 5222 130e FA01     		.2byte	0x1fa
 5223 1310 E7000000 		.4byte	0xe7
 5224 1314 82110000 		.4byte	.LLST81
 5225 1318 1E       		.uleb128 0x1e
 5226 1319 E3030000 		.4byte	.LASF46
 5227 131d C2130000 		.4byte	0x13c2
 5228 1321 05       		.uleb128 0x5
 5229 1322 03       		.byte	0x3
 5230 1323 94000000 		.4byte	__func__.6174
 5231 1327 1B       		.uleb128 0x1b
 5232 1328 12000000 		.4byte	.LBB48
 5233 132c 24000000 		.4byte	.LBE48-.LBB48
 5234 1330 96130000 		.4byte	0x1396
 5235 1334 15       		.uleb128 0x15
 5236 1335 6C00     		.ascii	"l\000"
 5237 1337 01       		.byte	0x1
 5238 1338 0302     		.2byte	0x203
 5239 133a 93010000 		.4byte	0x193
 5240 133e B9110000 		.4byte	.LLST82
 5241 1342 1D       		.uleb128 0x1d
 5242 1343 16000000 		.4byte	.LVL277
 5243 1347 C11A0000 		.4byte	0x1ac1
 5244 134b 26       		.uleb128 0x26
 5245 134c 20000000 		.4byte	.LVL280
 5246 1350 36080000 		.4byte	0x836
 5247 1354 5E130000 		.4byte	0x135e
 5248 1358 17       		.uleb128 0x17
ARM GAS  C:\Users\Phuong\AppData\Local\Temp\cczAMJrc.s 			page 110


 5249 1359 01       		.uleb128 0x1
 5250 135a 50       		.byte	0x50
 5251 135b 01       		.uleb128 0x1
 5252 135c 32       		.byte	0x32
 5253 135d 00       		.byte	0
 5254 135e 1F       		.uleb128 0x1f
 5255 135f 36000000 		.4byte	.LVL281
 5256 1363 02       		.uleb128 0x2
 5257 1364 74       		.byte	0x74
 5258 1365 00       		.sleb128 0
 5259 1366 17       		.uleb128 0x17
 5260 1367 01       		.uleb128 0x1
 5261 1368 50       		.byte	0x50
 5262 1369 01       		.uleb128 0x1
 5263 136a 30       		.byte	0x30
 5264 136b 17       		.uleb128 0x17
 5265 136c 01       		.uleb128 0x1
 5266 136d 51       		.byte	0x51
 5267 136e 05       		.uleb128 0x5
 5268 136f 03       		.byte	0x3
 5269 1370 00000000 		.4byte	.LC1
 5270 1374 17       		.uleb128 0x17
 5271 1375 01       		.uleb128 0x1
 5272 1376 52       		.byte	0x52
 5273 1377 05       		.uleb128 0x5
 5274 1378 03       		.byte	0x3
 5275 1379 94000000 		.4byte	.LANCHOR2+20
 5276 137d 17       		.uleb128 0x17
 5277 137e 01       		.uleb128 0x1
 5278 137f 53       		.byte	0x53
 5279 1380 03       		.uleb128 0x3
 5280 1381 0A       		.byte	0xa
 5281 1382 0302     		.2byte	0x203
 5282 1384 17       		.uleb128 0x17
 5283 1385 02       		.uleb128 0x2
 5284 1386 7D       		.byte	0x7d
 5285 1387 00       		.sleb128 0
 5286 1388 01       		.uleb128 0x1
 5287 1389 31       		.byte	0x31
 5288 138a 17       		.uleb128 0x17
 5289 138b 02       		.uleb128 0x2
 5290 138c 7D       		.byte	0x7d
 5291 138d 04       		.sleb128 4
 5292 138e 05       		.uleb128 0x5
 5293 138f 03       		.byte	0x3
 5294 1390 04010000 		.4byte	.LC28
 5295 1394 00       		.byte	0
 5296 1395 00       		.byte	0
 5297 1396 14       		.uleb128 0x14
 5298 1397 3A000000 		.4byte	.LBB49
 5299 139b 0E000000 		.4byte	.LBE49-.LBB49
 5300 139f 1A       		.uleb128 0x1a
 5301 13a0 86050000 		.4byte	.LASF35
 5302 13a4 01       		.byte	0x1
 5303 13a5 0702     		.2byte	0x207
 5304 13a7 4A020000 		.4byte	0x24a
 5305 13ab E2110000 		.4byte	.LLST83
ARM GAS  C:\Users\Phuong\AppData\Local\Temp\cczAMJrc.s 			page 111


 5306 13af 16       		.uleb128 0x16
 5307 13b0 3E000000 		.4byte	.LVL283
 5308 13b4 50020000 		.4byte	0x250
 5309 13b8 17       		.uleb128 0x17
 5310 13b9 01       		.uleb128 0x1
 5311 13ba 50       		.byte	0x50
 5312 13bb 03       		.uleb128 0x3
 5313 13bc F3       		.byte	0xf3
 5314 13bd 01       		.uleb128 0x1
 5315 13be 50       		.byte	0x50
 5316 13bf 00       		.byte	0
 5317 13c0 00       		.byte	0
 5318 13c1 00       		.byte	0
 5319 13c2 06       		.uleb128 0x6
 5320 13c3 21080000 		.4byte	0x821
 5321 13c7 2C       		.uleb128 0x2c
 5322 13c8 59050000 		.4byte	.LASF69
 5323 13cc 01       		.byte	0x1
 5324 13cd 1002     		.2byte	0x210
 5325 13cf 91000000 		.4byte	0x91
 5326 13d3 00000000 		.4byte	.LFB17
 5327 13d7 58000000 		.4byte	.LFE17-.LFB17
 5328 13db 01       		.uleb128 0x1
 5329 13dc 9C       		.byte	0x9c
 5330 13dd D1140000 		.4byte	0x14d1
 5331 13e1 19       		.uleb128 0x19
 5332 13e2 7F050000 		.4byte	.LASF55
 5333 13e6 01       		.byte	0x1
 5334 13e7 1002     		.2byte	0x210
 5335 13e9 F2000000 		.4byte	0xf2
 5336 13ed 03120000 		.4byte	.LLST84
 5337 13f1 24       		.uleb128 0x24
 5338 13f2 6B657900 		.ascii	"key\000"
 5339 13f6 01       		.byte	0x1
 5340 13f7 1002     		.2byte	0x210
 5341 13f9 91000000 		.4byte	0x91
 5342 13fd 6C120000 		.4byte	.LLST85
 5343 1401 1A       		.uleb128 0x1a
 5344 1402 EF050000 		.4byte	.LASF36
 5345 1406 01       		.byte	0x1
 5346 1407 1202     		.2byte	0x212
 5347 1409 91000000 		.4byte	0x91
 5348 140d A6120000 		.4byte	.LLST86
 5349 1411 1E       		.uleb128 0x1e
 5350 1412 E3030000 		.4byte	.LASF46
 5351 1416 E1140000 		.4byte	0x14e1
 5352 141a 05       		.uleb128 0x5
 5353 141b 03       		.byte	0x3
 5354 141c A8000000 		.4byte	__func__.6184
 5355 1420 1B       		.uleb128 0x1b
 5356 1421 0C000000 		.4byte	.LBB50
 5357 1425 1C000000 		.4byte	.LBE50-.LBB50
 5358 1429 7C140000 		.4byte	0x147c
 5359 142d 15       		.uleb128 0x15
 5360 142e 6C00     		.ascii	"l\000"
 5361 1430 01       		.byte	0x1
 5362 1431 1A02     		.2byte	0x21a
ARM GAS  C:\Users\Phuong\AppData\Local\Temp\cczAMJrc.s 			page 112


 5363 1433 93010000 		.4byte	0x193
 5364 1437 DC120000 		.4byte	.LLST87
 5365 143b 1D       		.uleb128 0x1d
 5366 143c 10000000 		.4byte	.LVL289
 5367 1440 C11A0000 		.4byte	0x1ac1
 5368 1444 1F       		.uleb128 0x1f
 5369 1445 28000000 		.4byte	.LVL292
 5370 1449 02       		.uleb128 0x2
 5371 144a 74       		.byte	0x74
 5372 144b 00       		.sleb128 0
 5373 144c 17       		.uleb128 0x17
 5374 144d 01       		.uleb128 0x1
 5375 144e 50       		.byte	0x50
 5376 144f 01       		.uleb128 0x1
 5377 1450 30       		.byte	0x30
 5378 1451 17       		.uleb128 0x17
 5379 1452 01       		.uleb128 0x1
 5380 1453 51       		.byte	0x51
 5381 1454 05       		.uleb128 0x5
 5382 1455 03       		.byte	0x3
 5383 1456 00000000 		.4byte	.LC1
 5384 145a 17       		.uleb128 0x17
 5385 145b 01       		.uleb128 0x1
 5386 145c 52       		.byte	0x52
 5387 145d 05       		.uleb128 0x5
 5388 145e 03       		.byte	0x3
 5389 145f A8000000 		.4byte	.LANCHOR2+40
 5390 1463 17       		.uleb128 0x17
 5391 1464 01       		.uleb128 0x1
 5392 1465 53       		.byte	0x53
 5393 1466 03       		.uleb128 0x3
 5394 1467 0A       		.byte	0xa
 5395 1468 1A02     		.2byte	0x21a
 5396 146a 17       		.uleb128 0x17
 5397 146b 02       		.uleb128 0x2
 5398 146c 7D       		.byte	0x7d
 5399 146d 00       		.sleb128 0
 5400 146e 01       		.uleb128 0x1
 5401 146f 31       		.byte	0x31
 5402 1470 17       		.uleb128 0x17
 5403 1471 02       		.uleb128 0x2
 5404 1472 7D       		.byte	0x7d
 5405 1473 04       		.sleb128 4
 5406 1474 05       		.uleb128 0x5
 5407 1475 03       		.byte	0x3
 5408 1476 10010000 		.4byte	.LC44
 5409 147a 00       		.byte	0
 5410 147b 00       		.byte	0
 5411 147c 2A       		.uleb128 0x2a
 5412 147d F0000000 		.4byte	.Ldebug_ranges0+0xf0
 5413 1481 1A       		.uleb128 0x1a
 5414 1482 86050000 		.4byte	.LASF35
 5415 1486 01       		.byte	0x1
 5416 1487 1E02     		.2byte	0x21e
 5417 1489 4A020000 		.4byte	0x24a
 5418 148d 10130000 		.4byte	.LLST88
 5419 1491 1A       		.uleb128 0x1a
ARM GAS  C:\Users\Phuong\AppData\Local\Temp\cczAMJrc.s 			page 113


 5420 1492 D1040000 		.4byte	.LASF59
 5421 1496 01       		.byte	0x1
 5422 1497 1F02     		.2byte	0x21f
 5423 1499 C9010000 		.4byte	0x1c9
 5424 149d 39130000 		.4byte	.LLST89
 5425 14a1 1B       		.uleb128 0x1b
 5426 14a2 34000000 		.4byte	.LBB52
 5427 14a6 0A000000 		.4byte	.LBE52-.LBB52
 5428 14aa BF140000 		.4byte	0x14bf
 5429 14ae 1A       		.uleb128 0x1a
 5430 14af CB040000 		.4byte	.LASF60
 5431 14b3 01       		.byte	0x1
 5432 14b4 2802     		.2byte	0x228
 5433 14b6 25000000 		.4byte	0x25
 5434 14ba 57130000 		.4byte	.LLST90
 5435 14be 00       		.byte	0
 5436 14bf 16       		.uleb128 0x16
 5437 14c0 30000000 		.4byte	.LVL294
 5438 14c4 DA010000 		.4byte	0x1da
 5439 14c8 17       		.uleb128 0x17
 5440 14c9 01       		.uleb128 0x1
 5441 14ca 50       		.byte	0x50
 5442 14cb 02       		.uleb128 0x2
 5443 14cc 74       		.byte	0x74
 5444 14cd 00       		.sleb128 0
 5445 14ce 00       		.byte	0
 5446 14cf 00       		.byte	0
 5447 14d0 00       		.byte	0
 5448 14d1 21       		.uleb128 0x21
 5449 14d2 97000000 		.4byte	0x97
 5450 14d6 E1140000 		.4byte	0x14e1
 5451 14da 22       		.uleb128 0x22
 5452 14db 7D000000 		.4byte	0x7d
 5453 14df 13       		.byte	0x13
 5454 14e0 00       		.byte	0
 5455 14e1 06       		.uleb128 0x6
 5456 14e2 D1140000 		.4byte	0x14d1
 5457 14e6 2C       		.uleb128 0x2c
 5458 14e7 91050000 		.4byte	.LASF70
 5459 14eb 01       		.byte	0x1
 5460 14ec 2F02     		.2byte	0x22f
 5461 14ee E7000000 		.4byte	0xe7
 5462 14f2 00000000 		.4byte	.LFB18
 5463 14f6 64000000 		.4byte	.LFE18-.LFB18
 5464 14fa 01       		.uleb128 0x1
 5465 14fb 9C       		.byte	0x9c
 5466 14fc E9150000 		.4byte	0x15e9
 5467 1500 19       		.uleb128 0x19
 5468 1501 7F050000 		.4byte	.LASF55
 5469 1505 01       		.byte	0x1
 5470 1506 2F02     		.2byte	0x22f
 5471 1508 F2000000 		.4byte	0xf2
 5472 150c 6E130000 		.4byte	.LLST91
 5473 1510 19       		.uleb128 0x19
 5474 1511 59030000 		.4byte	.LASF22
 5475 1515 01       		.byte	0x1
 5476 1516 2F02     		.2byte	0x22f
ARM GAS  C:\Users\Phuong\AppData\Local\Temp\cczAMJrc.s 			page 114


 5477 1518 E9150000 		.4byte	0x15e9
 5478 151c A8130000 		.4byte	.LLST92
 5479 1520 19       		.uleb128 0x19
 5480 1521 6E000000 		.4byte	.LASF23
 5481 1525 01       		.byte	0x1
 5482 1526 2F02     		.2byte	0x22f
 5483 1528 E9150000 		.4byte	0x15e9
 5484 152c E2130000 		.4byte	.LLST93
 5485 1530 19       		.uleb128 0x19
 5486 1531 08000000 		.4byte	.LASF24
 5487 1535 01       		.byte	0x1
 5488 1536 2F02     		.2byte	0x22f
 5489 1538 EF150000 		.4byte	0x15ef
 5490 153c 1C140000 		.4byte	.LLST94
 5491 1540 1A       		.uleb128 0x1a
 5492 1541 EF050000 		.4byte	.LASF36
 5493 1545 01       		.byte	0x1
 5494 1546 3102     		.2byte	0x231
 5495 1548 E7000000 		.4byte	0xe7
 5496 154c 56140000 		.4byte	.LLST95
 5497 1550 1E       		.uleb128 0x1e
 5498 1551 E3030000 		.4byte	.LASF46
 5499 1555 05160000 		.4byte	0x1605
 5500 1559 05       		.uleb128 0x5
 5501 155a 03       		.byte	0x3
 5502 155b BC000000 		.4byte	__func__.6198
 5503 155f 1B       		.uleb128 0x1b
 5504 1560 14000000 		.4byte	.LBB54
 5505 1564 24000000 		.4byte	.LBE54-.LBB54
 5506 1568 CE150000 		.4byte	0x15ce
 5507 156c 15       		.uleb128 0x15
 5508 156d 6C00     		.ascii	"l\000"
 5509 156f 01       		.byte	0x1
 5510 1570 3B02     		.2byte	0x23b
 5511 1572 93010000 		.4byte	0x193
 5512 1576 8D140000 		.4byte	.LLST96
 5513 157a 1D       		.uleb128 0x1d
 5514 157b 18000000 		.4byte	.LVL303
 5515 157f C11A0000 		.4byte	0x1ac1
 5516 1583 26       		.uleb128 0x26
 5517 1584 22000000 		.4byte	.LVL306
 5518 1588 36080000 		.4byte	0x836
 5519 158c 96150000 		.4byte	0x1596
 5520 1590 17       		.uleb128 0x17
 5521 1591 01       		.uleb128 0x1
 5522 1592 50       		.byte	0x50
 5523 1593 01       		.uleb128 0x1
 5524 1594 32       		.byte	0x32
 5525 1595 00       		.byte	0
 5526 1596 1F       		.uleb128 0x1f
 5527 1597 38000000 		.4byte	.LVL307
 5528 159b 02       		.uleb128 0x2
 5529 159c 74       		.byte	0x74
 5530 159d 00       		.sleb128 0
 5531 159e 17       		.uleb128 0x17
 5532 159f 01       		.uleb128 0x1
 5533 15a0 50       		.byte	0x50
ARM GAS  C:\Users\Phuong\AppData\Local\Temp\cczAMJrc.s 			page 115


 5534 15a1 01       		.uleb128 0x1
 5535 15a2 30       		.byte	0x30
 5536 15a3 17       		.uleb128 0x17
 5537 15a4 01       		.uleb128 0x1
 5538 15a5 51       		.byte	0x51
 5539 15a6 05       		.uleb128 0x5
 5540 15a7 03       		.byte	0x3
 5541 15a8 00000000 		.4byte	.LC1
 5542 15ac 17       		.uleb128 0x17
 5543 15ad 01       		.uleb128 0x1
 5544 15ae 52       		.byte	0x52
 5545 15af 05       		.uleb128 0x5
 5546 15b0 03       		.byte	0x3
 5547 15b1 BC000000 		.4byte	.LANCHOR2+60
 5548 15b5 17       		.uleb128 0x17
 5549 15b6 01       		.uleb128 0x1
 5550 15b7 53       		.byte	0x53
 5551 15b8 03       		.uleb128 0x3
 5552 15b9 0A       		.byte	0xa
 5553 15ba 3B02     		.2byte	0x23b
 5554 15bc 17       		.uleb128 0x17
 5555 15bd 02       		.uleb128 0x2
 5556 15be 7D       		.byte	0x7d
 5557 15bf 00       		.sleb128 0
 5558 15c0 01       		.uleb128 0x1
 5559 15c1 31       		.byte	0x31
 5560 15c2 17       		.uleb128 0x17
 5561 15c3 02       		.uleb128 0x2
 5562 15c4 7D       		.byte	0x7d
 5563 15c5 04       		.sleb128 4
 5564 15c6 05       		.uleb128 0x5
 5565 15c7 03       		.byte	0x3
 5566 15c8 04010000 		.4byte	.LC28
 5567 15cc 00       		.byte	0
 5568 15cd 00       		.byte	0
 5569 15ce 14       		.uleb128 0x14
 5570 15cf 3C000000 		.4byte	.LBB55
 5571 15d3 10000000 		.4byte	.LBE55-.LBB55
 5572 15d7 1A       		.uleb128 0x1a
 5573 15d8 86050000 		.4byte	.LASF35
 5574 15dc 01       		.byte	0x1
 5575 15dd 4202     		.2byte	0x242
 5576 15df 4A020000 		.4byte	0x24a
 5577 15e3 B6140000 		.4byte	.LLST97
 5578 15e7 00       		.byte	0
 5579 15e8 00       		.byte	0
 5580 15e9 05       		.uleb128 0x5
 5581 15ea 04       		.byte	0x4
 5582 15eb 81030000 		.4byte	0x381
 5583 15ef 05       		.uleb128 0x5
 5584 15f0 04       		.byte	0x4
 5585 15f1 25000000 		.4byte	0x25
 5586 15f5 21       		.uleb128 0x21
 5587 15f6 97000000 		.4byte	0x97
 5588 15fa 05160000 		.4byte	0x1605
 5589 15fe 22       		.uleb128 0x22
 5590 15ff 7D000000 		.4byte	0x7d
ARM GAS  C:\Users\Phuong\AppData\Local\Temp\cczAMJrc.s 			page 116


 5591 1603 10       		.byte	0x10
 5592 1604 00       		.byte	0
 5593 1605 06       		.uleb128 0x6
 5594 1606 F5150000 		.4byte	0x15f5
 5595 160a 2C       		.uleb128 0x2c
 5596 160b 55020000 		.4byte	.LASF71
 5597 160f 01       		.byte	0x1
 5598 1610 4B02     		.2byte	0x24b
 5599 1612 9C000000 		.4byte	0x9c
 5600 1616 00000000 		.4byte	.LFB19
 5601 161a EC010000 		.4byte	.LFE19-.LFB19
 5602 161e 01       		.uleb128 0x1
 5603 161f 9C       		.byte	0x9c
 5604 1620 6F1A0000 		.4byte	0x1a6f
 5605 1624 19       		.uleb128 0x19
 5606 1625 7F050000 		.4byte	.LASF55
 5607 1629 01       		.byte	0x1
 5608 162a 4B02     		.2byte	0x24b
 5609 162c F2000000 		.4byte	0xf2
 5610 1630 D7140000 		.4byte	.LLST98
 5611 1634 1A       		.uleb128 0x1a
 5612 1635 EF050000 		.4byte	.LASF36
 5613 1639 01       		.byte	0x1
 5614 163a 4D02     		.2byte	0x24d
 5615 163c 9C000000 		.4byte	0x9c
 5616 1640 19150000 		.4byte	.LLST99
 5617 1644 1E       		.uleb128 0x1e
 5618 1645 E3030000 		.4byte	.LASF46
 5619 1649 6F1A0000 		.4byte	0x1a6f
 5620 164d 05       		.uleb128 0x5
 5621 164e 03       		.byte	0x3
 5622 164f D0000000 		.4byte	__func__.6207
 5623 1653 1B       		.uleb128 0x1b
 5624 1654 08000000 		.4byte	.LBB56
 5625 1658 1E000000 		.4byte	.LBE56-.LBB56
 5626 165c AF160000 		.4byte	0x16af
 5627 1660 15       		.uleb128 0x15
 5628 1661 6C00     		.ascii	"l\000"
 5629 1663 01       		.byte	0x1
 5630 1664 5202     		.2byte	0x252
 5631 1666 93010000 		.4byte	0x193
 5632 166a BB150000 		.4byte	.LLST100
 5633 166e 1D       		.uleb128 0x1d
 5634 166f 0C000000 		.4byte	.LVL317
 5635 1673 C11A0000 		.4byte	0x1ac1
 5636 1677 1F       		.uleb128 0x1f
 5637 1678 26000000 		.4byte	.LVL320
 5638 167c 02       		.uleb128 0x2
 5639 167d 74       		.byte	0x74
 5640 167e 00       		.sleb128 0
 5641 167f 17       		.uleb128 0x17
 5642 1680 01       		.uleb128 0x1
 5643 1681 50       		.byte	0x50
 5644 1682 01       		.uleb128 0x1
 5645 1683 30       		.byte	0x30
 5646 1684 17       		.uleb128 0x17
 5647 1685 01       		.uleb128 0x1
ARM GAS  C:\Users\Phuong\AppData\Local\Temp\cczAMJrc.s 			page 117


 5648 1686 51       		.byte	0x51
 5649 1687 05       		.uleb128 0x5
 5650 1688 03       		.byte	0x3
 5651 1689 00000000 		.4byte	.LC1
 5652 168d 17       		.uleb128 0x17
 5653 168e 01       		.uleb128 0x1
 5654 168f 52       		.byte	0x52
 5655 1690 05       		.uleb128 0x5
 5656 1691 03       		.byte	0x3
 5657 1692 D0000000 		.4byte	.LANCHOR2+80
 5658 1696 17       		.uleb128 0x17
 5659 1697 01       		.uleb128 0x1
 5660 1698 53       		.byte	0x53
 5661 1699 03       		.uleb128 0x3
 5662 169a 0A       		.byte	0xa
 5663 169b 5202     		.2byte	0x252
 5664 169d 17       		.uleb128 0x17
 5665 169e 02       		.uleb128 0x2
 5666 169f 7D       		.byte	0x7d
 5667 16a0 00       		.sleb128 0
 5668 16a1 01       		.uleb128 0x1
 5669 16a2 31       		.byte	0x31
 5670 16a3 17       		.uleb128 0x17
 5671 16a4 02       		.uleb128 0x2
 5672 16a5 7D       		.byte	0x7d
 5673 16a6 04       		.sleb128 4
 5674 16a7 05       		.uleb128 0x5
 5675 16a8 03       		.byte	0x3
 5676 16a9 3C010000 		.4byte	.LC51
 5677 16ad 00       		.byte	0
 5678 16ae 00       		.byte	0
 5679 16af 1B       		.uleb128 0x1b
 5680 16b0 3A000000 		.4byte	.LBB57
 5681 16b4 20000000 		.4byte	.LBE57-.LBB57
 5682 16b8 0B170000 		.4byte	0x170b
 5683 16bc 15       		.uleb128 0x15
 5684 16bd 6C00     		.ascii	"l\000"
 5685 16bf 01       		.byte	0x1
 5686 16c0 5A02     		.2byte	0x25a
 5687 16c2 93010000 		.4byte	0x193
 5688 16c6 E4150000 		.4byte	.LLST101
 5689 16ca 1D       		.uleb128 0x1d
 5690 16cb 3E000000 		.4byte	.LVL325
 5691 16cf C11A0000 		.4byte	0x1ac1
 5692 16d3 1F       		.uleb128 0x1f
 5693 16d4 58000000 		.4byte	.LVL328
 5694 16d8 02       		.uleb128 0x2
 5695 16d9 74       		.byte	0x74
 5696 16da 00       		.sleb128 0
 5697 16db 17       		.uleb128 0x17
 5698 16dc 01       		.uleb128 0x1
 5699 16dd 50       		.byte	0x50
 5700 16de 01       		.uleb128 0x1
 5701 16df 30       		.byte	0x30
 5702 16e0 17       		.uleb128 0x17
 5703 16e1 01       		.uleb128 0x1
 5704 16e2 51       		.byte	0x51
ARM GAS  C:\Users\Phuong\AppData\Local\Temp\cczAMJrc.s 			page 118


 5705 16e3 05       		.uleb128 0x5
 5706 16e4 03       		.byte	0x3
 5707 16e5 00000000 		.4byte	.LC1
 5708 16e9 17       		.uleb128 0x17
 5709 16ea 01       		.uleb128 0x1
 5710 16eb 52       		.byte	0x52
 5711 16ec 05       		.uleb128 0x5
 5712 16ed 03       		.byte	0x3
 5713 16ee D0000000 		.4byte	.LANCHOR2+80
 5714 16f2 17       		.uleb128 0x17
 5715 16f3 01       		.uleb128 0x1
 5716 16f4 53       		.byte	0x53
 5717 16f5 03       		.uleb128 0x3
 5718 16f6 0A       		.byte	0xa
 5719 16f7 5A02     		.2byte	0x25a
 5720 16f9 17       		.uleb128 0x17
 5721 16fa 02       		.uleb128 0x2
 5722 16fb 7D       		.byte	0x7d
 5723 16fc 00       		.sleb128 0
 5724 16fd 01       		.uleb128 0x1
 5725 16fe 31       		.byte	0x31
 5726 16ff 17       		.uleb128 0x17
 5727 1700 02       		.uleb128 0x2
 5728 1701 7D       		.byte	0x7d
 5729 1702 04       		.sleb128 4
 5730 1703 05       		.uleb128 0x5
 5731 1704 03       		.byte	0x3
 5732 1705 54010000 		.4byte	.LC55
 5733 1709 00       		.byte	0
 5734 170a 00       		.byte	0
 5735 170b 20       		.uleb128 0x20
 5736 170c 08010000 		.4byte	.Ldebug_ranges0+0x108
 5737 1710 5B1A0000 		.4byte	0x1a5b
 5738 1714 15       		.uleb128 0x15
 5739 1715 6900     		.ascii	"i\000"
 5740 1717 01       		.byte	0x1
 5741 1718 5E02     		.2byte	0x25e
 5742 171a 25000000 		.4byte	0x25
 5743 171e 02160000 		.4byte	.LLST102
 5744 1722 2F       		.uleb128 0x2f
 5745 1723 86050000 		.4byte	.LASF35
 5746 1727 01       		.byte	0x1
 5747 1728 5F02     		.2byte	0x25f
 5748 172a 4A020000 		.4byte	0x24a
 5749 172e 1A       		.uleb128 0x1a
 5750 172f 0E050000 		.4byte	.LASF72
 5751 1733 01       		.byte	0x1
 5752 1734 6102     		.2byte	0x261
 5753 1736 B2120000 		.4byte	0x12b2
 5754 173a 2B160000 		.4byte	.LLST103
 5755 173e 1B       		.uleb128 0x1b
 5756 173f 5A000000 		.4byte	.LBB59
 5757 1743 D8000000 		.4byte	.LBE59-.LBB59
 5758 1747 73190000 		.4byte	0x1973
 5759 174b 15       		.uleb128 0x15
 5760 174c 6B657900 		.ascii	"key\000"
 5761 1750 01       		.byte	0x1
ARM GAS  C:\Users\Phuong\AppData\Local\Temp\cczAMJrc.s 			page 119


 5762 1751 6602     		.2byte	0x266
 5763 1753 9C000000 		.4byte	0x9c
 5764 1757 8E160000 		.4byte	.LLST104
 5765 175b 1B       		.uleb128 0x1b
 5766 175c 6A000000 		.4byte	.LBB60
 5767 1760 1C000000 		.4byte	.LBE60-.LBB60
 5768 1764 B7170000 		.4byte	0x17b7
 5769 1768 15       		.uleb128 0x15
 5770 1769 6C00     		.ascii	"l\000"
 5771 176b 01       		.byte	0x1
 5772 176c 6902     		.2byte	0x269
 5773 176e 93010000 		.4byte	0x193
 5774 1772 C4160000 		.4byte	.LLST105
 5775 1776 1D       		.uleb128 0x1d
 5776 1777 6E000000 		.4byte	.LVL332
 5777 177b C11A0000 		.4byte	0x1ac1
 5778 177f 1F       		.uleb128 0x1f
 5779 1780 86000000 		.4byte	.LVL335
 5780 1784 02       		.uleb128 0x2
 5781 1785 75       		.byte	0x75
 5782 1786 00       		.sleb128 0
 5783 1787 17       		.uleb128 0x17
 5784 1788 01       		.uleb128 0x1
 5785 1789 50       		.byte	0x50
 5786 178a 01       		.uleb128 0x1
 5787 178b 30       		.byte	0x30
 5788 178c 17       		.uleb128 0x17
 5789 178d 01       		.uleb128 0x1
 5790 178e 51       		.byte	0x51
 5791 178f 05       		.uleb128 0x5
 5792 1790 03       		.byte	0x3
 5793 1791 00000000 		.4byte	.LC1
 5794 1795 17       		.uleb128 0x17
 5795 1796 01       		.uleb128 0x1
 5796 1797 52       		.byte	0x52
 5797 1798 05       		.uleb128 0x5
 5798 1799 03       		.byte	0x3
 5799 179a D0000000 		.4byte	.LANCHOR2+80
 5800 179e 17       		.uleb128 0x17
 5801 179f 01       		.uleb128 0x1
 5802 17a0 53       		.byte	0x53
 5803 17a1 03       		.uleb128 0x3
 5804 17a2 0A       		.byte	0xa
 5805 17a3 6902     		.2byte	0x269
 5806 17a5 17       		.uleb128 0x17
 5807 17a6 02       		.uleb128 0x2
 5808 17a7 7D       		.byte	0x7d
 5809 17a8 00       		.sleb128 0
 5810 17a9 01       		.uleb128 0x1
 5811 17aa 31       		.byte	0x31
 5812 17ab 17       		.uleb128 0x17
 5813 17ac 02       		.uleb128 0x2
 5814 17ad 7D       		.byte	0x7d
 5815 17ae 04       		.sleb128 4
 5816 17af 05       		.uleb128 0x5
 5817 17b0 03       		.byte	0x3
 5818 17b1 6C010000 		.4byte	.LC57
ARM GAS  C:\Users\Phuong\AppData\Local\Temp\cczAMJrc.s 			page 120


 5819 17b5 00       		.byte	0
 5820 17b6 00       		.byte	0
 5821 17b7 1B       		.uleb128 0x1b
 5822 17b8 94000000 		.4byte	.LBB61
 5823 17bc 9E000000 		.4byte	.LBE61-.LBB61
 5824 17c0 58190000 		.4byte	0x1958
 5825 17c4 1A       		.uleb128 0x1a
 5826 17c5 74010000 		.4byte	.LASF39
 5827 17c9 01       		.byte	0x1
 5828 17ca 7002     		.2byte	0x270
 5829 17cc 9C000000 		.4byte	0x9c
 5830 17d0 E2160000 		.4byte	.LLST106
 5831 17d4 1B       		.uleb128 0x1b
 5832 17d5 A0000000 		.4byte	.LBB62
 5833 17d9 1C000000 		.4byte	.LBE62-.LBB62
 5834 17dd 30180000 		.4byte	0x1830
 5835 17e1 15       		.uleb128 0x15
 5836 17e2 6C00     		.ascii	"l\000"
 5837 17e4 01       		.byte	0x1
 5838 17e5 7302     		.2byte	0x273
 5839 17e7 93010000 		.4byte	0x193
 5840 17eb 16170000 		.4byte	.LLST107
 5841 17ef 1D       		.uleb128 0x1d
 5842 17f0 A4000000 		.4byte	.LVL342
 5843 17f4 C11A0000 		.4byte	0x1ac1
 5844 17f8 1F       		.uleb128 0x1f
 5845 17f9 BC000000 		.4byte	.LVL345
 5846 17fd 02       		.uleb128 0x2
 5847 17fe 77       		.byte	0x77
 5848 17ff 00       		.sleb128 0
 5849 1800 17       		.uleb128 0x17
 5850 1801 01       		.uleb128 0x1
 5851 1802 50       		.byte	0x50
 5852 1803 01       		.uleb128 0x1
 5853 1804 30       		.byte	0x30
 5854 1805 17       		.uleb128 0x17
 5855 1806 01       		.uleb128 0x1
 5856 1807 51       		.byte	0x51
 5857 1808 05       		.uleb128 0x5
 5858 1809 03       		.byte	0x3
 5859 180a 00000000 		.4byte	.LC1
 5860 180e 17       		.uleb128 0x17
 5861 180f 01       		.uleb128 0x1
 5862 1810 52       		.byte	0x52
 5863 1811 05       		.uleb128 0x5
 5864 1812 03       		.byte	0x3
 5865 1813 D0000000 		.4byte	.LANCHOR2+80
 5866 1817 17       		.uleb128 0x17
 5867 1818 01       		.uleb128 0x1
 5868 1819 53       		.byte	0x53
 5869 181a 03       		.uleb128 0x3
 5870 181b 0A       		.byte	0xa
 5871 181c 7302     		.2byte	0x273
 5872 181e 17       		.uleb128 0x17
 5873 181f 02       		.uleb128 0x2
 5874 1820 7D       		.byte	0x7d
 5875 1821 00       		.sleb128 0
ARM GAS  C:\Users\Phuong\AppData\Local\Temp\cczAMJrc.s 			page 121


 5876 1822 01       		.uleb128 0x1
 5877 1823 31       		.byte	0x31
 5878 1824 17       		.uleb128 0x17
 5879 1825 02       		.uleb128 0x2
 5880 1826 7D       		.byte	0x7d
 5881 1827 04       		.sleb128 4
 5882 1828 05       		.uleb128 0x5
 5883 1829 03       		.byte	0x3
 5884 182a 6C010000 		.4byte	.LC57
 5885 182e 00       		.byte	0
 5886 182f 00       		.byte	0
 5887 1830 1B       		.uleb128 0x1b
 5888 1831 FE000000 		.4byte	.LBB63
 5889 1835 1C000000 		.4byte	.LBE63-.LBB63
 5890 1839 8C180000 		.4byte	0x188c
 5891 183d 15       		.uleb128 0x15
 5892 183e 6C00     		.ascii	"l\000"
 5893 1840 01       		.byte	0x1
 5894 1841 8102     		.2byte	0x281
 5895 1843 93010000 		.4byte	0x193
 5896 1847 34170000 		.4byte	.LLST108
 5897 184b 1D       		.uleb128 0x1d
 5898 184c 02010000 		.4byte	.LVL353
 5899 1850 C11A0000 		.4byte	0x1ac1
 5900 1854 1F       		.uleb128 0x1f
 5901 1855 1A010000 		.4byte	.LVL356
 5902 1859 02       		.uleb128 0x2
 5903 185a 75       		.byte	0x75
 5904 185b 00       		.sleb128 0
 5905 185c 17       		.uleb128 0x17
 5906 185d 01       		.uleb128 0x1
 5907 185e 50       		.byte	0x50
 5908 185f 01       		.uleb128 0x1
 5909 1860 30       		.byte	0x30
 5910 1861 17       		.uleb128 0x17
 5911 1862 01       		.uleb128 0x1
 5912 1863 51       		.byte	0x51
 5913 1864 05       		.uleb128 0x5
 5914 1865 03       		.byte	0x3
 5915 1866 00000000 		.4byte	.LC1
 5916 186a 17       		.uleb128 0x17
 5917 186b 01       		.uleb128 0x1
 5918 186c 52       		.byte	0x52
 5919 186d 05       		.uleb128 0x5
 5920 186e 03       		.byte	0x3
 5921 186f D0000000 		.4byte	.LANCHOR2+80
 5922 1873 17       		.uleb128 0x17
 5923 1874 01       		.uleb128 0x1
 5924 1875 53       		.byte	0x53
 5925 1876 03       		.uleb128 0x3
 5926 1877 0A       		.byte	0xa
 5927 1878 8102     		.2byte	0x281
 5928 187a 17       		.uleb128 0x17
 5929 187b 02       		.uleb128 0x2
 5930 187c 7D       		.byte	0x7d
 5931 187d 00       		.sleb128 0
 5932 187e 01       		.uleb128 0x1
ARM GAS  C:\Users\Phuong\AppData\Local\Temp\cczAMJrc.s 			page 122


 5933 187f 31       		.byte	0x31
 5934 1880 17       		.uleb128 0x17
 5935 1881 02       		.uleb128 0x2
 5936 1882 7D       		.byte	0x7d
 5937 1883 04       		.sleb128 4
 5938 1884 05       		.uleb128 0x5
 5939 1885 03       		.byte	0x3
 5940 1886 8C010000 		.4byte	.LC63
 5941 188a 00       		.byte	0
 5942 188b 00       		.byte	0
 5943 188c 1D       		.uleb128 0x1d
 5944 188d 9C000000 		.4byte	.LVL340
 5945 1891 F61A0000 		.4byte	0x1af6
 5946 1895 26       		.uleb128 0x26
 5947 1896 C2000000 		.4byte	.LVL346
 5948 189a 011B0000 		.4byte	0x1b01
 5949 189e AA180000 		.4byte	0x18aa
 5950 18a2 17       		.uleb128 0x17
 5951 18a3 01       		.uleb128 0x1
 5952 18a4 50       		.byte	0x50
 5953 18a5 03       		.uleb128 0x3
 5954 18a6 91       		.byte	0x91
 5955 18a7 60       		.sleb128 -32
 5956 18a8 06       		.byte	0x6
 5957 18a9 00       		.byte	0
 5958 18aa 26       		.uleb128 0x26
 5959 18ab D6000000 		.4byte	.LVL349
 5960 18af 0C1B0000 		.4byte	0x1b0c
 5961 18b3 C8180000 		.4byte	0x18c8
 5962 18b7 17       		.uleb128 0x17
 5963 18b8 01       		.uleb128 0x1
 5964 18b9 50       		.byte	0x50
 5965 18ba 03       		.uleb128 0x3
 5966 18bb 91       		.byte	0x91
 5967 18bc 60       		.sleb128 -32
 5968 18bd 06       		.byte	0x6
 5969 18be 17       		.uleb128 0x17
 5970 18bf 01       		.uleb128 0x1
 5971 18c0 51       		.byte	0x51
 5972 18c1 05       		.uleb128 0x5
 5973 18c2 03       		.byte	0x3
 5974 18c3 84010000 		.4byte	.LC59
 5975 18c7 00       		.byte	0
 5976 18c8 26       		.uleb128 0x26
 5977 18c9 E2000000 		.4byte	.LVL350
 5978 18cd 171B0000 		.4byte	0x1b17
 5979 18d1 E4180000 		.4byte	0x18e4
 5980 18d5 17       		.uleb128 0x17
 5981 18d6 01       		.uleb128 0x1
 5982 18d7 50       		.byte	0x50
 5983 18d8 03       		.uleb128 0x3
 5984 18d9 91       		.byte	0x91
 5985 18da 60       		.sleb128 -32
 5986 18db 06       		.byte	0x6
 5987 18dc 17       		.uleb128 0x17
 5988 18dd 01       		.uleb128 0x1
 5989 18de 51       		.byte	0x51
ARM GAS  C:\Users\Phuong\AppData\Local\Temp\cczAMJrc.s 			page 123


 5990 18df 03       		.uleb128 0x3
 5991 18e0 91       		.byte	0x91
 5992 18e1 64       		.sleb128 -28
 5993 18e2 06       		.byte	0x6
 5994 18e3 00       		.byte	0
 5995 18e4 26       		.uleb128 0x26
 5996 18e5 EE000000 		.4byte	.LVL351
 5997 18e9 0C1B0000 		.4byte	0x1b0c
 5998 18ed 02190000 		.4byte	0x1902
 5999 18f1 17       		.uleb128 0x17
 6000 18f2 01       		.uleb128 0x1
 6001 18f3 50       		.byte	0x50
 6002 18f4 03       		.uleb128 0x3
 6003 18f5 91       		.byte	0x91
 6004 18f6 60       		.sleb128 -32
 6005 18f7 06       		.byte	0x6
 6006 18f8 17       		.uleb128 0x17
 6007 18f9 01       		.uleb128 0x1
 6008 18fa 51       		.byte	0x51
 6009 18fb 05       		.uleb128 0x5
 6010 18fc 03       		.byte	0x3
 6011 18fd 88010000 		.4byte	.LC61
 6012 1901 00       		.byte	0
 6013 1902 26       		.uleb128 0x26
 6014 1903 FA000000 		.4byte	.LVL352
 6015 1907 171B0000 		.4byte	0x1b17
 6016 190b 1D190000 		.4byte	0x191d
 6017 190f 17       		.uleb128 0x17
 6018 1910 01       		.uleb128 0x1
 6019 1911 50       		.byte	0x50
 6020 1912 03       		.uleb128 0x3
 6021 1913 91       		.byte	0x91
 6022 1914 60       		.sleb128 -32
 6023 1915 06       		.byte	0x6
 6024 1916 17       		.uleb128 0x17
 6025 1917 01       		.uleb128 0x1
 6026 1918 51       		.byte	0x51
 6027 1919 02       		.uleb128 0x2
 6028 191a 77       		.byte	0x77
 6029 191b 00       		.sleb128 0
 6030 191c 00       		.byte	0
 6031 191d 26       		.uleb128 0x26
 6032 191e 20010000 		.4byte	.LVL357
 6033 1922 011B0000 		.4byte	0x1b01
 6034 1926 32190000 		.4byte	0x1932
 6035 192a 17       		.uleb128 0x17
 6036 192b 01       		.uleb128 0x1
 6037 192c 50       		.byte	0x50
 6038 192d 03       		.uleb128 0x3
 6039 192e 91       		.byte	0x91
 6040 192f 60       		.sleb128 -32
 6041 1930 06       		.byte	0x6
 6042 1931 00       		.byte	0
 6043 1932 26       		.uleb128 0x26
 6044 1933 2C010000 		.4byte	.LVL360
 6045 1937 011B0000 		.4byte	0x1b01
 6046 193b 46190000 		.4byte	0x1946
ARM GAS  C:\Users\Phuong\AppData\Local\Temp\cczAMJrc.s 			page 124


 6047 193f 17       		.uleb128 0x17
 6048 1940 01       		.uleb128 0x1
 6049 1941 50       		.byte	0x50
 6050 1942 02       		.uleb128 0x2
 6051 1943 77       		.byte	0x77
 6052 1944 00       		.sleb128 0
 6053 1945 00       		.byte	0
 6054 1946 16       		.uleb128 0x16
 6055 1947 32010000 		.4byte	.LVL361
 6056 194b 011B0000 		.4byte	0x1b01
 6057 194f 17       		.uleb128 0x17
 6058 1950 01       		.uleb128 0x1
 6059 1951 50       		.byte	0x50
 6060 1952 03       		.uleb128 0x3
 6061 1953 91       		.byte	0x91
 6062 1954 64       		.sleb128 -28
 6063 1955 06       		.byte	0x6
 6064 1956 00       		.byte	0
 6065 1957 00       		.byte	0
 6066 1958 1D       		.uleb128 0x1d
 6067 1959 64000000 		.4byte	.LVL330
 6068 195d F61A0000 		.4byte	0x1af6
 6069 1961 16       		.uleb128 0x16
 6070 1962 8C000000 		.4byte	.LVL336
 6071 1966 011B0000 		.4byte	0x1b01
 6072 196a 17       		.uleb128 0x17
 6073 196b 01       		.uleb128 0x1
 6074 196c 50       		.byte	0x50
 6075 196d 03       		.uleb128 0x3
 6076 196e 91       		.byte	0x91
 6077 196f 60       		.sleb128 -32
 6078 1970 06       		.byte	0x6
 6079 1971 00       		.byte	0
 6080 1972 00       		.byte	0
 6081 1973 1B       		.uleb128 0x1b
 6082 1974 48010000 		.4byte	.LBB64
 6083 1978 1E000000 		.4byte	.LBE64-.LBB64
 6084 197c CF190000 		.4byte	0x19cf
 6085 1980 15       		.uleb128 0x15
 6086 1981 6C00     		.ascii	"l\000"
 6087 1983 01       		.byte	0x1
 6088 1984 9202     		.2byte	0x292
 6089 1986 93010000 		.4byte	0x193
 6090 198a 52170000 		.4byte	.LLST109
 6091 198e 1D       		.uleb128 0x1d
 6092 198f 4C010000 		.4byte	.LVL365
 6093 1993 C11A0000 		.4byte	0x1ac1
 6094 1997 1F       		.uleb128 0x1f
 6095 1998 64010000 		.4byte	.LVL368
 6096 199c 02       		.uleb128 0x2
 6097 199d 74       		.byte	0x74
 6098 199e 00       		.sleb128 0
 6099 199f 17       		.uleb128 0x17
 6100 19a0 01       		.uleb128 0x1
 6101 19a1 50       		.byte	0x50
 6102 19a2 01       		.uleb128 0x1
 6103 19a3 30       		.byte	0x30
ARM GAS  C:\Users\Phuong\AppData\Local\Temp\cczAMJrc.s 			page 125


 6104 19a4 17       		.uleb128 0x17
 6105 19a5 01       		.uleb128 0x1
 6106 19a6 51       		.byte	0x51
 6107 19a7 05       		.uleb128 0x5
 6108 19a8 03       		.byte	0x3
 6109 19a9 00000000 		.4byte	.LC1
 6110 19ad 17       		.uleb128 0x17
 6111 19ae 01       		.uleb128 0x1
 6112 19af 52       		.byte	0x52
 6113 19b0 05       		.uleb128 0x5
 6114 19b1 03       		.byte	0x3
 6115 19b2 D0000000 		.4byte	.LANCHOR2+80
 6116 19b6 17       		.uleb128 0x17
 6117 19b7 01       		.uleb128 0x1
 6118 19b8 53       		.byte	0x53
 6119 19b9 03       		.uleb128 0x3
 6120 19ba 0A       		.byte	0xa
 6121 19bb 9202     		.2byte	0x292
 6122 19bd 17       		.uleb128 0x17
 6123 19be 02       		.uleb128 0x2
 6124 19bf 7D       		.byte	0x7d
 6125 19c0 00       		.sleb128 0
 6126 19c1 01       		.uleb128 0x1
 6127 19c2 31       		.byte	0x31
 6128 19c3 17       		.uleb128 0x17
 6129 19c4 02       		.uleb128 0x2
 6130 19c5 7D       		.byte	0x7d
 6131 19c6 04       		.sleb128 4
 6132 19c7 05       		.uleb128 0x5
 6133 19c8 03       		.byte	0x3
 6134 19c9 A8010000 		.4byte	.LC65
 6135 19cd 00       		.byte	0
 6136 19ce 00       		.byte	0
 6137 19cf 1B       		.uleb128 0x1b
 6138 19d0 72010000 		.4byte	.LBB65
 6139 19d4 1E000000 		.4byte	.LBE65-.LBB65
 6140 19d8 2B1A0000 		.4byte	0x1a2b
 6141 19dc 15       		.uleb128 0x15
 6142 19dd 6C00     		.ascii	"l\000"
 6143 19df 01       		.byte	0x1
 6144 19e0 9802     		.2byte	0x298
 6145 19e2 93010000 		.4byte	0x193
 6146 19e6 70170000 		.4byte	.LLST110
 6147 19ea 1D       		.uleb128 0x1d
 6148 19eb 76010000 		.4byte	.LVL371
 6149 19ef C11A0000 		.4byte	0x1ac1
 6150 19f3 1F       		.uleb128 0x1f
 6151 19f4 90010000 		.4byte	.LVL374
 6152 19f8 02       		.uleb128 0x2
 6153 19f9 74       		.byte	0x74
 6154 19fa 00       		.sleb128 0
 6155 19fb 17       		.uleb128 0x17
 6156 19fc 01       		.uleb128 0x1
 6157 19fd 50       		.byte	0x50
 6158 19fe 01       		.uleb128 0x1
 6159 19ff 30       		.byte	0x30
 6160 1a00 17       		.uleb128 0x17
ARM GAS  C:\Users\Phuong\AppData\Local\Temp\cczAMJrc.s 			page 126


 6161 1a01 01       		.uleb128 0x1
 6162 1a02 51       		.byte	0x51
 6163 1a03 05       		.uleb128 0x5
 6164 1a04 03       		.byte	0x3
 6165 1a05 00000000 		.4byte	.LC1
 6166 1a09 17       		.uleb128 0x17
 6167 1a0a 01       		.uleb128 0x1
 6168 1a0b 52       		.byte	0x52
 6169 1a0c 05       		.uleb128 0x5
 6170 1a0d 03       		.byte	0x3
 6171 1a0e D0000000 		.4byte	.LANCHOR2+80
 6172 1a12 17       		.uleb128 0x17
 6173 1a13 01       		.uleb128 0x1
 6174 1a14 53       		.byte	0x53
 6175 1a15 03       		.uleb128 0x3
 6176 1a16 0A       		.byte	0xa
 6177 1a17 9802     		.2byte	0x298
 6178 1a19 17       		.uleb128 0x17
 6179 1a1a 02       		.uleb128 0x2
 6180 1a1b 7D       		.byte	0x7d
 6181 1a1c 00       		.sleb128 0
 6182 1a1d 01       		.uleb128 0x1
 6183 1a1e 31       		.byte	0x31
 6184 1a1f 17       		.uleb128 0x17
 6185 1a20 02       		.uleb128 0x2
 6186 1a21 7D       		.byte	0x7d
 6187 1a22 04       		.sleb128 4
 6188 1a23 05       		.uleb128 0x5
 6189 1a24 03       		.byte	0x3
 6190 1a25 8C010000 		.4byte	.LC63
 6191 1a29 00       		.byte	0
 6192 1a2a 00       		.byte	0
 6193 1a2b 26       		.uleb128 0x26
 6194 1a2c 6E010000 		.4byte	.LVL370
 6195 1a30 0C1B0000 		.4byte	0x1b0c
 6196 1a34 491A0000 		.4byte	0x1a49
 6197 1a38 17       		.uleb128 0x17
 6198 1a39 01       		.uleb128 0x1
 6199 1a3a 50       		.byte	0x50
 6200 1a3b 03       		.uleb128 0x3
 6201 1a3c 91       		.byte	0x91
 6202 1a3d 60       		.sleb128 -32
 6203 1a3e 06       		.byte	0x6
 6204 1a3f 17       		.uleb128 0x17
 6205 1a40 01       		.uleb128 0x1
 6206 1a41 51       		.byte	0x51
 6207 1a42 05       		.uleb128 0x5
 6208 1a43 03       		.byte	0x3
 6209 1a44 D4010000 		.4byte	.LC67
 6210 1a48 00       		.byte	0
 6211 1a49 16       		.uleb128 0x16
 6212 1a4a 96010000 		.4byte	.LVL375
 6213 1a4e 011B0000 		.4byte	0x1b01
 6214 1a52 17       		.uleb128 0x17
 6215 1a53 01       		.uleb128 0x1
 6216 1a54 50       		.byte	0x50
 6217 1a55 03       		.uleb128 0x3
ARM GAS  C:\Users\Phuong\AppData\Local\Temp\cczAMJrc.s 			page 127


 6218 1a56 91       		.byte	0x91
 6219 1a57 60       		.sleb128 -32
 6220 1a58 06       		.byte	0x6
 6221 1a59 00       		.byte	0
 6222 1a5a 00       		.byte	0
 6223 1a5b 16       		.uleb128 0x16
 6224 1a5c 32000000 		.4byte	.LVL323
 6225 1a60 221B0000 		.4byte	0x1b22
 6226 1a64 17       		.uleb128 0x17
 6227 1a65 01       		.uleb128 0x1
 6228 1a66 50       		.byte	0x50
 6229 1a67 05       		.uleb128 0x5
 6230 1a68 03       		.byte	0x3
 6231 1a69 50010000 		.4byte	.LC53
 6232 1a6d 00       		.byte	0
 6233 1a6e 00       		.byte	0
 6234 1a6f 06       		.uleb128 0x6
 6235 1a70 93110000 		.4byte	0x1193
 6236 1a74 21       		.uleb128 0x21
 6237 1a75 91000000 		.4byte	0x91
 6238 1a79 841A0000 		.4byte	0x1a84
 6239 1a7d 22       		.uleb128 0x22
 6240 1a7e 7D000000 		.4byte	0x7d
 6241 1a82 05       		.byte	0x5
 6242 1a83 00       		.byte	0
 6243 1a84 30       		.uleb128 0x30
 6244 1a85 CB030000 		.4byte	.LASF93
 6245 1a89 01       		.byte	0x1
 6246 1a8a 0B       		.byte	0xb
 6247 1a8b 741A0000 		.4byte	0x1a74
 6248 1a8f 05       		.uleb128 0x5
 6249 1a90 03       		.byte	0x3
 6250 1a91 00000000 		.4byte	MAP_RESULTStringStorage
 6251 1a95 31       		.uleb128 0x31
 6252 1a96 15000000 		.4byte	.LASF73
 6253 1a9a 15000000 		.4byte	.LASF73
 6254 1a9e 06       		.byte	0x6
 6255 1a9f 1C       		.byte	0x1c
 6256 1aa0 31       		.uleb128 0x31
 6257 1aa1 87000000 		.4byte	.LASF74
 6258 1aa5 87000000 		.4byte	.LASF74
 6259 1aa9 07       		.byte	0x7
 6260 1aaa 59       		.byte	0x59
 6261 1aab 31       		.uleb128 0x31
 6262 1aac 30000000 		.4byte	.LASF75
 6263 1ab0 30000000 		.4byte	.LASF75
 6264 1ab4 08       		.byte	0x8
 6265 1ab5 6E       		.byte	0x6e
 6266 1ab6 31       		.uleb128 0x31
 6267 1ab7 0E000000 		.4byte	.LASF76
 6268 1abb 0E000000 		.4byte	.LASF76
 6269 1abf 07       		.byte	0x7
 6270 1ac0 64       		.byte	0x64
 6271 1ac1 31       		.uleb128 0x31
 6272 1ac2 21050000 		.4byte	.LASF77
 6273 1ac6 21050000 		.4byte	.LASF77
 6274 1aca 05       		.byte	0x5
ARM GAS  C:\Users\Phuong\AppData\Local\Temp\cczAMJrc.s 			page 128


 6275 1acb 9D       		.byte	0x9d
 6276 1acc 31       		.uleb128 0x31
 6277 1acd 46010000 		.4byte	.LASF78
 6278 1ad1 46010000 		.4byte	.LASF78
 6279 1ad5 07       		.byte	0x7
 6280 1ad6 89       		.byte	0x89
 6281 1ad7 31       		.uleb128 0x31
 6282 1ad8 C7010000 		.4byte	.LASF79
 6283 1adc C7010000 		.4byte	.LASF79
 6284 1ae0 06       		.byte	0x6
 6285 1ae1 21       		.byte	0x21
 6286 1ae2 32       		.uleb128 0x32
 6287 1ae3 DB040000 		.4byte	.LASF94
 6288 1ae7 DB040000 		.4byte	.LASF94
 6289 1aeb 31       		.uleb128 0x31
 6290 1aec 66000000 		.4byte	.LASF80
 6291 1af0 66000000 		.4byte	.LASF80
 6292 1af4 06       		.byte	0x6
 6293 1af5 18       		.byte	0x18
 6294 1af6 31       		.uleb128 0x31
 6295 1af7 FF000000 		.4byte	.LASF81
 6296 1afb FF000000 		.4byte	.LASF81
 6297 1aff 09       		.byte	0x9
 6298 1b00 18       		.byte	0x18
 6299 1b01 31       		.uleb128 0x31
 6300 1b02 58010000 		.4byte	.LASF82
 6301 1b06 58010000 		.4byte	.LASF82
 6302 1b0a 09       		.byte	0x9
 6303 1b0b 1A       		.byte	0x1a
 6304 1b0c 31       		.uleb128 0x31
 6305 1b0d 66010000 		.4byte	.LASF83
 6306 1b11 66010000 		.4byte	.LASF83
 6307 1b15 09       		.byte	0x9
 6308 1b16 1B       		.byte	0x1b
 6309 1b17 31       		.uleb128 0x31
 6310 1b18 16020000 		.4byte	.LASF84
 6311 1b1c 16020000 		.4byte	.LASF84
 6312 1b20 09       		.byte	0x9
 6313 1b21 1C       		.byte	0x1c
 6314 1b22 31       		.uleb128 0x31
 6315 1b23 88030000 		.4byte	.LASF85
 6316 1b27 88030000 		.4byte	.LASF85
 6317 1b2b 09       		.byte	0x9
 6318 1b2c 14       		.byte	0x14
 6319 1b2d 00       		.byte	0
 6320              		.section	.debug_abbrev,"",%progbits
 6321              	.Ldebug_abbrev0:
 6322 0000 01       		.uleb128 0x1
 6323 0001 11       		.uleb128 0x11
 6324 0002 01       		.byte	0x1
 6325 0003 25       		.uleb128 0x25
 6326 0004 0E       		.uleb128 0xe
 6327 0005 13       		.uleb128 0x13
 6328 0006 0B       		.uleb128 0xb
 6329 0007 03       		.uleb128 0x3
 6330 0008 0E       		.uleb128 0xe
 6331 0009 1B       		.uleb128 0x1b
ARM GAS  C:\Users\Phuong\AppData\Local\Temp\cczAMJrc.s 			page 129


 6332 000a 0E       		.uleb128 0xe
 6333 000b 55       		.uleb128 0x55
 6334 000c 17       		.uleb128 0x17
 6335 000d 11       		.uleb128 0x11
 6336 000e 01       		.uleb128 0x1
 6337 000f 10       		.uleb128 0x10
 6338 0010 17       		.uleb128 0x17
 6339 0011 00       		.byte	0
 6340 0012 00       		.byte	0
 6341 0013 02       		.uleb128 0x2
 6342 0014 16       		.uleb128 0x16
 6343 0015 00       		.byte	0
 6344 0016 03       		.uleb128 0x3
 6345 0017 0E       		.uleb128 0xe
 6346 0018 3A       		.uleb128 0x3a
 6347 0019 0B       		.uleb128 0xb
 6348 001a 3B       		.uleb128 0x3b
 6349 001b 0B       		.uleb128 0xb
 6350 001c 49       		.uleb128 0x49
 6351 001d 13       		.uleb128 0x13
 6352 001e 00       		.byte	0
 6353 001f 00       		.byte	0
 6354 0020 03       		.uleb128 0x3
 6355 0021 24       		.uleb128 0x24
 6356 0022 00       		.byte	0
 6357 0023 0B       		.uleb128 0xb
 6358 0024 0B       		.uleb128 0xb
 6359 0025 3E       		.uleb128 0x3e
 6360 0026 0B       		.uleb128 0xb
 6361 0027 03       		.uleb128 0x3
 6362 0028 0E       		.uleb128 0xe
 6363 0029 00       		.byte	0
 6364 002a 00       		.byte	0
 6365 002b 04       		.uleb128 0x4
 6366 002c 24       		.uleb128 0x24
 6367 002d 00       		.byte	0
 6368 002e 0B       		.uleb128 0xb
 6369 002f 0B       		.uleb128 0xb
 6370 0030 3E       		.uleb128 0x3e
 6371 0031 0B       		.uleb128 0xb
 6372 0032 03       		.uleb128 0x3
 6373 0033 08       		.uleb128 0x8
 6374 0034 00       		.byte	0
 6375 0035 00       		.byte	0
 6376 0036 05       		.uleb128 0x5
 6377 0037 0F       		.uleb128 0xf
 6378 0038 00       		.byte	0
 6379 0039 0B       		.uleb128 0xb
 6380 003a 0B       		.uleb128 0xb
 6381 003b 49       		.uleb128 0x49
 6382 003c 13       		.uleb128 0x13
 6383 003d 00       		.byte	0
 6384 003e 00       		.byte	0
 6385 003f 06       		.uleb128 0x6
 6386 0040 26       		.uleb128 0x26
 6387 0041 00       		.byte	0
 6388 0042 49       		.uleb128 0x49
ARM GAS  C:\Users\Phuong\AppData\Local\Temp\cczAMJrc.s 			page 130


 6389 0043 13       		.uleb128 0x13
 6390 0044 00       		.byte	0
 6391 0045 00       		.byte	0
 6392 0046 07       		.uleb128 0x7
 6393 0047 13       		.uleb128 0x13
 6394 0048 00       		.byte	0
 6395 0049 03       		.uleb128 0x3
 6396 004a 0E       		.uleb128 0xe
 6397 004b 3C       		.uleb128 0x3c
 6398 004c 19       		.uleb128 0x19
 6399 004d 00       		.byte	0
 6400 004e 00       		.byte	0
 6401 004f 08       		.uleb128 0x8
 6402 0050 04       		.uleb128 0x4
 6403 0051 01       		.byte	0x1
 6404 0052 03       		.uleb128 0x3
 6405 0053 0E       		.uleb128 0xe
 6406 0054 0B       		.uleb128 0xb
 6407 0055 0B       		.uleb128 0xb
 6408 0056 49       		.uleb128 0x49
 6409 0057 13       		.uleb128 0x13
 6410 0058 3A       		.uleb128 0x3a
 6411 0059 0B       		.uleb128 0xb
 6412 005a 3B       		.uleb128 0x3b
 6413 005b 0B       		.uleb128 0xb
 6414 005c 01       		.uleb128 0x1
 6415 005d 13       		.uleb128 0x13
 6416 005e 00       		.byte	0
 6417 005f 00       		.byte	0
 6418 0060 09       		.uleb128 0x9
 6419 0061 28       		.uleb128 0x28
 6420 0062 00       		.byte	0
 6421 0063 03       		.uleb128 0x3
 6422 0064 0E       		.uleb128 0xe
 6423 0065 1C       		.uleb128 0x1c
 6424 0066 0B       		.uleb128 0xb
 6425 0067 00       		.byte	0
 6426 0068 00       		.byte	0
 6427 0069 0A       		.uleb128 0xa
 6428 006a 13       		.uleb128 0x13
 6429 006b 01       		.byte	0x1
 6430 006c 03       		.uleb128 0x3
 6431 006d 0E       		.uleb128 0xe
 6432 006e 0B       		.uleb128 0xb
 6433 006f 0B       		.uleb128 0xb
 6434 0070 3A       		.uleb128 0x3a
 6435 0071 0B       		.uleb128 0xb
 6436 0072 3B       		.uleb128 0x3b
 6437 0073 0B       		.uleb128 0xb
 6438 0074 01       		.uleb128 0x1
 6439 0075 13       		.uleb128 0x13
 6440 0076 00       		.byte	0
 6441 0077 00       		.byte	0
 6442 0078 0B       		.uleb128 0xb
 6443 0079 0D       		.uleb128 0xd
 6444 007a 00       		.byte	0
 6445 007b 03       		.uleb128 0x3
ARM GAS  C:\Users\Phuong\AppData\Local\Temp\cczAMJrc.s 			page 131


 6446 007c 0E       		.uleb128 0xe
 6447 007d 3A       		.uleb128 0x3a
 6448 007e 0B       		.uleb128 0xb
 6449 007f 3B       		.uleb128 0x3b
 6450 0080 0B       		.uleb128 0xb
 6451 0081 49       		.uleb128 0x49
 6452 0082 13       		.uleb128 0x13
 6453 0083 38       		.uleb128 0x38
 6454 0084 0B       		.uleb128 0xb
 6455 0085 00       		.byte	0
 6456 0086 00       		.byte	0
 6457 0087 0C       		.uleb128 0xc
 6458 0088 15       		.uleb128 0x15
 6459 0089 01       		.byte	0x1
 6460 008a 27       		.uleb128 0x27
 6461 008b 19       		.uleb128 0x19
 6462 008c 49       		.uleb128 0x49
 6463 008d 13       		.uleb128 0x13
 6464 008e 01       		.uleb128 0x1
 6465 008f 13       		.uleb128 0x13
 6466 0090 00       		.byte	0
 6467 0091 00       		.byte	0
 6468 0092 0D       		.uleb128 0xd
 6469 0093 05       		.uleb128 0x5
 6470 0094 00       		.byte	0
 6471 0095 49       		.uleb128 0x49
 6472 0096 13       		.uleb128 0x13
 6473 0097 00       		.byte	0
 6474 0098 00       		.byte	0
 6475 0099 0E       		.uleb128 0xe
 6476 009a 15       		.uleb128 0x15
 6477 009b 01       		.byte	0x1
 6478 009c 27       		.uleb128 0x27
 6479 009d 19       		.uleb128 0x19
 6480 009e 01       		.uleb128 0x1
 6481 009f 13       		.uleb128 0x13
 6482 00a0 00       		.byte	0
 6483 00a1 00       		.byte	0
 6484 00a2 0F       		.uleb128 0xf
 6485 00a3 18       		.uleb128 0x18
 6486 00a4 00       		.byte	0
 6487 00a5 00       		.byte	0
 6488 00a6 00       		.byte	0
 6489 00a7 10       		.uleb128 0x10
 6490 00a8 2E       		.uleb128 0x2e
 6491 00a9 01       		.byte	0x1
 6492 00aa 03       		.uleb128 0x3
 6493 00ab 0E       		.uleb128 0xe
 6494 00ac 3A       		.uleb128 0x3a
 6495 00ad 0B       		.uleb128 0xb
 6496 00ae 3B       		.uleb128 0x3b
 6497 00af 0B       		.uleb128 0xb
 6498 00b0 27       		.uleb128 0x27
 6499 00b1 19       		.uleb128 0x19
 6500 00b2 49       		.uleb128 0x49
 6501 00b3 13       		.uleb128 0x13
 6502 00b4 11       		.uleb128 0x11
ARM GAS  C:\Users\Phuong\AppData\Local\Temp\cczAMJrc.s 			page 132


 6503 00b5 01       		.uleb128 0x1
 6504 00b6 12       		.uleb128 0x12
 6505 00b7 06       		.uleb128 0x6
 6506 00b8 40       		.uleb128 0x40
 6507 00b9 18       		.uleb128 0x18
 6508 00ba 9742     		.uleb128 0x2117
 6509 00bc 19       		.uleb128 0x19
 6510 00bd 01       		.uleb128 0x1
 6511 00be 13       		.uleb128 0x13
 6512 00bf 00       		.byte	0
 6513 00c0 00       		.byte	0
 6514 00c1 11       		.uleb128 0x11
 6515 00c2 05       		.uleb128 0x5
 6516 00c3 00       		.byte	0
 6517 00c4 03       		.uleb128 0x3
 6518 00c5 0E       		.uleb128 0xe
 6519 00c6 3A       		.uleb128 0x3a
 6520 00c7 0B       		.uleb128 0xb
 6521 00c8 3B       		.uleb128 0x3b
 6522 00c9 0B       		.uleb128 0xb
 6523 00ca 49       		.uleb128 0x49
 6524 00cb 13       		.uleb128 0x13
 6525 00cc 02       		.uleb128 0x2
 6526 00cd 17       		.uleb128 0x17
 6527 00ce 00       		.byte	0
 6528 00cf 00       		.byte	0
 6529 00d0 12       		.uleb128 0x12
 6530 00d1 05       		.uleb128 0x5
 6531 00d2 00       		.byte	0
 6532 00d3 03       		.uleb128 0x3
 6533 00d4 08       		.uleb128 0x8
 6534 00d5 3A       		.uleb128 0x3a
 6535 00d6 0B       		.uleb128 0xb
 6536 00d7 3B       		.uleb128 0x3b
 6537 00d8 0B       		.uleb128 0xb
 6538 00d9 49       		.uleb128 0x49
 6539 00da 13       		.uleb128 0x13
 6540 00db 02       		.uleb128 0x2
 6541 00dc 17       		.uleb128 0x17
 6542 00dd 00       		.byte	0
 6543 00de 00       		.byte	0
 6544 00df 13       		.uleb128 0x13
 6545 00e0 34       		.uleb128 0x34
 6546 00e1 00       		.byte	0
 6547 00e2 03       		.uleb128 0x3
 6548 00e3 0E       		.uleb128 0xe
 6549 00e4 3A       		.uleb128 0x3a
 6550 00e5 0B       		.uleb128 0xb
 6551 00e6 3B       		.uleb128 0x3b
 6552 00e7 0B       		.uleb128 0xb
 6553 00e8 49       		.uleb128 0x49
 6554 00e9 13       		.uleb128 0x13
 6555 00ea 02       		.uleb128 0x2
 6556 00eb 17       		.uleb128 0x17
 6557 00ec 00       		.byte	0
 6558 00ed 00       		.byte	0
 6559 00ee 14       		.uleb128 0x14
ARM GAS  C:\Users\Phuong\AppData\Local\Temp\cczAMJrc.s 			page 133


 6560 00ef 0B       		.uleb128 0xb
 6561 00f0 01       		.byte	0x1
 6562 00f1 11       		.uleb128 0x11
 6563 00f2 01       		.uleb128 0x1
 6564 00f3 12       		.uleb128 0x12
 6565 00f4 06       		.uleb128 0x6
 6566 00f5 00       		.byte	0
 6567 00f6 00       		.byte	0
 6568 00f7 15       		.uleb128 0x15
 6569 00f8 34       		.uleb128 0x34
 6570 00f9 00       		.byte	0
 6571 00fa 03       		.uleb128 0x3
 6572 00fb 08       		.uleb128 0x8
 6573 00fc 3A       		.uleb128 0x3a
 6574 00fd 0B       		.uleb128 0xb
 6575 00fe 3B       		.uleb128 0x3b
 6576 00ff 05       		.uleb128 0x5
 6577 0100 49       		.uleb128 0x49
 6578 0101 13       		.uleb128 0x13
 6579 0102 02       		.uleb128 0x2
 6580 0103 17       		.uleb128 0x17
 6581 0104 00       		.byte	0
 6582 0105 00       		.byte	0
 6583 0106 16       		.uleb128 0x16
 6584 0107 898201   		.uleb128 0x4109
 6585 010a 01       		.byte	0x1
 6586 010b 11       		.uleb128 0x11
 6587 010c 01       		.uleb128 0x1
 6588 010d 31       		.uleb128 0x31
 6589 010e 13       		.uleb128 0x13
 6590 010f 00       		.byte	0
 6591 0110 00       		.byte	0
 6592 0111 17       		.uleb128 0x17
 6593 0112 8A8201   		.uleb128 0x410a
 6594 0115 00       		.byte	0
 6595 0116 02       		.uleb128 0x2
 6596 0117 18       		.uleb128 0x18
 6597 0118 9142     		.uleb128 0x2111
 6598 011a 18       		.uleb128 0x18
 6599 011b 00       		.byte	0
 6600 011c 00       		.byte	0
 6601 011d 18       		.uleb128 0x18
 6602 011e 2E       		.uleb128 0x2e
 6603 011f 01       		.byte	0x1
 6604 0120 03       		.uleb128 0x3
 6605 0121 0E       		.uleb128 0xe
 6606 0122 3A       		.uleb128 0x3a
 6607 0123 0B       		.uleb128 0xb
 6608 0124 3B       		.uleb128 0x3b
 6609 0125 05       		.uleb128 0x5
 6610 0126 27       		.uleb128 0x27
 6611 0127 19       		.uleb128 0x19
 6612 0128 49       		.uleb128 0x49
 6613 0129 13       		.uleb128 0x13
 6614 012a 11       		.uleb128 0x11
 6615 012b 01       		.uleb128 0x1
 6616 012c 12       		.uleb128 0x12
ARM GAS  C:\Users\Phuong\AppData\Local\Temp\cczAMJrc.s 			page 134


 6617 012d 06       		.uleb128 0x6
 6618 012e 40       		.uleb128 0x40
 6619 012f 18       		.uleb128 0x18
 6620 0130 9742     		.uleb128 0x2117
 6621 0132 19       		.uleb128 0x19
 6622 0133 01       		.uleb128 0x1
 6623 0134 13       		.uleb128 0x13
 6624 0135 00       		.byte	0
 6625 0136 00       		.byte	0
 6626 0137 19       		.uleb128 0x19
 6627 0138 05       		.uleb128 0x5
 6628 0139 00       		.byte	0
 6629 013a 03       		.uleb128 0x3
 6630 013b 0E       		.uleb128 0xe
 6631 013c 3A       		.uleb128 0x3a
 6632 013d 0B       		.uleb128 0xb
 6633 013e 3B       		.uleb128 0x3b
 6634 013f 05       		.uleb128 0x5
 6635 0140 49       		.uleb128 0x49
 6636 0141 13       		.uleb128 0x13
 6637 0142 02       		.uleb128 0x2
 6638 0143 17       		.uleb128 0x17
 6639 0144 00       		.byte	0
 6640 0145 00       		.byte	0
 6641 0146 1A       		.uleb128 0x1a
 6642 0147 34       		.uleb128 0x34
 6643 0148 00       		.byte	0
 6644 0149 03       		.uleb128 0x3
 6645 014a 0E       		.uleb128 0xe
 6646 014b 3A       		.uleb128 0x3a
 6647 014c 0B       		.uleb128 0xb
 6648 014d 3B       		.uleb128 0x3b
 6649 014e 05       		.uleb128 0x5
 6650 014f 49       		.uleb128 0x49
 6651 0150 13       		.uleb128 0x13
 6652 0151 02       		.uleb128 0x2
 6653 0152 17       		.uleb128 0x17
 6654 0153 00       		.byte	0
 6655 0154 00       		.byte	0
 6656 0155 1B       		.uleb128 0x1b
 6657 0156 0B       		.uleb128 0xb
 6658 0157 01       		.byte	0x1
 6659 0158 11       		.uleb128 0x11
 6660 0159 01       		.uleb128 0x1
 6661 015a 12       		.uleb128 0x12
 6662 015b 06       		.uleb128 0x6
 6663 015c 01       		.uleb128 0x1
 6664 015d 13       		.uleb128 0x13
 6665 015e 00       		.byte	0
 6666 015f 00       		.byte	0
 6667 0160 1C       		.uleb128 0x1c
 6668 0161 34       		.uleb128 0x34
 6669 0162 00       		.byte	0
 6670 0163 03       		.uleb128 0x3
 6671 0164 08       		.uleb128 0x8
 6672 0165 3A       		.uleb128 0x3a
 6673 0166 0B       		.uleb128 0xb
ARM GAS  C:\Users\Phuong\AppData\Local\Temp\cczAMJrc.s 			page 135


 6674 0167 3B       		.uleb128 0x3b
 6675 0168 0B       		.uleb128 0xb
 6676 0169 49       		.uleb128 0x49
 6677 016a 13       		.uleb128 0x13
 6678 016b 02       		.uleb128 0x2
 6679 016c 17       		.uleb128 0x17
 6680 016d 00       		.byte	0
 6681 016e 00       		.byte	0
 6682 016f 1D       		.uleb128 0x1d
 6683 0170 898201   		.uleb128 0x4109
 6684 0173 00       		.byte	0
 6685 0174 11       		.uleb128 0x11
 6686 0175 01       		.uleb128 0x1
 6687 0176 31       		.uleb128 0x31
 6688 0177 13       		.uleb128 0x13
 6689 0178 00       		.byte	0
 6690 0179 00       		.byte	0
 6691 017a 1E       		.uleb128 0x1e
 6692 017b 34       		.uleb128 0x34
 6693 017c 00       		.byte	0
 6694 017d 03       		.uleb128 0x3
 6695 017e 0E       		.uleb128 0xe
 6696 017f 49       		.uleb128 0x49
 6697 0180 13       		.uleb128 0x13
 6698 0181 34       		.uleb128 0x34
 6699 0182 19       		.uleb128 0x19
 6700 0183 02       		.uleb128 0x2
 6701 0184 18       		.uleb128 0x18
 6702 0185 00       		.byte	0
 6703 0186 00       		.byte	0
 6704 0187 1F       		.uleb128 0x1f
 6705 0188 898201   		.uleb128 0x4109
 6706 018b 01       		.byte	0x1
 6707 018c 11       		.uleb128 0x11
 6708 018d 01       		.uleb128 0x1
 6709 018e 9342     		.uleb128 0x2113
 6710 0190 18       		.uleb128 0x18
 6711 0191 00       		.byte	0
 6712 0192 00       		.byte	0
 6713 0193 20       		.uleb128 0x20
 6714 0194 0B       		.uleb128 0xb
 6715 0195 01       		.byte	0x1
 6716 0196 55       		.uleb128 0x55
 6717 0197 17       		.uleb128 0x17
 6718 0198 01       		.uleb128 0x1
 6719 0199 13       		.uleb128 0x13
 6720 019a 00       		.byte	0
 6721 019b 00       		.byte	0
 6722 019c 21       		.uleb128 0x21
 6723 019d 01       		.uleb128 0x1
 6724 019e 01       		.byte	0x1
 6725 019f 49       		.uleb128 0x49
 6726 01a0 13       		.uleb128 0x13
 6727 01a1 01       		.uleb128 0x1
 6728 01a2 13       		.uleb128 0x13
 6729 01a3 00       		.byte	0
 6730 01a4 00       		.byte	0
ARM GAS  C:\Users\Phuong\AppData\Local\Temp\cczAMJrc.s 			page 136


 6731 01a5 22       		.uleb128 0x22
 6732 01a6 21       		.uleb128 0x21
 6733 01a7 00       		.byte	0
 6734 01a8 49       		.uleb128 0x49
 6735 01a9 13       		.uleb128 0x13
 6736 01aa 2F       		.uleb128 0x2f
 6737 01ab 0B       		.uleb128 0xb
 6738 01ac 00       		.byte	0
 6739 01ad 00       		.byte	0
 6740 01ae 23       		.uleb128 0x23
 6741 01af 2E       		.uleb128 0x2e
 6742 01b0 01       		.byte	0x1
 6743 01b1 03       		.uleb128 0x3
 6744 01b2 0E       		.uleb128 0xe
 6745 01b3 3A       		.uleb128 0x3a
 6746 01b4 0B       		.uleb128 0xb
 6747 01b5 3B       		.uleb128 0x3b
 6748 01b6 0B       		.uleb128 0xb
 6749 01b7 27       		.uleb128 0x27
 6750 01b8 19       		.uleb128 0x19
 6751 01b9 11       		.uleb128 0x11
 6752 01ba 01       		.uleb128 0x1
 6753 01bb 12       		.uleb128 0x12
 6754 01bc 06       		.uleb128 0x6
 6755 01bd 40       		.uleb128 0x40
 6756 01be 18       		.uleb128 0x18
 6757 01bf 9742     		.uleb128 0x2117
 6758 01c1 19       		.uleb128 0x19
 6759 01c2 01       		.uleb128 0x1
 6760 01c3 13       		.uleb128 0x13
 6761 01c4 00       		.byte	0
 6762 01c5 00       		.byte	0
 6763 01c6 24       		.uleb128 0x24
 6764 01c7 05       		.uleb128 0x5
 6765 01c8 00       		.byte	0
 6766 01c9 03       		.uleb128 0x3
 6767 01ca 08       		.uleb128 0x8
 6768 01cb 3A       		.uleb128 0x3a
 6769 01cc 0B       		.uleb128 0xb
 6770 01cd 3B       		.uleb128 0x3b
 6771 01ce 05       		.uleb128 0x5
 6772 01cf 49       		.uleb128 0x49
 6773 01d0 13       		.uleb128 0x13
 6774 01d1 02       		.uleb128 0x2
 6775 01d2 17       		.uleb128 0x17
 6776 01d3 00       		.byte	0
 6777 01d4 00       		.byte	0
 6778 01d5 25       		.uleb128 0x25
 6779 01d6 34       		.uleb128 0x34
 6780 01d7 00       		.byte	0
 6781 01d8 03       		.uleb128 0x3
 6782 01d9 0E       		.uleb128 0xe
 6783 01da 3A       		.uleb128 0x3a
 6784 01db 0B       		.uleb128 0xb
 6785 01dc 3B       		.uleb128 0x3b
 6786 01dd 05       		.uleb128 0x5
 6787 01de 49       		.uleb128 0x49
ARM GAS  C:\Users\Phuong\AppData\Local\Temp\cczAMJrc.s 			page 137


 6788 01df 13       		.uleb128 0x13
 6789 01e0 02       		.uleb128 0x2
 6790 01e1 18       		.uleb128 0x18
 6791 01e2 00       		.byte	0
 6792 01e3 00       		.byte	0
 6793 01e4 26       		.uleb128 0x26
 6794 01e5 898201   		.uleb128 0x4109
 6795 01e8 01       		.byte	0x1
 6796 01e9 11       		.uleb128 0x11
 6797 01ea 01       		.uleb128 0x1
 6798 01eb 31       		.uleb128 0x31
 6799 01ec 13       		.uleb128 0x13
 6800 01ed 01       		.uleb128 0x1
 6801 01ee 13       		.uleb128 0x13
 6802 01ef 00       		.byte	0
 6803 01f0 00       		.byte	0
 6804 01f1 27       		.uleb128 0x27
 6805 01f2 2E       		.uleb128 0x2e
 6806 01f3 01       		.byte	0x1
 6807 01f4 3F       		.uleb128 0x3f
 6808 01f5 19       		.uleb128 0x19
 6809 01f6 03       		.uleb128 0x3
 6810 01f7 0E       		.uleb128 0xe
 6811 01f8 3A       		.uleb128 0x3a
 6812 01f9 0B       		.uleb128 0xb
 6813 01fa 3B       		.uleb128 0x3b
 6814 01fb 0B       		.uleb128 0xb
 6815 01fc 27       		.uleb128 0x27
 6816 01fd 19       		.uleb128 0x19
 6817 01fe 49       		.uleb128 0x49
 6818 01ff 13       		.uleb128 0x13
 6819 0200 11       		.uleb128 0x11
 6820 0201 01       		.uleb128 0x1
 6821 0202 12       		.uleb128 0x12
 6822 0203 06       		.uleb128 0x6
 6823 0204 40       		.uleb128 0x40
 6824 0205 18       		.uleb128 0x18
 6825 0206 9742     		.uleb128 0x2117
 6826 0208 19       		.uleb128 0x19
 6827 0209 01       		.uleb128 0x1
 6828 020a 13       		.uleb128 0x13
 6829 020b 00       		.byte	0
 6830 020c 00       		.byte	0
 6831 020d 28       		.uleb128 0x28
 6832 020e 34       		.uleb128 0x34
 6833 020f 00       		.byte	0
 6834 0210 03       		.uleb128 0x3
 6835 0211 0E       		.uleb128 0xe
 6836 0212 3A       		.uleb128 0x3a
 6837 0213 0B       		.uleb128 0xb
 6838 0214 3B       		.uleb128 0x3b
 6839 0215 0B       		.uleb128 0xb
 6840 0216 49       		.uleb128 0x49
 6841 0217 13       		.uleb128 0x13
 6842 0218 02       		.uleb128 0x2
 6843 0219 18       		.uleb128 0x18
 6844 021a 00       		.byte	0
ARM GAS  C:\Users\Phuong\AppData\Local\Temp\cczAMJrc.s 			page 138


 6845 021b 00       		.byte	0
 6846 021c 29       		.uleb128 0x29
 6847 021d 2E       		.uleb128 0x2e
 6848 021e 01       		.byte	0x1
 6849 021f 3F       		.uleb128 0x3f
 6850 0220 19       		.uleb128 0x19
 6851 0221 03       		.uleb128 0x3
 6852 0222 0E       		.uleb128 0xe
 6853 0223 3A       		.uleb128 0x3a
 6854 0224 0B       		.uleb128 0xb
 6855 0225 3B       		.uleb128 0x3b
 6856 0226 0B       		.uleb128 0xb
 6857 0227 27       		.uleb128 0x27
 6858 0228 19       		.uleb128 0x19
 6859 0229 11       		.uleb128 0x11
 6860 022a 01       		.uleb128 0x1
 6861 022b 12       		.uleb128 0x12
 6862 022c 06       		.uleb128 0x6
 6863 022d 40       		.uleb128 0x40
 6864 022e 18       		.uleb128 0x18
 6865 022f 9742     		.uleb128 0x2117
 6866 0231 19       		.uleb128 0x19
 6867 0232 01       		.uleb128 0x1
 6868 0233 13       		.uleb128 0x13
 6869 0234 00       		.byte	0
 6870 0235 00       		.byte	0
 6871 0236 2A       		.uleb128 0x2a
 6872 0237 0B       		.uleb128 0xb
 6873 0238 01       		.byte	0x1
 6874 0239 55       		.uleb128 0x55
 6875 023a 17       		.uleb128 0x17
 6876 023b 00       		.byte	0
 6877 023c 00       		.byte	0
 6878 023d 2B       		.uleb128 0x2b
 6879 023e 34       		.uleb128 0x34
 6880 023f 00       		.byte	0
 6881 0240 03       		.uleb128 0x3
 6882 0241 0E       		.uleb128 0xe
 6883 0242 3A       		.uleb128 0x3a
 6884 0243 0B       		.uleb128 0xb
 6885 0244 3B       		.uleb128 0x3b
 6886 0245 0B       		.uleb128 0xb
 6887 0246 49       		.uleb128 0x49
 6888 0247 13       		.uleb128 0x13
 6889 0248 00       		.byte	0
 6890 0249 00       		.byte	0
 6891 024a 2C       		.uleb128 0x2c
 6892 024b 2E       		.uleb128 0x2e
 6893 024c 01       		.byte	0x1
 6894 024d 3F       		.uleb128 0x3f
 6895 024e 19       		.uleb128 0x19
 6896 024f 03       		.uleb128 0x3
 6897 0250 0E       		.uleb128 0xe
 6898 0251 3A       		.uleb128 0x3a
 6899 0252 0B       		.uleb128 0xb
 6900 0253 3B       		.uleb128 0x3b
 6901 0254 05       		.uleb128 0x5
ARM GAS  C:\Users\Phuong\AppData\Local\Temp\cczAMJrc.s 			page 139


 6902 0255 27       		.uleb128 0x27
 6903 0256 19       		.uleb128 0x19
 6904 0257 49       		.uleb128 0x49
 6905 0258 13       		.uleb128 0x13
 6906 0259 11       		.uleb128 0x11
 6907 025a 01       		.uleb128 0x1
 6908 025b 12       		.uleb128 0x12
 6909 025c 06       		.uleb128 0x6
 6910 025d 40       		.uleb128 0x40
 6911 025e 18       		.uleb128 0x18
 6912 025f 9742     		.uleb128 0x2117
 6913 0261 19       		.uleb128 0x19
 6914 0262 01       		.uleb128 0x1
 6915 0263 13       		.uleb128 0x13
 6916 0264 00       		.byte	0
 6917 0265 00       		.byte	0
 6918 0266 2D       		.uleb128 0x2d
 6919 0267 898201   		.uleb128 0x4109
 6920 026a 01       		.byte	0x1
 6921 026b 11       		.uleb128 0x11
 6922 026c 01       		.uleb128 0x1
 6923 026d 01       		.uleb128 0x1
 6924 026e 13       		.uleb128 0x13
 6925 026f 00       		.byte	0
 6926 0270 00       		.byte	0
 6927 0271 2E       		.uleb128 0x2e
 6928 0272 898201   		.uleb128 0x4109
 6929 0275 01       		.byte	0x1
 6930 0276 11       		.uleb128 0x11
 6931 0277 01       		.uleb128 0x1
 6932 0278 00       		.byte	0
 6933 0279 00       		.byte	0
 6934 027a 2F       		.uleb128 0x2f
 6935 027b 34       		.uleb128 0x34
 6936 027c 00       		.byte	0
 6937 027d 03       		.uleb128 0x3
 6938 027e 0E       		.uleb128 0xe
 6939 027f 3A       		.uleb128 0x3a
 6940 0280 0B       		.uleb128 0xb
 6941 0281 3B       		.uleb128 0x3b
 6942 0282 05       		.uleb128 0x5
 6943 0283 49       		.uleb128 0x49
 6944 0284 13       		.uleb128 0x13
 6945 0285 00       		.byte	0
 6946 0286 00       		.byte	0
 6947 0287 30       		.uleb128 0x30
 6948 0288 34       		.uleb128 0x34
 6949 0289 00       		.byte	0
 6950 028a 03       		.uleb128 0x3
 6951 028b 0E       		.uleb128 0xe
 6952 028c 3A       		.uleb128 0x3a
 6953 028d 0B       		.uleb128 0xb
 6954 028e 3B       		.uleb128 0x3b
 6955 028f 0B       		.uleb128 0xb
 6956 0290 49       		.uleb128 0x49
 6957 0291 13       		.uleb128 0x13
 6958 0292 3F       		.uleb128 0x3f
ARM GAS  C:\Users\Phuong\AppData\Local\Temp\cczAMJrc.s 			page 140


 6959 0293 19       		.uleb128 0x19
 6960 0294 02       		.uleb128 0x2
 6961 0295 18       		.uleb128 0x18
 6962 0296 00       		.byte	0
 6963 0297 00       		.byte	0
 6964 0298 31       		.uleb128 0x31
 6965 0299 2E       		.uleb128 0x2e
 6966 029a 00       		.byte	0
 6967 029b 3F       		.uleb128 0x3f
 6968 029c 19       		.uleb128 0x19
 6969 029d 3C       		.uleb128 0x3c
 6970 029e 19       		.uleb128 0x19
 6971 029f 6E       		.uleb128 0x6e
 6972 02a0 0E       		.uleb128 0xe
 6973 02a1 03       		.uleb128 0x3
 6974 02a2 0E       		.uleb128 0xe
 6975 02a3 3A       		.uleb128 0x3a
 6976 02a4 0B       		.uleb128 0xb
 6977 02a5 3B       		.uleb128 0x3b
 6978 02a6 0B       		.uleb128 0xb
 6979 02a7 00       		.byte	0
 6980 02a8 00       		.byte	0
 6981 02a9 32       		.uleb128 0x32
 6982 02aa 2E       		.uleb128 0x2e
 6983 02ab 00       		.byte	0
 6984 02ac 3F       		.uleb128 0x3f
 6985 02ad 19       		.uleb128 0x19
 6986 02ae 3C       		.uleb128 0x3c
 6987 02af 19       		.uleb128 0x19
 6988 02b0 6E       		.uleb128 0x6e
 6989 02b1 0E       		.uleb128 0xe
 6990 02b2 03       		.uleb128 0x3
 6991 02b3 0E       		.uleb128 0xe
 6992 02b4 00       		.byte	0
 6993 02b5 00       		.byte	0
 6994 02b6 00       		.byte	0
 6995              		.section	.debug_loc,"",%progbits
 6996              	.Ldebug_loc0:
 6997              	.LLST0:
 6998 0000 00000000 		.4byte	.LVL0
 6999 0004 12000000 		.4byte	.LVL1
 7000 0008 0100     		.2byte	0x1
 7001 000a 50       		.byte	0x50
 7002 000b 12000000 		.4byte	.LVL1
 7003 000f 2E000000 		.4byte	.LVL4
 7004 0013 0100     		.2byte	0x1
 7005 0015 57       		.byte	0x57
 7006 0016 2E000000 		.4byte	.LVL4
 7007 001a 30000000 		.4byte	.LVL5
 7008 001e 0100     		.2byte	0x1
 7009 0020 50       		.byte	0x50
 7010 0021 30000000 		.4byte	.LVL5
 7011 0025 34000000 		.4byte	.LVL7
 7012 0029 0100     		.2byte	0x1
 7013 002b 57       		.byte	0x57
 7014 002c 34000000 		.4byte	.LVL7
 7015 0030 36000000 		.4byte	.LFE9
ARM GAS  C:\Users\Phuong\AppData\Local\Temp\cczAMJrc.s 			page 141


 7016 0034 0400     		.2byte	0x4
 7017 0036 F3       		.byte	0xf3
 7018 0037 01       		.uleb128 0x1
 7019 0038 50       		.byte	0x50
 7020 0039 9F       		.byte	0x9f
 7021 003a 00000000 		.4byte	0
 7022 003e 00000000 		.4byte	0
 7023              	.LLST1:
 7024 0042 00000000 		.4byte	.LVL0
 7025 0046 12000000 		.4byte	.LVL1
 7026 004a 0100     		.2byte	0x1
 7027 004c 51       		.byte	0x51
 7028 004d 12000000 		.4byte	.LVL1
 7029 0051 2E000000 		.4byte	.LVL4
 7030 0055 0200     		.2byte	0x2
 7031 0057 91       		.byte	0x91
 7032 0058 64       		.sleb128 -28
 7033 0059 2E000000 		.4byte	.LVL4
 7034 005d 30000000 		.4byte	.LVL5
 7035 0061 0100     		.2byte	0x1
 7036 0063 51       		.byte	0x51
 7037 0064 30000000 		.4byte	.LVL5
 7038 0068 36000000 		.4byte	.LFE9
 7039 006c 0200     		.2byte	0x2
 7040 006e 91       		.byte	0x91
 7041 006f 64       		.sleb128 -28
 7042 0070 00000000 		.4byte	0
 7043 0074 00000000 		.4byte	0
 7044              	.LLST2:
 7045 0078 30000000 		.4byte	.LVL5
 7046 007c 34000000 		.4byte	.LVL6
 7047 0080 0100     		.2byte	0x1
 7048 0082 54       		.byte	0x54
 7049 0083 34000000 		.4byte	.LVL6
 7050 0087 36000000 		.4byte	.LFE9
 7051 008b 0100     		.2byte	0x1
 7052 008d 50       		.byte	0x50
 7053 008e 00000000 		.4byte	0
 7054 0092 00000000 		.4byte	0
 7055              	.LLST3:
 7056 0096 12000000 		.4byte	.LVL1
 7057 009a 2E000000 		.4byte	.LVL4
 7058 009e 0100     		.2byte	0x1
 7059 00a0 55       		.byte	0x55
 7060 00a1 00000000 		.4byte	0
 7061 00a5 00000000 		.4byte	0
 7062              	.LLST4:
 7063 00a9 00000000 		.4byte	.LVL8
 7064 00ad 12000000 		.4byte	.LVL9
 7065 00b1 0100     		.2byte	0x1
 7066 00b3 50       		.byte	0x50
 7067 00b4 12000000 		.4byte	.LVL9
 7068 00b8 2E000000 		.4byte	.LVL12
 7069 00bc 0100     		.2byte	0x1
 7070 00be 57       		.byte	0x57
 7071 00bf 2E000000 		.4byte	.LVL12
 7072 00c3 30000000 		.4byte	.LVL13
ARM GAS  C:\Users\Phuong\AppData\Local\Temp\cczAMJrc.s 			page 142


 7073 00c7 0100     		.2byte	0x1
 7074 00c9 50       		.byte	0x50
 7075 00ca 30000000 		.4byte	.LVL13
 7076 00ce 34000000 		.4byte	.LVL15
 7077 00d2 0100     		.2byte	0x1
 7078 00d4 57       		.byte	0x57
 7079 00d5 34000000 		.4byte	.LVL15
 7080 00d9 36000000 		.4byte	.LFE10
 7081 00dd 0400     		.2byte	0x4
 7082 00df F3       		.byte	0xf3
 7083 00e0 01       		.uleb128 0x1
 7084 00e1 50       		.byte	0x50
 7085 00e2 9F       		.byte	0x9f
 7086 00e3 00000000 		.4byte	0
 7087 00e7 00000000 		.4byte	0
 7088              	.LLST5:
 7089 00eb 00000000 		.4byte	.LVL8
 7090 00ef 12000000 		.4byte	.LVL9
 7091 00f3 0100     		.2byte	0x1
 7092 00f5 51       		.byte	0x51
 7093 00f6 12000000 		.4byte	.LVL9
 7094 00fa 2E000000 		.4byte	.LVL12
 7095 00fe 0200     		.2byte	0x2
 7096 0100 91       		.byte	0x91
 7097 0101 64       		.sleb128 -28
 7098 0102 2E000000 		.4byte	.LVL12
 7099 0106 30000000 		.4byte	.LVL13
 7100 010a 0100     		.2byte	0x1
 7101 010c 51       		.byte	0x51
 7102 010d 30000000 		.4byte	.LVL13
 7103 0111 36000000 		.4byte	.LFE10
 7104 0115 0200     		.2byte	0x2
 7105 0117 91       		.byte	0x91
 7106 0118 64       		.sleb128 -28
 7107 0119 00000000 		.4byte	0
 7108 011d 00000000 		.4byte	0
 7109              	.LLST6:
 7110 0121 30000000 		.4byte	.LVL13
 7111 0125 34000000 		.4byte	.LVL14
 7112 0129 0100     		.2byte	0x1
 7113 012b 54       		.byte	0x54
 7114 012c 34000000 		.4byte	.LVL14
 7115 0130 36000000 		.4byte	.LFE10
 7116 0134 0100     		.2byte	0x1
 7117 0136 50       		.byte	0x50
 7118 0137 00000000 		.4byte	0
 7119 013b 00000000 		.4byte	0
 7120              	.LLST7:
 7121 013f 12000000 		.4byte	.LVL9
 7122 0143 2E000000 		.4byte	.LVL12
 7123 0147 0100     		.2byte	0x1
 7124 0149 55       		.byte	0x55
 7125 014a 00000000 		.4byte	0
 7126 014e 00000000 		.4byte	0
 7127              	.LLST8:
 7128 0152 00000000 		.4byte	.LVL16
 7129 0156 08000000 		.4byte	.LVL17
ARM GAS  C:\Users\Phuong\AppData\Local\Temp\cczAMJrc.s 			page 143


 7130 015a 0100     		.2byte	0x1
 7131 015c 50       		.byte	0x50
 7132 015d 08000000 		.4byte	.LVL17
 7133 0161 48000000 		.4byte	.LVL30
 7134 0165 0100     		.2byte	0x1
 7135 0167 57       		.byte	0x57
 7136 0168 48000000 		.4byte	.LVL30
 7137 016c 4A000000 		.4byte	.LFE5
 7138 0170 0400     		.2byte	0x4
 7139 0172 F3       		.byte	0xf3
 7140 0173 01       		.uleb128 0x1
 7141 0174 50       		.byte	0x50
 7142 0175 9F       		.byte	0x9f
 7143 0176 00000000 		.4byte	0
 7144 017a 00000000 		.4byte	0
 7145              	.LLST9:
 7146 017e 00000000 		.4byte	.LVL16
 7147 0182 0B000000 		.4byte	.LVL18-1
 7148 0186 0100     		.2byte	0x1
 7149 0188 51       		.byte	0x51
 7150 0189 0B000000 		.4byte	.LVL18-1
 7151 018d 2E000000 		.4byte	.LVL23
 7152 0191 0100     		.2byte	0x1
 7153 0193 56       		.byte	0x56
 7154 0194 2E000000 		.4byte	.LVL23
 7155 0198 4A000000 		.4byte	.LFE5
 7156 019c 0400     		.2byte	0x4
 7157 019e F3       		.byte	0xf3
 7158 019f 01       		.uleb128 0x1
 7159 01a0 51       		.byte	0x51
 7160 01a1 9F       		.byte	0x9f
 7161 01a2 00000000 		.4byte	0
 7162 01a6 00000000 		.4byte	0
 7163              	.LLST10:
 7164 01aa 0E000000 		.4byte	.LVL19
 7165 01ae 14000000 		.4byte	.LVL20
 7166 01b2 0100     		.2byte	0x1
 7167 01b4 50       		.byte	0x50
 7168 01b5 14000000 		.4byte	.LVL20
 7169 01b9 44000000 		.4byte	.LVL27
 7170 01bd 0100     		.2byte	0x1
 7171 01bf 55       		.byte	0x55
 7172 01c0 44000000 		.4byte	.LVL27
 7173 01c4 46000000 		.4byte	.LVL28
 7174 01c8 0200     		.2byte	0x2
 7175 01ca 30       		.byte	0x30
 7176 01cb 9F       		.byte	0x9f
 7177 01cc 46000000 		.4byte	.LVL28
 7178 01d0 48000000 		.4byte	.LVL29
 7179 01d4 0100     		.2byte	0x1
 7180 01d6 55       		.byte	0x55
 7181 01d7 48000000 		.4byte	.LVL29
 7182 01db 4A000000 		.4byte	.LFE5
 7183 01df 0100     		.2byte	0x1
 7184 01e1 50       		.byte	0x50
 7185 01e2 00000000 		.4byte	0
 7186 01e6 00000000 		.4byte	0
ARM GAS  C:\Users\Phuong\AppData\Local\Temp\cczAMJrc.s 			page 144


 7187              	.LLST11:
 7188 01ea 14000000 		.4byte	.LVL20
 7189 01ee 46000000 		.4byte	.LVL28
 7190 01f2 0100     		.2byte	0x1
 7191 01f4 54       		.byte	0x54
 7192 01f5 00000000 		.4byte	0
 7193 01f9 00000000 		.4byte	0
 7194              	.LLST12:
 7195 01fd 30000000 		.4byte	.LVL24
 7196 0201 46000000 		.4byte	.LVL28
 7197 0205 0100     		.2byte	0x1
 7198 0207 56       		.byte	0x56
 7199 0208 00000000 		.4byte	0
 7200 020c 00000000 		.4byte	0
 7201              	.LLST13:
 7202 0210 00000000 		.4byte	.LVL31
 7203 0214 0E000000 		.4byte	.LVL32
 7204 0218 0100     		.2byte	0x1
 7205 021a 50       		.byte	0x50
 7206 021b 0E000000 		.4byte	.LVL32
 7207 021f 1C000000 		.4byte	.LVL35
 7208 0223 0100     		.2byte	0x1
 7209 0225 54       		.byte	0x54
 7210 0226 1C000000 		.4byte	.LVL35
 7211 022a 34000000 		.4byte	.LVL38
 7212 022e 0400     		.2byte	0x4
 7213 0230 F3       		.byte	0xf3
 7214 0231 01       		.uleb128 0x1
 7215 0232 50       		.byte	0x50
 7216 0233 9F       		.byte	0x9f
 7217 0234 34000000 		.4byte	.LVL38
 7218 0238 90000000 		.4byte	.LVL49
 7219 023c 0100     		.2byte	0x1
 7220 023e 54       		.byte	0x54
 7221 023f 90000000 		.4byte	.LVL49
 7222 0243 A8000000 		.4byte	.LVL52
 7223 0247 0400     		.2byte	0x4
 7224 0249 F3       		.byte	0xf3
 7225 024a 01       		.uleb128 0x1
 7226 024b 50       		.byte	0x50
 7227 024c 9F       		.byte	0x9f
 7228 024d A8000000 		.4byte	.LVL52
 7229 0251 C4000000 		.4byte	.LVL58
 7230 0255 0100     		.2byte	0x1
 7231 0257 54       		.byte	0x54
 7232 0258 C4000000 		.4byte	.LVL58
 7233 025c E0000000 		.4byte	.LFE7
 7234 0260 0400     		.2byte	0x4
 7235 0262 F3       		.byte	0xf3
 7236 0263 01       		.uleb128 0x1
 7237 0264 50       		.byte	0x50
 7238 0265 9F       		.byte	0x9f
 7239 0266 00000000 		.4byte	0
 7240 026a 00000000 		.4byte	0
 7241              	.LLST14:
 7242 026e C0000000 		.4byte	.LVL57
 7243 0272 C4000000 		.4byte	.LVL58
ARM GAS  C:\Users\Phuong\AppData\Local\Temp\cczAMJrc.s 			page 145


 7244 0276 0200     		.2byte	0x2
 7245 0278 30       		.byte	0x30
 7246 0279 9F       		.byte	0x9f
 7247 027a CA000000 		.4byte	.LVL61
 7248 027e E0000000 		.4byte	.LFE7
 7249 0282 0100     		.2byte	0x1
 7250 0284 50       		.byte	0x50
 7251 0285 00000000 		.4byte	0
 7252 0289 00000000 		.4byte	0
 7253              	.LLST15:
 7254 028d 12000000 		.4byte	.LVL33
 7255 0291 19000000 		.4byte	.LVL34-1
 7256 0295 0100     		.2byte	0x1
 7257 0297 50       		.byte	0x50
 7258 0298 34000000 		.4byte	.LVL38
 7259 029c 3C000000 		.4byte	.LVL39
 7260 02a0 0100     		.2byte	0x1
 7261 02a2 50       		.byte	0x50
 7262 02a3 3C000000 		.4byte	.LVL39
 7263 02a7 40000000 		.4byte	.LVL40
 7264 02ab 0200     		.2byte	0x2
 7265 02ad 74       		.byte	0x74
 7266 02ae 00       		.sleb128 0
 7267 02af 00000000 		.4byte	0
 7268 02b3 00000000 		.4byte	0
 7269              	.LLST16:
 7270 02b7 1C000000 		.4byte	.LVL35
 7271 02bb 2E000000 		.4byte	.LVL36
 7272 02bf 0100     		.2byte	0x1
 7273 02c1 50       		.byte	0x50
 7274 02c2 2E000000 		.4byte	.LVL36
 7275 02c6 34000000 		.4byte	.LVL38
 7276 02ca 0100     		.2byte	0x1
 7277 02cc 54       		.byte	0x54
 7278 02cd C4000000 		.4byte	.LVL58
 7279 02d1 C6000000 		.4byte	.LVL59
 7280 02d5 0100     		.2byte	0x1
 7281 02d7 50       		.byte	0x50
 7282 02d8 C6000000 		.4byte	.LVL59
 7283 02dc C8000000 		.4byte	.LVL60
 7284 02e0 0100     		.2byte	0x1
 7285 02e2 54       		.byte	0x54
 7286 02e3 00000000 		.4byte	0
 7287 02e7 00000000 		.4byte	0
 7288              	.LLST17:
 7289 02eb 4C000000 		.4byte	.LVL41
 7290 02ef 53000000 		.4byte	.LVL42-1
 7291 02f3 0100     		.2byte	0x1
 7292 02f5 50       		.byte	0x50
 7293 02f6 AE000000 		.4byte	.LVL54
 7294 02fa B6000000 		.4byte	.LVL55
 7295 02fe 0100     		.2byte	0x1
 7296 0300 50       		.byte	0x50
 7297 0301 B6000000 		.4byte	.LVL55
 7298 0305 BA000000 		.4byte	.LVL56
 7299 0309 0200     		.2byte	0x2
 7300 030b 74       		.byte	0x74
ARM GAS  C:\Users\Phuong\AppData\Local\Temp\cczAMJrc.s 			page 146


 7301 030c 04       		.sleb128 4
 7302 030d 00000000 		.4byte	0
 7303 0311 00000000 		.4byte	0
 7304              	.LLST18:
 7305 0315 56000000 		.4byte	.LVL43
 7306 0319 68000000 		.4byte	.LVL44
 7307 031d 0100     		.2byte	0x1
 7308 031f 50       		.byte	0x50
 7309 0320 68000000 		.4byte	.LVL44
 7310 0324 AE000000 		.4byte	.LVL54
 7311 0328 0100     		.2byte	0x1
 7312 032a 55       		.byte	0x55
 7313 032b C8000000 		.4byte	.LVL60
 7314 032f CA000000 		.4byte	.LVL61
 7315 0333 0100     		.2byte	0x1
 7316 0335 55       		.byte	0x55
 7317 0336 00000000 		.4byte	0
 7318 033a 00000000 		.4byte	0
 7319              	.LLST19:
 7320 033e 86000000 		.4byte	.LVL47
 7321 0342 8D000000 		.4byte	.LVL48-1
 7322 0346 0100     		.2byte	0x1
 7323 0348 50       		.byte	0x50
 7324 0349 A8000000 		.4byte	.LVL52
 7325 034d AC000000 		.4byte	.LVL53
 7326 0351 0100     		.2byte	0x1
 7327 0353 50       		.byte	0x50
 7328 0354 AC000000 		.4byte	.LVL53
 7329 0358 AE000000 		.4byte	.LVL54
 7330 035c 0200     		.2byte	0x2
 7331 035e 74       		.byte	0x74
 7332 035f 00       		.sleb128 0
 7333 0360 00000000 		.4byte	0
 7334 0364 00000000 		.4byte	0
 7335              	.LLST20:
 7336 0368 90000000 		.4byte	.LVL49
 7337 036c A2000000 		.4byte	.LVL50
 7338 0370 0100     		.2byte	0x1
 7339 0372 50       		.byte	0x50
 7340 0373 A2000000 		.4byte	.LVL50
 7341 0377 A8000000 		.4byte	.LVL52
 7342 037b 0100     		.2byte	0x1
 7343 037d 54       		.byte	0x54
 7344 037e C8000000 		.4byte	.LVL60
 7345 0382 CA000000 		.4byte	.LVL61
 7346 0386 0100     		.2byte	0x1
 7347 0388 50       		.byte	0x50
 7348 0389 00000000 		.4byte	0
 7349 038d 00000000 		.4byte	0
 7350              	.LLST21:
 7351 0391 00000000 		.4byte	.LVL62
 7352 0395 0E000000 		.4byte	.LVL63
 7353 0399 0100     		.2byte	0x1
 7354 039b 50       		.byte	0x50
 7355 039c 0E000000 		.4byte	.LVL63
 7356 03a0 24000000 		.4byte	.LVL66
 7357 03a4 0100     		.2byte	0x1
ARM GAS  C:\Users\Phuong\AppData\Local\Temp\cczAMJrc.s 			page 147


 7358 03a6 54       		.byte	0x54
 7359 03a7 24000000 		.4byte	.LVL66
 7360 03ab 2E000000 		.4byte	.LVL67
 7361 03af 0100     		.2byte	0x1
 7362 03b1 50       		.byte	0x50
 7363 03b2 2E000000 		.4byte	.LVL67
 7364 03b6 92000000 		.4byte	.LVL82
 7365 03ba 0100     		.2byte	0x1
 7366 03bc 54       		.byte	0x54
 7367 03bd 92000000 		.4byte	.LVL82
 7368 03c1 A4000000 		.4byte	.LFE8
 7369 03c5 0400     		.2byte	0x4
 7370 03c7 F3       		.byte	0xf3
 7371 03c8 01       		.uleb128 0x1
 7372 03c9 50       		.byte	0x50
 7373 03ca 9F       		.byte	0x9f
 7374 03cb 00000000 		.4byte	0
 7375 03cf 00000000 		.4byte	0
 7376              	.LLST22:
 7377 03d3 66000000 		.4byte	.LVL75
 7378 03d7 6D000000 		.4byte	.LVL76-1
 7379 03db 0100     		.2byte	0x1
 7380 03dd 50       		.byte	0x50
 7381 03de 88000000 		.4byte	.LVL80
 7382 03e2 8A000000 		.4byte	.LVL81
 7383 03e6 0100     		.2byte	0x1
 7384 03e8 50       		.byte	0x50
 7385 03e9 00000000 		.4byte	0
 7386 03ed 00000000 		.4byte	0
 7387              	.LLST23:
 7388 03f1 32000000 		.4byte	.LVL68
 7389 03f5 39000000 		.4byte	.LVL69-1
 7390 03f9 0100     		.2byte	0x1
 7391 03fb 50       		.byte	0x50
 7392 03fc 54000000 		.4byte	.LVL73
 7393 0400 56000000 		.4byte	.LVL74
 7394 0404 0100     		.2byte	0x1
 7395 0406 50       		.byte	0x50
 7396 0407 00000000 		.4byte	0
 7397 040b 00000000 		.4byte	0
 7398              	.LLST24:
 7399 040f 3C000000 		.4byte	.LVL70
 7400 0413 50000000 		.4byte	.LVL71
 7401 0417 0100     		.2byte	0x1
 7402 0419 50       		.byte	0x50
 7403 041a 50000000 		.4byte	.LVL71
 7404 041e 54000000 		.4byte	.LVL73
 7405 0422 0100     		.2byte	0x1
 7406 0424 55       		.byte	0x55
 7407 0425 00000000 		.4byte	0
 7408 0429 00000000 		.4byte	0
 7409              	.LLST25:
 7410 042d 70000000 		.4byte	.LVL77
 7411 0431 84000000 		.4byte	.LVL78
 7412 0435 0100     		.2byte	0x1
 7413 0437 50       		.byte	0x50
 7414 0438 84000000 		.4byte	.LVL78
ARM GAS  C:\Users\Phuong\AppData\Local\Temp\cczAMJrc.s 			page 148


 7415 043c 88000000 		.4byte	.LVL80
 7416 0440 0100     		.2byte	0x1
 7417 0442 55       		.byte	0x55
 7418 0443 00000000 		.4byte	0
 7419 0447 00000000 		.4byte	0
 7420              	.LLST26:
 7421 044b 00000000 		.4byte	.LVL83
 7422 044f 0D000000 		.4byte	.LVL84-1
 7423 0453 0100     		.2byte	0x1
 7424 0455 50       		.byte	0x50
 7425 0456 0D000000 		.4byte	.LVL84-1
 7426 045a 38000000 		.4byte	.LVL88
 7427 045e 0100     		.2byte	0x1
 7428 0460 54       		.byte	0x54
 7429 0461 38000000 		.4byte	.LVL88
 7430 0465 56000000 		.4byte	.LVL91
 7431 0469 0400     		.2byte	0x4
 7432 046b F3       		.byte	0xf3
 7433 046c 01       		.uleb128 0x1
 7434 046d 50       		.byte	0x50
 7435 046e 9F       		.byte	0x9f
 7436 046f 56000000 		.4byte	.LVL91
 7437 0473 8E000000 		.4byte	.LVL96
 7438 0477 0100     		.2byte	0x1
 7439 0479 54       		.byte	0x54
 7440 047a 8E000000 		.4byte	.LVL96
 7441 047e AC000000 		.4byte	.LVL99
 7442 0482 0400     		.2byte	0x4
 7443 0484 F3       		.byte	0xf3
 7444 0485 01       		.uleb128 0x1
 7445 0486 50       		.byte	0x50
 7446 0487 9F       		.byte	0x9f
 7447 0488 AC000000 		.4byte	.LVL99
 7448 048c B2000000 		.4byte	.LVL100
 7449 0490 0100     		.2byte	0x1
 7450 0492 54       		.byte	0x54
 7451 0493 B2000000 		.4byte	.LVL100
 7452 0497 B8000000 		.4byte	.LVL102
 7453 049b 0400     		.2byte	0x4
 7454 049d F3       		.byte	0xf3
 7455 049e 01       		.uleb128 0x1
 7456 049f 50       		.byte	0x50
 7457 04a0 9F       		.byte	0x9f
 7458 04a1 B8000000 		.4byte	.LVL102
 7459 04a5 BC000000 		.4byte	.LVL103
 7460 04a9 0100     		.2byte	0x1
 7461 04ab 54       		.byte	0x54
 7462 04ac BC000000 		.4byte	.LVL103
 7463 04b0 D4000000 		.4byte	.LFE11
 7464 04b4 0400     		.2byte	0x4
 7465 04b6 F3       		.byte	0xf3
 7466 04b7 01       		.uleb128 0x1
 7467 04b8 50       		.byte	0x50
 7468 04b9 9F       		.byte	0x9f
 7469 04ba 00000000 		.4byte	0
 7470 04be 00000000 		.4byte	0
 7471              	.LLST27:
ARM GAS  C:\Users\Phuong\AppData\Local\Temp\cczAMJrc.s 			page 149


 7472 04c2 00000000 		.4byte	.LVL83
 7473 04c6 0D000000 		.4byte	.LVL84-1
 7474 04ca 0100     		.2byte	0x1
 7475 04cc 51       		.byte	0x51
 7476 04cd 0D000000 		.4byte	.LVL84-1
 7477 04d1 C2000000 		.4byte	.LVL106
 7478 04d5 0100     		.2byte	0x1
 7479 04d7 55       		.byte	0x55
 7480 04d8 C2000000 		.4byte	.LVL106
 7481 04dc D4000000 		.4byte	.LFE11
 7482 04e0 0400     		.2byte	0x4
 7483 04e2 F3       		.byte	0xf3
 7484 04e3 01       		.uleb128 0x1
 7485 04e4 51       		.byte	0x51
 7486 04e5 9F       		.byte	0x9f
 7487 04e6 00000000 		.4byte	0
 7488 04ea 00000000 		.4byte	0
 7489              	.LLST28:
 7490 04ee 00000000 		.4byte	.LVL83
 7491 04f2 0D000000 		.4byte	.LVL84-1
 7492 04f6 0100     		.2byte	0x1
 7493 04f8 52       		.byte	0x52
 7494 04f9 0D000000 		.4byte	.LVL84-1
 7495 04fd C2000000 		.4byte	.LVL107
 7496 0501 0100     		.2byte	0x1
 7497 0503 56       		.byte	0x56
 7498 0504 C2000000 		.4byte	.LVL107
 7499 0508 D4000000 		.4byte	.LFE11
 7500 050c 0400     		.2byte	0x4
 7501 050e F3       		.byte	0xf3
 7502 050f 01       		.uleb128 0x1
 7503 0510 52       		.byte	0x52
 7504 0511 9F       		.byte	0x9f
 7505 0512 00000000 		.4byte	0
 7506 0516 00000000 		.4byte	0
 7507              	.LLST29:
 7508 051a 38000000 		.4byte	.LVL88
 7509 051e 4E000000 		.4byte	.LVL89
 7510 0522 0100     		.2byte	0x1
 7511 0524 50       		.byte	0x50
 7512 0525 4E000000 		.4byte	.LVL89
 7513 0529 56000000 		.4byte	.LVL91
 7514 052d 0100     		.2byte	0x1
 7515 052f 54       		.byte	0x54
 7516 0530 B2000000 		.4byte	.LVL100
 7517 0534 B4000000 		.4byte	.LVL101
 7518 0538 0100     		.2byte	0x1
 7519 053a 50       		.byte	0x50
 7520 053b B4000000 		.4byte	.LVL101
 7521 053f B8000000 		.4byte	.LVL102
 7522 0543 0100     		.2byte	0x1
 7523 0545 54       		.byte	0x54
 7524 0546 00000000 		.4byte	0
 7525 054a 00000000 		.4byte	0
 7526              	.LLST30:
 7527 054e 8E000000 		.4byte	.LVL96
 7528 0552 A4000000 		.4byte	.LVL97
ARM GAS  C:\Users\Phuong\AppData\Local\Temp\cczAMJrc.s 			page 150


 7529 0556 0100     		.2byte	0x1
 7530 0558 50       		.byte	0x50
 7531 0559 A4000000 		.4byte	.LVL97
 7532 055d AC000000 		.4byte	.LVL99
 7533 0561 0100     		.2byte	0x1
 7534 0563 54       		.byte	0x54
 7535 0564 BC000000 		.4byte	.LVL103
 7536 0568 BE000000 		.4byte	.LVL104
 7537 056c 0100     		.2byte	0x1
 7538 056e 50       		.byte	0x50
 7539 056f BE000000 		.4byte	.LVL104
 7540 0573 C0000000 		.4byte	.LVL105
 7541 0577 0100     		.2byte	0x1
 7542 0579 54       		.byte	0x54
 7543 057a 00000000 		.4byte	0
 7544 057e 00000000 		.4byte	0
 7545              	.LLST31:
 7546 0582 00000000 		.4byte	.LVL108
 7547 0586 06000000 		.4byte	.LVL109
 7548 058a 0100     		.2byte	0x1
 7549 058c 50       		.byte	0x50
 7550 058d 06000000 		.4byte	.LVL109
 7551 0591 0C000000 		.4byte	.LVL110
 7552 0595 0400     		.2byte	0x4
 7553 0597 F3       		.byte	0xf3
 7554 0598 01       		.uleb128 0x1
 7555 0599 50       		.byte	0x50
 7556 059a 9F       		.byte	0x9f
 7557 059b 0C000000 		.4byte	.LVL110
 7558 059f 0E000000 		.4byte	.LVL111
 7559 05a3 0100     		.2byte	0x1
 7560 05a5 50       		.byte	0x50
 7561 05a6 0E000000 		.4byte	.LVL111
 7562 05aa 14000000 		.4byte	.LFE1
 7563 05ae 0400     		.2byte	0x4
 7564 05b0 F3       		.byte	0xf3
 7565 05b1 01       		.uleb128 0x1
 7566 05b2 50       		.byte	0x50
 7567 05b3 9F       		.byte	0x9f
 7568 05b4 00000000 		.4byte	0
 7569 05b8 00000000 		.4byte	0
 7570              	.LLST32:
 7571 05bc 00000000 		.4byte	.LVL112
 7572 05c0 12000000 		.4byte	.LVL113
 7573 05c4 0100     		.2byte	0x1
 7574 05c6 50       		.byte	0x50
 7575 05c7 12000000 		.4byte	.LVL113
 7576 05cb 30000000 		.4byte	.LVL116
 7577 05cf 0100     		.2byte	0x1
 7578 05d1 55       		.byte	0x55
 7579 05d2 30000000 		.4byte	.LVL116
 7580 05d6 32000000 		.4byte	.LVL117
 7581 05da 0100     		.2byte	0x1
 7582 05dc 50       		.byte	0x50
 7583 05dd 32000000 		.4byte	.LVL117
 7584 05e1 34000000 		.4byte	.LVL118
 7585 05e5 0100     		.2byte	0x1
ARM GAS  C:\Users\Phuong\AppData\Local\Temp\cczAMJrc.s 			page 151


 7586 05e7 55       		.byte	0x55
 7587 05e8 34000000 		.4byte	.LVL118
 7588 05ec 36000000 		.4byte	.LVL119
 7589 05f0 0100     		.2byte	0x1
 7590 05f2 50       		.byte	0x50
 7591 05f3 36000000 		.4byte	.LVL119
 7592 05f7 36000000 		.4byte	.LVL120
 7593 05fb 0100     		.2byte	0x1
 7594 05fd 55       		.byte	0x55
 7595 05fe 36000000 		.4byte	.LVL120
 7596 0602 3C000000 		.4byte	.LFE2
 7597 0606 0400     		.2byte	0x4
 7598 0608 F3       		.byte	0xf3
 7599 0609 01       		.uleb128 0x1
 7600 060a 50       		.byte	0x50
 7601 060b 9F       		.byte	0x9f
 7602 060c 00000000 		.4byte	0
 7603 0610 00000000 		.4byte	0
 7604              	.LLST33:
 7605 0614 00000000 		.4byte	.LVL112
 7606 0618 12000000 		.4byte	.LVL113
 7607 061c 0100     		.2byte	0x1
 7608 061e 51       		.byte	0x51
 7609 061f 12000000 		.4byte	.LVL113
 7610 0623 30000000 		.4byte	.LVL116
 7611 0627 0100     		.2byte	0x1
 7612 0629 56       		.byte	0x56
 7613 062a 30000000 		.4byte	.LVL116
 7614 062e 36000000 		.4byte	.LVL119
 7615 0632 0100     		.2byte	0x1
 7616 0634 51       		.byte	0x51
 7617 0635 36000000 		.4byte	.LVL119
 7618 0639 36000000 		.4byte	.LVL121
 7619 063d 0100     		.2byte	0x1
 7620 063f 56       		.byte	0x56
 7621 0640 36000000 		.4byte	.LVL121
 7622 0644 3C000000 		.4byte	.LFE2
 7623 0648 0400     		.2byte	0x4
 7624 064a F3       		.byte	0xf3
 7625 064b 01       		.uleb128 0x1
 7626 064c 51       		.byte	0x51
 7627 064d 9F       		.byte	0x9f
 7628 064e 00000000 		.4byte	0
 7629 0652 00000000 		.4byte	0
 7630              	.LLST34:
 7631 0656 12000000 		.4byte	.LVL113
 7632 065a 30000000 		.4byte	.LVL116
 7633 065e 0100     		.2byte	0x1
 7634 0660 54       		.byte	0x54
 7635 0661 00000000 		.4byte	0
 7636 0665 00000000 		.4byte	0
 7637              	.LLST35:
 7638 0669 00000000 		.4byte	.LVL122
 7639 066d 06000000 		.4byte	.LVL123
 7640 0671 0100     		.2byte	0x1
 7641 0673 50       		.byte	0x50
 7642 0674 06000000 		.4byte	.LVL123
ARM GAS  C:\Users\Phuong\AppData\Local\Temp\cczAMJrc.s 			page 152


 7643 0678 18000000 		.4byte	.LVL125
 7644 067c 0100     		.2byte	0x1
 7645 067e 54       		.byte	0x54
 7646 067f 18000000 		.4byte	.LVL125
 7647 0683 1A000000 		.4byte	.LFE3
 7648 0687 0400     		.2byte	0x4
 7649 0689 F3       		.byte	0xf3
 7650 068a 01       		.uleb128 0x1
 7651 068b 50       		.byte	0x50
 7652 068c 9F       		.byte	0x9f
 7653 068d 00000000 		.4byte	0
 7654 0691 00000000 		.4byte	0
 7655              	.LLST36:
 7656 0695 00000000 		.4byte	.LVL126
 7657 0699 08000000 		.4byte	.LVL127
 7658 069d 0100     		.2byte	0x1
 7659 069f 50       		.byte	0x50
 7660 06a0 08000000 		.4byte	.LVL127
 7661 06a4 1E000000 		.4byte	.LVL131
 7662 06a8 0100     		.2byte	0x1
 7663 06aa 55       		.byte	0x55
 7664 06ab 1E000000 		.4byte	.LVL131
 7665 06af 20000000 		.4byte	.LVL132
 7666 06b3 0100     		.2byte	0x1
 7667 06b5 50       		.byte	0x50
 7668 06b6 20000000 		.4byte	.LVL132
 7669 06ba 38000000 		.4byte	.LVL136
 7670 06be 0100     		.2byte	0x1
 7671 06c0 55       		.byte	0x55
 7672 06c1 38000000 		.4byte	.LVL136
 7673 06c5 3A000000 		.4byte	.LFE4
 7674 06c9 0400     		.2byte	0x4
 7675 06cb F3       		.byte	0xf3
 7676 06cc 01       		.uleb128 0x1
 7677 06cd 50       		.byte	0x50
 7678 06ce 9F       		.byte	0x9f
 7679 06cf 00000000 		.4byte	0
 7680 06d3 00000000 		.4byte	0
 7681              	.LLST37:
 7682 06d7 08000000 		.4byte	.LVL127
 7683 06db 1E000000 		.4byte	.LVL131
 7684 06df 0100     		.2byte	0x1
 7685 06e1 54       		.byte	0x54
 7686 06e2 20000000 		.4byte	.LVL132
 7687 06e6 38000000 		.4byte	.LVL135
 7688 06ea 0100     		.2byte	0x1
 7689 06ec 54       		.byte	0x54
 7690 06ed 00000000 		.4byte	0
 7691 06f1 00000000 		.4byte	0
 7692              	.LLST38:
 7693 06f5 00000000 		.4byte	.LVL137
 7694 06f9 0B000000 		.4byte	.LVL139-1
 7695 06fd 0100     		.2byte	0x1
 7696 06ff 50       		.byte	0x50
 7697 0700 0B000000 		.4byte	.LVL139-1
 7698 0704 28000000 		.4byte	.LVL144
 7699 0708 0100     		.2byte	0x1
ARM GAS  C:\Users\Phuong\AppData\Local\Temp\cczAMJrc.s 			page 153


 7700 070a 55       		.byte	0x55
 7701 070b 28000000 		.4byte	.LVL144
 7702 070f 2A000000 		.4byte	.LVL145
 7703 0713 0100     		.2byte	0x1
 7704 0715 50       		.byte	0x50
 7705 0716 2A000000 		.4byte	.LVL145
 7706 071a 38000000 		.4byte	.LVL149
 7707 071e 0100     		.2byte	0x1
 7708 0720 55       		.byte	0x55
 7709 0721 38000000 		.4byte	.LVL149
 7710 0725 50000000 		.4byte	.LVL152
 7711 0729 0400     		.2byte	0x4
 7712 072b F3       		.byte	0xf3
 7713 072c 01       		.uleb128 0x1
 7714 072d 50       		.byte	0x50
 7715 072e 9F       		.byte	0x9f
 7716 072f 50000000 		.4byte	.LVL152
 7717 0733 7C000000 		.4byte	.LVL156
 7718 0737 0100     		.2byte	0x1
 7719 0739 55       		.byte	0x55
 7720 073a 7C000000 		.4byte	.LVL156
 7721 073e 9C000000 		.4byte	.LVL160
 7722 0742 0400     		.2byte	0x4
 7723 0744 F3       		.byte	0xf3
 7724 0745 01       		.uleb128 0x1
 7725 0746 50       		.byte	0x50
 7726 0747 9F       		.byte	0x9f
 7727 0748 9C000000 		.4byte	.LVL160
 7728 074c B0000000 		.4byte	.LVL163
 7729 0750 0100     		.2byte	0x1
 7730 0752 55       		.byte	0x55
 7731 0753 B0000000 		.4byte	.LVL163
 7732 0757 EC000000 		.4byte	.LVL172
 7733 075b 0400     		.2byte	0x4
 7734 075d F3       		.byte	0xf3
 7735 075e 01       		.uleb128 0x1
 7736 075f 50       		.byte	0x50
 7737 0760 9F       		.byte	0x9f
 7738 0761 EC000000 		.4byte	.LVL172
 7739 0765 EE000000 		.4byte	.LVL173
 7740 0769 0100     		.2byte	0x1
 7741 076b 55       		.byte	0x55
 7742 076c EE000000 		.4byte	.LVL173
 7743 0770 0C010000 		.4byte	.LFE6
 7744 0774 0400     		.2byte	0x4
 7745 0776 F3       		.byte	0xf3
 7746 0777 01       		.uleb128 0x1
 7747 0778 50       		.byte	0x50
 7748 0779 9F       		.byte	0x9f
 7749 077a 00000000 		.4byte	0
 7750 077e 00000000 		.4byte	0
 7751              	.LLST39:
 7752 0782 08000000 		.4byte	.LVL138
 7753 0786 28000000 		.4byte	.LVL144
 7754 078a 0200     		.2byte	0x2
 7755 078c 30       		.byte	0x30
 7756 078d 9F       		.byte	0x9f
ARM GAS  C:\Users\Phuong\AppData\Local\Temp\cczAMJrc.s 			page 154


 7757 078e 30000000 		.4byte	.LVL147
 7758 0792 35000000 		.4byte	.LVL148-1
 7759 0796 0100     		.2byte	0x1
 7760 0798 50       		.byte	0x50
 7761 0799 35000000 		.4byte	.LVL148-1
 7762 079d 50000000 		.4byte	.LVL152
 7763 07a1 0100     		.2byte	0x1
 7764 07a3 54       		.byte	0x54
 7765 07a4 50000000 		.4byte	.LVL152
 7766 07a8 6C000000 		.4byte	.LVL153
 7767 07ac 0100     		.2byte	0x1
 7768 07ae 50       		.byte	0x50
 7769 07af 6C000000 		.4byte	.LVL153
 7770 07b3 98000000 		.4byte	.LVL159
 7771 07b7 0100     		.2byte	0x1
 7772 07b9 54       		.byte	0x54
 7773 07ba 98000000 		.4byte	.LVL159
 7774 07be 9C000000 		.4byte	.LVL160
 7775 07c2 0200     		.2byte	0x2
 7776 07c4 30       		.byte	0x30
 7777 07c5 9F       		.byte	0x9f
 7778 07c6 9C000000 		.4byte	.LVL160
 7779 07ca E8000000 		.4byte	.LVL171
 7780 07ce 0100     		.2byte	0x1
 7781 07d0 54       		.byte	0x54
 7782 07d1 E8000000 		.4byte	.LVL171
 7783 07d5 EE000000 		.4byte	.LVL173
 7784 07d9 0200     		.2byte	0x2
 7785 07db 30       		.byte	0x30
 7786 07dc 9F       		.byte	0x9f
 7787 07dd EE000000 		.4byte	.LVL173
 7788 07e1 F2000000 		.4byte	.LVL174
 7789 07e5 0100     		.2byte	0x1
 7790 07e7 54       		.byte	0x54
 7791 07e8 F2000000 		.4byte	.LVL174
 7792 07ec 0C010000 		.4byte	.LFE6
 7793 07f0 0100     		.2byte	0x1
 7794 07f2 50       		.byte	0x50
 7795 07f3 00000000 		.4byte	0
 7796 07f7 00000000 		.4byte	0
 7797              	.LLST40:
 7798 07fb 0E000000 		.4byte	.LVL140
 7799 07ff 22000000 		.4byte	.LVL141
 7800 0803 0100     		.2byte	0x1
 7801 0805 50       		.byte	0x50
 7802 0806 22000000 		.4byte	.LVL141
 7803 080a 26000000 		.4byte	.LVL143
 7804 080e 0100     		.2byte	0x1
 7805 0810 54       		.byte	0x54
 7806 0811 EC000000 		.4byte	.LVL172
 7807 0815 EE000000 		.4byte	.LVL173
 7808 0819 0100     		.2byte	0x1
 7809 081b 50       		.byte	0x50
 7810 081c 00000000 		.4byte	0
 7811 0820 00000000 		.4byte	0
 7812              	.LLST41:
 7813 0824 28000000 		.4byte	.LVL144
ARM GAS  C:\Users\Phuong\AppData\Local\Temp\cczAMJrc.s 			page 155


 7814 0828 2A000000 		.4byte	.LVL145
 7815 082c 0100     		.2byte	0x1
 7816 082e 50       		.byte	0x50
 7817 082f 2A000000 		.4byte	.LVL145
 7818 0833 38000000 		.4byte	.LVL149
 7819 0837 0100     		.2byte	0x1
 7820 0839 55       		.byte	0x55
 7821 083a 38000000 		.4byte	.LVL149
 7822 083e 50000000 		.4byte	.LVL152
 7823 0842 0400     		.2byte	0x4
 7824 0844 F3       		.byte	0xf3
 7825 0845 01       		.uleb128 0x1
 7826 0846 50       		.byte	0x50
 7827 0847 9F       		.byte	0x9f
 7828 0848 50000000 		.4byte	.LVL152
 7829 084c 7C000000 		.4byte	.LVL156
 7830 0850 0100     		.2byte	0x1
 7831 0852 55       		.byte	0x55
 7832 0853 7C000000 		.4byte	.LVL156
 7833 0857 9C000000 		.4byte	.LVL160
 7834 085b 0400     		.2byte	0x4
 7835 085d F3       		.byte	0xf3
 7836 085e 01       		.uleb128 0x1
 7837 085f 50       		.byte	0x50
 7838 0860 9F       		.byte	0x9f
 7839 0861 9C000000 		.4byte	.LVL160
 7840 0865 B0000000 		.4byte	.LVL163
 7841 0869 0100     		.2byte	0x1
 7842 086b 55       		.byte	0x55
 7843 086c B0000000 		.4byte	.LVL163
 7844 0870 EC000000 		.4byte	.LVL172
 7845 0874 0400     		.2byte	0x4
 7846 0876 F3       		.byte	0xf3
 7847 0877 01       		.uleb128 0x1
 7848 0878 50       		.byte	0x50
 7849 0879 9F       		.byte	0x9f
 7850 087a 00000000 		.4byte	0
 7851 087e 00000000 		.4byte	0
 7852              	.LLST42:
 7853 0882 38000000 		.4byte	.LVL149
 7854 0886 4C000000 		.4byte	.LVL150
 7855 088a 0100     		.2byte	0x1
 7856 088c 50       		.byte	0x50
 7857 088d 4C000000 		.4byte	.LVL150
 7858 0891 50000000 		.4byte	.LVL152
 7859 0895 0100     		.2byte	0x1
 7860 0897 55       		.byte	0x55
 7861 0898 00000000 		.4byte	0
 7862 089c 00000000 		.4byte	0
 7863              	.LLST43:
 7864 08a0 7C000000 		.4byte	.LVL156
 7865 08a4 90000000 		.4byte	.LVL157
 7866 08a8 0100     		.2byte	0x1
 7867 08aa 50       		.byte	0x50
 7868 08ab 90000000 		.4byte	.LVL157
 7869 08af 9C000000 		.4byte	.LVL160
 7870 08b3 0100     		.2byte	0x1
ARM GAS  C:\Users\Phuong\AppData\Local\Temp\cczAMJrc.s 			page 156


 7871 08b5 55       		.byte	0x55
 7872 08b6 00000000 		.4byte	0
 7873 08ba 00000000 		.4byte	0
 7874              	.LLST44:
 7875 08be CA000000 		.4byte	.LVL167
 7876 08c2 EC000000 		.4byte	.LVL172
 7877 08c6 0100     		.2byte	0x1
 7878 08c8 55       		.byte	0x55
 7879 08c9 00000000 		.4byte	0
 7880 08cd 00000000 		.4byte	0
 7881              	.LLST45:
 7882 08d1 B0000000 		.4byte	.LVL163
 7883 08d5 C4000000 		.4byte	.LVL164
 7884 08d9 0100     		.2byte	0x1
 7885 08db 50       		.byte	0x50
 7886 08dc C4000000 		.4byte	.LVL164
 7887 08e0 C8000000 		.4byte	.LVL166
 7888 08e4 0100     		.2byte	0x1
 7889 08e6 55       		.byte	0x55
 7890 08e7 00000000 		.4byte	0
 7891 08eb 00000000 		.4byte	0
 7892              	.LLST46:
 7893 08ef 00000000 		.4byte	.LVL175
 7894 08f3 19000000 		.4byte	.LVL177-1
 7895 08f7 0100     		.2byte	0x1
 7896 08f9 50       		.byte	0x50
 7897 08fa 19000000 		.4byte	.LVL177-1
 7898 08fe 1C000000 		.4byte	.LVL178
 7899 0902 0100     		.2byte	0x1
 7900 0904 54       		.byte	0x54
 7901 0905 1C000000 		.4byte	.LVL178
 7902 0909 40000000 		.4byte	.LVL182
 7903 090d 0400     		.2byte	0x4
 7904 090f F3       		.byte	0xf3
 7905 0910 01       		.uleb128 0x1
 7906 0911 50       		.byte	0x50
 7907 0912 9F       		.byte	0x9f
 7908 0913 40000000 		.4byte	.LVL182
 7909 0917 43000000 		.4byte	.LVL183-1
 7910 091b 0100     		.2byte	0x1
 7911 091d 50       		.byte	0x50
 7912 091e 43000000 		.4byte	.LVL183-1
 7913 0922 6C000000 		.4byte	.LVL188
 7914 0926 0100     		.2byte	0x1
 7915 0928 54       		.byte	0x54
 7916 0929 6C000000 		.4byte	.LVL188
 7917 092d 94000000 		.4byte	.LVL194
 7918 0931 0400     		.2byte	0x4
 7919 0933 F3       		.byte	0xf3
 7920 0934 01       		.uleb128 0x1
 7921 0935 50       		.byte	0x50
 7922 0936 9F       		.byte	0x9f
 7923 0937 94000000 		.4byte	.LVL194
 7924 093b A0000000 		.4byte	.LVL195
 7925 093f 0100     		.2byte	0x1
 7926 0941 54       		.byte	0x54
 7927 0942 A0000000 		.4byte	.LVL195
ARM GAS  C:\Users\Phuong\AppData\Local\Temp\cczAMJrc.s 			page 157


 7928 0946 B4000000 		.4byte	.LFE12
 7929 094a 0400     		.2byte	0x4
 7930 094c F3       		.byte	0xf3
 7931 094d 01       		.uleb128 0x1
 7932 094e 50       		.byte	0x50
 7933 094f 9F       		.byte	0x9f
 7934 0950 00000000 		.4byte	0
 7935 0954 00000000 		.4byte	0
 7936              	.LLST47:
 7937 0958 00000000 		.4byte	.LVL175
 7938 095c 19000000 		.4byte	.LVL177-1
 7939 0960 0100     		.2byte	0x1
 7940 0962 51       		.byte	0x51
 7941 0963 19000000 		.4byte	.LVL177-1
 7942 0967 40000000 		.4byte	.LVL182
 7943 096b 0100     		.2byte	0x1
 7944 096d 55       		.byte	0x55
 7945 096e 40000000 		.4byte	.LVL182
 7946 0972 43000000 		.4byte	.LVL183-1
 7947 0976 0100     		.2byte	0x1
 7948 0978 51       		.byte	0x51
 7949 0979 43000000 		.4byte	.LVL183-1
 7950 097d A4000000 		.4byte	.LVL197
 7951 0981 0100     		.2byte	0x1
 7952 0983 55       		.byte	0x55
 7953 0984 A4000000 		.4byte	.LVL197
 7954 0988 B4000000 		.4byte	.LFE12
 7955 098c 0400     		.2byte	0x4
 7956 098e F3       		.byte	0xf3
 7957 098f 01       		.uleb128 0x1
 7958 0990 51       		.byte	0x51
 7959 0991 9F       		.byte	0x9f
 7960 0992 00000000 		.4byte	0
 7961 0996 00000000 		.4byte	0
 7962              	.LLST48:
 7963 099a 00000000 		.4byte	.LVL175
 7964 099e 19000000 		.4byte	.LVL177-1
 7965 09a2 0100     		.2byte	0x1
 7966 09a4 52       		.byte	0x52
 7967 09a5 19000000 		.4byte	.LVL177-1
 7968 09a9 40000000 		.4byte	.LVL182
 7969 09ad 0100     		.2byte	0x1
 7970 09af 56       		.byte	0x56
 7971 09b0 40000000 		.4byte	.LVL182
 7972 09b4 43000000 		.4byte	.LVL183-1
 7973 09b8 0100     		.2byte	0x1
 7974 09ba 52       		.byte	0x52
 7975 09bb 43000000 		.4byte	.LVL183-1
 7976 09bf A4000000 		.4byte	.LVL198
 7977 09c3 0100     		.2byte	0x1
 7978 09c5 56       		.byte	0x56
 7979 09c6 A4000000 		.4byte	.LVL198
 7980 09ca B4000000 		.4byte	.LFE12
 7981 09ce 0400     		.2byte	0x4
 7982 09d0 F3       		.byte	0xf3
 7983 09d1 01       		.uleb128 0x1
 7984 09d2 52       		.byte	0x52
ARM GAS  C:\Users\Phuong\AppData\Local\Temp\cczAMJrc.s 			page 158


 7985 09d3 9F       		.byte	0x9f
 7986 09d4 00000000 		.4byte	0
 7987 09d8 00000000 		.4byte	0
 7988              	.LLST49:
 7989 09dc 16000000 		.4byte	.LVL176
 7990 09e0 40000000 		.4byte	.LVL182
 7991 09e4 0200     		.2byte	0x2
 7992 09e6 32       		.byte	0x32
 7993 09e7 9F       		.byte	0x9f
 7994 09e8 66000000 		.4byte	.LVL186
 7995 09ec 90000000 		.4byte	.LVL192
 7996 09f0 0200     		.2byte	0x2
 7997 09f2 31       		.byte	0x31
 7998 09f3 9F       		.byte	0x9f
 7999 09f4 90000000 		.4byte	.LVL192
 8000 09f8 94000000 		.4byte	.LVL194
 8001 09fc 0200     		.2byte	0x2
 8002 09fe 32       		.byte	0x32
 8003 09ff 9F       		.byte	0x9f
 8004 0a00 A0000000 		.4byte	.LVL195
 8005 0a04 A2000000 		.4byte	.LVL196
 8006 0a08 0200     		.2byte	0x2
 8007 0a0a 31       		.byte	0x31
 8008 0a0b 9F       		.byte	0x9f
 8009 0a0c A2000000 		.4byte	.LVL196
 8010 0a10 B4000000 		.4byte	.LFE12
 8011 0a14 0100     		.2byte	0x1
 8012 0a16 50       		.byte	0x50
 8013 0a17 00000000 		.4byte	0
 8014 0a1b 00000000 		.4byte	0
 8015              	.LLST50:
 8016 0a1f 1C000000 		.4byte	.LVL178
 8017 0a23 20000000 		.4byte	.LVL179
 8018 0a27 0100     		.2byte	0x1
 8019 0a29 50       		.byte	0x50
 8020 0a2a 20000000 		.4byte	.LVL179
 8021 0a2e 40000000 		.4byte	.LVL182
 8022 0a32 0100     		.2byte	0x1
 8023 0a34 54       		.byte	0x54
 8024 0a35 90000000 		.4byte	.LVL192
 8025 0a39 92000000 		.4byte	.LVL193
 8026 0a3d 0100     		.2byte	0x1
 8027 0a3f 50       		.byte	0x50
 8028 0a40 92000000 		.4byte	.LVL193
 8029 0a44 94000000 		.4byte	.LVL194
 8030 0a48 0100     		.2byte	0x1
 8031 0a4a 54       		.byte	0x54
 8032 0a4b 00000000 		.4byte	0
 8033 0a4f 00000000 		.4byte	0
 8034              	.LLST51:
 8035 0a53 40000000 		.4byte	.LVL182
 8036 0a57 43000000 		.4byte	.LVL183-1
 8037 0a5b 0100     		.2byte	0x1
 8038 0a5d 50       		.byte	0x50
 8039 0a5e 43000000 		.4byte	.LVL183-1
 8040 0a62 6C000000 		.4byte	.LVL188
 8041 0a66 0100     		.2byte	0x1
ARM GAS  C:\Users\Phuong\AppData\Local\Temp\cczAMJrc.s 			page 159


 8042 0a68 54       		.byte	0x54
 8043 0a69 6C000000 		.4byte	.LVL188
 8044 0a6d 90000000 		.4byte	.LVL192
 8045 0a71 0400     		.2byte	0x4
 8046 0a73 F3       		.byte	0xf3
 8047 0a74 01       		.uleb128 0x1
 8048 0a75 50       		.byte	0x50
 8049 0a76 9F       		.byte	0x9f
 8050 0a77 94000000 		.4byte	.LVL194
 8051 0a7b A0000000 		.4byte	.LVL195
 8052 0a7f 0100     		.2byte	0x1
 8053 0a81 54       		.byte	0x54
 8054 0a82 A0000000 		.4byte	.LVL195
 8055 0a86 A2000000 		.4byte	.LVL196
 8056 0a8a 0400     		.2byte	0x4
 8057 0a8c F3       		.byte	0xf3
 8058 0a8d 01       		.uleb128 0x1
 8059 0a8e 50       		.byte	0x50
 8060 0a8f 9F       		.byte	0x9f
 8061 0a90 00000000 		.4byte	0
 8062 0a94 00000000 		.4byte	0
 8063              	.LLST52:
 8064 0a98 6C000000 		.4byte	.LVL188
 8065 0a9c 70000000 		.4byte	.LVL189
 8066 0aa0 0100     		.2byte	0x1
 8067 0aa2 50       		.byte	0x50
 8068 0aa3 70000000 		.4byte	.LVL189
 8069 0aa7 90000000 		.4byte	.LVL192
 8070 0aab 0100     		.2byte	0x1
 8071 0aad 54       		.byte	0x54
 8072 0aae A0000000 		.4byte	.LVL195
 8073 0ab2 A2000000 		.4byte	.LVL196
 8074 0ab6 0100     		.2byte	0x1
 8075 0ab8 50       		.byte	0x50
 8076 0ab9 00000000 		.4byte	0
 8077 0abd 00000000 		.4byte	0
 8078              	.LLST53:
 8079 0ac1 00000000 		.4byte	.LVL199
 8080 0ac5 19000000 		.4byte	.LVL201-1
 8081 0ac9 0100     		.2byte	0x1
 8082 0acb 50       		.byte	0x50
 8083 0acc 19000000 		.4byte	.LVL201-1
 8084 0ad0 1C000000 		.4byte	.LVL202
 8085 0ad4 0100     		.2byte	0x1
 8086 0ad6 54       		.byte	0x54
 8087 0ad7 1C000000 		.4byte	.LVL202
 8088 0adb 40000000 		.4byte	.LVL206
 8089 0adf 0400     		.2byte	0x4
 8090 0ae1 F3       		.byte	0xf3
 8091 0ae2 01       		.uleb128 0x1
 8092 0ae3 50       		.byte	0x50
 8093 0ae4 9F       		.byte	0x9f
 8094 0ae5 40000000 		.4byte	.LVL206
 8095 0ae9 4A000000 		.4byte	.LVL208
 8096 0aed 0100     		.2byte	0x1
 8097 0aef 50       		.byte	0x50
 8098 0af0 4A000000 		.4byte	.LVL208
ARM GAS  C:\Users\Phuong\AppData\Local\Temp\cczAMJrc.s 			page 160


 8099 0af4 70000000 		.4byte	.LVL215
 8100 0af8 0100     		.2byte	0x1
 8101 0afa 54       		.byte	0x54
 8102 0afb 70000000 		.4byte	.LVL215
 8103 0aff 94000000 		.4byte	.LVL219
 8104 0b03 0400     		.2byte	0x4
 8105 0b05 F3       		.byte	0xf3
 8106 0b06 01       		.uleb128 0x1
 8107 0b07 50       		.byte	0x50
 8108 0b08 9F       		.byte	0x9f
 8109 0b09 94000000 		.4byte	.LVL219
 8110 0b0d B8000000 		.4byte	.LVL228
 8111 0b11 0100     		.2byte	0x1
 8112 0b13 54       		.byte	0x54
 8113 0b14 B8000000 		.4byte	.LVL228
 8114 0b18 DC000000 		.4byte	.LVL232
 8115 0b1c 0400     		.2byte	0x4
 8116 0b1e F3       		.byte	0xf3
 8117 0b1f 01       		.uleb128 0x1
 8118 0b20 50       		.byte	0x50
 8119 0b21 9F       		.byte	0x9f
 8120 0b22 DC000000 		.4byte	.LVL232
 8121 0b26 EC000000 		.4byte	.LVL235
 8122 0b2a 0100     		.2byte	0x1
 8123 0b2c 54       		.byte	0x54
 8124 0b2d EC000000 		.4byte	.LVL235
 8125 0b31 F0000000 		.4byte	.LVL237
 8126 0b35 0400     		.2byte	0x4
 8127 0b37 F3       		.byte	0xf3
 8128 0b38 01       		.uleb128 0x1
 8129 0b39 50       		.byte	0x50
 8130 0b3a 9F       		.byte	0x9f
 8131 0b3b F0000000 		.4byte	.LVL237
 8132 0b3f F8000000 		.4byte	.LVL238
 8133 0b43 0100     		.2byte	0x1
 8134 0b45 54       		.byte	0x54
 8135 0b46 F8000000 		.4byte	.LVL238
 8136 0b4a 10010000 		.4byte	.LFE13
 8137 0b4e 0400     		.2byte	0x4
 8138 0b50 F3       		.byte	0xf3
 8139 0b51 01       		.uleb128 0x1
 8140 0b52 50       		.byte	0x50
 8141 0b53 9F       		.byte	0x9f
 8142 0b54 00000000 		.4byte	0
 8143 0b58 00000000 		.4byte	0
 8144              	.LLST54:
 8145 0b5c 00000000 		.4byte	.LVL199
 8146 0b60 19000000 		.4byte	.LVL201-1
 8147 0b64 0100     		.2byte	0x1
 8148 0b66 51       		.byte	0x51
 8149 0b67 19000000 		.4byte	.LVL201-1
 8150 0b6b 40000000 		.4byte	.LVL206
 8151 0b6f 0100     		.2byte	0x1
 8152 0b71 56       		.byte	0x56
 8153 0b72 40000000 		.4byte	.LVL206
 8154 0b76 48000000 		.4byte	.LVL207
 8155 0b7a 0100     		.2byte	0x1
ARM GAS  C:\Users\Phuong\AppData\Local\Temp\cczAMJrc.s 			page 161


 8156 0b7c 51       		.byte	0x51
 8157 0b7d 48000000 		.4byte	.LVL207
 8158 0b81 98000000 		.4byte	.LVL220
 8159 0b85 0100     		.2byte	0x1
 8160 0b87 56       		.byte	0x56
 8161 0b88 98000000 		.4byte	.LVL220
 8162 0b8c EC000000 		.4byte	.LVL235
 8163 0b90 0400     		.2byte	0x4
 8164 0b92 F3       		.byte	0xf3
 8165 0b93 01       		.uleb128 0x1
 8166 0b94 51       		.byte	0x51
 8167 0b95 9F       		.byte	0x9f
 8168 0b96 EC000000 		.4byte	.LVL235
 8169 0b9a FC000000 		.4byte	.LVL240
 8170 0b9e 0100     		.2byte	0x1
 8171 0ba0 56       		.byte	0x56
 8172 0ba1 FC000000 		.4byte	.LVL240
 8173 0ba5 10010000 		.4byte	.LFE13
 8174 0ba9 0400     		.2byte	0x4
 8175 0bab F3       		.byte	0xf3
 8176 0bac 01       		.uleb128 0x1
 8177 0bad 51       		.byte	0x51
 8178 0bae 9F       		.byte	0x9f
 8179 0baf 00000000 		.4byte	0
 8180 0bb3 00000000 		.4byte	0
 8181              	.LLST55:
 8182 0bb7 00000000 		.4byte	.LVL199
 8183 0bbb 19000000 		.4byte	.LVL201-1
 8184 0bbf 0100     		.2byte	0x1
 8185 0bc1 52       		.byte	0x52
 8186 0bc2 19000000 		.4byte	.LVL201-1
 8187 0bc6 40000000 		.4byte	.LVL206
 8188 0bca 0100     		.2byte	0x1
 8189 0bcc 55       		.byte	0x55
 8190 0bcd 40000000 		.4byte	.LVL206
 8191 0bd1 4B000000 		.4byte	.LVL209-1
 8192 0bd5 0100     		.2byte	0x1
 8193 0bd7 52       		.byte	0x52
 8194 0bd8 4B000000 		.4byte	.LVL209-1
 8195 0bdc 00010000 		.4byte	.LVL242
 8196 0be0 0100     		.2byte	0x1
 8197 0be2 55       		.byte	0x55
 8198 0be3 00010000 		.4byte	.LVL242
 8199 0be7 10010000 		.4byte	.LFE13
 8200 0beb 0400     		.2byte	0x4
 8201 0bed F3       		.byte	0xf3
 8202 0bee 01       		.uleb128 0x1
 8203 0bef 52       		.byte	0x52
 8204 0bf0 9F       		.byte	0x9f
 8205 0bf1 00000000 		.4byte	0
 8206 0bf5 00000000 		.4byte	0
 8207              	.LLST56:
 8208 0bf9 16000000 		.4byte	.LVL200
 8209 0bfd 40000000 		.4byte	.LVL206
 8210 0c01 0200     		.2byte	0x2
 8211 0c03 32       		.byte	0x32
 8212 0c04 9F       		.byte	0x9f
ARM GAS  C:\Users\Phuong\AppData\Local\Temp\cczAMJrc.s 			page 162


 8213 0c05 6A000000 		.4byte	.LVL213
 8214 0c09 94000000 		.4byte	.LVL219
 8215 0c0d 0200     		.2byte	0x2
 8216 0c0f 31       		.byte	0x31
 8217 0c10 9F       		.byte	0x9f
 8218 0c11 B2000000 		.4byte	.LVL226
 8219 0c15 DC000000 		.4byte	.LVL232
 8220 0c19 0200     		.2byte	0x2
 8221 0c1b 31       		.byte	0x31
 8222 0c1c 9F       		.byte	0x9f
 8223 0c1d E8000000 		.4byte	.LVL234
 8224 0c21 EC000000 		.4byte	.LVL235
 8225 0c25 0200     		.2byte	0x2
 8226 0c27 30       		.byte	0x30
 8227 0c28 9F       		.byte	0x9f
 8228 0c29 EC000000 		.4byte	.LVL235
 8229 0c2d F0000000 		.4byte	.LVL237
 8230 0c31 0200     		.2byte	0x2
 8231 0c33 32       		.byte	0x32
 8232 0c34 9F       		.byte	0x9f
 8233 0c35 F8000000 		.4byte	.LVL238
 8234 0c39 FE000000 		.4byte	.LVL241
 8235 0c3d 0200     		.2byte	0x2
 8236 0c3f 31       		.byte	0x31
 8237 0c40 9F       		.byte	0x9f
 8238 0c41 FE000000 		.4byte	.LVL241
 8239 0c45 10010000 		.4byte	.LFE13
 8240 0c49 0100     		.2byte	0x1
 8241 0c4b 50       		.byte	0x50
 8242 0c4c 00000000 		.4byte	0
 8243 0c50 00000000 		.4byte	0
 8244              	.LLST57:
 8245 0c54 1C000000 		.4byte	.LVL202
 8246 0c58 20000000 		.4byte	.LVL203
 8247 0c5c 0100     		.2byte	0x1
 8248 0c5e 50       		.byte	0x50
 8249 0c5f 20000000 		.4byte	.LVL203
 8250 0c63 40000000 		.4byte	.LVL206
 8251 0c67 0100     		.2byte	0x1
 8252 0c69 54       		.byte	0x54
 8253 0c6a EC000000 		.4byte	.LVL235
 8254 0c6e EE000000 		.4byte	.LVL236
 8255 0c72 0100     		.2byte	0x1
 8256 0c74 50       		.byte	0x50
 8257 0c75 EE000000 		.4byte	.LVL236
 8258 0c79 F0000000 		.4byte	.LVL237
 8259 0c7d 0100     		.2byte	0x1
 8260 0c7f 54       		.byte	0x54
 8261 0c80 00000000 		.4byte	0
 8262 0c84 00000000 		.4byte	0
 8263              	.LLST58:
 8264 0c88 40000000 		.4byte	.LVL206
 8265 0c8c 4A000000 		.4byte	.LVL208
 8266 0c90 0100     		.2byte	0x1
 8267 0c92 50       		.byte	0x50
 8268 0c93 4A000000 		.4byte	.LVL208
 8269 0c97 70000000 		.4byte	.LVL215
ARM GAS  C:\Users\Phuong\AppData\Local\Temp\cczAMJrc.s 			page 163


 8270 0c9b 0100     		.2byte	0x1
 8271 0c9d 54       		.byte	0x54
 8272 0c9e 70000000 		.4byte	.LVL215
 8273 0ca2 94000000 		.4byte	.LVL219
 8274 0ca6 0400     		.2byte	0x4
 8275 0ca8 F3       		.byte	0xf3
 8276 0ca9 01       		.uleb128 0x1
 8277 0caa 50       		.byte	0x50
 8278 0cab 9F       		.byte	0x9f
 8279 0cac 94000000 		.4byte	.LVL219
 8280 0cb0 B8000000 		.4byte	.LVL228
 8281 0cb4 0100     		.2byte	0x1
 8282 0cb6 54       		.byte	0x54
 8283 0cb7 B8000000 		.4byte	.LVL228
 8284 0cbb DC000000 		.4byte	.LVL232
 8285 0cbf 0400     		.2byte	0x4
 8286 0cc1 F3       		.byte	0xf3
 8287 0cc2 01       		.uleb128 0x1
 8288 0cc3 50       		.byte	0x50
 8289 0cc4 9F       		.byte	0x9f
 8290 0cc5 DC000000 		.4byte	.LVL232
 8291 0cc9 EC000000 		.4byte	.LVL235
 8292 0ccd 0100     		.2byte	0x1
 8293 0ccf 54       		.byte	0x54
 8294 0cd0 F0000000 		.4byte	.LVL237
 8295 0cd4 F8000000 		.4byte	.LVL238
 8296 0cd8 0100     		.2byte	0x1
 8297 0cda 54       		.byte	0x54
 8298 0cdb F8000000 		.4byte	.LVL238
 8299 0cdf FE000000 		.4byte	.LVL241
 8300 0ce3 0400     		.2byte	0x4
 8301 0ce5 F3       		.byte	0xf3
 8302 0ce6 01       		.uleb128 0x1
 8303 0ce7 50       		.byte	0x50
 8304 0ce8 9F       		.byte	0x9f
 8305 0ce9 00000000 		.4byte	0
 8306 0ced 00000000 		.4byte	0
 8307              	.LLST59:
 8308 0cf1 58000000 		.4byte	.LVL210
 8309 0cf5 62000000 		.4byte	.LVL211
 8310 0cf9 0100     		.2byte	0x1
 8311 0cfb 50       		.byte	0x50
 8312 0cfc 94000000 		.4byte	.LVL219
 8313 0d00 9A000000 		.4byte	.LVL221
 8314 0d04 0100     		.2byte	0x1
 8315 0d06 50       		.byte	0x50
 8316 0d07 00000000 		.4byte	0
 8317 0d0b 00000000 		.4byte	0
 8318              	.LLST60:
 8319 0d0f 70000000 		.4byte	.LVL215
 8320 0d13 74000000 		.4byte	.LVL216
 8321 0d17 0100     		.2byte	0x1
 8322 0d19 50       		.byte	0x50
 8323 0d1a 74000000 		.4byte	.LVL216
 8324 0d1e 94000000 		.4byte	.LVL219
 8325 0d22 0100     		.2byte	0x1
 8326 0d24 54       		.byte	0x54
ARM GAS  C:\Users\Phuong\AppData\Local\Temp\cczAMJrc.s 			page 164


 8327 0d25 F8000000 		.4byte	.LVL238
 8328 0d29 FA000000 		.4byte	.LVL239
 8329 0d2d 0100     		.2byte	0x1
 8330 0d2f 50       		.byte	0x50
 8331 0d30 FA000000 		.4byte	.LVL239
 8332 0d34 FC000000 		.4byte	.LVL240
 8333 0d38 0100     		.2byte	0x1
 8334 0d3a 54       		.byte	0x54
 8335 0d3b 00000000 		.4byte	0
 8336 0d3f 00000000 		.4byte	0
 8337              	.LLST61:
 8338 0d43 98000000 		.4byte	.LVL220
 8339 0d47 EC000000 		.4byte	.LVL235
 8340 0d4b 0500     		.2byte	0x5
 8341 0d4d 76       		.byte	0x76
 8342 0d4e 00       		.sleb128 0
 8343 0d4f 34       		.byte	0x34
 8344 0d50 1B       		.byte	0x1b
 8345 0d51 9F       		.byte	0x9f
 8346 0d52 FC000000 		.4byte	.LVL240
 8347 0d56 FE000000 		.4byte	.LVL241
 8348 0d5a 0500     		.2byte	0x5
 8349 0d5c 76       		.byte	0x76
 8350 0d5d 00       		.sleb128 0
 8351 0d5e 34       		.byte	0x34
 8352 0d5f 1B       		.byte	0x1b
 8353 0d60 9F       		.byte	0x9f
 8354 0d61 00000000 		.4byte	0
 8355 0d65 00000000 		.4byte	0
 8356              	.LLST62:
 8357 0d69 9E000000 		.4byte	.LVL222
 8358 0d6d AA000000 		.4byte	.LVL223
 8359 0d71 0100     		.2byte	0x1
 8360 0d73 50       		.byte	0x50
 8361 0d74 AA000000 		.4byte	.LVL223
 8362 0d78 AD000000 		.4byte	.LVL224-1
 8363 0d7c 0300     		.2byte	0x3
 8364 0d7e 71       		.byte	0x71
 8365 0d7f 7F       		.sleb128 -1
 8366 0d80 9F       		.byte	0x9f
 8367 0d81 AD000000 		.4byte	.LVL224-1
 8368 0d85 EC000000 		.4byte	.LVL235
 8369 0d89 0600     		.2byte	0x6
 8370 0d8b 91       		.byte	0x91
 8371 0d8c 64       		.sleb128 -28
 8372 0d8d 06       		.byte	0x6
 8373 0d8e 31       		.byte	0x31
 8374 0d8f 1C       		.byte	0x1c
 8375 0d90 9F       		.byte	0x9f
 8376 0d91 FC000000 		.4byte	.LVL240
 8377 0d95 FE000000 		.4byte	.LVL241
 8378 0d99 0600     		.2byte	0x6
 8379 0d9b 91       		.byte	0x91
 8380 0d9c 64       		.sleb128 -28
 8381 0d9d 06       		.byte	0x6
 8382 0d9e 31       		.byte	0x31
 8383 0d9f 1C       		.byte	0x1c
ARM GAS  C:\Users\Phuong\AppData\Local\Temp\cczAMJrc.s 			page 165


 8384 0da0 9F       		.byte	0x9f
 8385 0da1 00000000 		.4byte	0
 8386 0da5 00000000 		.4byte	0
 8387              	.LLST63:
 8388 0da9 B0000000 		.4byte	.LVL225
 8389 0dad B5000000 		.4byte	.LVL227-1
 8390 0db1 0100     		.2byte	0x1
 8391 0db3 50       		.byte	0x50
 8392 0db4 B5000000 		.4byte	.LVL227-1
 8393 0db8 DC000000 		.4byte	.LVL232
 8394 0dbc 0100     		.2byte	0x1
 8395 0dbe 57       		.byte	0x57
 8396 0dbf DC000000 		.4byte	.LVL232
 8397 0dc3 E3000000 		.4byte	.LVL233-1
 8398 0dc7 0100     		.2byte	0x1
 8399 0dc9 50       		.byte	0x50
 8400 0dca E3000000 		.4byte	.LVL233-1
 8401 0dce EC000000 		.4byte	.LVL235
 8402 0dd2 0100     		.2byte	0x1
 8403 0dd4 57       		.byte	0x57
 8404 0dd5 FC000000 		.4byte	.LVL240
 8405 0dd9 FE000000 		.4byte	.LVL241
 8406 0ddd 0100     		.2byte	0x1
 8407 0ddf 57       		.byte	0x57
 8408 0de0 00000000 		.4byte	0
 8409 0de4 00000000 		.4byte	0
 8410              	.LLST64:
 8411 0de8 B8000000 		.4byte	.LVL228
 8412 0dec BC000000 		.4byte	.LVL229
 8413 0df0 0100     		.2byte	0x1
 8414 0df2 50       		.byte	0x50
 8415 0df3 BC000000 		.4byte	.LVL229
 8416 0df7 DC000000 		.4byte	.LVL232
 8417 0dfb 0100     		.2byte	0x1
 8418 0dfd 54       		.byte	0x54
 8419 0dfe FC000000 		.4byte	.LVL240
 8420 0e02 FE000000 		.4byte	.LVL241
 8421 0e06 0100     		.2byte	0x1
 8422 0e08 50       		.byte	0x50
 8423 0e09 00000000 		.4byte	0
 8424 0e0d 00000000 		.4byte	0
 8425              	.LLST65:
 8426 0e11 00000000 		.4byte	.LVL243
 8427 0e15 0F000000 		.4byte	.LVL245-1
 8428 0e19 0100     		.2byte	0x1
 8429 0e1b 50       		.byte	0x50
 8430 0e1c 0F000000 		.4byte	.LVL245-1
 8431 0e20 12000000 		.4byte	.LVL246
 8432 0e24 0100     		.2byte	0x1
 8433 0e26 54       		.byte	0x54
 8434 0e27 12000000 		.4byte	.LVL246
 8435 0e2b 36000000 		.4byte	.LVL250
 8436 0e2f 0400     		.2byte	0x4
 8437 0e31 F3       		.byte	0xf3
 8438 0e32 01       		.uleb128 0x1
 8439 0e33 50       		.byte	0x50
 8440 0e34 9F       		.byte	0x9f
ARM GAS  C:\Users\Phuong\AppData\Local\Temp\cczAMJrc.s 			page 166


 8441 0e35 36000000 		.4byte	.LVL250
 8442 0e39 39000000 		.4byte	.LVL251-1
 8443 0e3d 0100     		.2byte	0x1
 8444 0e3f 50       		.byte	0x50
 8445 0e40 39000000 		.4byte	.LVL251-1
 8446 0e44 8C000000 		.4byte	.LVL259
 8447 0e48 0100     		.2byte	0x1
 8448 0e4a 54       		.byte	0x54
 8449 0e4b 8C000000 		.4byte	.LVL259
 8450 0e4f 90000000 		.4byte	.LVL261
 8451 0e53 0400     		.2byte	0x4
 8452 0e55 F3       		.byte	0xf3
 8453 0e56 01       		.uleb128 0x1
 8454 0e57 50       		.byte	0x50
 8455 0e58 9F       		.byte	0x9f
 8456 0e59 90000000 		.4byte	.LVL261
 8457 0e5d 92000000 		.4byte	.LVL262
 8458 0e61 0100     		.2byte	0x1
 8459 0e63 54       		.byte	0x54
 8460 0e64 92000000 		.4byte	.LVL262
 8461 0e68 A8000000 		.4byte	.LFE14
 8462 0e6c 0400     		.2byte	0x4
 8463 0e6e F3       		.byte	0xf3
 8464 0e6f 01       		.uleb128 0x1
 8465 0e70 50       		.byte	0x50
 8466 0e71 9F       		.byte	0x9f
 8467 0e72 00000000 		.4byte	0
 8468 0e76 00000000 		.4byte	0
 8469              	.LLST66:
 8470 0e7a 00000000 		.4byte	.LVL243
 8471 0e7e 0F000000 		.4byte	.LVL245-1
 8472 0e82 0100     		.2byte	0x1
 8473 0e84 51       		.byte	0x51
 8474 0e85 0F000000 		.4byte	.LVL245-1
 8475 0e89 36000000 		.4byte	.LVL250
 8476 0e8d 0400     		.2byte	0x4
 8477 0e8f F3       		.byte	0xf3
 8478 0e90 01       		.uleb128 0x1
 8479 0e91 51       		.byte	0x51
 8480 0e92 9F       		.byte	0x9f
 8481 0e93 36000000 		.4byte	.LVL250
 8482 0e97 39000000 		.4byte	.LVL251-1
 8483 0e9b 0100     		.2byte	0x1
 8484 0e9d 51       		.byte	0x51
 8485 0e9e 39000000 		.4byte	.LVL251-1
 8486 0ea2 A8000000 		.4byte	.LFE14
 8487 0ea6 0400     		.2byte	0x4
 8488 0ea8 F3       		.byte	0xf3
 8489 0ea9 01       		.uleb128 0x1
 8490 0eaa 51       		.byte	0x51
 8491 0eab 9F       		.byte	0x9f
 8492 0eac 00000000 		.4byte	0
 8493 0eb0 00000000 		.4byte	0
 8494              	.LLST67:
 8495 0eb4 0C000000 		.4byte	.LVL244
 8496 0eb8 36000000 		.4byte	.LVL250
 8497 0ebc 0200     		.2byte	0x2
ARM GAS  C:\Users\Phuong\AppData\Local\Temp\cczAMJrc.s 			page 167


 8498 0ebe 32       		.byte	0x32
 8499 0ebf 9F       		.byte	0x9f
 8500 0ec0 88000000 		.4byte	.LVL258
 8501 0ec4 8C000000 		.4byte	.LVL259
 8502 0ec8 0200     		.2byte	0x2
 8503 0eca 30       		.byte	0x30
 8504 0ecb 9F       		.byte	0x9f
 8505 0ecc 8C000000 		.4byte	.LVL259
 8506 0ed0 90000000 		.4byte	.LVL261
 8507 0ed4 0200     		.2byte	0x2
 8508 0ed6 32       		.byte	0x32
 8509 0ed7 9F       		.byte	0x9f
 8510 0ed8 92000000 		.4byte	.LVL262
 8511 0edc A8000000 		.4byte	.LFE14
 8512 0ee0 0100     		.2byte	0x1
 8513 0ee2 50       		.byte	0x50
 8514 0ee3 00000000 		.4byte	0
 8515 0ee7 00000000 		.4byte	0
 8516              	.LLST68:
 8517 0eeb 12000000 		.4byte	.LVL246
 8518 0eef 16000000 		.4byte	.LVL247
 8519 0ef3 0100     		.2byte	0x1
 8520 0ef5 50       		.byte	0x50
 8521 0ef6 16000000 		.4byte	.LVL247
 8522 0efa 36000000 		.4byte	.LVL250
 8523 0efe 0100     		.2byte	0x1
 8524 0f00 54       		.byte	0x54
 8525 0f01 8C000000 		.4byte	.LVL259
 8526 0f05 8E000000 		.4byte	.LVL260
 8527 0f09 0100     		.2byte	0x1
 8528 0f0b 50       		.byte	0x50
 8529 0f0c 8E000000 		.4byte	.LVL260
 8530 0f10 90000000 		.4byte	.LVL261
 8531 0f14 0100     		.2byte	0x1
 8532 0f16 54       		.byte	0x54
 8533 0f17 00000000 		.4byte	0
 8534 0f1b 00000000 		.4byte	0
 8535              	.LLST69:
 8536 0f1f 36000000 		.4byte	.LVL250
 8537 0f23 39000000 		.4byte	.LVL251-1
 8538 0f27 0100     		.2byte	0x1
 8539 0f29 50       		.byte	0x50
 8540 0f2a 39000000 		.4byte	.LVL251-1
 8541 0f2e 8C000000 		.4byte	.LVL259
 8542 0f32 0100     		.2byte	0x1
 8543 0f34 54       		.byte	0x54
 8544 0f35 90000000 		.4byte	.LVL261
 8545 0f39 92000000 		.4byte	.LVL262
 8546 0f3d 0100     		.2byte	0x1
 8547 0f3f 54       		.byte	0x54
 8548 0f40 00000000 		.4byte	0
 8549 0f44 00000000 		.4byte	0
 8550              	.LLST70:
 8551 0f48 3A000000 		.4byte	.LVL251
 8552 0f4c 46000000 		.4byte	.LVL253
 8553 0f50 0100     		.2byte	0x1
 8554 0f52 50       		.byte	0x50
ARM GAS  C:\Users\Phuong\AppData\Local\Temp\cczAMJrc.s 			page 168


 8555 0f53 90000000 		.4byte	.LVL261
 8556 0f57 92000000 		.4byte	.LVL262
 8557 0f5b 0100     		.2byte	0x1
 8558 0f5d 50       		.byte	0x50
 8559 0f5e 00000000 		.4byte	0
 8560 0f62 00000000 		.4byte	0
 8561              	.LLST71:
 8562 0f66 44000000 		.4byte	.LVL252
 8563 0f6a 8C000000 		.4byte	.LVL259
 8564 0f6e 0100     		.2byte	0x1
 8565 0f70 57       		.byte	0x57
 8566 0f71 00000000 		.4byte	0
 8567 0f75 00000000 		.4byte	0
 8568              	.LLST72:
 8569 0f79 00000000 		.4byte	.LVL263
 8570 0f7d 15000000 		.4byte	.LVL265-1
 8571 0f81 0100     		.2byte	0x1
 8572 0f83 50       		.byte	0x50
 8573 0f84 15000000 		.4byte	.LVL265-1
 8574 0f88 3C000000 		.4byte	.LVL270
 8575 0f8c 0400     		.2byte	0x4
 8576 0f8e F3       		.byte	0xf3
 8577 0f8f 01       		.uleb128 0x1
 8578 0f90 50       		.byte	0x50
 8579 0f91 9F       		.byte	0x9f
 8580 0f92 3C000000 		.4byte	.LVL270
 8581 0f96 3F000000 		.4byte	.LVL271-1
 8582 0f9a 0100     		.2byte	0x1
 8583 0f9c 50       		.byte	0x50
 8584 0f9d 3F000000 		.4byte	.LVL271-1
 8585 0fa1 5C000000 		.4byte	.LFE15
 8586 0fa5 0400     		.2byte	0x4
 8587 0fa7 F3       		.byte	0xf3
 8588 0fa8 01       		.uleb128 0x1
 8589 0fa9 50       		.byte	0x50
 8590 0faa 9F       		.byte	0x9f
 8591 0fab 00000000 		.4byte	0
 8592 0faf 00000000 		.4byte	0
 8593              	.LLST73:
 8594 0fb3 00000000 		.4byte	.LVL263
 8595 0fb7 15000000 		.4byte	.LVL265-1
 8596 0fbb 0100     		.2byte	0x1
 8597 0fbd 51       		.byte	0x51
 8598 0fbe 15000000 		.4byte	.LVL265-1
 8599 0fc2 3C000000 		.4byte	.LVL270
 8600 0fc6 0400     		.2byte	0x4
 8601 0fc8 F3       		.byte	0xf3
 8602 0fc9 01       		.uleb128 0x1
 8603 0fca 51       		.byte	0x51
 8604 0fcb 9F       		.byte	0x9f
 8605 0fcc 3C000000 		.4byte	.LVL270
 8606 0fd0 3F000000 		.4byte	.LVL271-1
 8607 0fd4 0100     		.2byte	0x1
 8608 0fd6 51       		.byte	0x51
 8609 0fd7 3F000000 		.4byte	.LVL271-1
 8610 0fdb 5C000000 		.4byte	.LFE15
 8611 0fdf 0400     		.2byte	0x4
ARM GAS  C:\Users\Phuong\AppData\Local\Temp\cczAMJrc.s 			page 169


 8612 0fe1 F3       		.byte	0xf3
 8613 0fe2 01       		.uleb128 0x1
 8614 0fe3 51       		.byte	0x51
 8615 0fe4 9F       		.byte	0x9f
 8616 0fe5 00000000 		.4byte	0
 8617 0fe9 00000000 		.4byte	0
 8618              	.LLST74:
 8619 0fed 00000000 		.4byte	.LVL263
 8620 0ff1 15000000 		.4byte	.LVL265-1
 8621 0ff5 0100     		.2byte	0x1
 8622 0ff7 52       		.byte	0x52
 8623 0ff8 15000000 		.4byte	.LVL265-1
 8624 0ffc 18000000 		.4byte	.LVL266
 8625 1000 0100     		.2byte	0x1
 8626 1002 54       		.byte	0x54
 8627 1003 18000000 		.4byte	.LVL266
 8628 1007 3C000000 		.4byte	.LVL270
 8629 100b 0400     		.2byte	0x4
 8630 100d F3       		.byte	0xf3
 8631 100e 01       		.uleb128 0x1
 8632 100f 52       		.byte	0x52
 8633 1010 9F       		.byte	0x9f
 8634 1011 3C000000 		.4byte	.LVL270
 8635 1015 3F000000 		.4byte	.LVL271-1
 8636 1019 0100     		.2byte	0x1
 8637 101b 52       		.byte	0x52
 8638 101c 3F000000 		.4byte	.LVL271-1
 8639 1020 4A000000 		.4byte	.LVL273
 8640 1024 0100     		.2byte	0x1
 8641 1026 54       		.byte	0x54
 8642 1027 4A000000 		.4byte	.LVL273
 8643 102b 5C000000 		.4byte	.LFE15
 8644 102f 0400     		.2byte	0x4
 8645 1031 F3       		.byte	0xf3
 8646 1032 01       		.uleb128 0x1
 8647 1033 52       		.byte	0x52
 8648 1034 9F       		.byte	0x9f
 8649 1035 00000000 		.4byte	0
 8650 1039 00000000 		.4byte	0
 8651              	.LLST75:
 8652 103d 12000000 		.4byte	.LVL264
 8653 1041 3C000000 		.4byte	.LVL270
 8654 1045 0200     		.2byte	0x2
 8655 1047 32       		.byte	0x32
 8656 1048 9F       		.byte	0x9f
 8657 1049 46000000 		.4byte	.LVL272
 8658 104d 4A000000 		.4byte	.LVL273
 8659 1051 0200     		.2byte	0x2
 8660 1053 30       		.byte	0x30
 8661 1054 9F       		.byte	0x9f
 8662 1055 4A000000 		.4byte	.LVL273
 8663 1059 4C000000 		.4byte	.LVL274
 8664 105d 0200     		.2byte	0x2
 8665 105f 32       		.byte	0x32
 8666 1060 9F       		.byte	0x9f
 8667 1061 4C000000 		.4byte	.LVL274
 8668 1065 5C000000 		.4byte	.LFE15
ARM GAS  C:\Users\Phuong\AppData\Local\Temp\cczAMJrc.s 			page 170


 8669 1069 0100     		.2byte	0x1
 8670 106b 50       		.byte	0x50
 8671 106c 00000000 		.4byte	0
 8672 1070 00000000 		.4byte	0
 8673              	.LLST76:
 8674 1074 18000000 		.4byte	.LVL266
 8675 1078 1C000000 		.4byte	.LVL267
 8676 107c 0100     		.2byte	0x1
 8677 107e 50       		.byte	0x50
 8678 107f 1C000000 		.4byte	.LVL267
 8679 1083 3C000000 		.4byte	.LVL270
 8680 1087 0100     		.2byte	0x1
 8681 1089 54       		.byte	0x54
 8682 108a 4A000000 		.4byte	.LVL273
 8683 108e 4C000000 		.4byte	.LVL274
 8684 1092 0100     		.2byte	0x1
 8685 1094 50       		.byte	0x50
 8686 1095 00000000 		.4byte	0
 8687 1099 00000000 		.4byte	0
 8688              	.LLST77:
 8689 109d 3C000000 		.4byte	.LVL270
 8690 10a1 3F000000 		.4byte	.LVL271-1
 8691 10a5 0100     		.2byte	0x1
 8692 10a7 50       		.byte	0x50
 8693 10a8 3F000000 		.4byte	.LVL271-1
 8694 10ac 4A000000 		.4byte	.LVL273
 8695 10b0 0400     		.2byte	0x4
 8696 10b2 F3       		.byte	0xf3
 8697 10b3 01       		.uleb128 0x1
 8698 10b4 50       		.byte	0x50
 8699 10b5 9F       		.byte	0x9f
 8700 10b6 00000000 		.4byte	0
 8701 10ba 00000000 		.4byte	0
 8702              	.LLST78:
 8703 10be 00000000 		.4byte	.LVL275
 8704 10c2 15000000 		.4byte	.LVL277-1
 8705 10c6 0100     		.2byte	0x1
 8706 10c8 50       		.byte	0x50
 8707 10c9 15000000 		.4byte	.LVL277-1
 8708 10cd 3A000000 		.4byte	.LVL282
 8709 10d1 0400     		.2byte	0x4
 8710 10d3 F3       		.byte	0xf3
 8711 10d4 01       		.uleb128 0x1
 8712 10d5 50       		.byte	0x50
 8713 10d6 9F       		.byte	0x9f
 8714 10d7 3A000000 		.4byte	.LVL282
 8715 10db 3D000000 		.4byte	.LVL283-1
 8716 10df 0100     		.2byte	0x1
 8717 10e1 50       		.byte	0x50
 8718 10e2 3D000000 		.4byte	.LVL283-1
 8719 10e6 60000000 		.4byte	.LFE16
 8720 10ea 0400     		.2byte	0x4
 8721 10ec F3       		.byte	0xf3
 8722 10ed 01       		.uleb128 0x1
 8723 10ee 50       		.byte	0x50
 8724 10ef 9F       		.byte	0x9f
 8725 10f0 00000000 		.4byte	0
ARM GAS  C:\Users\Phuong\AppData\Local\Temp\cczAMJrc.s 			page 171


 8726 10f4 00000000 		.4byte	0
 8727              	.LLST79:
 8728 10f8 00000000 		.4byte	.LVL275
 8729 10fc 15000000 		.4byte	.LVL277-1
 8730 1100 0100     		.2byte	0x1
 8731 1102 51       		.byte	0x51
 8732 1103 15000000 		.4byte	.LVL277-1
 8733 1107 3A000000 		.4byte	.LVL282
 8734 110b 0400     		.2byte	0x4
 8735 110d F3       		.byte	0xf3
 8736 110e 01       		.uleb128 0x1
 8737 110f 51       		.byte	0x51
 8738 1110 9F       		.byte	0x9f
 8739 1111 3A000000 		.4byte	.LVL282
 8740 1115 3D000000 		.4byte	.LVL283-1
 8741 1119 0100     		.2byte	0x1
 8742 111b 51       		.byte	0x51
 8743 111c 3D000000 		.4byte	.LVL283-1
 8744 1120 60000000 		.4byte	.LFE16
 8745 1124 0400     		.2byte	0x4
 8746 1126 F3       		.byte	0xf3
 8747 1127 01       		.uleb128 0x1
 8748 1128 51       		.byte	0x51
 8749 1129 9F       		.byte	0x9f
 8750 112a 00000000 		.4byte	0
 8751 112e 00000000 		.4byte	0
 8752              	.LLST80:
 8753 1132 00000000 		.4byte	.LVL275
 8754 1136 15000000 		.4byte	.LVL277-1
 8755 113a 0100     		.2byte	0x1
 8756 113c 52       		.byte	0x52
 8757 113d 15000000 		.4byte	.LVL277-1
 8758 1141 18000000 		.4byte	.LVL278
 8759 1145 0100     		.2byte	0x1
 8760 1147 54       		.byte	0x54
 8761 1148 18000000 		.4byte	.LVL278
 8762 114c 3A000000 		.4byte	.LVL282
 8763 1150 0400     		.2byte	0x4
 8764 1152 F3       		.byte	0xf3
 8765 1153 01       		.uleb128 0x1
 8766 1154 52       		.byte	0x52
 8767 1155 9F       		.byte	0x9f
 8768 1156 3A000000 		.4byte	.LVL282
 8769 115a 3D000000 		.4byte	.LVL283-1
 8770 115e 0100     		.2byte	0x1
 8771 1160 52       		.byte	0x52
 8772 1161 3D000000 		.4byte	.LVL283-1
 8773 1165 48000000 		.4byte	.LVL285
 8774 1169 0100     		.2byte	0x1
 8775 116b 54       		.byte	0x54
 8776 116c 48000000 		.4byte	.LVL285
 8777 1170 60000000 		.4byte	.LFE16
 8778 1174 0400     		.2byte	0x4
 8779 1176 F3       		.byte	0xf3
 8780 1177 01       		.uleb128 0x1
 8781 1178 52       		.byte	0x52
 8782 1179 9F       		.byte	0x9f
ARM GAS  C:\Users\Phuong\AppData\Local\Temp\cczAMJrc.s 			page 172


 8783 117a 00000000 		.4byte	0
 8784 117e 00000000 		.4byte	0
 8785              	.LLST81:
 8786 1182 12000000 		.4byte	.LVL276
 8787 1186 3A000000 		.4byte	.LVL282
 8788 118a 0200     		.2byte	0x2
 8789 118c 32       		.byte	0x32
 8790 118d 9F       		.byte	0x9f
 8791 118e 44000000 		.4byte	.LVL284
 8792 1192 48000000 		.4byte	.LVL285
 8793 1196 0200     		.2byte	0x2
 8794 1198 30       		.byte	0x30
 8795 1199 9F       		.byte	0x9f
 8796 119a 48000000 		.4byte	.LVL285
 8797 119e 4A000000 		.4byte	.LVL286
 8798 11a2 0200     		.2byte	0x2
 8799 11a4 32       		.byte	0x32
 8800 11a5 9F       		.byte	0x9f
 8801 11a6 4A000000 		.4byte	.LVL286
 8802 11aa 60000000 		.4byte	.LFE16
 8803 11ae 0100     		.2byte	0x1
 8804 11b0 50       		.byte	0x50
 8805 11b1 00000000 		.4byte	0
 8806 11b5 00000000 		.4byte	0
 8807              	.LLST82:
 8808 11b9 18000000 		.4byte	.LVL278
 8809 11bd 1C000000 		.4byte	.LVL279
 8810 11c1 0100     		.2byte	0x1
 8811 11c3 50       		.byte	0x50
 8812 11c4 1C000000 		.4byte	.LVL279
 8813 11c8 3A000000 		.4byte	.LVL282
 8814 11cc 0100     		.2byte	0x1
 8815 11ce 54       		.byte	0x54
 8816 11cf 48000000 		.4byte	.LVL285
 8817 11d3 4A000000 		.4byte	.LVL286
 8818 11d7 0100     		.2byte	0x1
 8819 11d9 50       		.byte	0x50
 8820 11da 00000000 		.4byte	0
 8821 11de 00000000 		.4byte	0
 8822              	.LLST83:
 8823 11e2 3A000000 		.4byte	.LVL282
 8824 11e6 3D000000 		.4byte	.LVL283-1
 8825 11ea 0100     		.2byte	0x1
 8826 11ec 50       		.byte	0x50
 8827 11ed 3D000000 		.4byte	.LVL283-1
 8828 11f1 48000000 		.4byte	.LVL285
 8829 11f5 0400     		.2byte	0x4
 8830 11f7 F3       		.byte	0xf3
 8831 11f8 01       		.uleb128 0x1
 8832 11f9 50       		.byte	0x50
 8833 11fa 9F       		.byte	0x9f
 8834 11fb 00000000 		.4byte	0
 8835 11ff 00000000 		.4byte	0
 8836              	.LLST84:
 8837 1203 00000000 		.4byte	.LVL287
 8838 1207 0F000000 		.4byte	.LVL289-1
 8839 120b 0100     		.2byte	0x1
ARM GAS  C:\Users\Phuong\AppData\Local\Temp\cczAMJrc.s 			page 173


 8840 120d 50       		.byte	0x50
 8841 120e 0F000000 		.4byte	.LVL289-1
 8842 1212 12000000 		.4byte	.LVL290
 8843 1216 0100     		.2byte	0x1
 8844 1218 54       		.byte	0x54
 8845 1219 12000000 		.4byte	.LVL290
 8846 121d 2C000000 		.4byte	.LVL293
 8847 1221 0400     		.2byte	0x4
 8848 1223 F3       		.byte	0xf3
 8849 1224 01       		.uleb128 0x1
 8850 1225 50       		.byte	0x50
 8851 1226 9F       		.byte	0x9f
 8852 1227 2C000000 		.4byte	.LVL293
 8853 122b 2F000000 		.4byte	.LVL294-1
 8854 122f 0100     		.2byte	0x1
 8855 1231 50       		.byte	0x50
 8856 1232 2F000000 		.4byte	.LVL294-1
 8857 1236 3E000000 		.4byte	.LVL297
 8858 123a 0100     		.2byte	0x1
 8859 123c 54       		.byte	0x54
 8860 123d 3E000000 		.4byte	.LVL297
 8861 1241 42000000 		.4byte	.LVL299
 8862 1245 0400     		.2byte	0x4
 8863 1247 F3       		.byte	0xf3
 8864 1248 01       		.uleb128 0x1
 8865 1249 50       		.byte	0x50
 8866 124a 9F       		.byte	0x9f
 8867 124b 42000000 		.4byte	.LVL299
 8868 124f 44000000 		.4byte	.LVL300
 8869 1253 0100     		.2byte	0x1
 8870 1255 54       		.byte	0x54
 8871 1256 44000000 		.4byte	.LVL300
 8872 125a 58000000 		.4byte	.LFE17
 8873 125e 0400     		.2byte	0x4
 8874 1260 F3       		.byte	0xf3
 8875 1261 01       		.uleb128 0x1
 8876 1262 50       		.byte	0x50
 8877 1263 9F       		.byte	0x9f
 8878 1264 00000000 		.4byte	0
 8879 1268 00000000 		.4byte	0
 8880              	.LLST85:
 8881 126c 00000000 		.4byte	.LVL287
 8882 1270 0F000000 		.4byte	.LVL289-1
 8883 1274 0100     		.2byte	0x1
 8884 1276 51       		.byte	0x51
 8885 1277 0F000000 		.4byte	.LVL289-1
 8886 127b 2C000000 		.4byte	.LVL293
 8887 127f 0400     		.2byte	0x4
 8888 1281 F3       		.byte	0xf3
 8889 1282 01       		.uleb128 0x1
 8890 1283 51       		.byte	0x51
 8891 1284 9F       		.byte	0x9f
 8892 1285 2C000000 		.4byte	.LVL293
 8893 1289 2F000000 		.4byte	.LVL294-1
 8894 128d 0100     		.2byte	0x1
 8895 128f 51       		.byte	0x51
 8896 1290 2F000000 		.4byte	.LVL294-1
ARM GAS  C:\Users\Phuong\AppData\Local\Temp\cczAMJrc.s 			page 174


 8897 1294 58000000 		.4byte	.LFE17
 8898 1298 0400     		.2byte	0x4
 8899 129a F3       		.byte	0xf3
 8900 129b 01       		.uleb128 0x1
 8901 129c 51       		.byte	0x51
 8902 129d 9F       		.byte	0x9f
 8903 129e 00000000 		.4byte	0
 8904 12a2 00000000 		.4byte	0
 8905              	.LLST86:
 8906 12a6 0C000000 		.4byte	.LVL288
 8907 12aa 2C000000 		.4byte	.LVL293
 8908 12ae 0200     		.2byte	0x2
 8909 12b0 30       		.byte	0x30
 8910 12b1 9F       		.byte	0x9f
 8911 12b2 3C000000 		.4byte	.LVL296
 8912 12b6 3E000000 		.4byte	.LVL297
 8913 12ba 0100     		.2byte	0x1
 8914 12bc 50       		.byte	0x50
 8915 12bd 3E000000 		.4byte	.LVL297
 8916 12c1 42000000 		.4byte	.LVL299
 8917 12c5 0200     		.2byte	0x2
 8918 12c7 30       		.byte	0x30
 8919 12c8 9F       		.byte	0x9f
 8920 12c9 44000000 		.4byte	.LVL300
 8921 12cd 58000000 		.4byte	.LFE17
 8922 12d1 0100     		.2byte	0x1
 8923 12d3 50       		.byte	0x50
 8924 12d4 00000000 		.4byte	0
 8925 12d8 00000000 		.4byte	0
 8926              	.LLST87:
 8927 12dc 12000000 		.4byte	.LVL290
 8928 12e0 26000000 		.4byte	.LVL291
 8929 12e4 0100     		.2byte	0x1
 8930 12e6 50       		.byte	0x50
 8931 12e7 26000000 		.4byte	.LVL291
 8932 12eb 2C000000 		.4byte	.LVL293
 8933 12ef 0100     		.2byte	0x1
 8934 12f1 54       		.byte	0x54
 8935 12f2 3E000000 		.4byte	.LVL297
 8936 12f6 40000000 		.4byte	.LVL298
 8937 12fa 0100     		.2byte	0x1
 8938 12fc 50       		.byte	0x50
 8939 12fd 40000000 		.4byte	.LVL298
 8940 1301 42000000 		.4byte	.LVL299
 8941 1305 0100     		.2byte	0x1
 8942 1307 54       		.byte	0x54
 8943 1308 00000000 		.4byte	0
 8944 130c 00000000 		.4byte	0
 8945              	.LLST88:
 8946 1310 2C000000 		.4byte	.LVL293
 8947 1314 2F000000 		.4byte	.LVL294-1
 8948 1318 0100     		.2byte	0x1
 8949 131a 50       		.byte	0x50
 8950 131b 2F000000 		.4byte	.LVL294-1
 8951 131f 3E000000 		.4byte	.LVL297
 8952 1323 0100     		.2byte	0x1
 8953 1325 54       		.byte	0x54
ARM GAS  C:\Users\Phuong\AppData\Local\Temp\cczAMJrc.s 			page 175


 8954 1326 42000000 		.4byte	.LVL299
 8955 132a 44000000 		.4byte	.LVL300
 8956 132e 0100     		.2byte	0x1
 8957 1330 54       		.byte	0x54
 8958 1331 00000000 		.4byte	0
 8959 1335 00000000 		.4byte	0
 8960              	.LLST89:
 8961 1339 30000000 		.4byte	.LVL294
 8962 133d 38000000 		.4byte	.LVL295
 8963 1341 0100     		.2byte	0x1
 8964 1343 50       		.byte	0x50
 8965 1344 42000000 		.4byte	.LVL299
 8966 1348 44000000 		.4byte	.LVL300
 8967 134c 0100     		.2byte	0x1
 8968 134e 50       		.byte	0x50
 8969 134f 00000000 		.4byte	0
 8970 1353 00000000 		.4byte	0
 8971              	.LLST90:
 8972 1357 38000000 		.4byte	.LVL295
 8973 135b 3C000000 		.4byte	.LVL296
 8974 135f 0500     		.2byte	0x5
 8975 1361 70       		.byte	0x70
 8976 1362 00       		.sleb128 0
 8977 1363 34       		.byte	0x34
 8978 1364 1B       		.byte	0x1b
 8979 1365 9F       		.byte	0x9f
 8980 1366 00000000 		.4byte	0
 8981 136a 00000000 		.4byte	0
 8982              	.LLST91:
 8983 136e 00000000 		.4byte	.LVL301
 8984 1372 17000000 		.4byte	.LVL303-1
 8985 1376 0100     		.2byte	0x1
 8986 1378 50       		.byte	0x50
 8987 1379 17000000 		.4byte	.LVL303-1
 8988 137d 3C000000 		.4byte	.LVL308
 8989 1381 0400     		.2byte	0x4
 8990 1383 F3       		.byte	0xf3
 8991 1384 01       		.uleb128 0x1
 8992 1385 50       		.byte	0x50
 8993 1386 9F       		.byte	0x9f
 8994 1387 3C000000 		.4byte	.LVL308
 8995 138b 4A000000 		.4byte	.LVL312
 8996 138f 0100     		.2byte	0x1
 8997 1391 50       		.byte	0x50
 8998 1392 4A000000 		.4byte	.LVL312
 8999 1396 64000000 		.4byte	.LFE18
 9000 139a 0400     		.2byte	0x4
 9001 139c F3       		.byte	0xf3
 9002 139d 01       		.uleb128 0x1
 9003 139e 50       		.byte	0x50
 9004 139f 9F       		.byte	0x9f
 9005 13a0 00000000 		.4byte	0
 9006 13a4 00000000 		.4byte	0
 9007              	.LLST92:
 9008 13a8 00000000 		.4byte	.LVL301
 9009 13ac 17000000 		.4byte	.LVL303-1
 9010 13b0 0100     		.2byte	0x1
ARM GAS  C:\Users\Phuong\AppData\Local\Temp\cczAMJrc.s 			page 176


 9011 13b2 51       		.byte	0x51
 9012 13b3 17000000 		.4byte	.LVL303-1
 9013 13b7 3C000000 		.4byte	.LVL308
 9014 13bb 0400     		.2byte	0x4
 9015 13bd F3       		.byte	0xf3
 9016 13be 01       		.uleb128 0x1
 9017 13bf 51       		.byte	0x51
 9018 13c0 9F       		.byte	0x9f
 9019 13c1 3C000000 		.4byte	.LVL308
 9020 13c5 42000000 		.4byte	.LVL309
 9021 13c9 0100     		.2byte	0x1
 9022 13cb 51       		.byte	0x51
 9023 13cc 42000000 		.4byte	.LVL309
 9024 13d0 64000000 		.4byte	.LFE18
 9025 13d4 0400     		.2byte	0x4
 9026 13d6 F3       		.byte	0xf3
 9027 13d7 01       		.uleb128 0x1
 9028 13d8 51       		.byte	0x51
 9029 13d9 9F       		.byte	0x9f
 9030 13da 00000000 		.4byte	0
 9031 13de 00000000 		.4byte	0
 9032              	.LLST93:
 9033 13e2 00000000 		.4byte	.LVL301
 9034 13e6 17000000 		.4byte	.LVL303-1
 9035 13ea 0100     		.2byte	0x1
 9036 13ec 52       		.byte	0x52
 9037 13ed 17000000 		.4byte	.LVL303-1
 9038 13f1 3C000000 		.4byte	.LVL308
 9039 13f5 0400     		.2byte	0x4
 9040 13f7 F3       		.byte	0xf3
 9041 13f8 01       		.uleb128 0x1
 9042 13f9 52       		.byte	0x52
 9043 13fa 9F       		.byte	0x9f
 9044 13fb 3C000000 		.4byte	.LVL308
 9045 13ff 46000000 		.4byte	.LVL310
 9046 1403 0100     		.2byte	0x1
 9047 1405 52       		.byte	0x52
 9048 1406 46000000 		.4byte	.LVL310
 9049 140a 64000000 		.4byte	.LFE18
 9050 140e 0400     		.2byte	0x4
 9051 1410 F3       		.byte	0xf3
 9052 1411 01       		.uleb128 0x1
 9053 1412 52       		.byte	0x52
 9054 1413 9F       		.byte	0x9f
 9055 1414 00000000 		.4byte	0
 9056 1418 00000000 		.4byte	0
 9057              	.LLST94:
 9058 141c 00000000 		.4byte	.LVL301
 9059 1420 17000000 		.4byte	.LVL303-1
 9060 1424 0100     		.2byte	0x1
 9061 1426 53       		.byte	0x53
 9062 1427 17000000 		.4byte	.LVL303-1
 9063 142b 3C000000 		.4byte	.LVL308
 9064 142f 0400     		.2byte	0x4
 9065 1431 F3       		.byte	0xf3
 9066 1432 01       		.uleb128 0x1
 9067 1433 53       		.byte	0x53
ARM GAS  C:\Users\Phuong\AppData\Local\Temp\cczAMJrc.s 			page 177


 9068 1434 9F       		.byte	0x9f
 9069 1435 3C000000 		.4byte	.LVL308
 9070 1439 4C000000 		.4byte	.LVL313
 9071 143d 0100     		.2byte	0x1
 9072 143f 53       		.byte	0x53
 9073 1440 4C000000 		.4byte	.LVL313
 9074 1444 64000000 		.4byte	.LFE18
 9075 1448 0400     		.2byte	0x4
 9076 144a F3       		.byte	0xf3
 9077 144b 01       		.uleb128 0x1
 9078 144c 53       		.byte	0x53
 9079 144d 9F       		.byte	0x9f
 9080 144e 00000000 		.4byte	0
 9081 1452 00000000 		.4byte	0
 9082              	.LLST95:
 9083 1456 14000000 		.4byte	.LVL302
 9084 145a 3C000000 		.4byte	.LVL308
 9085 145e 0200     		.2byte	0x2
 9086 1460 32       		.byte	0x32
 9087 1461 9F       		.byte	0x9f
 9088 1462 48000000 		.4byte	.LVL311
 9089 1466 4C000000 		.4byte	.LVL313
 9090 146a 0200     		.2byte	0x2
 9091 146c 30       		.byte	0x30
 9092 146d 9F       		.byte	0x9f
 9093 146e 4C000000 		.4byte	.LVL313
 9094 1472 4E000000 		.4byte	.LVL314
 9095 1476 0200     		.2byte	0x2
 9096 1478 32       		.byte	0x32
 9097 1479 9F       		.byte	0x9f
 9098 147a 4E000000 		.4byte	.LVL314
 9099 147e 64000000 		.4byte	.LFE18
 9100 1482 0100     		.2byte	0x1
 9101 1484 50       		.byte	0x50
 9102 1485 00000000 		.4byte	0
 9103 1489 00000000 		.4byte	0
 9104              	.LLST96:
 9105 148d 1A000000 		.4byte	.LVL304
 9106 1491 1E000000 		.4byte	.LVL305
 9107 1495 0100     		.2byte	0x1
 9108 1497 50       		.byte	0x50
 9109 1498 1E000000 		.4byte	.LVL305
 9110 149c 3C000000 		.4byte	.LVL308
 9111 14a0 0100     		.2byte	0x1
 9112 14a2 54       		.byte	0x54
 9113 14a3 4C000000 		.4byte	.LVL313
 9114 14a7 4E000000 		.4byte	.LVL314
 9115 14ab 0100     		.2byte	0x1
 9116 14ad 50       		.byte	0x50
 9117 14ae 00000000 		.4byte	0
 9118 14b2 00000000 		.4byte	0
 9119              	.LLST97:
 9120 14b6 3C000000 		.4byte	.LVL308
 9121 14ba 4A000000 		.4byte	.LVL312
 9122 14be 0100     		.2byte	0x1
 9123 14c0 50       		.byte	0x50
 9124 14c1 4A000000 		.4byte	.LVL312
ARM GAS  C:\Users\Phuong\AppData\Local\Temp\cczAMJrc.s 			page 178


 9125 14c5 4C000000 		.4byte	.LVL313
 9126 14c9 0400     		.2byte	0x4
 9127 14cb F3       		.byte	0xf3
 9128 14cc 01       		.uleb128 0x1
 9129 14cd 50       		.byte	0x50
 9130 14ce 9F       		.byte	0x9f
 9131 14cf 00000000 		.4byte	0
 9132 14d3 00000000 		.4byte	0
 9133              	.LLST98:
 9134 14d7 00000000 		.4byte	.LVL315
 9135 14db 0B000000 		.4byte	.LVL317-1
 9136 14df 0100     		.2byte	0x1
 9137 14e1 50       		.byte	0x50
 9138 14e2 0B000000 		.4byte	.LVL317-1
 9139 14e6 2C000000 		.4byte	.LVL321
 9140 14ea 0100     		.2byte	0x1
 9141 14ec 56       		.byte	0x56
 9142 14ed 2C000000 		.4byte	.LVL321
 9143 14f1 2E000000 		.4byte	.LVL322
 9144 14f5 0100     		.2byte	0x1
 9145 14f7 50       		.byte	0x50
 9146 14f8 2E000000 		.4byte	.LVL322
 9147 14fc A4010000 		.4byte	.LVL378
 9148 1500 0100     		.2byte	0x1
 9149 1502 56       		.byte	0x56
 9150 1503 A4010000 		.4byte	.LVL378
 9151 1507 EC010000 		.4byte	.LFE19
 9152 150b 0400     		.2byte	0x4
 9153 150d F3       		.byte	0xf3
 9154 150e 01       		.uleb128 0x1
 9155 150f 50       		.byte	0x50
 9156 1510 9F       		.byte	0x9f
 9157 1511 00000000 		.4byte	0
 9158 1515 00000000 		.4byte	0
 9159              	.LLST99:
 9160 1519 08000000 		.4byte	.LVL316
 9161 151d 2C000000 		.4byte	.LVL321
 9162 1521 0200     		.2byte	0x2
 9163 1523 30       		.byte	0x30
 9164 1524 9F       		.byte	0x9f
 9165 1525 34000000 		.4byte	.LVL324
 9166 1529 3D000000 		.4byte	.LVL325-1
 9167 152d 0100     		.2byte	0x1
 9168 152f 50       		.byte	0x50
 9169 1530 3D000000 		.4byte	.LVL325-1
 9170 1534 8C000000 		.4byte	.LVL336
 9171 1538 0200     		.2byte	0x2
 9172 153a 91       		.byte	0x91
 9173 153b 60       		.sleb128 -32
 9174 153c 8C000000 		.4byte	.LVL336
 9175 1540 94000000 		.4byte	.LVL338
 9176 1544 0200     		.2byte	0x2
 9177 1546 30       		.byte	0x30
 9178 1547 9F       		.byte	0x9f
 9179 1548 94000000 		.4byte	.LVL338
 9180 154c C2000000 		.4byte	.LVL346
 9181 1550 0200     		.2byte	0x2
ARM GAS  C:\Users\Phuong\AppData\Local\Temp\cczAMJrc.s 			page 179


 9182 1552 91       		.byte	0x91
 9183 1553 60       		.sleb128 -32
 9184 1554 C2000000 		.4byte	.LVL346
 9185 1558 CA000000 		.4byte	.LVL347
 9186 155c 0200     		.2byte	0x2
 9187 155e 30       		.byte	0x30
 9188 155f 9F       		.byte	0x9f
 9189 1560 CA000000 		.4byte	.LVL347
 9190 1564 20010000 		.4byte	.LVL357
 9191 1568 0200     		.2byte	0x2
 9192 156a 91       		.byte	0x91
 9193 156b 60       		.sleb128 -32
 9194 156c 20010000 		.4byte	.LVL357
 9195 1570 26010000 		.4byte	.LVL359
 9196 1574 0200     		.2byte	0x2
 9197 1576 30       		.byte	0x30
 9198 1577 9F       		.byte	0x9f
 9199 1578 26010000 		.4byte	.LVL359
 9200 157c 36010000 		.4byte	.LVL363
 9201 1580 0200     		.2byte	0x2
 9202 1582 91       		.byte	0x91
 9203 1583 60       		.sleb128 -32
 9204 1584 36010000 		.4byte	.LVL363
 9205 1588 3A010000 		.4byte	.LVL364
 9206 158c 0100     		.2byte	0x1
 9207 158e 50       		.byte	0x50
 9208 158f 3A010000 		.4byte	.LVL364
 9209 1593 96010000 		.4byte	.LVL375
 9210 1597 0200     		.2byte	0x2
 9211 1599 91       		.byte	0x91
 9212 159a 60       		.sleb128 -32
 9213 159b 96010000 		.4byte	.LVL375
 9214 159f A0010000 		.4byte	.LVL377
 9215 15a3 0200     		.2byte	0x2
 9216 15a5 30       		.byte	0x30
 9217 15a6 9F       		.byte	0x9f
 9218 15a7 A0010000 		.4byte	.LVL377
 9219 15ab EC010000 		.4byte	.LFE19
 9220 15af 0200     		.2byte	0x2
 9221 15b1 91       		.byte	0x91
 9222 15b2 60       		.sleb128 -32
 9223 15b3 00000000 		.4byte	0
 9224 15b7 00000000 		.4byte	0
 9225              	.LLST100:
 9226 15bb 0E000000 		.4byte	.LVL318
 9227 15bf 24000000 		.4byte	.LVL319
 9228 15c3 0100     		.2byte	0x1
 9229 15c5 50       		.byte	0x50
 9230 15c6 24000000 		.4byte	.LVL319
 9231 15ca 2C000000 		.4byte	.LVL321
 9232 15ce 0100     		.2byte	0x1
 9233 15d0 54       		.byte	0x54
 9234 15d1 9C010000 		.4byte	.LVL376
 9235 15d5 A0010000 		.4byte	.LVL377
 9236 15d9 0100     		.2byte	0x1
 9237 15db 50       		.byte	0x50
 9238 15dc 00000000 		.4byte	0
ARM GAS  C:\Users\Phuong\AppData\Local\Temp\cczAMJrc.s 			page 180


 9239 15e0 00000000 		.4byte	0
 9240              	.LLST101:
 9241 15e4 40000000 		.4byte	.LVL326
 9242 15e8 56000000 		.4byte	.LVL327
 9243 15ec 0100     		.2byte	0x1
 9244 15ee 50       		.byte	0x50
 9245 15ef 56000000 		.4byte	.LVL327
 9246 15f3 5A000000 		.4byte	.LVL329
 9247 15f7 0100     		.2byte	0x1
 9248 15f9 54       		.byte	0x54
 9249 15fa 00000000 		.4byte	0
 9250 15fe 00000000 		.4byte	0
 9251              	.LLST102:
 9252 1602 5A000000 		.4byte	.LVL329
 9253 1606 36010000 		.4byte	.LVL363
 9254 160a 0100     		.2byte	0x1
 9255 160c 54       		.byte	0x54
 9256 160d 3A010000 		.4byte	.LVL364
 9257 1611 4E010000 		.4byte	.LVL366
 9258 1615 0100     		.2byte	0x1
 9259 1617 54       		.byte	0x54
 9260 1618 66010000 		.4byte	.LVL369
 9261 161c 78010000 		.4byte	.LVL372
 9262 1620 0100     		.2byte	0x1
 9263 1622 54       		.byte	0x54
 9264 1623 00000000 		.4byte	0
 9265 1627 00000000 		.4byte	0
 9266              	.LLST103:
 9267 162b 5A000000 		.4byte	.LVL329
 9268 162f 70000000 		.4byte	.LVL333
 9269 1633 0100     		.2byte	0x1
 9270 1635 55       		.byte	0x55
 9271 1636 8C000000 		.4byte	.LVL336
 9272 163a 94000000 		.4byte	.LVL338
 9273 163e 0200     		.2byte	0x2
 9274 1640 31       		.byte	0x31
 9275 1641 9F       		.byte	0x9f
 9276 1642 94000000 		.4byte	.LVL338
 9277 1646 C2000000 		.4byte	.LVL346
 9278 164a 0100     		.2byte	0x1
 9279 164c 55       		.byte	0x55
 9280 164d C2000000 		.4byte	.LVL346
 9281 1651 CA000000 		.4byte	.LVL347
 9282 1655 0200     		.2byte	0x2
 9283 1657 31       		.byte	0x31
 9284 1658 9F       		.byte	0x9f
 9285 1659 CA000000 		.4byte	.LVL347
 9286 165d 04010000 		.4byte	.LVL354
 9287 1661 0100     		.2byte	0x1
 9288 1663 55       		.byte	0x55
 9289 1664 20010000 		.4byte	.LVL357
 9290 1668 26010000 		.4byte	.LVL359
 9291 166c 0200     		.2byte	0x2
 9292 166e 31       		.byte	0x31
 9293 166f 9F       		.byte	0x9f
 9294 1670 26010000 		.4byte	.LVL359
 9295 1674 36010000 		.4byte	.LVL363
ARM GAS  C:\Users\Phuong\AppData\Local\Temp\cczAMJrc.s 			page 181


 9296 1678 0100     		.2byte	0x1
 9297 167a 55       		.byte	0x55
 9298 167b 3A010000 		.4byte	.LVL364
 9299 167f 9C010000 		.4byte	.LVL376
 9300 1683 0100     		.2byte	0x1
 9301 1685 55       		.byte	0x55
 9302 1686 00000000 		.4byte	0
 9303 168a 00000000 		.4byte	0
 9304              	.LLST104:
 9305 168e 66000000 		.4byte	.LVL331
 9306 1692 6D000000 		.4byte	.LVL332-1
 9307 1696 0100     		.2byte	0x1
 9308 1698 50       		.byte	0x50
 9309 1699 6D000000 		.4byte	.LVL332-1
 9310 169d 94000000 		.4byte	.LVL338
 9311 16a1 0200     		.2byte	0x2
 9312 16a3 91       		.byte	0x91
 9313 16a4 64       		.sleb128 -28
 9314 16a5 94000000 		.4byte	.LVL338
 9315 16a9 98000000 		.4byte	.LVL339
 9316 16ad 0100     		.2byte	0x1
 9317 16af 50       		.byte	0x50
 9318 16b0 98000000 		.4byte	.LVL339
 9319 16b4 36010000 		.4byte	.LVL363
 9320 16b8 0200     		.2byte	0x2
 9321 16ba 91       		.byte	0x91
 9322 16bb 64       		.sleb128 -28
 9323 16bc 00000000 		.4byte	0
 9324 16c0 00000000 		.4byte	0
 9325              	.LLST105:
 9326 16c4 70000000 		.4byte	.LVL333
 9327 16c8 84000000 		.4byte	.LVL334
 9328 16cc 0100     		.2byte	0x1
 9329 16ce 50       		.byte	0x50
 9330 16cf 84000000 		.4byte	.LVL334
 9331 16d3 8E000000 		.4byte	.LVL337
 9332 16d7 0100     		.2byte	0x1
 9333 16d9 55       		.byte	0x55
 9334 16da 00000000 		.4byte	0
 9335 16de 00000000 		.4byte	0
 9336              	.LLST106:
 9337 16e2 9E000000 		.4byte	.LVL341
 9338 16e6 A3000000 		.4byte	.LVL342-1
 9339 16ea 0100     		.2byte	0x1
 9340 16ec 50       		.byte	0x50
 9341 16ed A3000000 		.4byte	.LVL342-1
 9342 16f1 A6000000 		.4byte	.LVL343
 9343 16f5 0100     		.2byte	0x1
 9344 16f7 57       		.byte	0x57
 9345 16f8 CA000000 		.4byte	.LVL347
 9346 16fc D2000000 		.4byte	.LVL348
 9347 1700 0100     		.2byte	0x1
 9348 1702 50       		.byte	0x50
 9349 1703 D2000000 		.4byte	.LVL348
 9350 1707 2C010000 		.4byte	.LVL360
 9351 170b 0100     		.2byte	0x1
 9352 170d 57       		.byte	0x57
ARM GAS  C:\Users\Phuong\AppData\Local\Temp\cczAMJrc.s 			page 182


 9353 170e 00000000 		.4byte	0
 9354 1712 00000000 		.4byte	0
 9355              	.LLST107:
 9356 1716 A6000000 		.4byte	.LVL343
 9357 171a BA000000 		.4byte	.LVL344
 9358 171e 0100     		.2byte	0x1
 9359 1720 50       		.byte	0x50
 9360 1721 BA000000 		.4byte	.LVL344
 9361 1725 CA000000 		.4byte	.LVL347
 9362 1729 0100     		.2byte	0x1
 9363 172b 57       		.byte	0x57
 9364 172c 00000000 		.4byte	0
 9365 1730 00000000 		.4byte	0
 9366              	.LLST108:
 9367 1734 04010000 		.4byte	.LVL354
 9368 1738 18010000 		.4byte	.LVL355
 9369 173c 0100     		.2byte	0x1
 9370 173e 50       		.byte	0x50
 9371 173f 18010000 		.4byte	.LVL355
 9372 1743 22010000 		.4byte	.LVL358
 9373 1747 0100     		.2byte	0x1
 9374 1749 55       		.byte	0x55
 9375 174a 00000000 		.4byte	0
 9376 174e 00000000 		.4byte	0
 9377              	.LLST109:
 9378 1752 4E010000 		.4byte	.LVL366
 9379 1756 62010000 		.4byte	.LVL367
 9380 175a 0100     		.2byte	0x1
 9381 175c 50       		.byte	0x50
 9382 175d 62010000 		.4byte	.LVL367
 9383 1761 66010000 		.4byte	.LVL369
 9384 1765 0100     		.2byte	0x1
 9385 1767 54       		.byte	0x54
 9386 1768 00000000 		.4byte	0
 9387 176c 00000000 		.4byte	0
 9388              	.LLST110:
 9389 1770 78010000 		.4byte	.LVL372
 9390 1774 8E010000 		.4byte	.LVL373
 9391 1778 0100     		.2byte	0x1
 9392 177a 50       		.byte	0x50
 9393 177b 8E010000 		.4byte	.LVL373
 9394 177f 9C010000 		.4byte	.LVL376
 9395 1783 0100     		.2byte	0x1
 9396 1785 54       		.byte	0x54
 9397 1786 00000000 		.4byte	0
 9398 178a 00000000 		.4byte	0
 9399              		.section	.debug_aranges,"",%progbits
 9400 0000 AC000000 		.4byte	0xac
 9401 0004 0200     		.2byte	0x2
 9402 0006 00000000 		.4byte	.Ldebug_info0
 9403 000a 04       		.byte	0x4
 9404 000b 00       		.byte	0
 9405 000c 0000     		.2byte	0
 9406 000e 0000     		.2byte	0
 9407 0010 00000000 		.4byte	.LFB9
 9408 0014 36000000 		.4byte	.LFE9-.LFB9
 9409 0018 00000000 		.4byte	.LFB10
ARM GAS  C:\Users\Phuong\AppData\Local\Temp\cczAMJrc.s 			page 183


 9410 001c 36000000 		.4byte	.LFE10-.LFB10
 9411 0020 00000000 		.4byte	.LFB5
 9412 0024 4A000000 		.4byte	.LFE5-.LFB5
 9413 0028 00000000 		.4byte	.LFB7
 9414 002c E0000000 		.4byte	.LFE7-.LFB7
 9415 0030 00000000 		.4byte	.LFB8
 9416 0034 A4000000 		.4byte	.LFE8-.LFB8
 9417 0038 00000000 		.4byte	.LFB11
 9418 003c D4000000 		.4byte	.LFE11-.LFB11
 9419 0040 00000000 		.4byte	.LFB1
 9420 0044 14000000 		.4byte	.LFE1-.LFB1
 9421 0048 00000000 		.4byte	.LFB2
 9422 004c 3C000000 		.4byte	.LFE2-.LFB2
 9423 0050 00000000 		.4byte	.LFB3
 9424 0054 1A000000 		.4byte	.LFE3-.LFB3
 9425 0058 00000000 		.4byte	.LFB4
 9426 005c 3A000000 		.4byte	.LFE4-.LFB4
 9427 0060 00000000 		.4byte	.LFB6
 9428 0064 0C010000 		.4byte	.LFE6-.LFB6
 9429 0068 00000000 		.4byte	.LFB12
 9430 006c B4000000 		.4byte	.LFE12-.LFB12
 9431 0070 00000000 		.4byte	.LFB13
 9432 0074 10010000 		.4byte	.LFE13-.LFB13
 9433 0078 00000000 		.4byte	.LFB14
 9434 007c A8000000 		.4byte	.LFE14-.LFB14
 9435 0080 00000000 		.4byte	.LFB15
 9436 0084 5C000000 		.4byte	.LFE15-.LFB15
 9437 0088 00000000 		.4byte	.LFB16
 9438 008c 60000000 		.4byte	.LFE16-.LFB16
 9439 0090 00000000 		.4byte	.LFB17
 9440 0094 58000000 		.4byte	.LFE17-.LFB17
 9441 0098 00000000 		.4byte	.LFB18
 9442 009c 64000000 		.4byte	.LFE18-.LFB18
 9443 00a0 00000000 		.4byte	.LFB19
 9444 00a4 EC010000 		.4byte	.LFE19-.LFB19
 9445 00a8 00000000 		.4byte	0
 9446 00ac 00000000 		.4byte	0
 9447              		.section	.debug_ranges,"",%progbits
 9448              	.Ldebug_ranges0:
 9449 0000 34000000 		.4byte	.LBB7
 9450 0004 C4000000 		.4byte	.LBE7
 9451 0008 C8000000 		.4byte	.LBB12
 9452 000c CA000000 		.4byte	.LBE12
 9453 0010 00000000 		.4byte	0
 9454 0014 00000000 		.4byte	0
 9455 0018 7E000000 		.4byte	.LBB9
 9456 001c A4000000 		.4byte	.LBE9
 9457 0020 A8000000 		.4byte	.LBB11
 9458 0024 AA000000 		.4byte	.LBE11
 9459 0028 00000000 		.4byte	0
 9460 002c 00000000 		.4byte	0
 9461 0030 08000000 		.4byte	.LBB19
 9462 0034 1E000000 		.4byte	.LBE19
 9463 0038 20000000 		.4byte	.LBB20
 9464 003c 38000000 		.4byte	.LBE20
 9465 0040 00000000 		.4byte	0
 9466 0044 00000000 		.4byte	0
ARM GAS  C:\Users\Phuong\AppData\Local\Temp\cczAMJrc.s 			page 184


 9467 0048 28000000 		.4byte	.LBB22
 9468 004c C6000000 		.4byte	.LBE22
 9469 0050 CA000000 		.4byte	.LBB28
 9470 0054 EC000000 		.4byte	.LBE28
 9471 0058 00000000 		.4byte	0
 9472 005c 00000000 		.4byte	0
 9473 0060 AA000000 		.4byte	.LBB25
 9474 0064 C6000000 		.4byte	.LBE25
 9475 0068 CA000000 		.4byte	.LBB27
 9476 006c EA000000 		.4byte	.LBE27
 9477 0070 00000000 		.4byte	0
 9478 0074 00000000 		.4byte	0
 9479 0078 40000000 		.4byte	.LBB30
 9480 007c 90000000 		.4byte	.LBE30
 9481 0080 94000000 		.4byte	.LBB32
 9482 0084 A2000000 		.4byte	.LBE32
 9483 0088 00000000 		.4byte	0
 9484 008c 00000000 		.4byte	0
 9485 0090 40000000 		.4byte	.LBB34
 9486 0094 EC000000 		.4byte	.LBE34
 9487 0098 F0000000 		.4byte	.LBB41
 9488 009c FE000000 		.4byte	.LBE41
 9489 00a0 00000000 		.4byte	0
 9490 00a4 00000000 		.4byte	0
 9491 00a8 50000000 		.4byte	.LBB35
 9492 00ac EC000000 		.4byte	.LBE35
 9493 00b0 F4000000 		.4byte	.LBB40
 9494 00b4 FE000000 		.4byte	.LBE40
 9495 00b8 00000000 		.4byte	0
 9496 00bc 00000000 		.4byte	0
 9497 00c0 94000000 		.4byte	.LBB37
 9498 00c4 EC000000 		.4byte	.LBE37
 9499 00c8 FC000000 		.4byte	.LBB39
 9500 00cc FE000000 		.4byte	.LBE39
 9501 00d0 00000000 		.4byte	0
 9502 00d4 00000000 		.4byte	0
 9503 00d8 36000000 		.4byte	.LBB43
 9504 00dc 8C000000 		.4byte	.LBE43
 9505 00e0 90000000 		.4byte	.LBB45
 9506 00e4 92000000 		.4byte	.LBE45
 9507 00e8 00000000 		.4byte	0
 9508 00ec 00000000 		.4byte	0
 9509 00f0 2C000000 		.4byte	.LBB51
 9510 00f4 3E000000 		.4byte	.LBE51
 9511 00f8 42000000 		.4byte	.LBB53
 9512 00fc 44000000 		.4byte	.LBE53
 9513 0100 00000000 		.4byte	0
 9514 0104 00000000 		.4byte	0
 9515 0108 5A000000 		.4byte	.LBB58
 9516 010c 36010000 		.4byte	.LBE58
 9517 0110 3A010000 		.4byte	.LBB66
 9518 0114 9C010000 		.4byte	.LBE66
 9519 0118 00000000 		.4byte	0
 9520 011c 00000000 		.4byte	0
 9521 0120 00000000 		.4byte	.LFB9
 9522 0124 36000000 		.4byte	.LFE9
 9523 0128 00000000 		.4byte	.LFB10
ARM GAS  C:\Users\Phuong\AppData\Local\Temp\cczAMJrc.s 			page 185


 9524 012c 36000000 		.4byte	.LFE10
 9525 0130 00000000 		.4byte	.LFB5
 9526 0134 4A000000 		.4byte	.LFE5
 9527 0138 00000000 		.4byte	.LFB7
 9528 013c E0000000 		.4byte	.LFE7
 9529 0140 00000000 		.4byte	.LFB8
 9530 0144 A4000000 		.4byte	.LFE8
 9531 0148 00000000 		.4byte	.LFB11
 9532 014c D4000000 		.4byte	.LFE11
 9533 0150 00000000 		.4byte	.LFB1
 9534 0154 14000000 		.4byte	.LFE1
 9535 0158 00000000 		.4byte	.LFB2
 9536 015c 3C000000 		.4byte	.LFE2
 9537 0160 00000000 		.4byte	.LFB3
 9538 0164 1A000000 		.4byte	.LFE3
 9539 0168 00000000 		.4byte	.LFB4
 9540 016c 3A000000 		.4byte	.LFE4
 9541 0170 00000000 		.4byte	.LFB6
 9542 0174 0C010000 		.4byte	.LFE6
 9543 0178 00000000 		.4byte	.LFB12
 9544 017c B4000000 		.4byte	.LFE12
 9545 0180 00000000 		.4byte	.LFB13
 9546 0184 10010000 		.4byte	.LFE13
 9547 0188 00000000 		.4byte	.LFB14
 9548 018c A8000000 		.4byte	.LFE14
 9549 0190 00000000 		.4byte	.LFB15
 9550 0194 5C000000 		.4byte	.LFE15
 9551 0198 00000000 		.4byte	.LFB16
 9552 019c 60000000 		.4byte	.LFE16
 9553 01a0 00000000 		.4byte	.LFB17
 9554 01a4 58000000 		.4byte	.LFE17
 9555 01a8 00000000 		.4byte	.LFB18
 9556 01ac 64000000 		.4byte	.LFE18
 9557 01b0 00000000 		.4byte	.LFB19
 9558 01b4 EC010000 		.4byte	.LFE19
 9559 01b8 00000000 		.4byte	0
 9560 01bc 00000000 		.4byte	0
 9561              		.section	.debug_line,"",%progbits
 9562              	.Ldebug_line0:
 9563 0000 3D060000 		.section	.debug_str,"MS",%progbits,1
 9563      0200CA01 
 9563      00000201 
 9563      FB0E0D00 
 9563      01010101 
 9564              	.LASF37:
 9565 0000 66696E64 		.ascii	"findKey\000"
 9565      4B657900 
 9566              	.LASF24:
 9567 0008 636F756E 		.ascii	"count\000"
 9567      7400
 9568              	.LASF76:
 9569 000e 6D616C6C 		.ascii	"malloc\000"
 9569      6F6300
 9570              	.LASF73:
 9571 0015 73747263 		.ascii	"strcmp\000"
 9571      6D7000
 9572              	.LASF31:
ARM GAS  C:\Users\Phuong\AppData\Local\Temp\cczAMJrc.s 			page 186


 9573 001c 415A5F4C 		.ascii	"AZ_LOG_TRACE\000"
 9573      4F475F54 
 9573      52414345 
 9573      00
 9574              	.LASF12:
 9575 0029 73697A65 		.ascii	"size_t\000"
 9575      5F7400
 9576              	.LASF75:
 9577 0030 6D616C6C 		.ascii	"mallocAndStrcpy_s\000"
 9577      6F63416E 
 9577      64537472 
 9577      6370795F 
 9577      7300
 9578              	.LASF47:
 9579 0042 756E646F 		.ascii	"undoneValues\000"
 9579      6E655661 
 9579      6C756573 
 9579      00
 9580              	.LASF9:
 9581 004f 6C6F6E67 		.ascii	"long long unsigned int\000"
 9581      206C6F6E 
 9581      6720756E 
 9581      7369676E 
 9581      65642069 
 9582              	.LASF80:
 9583 0066 6D656D6D 		.ascii	"memmove\000"
 9583      6F766500 
 9584              	.LASF23:
 9585 006e 76616C75 		.ascii	"values\000"
 9585      657300
 9586              	.LASF25:
 9587 0075 6D617046 		.ascii	"mapFilterCallback\000"
 9587      696C7465 
 9587      7243616C 
 9587      6C626163 
 9587      6B00
 9588              	.LASF74:
 9589 0087 66726565 		.ascii	"free\000"
 9589      00
 9590              	.LASF29:
 9591 008c 415A5F4C 		.ascii	"AZ_LOG_ERROR\000"
 9591      4F475F45 
 9591      52524F52 
 9591      00
 9592              	.LASF16:
 9593 0099 4D41505F 		.ascii	"MAP_INVALIDARG\000"
 9593      494E5641 
 9593      4C494441 
 9593      524700
 9594              	.LASF14:
 9595 00a8 4D41505F 		.ascii	"MAP_OK\000"
 9595      4F4B00
 9596              	.LASF1:
 9597 00af 6C6F6E67 		.ascii	"long long int\000"
 9597      206C6F6E 
 9597      6720696E 
 9597      7400
ARM GAS  C:\Users\Phuong\AppData\Local\Temp\cczAMJrc.s 			page 187


 9598              	.LASF3:
 9599 00bd 7369676E 		.ascii	"signed char\000"
 9599      65642063 
 9599      68617200 
 9600              	.LASF44:
 9601 00c9 6E657756 		.ascii	"newValues\000"
 9601      616C7565 
 9601      7300
 9602              	.LASF51:
 9603 00d3 656E756D 		.ascii	"enumAsString\000"
 9603      41735374 
 9603      72696E67 
 9603      00
 9604              	.LASF26:
 9605 00e0 4D41505F 		.ascii	"MAP_FILTER_CALLBACK\000"
 9605      46494C54 
 9605      45525F43 
 9605      414C4C42 
 9605      41434B00 
 9606              	.LASF53:
 9607 00f4 4D61705F 		.ascii	"Map_Create\000"
 9607      43726561 
 9607      746500
 9608              	.LASF81:
 9609 00ff 53545249 		.ascii	"STRING_new_JSON\000"
 9609      4E475F6E 
 9609      65775F4A 
 9609      534F4E00 
 9610              	.LASF7:
 9611 010f 6C6F6E67 		.ascii	"long int\000"
 9611      20696E74 
 9611      00
 9612              	.LASF34:
 9613 0118 4D41505F 		.ascii	"MAP_HANDLE_DATA\000"
 9613      48414E44 
 9613      4C455F44 
 9613      41544100 
 9614              	.LASF92:
 9615 0128 4D61705F 		.ascii	"Map_Destroy\000"
 9615      44657374 
 9615      726F7900 
 9616              	.LASF19:
 9617 0134 4D41505F 		.ascii	"MAP_FILTER_REJECT\000"
 9617      46494C54 
 9617      45525F52 
 9617      454A4543 
 9617      5400
 9618              	.LASF78:
 9619 0146 7265616C 		.ascii	"realloc\000"
 9619      6C6F6300 
 9620              	.LASF65:
 9621 014e 6B657945 		.ascii	"keyExists\000"
 9621      78697374 
 9621      7300
 9622              	.LASF82:
 9623 0158 53545249 		.ascii	"STRING_delete\000"
 9623      4E475F64 
ARM GAS  C:\Users\Phuong\AppData\Local\Temp\cczAMJrc.s 			page 188


 9623      656C6574 
 9623      6500
 9624              	.LASF83:
 9625 0166 53545249 		.ascii	"STRING_concat\000"
 9625      4E475F63 
 9625      6F6E6361 
 9625      7400
 9626              	.LASF39:
 9627 0174 76616C75 		.ascii	"value\000"
 9627      6500
 9628              	.LASF52:
 9629 017a 64657374 		.ascii	"destination\000"
 9629      696E6174 
 9629      696F6E00 
 9630              	.LASF91:
 9631 0186 4D61705F 		.ascii	"Map_DecreaseStorageKeysValues\000"
 9631      44656372 
 9631      65617365 
 9631      53746F72 
 9631      6167654B 
 9632              	.LASF50:
 9633 01a4 4D41505F 		.ascii	"MAP_RESULT_FromString\000"
 9633      52455355 
 9633      4C545F46 
 9633      726F6D53 
 9633      7472696E 
 9634              	.LASF0:
 9635 01ba 756E7369 		.ascii	"unsigned int\000"
 9635      676E6564 
 9635      20696E74 
 9635      00
 9636              	.LASF79:
 9637 01c7 7374726C 		.ascii	"strlen\000"
 9637      656E00
 9638              	.LASF8:
 9639 01ce 6C6F6E67 		.ascii	"long unsigned int\000"
 9639      20756E73 
 9639      69676E65 
 9639      6420696E 
 9639      7400
 9640              	.LASF18:
 9641 01e0 4D41505F 		.ascii	"MAP_KEYNOTFOUND\000"
 9641      4B45594E 
 9641      4F54464F 
 9641      554E4400 
 9642              	.LASF33:
 9643 01f0 4C4F4747 		.ascii	"LOGGER_LOG\000"
 9643      45525F4C 
 9643      4F4700
 9644              	.LASF6:
 9645 01fb 73686F72 		.ascii	"short unsigned int\000"
 9645      7420756E 
 9645      7369676E 
 9645      65642069 
 9645      6E7400
 9646              	.LASF57:
 9647 020e 4D61705F 		.ascii	"Map_Add\000"
ARM GAS  C:\Users\Phuong\AppData\Local\Temp\cczAMJrc.s 			page 189


 9647      41646400 
 9648              	.LASF84:
 9649 0216 53545249 		.ascii	"STRING_concat_with_STRING\000"
 9649      4E475F63 
 9649      6F6E6361 
 9649      745F7769 
 9649      74685F53 
 9650              	.LASF21:
 9651 0230 4D41505F 		.ascii	"MAP_HANDLE\000"
 9651      48414E44 
 9651      4C4500
 9652              	.LASF68:
 9653 023b 76616C75 		.ascii	"valueExists\000"
 9653      65457869 
 9653      73747300 
 9654              	.LASF54:
 9655 0247 6D617046 		.ascii	"mapFilterFunc\000"
 9655      696C7465 
 9655      7246756E 
 9655      6300
 9656              	.LASF71:
 9657 0255 4D61705F 		.ascii	"Map_ToJSON\000"
 9657      546F4A53 
 9657      4F4E00
 9658              	.LASF61:
 9659 0260 76616C75 		.ascii	"valueLength\000"
 9659      654C656E 
 9659      67746800 
 9660              	.LASF41:
 9661 026c 736F7572 		.ascii	"source\000"
 9661      636500
 9662              	.LASF10:
 9663 0273 73697A65 		.ascii	"sizetype\000"
 9663      74797065 
 9663      00
 9664              	.LASF2:
 9665 027c 6C6F6E67 		.ascii	"long double\000"
 9665      20646F75 
 9665      626C6500 
 9666              	.LASF64:
 9667 0288 4D61705F 		.ascii	"Map_ContainsKey\000"
 9667      436F6E74 
 9667      61696E73 
 9667      4B657900 
 9668              	.LASF88:
 9669 0298 433A5C55 		.ascii	"C:\\Users\\Phuong\\Documents\\PSoC Creator\\Dec0820"
 9669      73657273 
 9669      5C506875 
 9669      6F6E675C 
 9669      446F6375 
 9670 02c6 31385C69 		.ascii	"18\\iot-sdk-iot-dev\\PSOC6_FreeRTOS+LwIP+MbedTLS_Az"
 9670      6F742D73 
 9670      646B2D69 
 9670      6F742D64 
 9670      65765C50 
 9671 02f7 7572652D 		.ascii	"ure-IOT-Hub-Demo\\PSOC6_FreeRTOS+LwIP+MbedTLS_Azure"
 9671      494F542D 
ARM GAS  C:\Users\Phuong\AppData\Local\Temp\cczAMJrc.s 			page 190


 9671      4875622D 
 9671      44656D6F 
 9671      5C50534F 
 9672 0329 2D494F54 		.ascii	"-IOT-Hub-Demo.cydsn\000"
 9672      2D487562 
 9672      2D44656D 
 9672      6F2E6379 
 9672      64736E00 
 9673              	.LASF67:
 9674 033d 4D61705F 		.ascii	"Map_ContainsValue\000"
 9674      436F6E74 
 9674      61696E73 
 9674      56616C75 
 9674      6500
 9675              	.LASF15:
 9676 034f 4D41505F 		.ascii	"MAP_ERROR\000"
 9676      4552524F 
 9676      5200
 9677              	.LASF22:
 9678 0359 6B657973 		.ascii	"keys\000"
 9678      00
 9679              	.LASF32:
 9680 035e 4C4F475F 		.ascii	"LOG_CATEGORY\000"
 9680      43415445 
 9680      474F5259 
 9680      00
 9681              	.LASF27:
 9682 036b 4D41505F 		.ascii	"MAP_RESULT_TAG\000"
 9682      52455355 
 9682      4C545F54 
 9682      414700
 9683              	.LASF13:
 9684 037a 53545249 		.ascii	"STRING_HANDLE\000"
 9684      4E475F48 
 9684      414E444C 
 9684      4500
 9685              	.LASF85:
 9686 0388 53545249 		.ascii	"STRING_construct\000"
 9686      4E475F63 
 9686      6F6E7374 
 9686      72756374 
 9686      00
 9687              	.LASF63:
 9688 0399 4D61705F 		.ascii	"Map_Delete\000"
 9688      44656C65 
 9688      746500
 9689              	.LASF66:
 9690 03a4 5F426F6F 		.ascii	"_Bool\000"
 9690      6C00
 9691              	.LASF4:
 9692 03aa 756E7369 		.ascii	"unsigned char\000"
 9692      676E6564 
 9692      20636861 
 9692      7200
 9693              	.LASF62:
 9694 03b8 6E657756 		.ascii	"newValue\000"
 9694      616C7565 
ARM GAS  C:\Users\Phuong\AppData\Local\Temp\cczAMJrc.s 			page 191


 9694      00
 9695              	.LASF5:
 9696 03c1 73686F72 		.ascii	"short int\000"
 9696      7420696E 
 9696      7400
 9697              	.LASF93:
 9698 03cb 4D41505F 		.ascii	"MAP_RESULTStringStorage\000"
 9698      52455355 
 9698      4C545374 
 9698      72696E67 
 9698      53746F72 
 9699              	.LASF46:
 9700 03e3 5F5F6675 		.ascii	"__func__\000"
 9700      6E635F5F 
 9700      00
 9701              	.LASF49:
 9702 03ec 4D41505F 		.ascii	"MAP_RESULTStrings\000"
 9702      52455355 
 9702      4C545374 
 9702      72696E67 
 9702      7300
 9703              	.LASF86:
 9704 03fe 474E5520 		.ascii	"GNU C11 5.4.1 20160609 (release) [ARM/embedded-5-br"
 9704      43313120 
 9704      352E342E 
 9704      31203230 
 9704      31363036 
 9705 0431 616E6368 		.ascii	"anch revision 237715] -mcpu=cortex-m0plus -mthumb -"
 9705      20726576 
 9705      6973696F 
 9705      6E203233 
 9705      37373135 
 9706 0464 67202D4F 		.ascii	"g -Og -ffunction-sections -ffat-lto-objects\000"
 9706      67202D66 
 9706      66756E63 
 9706      74696F6E 
 9706      2D736563 
 9707              	.LASF45:
 9708 0490 756E646F 		.ascii	"undoneKeys\000"
 9708      6E654B65 
 9708      797300
 9709              	.LASF11:
 9710 049b 63686172 		.ascii	"char\000"
 9710      00
 9711              	.LASF40:
 9712 04a0 4D61705F 		.ascii	"Map_CloneVector\000"
 9712      436C6F6E 
 9712      65566563 
 9712      746F7200 
 9713              	.LASF58:
 9714 04b0 4D61705F 		.ascii	"Map_AddOrUpdate\000"
 9714      4164644F 
 9714      72557064 
 9714      61746500 
 9715              	.LASF20:
 9716 04c0 4D41505F 		.ascii	"MAP_RESULT\000"
 9716      52455355 
ARM GAS  C:\Users\Phuong\AppData\Local\Temp\cczAMJrc.s 			page 192


 9716      4C5400
 9717              	.LASF60:
 9718 04cb 696E6465 		.ascii	"index\000"
 9718      7800
 9719              	.LASF59:
 9720 04d1 77686572 		.ascii	"whereIsIt\000"
 9720      65497349 
 9720      7400
 9721              	.LASF94:
 9722 04db 6D656D63 		.ascii	"memcpy\000"
 9722      707900
 9723              	.LASF17:
 9724 04e2 4D41505F 		.ascii	"MAP_KEYEXISTS\000"
 9724      4B455945 
 9724      58495354 
 9724      5300
 9725              	.LASF42:
 9726 04f0 4D61705F 		.ascii	"Map_IncreaseStorageKeysValues\000"
 9726      496E6372 
 9726      65617365 
 9726      53746F72 
 9726      6167654B 
 9727              	.LASF72:
 9728 050e 62726561 		.ascii	"breakFor\000"
 9728      6B466F72 
 9728      00
 9729              	.LASF38:
 9730 0517 66696E64 		.ascii	"findValue\000"
 9730      56616C75 
 9730      6500
 9731              	.LASF77:
 9732 0521 786C6F67 		.ascii	"xlogging_get_log_function\000"
 9732      67696E67 
 9732      5F676574 
 9732      5F6C6F67 
 9732      5F66756E 
 9733              	.LASF90:
 9734 053b 4D41505F 		.ascii	"MAP_HANDLE_DATA_TAG\000"
 9734      48414E44 
 9734      4C455F44 
 9734      4154415F 
 9734      54414700 
 9735              	.LASF56:
 9736 054f 4D61705F 		.ascii	"Map_Clone\000"
 9736      436C6F6E 
 9736      6500
 9737              	.LASF69:
 9738 0559 4D61705F 		.ascii	"Map_GetValueFromKey\000"
 9738      47657456 
 9738      616C7565 
 9738      46726F6D 
 9738      4B657900 
 9739              	.LASF48:
 9740 056d 696E7365 		.ascii	"insertNewKeyValue\000"
 9740      72744E65 
 9740      774B6579 
 9740      56616C75 
ARM GAS  C:\Users\Phuong\AppData\Local\Temp\cczAMJrc.s 			page 193


 9740      6500
 9741              	.LASF55:
 9742 057f 68616E64 		.ascii	"handle\000"
 9742      6C6500
 9743              	.LASF35:
 9744 0586 68616E64 		.ascii	"handleData\000"
 9744      6C654461 
 9744      746100
 9745              	.LASF70:
 9746 0591 4D61705F 		.ascii	"Map_GetInternals\000"
 9746      47657449 
 9746      6E746572 
 9746      6E616C73 
 9746      00
 9747              	.LASF89:
 9748 05a2 53545249 		.ascii	"STRING_TAG\000"
 9748      4E475F54 
 9748      414700
 9749              	.LASF43:
 9750 05ad 6E65774B 		.ascii	"newKeys\000"
 9750      65797300 
 9751              	.LASF87:
 9752 05b5 536F7572 		.ascii	"Source\\azure_iot_sdk\\c-utility\\src\\map.c\000"
 9752      63655C61 
 9752      7A757265 
 9752      5F696F74 
 9752      5F73646B 
 9753              	.LASF28:
 9754 05de 4C4F475F 		.ascii	"LOG_CATEGORY_TAG\000"
 9754      43415445 
 9754      474F5259 
 9754      5F544147 
 9754      00
 9755              	.LASF36:
 9756 05ef 72657375 		.ascii	"result\000"
 9756      6C7400
 9757              	.LASF30:
 9758 05f6 415A5F4C 		.ascii	"AZ_LOG_INFO\000"
 9758      4F475F49 
 9758      4E464F00 
 9759              		.ident	"GCC: (GNU Tools for ARM Embedded Processors) 5.4.1 20160609 (release) [ARM/embedded-5-bran
