ARM GAS  C:\Users\Phuong\AppData\Local\Temp\cczAMJrc.s 			page 1


   1              		.syntax unified
   2              		.cpu cortex-m0plus
   3              		.fpu softvfp
   4              		.eabi_attribute 20, 1
   5              		.eabi_attribute 21, 1
   6              		.eabi_attribute 23, 3
   7              		.eabi_attribute 24, 1
   8              		.eabi_attribute 25, 1
   9              		.eabi_attribute 26, 1
  10              		.eabi_attribute 30, 1
  11              		.eabi_attribute 34, 0
  12              		.eabi_attribute 18, 4
  13              		.thumb
  14              		.syntax unified
  15              		.file	"map.c"
  16              		.text
  17              	.Ltext0:
  18              		.cfi_sections	.debug_frame
  19              		.section	.text.findKey,"ax",%progbits
  20              		.align	2
  21              		.code	16
  22              		.thumb_func
  23              		.type	findKey, %function
  24              	findKey:
  25              	.LFB9:
  26              		.file 1 "Source\\azure_iot_sdk\\c-utility\\src\\map.c"
   1:Source\azure_iot_sdk\c-utility\src/map.c **** // Copyright (c) Microsoft. All rights reserved.
   2:Source\azure_iot_sdk\c-utility\src/map.c **** // Licensed under the MIT license. See LICENSE file in the project root for full license informatio
   3:Source\azure_iot_sdk\c-utility\src/map.c **** 
   4:Source\azure_iot_sdk\c-utility\src/map.c **** #include <stdlib.h>
   5:Source\azure_iot_sdk\c-utility\src/map.c **** #include "azure_c_shared_utility/gballoc.h"
   6:Source\azure_iot_sdk\c-utility\src/map.c **** #include "azure_c_shared_utility/map.h"
   7:Source\azure_iot_sdk\c-utility\src/map.c **** #include "azure_c_shared_utility/optimize_size.h"
   8:Source\azure_iot_sdk\c-utility\src/map.c **** #include "azure_c_shared_utility/xlogging.h"
   9:Source\azure_iot_sdk\c-utility\src/map.c **** #include "azure_c_shared_utility/strings.h"
  10:Source\azure_iot_sdk\c-utility\src/map.c **** 
  11:Source\azure_iot_sdk\c-utility\src/map.c **** DEFINE_ENUM_STRINGS(MAP_RESULT, MAP_RESULT_VALUES);
  12:Source\azure_iot_sdk\c-utility\src/map.c **** 
  13:Source\azure_iot_sdk\c-utility\src/map.c **** typedef struct MAP_HANDLE_DATA_TAG
  14:Source\azure_iot_sdk\c-utility\src/map.c **** {
  15:Source\azure_iot_sdk\c-utility\src/map.c ****     char** keys;
  16:Source\azure_iot_sdk\c-utility\src/map.c ****     char** values;
  17:Source\azure_iot_sdk\c-utility\src/map.c ****     size_t count;
  18:Source\azure_iot_sdk\c-utility\src/map.c ****     MAP_FILTER_CALLBACK mapFilterCallback;
  19:Source\azure_iot_sdk\c-utility\src/map.c **** }MAP_HANDLE_DATA;
  20:Source\azure_iot_sdk\c-utility\src/map.c **** 
  21:Source\azure_iot_sdk\c-utility\src/map.c **** #define LOG_MAP_ERROR LogError("result = %s", ENUM_TO_STRING(MAP_RESULT, result));
  22:Source\azure_iot_sdk\c-utility\src/map.c **** 
  23:Source\azure_iot_sdk\c-utility\src/map.c **** MAP_HANDLE Map_Create(MAP_FILTER_CALLBACK mapFilterFunc)
  24:Source\azure_iot_sdk\c-utility\src/map.c **** {
  25:Source\azure_iot_sdk\c-utility\src/map.c ****     /*Codes_SRS_MAP_02_001: [Map_Create shall create a new, empty map.]*/
  26:Source\azure_iot_sdk\c-utility\src/map.c ****     MAP_HANDLE_DATA* result = (MAP_HANDLE_DATA*)malloc(sizeof(MAP_HANDLE_DATA));
  27:Source\azure_iot_sdk\c-utility\src/map.c ****     /*Codes_SRS_MAP_02_002: [If during creation there are any error, then Map_Create shall return N
  28:Source\azure_iot_sdk\c-utility\src/map.c ****     if (result != NULL)
  29:Source\azure_iot_sdk\c-utility\src/map.c ****     {
  30:Source\azure_iot_sdk\c-utility\src/map.c ****         /*Codes_SRS_MAP_02_003: [Otherwise, it shall return a non-NULL handle that can be used in s
  31:Source\azure_iot_sdk\c-utility\src/map.c ****         result->keys = NULL;
ARM GAS  C:\Users\Phuong\AppData\Local\Temp\cczAMJrc.s 			page 2


  32:Source\azure_iot_sdk\c-utility\src/map.c ****         result->values = NULL;
  33:Source\azure_iot_sdk\c-utility\src/map.c ****         result->count = 0;
  34:Source\azure_iot_sdk\c-utility\src/map.c ****         result->mapFilterCallback = mapFilterFunc;
  35:Source\azure_iot_sdk\c-utility\src/map.c ****     }
  36:Source\azure_iot_sdk\c-utility\src/map.c ****     return (MAP_HANDLE)result;
  37:Source\azure_iot_sdk\c-utility\src/map.c **** }
  38:Source\azure_iot_sdk\c-utility\src/map.c **** 
  39:Source\azure_iot_sdk\c-utility\src/map.c **** void Map_Destroy(MAP_HANDLE handle)
  40:Source\azure_iot_sdk\c-utility\src/map.c **** {
  41:Source\azure_iot_sdk\c-utility\src/map.c ****     /*Codes_SRS_MAP_02_005: [If parameter handle is NULL then Map_Destroy shall take no action.] */
  42:Source\azure_iot_sdk\c-utility\src/map.c ****     if (handle != NULL)
  43:Source\azure_iot_sdk\c-utility\src/map.c ****     {
  44:Source\azure_iot_sdk\c-utility\src/map.c ****         /*Codes_SRS_MAP_02_004: [Map_Destroy shall release all resources associated with the map.] 
  45:Source\azure_iot_sdk\c-utility\src/map.c ****         MAP_HANDLE_DATA* handleData = (MAP_HANDLE_DATA*)handle;
  46:Source\azure_iot_sdk\c-utility\src/map.c ****         size_t i;
  47:Source\azure_iot_sdk\c-utility\src/map.c **** 
  48:Source\azure_iot_sdk\c-utility\src/map.c ****         for (i = 0; i < handleData->count; i++)
  49:Source\azure_iot_sdk\c-utility\src/map.c ****         {
  50:Source\azure_iot_sdk\c-utility\src/map.c ****             free(handleData->keys[i]);
  51:Source\azure_iot_sdk\c-utility\src/map.c ****             free(handleData->values[i]);
  52:Source\azure_iot_sdk\c-utility\src/map.c ****         }
  53:Source\azure_iot_sdk\c-utility\src/map.c ****         free(handleData->keys);
  54:Source\azure_iot_sdk\c-utility\src/map.c ****         free(handleData->values);
  55:Source\azure_iot_sdk\c-utility\src/map.c ****         free(handleData);
  56:Source\azure_iot_sdk\c-utility\src/map.c ****     }
  57:Source\azure_iot_sdk\c-utility\src/map.c **** }
  58:Source\azure_iot_sdk\c-utility\src/map.c **** 
  59:Source\azure_iot_sdk\c-utility\src/map.c **** /*makes a copy of a vector of const char*, having size "size". source cannot be NULL*/
  60:Source\azure_iot_sdk\c-utility\src/map.c **** /*returns NULL if it fails*/
  61:Source\azure_iot_sdk\c-utility\src/map.c **** static char** Map_CloneVector(const char*const * source, size_t count)
  62:Source\azure_iot_sdk\c-utility\src/map.c **** {
  63:Source\azure_iot_sdk\c-utility\src/map.c ****     char** result;
  64:Source\azure_iot_sdk\c-utility\src/map.c ****     result = (char**)malloc(count *sizeof(char*));
  65:Source\azure_iot_sdk\c-utility\src/map.c ****     if (result == NULL)
  66:Source\azure_iot_sdk\c-utility\src/map.c ****     {
  67:Source\azure_iot_sdk\c-utility\src/map.c ****         /*do nothing, just return it (NULL)*/
  68:Source\azure_iot_sdk\c-utility\src/map.c ****     }
  69:Source\azure_iot_sdk\c-utility\src/map.c ****     else
  70:Source\azure_iot_sdk\c-utility\src/map.c ****     {
  71:Source\azure_iot_sdk\c-utility\src/map.c ****         size_t i;
  72:Source\azure_iot_sdk\c-utility\src/map.c ****         for (i = 0; i < count; i++)
  73:Source\azure_iot_sdk\c-utility\src/map.c ****         {
  74:Source\azure_iot_sdk\c-utility\src/map.c ****             if (mallocAndStrcpy_s(result + i, source[i]) != 0)
  75:Source\azure_iot_sdk\c-utility\src/map.c ****             {
  76:Source\azure_iot_sdk\c-utility\src/map.c ****                 break;
  77:Source\azure_iot_sdk\c-utility\src/map.c ****             }
  78:Source\azure_iot_sdk\c-utility\src/map.c ****         }
  79:Source\azure_iot_sdk\c-utility\src/map.c **** 
  80:Source\azure_iot_sdk\c-utility\src/map.c ****         if (i == count)
  81:Source\azure_iot_sdk\c-utility\src/map.c ****         {
  82:Source\azure_iot_sdk\c-utility\src/map.c ****             /*it is all good, proceed to return result*/
  83:Source\azure_iot_sdk\c-utility\src/map.c ****         }
  84:Source\azure_iot_sdk\c-utility\src/map.c ****         else
  85:Source\azure_iot_sdk\c-utility\src/map.c ****         {
  86:Source\azure_iot_sdk\c-utility\src/map.c ****             size_t j;
  87:Source\azure_iot_sdk\c-utility\src/map.c ****             for (j = 0; j < i; j++)
  88:Source\azure_iot_sdk\c-utility\src/map.c ****             {
ARM GAS  C:\Users\Phuong\AppData\Local\Temp\cczAMJrc.s 			page 3


  89:Source\azure_iot_sdk\c-utility\src/map.c ****                 free(result[j]);
  90:Source\azure_iot_sdk\c-utility\src/map.c ****             }
  91:Source\azure_iot_sdk\c-utility\src/map.c ****             free(result);
  92:Source\azure_iot_sdk\c-utility\src/map.c ****             result = NULL;
  93:Source\azure_iot_sdk\c-utility\src/map.c ****         }
  94:Source\azure_iot_sdk\c-utility\src/map.c ****     }
  95:Source\azure_iot_sdk\c-utility\src/map.c ****     return result;
  96:Source\azure_iot_sdk\c-utility\src/map.c **** }
  97:Source\azure_iot_sdk\c-utility\src/map.c **** 
  98:Source\azure_iot_sdk\c-utility\src/map.c **** /*Codes_SRS_MAP_02_039: [Map_Clone shall make a copy of the map indicated by parameter handle and r
  99:Source\azure_iot_sdk\c-utility\src/map.c **** MAP_HANDLE Map_Clone(MAP_HANDLE handle)
 100:Source\azure_iot_sdk\c-utility\src/map.c **** {
 101:Source\azure_iot_sdk\c-utility\src/map.c ****     MAP_HANDLE_DATA* result;
 102:Source\azure_iot_sdk\c-utility\src/map.c ****     if (handle == NULL)
 103:Source\azure_iot_sdk\c-utility\src/map.c ****     {
 104:Source\azure_iot_sdk\c-utility\src/map.c ****         /*Codes_SRS_MAP_02_038: [Map_Clone returns NULL if parameter handle is NULL.]*/
 105:Source\azure_iot_sdk\c-utility\src/map.c ****         result = NULL;
 106:Source\azure_iot_sdk\c-utility\src/map.c ****         LogError("invalid arg to Map_Clone (NULL)");
 107:Source\azure_iot_sdk\c-utility\src/map.c ****     }
 108:Source\azure_iot_sdk\c-utility\src/map.c ****     else
 109:Source\azure_iot_sdk\c-utility\src/map.c ****     {
 110:Source\azure_iot_sdk\c-utility\src/map.c ****         MAP_HANDLE_DATA * handleData = (MAP_HANDLE_DATA *)handle;
 111:Source\azure_iot_sdk\c-utility\src/map.c ****         result = (MAP_HANDLE_DATA*)malloc(sizeof(MAP_HANDLE_DATA));
 112:Source\azure_iot_sdk\c-utility\src/map.c ****         if (result == NULL)
 113:Source\azure_iot_sdk\c-utility\src/map.c ****         {
 114:Source\azure_iot_sdk\c-utility\src/map.c ****             /*Codes_SRS_MAP_02_047: [If during cloning, any operation fails, then Map_Clone shall r
 115:Source\azure_iot_sdk\c-utility\src/map.c ****             /*do nothing, proceed to return it, this is an error case*/
 116:Source\azure_iot_sdk\c-utility\src/map.c ****             LogError("unable to malloc");
 117:Source\azure_iot_sdk\c-utility\src/map.c ****         }
 118:Source\azure_iot_sdk\c-utility\src/map.c ****         else
 119:Source\azure_iot_sdk\c-utility\src/map.c ****         {
 120:Source\azure_iot_sdk\c-utility\src/map.c ****             if (handleData->count == 0)
 121:Source\azure_iot_sdk\c-utility\src/map.c ****             {
 122:Source\azure_iot_sdk\c-utility\src/map.c ****                 result->count = 0;
 123:Source\azure_iot_sdk\c-utility\src/map.c ****                 result->keys = NULL;
 124:Source\azure_iot_sdk\c-utility\src/map.c ****                 result->values = NULL;
 125:Source\azure_iot_sdk\c-utility\src/map.c ****                 result->mapFilterCallback = NULL;
 126:Source\azure_iot_sdk\c-utility\src/map.c ****             }
 127:Source\azure_iot_sdk\c-utility\src/map.c ****             else
 128:Source\azure_iot_sdk\c-utility\src/map.c ****             {
 129:Source\azure_iot_sdk\c-utility\src/map.c ****                 result->mapFilterCallback = handleData->mapFilterCallback;
 130:Source\azure_iot_sdk\c-utility\src/map.c ****                 result->count = handleData->count;
 131:Source\azure_iot_sdk\c-utility\src/map.c ****                 if( (result->keys = Map_CloneVector((const char* const*)handleData->keys, handleDat
 132:Source\azure_iot_sdk\c-utility\src/map.c ****                 {
 133:Source\azure_iot_sdk\c-utility\src/map.c ****                     /*Codes_SRS_MAP_02_047: [If during cloning, any operation fails, then Map_Clone
 134:Source\azure_iot_sdk\c-utility\src/map.c ****                     LogError("unable to clone keys");
 135:Source\azure_iot_sdk\c-utility\src/map.c ****                     free(result);
 136:Source\azure_iot_sdk\c-utility\src/map.c ****                     result = NULL;
 137:Source\azure_iot_sdk\c-utility\src/map.c ****                 }
 138:Source\azure_iot_sdk\c-utility\src/map.c ****                 else if ((result->values = Map_CloneVector((const char* const*)handleData->values, 
 139:Source\azure_iot_sdk\c-utility\src/map.c ****                 {
 140:Source\azure_iot_sdk\c-utility\src/map.c ****                     size_t i;
 141:Source\azure_iot_sdk\c-utility\src/map.c ****                     /*Codes_SRS_MAP_02_047: [If during cloning, any operation fails, then Map_Clone
 142:Source\azure_iot_sdk\c-utility\src/map.c ****                     LogError("unable to clone values");
 143:Source\azure_iot_sdk\c-utility\src/map.c ****                     for (i = 0; i < result->count; i++)
 144:Source\azure_iot_sdk\c-utility\src/map.c ****                     {
 145:Source\azure_iot_sdk\c-utility\src/map.c ****                         free(result->keys[i]);
ARM GAS  C:\Users\Phuong\AppData\Local\Temp\cczAMJrc.s 			page 4


 146:Source\azure_iot_sdk\c-utility\src/map.c ****                     }
 147:Source\azure_iot_sdk\c-utility\src/map.c ****                     free(result->keys);
 148:Source\azure_iot_sdk\c-utility\src/map.c ****                     free(result);
 149:Source\azure_iot_sdk\c-utility\src/map.c ****                     result = NULL;
 150:Source\azure_iot_sdk\c-utility\src/map.c ****                 }
 151:Source\azure_iot_sdk\c-utility\src/map.c ****                 else
 152:Source\azure_iot_sdk\c-utility\src/map.c ****                 {
 153:Source\azure_iot_sdk\c-utility\src/map.c ****                     /*all fine, return it*/
 154:Source\azure_iot_sdk\c-utility\src/map.c ****                 }
 155:Source\azure_iot_sdk\c-utility\src/map.c ****             }
 156:Source\azure_iot_sdk\c-utility\src/map.c ****         }
 157:Source\azure_iot_sdk\c-utility\src/map.c ****     }
 158:Source\azure_iot_sdk\c-utility\src/map.c ****     return (MAP_HANDLE)result;
 159:Source\azure_iot_sdk\c-utility\src/map.c **** }
 160:Source\azure_iot_sdk\c-utility\src/map.c **** 
 161:Source\azure_iot_sdk\c-utility\src/map.c **** static int Map_IncreaseStorageKeysValues(MAP_HANDLE_DATA* handleData)
 162:Source\azure_iot_sdk\c-utility\src/map.c **** {
 163:Source\azure_iot_sdk\c-utility\src/map.c ****     int result;
 164:Source\azure_iot_sdk\c-utility\src/map.c ****     char** newKeys = (char**)realloc(handleData->keys, (handleData->count + 1) * sizeof(char*));
 165:Source\azure_iot_sdk\c-utility\src/map.c ****     if (newKeys == NULL)
 166:Source\azure_iot_sdk\c-utility\src/map.c ****     {
 167:Source\azure_iot_sdk\c-utility\src/map.c ****         LogError("realloc error");
 168:Source\azure_iot_sdk\c-utility\src/map.c ****         result = __FAILURE__;
 169:Source\azure_iot_sdk\c-utility\src/map.c ****     }
 170:Source\azure_iot_sdk\c-utility\src/map.c ****     else
 171:Source\azure_iot_sdk\c-utility\src/map.c ****     {
 172:Source\azure_iot_sdk\c-utility\src/map.c ****         char** newValues;
 173:Source\azure_iot_sdk\c-utility\src/map.c ****         handleData->keys = newKeys;
 174:Source\azure_iot_sdk\c-utility\src/map.c ****         handleData->keys[handleData->count] = NULL;
 175:Source\azure_iot_sdk\c-utility\src/map.c ****         newValues = (char**)realloc(handleData->values, (handleData->count + 1) * sizeof(char*));
 176:Source\azure_iot_sdk\c-utility\src/map.c ****         if (newValues == NULL)
 177:Source\azure_iot_sdk\c-utility\src/map.c ****         {
 178:Source\azure_iot_sdk\c-utility\src/map.c ****             LogError("realloc error");
 179:Source\azure_iot_sdk\c-utility\src/map.c ****             if (handleData->count == 0) /*avoiding an implementation defined behavior */
 180:Source\azure_iot_sdk\c-utility\src/map.c ****             {
 181:Source\azure_iot_sdk\c-utility\src/map.c ****                 free(handleData->keys);
 182:Source\azure_iot_sdk\c-utility\src/map.c ****                 handleData->keys = NULL;
 183:Source\azure_iot_sdk\c-utility\src/map.c ****             }
 184:Source\azure_iot_sdk\c-utility\src/map.c ****             else
 185:Source\azure_iot_sdk\c-utility\src/map.c ****             {
 186:Source\azure_iot_sdk\c-utility\src/map.c ****                 char** undoneKeys = (char**)realloc(handleData->keys, (handleData->count) * sizeof(
 187:Source\azure_iot_sdk\c-utility\src/map.c ****                 if (undoneKeys == NULL)
 188:Source\azure_iot_sdk\c-utility\src/map.c ****                 {
 189:Source\azure_iot_sdk\c-utility\src/map.c ****                     LogError("CATASTROPHIC error, unable to undo through realloc to a smaller size"
 190:Source\azure_iot_sdk\c-utility\src/map.c ****                 }
 191:Source\azure_iot_sdk\c-utility\src/map.c ****                 else
 192:Source\azure_iot_sdk\c-utility\src/map.c ****                 {
 193:Source\azure_iot_sdk\c-utility\src/map.c ****                     handleData->keys = undoneKeys;
 194:Source\azure_iot_sdk\c-utility\src/map.c ****                 }
 195:Source\azure_iot_sdk\c-utility\src/map.c ****             }
 196:Source\azure_iot_sdk\c-utility\src/map.c ****             result = __FAILURE__;
 197:Source\azure_iot_sdk\c-utility\src/map.c ****         }
 198:Source\azure_iot_sdk\c-utility\src/map.c ****         else
 199:Source\azure_iot_sdk\c-utility\src/map.c ****         {
 200:Source\azure_iot_sdk\c-utility\src/map.c ****             handleData->values = newValues;
 201:Source\azure_iot_sdk\c-utility\src/map.c ****             handleData->values[handleData->count] = NULL;
 202:Source\azure_iot_sdk\c-utility\src/map.c ****             handleData->count++;
ARM GAS  C:\Users\Phuong\AppData\Local\Temp\cczAMJrc.s 			page 5


 203:Source\azure_iot_sdk\c-utility\src/map.c ****             result = 0;
 204:Source\azure_iot_sdk\c-utility\src/map.c ****         }
 205:Source\azure_iot_sdk\c-utility\src/map.c ****     }
 206:Source\azure_iot_sdk\c-utility\src/map.c ****     return result;
 207:Source\azure_iot_sdk\c-utility\src/map.c **** }
 208:Source\azure_iot_sdk\c-utility\src/map.c **** 
 209:Source\azure_iot_sdk\c-utility\src/map.c **** static void Map_DecreaseStorageKeysValues(MAP_HANDLE_DATA* handleData)
 210:Source\azure_iot_sdk\c-utility\src/map.c **** {
 211:Source\azure_iot_sdk\c-utility\src/map.c ****     if (handleData->count == 1)
 212:Source\azure_iot_sdk\c-utility\src/map.c ****     {
 213:Source\azure_iot_sdk\c-utility\src/map.c ****         free(handleData->keys);
 214:Source\azure_iot_sdk\c-utility\src/map.c ****         handleData->keys = NULL;
 215:Source\azure_iot_sdk\c-utility\src/map.c ****         free(handleData->values);
 216:Source\azure_iot_sdk\c-utility\src/map.c ****         handleData->values = NULL;
 217:Source\azure_iot_sdk\c-utility\src/map.c ****         handleData->count = 0;
 218:Source\azure_iot_sdk\c-utility\src/map.c ****         handleData->mapFilterCallback = NULL;
 219:Source\azure_iot_sdk\c-utility\src/map.c ****     }
 220:Source\azure_iot_sdk\c-utility\src/map.c ****     else
 221:Source\azure_iot_sdk\c-utility\src/map.c ****     {
 222:Source\azure_iot_sdk\c-utility\src/map.c ****         /*certainly > 1...*/
 223:Source\azure_iot_sdk\c-utility\src/map.c ****         char** undoneValues;
 224:Source\azure_iot_sdk\c-utility\src/map.c ****         char** undoneKeys = (char**)realloc(handleData->keys, sizeof(char*)* (handleData->count - 1
 225:Source\azure_iot_sdk\c-utility\src/map.c ****         if (undoneKeys == NULL)
 226:Source\azure_iot_sdk\c-utility\src/map.c ****         {
 227:Source\azure_iot_sdk\c-utility\src/map.c ****             LogError("CATASTROPHIC error, unable to undo through realloc to a smaller size");
 228:Source\azure_iot_sdk\c-utility\src/map.c ****         }
 229:Source\azure_iot_sdk\c-utility\src/map.c ****         else
 230:Source\azure_iot_sdk\c-utility\src/map.c ****         {
 231:Source\azure_iot_sdk\c-utility\src/map.c ****             handleData->keys = undoneKeys;
 232:Source\azure_iot_sdk\c-utility\src/map.c ****         }
 233:Source\azure_iot_sdk\c-utility\src/map.c **** 
 234:Source\azure_iot_sdk\c-utility\src/map.c ****         undoneValues = (char**)realloc(handleData->values, sizeof(char*)* (handleData->count - 1));
 235:Source\azure_iot_sdk\c-utility\src/map.c ****         if (undoneValues == NULL)
 236:Source\azure_iot_sdk\c-utility\src/map.c ****         {
 237:Source\azure_iot_sdk\c-utility\src/map.c ****             LogError("CATASTROPHIC error, unable to undo through realloc to a smaller size");
 238:Source\azure_iot_sdk\c-utility\src/map.c ****         }
 239:Source\azure_iot_sdk\c-utility\src/map.c ****         else
 240:Source\azure_iot_sdk\c-utility\src/map.c ****         {
 241:Source\azure_iot_sdk\c-utility\src/map.c ****             handleData->values = undoneValues;
 242:Source\azure_iot_sdk\c-utility\src/map.c ****         }
 243:Source\azure_iot_sdk\c-utility\src/map.c **** 
 244:Source\azure_iot_sdk\c-utility\src/map.c ****         handleData->count--;
 245:Source\azure_iot_sdk\c-utility\src/map.c ****     }
 246:Source\azure_iot_sdk\c-utility\src/map.c **** }
 247:Source\azure_iot_sdk\c-utility\src/map.c **** 
 248:Source\azure_iot_sdk\c-utility\src/map.c **** static char** findKey(MAP_HANDLE_DATA* handleData, const char* key)
 249:Source\azure_iot_sdk\c-utility\src/map.c **** {
  27              		.loc 1 249 0
  28              		.cfi_startproc
  29              		@ args = 0, pretend = 0, frame = 8
  30              		@ frame_needed = 0, uses_anonymous_args = 0
  31              	.LVL0:
  32 0000 F0B5     		push	{r4, r5, r6, r7, lr}
  33              		.cfi_def_cfa_offset 20
  34              		.cfi_offset 4, -20
  35              		.cfi_offset 5, -16
  36              		.cfi_offset 6, -12
ARM GAS  C:\Users\Phuong\AppData\Local\Temp\cczAMJrc.s 			page 6


  37              		.cfi_offset 7, -8
  38              		.cfi_offset 14, -4
  39 0002 83B0     		sub	sp, sp, #12
  40              		.cfi_def_cfa_offset 32
  41 0004 0700     		movs	r7, r0
  42 0006 0191     		str	r1, [sp, #4]
 250:Source\azure_iot_sdk\c-utility\src/map.c ****     char** result;
 251:Source\azure_iot_sdk\c-utility\src/map.c ****     if (handleData->keys == NULL)
  43              		.loc 1 251 0
  44 0008 0668     		ldr	r6, [r0]
  45 000a 002E     		cmp	r6, #0
  46 000c 0FD0     		beq	.L5
  47 000e 0025     		movs	r5, #0
  48 0010 08E0     		b	.L3
  49              	.LVL1:
  50              	.L4:
  51              	.LBB2:
 252:Source\azure_iot_sdk\c-utility\src/map.c ****     {
 253:Source\azure_iot_sdk\c-utility\src/map.c ****         result = NULL;
 254:Source\azure_iot_sdk\c-utility\src/map.c ****     }
 255:Source\azure_iot_sdk\c-utility\src/map.c ****     else
 256:Source\azure_iot_sdk\c-utility\src/map.c ****     {
 257:Source\azure_iot_sdk\c-utility\src/map.c ****         size_t i;
 258:Source\azure_iot_sdk\c-utility\src/map.c ****         result = NULL;
 259:Source\azure_iot_sdk\c-utility\src/map.c ****         for (i = 0; i < handleData->count; i++)
 260:Source\azure_iot_sdk\c-utility\src/map.c ****         {
 261:Source\azure_iot_sdk\c-utility\src/map.c ****             if (strcmp(handleData->keys[i], key) == 0)
  52              		.loc 1 261 0
  53 0012 AC00     		lsls	r4, r5, #2
  54 0014 3419     		adds	r4, r6, r4
  55 0016 0199     		ldr	r1, [sp, #4]
  56 0018 2068     		ldr	r0, [r4]
  57 001a FFF7FEFF 		bl	strcmp
  58              	.LVL2:
  59 001e 0028     		cmp	r0, #0
  60 0020 06D0     		beq	.L2
 259:Source\azure_iot_sdk\c-utility\src/map.c ****         {
  61              		.loc 1 259 0 discriminator 2
  62 0022 0135     		adds	r5, r5, #1
  63              	.LVL3:
  64              	.L3:
 259:Source\azure_iot_sdk\c-utility\src/map.c ****         {
  65              		.loc 1 259 0 is_stmt 0 discriminator 1
  66 0024 BB68     		ldr	r3, [r7, #8]
  67 0026 9D42     		cmp	r5, r3
  68 0028 F3D3     		bcc	.L4
 258:Source\azure_iot_sdk\c-utility\src/map.c ****         for (i = 0; i < handleData->count; i++)
  69              		.loc 1 258 0 is_stmt 1
  70 002a 0024     		movs	r4, #0
  71 002c 00E0     		b	.L2
  72              	.LVL4:
  73              	.L5:
  74              	.LBE2:
 253:Source\azure_iot_sdk\c-utility\src/map.c ****     }
  75              		.loc 1 253 0
  76 002e 0024     		movs	r4, #0
  77              	.LVL5:
ARM GAS  C:\Users\Phuong\AppData\Local\Temp\cczAMJrc.s 			page 7


  78              	.L2:
 262:Source\azure_iot_sdk\c-utility\src/map.c ****             {
 263:Source\azure_iot_sdk\c-utility\src/map.c ****                 result = handleData->keys + i;
 264:Source\azure_iot_sdk\c-utility\src/map.c ****                 break;
 265:Source\azure_iot_sdk\c-utility\src/map.c ****             }
 266:Source\azure_iot_sdk\c-utility\src/map.c ****         }
 267:Source\azure_iot_sdk\c-utility\src/map.c ****     }
 268:Source\azure_iot_sdk\c-utility\src/map.c ****     return result;
 269:Source\azure_iot_sdk\c-utility\src/map.c **** }
  79              		.loc 1 269 0
  80 0030 2000     		movs	r0, r4
  81 0032 03B0     		add	sp, sp, #12
  82              		@ sp needed
  83              	.LVL6:
  84              	.LVL7:
  85 0034 F0BD     		pop	{r4, r5, r6, r7, pc}
  86              		.cfi_endproc
  87              	.LFE9:
  88              		.size	findKey, .-findKey
  89 0036 C046     		.section	.text.findValue,"ax",%progbits
  90              		.align	2
  91              		.code	16
  92              		.thumb_func
  93              		.type	findValue, %function
  94              	findValue:
  95              	.LFB10:
 270:Source\azure_iot_sdk\c-utility\src/map.c **** 
 271:Source\azure_iot_sdk\c-utility\src/map.c **** static char** findValue(MAP_HANDLE_DATA* handleData, const char* value)
 272:Source\azure_iot_sdk\c-utility\src/map.c **** {
  96              		.loc 1 272 0
  97              		.cfi_startproc
  98              		@ args = 0, pretend = 0, frame = 8
  99              		@ frame_needed = 0, uses_anonymous_args = 0
 100              	.LVL8:
 101 0000 F0B5     		push	{r4, r5, r6, r7, lr}
 102              		.cfi_def_cfa_offset 20
 103              		.cfi_offset 4, -20
 104              		.cfi_offset 5, -16
 105              		.cfi_offset 6, -12
 106              		.cfi_offset 7, -8
 107              		.cfi_offset 14, -4
 108 0002 83B0     		sub	sp, sp, #12
 109              		.cfi_def_cfa_offset 32
 110 0004 0700     		movs	r7, r0
 111 0006 0191     		str	r1, [sp, #4]
 273:Source\azure_iot_sdk\c-utility\src/map.c ****     char** result;
 274:Source\azure_iot_sdk\c-utility\src/map.c ****     if (handleData->values == NULL)
 112              		.loc 1 274 0
 113 0008 4668     		ldr	r6, [r0, #4]
 114 000a 002E     		cmp	r6, #0
 115 000c 0FD0     		beq	.L10
 116 000e 0025     		movs	r5, #0
 117 0010 08E0     		b	.L8
 118              	.LVL9:
 119              	.L9:
 120              	.LBB3:
 275:Source\azure_iot_sdk\c-utility\src/map.c ****     {
ARM GAS  C:\Users\Phuong\AppData\Local\Temp\cczAMJrc.s 			page 8


 276:Source\azure_iot_sdk\c-utility\src/map.c ****         result = NULL;
 277:Source\azure_iot_sdk\c-utility\src/map.c ****     }
 278:Source\azure_iot_sdk\c-utility\src/map.c ****     else
 279:Source\azure_iot_sdk\c-utility\src/map.c ****     {
 280:Source\azure_iot_sdk\c-utility\src/map.c ****         size_t i;
 281:Source\azure_iot_sdk\c-utility\src/map.c ****         result = NULL;
 282:Source\azure_iot_sdk\c-utility\src/map.c ****         for (i = 0; i < handleData->count; i++)
 283:Source\azure_iot_sdk\c-utility\src/map.c ****         {
 284:Source\azure_iot_sdk\c-utility\src/map.c ****             if (strcmp(handleData->values[i], value) == 0)
 121              		.loc 1 284 0
 122 0012 AC00     		lsls	r4, r5, #2
 123 0014 3419     		adds	r4, r6, r4
 124 0016 0199     		ldr	r1, [sp, #4]
 125 0018 2068     		ldr	r0, [r4]
 126 001a FFF7FEFF 		bl	strcmp
 127              	.LVL10:
 128 001e 0028     		cmp	r0, #0
 129 0020 06D0     		beq	.L7
 282:Source\azure_iot_sdk\c-utility\src/map.c ****         {
 130              		.loc 1 282 0 discriminator 2
 131 0022 0135     		adds	r5, r5, #1
 132              	.LVL11:
 133              	.L8:
 282:Source\azure_iot_sdk\c-utility\src/map.c ****         {
 134              		.loc 1 282 0 is_stmt 0 discriminator 1
 135 0024 BB68     		ldr	r3, [r7, #8]
 136 0026 9D42     		cmp	r5, r3
 137 0028 F3D3     		bcc	.L9
 281:Source\azure_iot_sdk\c-utility\src/map.c ****         for (i = 0; i < handleData->count; i++)
 138              		.loc 1 281 0 is_stmt 1
 139 002a 0024     		movs	r4, #0
 140 002c 00E0     		b	.L7
 141              	.LVL12:
 142              	.L10:
 143              	.LBE3:
 276:Source\azure_iot_sdk\c-utility\src/map.c ****     }
 144              		.loc 1 276 0
 145 002e 0024     		movs	r4, #0
 146              	.LVL13:
 147              	.L7:
 285:Source\azure_iot_sdk\c-utility\src/map.c ****             {
 286:Source\azure_iot_sdk\c-utility\src/map.c ****                 result = handleData->values + i;
 287:Source\azure_iot_sdk\c-utility\src/map.c ****                 break;
 288:Source\azure_iot_sdk\c-utility\src/map.c ****             }
 289:Source\azure_iot_sdk\c-utility\src/map.c ****         }
 290:Source\azure_iot_sdk\c-utility\src/map.c ****     }
 291:Source\azure_iot_sdk\c-utility\src/map.c ****     return result;
 292:Source\azure_iot_sdk\c-utility\src/map.c **** }
 148              		.loc 1 292 0
 149 0030 2000     		movs	r0, r4
 150 0032 03B0     		add	sp, sp, #12
 151              		@ sp needed
 152              	.LVL14:
 153              	.LVL15:
 154 0034 F0BD     		pop	{r4, r5, r6, r7, pc}
 155              		.cfi_endproc
 156              	.LFE10:
ARM GAS  C:\Users\Phuong\AppData\Local\Temp\cczAMJrc.s 			page 9


 157              		.size	findValue, .-findValue
 158 0036 C046     		.section	.text.Map_CloneVector,"ax",%progbits
 159              		.align	2
 160              		.code	16
 161              		.thumb_func
 162              		.type	Map_CloneVector, %function
 163              	Map_CloneVector:
 164              	.LFB5:
  62:Source\azure_iot_sdk\c-utility\src/map.c ****     char** result;
 165              		.loc 1 62 0
 166              		.cfi_startproc
 167              		@ args = 0, pretend = 0, frame = 0
 168              		@ frame_needed = 0, uses_anonymous_args = 0
 169              	.LVL16:
 170 0000 F8B5     		push	{r3, r4, r5, r6, r7, lr}
 171              		.cfi_def_cfa_offset 24
 172              		.cfi_offset 3, -24
 173              		.cfi_offset 4, -20
 174              		.cfi_offset 5, -16
 175              		.cfi_offset 6, -12
 176              		.cfi_offset 7, -8
 177              		.cfi_offset 14, -4
 178 0002 0700     		movs	r7, r0
 179 0004 0E00     		movs	r6, r1
  64:Source\azure_iot_sdk\c-utility\src/map.c ****     if (result == NULL)
 180              		.loc 1 64 0
 181 0006 8800     		lsls	r0, r1, #2
 182              	.LVL17:
 183 0008 FFF7FEFF 		bl	malloc
 184              	.LVL18:
 185 000c 051E     		subs	r5, r0, #0
 186              	.LVL19:
  65:Source\azure_iot_sdk\c-utility\src/map.c ****     {
 187              		.loc 1 65 0
 188 000e 1AD0     		beq	.L12
 189 0010 0024     		movs	r4, #0
 190 0012 07E0     		b	.L13
 191              	.LVL20:
 192              	.L15:
 193              	.LBB4:
  74:Source\azure_iot_sdk\c-utility\src/map.c ****             {
 194              		.loc 1 74 0
 195 0014 A000     		lsls	r0, r4, #2
 196 0016 3958     		ldr	r1, [r7, r0]
 197 0018 2818     		adds	r0, r5, r0
 198 001a FFF7FEFF 		bl	mallocAndStrcpy_s
 199              	.LVL21:
 200 001e 0028     		cmp	r0, #0
 201 0020 02D1     		bne	.L14
  72:Source\azure_iot_sdk\c-utility\src/map.c ****         {
 202              		.loc 1 72 0 discriminator 2
 203 0022 0134     		adds	r4, r4, #1
 204              	.LVL22:
 205              	.L13:
  72:Source\azure_iot_sdk\c-utility\src/map.c ****         {
 206              		.loc 1 72 0 is_stmt 0 discriminator 1
 207 0024 B442     		cmp	r4, r6
ARM GAS  C:\Users\Phuong\AppData\Local\Temp\cczAMJrc.s 			page 10


 208 0026 F5D3     		bcc	.L15
 209              	.L14:
  80:Source\azure_iot_sdk\c-utility\src/map.c ****         {
 210              		.loc 1 80 0 is_stmt 1
 211 0028 B442     		cmp	r4, r6
 212 002a 0CD0     		beq	.L12
 213 002c 0026     		movs	r6, #0
 214              	.LVL23:
 215 002e 04E0     		b	.L16
 216              	.LVL24:
 217              	.L17:
 218              	.LBB5:
  89:Source\azure_iot_sdk\c-utility\src/map.c ****             }
 219              		.loc 1 89 0 discriminator 3
 220 0030 B300     		lsls	r3, r6, #2
 221 0032 E858     		ldr	r0, [r5, r3]
 222 0034 FFF7FEFF 		bl	free
 223              	.LVL25:
  87:Source\azure_iot_sdk\c-utility\src/map.c ****             {
 224              		.loc 1 87 0 discriminator 3
 225 0038 0136     		adds	r6, r6, #1
 226              	.LVL26:
 227              	.L16:
  87:Source\azure_iot_sdk\c-utility\src/map.c ****             {
 228              		.loc 1 87 0 is_stmt 0 discriminator 1
 229 003a B442     		cmp	r4, r6
 230 003c F8D8     		bhi	.L17
  91:Source\azure_iot_sdk\c-utility\src/map.c ****             result = NULL;
 231              		.loc 1 91 0 is_stmt 1
 232 003e 2800     		movs	r0, r5
 233 0040 FFF7FEFF 		bl	free
 234              	.LVL27:
  92:Source\azure_iot_sdk\c-utility\src/map.c ****         }
 235              		.loc 1 92 0
 236 0044 0025     		movs	r5, #0
 237              	.LVL28:
 238              	.L12:
 239              	.LBE5:
 240              	.LBE4:
  96:Source\azure_iot_sdk\c-utility\src/map.c **** 
 241              		.loc 1 96 0
 242 0046 2800     		movs	r0, r5
 243              		@ sp needed
 244              	.LVL29:
 245              	.LVL30:
 246 0048 F8BD     		pop	{r3, r4, r5, r6, r7, pc}
 247              		.cfi_endproc
 248              	.LFE5:
 249              		.size	Map_CloneVector, .-Map_CloneVector
 250 004a C046     		.section	.text.Map_IncreaseStorageKeysValues,"ax",%progbits
 251              		.align	2
 252              		.code	16
 253              		.thumb_func
 254              		.type	Map_IncreaseStorageKeysValues, %function
 255              	Map_IncreaseStorageKeysValues:
 256              	.LFB7:
 162:Source\azure_iot_sdk\c-utility\src/map.c ****     int result;
ARM GAS  C:\Users\Phuong\AppData\Local\Temp\cczAMJrc.s 			page 11


 257              		.loc 1 162 0
 258              		.cfi_startproc
 259              		@ args = 0, pretend = 0, frame = 0
 260              		@ frame_needed = 0, uses_anonymous_args = 0
 261              	.LVL31:
 262 0000 30B5     		push	{r4, r5, lr}
 263              		.cfi_def_cfa_offset 12
 264              		.cfi_offset 4, -12
 265              		.cfi_offset 5, -8
 266              		.cfi_offset 14, -4
 267 0002 83B0     		sub	sp, sp, #12
 268              		.cfi_def_cfa_offset 24
 269 0004 0400     		movs	r4, r0
 164:Source\azure_iot_sdk\c-utility\src/map.c ****     if (newKeys == NULL)
 270              		.loc 1 164 0
 271 0006 8368     		ldr	r3, [r0, #8]
 272 0008 591C     		adds	r1, r3, #1
 273 000a 8900     		lsls	r1, r1, #2
 274 000c 0068     		ldr	r0, [r0]
 275              	.LVL32:
 276 000e FFF7FEFF 		bl	realloc
 277              	.LVL33:
 165:Source\azure_iot_sdk\c-utility\src/map.c ****     {
 278              		.loc 1 165 0
 279 0012 0028     		cmp	r0, #0
 280 0014 0ED1     		bne	.L19
 281              	.LBB6:
 167:Source\azure_iot_sdk\c-utility\src/map.c ****         result = __FAILURE__;
 282              		.loc 1 167 0 discriminator 3
 283 0016 FFF7FEFF 		bl	xlogging_get_log_function
 284              	.LVL34:
 285 001a 041E     		subs	r4, r0, #0
 286              	.LVL35:
 287 001c 52D0     		beq	.L25
 167:Source\azure_iot_sdk\c-utility\src/map.c ****         result = __FAILURE__;
 288              		.loc 1 167 0 is_stmt 0 discriminator 4
 289 001e 2C4B     		ldr	r3, .L27
 290 0020 0193     		str	r3, [sp, #4]
 291 0022 0123     		movs	r3, #1
 292 0024 0093     		str	r3, [sp]
 293 0026 A633     		adds	r3, r3, #166
 294 0028 2A4A     		ldr	r2, .L27+4
 295 002a 2B49     		ldr	r1, .L27+8
 296 002c 0020     		movs	r0, #0
 297              	.LVL36:
 298 002e A047     		blx	r4
 299              	.LVL37:
 300              	.LBE6:
 168:Source\azure_iot_sdk\c-utility\src/map.c ****     }
 301              		.loc 1 168 0 is_stmt 1 discriminator 4
 302 0030 A820     		movs	r0, #168
 303 0032 4AE0     		b	.L20
 304              	.LVL38:
 305              	.L19:
 306              	.LBB7:
 173:Source\azure_iot_sdk\c-utility\src/map.c ****         handleData->keys[handleData->count] = NULL;
 307              		.loc 1 173 0
ARM GAS  C:\Users\Phuong\AppData\Local\Temp\cczAMJrc.s 			page 12


 308 0034 2060     		str	r0, [r4]
 174:Source\azure_iot_sdk\c-utility\src/map.c ****         newValues = (char**)realloc(handleData->values, (handleData->count + 1) * sizeof(char*));
 309              		.loc 1 174 0
 310 0036 A368     		ldr	r3, [r4, #8]
 311 0038 9B00     		lsls	r3, r3, #2
 312 003a C018     		adds	r0, r0, r3
 313              	.LVL39:
 314 003c 0023     		movs	r3, #0
 315 003e 0360     		str	r3, [r0]
 316              	.LVL40:
 175:Source\azure_iot_sdk\c-utility\src/map.c ****         if (newValues == NULL)
 317              		.loc 1 175 0
 318 0040 A368     		ldr	r3, [r4, #8]
 319 0042 591C     		adds	r1, r3, #1
 320 0044 8900     		lsls	r1, r1, #2
 321 0046 6068     		ldr	r0, [r4, #4]
 322 0048 FFF7FEFF 		bl	realloc
 323              	.LVL41:
 176:Source\azure_iot_sdk\c-utility\src/map.c ****         {
 324              		.loc 1 176 0
 325 004c 0028     		cmp	r0, #0
 326 004e 2ED1     		bne	.L21
 327              	.LBB8:
 178:Source\azure_iot_sdk\c-utility\src/map.c ****             if (handleData->count == 0) /*avoiding an implementation defined behavior */
 328              		.loc 1 178 0 discriminator 3
 329 0050 FFF7FEFF 		bl	xlogging_get_log_function
 330              	.LVL42:
 331 0054 051E     		subs	r5, r0, #0
 332              	.LVL43:
 333 0056 08D0     		beq	.L22
 178:Source\azure_iot_sdk\c-utility\src/map.c ****             if (handleData->count == 0) /*avoiding an implementation defined behavior */
 334              		.loc 1 178 0 is_stmt 0 discriminator 4
 335 0058 1D4B     		ldr	r3, .L27
 336 005a 0193     		str	r3, [sp, #4]
 337 005c 0123     		movs	r3, #1
 338 005e 0093     		str	r3, [sp]
 339 0060 B133     		adds	r3, r3, #177
 340 0062 1C4A     		ldr	r2, .L27+4
 341 0064 1C49     		ldr	r1, .L27+8
 342 0066 0020     		movs	r0, #0
 343              	.LVL44:
 344 0068 A847     		blx	r5
 345              	.LVL45:
 346              	.L22:
 347              	.LBE8:
 179:Source\azure_iot_sdk\c-utility\src/map.c ****             {
 348              		.loc 1 179 0 is_stmt 1
 349 006a A168     		ldr	r1, [r4, #8]
 350 006c 0029     		cmp	r1, #0
 351 006e 06D1     		bne	.L23
 181:Source\azure_iot_sdk\c-utility\src/map.c ****                 handleData->keys = NULL;
 352              		.loc 1 181 0
 353 0070 2068     		ldr	r0, [r4]
 354 0072 FFF7FEFF 		bl	free
 355              	.LVL46:
 182:Source\azure_iot_sdk\c-utility\src/map.c ****             }
 356              		.loc 1 182 0
ARM GAS  C:\Users\Phuong\AppData\Local\Temp\cczAMJrc.s 			page 13


 357 0076 0023     		movs	r3, #0
 358 0078 2360     		str	r3, [r4]
 196:Source\azure_iot_sdk\c-utility\src/map.c ****         }
 359              		.loc 1 196 0
 360 007a C420     		movs	r0, #196
 361 007c 25E0     		b	.L20
 362              	.L23:
 363              	.LBB9:
 186:Source\azure_iot_sdk\c-utility\src/map.c ****                 if (undoneKeys == NULL)
 364              		.loc 1 186 0
 365 007e 8900     		lsls	r1, r1, #2
 366 0080 2068     		ldr	r0, [r4]
 367 0082 FFF7FEFF 		bl	realloc
 368              	.LVL47:
 187:Source\azure_iot_sdk\c-utility\src/map.c ****                 {
 369              		.loc 1 187 0
 370 0086 0028     		cmp	r0, #0
 371 0088 0ED1     		bne	.L24
 372              	.LBB10:
 189:Source\azure_iot_sdk\c-utility\src/map.c ****                 }
 373              		.loc 1 189 0 discriminator 3
 374 008a FFF7FEFF 		bl	xlogging_get_log_function
 375              	.LVL48:
 376 008e 041E     		subs	r4, r0, #0
 377              	.LVL49:
 378 0090 1AD0     		beq	.L26
 189:Source\azure_iot_sdk\c-utility\src/map.c ****                 }
 379              		.loc 1 189 0 is_stmt 0 discriminator 4
 380 0092 124B     		ldr	r3, .L27+12
 381 0094 0193     		str	r3, [sp, #4]
 382 0096 0123     		movs	r3, #1
 383 0098 0093     		str	r3, [sp]
 384 009a BC33     		adds	r3, r3, #188
 385 009c 0D4A     		ldr	r2, .L27+4
 386 009e 0E49     		ldr	r1, .L27+8
 387 00a0 0020     		movs	r0, #0
 388              	.LVL50:
 389 00a2 A047     		blx	r4
 390              	.LVL51:
 391              	.LBE10:
 392              	.LBE9:
 196:Source\azure_iot_sdk\c-utility\src/map.c ****         }
 393              		.loc 1 196 0 is_stmt 1 discriminator 4
 394 00a4 C420     		movs	r0, #196
 395 00a6 10E0     		b	.L20
 396              	.LVL52:
 397              	.L24:
 398              	.LBB11:
 193:Source\azure_iot_sdk\c-utility\src/map.c ****                 }
 399              		.loc 1 193 0
 400 00a8 2060     		str	r0, [r4]
 401              	.LBE11:
 196:Source\azure_iot_sdk\c-utility\src/map.c ****         }
 402              		.loc 1 196 0
 403 00aa C420     		movs	r0, #196
 404              	.LVL53:
 405 00ac 0DE0     		b	.L20
ARM GAS  C:\Users\Phuong\AppData\Local\Temp\cczAMJrc.s 			page 14


 406              	.LVL54:
 407              	.L21:
 200:Source\azure_iot_sdk\c-utility\src/map.c ****             handleData->values[handleData->count] = NULL;
 408              		.loc 1 200 0
 409 00ae 6060     		str	r0, [r4, #4]
 201:Source\azure_iot_sdk\c-utility\src/map.c ****             handleData->count++;
 410              		.loc 1 201 0
 411 00b0 A368     		ldr	r3, [r4, #8]
 412 00b2 9B00     		lsls	r3, r3, #2
 413 00b4 C018     		adds	r0, r0, r3
 414              	.LVL55:
 415 00b6 0023     		movs	r3, #0
 416 00b8 0360     		str	r3, [r0]
 417              	.LVL56:
 202:Source\azure_iot_sdk\c-utility\src/map.c ****             result = 0;
 418              		.loc 1 202 0
 419 00ba A368     		ldr	r3, [r4, #8]
 420 00bc 0133     		adds	r3, r3, #1
 421 00be A360     		str	r3, [r4, #8]
 422              	.LVL57:
 203:Source\azure_iot_sdk\c-utility\src/map.c ****         }
 423              		.loc 1 203 0
 424 00c0 0020     		movs	r0, #0
 425 00c2 02E0     		b	.L20
 426              	.LVL58:
 427              	.L25:
 428              	.LBE7:
 168:Source\azure_iot_sdk\c-utility\src/map.c ****     }
 429              		.loc 1 168 0
 430 00c4 A820     		movs	r0, #168
 431              	.LVL59:
 432 00c6 00E0     		b	.L20
 433              	.LVL60:
 434              	.L26:
 435              	.LBB12:
 196:Source\azure_iot_sdk\c-utility\src/map.c ****         }
 436              		.loc 1 196 0
 437 00c8 C420     		movs	r0, #196
 438              	.LVL61:
 439              	.L20:
 440              	.LBE12:
 207:Source\azure_iot_sdk\c-utility\src/map.c **** 
 441              		.loc 1 207 0
 442 00ca 03B0     		add	sp, sp, #12
 443              		@ sp needed
 444 00cc 30BD     		pop	{r4, r5, pc}
 445              	.L28:
 446 00ce C046     		.align	2
 447              	.L27:
 448 00d0 2C000000 		.word	.LC3
 449 00d4 00000000 		.word	.LANCHOR0
 450 00d8 00000000 		.word	.LC1
 451 00dc 3C000000 		.word	.LC5
 452              		.cfi_endproc
 453              	.LFE7:
 454              		.size	Map_IncreaseStorageKeysValues, .-Map_IncreaseStorageKeysValues
 455              		.section	.text.Map_DecreaseStorageKeysValues,"ax",%progbits
ARM GAS  C:\Users\Phuong\AppData\Local\Temp\cczAMJrc.s 			page 15


 456              		.align	2
 457              		.code	16
 458              		.thumb_func
 459              		.type	Map_DecreaseStorageKeysValues, %function
 460              	Map_DecreaseStorageKeysValues:
 461              	.LFB8:
 210:Source\azure_iot_sdk\c-utility\src/map.c ****     if (handleData->count == 1)
 462              		.loc 1 210 0
 463              		.cfi_startproc
 464              		@ args = 0, pretend = 0, frame = 0
 465              		@ frame_needed = 0, uses_anonymous_args = 0
 466              	.LVL62:
 467 0000 30B5     		push	{r4, r5, lr}
 468              		.cfi_def_cfa_offset 12
 469              		.cfi_offset 4, -12
 470              		.cfi_offset 5, -8
 471              		.cfi_offset 14, -4
 472 0002 83B0     		sub	sp, sp, #12
 473              		.cfi_def_cfa_offset 24
 474 0004 0400     		movs	r4, r0
 211:Source\azure_iot_sdk\c-utility\src/map.c ****     {
 475              		.loc 1 211 0
 476 0006 8168     		ldr	r1, [r0, #8]
 477 0008 0129     		cmp	r1, #1
 478 000a 0BD1     		bne	.L30
 213:Source\azure_iot_sdk\c-utility\src/map.c ****         handleData->keys = NULL;
 479              		.loc 1 213 0
 480 000c 0068     		ldr	r0, [r0]
 481              	.LVL63:
 482 000e FFF7FEFF 		bl	free
 483              	.LVL64:
 214:Source\azure_iot_sdk\c-utility\src/map.c ****         free(handleData->values);
 484              		.loc 1 214 0
 485 0012 0025     		movs	r5, #0
 486 0014 2560     		str	r5, [r4]
 215:Source\azure_iot_sdk\c-utility\src/map.c ****         handleData->values = NULL;
 487              		.loc 1 215 0
 488 0016 6068     		ldr	r0, [r4, #4]
 489 0018 FFF7FEFF 		bl	free
 490              	.LVL65:
 216:Source\azure_iot_sdk\c-utility\src/map.c ****         handleData->count = 0;
 491              		.loc 1 216 0
 492 001c 6560     		str	r5, [r4, #4]
 217:Source\azure_iot_sdk\c-utility\src/map.c ****         handleData->mapFilterCallback = NULL;
 493              		.loc 1 217 0
 494 001e A560     		str	r5, [r4, #8]
 218:Source\azure_iot_sdk\c-utility\src/map.c ****     }
 495              		.loc 1 218 0
 496 0020 E560     		str	r5, [r4, #12]
 497 0022 35E0     		b	.L29
 498              	.LVL66:
 499              	.L30:
 500              	.LBB13:
 224:Source\azure_iot_sdk\c-utility\src/map.c ****         if (undoneKeys == NULL)
 501              		.loc 1 224 0
 502 0024 1B4B     		ldr	r3, .L36
 503 0026 9C46     		mov	ip, r3
ARM GAS  C:\Users\Phuong\AppData\Local\Temp\cczAMJrc.s 			page 16


 504 0028 6144     		add	r1, r1, ip
 505 002a 8900     		lsls	r1, r1, #2
 506 002c 0068     		ldr	r0, [r0]
 507              	.LVL67:
 508 002e FFF7FEFF 		bl	realloc
 509              	.LVL68:
 225:Source\azure_iot_sdk\c-utility\src/map.c ****         {
 510              		.loc 1 225 0
 511 0032 0028     		cmp	r0, #0
 512 0034 0ED1     		bne	.L32
 513              	.LBB14:
 227:Source\azure_iot_sdk\c-utility\src/map.c ****         }
 514              		.loc 1 227 0 discriminator 3
 515 0036 FFF7FEFF 		bl	xlogging_get_log_function
 516              	.LVL69:
 517 003a 051E     		subs	r5, r0, #0
 518              	.LVL70:
 519 003c 0BD0     		beq	.L33
 227:Source\azure_iot_sdk\c-utility\src/map.c ****         }
 520              		.loc 1 227 0 is_stmt 0 discriminator 4
 521 003e 164B     		ldr	r3, .L36+4
 522 0040 0193     		str	r3, [sp, #4]
 523 0042 0123     		movs	r3, #1
 524 0044 0093     		str	r3, [sp]
 525 0046 E233     		adds	r3, r3, #226
 526 0048 144A     		ldr	r2, .L36+8
 527 004a 2032     		adds	r2, r2, #32
 528 004c 1449     		ldr	r1, .L36+12
 529 004e 0020     		movs	r0, #0
 530              	.LVL71:
 531 0050 A847     		blx	r5
 532              	.LVL72:
 533 0052 00E0     		b	.L33
 534              	.LVL73:
 535              	.L32:
 536              	.LBE14:
 231:Source\azure_iot_sdk\c-utility\src/map.c ****         }
 537              		.loc 1 231 0 is_stmt 1
 538 0054 2060     		str	r0, [r4]
 539              	.LVL74:
 540              	.L33:
 234:Source\azure_iot_sdk\c-utility\src/map.c ****         if (undoneValues == NULL)
 541              		.loc 1 234 0
 542 0056 A368     		ldr	r3, [r4, #8]
 543 0058 0E4A     		ldr	r2, .L36
 544 005a 9446     		mov	ip, r2
 545 005c 6344     		add	r3, r3, ip
 546 005e 9900     		lsls	r1, r3, #2
 547 0060 6068     		ldr	r0, [r4, #4]
 548 0062 FFF7FEFF 		bl	realloc
 549              	.LVL75:
 235:Source\azure_iot_sdk\c-utility\src/map.c ****         {
 550              		.loc 1 235 0
 551 0066 0028     		cmp	r0, #0
 552 0068 0ED1     		bne	.L34
 553              	.LBB15:
 237:Source\azure_iot_sdk\c-utility\src/map.c ****         }
ARM GAS  C:\Users\Phuong\AppData\Local\Temp\cczAMJrc.s 			page 17


 554              		.loc 1 237 0 discriminator 3
 555 006a FFF7FEFF 		bl	xlogging_get_log_function
 556              	.LVL76:
 557 006e 051E     		subs	r5, r0, #0
 558              	.LVL77:
 559 0070 0BD0     		beq	.L35
 237:Source\azure_iot_sdk\c-utility\src/map.c ****         }
 560              		.loc 1 237 0 is_stmt 0 discriminator 4
 561 0072 094B     		ldr	r3, .L36+4
 562 0074 0193     		str	r3, [sp, #4]
 563 0076 0123     		movs	r3, #1
 564 0078 0093     		str	r3, [sp]
 565 007a EC33     		adds	r3, r3, #236
 566 007c 074A     		ldr	r2, .L36+8
 567 007e 2032     		adds	r2, r2, #32
 568 0080 0749     		ldr	r1, .L36+12
 569 0082 0020     		movs	r0, #0
 570              	.LVL78:
 571 0084 A847     		blx	r5
 572              	.LVL79:
 573 0086 00E0     		b	.L35
 574              	.LVL80:
 575              	.L34:
 576              	.LBE15:
 241:Source\azure_iot_sdk\c-utility\src/map.c ****         }
 577              		.loc 1 241 0 is_stmt 1
 578 0088 6060     		str	r0, [r4, #4]
 579              	.LVL81:
 580              	.L35:
 244:Source\azure_iot_sdk\c-utility\src/map.c ****     }
 581              		.loc 1 244 0
 582 008a A368     		ldr	r3, [r4, #8]
 583 008c 013B     		subs	r3, r3, #1
 584 008e A360     		str	r3, [r4, #8]
 585              	.L29:
 586              	.LBE13:
 246:Source\azure_iot_sdk\c-utility\src/map.c **** 
 587              		.loc 1 246 0
 588 0090 03B0     		add	sp, sp, #12
 589              		@ sp needed
 590              	.LVL82:
 591 0092 30BD     		pop	{r4, r5, pc}
 592              	.L37:
 593              		.align	2
 594              	.L36:
 595 0094 FFFFFF3F 		.word	1073741823
 596 0098 3C000000 		.word	.LC5
 597 009c 00000000 		.word	.LANCHOR0
 598 00a0 00000000 		.word	.LC1
 599              		.cfi_endproc
 600              	.LFE8:
 601              		.size	Map_DecreaseStorageKeysValues, .-Map_DecreaseStorageKeysValues
 602              		.section	.text.insertNewKeyValue,"ax",%progbits
 603              		.align	2
 604              		.code	16
 605              		.thumb_func
 606              		.type	insertNewKeyValue, %function
ARM GAS  C:\Users\Phuong\AppData\Local\Temp\cczAMJrc.s 			page 18


 607              	insertNewKeyValue:
 608              	.LFB11:
 293:Source\azure_iot_sdk\c-utility\src/map.c **** 
 294:Source\azure_iot_sdk\c-utility\src/map.c **** static int insertNewKeyValue(MAP_HANDLE_DATA* handleData, const char* key, const char* value)
 295:Source\azure_iot_sdk\c-utility\src/map.c **** {
 609              		.loc 1 295 0
 610              		.cfi_startproc
 611              		@ args = 0, pretend = 0, frame = 0
 612              		@ frame_needed = 0, uses_anonymous_args = 0
 613              	.LVL83:
 614 0000 70B5     		push	{r4, r5, r6, lr}
 615              		.cfi_def_cfa_offset 16
 616              		.cfi_offset 4, -16
 617              		.cfi_offset 5, -12
 618              		.cfi_offset 6, -8
 619              		.cfi_offset 14, -4
 620 0002 82B0     		sub	sp, sp, #8
 621              		.cfi_def_cfa_offset 24
 622 0004 0400     		movs	r4, r0
 623 0006 0D00     		movs	r5, r1
 624 0008 1600     		movs	r6, r2
 296:Source\azure_iot_sdk\c-utility\src/map.c ****     int result;
 297:Source\azure_iot_sdk\c-utility\src/map.c ****     if (Map_IncreaseStorageKeysValues(handleData) != 0) /*this increases handleData->count*/
 625              		.loc 1 297 0
 626 000a FFF7FEFF 		bl	Map_IncreaseStorageKeysValues
 627              	.LVL84:
 628 000e 0028     		cmp	r0, #0
 629 0010 4CD1     		bne	.L41
 298:Source\azure_iot_sdk\c-utility\src/map.c ****     {
 299:Source\azure_iot_sdk\c-utility\src/map.c ****         result = __FAILURE__;
 300:Source\azure_iot_sdk\c-utility\src/map.c ****     }
 301:Source\azure_iot_sdk\c-utility\src/map.c ****     else
 302:Source\azure_iot_sdk\c-utility\src/map.c ****     {
 303:Source\azure_iot_sdk\c-utility\src/map.c ****         if (mallocAndStrcpy_s(&(handleData->keys[handleData->count - 1]), key) != 0)
 630              		.loc 1 303 0
 631 0012 A368     		ldr	r3, [r4, #8]
 632 0014 2B4A     		ldr	r2, .L45
 633 0016 9446     		mov	ip, r2
 634 0018 6344     		add	r3, r3, ip
 635 001a 9800     		lsls	r0, r3, #2
 636 001c 2368     		ldr	r3, [r4]
 637 001e 9C46     		mov	ip, r3
 638 0020 6044     		add	r0, r0, ip
 639 0022 2900     		movs	r1, r5
 640 0024 FFF7FEFF 		bl	mallocAndStrcpy_s
 641              	.LVL85:
 642 0028 0028     		cmp	r0, #0
 643 002a 14D0     		beq	.L40
 304:Source\azure_iot_sdk\c-utility\src/map.c ****         {
 305:Source\azure_iot_sdk\c-utility\src/map.c ****             Map_DecreaseStorageKeysValues(handleData);
 644              		.loc 1 305 0
 645 002c 2000     		movs	r0, r4
 646 002e FFF7FEFF 		bl	Map_DecreaseStorageKeysValues
 647              	.LVL86:
 648              	.LBB16:
 306:Source\azure_iot_sdk\c-utility\src/map.c ****             LogError("unable to mallocAndStrcpy_s");
 649              		.loc 1 306 0
ARM GAS  C:\Users\Phuong\AppData\Local\Temp\cczAMJrc.s 			page 19


 650 0032 FFF7FEFF 		bl	xlogging_get_log_function
 651              	.LVL87:
 652 0036 041E     		subs	r4, r0, #0
 653              	.LVL88:
 654 0038 3BD0     		beq	.L42
 655              		.loc 1 306 0 is_stmt 0 discriminator 4
 656 003a 234B     		ldr	r3, .L45+4
 657 003c 0193     		str	r3, [sp, #4]
 658 003e 0123     		movs	r3, #1
 659 0040 0093     		str	r3, [sp]
 660 0042 3233     		adds	r3, r3, #50
 661 0044 FF33     		adds	r3, r3, #255
 662 0046 214A     		ldr	r2, .L45+8
 663 0048 4032     		adds	r2, r2, #64
 664 004a 2149     		ldr	r1, .L45+12
 665 004c 0020     		movs	r0, #0
 666              	.LVL89:
 667 004e A047     		blx	r4
 668              	.LVL90:
 669              	.LBE16:
 307:Source\azure_iot_sdk\c-utility\src/map.c ****             result = __FAILURE__;
 670              		.loc 1 307 0 is_stmt 1 discriminator 4
 671 0050 3420     		movs	r0, #52
 672 0052 FF30     		adds	r0, r0, #255
 673 0054 34E0     		b	.L39
 674              	.LVL91:
 675              	.L40:
 308:Source\azure_iot_sdk\c-utility\src/map.c ****         }
 309:Source\azure_iot_sdk\c-utility\src/map.c ****         else
 310:Source\azure_iot_sdk\c-utility\src/map.c ****         {
 311:Source\azure_iot_sdk\c-utility\src/map.c ****             if (mallocAndStrcpy_s(&(handleData->values[handleData->count - 1]), value) != 0)
 676              		.loc 1 311 0
 677 0056 A368     		ldr	r3, [r4, #8]
 678 0058 1A4A     		ldr	r2, .L45
 679 005a 9446     		mov	ip, r2
 680 005c 6344     		add	r3, r3, ip
 681 005e 9800     		lsls	r0, r3, #2
 682 0060 6368     		ldr	r3, [r4, #4]
 683 0062 9C46     		mov	ip, r3
 684 0064 6044     		add	r0, r0, ip
 685 0066 3100     		movs	r1, r6
 686 0068 FFF7FEFF 		bl	mallocAndStrcpy_s
 687              	.LVL92:
 688 006c 0028     		cmp	r0, #0
 689 006e 23D0     		beq	.L43
 312:Source\azure_iot_sdk\c-utility\src/map.c ****             {
 313:Source\azure_iot_sdk\c-utility\src/map.c ****                 free(handleData->keys[handleData->count - 1]);
 690              		.loc 1 313 0
 691 0070 A368     		ldr	r3, [r4, #8]
 692 0072 144A     		ldr	r2, .L45
 693 0074 9446     		mov	ip, r2
 694 0076 6344     		add	r3, r3, ip
 695 0078 9B00     		lsls	r3, r3, #2
 696 007a 2268     		ldr	r2, [r4]
 697 007c D058     		ldr	r0, [r2, r3]
 698 007e FFF7FEFF 		bl	free
 699              	.LVL93:
ARM GAS  C:\Users\Phuong\AppData\Local\Temp\cczAMJrc.s 			page 20


 314:Source\azure_iot_sdk\c-utility\src/map.c ****                 Map_DecreaseStorageKeysValues(handleData);
 700              		.loc 1 314 0
 701 0082 2000     		movs	r0, r4
 702 0084 FFF7FEFF 		bl	Map_DecreaseStorageKeysValues
 703              	.LVL94:
 704              	.LBB17:
 315:Source\azure_iot_sdk\c-utility\src/map.c ****                 LogError("unable to mallocAndStrcpy_s");
 705              		.loc 1 315 0
 706 0088 FFF7FEFF 		bl	xlogging_get_log_function
 707              	.LVL95:
 708 008c 041E     		subs	r4, r0, #0
 709              	.LVL96:
 710 008e 15D0     		beq	.L44
 711              		.loc 1 315 0 is_stmt 0 discriminator 4
 712 0090 0D4B     		ldr	r3, .L45+4
 713 0092 0193     		str	r3, [sp, #4]
 714 0094 0123     		movs	r3, #1
 715 0096 0093     		str	r3, [sp]
 716 0098 3C23     		movs	r3, #60
 717 009a FF33     		adds	r3, r3, #255
 718 009c 0B4A     		ldr	r2, .L45+8
 719 009e 4032     		adds	r2, r2, #64
 720 00a0 0B49     		ldr	r1, .L45+12
 721 00a2 0020     		movs	r0, #0
 722              	.LVL97:
 723 00a4 A047     		blx	r4
 724              	.LVL98:
 725              	.LBE17:
 316:Source\azure_iot_sdk\c-utility\src/map.c ****                 result = __FAILURE__;
 726              		.loc 1 316 0 is_stmt 1 discriminator 4
 727 00a6 9E20     		movs	r0, #158
 728 00a8 4000     		lsls	r0, r0, #1
 729 00aa 09E0     		b	.L39
 730              	.LVL99:
 731              	.L41:
 299:Source\azure_iot_sdk\c-utility\src/map.c ****     }
 732              		.loc 1 299 0
 733 00ac 2C20     		movs	r0, #44
 734 00ae FF30     		adds	r0, r0, #255
 735 00b0 06E0     		b	.L39
 736              	.LVL100:
 737              	.L42:
 307:Source\azure_iot_sdk\c-utility\src/map.c ****         }
 738              		.loc 1 307 0
 739 00b2 3420     		movs	r0, #52
 740              	.LVL101:
 741 00b4 FF30     		adds	r0, r0, #255
 742 00b6 03E0     		b	.L39
 743              	.LVL102:
 744              	.L43:
 317:Source\azure_iot_sdk\c-utility\src/map.c ****             }
 318:Source\azure_iot_sdk\c-utility\src/map.c ****             else
 319:Source\azure_iot_sdk\c-utility\src/map.c ****             {
 320:Source\azure_iot_sdk\c-utility\src/map.c ****                 result = 0;
 745              		.loc 1 320 0
 746 00b8 0020     		movs	r0, #0
 747 00ba 01E0     		b	.L39
ARM GAS  C:\Users\Phuong\AppData\Local\Temp\cczAMJrc.s 			page 21


 748              	.LVL103:
 749              	.L44:
 316:Source\azure_iot_sdk\c-utility\src/map.c ****             }
 750              		.loc 1 316 0
 751 00bc 9E20     		movs	r0, #158
 752              	.LVL104:
 753 00be 4000     		lsls	r0, r0, #1
 754              	.LVL105:
 755              	.L39:
 321:Source\azure_iot_sdk\c-utility\src/map.c ****             }
 322:Source\azure_iot_sdk\c-utility\src/map.c ****         }
 323:Source\azure_iot_sdk\c-utility\src/map.c ****     }
 324:Source\azure_iot_sdk\c-utility\src/map.c ****     return result;
 325:Source\azure_iot_sdk\c-utility\src/map.c **** }
 756              		.loc 1 325 0
 757 00c0 02B0     		add	sp, sp, #8
 758              		@ sp needed
 759              	.LVL106:
 760              	.LVL107:
 761 00c2 70BD     		pop	{r4, r5, r6, pc}
 762              	.L46:
 763              		.align	2
 764              	.L45:
 765 00c4 FFFFFF3F 		.word	1073741823
 766 00c8 84000000 		.word	.LC12
 767 00cc 00000000 		.word	.LANCHOR0
 768 00d0 00000000 		.word	.LC1
 769              		.cfi_endproc
 770              	.LFE11:
 771              		.size	insertNewKeyValue, .-insertNewKeyValue
 772              		.section	.text.MAP_RESULTStrings,"ax",%progbits
 773              		.align	2
 774              		.global	MAP_RESULTStrings
 775              		.code	16
 776              		.thumb_func
 777              		.type	MAP_RESULTStrings, %function
 778              	MAP_RESULTStrings:
 779              	.LFB1:
  11:Source\azure_iot_sdk\c-utility\src/map.c **** 
 780              		.loc 1 11 0
 781              		.cfi_startproc
 782              		@ args = 0, pretend = 0, frame = 0
 783              		@ frame_needed = 0, uses_anonymous_args = 0
 784              		@ link register save eliminated.
 785              	.LVL108:
  11:Source\azure_iot_sdk\c-utility\src/map.c **** 
 786              		.loc 1 11 0
 787 0000 0528     		cmp	r0, #5
 788 0002 03D8     		bhi	.L49
  11:Source\azure_iot_sdk\c-utility\src/map.c **** 
 789              		.loc 1 11 0 is_stmt 0 discriminator 2
 790 0004 8000     		lsls	r0, r0, #2
 791              	.LVL109:
 792 0006 024B     		ldr	r3, .L50
 793 0008 C058     		ldr	r0, [r0, r3]
 794 000a 00E0     		b	.L48
 795              	.LVL110:
ARM GAS  C:\Users\Phuong\AppData\Local\Temp\cczAMJrc.s 			page 22


 796              	.L49:
  11:Source\azure_iot_sdk\c-utility\src/map.c **** 
 797              		.loc 1 11 0
 798 000c 0020     		movs	r0, #0
 799              	.LVL111:
 800              	.L48:
 801              		@ sp needed
 802 000e 7047     		bx	lr
 803              	.L51:
 804              		.align	2
 805              	.L50:
 806 0010 00000000 		.word	.LANCHOR1
 807              		.cfi_endproc
 808              	.LFE1:
 809              		.size	MAP_RESULTStrings, .-MAP_RESULTStrings
 810              		.section	.text.MAP_RESULT_FromString,"ax",%progbits
 811              		.align	2
 812              		.global	MAP_RESULT_FromString
 813              		.code	16
 814              		.thumb_func
 815              		.type	MAP_RESULT_FromString, %function
 816              	MAP_RESULT_FromString:
 817              	.LFB2:
  11:Source\azure_iot_sdk\c-utility\src/map.c **** 
 818              		.loc 1 11 0 is_stmt 1
 819              		.cfi_startproc
 820              		@ args = 0, pretend = 0, frame = 0
 821              		@ frame_needed = 0, uses_anonymous_args = 0
 822              	.LVL112:
 823 0000 70B5     		push	{r4, r5, r6, lr}
 824              		.cfi_def_cfa_offset 16
 825              		.cfi_offset 4, -16
 826              		.cfi_offset 5, -12
 827              		.cfi_offset 6, -8
 828              		.cfi_offset 14, -4
 829 0002 0500     		movs	r5, r0
 830 0004 0E00     		movs	r6, r1
  11:Source\azure_iot_sdk\c-utility\src/map.c **** 
 831              		.loc 1 11 0
 832 0006 0028     		cmp	r0, #0
 833 0008 12D0     		beq	.L57
  11:Source\azure_iot_sdk\c-utility\src/map.c **** 
 834              		.loc 1 11 0 is_stmt 0 discriminator 2
 835 000a 0029     		cmp	r1, #0
 836 000c 12D0     		beq	.L58
 837 000e 0024     		movs	r4, #0
 838 0010 0AE0     		b	.L54
 839              	.LVL113:
 840              	.L56:
 841              	.LBB18:
  11:Source\azure_iot_sdk\c-utility\src/map.c **** 
 842              		.loc 1 11 0 discriminator 9
 843 0012 A300     		lsls	r3, r4, #2
 844 0014 084A     		ldr	r2, .L59
 845 0016 9958     		ldr	r1, [r3, r2]
 846 0018 2800     		movs	r0, r5
 847 001a FFF7FEFF 		bl	strcmp
ARM GAS  C:\Users\Phuong\AppData\Local\Temp\cczAMJrc.s 			page 23


 848              	.LVL114:
 849 001e 0028     		cmp	r0, #0
 850 0020 01D1     		bne	.L55
  11:Source\azure_iot_sdk\c-utility\src/map.c **** 
 851              		.loc 1 11 0 discriminator 6
 852 0022 3470     		strb	r4, [r6]
 853 0024 07E0     		b	.L53
 854              	.L55:
  11:Source\azure_iot_sdk\c-utility\src/map.c **** 
 855              		.loc 1 11 0 discriminator 7
 856 0026 0134     		adds	r4, r4, #1
 857              	.LVL115:
 858              	.L54:
  11:Source\azure_iot_sdk\c-utility\src/map.c **** 
 859              		.loc 1 11 0 discriminator 8
 860 0028 052C     		cmp	r4, #5
 861 002a F2D9     		bls	.L56
  11:Source\azure_iot_sdk\c-utility\src/map.c **** 
 862              		.loc 1 11 0
 863 002c 0B20     		movs	r0, #11
 864 002e 02E0     		b	.L53
 865              	.LVL116:
 866              	.L57:
 867              	.LBE18:
 868 0030 0B20     		movs	r0, #11
 869              	.LVL117:
 870 0032 00E0     		b	.L53
 871              	.LVL118:
 872              	.L58:
 873 0034 0B20     		movs	r0, #11
 874              	.LVL119:
 875              	.L53:
 876              		@ sp needed
 877              	.LVL120:
 878              	.LVL121:
 879 0036 70BD     		pop	{r4, r5, r6, pc}
 880              	.L60:
 881              		.align	2
 882              	.L59:
 883 0038 00000000 		.word	.LANCHOR1
 884              		.cfi_endproc
 885              	.LFE2:
 886              		.size	MAP_RESULT_FromString, .-MAP_RESULT_FromString
 887              		.section	.text.Map_Create,"ax",%progbits
 888              		.align	2
 889              		.global	Map_Create
 890              		.code	16
 891              		.thumb_func
 892              		.type	Map_Create, %function
 893              	Map_Create:
 894              	.LFB3:
  24:Source\azure_iot_sdk\c-utility\src/map.c ****     /*Codes_SRS_MAP_02_001: [Map_Create shall create a new, empty map.]*/
 895              		.loc 1 24 0 is_stmt 1
 896              		.cfi_startproc
 897              		@ args = 0, pretend = 0, frame = 0
 898              		@ frame_needed = 0, uses_anonymous_args = 0
 899              	.LVL122:
ARM GAS  C:\Users\Phuong\AppData\Local\Temp\cczAMJrc.s 			page 24


 900 0000 10B5     		push	{r4, lr}
 901              		.cfi_def_cfa_offset 8
 902              		.cfi_offset 4, -8
 903              		.cfi_offset 14, -4
 904 0002 0400     		movs	r4, r0
  26:Source\azure_iot_sdk\c-utility\src/map.c ****     /*Codes_SRS_MAP_02_002: [If during creation there are any error, then Map_Create shall return N
 905              		.loc 1 26 0
 906 0004 1020     		movs	r0, #16
 907              	.LVL123:
 908 0006 FFF7FEFF 		bl	malloc
 909              	.LVL124:
  28:Source\azure_iot_sdk\c-utility\src/map.c ****     {
 910              		.loc 1 28 0
 911 000a 0028     		cmp	r0, #0
 912 000c 04D0     		beq	.L62
  31:Source\azure_iot_sdk\c-utility\src/map.c ****         result->values = NULL;
 913              		.loc 1 31 0
 914 000e 0023     		movs	r3, #0
 915 0010 0360     		str	r3, [r0]
  32:Source\azure_iot_sdk\c-utility\src/map.c ****         result->count = 0;
 916              		.loc 1 32 0
 917 0012 4360     		str	r3, [r0, #4]
  33:Source\azure_iot_sdk\c-utility\src/map.c ****         result->mapFilterCallback = mapFilterFunc;
 918              		.loc 1 33 0
 919 0014 8360     		str	r3, [r0, #8]
  34:Source\azure_iot_sdk\c-utility\src/map.c ****     }
 920              		.loc 1 34 0
 921 0016 C460     		str	r4, [r0, #12]
 922              	.L62:
  37:Source\azure_iot_sdk\c-utility\src/map.c **** 
 923              		.loc 1 37 0
 924              		@ sp needed
 925              	.LVL125:
 926 0018 10BD     		pop	{r4, pc}
 927              		.cfi_endproc
 928              	.LFE3:
 929              		.size	Map_Create, .-Map_Create
 930 001a C046     		.section	.text.Map_Destroy,"ax",%progbits
 931              		.align	2
 932              		.global	Map_Destroy
 933              		.code	16
 934              		.thumb_func
 935              		.type	Map_Destroy, %function
 936              	Map_Destroy:
 937              	.LFB4:
  40:Source\azure_iot_sdk\c-utility\src/map.c ****     /*Codes_SRS_MAP_02_005: [If parameter handle is NULL then Map_Destroy shall take no action.] */
 938              		.loc 1 40 0
 939              		.cfi_startproc
 940              		@ args = 0, pretend = 0, frame = 0
 941              		@ frame_needed = 0, uses_anonymous_args = 0
 942              	.LVL126:
 943 0000 70B5     		push	{r4, r5, r6, lr}
 944              		.cfi_def_cfa_offset 16
 945              		.cfi_offset 4, -16
 946              		.cfi_offset 5, -12
 947              		.cfi_offset 6, -8
 948              		.cfi_offset 14, -4
ARM GAS  C:\Users\Phuong\AppData\Local\Temp\cczAMJrc.s 			page 25


 949 0002 051E     		subs	r5, r0, #0
  42:Source\azure_iot_sdk\c-utility\src/map.c ****     {
 950              		.loc 1 42 0
 951 0004 0BD1     		bne	.L67
 952 0006 17E0     		b	.L63
 953              	.LVL127:
 954              	.L66:
 955              	.LBB19:
  50:Source\azure_iot_sdk\c-utility\src/map.c ****             free(handleData->values[i]);
 956              		.loc 1 50 0 discriminator 3
 957 0008 A600     		lsls	r6, r4, #2
 958 000a 2B68     		ldr	r3, [r5]
 959 000c 9859     		ldr	r0, [r3, r6]
 960 000e FFF7FEFF 		bl	free
 961              	.LVL128:
  51:Source\azure_iot_sdk\c-utility\src/map.c ****         }
 962              		.loc 1 51 0 discriminator 3
 963 0012 6B68     		ldr	r3, [r5, #4]
 964 0014 9859     		ldr	r0, [r3, r6]
 965 0016 FFF7FEFF 		bl	free
 966              	.LVL129:
  48:Source\azure_iot_sdk\c-utility\src/map.c ****         {
 967              		.loc 1 48 0 discriminator 3
 968 001a 0134     		adds	r4, r4, #1
 969              	.LVL130:
 970 001c 00E0     		b	.L64
 971              	.LVL131:
 972              	.L67:
 973              	.LBE19:
 974 001e 0024     		movs	r4, #0
 975              	.LVL132:
 976              	.L64:
 977              	.LBB20:
  48:Source\azure_iot_sdk\c-utility\src/map.c ****         {
 978              		.loc 1 48 0 is_stmt 0 discriminator 1
 979 0020 AB68     		ldr	r3, [r5, #8]
 980 0022 9C42     		cmp	r4, r3
 981 0024 F0D3     		bcc	.L66
  53:Source\azure_iot_sdk\c-utility\src/map.c ****         free(handleData->values);
 982              		.loc 1 53 0 is_stmt 1
 983 0026 2868     		ldr	r0, [r5]
 984 0028 FFF7FEFF 		bl	free
 985              	.LVL133:
  54:Source\azure_iot_sdk\c-utility\src/map.c ****         free(handleData);
 986              		.loc 1 54 0
 987 002c 6868     		ldr	r0, [r5, #4]
 988 002e FFF7FEFF 		bl	free
 989              	.LVL134:
  55:Source\azure_iot_sdk\c-utility\src/map.c ****     }
 990              		.loc 1 55 0
 991 0032 2800     		movs	r0, r5
 992 0034 FFF7FEFF 		bl	free
 993              	.LVL135:
 994              	.L63:
 995              	.LBE20:
  57:Source\azure_iot_sdk\c-utility\src/map.c **** 
 996              		.loc 1 57 0
ARM GAS  C:\Users\Phuong\AppData\Local\Temp\cczAMJrc.s 			page 26


 997              		@ sp needed
 998              	.LVL136:
 999 0038 70BD     		pop	{r4, r5, r6, pc}
 1000              		.cfi_endproc
 1001              	.LFE4:
 1002              		.size	Map_Destroy, .-Map_Destroy
 1003 003a C046     		.section	.text.Map_Clone,"ax",%progbits
 1004              		.align	2
 1005              		.global	Map_Clone
 1006              		.code	16
 1007              		.thumb_func
 1008              		.type	Map_Clone, %function
 1009              	Map_Clone:
 1010              	.LFB6:
 100:Source\azure_iot_sdk\c-utility\src/map.c ****     MAP_HANDLE_DATA* result;
 1011              		.loc 1 100 0
 1012              		.cfi_startproc
 1013              		@ args = 0, pretend = 0, frame = 0
 1014              		@ frame_needed = 0, uses_anonymous_args = 0
 1015              	.LVL137:
 1016 0000 30B5     		push	{r4, r5, lr}
 1017              		.cfi_def_cfa_offset 12
 1018              		.cfi_offset 4, -12
 1019              		.cfi_offset 5, -8
 1020              		.cfi_offset 14, -4
 1021 0002 83B0     		sub	sp, sp, #12
 1022              		.cfi_def_cfa_offset 24
 1023 0004 051E     		subs	r5, r0, #0
 102:Source\azure_iot_sdk\c-utility\src/map.c ****     {
 1024              		.loc 1 102 0
 1025 0006 0FD1     		bne	.L69
 1026              	.LVL138:
 1027              	.LBB21:
 106:Source\azure_iot_sdk\c-utility\src/map.c ****     }
 1028              		.loc 1 106 0
 1029 0008 FFF7FEFF 		bl	xlogging_get_log_function
 1030              	.LVL139:
 1031 000c 041E     		subs	r4, r0, #0
 1032              	.LVL140:
 1033 000e 6DD0     		beq	.L78
 106:Source\azure_iot_sdk\c-utility\src/map.c ****     }
 1034              		.loc 1 106 0 is_stmt 0 discriminator 4
 1035 0010 384B     		ldr	r3, .L79
 1036 0012 0193     		str	r3, [sp, #4]
 1037 0014 0123     		movs	r3, #1
 1038 0016 0093     		str	r3, [sp]
 1039 0018 6933     		adds	r3, r3, #105
 1040 001a 374A     		ldr	r2, .L79+4
 1041 001c 5432     		adds	r2, r2, #84
 1042 001e 3749     		ldr	r1, .L79+8
 1043 0020 0020     		movs	r0, #0
 1044              	.LVL141:
 1045 0022 A047     		blx	r4
 1046              	.LVL142:
 1047              	.LBE21:
 105:Source\azure_iot_sdk\c-utility\src/map.c ****         LogError("invalid arg to Map_Clone (NULL)");
 1048              		.loc 1 105 0 is_stmt 1 discriminator 4
ARM GAS  C:\Users\Phuong\AppData\Local\Temp\cczAMJrc.s 			page 27


 1049 0024 0024     		movs	r4, #0
 1050              	.LVL143:
 1051 0026 62E0     		b	.L70
 1052              	.LVL144:
 1053              	.L69:
 1054              	.LBB22:
 111:Source\azure_iot_sdk\c-utility\src/map.c ****         if (result == NULL)
 1055              		.loc 1 111 0
 1056 0028 1020     		movs	r0, #16
 1057              	.LVL145:
 1058 002a FFF7FEFF 		bl	malloc
 1059              	.LVL146:
 1060 002e 041E     		subs	r4, r0, #0
 1061              	.LVL147:
 112:Source\azure_iot_sdk\c-utility\src/map.c ****         {
 1062              		.loc 1 112 0
 1063 0030 0ED1     		bne	.L71
 1064              	.LBB23:
 116:Source\azure_iot_sdk\c-utility\src/map.c ****         }
 1065              		.loc 1 116 0 discriminator 3
 1066 0032 FFF7FEFF 		bl	xlogging_get_log_function
 1067              	.LVL148:
 1068 0036 051E     		subs	r5, r0, #0
 1069              	.LVL149:
 1070 0038 59D0     		beq	.L70
 116:Source\azure_iot_sdk\c-utility\src/map.c ****         }
 1071              		.loc 1 116 0 is_stmt 0 discriminator 4
 1072 003a 314B     		ldr	r3, .L79+12
 1073 003c 0193     		str	r3, [sp, #4]
 1074 003e 0123     		movs	r3, #1
 1075 0040 0093     		str	r3, [sp]
 1076 0042 7333     		adds	r3, r3, #115
 1077 0044 2C4A     		ldr	r2, .L79+4
 1078 0046 5432     		adds	r2, r2, #84
 1079 0048 2C49     		ldr	r1, .L79+8
 1080 004a 0020     		movs	r0, #0
 1081              	.LVL150:
 1082 004c A847     		blx	r5
 1083              	.LVL151:
 1084 004e 4EE0     		b	.L70
 1085              	.LVL152:
 1086              	.L71:
 1087              	.LBE23:
 120:Source\azure_iot_sdk\c-utility\src/map.c ****             {
 1088              		.loc 1 120 0 is_stmt 1
 1089 0050 AB68     		ldr	r3, [r5, #8]
 1090 0052 002B     		cmp	r3, #0
 1091 0054 04D1     		bne	.L72
 122:Source\azure_iot_sdk\c-utility\src/map.c ****                 result->keys = NULL;
 1092              		.loc 1 122 0
 1093 0056 8360     		str	r3, [r0, #8]
 123:Source\azure_iot_sdk\c-utility\src/map.c ****                 result->values = NULL;
 1094              		.loc 1 123 0
 1095 0058 0360     		str	r3, [r0]
 124:Source\azure_iot_sdk\c-utility\src/map.c ****                 result->mapFilterCallback = NULL;
 1096              		.loc 1 124 0
 1097 005a 4360     		str	r3, [r0, #4]
ARM GAS  C:\Users\Phuong\AppData\Local\Temp\cczAMJrc.s 			page 28


 125:Source\azure_iot_sdk\c-utility\src/map.c ****             }
 1098              		.loc 1 125 0
 1099 005c C360     		str	r3, [r0, #12]
 1100 005e 46E0     		b	.L70
 1101              	.L72:
 129:Source\azure_iot_sdk\c-utility\src/map.c ****                 result->count = handleData->count;
 1102              		.loc 1 129 0
 1103 0060 EB68     		ldr	r3, [r5, #12]
 1104 0062 C360     		str	r3, [r0, #12]
 130:Source\azure_iot_sdk\c-utility\src/map.c ****                 if( (result->keys = Map_CloneVector((const char* const*)handleData->keys, handleDat
 1105              		.loc 1 130 0
 1106 0064 AB68     		ldr	r3, [r5, #8]
 1107 0066 8360     		str	r3, [r0, #8]
 131:Source\azure_iot_sdk\c-utility\src/map.c ****                 {
 1108              		.loc 1 131 0
 1109 0068 A968     		ldr	r1, [r5, #8]
 1110 006a 2868     		ldr	r0, [r5]
 1111              	.LVL153:
 1112 006c FFF7FEFF 		bl	Map_CloneVector
 1113              	.LVL154:
 1114 0070 2060     		str	r0, [r4]
 1115 0072 0028     		cmp	r0, #0
 1116 0074 12D1     		bne	.L73
 1117              	.LBB24:
 134:Source\azure_iot_sdk\c-utility\src/map.c ****                     free(result);
 1118              		.loc 1 134 0 discriminator 3
 1119 0076 FFF7FEFF 		bl	xlogging_get_log_function
 1120              	.LVL155:
 1121 007a 051E     		subs	r5, r0, #0
 1122              	.LVL156:
 1123 007c 09D0     		beq	.L74
 134:Source\azure_iot_sdk\c-utility\src/map.c ****                     free(result);
 1124              		.loc 1 134 0 is_stmt 0 discriminator 4
 1125 007e 214B     		ldr	r3, .L79+16
 1126 0080 0193     		str	r3, [sp, #4]
 1127 0082 0123     		movs	r3, #1
 1128 0084 0093     		str	r3, [sp]
 1129 0086 8533     		adds	r3, r3, #133
 1130 0088 1B4A     		ldr	r2, .L79+4
 1131 008a 5432     		adds	r2, r2, #84
 1132 008c 1B49     		ldr	r1, .L79+8
 1133 008e 0020     		movs	r0, #0
 1134              	.LVL157:
 1135 0090 A847     		blx	r5
 1136              	.LVL158:
 1137              	.L74:
 1138              	.LBE24:
 135:Source\azure_iot_sdk\c-utility\src/map.c ****                     result = NULL;
 1139              		.loc 1 135 0 is_stmt 1
 1140 0092 2000     		movs	r0, r4
 1141 0094 FFF7FEFF 		bl	free
 1142              	.LVL159:
 136:Source\azure_iot_sdk\c-utility\src/map.c ****                 }
 1143              		.loc 1 136 0
 1144 0098 0024     		movs	r4, #0
 1145 009a 28E0     		b	.L70
 1146              	.LVL160:
ARM GAS  C:\Users\Phuong\AppData\Local\Temp\cczAMJrc.s 			page 29


 1147              	.L73:
 138:Source\azure_iot_sdk\c-utility\src/map.c ****                 {
 1148              		.loc 1 138 0
 1149 009c 6868     		ldr	r0, [r5, #4]
 1150 009e A968     		ldr	r1, [r5, #8]
 1151 00a0 FFF7FEFF 		bl	Map_CloneVector
 1152              	.LVL161:
 1153 00a4 6060     		str	r0, [r4, #4]
 1154 00a6 0028     		cmp	r0, #0
 1155 00a8 21D1     		bne	.L70
 1156              	.LBB25:
 1157              	.LBB26:
 142:Source\azure_iot_sdk\c-utility\src/map.c ****                     for (i = 0; i < result->count; i++)
 1158              		.loc 1 142 0 discriminator 3
 1159 00aa FFF7FEFF 		bl	xlogging_get_log_function
 1160              	.LVL162:
 1161 00ae 051E     		subs	r5, r0, #0
 1162              	.LVL163:
 1163 00b0 09D0     		beq	.L75
 142:Source\azure_iot_sdk\c-utility\src/map.c ****                     for (i = 0; i < result->count; i++)
 1164              		.loc 1 142 0 is_stmt 0 discriminator 4
 1165 00b2 154B     		ldr	r3, .L79+20
 1166 00b4 0193     		str	r3, [sp, #4]
 1167 00b6 0123     		movs	r3, #1
 1168 00b8 0093     		str	r3, [sp]
 1169 00ba 8D33     		adds	r3, r3, #141
 1170 00bc 0E4A     		ldr	r2, .L79+4
 1171 00be 5432     		adds	r2, r2, #84
 1172 00c0 0E49     		ldr	r1, .L79+8
 1173 00c2 0020     		movs	r0, #0
 1174              	.LVL164:
 1175 00c4 A847     		blx	r5
 1176              	.LVL165:
 1177              	.L75:
 1178              	.LBE26:
 1179              	.LBE25:
 1180              	.LBE22:
 100:Source\azure_iot_sdk\c-utility\src/map.c ****     MAP_HANDLE_DATA* result;
 1181              		.loc 1 100 0 is_stmt 1 discriminator 1
 1182 00c6 0025     		movs	r5, #0
 1183              	.LVL166:
 1184 00c8 05E0     		b	.L76
 1185              	.LVL167:
 1186              	.L77:
 1187              	.LBB28:
 1188              	.LBB27:
 145:Source\azure_iot_sdk\c-utility\src/map.c ****                     }
 1189              		.loc 1 145 0 discriminator 3
 1190 00ca AB00     		lsls	r3, r5, #2
 1191 00cc 2268     		ldr	r2, [r4]
 1192 00ce D058     		ldr	r0, [r2, r3]
 1193 00d0 FFF7FEFF 		bl	free
 1194              	.LVL168:
 143:Source\azure_iot_sdk\c-utility\src/map.c ****                     {
 1195              		.loc 1 143 0 discriminator 3
 1196 00d4 0135     		adds	r5, r5, #1
 1197              	.LVL169:
ARM GAS  C:\Users\Phuong\AppData\Local\Temp\cczAMJrc.s 			page 30


 1198              	.L76:
 143:Source\azure_iot_sdk\c-utility\src/map.c ****                     {
 1199              		.loc 1 143 0 is_stmt 0 discriminator 1
 1200 00d6 A368     		ldr	r3, [r4, #8]
 1201 00d8 9D42     		cmp	r5, r3
 1202 00da F6D3     		bcc	.L77
 147:Source\azure_iot_sdk\c-utility\src/map.c ****                     free(result);
 1203              		.loc 1 147 0 is_stmt 1
 1204 00dc 2068     		ldr	r0, [r4]
 1205 00de FFF7FEFF 		bl	free
 1206              	.LVL170:
 148:Source\azure_iot_sdk\c-utility\src/map.c ****                     result = NULL;
 1207              		.loc 1 148 0
 1208 00e2 2000     		movs	r0, r4
 1209 00e4 FFF7FEFF 		bl	free
 1210              	.LVL171:
 149:Source\azure_iot_sdk\c-utility\src/map.c ****                 }
 1211              		.loc 1 149 0
 1212 00e8 0024     		movs	r4, #0
 1213              	.LBE27:
 1214 00ea 00E0     		b	.L70
 1215              	.LVL172:
 1216              	.L78:
 1217              	.LBE28:
 105:Source\azure_iot_sdk\c-utility\src/map.c ****         LogError("invalid arg to Map_Clone (NULL)");
 1218              		.loc 1 105 0
 1219 00ec 0024     		movs	r4, #0
 1220              	.LVL173:
 1221              	.L70:
 159:Source\azure_iot_sdk\c-utility\src/map.c **** 
 1222              		.loc 1 159 0
 1223 00ee 2000     		movs	r0, r4
 1224 00f0 03B0     		add	sp, sp, #12
 1225              		@ sp needed
 1226              	.LVL174:
 1227 00f2 30BD     		pop	{r4, r5, pc}
 1228              	.L80:
 1229              		.align	2
 1230              	.L79:
 1231 00f4 A0000000 		.word	.LC18
 1232 00f8 00000000 		.word	.LANCHOR0
 1233 00fc 00000000 		.word	.LC1
 1234 0100 C0000000 		.word	.LC20
 1235 0104 D4000000 		.word	.LC22
 1236 0108 EC000000 		.word	.LC24
 1237              		.cfi_endproc
 1238              	.LFE6:
 1239              		.size	Map_Clone, .-Map_Clone
 1240              		.section	.text.Map_Add,"ax",%progbits
 1241              		.align	2
 1242              		.global	Map_Add
 1243              		.code	16
 1244              		.thumb_func
 1245              		.type	Map_Add, %function
 1246              	Map_Add:
 1247              	.LFB12:
 326:Source\azure_iot_sdk\c-utility\src/map.c **** 
ARM GAS  C:\Users\Phuong\AppData\Local\Temp\cczAMJrc.s 			page 31


 327:Source\azure_iot_sdk\c-utility\src/map.c **** MAP_RESULT Map_Add(MAP_HANDLE handle, const char* key, const char* value)
 328:Source\azure_iot_sdk\c-utility\src/map.c **** {
 1248              		.loc 1 328 0
 1249              		.cfi_startproc
 1250              		@ args = 0, pretend = 0, frame = 0
 1251              		@ frame_needed = 0, uses_anonymous_args = 0
 1252              	.LVL175:
 1253 0000 70B5     		push	{r4, r5, r6, lr}
 1254              		.cfi_def_cfa_offset 16
 1255              		.cfi_offset 4, -16
 1256              		.cfi_offset 5, -12
 1257              		.cfi_offset 6, -8
 1258              		.cfi_offset 14, -4
 1259 0002 84B0     		sub	sp, sp, #16
 1260              		.cfi_def_cfa_offset 32
 1261 0004 0400     		movs	r4, r0
 1262 0006 0D00     		movs	r5, r1
 1263 0008 1600     		movs	r6, r2
 329:Source\azure_iot_sdk\c-utility\src/map.c ****     MAP_RESULT result;
 330:Source\azure_iot_sdk\c-utility\src/map.c ****     /*Codes_SRS_MAP_02_006: [If parameter handle is NULL then Map_Add shall return MAP_INVALID_ARG.
 331:Source\azure_iot_sdk\c-utility\src/map.c ****     /*Codes_SRS_MAP_02_007: [If parameter key is NULL then Map_Add shall return MAP_INVALID_ARG.]*/
 332:Source\azure_iot_sdk\c-utility\src/map.c ****     /*Codes_SRS_MAP_02_008: [If parameter value is NULL then Map_Add shall return MAP_INVALID_ARG.]
 333:Source\azure_iot_sdk\c-utility\src/map.c ****     if (
 1264              		.loc 1 333 0
 1265 000a 0028     		cmp	r0, #0
 1266 000c 03D0     		beq	.L82
 334:Source\azure_iot_sdk\c-utility\src/map.c ****         (handle == NULL) ||
 1267              		.loc 1 334 0
 1268 000e 0029     		cmp	r1, #0
 1269 0010 01D0     		beq	.L82
 335:Source\azure_iot_sdk\c-utility\src/map.c ****         (key == NULL) ||
 1270              		.loc 1 335 0
 1271 0012 002A     		cmp	r2, #0
 1272 0014 14D1     		bne	.L83
 1273              	.L82:
 1274              	.LVL176:
 1275              	.LBB29:
 336:Source\azure_iot_sdk\c-utility\src/map.c ****         (value == NULL)
 337:Source\azure_iot_sdk\c-utility\src/map.c ****         )
 338:Source\azure_iot_sdk\c-utility\src/map.c ****     {
 339:Source\azure_iot_sdk\c-utility\src/map.c ****         result = MAP_INVALIDARG;
 340:Source\azure_iot_sdk\c-utility\src/map.c ****         LOG_MAP_ERROR;
 1276              		.loc 1 340 0
 1277 0016 FFF7FEFF 		bl	xlogging_get_log_function
 1278              	.LVL177:
 1279 001a 041E     		subs	r4, r0, #0
 1280              	.LVL178:
 1281 001c 38D0     		beq	.L86
 1282              		.loc 1 340 0 is_stmt 0 discriminator 4
 1283 001e 0220     		movs	r0, #2
 1284              	.LVL179:
 1285 0020 FFF7FEFF 		bl	MAP_RESULTStrings
 1286              	.LVL180:
 1287 0024 0290     		str	r0, [sp, #8]
 1288 0026 204B     		ldr	r3, .L91
 1289 0028 0193     		str	r3, [sp, #4]
 1290 002a 0123     		movs	r3, #1
ARM GAS  C:\Users\Phuong\AppData\Local\Temp\cczAMJrc.s 			page 32


 1291 002c 0093     		str	r3, [sp]
 1292 002e 5433     		adds	r3, r3, #84
 1293 0030 FF33     		adds	r3, r3, #255
 1294 0032 1E4A     		ldr	r2, .L91+4
 1295 0034 6032     		adds	r2, r2, #96
 1296 0036 1E49     		ldr	r1, .L91+8
 1297 0038 0020     		movs	r0, #0
 1298 003a A047     		blx	r4
 1299              	.LVL181:
 1300              	.LBE29:
 339:Source\azure_iot_sdk\c-utility\src/map.c ****         LOG_MAP_ERROR;
 1301              		.loc 1 339 0 is_stmt 1 discriminator 4
 1302 003c 0220     		movs	r0, #2
 1303 003e 30E0     		b	.L84
 1304              	.LVL182:
 1305              	.L83:
 1306              	.LBB30:
 341:Source\azure_iot_sdk\c-utility\src/map.c ****     }
 342:Source\azure_iot_sdk\c-utility\src/map.c ****     else
 343:Source\azure_iot_sdk\c-utility\src/map.c ****     {
 344:Source\azure_iot_sdk\c-utility\src/map.c ****         MAP_HANDLE_DATA* handleData = (MAP_HANDLE_DATA*)handle;
 345:Source\azure_iot_sdk\c-utility\src/map.c ****         /*Codes_SRS_MAP_02_009: [If the key already exists, then Map_Add shall return MAP_KEYEXISTS
 346:Source\azure_iot_sdk\c-utility\src/map.c ****         if (findKey(handleData, key) != NULL)
 1307              		.loc 1 346 0
 1308 0040 FFF7FEFF 		bl	findKey
 1309              	.LVL183:
 1310 0044 0028     		cmp	r0, #0
 1311 0046 25D1     		bne	.L87
 347:Source\azure_iot_sdk\c-utility\src/map.c ****         {
 348:Source\azure_iot_sdk\c-utility\src/map.c ****             result = MAP_KEYEXISTS;
 349:Source\azure_iot_sdk\c-utility\src/map.c ****         }
 350:Source\azure_iot_sdk\c-utility\src/map.c ****         else
 351:Source\azure_iot_sdk\c-utility\src/map.c ****         {
 352:Source\azure_iot_sdk\c-utility\src/map.c ****             /* Codes_SRS_MAP_07_009: [If the mapFilterCallback function is not NULL, then the retur
 353:Source\azure_iot_sdk\c-utility\src/map.c ****             if ( (handleData->mapFilterCallback != NULL) && (handleData->mapFilterCallback(key, val
 1312              		.loc 1 353 0
 1313 0048 E368     		ldr	r3, [r4, #12]
 1314 004a 002B     		cmp	r3, #0
 1315 004c 04D0     		beq	.L85
 1316              		.loc 1 353 0 is_stmt 0 discriminator 1
 1317 004e 3100     		movs	r1, r6
 1318 0050 2800     		movs	r0, r5
 1319 0052 9847     		blx	r3
 1320              	.LVL184:
 1321 0054 0028     		cmp	r0, #0
 1322 0056 1FD1     		bne	.L88
 1323              	.L85:
 354:Source\azure_iot_sdk\c-utility\src/map.c ****             {
 355:Source\azure_iot_sdk\c-utility\src/map.c ****                 result = MAP_FILTER_REJECT;
 356:Source\azure_iot_sdk\c-utility\src/map.c ****             }
 357:Source\azure_iot_sdk\c-utility\src/map.c ****             else
 358:Source\azure_iot_sdk\c-utility\src/map.c ****             {
 359:Source\azure_iot_sdk\c-utility\src/map.c ****                 /*Codes_SRS_MAP_02_010: [Otherwise, Map_Add shall add the pair <key,value> to the m
 360:Source\azure_iot_sdk\c-utility\src/map.c ****                 if (insertNewKeyValue(handleData, key, value) != 0)
 1324              		.loc 1 360 0 is_stmt 1
 1325 0058 3200     		movs	r2, r6
 1326 005a 2900     		movs	r1, r5
ARM GAS  C:\Users\Phuong\AppData\Local\Temp\cczAMJrc.s 			page 33


 1327 005c 2000     		movs	r0, r4
 1328 005e FFF7FEFF 		bl	insertNewKeyValue
 1329              	.LVL185:
 1330 0062 0028     		cmp	r0, #0
 1331 0064 1AD0     		beq	.L89
 1332              	.LVL186:
 1333              	.LBB31:
 361:Source\azure_iot_sdk\c-utility\src/map.c ****                 {
 362:Source\azure_iot_sdk\c-utility\src/map.c ****                     /*Codes_SRS_MAP_02_011: [If adding the pair <key,value> fails then Map_Add shal
 363:Source\azure_iot_sdk\c-utility\src/map.c ****                     result = MAP_ERROR;
 364:Source\azure_iot_sdk\c-utility\src/map.c ****                     LOG_MAP_ERROR;
 1334              		.loc 1 364 0
 1335 0066 FFF7FEFF 		bl	xlogging_get_log_function
 1336              	.LVL187:
 1337 006a 041E     		subs	r4, r0, #0
 1338              	.LVL188:
 1339 006c 18D0     		beq	.L90
 1340              		.loc 1 364 0 is_stmt 0 discriminator 4
 1341 006e 0120     		movs	r0, #1
 1342              	.LVL189:
 1343 0070 FFF7FEFF 		bl	MAP_RESULTStrings
 1344              	.LVL190:
 1345 0074 0290     		str	r0, [sp, #8]
 1346 0076 0C4B     		ldr	r3, .L91
 1347 0078 0193     		str	r3, [sp, #4]
 1348 007a 0123     		movs	r3, #1
 1349 007c 0093     		str	r3, [sp]
 1350 007e 6C33     		adds	r3, r3, #108
 1351 0080 FF33     		adds	r3, r3, #255
 1352 0082 0A4A     		ldr	r2, .L91+4
 1353 0084 6032     		adds	r2, r2, #96
 1354 0086 0A49     		ldr	r1, .L91+8
 1355 0088 0020     		movs	r0, #0
 1356 008a A047     		blx	r4
 1357              	.LVL191:
 1358              	.LBE31:
 363:Source\azure_iot_sdk\c-utility\src/map.c ****                     LOG_MAP_ERROR;
 1359              		.loc 1 363 0 is_stmt 1 discriminator 4
 1360 008c 0120     		movs	r0, #1
 1361 008e 08E0     		b	.L84
 1362              	.LVL192:
 1363              	.L86:
 1364              	.LBE30:
 339:Source\azure_iot_sdk\c-utility\src/map.c ****         LOG_MAP_ERROR;
 1365              		.loc 1 339 0
 1366 0090 0220     		movs	r0, #2
 1367              	.LVL193:
 1368 0092 06E0     		b	.L84
 1369              	.LVL194:
 1370              	.L87:
 1371              	.LBB32:
 348:Source\azure_iot_sdk\c-utility\src/map.c ****         }
 1372              		.loc 1 348 0
 1373 0094 0320     		movs	r0, #3
 1374 0096 04E0     		b	.L84
 1375              	.L88:
 355:Source\azure_iot_sdk\c-utility\src/map.c ****             }
ARM GAS  C:\Users\Phuong\AppData\Local\Temp\cczAMJrc.s 			page 34


 1376              		.loc 1 355 0
 1377 0098 0520     		movs	r0, #5
 1378 009a 02E0     		b	.L84
 1379              	.L89:
 365:Source\azure_iot_sdk\c-utility\src/map.c ****                 }
 366:Source\azure_iot_sdk\c-utility\src/map.c ****                 else
 367:Source\azure_iot_sdk\c-utility\src/map.c ****                 {
 368:Source\azure_iot_sdk\c-utility\src/map.c ****                     /*Codes_SRS_MAP_02_012: [Otherwise, Map_Add shall return MAP_OK.] */
 369:Source\azure_iot_sdk\c-utility\src/map.c ****                     result = MAP_OK;
 1380              		.loc 1 369 0
 1381 009c 0020     		movs	r0, #0
 1382 009e 00E0     		b	.L84
 1383              	.LVL195:
 1384              	.L90:
 363:Source\azure_iot_sdk\c-utility\src/map.c ****                     LOG_MAP_ERROR;
 1385              		.loc 1 363 0
 1386 00a0 0120     		movs	r0, #1
 1387              	.LVL196:
 1388              	.L84:
 1389              	.LBE32:
 370:Source\azure_iot_sdk\c-utility\src/map.c ****                 }
 371:Source\azure_iot_sdk\c-utility\src/map.c ****             }
 372:Source\azure_iot_sdk\c-utility\src/map.c ****         }
 373:Source\azure_iot_sdk\c-utility\src/map.c ****     }
 374:Source\azure_iot_sdk\c-utility\src/map.c ****     return result;
 375:Source\azure_iot_sdk\c-utility\src/map.c **** }
 1390              		.loc 1 375 0
 1391 00a2 04B0     		add	sp, sp, #16
 1392              		@ sp needed
 1393              	.LVL197:
 1394              	.LVL198:
 1395 00a4 70BD     		pop	{r4, r5, r6, pc}
 1396              	.L92:
 1397 00a6 C046     		.align	2
 1398              	.L91:
 1399 00a8 04010000 		.word	.LC28
 1400 00ac 00000000 		.word	.LANCHOR0
 1401 00b0 00000000 		.word	.LC1
 1402              		.cfi_endproc
 1403              	.LFE12:
 1404              		.size	Map_Add, .-Map_Add
 1405              		.section	.text.Map_AddOrUpdate,"ax",%progbits
 1406              		.align	2
 1407              		.global	Map_AddOrUpdate
 1408              		.code	16
 1409              		.thumb_func
 1410              		.type	Map_AddOrUpdate, %function
 1411              	Map_AddOrUpdate:
 1412              	.LFB13:
 376:Source\azure_iot_sdk\c-utility\src/map.c **** 
 377:Source\azure_iot_sdk\c-utility\src/map.c **** MAP_RESULT Map_AddOrUpdate(MAP_HANDLE handle, const char* key, const char* value)
 378:Source\azure_iot_sdk\c-utility\src/map.c **** {
 1413              		.loc 1 378 0
 1414              		.cfi_startproc
 1415              		@ args = 0, pretend = 0, frame = 8
 1416              		@ frame_needed = 0, uses_anonymous_args = 0
 1417              	.LVL199:
ARM GAS  C:\Users\Phuong\AppData\Local\Temp\cczAMJrc.s 			page 35


 1418 0000 F0B5     		push	{r4, r5, r6, r7, lr}
 1419              		.cfi_def_cfa_offset 20
 1420              		.cfi_offset 4, -20
 1421              		.cfi_offset 5, -16
 1422              		.cfi_offset 6, -12
 1423              		.cfi_offset 7, -8
 1424              		.cfi_offset 14, -4
 1425 0002 87B0     		sub	sp, sp, #28
 1426              		.cfi_def_cfa_offset 48
 1427 0004 0400     		movs	r4, r0
 1428 0006 0E00     		movs	r6, r1
 1429 0008 1500     		movs	r5, r2
 379:Source\azure_iot_sdk\c-utility\src/map.c ****     MAP_RESULT result;
 380:Source\azure_iot_sdk\c-utility\src/map.c ****     /*Codes_SRS_MAP_02_013: [If parameter handle is NULL then Map_AddOrUpdate shall return MAP_INVA
 381:Source\azure_iot_sdk\c-utility\src/map.c ****     /*Codes_SRS_MAP_02_014: [If parameter key is NULL then Map_AddOrUpdate shall return MAP_INVALID
 382:Source\azure_iot_sdk\c-utility\src/map.c ****     /*Codes_SRS_MAP_02_015: [If parameter value is NULL then Map_AddOrUpdate shall return MAP_INVAL
 383:Source\azure_iot_sdk\c-utility\src/map.c ****     if (
 1430              		.loc 1 383 0
 1431 000a 0028     		cmp	r0, #0
 1432 000c 03D0     		beq	.L94
 384:Source\azure_iot_sdk\c-utility\src/map.c ****         (handle == NULL) ||
 1433              		.loc 1 384 0
 1434 000e 0029     		cmp	r1, #0
 1435 0010 01D0     		beq	.L94
 385:Source\azure_iot_sdk\c-utility\src/map.c ****         (key == NULL) ||
 1436              		.loc 1 385 0
 1437 0012 002A     		cmp	r2, #0
 1438 0014 14D1     		bne	.L95
 1439              	.L94:
 1440              	.LVL200:
 1441              	.LBB33:
 386:Source\azure_iot_sdk\c-utility\src/map.c ****         (value == NULL)
 387:Source\azure_iot_sdk\c-utility\src/map.c ****         )
 388:Source\azure_iot_sdk\c-utility\src/map.c ****     {
 389:Source\azure_iot_sdk\c-utility\src/map.c ****         result = MAP_INVALIDARG;
 390:Source\azure_iot_sdk\c-utility\src/map.c ****         LOG_MAP_ERROR;
 1442              		.loc 1 390 0
 1443 0016 FFF7FEFF 		bl	xlogging_get_log_function
 1444              	.LVL201:
 1445 001a 041E     		subs	r4, r0, #0
 1446              	.LVL202:
 1447 001c 66D0     		beq	.L100
 1448              		.loc 1 390 0 is_stmt 0 discriminator 4
 1449 001e 0220     		movs	r0, #2
 1450              	.LVL203:
 1451 0020 FFF7FEFF 		bl	MAP_RESULTStrings
 1452              	.LVL204:
 1453 0024 0290     		str	r0, [sp, #8]
 1454 0026 374B     		ldr	r3, .L105
 1455 0028 0193     		str	r3, [sp, #4]
 1456 002a 0123     		movs	r3, #1
 1457 002c 0093     		str	r3, [sp]
 1458 002e 8633     		adds	r3, r3, #134
 1459 0030 FF33     		adds	r3, r3, #255
 1460 0032 354A     		ldr	r2, .L105+4
 1461 0034 6832     		adds	r2, r2, #104
 1462 0036 3549     		ldr	r1, .L105+8
ARM GAS  C:\Users\Phuong\AppData\Local\Temp\cczAMJrc.s 			page 36


 1463 0038 0020     		movs	r0, #0
 1464 003a A047     		blx	r4
 1465              	.LVL205:
 1466              	.LBE33:
 389:Source\azure_iot_sdk\c-utility\src/map.c ****         LOG_MAP_ERROR;
 1467              		.loc 1 389 0 is_stmt 1 discriminator 4
 1468 003c 0220     		movs	r0, #2
 1469 003e 5EE0     		b	.L96
 1470              	.LVL206:
 1471              	.L95:
 1472              	.LBB34:
 391:Source\azure_iot_sdk\c-utility\src/map.c ****     }
 392:Source\azure_iot_sdk\c-utility\src/map.c ****     else
 393:Source\azure_iot_sdk\c-utility\src/map.c ****     {
 394:Source\azure_iot_sdk\c-utility\src/map.c ****         MAP_HANDLE_DATA* handleData = (MAP_HANDLE_DATA*)handle;
 395:Source\azure_iot_sdk\c-utility\src/map.c **** 
 396:Source\azure_iot_sdk\c-utility\src/map.c ****         /* Codes_SRS_MAP_07_008: [If the mapFilterCallback function is not NULL, then the return va
 397:Source\azure_iot_sdk\c-utility\src/map.c ****         if (handleData->mapFilterCallback != NULL && handleData->mapFilterCallback(key, value) != 0
 1473              		.loc 1 397 0
 1474 0040 C368     		ldr	r3, [r0, #12]
 1475 0042 002B     		cmp	r3, #0
 1476 0044 04D0     		beq	.L97
 1477              		.loc 1 397 0 is_stmt 0 discriminator 1
 1478 0046 1100     		movs	r1, r2
 1479              	.LVL207:
 1480 0048 3000     		movs	r0, r6
 1481              	.LVL208:
 1482 004a 9847     		blx	r3
 1483              	.LVL209:
 1484 004c 0028     		cmp	r0, #0
 1485 004e 4FD1     		bne	.L101
 1486              	.L97:
 1487              	.LBB35:
 398:Source\azure_iot_sdk\c-utility\src/map.c ****         {
 399:Source\azure_iot_sdk\c-utility\src/map.c ****             result = MAP_FILTER_REJECT;
 400:Source\azure_iot_sdk\c-utility\src/map.c ****         }
 401:Source\azure_iot_sdk\c-utility\src/map.c ****         else
 402:Source\azure_iot_sdk\c-utility\src/map.c ****         {
 403:Source\azure_iot_sdk\c-utility\src/map.c ****             char** whereIsIt = findKey(handleData, key);
 1488              		.loc 1 403 0 is_stmt 1
 1489 0050 3100     		movs	r1, r6
 1490 0052 2000     		movs	r0, r4
 1491 0054 FFF7FEFF 		bl	findKey
 1492              	.LVL210:
 404:Source\azure_iot_sdk\c-utility\src/map.c ****             if (whereIsIt == NULL)
 1493              		.loc 1 404 0
 1494 0058 0028     		cmp	r0, #0
 1495 005a 1BD1     		bne	.L98
 405:Source\azure_iot_sdk\c-utility\src/map.c ****             {
 406:Source\azure_iot_sdk\c-utility\src/map.c ****                 /*Codes_SRS_MAP_02_017: [Otherwise, Map_AddOrUpdate shall add the pair <key,value> 
 407:Source\azure_iot_sdk\c-utility\src/map.c ****                 if (insertNewKeyValue(handleData, key, value) != 0)
 1496              		.loc 1 407 0
 1497 005c 2A00     		movs	r2, r5
 1498 005e 3100     		movs	r1, r6
 1499 0060 2000     		movs	r0, r4
 1500              	.LVL211:
 1501 0062 FFF7FEFF 		bl	insertNewKeyValue
ARM GAS  C:\Users\Phuong\AppData\Local\Temp\cczAMJrc.s 			page 37


 1502              	.LVL212:
 1503 0066 0028     		cmp	r0, #0
 1504 0068 44D0     		beq	.L102
 1505              	.LVL213:
 1506              	.LBB36:
 408:Source\azure_iot_sdk\c-utility\src/map.c ****                 {
 409:Source\azure_iot_sdk\c-utility\src/map.c ****                     result = MAP_ERROR;
 410:Source\azure_iot_sdk\c-utility\src/map.c ****                     LOG_MAP_ERROR;
 1507              		.loc 1 410 0
 1508 006a FFF7FEFF 		bl	xlogging_get_log_function
 1509              	.LVL214:
 1510 006e 041E     		subs	r4, r0, #0
 1511              	.LVL215:
 1512 0070 42D0     		beq	.L103
 1513              		.loc 1 410 0 is_stmt 0 discriminator 4
 1514 0072 0120     		movs	r0, #1
 1515              	.LVL216:
 1516 0074 FFF7FEFF 		bl	MAP_RESULTStrings
 1517              	.LVL217:
 1518 0078 0290     		str	r0, [sp, #8]
 1519 007a 224B     		ldr	r3, .L105
 1520 007c 0193     		str	r3, [sp, #4]
 1521 007e 0123     		movs	r3, #1
 1522 0080 0093     		str	r3, [sp]
 1523 0082 9A33     		adds	r3, r3, #154
 1524 0084 FF33     		adds	r3, r3, #255
 1525 0086 204A     		ldr	r2, .L105+4
 1526 0088 6832     		adds	r2, r2, #104
 1527 008a 2049     		ldr	r1, .L105+8
 1528 008c 0020     		movs	r0, #0
 1529 008e A047     		blx	r4
 1530              	.LVL218:
 1531              	.LBE36:
 409:Source\azure_iot_sdk\c-utility\src/map.c ****                     LOG_MAP_ERROR;
 1532              		.loc 1 409 0 is_stmt 1 discriminator 4
 1533 0090 0120     		movs	r0, #1
 1534 0092 34E0     		b	.L96
 1535              	.LVL219:
 1536              	.L98:
 1537              	.LBB37:
 411:Source\azure_iot_sdk\c-utility\src/map.c ****                 }
 412:Source\azure_iot_sdk\c-utility\src/map.c ****                 else
 413:Source\azure_iot_sdk\c-utility\src/map.c ****                 {
 414:Source\azure_iot_sdk\c-utility\src/map.c ****                     result = MAP_OK;
 415:Source\azure_iot_sdk\c-utility\src/map.c ****                 }
 416:Source\azure_iot_sdk\c-utility\src/map.c ****             }
 417:Source\azure_iot_sdk\c-utility\src/map.c ****             else
 418:Source\azure_iot_sdk\c-utility\src/map.c ****             {
 419:Source\azure_iot_sdk\c-utility\src/map.c ****                 /*Codes_SRS_MAP_02_016: [If the key already exists, then Map_AddOrUpdate shall over
 420:Source\azure_iot_sdk\c-utility\src/map.c ****                 size_t index = whereIsIt - handleData->keys;
 1538              		.loc 1 420 0
 1539 0094 2368     		ldr	r3, [r4]
 1540 0096 C61A     		subs	r6, r0, r3
 1541              	.LVL220:
 421:Source\azure_iot_sdk\c-utility\src/map.c ****                 size_t valueLength = strlen(value);
 1542              		.loc 1 421 0
 1543 0098 2800     		movs	r0, r5
ARM GAS  C:\Users\Phuong\AppData\Local\Temp\cczAMJrc.s 			page 38


 1544              	.LVL221:
 1545 009a FFF7FEFF 		bl	strlen
 1546              	.LVL222:
 422:Source\azure_iot_sdk\c-utility\src/map.c ****                 /*try to realloc value of this key*/
 423:Source\azure_iot_sdk\c-utility\src/map.c ****                 char* newValue = (char*)realloc(handleData->values[index],valueLength  + 1);
 1547              		.loc 1 423 0
 1548 009e 6368     		ldr	r3, [r4, #4]
 1549 00a0 9B59     		ldr	r3, [r3, r6]
 1550 00a2 421C     		adds	r2, r0, #1
 1551 00a4 0592     		str	r2, [sp, #20]
 1552 00a6 1100     		movs	r1, r2
 1553 00a8 1800     		movs	r0, r3
 1554              	.LVL223:
 1555 00aa FFF7FEFF 		bl	realloc
 1556              	.LVL224:
 1557 00ae 071E     		subs	r7, r0, #0
 1558              	.LVL225:
 424:Source\azure_iot_sdk\c-utility\src/map.c ****                 if (newValue == NULL)
 1559              		.loc 1 424 0
 1560 00b0 14D1     		bne	.L99
 1561              	.LVL226:
 1562              	.LBB38:
 425:Source\azure_iot_sdk\c-utility\src/map.c ****                 {
 426:Source\azure_iot_sdk\c-utility\src/map.c ****                     result = MAP_ERROR;
 427:Source\azure_iot_sdk\c-utility\src/map.c ****                     LOG_MAP_ERROR;
 1563              		.loc 1 427 0
 1564 00b2 FFF7FEFF 		bl	xlogging_get_log_function
 1565              	.LVL227:
 1566 00b6 041E     		subs	r4, r0, #0
 1567              	.LVL228:
 1568 00b8 20D0     		beq	.L104
 1569              		.loc 1 427 0 is_stmt 0 discriminator 4
 1570 00ba 0120     		movs	r0, #1
 1571              	.LVL229:
 1572 00bc FFF7FEFF 		bl	MAP_RESULTStrings
 1573              	.LVL230:
 1574 00c0 0290     		str	r0, [sp, #8]
 1575 00c2 104B     		ldr	r3, .L105
 1576 00c4 0193     		str	r3, [sp, #4]
 1577 00c6 0123     		movs	r3, #1
 1578 00c8 0093     		str	r3, [sp]
 1579 00ca AC23     		movs	r3, #172
 1580 00cc FF33     		adds	r3, r3, #255
 1581 00ce 0E4A     		ldr	r2, .L105+4
 1582 00d0 6832     		adds	r2, r2, #104
 1583 00d2 0E49     		ldr	r1, .L105+8
 1584 00d4 0020     		movs	r0, #0
 1585 00d6 A047     		blx	r4
 1586              	.LVL231:
 1587              	.LBE38:
 426:Source\azure_iot_sdk\c-utility\src/map.c ****                     LOG_MAP_ERROR;
 1588              		.loc 1 426 0 is_stmt 1 discriminator 4
 1589 00d8 0120     		movs	r0, #1
 1590 00da 10E0     		b	.L96
 1591              	.LVL232:
 1592              	.L99:
 428:Source\azure_iot_sdk\c-utility\src/map.c ****                 }
ARM GAS  C:\Users\Phuong\AppData\Local\Temp\cczAMJrc.s 			page 39


 429:Source\azure_iot_sdk\c-utility\src/map.c ****                 else
 430:Source\azure_iot_sdk\c-utility\src/map.c ****                 {
 431:Source\azure_iot_sdk\c-utility\src/map.c ****                     (void)memcpy(newValue, value, valueLength + 1);
 1593              		.loc 1 431 0
 1594 00dc 059A     		ldr	r2, [sp, #20]
 1595 00de 2900     		movs	r1, r5
 1596 00e0 FFF7FEFF 		bl	memcpy
 1597              	.LVL233:
 432:Source\azure_iot_sdk\c-utility\src/map.c ****                     handleData->values[index] = newValue;
 1598              		.loc 1 432 0
 1599 00e4 6368     		ldr	r3, [r4, #4]
 1600 00e6 9F51     		str	r7, [r3, r6]
 1601              	.LVL234:
 433:Source\azure_iot_sdk\c-utility\src/map.c ****                     /*Codes_SRS_MAP_02_019: [Otherwise, Map_AddOrUpdate shall return MAP_OK.] */
 434:Source\azure_iot_sdk\c-utility\src/map.c ****                     result = MAP_OK;
 1602              		.loc 1 434 0
 1603 00e8 0020     		movs	r0, #0
 1604 00ea 08E0     		b	.L96
 1605              	.LVL235:
 1606              	.L100:
 1607              	.LBE37:
 1608              	.LBE35:
 1609              	.LBE34:
 389:Source\azure_iot_sdk\c-utility\src/map.c ****         LOG_MAP_ERROR;
 1610              		.loc 1 389 0
 1611 00ec 0220     		movs	r0, #2
 1612              	.LVL236:
 1613 00ee 06E0     		b	.L96
 1614              	.LVL237:
 1615              	.L101:
 1616              	.LBB41:
 399:Source\azure_iot_sdk\c-utility\src/map.c ****         }
 1617              		.loc 1 399 0
 1618 00f0 0520     		movs	r0, #5
 1619 00f2 04E0     		b	.L96
 1620              	.L102:
 1621              	.LBB40:
 414:Source\azure_iot_sdk\c-utility\src/map.c ****                 }
 1622              		.loc 1 414 0
 1623 00f4 0020     		movs	r0, #0
 1624 00f6 02E0     		b	.L96
 1625              	.LVL238:
 1626              	.L103:
 409:Source\azure_iot_sdk\c-utility\src/map.c ****                     LOG_MAP_ERROR;
 1627              		.loc 1 409 0
 1628 00f8 0120     		movs	r0, #1
 1629              	.LVL239:
 1630 00fa 00E0     		b	.L96
 1631              	.LVL240:
 1632              	.L104:
 1633              	.LBB39:
 426:Source\azure_iot_sdk\c-utility\src/map.c ****                     LOG_MAP_ERROR;
 1634              		.loc 1 426 0
 1635 00fc 0120     		movs	r0, #1
 1636              	.LVL241:
 1637              	.L96:
 1638              	.LBE39:
ARM GAS  C:\Users\Phuong\AppData\Local\Temp\cczAMJrc.s 			page 40


 1639              	.LBE40:
 1640              	.LBE41:
 435:Source\azure_iot_sdk\c-utility\src/map.c ****                 }
 436:Source\azure_iot_sdk\c-utility\src/map.c ****             }
 437:Source\azure_iot_sdk\c-utility\src/map.c ****         }
 438:Source\azure_iot_sdk\c-utility\src/map.c ****     }
 439:Source\azure_iot_sdk\c-utility\src/map.c ****     return result;
 440:Source\azure_iot_sdk\c-utility\src/map.c **** }
 1641              		.loc 1 440 0
 1642 00fe 07B0     		add	sp, sp, #28
 1643              		@ sp needed
 1644              	.LVL242:
 1645 0100 F0BD     		pop	{r4, r5, r6, r7, pc}
 1646              	.L106:
 1647 0102 C046     		.align	2
 1648              	.L105:
 1649 0104 04010000 		.word	.LC28
 1650 0108 00000000 		.word	.LANCHOR0
 1651 010c 00000000 		.word	.LC1
 1652              		.cfi_endproc
 1653              	.LFE13:
 1654              		.size	Map_AddOrUpdate, .-Map_AddOrUpdate
 1655              		.section	.text.Map_Delete,"ax",%progbits
 1656              		.align	2
 1657              		.global	Map_Delete
 1658              		.code	16
 1659              		.thumb_func
 1660              		.type	Map_Delete, %function
 1661              	Map_Delete:
 1662              	.LFB14:
 441:Source\azure_iot_sdk\c-utility\src/map.c **** 
 442:Source\azure_iot_sdk\c-utility\src/map.c **** MAP_RESULT Map_Delete(MAP_HANDLE handle, const char* key)
 443:Source\azure_iot_sdk\c-utility\src/map.c **** {
 1663              		.loc 1 443 0
 1664              		.cfi_startproc
 1665              		@ args = 0, pretend = 0, frame = 0
 1666              		@ frame_needed = 0, uses_anonymous_args = 0
 1667              	.LVL243:
 1668 0000 F0B5     		push	{r4, r5, r6, r7, lr}
 1669              		.cfi_def_cfa_offset 20
 1670              		.cfi_offset 4, -20
 1671              		.cfi_offset 5, -16
 1672              		.cfi_offset 6, -12
 1673              		.cfi_offset 7, -8
 1674              		.cfi_offset 14, -4
 1675 0002 85B0     		sub	sp, sp, #20
 1676              		.cfi_def_cfa_offset 40
 1677 0004 041E     		subs	r4, r0, #0
 444:Source\azure_iot_sdk\c-utility\src/map.c ****     MAP_RESULT result;
 445:Source\azure_iot_sdk\c-utility\src/map.c ****     /*Codes_SRS_MAP_02_020: [If parameter handle is NULL then Map_Delete shall return MAP_INVALIDAR
 446:Source\azure_iot_sdk\c-utility\src/map.c ****     /*Codes_SRS_MAP_02_021: [If parameter key is NULL then Map_Delete shall return MAP_INVALIDARG.]
 447:Source\azure_iot_sdk\c-utility\src/map.c ****     if (
 1678              		.loc 1 447 0
 1679 0006 01D0     		beq	.L108
 448:Source\azure_iot_sdk\c-utility\src/map.c ****         (handle == NULL) ||
 1680              		.loc 1 448 0
 1681 0008 0029     		cmp	r1, #0
ARM GAS  C:\Users\Phuong\AppData\Local\Temp\cczAMJrc.s 			page 41


 1682 000a 14D1     		bne	.L109
 1683              	.L108:
 1684              	.LVL244:
 1685              	.LBB42:
 449:Source\azure_iot_sdk\c-utility\src/map.c ****         (key == NULL)
 450:Source\azure_iot_sdk\c-utility\src/map.c ****         )
 451:Source\azure_iot_sdk\c-utility\src/map.c ****     {
 452:Source\azure_iot_sdk\c-utility\src/map.c ****         result = MAP_INVALIDARG;
 453:Source\azure_iot_sdk\c-utility\src/map.c ****         LOG_MAP_ERROR;
 1686              		.loc 1 453 0
 1687 000c FFF7FEFF 		bl	xlogging_get_log_function
 1688              	.LVL245:
 1689 0010 041E     		subs	r4, r0, #0
 1690              	.LVL246:
 1691 0012 3BD0     		beq	.L111
 1692              		.loc 1 453 0 is_stmt 0 discriminator 4
 1693 0014 0220     		movs	r0, #2
 1694              	.LVL247:
 1695 0016 FFF7FEFF 		bl	MAP_RESULTStrings
 1696              	.LVL248:
 1697 001a 0290     		str	r0, [sp, #8]
 1698 001c 1E4B     		ldr	r3, .L113
 1699 001e 0193     		str	r3, [sp, #4]
 1700 0020 0123     		movs	r3, #1
 1701 0022 0093     		str	r3, [sp]
 1702 0024 C623     		movs	r3, #198
 1703 0026 FF33     		adds	r3, r3, #255
 1704 0028 1C4A     		ldr	r2, .L113+4
 1705 002a 7832     		adds	r2, r2, #120
 1706 002c 1C49     		ldr	r1, .L113+8
 1707 002e 0020     		movs	r0, #0
 1708 0030 A047     		blx	r4
 1709              	.LVL249:
 1710              	.LBE42:
 452:Source\azure_iot_sdk\c-utility\src/map.c ****         LOG_MAP_ERROR;
 1711              		.loc 1 452 0 is_stmt 1 discriminator 4
 1712 0032 0220     		movs	r0, #2
 1713 0034 2DE0     		b	.L110
 1714              	.LVL250:
 1715              	.L109:
 1716              	.LBB43:
 454:Source\azure_iot_sdk\c-utility\src/map.c ****     }
 455:Source\azure_iot_sdk\c-utility\src/map.c ****     else
 456:Source\azure_iot_sdk\c-utility\src/map.c ****     {
 457:Source\azure_iot_sdk\c-utility\src/map.c ****         MAP_HANDLE_DATA* handleData = (MAP_HANDLE_DATA*)handle;
 458:Source\azure_iot_sdk\c-utility\src/map.c ****         char** whereIsIt = findKey(handleData,key);
 1717              		.loc 1 458 0
 1718 0036 FFF7FEFF 		bl	findKey
 1719              	.LVL251:
 459:Source\azure_iot_sdk\c-utility\src/map.c ****         if (whereIsIt == NULL)
 1720              		.loc 1 459 0
 1721 003a 0028     		cmp	r0, #0
 1722 003c 28D0     		beq	.L112
 1723              	.LBB44:
 460:Source\azure_iot_sdk\c-utility\src/map.c ****         {
 461:Source\azure_iot_sdk\c-utility\src/map.c ****             /*Codes_SRS_MAP_02_022: [If key does not exist then Map_Delete shall return MAP_KEYNOTF
 462:Source\azure_iot_sdk\c-utility\src/map.c ****             result = MAP_KEYNOTFOUND;
ARM GAS  C:\Users\Phuong\AppData\Local\Temp\cczAMJrc.s 			page 42


 463:Source\azure_iot_sdk\c-utility\src/map.c ****         }
 464:Source\azure_iot_sdk\c-utility\src/map.c ****         else
 465:Source\azure_iot_sdk\c-utility\src/map.c ****         {
 466:Source\azure_iot_sdk\c-utility\src/map.c ****             /*Codes_SRS_MAP_02_023: [Otherwise, Map_Delete shall remove the key and its associated 
 467:Source\azure_iot_sdk\c-utility\src/map.c ****             size_t index = whereIsIt - handleData->keys;
 1724              		.loc 1 467 0
 1725 003e 2368     		ldr	r3, [r4]
 1726 0040 C51A     		subs	r5, r0, r3
 1727 0042 AF10     		asrs	r7, r5, #2
 1728              	.LVL252:
 468:Source\azure_iot_sdk\c-utility\src/map.c ****             free(handleData->keys[index]);
 1729              		.loc 1 468 0
 1730 0044 0068     		ldr	r0, [r0]
 1731              	.LVL253:
 1732 0046 FFF7FEFF 		bl	free
 1733              	.LVL254:
 469:Source\azure_iot_sdk\c-utility\src/map.c ****             free(handleData->values[index]);
 1734              		.loc 1 469 0
 1735 004a 6368     		ldr	r3, [r4, #4]
 1736 004c 5859     		ldr	r0, [r3, r5]
 1737 004e FFF7FEFF 		bl	free
 1738              	.LVL255:
 470:Source\azure_iot_sdk\c-utility\src/map.c ****             memmove(handleData->keys + index, handleData->keys + index + 1, (handleData->count - in
 1739              		.loc 1 470 0
 1740 0052 2068     		ldr	r0, [r4]
 1741 0054 7E1C     		adds	r6, r7, #1
 1742 0056 B600     		lsls	r6, r6, #2
 1743 0058 8119     		adds	r1, r0, r6
 1744 005a A368     		ldr	r3, [r4, #8]
 1745 005c DA1B     		subs	r2, r3, r7
 1746 005e 114B     		ldr	r3, .L113+12
 1747 0060 9C46     		mov	ip, r3
 1748 0062 6244     		add	r2, r2, ip
 1749 0064 9200     		lsls	r2, r2, #2
 1750 0066 4019     		adds	r0, r0, r5
 1751 0068 FFF7FEFF 		bl	memmove
 1752              	.LVL256:
 471:Source\azure_iot_sdk\c-utility\src/map.c ****             memmove(handleData->values + index, handleData->values + index + 1, (handleData->count 
 1753              		.loc 1 471 0
 1754 006c 6068     		ldr	r0, [r4, #4]
 1755 006e 8119     		adds	r1, r0, r6
 1756 0070 A368     		ldr	r3, [r4, #8]
 1757 0072 DA1B     		subs	r2, r3, r7
 1758 0074 0B4B     		ldr	r3, .L113+12
 1759 0076 9C46     		mov	ip, r3
 1760 0078 6244     		add	r2, r2, ip
 1761 007a 9200     		lsls	r2, r2, #2
 1762 007c 4019     		adds	r0, r0, r5
 1763 007e FFF7FEFF 		bl	memmove
 1764              	.LVL257:
 472:Source\azure_iot_sdk\c-utility\src/map.c ****             Map_DecreaseStorageKeysValues(handleData);
 1765              		.loc 1 472 0
 1766 0082 2000     		movs	r0, r4
 1767 0084 FFF7FEFF 		bl	Map_DecreaseStorageKeysValues
 1768              	.LVL258:
 473:Source\azure_iot_sdk\c-utility\src/map.c ****             result = MAP_OK;
 1769              		.loc 1 473 0
ARM GAS  C:\Users\Phuong\AppData\Local\Temp\cczAMJrc.s 			page 43


 1770 0088 0020     		movs	r0, #0
 1771 008a 02E0     		b	.L110
 1772              	.LVL259:
 1773              	.L111:
 1774              	.LBE44:
 1775              	.LBE43:
 452:Source\azure_iot_sdk\c-utility\src/map.c ****         LOG_MAP_ERROR;
 1776              		.loc 1 452 0
 1777 008c 0220     		movs	r0, #2
 1778              	.LVL260:
 1779 008e 00E0     		b	.L110
 1780              	.LVL261:
 1781              	.L112:
 1782              	.LBB45:
 462:Source\azure_iot_sdk\c-utility\src/map.c ****         }
 1783              		.loc 1 462 0
 1784 0090 0420     		movs	r0, #4
 1785              	.LVL262:
 1786              	.L110:
 1787              	.LBE45:
 474:Source\azure_iot_sdk\c-utility\src/map.c ****         }
 475:Source\azure_iot_sdk\c-utility\src/map.c **** 
 476:Source\azure_iot_sdk\c-utility\src/map.c ****     }
 477:Source\azure_iot_sdk\c-utility\src/map.c ****     return result;
 478:Source\azure_iot_sdk\c-utility\src/map.c **** }
 1788              		.loc 1 478 0
 1789 0092 05B0     		add	sp, sp, #20
 1790              		@ sp needed
 1791 0094 F0BD     		pop	{r4, r5, r6, r7, pc}
 1792              	.L114:
 1793 0096 C046     		.align	2
 1794              	.L113:
 1795 0098 04010000 		.word	.LC28
 1796 009c 00000000 		.word	.LANCHOR0
 1797 00a0 00000000 		.word	.LC1
 1798 00a4 FFFFFF3F 		.word	1073741823
 1799              		.cfi_endproc
 1800              	.LFE14:
 1801              		.size	Map_Delete, .-Map_Delete
 1802              		.section	.text.Map_ContainsKey,"ax",%progbits
 1803              		.align	2
 1804              		.global	Map_ContainsKey
 1805              		.code	16
 1806              		.thumb_func
 1807              		.type	Map_ContainsKey, %function
 1808              	Map_ContainsKey:
 1809              	.LFB15:
 479:Source\azure_iot_sdk\c-utility\src/map.c **** 
 480:Source\azure_iot_sdk\c-utility\src/map.c **** MAP_RESULT Map_ContainsKey(MAP_HANDLE handle, const char* key, bool* keyExists)
 481:Source\azure_iot_sdk\c-utility\src/map.c **** {
 1810              		.loc 1 481 0
 1811              		.cfi_startproc
 1812              		@ args = 0, pretend = 0, frame = 0
 1813              		@ frame_needed = 0, uses_anonymous_args = 0
 1814              	.LVL263:
 1815 0000 10B5     		push	{r4, lr}
 1816              		.cfi_def_cfa_offset 8
ARM GAS  C:\Users\Phuong\AppData\Local\Temp\cczAMJrc.s 			page 44


 1817              		.cfi_offset 4, -8
 1818              		.cfi_offset 14, -4
 1819 0002 84B0     		sub	sp, sp, #16
 1820              		.cfi_def_cfa_offset 24
 1821 0004 1400     		movs	r4, r2
 482:Source\azure_iot_sdk\c-utility\src/map.c ****     MAP_RESULT result;
 483:Source\azure_iot_sdk\c-utility\src/map.c ****     /*Codes_SRS_MAP_02_024: [If parameter handle, key or keyExists are NULL then Map_ContainsKey sh
 484:Source\azure_iot_sdk\c-utility\src/map.c ****     if (
 1822              		.loc 1 484 0
 1823 0006 0028     		cmp	r0, #0
 1824 0008 03D0     		beq	.L116
 485:Source\azure_iot_sdk\c-utility\src/map.c ****         (handle ==NULL) ||
 1825              		.loc 1 485 0
 1826 000a 0029     		cmp	r1, #0
 1827 000c 01D0     		beq	.L116
 486:Source\azure_iot_sdk\c-utility\src/map.c ****         (key == NULL) ||
 1828              		.loc 1 486 0
 1829 000e 002A     		cmp	r2, #0
 1830 0010 14D1     		bne	.L117
 1831              	.L116:
 1832              	.LVL264:
 1833              	.LBB46:
 487:Source\azure_iot_sdk\c-utility\src/map.c ****         (keyExists == NULL)
 488:Source\azure_iot_sdk\c-utility\src/map.c ****         )
 489:Source\azure_iot_sdk\c-utility\src/map.c ****     {
 490:Source\azure_iot_sdk\c-utility\src/map.c ****         result = MAP_INVALIDARG;
 491:Source\azure_iot_sdk\c-utility\src/map.c ****         LOG_MAP_ERROR;
 1834              		.loc 1 491 0
 1835 0012 FFF7FEFF 		bl	xlogging_get_log_function
 1836              	.LVL265:
 1837 0016 041E     		subs	r4, r0, #0
 1838              	.LVL266:
 1839 0018 17D0     		beq	.L119
 1840              		.loc 1 491 0 is_stmt 0 discriminator 4
 1841 001a 0220     		movs	r0, #2
 1842              	.LVL267:
 1843 001c FFF7FEFF 		bl	MAP_RESULTStrings
 1844              	.LVL268:
 1845 0020 0290     		str	r0, [sp, #8]
 1846 0022 0B4B     		ldr	r3, .L120
 1847 0024 0193     		str	r3, [sp, #4]
 1848 0026 0123     		movs	r3, #1
 1849 0028 0093     		str	r3, [sp]
 1850 002a EC23     		movs	r3, #236
 1851 002c FF33     		adds	r3, r3, #255
 1852 002e 094A     		ldr	r2, .L120+4
 1853 0030 0432     		adds	r2, r2, #4
 1854 0032 0949     		ldr	r1, .L120+8
 1855 0034 0020     		movs	r0, #0
 1856 0036 A047     		blx	r4
 1857              	.LVL269:
 1858              	.LBE46:
 490:Source\azure_iot_sdk\c-utility\src/map.c ****         LOG_MAP_ERROR;
 1859              		.loc 1 490 0 is_stmt 1 discriminator 4
 1860 0038 0220     		movs	r0, #2
 1861 003a 07E0     		b	.L118
 1862              	.LVL270:
ARM GAS  C:\Users\Phuong\AppData\Local\Temp\cczAMJrc.s 			page 45


 1863              	.L117:
 1864              	.LBB47:
 492:Source\azure_iot_sdk\c-utility\src/map.c ****     }
 493:Source\azure_iot_sdk\c-utility\src/map.c ****     else
 494:Source\azure_iot_sdk\c-utility\src/map.c ****     {
 495:Source\azure_iot_sdk\c-utility\src/map.c ****         MAP_HANDLE_DATA* handleData = (MAP_HANDLE_DATA*)handle;
 496:Source\azure_iot_sdk\c-utility\src/map.c ****         /*Codes_SRS_MAP_02_025: [Otherwise if a key exists then Map_ContainsKey shall return MAP_OK
 497:Source\azure_iot_sdk\c-utility\src/map.c ****         /*Codes_SRS_MAP_02_026: [If a key doesn't exist, then Map_ContainsKey shall return MAP_OK a
 498:Source\azure_iot_sdk\c-utility\src/map.c ****         *keyExists = (findKey(handleData, key) != NULL) ? true: false;
 1865              		.loc 1 498 0
 1866 003c FFF7FEFF 		bl	findKey
 1867              	.LVL271:
 1868 0040 431E     		subs	r3, r0, #1
 1869 0042 9841     		sbcs	r0, r0, r3
 1870 0044 2070     		strb	r0, [r4]
 1871              	.LVL272:
 499:Source\azure_iot_sdk\c-utility\src/map.c ****         result = MAP_OK;
 1872              		.loc 1 499 0
 1873 0046 0020     		movs	r0, #0
 1874 0048 00E0     		b	.L118
 1875              	.LVL273:
 1876              	.L119:
 1877              	.LBE47:
 490:Source\azure_iot_sdk\c-utility\src/map.c ****         LOG_MAP_ERROR;
 1878              		.loc 1 490 0
 1879 004a 0220     		movs	r0, #2
 1880              	.LVL274:
 1881              	.L118:
 500:Source\azure_iot_sdk\c-utility\src/map.c ****     }
 501:Source\azure_iot_sdk\c-utility\src/map.c ****     return result;
 502:Source\azure_iot_sdk\c-utility\src/map.c **** }
 1882              		.loc 1 502 0
 1883 004c 04B0     		add	sp, sp, #16
 1884              		@ sp needed
 1885 004e 10BD     		pop	{r4, pc}
 1886              	.L121:
 1887              		.align	2
 1888              	.L120:
 1889 0050 04010000 		.word	.LC28
 1890 0054 80000000 		.word	.LANCHOR2
 1891 0058 00000000 		.word	.LC1
 1892              		.cfi_endproc
 1893              	.LFE15:
 1894              		.size	Map_ContainsKey, .-Map_ContainsKey
 1895              		.section	.text.Map_ContainsValue,"ax",%progbits
 1896              		.align	2
 1897              		.global	Map_ContainsValue
 1898              		.code	16
 1899              		.thumb_func
 1900              		.type	Map_ContainsValue, %function
 1901              	Map_ContainsValue:
 1902              	.LFB16:
 503:Source\azure_iot_sdk\c-utility\src/map.c **** 
 504:Source\azure_iot_sdk\c-utility\src/map.c **** MAP_RESULT Map_ContainsValue(MAP_HANDLE handle, const char* value, bool* valueExists)
 505:Source\azure_iot_sdk\c-utility\src/map.c **** {
 1903              		.loc 1 505 0
 1904              		.cfi_startproc
ARM GAS  C:\Users\Phuong\AppData\Local\Temp\cczAMJrc.s 			page 46


 1905              		@ args = 0, pretend = 0, frame = 0
 1906              		@ frame_needed = 0, uses_anonymous_args = 0
 1907              	.LVL275:
 1908 0000 10B5     		push	{r4, lr}
 1909              		.cfi_def_cfa_offset 8
 1910              		.cfi_offset 4, -8
 1911              		.cfi_offset 14, -4
 1912 0002 84B0     		sub	sp, sp, #16
 1913              		.cfi_def_cfa_offset 24
 1914 0004 1400     		movs	r4, r2
 506:Source\azure_iot_sdk\c-utility\src/map.c ****     MAP_RESULT result;
 507:Source\azure_iot_sdk\c-utility\src/map.c ****     /*Codes_SRS_MAP_02_027: [If parameter handle, value or valueExists is NULL then Map_ContainsVal
 508:Source\azure_iot_sdk\c-utility\src/map.c ****     if (
 1915              		.loc 1 508 0
 1916 0006 0028     		cmp	r0, #0
 1917 0008 03D0     		beq	.L123
 509:Source\azure_iot_sdk\c-utility\src/map.c ****         (handle == NULL) ||
 1918              		.loc 1 509 0
 1919 000a 0029     		cmp	r1, #0
 1920 000c 01D0     		beq	.L123
 510:Source\azure_iot_sdk\c-utility\src/map.c ****         (value == NULL) ||
 1921              		.loc 1 510 0
 1922 000e 002A     		cmp	r2, #0
 1923 0010 13D1     		bne	.L124
 1924              	.L123:
 1925              	.LVL276:
 1926              	.LBB48:
 511:Source\azure_iot_sdk\c-utility\src/map.c ****         (valueExists == NULL)
 512:Source\azure_iot_sdk\c-utility\src/map.c ****         )
 513:Source\azure_iot_sdk\c-utility\src/map.c ****     {
 514:Source\azure_iot_sdk\c-utility\src/map.c ****         result = MAP_INVALIDARG;
 515:Source\azure_iot_sdk\c-utility\src/map.c ****         LOG_MAP_ERROR;
 1927              		.loc 1 515 0
 1928 0012 FFF7FEFF 		bl	xlogging_get_log_function
 1929              	.LVL277:
 1930 0016 041E     		subs	r4, r0, #0
 1931              	.LVL278:
 1932 0018 16D0     		beq	.L126
 1933              		.loc 1 515 0 is_stmt 0 discriminator 4
 1934 001a 0220     		movs	r0, #2
 1935              	.LVL279:
 1936 001c FFF7FEFF 		bl	MAP_RESULTStrings
 1937              	.LVL280:
 1938 0020 0290     		str	r0, [sp, #8]
 1939 0022 0B4B     		ldr	r3, .L127
 1940 0024 0193     		str	r3, [sp, #4]
 1941 0026 0123     		movs	r3, #1
 1942 0028 0093     		str	r3, [sp]
 1943 002a 0A4B     		ldr	r3, .L127+4
 1944 002c 0A4A     		ldr	r2, .L127+8
 1945 002e 1432     		adds	r2, r2, #20
 1946 0030 0A49     		ldr	r1, .L127+12
 1947 0032 0020     		movs	r0, #0
 1948 0034 A047     		blx	r4
 1949              	.LVL281:
 1950              	.LBE48:
 514:Source\azure_iot_sdk\c-utility\src/map.c ****         LOG_MAP_ERROR;
ARM GAS  C:\Users\Phuong\AppData\Local\Temp\cczAMJrc.s 			page 47


 1951              		.loc 1 514 0 is_stmt 1 discriminator 4
 1952 0036 0220     		movs	r0, #2
 1953 0038 07E0     		b	.L125
 1954              	.LVL282:
 1955              	.L124:
 1956              	.LBB49:
 516:Source\azure_iot_sdk\c-utility\src/map.c ****     }
 517:Source\azure_iot_sdk\c-utility\src/map.c ****     else
 518:Source\azure_iot_sdk\c-utility\src/map.c ****     {
 519:Source\azure_iot_sdk\c-utility\src/map.c ****         MAP_HANDLE_DATA* handleData = (MAP_HANDLE_DATA*)handle;
 520:Source\azure_iot_sdk\c-utility\src/map.c ****         /*Codes_SRS_MAP_02_028: [Otherwise, if a pair <key, value> has its value equal to the param
 521:Source\azure_iot_sdk\c-utility\src/map.c ****         /*Codes_SRS_MAP_02_029: [Otherwise, if such a <key, value> does not exist, then Map_Contain
 522:Source\azure_iot_sdk\c-utility\src/map.c ****         *valueExists = (findValue(handleData, value) != NULL) ? true : false;
 1957              		.loc 1 522 0
 1958 003a FFF7FEFF 		bl	findValue
 1959              	.LVL283:
 1960 003e 431E     		subs	r3, r0, #1
 1961 0040 9841     		sbcs	r0, r0, r3
 1962 0042 2070     		strb	r0, [r4]
 1963              	.LVL284:
 523:Source\azure_iot_sdk\c-utility\src/map.c ****         result = MAP_OK;
 1964              		.loc 1 523 0
 1965 0044 0020     		movs	r0, #0
 1966 0046 00E0     		b	.L125
 1967              	.LVL285:
 1968              	.L126:
 1969              	.LBE49:
 514:Source\azure_iot_sdk\c-utility\src/map.c ****         LOG_MAP_ERROR;
 1970              		.loc 1 514 0
 1971 0048 0220     		movs	r0, #2
 1972              	.LVL286:
 1973              	.L125:
 524:Source\azure_iot_sdk\c-utility\src/map.c ****     }
 525:Source\azure_iot_sdk\c-utility\src/map.c ****     return result;
 526:Source\azure_iot_sdk\c-utility\src/map.c **** }
 1974              		.loc 1 526 0
 1975 004a 04B0     		add	sp, sp, #16
 1976              		@ sp needed
 1977 004c 10BD     		pop	{r4, pc}
 1978              	.L128:
 1979 004e C046     		.align	2
 1980              	.L127:
 1981 0050 04010000 		.word	.LC28
 1982 0054 03020000 		.word	515
 1983 0058 80000000 		.word	.LANCHOR2
 1984 005c 00000000 		.word	.LC1
 1985              		.cfi_endproc
 1986              	.LFE16:
 1987              		.size	Map_ContainsValue, .-Map_ContainsValue
 1988              		.section	.text.Map_GetValueFromKey,"ax",%progbits
 1989              		.align	2
 1990              		.global	Map_GetValueFromKey
 1991              		.code	16
 1992              		.thumb_func
 1993              		.type	Map_GetValueFromKey, %function
 1994              	Map_GetValueFromKey:
 1995              	.LFB17:
ARM GAS  C:\Users\Phuong\AppData\Local\Temp\cczAMJrc.s 			page 48


 527:Source\azure_iot_sdk\c-utility\src/map.c **** 
 528:Source\azure_iot_sdk\c-utility\src/map.c **** const char* Map_GetValueFromKey(MAP_HANDLE handle, const char* key)
 529:Source\azure_iot_sdk\c-utility\src/map.c **** {
 1996              		.loc 1 529 0
 1997              		.cfi_startproc
 1998              		@ args = 0, pretend = 0, frame = 0
 1999              		@ frame_needed = 0, uses_anonymous_args = 0
 2000              	.LVL287:
 2001 0000 10B5     		push	{r4, lr}
 2002              		.cfi_def_cfa_offset 8
 2003              		.cfi_offset 4, -8
 2004              		.cfi_offset 14, -4
 2005 0002 82B0     		sub	sp, sp, #8
 2006              		.cfi_def_cfa_offset 16
 2007 0004 041E     		subs	r4, r0, #0
 530:Source\azure_iot_sdk\c-utility\src/map.c ****     const char* result;
 531:Source\azure_iot_sdk\c-utility\src/map.c ****     /*Codes_SRS_MAP_02_040: [If parameter handle or key is NULL then Map_GetValueFromKey returns NU
 532:Source\azure_iot_sdk\c-utility\src/map.c ****     if (
 2008              		.loc 1 532 0
 2009 0006 01D0     		beq	.L130
 533:Source\azure_iot_sdk\c-utility\src/map.c ****         (handle == NULL) ||
 2010              		.loc 1 533 0
 2011 0008 0029     		cmp	r1, #0
 2012 000a 0FD1     		bne	.L131
 2013              	.L130:
 2014              	.LVL288:
 2015              	.LBB50:
 534:Source\azure_iot_sdk\c-utility\src/map.c ****         (key == NULL)
 535:Source\azure_iot_sdk\c-utility\src/map.c ****         )
 536:Source\azure_iot_sdk\c-utility\src/map.c ****     {
 537:Source\azure_iot_sdk\c-utility\src/map.c ****         result = NULL;
 538:Source\azure_iot_sdk\c-utility\src/map.c ****         LogError("invalid parameter to Map_GetValueFromKey");
 2016              		.loc 1 538 0
 2017 000c FFF7FEFF 		bl	xlogging_get_log_function
 2018              	.LVL289:
 2019 0010 041E     		subs	r4, r0, #0
 2020              	.LVL290:
 2021 0012 14D0     		beq	.L133
 2022              		.loc 1 538 0 is_stmt 0 discriminator 4
 2023 0014 0C4B     		ldr	r3, .L135
 2024 0016 0193     		str	r3, [sp, #4]
 2025 0018 0123     		movs	r3, #1
 2026 001a 0093     		str	r3, [sp]
 2027 001c 0B4B     		ldr	r3, .L135+4
 2028 001e 0C4A     		ldr	r2, .L135+8
 2029 0020 2832     		adds	r2, r2, #40
 2030 0022 0C49     		ldr	r1, .L135+12
 2031 0024 0020     		movs	r0, #0
 2032              	.LVL291:
 2033 0026 A047     		blx	r4
 2034              	.LVL292:
 2035              	.LBE50:
 537:Source\azure_iot_sdk\c-utility\src/map.c ****         LogError("invalid parameter to Map_GetValueFromKey");
 2036              		.loc 1 537 0 is_stmt 1 discriminator 4
 2037 0028 0020     		movs	r0, #0
 2038 002a 0BE0     		b	.L132
 2039              	.LVL293:
ARM GAS  C:\Users\Phuong\AppData\Local\Temp\cczAMJrc.s 			page 49


 2040              	.L131:
 2041              	.LBB51:
 539:Source\azure_iot_sdk\c-utility\src/map.c ****     }
 540:Source\azure_iot_sdk\c-utility\src/map.c ****     else
 541:Source\azure_iot_sdk\c-utility\src/map.c ****     {
 542:Source\azure_iot_sdk\c-utility\src/map.c ****         MAP_HANDLE_DATA * handleData = (MAP_HANDLE_DATA *)handle;
 543:Source\azure_iot_sdk\c-utility\src/map.c ****         char** whereIsIt = findKey(handleData, key);
 2042              		.loc 1 543 0
 2043 002c FFF7FEFF 		bl	findKey
 2044              	.LVL294:
 544:Source\azure_iot_sdk\c-utility\src/map.c ****         if(whereIsIt == NULL)
 2045              		.loc 1 544 0
 2046 0030 0028     		cmp	r0, #0
 2047 0032 06D0     		beq	.L134
 2048              	.LBB52:
 545:Source\azure_iot_sdk\c-utility\src/map.c ****         {
 546:Source\azure_iot_sdk\c-utility\src/map.c ****             /*Codes_SRS_MAP_02_041: [If the key is not found, then Map_GetValueFromKey returns NULL
 547:Source\azure_iot_sdk\c-utility\src/map.c ****             result = NULL;
 548:Source\azure_iot_sdk\c-utility\src/map.c ****         }
 549:Source\azure_iot_sdk\c-utility\src/map.c ****         else
 550:Source\azure_iot_sdk\c-utility\src/map.c ****         {
 551:Source\azure_iot_sdk\c-utility\src/map.c ****             /*Codes_SRS_MAP_02_042: [Otherwise, Map_GetValueFromKey returns the key's value.] */
 552:Source\azure_iot_sdk\c-utility\src/map.c ****             size_t index = whereIsIt - handleData->keys;
 2049              		.loc 1 552 0
 2050 0034 2368     		ldr	r3, [r4]
 2051 0036 C01A     		subs	r0, r0, r3
 2052              	.LVL295:
 553:Source\azure_iot_sdk\c-utility\src/map.c ****             result = handleData->values[index];
 2053              		.loc 1 553 0
 2054 0038 6368     		ldr	r3, [r4, #4]
 2055 003a 1858     		ldr	r0, [r3, r0]
 2056              	.LVL296:
 2057 003c 02E0     		b	.L132
 2058              	.LVL297:
 2059              	.L133:
 2060              	.LBE52:
 2061              	.LBE51:
 537:Source\azure_iot_sdk\c-utility\src/map.c ****         LogError("invalid parameter to Map_GetValueFromKey");
 2062              		.loc 1 537 0
 2063 003e 0020     		movs	r0, #0
 2064              	.LVL298:
 2065 0040 00E0     		b	.L132
 2066              	.LVL299:
 2067              	.L134:
 2068              	.LBB53:
 547:Source\azure_iot_sdk\c-utility\src/map.c ****         }
 2069              		.loc 1 547 0
 2070 0042 0020     		movs	r0, #0
 2071              	.LVL300:
 2072              	.L132:
 2073              	.LBE53:
 554:Source\azure_iot_sdk\c-utility\src/map.c ****         }
 555:Source\azure_iot_sdk\c-utility\src/map.c ****     }
 556:Source\azure_iot_sdk\c-utility\src/map.c ****     return result;
 557:Source\azure_iot_sdk\c-utility\src/map.c **** }
 2074              		.loc 1 557 0
 2075 0044 02B0     		add	sp, sp, #8
ARM GAS  C:\Users\Phuong\AppData\Local\Temp\cczAMJrc.s 			page 50


 2076              		@ sp needed
 2077 0046 10BD     		pop	{r4, pc}
 2078              	.L136:
 2079              		.align	2
 2080              	.L135:
 2081 0048 10010000 		.word	.LC44
 2082 004c 1A020000 		.word	538
 2083 0050 80000000 		.word	.LANCHOR2
 2084 0054 00000000 		.word	.LC1
 2085              		.cfi_endproc
 2086              	.LFE17:
 2087              		.size	Map_GetValueFromKey, .-Map_GetValueFromKey
 2088              		.section	.text.Map_GetInternals,"ax",%progbits
 2089              		.align	2
 2090              		.global	Map_GetInternals
 2091              		.code	16
 2092              		.thumb_func
 2093              		.type	Map_GetInternals, %function
 2094              	Map_GetInternals:
 2095              	.LFB18:
 558:Source\azure_iot_sdk\c-utility\src/map.c **** 
 559:Source\azure_iot_sdk\c-utility\src/map.c **** MAP_RESULT Map_GetInternals(MAP_HANDLE handle, const char*const** keys, const char*const** values, 
 560:Source\azure_iot_sdk\c-utility\src/map.c **** {
 2096              		.loc 1 560 0
 2097              		.cfi_startproc
 2098              		@ args = 0, pretend = 0, frame = 0
 2099              		@ frame_needed = 0, uses_anonymous_args = 0
 2100              	.LVL301:
 2101 0000 10B5     		push	{r4, lr}
 2102              		.cfi_def_cfa_offset 8
 2103              		.cfi_offset 4, -8
 2104              		.cfi_offset 14, -4
 2105 0002 84B0     		sub	sp, sp, #16
 2106              		.cfi_def_cfa_offset 24
 561:Source\azure_iot_sdk\c-utility\src/map.c ****     MAP_RESULT result;
 562:Source\azure_iot_sdk\c-utility\src/map.c ****     /*Codes_SRS_MAP_02_046: [If parameter handle, keys, values or count is NULL then Map_GetInterna
 563:Source\azure_iot_sdk\c-utility\src/map.c ****     if (
 2107              		.loc 1 563 0
 2108 0004 0028     		cmp	r0, #0
 2109 0006 05D0     		beq	.L138
 564:Source\azure_iot_sdk\c-utility\src/map.c ****         (handle == NULL) ||
 2110              		.loc 1 564 0
 2111 0008 0029     		cmp	r1, #0
 2112 000a 03D0     		beq	.L138
 565:Source\azure_iot_sdk\c-utility\src/map.c ****         (keys == NULL) ||
 2113              		.loc 1 565 0
 2114 000c 002A     		cmp	r2, #0
 2115 000e 01D0     		beq	.L138
 566:Source\azure_iot_sdk\c-utility\src/map.c ****         (values == NULL) ||
 2116              		.loc 1 566 0
 2117 0010 002B     		cmp	r3, #0
 2118 0012 13D1     		bne	.L139
 2119              	.L138:
 2120              	.LVL302:
 2121              	.LBB54:
 567:Source\azure_iot_sdk\c-utility\src/map.c ****         (count == NULL)
 568:Source\azure_iot_sdk\c-utility\src/map.c ****         )
ARM GAS  C:\Users\Phuong\AppData\Local\Temp\cczAMJrc.s 			page 51


 569:Source\azure_iot_sdk\c-utility\src/map.c ****     {
 570:Source\azure_iot_sdk\c-utility\src/map.c ****         result = MAP_INVALIDARG;
 571:Source\azure_iot_sdk\c-utility\src/map.c ****         LOG_MAP_ERROR;
 2122              		.loc 1 571 0
 2123 0014 FFF7FEFF 		bl	xlogging_get_log_function
 2124              	.LVL303:
 2125 0018 041E     		subs	r4, r0, #0
 2126              	.LVL304:
 2127 001a 17D0     		beq	.L141
 2128              		.loc 1 571 0 is_stmt 0 discriminator 4
 2129 001c 0220     		movs	r0, #2
 2130              	.LVL305:
 2131 001e FFF7FEFF 		bl	MAP_RESULTStrings
 2132              	.LVL306:
 2133 0022 0290     		str	r0, [sp, #8]
 2134 0024 0B4B     		ldr	r3, .L142
 2135 0026 0193     		str	r3, [sp, #4]
 2136 0028 0123     		movs	r3, #1
 2137 002a 0093     		str	r3, [sp]
 2138 002c 0A4B     		ldr	r3, .L142+4
 2139 002e 0B4A     		ldr	r2, .L142+8
 2140 0030 3C32     		adds	r2, r2, #60
 2141 0032 0B49     		ldr	r1, .L142+12
 2142 0034 0020     		movs	r0, #0
 2143 0036 A047     		blx	r4
 2144              	.LVL307:
 2145              	.LBE54:
 570:Source\azure_iot_sdk\c-utility\src/map.c ****         LOG_MAP_ERROR;
 2146              		.loc 1 570 0 is_stmt 1 discriminator 4
 2147 0038 0220     		movs	r0, #2
 2148 003a 08E0     		b	.L140
 2149              	.LVL308:
 2150              	.L139:
 2151              	.LBB55:
 572:Source\azure_iot_sdk\c-utility\src/map.c ****     }
 573:Source\azure_iot_sdk\c-utility\src/map.c ****     else
 574:Source\azure_iot_sdk\c-utility\src/map.c ****     {
 575:Source\azure_iot_sdk\c-utility\src/map.c ****         /*Codes_SRS_MAP_02_043: [Map_GetInternals shall produce in *keys an pointer to an array of 
 576:Source\azure_iot_sdk\c-utility\src/map.c ****         /*Codes_SRS_MAP_02_044: [Map_GetInternals shall produce in *values a pointer to an array of
 577:Source\azure_iot_sdk\c-utility\src/map.c ****         /*Codes_SRS_MAP_02_045: [  Map_GetInternals shall produce in *count the number of stored ke
 578:Source\azure_iot_sdk\c-utility\src/map.c ****         MAP_HANDLE_DATA * handleData = (MAP_HANDLE_DATA *)handle;
 579:Source\azure_iot_sdk\c-utility\src/map.c ****         *keys =(const char* const*)(handleData->keys);
 2152              		.loc 1 579 0
 2153 003c 0468     		ldr	r4, [r0]
 2154 003e 0C60     		str	r4, [r1]
 580:Source\azure_iot_sdk\c-utility\src/map.c ****         *values = (const char* const*)(handleData->values);
 2155              		.loc 1 580 0
 2156 0040 4168     		ldr	r1, [r0, #4]
 2157              	.LVL309:
 2158 0042 1160     		str	r1, [r2]
 581:Source\azure_iot_sdk\c-utility\src/map.c ****         *count = handleData->count;
 2159              		.loc 1 581 0
 2160 0044 8268     		ldr	r2, [r0, #8]
 2161              	.LVL310:
 2162 0046 1A60     		str	r2, [r3]
 2163              	.LVL311:
 582:Source\azure_iot_sdk\c-utility\src/map.c ****         result = MAP_OK;
ARM GAS  C:\Users\Phuong\AppData\Local\Temp\cczAMJrc.s 			page 52


 2164              		.loc 1 582 0
 2165 0048 0020     		movs	r0, #0
 2166              	.LVL312:
 2167 004a 00E0     		b	.L140
 2168              	.LVL313:
 2169              	.L141:
 2170              	.LBE55:
 570:Source\azure_iot_sdk\c-utility\src/map.c ****         LOG_MAP_ERROR;
 2171              		.loc 1 570 0
 2172 004c 0220     		movs	r0, #2
 2173              	.LVL314:
 2174              	.L140:
 583:Source\azure_iot_sdk\c-utility\src/map.c ****     }
 584:Source\azure_iot_sdk\c-utility\src/map.c ****     return result;
 585:Source\azure_iot_sdk\c-utility\src/map.c **** }
 2175              		.loc 1 585 0
 2176 004e 04B0     		add	sp, sp, #16
 2177              		@ sp needed
 2178 0050 10BD     		pop	{r4, pc}
 2179              	.L143:
 2180 0052 C046     		.align	2
 2181              	.L142:
 2182 0054 04010000 		.word	.LC28
 2183 0058 3B020000 		.word	571
 2184 005c 80000000 		.word	.LANCHOR2
 2185 0060 00000000 		.word	.LC1
 2186              		.cfi_endproc
 2187              	.LFE18:
 2188              		.size	Map_GetInternals, .-Map_GetInternals
 2189              		.section	.text.Map_ToJSON,"ax",%progbits
 2190              		.align	2
 2191              		.global	Map_ToJSON
 2192              		.code	16
 2193              		.thumb_func
 2194              		.type	Map_ToJSON, %function
 2195              	Map_ToJSON:
 2196              	.LFB19:
 586:Source\azure_iot_sdk\c-utility\src/map.c **** 
 587:Source\azure_iot_sdk\c-utility\src/map.c **** STRING_HANDLE Map_ToJSON(MAP_HANDLE handle)
 588:Source\azure_iot_sdk\c-utility\src/map.c **** {
 2197              		.loc 1 588 0
 2198              		.cfi_startproc
 2199              		@ args = 0, pretend = 0, frame = 8
 2200              		@ frame_needed = 0, uses_anonymous_args = 0
 2201              	.LVL315:
 2202 0000 F0B5     		push	{r4, r5, r6, r7, lr}
 2203              		.cfi_def_cfa_offset 20
 2204              		.cfi_offset 4, -20
 2205              		.cfi_offset 5, -16
 2206              		.cfi_offset 6, -12
 2207              		.cfi_offset 7, -8
 2208              		.cfi_offset 14, -4
 2209 0002 85B0     		sub	sp, sp, #20
 2210              		.cfi_def_cfa_offset 40
 2211 0004 061E     		subs	r6, r0, #0
 589:Source\azure_iot_sdk\c-utility\src/map.c ****     STRING_HANDLE result;
 590:Source\azure_iot_sdk\c-utility\src/map.c ****     /*Codes_SRS_MAP_02_052: [If parameter handle is NULL then Map_ToJSON shall return NULL.] */
ARM GAS  C:\Users\Phuong\AppData\Local\Temp\cczAMJrc.s 			page 53


 591:Source\azure_iot_sdk\c-utility\src/map.c ****     if (handle == NULL)
 2212              		.loc 1 591 0
 2213 0006 11D1     		bne	.L145
 2214              	.LVL316:
 2215              	.LBB56:
 592:Source\azure_iot_sdk\c-utility\src/map.c ****     {
 593:Source\azure_iot_sdk\c-utility\src/map.c ****         result = NULL;
 594:Source\azure_iot_sdk\c-utility\src/map.c ****         LogError("invalid arg (NULL)");
 2216              		.loc 1 594 0
 2217 0008 FFF7FEFF 		bl	xlogging_get_log_function
 2218              	.LVL317:
 2219 000c 041E     		subs	r4, r0, #0
 2220              	.LVL318:
 2221 000e 00D1     		bne	.LCB2529
 2222 0010 C4E0     		b	.L162	@long jump
 2223              	.LCB2529:
 2224              		.loc 1 594 0 is_stmt 0 discriminator 4
 2225 0012 654B     		ldr	r3, .L164
 2226 0014 0193     		str	r3, [sp, #4]
 2227 0016 0123     		movs	r3, #1
 2228 0018 0093     		str	r3, [sp]
 2229 001a 644B     		ldr	r3, .L164+4
 2230 001c 644A     		ldr	r2, .L164+8
 2231 001e 5032     		adds	r2, r2, #80
 2232 0020 6449     		ldr	r1, .L164+12
 2233 0022 0020     		movs	r0, #0
 2234              	.LVL319:
 2235 0024 A047     		blx	r4
 2236              	.LVL320:
 2237              	.LBE56:
 593:Source\azure_iot_sdk\c-utility\src/map.c ****         LogError("invalid arg (NULL)");
 2238              		.loc 1 593 0 is_stmt 1 discriminator 4
 2239 0026 0023     		movs	r3, #0
 2240 0028 0293     		str	r3, [sp, #8]
 2241 002a B9E0     		b	.L146
 2242              	.LVL321:
 2243              	.L145:
 595:Source\azure_iot_sdk\c-utility\src/map.c ****     }
 596:Source\azure_iot_sdk\c-utility\src/map.c ****     else
 597:Source\azure_iot_sdk\c-utility\src/map.c ****     {
 598:Source\azure_iot_sdk\c-utility\src/map.c ****         /*Codes_SRS_MAP_02_048: [Map_ToJSON shall produce a STRING_HANDLE representing the content 
 599:Source\azure_iot_sdk\c-utility\src/map.c ****         result = STRING_construct("{");
 2244              		.loc 1 599 0
 2245 002c 6248     		ldr	r0, .L164+16
 2246              	.LVL322:
 2247 002e FFF7FEFF 		bl	STRING_construct
 2248              	.LVL323:
 2249 0032 0290     		str	r0, [sp, #8]
 2250              	.LVL324:
 600:Source\azure_iot_sdk\c-utility\src/map.c ****         if (result == NULL)
 2251              		.loc 1 600 0
 2252 0034 0028     		cmp	r0, #0
 2253 0036 00D0     		beq	.LCB2559
 2254 0038 7DE0     		b	.L163	@long jump
 2255              	.LCB2559:
 2256              	.LBB57:
 601:Source\azure_iot_sdk\c-utility\src/map.c ****         {
ARM GAS  C:\Users\Phuong\AppData\Local\Temp\cczAMJrc.s 			page 54


 602:Source\azure_iot_sdk\c-utility\src/map.c ****             LogError("STRING_construct failed");
 2257              		.loc 1 602 0 discriminator 3
 2258 003a FFF7FEFF 		bl	xlogging_get_log_function
 2259              	.LVL325:
 2260 003e 041E     		subs	r4, r0, #0
 2261              	.LVL326:
 2262 0040 00D1     		bne	.LCB2567
 2263 0042 ADE0     		b	.L146	@long jump
 2264              	.LCB2567:
 2265              		.loc 1 602 0 is_stmt 0 discriminator 4
 2266 0044 5D4B     		ldr	r3, .L164+20
 2267 0046 0193     		str	r3, [sp, #4]
 2268 0048 0123     		movs	r3, #1
 2269 004a 0093     		str	r3, [sp]
 2270 004c 5C4B     		ldr	r3, .L164+24
 2271 004e 584A     		ldr	r2, .L164+8
 2272 0050 5032     		adds	r2, r2, #80
 2273 0052 5849     		ldr	r1, .L164+12
 2274 0054 0020     		movs	r0, #0
 2275              	.LVL327:
 2276 0056 A047     		blx	r4
 2277              	.LVL328:
 2278 0058 A2E0     		b	.L146
 2279              	.LVL329:
 2280              	.L159:
 2281              	.LBE57:
 2282              	.LBB58:
 2283              	.LBB59:
 603:Source\azure_iot_sdk\c-utility\src/map.c ****         }
 604:Source\azure_iot_sdk\c-utility\src/map.c ****         else
 605:Source\azure_iot_sdk\c-utility\src/map.c ****         {
 606:Source\azure_iot_sdk\c-utility\src/map.c ****             size_t i;
 607:Source\azure_iot_sdk\c-utility\src/map.c ****             MAP_HANDLE_DATA* handleData = (MAP_HANDLE_DATA *)handle;
 608:Source\azure_iot_sdk\c-utility\src/map.c ****             /*Codes_SRS_MAP_02_049: [If the MAP is empty, then Map_ToJSON shall produce the string 
 609:Source\azure_iot_sdk\c-utility\src/map.c ****             bool breakFor = false; /*used to break out of for*/
 610:Source\azure_iot_sdk\c-utility\src/map.c ****             for (i = 0; (i < handleData->count) && (!breakFor); i++)
 611:Source\azure_iot_sdk\c-utility\src/map.c ****             {
 612:Source\azure_iot_sdk\c-utility\src/map.c ****                 /*add one entry to the JSON*/
 613:Source\azure_iot_sdk\c-utility\src/map.c ****                 /*Codes_SRS_MAP_02_050: [If the map has properties then Map_ToJSON shall produce th
 614:Source\azure_iot_sdk\c-utility\src/map.c ****                 STRING_HANDLE key = STRING_new_JSON(handleData->keys[i]);
 2284              		.loc 1 614 0 is_stmt 1
 2285 005a A700     		lsls	r7, r4, #2
 2286 005c 3368     		ldr	r3, [r6]
 2287 005e D859     		ldr	r0, [r3, r7]
 2288 0060 FFF7FEFF 		bl	STRING_new_JSON
 2289              	.LVL330:
 2290 0064 0390     		str	r0, [sp, #12]
 2291              	.LVL331:
 615:Source\azure_iot_sdk\c-utility\src/map.c ****                 if (key == NULL)
 2292              		.loc 1 615 0
 2293 0066 0028     		cmp	r0, #0
 2294 0068 14D1     		bne	.L148
 2295              	.LBB60:
 616:Source\azure_iot_sdk\c-utility\src/map.c ****                 {
 617:Source\azure_iot_sdk\c-utility\src/map.c ****                     LogError("STRING_new_JSON failed");
 2296              		.loc 1 617 0 discriminator 3
 2297 006a FFF7FEFF 		bl	xlogging_get_log_function
ARM GAS  C:\Users\Phuong\AppData\Local\Temp\cczAMJrc.s 			page 55


 2298              	.LVL332:
 2299 006e 051E     		subs	r5, r0, #0
 2300              	.LVL333:
 2301 0070 09D0     		beq	.L149
 2302              		.loc 1 617 0 is_stmt 0 discriminator 4
 2303 0072 544B     		ldr	r3, .L164+28
 2304 0074 0193     		str	r3, [sp, #4]
 2305 0076 0123     		movs	r3, #1
 2306 0078 0093     		str	r3, [sp]
 2307 007a 534B     		ldr	r3, .L164+32
 2308 007c 4C4A     		ldr	r2, .L164+8
 2309 007e 5032     		adds	r2, r2, #80
 2310 0080 4C49     		ldr	r1, .L164+12
 2311 0082 0020     		movs	r0, #0
 2312              	.LVL334:
 2313 0084 A847     		blx	r5
 2314              	.LVL335:
 2315              	.L149:
 2316              	.LBE60:
 618:Source\azure_iot_sdk\c-utility\src/map.c ****                     STRING_delete(result);
 2317              		.loc 1 618 0 is_stmt 1
 2318 0086 0298     		ldr	r0, [sp, #8]
 2319 0088 FFF7FEFF 		bl	STRING_delete
 2320              	.LVL336:
 619:Source\azure_iot_sdk\c-utility\src/map.c ****                     result = NULL;
 620:Source\azure_iot_sdk\c-utility\src/map.c ****                     breakFor = true;
 2321              		.loc 1 620 0
 2322 008c 0125     		movs	r5, #1
 2323              	.LVL337:
 619:Source\azure_iot_sdk\c-utility\src/map.c ****                     result = NULL;
 2324              		.loc 1 619 0
 2325 008e 0023     		movs	r3, #0
 2326 0090 0293     		str	r3, [sp, #8]
 2327 0092 4EE0     		b	.L150
 2328              	.LVL338:
 2329              	.L148:
 2330              	.LBB61:
 621:Source\azure_iot_sdk\c-utility\src/map.c ****                 }
 622:Source\azure_iot_sdk\c-utility\src/map.c ****                 else
 623:Source\azure_iot_sdk\c-utility\src/map.c ****                 {
 624:Source\azure_iot_sdk\c-utility\src/map.c ****                     STRING_HANDLE value = STRING_new_JSON(handleData->values[i]);
 2331              		.loc 1 624 0
 2332 0094 7368     		ldr	r3, [r6, #4]
 2333 0096 D859     		ldr	r0, [r3, r7]
 2334              	.LVL339:
 2335 0098 FFF7FEFF 		bl	STRING_new_JSON
 2336              	.LVL340:
 2337 009c 071E     		subs	r7, r0, #0
 2338              	.LVL341:
 625:Source\azure_iot_sdk\c-utility\src/map.c ****                     if (value == NULL)
 2339              		.loc 1 625 0
 2340 009e 14D1     		bne	.L151
 2341              	.LBB62:
 626:Source\azure_iot_sdk\c-utility\src/map.c ****                     {
 627:Source\azure_iot_sdk\c-utility\src/map.c ****                         LogError("STRING_new_JSON failed");
 2342              		.loc 1 627 0 discriminator 3
 2343 00a0 FFF7FEFF 		bl	xlogging_get_log_function
ARM GAS  C:\Users\Phuong\AppData\Local\Temp\cczAMJrc.s 			page 56


 2344              	.LVL342:
 2345 00a4 071E     		subs	r7, r0, #0
 2346              	.LVL343:
 2347 00a6 09D0     		beq	.L152
 2348              		.loc 1 627 0 is_stmt 0 discriminator 4
 2349 00a8 464B     		ldr	r3, .L164+28
 2350 00aa 0193     		str	r3, [sp, #4]
 2351 00ac 0123     		movs	r3, #1
 2352 00ae 0093     		str	r3, [sp]
 2353 00b0 464B     		ldr	r3, .L164+36
 2354 00b2 3F4A     		ldr	r2, .L164+8
 2355 00b4 5032     		adds	r2, r2, #80
 2356 00b6 3F49     		ldr	r1, .L164+12
 2357 00b8 0020     		movs	r0, #0
 2358              	.LVL344:
 2359 00ba B847     		blx	r7
 2360              	.LVL345:
 2361              	.L152:
 2362              	.LBE62:
 628:Source\azure_iot_sdk\c-utility\src/map.c ****                         STRING_delete(result);
 2363              		.loc 1 628 0 is_stmt 1
 2364 00bc 0298     		ldr	r0, [sp, #8]
 2365 00be FFF7FEFF 		bl	STRING_delete
 2366              	.LVL346:
 629:Source\azure_iot_sdk\c-utility\src/map.c ****                         result = NULL;
 630:Source\azure_iot_sdk\c-utility\src/map.c ****                         breakFor = true;
 2367              		.loc 1 630 0
 2368 00c2 0125     		movs	r5, #1
 629:Source\azure_iot_sdk\c-utility\src/map.c ****                         result = NULL;
 2369              		.loc 1 629 0
 2370 00c4 0023     		movs	r3, #0
 2371 00c6 0293     		str	r3, [sp, #8]
 2372 00c8 30E0     		b	.L153
 2373              	.LVL347:
 2374              	.L151:
 631:Source\azure_iot_sdk\c-utility\src/map.c ****                     }
 632:Source\azure_iot_sdk\c-utility\src/map.c ****                     else
 633:Source\azure_iot_sdk\c-utility\src/map.c ****                     {
 634:Source\azure_iot_sdk\c-utility\src/map.c ****                         if (!(
 2375              		.loc 1 634 0
 2376 00ca 002C     		cmp	r4, #0
 2377 00cc 05D0     		beq	.L154
 635:Source\azure_iot_sdk\c-utility\src/map.c ****                             ((i>0) ? (STRING_concat(result, ",") == 0) : 1) &&
 2378              		.loc 1 635 0
 2379 00ce 4049     		ldr	r1, .L164+40
 2380 00d0 0298     		ldr	r0, [sp, #8]
 2381              	.LVL348:
 2382 00d2 FFF7FEFF 		bl	STRING_concat
 2383              	.LVL349:
 2384 00d6 0028     		cmp	r0, #0
 2385 00d8 11D1     		bne	.L155
 2386              	.L154:
 636:Source\azure_iot_sdk\c-utility\src/map.c ****                             (STRING_concat_with_STRING(result, key) == 0) &&
 2387              		.loc 1 636 0 discriminator 1
 2388 00da 0399     		ldr	r1, [sp, #12]
 2389 00dc 0298     		ldr	r0, [sp, #8]
 2390 00de FFF7FEFF 		bl	STRING_concat_with_STRING
ARM GAS  C:\Users\Phuong\AppData\Local\Temp\cczAMJrc.s 			page 57


 2391              	.LVL350:
 635:Source\azure_iot_sdk\c-utility\src/map.c ****                             ((i>0) ? (STRING_concat(result, ",") == 0) : 1) &&
 2392              		.loc 1 635 0 discriminator 1
 2393 00e2 0028     		cmp	r0, #0
 2394 00e4 0BD1     		bne	.L155
 637:Source\azure_iot_sdk\c-utility\src/map.c ****                             (STRING_concat(result, ":") == 0) &&
 2395              		.loc 1 637 0
 2396 00e6 3B49     		ldr	r1, .L164+44
 2397 00e8 0298     		ldr	r0, [sp, #8]
 2398 00ea FFF7FEFF 		bl	STRING_concat
 2399              	.LVL351:
 636:Source\azure_iot_sdk\c-utility\src/map.c ****                             (STRING_concat_with_STRING(result, key) == 0) &&
 2400              		.loc 1 636 0
 2401 00ee 0028     		cmp	r0, #0
 2402 00f0 05D1     		bne	.L155
 638:Source\azure_iot_sdk\c-utility\src/map.c ****                             (STRING_concat_with_STRING(result, value) == 0)
 2403              		.loc 1 638 0
 2404 00f2 3900     		movs	r1, r7
 2405 00f4 0298     		ldr	r0, [sp, #8]
 2406 00f6 FFF7FEFF 		bl	STRING_concat_with_STRING
 2407              	.LVL352:
 634:Source\azure_iot_sdk\c-utility\src/map.c ****                             ((i>0) ? (STRING_concat(result, ",") == 0) : 1) &&
 2408              		.loc 1 634 0
 2409 00fa 0028     		cmp	r0, #0
 2410 00fc 13D0     		beq	.L156
 2411              	.L155:
 2412              	.LBB63:
 639:Source\azure_iot_sdk\c-utility\src/map.c ****                             ))
 640:Source\azure_iot_sdk\c-utility\src/map.c ****                         {
 641:Source\azure_iot_sdk\c-utility\src/map.c ****                             LogError("failed to build the JSON");
 2413              		.loc 1 641 0 discriminator 3
 2414 00fe FFF7FEFF 		bl	xlogging_get_log_function
 2415              	.LVL353:
 2416 0102 051E     		subs	r5, r0, #0
 2417              	.LVL354:
 2418 0104 09D0     		beq	.L157
 2419              		.loc 1 641 0 is_stmt 0 discriminator 4
 2420 0106 344B     		ldr	r3, .L164+48
 2421 0108 0193     		str	r3, [sp, #4]
 2422 010a 0123     		movs	r3, #1
 2423 010c 0093     		str	r3, [sp]
 2424 010e 334B     		ldr	r3, .L164+52
 2425 0110 274A     		ldr	r2, .L164+8
 2426 0112 5032     		adds	r2, r2, #80
 2427 0114 2749     		ldr	r1, .L164+12
 2428 0116 0020     		movs	r0, #0
 2429              	.LVL355:
 2430 0118 A847     		blx	r5
 2431              	.LVL356:
 2432              	.L157:
 2433              	.LBE63:
 642:Source\azure_iot_sdk\c-utility\src/map.c ****                             STRING_delete(result);
 2434              		.loc 1 642 0 is_stmt 1
 2435 011a 0298     		ldr	r0, [sp, #8]
 2436 011c FFF7FEFF 		bl	STRING_delete
 2437              	.LVL357:
 643:Source\azure_iot_sdk\c-utility\src/map.c ****                             result = NULL;
ARM GAS  C:\Users\Phuong\AppData\Local\Temp\cczAMJrc.s 			page 58


 644:Source\azure_iot_sdk\c-utility\src/map.c ****                             breakFor = true;
 2438              		.loc 1 644 0
 2439 0120 0125     		movs	r5, #1
 2440              	.LVL358:
 643:Source\azure_iot_sdk\c-utility\src/map.c ****                             result = NULL;
 2441              		.loc 1 643 0
 2442 0122 0023     		movs	r3, #0
 2443 0124 0293     		str	r3, [sp, #8]
 2444              	.LVL359:
 2445              	.L156:
 645:Source\azure_iot_sdk\c-utility\src/map.c ****                         }
 646:Source\azure_iot_sdk\c-utility\src/map.c ****                         else
 647:Source\azure_iot_sdk\c-utility\src/map.c ****                         {
 648:Source\azure_iot_sdk\c-utility\src/map.c ****                             /*all nice, go to the next element in the map*/
 649:Source\azure_iot_sdk\c-utility\src/map.c ****                         }
 650:Source\azure_iot_sdk\c-utility\src/map.c ****                         STRING_delete(value);
 2446              		.loc 1 650 0
 2447 0126 3800     		movs	r0, r7
 2448 0128 FFF7FEFF 		bl	STRING_delete
 2449              	.LVL360:
 2450              	.L153:
 651:Source\azure_iot_sdk\c-utility\src/map.c ****                     }
 652:Source\azure_iot_sdk\c-utility\src/map.c ****                     STRING_delete(key);
 2451              		.loc 1 652 0
 2452 012c 0398     		ldr	r0, [sp, #12]
 2453 012e FFF7FEFF 		bl	STRING_delete
 2454              	.LVL361:
 2455              	.L150:
 2456              	.LBE61:
 2457              	.LBE59:
 610:Source\azure_iot_sdk\c-utility\src/map.c ****             {
 2458              		.loc 1 610 0 discriminator 2
 2459 0132 0134     		adds	r4, r4, #1
 2460              	.LVL362:
 2461 0134 01E0     		b	.L147
 2462              	.LVL363:
 2463              	.L163:
 2464              	.LBE58:
 2465 0136 0025     		movs	r5, #0
 2466 0138 0024     		movs	r4, #0
 2467              	.LVL364:
 2468              	.L147:
 2469              	.LBB66:
 610:Source\azure_iot_sdk\c-utility\src/map.c ****             {
 2470              		.loc 1 610 0 is_stmt 0 discriminator 1
 2471 013a B368     		ldr	r3, [r6, #8]
 2472 013c 9C42     		cmp	r4, r3
 2473 013e 01D2     		bcs	.L158
 610:Source\azure_iot_sdk\c-utility\src/map.c ****             {
 2474              		.loc 1 610 0 discriminator 3
 2475 0140 002D     		cmp	r5, #0
 2476 0142 8AD0     		beq	.L159
 2477              	.L158:
 653:Source\azure_iot_sdk\c-utility\src/map.c ****                 }
 654:Source\azure_iot_sdk\c-utility\src/map.c ****             }
 655:Source\azure_iot_sdk\c-utility\src/map.c **** 
 656:Source\azure_iot_sdk\c-utility\src/map.c ****             if (breakFor)
ARM GAS  C:\Users\Phuong\AppData\Local\Temp\cczAMJrc.s 			page 59


 2478              		.loc 1 656 0 is_stmt 1
 2479 0144 002D     		cmp	r5, #0
 2480 0146 0ED0     		beq	.L160
 2481              	.LBB64:
 657:Source\azure_iot_sdk\c-utility\src/map.c ****             {
 658:Source\azure_iot_sdk\c-utility\src/map.c ****                 LogError("error happened during JSON string builder");
 2482              		.loc 1 658 0 discriminator 3
 2483 0148 FFF7FEFF 		bl	xlogging_get_log_function
 2484              	.LVL365:
 2485 014c 041E     		subs	r4, r0, #0
 2486              	.LVL366:
 2487 014e 27D0     		beq	.L146
 2488              		.loc 1 658 0 is_stmt 0 discriminator 4
 2489 0150 234B     		ldr	r3, .L164+56
 2490 0152 0193     		str	r3, [sp, #4]
 2491 0154 0123     		movs	r3, #1
 2492 0156 0093     		str	r3, [sp]
 2493 0158 224B     		ldr	r3, .L164+60
 2494 015a 154A     		ldr	r2, .L164+8
 2495 015c 5032     		adds	r2, r2, #80
 2496 015e 1549     		ldr	r1, .L164+12
 2497 0160 0020     		movs	r0, #0
 2498              	.LVL367:
 2499 0162 A047     		blx	r4
 2500              	.LVL368:
 2501 0164 1CE0     		b	.L146
 2502              	.LVL369:
 2503              	.L160:
 2504              	.LBE64:
 659:Source\azure_iot_sdk\c-utility\src/map.c ****             }
 660:Source\azure_iot_sdk\c-utility\src/map.c ****             else
 661:Source\azure_iot_sdk\c-utility\src/map.c ****             {
 662:Source\azure_iot_sdk\c-utility\src/map.c ****                 if (STRING_concat(result, "}") != 0)
 2505              		.loc 1 662 0 is_stmt 1
 2506 0166 2049     		ldr	r1, .L164+64
 2507 0168 0298     		ldr	r0, [sp, #8]
 2508 016a FFF7FEFF 		bl	STRING_concat
 2509              	.LVL370:
 2510 016e 0028     		cmp	r0, #0
 2511 0170 16D0     		beq	.L146
 2512              	.LBB65:
 663:Source\azure_iot_sdk\c-utility\src/map.c ****                 {
 664:Source\azure_iot_sdk\c-utility\src/map.c ****                     LogError("failed to build the JSON");
 2513              		.loc 1 664 0 discriminator 3
 2514 0172 FFF7FEFF 		bl	xlogging_get_log_function
 2515              	.LVL371:
 2516 0176 041E     		subs	r4, r0, #0
 2517              	.LVL372:
 2518 0178 0AD0     		beq	.L161
 2519              		.loc 1 664 0 is_stmt 0 discriminator 4
 2520 017a 174B     		ldr	r3, .L164+48
 2521 017c 0193     		str	r3, [sp, #4]
 2522 017e 0123     		movs	r3, #1
 2523 0180 0093     		str	r3, [sp]
 2524 0182 A623     		movs	r3, #166
 2525 0184 9B00     		lsls	r3, r3, #2
 2526 0186 0A4A     		ldr	r2, .L164+8
ARM GAS  C:\Users\Phuong\AppData\Local\Temp\cczAMJrc.s 			page 60


 2527 0188 5032     		adds	r2, r2, #80
 2528 018a 0A49     		ldr	r1, .L164+12
 2529 018c 0020     		movs	r0, #0
 2530              	.LVL373:
 2531 018e A047     		blx	r4
 2532              	.LVL374:
 2533              	.L161:
 2534              	.LBE65:
 665:Source\azure_iot_sdk\c-utility\src/map.c ****                     STRING_delete(result);
 2535              		.loc 1 665 0 is_stmt 1
 2536 0190 0298     		ldr	r0, [sp, #8]
 2537 0192 FFF7FEFF 		bl	STRING_delete
 2538              	.LVL375:
 666:Source\azure_iot_sdk\c-utility\src/map.c ****                     result = NULL;
 2539              		.loc 1 666 0
 2540 0196 0023     		movs	r3, #0
 2541 0198 0293     		str	r3, [sp, #8]
 2542 019a 01E0     		b	.L146
 2543              	.LVL376:
 2544              	.L162:
 2545              	.LBE66:
 593:Source\azure_iot_sdk\c-utility\src/map.c ****         LogError("invalid arg (NULL)");
 2546              		.loc 1 593 0
 2547 019c 0023     		movs	r3, #0
 2548 019e 0293     		str	r3, [sp, #8]
 2549              	.LVL377:
 2550              	.L146:
 667:Source\azure_iot_sdk\c-utility\src/map.c ****                 }
 668:Source\azure_iot_sdk\c-utility\src/map.c ****                 else
 669:Source\azure_iot_sdk\c-utility\src/map.c ****                 {
 670:Source\azure_iot_sdk\c-utility\src/map.c ****                     /*return as is, JSON has been build*/
 671:Source\azure_iot_sdk\c-utility\src/map.c ****                 }
 672:Source\azure_iot_sdk\c-utility\src/map.c ****             }
 673:Source\azure_iot_sdk\c-utility\src/map.c ****         }
 674:Source\azure_iot_sdk\c-utility\src/map.c ****     }
 675:Source\azure_iot_sdk\c-utility\src/map.c ****     return result;
 676:Source\azure_iot_sdk\c-utility\src/map.c **** 
 677:Source\azure_iot_sdk\c-utility\src/map.c **** }
 2551              		.loc 1 677 0
 2552 01a0 0298     		ldr	r0, [sp, #8]
 2553 01a2 05B0     		add	sp, sp, #20
 2554              		@ sp needed
 2555              	.LVL378:
 2556 01a4 F0BD     		pop	{r4, r5, r6, r7, pc}
 2557              	.L165:
 2558 01a6 C046     		.align	2
 2559              	.L164:
 2560 01a8 3C010000 		.word	.LC51
 2561 01ac 52020000 		.word	594
 2562 01b0 80000000 		.word	.LANCHOR2
 2563 01b4 00000000 		.word	.LC1
 2564 01b8 50010000 		.word	.LC53
 2565 01bc 54010000 		.word	.LC55
 2566 01c0 5A020000 		.word	602
 2567 01c4 6C010000 		.word	.LC57
 2568 01c8 69020000 		.word	617
 2569 01cc 73020000 		.word	627
ARM GAS  C:\Users\Phuong\AppData\Local\Temp\cczAMJrc.s 			page 61


 2570 01d0 84010000 		.word	.LC59
 2571 01d4 88010000 		.word	.LC61
 2572 01d8 8C010000 		.word	.LC63
 2573 01dc 81020000 		.word	641
 2574 01e0 A8010000 		.word	.LC65
 2575 01e4 92020000 		.word	658
 2576 01e8 D4010000 		.word	.LC67
 2577              		.cfi_endproc
 2578              	.LFE19:
 2579              		.size	Map_ToJSON, .-Map_ToJSON
 2580              		.global	MAP_RESULTStringStorage
 2581              		.section	.rodata
 2582              		.align	2
 2583              		.set	.LANCHOR0,. + 0
 2584              		.set	.LANCHOR2,. + 128
 2585              		.type	__func__.6055, %object
 2586              		.size	__func__.6055, 30
 2587              	__func__.6055:
 2588 0000 4D61705F 		.ascii	"Map_IncreaseStorageKeysValues\000"
 2588      496E6372 
 2588      65617365 
 2588      53746F72 
 2588      6167654B 
 2589 001e 0000     		.space	2
 2590              		.type	__func__.6072, %object
 2591              		.size	__func__.6072, 30
 2592              	__func__.6072:
 2593 0020 4D61705F 		.ascii	"Map_DecreaseStorageKeysValues\000"
 2593      44656372 
 2593      65617365 
 2593      53746F72 
 2593      6167654B 
 2594 003e 0000     		.space	2
 2595              		.type	__func__.6103, %object
 2596              		.size	__func__.6103, 18
 2597              	__func__.6103:
 2598 0040 696E7365 		.ascii	"insertNewKeyValue\000"
 2598      72744E65 
 2598      774B6579 
 2598      56616C75 
 2598      6500
 2599 0052 0000     		.space	2
 2600              		.type	__func__.6032, %object
 2601              		.size	__func__.6032, 10
 2602              	__func__.6032:
 2603 0054 4D61705F 		.ascii	"Map_Clone\000"
 2603      436C6F6E 
 2603      6500
 2604 005e 0000     		.space	2
 2605              		.type	__func__.6116, %object
 2606              		.size	__func__.6116, 8
 2607              	__func__.6116:
 2608 0060 4D61705F 		.ascii	"Map_Add\000"
 2608      41646400 
 2609              		.type	__func__.6130, %object
 2610              		.size	__func__.6130, 16
 2611              	__func__.6130:
ARM GAS  C:\Users\Phuong\AppData\Local\Temp\cczAMJrc.s 			page 62


 2612 0068 4D61705F 		.ascii	"Map_AddOrUpdate\000"
 2612      4164644F 
 2612      72557064 
 2612      61746500 
 2613              		.type	__func__.6150, %object
 2614              		.size	__func__.6150, 11
 2615              	__func__.6150:
 2616 0078 4D61705F 		.ascii	"Map_Delete\000"
 2616      44656C65 
 2616      746500
 2617 0083 00       		.space	1
 2618              		.type	__func__.6163, %object
 2619              		.size	__func__.6163, 16
 2620              	__func__.6163:
 2621 0084 4D61705F 		.ascii	"Map_ContainsKey\000"
 2621      436F6E74 
 2621      61696E73 
 2621      4B657900 
 2622              		.type	__func__.6174, %object
 2623              		.size	__func__.6174, 18
 2624              	__func__.6174:
 2625 0094 4D61705F 		.ascii	"Map_ContainsValue\000"
 2625      436F6E74 
 2625      61696E73 
 2625      56616C75 
 2625      6500
 2626 00a6 0000     		.space	2
 2627              		.type	__func__.6184, %object
 2628              		.size	__func__.6184, 20
 2629              	__func__.6184:
 2630 00a8 4D61705F 		.ascii	"Map_GetValueFromKey\000"
 2630      47657456 
 2630      616C7565 
 2630      46726F6D 
 2630      4B657900 
 2631              		.type	__func__.6198, %object
 2632              		.size	__func__.6198, 17
 2633              	__func__.6198:
 2634 00bc 4D61705F 		.ascii	"Map_GetInternals\000"
 2634      47657449 
 2634      6E746572 
 2634      6E616C73 
 2634      00
 2635 00cd 000000   		.space	3
 2636              		.type	__func__.6207, %object
 2637              		.size	__func__.6207, 11
 2638              	__func__.6207:
 2639 00d0 4D61705F 		.ascii	"Map_ToJSON\000"
 2639      546F4A53 
 2639      4F4E00
 2640              		.data
 2641              		.align	2
 2642              		.set	.LANCHOR1,. + 0
 2643              		.type	MAP_RESULTStringStorage, %object
 2644              		.size	MAP_RESULTStringStorage, 24
 2645              	MAP_RESULTStringStorage:
 2646 0000 D8010000 		.word	.LC69
ARM GAS  C:\Users\Phuong\AppData\Local\Temp\cczAMJrc.s 			page 63


 2647 0004 E0010000 		.word	.LC70
 2648 0008 EC010000 		.word	.LC71
 2649 000c FC010000 		.word	.LC72
 2650 0010 0C020000 		.word	.LC73
 2651 0014 1C020000 		.word	.LC74
 2652              		.section	.rodata.str1.4,"aMS",%progbits,1
 2653              		.align	2
 2654              	.LC1:
 2655 0000 536F7572 		.ascii	"Source\\azure_iot_sdk\\c-utility\\src\\map.c\000"
 2655      63655C61 
 2655      7A757265 
 2655      5F696F74 
 2655      5F73646B 
 2656 0029 000000   		.space	3
 2657              	.LC3:
 2658 002c 7265616C 		.ascii	"realloc error\000"
 2658      6C6F6320 
 2658      6572726F 
 2658      7200
 2659 003a 0000     		.space	2
 2660              	.LC5:
 2661 003c 43415441 		.ascii	"CATASTROPHIC error, unable to undo through realloc "
 2661      5354524F 
 2661      50484943 
 2661      20657272 
 2661      6F722C20 
 2662 006f 746F2061 		.ascii	"to a smaller size\000"
 2662      20736D61 
 2662      6C6C6572 
 2662      2073697A 
 2662      6500
 2663 0081 000000   		.space	3
 2664              	.LC12:
 2665 0084 756E6162 		.ascii	"unable to mallocAndStrcpy_s\000"
 2665      6C652074 
 2665      6F206D61 
 2665      6C6C6F63 
 2665      416E6453 
 2666              	.LC18:
 2667 00a0 696E7661 		.ascii	"invalid arg to Map_Clone (NULL)\000"
 2667      6C696420 
 2667      61726720 
 2667      746F204D 
 2667      61705F43 
 2668              	.LC20:
 2669 00c0 756E6162 		.ascii	"unable to malloc\000"
 2669      6C652074 
 2669      6F206D61 
 2669      6C6C6F63 
 2669      00
 2670 00d1 000000   		.space	3
 2671              	.LC22:
 2672 00d4 756E6162 		.ascii	"unable to clone keys\000"
 2672      6C652074 
 2672      6F20636C 
 2672      6F6E6520 
 2672      6B657973 
ARM GAS  C:\Users\Phuong\AppData\Local\Temp\cczAMJrc.s 			page 64


 2673 00e9 000000   		.space	3
 2674              	.LC24:
 2675 00ec 756E6162 		.ascii	"unable to clone values\000"
 2675      6C652074 
 2675      6F20636C 
 2675      6F6E6520 
 2675      76616C75 
 2676 0103 00       		.space	1
 2677              	.LC28:
 2678 0104 72657375 		.ascii	"result = %s\000"
 2678      6C74203D 
 2678      20257300 
 2679              	.LC44:
 2680 0110 696E7661 		.ascii	"invalid parameter to Map_GetValueFromKey\000"
 2680      6C696420 
 2680      70617261 
 2680      6D657465 
 2680      7220746F 
 2681 0139 000000   		.space	3
 2682              	.LC51:
 2683 013c 696E7661 		.ascii	"invalid arg (NULL)\000"
 2683      6C696420 
 2683      61726720 
 2683      284E554C 
 2683      4C2900
 2684 014f 00       		.space	1
 2685              	.LC53:
 2686 0150 7B00     		.ascii	"{\000"
 2687 0152 0000     		.space	2
 2688              	.LC55:
 2689 0154 53545249 		.ascii	"STRING_construct failed\000"
 2689      4E475F63 
 2689      6F6E7374 
 2689      72756374 
 2689      20666169 
 2690              	.LC57:
 2691 016c 53545249 		.ascii	"STRING_new_JSON failed\000"
 2691      4E475F6E 
 2691      65775F4A 
 2691      534F4E20 
 2691      6661696C 
 2692 0183 00       		.space	1
 2693              	.LC59:
 2694 0184 2C00     		.ascii	",\000"
 2695 0186 0000     		.space	2
 2696              	.LC61:
 2697 0188 3A00     		.ascii	":\000"
 2698 018a 0000     		.space	2
 2699              	.LC63:
 2700 018c 6661696C 		.ascii	"failed to build the JSON\000"
 2700      65642074 
 2700      6F206275 
 2700      696C6420 
 2700      74686520 
 2701 01a5 000000   		.space	3
 2702              	.LC65:
 2703 01a8 6572726F 		.ascii	"error happened during JSON string builder\000"
ARM GAS  C:\Users\Phuong\AppData\Local\Temp\cczAMJrc.s 			page 65


 2703      72206861 
 2703      7070656E 
 2703      65642064 
 2703      7572696E 
 2704 01d2 0000     		.space	2
 2705              	.LC67:
 2706 01d4 7D00     		.ascii	"}\000"
 2707 01d6 0000     		.space	2
 2708              	.LC69:
 2709 01d8 4D41505F 		.ascii	"MAP_OK\000"
 2709      4F4B00
 2710 01df 00       		.space	1
 2711              	.LC70:
 2712 01e0 4D41505F 		.ascii	"MAP_ERROR\000"
 2712      4552524F 
 2712      5200
 2713 01ea 0000     		.space	2
 2714              	.LC71:
 2715 01ec 4D41505F 		.ascii	"MAP_INVALIDARG\000"
 2715      494E5641 
 2715      4C494441 
 2715      524700
 2716 01fb 00       		.space	1
 2717              	.LC72:
 2718 01fc 4D41505F 		.ascii	"MAP_KEYEXISTS\000"
 2718      4B455945 
 2718      58495354 
 2718      5300
 2719 020a 0000     		.space	2
 2720              	.LC73:
 2721 020c 4D41505F 		.ascii	"MAP_KEYNOTFOUND\000"
 2721      4B45594E 
 2721      4F54464F 
 2721      554E4400 
 2722              	.LC74:
 2723 021c 4D41505F 		.ascii	"MAP_FILTER_REJECT\000"
 2723      46494C54 
 2723      45525F52 
 2723      454A4543 
 2723      5400
 2724              		.text
 2725              	.Letext0:
 2726              		.file 2 "c:\\program files (x86)\\cypress\\psoc creator\\4.2\\psoc creator\\import\\gnu\\arm\\5.4.
 2727              		.file 3 ".\\Source\\azure_iot_sdk\\c-utility\\inc/azure_c_shared_utility/strings_types.h"
 2728              		.file 4 ".\\Source\\azure_iot_sdk\\c-utility\\inc/azure_c_shared_utility/map.h"
 2729              		.file 5 ".\\Source\\azure_iot_sdk\\c-utility\\inc/azure_c_shared_utility/xlogging.h"
 2730              		.file 6 "c:\\program files (x86)\\cypress\\psoc creator\\4.2\\psoc creator\\import\\gnu\\arm\\5.4.
 2731              		.file 7 "c:\\program files (x86)\\cypress\\psoc creator\\4.2\\psoc creator\\import\\gnu\\arm\\5.4.
 2732              		.file 8 ".\\Source\\azure_iot_sdk\\c-utility\\inc/azure_c_shared_utility/crt_abstractions.h"
 2733              		.file 9 ".\\Source\\azure_iot_sdk\\c-utility\\inc/azure_c_shared_utility/strings.h"